ARM GAS  C:\Users\matte\AppData\Local\Temp\ccH6qY0h.s 			page 1


   1              		.cpu cortex-m7
   2              		.eabi_attribute 28, 1
   3              		.eabi_attribute 20, 1
   4              		.eabi_attribute 21, 1
   5              		.eabi_attribute 23, 3
   6              		.eabi_attribute 24, 1
   7              		.eabi_attribute 25, 1
   8              		.eabi_attribute 26, 1
   9              		.eabi_attribute 30, 2
  10              		.eabi_attribute 34, 1
  11              		.eabi_attribute 18, 4
  12              		.file	"displayHandler.cpp"
  13              		.text
  14              	.Ltext0:
  15              		.cfi_sections	.debug_frame
  16              		.section	.text._ZN5daisy11OledDisplayINS_13SSD130xDriverILj128ELj64ENS_19SSD130xI2CTransportEEEE4F
  17              		.align	1
  18              		.p2align 2,,3
  19              		.weak	_ZN5daisy11OledDisplayINS_13SSD130xDriverILj128ELj64ENS_19SSD130xI2CTransportEEEE4FillEb
  20              		.arch armv7e-m
  21              		.syntax unified
  22              		.thumb
  23              		.thumb_func
  24              		.fpu fpv5-d16
  26              	_ZN5daisy11OledDisplayINS_13SSD130xDriverILj128ELj64ENS_19SSD130xI2CTransportEEEE4FillEb:
  27              	.LVL0:
  28              	.LFB2712:
  29              		.file 1 "../../libs/PoliTeKDSP/libs/libDaisy/src/hid/disp/oled_display.h"
   1:../../libs/PoliTeKDSP/libs/libDaisy/src/hid/disp/oled_display.h **** #pragma once
   2:../../libs/PoliTeKDSP/libs/libDaisy/src/hid/disp/oled_display.h **** #ifndef DSY_OLED_DISPLAY_H
   3:../../libs/PoliTeKDSP/libs/libDaisy/src/hid/disp/oled_display.h **** #define DSY_OLED_DISPLAY_H /**< Macro */
   4:../../libs/PoliTeKDSP/libs/libDaisy/src/hid/disp/oled_display.h **** 
   5:../../libs/PoliTeKDSP/libs/libDaisy/src/hid/disp/oled_display.h **** #include "display.h"
   6:../../libs/PoliTeKDSP/libs/libDaisy/src/hid/disp/oled_display.h **** 
   7:../../libs/PoliTeKDSP/libs/libDaisy/src/hid/disp/oled_display.h **** namespace daisy
   8:../../libs/PoliTeKDSP/libs/libDaisy/src/hid/disp/oled_display.h **** {
   9:../../libs/PoliTeKDSP/libs/libDaisy/src/hid/disp/oled_display.h **** /** 
  10:../../libs/PoliTeKDSP/libs/libDaisy/src/hid/disp/oled_display.h ****  * This class is for drawing to a monochrome OLED display. 
  11:../../libs/PoliTeKDSP/libs/libDaisy/src/hid/disp/oled_display.h ****  * @ingroup device
  12:../../libs/PoliTeKDSP/libs/libDaisy/src/hid/disp/oled_display.h **** */
  13:../../libs/PoliTeKDSP/libs/libDaisy/src/hid/disp/oled_display.h **** template <typename DisplayDriver>
  14:../../libs/PoliTeKDSP/libs/libDaisy/src/hid/disp/oled_display.h **** class OledDisplay : public OneBitGraphicsDisplayImpl<OledDisplay<DisplayDriver>>
  15:../../libs/PoliTeKDSP/libs/libDaisy/src/hid/disp/oled_display.h **** {
  16:../../libs/PoliTeKDSP/libs/libDaisy/src/hid/disp/oled_display.h ****   public:
  17:../../libs/PoliTeKDSP/libs/libDaisy/src/hid/disp/oled_display.h ****     OledDisplay() {}
  18:../../libs/PoliTeKDSP/libs/libDaisy/src/hid/disp/oled_display.h ****     virtual ~OledDisplay() {}
  19:../../libs/PoliTeKDSP/libs/libDaisy/src/hid/disp/oled_display.h **** 
  20:../../libs/PoliTeKDSP/libs/libDaisy/src/hid/disp/oled_display.h ****     struct Config
  21:../../libs/PoliTeKDSP/libs/libDaisy/src/hid/disp/oled_display.h ****     {
  22:../../libs/PoliTeKDSP/libs/libDaisy/src/hid/disp/oled_display.h ****         typename DisplayDriver::Config driver_config;
  23:../../libs/PoliTeKDSP/libs/libDaisy/src/hid/disp/oled_display.h ****     };
  24:../../libs/PoliTeKDSP/libs/libDaisy/src/hid/disp/oled_display.h **** 
  25:../../libs/PoliTeKDSP/libs/libDaisy/src/hid/disp/oled_display.h ****     void Init(Config config) { driver_.Init(config.driver_config); }
  26:../../libs/PoliTeKDSP/libs/libDaisy/src/hid/disp/oled_display.h **** 
  27:../../libs/PoliTeKDSP/libs/libDaisy/src/hid/disp/oled_display.h ****     uint16_t Height() const override { return driver_.Height(); }
  28:../../libs/PoliTeKDSP/libs/libDaisy/src/hid/disp/oled_display.h ****     uint16_t Width() const override { return driver_.Width(); }
  29:../../libs/PoliTeKDSP/libs/libDaisy/src/hid/disp/oled_display.h **** 
ARM GAS  C:\Users\matte\AppData\Local\Temp\ccH6qY0h.s 			page 2


  30:../../libs/PoliTeKDSP/libs/libDaisy/src/hid/disp/oled_display.h ****     /** 
  31:../../libs/PoliTeKDSP/libs/libDaisy/src/hid/disp/oled_display.h ****     Fills the entire display with either on/off.
  32:../../libs/PoliTeKDSP/libs/libDaisy/src/hid/disp/oled_display.h ****     \param on Sets on or off.
  33:../../libs/PoliTeKDSP/libs/libDaisy/src/hid/disp/oled_display.h ****     */
  34:../../libs/PoliTeKDSP/libs/libDaisy/src/hid/disp/oled_display.h ****     void Fill(bool on) override { driver_.Fill(on); }
  30              		.loc 1 34 10 view -0
  31              		.cfi_startproc
  32              		@ args = 0, pretend = 0, frame = 0
  33              		@ frame_needed = 0, uses_anonymous_args = 0
  34              		@ link register save eliminated.
  35              	.LBB15:
  36              	.LBI15:
  37              		.file 2 "../../libs/PoliTeKDSP/libs/libDaisy/src/dev/oled_ssd130x.h"
   1:../../libs/PoliTeKDSP/libs/libDaisy/src/dev/oled_ssd130x.h **** #pragma once
   2:../../libs/PoliTeKDSP/libs/libDaisy/src/dev/oled_ssd130x.h **** #ifndef SA_OLED_SSD130X_H
   3:../../libs/PoliTeKDSP/libs/libDaisy/src/dev/oled_ssd130x.h **** #define SA_OLED_SSD130X_H /**< & */
   4:../../libs/PoliTeKDSP/libs/libDaisy/src/dev/oled_ssd130x.h **** 
   5:../../libs/PoliTeKDSP/libs/libDaisy/src/dev/oled_ssd130x.h **** #include "per/i2c.h"
   6:../../libs/PoliTeKDSP/libs/libDaisy/src/dev/oled_ssd130x.h **** #include "per/spi.h"
   7:../../libs/PoliTeKDSP/libs/libDaisy/src/dev/oled_ssd130x.h **** #include "per/gpio.h"
   8:../../libs/PoliTeKDSP/libs/libDaisy/src/dev/oled_ssd130x.h **** #include "sys/system.h"
   9:../../libs/PoliTeKDSP/libs/libDaisy/src/dev/oled_ssd130x.h **** 
  10:../../libs/PoliTeKDSP/libs/libDaisy/src/dev/oled_ssd130x.h **** namespace daisy
  11:../../libs/PoliTeKDSP/libs/libDaisy/src/dev/oled_ssd130x.h **** {
  12:../../libs/PoliTeKDSP/libs/libDaisy/src/dev/oled_ssd130x.h **** /**
  13:../../libs/PoliTeKDSP/libs/libDaisy/src/dev/oled_ssd130x.h ****  * I2C Transport for SSD1306 / SSD1309 OLED display devices
  14:../../libs/PoliTeKDSP/libs/libDaisy/src/dev/oled_ssd130x.h ****  */
  15:../../libs/PoliTeKDSP/libs/libDaisy/src/dev/oled_ssd130x.h **** class SSD130xI2CTransport
  16:../../libs/PoliTeKDSP/libs/libDaisy/src/dev/oled_ssd130x.h **** {
  17:../../libs/PoliTeKDSP/libs/libDaisy/src/dev/oled_ssd130x.h ****   public:
  18:../../libs/PoliTeKDSP/libs/libDaisy/src/dev/oled_ssd130x.h ****     struct Config
  19:../../libs/PoliTeKDSP/libs/libDaisy/src/dev/oled_ssd130x.h ****     {
  20:../../libs/PoliTeKDSP/libs/libDaisy/src/dev/oled_ssd130x.h ****         Config()
  21:../../libs/PoliTeKDSP/libs/libDaisy/src/dev/oled_ssd130x.h ****         {
  22:../../libs/PoliTeKDSP/libs/libDaisy/src/dev/oled_ssd130x.h ****             // Intialize using defaults
  23:../../libs/PoliTeKDSP/libs/libDaisy/src/dev/oled_ssd130x.h ****             Defaults();
  24:../../libs/PoliTeKDSP/libs/libDaisy/src/dev/oled_ssd130x.h ****         }
  25:../../libs/PoliTeKDSP/libs/libDaisy/src/dev/oled_ssd130x.h ****         I2CHandle::Config i2c_config;
  26:../../libs/PoliTeKDSP/libs/libDaisy/src/dev/oled_ssd130x.h ****         uint8_t           i2c_address;
  27:../../libs/PoliTeKDSP/libs/libDaisy/src/dev/oled_ssd130x.h ****         void              Defaults()
  28:../../libs/PoliTeKDSP/libs/libDaisy/src/dev/oled_ssd130x.h ****         {
  29:../../libs/PoliTeKDSP/libs/libDaisy/src/dev/oled_ssd130x.h ****             i2c_config.periph         = I2CHandle::Config::Peripheral::I2C_1;
  30:../../libs/PoliTeKDSP/libs/libDaisy/src/dev/oled_ssd130x.h ****             i2c_config.speed          = I2CHandle::Config::Speed::I2C_1MHZ;
  31:../../libs/PoliTeKDSP/libs/libDaisy/src/dev/oled_ssd130x.h ****             i2c_config.mode           = I2CHandle::Config::Mode::I2C_MASTER;
  32:../../libs/PoliTeKDSP/libs/libDaisy/src/dev/oled_ssd130x.h ****             i2c_config.pin_config.scl = Pin(PORTB, 8);
  33:../../libs/PoliTeKDSP/libs/libDaisy/src/dev/oled_ssd130x.h ****             i2c_config.pin_config.sda = Pin(PORTB, 9);
  34:../../libs/PoliTeKDSP/libs/libDaisy/src/dev/oled_ssd130x.h ****             i2c_address               = 0x3C;
  35:../../libs/PoliTeKDSP/libs/libDaisy/src/dev/oled_ssd130x.h ****         }
  36:../../libs/PoliTeKDSP/libs/libDaisy/src/dev/oled_ssd130x.h ****     };
  37:../../libs/PoliTeKDSP/libs/libDaisy/src/dev/oled_ssd130x.h ****     void Init(const Config& config)
  38:../../libs/PoliTeKDSP/libs/libDaisy/src/dev/oled_ssd130x.h ****     {
  39:../../libs/PoliTeKDSP/libs/libDaisy/src/dev/oled_ssd130x.h ****         i2c_address_ = config.i2c_address;
  40:../../libs/PoliTeKDSP/libs/libDaisy/src/dev/oled_ssd130x.h ****         i2c_.Init(config.i2c_config);
  41:../../libs/PoliTeKDSP/libs/libDaisy/src/dev/oled_ssd130x.h ****     };
  42:../../libs/PoliTeKDSP/libs/libDaisy/src/dev/oled_ssd130x.h ****     void SendCommand(uint8_t cmd)
  43:../../libs/PoliTeKDSP/libs/libDaisy/src/dev/oled_ssd130x.h ****     {
  44:../../libs/PoliTeKDSP/libs/libDaisy/src/dev/oled_ssd130x.h ****         uint8_t buf[2] = {0X00, cmd};
ARM GAS  C:\Users\matte\AppData\Local\Temp\ccH6qY0h.s 			page 3


  45:../../libs/PoliTeKDSP/libs/libDaisy/src/dev/oled_ssd130x.h ****         i2c_.TransmitBlocking(i2c_address_, buf, 2, 1000);
  46:../../libs/PoliTeKDSP/libs/libDaisy/src/dev/oled_ssd130x.h ****     };
  47:../../libs/PoliTeKDSP/libs/libDaisy/src/dev/oled_ssd130x.h **** 
  48:../../libs/PoliTeKDSP/libs/libDaisy/src/dev/oled_ssd130x.h ****     void SendData(uint8_t* buff, size_t size)
  49:../../libs/PoliTeKDSP/libs/libDaisy/src/dev/oled_ssd130x.h ****     {
  50:../../libs/PoliTeKDSP/libs/libDaisy/src/dev/oled_ssd130x.h ****         for(size_t i = 0; i < size; i++)
  51:../../libs/PoliTeKDSP/libs/libDaisy/src/dev/oled_ssd130x.h ****         {
  52:../../libs/PoliTeKDSP/libs/libDaisy/src/dev/oled_ssd130x.h ****             uint8_t buf[2] = {0X40, buff[i]};
  53:../../libs/PoliTeKDSP/libs/libDaisy/src/dev/oled_ssd130x.h ****             i2c_.TransmitBlocking(i2c_address_, buf, 2, 1000);
  54:../../libs/PoliTeKDSP/libs/libDaisy/src/dev/oled_ssd130x.h ****         }
  55:../../libs/PoliTeKDSP/libs/libDaisy/src/dev/oled_ssd130x.h ****     };
  56:../../libs/PoliTeKDSP/libs/libDaisy/src/dev/oled_ssd130x.h **** 
  57:../../libs/PoliTeKDSP/libs/libDaisy/src/dev/oled_ssd130x.h ****   private:
  58:../../libs/PoliTeKDSP/libs/libDaisy/src/dev/oled_ssd130x.h ****     daisy::I2CHandle i2c_;
  59:../../libs/PoliTeKDSP/libs/libDaisy/src/dev/oled_ssd130x.h ****     uint8_t          i2c_address_;
  60:../../libs/PoliTeKDSP/libs/libDaisy/src/dev/oled_ssd130x.h **** };
  61:../../libs/PoliTeKDSP/libs/libDaisy/src/dev/oled_ssd130x.h **** 
  62:../../libs/PoliTeKDSP/libs/libDaisy/src/dev/oled_ssd130x.h **** /**
  63:../../libs/PoliTeKDSP/libs/libDaisy/src/dev/oled_ssd130x.h ****  * 4 Wire SPI Transport for SSD1306 / SSD1309 OLED display devices
  64:../../libs/PoliTeKDSP/libs/libDaisy/src/dev/oled_ssd130x.h ****  */
  65:../../libs/PoliTeKDSP/libs/libDaisy/src/dev/oled_ssd130x.h **** class SSD130x4WireSpiTransport
  66:../../libs/PoliTeKDSP/libs/libDaisy/src/dev/oled_ssd130x.h **** {
  67:../../libs/PoliTeKDSP/libs/libDaisy/src/dev/oled_ssd130x.h ****   public:
  68:../../libs/PoliTeKDSP/libs/libDaisy/src/dev/oled_ssd130x.h ****     struct Config
  69:../../libs/PoliTeKDSP/libs/libDaisy/src/dev/oled_ssd130x.h ****     {
  70:../../libs/PoliTeKDSP/libs/libDaisy/src/dev/oled_ssd130x.h ****         Config()
  71:../../libs/PoliTeKDSP/libs/libDaisy/src/dev/oled_ssd130x.h ****         {
  72:../../libs/PoliTeKDSP/libs/libDaisy/src/dev/oled_ssd130x.h ****             // Initialize using defaults
  73:../../libs/PoliTeKDSP/libs/libDaisy/src/dev/oled_ssd130x.h ****             Defaults();
  74:../../libs/PoliTeKDSP/libs/libDaisy/src/dev/oled_ssd130x.h ****         }
  75:../../libs/PoliTeKDSP/libs/libDaisy/src/dev/oled_ssd130x.h ****         SpiHandle::Config spi_config;
  76:../../libs/PoliTeKDSP/libs/libDaisy/src/dev/oled_ssd130x.h ****         struct
  77:../../libs/PoliTeKDSP/libs/libDaisy/src/dev/oled_ssd130x.h ****         {
  78:../../libs/PoliTeKDSP/libs/libDaisy/src/dev/oled_ssd130x.h ****             Pin dc;    /**< & */
  79:../../libs/PoliTeKDSP/libs/libDaisy/src/dev/oled_ssd130x.h ****             Pin reset; /**< & */
  80:../../libs/PoliTeKDSP/libs/libDaisy/src/dev/oled_ssd130x.h ****         } pin_config;
  81:../../libs/PoliTeKDSP/libs/libDaisy/src/dev/oled_ssd130x.h ****         void Defaults()
  82:../../libs/PoliTeKDSP/libs/libDaisy/src/dev/oled_ssd130x.h ****         {
  83:../../libs/PoliTeKDSP/libs/libDaisy/src/dev/oled_ssd130x.h ****             // SPI peripheral config
  84:../../libs/PoliTeKDSP/libs/libDaisy/src/dev/oled_ssd130x.h ****             spi_config.periph = SpiHandle::Config::Peripheral::SPI_1;
  85:../../libs/PoliTeKDSP/libs/libDaisy/src/dev/oled_ssd130x.h ****             spi_config.mode   = SpiHandle::Config::Mode::MASTER;
  86:../../libs/PoliTeKDSP/libs/libDaisy/src/dev/oled_ssd130x.h ****             spi_config.direction
  87:../../libs/PoliTeKDSP/libs/libDaisy/src/dev/oled_ssd130x.h ****                 = SpiHandle::Config::Direction::TWO_LINES_TX_ONLY;
  88:../../libs/PoliTeKDSP/libs/libDaisy/src/dev/oled_ssd130x.h ****             spi_config.datasize       = 8;
  89:../../libs/PoliTeKDSP/libs/libDaisy/src/dev/oled_ssd130x.h ****             spi_config.clock_polarity = SpiHandle::Config::ClockPolarity::LOW;
  90:../../libs/PoliTeKDSP/libs/libDaisy/src/dev/oled_ssd130x.h ****             spi_config.clock_phase    = SpiHandle::Config::ClockPhase::ONE_EDGE;
  91:../../libs/PoliTeKDSP/libs/libDaisy/src/dev/oled_ssd130x.h ****             spi_config.nss            = SpiHandle::Config::NSS::HARD_OUTPUT;
  92:../../libs/PoliTeKDSP/libs/libDaisy/src/dev/oled_ssd130x.h ****             spi_config.baud_prescaler = SpiHandle::Config::BaudPrescaler::PS_8;
  93:../../libs/PoliTeKDSP/libs/libDaisy/src/dev/oled_ssd130x.h ****             // SPI pin config
  94:../../libs/PoliTeKDSP/libs/libDaisy/src/dev/oled_ssd130x.h ****             spi_config.pin_config.sclk = Pin(PORTG, 11);
  95:../../libs/PoliTeKDSP/libs/libDaisy/src/dev/oled_ssd130x.h ****             spi_config.pin_config.miso = Pin(PORTX, 0);
  96:../../libs/PoliTeKDSP/libs/libDaisy/src/dev/oled_ssd130x.h ****             spi_config.pin_config.mosi = Pin(PORTB, 5);
  97:../../libs/PoliTeKDSP/libs/libDaisy/src/dev/oled_ssd130x.h ****             spi_config.pin_config.nss  = Pin(PORTG, 10);
  98:../../libs/PoliTeKDSP/libs/libDaisy/src/dev/oled_ssd130x.h ****             // SSD130x control pin config
  99:../../libs/PoliTeKDSP/libs/libDaisy/src/dev/oled_ssd130x.h ****             pin_config.dc    = Pin(PORTB, 4);
 100:../../libs/PoliTeKDSP/libs/libDaisy/src/dev/oled_ssd130x.h ****             pin_config.reset = Pin(PORTB, 15);
 101:../../libs/PoliTeKDSP/libs/libDaisy/src/dev/oled_ssd130x.h ****         }
ARM GAS  C:\Users\matte\AppData\Local\Temp\ccH6qY0h.s 			page 4


 102:../../libs/PoliTeKDSP/libs/libDaisy/src/dev/oled_ssd130x.h ****     };
 103:../../libs/PoliTeKDSP/libs/libDaisy/src/dev/oled_ssd130x.h ****     void Init(const Config& config)
 104:../../libs/PoliTeKDSP/libs/libDaisy/src/dev/oled_ssd130x.h ****     {
 105:../../libs/PoliTeKDSP/libs/libDaisy/src/dev/oled_ssd130x.h ****         // Initialize both GPIO
 106:../../libs/PoliTeKDSP/libs/libDaisy/src/dev/oled_ssd130x.h ****         pin_dc_.Init(config.pin_config.dc, GPIO::Mode::OUTPUT);
 107:../../libs/PoliTeKDSP/libs/libDaisy/src/dev/oled_ssd130x.h ****         pin_reset_.Init(config.pin_config.reset, GPIO::Mode::OUTPUT);
 108:../../libs/PoliTeKDSP/libs/libDaisy/src/dev/oled_ssd130x.h **** 
 109:../../libs/PoliTeKDSP/libs/libDaisy/src/dev/oled_ssd130x.h ****         // Initialize SPI
 110:../../libs/PoliTeKDSP/libs/libDaisy/src/dev/oled_ssd130x.h ****         spi_.Init(config.spi_config);
 111:../../libs/PoliTeKDSP/libs/libDaisy/src/dev/oled_ssd130x.h **** 
 112:../../libs/PoliTeKDSP/libs/libDaisy/src/dev/oled_ssd130x.h ****         // Reset and Configure OLED.
 113:../../libs/PoliTeKDSP/libs/libDaisy/src/dev/oled_ssd130x.h ****         pin_reset_.Write(0);
 114:../../libs/PoliTeKDSP/libs/libDaisy/src/dev/oled_ssd130x.h ****         System::Delay(10);
 115:../../libs/PoliTeKDSP/libs/libDaisy/src/dev/oled_ssd130x.h ****         pin_reset_.Write(1);
 116:../../libs/PoliTeKDSP/libs/libDaisy/src/dev/oled_ssd130x.h ****         System::Delay(10);
 117:../../libs/PoliTeKDSP/libs/libDaisy/src/dev/oled_ssd130x.h ****     };
 118:../../libs/PoliTeKDSP/libs/libDaisy/src/dev/oled_ssd130x.h ****     void SendCommand(uint8_t cmd)
 119:../../libs/PoliTeKDSP/libs/libDaisy/src/dev/oled_ssd130x.h ****     {
 120:../../libs/PoliTeKDSP/libs/libDaisy/src/dev/oled_ssd130x.h ****         pin_dc_.Write(0);
 121:../../libs/PoliTeKDSP/libs/libDaisy/src/dev/oled_ssd130x.h ****         spi_.BlockingTransmit(&cmd, 1);
 122:../../libs/PoliTeKDSP/libs/libDaisy/src/dev/oled_ssd130x.h ****     };
 123:../../libs/PoliTeKDSP/libs/libDaisy/src/dev/oled_ssd130x.h **** 
 124:../../libs/PoliTeKDSP/libs/libDaisy/src/dev/oled_ssd130x.h ****     void SendData(uint8_t* buff, size_t size)
 125:../../libs/PoliTeKDSP/libs/libDaisy/src/dev/oled_ssd130x.h ****     {
 126:../../libs/PoliTeKDSP/libs/libDaisy/src/dev/oled_ssd130x.h ****         pin_dc_.Write(1);
 127:../../libs/PoliTeKDSP/libs/libDaisy/src/dev/oled_ssd130x.h ****         spi_.BlockingTransmit(buff, size);
 128:../../libs/PoliTeKDSP/libs/libDaisy/src/dev/oled_ssd130x.h ****     };
 129:../../libs/PoliTeKDSP/libs/libDaisy/src/dev/oled_ssd130x.h **** 
 130:../../libs/PoliTeKDSP/libs/libDaisy/src/dev/oled_ssd130x.h ****   private:
 131:../../libs/PoliTeKDSP/libs/libDaisy/src/dev/oled_ssd130x.h ****     SpiHandle spi_;
 132:../../libs/PoliTeKDSP/libs/libDaisy/src/dev/oled_ssd130x.h ****     GPIO      pin_reset_;
 133:../../libs/PoliTeKDSP/libs/libDaisy/src/dev/oled_ssd130x.h ****     GPIO      pin_dc_;
 134:../../libs/PoliTeKDSP/libs/libDaisy/src/dev/oled_ssd130x.h **** };
 135:../../libs/PoliTeKDSP/libs/libDaisy/src/dev/oled_ssd130x.h **** 
 136:../../libs/PoliTeKDSP/libs/libDaisy/src/dev/oled_ssd130x.h **** /**
 137:../../libs/PoliTeKDSP/libs/libDaisy/src/dev/oled_ssd130x.h ****  * Soft SPI Transport for SSD1306 / SSD1309 OLED display devices
 138:../../libs/PoliTeKDSP/libs/libDaisy/src/dev/oled_ssd130x.h ****  */
 139:../../libs/PoliTeKDSP/libs/libDaisy/src/dev/oled_ssd130x.h **** class SSD130x4WireSoftSpiTransport
 140:../../libs/PoliTeKDSP/libs/libDaisy/src/dev/oled_ssd130x.h **** {
 141:../../libs/PoliTeKDSP/libs/libDaisy/src/dev/oled_ssd130x.h ****   public:
 142:../../libs/PoliTeKDSP/libs/libDaisy/src/dev/oled_ssd130x.h ****     struct Config
 143:../../libs/PoliTeKDSP/libs/libDaisy/src/dev/oled_ssd130x.h ****     {
 144:../../libs/PoliTeKDSP/libs/libDaisy/src/dev/oled_ssd130x.h ****         Config()
 145:../../libs/PoliTeKDSP/libs/libDaisy/src/dev/oled_ssd130x.h ****         {
 146:../../libs/PoliTeKDSP/libs/libDaisy/src/dev/oled_ssd130x.h ****             // Initialize using defaults
 147:../../libs/PoliTeKDSP/libs/libDaisy/src/dev/oled_ssd130x.h ****             Defaults();
 148:../../libs/PoliTeKDSP/libs/libDaisy/src/dev/oled_ssd130x.h ****         }
 149:../../libs/PoliTeKDSP/libs/libDaisy/src/dev/oled_ssd130x.h ****         struct
 150:../../libs/PoliTeKDSP/libs/libDaisy/src/dev/oled_ssd130x.h ****         {
 151:../../libs/PoliTeKDSP/libs/libDaisy/src/dev/oled_ssd130x.h ****             uint32_t sclk_delay;
 152:../../libs/PoliTeKDSP/libs/libDaisy/src/dev/oled_ssd130x.h ****             Pin      sclk;
 153:../../libs/PoliTeKDSP/libs/libDaisy/src/dev/oled_ssd130x.h ****             Pin      mosi;
 154:../../libs/PoliTeKDSP/libs/libDaisy/src/dev/oled_ssd130x.h ****             Pin      dc;
 155:../../libs/PoliTeKDSP/libs/libDaisy/src/dev/oled_ssd130x.h ****             Pin      reset;
 156:../../libs/PoliTeKDSP/libs/libDaisy/src/dev/oled_ssd130x.h ****         } pin_config;
 157:../../libs/PoliTeKDSP/libs/libDaisy/src/dev/oled_ssd130x.h ****         void Defaults()
 158:../../libs/PoliTeKDSP/libs/libDaisy/src/dev/oled_ssd130x.h ****         {
ARM GAS  C:\Users\matte\AppData\Local\Temp\ccH6qY0h.s 			page 5


 159:../../libs/PoliTeKDSP/libs/libDaisy/src/dev/oled_ssd130x.h ****             pin_config.sclk_delay = 0; // fast as possible?!
 160:../../libs/PoliTeKDSP/libs/libDaisy/src/dev/oled_ssd130x.h ****             // SPI peripheral config
 161:../../libs/PoliTeKDSP/libs/libDaisy/src/dev/oled_ssd130x.h ****             pin_config.sclk = Pin(PORTD, 3); /**< D10 - SPI2 SCK  */
 162:../../libs/PoliTeKDSP/libs/libDaisy/src/dev/oled_ssd130x.h ****             pin_config.mosi = Pin(PORTC, 3); /**< D9  - SPI2 MOSI */
 163:../../libs/PoliTeKDSP/libs/libDaisy/src/dev/oled_ssd130x.h ****             // SSD130x control pin config
 164:../../libs/PoliTeKDSP/libs/libDaisy/src/dev/oled_ssd130x.h ****             pin_config.dc    = Pin(PORTC, 11); //D2
 165:../../libs/PoliTeKDSP/libs/libDaisy/src/dev/oled_ssd130x.h ****             pin_config.reset = Pin(PORTC, 10); //D3
 166:../../libs/PoliTeKDSP/libs/libDaisy/src/dev/oled_ssd130x.h ****         }
 167:../../libs/PoliTeKDSP/libs/libDaisy/src/dev/oled_ssd130x.h ****     };
 168:../../libs/PoliTeKDSP/libs/libDaisy/src/dev/oled_ssd130x.h ****     void Init(const Config& config)
 169:../../libs/PoliTeKDSP/libs/libDaisy/src/dev/oled_ssd130x.h ****     {
 170:../../libs/PoliTeKDSP/libs/libDaisy/src/dev/oled_ssd130x.h ****         // Initialize both GPIO
 171:../../libs/PoliTeKDSP/libs/libDaisy/src/dev/oled_ssd130x.h ****         pin_sclk_.Init(config.pin_config.sclk, GPIO::Mode::OUTPUT);
 172:../../libs/PoliTeKDSP/libs/libDaisy/src/dev/oled_ssd130x.h ****         pin_sclk_.Write(1); //ClockPolarity::LOW
 173:../../libs/PoliTeKDSP/libs/libDaisy/src/dev/oled_ssd130x.h ****         clk_delay = config.pin_config.sclk_delay;
 174:../../libs/PoliTeKDSP/libs/libDaisy/src/dev/oled_ssd130x.h ****         pin_mosi_.Init(config.pin_config.mosi, GPIO::Mode::OUTPUT);
 175:../../libs/PoliTeKDSP/libs/libDaisy/src/dev/oled_ssd130x.h ****         pin_mosi_.Write(0);
 176:../../libs/PoliTeKDSP/libs/libDaisy/src/dev/oled_ssd130x.h **** 
 177:../../libs/PoliTeKDSP/libs/libDaisy/src/dev/oled_ssd130x.h ****         pin_dc_.Init(config.pin_config.dc, GPIO::Mode::OUTPUT);
 178:../../libs/PoliTeKDSP/libs/libDaisy/src/dev/oled_ssd130x.h ****         pin_reset_.Init(config.pin_config.reset, GPIO::Mode::OUTPUT);
 179:../../libs/PoliTeKDSP/libs/libDaisy/src/dev/oled_ssd130x.h **** 
 180:../../libs/PoliTeKDSP/libs/libDaisy/src/dev/oled_ssd130x.h ****         // Reset and Configure OLED.
 181:../../libs/PoliTeKDSP/libs/libDaisy/src/dev/oled_ssd130x.h ****         pin_reset_.Write(0);
 182:../../libs/PoliTeKDSP/libs/libDaisy/src/dev/oled_ssd130x.h ****         System::Delay(10);
 183:../../libs/PoliTeKDSP/libs/libDaisy/src/dev/oled_ssd130x.h ****         pin_reset_.Write(1);
 184:../../libs/PoliTeKDSP/libs/libDaisy/src/dev/oled_ssd130x.h ****         System::Delay(10);
 185:../../libs/PoliTeKDSP/libs/libDaisy/src/dev/oled_ssd130x.h ****     };
 186:../../libs/PoliTeKDSP/libs/libDaisy/src/dev/oled_ssd130x.h ****     void SendCommand(uint8_t cmd)
 187:../../libs/PoliTeKDSP/libs/libDaisy/src/dev/oled_ssd130x.h ****     {
 188:../../libs/PoliTeKDSP/libs/libDaisy/src/dev/oled_ssd130x.h ****         pin_dc_.Write(0);
 189:../../libs/PoliTeKDSP/libs/libDaisy/src/dev/oled_ssd130x.h ****         SoftSpiTransmit(cmd);
 190:../../libs/PoliTeKDSP/libs/libDaisy/src/dev/oled_ssd130x.h ****     };
 191:../../libs/PoliTeKDSP/libs/libDaisy/src/dev/oled_ssd130x.h **** 
 192:../../libs/PoliTeKDSP/libs/libDaisy/src/dev/oled_ssd130x.h ****     void SendData(uint8_t* buff, size_t size)
 193:../../libs/PoliTeKDSP/libs/libDaisy/src/dev/oled_ssd130x.h ****     {
 194:../../libs/PoliTeKDSP/libs/libDaisy/src/dev/oled_ssd130x.h ****         pin_dc_.Write(1);
 195:../../libs/PoliTeKDSP/libs/libDaisy/src/dev/oled_ssd130x.h ****         for(size_t i = 0; i < size; i++)
 196:../../libs/PoliTeKDSP/libs/libDaisy/src/dev/oled_ssd130x.h ****             SoftSpiTransmit(buff[i]);
 197:../../libs/PoliTeKDSP/libs/libDaisy/src/dev/oled_ssd130x.h ****     };
 198:../../libs/PoliTeKDSP/libs/libDaisy/src/dev/oled_ssd130x.h **** 
 199:../../libs/PoliTeKDSP/libs/libDaisy/src/dev/oled_ssd130x.h ****   private:
 200:../../libs/PoliTeKDSP/libs/libDaisy/src/dev/oled_ssd130x.h ****     void SoftSpiTransmit(uint8_t val)
 201:../../libs/PoliTeKDSP/libs/libDaisy/src/dev/oled_ssd130x.h ****     {
 202:../../libs/PoliTeKDSP/libs/libDaisy/src/dev/oled_ssd130x.h ****         // bit flip
 203:../../libs/PoliTeKDSP/libs/libDaisy/src/dev/oled_ssd130x.h ****         val = ((val & 0x01) << 7) | ((val & 0x02) << 5) | ((val & 0x04) << 3)
 204:../../libs/PoliTeKDSP/libs/libDaisy/src/dev/oled_ssd130x.h ****               | ((val & 0x08) << 1) | ((val & 0x10) >> 1) | ((val & 0x20) >> 3)
 205:../../libs/PoliTeKDSP/libs/libDaisy/src/dev/oled_ssd130x.h ****               | ((val & 0x40) >> 5) | ((val & 0x80) >> 7);
 206:../../libs/PoliTeKDSP/libs/libDaisy/src/dev/oled_ssd130x.h **** 
 207:../../libs/PoliTeKDSP/libs/libDaisy/src/dev/oled_ssd130x.h ****         for(uint8_t bit = 0u; bit < 8u; bit++)
 208:../../libs/PoliTeKDSP/libs/libDaisy/src/dev/oled_ssd130x.h ****         {
 209:../../libs/PoliTeKDSP/libs/libDaisy/src/dev/oled_ssd130x.h ****             pin_mosi_.Write((val & (1 << bit)) ? 1 : 0);
 210:../../libs/PoliTeKDSP/libs/libDaisy/src/dev/oled_ssd130x.h **** 
 211:../../libs/PoliTeKDSP/libs/libDaisy/src/dev/oled_ssd130x.h ****             System::DelayTicks(clk_delay);
 212:../../libs/PoliTeKDSP/libs/libDaisy/src/dev/oled_ssd130x.h **** 
 213:../../libs/PoliTeKDSP/libs/libDaisy/src/dev/oled_ssd130x.h ****             pin_sclk_.Toggle();
 214:../../libs/PoliTeKDSP/libs/libDaisy/src/dev/oled_ssd130x.h **** 
 215:../../libs/PoliTeKDSP/libs/libDaisy/src/dev/oled_ssd130x.h ****             System::DelayTicks(clk_delay);
ARM GAS  C:\Users\matte\AppData\Local\Temp\ccH6qY0h.s 			page 6


 216:../../libs/PoliTeKDSP/libs/libDaisy/src/dev/oled_ssd130x.h **** 
 217:../../libs/PoliTeKDSP/libs/libDaisy/src/dev/oled_ssd130x.h ****             pin_sclk_.Toggle();
 218:../../libs/PoliTeKDSP/libs/libDaisy/src/dev/oled_ssd130x.h ****         }
 219:../../libs/PoliTeKDSP/libs/libDaisy/src/dev/oled_ssd130x.h ****     }
 220:../../libs/PoliTeKDSP/libs/libDaisy/src/dev/oled_ssd130x.h **** 
 221:../../libs/PoliTeKDSP/libs/libDaisy/src/dev/oled_ssd130x.h ****     uint32_t clk_delay;
 222:../../libs/PoliTeKDSP/libs/libDaisy/src/dev/oled_ssd130x.h ****     GPIO     pin_sclk_;
 223:../../libs/PoliTeKDSP/libs/libDaisy/src/dev/oled_ssd130x.h ****     GPIO     pin_mosi_;
 224:../../libs/PoliTeKDSP/libs/libDaisy/src/dev/oled_ssd130x.h ****     GPIO     pin_reset_;
 225:../../libs/PoliTeKDSP/libs/libDaisy/src/dev/oled_ssd130x.h ****     GPIO     pin_dc_;
 226:../../libs/PoliTeKDSP/libs/libDaisy/src/dev/oled_ssd130x.h **** };
 227:../../libs/PoliTeKDSP/libs/libDaisy/src/dev/oled_ssd130x.h **** 
 228:../../libs/PoliTeKDSP/libs/libDaisy/src/dev/oled_ssd130x.h **** 
 229:../../libs/PoliTeKDSP/libs/libDaisy/src/dev/oled_ssd130x.h **** /**
 230:../../libs/PoliTeKDSP/libs/libDaisy/src/dev/oled_ssd130x.h ****  * A driver implementation for the SSD1306/SSD1309
 231:../../libs/PoliTeKDSP/libs/libDaisy/src/dev/oled_ssd130x.h ****  */
 232:../../libs/PoliTeKDSP/libs/libDaisy/src/dev/oled_ssd130x.h **** template <size_t width, size_t height, typename Transport>
 233:../../libs/PoliTeKDSP/libs/libDaisy/src/dev/oled_ssd130x.h **** class SSD130xDriver
 234:../../libs/PoliTeKDSP/libs/libDaisy/src/dev/oled_ssd130x.h **** {
 235:../../libs/PoliTeKDSP/libs/libDaisy/src/dev/oled_ssd130x.h ****   public:
 236:../../libs/PoliTeKDSP/libs/libDaisy/src/dev/oled_ssd130x.h ****     struct Config
 237:../../libs/PoliTeKDSP/libs/libDaisy/src/dev/oled_ssd130x.h ****     {
 238:../../libs/PoliTeKDSP/libs/libDaisy/src/dev/oled_ssd130x.h ****         typename Transport::Config transport_config;
 239:../../libs/PoliTeKDSP/libs/libDaisy/src/dev/oled_ssd130x.h ****     };
 240:../../libs/PoliTeKDSP/libs/libDaisy/src/dev/oled_ssd130x.h **** 
 241:../../libs/PoliTeKDSP/libs/libDaisy/src/dev/oled_ssd130x.h ****     void Init(Config config)
 242:../../libs/PoliTeKDSP/libs/libDaisy/src/dev/oled_ssd130x.h ****     {
 243:../../libs/PoliTeKDSP/libs/libDaisy/src/dev/oled_ssd130x.h ****         transport_.Init(config.transport_config);
 244:../../libs/PoliTeKDSP/libs/libDaisy/src/dev/oled_ssd130x.h **** 
 245:../../libs/PoliTeKDSP/libs/libDaisy/src/dev/oled_ssd130x.h ****         // Init routine...
 246:../../libs/PoliTeKDSP/libs/libDaisy/src/dev/oled_ssd130x.h **** 
 247:../../libs/PoliTeKDSP/libs/libDaisy/src/dev/oled_ssd130x.h ****         // Display Off
 248:../../libs/PoliTeKDSP/libs/libDaisy/src/dev/oled_ssd130x.h ****         transport_.SendCommand(0xaE);
 249:../../libs/PoliTeKDSP/libs/libDaisy/src/dev/oled_ssd130x.h ****         // Dimension dependent commands...
 250:../../libs/PoliTeKDSP/libs/libDaisy/src/dev/oled_ssd130x.h ****         switch(height)
 251:../../libs/PoliTeKDSP/libs/libDaisy/src/dev/oled_ssd130x.h ****         {
 252:../../libs/PoliTeKDSP/libs/libDaisy/src/dev/oled_ssd130x.h ****             case 16:
 253:../../libs/PoliTeKDSP/libs/libDaisy/src/dev/oled_ssd130x.h ****                 // Display Clock Divide Ratio
 254:../../libs/PoliTeKDSP/libs/libDaisy/src/dev/oled_ssd130x.h ****                 transport_.SendCommand(0xD5);
 255:../../libs/PoliTeKDSP/libs/libDaisy/src/dev/oled_ssd130x.h ****                 transport_.SendCommand(0x60);
 256:../../libs/PoliTeKDSP/libs/libDaisy/src/dev/oled_ssd130x.h ****                 // Multiplex Ratio
 257:../../libs/PoliTeKDSP/libs/libDaisy/src/dev/oled_ssd130x.h ****                 transport_.SendCommand(0xA8);
 258:../../libs/PoliTeKDSP/libs/libDaisy/src/dev/oled_ssd130x.h ****                 transport_.SendCommand(0x0F);
 259:../../libs/PoliTeKDSP/libs/libDaisy/src/dev/oled_ssd130x.h ****                 // COM Pins
 260:../../libs/PoliTeKDSP/libs/libDaisy/src/dev/oled_ssd130x.h ****                 transport_.SendCommand(0xDA);
 261:../../libs/PoliTeKDSP/libs/libDaisy/src/dev/oled_ssd130x.h ****                 transport_.SendCommand(0x02);
 262:../../libs/PoliTeKDSP/libs/libDaisy/src/dev/oled_ssd130x.h ****                 break;
 263:../../libs/PoliTeKDSP/libs/libDaisy/src/dev/oled_ssd130x.h ****             case 32:
 264:../../libs/PoliTeKDSP/libs/libDaisy/src/dev/oled_ssd130x.h ****                 // Display Clock Divide Ratio
 265:../../libs/PoliTeKDSP/libs/libDaisy/src/dev/oled_ssd130x.h ****                 transport_.SendCommand(0xD5);
 266:../../libs/PoliTeKDSP/libs/libDaisy/src/dev/oled_ssd130x.h ****                 transport_.SendCommand(0x80);
 267:../../libs/PoliTeKDSP/libs/libDaisy/src/dev/oled_ssd130x.h ****                 // Multiplex Ratio
 268:../../libs/PoliTeKDSP/libs/libDaisy/src/dev/oled_ssd130x.h ****                 transport_.SendCommand(0xA8);
 269:../../libs/PoliTeKDSP/libs/libDaisy/src/dev/oled_ssd130x.h ****                 transport_.SendCommand(0x1F);
 270:../../libs/PoliTeKDSP/libs/libDaisy/src/dev/oled_ssd130x.h ****                 // COM Pins
 271:../../libs/PoliTeKDSP/libs/libDaisy/src/dev/oled_ssd130x.h ****                 transport_.SendCommand(0xDA);
 272:../../libs/PoliTeKDSP/libs/libDaisy/src/dev/oled_ssd130x.h ****                 if(width == 64)
ARM GAS  C:\Users\matte\AppData\Local\Temp\ccH6qY0h.s 			page 7


 273:../../libs/PoliTeKDSP/libs/libDaisy/src/dev/oled_ssd130x.h ****                 {
 274:../../libs/PoliTeKDSP/libs/libDaisy/src/dev/oled_ssd130x.h ****                     transport_.SendCommand(0x12);
 275:../../libs/PoliTeKDSP/libs/libDaisy/src/dev/oled_ssd130x.h ****                 }
 276:../../libs/PoliTeKDSP/libs/libDaisy/src/dev/oled_ssd130x.h ****                 else
 277:../../libs/PoliTeKDSP/libs/libDaisy/src/dev/oled_ssd130x.h ****                 {
 278:../../libs/PoliTeKDSP/libs/libDaisy/src/dev/oled_ssd130x.h ****                     transport_.SendCommand(0x02);
 279:../../libs/PoliTeKDSP/libs/libDaisy/src/dev/oled_ssd130x.h ****                 }
 280:../../libs/PoliTeKDSP/libs/libDaisy/src/dev/oled_ssd130x.h **** 
 281:../../libs/PoliTeKDSP/libs/libDaisy/src/dev/oled_ssd130x.h ****                 break;
 282:../../libs/PoliTeKDSP/libs/libDaisy/src/dev/oled_ssd130x.h ****             case 48:
 283:../../libs/PoliTeKDSP/libs/libDaisy/src/dev/oled_ssd130x.h ****                 // Display Clock Divide Ratio
 284:../../libs/PoliTeKDSP/libs/libDaisy/src/dev/oled_ssd130x.h ****                 transport_.SendCommand(0xD5);
 285:../../libs/PoliTeKDSP/libs/libDaisy/src/dev/oled_ssd130x.h ****                 transport_.SendCommand(0x80);
 286:../../libs/PoliTeKDSP/libs/libDaisy/src/dev/oled_ssd130x.h ****                 // Multiplex Ratio
 287:../../libs/PoliTeKDSP/libs/libDaisy/src/dev/oled_ssd130x.h ****                 transport_.SendCommand(0xA8);
 288:../../libs/PoliTeKDSP/libs/libDaisy/src/dev/oled_ssd130x.h ****                 transport_.SendCommand(0x2F);
 289:../../libs/PoliTeKDSP/libs/libDaisy/src/dev/oled_ssd130x.h ****                 // COM Pins
 290:../../libs/PoliTeKDSP/libs/libDaisy/src/dev/oled_ssd130x.h ****                 transport_.SendCommand(0xDA);
 291:../../libs/PoliTeKDSP/libs/libDaisy/src/dev/oled_ssd130x.h ****                 transport_.SendCommand(0x12);
 292:../../libs/PoliTeKDSP/libs/libDaisy/src/dev/oled_ssd130x.h ****                 break;
 293:../../libs/PoliTeKDSP/libs/libDaisy/src/dev/oled_ssd130x.h ****             default: // 128
 294:../../libs/PoliTeKDSP/libs/libDaisy/src/dev/oled_ssd130x.h ****                 // Display Clock Divide Ratio
 295:../../libs/PoliTeKDSP/libs/libDaisy/src/dev/oled_ssd130x.h ****                 transport_.SendCommand(0xD5);
 296:../../libs/PoliTeKDSP/libs/libDaisy/src/dev/oled_ssd130x.h ****                 transport_.SendCommand(0x80);
 297:../../libs/PoliTeKDSP/libs/libDaisy/src/dev/oled_ssd130x.h ****                 // Multiplex Ratio
 298:../../libs/PoliTeKDSP/libs/libDaisy/src/dev/oled_ssd130x.h ****                 transport_.SendCommand(0xA8);
 299:../../libs/PoliTeKDSP/libs/libDaisy/src/dev/oled_ssd130x.h ****                 transport_.SendCommand(0x3F);
 300:../../libs/PoliTeKDSP/libs/libDaisy/src/dev/oled_ssd130x.h ****                 // COM Pins
 301:../../libs/PoliTeKDSP/libs/libDaisy/src/dev/oled_ssd130x.h ****                 transport_.SendCommand(0xDA);
 302:../../libs/PoliTeKDSP/libs/libDaisy/src/dev/oled_ssd130x.h ****                 transport_.SendCommand(0x12);
 303:../../libs/PoliTeKDSP/libs/libDaisy/src/dev/oled_ssd130x.h ****                 break;
 304:../../libs/PoliTeKDSP/libs/libDaisy/src/dev/oled_ssd130x.h ****         }
 305:../../libs/PoliTeKDSP/libs/libDaisy/src/dev/oled_ssd130x.h **** 
 306:../../libs/PoliTeKDSP/libs/libDaisy/src/dev/oled_ssd130x.h ****         // Display Offset
 307:../../libs/PoliTeKDSP/libs/libDaisy/src/dev/oled_ssd130x.h ****         transport_.SendCommand(0xD3);
 308:../../libs/PoliTeKDSP/libs/libDaisy/src/dev/oled_ssd130x.h ****         transport_.SendCommand(0x00);
 309:../../libs/PoliTeKDSP/libs/libDaisy/src/dev/oled_ssd130x.h ****         // Start Line Address
 310:../../libs/PoliTeKDSP/libs/libDaisy/src/dev/oled_ssd130x.h ****         transport_.SendCommand(0x40);
 311:../../libs/PoliTeKDSP/libs/libDaisy/src/dev/oled_ssd130x.h ****         // Normal Display
 312:../../libs/PoliTeKDSP/libs/libDaisy/src/dev/oled_ssd130x.h ****         transport_.SendCommand(0xA6);
 313:../../libs/PoliTeKDSP/libs/libDaisy/src/dev/oled_ssd130x.h ****         // All On Resume
 314:../../libs/PoliTeKDSP/libs/libDaisy/src/dev/oled_ssd130x.h ****         transport_.SendCommand(0xA4);
 315:../../libs/PoliTeKDSP/libs/libDaisy/src/dev/oled_ssd130x.h ****         // Charge Pump
 316:../../libs/PoliTeKDSP/libs/libDaisy/src/dev/oled_ssd130x.h ****         transport_.SendCommand(0x8D);
 317:../../libs/PoliTeKDSP/libs/libDaisy/src/dev/oled_ssd130x.h ****         transport_.SendCommand(0x14);
 318:../../libs/PoliTeKDSP/libs/libDaisy/src/dev/oled_ssd130x.h ****         // Set Segment Remap
 319:../../libs/PoliTeKDSP/libs/libDaisy/src/dev/oled_ssd130x.h ****         transport_.SendCommand(0xA1);
 320:../../libs/PoliTeKDSP/libs/libDaisy/src/dev/oled_ssd130x.h ****         // COM Output Scan Direction
 321:../../libs/PoliTeKDSP/libs/libDaisy/src/dev/oled_ssd130x.h ****         transport_.SendCommand(0xC8);
 322:../../libs/PoliTeKDSP/libs/libDaisy/src/dev/oled_ssd130x.h ****         // Contrast Control
 323:../../libs/PoliTeKDSP/libs/libDaisy/src/dev/oled_ssd130x.h ****         transport_.SendCommand(0x81);
 324:../../libs/PoliTeKDSP/libs/libDaisy/src/dev/oled_ssd130x.h ****         transport_.SendCommand(0x8F);
 325:../../libs/PoliTeKDSP/libs/libDaisy/src/dev/oled_ssd130x.h ****         // Pre Charge
 326:../../libs/PoliTeKDSP/libs/libDaisy/src/dev/oled_ssd130x.h ****         transport_.SendCommand(0xD9);
 327:../../libs/PoliTeKDSP/libs/libDaisy/src/dev/oled_ssd130x.h ****         transport_.SendCommand(0x25);
 328:../../libs/PoliTeKDSP/libs/libDaisy/src/dev/oled_ssd130x.h ****         // VCOM Detect
 329:../../libs/PoliTeKDSP/libs/libDaisy/src/dev/oled_ssd130x.h ****         transport_.SendCommand(0xDB);
ARM GAS  C:\Users\matte\AppData\Local\Temp\ccH6qY0h.s 			page 8


 330:../../libs/PoliTeKDSP/libs/libDaisy/src/dev/oled_ssd130x.h ****         transport_.SendCommand(0x34);
 331:../../libs/PoliTeKDSP/libs/libDaisy/src/dev/oled_ssd130x.h **** 
 332:../../libs/PoliTeKDSP/libs/libDaisy/src/dev/oled_ssd130x.h **** 
 333:../../libs/PoliTeKDSP/libs/libDaisy/src/dev/oled_ssd130x.h ****         // Display On
 334:../../libs/PoliTeKDSP/libs/libDaisy/src/dev/oled_ssd130x.h ****         transport_.SendCommand(0xAF); //--turn on oled panel
 335:../../libs/PoliTeKDSP/libs/libDaisy/src/dev/oled_ssd130x.h ****     };
 336:../../libs/PoliTeKDSP/libs/libDaisy/src/dev/oled_ssd130x.h **** 
 337:../../libs/PoliTeKDSP/libs/libDaisy/src/dev/oled_ssd130x.h ****     size_t Width() const { return width; };
 338:../../libs/PoliTeKDSP/libs/libDaisy/src/dev/oled_ssd130x.h ****     size_t Height() const { return height; };
 339:../../libs/PoliTeKDSP/libs/libDaisy/src/dev/oled_ssd130x.h **** 
 340:../../libs/PoliTeKDSP/libs/libDaisy/src/dev/oled_ssd130x.h ****     void DrawPixel(uint_fast8_t x, uint_fast8_t y, bool on)
 341:../../libs/PoliTeKDSP/libs/libDaisy/src/dev/oled_ssd130x.h ****     {
 342:../../libs/PoliTeKDSP/libs/libDaisy/src/dev/oled_ssd130x.h ****         if(x >= width || y >= height)
 343:../../libs/PoliTeKDSP/libs/libDaisy/src/dev/oled_ssd130x.h ****             return;
 344:../../libs/PoliTeKDSP/libs/libDaisy/src/dev/oled_ssd130x.h ****         if(on)
 345:../../libs/PoliTeKDSP/libs/libDaisy/src/dev/oled_ssd130x.h ****             buffer_[x + (y / 8) * width] |= (1 << (y % 8));
 346:../../libs/PoliTeKDSP/libs/libDaisy/src/dev/oled_ssd130x.h ****         else
 347:../../libs/PoliTeKDSP/libs/libDaisy/src/dev/oled_ssd130x.h ****             buffer_[x + (y / 8) * width] &= ~(1 << (y % 8));
 348:../../libs/PoliTeKDSP/libs/libDaisy/src/dev/oled_ssd130x.h ****     }
 349:../../libs/PoliTeKDSP/libs/libDaisy/src/dev/oled_ssd130x.h **** 
 350:../../libs/PoliTeKDSP/libs/libDaisy/src/dev/oled_ssd130x.h ****     void Fill(bool on)
  38              		.loc 2 350 10 view .LVU1
  39              	.LBB16:
 351:../../libs/PoliTeKDSP/libs/libDaisy/src/dev/oled_ssd130x.h ****     {
 352:../../libs/PoliTeKDSP/libs/libDaisy/src/dev/oled_ssd130x.h ****         for(size_t i = 0; i < sizeof(buffer_); i++)
  40              		.loc 2 352 29 view .LVU2
 353:../../libs/PoliTeKDSP/libs/libDaisy/src/dev/oled_ssd130x.h ****         {
 354:../../libs/PoliTeKDSP/libs/libDaisy/src/dev/oled_ssd130x.h ****             buffer_[i] = on ? 0xff : 0x00;
  41              		.loc 2 354 24 is_stmt 0 view .LVU3
  42 0000 4942     		rsbs	r1, r1, #0
  43              	.LVL1:
  44              		.loc 2 354 24 view .LVU4
  45 0002 4FF48062 		mov	r2, #1024
  46 0006 1030     		adds	r0, r0, #16
  47              	.LVL2:
  48              		.loc 2 354 24 view .LVU5
  49 0008 C9B2     		uxtb	r1, r1
  50 000a FFF7FEBF 		b	memset
  51              	.LVL3:
  52              		.loc 2 354 24 view .LVU6
  53              	.LBE16:
  54              	.LBE15:
  55              		.cfi_endproc
  56              	.LFE2712:
  58 000e 00BF     		.section	.text._ZN5daisy11OledDisplayINS_13SSD130xDriverILj128ELj64ENS_19SSD130xI2CTransportEEEE6U
  59              		.align	1
  60              		.p2align 2,,3
  61              		.weak	_ZN5daisy11OledDisplayINS_13SSD130xDriverILj128ELj64ENS_19SSD130xI2CTransportEEEE6UpdateEv
  62              		.syntax unified
  63              		.thumb
  64              		.thumb_func
  65              		.fpu fpv5-d16
  67              	_ZN5daisy11OledDisplayINS_13SSD130xDriverILj128ELj64ENS_19SSD130xI2CTransportEEEE6UpdateEv:
  68              	.LVL4:
  69              	.LFB2711:
  35:../../libs/PoliTeKDSP/libs/libDaisy/src/hid/disp/oled_display.h **** 
  36:../../libs/PoliTeKDSP/libs/libDaisy/src/hid/disp/oled_display.h ****     /**
ARM GAS  C:\Users\matte\AppData\Local\Temp\ccH6qY0h.s 			page 9


  37:../../libs/PoliTeKDSP/libs/libDaisy/src/hid/disp/oled_display.h ****     Sets the pixel at the specified coordinate to be on/off.
  38:../../libs/PoliTeKDSP/libs/libDaisy/src/hid/disp/oled_display.h ****     \param x   x Coordinate
  39:../../libs/PoliTeKDSP/libs/libDaisy/src/hid/disp/oled_display.h ****     \param y   y coordinate
  40:../../libs/PoliTeKDSP/libs/libDaisy/src/hid/disp/oled_display.h ****     \param on  on or off
  41:../../libs/PoliTeKDSP/libs/libDaisy/src/hid/disp/oled_display.h ****     */
  42:../../libs/PoliTeKDSP/libs/libDaisy/src/hid/disp/oled_display.h ****     void DrawPixel(uint_fast8_t x, uint_fast8_t y, bool on) override
  43:../../libs/PoliTeKDSP/libs/libDaisy/src/hid/disp/oled_display.h ****     {
  44:../../libs/PoliTeKDSP/libs/libDaisy/src/hid/disp/oled_display.h ****         driver_.DrawPixel(x, y, on);
  45:../../libs/PoliTeKDSP/libs/libDaisy/src/hid/disp/oled_display.h ****     }
  46:../../libs/PoliTeKDSP/libs/libDaisy/src/hid/disp/oled_display.h **** 
  47:../../libs/PoliTeKDSP/libs/libDaisy/src/hid/disp/oled_display.h ****     /** 
  48:../../libs/PoliTeKDSP/libs/libDaisy/src/hid/disp/oled_display.h ****     Writes the current display buffer to the OLED device using SPI or I2C depending on 
  49:../../libs/PoliTeKDSP/libs/libDaisy/src/hid/disp/oled_display.h ****     how the object was initialized.
  50:../../libs/PoliTeKDSP/libs/libDaisy/src/hid/disp/oled_display.h ****     */
  51:../../libs/PoliTeKDSP/libs/libDaisy/src/hid/disp/oled_display.h ****     void Update() override { driver_.Update(); }
  70              		.loc 1 51 10 is_stmt 1 view -0
  71              		.cfi_startproc
  72              		@ args = 0, pretend = 0, frame = 8
  73              		@ frame_needed = 0, uses_anonymous_args = 0
  74              		.loc 1 51 10 is_stmt 0 view .LVU8
  75 0000 2DE9F04F 		push	{r4, r5, r6, r7, r8, r9, r10, fp, lr}
  76              		.cfi_def_cfa_offset 36
  77              		.cfi_offset 4, -36
  78              		.cfi_offset 5, -32
  79              		.cfi_offset 6, -28
  80              		.cfi_offset 7, -24
  81              		.cfi_offset 8, -20
  82              		.cfi_offset 9, -16
  83              		.cfi_offset 10, -12
  84              		.cfi_offset 11, -8
  85              		.cfi_offset 14, -4
  86              	.LBB29:
  87              	.LBB30:
  88              	.LBB31:
  89              	.LBB32:
  45:../../libs/PoliTeKDSP/libs/libDaisy/src/dev/oled_ssd130x.h ****     };
  90              		.loc 2 45 30 view .LVU9
  91 0004 4FF0B008 		mov	r8, #176
  92              	.LBE32:
  93              	.LBE31:
  94              	.LBE30:
  95              	.LBE29:
  96              		.loc 1 51 10 view .LVU10
  97 0008 85B0     		sub	sp, sp, #20
  98              		.cfi_def_cfa_offset 56
  99              		.loc 1 51 10 view .LVU11
 100 000a 0546     		mov	r5, r0
 101              	.LVL5:
 102              	.LBB44:
 103              	.LBI29:
 355:../../libs/PoliTeKDSP/libs/libDaisy/src/dev/oled_ssd130x.h ****         }
 356:../../libs/PoliTeKDSP/libs/libDaisy/src/dev/oled_ssd130x.h ****     };
 357:../../libs/PoliTeKDSP/libs/libDaisy/src/dev/oled_ssd130x.h **** 
 358:../../libs/PoliTeKDSP/libs/libDaisy/src/dev/oled_ssd130x.h ****     /**
 359:../../libs/PoliTeKDSP/libs/libDaisy/src/dev/oled_ssd130x.h ****      * Update the display 
 360:../../libs/PoliTeKDSP/libs/libDaisy/src/dev/oled_ssd130x.h ****     */
 361:../../libs/PoliTeKDSP/libs/libDaisy/src/dev/oled_ssd130x.h ****     void Update()
ARM GAS  C:\Users\matte\AppData\Local\Temp\ccH6qY0h.s 			page 10


 104              		.loc 2 361 10 is_stmt 1 view .LVU12
 105              	.LBB43:
 362:../../libs/PoliTeKDSP/libs/libDaisy/src/dev/oled_ssd130x.h ****     {
 363:../../libs/PoliTeKDSP/libs/libDaisy/src/dev/oled_ssd130x.h ****         uint8_t i;
 364:../../libs/PoliTeKDSP/libs/libDaisy/src/dev/oled_ssd130x.h ****         uint8_t high_column_addr;
 365:../../libs/PoliTeKDSP/libs/libDaisy/src/dev/oled_ssd130x.h ****         switch(height)
 366:../../libs/PoliTeKDSP/libs/libDaisy/src/dev/oled_ssd130x.h ****         {
 367:../../libs/PoliTeKDSP/libs/libDaisy/src/dev/oled_ssd130x.h ****             case 32: high_column_addr = 0x12; break;
 368:../../libs/PoliTeKDSP/libs/libDaisy/src/dev/oled_ssd130x.h **** 
 369:../../libs/PoliTeKDSP/libs/libDaisy/src/dev/oled_ssd130x.h ****             default: high_column_addr = 0x10; break;
 370:../../libs/PoliTeKDSP/libs/libDaisy/src/dev/oled_ssd130x.h ****         }
 371:../../libs/PoliTeKDSP/libs/libDaisy/src/dev/oled_ssd130x.h ****         for(i = 0; i < (height / 8); i++)
 106              		.loc 2 371 22 view .LVU13
 107              	.LBB35:
 108              	.LBB33:
  45:../../libs/PoliTeKDSP/libs/libDaisy/src/dev/oled_ssd130x.h ****     };
 109              		.loc 2 45 30 is_stmt 0 view .LVU14
 110 000c 00F10807 		add	r7, r0, #8
 111              	.LVL6:
  45:../../libs/PoliTeKDSP/libs/libDaisy/src/dev/oled_ssd130x.h ****     };
 112              		.loc 2 45 30 view .LVU15
 113 0010 00F18F06 		add	r6, r0, #143
 114 0014 00F28F49 		addw	r9, r0, #1167
 115              	.LVL7:
 116              	.L5:
  45:../../libs/PoliTeKDSP/libs/libDaisy/src/dev/oled_ssd130x.h ****     };
 117              		.loc 2 45 30 view .LVU16
 118              	.LBE33:
 119              	.LBI31:
  42:../../libs/PoliTeKDSP/libs/libDaisy/src/dev/oled_ssd130x.h ****     {
 120              		.loc 2 42 10 is_stmt 1 view .LVU17
 121              	.LBB34:
  44:../../libs/PoliTeKDSP/libs/libDaisy/src/dev/oled_ssd130x.h ****         i2c_.TransmitBlocking(i2c_address_, buf, 2, 1000);
 122              		.loc 2 44 9 view .LVU18
  45:../../libs/PoliTeKDSP/libs/libDaisy/src/dev/oled_ssd130x.h ****     };
 123              		.loc 2 45 30 is_stmt 0 view .LVU19
 124 0018 4FF47A7B 		mov	fp, #1000
  44:../../libs/PoliTeKDSP/libs/libDaisy/src/dev/oled_ssd130x.h ****         i2c_.TransmitBlocking(i2c_address_, buf, 2, 1000);
 125              		.loc 2 44 17 view .LVU20
 126 001c 4FF0000A 		mov	r10, #0
  45:../../libs/PoliTeKDSP/libs/libDaisy/src/dev/oled_ssd130x.h ****     };
 127              		.loc 2 45 30 view .LVU21
 128 0020 297B     		ldrb	r1, [r5, #12]	@ zero_extendqisi2
 129 0022 0223     		movs	r3, #2
 130 0024 03AA     		add	r2, sp, #12
 131 0026 3846     		mov	r0, r7
 132 0028 CDF800B0 		str	fp, [sp]
 133 002c A6F18004 		sub	r4, r6, #128
  44:../../libs/PoliTeKDSP/libs/libDaisy/src/dev/oled_ssd130x.h ****         i2c_.TransmitBlocking(i2c_address_, buf, 2, 1000);
 134              		.loc 2 44 17 view .LVU22
 135 0030 8DF80CA0 		strb	r10, [sp, #12]
  44:../../libs/PoliTeKDSP/libs/libDaisy/src/dev/oled_ssd130x.h ****         i2c_.TransmitBlocking(i2c_address_, buf, 2, 1000);
 136              		.loc 2 44 36 view .LVU23
 137 0034 8DF80D80 		strb	r8, [sp, #13]
  45:../../libs/PoliTeKDSP/libs/libDaisy/src/dev/oled_ssd130x.h ****     };
 138              		.loc 2 45 9 is_stmt 1 view .LVU24
  45:../../libs/PoliTeKDSP/libs/libDaisy/src/dev/oled_ssd130x.h ****     };
ARM GAS  C:\Users\matte\AppData\Local\Temp\ccH6qY0h.s 			page 11


 139              		.loc 2 45 30 is_stmt 0 view .LVU25
 140 0038 FFF7FEFF 		bl	_ZN5daisy9I2CHandle16TransmitBlockingEtPhtm
 141              	.LVL8:
  45:../../libs/PoliTeKDSP/libs/libDaisy/src/dev/oled_ssd130x.h ****     };
 142              		.loc 2 45 30 view .LVU26
 143              	.LBE34:
 144              	.LBE35:
 145              	.LBB36:
 146              	.LBI36:
  42:../../libs/PoliTeKDSP/libs/libDaisy/src/dev/oled_ssd130x.h ****     {
 147              		.loc 2 42 10 is_stmt 1 view .LVU27
 148              	.LBB37:
  44:../../libs/PoliTeKDSP/libs/libDaisy/src/dev/oled_ssd130x.h ****         i2c_.TransmitBlocking(i2c_address_, buf, 2, 1000);
 149              		.loc 2 44 9 view .LVU28
  45:../../libs/PoliTeKDSP/libs/libDaisy/src/dev/oled_ssd130x.h ****     };
 150              		.loc 2 45 30 is_stmt 0 view .LVU29
 151 003c 297B     		ldrb	r1, [r5, #12]	@ zero_extendqisi2
 152 003e 0223     		movs	r3, #2
 153 0040 03AA     		add	r2, sp, #12
 154 0042 3846     		mov	r0, r7
 155 0044 CDF800B0 		str	fp, [sp]
  44:../../libs/PoliTeKDSP/libs/libDaisy/src/dev/oled_ssd130x.h ****         i2c_.TransmitBlocking(i2c_address_, buf, 2, 1000);
 156              		.loc 2 44 17 view .LVU30
 157 0048 8DF80CA0 		strb	r10, [sp, #12]
  44:../../libs/PoliTeKDSP/libs/libDaisy/src/dev/oled_ssd130x.h ****         i2c_.TransmitBlocking(i2c_address_, buf, 2, 1000);
 158              		.loc 2 44 36 view .LVU31
 159 004c 8DF80DA0 		strb	r10, [sp, #13]
  45:../../libs/PoliTeKDSP/libs/libDaisy/src/dev/oled_ssd130x.h ****     };
 160              		.loc 2 45 9 is_stmt 1 view .LVU32
  45:../../libs/PoliTeKDSP/libs/libDaisy/src/dev/oled_ssd130x.h ****     };
 161              		.loc 2 45 30 is_stmt 0 view .LVU33
 162 0050 FFF7FEFF 		bl	_ZN5daisy9I2CHandle16TransmitBlockingEtPhtm
 163              	.LVL9:
  45:../../libs/PoliTeKDSP/libs/libDaisy/src/dev/oled_ssd130x.h ****     };
 164              		.loc 2 45 30 view .LVU34
 165              	.LBE37:
 166              	.LBE36:
 167              	.LBB38:
 168              	.LBI38:
  42:../../libs/PoliTeKDSP/libs/libDaisy/src/dev/oled_ssd130x.h ****     {
 169              		.loc 2 42 10 is_stmt 1 view .LVU35
 170              	.LBB39:
  44:../../libs/PoliTeKDSP/libs/libDaisy/src/dev/oled_ssd130x.h ****         i2c_.TransmitBlocking(i2c_address_, buf, 2, 1000);
 171              		.loc 2 44 9 view .LVU36
  44:../../libs/PoliTeKDSP/libs/libDaisy/src/dev/oled_ssd130x.h ****         i2c_.TransmitBlocking(i2c_address_, buf, 2, 1000);
 172              		.loc 2 44 36 is_stmt 0 view .LVU37
 173 0054 4FF0100C 		mov	ip, #16
  45:../../libs/PoliTeKDSP/libs/libDaisy/src/dev/oled_ssd130x.h ****     };
 174              		.loc 2 45 30 view .LVU38
 175 0058 297B     		ldrb	r1, [r5, #12]	@ zero_extendqisi2
 176 005a 0223     		movs	r3, #2
 177 005c 03AA     		add	r2, sp, #12
 178 005e 3846     		mov	r0, r7
 179 0060 CDF800B0 		str	fp, [sp]
  44:../../libs/PoliTeKDSP/libs/libDaisy/src/dev/oled_ssd130x.h ****         i2c_.TransmitBlocking(i2c_address_, buf, 2, 1000);
 180              		.loc 2 44 17 view .LVU39
 181 0064 8DF80CA0 		strb	r10, [sp, #12]
ARM GAS  C:\Users\matte\AppData\Local\Temp\ccH6qY0h.s 			page 12


  44:../../libs/PoliTeKDSP/libs/libDaisy/src/dev/oled_ssd130x.h ****         i2c_.TransmitBlocking(i2c_address_, buf, 2, 1000);
 182              		.loc 2 44 36 view .LVU40
 183 0068 8DF80DC0 		strb	ip, [sp, #13]
  45:../../libs/PoliTeKDSP/libs/libDaisy/src/dev/oled_ssd130x.h ****     };
 184              		.loc 2 45 9 is_stmt 1 view .LVU41
  45:../../libs/PoliTeKDSP/libs/libDaisy/src/dev/oled_ssd130x.h ****     };
 185              		.loc 2 45 30 is_stmt 0 view .LVU42
 186 006c FFF7FEFF 		bl	_ZN5daisy9I2CHandle16TransmitBlockingEtPhtm
 187              	.LVL10:
  45:../../libs/PoliTeKDSP/libs/libDaisy/src/dev/oled_ssd130x.h ****     };
 188              		.loc 2 45 30 view .LVU43
 189              	.LBE39:
 190              	.LBE38:
 191              	.LBB40:
 192              	.LBI40:
  48:../../libs/PoliTeKDSP/libs/libDaisy/src/dev/oled_ssd130x.h ****     {
 193              		.loc 2 48 10 is_stmt 1 view .LVU44
 194              	.LBB41:
  50:../../libs/PoliTeKDSP/libs/libDaisy/src/dev/oled_ssd130x.h ****         {
 195              		.loc 2 50 29 view .LVU45
 196              	.L4:
 197              	.LBB42:
  52:../../libs/PoliTeKDSP/libs/libDaisy/src/dev/oled_ssd130x.h ****             i2c_.TransmitBlocking(i2c_address_, buf, 2, 1000);
 198              		.loc 2 52 13 view .LVU46
  53:../../libs/PoliTeKDSP/libs/libDaisy/src/dev/oled_ssd130x.h ****         }
 199              		.loc 2 53 34 is_stmt 0 view .LVU47
 200 0070 4FF47A70 		mov	r0, #1000
  52:../../libs/PoliTeKDSP/libs/libDaisy/src/dev/oled_ssd130x.h ****             i2c_.TransmitBlocking(i2c_address_, buf, 2, 1000);
 201              		.loc 2 52 44 view .LVU48
 202 0074 14F801CF 		ldrb	ip, [r4, #1]!	@ zero_extendqisi2
 203              	.LVL11:
  52:../../libs/PoliTeKDSP/libs/libDaisy/src/dev/oled_ssd130x.h ****             i2c_.TransmitBlocking(i2c_address_, buf, 2, 1000);
 204              		.loc 2 52 21 view .LVU49
 205 0078 4FF0400E 		mov	lr, #64
  53:../../libs/PoliTeKDSP/libs/libDaisy/src/dev/oled_ssd130x.h ****         }
 206              		.loc 2 53 34 view .LVU50
 207 007c 297B     		ldrb	r1, [r5, #12]	@ zero_extendqisi2
 208 007e 0223     		movs	r3, #2
 209 0080 0090     		str	r0, [sp]
 210 0082 03AA     		add	r2, sp, #12
 211 0084 3846     		mov	r0, r7
  52:../../libs/PoliTeKDSP/libs/libDaisy/src/dev/oled_ssd130x.h ****             i2c_.TransmitBlocking(i2c_address_, buf, 2, 1000);
 212              		.loc 2 52 21 view .LVU51
 213 0086 8DF80CE0 		strb	lr, [sp, #12]
  52:../../libs/PoliTeKDSP/libs/libDaisy/src/dev/oled_ssd130x.h ****             i2c_.TransmitBlocking(i2c_address_, buf, 2, 1000);
 214              		.loc 2 52 44 view .LVU52
 215 008a 8DF80DC0 		strb	ip, [sp, #13]
  53:../../libs/PoliTeKDSP/libs/libDaisy/src/dev/oled_ssd130x.h ****         }
 216              		.loc 2 53 13 is_stmt 1 view .LVU53
  53:../../libs/PoliTeKDSP/libs/libDaisy/src/dev/oled_ssd130x.h ****         }
 217              		.loc 2 53 34 is_stmt 0 view .LVU54
 218 008e FFF7FEFF 		bl	_ZN5daisy9I2CHandle16TransmitBlockingEtPhtm
 219              	.LVL12:
 220              	.LBE42:
  50:../../libs/PoliTeKDSP/libs/libDaisy/src/dev/oled_ssd130x.h ****         {
 221              		.loc 2 50 9 is_stmt 1 view .LVU55
  50:../../libs/PoliTeKDSP/libs/libDaisy/src/dev/oled_ssd130x.h ****         {
ARM GAS  C:\Users\matte\AppData\Local\Temp\ccH6qY0h.s 			page 13


 222              		.loc 2 50 29 view .LVU56
 223 0092 B442     		cmp	r4, r6
 224 0094 ECD1     		bne	.L4
 225              	.LVL13:
  50:../../libs/PoliTeKDSP/libs/libDaisy/src/dev/oled_ssd130x.h ****         {
 226              		.loc 2 50 29 is_stmt 0 view .LVU57
 227              	.LBE41:
 228              	.LBE40:
 229              		.loc 2 371 9 is_stmt 1 view .LVU58
 230              		.loc 2 371 22 view .LVU59
 231 0096 04F18006 		add	r6, r4, #128
 232 009a 08F10108 		add	r8, r8, #1
 233              	.LVL14:
 234              		.loc 2 371 22 is_stmt 0 view .LVU60
 235 009e 4E45     		cmp	r6, r9
 236 00a0 5FFA88F8 		uxtb	r8, r8
 237 00a4 B8D1     		bne	.L5
 238              	.LBE43:
 239              	.LBE44:
 240              		.loc 1 51 48 view .LVU61
 241 00a6 05B0     		add	sp, sp, #20
 242              		.cfi_def_cfa_offset 36
 243              		@ sp needed
 244 00a8 BDE8F08F 		pop	{r4, r5, r6, r7, r8, r9, r10, fp, pc}
 245              		.loc 1 51 48 view .LVU62
 246              		.cfi_endproc
 247              	.LFE2711:
 249              		.section	.text._ZN5daisy25OneBitGraphicsDisplayImplINS_11OledDisplayINS_13SSD130xDriverILj128ELj64
 250              		.align	1
 251              		.p2align 2,,3
 252              		.weak	_ZN5daisy25OneBitGraphicsDisplayImplINS_11OledDisplayINS_13SSD130xDriverILj128ELj64ENS_19SSD
 253              		.syntax unified
 254              		.thumb
 255              		.thumb_func
 256              		.fpu fpv5-d16
 258              	_ZN5daisy25OneBitGraphicsDisplayImplINS_11OledDisplayINS_13SSD130xDriverILj128ELj64ENS_19SSD130xI2C
 259              	.LVL15:
 260              	.LFB2713:
 261              		.file 3 "../../libs/PoliTeKDSP/libs/libDaisy/src/hid/disp/display.h"
   1:../../libs/PoliTeKDSP/libs/libDaisy/src/hid/disp/display.h **** #pragma once
   2:../../libs/PoliTeKDSP/libs/libDaisy/src/hid/disp/display.h **** #ifndef DSY_DISPLAY_H
   3:../../libs/PoliTeKDSP/libs/libDaisy/src/hid/disp/display.h **** #define DSY_DISPLAY_H /**< Macro */
   4:../../libs/PoliTeKDSP/libs/libDaisy/src/hid/disp/display.h **** #include <cmath>
   5:../../libs/PoliTeKDSP/libs/libDaisy/src/hid/disp/display.h **** #include "util/oled_fonts.h"
   6:../../libs/PoliTeKDSP/libs/libDaisy/src/hid/disp/display.h **** #include "daisy_core.h"
   7:../../libs/PoliTeKDSP/libs/libDaisy/src/hid/disp/display.h **** #include "graphics_common.h"
   8:../../libs/PoliTeKDSP/libs/libDaisy/src/hid/disp/display.h **** 
   9:../../libs/PoliTeKDSP/libs/libDaisy/src/hid/disp/display.h **** #ifndef deg2rad
  10:../../libs/PoliTeKDSP/libs/libDaisy/src/hid/disp/display.h **** #define deg2rad(deg) ((deg)*3.141592 / 180.0)
  11:../../libs/PoliTeKDSP/libs/libDaisy/src/hid/disp/display.h **** #endif
  12:../../libs/PoliTeKDSP/libs/libDaisy/src/hid/disp/display.h **** 
  13:../../libs/PoliTeKDSP/libs/libDaisy/src/hid/disp/display.h **** namespace daisy
  14:../../libs/PoliTeKDSP/libs/libDaisy/src/hid/disp/display.h **** {
  15:../../libs/PoliTeKDSP/libs/libDaisy/src/hid/disp/display.h **** /** 
  16:../../libs/PoliTeKDSP/libs/libDaisy/src/hid/disp/display.h ****  * This interface is used as a base class for all types of 1bit-per-pixel
  17:../../libs/PoliTeKDSP/libs/libDaisy/src/hid/disp/display.h ****  * graphics displays.
  18:../../libs/PoliTeKDSP/libs/libDaisy/src/hid/disp/display.h **** */
ARM GAS  C:\Users\matte\AppData\Local\Temp\ccH6qY0h.s 			page 14


  19:../../libs/PoliTeKDSP/libs/libDaisy/src/hid/disp/display.h **** class OneBitGraphicsDisplay
  20:../../libs/PoliTeKDSP/libs/libDaisy/src/hid/disp/display.h **** {
  21:../../libs/PoliTeKDSP/libs/libDaisy/src/hid/disp/display.h ****   public:
  22:../../libs/PoliTeKDSP/libs/libDaisy/src/hid/disp/display.h ****     OneBitGraphicsDisplay() {}
  23:../../libs/PoliTeKDSP/libs/libDaisy/src/hid/disp/display.h ****     virtual ~OneBitGraphicsDisplay() {}
  24:../../libs/PoliTeKDSP/libs/libDaisy/src/hid/disp/display.h **** 
  25:../../libs/PoliTeKDSP/libs/libDaisy/src/hid/disp/display.h ****     virtual uint16_t Height() const = 0;
  26:../../libs/PoliTeKDSP/libs/libDaisy/src/hid/disp/display.h ****     virtual uint16_t Width() const  = 0;
  27:../../libs/PoliTeKDSP/libs/libDaisy/src/hid/disp/display.h **** 
  28:../../libs/PoliTeKDSP/libs/libDaisy/src/hid/disp/display.h ****     Rectangle GetBounds() const
  29:../../libs/PoliTeKDSP/libs/libDaisy/src/hid/disp/display.h ****     {
  30:../../libs/PoliTeKDSP/libs/libDaisy/src/hid/disp/display.h ****         return Rectangle(int16_t(Width()), int16_t(Height()));
  31:../../libs/PoliTeKDSP/libs/libDaisy/src/hid/disp/display.h ****     }
  32:../../libs/PoliTeKDSP/libs/libDaisy/src/hid/disp/display.h **** 
  33:../../libs/PoliTeKDSP/libs/libDaisy/src/hid/disp/display.h **** 
  34:../../libs/PoliTeKDSP/libs/libDaisy/src/hid/disp/display.h ****     size_t CurrentX() { return currentX_; };
  35:../../libs/PoliTeKDSP/libs/libDaisy/src/hid/disp/display.h ****     size_t CurrentY() { return currentY_; };
  36:../../libs/PoliTeKDSP/libs/libDaisy/src/hid/disp/display.h **** 
  37:../../libs/PoliTeKDSP/libs/libDaisy/src/hid/disp/display.h ****     /** 
  38:../../libs/PoliTeKDSP/libs/libDaisy/src/hid/disp/display.h ****     Fills the entire display with either on/off.
  39:../../libs/PoliTeKDSP/libs/libDaisy/src/hid/disp/display.h ****     \param on Sets on or off.
  40:../../libs/PoliTeKDSP/libs/libDaisy/src/hid/disp/display.h ****     */
  41:../../libs/PoliTeKDSP/libs/libDaisy/src/hid/disp/display.h ****     virtual void Fill(bool on) = 0;
  42:../../libs/PoliTeKDSP/libs/libDaisy/src/hid/disp/display.h **** 
  43:../../libs/PoliTeKDSP/libs/libDaisy/src/hid/disp/display.h ****     /**
  44:../../libs/PoliTeKDSP/libs/libDaisy/src/hid/disp/display.h ****     Sets the pixel at the specified coordinate to be on/off.
  45:../../libs/PoliTeKDSP/libs/libDaisy/src/hid/disp/display.h ****     \param x   x Coordinate
  46:../../libs/PoliTeKDSP/libs/libDaisy/src/hid/disp/display.h ****     \param y   y coordinate
  47:../../libs/PoliTeKDSP/libs/libDaisy/src/hid/disp/display.h ****     \param on  on or off
  48:../../libs/PoliTeKDSP/libs/libDaisy/src/hid/disp/display.h ****     */
  49:../../libs/PoliTeKDSP/libs/libDaisy/src/hid/disp/display.h ****     virtual void DrawPixel(uint_fast8_t x, uint_fast8_t y, bool on) = 0;
  50:../../libs/PoliTeKDSP/libs/libDaisy/src/hid/disp/display.h **** 
  51:../../libs/PoliTeKDSP/libs/libDaisy/src/hid/disp/display.h ****     /**
  52:../../libs/PoliTeKDSP/libs/libDaisy/src/hid/disp/display.h ****     Draws a line from (x1, y1) to (y1, y2)
  53:../../libs/PoliTeKDSP/libs/libDaisy/src/hid/disp/display.h ****     \param x1  x Coordinate of the starting point
  54:../../libs/PoliTeKDSP/libs/libDaisy/src/hid/disp/display.h ****     \param y1  y Coordinate of the starting point
  55:../../libs/PoliTeKDSP/libs/libDaisy/src/hid/disp/display.h ****     \param x2  x Coordinate of the ending point
  56:../../libs/PoliTeKDSP/libs/libDaisy/src/hid/disp/display.h ****     \param y2  y Coordinate of the ending point
  57:../../libs/PoliTeKDSP/libs/libDaisy/src/hid/disp/display.h ****     \param on  on or off
  58:../../libs/PoliTeKDSP/libs/libDaisy/src/hid/disp/display.h ****     */
  59:../../libs/PoliTeKDSP/libs/libDaisy/src/hid/disp/display.h ****     virtual void DrawLine(uint_fast8_t x1,
  60:../../libs/PoliTeKDSP/libs/libDaisy/src/hid/disp/display.h ****                           uint_fast8_t y1,
  61:../../libs/PoliTeKDSP/libs/libDaisy/src/hid/disp/display.h ****                           uint_fast8_t x2,
  62:../../libs/PoliTeKDSP/libs/libDaisy/src/hid/disp/display.h ****                           uint_fast8_t y2,
  63:../../libs/PoliTeKDSP/libs/libDaisy/src/hid/disp/display.h ****                           bool         on)
  64:../../libs/PoliTeKDSP/libs/libDaisy/src/hid/disp/display.h ****         = 0;
  65:../../libs/PoliTeKDSP/libs/libDaisy/src/hid/disp/display.h **** 
  66:../../libs/PoliTeKDSP/libs/libDaisy/src/hid/disp/display.h ****     /**
  67:../../libs/PoliTeKDSP/libs/libDaisy/src/hid/disp/display.h ****     Draws a rectangle based on two coordinates.
  68:../../libs/PoliTeKDSP/libs/libDaisy/src/hid/disp/display.h ****     \param x1 x Coordinate of the first point
  69:../../libs/PoliTeKDSP/libs/libDaisy/src/hid/disp/display.h ****     \param y1 y Coordinate of the first point
  70:../../libs/PoliTeKDSP/libs/libDaisy/src/hid/disp/display.h ****     \param x2 x Coordinate of the second point
  71:../../libs/PoliTeKDSP/libs/libDaisy/src/hid/disp/display.h ****     \param y2 y Coordinate of the second point
  72:../../libs/PoliTeKDSP/libs/libDaisy/src/hid/disp/display.h ****     \param on on or off
  73:../../libs/PoliTeKDSP/libs/libDaisy/src/hid/disp/display.h ****     \param fill fill the rectangle or draw only the outline
  74:../../libs/PoliTeKDSP/libs/libDaisy/src/hid/disp/display.h ****     */
  75:../../libs/PoliTeKDSP/libs/libDaisy/src/hid/disp/display.h ****     virtual void DrawRect(uint_fast8_t x1,
ARM GAS  C:\Users\matte\AppData\Local\Temp\ccH6qY0h.s 			page 15


  76:../../libs/PoliTeKDSP/libs/libDaisy/src/hid/disp/display.h ****                           uint_fast8_t y1,
  77:../../libs/PoliTeKDSP/libs/libDaisy/src/hid/disp/display.h ****                           uint_fast8_t x2,
  78:../../libs/PoliTeKDSP/libs/libDaisy/src/hid/disp/display.h ****                           uint_fast8_t y2,
  79:../../libs/PoliTeKDSP/libs/libDaisy/src/hid/disp/display.h ****                           bool         on,
  80:../../libs/PoliTeKDSP/libs/libDaisy/src/hid/disp/display.h ****                           bool         fill = false)
  81:../../libs/PoliTeKDSP/libs/libDaisy/src/hid/disp/display.h ****         = 0;
  82:../../libs/PoliTeKDSP/libs/libDaisy/src/hid/disp/display.h **** 
  83:../../libs/PoliTeKDSP/libs/libDaisy/src/hid/disp/display.h ****     /**
  84:../../libs/PoliTeKDSP/libs/libDaisy/src/hid/disp/display.h ****     Draws a rectangle.
  85:../../libs/PoliTeKDSP/libs/libDaisy/src/hid/disp/display.h ****     \param rect the rectangle
  86:../../libs/PoliTeKDSP/libs/libDaisy/src/hid/disp/display.h ****     \param on   on or off
  87:../../libs/PoliTeKDSP/libs/libDaisy/src/hid/disp/display.h ****     \param fill fill the rectangle or draw only the outline
  88:../../libs/PoliTeKDSP/libs/libDaisy/src/hid/disp/display.h ****     */
  89:../../libs/PoliTeKDSP/libs/libDaisy/src/hid/disp/display.h ****     void DrawRect(const Rectangle& rect, bool on, bool fill = false)
  90:../../libs/PoliTeKDSP/libs/libDaisy/src/hid/disp/display.h ****     {
  91:../../libs/PoliTeKDSP/libs/libDaisy/src/hid/disp/display.h ****         DrawRect(rect.GetX(),
  92:../../libs/PoliTeKDSP/libs/libDaisy/src/hid/disp/display.h ****                  rect.GetY(),
  93:../../libs/PoliTeKDSP/libs/libDaisy/src/hid/disp/display.h ****                  rect.GetRight(),
  94:../../libs/PoliTeKDSP/libs/libDaisy/src/hid/disp/display.h ****                  rect.GetBottom(),
  95:../../libs/PoliTeKDSP/libs/libDaisy/src/hid/disp/display.h ****                  on,
  96:../../libs/PoliTeKDSP/libs/libDaisy/src/hid/disp/display.h ****                  fill);
  97:../../libs/PoliTeKDSP/libs/libDaisy/src/hid/disp/display.h ****     }
  98:../../libs/PoliTeKDSP/libs/libDaisy/src/hid/disp/display.h **** 
  99:../../libs/PoliTeKDSP/libs/libDaisy/src/hid/disp/display.h ****     /**
 100:../../libs/PoliTeKDSP/libs/libDaisy/src/hid/disp/display.h ****     Draws an arc around the specified coordinate
 101:../../libs/PoliTeKDSP/libs/libDaisy/src/hid/disp/display.h ****     \param x           x Coordinate of the center of the arc
 102:../../libs/PoliTeKDSP/libs/libDaisy/src/hid/disp/display.h ****     \param y           y Coordinate of the center of the arc
 103:../../libs/PoliTeKDSP/libs/libDaisy/src/hid/disp/display.h ****     \param radius      radius of the arc
 104:../../libs/PoliTeKDSP/libs/libDaisy/src/hid/disp/display.h ****     \param start_angle angle where to start the arc
 105:../../libs/PoliTeKDSP/libs/libDaisy/src/hid/disp/display.h ****     \param sweep       total angle of the arc
 106:../../libs/PoliTeKDSP/libs/libDaisy/src/hid/disp/display.h ****     \param on  on or off
 107:../../libs/PoliTeKDSP/libs/libDaisy/src/hid/disp/display.h ****     */
 108:../../libs/PoliTeKDSP/libs/libDaisy/src/hid/disp/display.h ****     virtual void DrawArc(uint_fast8_t x,
 109:../../libs/PoliTeKDSP/libs/libDaisy/src/hid/disp/display.h ****                          uint_fast8_t y,
 110:../../libs/PoliTeKDSP/libs/libDaisy/src/hid/disp/display.h ****                          uint_fast8_t radius,
 111:../../libs/PoliTeKDSP/libs/libDaisy/src/hid/disp/display.h ****                          int_fast16_t start_angle,
 112:../../libs/PoliTeKDSP/libs/libDaisy/src/hid/disp/display.h ****                          int_fast16_t sweep,
 113:../../libs/PoliTeKDSP/libs/libDaisy/src/hid/disp/display.h ****                          bool         on)
 114:../../libs/PoliTeKDSP/libs/libDaisy/src/hid/disp/display.h ****         = 0;
 115:../../libs/PoliTeKDSP/libs/libDaisy/src/hid/disp/display.h **** 
 116:../../libs/PoliTeKDSP/libs/libDaisy/src/hid/disp/display.h ****     /**
 117:../../libs/PoliTeKDSP/libs/libDaisy/src/hid/disp/display.h ****     Draws a circle around the specified coordinate
 118:../../libs/PoliTeKDSP/libs/libDaisy/src/hid/disp/display.h ****     \param x           x Coordinate of the center of the circle
 119:../../libs/PoliTeKDSP/libs/libDaisy/src/hid/disp/display.h ****     \param y           y Coordinate of the center of the circle
 120:../../libs/PoliTeKDSP/libs/libDaisy/src/hid/disp/display.h ****     \param radius      radius of the circle
 121:../../libs/PoliTeKDSP/libs/libDaisy/src/hid/disp/display.h ****     \param on  on or off
 122:../../libs/PoliTeKDSP/libs/libDaisy/src/hid/disp/display.h ****     */
 123:../../libs/PoliTeKDSP/libs/libDaisy/src/hid/disp/display.h ****     void
 124:../../libs/PoliTeKDSP/libs/libDaisy/src/hid/disp/display.h ****     DrawCircle(uint_fast8_t x, uint_fast8_t y, uint_fast8_t radius, bool on)
 125:../../libs/PoliTeKDSP/libs/libDaisy/src/hid/disp/display.h ****     {
 126:../../libs/PoliTeKDSP/libs/libDaisy/src/hid/disp/display.h ****         DrawArc(x, y, radius, 0, 360, on);
 127:../../libs/PoliTeKDSP/libs/libDaisy/src/hid/disp/display.h ****     };
 128:../../libs/PoliTeKDSP/libs/libDaisy/src/hid/disp/display.h **** 
 129:../../libs/PoliTeKDSP/libs/libDaisy/src/hid/disp/display.h ****     /** 
 130:../../libs/PoliTeKDSP/libs/libDaisy/src/hid/disp/display.h ****     Writes the character with the specific FontDef
 131:../../libs/PoliTeKDSP/libs/libDaisy/src/hid/disp/display.h ****     to the display buffer at the current Cursor position.
 132:../../libs/PoliTeKDSP/libs/libDaisy/src/hid/disp/display.h ****     \param ch character to be written
ARM GAS  C:\Users\matte\AppData\Local\Temp\ccH6qY0h.s 			page 16


 133:../../libs/PoliTeKDSP/libs/libDaisy/src/hid/disp/display.h ****     \param font font to be written in
 134:../../libs/PoliTeKDSP/libs/libDaisy/src/hid/disp/display.h ****     \param on    on or off
 135:../../libs/PoliTeKDSP/libs/libDaisy/src/hid/disp/display.h ****     \return &
 136:../../libs/PoliTeKDSP/libs/libDaisy/src/hid/disp/display.h ****     */
 137:../../libs/PoliTeKDSP/libs/libDaisy/src/hid/disp/display.h ****     virtual char WriteChar(char ch, FontDef font, bool on) = 0;
 138:../../libs/PoliTeKDSP/libs/libDaisy/src/hid/disp/display.h **** 
 139:../../libs/PoliTeKDSP/libs/libDaisy/src/hid/disp/display.h ****     /** 
 140:../../libs/PoliTeKDSP/libs/libDaisy/src/hid/disp/display.h ****     Similar to WriteChar, except it will handle an entire String.
 141:../../libs/PoliTeKDSP/libs/libDaisy/src/hid/disp/display.h ****     Wrapping does not happen automatically, so the width
 142:../../libs/PoliTeKDSP/libs/libDaisy/src/hid/disp/display.h ****     of the string must be kept within the dimensions of the screen.
 143:../../libs/PoliTeKDSP/libs/libDaisy/src/hid/disp/display.h ****     \param str string to be written
 144:../../libs/PoliTeKDSP/libs/libDaisy/src/hid/disp/display.h ****     \param font font to use
 145:../../libs/PoliTeKDSP/libs/libDaisy/src/hid/disp/display.h ****     \param on  on or off
 146:../../libs/PoliTeKDSP/libs/libDaisy/src/hid/disp/display.h ****     \return &
 147:../../libs/PoliTeKDSP/libs/libDaisy/src/hid/disp/display.h ****     */
 148:../../libs/PoliTeKDSP/libs/libDaisy/src/hid/disp/display.h ****     virtual char WriteString(const char* str, FontDef font, bool on) = 0;
 149:../../libs/PoliTeKDSP/libs/libDaisy/src/hid/disp/display.h **** 
 150:../../libs/PoliTeKDSP/libs/libDaisy/src/hid/disp/display.h ****     /** 
 151:../../libs/PoliTeKDSP/libs/libDaisy/src/hid/disp/display.h ****     Similar to WriteString but justified within a bounding box.
 152:../../libs/PoliTeKDSP/libs/libDaisy/src/hid/disp/display.h ****     \param str          string to be written
 153:../../libs/PoliTeKDSP/libs/libDaisy/src/hid/disp/display.h ****     \param font         font to use
 154:../../libs/PoliTeKDSP/libs/libDaisy/src/hid/disp/display.h ****     \param boundingBox  the bounding box to draw the text in
 155:../../libs/PoliTeKDSP/libs/libDaisy/src/hid/disp/display.h ****     \param alignment    the alignment to use
 156:../../libs/PoliTeKDSP/libs/libDaisy/src/hid/disp/display.h ****     \param on           on or off
 157:../../libs/PoliTeKDSP/libs/libDaisy/src/hid/disp/display.h ****     \return The rectangle that was drawn to
 158:../../libs/PoliTeKDSP/libs/libDaisy/src/hid/disp/display.h ****     */
 159:../../libs/PoliTeKDSP/libs/libDaisy/src/hid/disp/display.h ****     virtual Rectangle WriteStringAligned(const char*    str,
 160:../../libs/PoliTeKDSP/libs/libDaisy/src/hid/disp/display.h ****                                          const FontDef& font,
 161:../../libs/PoliTeKDSP/libs/libDaisy/src/hid/disp/display.h ****                                          Rectangle      boundingBox,
 162:../../libs/PoliTeKDSP/libs/libDaisy/src/hid/disp/display.h ****                                          Alignment      alignment,
 163:../../libs/PoliTeKDSP/libs/libDaisy/src/hid/disp/display.h ****                                          bool           on)
 164:../../libs/PoliTeKDSP/libs/libDaisy/src/hid/disp/display.h ****         = 0;
 165:../../libs/PoliTeKDSP/libs/libDaisy/src/hid/disp/display.h **** 
 166:../../libs/PoliTeKDSP/libs/libDaisy/src/hid/disp/display.h ****     /** 
 167:../../libs/PoliTeKDSP/libs/libDaisy/src/hid/disp/display.h ****     Moves the 'Cursor' position used for WriteChar, and WriteStr to the specified coordinate.
 168:../../libs/PoliTeKDSP/libs/libDaisy/src/hid/disp/display.h ****     \param x x pos
 169:../../libs/PoliTeKDSP/libs/libDaisy/src/hid/disp/display.h ****     \param y y pos
 170:../../libs/PoliTeKDSP/libs/libDaisy/src/hid/disp/display.h ****     */
 171:../../libs/PoliTeKDSP/libs/libDaisy/src/hid/disp/display.h ****     void SetCursor(uint16_t x, uint16_t y)
 172:../../libs/PoliTeKDSP/libs/libDaisy/src/hid/disp/display.h ****     {
 173:../../libs/PoliTeKDSP/libs/libDaisy/src/hid/disp/display.h ****         currentX_ = (x >= Width()) ? Width() - 1 : x;
 174:../../libs/PoliTeKDSP/libs/libDaisy/src/hid/disp/display.h ****         currentY_ = (y >= Height()) ? Height() - 1 : y;
 175:../../libs/PoliTeKDSP/libs/libDaisy/src/hid/disp/display.h ****     }
 176:../../libs/PoliTeKDSP/libs/libDaisy/src/hid/disp/display.h **** 
 177:../../libs/PoliTeKDSP/libs/libDaisy/src/hid/disp/display.h ****     /** 
 178:../../libs/PoliTeKDSP/libs/libDaisy/src/hid/disp/display.h ****     Writes the current display buffer to the OLED device using SPI or I2C depending on 
 179:../../libs/PoliTeKDSP/libs/libDaisy/src/hid/disp/display.h ****     how the object was initialized.
 180:../../libs/PoliTeKDSP/libs/libDaisy/src/hid/disp/display.h ****     */
 181:../../libs/PoliTeKDSP/libs/libDaisy/src/hid/disp/display.h ****     virtual void Update() = 0;
 182:../../libs/PoliTeKDSP/libs/libDaisy/src/hid/disp/display.h **** 
 183:../../libs/PoliTeKDSP/libs/libDaisy/src/hid/disp/display.h ****   protected:
 184:../../libs/PoliTeKDSP/libs/libDaisy/src/hid/disp/display.h ****     uint16_t currentX_;
 185:../../libs/PoliTeKDSP/libs/libDaisy/src/hid/disp/display.h ****     uint16_t currentY_;
 186:../../libs/PoliTeKDSP/libs/libDaisy/src/hid/disp/display.h **** };
 187:../../libs/PoliTeKDSP/libs/libDaisy/src/hid/disp/display.h **** 
 188:../../libs/PoliTeKDSP/libs/libDaisy/src/hid/disp/display.h **** /** This class is intended as a intermediary class for your actual implementation of the OneBitGrap
 189:../../libs/PoliTeKDSP/libs/libDaisy/src/hid/disp/display.h ****  *  interface. It uses the CRTP design pattern where the template argument is the child class. It p
ARM GAS  C:\Users\matte\AppData\Local\Temp\ccH6qY0h.s 			page 17


 190:../../libs/PoliTeKDSP/libs/libDaisy/src/hid/disp/display.h ****  *  implementations for most of the functions, except DrawPixel(), Update() and Fill(), which you'l
 191:../../libs/PoliTeKDSP/libs/libDaisy/src/hid/disp/display.h ****  *  to provide in your child class.
 192:../../libs/PoliTeKDSP/libs/libDaisy/src/hid/disp/display.h ****  *  The main goal of this class is to provide common drawing functions without relying on massive a
 193:../../libs/PoliTeKDSP/libs/libDaisy/src/hid/disp/display.h ****  *  virtual function calls that would result in a performance loss. To achieve this, any drawing fu
 194:../../libs/PoliTeKDSP/libs/libDaisy/src/hid/disp/display.h ****  *  is implemented here and internally calls other drawing functions (e.g. DrawRect() which interna
 195:../../libs/PoliTeKDSP/libs/libDaisy/src/hid/disp/display.h ****  *  DrawPixel() and DrawLine()) makes these calls via the qualified name of these functions to expl
 196:../../libs/PoliTeKDSP/libs/libDaisy/src/hid/disp/display.h ****  *  suppress the virtual dispatch mechanism like this:
 197:../../libs/PoliTeKDSP/libs/libDaisy/src/hid/disp/display.h ****  * 
 198:../../libs/PoliTeKDSP/libs/libDaisy/src/hid/disp/display.h ****  *      ChildType::DrawPixel(...); // no virtual function call; direct call into the child class fu
 199:../../libs/PoliTeKDSP/libs/libDaisy/src/hid/disp/display.h ****  *  
 200:../../libs/PoliTeKDSP/libs/libDaisy/src/hid/disp/display.h ****  *  To create a custom OneBitGraphicsDisplay implementation, you can 
 201:../../libs/PoliTeKDSP/libs/libDaisy/src/hid/disp/display.h ****  *  A) inherit from OneBitGraphicsDisplay directly and provide all the drawing functions yourself
 202:../../libs/PoliTeKDSP/libs/libDaisy/src/hid/disp/display.h ****  *  B) Inherit from OneBitGraphicsDisplayImpl and only provide DrawPixel(), Fill() and Update()
 203:../../libs/PoliTeKDSP/libs/libDaisy/src/hid/disp/display.h ****  *     like this:
 204:../../libs/PoliTeKDSP/libs/libDaisy/src/hid/disp/display.h ****  *  
 205:../../libs/PoliTeKDSP/libs/libDaisy/src/hid/disp/display.h ****  *      class MyDisplayClass : public OneBitGraphicsDisplayImpl<MyDisplayClass> 
 206:../../libs/PoliTeKDSP/libs/libDaisy/src/hid/disp/display.h ****  *      {
 207:../../libs/PoliTeKDSP/libs/libDaisy/src/hid/disp/display.h ****  *      public:
 208:../../libs/PoliTeKDSP/libs/libDaisy/src/hid/disp/display.h ****  *          void Fill() override { ... };
 209:../../libs/PoliTeKDSP/libs/libDaisy/src/hid/disp/display.h ****  *          void DrawPixel(uint_fast8_t x, uint_fast8_t y, bool on) override { ... };
 210:../../libs/PoliTeKDSP/libs/libDaisy/src/hid/disp/display.h ****  *          void Update() override { ... }
 211:../../libs/PoliTeKDSP/libs/libDaisy/src/hid/disp/display.h ****  *      };
 212:../../libs/PoliTeKDSP/libs/libDaisy/src/hid/disp/display.h ****  *  
 213:../../libs/PoliTeKDSP/libs/libDaisy/src/hid/disp/display.h ****  */
 214:../../libs/PoliTeKDSP/libs/libDaisy/src/hid/disp/display.h **** template <class ChildType>
 215:../../libs/PoliTeKDSP/libs/libDaisy/src/hid/disp/display.h **** class OneBitGraphicsDisplayImpl : public OneBitGraphicsDisplay
 216:../../libs/PoliTeKDSP/libs/libDaisy/src/hid/disp/display.h **** {
 217:../../libs/PoliTeKDSP/libs/libDaisy/src/hid/disp/display.h ****   public:
 218:../../libs/PoliTeKDSP/libs/libDaisy/src/hid/disp/display.h ****     OneBitGraphicsDisplayImpl() {}
 219:../../libs/PoliTeKDSP/libs/libDaisy/src/hid/disp/display.h ****     virtual ~OneBitGraphicsDisplayImpl() {}
 220:../../libs/PoliTeKDSP/libs/libDaisy/src/hid/disp/display.h **** 
 221:../../libs/PoliTeKDSP/libs/libDaisy/src/hid/disp/display.h ****     void DrawLine(uint_fast8_t x1,
 262              		.loc 3 221 10 is_stmt 1 view -0
 263              		.cfi_startproc
 264              		@ args = 8, pretend = 0, frame = 8
 265              		@ frame_needed = 0, uses_anonymous_args = 0
 266              		.loc 3 221 10 is_stmt 0 view .LVU64
 267 0000 2DE9F04F 		push	{r4, r5, r6, r7, r8, r9, r10, fp, lr}
 268              		.cfi_def_cfa_offset 36
 269              		.cfi_offset 4, -36
 270              		.cfi_offset 5, -32
 271              		.cfi_offset 6, -28
 272              		.cfi_offset 7, -24
 273              		.cfi_offset 8, -20
 274              		.cfi_offset 9, -16
 275              		.cfi_offset 10, -12
 276              		.cfi_offset 11, -8
 277              		.cfi_offset 14, -4
 278 0004 83B0     		sub	sp, sp, #12
 279              		.cfi_def_cfa_offset 48
 222:../../libs/PoliTeKDSP/libs/libDaisy/src/hid/disp/display.h ****                   uint_fast8_t y1,
 223:../../libs/PoliTeKDSP/libs/libDaisy/src/hid/disp/display.h ****                   uint_fast8_t x2,
 224:../../libs/PoliTeKDSP/libs/libDaisy/src/hid/disp/display.h ****                   uint_fast8_t y2,
 225:../../libs/PoliTeKDSP/libs/libDaisy/src/hid/disp/display.h ****                   bool         on) override
 226:../../libs/PoliTeKDSP/libs/libDaisy/src/hid/disp/display.h ****     {
 227:../../libs/PoliTeKDSP/libs/libDaisy/src/hid/disp/display.h ****         int_fast16_t deltaX = abs((int_fast16_t)x2 - (int_fast16_t)x1);
 280              		.loc 3 227 52 view .LVU65
ARM GAS  C:\Users\matte\AppData\Local\Temp\ccH6qY0h.s 			page 18


 281 0006 5C1A     		subs	r4, r3, r1
 221:../../libs/PoliTeKDSP/libs/libDaisy/src/hid/disp/display.h ****                   uint_fast8_t y1,
 282              		.loc 3 221 10 view .LVU66
 283 0008 0C9E     		ldr	r6, [sp, #48]
 284              		.loc 3 227 22 view .LVU67
 285 000a 002C     		cmp	r4, #0
 221:../../libs/PoliTeKDSP/libs/libDaisy/src/hid/disp/display.h ****                   uint_fast8_t y1,
 286              		.loc 3 221 10 view .LVU68
 287 000c 9DF83490 		ldrb	r9, [sp, #52]	@ zero_extendqisi2
 228:../../libs/PoliTeKDSP/libs/libDaisy/src/hid/disp/display.h ****         int_fast16_t deltaY = abs((int_fast16_t)y2 - (int_fast16_t)y1);
 288              		.loc 3 228 52 view .LVU69
 289 0010 A6EB0208 		sub	r8, r6, r2
 227:../../libs/PoliTeKDSP/libs/libDaisy/src/hid/disp/display.h ****         int_fast16_t deltaY = abs((int_fast16_t)y2 - (int_fast16_t)y1);
 290              		.loc 3 227 22 view .LVU70
 291 0014 B8BF     		it	lt
 292 0016 6442     		rsblt	r4, r4, #0
 293              	.LVL16:
 294              		.loc 3 228 22 view .LVU71
 295 0018 B8F1000F 		cmp	r8, #0
 296 001c B8BF     		it	lt
 297 001e C8F10008 		rsblt	r8, r8, #0
 298              	.LVL17:
 229:../../libs/PoliTeKDSP/libs/libDaisy/src/hid/disp/display.h ****         int_fast16_t signX  = ((x1 < x2) ? 1 : -1);
 299              		.loc 3 229 42 view .LVU72
 300 0022 8B42     		cmp	r3, r1
 301 0024 8CBF     		ite	hi
 302 0026 4FF0010A 		movhi	r10, #1
 303 002a 4FF0FF3A 		movls	r10, #-1
 304              	.LVL18:
 230:../../libs/PoliTeKDSP/libs/libDaisy/src/hid/disp/display.h ****         int_fast16_t signY  = ((y1 < y2) ? 1 : -1);
 305              		.loc 3 230 42 view .LVU73
 306 002e 9642     		cmp	r6, r2
 231:../../libs/PoliTeKDSP/libs/libDaisy/src/hid/disp/display.h ****         int_fast16_t error  = deltaX - deltaY;
 307              		.loc 3 231 22 view .LVU74
 308 0030 A4EB080C 		sub	ip, r4, r8
 230:../../libs/PoliTeKDSP/libs/libDaisy/src/hid/disp/display.h ****         int_fast16_t signY  = ((y1 < y2) ? 1 : -1);
 309              		.loc 3 230 42 view .LVU75
 310 0034 51D8     		bhi	.L11
 311              	.LVL19:
 312              	.LBB61:
 313              	.LBI61:
  42:../../libs/PoliTeKDSP/libs/libDaisy/src/hid/disp/oled_display.h ****     {
 314              		.loc 1 42 10 is_stmt 1 discriminator 4 view .LVU76
 315              	.LBB62:
 316              	.LBI62:
 340:../../libs/PoliTeKDSP/libs/libDaisy/src/dev/oled_ssd130x.h ****     {
 317              		.loc 2 340 10 discriminator 4 view .LVU77
 318              	.LBE62:
 319              	.LBE61:
 230:../../libs/PoliTeKDSP/libs/libDaisy/src/hid/disp/display.h ****         int_fast16_t error  = deltaX - deltaY;
 320              		.loc 3 230 42 is_stmt 0 discriminator 4 view .LVU78
 321 0036 4FF0FF35 		mov	r5, #-1
 322              	.LBB78:
 323              	.LBB72:
 324              	.LBB63:
 342:../../libs/PoliTeKDSP/libs/libDaisy/src/dev/oled_ssd130x.h ****             return;
 325              		.loc 2 342 9 discriminator 4 view .LVU79
ARM GAS  C:\Users\matte\AppData\Local\Temp\ccH6qY0h.s 			page 19


 326 003a 7F2B     		cmp	r3, #127
 327              	.LBE63:
 328              	.LBE72:
 329              	.LBE78:
 230:../../libs/PoliTeKDSP/libs/libDaisy/src/hid/disp/display.h ****         int_fast16_t error  = deltaX - deltaY;
 330              		.loc 3 230 42 discriminator 4 view .LVU80
 331 003c 0195     		str	r5, [sp, #4]
 332              	.LBB79:
 333              	.LBB73:
 334              	.LBB68:
 342:../../libs/PoliTeKDSP/libs/libDaisy/src/dev/oled_ssd130x.h ****             return;
 335              		.loc 2 342 9 discriminator 4 view .LVU81
 336 003e 12D8     		bhi	.L12
 337 0040 3F2E     		cmp	r6, #63
 338 0042 10D8     		bhi	.L12
 339              	.LVL20:
 340              	.L23:
 345:../../libs/PoliTeKDSP/libs/libDaisy/src/dev/oled_ssd130x.h ****         else
 341              		.loc 2 345 28 view .LVU82
 342 0044 F508     		lsrs	r5, r6, #3
 345:../../libs/PoliTeKDSP/libs/libDaisy/src/dev/oled_ssd130x.h ****         else
 343              		.loc 2 345 54 view .LVU83
 344 0046 06F0070E 		and	lr, r6, #7
 345:../../libs/PoliTeKDSP/libs/libDaisy/src/dev/oled_ssd130x.h ****         else
 345              		.loc 2 345 48 view .LVU84
 346 004a 0127     		movs	r7, #1
 345:../../libs/PoliTeKDSP/libs/libDaisy/src/dev/oled_ssd130x.h ****         else
 347              		.loc 2 345 42 view .LVU85
 348 004c 03EBC515 		add	r5, r3, r5, lsl #7
 349 0050 0544     		add	r5, r5, r0
 344:../../libs/PoliTeKDSP/libs/libDaisy/src/dev/oled_ssd130x.h ****             buffer_[x + (y / 8) * width] |= (1 << (y % 8));
 350              		.loc 2 344 9 view .LVU86
 351 0052 B9F1000F 		cmp	r9, #0
 352 0056 47D0     		beq	.L13
 345:../../libs/PoliTeKDSP/libs/libDaisy/src/dev/oled_ssd130x.h ****         else
 353              		.loc 2 345 48 view .LVU87
 354 0058 07FA0EF7 		lsl	r7, r7, lr
 345:../../libs/PoliTeKDSP/libs/libDaisy/src/dev/oled_ssd130x.h ****         else
 355              		.loc 2 345 42 view .LVU88
 356 005c 95F810E0 		ldrb	lr, [r5, #16]	@ zero_extendqisi2
 357 0060 47EA0E07 		orr	r7, r7, lr
 358 0064 2F74     		strb	r7, [r5, #16]
 359              	.LVL21:
 360              	.L12:
 345:../../libs/PoliTeKDSP/libs/libDaisy/src/dev/oled_ssd130x.h ****         else
 361              		.loc 2 345 42 view .LVU89
 362              	.LBE68:
 363              	.LBE73:
 364              	.LBE79:
 232:../../libs/PoliTeKDSP/libs/libDaisy/src/hid/disp/display.h ****         int_fast16_t error2;
 233:../../libs/PoliTeKDSP/libs/libDaisy/src/hid/disp/display.h **** 
 234:../../libs/PoliTeKDSP/libs/libDaisy/src/hid/disp/display.h ****         // If we write "ChildType::DrawPixel(x2, y2, on);", we end up with
 235:../../libs/PoliTeKDSP/libs/libDaisy/src/hid/disp/display.h ****         // all sorts of weird compiler errors when the Child class is a template
 236:../../libs/PoliTeKDSP/libs/libDaisy/src/hid/disp/display.h ****         // class. The only way around this is to use this very verbose syntax:
 237:../../libs/PoliTeKDSP/libs/libDaisy/src/hid/disp/display.h ****         ((ChildType*)(this))->ChildType::DrawPixel(x2, y2, on);
 238:../../libs/PoliTeKDSP/libs/libDaisy/src/hid/disp/display.h **** 
 239:../../libs/PoliTeKDSP/libs/libDaisy/src/hid/disp/display.h ****         while((x1 != x2) || (y1 != y2))
ARM GAS  C:\Users\matte\AppData\Local\Temp\ccH6qY0h.s 			page 20


 365              		.loc 3 239 26 is_stmt 1 view .LVU90
 366 0066 9642     		cmp	r6, r2
 367 0068 01D1     		bne	.L16
 368              	.L35:
 369              		.loc 3 239 26 is_stmt 0 view .LVU91
 370 006a 8B42     		cmp	r3, r1
 371 006c 29D0     		beq	.L9
 372              	.L16:
 373              	.LVL22:
 240:../../libs/PoliTeKDSP/libs/libDaisy/src/hid/disp/display.h ****         {
 241:../../libs/PoliTeKDSP/libs/libDaisy/src/hid/disp/display.h ****             ((ChildType*)(this))->ChildType::DrawPixel(x1, y1, on);
 242:../../libs/PoliTeKDSP/libs/libDaisy/src/hid/disp/display.h ****             error2 = error * 2;
 243:../../libs/PoliTeKDSP/libs/libDaisy/src/hid/disp/display.h ****             if(error2 > -deltaY)
 374              		.loc 3 243 23 view .LVU92
 375 006e C8F10007 		rsb	r7, r8, #0
 376              	.L18:
 377              	.LVL23:
 378              	.LBB80:
 379              	.LBI80:
  42:../../libs/PoliTeKDSP/libs/libDaisy/src/hid/disp/oled_display.h ****     {
 380              		.loc 1 42 10 is_stmt 1 view .LVU93
 381              	.LBB81:
 382              	.LBI81:
 340:../../libs/PoliTeKDSP/libs/libDaisy/src/dev/oled_ssd130x.h ****     {
 383              		.loc 2 340 10 view .LVU94
 384              	.LBB82:
 342:../../libs/PoliTeKDSP/libs/libDaisy/src/dev/oled_ssd130x.h ****             return;
 385              		.loc 2 342 9 is_stmt 0 view .LVU95
 386 0072 7F29     		cmp	r1, #127
 387 0074 14D8     		bhi	.L19
 388 0076 3F2A     		cmp	r2, #63
 389 0078 12D8     		bhi	.L19
 345:../../libs/PoliTeKDSP/libs/libDaisy/src/dev/oled_ssd130x.h ****         else
 390              		.loc 2 345 28 view .LVU96
 391 007a D508     		lsrs	r5, r2, #3
 345:../../libs/PoliTeKDSP/libs/libDaisy/src/dev/oled_ssd130x.h ****         else
 392              		.loc 2 345 54 view .LVU97
 393 007c 02F0070B 		and	fp, r2, #7
 345:../../libs/PoliTeKDSP/libs/libDaisy/src/dev/oled_ssd130x.h ****         else
 394              		.loc 2 345 48 view .LVU98
 395 0080 4FF0010E 		mov	lr, #1
 345:../../libs/PoliTeKDSP/libs/libDaisy/src/dev/oled_ssd130x.h ****         else
 396              		.loc 2 345 42 view .LVU99
 397 0084 01EBC515 		add	r5, r1, r5, lsl #7
 398 0088 0544     		add	r5, r5, r0
 344:../../libs/PoliTeKDSP/libs/libDaisy/src/dev/oled_ssd130x.h ****             buffer_[x + (y / 8) * width] |= (1 << (y % 8));
 399              		.loc 2 344 9 view .LVU100
 400 008a B9F1000F 		cmp	r9, #0
 401 008e 1BD0     		beq	.L20
 345:../../libs/PoliTeKDSP/libs/libDaisy/src/dev/oled_ssd130x.h ****         else
 402              		.loc 2 345 48 view .LVU101
 403 0090 0EFA0BFE 		lsl	lr, lr, fp
 345:../../libs/PoliTeKDSP/libs/libDaisy/src/dev/oled_ssd130x.h ****         else
 404              		.loc 2 345 42 view .LVU102
 405 0094 95F810B0 		ldrb	fp, [r5, #16]	@ zero_extendqisi2
 406 0098 4EEA0B0E 		orr	lr, lr, fp
 407 009c 85F810E0 		strb	lr, [r5, #16]
ARM GAS  C:\Users\matte\AppData\Local\Temp\ccH6qY0h.s 			page 21


 408              	.L19:
 409              	.LVL24:
 345:../../libs/PoliTeKDSP/libs/libDaisy/src/dev/oled_ssd130x.h ****         else
 410              		.loc 2 345 42 view .LVU103
 411              	.LBE82:
 412              	.LBE81:
 413              	.LBE80:
 414              		.loc 3 243 13 view .LVU104
 415 00a0 B7EB4C0F 		cmp	r7, ip, lsl #1
 242:../../libs/PoliTeKDSP/libs/libDaisy/src/hid/disp/display.h ****             if(error2 > -deltaY)
 416              		.loc 3 242 20 view .LVU105
 417 00a4 4FEA4C05 		lsl	r5, ip, #1
 418              	.LVL25:
 419              		.loc 3 243 13 view .LVU106
 420 00a8 02DA     		bge	.L21
 244:../../libs/PoliTeKDSP/libs/libDaisy/src/hid/disp/display.h ****             {
 245:../../libs/PoliTeKDSP/libs/libDaisy/src/hid/disp/display.h ****                 error -= deltaY;
 421              		.loc 3 245 23 view .LVU107
 422 00aa ACEB080C 		sub	ip, ip, r8
 423              	.LVL26:
 246:../../libs/PoliTeKDSP/libs/libDaisy/src/hid/disp/display.h ****                 x1 += signX;
 424              		.loc 3 246 20 view .LVU108
 425 00ae 5144     		add	r1, r1, r10
 426              	.LVL27:
 427              	.L21:
 247:../../libs/PoliTeKDSP/libs/libDaisy/src/hid/disp/display.h ****             }
 248:../../libs/PoliTeKDSP/libs/libDaisy/src/hid/disp/display.h **** 
 249:../../libs/PoliTeKDSP/libs/libDaisy/src/hid/disp/display.h ****             if(error2 < deltaX)
 428              		.loc 3 249 13 view .LVU109
 429 00b0 AC42     		cmp	r4, r5
 430 00b2 02DD     		ble	.L22
 250:../../libs/PoliTeKDSP/libs/libDaisy/src/hid/disp/display.h ****             {
 251:../../libs/PoliTeKDSP/libs/libDaisy/src/hid/disp/display.h ****                 error += deltaX;
 252:../../libs/PoliTeKDSP/libs/libDaisy/src/hid/disp/display.h ****                 y1 += signY;
 431              		.loc 3 252 20 view .LVU110
 432 00b4 019D     		ldr	r5, [sp, #4]
 433              	.LVL28:
 251:../../libs/PoliTeKDSP/libs/libDaisy/src/hid/disp/display.h ****                 y1 += signY;
 434              		.loc 3 251 23 view .LVU111
 435 00b6 A444     		add	ip, ip, r4
 436              	.LVL29:
 437              		.loc 3 252 20 view .LVU112
 438 00b8 2A44     		add	r2, r2, r5
 439              	.LVL30:
 440              	.L22:
 239:../../libs/PoliTeKDSP/libs/libDaisy/src/hid/disp/display.h ****         {
 441              		.loc 3 239 26 is_stmt 1 view .LVU113
 442 00ba 9942     		cmp	r1, r3
 443 00bc D9D1     		bne	.L18
 239:../../libs/PoliTeKDSP/libs/libDaisy/src/hid/disp/display.h ****         {
 444              		.loc 3 239 26 is_stmt 0 view .LVU114
 445 00be 9642     		cmp	r6, r2
 446 00c0 D7D1     		bne	.L18
 447              	.L9:
 253:../../libs/PoliTeKDSP/libs/libDaisy/src/hid/disp/display.h ****             }
 254:../../libs/PoliTeKDSP/libs/libDaisy/src/hid/disp/display.h ****         }
 255:../../libs/PoliTeKDSP/libs/libDaisy/src/hid/disp/display.h ****     }
ARM GAS  C:\Users\matte\AppData\Local\Temp\ccH6qY0h.s 			page 22


 448              		.loc 3 255 5 view .LVU115
 449 00c2 03B0     		add	sp, sp, #12
 450              		.cfi_remember_state
 451              		.cfi_def_cfa_offset 36
 452              		@ sp needed
 453 00c4 BDE8F08F 		pop	{r4, r5, r6, r7, r8, r9, r10, fp, pc}
 454              	.LVL31:
 455              	.L20:
 456              		.cfi_restore_state
 457              	.LBB87:
 458              	.LBB86:
 459              	.LBB85:
 460              	.LBB83:
 461              	.LBI83:
 340:../../libs/PoliTeKDSP/libs/libDaisy/src/dev/oled_ssd130x.h ****     {
 462              		.loc 2 340 10 is_stmt 1 view .LVU116
 463              	.LBB84:
 347:../../libs/PoliTeKDSP/libs/libDaisy/src/dev/oled_ssd130x.h ****     }
 464              		.loc 2 347 49 is_stmt 0 view .LVU117
 465 00c8 0EFA0BFB 		lsl	fp, lr, fp
 347:../../libs/PoliTeKDSP/libs/libDaisy/src/dev/oled_ssd130x.h ****     }
 466              		.loc 2 347 42 view .LVU118
 467 00cc 95F810E0 		ldrb	lr, [r5, #16]	@ zero_extendqisi2
 468 00d0 2EEA0B0E 		bic	lr, lr, fp
 469 00d4 85F810E0 		strb	lr, [r5, #16]
 470 00d8 E2E7     		b	.L19
 471              	.LVL32:
 472              	.L11:
 347:../../libs/PoliTeKDSP/libs/libDaisy/src/dev/oled_ssd130x.h ****     }
 473              		.loc 2 347 42 view .LVU119
 474              	.LBE84:
 475              	.LBE83:
 476              	.LBE85:
 477              	.LBE86:
 478              	.LBE87:
 479              	.LBB88:
  42:../../libs/PoliTeKDSP/libs/libDaisy/src/hid/disp/oled_display.h ****     {
 480              		.loc 1 42 10 is_stmt 1 view .LVU120
 481              	.LBB74:
 340:../../libs/PoliTeKDSP/libs/libDaisy/src/dev/oled_ssd130x.h ****     {
 482              		.loc 2 340 10 view .LVU121
 483              	.LBE74:
 484              	.LBE88:
 230:../../libs/PoliTeKDSP/libs/libDaisy/src/hid/disp/display.h ****         int_fast16_t error  = deltaX - deltaY;
 485              		.loc 3 230 42 is_stmt 0 view .LVU122
 486 00da 0125     		movs	r5, #1
 487              	.LBB89:
 488              	.LBB75:
 489              	.LBB69:
 342:../../libs/PoliTeKDSP/libs/libDaisy/src/dev/oled_ssd130x.h ****             return;
 490              		.loc 2 342 9 view .LVU123
 491 00dc 7F2B     		cmp	r3, #127
 492              	.LBE69:
 493              	.LBE75:
 494              	.LBE89:
 230:../../libs/PoliTeKDSP/libs/libDaisy/src/hid/disp/display.h ****         int_fast16_t error  = deltaX - deltaY;
 495              		.loc 3 230 42 view .LVU124
ARM GAS  C:\Users\matte\AppData\Local\Temp\ccH6qY0h.s 			page 23


 496 00de 0195     		str	r5, [sp, #4]
 497              	.LBB90:
 498              	.LBB76:
 499              	.LBB70:
 342:../../libs/PoliTeKDSP/libs/libDaisy/src/dev/oled_ssd130x.h ****             return;
 500              		.loc 2 342 9 view .LVU125
 501 00e0 C5D8     		bhi	.L16
 502 00e2 3F2E     		cmp	r6, #63
 503 00e4 AED9     		bls	.L23
 504 00e6 C2E7     		b	.L16
 505              	.LVL33:
 506              	.L13:
 507              	.LBB64:
 508              	.LBI64:
 340:../../libs/PoliTeKDSP/libs/libDaisy/src/dev/oled_ssd130x.h ****     {
 509              		.loc 2 340 10 is_stmt 1 view .LVU126
 510              	.LBB65:
 347:../../libs/PoliTeKDSP/libs/libDaisy/src/dev/oled_ssd130x.h ****     }
 511              		.loc 2 347 49 is_stmt 0 view .LVU127
 512 00e8 07FA0EFE 		lsl	lr, r7, lr
 347:../../libs/PoliTeKDSP/libs/libDaisy/src/dev/oled_ssd130x.h ****     }
 513              		.loc 2 347 42 view .LVU128
 514 00ec 2F7C     		ldrb	r7, [r5, #16]	@ zero_extendqisi2
 515              	.LBE65:
 516              	.LBE64:
 517              	.LBE70:
 518              	.LBE76:
 519              	.LBE90:
 239:../../libs/PoliTeKDSP/libs/libDaisy/src/hid/disp/display.h ****         {
 520              		.loc 3 239 26 view .LVU129
 521 00ee 9642     		cmp	r6, r2
 522              	.LBB91:
 523              	.LBB77:
 524              	.LBB71:
 525              	.LBB67:
 526              	.LBB66:
 347:../../libs/PoliTeKDSP/libs/libDaisy/src/dev/oled_ssd130x.h ****     }
 527              		.loc 2 347 42 view .LVU130
 528 00f0 27EA0E07 		bic	r7, r7, lr
 529 00f4 2F74     		strb	r7, [r5, #16]
 530              	.LVL34:
 347:../../libs/PoliTeKDSP/libs/libDaisy/src/dev/oled_ssd130x.h ****     }
 531              		.loc 2 347 42 view .LVU131
 532              	.LBE66:
 533              	.LBE67:
 534              	.LBE71:
 535              	.LBE77:
 536              	.LBE91:
 239:../../libs/PoliTeKDSP/libs/libDaisy/src/hid/disp/display.h ****         {
 537              		.loc 3 239 26 is_stmt 1 view .LVU132
 538 00f6 B8D0     		beq	.L35
 539 00f8 B9E7     		b	.L16
 540              		.cfi_endproc
 541              	.LFE2713:
 543 00fa 00BF     		.section	.rodata._ZN14DisplayHandlerC2EPN5daisy11OledDisplayINS0_13SSD130xDriverILj128ELj64ENS0_19
 544              		.align	2
 545              	.LC0:
ARM GAS  C:\Users\matte\AppData\Local\Temp\ccH6qY0h.s 			page 24


 546 0000 506F6C69 		.ascii	"PoliTeK PSP\000"
 546      54654B20 
 546      50535000 
 547              		.section	.text._ZN14DisplayHandlerC2EPN5daisy11OledDisplayINS0_13SSD130xDriverILj128ELj64ENS0_19SS
 548              		.align	1
 549              		.p2align 2,,3
 550              		.global	_ZN14DisplayHandlerC2EPN5daisy11OledDisplayINS0_13SSD130xDriverILj128ELj64ENS0_19SSD130xI2
 551              		.syntax unified
 552              		.thumb
 553              		.thumb_func
 554              		.fpu fpv5-d16
 556              	_ZN14DisplayHandlerC2EPN5daisy11OledDisplayINS0_13SSD130xDriverILj128ELj64ENS0_19SSD130xI2CTranspor
 557              	.LVL35:
 558              	.LFB2691:
 559              		.file 4 "displayHandler.cpp"
   1:displayHandler.cpp **** #include "displayHandler.h" // Usa .hpp per coerenza con il tuo header
   2:displayHandler.cpp **** #include <string.h>
   3:displayHandler.cpp **** #include <stdio.h>
   4:displayHandler.cpp **** 
   5:displayHandler.cpp **** DisplayHandler::DisplayHandler(MyOledDisplay* displayPtr, bool triggerEnabled) {
 560              		.loc 4 5 1 view -0
 561              		.cfi_startproc
 562              		@ args = 0, pretend = 0, frame = 0
 563              		@ frame_needed = 0, uses_anonymous_args = 0
 564              	.LBB92:
 565              		.loc 4 5 78 is_stmt 0 view .LVU134
 566 0000 8023     		movs	r3, #128
 567              	.LBE92:
 568              		.loc 4 5 1 view .LVU135
 569 0002 2DE9F041 		push	{r4, r5, r6, r7, r8, lr}
 570              		.cfi_def_cfa_offset 24
 571              		.cfi_offset 4, -24
 572              		.cfi_offset 5, -20
 573              		.cfi_offset 6, -16
 574              		.cfi_offset 7, -12
 575              		.cfi_offset 8, -8
 576              		.cfi_offset 14, -4
 577              	.LBB93:
 578              		.loc 4 5 78 view .LVU136
 579 0006 4FF00008 		mov	r8, #0
 580 000a 0125     		movs	r5, #1
 581 000c C0F80838 		str	r3, [r0, #2056]
 582              	.LBE93:
 583              		.loc 4 5 1 view .LVU137
 584 0010 0446     		mov	r4, r0
 585              	.LBB94:
 586              		.loc 4 5 78 view .LVU138
 587 0012 0F4B     		ldr	r3, .L38
 588              	.LBE94:
 589              		.loc 4 5 1 view .LVU139
 590 0014 0E46     		mov	r6, r1
 591 0016 1746     		mov	r7, r2
 592              	.LBB95:
   6:displayHandler.cpp ****     // Pulizia sicura di entrambi i buffer
   7:displayHandler.cpp ****     memset((void*) _circBuffer_ptr, 0, BUFFER_SIZE * sizeof(float));
 593              		.loc 4 7 11 view .LVU140
 594 0018 4146     		mov	r1, r8
ARM GAS  C:\Users\matte\AppData\Local\Temp\ccH6qY0h.s 			page 25


 595              	.LVL36:
   5:displayHandler.cpp ****     // Pulizia sicura di entrambi i buffer
 596              		.loc 4 5 78 view .LVU141
 597 001a C0F81438 		str	r3, [r0, #2068]
 598              		.loc 4 7 11 view .LVU142
 599 001e 4FF48062 		mov	r2, #1024
 600              	.LVL37:
   5:displayHandler.cpp ****     // Pulizia sicura di entrambi i buffer
 601              		.loc 4 5 78 view .LVU143
 602 0022 C0F80C88 		str	r8, [r0, #2060]
 603              		.loc 4 7 11 view .LVU144
 604 0026 0830     		adds	r0, r0, #8
 605              	.LVL38:
   5:displayHandler.cpp ****     // Pulizia sicura di entrambi i buffer
 606              		.loc 4 5 78 view .LVU145
 607 0028 C0F81058 		str	r5, [r0, #2064]
 608 002c C0F81458 		str	r5, [r0, #2068]
 609              		.loc 4 7 5 is_stmt 1 view .LVU146
 610              		.loc 4 7 11 is_stmt 0 view .LVU147
 611 0030 FFF7FEFF 		bl	memset
 612              	.LVL39:
   8:displayHandler.cpp ****     memset((void*) _dispBuffer_ptr, 0, BUFFER_SIZE * sizeof(float));
 613              		.loc 4 8 5 is_stmt 1 view .LVU148
 614              		.loc 4 8 11 is_stmt 0 view .LVU149
 615 0034 4FF48062 		mov	r2, #1024
 616 0038 4146     		mov	r1, r8
 617 003a 04F58160 		add	r0, r4, #1032
 618 003e FFF7FEFF 		bl	memset
 619              	.LVL40:
   9:displayHandler.cpp ****     
  10:displayHandler.cpp ****     _writeHead = 0;
 620              		.loc 4 10 5 is_stmt 1 view .LVU150
  11:displayHandler.cpp ****     _windowSize = WINDOW_SIZE; 
 621              		.loc 4 11 5 view .LVU151
  12:displayHandler.cpp ****     _triggerEnabled = triggerEnabled;
 622              		.loc 4 12 5 view .LVU152
 623              	.LBE95:
  13:displayHandler.cpp ****     _displayPtr = displayPtr;
  14:displayHandler.cpp ****     _currentState = DisplayState::WAVEFORM_VIEWER;
  15:displayHandler.cpp ****     _standbyText = "PoliTeK PSP";
  16:displayHandler.cpp **** }
 624              		.loc 4 16 1 is_stmt 0 view .LVU153
 625 0042 2046     		mov	r0, r4
 626              	.LBB96:
  12:displayHandler.cpp ****     _triggerEnabled = triggerEnabled;
 627              		.loc 4 12 21 view .LVU154
 628 0044 84F81078 		strb	r7, [r4, #2064]
  13:displayHandler.cpp ****     _displayPtr = displayPtr;
 629              		.loc 4 13 5 is_stmt 1 view .LVU155
  13:displayHandler.cpp ****     _displayPtr = displayPtr;
 630              		.loc 4 13 17 is_stmt 0 view .LVU156
 631 0048 2660     		str	r6, [r4]
  14:displayHandler.cpp ****     _standbyText = "PoliTeK PSP";
 632              		.loc 4 14 5 is_stmt 1 view .LVU157
  14:displayHandler.cpp ****     _standbyText = "PoliTeK PSP";
 633              		.loc 4 14 19 is_stmt 0 view .LVU158
 634 004a 2571     		strb	r5, [r4, #4]
ARM GAS  C:\Users\matte\AppData\Local\Temp\ccH6qY0h.s 			page 26


  15:displayHandler.cpp **** }
 635              		.loc 4 15 5 is_stmt 1 view .LVU159
 636              	.LBE96:
 637              		.loc 4 16 1 is_stmt 0 view .LVU160
 638 004c BDE8F081 		pop	{r4, r5, r6, r7, r8, pc}
 639              	.LVL41:
 640              	.L39:
 641              		.loc 4 16 1 view .LVU161
 642              		.align	2
 643              	.L38:
 644 0050 00000000 		.word	.LC0
 645              		.cfi_endproc
 646              	.LFE2691:
 648              		.global	_ZN14DisplayHandlerC1EPN5daisy11OledDisplayINS0_13SSD130xDriverILj128ELj64ENS0_19SSD130xI2
 649              		.thumb_set _ZN14DisplayHandlerC1EPN5daisy11OledDisplayINS0_13SSD130xDriverILj128ELj64ENS0_19SSD130
 650              		.section	.text._ZN14DisplayHandler8SetStateE12DisplayState,"ax",%progbits
 651              		.align	1
 652              		.p2align 2,,3
 653              		.global	_ZN14DisplayHandler8SetStateE12DisplayState
 654              		.syntax unified
 655              		.thumb
 656              		.thumb_func
 657              		.fpu fpv5-d16
 659              	_ZN14DisplayHandler8SetStateE12DisplayState:
 660              	.LVL42:
 661              	.LFB2694:
  17:displayHandler.cpp **** 
  18:displayHandler.cpp **** void DisplayHandler::Update() {
  19:displayHandler.cpp ****     switch (_currentState) {
  20:displayHandler.cpp ****         case DisplayState::STANDBY:
  21:displayHandler.cpp ****             drawStandbyScreen();
  22:displayHandler.cpp ****             break;
  23:displayHandler.cpp **** 
  24:displayHandler.cpp ****         case DisplayState::WAVEFORM_VIEWER:
  25:displayHandler.cpp ****             drawWaveForm();
  26:displayHandler.cpp ****             break;
  27:displayHandler.cpp **** 
  28:displayHandler.cpp ****         case DisplayState::MENU_MODE:
  29:displayHandler.cpp ****             // In MENU_MODE il disegno effettivo viene fatto chiamando
  30:displayHandler.cpp ****             // esplicitamente DrawMainMenu(), DrawFloatParameter(), ecc.
  31:displayHandler.cpp ****             // Qui non facciamo nulla prima dell'aggiornamento hardware.
  32:displayHandler.cpp ****             break;
  33:displayHandler.cpp ****     }
  34:displayHandler.cpp ****     
  35:displayHandler.cpp ****     // Spinge fisicamente i pixel sullo schermo I2C/SPI
  36:displayHandler.cpp ****     _displayPtr->Update();
  37:displayHandler.cpp **** }
  38:displayHandler.cpp **** 
  39:displayHandler.cpp **** void DisplayHandler::SetState(DisplayState newState) {
 662              		.loc 4 39 54 is_stmt 1 view -0
 663              		.cfi_startproc
 664              		@ args = 0, pretend = 0, frame = 0
 665              		@ frame_needed = 0, uses_anonymous_args = 0
  40:displayHandler.cpp ****     _displayPtr->Fill(false);
 666              		.loc 4 40 5 view .LVU163
  39:displayHandler.cpp ****     _displayPtr->Fill(false);
 667              		.loc 4 39 54 is_stmt 0 view .LVU164
ARM GAS  C:\Users\matte\AppData\Local\Temp\ccH6qY0h.s 			page 27


 668 0000 38B5     		push	{r3, r4, r5, lr}
 669              		.cfi_def_cfa_offset 16
 670              		.cfi_offset 3, -16
 671              		.cfi_offset 4, -12
 672              		.cfi_offset 5, -8
 673              		.cfi_offset 14, -4
  39:displayHandler.cpp ****     _displayPtr->Fill(false);
 674              		.loc 4 39 54 view .LVU165
 675 0002 0446     		mov	r4, r0
 676              		.loc 4 40 5 view .LVU166
 677 0004 0068     		ldr	r0, [r0]
 678              	.LVL43:
 679              		.loc 4 40 5 view .LVU167
 680 0006 094A     		ldr	r2, .L44
  39:displayHandler.cpp ****     _displayPtr->Fill(false);
 681              		.loc 4 39 54 view .LVU168
 682 0008 0D46     		mov	r5, r1
 683              		.loc 4 40 28 view .LVU169
 684 000a 0368     		ldr	r3, [r0]
 685 000c 1B69     		ldr	r3, [r3, #16]
 686 000e 9342     		cmp	r3, r2
 687 0010 07D1     		bne	.L41
 688              	.LBB101:
 689              	.LBB102:
 690              	.LBB103:
 354:../../libs/PoliTeKDSP/libs/libDaisy/src/dev/oled_ssd130x.h ****         }
 691              		.loc 2 354 24 view .LVU170
 692 0012 4FF48062 		mov	r2, #1024
 693 0016 0021     		movs	r1, #0
 694              	.LVL44:
 354:../../libs/PoliTeKDSP/libs/libDaisy/src/dev/oled_ssd130x.h ****         }
 695              		.loc 2 354 24 view .LVU171
 696 0018 1030     		adds	r0, r0, #16
 697 001a FFF7FEFF 		bl	memset
 698              	.LVL45:
 699              	.LBE103:
 700              	.LBE102:
 701              	.LBE101:
  41:displayHandler.cpp ****     _currentState = newState;
 702              		.loc 4 41 5 is_stmt 1 view .LVU172
 703              		.loc 4 41 19 is_stmt 0 view .LVU173
 704 001e 2571     		strb	r5, [r4, #4]
  42:displayHandler.cpp **** }
 705              		.loc 4 42 1 view .LVU174
 706 0020 38BD     		pop	{r3, r4, r5, pc}
 707              	.LVL46:
 708              	.L41:
  40:displayHandler.cpp ****     _currentState = newState;
 709              		.loc 4 40 22 view .LVU175
 710 0022 0021     		movs	r1, #0
 711              	.LVL47:
  40:displayHandler.cpp ****     _currentState = newState;
 712              		.loc 4 40 22 view .LVU176
 713 0024 9847     		blx	r3
 714              	.LVL48:
  41:displayHandler.cpp ****     _currentState = newState;
 715              		.loc 4 41 5 is_stmt 1 view .LVU177
ARM GAS  C:\Users\matte\AppData\Local\Temp\ccH6qY0h.s 			page 28


  41:displayHandler.cpp ****     _currentState = newState;
 716              		.loc 4 41 19 is_stmt 0 view .LVU178
 717 0026 2571     		strb	r5, [r4, #4]
 718              		.loc 4 42 1 view .LVU179
 719 0028 38BD     		pop	{r3, r4, r5, pc}
 720              	.LVL49:
 721              	.L45:
 722              		.loc 4 42 1 view .LVU180
 723 002a 00BF     		.align	2
 724              	.L44:
 725 002c 00000000 		.word	_ZN5daisy11OledDisplayINS_13SSD130xDriverILj128ELj64ENS_19SSD130xI2CTransportEEEE4FillEb
 726              		.cfi_endproc
 727              	.LFE2694:
 729              		.section	.text._ZN14DisplayHandler14SetStandbyTextEPKc,"ax",%progbits
 730              		.align	1
 731              		.p2align 2,,3
 732              		.global	_ZN14DisplayHandler14SetStandbyTextEPKc
 733              		.syntax unified
 734              		.thumb
 735              		.thumb_func
 736              		.fpu fpv5-d16
 738              	_ZN14DisplayHandler14SetStandbyTextEPKc:
 739              	.LVL50:
 740              	.LFB2695:
  43:displayHandler.cpp **** 
  44:displayHandler.cpp **** void DisplayHandler::SetStandbyText(const char* text) {
 741              		.loc 4 44 55 is_stmt 1 view -0
 742              		.cfi_startproc
 743              		@ args = 0, pretend = 0, frame = 0
 744              		@ frame_needed = 0, uses_anonymous_args = 0
 745              		@ link register save eliminated.
  45:displayHandler.cpp ****     if(text != nullptr) {
 746              		.loc 4 45 5 view .LVU182
 747 0000 79B1     		cbz	r1, .L46
  46:displayHandler.cpp ****         _standbyText = text;
 748              		.loc 4 46 9 view .LVU183
  47:displayHandler.cpp ****         if (_currentState == DisplayState::STANDBY) {
 749              		.loc 4 47 9 is_stmt 0 view .LVU184
 750 0002 0379     		ldrb	r3, [r0, #4]	@ zero_extendqisi2
  46:displayHandler.cpp ****         _standbyText = text;
 751              		.loc 4 46 22 view .LVU185
 752 0004 C0F81418 		str	r1, [r0, #2068]
 753              		.loc 4 47 9 is_stmt 1 view .LVU186
 754 0008 5BB9     		cbnz	r3, .L46
  48:displayHandler.cpp ****             _displayPtr->Fill(false);
 755              		.loc 4 48 13 view .LVU187
 756 000a 0068     		ldr	r0, [r0]
 757              	.LVL51:
 758              		.loc 4 48 13 is_stmt 0 view .LVU188
 759 000c 0649     		ldr	r1, .L51
 760              	.LVL52:
 761              		.loc 4 48 36 view .LVU189
 762 000e 0268     		ldr	r2, [r0]
 763 0010 1269     		ldr	r2, [r2, #16]
 764 0012 8A42     		cmp	r2, r1
 765 0014 06D1     		bne	.L50
 766              	.LBB108:
ARM GAS  C:\Users\matte\AppData\Local\Temp\ccH6qY0h.s 			page 29


 767              	.LBB109:
 768              	.LBB110:
 354:../../libs/PoliTeKDSP/libs/libDaisy/src/dev/oled_ssd130x.h ****         }
 769              		.loc 2 354 24 view .LVU190
 770 0016 4FF48062 		mov	r2, #1024
 771 001a 1946     		mov	r1, r3
 772 001c 1030     		adds	r0, r0, #16
 773 001e FFF7FEBF 		b	memset
 774              	.LVL53:
 775              	.L46:
 354:../../libs/PoliTeKDSP/libs/libDaisy/src/dev/oled_ssd130x.h ****         }
 776              		.loc 2 354 24 view .LVU191
 777              	.LBE110:
 778              	.LBE109:
 779              	.LBE108:
  49:displayHandler.cpp ****         }
  50:displayHandler.cpp ****     }
  51:displayHandler.cpp **** }
 780              		.loc 4 51 1 view .LVU192
 781 0022 7047     		bx	lr
 782              	.LVL54:
 783              	.L50:
  48:displayHandler.cpp ****         }
 784              		.loc 4 48 30 view .LVU193
 785 0024 1946     		mov	r1, r3
 786 0026 1047     		bx	r2	@ indirect register sibling call
 787              	.LVL55:
 788              	.L52:
  48:displayHandler.cpp ****         }
 789              		.loc 4 48 30 view .LVU194
 790              		.align	2
 791              	.L51:
 792 0028 00000000 		.word	_ZN5daisy11OledDisplayINS_13SSD130xDriverILj128ELj64ENS_19SSD130xI2CTransportEEEE4FillEb
 793              		.cfi_endproc
 794              	.LFE2695:
 796              		.section	.text._ZN14DisplayHandler15pushAudioSampleEf,"ax",%progbits
 797              		.align	1
 798              		.p2align 2,,3
 799              		.global	_ZN14DisplayHandler15pushAudioSampleEf
 800              		.syntax unified
 801              		.thumb
 802              		.thumb_func
 803              		.fpu fpv5-d16
 805              	_ZN14DisplayHandler15pushAudioSampleEf:
 806              	.LVL56:
 807              	.LFB2696:
  52:displayHandler.cpp **** 
  53:displayHandler.cpp **** void DisplayHandler::pushAudioSample(float sample) {
 808              		.loc 4 53 52 is_stmt 1 view -0
 809              		.cfi_startproc
 810              		@ args = 0, pretend = 0, frame = 0
 811              		@ frame_needed = 0, uses_anonymous_args = 0
 812              		@ link register save eliminated.
  54:displayHandler.cpp ****     _circBuffer_ptr[_writeHead] = sample;
 813              		.loc 4 54 5 view .LVU196
 814              		.loc 4 54 21 is_stmt 0 view .LVU197
 815 0000 D0F80C28 		ldr	r2, [r0, #2060]
ARM GAS  C:\Users\matte\AppData\Local\Temp\ccH6qY0h.s 			page 30


  55:displayHandler.cpp ****     _writeHead = (_writeHead + 1) % BUFFER_SIZE;
 816              		.loc 4 55 30 view .LVU198
 817 0004 531C     		adds	r3, r2, #1
  54:displayHandler.cpp ****     _circBuffer_ptr[_writeHead] = sample;
 818              		.loc 4 54 33 view .LVU199
 819 0006 00EB8202 		add	r2, r0, r2, lsl #2
 820              		.loc 4 55 35 view .LVU200
 821 000a 5942     		rsbs	r1, r3, #0
  54:displayHandler.cpp ****     _circBuffer_ptr[_writeHead] = sample;
 822              		.loc 4 54 33 view .LVU201
 823 000c 82ED020A 		vstr.32	s0, [r2, #8]
 824              		.loc 4 55 5 is_stmt 1 view .LVU202
 825              		.loc 4 55 35 is_stmt 0 view .LVU203
 826 0010 DBB2     		uxtb	r3, r3
 827 0012 CAB2     		uxtb	r2, r1
 828 0014 58BF     		it	pl
 829 0016 5342     		rsbpl	r3, r2, #0
 830              		.loc 4 55 16 view .LVU204
 831 0018 C0F80C38 		str	r3, [r0, #2060]
  56:displayHandler.cpp **** }
 832              		.loc 4 56 1 view .LVU205
 833 001c 7047     		bx	lr
 834              		.cfi_endproc
 835              	.LFE2696:
 837 001e 00BF     		.section	.text._ZN14DisplayHandler11findTriggerEv,"ax",%progbits
 838              		.align	1
 839              		.p2align 2,,3
 840              		.global	_ZN14DisplayHandler11findTriggerEv
 841              		.syntax unified
 842              		.thumb
 843              		.thumb_func
 844              		.fpu fpv5-d16
 846              	_ZN14DisplayHandler11findTriggerEv:
 847              	.LVL57:
 848              	.LFB2697:
  57:displayHandler.cpp **** 
  58:displayHandler.cpp **** int DisplayHandler::findTrigger() {
 849              		.loc 4 58 35 is_stmt 1 view -0
 850              		.cfi_startproc
 851              		@ args = 0, pretend = 0, frame = 0
 852              		@ frame_needed = 0, uses_anonymous_args = 0
  59:displayHandler.cpp ****     float currVal = 0;
 853              		.loc 4 59 5 view .LVU207
  60:displayHandler.cpp ****     float nextVal = 0;
 854              		.loc 4 60 5 view .LVU208
  61:displayHandler.cpp ****     static int trigIdx = 0;
 855              		.loc 4 61 5 view .LVU209
  62:displayHandler.cpp **** 
  63:displayHandler.cpp ****     int oldestSampleIdx = _writeHead + 1;
 856              		.loc 4 63 5 view .LVU210
  64:displayHandler.cpp **** 
  65:displayHandler.cpp ****     if (_triggerEnabled) {
 857              		.loc 4 65 5 view .LVU211
 858              	.LBB111:
 859 0000 90F81038 		ldrb	r3, [r0, #2064]	@ zero_extendqisi2
 860 0004 13B9     		cbnz	r3, .L72
 861              	.LBE111:
ARM GAS  C:\Users\matte\AppData\Local\Temp\ccH6qY0h.s 			page 31


  66:displayHandler.cpp ****         for (int i = oldestSampleIdx; i < oldestSampleIdx + _windowSize; i++) {
  67:displayHandler.cpp ****             currVal = _circBuffer_ptr[i % BUFFER_SIZE];
  68:displayHandler.cpp ****             nextVal = _circBuffer_ptr[(i + 1) % BUFFER_SIZE];
  69:displayHandler.cpp ****              
  70:displayHandler.cpp ****             if (currVal < 0.0f && nextVal >= 0.0f) {
  71:displayHandler.cpp ****                 trigIdx = i % BUFFER_SIZE;
  72:displayHandler.cpp ****                 return trigIdx; 
  73:displayHandler.cpp ****             }
  74:displayHandler.cpp ****         }
  75:displayHandler.cpp ****     }           
  76:displayHandler.cpp ****     return trigIdx;
 862              		.loc 4 76 5 view .LVU212
 863              		.loc 4 76 12 is_stmt 0 view .LVU213
 864 0006 1F4B     		ldr	r3, .L73
 865 0008 1868     		ldr	r0, [r3]
 866              	.LVL58:
  77:displayHandler.cpp **** }
 867              		.loc 4 77 1 view .LVU214
 868 000a 7047     		bx	lr
 869              	.LVL59:
 870              	.L72:
  63:displayHandler.cpp **** 
 871              		.loc 4 63 9 view .LVU215
 872 000c D0F80C38 		ldr	r3, [r0, #2060]
 873              	.LBB115:
 874              	.LBB112:
  66:displayHandler.cpp ****         for (int i = oldestSampleIdx; i < oldestSampleIdx + _windowSize; i++) {
 875              		.loc 4 66 59 view .LVU216
 876 0010 D0F80828 		ldr	r2, [r0, #2056]
 877              	.LBE112:
 878              	.LBE115:
  63:displayHandler.cpp **** 
 879              		.loc 4 63 9 view .LVU217
 880 0014 0133     		adds	r3, r3, #1
 881              	.LVL60:
 882              	.LBB116:
 883              	.LBB113:
  66:displayHandler.cpp ****         for (int i = oldestSampleIdx; i < oldestSampleIdx + _windowSize; i++) {
 884              		.loc 4 66 41 is_stmt 1 view .LVU218
 885              	.LBE113:
 886              	.LBE116:
  58:displayHandler.cpp ****     float currVal = 0;
 887              		.loc 4 58 35 is_stmt 0 view .LVU219
 888 0016 00B5     		push	{lr}
 889              		.cfi_def_cfa_offset 4
 890              		.cfi_offset 14, -4
 891              	.LBB117:
 892              	.LBB114:
  66:displayHandler.cpp ****             currVal = _circBuffer_ptr[i % BUFFER_SIZE];
 893              		.loc 4 66 59 view .LVU220
 894 0018 03EB020E 		add	lr, r3, r2
  66:displayHandler.cpp ****             currVal = _circBuffer_ptr[i % BUFFER_SIZE];
 895              		.loc 4 66 41 view .LVU221
 896 001c 7345     		cmp	r3, lr
 897 001e 2DDA     		bge	.L55
  67:displayHandler.cpp ****             nextVal = _circBuffer_ptr[(i + 1) % BUFFER_SIZE];
 898              		.loc 4 67 41 view .LVU222
ARM GAS  C:\Users\matte\AppData\Local\Temp\ccH6qY0h.s 			page 32


 899 0020 5942     		rsbs	r1, r3, #0
 900 0022 DAB2     		uxtb	r2, r3
 901 0024 C9B2     		uxtb	r1, r1
 902 0026 58BF     		it	pl
 903 0028 4A42     		rsbpl	r2, r1, #0
  67:displayHandler.cpp ****             nextVal = _circBuffer_ptr[(i + 1) % BUFFER_SIZE];
 904              		.loc 4 67 21 view .LVU223
 905 002a 00EB8202 		add	r2, r0, r2, lsl #2
 906 002e D2ED027A 		vldr.32	s15, [r2, #8]
 907 0032 01E0     		b	.L56
 908              	.LVL61:
 909              	.L57:
  66:displayHandler.cpp ****             currVal = _circBuffer_ptr[i % BUFFER_SIZE];
 910              		.loc 4 66 41 discriminator 1 view .LVU224
 911 0034 7345     		cmp	r3, lr
 912 0036 21D0     		beq	.L55
 913              	.LVL62:
 914              	.L56:
  67:displayHandler.cpp ****             nextVal = _circBuffer_ptr[(i + 1) % BUFFER_SIZE];
 915              		.loc 4 67 13 is_stmt 1 view .LVU225
  68:displayHandler.cpp ****              
 916              		.loc 4 68 13 view .LVU226
 917 0038 9C46     		mov	ip, r3
  68:displayHandler.cpp ****              
 918              		.loc 4 68 42 is_stmt 0 view .LVU227
 919 003a 0133     		adds	r3, r3, #1
 920              	.LVL63:
  66:displayHandler.cpp ****             currVal = _circBuffer_ptr[i % BUFFER_SIZE];
 921              		.loc 4 66 41 is_stmt 1 view .LVU228
 922 003c B0EE677A 		vmov.f32	s14, s15
  68:displayHandler.cpp ****              
 923              		.loc 4 68 47 is_stmt 0 view .LVU229
 924 0040 5942     		rsbs	r1, r3, #0
 925 0042 DAB2     		uxtb	r2, r3
  70:displayHandler.cpp ****                 trigIdx = i % BUFFER_SIZE;
 926              		.loc 4 70 13 view .LVU230
 927 0044 B5EEC07A 		vcmpe.f32	s14, #0
  68:displayHandler.cpp ****              
 928              		.loc 4 68 47 view .LVU231
 929 0048 C9B2     		uxtb	r1, r1
 930 004a 58BF     		it	pl
 931 004c 4A42     		rsbpl	r2, r1, #0
  70:displayHandler.cpp ****                 trigIdx = i % BUFFER_SIZE;
 932              		.loc 4 70 13 view .LVU232
 933 004e F1EE10FA 		vmrs	APSR_nzcv, FPSCR
  68:displayHandler.cpp ****              
 934              		.loc 4 68 21 view .LVU233
 935 0052 00EB8202 		add	r2, r0, r2, lsl #2
 936 0056 D2ED027A 		vldr.32	s15, [r2, #8]
 937              	.LVL64:
  70:displayHandler.cpp ****                 trigIdx = i % BUFFER_SIZE;
 938              		.loc 4 70 13 is_stmt 1 view .LVU234
 939 005a EBD5     		bpl	.L57
  70:displayHandler.cpp ****                 trigIdx = i % BUFFER_SIZE;
 940              		.loc 4 70 32 is_stmt 0 discriminator 1 view .LVU235
 941 005c F5EEC07A 		vcmpe.f32	s15, #0
 942 0060 F1EE10FA 		vmrs	APSR_nzcv, FPSCR
ARM GAS  C:\Users\matte\AppData\Local\Temp\ccH6qY0h.s 			page 33


 943 0064 E6DB     		blt	.L57
  67:displayHandler.cpp ****             nextVal = _circBuffer_ptr[(i + 1) % BUFFER_SIZE];
 944              		.loc 4 67 41 view .LVU236
 945 0066 DCF10003 		rsbs	r3, ip, #0
 946              	.LVL65:
  67:displayHandler.cpp ****             nextVal = _circBuffer_ptr[(i + 1) % BUFFER_SIZE];
 947              		.loc 4 67 41 view .LVU237
 948 006a 5FFA8CF0 		uxtb	r0, ip
 949              	.LVL66:
  71:displayHandler.cpp ****                 return trigIdx; 
 950              		.loc 4 71 25 view .LVU238
 951 006e 054A     		ldr	r2, .L73
  67:displayHandler.cpp ****             nextVal = _circBuffer_ptr[(i + 1) % BUFFER_SIZE];
 952              		.loc 4 67 41 view .LVU239
 953 0070 DBB2     		uxtb	r3, r3
 954 0072 58BF     		it	pl
 955 0074 5842     		rsbpl	r0, r3, #0
  71:displayHandler.cpp ****                 return trigIdx; 
 956              		.loc 4 71 17 is_stmt 1 view .LVU240
  71:displayHandler.cpp ****                 return trigIdx; 
 957              		.loc 4 71 25 is_stmt 0 view .LVU241
 958 0076 1060     		str	r0, [r2]
  72:displayHandler.cpp ****             }
 959              		.loc 4 72 17 is_stmt 1 view .LVU242
 960              	.LBE114:
 961              	.LBE117:
 962              		.loc 4 77 1 is_stmt 0 view .LVU243
 963 0078 5DF804FB 		ldr	pc, [sp], #4
 964              	.LVL67:
 965              	.L55:
  76:displayHandler.cpp **** }
 966              		.loc 4 76 5 is_stmt 1 view .LVU244
  76:displayHandler.cpp **** }
 967              		.loc 4 76 12 is_stmt 0 view .LVU245
 968 007c 014B     		ldr	r3, .L73
 969 007e 1868     		ldr	r0, [r3]
 970              	.LVL68:
 971              		.loc 4 77 1 view .LVU246
 972 0080 5DF804FB 		ldr	pc, [sp], #4
 973              	.L74:
 974              		.align	2
 975              	.L73:
 976 0084 00000000 		.word	.LANCHOR0
 977              		.cfi_endproc
 978              	.LFE2697:
 980              		.section	.text._ZN14DisplayHandler12drawWaveFormEv,"ax",%progbits
 981              		.align	1
 982              		.p2align 2,,3
 983              		.global	_ZN14DisplayHandler12drawWaveFormEv
 984              		.syntax unified
 985              		.thumb
 986              		.thumb_func
 987              		.fpu fpv5-d16
 989              	_ZN14DisplayHandler12drawWaveFormEv:
 990              	.LVL69:
 991              	.LFB2698:
  78:displayHandler.cpp **** 
ARM GAS  C:\Users\matte\AppData\Local\Temp\ccH6qY0h.s 			page 34


  79:displayHandler.cpp **** void DisplayHandler::drawWaveForm() {
 992              		.loc 4 79 37 is_stmt 1 view -0
 993              		.cfi_startproc
 994              		@ args = 0, pretend = 0, frame = 16
 995              		@ frame_needed = 0, uses_anonymous_args = 0
  80:displayHandler.cpp ****     int zeroOfScreen = 32; 
 996              		.loc 4 80 5 view .LVU248
  81:displayHandler.cpp ****     int y1, y2;
 997              		.loc 4 81 5 view .LVU249
  82:displayHandler.cpp ****     int idx = 0;
 998              		.loc 4 82 5 view .LVU250
  83:displayHandler.cpp **** 
  84:displayHandler.cpp ****     _displayPtr->SetCursor(0, zeroOfScreen);
 999              		.loc 4 84 5 view .LVU251
  79:displayHandler.cpp ****     int zeroOfScreen = 32; 
 1000              		.loc 4 79 37 is_stmt 0 view .LVU252
 1001 0000 2DE9F04F 		push	{r4, r5, r6, r7, r8, r9, r10, fp, lr}
 1002              		.cfi_def_cfa_offset 36
 1003              		.cfi_offset 4, -36
 1004              		.cfi_offset 5, -32
 1005              		.cfi_offset 6, -28
 1006              		.cfi_offset 7, -24
 1007              		.cfi_offset 8, -20
 1008              		.cfi_offset 9, -16
 1009              		.cfi_offset 10, -12
 1010              		.cfi_offset 11, -8
 1011              		.cfi_offset 14, -4
 1012              		.loc 4 84 5 view .LVU253
 1013 0004 0468     		ldr	r4, [r0]
 1014              	.LVL70:
 1015              	.LBB139:
 1016              	.LBI139:
 171:../../libs/PoliTeKDSP/libs/libDaisy/src/hid/disp/display.h ****     {
 1017              		.loc 3 171 10 is_stmt 1 view .LVU254
 1018              	.LBB140:
 173:../../libs/PoliTeKDSP/libs/libDaisy/src/hid/disp/display.h ****         currentY_ = (y >= Height()) ? Height() - 1 : y;
 1019              		.loc 3 173 9 view .LVU255
 1020              	.LBE140:
 1021              	.LBE139:
  79:displayHandler.cpp ****     int zeroOfScreen = 32; 
 1022              		.loc 4 79 37 is_stmt 0 view .LVU256
 1023 0006 87B0     		sub	sp, sp, #28
 1024              		.cfi_def_cfa_offset 64
  79:displayHandler.cpp ****     int zeroOfScreen = 32; 
 1025              		.loc 4 79 37 view .LVU257
 1026 0008 0646     		mov	r6, r0
 1027              	.LBB144:
 1028              	.LBB141:
 173:../../libs/PoliTeKDSP/libs/libDaisy/src/hid/disp/display.h ****         currentY_ = (y >= Height()) ? Height() - 1 : y;
 1029              		.loc 3 173 33 view .LVU258
 1030 000a 2368     		ldr	r3, [r4]
 173:../../libs/PoliTeKDSP/libs/libDaisy/src/hid/disp/display.h ****         currentY_ = (y >= Height()) ? Height() - 1 : y;
 1031              		.loc 3 173 32 view .LVU259
 1032 000c 2046     		mov	r0, r4
 1033              	.LVL71:
 173:../../libs/PoliTeKDSP/libs/libDaisy/src/hid/disp/display.h ****         currentY_ = (y >= Height()) ? Height() - 1 : y;
 1034              		.loc 3 173 32 view .LVU260
ARM GAS  C:\Users\matte\AppData\Local\Temp\ccH6qY0h.s 			page 35


 1035 000e DB68     		ldr	r3, [r3, #12]
 1036 0010 9847     		blx	r3
 1037              	.LVL72:
 173:../../libs/PoliTeKDSP/libs/libDaisy/src/hid/disp/display.h ****         currentY_ = (y >= Height()) ? Height() - 1 : y;
 1038              		.loc 3 173 19 view .LVU261
 1039 0012 0028     		cmp	r0, #0
 1040 0014 40F0CB80 		bne	.L93
 173:../../libs/PoliTeKDSP/libs/libDaisy/src/hid/disp/display.h ****         currentY_ = (y >= Height()) ? Height() - 1 : y;
 1041              		.loc 3 173 44 view .LVU262
 1042 0018 2368     		ldr	r3, [r4]
 173:../../libs/PoliTeKDSP/libs/libDaisy/src/hid/disp/display.h ****         currentY_ = (y >= Height()) ? Height() - 1 : y;
 1043              		.loc 3 173 43 view .LVU263
 1044 001a 2046     		mov	r0, r4
 1045 001c DB68     		ldr	r3, [r3, #12]
 1046 001e 9847     		blx	r3
 1047              	.LVL73:
 173:../../libs/PoliTeKDSP/libs/libDaisy/src/hid/disp/display.h ****         currentY_ = (y >= Height()) ? Height() - 1 : y;
 1048              		.loc 3 173 19 view .LVU264
 1049 0020 0138     		subs	r0, r0, #1
 1050 0022 83B2     		uxth	r3, r0
 1051              	.L76:
 174:../../libs/PoliTeKDSP/libs/libDaisy/src/hid/disp/display.h ****     }
 1052              		.loc 3 174 34 view .LVU265
 1053 0024 2268     		ldr	r2, [r4]
 174:../../libs/PoliTeKDSP/libs/libDaisy/src/hid/disp/display.h ****     }
 1054              		.loc 3 174 33 view .LVU266
 1055 0026 2046     		mov	r0, r4
 173:../../libs/PoliTeKDSP/libs/libDaisy/src/hid/disp/display.h ****         currentY_ = (y >= Height()) ? Height() - 1 : y;
 1056              		.loc 3 173 19 view .LVU267
 1057 0028 A380     		strh	r3, [r4, #4]	@ movhi
 174:../../libs/PoliTeKDSP/libs/libDaisy/src/hid/disp/display.h ****     }
 1058              		.loc 3 174 9 is_stmt 1 view .LVU268
 174:../../libs/PoliTeKDSP/libs/libDaisy/src/hid/disp/display.h ****     }
 1059              		.loc 3 174 33 is_stmt 0 view .LVU269
 1060 002a 9368     		ldr	r3, [r2, #8]
 1061 002c 9847     		blx	r3
 1062              	.LVL74:
 174:../../libs/PoliTeKDSP/libs/libDaisy/src/hid/disp/display.h ****     }
 1063              		.loc 3 174 19 view .LVU270
 1064 002e 2028     		cmp	r0, #32
 1065 0030 00F2BB80 		bhi	.L94
 174:../../libs/PoliTeKDSP/libs/libDaisy/src/hid/disp/display.h ****     }
 1066              		.loc 3 174 46 view .LVU271
 1067 0034 2368     		ldr	r3, [r4]
 174:../../libs/PoliTeKDSP/libs/libDaisy/src/hid/disp/display.h ****     }
 1068              		.loc 3 174 45 view .LVU272
 1069 0036 2046     		mov	r0, r4
 1070 0038 9B68     		ldr	r3, [r3, #8]
 1071 003a 9847     		blx	r3
 1072              	.LVL75:
 174:../../libs/PoliTeKDSP/libs/libDaisy/src/hid/disp/display.h ****     }
 1073              		.loc 3 174 19 view .LVU273
 1074 003c 0138     		subs	r0, r0, #1
 1075 003e 83B2     		uxth	r3, r0
 1076              	.L77:
 1077              	.LBE141:
 1078              	.LBE144:
ARM GAS  C:\Users\matte\AppData\Local\Temp\ccH6qY0h.s 			page 36


  85:displayHandler.cpp ****     _displayPtr->Fill(false);
 1079              		.loc 4 85 5 view .LVU274
 1080 0040 3068     		ldr	r0, [r6]
 1081              	.LBB145:
 1082              	.LBB142:
 174:../../libs/PoliTeKDSP/libs/libDaisy/src/hid/disp/display.h ****     }
 1083              		.loc 3 174 19 view .LVU275
 1084 0042 E380     		strh	r3, [r4, #6]	@ movhi
 1085              	.LVL76:
 174:../../libs/PoliTeKDSP/libs/libDaisy/src/hid/disp/display.h ****     }
 1086              		.loc 3 174 19 view .LVU276
 1087              	.LBE142:
 1088              	.LBE145:
 1089              		.loc 4 85 5 is_stmt 1 view .LVU277
 1090              		.loc 4 85 28 is_stmt 0 view .LVU278
 1091 0044 0368     		ldr	r3, [r0]
 1092 0046 5C4A     		ldr	r2, .L103
 1093 0048 1B69     		ldr	r3, [r3, #16]
 1094 004a 9342     		cmp	r3, r2
 1095 004c 40F0B180 		bne	.L78
 1096              	.LBB146:
 1097              	.LBB147:
 1098              	.LBB148:
 354:../../libs/PoliTeKDSP/libs/libDaisy/src/dev/oled_ssd130x.h ****         }
 1099              		.loc 2 354 24 view .LVU279
 1100 0050 4FF48062 		mov	r2, #1024
 1101 0054 0021     		movs	r1, #0
 1102 0056 1030     		adds	r0, r0, #16
 1103 0058 FFF7FEFF 		bl	memset
 1104              	.LVL77:
 1105              	.L79:
 1106              	.LBE148:
 1107              	.LBE147:
 1108              	.LBE146:
  86:displayHandler.cpp **** 
  87:displayHandler.cpp ****     idx = findTrigger();
 1109              		.loc 4 87 5 is_stmt 1 view .LVU280
 1110              		.loc 4 87 22 is_stmt 0 view .LVU281
 1111 005c 3046     		mov	r0, r6
 1112 005e FFF7FEFF 		bl	_ZN14DisplayHandler11findTriggerEv
 1113              	.LVL78:
 1114              	.LBB149:
  88:displayHandler.cpp ****     
  89:displayHandler.cpp ****     // Copia opzionale nel buffer stabile se vuoi evitare glitch durante il disegno
  90:displayHandler.cpp ****     // memcpy(_dispBuffer_ptr, _circBuffer_ptr, BUFFER_SIZE * sizeof(float));
  91:displayHandler.cpp ****     
  92:displayHandler.cpp ****     for (int i = idx; i < idx + _windowSize; i++) {
 1115              		.loc 4 92 25 view .LVU282
 1116 0062 D6F80838 		ldr	r3, [r6, #2056]
 1117              	.LBE149:
  87:displayHandler.cpp ****     
 1118              		.loc 4 87 22 view .LVU283
 1119 0066 0590     		str	r0, [sp, #20]
 1120              	.LVL79:
 1121              		.loc 4 92 5 is_stmt 1 view .LVU284
 1122              	.LBB176:
 1123              		.loc 4 92 25 view .LVU285
ARM GAS  C:\Users\matte\AppData\Local\Temp\ccH6qY0h.s 			page 37


 1124 0068 002B     		cmp	r3, #0
 1125 006a 7CDD     		ble	.L75
 1126 006c C3B2     		uxtb	r3, r0
 1127              		.loc 4 92 14 is_stmt 0 view .LVU286
 1128 006e 8246     		mov	r10, r0
 1129              		.loc 4 92 25 view .LVU287
 1130 0070 0127     		movs	r7, #1
 1131 0072 B046     		mov	r8, r6
 1132 0074 0493     		str	r3, [sp, #16]
 1133              	.LVL80:
 1134              	.L81:
  93:displayHandler.cpp ****         y1 = zeroOfScreen - (int)(_circBuffer_ptr[i % BUFFER_SIZE] * _yscale);
 1135              		.loc 4 93 9 is_stmt 1 view .LVU288
 1136              		.loc 4 93 53 is_stmt 0 view .LVU289
 1137 0076 DAF10004 		rsbs	r4, r10, #0
  94:displayHandler.cpp ****         y2 = zeroOfScreen - (int)(_circBuffer_ptr[(i + 1) % BUFFER_SIZE] * _yscale);
 1138              		.loc 4 94 54 view .LVU290
 1139 007a 0AF1010A 		add	r10, r10, #1
 1140              	.LVL81:
  93:displayHandler.cpp ****         y1 = zeroOfScreen - (int)(_circBuffer_ptr[i % BUFFER_SIZE] * _yscale);
 1141              		.loc 4 93 53 view .LVU291
 1142 007e 049A     		ldr	r2, [sp, #16]
 1143 0080 07F1FF31 		add	r1, r7, #-1
 1144 0084 E4B2     		uxtb	r4, r4
  93:displayHandler.cpp ****         y1 = zeroOfScreen - (int)(_circBuffer_ptr[i % BUFFER_SIZE] * _yscale);
 1145              		.loc 4 93 68 view .LVU292
 1146 0086 D8F81838 		ldr	r3, [r8, #2072]
  95:displayHandler.cpp ****         
  96:displayHandler.cpp ****         if (y1 < 0) { y1 = 0; } 
  97:displayHandler.cpp ****         if (y1 > 63) { y1 = 63; }
  98:displayHandler.cpp ****         if (y2 < 0) { y2 = 0; } 
  99:displayHandler.cpp ****         if (y2 > 63) { y2 = 63; }
 100:displayHandler.cpp **** 
 101:displayHandler.cpp ****         _displayPtr->DrawLine(i - idx, y1, (i + 1) - idx, y2, true);
 1147              		.loc 4 101 9 view .LVU293
 1148 008a D8F80000 		ldr	r0, [r8]
  94:displayHandler.cpp ****         y2 = zeroOfScreen - (int)(_circBuffer_ptr[(i + 1) % BUFFER_SIZE] * _yscale);
 1149              		.loc 4 94 59 view .LVU294
 1150 008e 5FFA8AF6 		uxtb	r6, r10
  93:displayHandler.cpp ****         y2 = zeroOfScreen - (int)(_circBuffer_ptr[(i + 1) % BUFFER_SIZE] * _yscale);
 1151              		.loc 4 93 53 view .LVU295
 1152 0092 58BF     		it	pl
 1153 0094 6242     		rsbpl	r2, r4, #0
  94:displayHandler.cpp ****         y2 = zeroOfScreen - (int)(_circBuffer_ptr[(i + 1) % BUFFER_SIZE] * _yscale);
 1154              		.loc 4 94 59 view .LVU296
 1155 0096 DAF10004 		rsbs	r4, r10, #0
  93:displayHandler.cpp ****         y2 = zeroOfScreen - (int)(_circBuffer_ptr[(i + 1) % BUFFER_SIZE] * _yscale);
 1156              		.loc 4 93 68 view .LVU297
 1157 009a 07EE903A 		vmov	s15, r3	@ int
 1158              		.loc 4 101 67 view .LVU298
 1159 009e 0368     		ldr	r3, [r0]
  94:displayHandler.cpp ****         y2 = zeroOfScreen - (int)(_circBuffer_ptr[(i + 1) % BUFFER_SIZE] * _yscale);
 1160              		.loc 4 94 59 view .LVU299
 1161 00a0 E4B2     		uxtb	r4, r4
 1162 00a2 0496     		str	r6, [sp, #16]
 1163              		.loc 4 101 67 view .LVU300
 1164 00a4 9D69     		ldr	r5, [r3, #24]
ARM GAS  C:\Users\matte\AppData\Local\Temp\ccH6qY0h.s 			page 38


  93:displayHandler.cpp ****         y2 = zeroOfScreen - (int)(_circBuffer_ptr[(i + 1) % BUFFER_SIZE] * _yscale);
 1165              		.loc 4 93 66 view .LVU301
 1166 00a6 08EB8202 		add	r2, r8, r2, lsl #2
  94:displayHandler.cpp ****         y2 = zeroOfScreen - (int)(_circBuffer_ptr[(i + 1) % BUFFER_SIZE] * _yscale);
 1167              		.loc 4 94 59 view .LVU302
 1168 00aa 3346     		mov	r3, r6
 1169 00ac 58BF     		it	pl
 1170 00ae 6342     		rsbpl	r3, r4, #0
  93:displayHandler.cpp ****         y2 = zeroOfScreen - (int)(_circBuffer_ptr[(i + 1) % BUFFER_SIZE] * _yscale);
 1171              		.loc 4 93 68 view .LVU303
 1172 00b0 F8EEE77A 		vcvt.f32.s32	s15, s15
 1173 00b4 92ED027A 		vldr.32	s14, [r2, #8]
  94:displayHandler.cpp ****         y2 = zeroOfScreen - (int)(_circBuffer_ptr[(i + 1) % BUFFER_SIZE] * _yscale);
 1174              		.loc 4 94 72 view .LVU304
 1175 00b8 08EB8303 		add	r3, r8, r3, lsl #2
  93:displayHandler.cpp ****         y2 = zeroOfScreen - (int)(_circBuffer_ptr[(i + 1) % BUFFER_SIZE] * _yscale);
 1176              		.loc 4 93 68 view .LVU305
 1177 00bc 27EE877A 		vmul.f32	s14, s15, s14
  94:displayHandler.cpp ****         y2 = zeroOfScreen - (int)(_circBuffer_ptr[(i + 1) % BUFFER_SIZE] * _yscale);
 1178              		.loc 4 94 74 view .LVU306
 1179 00c0 D3ED026A 		vldr.32	s13, [r3, #8]
 1180 00c4 3D4B     		ldr	r3, .L103+4
 1181 00c6 67EEA67A 		vmul.f32	s15, s15, s13
  93:displayHandler.cpp ****         y2 = zeroOfScreen - (int)(_circBuffer_ptr[(i + 1) % BUFFER_SIZE] * _yscale);
 1182              		.loc 4 93 29 view .LVU307
 1183 00ca BDEEC77A 		vcvt.s32.f32	s14, s14
 1184 00ce 9D42     		cmp	r5, r3
  94:displayHandler.cpp ****         y2 = zeroOfScreen - (int)(_circBuffer_ptr[(i + 1) % BUFFER_SIZE] * _yscale);
 1185              		.loc 4 94 29 view .LVU308
 1186 00d0 FDEEE77A 		vcvt.s32.f32	s15, s15
  93:displayHandler.cpp ****         y2 = zeroOfScreen - (int)(_circBuffer_ptr[(i + 1) % BUFFER_SIZE] * _yscale);
 1187              		.loc 4 93 29 view .LVU309
 1188 00d4 17EE102A 		vmov	r2, s14	@ int
  94:displayHandler.cpp ****         y2 = zeroOfScreen - (int)(_circBuffer_ptr[(i + 1) % BUFFER_SIZE] * _yscale);
 1189              		.loc 4 94 29 view .LVU310
 1190 00d8 17EE906A 		vmov	r6, s15	@ int
  93:displayHandler.cpp ****         y2 = zeroOfScreen - (int)(_circBuffer_ptr[(i + 1) % BUFFER_SIZE] * _yscale);
 1191              		.loc 4 93 12 view .LVU311
 1192 00dc C2F12002 		rsb	r2, r2, #32
 1193              	.LVL82:
  94:displayHandler.cpp ****         y2 = zeroOfScreen - (int)(_circBuffer_ptr[(i + 1) % BUFFER_SIZE] * _yscale);
 1194              		.loc 4 94 9 is_stmt 1 view .LVU312
  96:displayHandler.cpp ****         if (y1 > 63) { y1 = 63; }
 1195              		.loc 4 96 9 view .LVU313
  94:displayHandler.cpp ****         
 1196              		.loc 4 94 12 is_stmt 0 view .LVU314
 1197 00e0 C6F12006 		rsb	r6, r6, #32
 1198 00e4 82F30602 		usat	r2, #6, r2
 1199              	.LVL83:
  98:displayHandler.cpp ****         if (y2 > 63) { y2 = 63; }
 1200              		.loc 4 98 9 is_stmt 1 view .LVU315
 1201 00e8 86F30606 		usat	r6, #6, r6
 1202              	.LVL84:
 1203              		.loc 4 101 9 view .LVU316
 1204              		.loc 4 101 30 is_stmt 0 view .LVU317
 1205 00ec 1446     		mov	r4, r2
 1206 00ee 56D1     		bne	.L82
ARM GAS  C:\Users\matte\AppData\Local\Temp\ccH6qY0h.s 			page 39


 1207              	.LVL85:
 1208              	.LBB150:
 1209              	.LBI150:
 221:../../libs/PoliTeKDSP/libs/libDaisy/src/hid/disp/display.h ****                   uint_fast8_t y1,
 1210              		.loc 3 221 10 is_stmt 1 view .LVU318
 1211              	.LBB151:
 228:../../libs/PoliTeKDSP/libs/libDaisy/src/hid/disp/display.h ****         int_fast16_t signX  = ((x1 < x2) ? 1 : -1);
 1212              		.loc 3 228 52 is_stmt 0 view .LVU319
 1213 00f0 A6EB0209 		sub	r9, r6, r2
 228:../../libs/PoliTeKDSP/libs/libDaisy/src/hid/disp/display.h ****         int_fast16_t signX  = ((x1 < x2) ? 1 : -1);
 1214              		.loc 3 228 22 view .LVU320
 1215 00f4 B9F1000F 		cmp	r9, #0
 1216 00f8 B8BF     		it	lt
 1217 00fa C9F10009 		rsblt	r9, r9, #0
 1218              	.LVL86:
 230:../../libs/PoliTeKDSP/libs/libDaisy/src/hid/disp/display.h ****         int_fast16_t error  = deltaX - deltaY;
 1219              		.loc 3 230 42 view .LVU321
 1220 00fe B242     		cmp	r2, r6
 231:../../libs/PoliTeKDSP/libs/libDaisy/src/hid/disp/display.h ****         int_fast16_t error2;
 1221              		.loc 3 231 22 view .LVU322
 1222 0100 C9F10105 		rsb	r5, r9, #1
 230:../../libs/PoliTeKDSP/libs/libDaisy/src/hid/disp/display.h ****         int_fast16_t error  = deltaX - deltaY;
 1223              		.loc 3 230 42 view .LVU323
 1224 0104 36D2     		bcs	.L102
 1225              	.LVL87:
 1226              	.LBB152:
 1227              	.LBI152:
  42:../../libs/PoliTeKDSP/libs/libDaisy/src/hid/disp/oled_display.h ****     {
 1228              		.loc 1 42 10 is_stmt 1 view .LVU324
 1229              	.LBB153:
 1230              	.LBI153:
 340:../../libs/PoliTeKDSP/libs/libDaisy/src/dev/oled_ssd130x.h ****     {
 1231              		.loc 2 340 10 view .LVU325
 1232              	.LBE153:
 1233              	.LBE152:
 230:../../libs/PoliTeKDSP/libs/libDaisy/src/hid/disp/display.h ****         int_fast16_t error  = deltaX - deltaY;
 1234              		.loc 3 230 42 is_stmt 0 view .LVU326
 1235 0106 0123     		movs	r3, #1
 1236              	.LBB163:
 1237              	.LBB158:
 1238              	.LBB154:
 342:../../libs/PoliTeKDSP/libs/libDaisy/src/dev/oled_ssd130x.h ****             return;
 1239              		.loc 2 342 9 view .LVU327
 1240 0108 7F2F     		cmp	r7, #127
 1241              	.LBE154:
 1242              	.LBE158:
 1243              	.LBE163:
 230:../../libs/PoliTeKDSP/libs/libDaisy/src/hid/disp/display.h ****         int_fast16_t error  = deltaX - deltaY;
 1244              		.loc 3 230 42 view .LVU328
 1245 010a 0393     		str	r3, [sp, #12]
 1246              	.LBB164:
 1247              	.LBB159:
 1248              	.LBB155:
 342:../../libs/PoliTeKDSP/libs/libDaisy/src/dev/oled_ssd130x.h ****             return;
 1249              		.loc 2 342 9 view .LVU329
 1250 010c 37D9     		bls	.L92
 1251              	.LVL88:
ARM GAS  C:\Users\matte\AppData\Local\Temp\ccH6qY0h.s 			page 40


 1252              	.L85:
 342:../../libs/PoliTeKDSP/libs/libDaisy/src/dev/oled_ssd130x.h ****             return;
 1253              		.loc 2 342 9 view .LVU330
 1254              	.LBE155:
 1255              	.LBE159:
 1256              	.LBE164:
 243:../../libs/PoliTeKDSP/libs/libDaisy/src/hid/disp/display.h ****             {
 1257              		.loc 3 243 23 view .LVU331
 1258 010e C9F1000E 		rsb	lr, r9, #0
 1259              	.LVL89:
 1260              	.L88:
 1261              	.LBB165:
 1262              	.LBI165:
  42:../../libs/PoliTeKDSP/libs/libDaisy/src/hid/disp/oled_display.h ****     {
 1263              		.loc 1 42 10 is_stmt 1 view .LVU332
 1264              	.LBB166:
 1265              	.LBI166:
 340:../../libs/PoliTeKDSP/libs/libDaisy/src/dev/oled_ssd130x.h ****     {
 1266              		.loc 2 340 10 view .LVU333
 1267              	.LBB167:
 345:../../libs/PoliTeKDSP/libs/libDaisy/src/dev/oled_ssd130x.h ****         else
 1268              		.loc 2 345 48 is_stmt 0 view .LVU334
 1269 0112 4FF0010C 		mov	ip, #1
 345:../../libs/PoliTeKDSP/libs/libDaisy/src/dev/oled_ssd130x.h ****         else
 1270              		.loc 2 345 28 view .LVU335
 1271 0116 E308     		lsrs	r3, r4, #3
 345:../../libs/PoliTeKDSP/libs/libDaisy/src/dev/oled_ssd130x.h ****         else
 1272              		.loc 2 345 54 view .LVU336
 1273 0118 04F00702 		and	r2, r4, #7
 342:../../libs/PoliTeKDSP/libs/libDaisy/src/dev/oled_ssd130x.h ****             return;
 1274              		.loc 2 342 9 view .LVU337
 1275 011c 7F29     		cmp	r1, #127
 345:../../libs/PoliTeKDSP/libs/libDaisy/src/dev/oled_ssd130x.h ****         else
 1276              		.loc 2 345 42 view .LVU338
 1277 011e 01EBC313 		add	r3, r1, r3, lsl #7
 1278              	.LBE167:
 1279              	.LBE166:
 1280              	.LBE165:
 242:../../libs/PoliTeKDSP/libs/libDaisy/src/hid/disp/display.h ****             if(error2 > -deltaY)
 1281              		.loc 3 242 20 view .LVU339
 1282 0122 05FA0CFB 		lsl	fp, r5, ip
 1283              	.LVL90:
 1284              	.LBB170:
 1285              	.LBB169:
 1286              	.LBB168:
 345:../../libs/PoliTeKDSP/libs/libDaisy/src/dev/oled_ssd130x.h ****         else
 1287              		.loc 2 345 48 view .LVU340
 1288 0126 0CFA02F2 		lsl	r2, ip, r2
 342:../../libs/PoliTeKDSP/libs/libDaisy/src/dev/oled_ssd130x.h ****             return;
 1289              		.loc 2 342 9 view .LVU341
 1290 012a 07D8     		bhi	.L89
 1291 012c 3F2C     		cmp	r4, #63
 345:../../libs/PoliTeKDSP/libs/libDaisy/src/dev/oled_ssd130x.h ****         else
 1292              		.loc 2 345 42 view .LVU342
 1293 012e 0344     		add	r3, r3, r0
 342:../../libs/PoliTeKDSP/libs/libDaisy/src/dev/oled_ssd130x.h ****             return;
 1294              		.loc 2 342 9 view .LVU343
ARM GAS  C:\Users\matte\AppData\Local\Temp\ccH6qY0h.s 			page 41


 1295 0130 04D8     		bhi	.L89
 345:../../libs/PoliTeKDSP/libs/libDaisy/src/dev/oled_ssd130x.h ****         else
 1296              		.loc 2 345 42 view .LVU344
 1297 0132 93F810C0 		ldrb	ip, [r3, #16]	@ zero_extendqisi2
 1298 0136 42EA0C02 		orr	r2, r2, ip
 1299 013a 1A74     		strb	r2, [r3, #16]
 1300              	.L89:
 345:../../libs/PoliTeKDSP/libs/libDaisy/src/dev/oled_ssd130x.h ****         else
 1301              		.loc 2 345 42 view .LVU345
 1302              	.LBE168:
 1303              	.LBE169:
 1304              	.LBE170:
 243:../../libs/PoliTeKDSP/libs/libDaisy/src/hid/disp/display.h ****             {
 1305              		.loc 3 243 13 view .LVU346
 1306 013c BEEB450F 		cmp	lr, r5, lsl #1
 1307 0140 14DA     		bge	.L90
 249:../../libs/PoliTeKDSP/libs/libDaisy/src/hid/disp/display.h ****             {
 1308              		.loc 3 249 13 view .LVU347
 1309 0142 BBF1000F 		cmp	fp, #0
 245:../../libs/PoliTeKDSP/libs/libDaisy/src/hid/disp/display.h ****                 x1 += signX;
 1310              		.loc 3 245 23 view .LVU348
 1311 0146 A5EB0905 		sub	r5, r5, r9
 1312              	.LVL91:
 246:../../libs/PoliTeKDSP/libs/libDaisy/src/hid/disp/display.h ****             }
 1313              		.loc 3 246 20 view .LVU349
 1314 014a 01F10101 		add	r1, r1, #1
 1315              	.LVL92:
 249:../../libs/PoliTeKDSP/libs/libDaisy/src/hid/disp/display.h ****             {
 1316              		.loc 3 249 13 view .LVU350
 1317 014e 0DDD     		ble	.L90
 1318              	.L91:
 239:../../libs/PoliTeKDSP/libs/libDaisy/src/hid/disp/display.h ****         {
 1319              		.loc 3 239 26 is_stmt 1 view .LVU351
 1320 0150 B942     		cmp	r1, r7
 1321 0152 DED1     		bne	.L88
 239:../../libs/PoliTeKDSP/libs/libDaisy/src/hid/disp/display.h ****         {
 1322              		.loc 3 239 26 is_stmt 0 view .LVU352
 1323 0154 A642     		cmp	r6, r4
 1324 0156 DCD1     		bne	.L88
 1325              	.LVL93:
 1326              	.L86:
 239:../../libs/PoliTeKDSP/libs/libDaisy/src/hid/disp/display.h ****         {
 1327              		.loc 3 239 26 view .LVU353
 1328              	.LBE151:
 1329              	.LBE150:
  92:displayHandler.cpp ****         y1 = zeroOfScreen - (int)(_circBuffer_ptr[i % BUFFER_SIZE] * _yscale);
 1330              		.loc 4 92 25 is_stmt 1 discriminator 1 view .LVU354
  92:displayHandler.cpp ****         y1 = zeroOfScreen - (int)(_circBuffer_ptr[i % BUFFER_SIZE] * _yscale);
 1331              		.loc 4 92 31 is_stmt 0 discriminator 1 view .LVU355
 1332 0158 D8F80838 		ldr	r3, [r8, #2056]
  92:displayHandler.cpp ****         y1 = zeroOfScreen - (int)(_circBuffer_ptr[i % BUFFER_SIZE] * _yscale);
 1333              		.loc 4 92 25 discriminator 1 view .LVU356
 1334 015c 0137     		adds	r7, r7, #1
  92:displayHandler.cpp ****         y1 = zeroOfScreen - (int)(_circBuffer_ptr[i % BUFFER_SIZE] * _yscale);
 1335              		.loc 4 92 31 discriminator 1 view .LVU357
 1336 015e 059A     		ldr	r2, [sp, #20]
 1337 0160 1344     		add	r3, r3, r2
ARM GAS  C:\Users\matte\AppData\Local\Temp\ccH6qY0h.s 			page 42


  92:displayHandler.cpp ****         y1 = zeroOfScreen - (int)(_circBuffer_ptr[i % BUFFER_SIZE] * _yscale);
 1338              		.loc 4 92 25 discriminator 1 view .LVU358
 1339 0162 5345     		cmp	r3, r10
 1340 0164 87DC     		bgt	.L81
 1341              	.LVL94:
 1342              	.L75:
  92:displayHandler.cpp ****         y1 = zeroOfScreen - (int)(_circBuffer_ptr[i % BUFFER_SIZE] * _yscale);
 1343              		.loc 4 92 25 discriminator 1 view .LVU359
 1344              	.LBE176:
 102:displayHandler.cpp ****     }   
 103:displayHandler.cpp **** 
 104:displayHandler.cpp **** 
 105:displayHandler.cpp **** }
 1345              		.loc 4 105 1 view .LVU360
 1346 0166 07B0     		add	sp, sp, #28
 1347              		.cfi_remember_state
 1348              		.cfi_def_cfa_offset 36
 1349              		@ sp needed
 1350 0168 BDE8F08F 		pop	{r4, r5, r6, r7, r8, r9, r10, fp, pc}
 1351              	.LVL95:
 1352              	.L90:
 1353              		.cfi_restore_state
 1354              	.LBB177:
 1355              	.LBB175:
 1356              	.LBB174:
 252:../../libs/PoliTeKDSP/libs/libDaisy/src/hid/disp/display.h ****             }
 1357              		.loc 3 252 20 view .LVU361
 1358 016c 039B     		ldr	r3, [sp, #12]
 251:../../libs/PoliTeKDSP/libs/libDaisy/src/hid/disp/display.h ****                 y1 += signY;
 1359              		.loc 3 251 23 view .LVU362
 1360 016e 0135     		adds	r5, r5, #1
 1361              	.LVL96:
 252:../../libs/PoliTeKDSP/libs/libDaisy/src/hid/disp/display.h ****             }
 1362              		.loc 3 252 20 view .LVU363
 1363 0170 1C44     		add	r4, r4, r3
 1364              	.LVL97:
 252:../../libs/PoliTeKDSP/libs/libDaisy/src/hid/disp/display.h ****             }
 1365              		.loc 3 252 20 view .LVU364
 1366 0172 EDE7     		b	.L91
 1367              	.LVL98:
 1368              	.L102:
 1369              	.LBB171:
  42:../../libs/PoliTeKDSP/libs/libDaisy/src/hid/disp/oled_display.h ****     {
 1370              		.loc 1 42 10 is_stmt 1 view .LVU365
 1371              	.LBB160:
 340:../../libs/PoliTeKDSP/libs/libDaisy/src/dev/oled_ssd130x.h ****     {
 1372              		.loc 2 340 10 view .LVU366
 1373              	.LBE160:
 1374              	.LBE171:
 230:../../libs/PoliTeKDSP/libs/libDaisy/src/hid/disp/display.h ****         int_fast16_t error  = deltaX - deltaY;
 1375              		.loc 3 230 42 is_stmt 0 view .LVU367
 1376 0174 4FF0FF33 		mov	r3, #-1
 1377              	.LBB172:
 1378              	.LBB161:
 1379              	.LBB156:
 342:../../libs/PoliTeKDSP/libs/libDaisy/src/dev/oled_ssd130x.h ****             return;
 1380              		.loc 2 342 9 view .LVU368
ARM GAS  C:\Users\matte\AppData\Local\Temp\ccH6qY0h.s 			page 43


 1381 0178 7F2F     		cmp	r7, #127
 1382              	.LBE156:
 1383              	.LBE161:
 1384              	.LBE172:
 230:../../libs/PoliTeKDSP/libs/libDaisy/src/hid/disp/display.h ****         int_fast16_t error  = deltaX - deltaY;
 1385              		.loc 3 230 42 view .LVU369
 1386 017a 0393     		str	r3, [sp, #12]
 1387              	.LBB173:
 1388              	.LBB162:
 1389              	.LBB157:
 342:../../libs/PoliTeKDSP/libs/libDaisy/src/dev/oled_ssd130x.h ****             return;
 1390              		.loc 2 342 9 view .LVU370
 1391 017c C7D8     		bhi	.L85
 1392              	.LVL99:
 1393              	.L92:
 345:../../libs/PoliTeKDSP/libs/libDaisy/src/dev/oled_ssd130x.h ****         else
 1394              		.loc 2 345 28 view .LVU371
 1395 017e F308     		lsrs	r3, r6, #3
 345:../../libs/PoliTeKDSP/libs/libDaisy/src/dev/oled_ssd130x.h ****         else
 1396              		.loc 2 345 48 view .LVU372
 1397 0180 4FF0010C 		mov	ip, #1
 345:../../libs/PoliTeKDSP/libs/libDaisy/src/dev/oled_ssd130x.h ****         else
 1398              		.loc 2 345 54 view .LVU373
 1399 0184 06F00702 		and	r2, r6, #7
 1400              	.LVL100:
 345:../../libs/PoliTeKDSP/libs/libDaisy/src/dev/oled_ssd130x.h ****         else
 1401              		.loc 2 345 42 view .LVU374
 1402 0188 07EBC313 		add	r3, r7, r3, lsl #7
 345:../../libs/PoliTeKDSP/libs/libDaisy/src/dev/oled_ssd130x.h ****         else
 1403              		.loc 2 345 48 view .LVU375
 1404 018c 0CFA02F2 		lsl	r2, ip, r2
 345:../../libs/PoliTeKDSP/libs/libDaisy/src/dev/oled_ssd130x.h ****         else
 1405              		.loc 2 345 42 view .LVU376
 1406 0190 0344     		add	r3, r3, r0
 1407 0192 93F810C0 		ldrb	ip, [r3, #16]	@ zero_extendqisi2
 1408 0196 42EA0C02 		orr	r2, r2, ip
 1409 019a 1A74     		strb	r2, [r3, #16]
 1410 019c B7E7     		b	.L85
 1411              	.LVL101:
 1412              	.L82:
 345:../../libs/PoliTeKDSP/libs/libDaisy/src/dev/oled_ssd130x.h ****         else
 1413              		.loc 2 345 42 view .LVU377
 1414              	.LBE157:
 1415              	.LBE162:
 1416              	.LBE173:
 1417              	.LBE174:
 1418              	.LBE175:
 101:displayHandler.cpp ****     }   
 1419              		.loc 4 101 30 view .LVU378
 1420 019e 0123     		movs	r3, #1
 1421 01a0 0096     		str	r6, [sp]
 1422 01a2 0193     		str	r3, [sp, #4]
 1423 01a4 3B46     		mov	r3, r7
 1424 01a6 A847     		blx	r5
 1425              	.LVL102:
 101:displayHandler.cpp ****     }   
 1426              		.loc 4 101 30 view .LVU379
ARM GAS  C:\Users\matte\AppData\Local\Temp\ccH6qY0h.s 			page 44


 1427 01a8 D6E7     		b	.L86
 1428              	.LVL103:
 1429              	.L94:
 101:displayHandler.cpp ****     }   
 1430              		.loc 4 101 30 view .LVU380
 1431              	.LBE177:
 1432              	.LBB178:
 1433              	.LBB143:
 174:../../libs/PoliTeKDSP/libs/libDaisy/src/hid/disp/display.h ****     }
 1434              		.loc 3 174 19 view .LVU381
 1435 01aa 2023     		movs	r3, #32
 1436 01ac 48E7     		b	.L77
 1437              	.L93:
 173:../../libs/PoliTeKDSP/libs/libDaisy/src/hid/disp/display.h ****         currentY_ = (y >= Height()) ? Height() - 1 : y;
 1438              		.loc 3 173 19 view .LVU382
 1439 01ae 0023     		movs	r3, #0
 1440 01b0 38E7     		b	.L76
 1441              	.LVL104:
 1442              	.L78:
 173:../../libs/PoliTeKDSP/libs/libDaisy/src/hid/disp/display.h ****         currentY_ = (y >= Height()) ? Height() - 1 : y;
 1443              		.loc 3 173 19 view .LVU383
 1444              	.LBE143:
 1445              	.LBE178:
  85:displayHandler.cpp **** 
 1446              		.loc 4 85 22 view .LVU384
 1447 01b2 0021     		movs	r1, #0
 1448 01b4 9847     		blx	r3
 1449              	.LVL105:
 1450 01b6 51E7     		b	.L79
 1451              	.L104:
 1452              		.align	2
 1453              	.L103:
 1454 01b8 00000000 		.word	_ZN5daisy11OledDisplayINS_13SSD130xDriverILj128ELj64ENS_19SSD130xI2CTransportEEEE4FillEb
 1455 01bc 00000000 		.word	_ZN5daisy25OneBitGraphicsDisplayImplINS_11OledDisplayINS_13SSD130xDriverILj128ELj64ENS_19SSD
 1456              		.cfi_endproc
 1457              	.LFE2698:
 1459              		.section	.text._ZN14DisplayHandler9SetYscaleEi,"ax",%progbits
 1460              		.align	1
 1461              		.p2align 2,,3
 1462              		.global	_ZN14DisplayHandler9SetYscaleEi
 1463              		.syntax unified
 1464              		.thumb
 1465              		.thumb_func
 1466              		.fpu fpv5-d16
 1468              	_ZN14DisplayHandler9SetYscaleEi:
 1469              	.LVL106:
 1470              	.LFB2699:
 106:displayHandler.cpp **** 
 107:displayHandler.cpp **** void DisplayHandler::SetYscale(int yscale){
 1471              		.loc 4 107 43 is_stmt 1 view -0
 1472              		.cfi_startproc
 1473              		@ args = 0, pretend = 0, frame = 0
 1474              		@ frame_needed = 0, uses_anonymous_args = 0
 1475              		@ link register save eliminated.
 108:displayHandler.cpp ****     _yscale=yscale;
 1476              		.loc 4 108 5 view .LVU386
 1477              		.loc 4 108 12 is_stmt 0 view .LVU387
ARM GAS  C:\Users\matte\AppData\Local\Temp\ccH6qY0h.s 			page 45


 1478 0000 C0F81818 		str	r1, [r0, #2072]
 109:displayHandler.cpp **** }
 1479              		.loc 4 109 1 view .LVU388
 1480 0004 7047     		bx	lr
 1481              		.cfi_endproc
 1482              	.LFE2699:
 1484 0006 00BF     		.section	.text._ZN14DisplayHandler17drawStandbyScreenEv,"ax",%progbits
 1485              		.align	1
 1486              		.p2align 2,,3
 1487              		.global	_ZN14DisplayHandler17drawStandbyScreenEv
 1488              		.syntax unified
 1489              		.thumb
 1490              		.thumb_func
 1491              		.fpu fpv5-d16
 1493              	_ZN14DisplayHandler17drawStandbyScreenEv:
 1494              	.LVL107:
 1495              	.LFB2700:
 110:displayHandler.cpp **** 
 111:displayHandler.cpp **** // LONG FUNCTION AHEAD -> prints test logo atm
 112:displayHandler.cpp **** void DisplayHandler::drawStandbyScreen(){
 1496              		.loc 4 112 41 is_stmt 1 view -0
 1497              		.cfi_startproc
 1498              		@ args = 0, pretend = 0, frame = 0
 1499              		@ frame_needed = 0, uses_anonymous_args = 0
 113:displayHandler.cpp ****   _displayPtr->SetCursor(0,0);
 1500              		.loc 4 113 3 view .LVU390
 112:displayHandler.cpp ****   _displayPtr->SetCursor(0,0);
 1501              		.loc 4 112 41 is_stmt 0 view .LVU391
 1502 0000 30B5     		push	{r4, r5, lr}
 1503              		.cfi_def_cfa_offset 12
 1504              		.cfi_offset 4, -12
 1505              		.cfi_offset 5, -8
 1506              		.cfi_offset 14, -4
 1507              		.loc 4 113 3 view .LVU392
 1508 0002 0468     		ldr	r4, [r0]
 1509              	.LVL108:
 1510              	.LBB181:
 1511              	.LBI181:
 171:../../libs/PoliTeKDSP/libs/libDaisy/src/hid/disp/display.h ****     {
 1512              		.loc 3 171 10 is_stmt 1 view .LVU393
 1513              	.LBB182:
 173:../../libs/PoliTeKDSP/libs/libDaisy/src/hid/disp/display.h ****         currentY_ = (y >= Height()) ? Height() - 1 : y;
 1514              		.loc 3 173 9 view .LVU394
 1515              	.LBE182:
 1516              	.LBE181:
 112:displayHandler.cpp ****   _displayPtr->SetCursor(0,0);
 1517              		.loc 4 112 41 is_stmt 0 view .LVU395
 1518 0004 83B0     		sub	sp, sp, #12
 1519              		.cfi_def_cfa_offset 24
 112:displayHandler.cpp ****   _displayPtr->SetCursor(0,0);
 1520              		.loc 4 112 41 view .LVU396
 1521 0006 0546     		mov	r5, r0
 1522              	.LBB186:
 1523              	.LBB183:
 173:../../libs/PoliTeKDSP/libs/libDaisy/src/hid/disp/display.h ****         currentY_ = (y >= Height()) ? Height() - 1 : y;
 1524              		.loc 3 173 33 view .LVU397
 1525 0008 2368     		ldr	r3, [r4]
ARM GAS  C:\Users\matte\AppData\Local\Temp\ccH6qY0h.s 			page 46


 173:../../libs/PoliTeKDSP/libs/libDaisy/src/hid/disp/display.h ****         currentY_ = (y >= Height()) ? Height() - 1 : y;
 1526              		.loc 3 173 32 view .LVU398
 1527 000a 2046     		mov	r0, r4
 1528              	.LVL109:
 173:../../libs/PoliTeKDSP/libs/libDaisy/src/hid/disp/display.h ****         currentY_ = (y >= Height()) ? Height() - 1 : y;
 1529              		.loc 3 173 32 view .LVU399
 1530 000c DB68     		ldr	r3, [r3, #12]
 1531 000e 9847     		blx	r3
 1532              	.LVL110:
 173:../../libs/PoliTeKDSP/libs/libDaisy/src/hid/disp/display.h ****         currentY_ = (y >= Height()) ? Height() - 1 : y;
 1533              		.loc 3 173 19 view .LVU400
 1534 0010 F0B9     		cbnz	r0, .L109
 173:../../libs/PoliTeKDSP/libs/libDaisy/src/hid/disp/display.h ****         currentY_ = (y >= Height()) ? Height() - 1 : y;
 1535              		.loc 3 173 44 view .LVU401
 1536 0012 2368     		ldr	r3, [r4]
 173:../../libs/PoliTeKDSP/libs/libDaisy/src/hid/disp/display.h ****         currentY_ = (y >= Height()) ? Height() - 1 : y;
 1537              		.loc 3 173 43 view .LVU402
 1538 0014 2046     		mov	r0, r4
 1539 0016 DB68     		ldr	r3, [r3, #12]
 1540 0018 9847     		blx	r3
 1541              	.LVL111:
 173:../../libs/PoliTeKDSP/libs/libDaisy/src/hid/disp/display.h ****         currentY_ = (y >= Height()) ? Height() - 1 : y;
 1542              		.loc 3 173 19 view .LVU403
 1543 001a 0138     		subs	r0, r0, #1
 1544 001c 83B2     		uxth	r3, r0
 1545              	.L107:
 174:../../libs/PoliTeKDSP/libs/libDaisy/src/hid/disp/display.h ****     }
 1546              		.loc 3 174 34 view .LVU404
 1547 001e 2268     		ldr	r2, [r4]
 174:../../libs/PoliTeKDSP/libs/libDaisy/src/hid/disp/display.h ****     }
 1548              		.loc 3 174 33 view .LVU405
 1549 0020 2046     		mov	r0, r4
 173:../../libs/PoliTeKDSP/libs/libDaisy/src/hid/disp/display.h ****         currentY_ = (y >= Height()) ? Height() - 1 : y;
 1550              		.loc 3 173 19 view .LVU406
 1551 0022 A380     		strh	r3, [r4, #4]	@ movhi
 174:../../libs/PoliTeKDSP/libs/libDaisy/src/hid/disp/display.h ****     }
 1552              		.loc 3 174 9 is_stmt 1 view .LVU407
 174:../../libs/PoliTeKDSP/libs/libDaisy/src/hid/disp/display.h ****     }
 1553              		.loc 3 174 33 is_stmt 0 view .LVU408
 1554 0024 9368     		ldr	r3, [r2, #8]
 1555 0026 9847     		blx	r3
 1556              	.LVL112:
 174:../../libs/PoliTeKDSP/libs/libDaisy/src/hid/disp/display.h ****     }
 1557              		.loc 3 174 19 view .LVU409
 1558 0028 A0B9     		cbnz	r0, .L110
 174:../../libs/PoliTeKDSP/libs/libDaisy/src/hid/disp/display.h ****     }
 1559              		.loc 3 174 46 view .LVU410
 1560 002a 2368     		ldr	r3, [r4]
 174:../../libs/PoliTeKDSP/libs/libDaisy/src/hid/disp/display.h ****     }
 1561              		.loc 3 174 45 view .LVU411
 1562 002c 2046     		mov	r0, r4
 1563 002e 9B68     		ldr	r3, [r3, #8]
 1564 0030 9847     		blx	r3
 1565              	.LVL113:
 174:../../libs/PoliTeKDSP/libs/libDaisy/src/hid/disp/display.h ****     }
 1566              		.loc 3 174 19 view .LVU412
 1567 0032 0138     		subs	r0, r0, #1
ARM GAS  C:\Users\matte\AppData\Local\Temp\ccH6qY0h.s 			page 47


 1568 0034 83B2     		uxth	r3, r0
 1569              	.L108:
 1570              	.LBE183:
 1571              	.LBE186:
 114:displayHandler.cpp ****         _displayPtr->WriteString(_standbyText, Font_11x18, true);
 1572              		.loc 4 114 9 view .LVU413
 1573 0036 2868     		ldr	r0, [r5]
 1574              		.loc 4 114 33 view .LVU414
 1575 0038 074A     		ldr	r2, .L112
 1576              	.LBB187:
 1577              	.LBB184:
 174:../../libs/PoliTeKDSP/libs/libDaisy/src/hid/disp/display.h ****     }
 1578              		.loc 3 174 19 view .LVU415
 1579 003a E380     		strh	r3, [r4, #6]	@ movhi
 1580              	.LVL114:
 174:../../libs/PoliTeKDSP/libs/libDaisy/src/hid/disp/display.h ****     }
 1581              		.loc 3 174 19 view .LVU416
 1582              	.LBE184:
 1583              	.LBE187:
 1584              		.loc 4 114 9 is_stmt 1 view .LVU417
 1585              		.loc 4 114 33 is_stmt 0 view .LVU418
 1586 003c 0123     		movs	r3, #1
 1587              		.loc 4 114 64 view .LVU419
 1588 003e 0468     		ldr	r4, [r0]
 1589              		.loc 4 114 33 view .LVU420
 1590 0040 D5F81418 		ldr	r1, [r5, #2068]
 1591 0044 0093     		str	r3, [sp]
 1592 0046 A46A     		ldr	r4, [r4, #40]
 1593 0048 0CCA     		ldm	r2, {r2, r3}
 1594 004a A047     		blx	r4
 1595              	.LVL115:
 115:displayHandler.cpp **** }...
 1596              		.loc 4 115 1 view .LVU421
 1597 004c 03B0     		add	sp, sp, #12
 1598              		.cfi_remember_state
 1599              		.cfi_def_cfa_offset 12
 1600              		@ sp needed
 1601 004e 30BD     		pop	{r4, r5, pc}
 1602              	.LVL116:
 1603              	.L109:
 1604              		.cfi_restore_state
 1605              	.LBB188:
 1606              	.LBB185:
 173:../../libs/PoliTeKDSP/libs/libDaisy/src/hid/disp/display.h ****         currentY_ = (y >= Height()) ? Height() - 1 : y;
 1607              		.loc 3 173 19 view .LVU422
 1608 0050 0023     		movs	r3, #0
 1609 0052 E4E7     		b	.L107
 1610              	.L110:
 174:../../libs/PoliTeKDSP/libs/libDaisy/src/hid/disp/display.h ****     }
 1611              		.loc 3 174 19 view .LVU423
 1612 0054 0023     		movs	r3, #0
 1613 0056 EEE7     		b	.L108
 1614              	.L113:
 1615              		.align	2
 1616              	.L112:
 1617 0058 00000000 		.word	Font_11x18
 1618              	.LBE185:
ARM GAS  C:\Users\matte\AppData\Local\Temp\ccH6qY0h.s 			page 48


 1619              	.LBE188:
 1620              		.cfi_endproc
 1621              	.LFE2700:
 1623              		.section	.text._ZN14DisplayHandler6UpdateEv,"ax",%progbits
 1624              		.align	1
 1625              		.p2align 2,,3
 1626              		.global	_ZN14DisplayHandler6UpdateEv
 1627              		.syntax unified
 1628              		.thumb
 1629              		.thumb_func
 1630              		.fpu fpv5-d16
 1632              	_ZN14DisplayHandler6UpdateEv:
 1633              	.LVL117:
 1634              	.LFB2693:
  18:displayHandler.cpp **** void DisplayHandler::Update() {
 1635              		.loc 4 18 31 is_stmt 1 view -0
 1636              		.cfi_startproc
 1637              		@ args = 0, pretend = 0, frame = 8
 1638              		@ frame_needed = 0, uses_anonymous_args = 0
  19:displayHandler.cpp ****     switch (_currentState) {
 1639              		.loc 4 19 5 view .LVU425
  19:displayHandler.cpp ****     switch (_currentState) {
 1640              		.loc 4 19 13 is_stmt 0 view .LVU426
 1641 0000 0379     		ldrb	r3, [r0, #4]	@ zero_extendqisi2
  18:displayHandler.cpp **** void DisplayHandler::Update() {
 1642              		.loc 4 18 31 view .LVU427
 1643 0002 2DE9F047 		push	{r4, r5, r6, r7, r8, r9, r10, lr}
 1644              		.cfi_def_cfa_offset 32
 1645              		.cfi_offset 4, -32
 1646              		.cfi_offset 5, -28
 1647              		.cfi_offset 6, -24
 1648              		.cfi_offset 7, -20
 1649              		.cfi_offset 8, -16
 1650              		.cfi_offset 9, -12
 1651              		.cfi_offset 10, -8
 1652              		.cfi_offset 14, -4
 1653 0006 0446     		mov	r4, r0
 1654 0008 84B0     		sub	sp, sp, #16
 1655              		.cfi_def_cfa_offset 48
  19:displayHandler.cpp ****     switch (_currentState) {
 1656              		.loc 4 19 5 view .LVU428
 1657 000a 002B     		cmp	r3, #0
 1658 000c 55D0     		beq	.L115
 1659 000e 012B     		cmp	r3, #1
 1660 0010 01D1     		bne	.L117
  24:displayHandler.cpp ****         case DisplayState::WAVEFORM_VIEWER:
 1661              		.loc 4 24 9 is_stmt 1 view .LVU429
  25:displayHandler.cpp ****             drawWaveForm();
 1662              		.loc 4 25 13 view .LVU430
  25:displayHandler.cpp ****             drawWaveForm();
 1663              		.loc 4 25 25 is_stmt 0 view .LVU431
 1664 0012 FFF7FEFF 		bl	_ZN14DisplayHandler12drawWaveFormEv
 1665              	.LVL118:
  26:displayHandler.cpp ****             break;
 1666              		.loc 4 26 13 is_stmt 1 view .LVU432
 1667              	.L117:
  36:displayHandler.cpp ****     _displayPtr->Update();
ARM GAS  C:\Users\matte\AppData\Local\Temp\ccH6qY0h.s 			page 49


 1668              		.loc 4 36 5 view .LVU433
 1669 0016 2668     		ldr	r6, [r4]
 1670 0018 2C4A     		ldr	r2, .L124
  36:displayHandler.cpp ****     _displayPtr->Update();
 1671              		.loc 4 36 25 is_stmt 0 view .LVU434
 1672 001a 3368     		ldr	r3, [r6]
 1673 001c 1B6B     		ldr	r3, [r3, #48]
 1674 001e 9342     		cmp	r3, r2
 1675 0020 4ED1     		bne	.L118
 1676              	.LBB203:
 1677              	.LBB204:
 1678              	.LBB205:
 1679              	.LBB206:
 1680              	.LBB207:
  45:../../libs/PoliTeKDSP/libs/libDaisy/src/dev/oled_ssd130x.h ****     };
 1681              		.loc 2 45 30 view .LVU435
 1682 0022 06F10808 		add	r8, r6, #8
 1683 0026 06F18F07 		add	r7, r6, #143
 1684 002a 06F28F4A 		addw	r10, r6, #1167
 1685 002e 4FF0B009 		mov	r9, #176
 1686              	.LVL119:
 1687              	.L121:
  45:../../libs/PoliTeKDSP/libs/libDaisy/src/dev/oled_ssd130x.h ****     };
 1688              		.loc 2 45 30 view .LVU436
 1689              	.LBE207:
 1690              	.LBI206:
  42:../../libs/PoliTeKDSP/libs/libDaisy/src/dev/oled_ssd130x.h ****     {
 1691              		.loc 2 42 10 is_stmt 1 view .LVU437
 1692              	.LBB208:
  44:../../libs/PoliTeKDSP/libs/libDaisy/src/dev/oled_ssd130x.h ****         i2c_.TransmitBlocking(i2c_address_, buf, 2, 1000);
 1693              		.loc 2 44 9 view .LVU438
  44:../../libs/PoliTeKDSP/libs/libDaisy/src/dev/oled_ssd130x.h ****         i2c_.TransmitBlocking(i2c_address_, buf, 2, 1000);
 1694              		.loc 2 44 17 is_stmt 0 view .LVU439
 1695 0032 0024     		movs	r4, #0
  45:../../libs/PoliTeKDSP/libs/libDaisy/src/dev/oled_ssd130x.h ****     };
 1696              		.loc 2 45 30 view .LVU440
 1697 0034 4FF47A75 		mov	r5, #1000
 1698 0038 0223     		movs	r3, #2
 1699 003a 03AA     		add	r2, sp, #12
  44:../../libs/PoliTeKDSP/libs/libDaisy/src/dev/oled_ssd130x.h ****         i2c_.TransmitBlocking(i2c_address_, buf, 2, 1000);
 1700              		.loc 2 44 17 view .LVU441
 1701 003c 8DF80C40 		strb	r4, [sp, #12]
  45:../../libs/PoliTeKDSP/libs/libDaisy/src/dev/oled_ssd130x.h ****     };
 1702              		.loc 2 45 30 view .LVU442
 1703 0040 4046     		mov	r0, r8
  44:../../libs/PoliTeKDSP/libs/libDaisy/src/dev/oled_ssd130x.h ****         i2c_.TransmitBlocking(i2c_address_, buf, 2, 1000);
 1704              		.loc 2 44 36 view .LVU443
 1705 0042 8DF80D90 		strb	r9, [sp, #13]
  45:../../libs/PoliTeKDSP/libs/libDaisy/src/dev/oled_ssd130x.h ****     };
 1706              		.loc 2 45 9 is_stmt 1 view .LVU444
  45:../../libs/PoliTeKDSP/libs/libDaisy/src/dev/oled_ssd130x.h ****     };
 1707              		.loc 2 45 30 is_stmt 0 view .LVU445
 1708 0046 317B     		ldrb	r1, [r6, #12]	@ zero_extendqisi2
 1709 0048 0095     		str	r5, [sp]
 1710 004a FFF7FEFF 		bl	_ZN5daisy9I2CHandle16TransmitBlockingEtPhtm
 1711              	.LVL120:
  45:../../libs/PoliTeKDSP/libs/libDaisy/src/dev/oled_ssd130x.h ****     };
ARM GAS  C:\Users\matte\AppData\Local\Temp\ccH6qY0h.s 			page 50


 1712              		.loc 2 45 30 view .LVU446
 1713              	.LBE208:
 1714              	.LBE206:
 1715              	.LBB209:
 1716              	.LBI209:
  42:../../libs/PoliTeKDSP/libs/libDaisy/src/dev/oled_ssd130x.h ****     {
 1717              		.loc 2 42 10 is_stmt 1 view .LVU447
 1718              	.LBB210:
  44:../../libs/PoliTeKDSP/libs/libDaisy/src/dev/oled_ssd130x.h ****         i2c_.TransmitBlocking(i2c_address_, buf, 2, 1000);
 1719              		.loc 2 44 9 view .LVU448
  44:../../libs/PoliTeKDSP/libs/libDaisy/src/dev/oled_ssd130x.h ****         i2c_.TransmitBlocking(i2c_address_, buf, 2, 1000);
 1720              		.loc 2 44 17 is_stmt 0 view .LVU449
 1721 004e 8DF80C40 		strb	r4, [sp, #12]
  44:../../libs/PoliTeKDSP/libs/libDaisy/src/dev/oled_ssd130x.h ****         i2c_.TransmitBlocking(i2c_address_, buf, 2, 1000);
 1722              		.loc 2 44 36 view .LVU450
 1723 0052 8DF80D40 		strb	r4, [sp, #13]
  45:../../libs/PoliTeKDSP/libs/libDaisy/src/dev/oled_ssd130x.h ****     };
 1724              		.loc 2 45 9 is_stmt 1 view .LVU451
  45:../../libs/PoliTeKDSP/libs/libDaisy/src/dev/oled_ssd130x.h ****     };
 1725              		.loc 2 45 30 is_stmt 0 view .LVU452
 1726 0056 0223     		movs	r3, #2
 1727 0058 317B     		ldrb	r1, [r6, #12]	@ zero_extendqisi2
 1728 005a 03AA     		add	r2, sp, #12
 1729 005c 4046     		mov	r0, r8
 1730 005e 0095     		str	r5, [sp]
 1731 0060 FFF7FEFF 		bl	_ZN5daisy9I2CHandle16TransmitBlockingEtPhtm
 1732              	.LVL121:
  45:../../libs/PoliTeKDSP/libs/libDaisy/src/dev/oled_ssd130x.h ****     };
 1733              		.loc 2 45 30 view .LVU453
 1734              	.LBE210:
 1735              	.LBE209:
 1736              	.LBB211:
 1737              	.LBI211:
  42:../../libs/PoliTeKDSP/libs/libDaisy/src/dev/oled_ssd130x.h ****     {
 1738              		.loc 2 42 10 is_stmt 1 view .LVU454
 1739              	.LBB212:
  44:../../libs/PoliTeKDSP/libs/libDaisy/src/dev/oled_ssd130x.h ****         i2c_.TransmitBlocking(i2c_address_, buf, 2, 1000);
 1740              		.loc 2 44 9 view .LVU455
  44:../../libs/PoliTeKDSP/libs/libDaisy/src/dev/oled_ssd130x.h ****         i2c_.TransmitBlocking(i2c_address_, buf, 2, 1000);
 1741              		.loc 2 44 36 is_stmt 0 view .LVU456
 1742 0064 1023     		movs	r3, #16
  44:../../libs/PoliTeKDSP/libs/libDaisy/src/dev/oled_ssd130x.h ****         i2c_.TransmitBlocking(i2c_address_, buf, 2, 1000);
 1743              		.loc 2 44 17 view .LVU457
 1744 0066 8DF80C40 		strb	r4, [sp, #12]
  45:../../libs/PoliTeKDSP/libs/libDaisy/src/dev/oled_ssd130x.h ****     };
 1745              		.loc 2 45 30 view .LVU458
 1746 006a 03AA     		add	r2, sp, #12
  44:../../libs/PoliTeKDSP/libs/libDaisy/src/dev/oled_ssd130x.h ****         i2c_.TransmitBlocking(i2c_address_, buf, 2, 1000);
 1747              		.loc 2 44 36 view .LVU459
 1748 006c 8DF80D30 		strb	r3, [sp, #13]
  45:../../libs/PoliTeKDSP/libs/libDaisy/src/dev/oled_ssd130x.h ****     };
 1749              		.loc 2 45 9 is_stmt 1 view .LVU460
  45:../../libs/PoliTeKDSP/libs/libDaisy/src/dev/oled_ssd130x.h ****     };
 1750              		.loc 2 45 30 is_stmt 0 view .LVU461
 1751 0070 4046     		mov	r0, r8
 1752 0072 317B     		ldrb	r1, [r6, #12]	@ zero_extendqisi2
 1753 0074 0223     		movs	r3, #2
ARM GAS  C:\Users\matte\AppData\Local\Temp\ccH6qY0h.s 			page 51


 1754 0076 0095     		str	r5, [sp]
 1755 0078 A7F18004 		sub	r4, r7, #128
 1756 007c FFF7FEFF 		bl	_ZN5daisy9I2CHandle16TransmitBlockingEtPhtm
 1757              	.LVL122:
  45:../../libs/PoliTeKDSP/libs/libDaisy/src/dev/oled_ssd130x.h ****     };
 1758              		.loc 2 45 30 view .LVU462
 1759              	.LBE212:
 1760              	.LBE211:
 1761              	.LBB213:
 1762              	.LBI213:
  48:../../libs/PoliTeKDSP/libs/libDaisy/src/dev/oled_ssd130x.h ****     {
 1763              		.loc 2 48 10 is_stmt 1 view .LVU463
 1764              	.LBB214:
  50:../../libs/PoliTeKDSP/libs/libDaisy/src/dev/oled_ssd130x.h ****         {
 1765              		.loc 2 50 29 view .LVU464
 1766              	.L119:
 1767              	.LBB215:
  52:../../libs/PoliTeKDSP/libs/libDaisy/src/dev/oled_ssd130x.h ****             i2c_.TransmitBlocking(i2c_address_, buf, 2, 1000);
 1768              		.loc 2 52 13 view .LVU465
  52:../../libs/PoliTeKDSP/libs/libDaisy/src/dev/oled_ssd130x.h ****             i2c_.TransmitBlocking(i2c_address_, buf, 2, 1000);
 1769              		.loc 2 52 21 is_stmt 0 view .LVU466
 1770 0080 4021     		movs	r1, #64
  53:../../libs/PoliTeKDSP/libs/libDaisy/src/dev/oled_ssd130x.h ****         }
 1771              		.loc 2 53 34 view .LVU467
 1772 0082 4FF47A75 		mov	r5, #1000
 1773 0086 0223     		movs	r3, #2
 1774 0088 03AA     		add	r2, sp, #12
  52:../../libs/PoliTeKDSP/libs/libDaisy/src/dev/oled_ssd130x.h ****             i2c_.TransmitBlocking(i2c_address_, buf, 2, 1000);
 1775              		.loc 2 52 21 view .LVU468
 1776 008a 8DF80C10 		strb	r1, [sp, #12]
  53:../../libs/PoliTeKDSP/libs/libDaisy/src/dev/oled_ssd130x.h ****         }
 1777              		.loc 2 53 34 view .LVU469
 1778 008e 4046     		mov	r0, r8
  52:../../libs/PoliTeKDSP/libs/libDaisy/src/dev/oled_ssd130x.h ****             i2c_.TransmitBlocking(i2c_address_, buf, 2, 1000);
 1779              		.loc 2 52 43 view .LVU470
 1780 0090 14F8011F 		ldrb	r1, [r4, #1]!	@ zero_extendqisi2
 1781              	.LVL123:
  52:../../libs/PoliTeKDSP/libs/libDaisy/src/dev/oled_ssd130x.h ****             i2c_.TransmitBlocking(i2c_address_, buf, 2, 1000);
 1782              		.loc 2 52 44 view .LVU471
 1783 0094 8DF80D10 		strb	r1, [sp, #13]
  53:../../libs/PoliTeKDSP/libs/libDaisy/src/dev/oled_ssd130x.h ****         }
 1784              		.loc 2 53 13 is_stmt 1 view .LVU472
  53:../../libs/PoliTeKDSP/libs/libDaisy/src/dev/oled_ssd130x.h ****         }
 1785              		.loc 2 53 34 is_stmt 0 view .LVU473
 1786 0098 317B     		ldrb	r1, [r6, #12]	@ zero_extendqisi2
 1787 009a 0095     		str	r5, [sp]
 1788 009c FFF7FEFF 		bl	_ZN5daisy9I2CHandle16TransmitBlockingEtPhtm
 1789              	.LVL124:
 1790              	.LBE215:
  50:../../libs/PoliTeKDSP/libs/libDaisy/src/dev/oled_ssd130x.h ****         {
 1791              		.loc 2 50 9 is_stmt 1 view .LVU474
  50:../../libs/PoliTeKDSP/libs/libDaisy/src/dev/oled_ssd130x.h ****         {
 1792              		.loc 2 50 29 view .LVU475
 1793 00a0 BC42     		cmp	r4, r7
 1794 00a2 EDD1     		bne	.L119
 1795              	.LVL125:
  50:../../libs/PoliTeKDSP/libs/libDaisy/src/dev/oled_ssd130x.h ****         {
ARM GAS  C:\Users\matte\AppData\Local\Temp\ccH6qY0h.s 			page 52


 1796              		.loc 2 50 29 is_stmt 0 view .LVU476
 1797              	.LBE214:
 1798              	.LBE213:
 1799              		.loc 2 371 9 is_stmt 1 view .LVU477
 1800              		.loc 2 371 22 view .LVU478
 1801 00a4 04F18007 		add	r7, r4, #128
 1802 00a8 09F10109 		add	r9, r9, #1
 1803              	.LVL126:
 1804              		.loc 2 371 22 is_stmt 0 view .LVU479
 1805 00ac BA45     		cmp	r10, r7
 1806 00ae 5FFA89F9 		uxtb	r9, r9
 1807 00b2 BED1     		bne	.L121
 1808              	.LBE205:
 1809              	.LBE204:
 1810              	.LBE203:
  37:displayHandler.cpp **** }
 1811              		.loc 4 37 1 view .LVU480
 1812 00b4 04B0     		add	sp, sp, #16
 1813              		.cfi_remember_state
 1814              		.cfi_def_cfa_offset 32
 1815              		@ sp needed
 1816 00b6 BDE8F087 		pop	{r4, r5, r6, r7, r8, r9, r10, pc}
 1817              	.LVL127:
 1818              	.L115:
 1819              		.cfi_restore_state
  20:displayHandler.cpp ****         case DisplayState::STANDBY:
 1820              		.loc 4 20 9 is_stmt 1 view .LVU481
  21:displayHandler.cpp ****             drawStandbyScreen();
 1821              		.loc 4 21 13 view .LVU482
  21:displayHandler.cpp ****             drawStandbyScreen();
 1822              		.loc 4 21 30 is_stmt 0 view .LVU483
 1823 00ba FFF7FEFF 		bl	_ZN14DisplayHandler17drawStandbyScreenEv
 1824              	.LVL128:
  22:displayHandler.cpp ****             break;
 1825              		.loc 4 22 13 is_stmt 1 view .LVU484
 1826 00be AAE7     		b	.L117
 1827              	.L118:
  36:displayHandler.cpp ****     _displayPtr->Update();
 1828              		.loc 4 36 24 is_stmt 0 view .LVU485
 1829 00c0 3046     		mov	r0, r6
  37:displayHandler.cpp **** }
 1830              		.loc 4 37 1 view .LVU486
 1831 00c2 04B0     		add	sp, sp, #16
 1832              		.cfi_def_cfa_offset 32
 1833              		@ sp needed
 1834 00c4 BDE8F047 		pop	{r4, r5, r6, r7, r8, r9, r10, lr}
 1835              		.cfi_restore 14
 1836              		.cfi_restore 10
 1837              		.cfi_restore 9
 1838              		.cfi_restore 8
 1839              		.cfi_restore 7
 1840              		.cfi_restore 6
 1841              		.cfi_restore 5
 1842              		.cfi_restore 4
 1843              		.cfi_def_cfa_offset 0
 1844              	.LVL129:
  36:displayHandler.cpp ****     _displayPtr->Update();
ARM GAS  C:\Users\matte\AppData\Local\Temp\ccH6qY0h.s 			page 53


 1845              		.loc 4 36 24 view .LVU487
 1846 00c8 1847     		bx	r3	@ indirect register sibling call
 1847              	.LVL130:
 1848              	.L125:
 1849 00ca 00BF     		.align	2
 1850              	.L124:
 1851 00cc 00000000 		.word	_ZN5daisy11OledDisplayINS_13SSD130xDriverILj128ELj64ENS_19SSD130xI2CTransportEEEE6UpdateEv
 1852              		.cfi_endproc
 1853              	.LFE2693:
 1855              		.section	.bss._ZZN14DisplayHandler11findTriggerEvE7trigIdx,"aw",%nobits
 1856              		.align	2
 1857              		.set	.LANCHOR0,. + 0
 1860              	_ZZN14DisplayHandler11findTriggerEvE7trigIdx:
 1861 0000 00000000 		.space	4
 1862              		.text
 1863              	.Letext0:
 1864              		.file 5 "c:\\program files\\daisytoolchain\\arm-none-eabi\\include\\machine\\_default_types.h"
 1865              		.file 6 "c:\\program files\\daisytoolchain\\arm-none-eabi\\include\\sys\\_stdint.h"
 1866              		.file 7 "c:\\program files\\daisytoolchain\\arm-none-eabi\\include\\stdint.h"
 1867              		.file 8 "c:\\program files\\daisytoolchain\\lib\\gcc\\arm-none-eabi\\10.2.1\\include\\stddef.h"
 1868              		.file 9 "c:\\program files\\daisytoolchain\\arm-none-eabi\\include\\c++\\10.2.1\\cmath"
 1869              		.file 10 "c:\\program files\\daisytoolchain\\arm-none-eabi\\include\\c++\\10.2.1\\bits\\std_abs.h"
 1870              		.file 11 "c:\\program files\\daisytoolchain\\arm-none-eabi\\include\\c++\\10.2.1\\cstdlib"
 1871              		.file 12 "c:\\program files\\daisytoolchain\\arm-none-eabi\\include\\c++\\10.2.1\\cstdint"
 1872              		.file 13 "c:\\program files\\daisytoolchain\\arm-none-eabi\\include\\c++\\10.2.1\\type_traits"
 1873              		.file 14 "c:\\program files\\daisytoolchain\\arm-none-eabi\\include\\c++\\10.2.1\\debug\\debug.h"
 1874              		.file 15 "c:\\program files\\daisytoolchain\\arm-none-eabi\\include\\c++\\10.2.1\\arm-none-eabi\\t
 1875              		.file 16 "c:\\program files\\daisytoolchain\\arm-none-eabi\\include\\c++\\10.2.1\\bits\\algorithmf
 1876              		.file 17 "c:\\program files\\daisytoolchain\\arm-none-eabi\\include\\c++\\10.2.1\\bits\\stl_pair.h
 1877              		.file 18 "c:\\program files\\daisytoolchain\\arm-none-eabi\\include\\c++\\10.2.1\\bits\\exception_
 1878              		.file 19 "c:\\program files\\daisytoolchain\\arm-none-eabi\\include\\c++\\10.2.1\\cstdarg"
 1879              		.file 20 "c:\\program files\\daisytoolchain\\arm-none-eabi\\include\\c++\\10.2.1\\cstdio"
 1880              		.file 21 "c:\\program files\\daisytoolchain\\arm-none-eabi\\include\\c++\\10.2.1\\cstring"
 1881              		.file 22 "c:\\program files\\daisytoolchain\\arm-none-eabi\\include\\c++\\10.2.1\\bits\\predefined
 1882              		.file 23 "c:\\program files\\daisytoolchain\\arm-none-eabi\\include\\sys\\_types.h"
 1883              		.file 24 "c:\\program files\\daisytoolchain\\arm-none-eabi\\include\\sys\\reent.h"
 1884              		.file 25 "c:\\program files\\daisytoolchain\\arm-none-eabi\\include\\sys\\lock.h"
 1885              		.file 26 "c:\\program files\\daisytoolchain\\arm-none-eabi\\include\\math.h"
 1886              		.file 27 "c:\\program files\\daisytoolchain\\arm-none-eabi\\include\\stdlib.h"
 1887              		.file 28 "c:\\program files\\daisytoolchain\\arm-none-eabi\\include\\c++\\10.2.1\\math.h"
 1888              		.file 29 "c:\\program files\\daisytoolchain\\arm-none-eabi\\include\\c++\\10.2.1\\stdlib.h"
 1889              		.file 30 "../../libs/libDaisy/src/daisy_core.h"
 1890              		.file 31 "../../libs/libDaisy/src/per/i2c.h"
 1891              		.file 32 "../../libs/PoliTeKDSP/libs/libDaisy/src/hid/disp/graphics_common.h"
 1892              		.file 33 "../../libs/libDaisy/src/util/wav_format.h"
 1893              		.file 34 "../../libs/PoliTeKDSP/libs/libDaisy/src/dev/sr_595.h"
 1894              		.file 35 "../../libs/PoliTeKDSP/libs/libDaisy/src/dev/max11300.h"
 1895              		.file 36 "../../libs/PoliTeKDSP/libs/libDaisy/src/daisy_seed.h"
 1896              		.file 37 "c:\\program files\\daisytoolchain\\lib\\gcc\\arm-none-eabi\\10.2.1\\include\\stdarg.h"
 1897              		.file 38 "c:\\program files\\daisytoolchain\\arm-none-eabi\\include\\stdio.h"
 1898              		.file 39 "../../libs/libDaisy/src/util/oled_fonts.h"
 1899              		.file 40 "c:\\program files\\daisytoolchain\\arm-none-eabi\\include\\string.h"
 1900              		.file 41 "displayHandler.h"
 1901              		.file 42 "<built-in>"
ARM GAS  C:\Users\matte\AppData\Local\Temp\ccH6qY0h.s 			page 54

