ARM GAS  C:\Users\matte\AppData\Local\Temp\cclPkNhc.s 			page 1


   1              		.cpu cortex-m7
   2              		.eabi_attribute 28, 1
   3              		.eabi_attribute 20, 1
   4              		.eabi_attribute 21, 1
   5              		.eabi_attribute 23, 3
   6              		.eabi_attribute 24, 1
   7              		.eabi_attribute 25, 1
   8              		.eabi_attribute 26, 1
   9              		.eabi_attribute 30, 2
  10              		.eabi_attribute 34, 1
  11              		.eabi_attribute 18, 4
  12              		.file	"main.cpp"
  13              		.text
  14              	.Ltext0:
  15              		.cfi_sections	.debug_frame
  16              		.section	.text._ZN5daisy9DaisySeedD2Ev,"axG",%progbits,_ZN5daisy9DaisySeedD5Ev,comdat
  17              		.align	1
  18              		.p2align 2,,3
  19              		.weak	_ZN5daisy9DaisySeedD2Ev
  20              		.arch armv7e-m
  21              		.syntax unified
  22              		.thumb
  23              		.thumb_func
  24              		.fpu fpv5-d16
  26              	_ZN5daisy9DaisySeedD2Ev:
  27              	.LVL0:
  28              	.LFB2685:
  29              		.file 1 "../../libs/libDaisy/src/sys/../../../../libs/libDaisy/src/daisy_seed.h"
   1:../../libs/libDaisy/src/sys/../../../../libs/libDaisy/src/daisy_seed.h **** #pragma once
   2:../../libs/libDaisy/src/sys/../../../../libs/libDaisy/src/daisy_seed.h **** #ifndef DSY_SEED_H
   3:../../libs/libDaisy/src/sys/../../../../libs/libDaisy/src/daisy_seed.h **** #define DSY_SEED_H
   4:../../libs/libDaisy/src/sys/../../../../libs/libDaisy/src/daisy_seed.h **** 
   5:../../libs/libDaisy/src/sys/../../../../libs/libDaisy/src/daisy_seed.h **** #include "daisy.h"
   6:../../libs/libDaisy/src/sys/../../../../libs/libDaisy/src/daisy_seed.h **** 
   7:../../libs/libDaisy/src/sys/../../../../libs/libDaisy/src/daisy_seed.h **** //Uncomment this out if you're still using the rev2 hardware
   8:../../libs/libDaisy/src/sys/../../../../libs/libDaisy/src/daisy_seed.h **** //#define SEED_REV2
   9:../../libs/libDaisy/src/sys/../../../../libs/libDaisy/src/daisy_seed.h **** 
  10:../../libs/libDaisy/src/sys/../../../../libs/libDaisy/src/daisy_seed.h **** namespace daisy
  11:../../libs/libDaisy/src/sys/../../../../libs/libDaisy/src/daisy_seed.h **** {
  12:../../libs/libDaisy/src/sys/../../../../libs/libDaisy/src/daisy_seed.h **** /**
  13:../../libs/libDaisy/src/sys/../../../../libs/libDaisy/src/daisy_seed.h ****    @brief This is the higher-level interface for the Daisy board. \n 
  14:../../libs/libDaisy/src/sys/../../../../libs/libDaisy/src/daisy_seed.h ****     All basic peripheral configuration/initialization is setup here. \n
  15:../../libs/libDaisy/src/sys/../../../../libs/libDaisy/src/daisy_seed.h **** 
  16:../../libs/libDaisy/src/sys/../../../../libs/libDaisy/src/daisy_seed.h ****    @ingroup boards
  17:../../libs/libDaisy/src/sys/../../../../libs/libDaisy/src/daisy_seed.h **** */
  18:../../libs/libDaisy/src/sys/../../../../libs/libDaisy/src/daisy_seed.h **** class DaisySeed
  19:../../libs/libDaisy/src/sys/../../../../libs/libDaisy/src/daisy_seed.h **** {
  20:../../libs/libDaisy/src/sys/../../../../libs/libDaisy/src/daisy_seed.h ****   public:
  21:../../libs/libDaisy/src/sys/../../../../libs/libDaisy/src/daisy_seed.h ****     DaisySeed() {}
  22:../../libs/libDaisy/src/sys/../../../../libs/libDaisy/src/daisy_seed.h ****     ~DaisySeed() {}
  30              		.loc 1 22 5 view -0
  31              		.cfi_startproc
  32              		@ args = 0, pretend = 0, frame = 0
  33              		@ frame_needed = 0, uses_anonymous_args = 0
  34              		@ link register save eliminated.
  35              	.LBB463:
  36              	.LBI463:
ARM GAS  C:\Users\matte\AppData\Local\Temp\cclPkNhc.s 			page 2


  37              		.file 2 "../../libs/libDaisy/src/sys/../../../../libs/libDaisy/src/dev/codec_ak4556.h"
   1:../../libs/libDaisy/src/sys/../../../../libs/libDaisy/src/dev/codec_ak4556.h **** #pragma once
   2:../../libs/libDaisy/src/sys/../../../../libs/libDaisy/src/dev/codec_ak4556.h **** #ifndef DSY_CODEC_AK4556_H
   3:../../libs/libDaisy/src/sys/../../../../libs/libDaisy/src/dev/codec_ak4556.h **** #define DSY_CODEC_AK4556_H
   4:../../libs/libDaisy/src/sys/../../../../libs/libDaisy/src/dev/codec_ak4556.h **** 
   5:../../libs/libDaisy/src/sys/../../../../libs/libDaisy/src/dev/codec_ak4556.h **** #include "daisy_core.h"
   6:../../libs/libDaisy/src/sys/../../../../libs/libDaisy/src/dev/codec_ak4556.h **** #include "per/gpio.h"
   7:../../libs/libDaisy/src/sys/../../../../libs/libDaisy/src/dev/codec_ak4556.h **** 
   8:../../libs/libDaisy/src/sys/../../../../libs/libDaisy/src/dev/codec_ak4556.h **** namespace daisy
   9:../../libs/libDaisy/src/sys/../../../../libs/libDaisy/src/dev/codec_ak4556.h **** {
  10:../../libs/libDaisy/src/sys/../../../../libs/libDaisy/src/dev/codec_ak4556.h **** /** @brief Ak4556 Codec support 
  11:../../libs/libDaisy/src/sys/../../../../libs/libDaisy/src/dev/codec_ak4556.h ****  ** @author shensley
  12:../../libs/libDaisy/src/sys/../../../../libs/libDaisy/src/dev/codec_ak4556.h ****  ** @addtogroup codec
  13:../../libs/libDaisy/src/sys/../../../../libs/libDaisy/src/dev/codec_ak4556.h ****  ** 
  14:../../libs/libDaisy/src/sys/../../../../libs/libDaisy/src/dev/codec_ak4556.h ****  ** I don't see any real reason to have this be more than a function, but in case we want
  15:../../libs/libDaisy/src/sys/../../../../libs/libDaisy/src/dev/codec_ak4556.h ****  ** to add other functions down the road I wrapped the function in a class.
  16:../../libs/libDaisy/src/sys/../../../../libs/libDaisy/src/dev/codec_ak4556.h ****  ***/
  17:../../libs/libDaisy/src/sys/../../../../libs/libDaisy/src/dev/codec_ak4556.h **** class Ak4556
  18:../../libs/libDaisy/src/sys/../../../../libs/libDaisy/src/dev/codec_ak4556.h **** {
  19:../../libs/libDaisy/src/sys/../../../../libs/libDaisy/src/dev/codec_ak4556.h ****   public:
  20:../../libs/libDaisy/src/sys/../../../../libs/libDaisy/src/dev/codec_ak4556.h ****     Ak4556() {}
  21:../../libs/libDaisy/src/sys/../../../../libs/libDaisy/src/dev/codec_ak4556.h ****     ~Ak4556() {}
  38              		.loc 2 21 5 view .LVU1
  39              		.loc 2 21 5 is_stmt 0 view .LVU2
  40              	.LBE463:
  41              	.LBB464:
  42              	.LBI464:
  43              		.file 3 "../../libs/libDaisy/src/sys/system.h"
   1:../../libs/libDaisy/src/sys/system.h **** #ifndef DSY_SYSTEM_H
   2:../../libs/libDaisy/src/sys/system.h **** #define DSY_SYSTEM_H
   3:../../libs/libDaisy/src/sys/system.h **** 
   4:../../libs/libDaisy/src/sys/system.h **** #ifndef UNIT_TEST // for unit tests, a dummy implementation is provided below
   5:../../libs/libDaisy/src/sys/system.h **** 
   6:../../libs/libDaisy/src/sys/system.h **** #include <cstdint>
   7:../../libs/libDaisy/src/sys/system.h **** #include "per/tim.h"
   8:../../libs/libDaisy/src/sys/system.h **** 
   9:../../libs/libDaisy/src/sys/system.h **** namespace daisy
  10:../../libs/libDaisy/src/sys/system.h **** {
  11:../../libs/libDaisy/src/sys/system.h **** /** A handle for interacting with the Core System.
  12:../../libs/libDaisy/src/sys/system.h ****  ** This includes the Clock tree, MPU, global DMA initialization,
  13:../../libs/libDaisy/src/sys/system.h ****  ** cache handling, and any other necessary global initiailzation
  14:../../libs/libDaisy/src/sys/system.h ****  **
  15:../../libs/libDaisy/src/sys/system.h ****  ** @author shensley
  16:../../libs/libDaisy/src/sys/system.h ****  ** @ingroup system
  17:../../libs/libDaisy/src/sys/system.h ****  */
  18:../../libs/libDaisy/src/sys/system.h **** class System
  19:../../libs/libDaisy/src/sys/system.h **** {
  20:../../libs/libDaisy/src/sys/system.h ****   public:
  21:../../libs/libDaisy/src/sys/system.h ****     /** Contains settings for initializing the System */
  22:../../libs/libDaisy/src/sys/system.h ****     struct Config
  23:../../libs/libDaisy/src/sys/system.h ****     {
  24:../../libs/libDaisy/src/sys/system.h ****         /** Specifies the system clock frequency that feeds APB/AHB clocks, etc. */
  25:../../libs/libDaisy/src/sys/system.h ****         enum class SysClkFreq
  26:../../libs/libDaisy/src/sys/system.h ****         {
  27:../../libs/libDaisy/src/sys/system.h ****             FREQ_400MHZ,
  28:../../libs/libDaisy/src/sys/system.h ****             FREQ_480MHZ,
  29:../../libs/libDaisy/src/sys/system.h ****         };
ARM GAS  C:\Users\matte\AppData\Local\Temp\cclPkNhc.s 			page 3


  30:../../libs/libDaisy/src/sys/system.h **** 
  31:../../libs/libDaisy/src/sys/system.h ****         /** Method to call on the struct to set to defaults
  32:../../libs/libDaisy/src/sys/system.h ****          ** CPU Freq set to 400MHz
  33:../../libs/libDaisy/src/sys/system.h ****          ** Cache Enabled
  34:../../libs/libDaisy/src/sys/system.h ****          ** */
  35:../../libs/libDaisy/src/sys/system.h ****         void Defaults()
  36:../../libs/libDaisy/src/sys/system.h ****         {
  37:../../libs/libDaisy/src/sys/system.h ****             cpu_freq    = SysClkFreq::FREQ_400MHZ;
  38:../../libs/libDaisy/src/sys/system.h ****             use_dcache  = true;
  39:../../libs/libDaisy/src/sys/system.h ****             use_icache  = true;
  40:../../libs/libDaisy/src/sys/system.h ****             skip_clocks = false;
  41:../../libs/libDaisy/src/sys/system.h ****         }
  42:../../libs/libDaisy/src/sys/system.h **** 
  43:../../libs/libDaisy/src/sys/system.h ****         /** Method to call on the struct to set to boost mode:
  44:../../libs/libDaisy/src/sys/system.h ****          ** CPU Freq set to 480MHz
  45:../../libs/libDaisy/src/sys/system.h ****          ** Cache Enabled
  46:../../libs/libDaisy/src/sys/system.h ****          ** */
  47:../../libs/libDaisy/src/sys/system.h ****         void Boost()
  48:../../libs/libDaisy/src/sys/system.h ****         {
  49:../../libs/libDaisy/src/sys/system.h ****             cpu_freq    = SysClkFreq::FREQ_480MHZ;
  50:../../libs/libDaisy/src/sys/system.h ****             use_dcache  = true;
  51:../../libs/libDaisy/src/sys/system.h ****             use_icache  = true;
  52:../../libs/libDaisy/src/sys/system.h ****             skip_clocks = false;
  53:../../libs/libDaisy/src/sys/system.h ****         }
  54:../../libs/libDaisy/src/sys/system.h **** 
  55:../../libs/libDaisy/src/sys/system.h ****         SysClkFreq cpu_freq;
  56:../../libs/libDaisy/src/sys/system.h ****         bool       use_dcache;
  57:../../libs/libDaisy/src/sys/system.h ****         bool       use_icache;
  58:../../libs/libDaisy/src/sys/system.h ****         bool       skip_clocks;
  59:../../libs/libDaisy/src/sys/system.h ****     };
  60:../../libs/libDaisy/src/sys/system.h **** 
  61:../../libs/libDaisy/src/sys/system.h ****     /** Describes the different regions of memory available to the Daisy */
  62:../../libs/libDaisy/src/sys/system.h ****     enum MemoryRegion
  63:../../libs/libDaisy/src/sys/system.h ****     {
  64:../../libs/libDaisy/src/sys/system.h ****         INTERNAL_FLASH = 0,
  65:../../libs/libDaisy/src/sys/system.h ****         ITCMRAM,
  66:../../libs/libDaisy/src/sys/system.h ****         DTCMRAM,
  67:../../libs/libDaisy/src/sys/system.h ****         SRAM_D1,
  68:../../libs/libDaisy/src/sys/system.h ****         SRAM_D2,
  69:../../libs/libDaisy/src/sys/system.h ****         SRAM_D3,
  70:../../libs/libDaisy/src/sys/system.h ****         SDRAM,
  71:../../libs/libDaisy/src/sys/system.h ****         QSPI,
  72:../../libs/libDaisy/src/sys/system.h ****         INVALID_ADDRESS,
  73:../../libs/libDaisy/src/sys/system.h ****     };
  74:../../libs/libDaisy/src/sys/system.h **** 
  75:../../libs/libDaisy/src/sys/system.h ****     /** Bootloader struct for controlling bootloading parameters */
  76:../../libs/libDaisy/src/sys/system.h ****     struct BootInfo
  77:../../libs/libDaisy/src/sys/system.h ****     {
  78:../../libs/libDaisy/src/sys/system.h ****         enum class Type : uint32_t
  79:../../libs/libDaisy/src/sys/system.h ****         {
  80:../../libs/libDaisy/src/sys/system.h ****             INVALID      = 0x00000000,
  81:../../libs/libDaisy/src/sys/system.h ****             JUMP         = 0xDEADBEEF,
  82:../../libs/libDaisy/src/sys/system.h ****             SKIP_TIMEOUT = 0x5AFEB007,
  83:../../libs/libDaisy/src/sys/system.h ****             INF_TIMEOUT  = 0xB0074EFA,
  84:../../libs/libDaisy/src/sys/system.h ****         } status;
  85:../../libs/libDaisy/src/sys/system.h ****         uint32_t data;
  86:../../libs/libDaisy/src/sys/system.h ****         enum class Version : uint32_t
ARM GAS  C:\Users\matte\AppData\Local\Temp\cclPkNhc.s 			page 4


  87:../../libs/libDaisy/src/sys/system.h ****         {
  88:../../libs/libDaisy/src/sys/system.h ****             LT_v6_0 = 0, // Less than v6.0
  89:../../libs/libDaisy/src/sys/system.h ****             NONE,        // No bootloader present
  90:../../libs/libDaisy/src/sys/system.h ****             v6_0,        // v6.0
  91:../../libs/libDaisy/src/sys/system.h ****             v6_1,        // v6.1 or greater
  92:../../libs/libDaisy/src/sys/system.h ****             LAST
  93:../../libs/libDaisy/src/sys/system.h ****         } version;
  94:../../libs/libDaisy/src/sys/system.h ****     };
  95:../../libs/libDaisy/src/sys/system.h **** 
  96:../../libs/libDaisy/src/sys/system.h ****     System() {}
  97:../../libs/libDaisy/src/sys/system.h ****     ~System() {}
  44              		.loc 3 97 5 is_stmt 1 view .LVU3
  45              		.loc 3 97 5 is_stmt 0 view .LVU4
  46              	.LBE464:
  47              	.LBB465:
  48              	.LBI465:
  49              		.file 4 "../../libs/libDaisy/src/hid/usb.h"
   1:../../libs/libDaisy/src/hid/usb.h **** #pragma once
   2:../../libs/libDaisy/src/hid/usb.h **** #ifndef DSY_HID_USB_H
   3:../../libs/libDaisy/src/hid/usb.h **** #define DSY_HID_USB_H
   4:../../libs/libDaisy/src/hid/usb.h **** #include <stdint.h>
   5:../../libs/libDaisy/src/hid/usb.h **** #include <stdlib.h>
   6:../../libs/libDaisy/src/hid/usb.h **** 
   7:../../libs/libDaisy/src/hid/usb.h **** namespace daisy
   8:../../libs/libDaisy/src/hid/usb.h **** /** @addtogroup human_interface
   9:../../libs/libDaisy/src/hid/usb.h ****     @{
  10:../../libs/libDaisy/src/hid/usb.h **** */
  11:../../libs/libDaisy/src/hid/usb.h **** 
  12:../../libs/libDaisy/src/hid/usb.h **** {
  13:../../libs/libDaisy/src/hid/usb.h **** /** 
  14:../../libs/libDaisy/src/hid/usb.h ****     @brief Interface for initializing and using the USB Peripherals on the daisy
  15:../../libs/libDaisy/src/hid/usb.h ****     @author Stephen Hensley
  16:../../libs/libDaisy/src/hid/usb.h ****     @date December 2019
  17:../../libs/libDaisy/src/hid/usb.h **** */
  18:../../libs/libDaisy/src/hid/usb.h **** class UsbHandle
  19:../../libs/libDaisy/src/hid/usb.h **** {
  20:../../libs/libDaisy/src/hid/usb.h ****   public:
  21:../../libs/libDaisy/src/hid/usb.h ****     /** Return values for USBHandle Functions */
  22:../../libs/libDaisy/src/hid/usb.h ****     enum class Result
  23:../../libs/libDaisy/src/hid/usb.h ****     {
  24:../../libs/libDaisy/src/hid/usb.h ****         OK,
  25:../../libs/libDaisy/src/hid/usb.h ****         ERR,
  26:../../libs/libDaisy/src/hid/usb.h ****     };
  27:../../libs/libDaisy/src/hid/usb.h **** 
  28:../../libs/libDaisy/src/hid/usb.h ****     /** Specified which of the two USB Peripherals to initialize. */
  29:../../libs/libDaisy/src/hid/usb.h ****     enum UsbPeriph
  30:../../libs/libDaisy/src/hid/usb.h ****     {
  31:../../libs/libDaisy/src/hid/usb.h ****         FS_INTERNAL, /**< Internal pin */
  32:../../libs/libDaisy/src/hid/usb.h ****         FS_EXTERNAL, /**< FS External D+ pin is Pin 38 (GPIO32). FS External D- pin is Pin 37 (GPIO
  33:../../libs/libDaisy/src/hid/usb.h ****         FS_BOTH,     /**< Both */
  34:../../libs/libDaisy/src/hid/usb.h ****     };
  35:../../libs/libDaisy/src/hid/usb.h **** 
  36:../../libs/libDaisy/src/hid/usb.h **** 
  37:../../libs/libDaisy/src/hid/usb.h ****     /** Function called upon reception of a buffer */
  38:../../libs/libDaisy/src/hid/usb.h ****     typedef void (*ReceiveCallback)(uint8_t* buff, uint32_t* len);
  39:../../libs/libDaisy/src/hid/usb.h **** 
  40:../../libs/libDaisy/src/hid/usb.h ****     UsbHandle() {}
ARM GAS  C:\Users\matte\AppData\Local\Temp\cclPkNhc.s 			page 5


  41:../../libs/libDaisy/src/hid/usb.h **** 
  42:../../libs/libDaisy/src/hid/usb.h ****     ~UsbHandle() {}
  50              		.loc 4 42 5 is_stmt 1 view .LVU5
  51              		.loc 4 42 5 is_stmt 0 view .LVU6
  52              	.LBE465:
  53              	.LBB466:
  54              	.LBI466:
  55              		.file 5 "../../libs/libDaisy/src/sys/../../../../libs/libDaisy/src/per/adc.h"
   1:../../libs/libDaisy/src/sys/../../../../libs/libDaisy/src/per/adc.h **** #pragma once
   2:../../libs/libDaisy/src/sys/../../../../libs/libDaisy/src/per/adc.h **** #ifndef DSY_ADC_H
   3:../../libs/libDaisy/src/sys/../../../../libs/libDaisy/src/per/adc.h **** #define DSY_ADC_H /**< Macro */
   4:../../libs/libDaisy/src/sys/../../../../libs/libDaisy/src/per/adc.h **** #include <stdint.h>
   5:../../libs/libDaisy/src/sys/../../../../libs/libDaisy/src/per/adc.h **** #include <stdlib.h>
   6:../../libs/libDaisy/src/sys/../../../../libs/libDaisy/src/per/adc.h **** #include "daisy_core.h"
   7:../../libs/libDaisy/src/sys/../../../../libs/libDaisy/src/per/adc.h **** #include "per/gpio.h"
   8:../../libs/libDaisy/src/sys/../../../../libs/libDaisy/src/per/adc.h **** 
   9:../../libs/libDaisy/src/sys/../../../../libs/libDaisy/src/per/adc.h **** #define DSY_ADC_MAX_CHANNELS 16 /**< Maximum number of ADC channels */
  10:../../libs/libDaisy/src/sys/../../../../libs/libDaisy/src/per/adc.h **** 
  11:../../libs/libDaisy/src/sys/../../../../libs/libDaisy/src/per/adc.h **** namespace daisy
  12:../../libs/libDaisy/src/sys/../../../../libs/libDaisy/src/per/adc.h **** {
  13:../../libs/libDaisy/src/sys/../../../../libs/libDaisy/src/per/adc.h **** /** @addtogroup per_analog
  14:../../libs/libDaisy/src/sys/../../../../libs/libDaisy/src/per/adc.h ****     @{
  15:../../libs/libDaisy/src/sys/../../../../libs/libDaisy/src/per/adc.h **** */
  16:../../libs/libDaisy/src/sys/../../../../libs/libDaisy/src/per/adc.h **** 
  17:../../libs/libDaisy/src/sys/../../../../libs/libDaisy/src/per/adc.h **** /* While there may not be many configuration options here,
  18:../../libs/libDaisy/src/sys/../../../../libs/libDaisy/src/per/adc.h **** using a struct like this allows us to add more configuration
  19:../../libs/libDaisy/src/sys/../../../../libs/libDaisy/src/per/adc.h **** later without breaking existing functionality.
  20:../../libs/libDaisy/src/sys/../../../../libs/libDaisy/src/per/adc.h **** */
  21:../../libs/libDaisy/src/sys/../../../../libs/libDaisy/src/per/adc.h **** 
  22:../../libs/libDaisy/src/sys/../../../../libs/libDaisy/src/per/adc.h **** /** @brief   Configuration Structure for an ADC Channel 
  23:../../libs/libDaisy/src/sys/../../../../libs/libDaisy/src/per/adc.h ****  *  @details This can be used to configure a a single input, 
  24:../../libs/libDaisy/src/sys/../../../../libs/libDaisy/src/per/adc.h ****  *           or a multiplexed input, allowing up to 8 inputs on 
  25:../../libs/libDaisy/src/sys/../../../../libs/libDaisy/src/per/adc.h ****  *           one channel.
  26:../../libs/libDaisy/src/sys/../../../../libs/libDaisy/src/per/adc.h ****  *  @note    Sharing data lines to multiple muxes _is_ possible, but
  27:../../libs/libDaisy/src/sys/../../../../libs/libDaisy/src/per/adc.h ****  *           each channel sharing data lines must be set to the maximum
  28:../../libs/libDaisy/src/sys/../../../../libs/libDaisy/src/per/adc.h ****  *           number of channels, even if some multiplexers have fewer
  29:../../libs/libDaisy/src/sys/../../../../libs/libDaisy/src/per/adc.h ****  *           inputs connected.
  30:../../libs/libDaisy/src/sys/../../../../libs/libDaisy/src/per/adc.h **** */
  31:../../libs/libDaisy/src/sys/../../../../libs/libDaisy/src/per/adc.h **** struct AdcChannelConfig
  32:../../libs/libDaisy/src/sys/../../../../libs/libDaisy/src/per/adc.h **** {
  33:../../libs/libDaisy/src/sys/../../../../libs/libDaisy/src/per/adc.h ****     /** Which pin to use for multiplexing */
  34:../../libs/libDaisy/src/sys/../../../../libs/libDaisy/src/per/adc.h ****     enum MuxPin
  35:../../libs/libDaisy/src/sys/../../../../libs/libDaisy/src/per/adc.h ****     {
  36:../../libs/libDaisy/src/sys/../../../../libs/libDaisy/src/per/adc.h ****         MUX_SEL_0,    /**< & */
  37:../../libs/libDaisy/src/sys/../../../../libs/libDaisy/src/per/adc.h ****         MUX_SEL_1,    /**< & */
  38:../../libs/libDaisy/src/sys/../../../../libs/libDaisy/src/per/adc.h ****         MUX_SEL_2,    /**< & */
  39:../../libs/libDaisy/src/sys/../../../../libs/libDaisy/src/per/adc.h ****         MUX_SEL_LAST, /**< & */
  40:../../libs/libDaisy/src/sys/../../../../libs/libDaisy/src/per/adc.h ****     };
  41:../../libs/libDaisy/src/sys/../../../../libs/libDaisy/src/per/adc.h **** 
  42:../../libs/libDaisy/src/sys/../../../../libs/libDaisy/src/per/adc.h ****     /** \brief per channel conversion speed added to fixed time based on bitdepth, etc. */
  43:../../libs/libDaisy/src/sys/../../../../libs/libDaisy/src/per/adc.h ****     enum ConversionSpeed
  44:../../libs/libDaisy/src/sys/../../../../libs/libDaisy/src/per/adc.h ****     {
  45:../../libs/libDaisy/src/sys/../../../../libs/libDaisy/src/per/adc.h ****         SPEED_1CYCLES_5,
  46:../../libs/libDaisy/src/sys/../../../../libs/libDaisy/src/per/adc.h ****         SPEED_2CYCLES_5,
  47:../../libs/libDaisy/src/sys/../../../../libs/libDaisy/src/per/adc.h ****         SPEED_8CYCLES_5,
  48:../../libs/libDaisy/src/sys/../../../../libs/libDaisy/src/per/adc.h ****         SPEED_16CYCLES_5,
  49:../../libs/libDaisy/src/sys/../../../../libs/libDaisy/src/per/adc.h ****         SPEED_32CYCLES_5,
ARM GAS  C:\Users\matte\AppData\Local\Temp\cclPkNhc.s 			page 6


  50:../../libs/libDaisy/src/sys/../../../../libs/libDaisy/src/per/adc.h ****         SPEED_64CYCLES_5,
  51:../../libs/libDaisy/src/sys/../../../../libs/libDaisy/src/per/adc.h ****         SPEED_387CYCLES_5,
  52:../../libs/libDaisy/src/sys/../../../../libs/libDaisy/src/per/adc.h ****         SPEED_810CYCLES_5,
  53:../../libs/libDaisy/src/sys/../../../../libs/libDaisy/src/per/adc.h ****     };
  54:../../libs/libDaisy/src/sys/../../../../libs/libDaisy/src/per/adc.h **** 
  55:../../libs/libDaisy/src/sys/../../../../libs/libDaisy/src/per/adc.h ****     /** Initializes a single ADC pin as an ADC. 
  56:../../libs/libDaisy/src/sys/../../../../libs/libDaisy/src/per/adc.h ****     \param pin Pin to init.
  57:../../libs/libDaisy/src/sys/../../../../libs/libDaisy/src/per/adc.h ****     \param speed conversion speed for this pin defaults to 8.5 cycles
  58:../../libs/libDaisy/src/sys/../../../../libs/libDaisy/src/per/adc.h ****      */
  59:../../libs/libDaisy/src/sys/../../../../libs/libDaisy/src/per/adc.h ****     void InitSingle(Pin pin, ConversionSpeed speed = SPEED_8CYCLES_5);
  60:../../libs/libDaisy/src/sys/../../../../libs/libDaisy/src/per/adc.h **** 
  61:../../libs/libDaisy/src/sys/../../../../libs/libDaisy/src/per/adc.h ****     /** 
  62:../../libs/libDaisy/src/sys/../../../../libs/libDaisy/src/per/adc.h ****     Initializes a single ADC pin as a Multiplexed ADC.
  63:../../libs/libDaisy/src/sys/../../../../libs/libDaisy/src/per/adc.h ****     Requires a CD405X Multiplexer connected to the pin.
  64:../../libs/libDaisy/src/sys/../../../../libs/libDaisy/src/per/adc.h ****     You only need to supply the mux pins that are required,
  65:../../libs/libDaisy/src/sys/../../../../libs/libDaisy/src/per/adc.h ****     e.g. a 4052 mux would only require mux_0 and mux_1.
  66:../../libs/libDaisy/src/sys/../../../../libs/libDaisy/src/per/adc.h ****     Internal Callbacks handle the pin addressing.
  67:../../libs/libDaisy/src/sys/../../../../libs/libDaisy/src/per/adc.h ****     \param adc_pin &
  68:../../libs/libDaisy/src/sys/../../../../libs/libDaisy/src/per/adc.h ****     \param mux_channels must be 1-8
  69:../../libs/libDaisy/src/sys/../../../../libs/libDaisy/src/per/adc.h ****     \param mux_0 First mux pin
  70:../../libs/libDaisy/src/sys/../../../../libs/libDaisy/src/per/adc.h ****     \param mux_1 Second mux pin
  71:../../libs/libDaisy/src/sys/../../../../libs/libDaisy/src/per/adc.h ****     \param mux_2 Third mux pin
  72:../../libs/libDaisy/src/sys/../../../../libs/libDaisy/src/per/adc.h ****     \param speed conversion speed for this pin defaults to 8.5 cycles
  73:../../libs/libDaisy/src/sys/../../../../libs/libDaisy/src/per/adc.h ****     */
  74:../../libs/libDaisy/src/sys/../../../../libs/libDaisy/src/per/adc.h ****     void InitMux(Pin             adc_pin,
  75:../../libs/libDaisy/src/sys/../../../../libs/libDaisy/src/per/adc.h ****                  size_t          mux_channels,
  76:../../libs/libDaisy/src/sys/../../../../libs/libDaisy/src/per/adc.h ****                  Pin             mux_0,
  77:../../libs/libDaisy/src/sys/../../../../libs/libDaisy/src/per/adc.h ****                  Pin             mux_1 = Pin(PORTX, 0),
  78:../../libs/libDaisy/src/sys/../../../../libs/libDaisy/src/per/adc.h ****                  Pin             mux_2 = Pin(PORTX, 0),
  79:../../libs/libDaisy/src/sys/../../../../libs/libDaisy/src/per/adc.h ****                  ConversionSpeed speed = SPEED_8CYCLES_5);
  80:../../libs/libDaisy/src/sys/../../../../libs/libDaisy/src/per/adc.h **** 
  81:../../libs/libDaisy/src/sys/../../../../libs/libDaisy/src/per/adc.h ****     GPIO            pin_;                   /**< & */
  82:../../libs/libDaisy/src/sys/../../../../libs/libDaisy/src/per/adc.h ****     GPIO            mux_pin_[MUX_SEL_LAST]; /**< & */
  83:../../libs/libDaisy/src/sys/../../../../libs/libDaisy/src/per/adc.h ****     uint8_t         mux_channels_;          /**< & */
  84:../../libs/libDaisy/src/sys/../../../../libs/libDaisy/src/per/adc.h ****     ConversionSpeed speed_;
  85:../../libs/libDaisy/src/sys/../../../../libs/libDaisy/src/per/adc.h **** };
  86:../../libs/libDaisy/src/sys/../../../../libs/libDaisy/src/per/adc.h **** 
  87:../../libs/libDaisy/src/sys/../../../../libs/libDaisy/src/per/adc.h **** /**
  88:../../libs/libDaisy/src/sys/../../../../libs/libDaisy/src/per/adc.h ****    @brief Handler for analog to digital conversion
  89:../../libs/libDaisy/src/sys/../../../../libs/libDaisy/src/per/adc.h **** */
  90:../../libs/libDaisy/src/sys/../../../../libs/libDaisy/src/per/adc.h **** class AdcHandle
  91:../../libs/libDaisy/src/sys/../../../../libs/libDaisy/src/per/adc.h **** {
  92:../../libs/libDaisy/src/sys/../../../../libs/libDaisy/src/per/adc.h ****   public:
  93:../../libs/libDaisy/src/sys/../../../../libs/libDaisy/src/per/adc.h ****     /** Supported oversampling amounts */
  94:../../libs/libDaisy/src/sys/../../../../libs/libDaisy/src/per/adc.h ****     enum OverSampling
  95:../../libs/libDaisy/src/sys/../../../../libs/libDaisy/src/per/adc.h ****     {
  96:../../libs/libDaisy/src/sys/../../../../libs/libDaisy/src/per/adc.h ****         OVS_NONE, /**< & */
  97:../../libs/libDaisy/src/sys/../../../../libs/libDaisy/src/per/adc.h ****         OVS_4,    /**< & */
  98:../../libs/libDaisy/src/sys/../../../../libs/libDaisy/src/per/adc.h ****         OVS_8,    /**< & */
  99:../../libs/libDaisy/src/sys/../../../../libs/libDaisy/src/per/adc.h ****         OVS_16,   /**< & */
 100:../../libs/libDaisy/src/sys/../../../../libs/libDaisy/src/per/adc.h ****         OVS_32,   /**< & */
 101:../../libs/libDaisy/src/sys/../../../../libs/libDaisy/src/per/adc.h ****         OVS_64,   /**< & */
 102:../../libs/libDaisy/src/sys/../../../../libs/libDaisy/src/per/adc.h ****         OVS_128,  /**< & */
 103:../../libs/libDaisy/src/sys/../../../../libs/libDaisy/src/per/adc.h ****         OVS_256,  /**< & */
 104:../../libs/libDaisy/src/sys/../../../../libs/libDaisy/src/per/adc.h ****         OVS_512,  /**< & */
 105:../../libs/libDaisy/src/sys/../../../../libs/libDaisy/src/per/adc.h ****         OVS_1024, /**< & */
 106:../../libs/libDaisy/src/sys/../../../../libs/libDaisy/src/per/adc.h ****         OVS_LAST, /**< & */
ARM GAS  C:\Users\matte\AppData\Local\Temp\cclPkNhc.s 			page 7


 107:../../libs/libDaisy/src/sys/../../../../libs/libDaisy/src/per/adc.h ****     };
 108:../../libs/libDaisy/src/sys/../../../../libs/libDaisy/src/per/adc.h **** 
 109:../../libs/libDaisy/src/sys/../../../../libs/libDaisy/src/per/adc.h ****     AdcHandle() {}
 110:../../libs/libDaisy/src/sys/../../../../libs/libDaisy/src/per/adc.h ****     ~AdcHandle() {}
  56              		.loc 5 110 5 is_stmt 1 view .LVU7
  57              		.loc 5 110 5 is_stmt 0 view .LVU8
  58              	.LBE466:
  59              	.LBB467:
  60              	.LBI467:
  61              		.file 6 "../../libs/libDaisy/src/sys/../../../../libs/libDaisy/src/hid/audio.h"
   1:../../libs/libDaisy/src/sys/../../../../libs/libDaisy/src/hid/audio.h **** #ifndef DSY_AUDIO_H
   2:../../libs/libDaisy/src/sys/../../../../libs/libDaisy/src/hid/audio.h **** #define DSY_AUDIO_H /**< & */
   3:../../libs/libDaisy/src/sys/../../../../libs/libDaisy/src/hid/audio.h **** 
   4:../../libs/libDaisy/src/sys/../../../../libs/libDaisy/src/hid/audio.h **** #include "per/sai.h"
   5:../../libs/libDaisy/src/sys/../../../../libs/libDaisy/src/hid/audio.h **** 
   6:../../libs/libDaisy/src/sys/../../../../libs/libDaisy/src/hid/audio.h **** namespace daisy
   7:../../libs/libDaisy/src/sys/../../../../libs/libDaisy/src/hid/audio.h **** {
   8:../../libs/libDaisy/src/sys/../../../../libs/libDaisy/src/hid/audio.h **** /** @brief Audio Engine Handle
   9:../../libs/libDaisy/src/sys/../../../../libs/libDaisy/src/hid/audio.h ****  *  @ingroup audio 
  10:../../libs/libDaisy/src/sys/../../../../libs/libDaisy/src/hid/audio.h ****  *  @details This class allows for higher level access to an audio engine.
  11:../../libs/libDaisy/src/sys/../../../../libs/libDaisy/src/hid/audio.h ****  *           If you're using a SOM like the DaisySeed or DaisyPatchSM (or any 
  12:../../libs/libDaisy/src/sys/../../../../libs/libDaisy/src/hid/audio.h ****  *            board that includes one of those objects) then the intialization
  13:../../libs/libDaisy/src/sys/../../../../libs/libDaisy/src/hid/audio.h ****  *            is already taken  care of.
  14:../../libs/libDaisy/src/sys/../../../../libs/libDaisy/src/hid/audio.h ****  *           If you're setting up your own custom hardware, or need to make changes
  15:../../libs/libDaisy/src/sys/../../../../libs/libDaisy/src/hid/audio.h ****  *           you will have to take the following steps:
  16:../../libs/libDaisy/src/sys/../../../../libs/libDaisy/src/hid/audio.h ****  *             1. Create and Initialize an SaiHandle or two depending on your requirements
  17:../../libs/libDaisy/src/sys/../../../../libs/libDaisy/src/hid/audio.h ****  *             2. Initialize the Audio Handle with the desired settings and the Initialized SaiHand
  18:../../libs/libDaisy/src/sys/../../../../libs/libDaisy/src/hid/audio.h ****  *             3. If the connected codec requires special configuration or initialization, do so
  19:../../libs/libDaisy/src/sys/../../../../libs/libDaisy/src/hid/audio.h ****  *             4. Write a callback method using either the AudioCallback or the InterleavingAudioCa
  20:../../libs/libDaisy/src/sys/../../../../libs/libDaisy/src/hid/audio.h ****  *             5. Start the Audio using one of the StartAudio function
  21:../../libs/libDaisy/src/sys/../../../../libs/libDaisy/src/hid/audio.h ****  */
  22:../../libs/libDaisy/src/sys/../../../../libs/libDaisy/src/hid/audio.h **** class AudioHandle
  23:../../libs/libDaisy/src/sys/../../../../libs/libDaisy/src/hid/audio.h **** {
  24:../../libs/libDaisy/src/sys/../../../../libs/libDaisy/src/hid/audio.h ****   public:
  25:../../libs/libDaisy/src/sys/../../../../libs/libDaisy/src/hid/audio.h ****     /** Manually configurable details about the Audio Engine */
  26:../../libs/libDaisy/src/sys/../../../../libs/libDaisy/src/hid/audio.h ****     /** TODO: Figure out how to get samplerate in here. */
  27:../../libs/libDaisy/src/sys/../../../../libs/libDaisy/src/hid/audio.h ****     struct Config
  28:../../libs/libDaisy/src/sys/../../../../libs/libDaisy/src/hid/audio.h ****     {
  29:../../libs/libDaisy/src/sys/../../../../libs/libDaisy/src/hid/audio.h ****         /** number of samples to process per callback */
  30:../../libs/libDaisy/src/sys/../../../../libs/libDaisy/src/hid/audio.h ****         size_t blocksize = 48;
  31:../../libs/libDaisy/src/sys/../../../../libs/libDaisy/src/hid/audio.h **** 
  32:../../libs/libDaisy/src/sys/../../../../libs/libDaisy/src/hid/audio.h ****         /**< Sample rate of audio */
  33:../../libs/libDaisy/src/sys/../../../../libs/libDaisy/src/hid/audio.h ****         SaiHandle::Config::SampleRate samplerate
  34:../../libs/libDaisy/src/sys/../../../../libs/libDaisy/src/hid/audio.h ****             = SaiHandle::Config::SampleRate::SAI_48KHZ;
  35:../../libs/libDaisy/src/sys/../../../../libs/libDaisy/src/hid/audio.h **** 
  36:../../libs/libDaisy/src/sys/../../../../libs/libDaisy/src/hid/audio.h ****         /** factor for adjustment before and after callback for hardware that may have extra headro
  37:../../libs/libDaisy/src/sys/../../../../libs/libDaisy/src/hid/audio.h ****         float postgain = 1.f;
  38:../../libs/libDaisy/src/sys/../../../../libs/libDaisy/src/hid/audio.h **** 
  39:../../libs/libDaisy/src/sys/../../../../libs/libDaisy/src/hid/audio.h ****         /** factor for additional one-sided compensation to audio path for hardware that may
  40:../../libs/libDaisy/src/sys/../../../../libs/libDaisy/src/hid/audio.h ****          *  have unequal input/output ranges
  41:../../libs/libDaisy/src/sys/../../../../libs/libDaisy/src/hid/audio.h ****          */
  42:../../libs/libDaisy/src/sys/../../../../libs/libDaisy/src/hid/audio.h ****         float output_compensation = 1.f;
  43:../../libs/libDaisy/src/sys/../../../../libs/libDaisy/src/hid/audio.h ****     };
  44:../../libs/libDaisy/src/sys/../../../../libs/libDaisy/src/hid/audio.h **** 
  45:../../libs/libDaisy/src/sys/../../../../libs/libDaisy/src/hid/audio.h ****     enum class Result
  46:../../libs/libDaisy/src/sys/../../../../libs/libDaisy/src/hid/audio.h ****     {
  47:../../libs/libDaisy/src/sys/../../../../libs/libDaisy/src/hid/audio.h ****         OK,
ARM GAS  C:\Users\matte\AppData\Local\Temp\cclPkNhc.s 			page 8


  48:../../libs/libDaisy/src/sys/../../../../libs/libDaisy/src/hid/audio.h ****         ERR,
  49:../../libs/libDaisy/src/sys/../../../../libs/libDaisy/src/hid/audio.h ****     };
  50:../../libs/libDaisy/src/sys/../../../../libs/libDaisy/src/hid/audio.h **** 
  51:../../libs/libDaisy/src/sys/../../../../libs/libDaisy/src/hid/audio.h ****     /** Non-Interleaving input buffer
  52:../../libs/libDaisy/src/sys/../../../../libs/libDaisy/src/hid/audio.h ****      * Buffer arranged by float[chn][sample] 
  53:../../libs/libDaisy/src/sys/../../../../libs/libDaisy/src/hid/audio.h ****      * const so that the user can't modify the input
  54:../../libs/libDaisy/src/sys/../../../../libs/libDaisy/src/hid/audio.h ****      */
  55:../../libs/libDaisy/src/sys/../../../../libs/libDaisy/src/hid/audio.h ****     typedef const float* const* InputBuffer;
  56:../../libs/libDaisy/src/sys/../../../../libs/libDaisy/src/hid/audio.h **** 
  57:../../libs/libDaisy/src/sys/../../../../libs/libDaisy/src/hid/audio.h ****     /** Non-Interleaving output buffer
  58:../../libs/libDaisy/src/sys/../../../../libs/libDaisy/src/hid/audio.h ****      * Arranged by float[chn][sample] 
  59:../../libs/libDaisy/src/sys/../../../../libs/libDaisy/src/hid/audio.h ****      */
  60:../../libs/libDaisy/src/sys/../../../../libs/libDaisy/src/hid/audio.h ****     typedef float** OutputBuffer;
  61:../../libs/libDaisy/src/sys/../../../../libs/libDaisy/src/hid/audio.h **** 
  62:../../libs/libDaisy/src/sys/../../../../libs/libDaisy/src/hid/audio.h ****     /** Type for a Non-Interleaving audio callback 
  63:../../libs/libDaisy/src/sys/../../../../libs/libDaisy/src/hid/audio.h ****      * Non-Interleaving audio callbacks in daisy will be of this type
  64:../../libs/libDaisy/src/sys/../../../../libs/libDaisy/src/hid/audio.h ****      */
  65:../../libs/libDaisy/src/sys/../../../../libs/libDaisy/src/hid/audio.h ****     typedef void (*AudioCallback)(InputBuffer  in,
  66:../../libs/libDaisy/src/sys/../../../../libs/libDaisy/src/hid/audio.h ****                                   OutputBuffer out,
  67:../../libs/libDaisy/src/sys/../../../../libs/libDaisy/src/hid/audio.h ****                                   size_t       size);
  68:../../libs/libDaisy/src/sys/../../../../libs/libDaisy/src/hid/audio.h **** 
  69:../../libs/libDaisy/src/sys/../../../../libs/libDaisy/src/hid/audio.h ****     /** Interleaving Input buffer
  70:../../libs/libDaisy/src/sys/../../../../libs/libDaisy/src/hid/audio.h ****      ** audio is prepared as { L0, R0, L1, R1, . . . LN, RN }]
  71:../../libs/libDaisy/src/sys/../../../../libs/libDaisy/src/hid/audio.h ****      ** this is const, as the user shouldn't modify it
  72:../../libs/libDaisy/src/sys/../../../../libs/libDaisy/src/hid/audio.h ****     */
  73:../../libs/libDaisy/src/sys/../../../../libs/libDaisy/src/hid/audio.h ****     typedef const float* InterleavingInputBuffer;
  74:../../libs/libDaisy/src/sys/../../../../libs/libDaisy/src/hid/audio.h **** 
  75:../../libs/libDaisy/src/sys/../../../../libs/libDaisy/src/hid/audio.h ****     /** Interleaving Output buffer 
  76:../../libs/libDaisy/src/sys/../../../../libs/libDaisy/src/hid/audio.h ****      ** audio is prepared as { L0, R0, L1, R1, . . . LN, RN }
  77:../../libs/libDaisy/src/sys/../../../../libs/libDaisy/src/hid/audio.h ****     */
  78:../../libs/libDaisy/src/sys/../../../../libs/libDaisy/src/hid/audio.h ****     typedef float* InterleavingOutputBuffer;
  79:../../libs/libDaisy/src/sys/../../../../libs/libDaisy/src/hid/audio.h **** 
  80:../../libs/libDaisy/src/sys/../../../../libs/libDaisy/src/hid/audio.h ****     /** Interleaving Audio Callback 
  81:../../libs/libDaisy/src/sys/../../../../libs/libDaisy/src/hid/audio.h ****      * Interleaving audio callbacks in daisy must be of this type
  82:../../libs/libDaisy/src/sys/../../../../libs/libDaisy/src/hid/audio.h ****      */
  83:../../libs/libDaisy/src/sys/../../../../libs/libDaisy/src/hid/audio.h ****     typedef void (*InterleavingAudioCallback)(InterleavingInputBuffer  in,
  84:../../libs/libDaisy/src/sys/../../../../libs/libDaisy/src/hid/audio.h ****                                               InterleavingOutputBuffer out,
  85:../../libs/libDaisy/src/sys/../../../../libs/libDaisy/src/hid/audio.h ****                                               size_t                   size);
  86:../../libs/libDaisy/src/sys/../../../../libs/libDaisy/src/hid/audio.h **** 
  87:../../libs/libDaisy/src/sys/../../../../libs/libDaisy/src/hid/audio.h ****     AudioHandle() : pimpl_(nullptr) {}
  88:../../libs/libDaisy/src/sys/../../../../libs/libDaisy/src/hid/audio.h ****     ~AudioHandle() {}
  62              		.loc 6 88 5 is_stmt 1 view .LVU9
  63              		.loc 6 88 5 is_stmt 0 view .LVU10
  64              	.LBE467:
  65              		.loc 1 22 19 view .LVU11
  66 0000 7047     		bx	lr
  67              		.cfi_endproc
  68              	.LFE2685:
  70              		.weak	_ZN5daisy9DaisySeedD1Ev
  71              		.thumb_set _ZN5daisy9DaisySeedD1Ev,_ZN5daisy9DaisySeedD2Ev
  72 0002 00BF     		.section	.text._ZN7daisysp10OscillatorD2Ev,"axG",%progbits,_ZN7daisysp10OscillatorD5Ev,comdat
  73              		.align	1
  74              		.p2align 2,,3
  75              		.weak	_ZN7daisysp10OscillatorD2Ev
  76              		.syntax unified
  77              		.thumb
  78              		.thumb_func
ARM GAS  C:\Users\matte\AppData\Local\Temp\cclPkNhc.s 			page 9


  79              		.fpu fpv5-d16
  81              	_ZN7daisysp10OscillatorD2Ev:
  82              	.LVL1:
  83              	.LFB4370:
  84              		.file 7 "../../libs/DaisySP/Source/Synthesis/oscillator.h"
   1:../../libs/DaisySP/Source/Synthesis/oscillator.h **** /*
   2:../../libs/DaisySP/Source/Synthesis/oscillator.h **** Copyright (c) 2020 Electrosmith, Corp
   3:../../libs/DaisySP/Source/Synthesis/oscillator.h **** 
   4:../../libs/DaisySP/Source/Synthesis/oscillator.h **** Use of this source code is governed by an MIT-style
   5:../../libs/DaisySP/Source/Synthesis/oscillator.h **** license that can be found in the LICENSE file or at
   6:../../libs/DaisySP/Source/Synthesis/oscillator.h **** https://opensource.org/licenses/MIT.
   7:../../libs/DaisySP/Source/Synthesis/oscillator.h **** */
   8:../../libs/DaisySP/Source/Synthesis/oscillator.h **** 
   9:../../libs/DaisySP/Source/Synthesis/oscillator.h **** #pragma once
  10:../../libs/DaisySP/Source/Synthesis/oscillator.h **** #ifndef DSY_OSCILLATOR_H
  11:../../libs/DaisySP/Source/Synthesis/oscillator.h **** #define DSY_OSCILLATOR_H
  12:../../libs/DaisySP/Source/Synthesis/oscillator.h **** #include <stdint.h>
  13:../../libs/DaisySP/Source/Synthesis/oscillator.h **** #include "Utility/dsp.h"
  14:../../libs/DaisySP/Source/Synthesis/oscillator.h **** #ifdef __cplusplus
  15:../../libs/DaisySP/Source/Synthesis/oscillator.h **** 
  16:../../libs/DaisySP/Source/Synthesis/oscillator.h **** namespace daisysp
  17:../../libs/DaisySP/Source/Synthesis/oscillator.h **** {
  18:../../libs/DaisySP/Source/Synthesis/oscillator.h **** /** Synthesis of several waveforms, including polyBLEP bandlimited waveforms.
  19:../../libs/DaisySP/Source/Synthesis/oscillator.h **** */
  20:../../libs/DaisySP/Source/Synthesis/oscillator.h **** class Oscillator
  21:../../libs/DaisySP/Source/Synthesis/oscillator.h **** {
  22:../../libs/DaisySP/Source/Synthesis/oscillator.h ****   public:
  23:../../libs/DaisySP/Source/Synthesis/oscillator.h ****     Oscillator() {}
  24:../../libs/DaisySP/Source/Synthesis/oscillator.h ****     ~Oscillator() {}
  85              		.loc 7 24 5 is_stmt 1 view -0
  86              		.cfi_startproc
  87              		@ args = 0, pretend = 0, frame = 0
  88              		@ frame_needed = 0, uses_anonymous_args = 0
  89              		@ link register save eliminated.
  90              		.loc 7 24 20 is_stmt 0 view .LVU13
  91 0000 7047     		bx	lr
  92              		.cfi_endproc
  93              	.LFE4370:
  95              		.weak	_ZN7daisysp10OscillatorD1Ev
  96              		.thumb_set _ZN7daisysp10OscillatorD1Ev,_ZN7daisysp10OscillatorD2Ev
  97              		.section	.text._ZN5daisy11OledDisplayINS_13SSD130xDriverILj128ELj64ENS_19SSD130xI2CTransportEEEED2
  98              		.align	1
  99              		.p2align 2,,3
 100              		.weak	_ZN5daisy11OledDisplayINS_13SSD130xDriverILj128ELj64ENS_19SSD130xI2CTransportEEEED2Ev
 101              		.syntax unified
 102              		.thumb
 103              		.thumb_func
 104              		.fpu fpv5-d16
 106              	_ZN5daisy11OledDisplayINS_13SSD130xDriverILj128ELj64ENS_19SSD130xI2CTransportEEEED2Ev:
 107              	.LVL2:
 108              	.LFB5443:
 109              		.file 8 "../../libs/libDaisy/src/sys/../../../../libs/libDaisy/src/hid/disp/oled_display.h"
   1:../../libs/libDaisy/src/sys/../../../../libs/libDaisy/src/hid/disp/oled_display.h **** #pragma once
   2:../../libs/libDaisy/src/sys/../../../../libs/libDaisy/src/hid/disp/oled_display.h **** #ifndef DSY_OLED_DISPLAY_H
   3:../../libs/libDaisy/src/sys/../../../../libs/libDaisy/src/hid/disp/oled_display.h **** #define DSY_OLED_DISPLAY_H /**< Macro */
   4:../../libs/libDaisy/src/sys/../../../../libs/libDaisy/src/hid/disp/oled_display.h **** 
   5:../../libs/libDaisy/src/sys/../../../../libs/libDaisy/src/hid/disp/oled_display.h **** #include "display.h"
ARM GAS  C:\Users\matte\AppData\Local\Temp\cclPkNhc.s 			page 10


   6:../../libs/libDaisy/src/sys/../../../../libs/libDaisy/src/hid/disp/oled_display.h **** 
   7:../../libs/libDaisy/src/sys/../../../../libs/libDaisy/src/hid/disp/oled_display.h **** namespace daisy
   8:../../libs/libDaisy/src/sys/../../../../libs/libDaisy/src/hid/disp/oled_display.h **** {
   9:../../libs/libDaisy/src/sys/../../../../libs/libDaisy/src/hid/disp/oled_display.h **** /** 
  10:../../libs/libDaisy/src/sys/../../../../libs/libDaisy/src/hid/disp/oled_display.h ****  * This class is for drawing to a monochrome OLED display. 
  11:../../libs/libDaisy/src/sys/../../../../libs/libDaisy/src/hid/disp/oled_display.h ****  * @ingroup device
  12:../../libs/libDaisy/src/sys/../../../../libs/libDaisy/src/hid/disp/oled_display.h **** */
  13:../../libs/libDaisy/src/sys/../../../../libs/libDaisy/src/hid/disp/oled_display.h **** template <typename DisplayDriver>
  14:../../libs/libDaisy/src/sys/../../../../libs/libDaisy/src/hid/disp/oled_display.h **** class OledDisplay : public OneBitGraphicsDisplayImpl<OledDisplay<DisplayDriver>>
  15:../../libs/libDaisy/src/sys/../../../../libs/libDaisy/src/hid/disp/oled_display.h **** {
  16:../../libs/libDaisy/src/sys/../../../../libs/libDaisy/src/hid/disp/oled_display.h ****   public:
  17:../../libs/libDaisy/src/sys/../../../../libs/libDaisy/src/hid/disp/oled_display.h ****     OledDisplay() {}
  18:../../libs/libDaisy/src/sys/../../../../libs/libDaisy/src/hid/disp/oled_display.h ****     virtual ~OledDisplay() {}
 110              		.loc 8 18 13 is_stmt 1 view -0
 111              		.cfi_startproc
 112              		@ args = 0, pretend = 0, frame = 0
 113              		@ frame_needed = 0, uses_anonymous_args = 0
 114              		@ link register save eliminated.
 115              	.LBB468:
 116              	.LBI468:
 117              		.file 9 "../../libs/libDaisy/src/sys/../../../../libs/libDaisy/src/hid/disp/display.h"
   1:../../libs/libDaisy/src/sys/../../../../libs/libDaisy/src/hid/disp/display.h **** #pragma once
   2:../../libs/libDaisy/src/sys/../../../../libs/libDaisy/src/hid/disp/display.h **** #ifndef DSY_DISPLAY_H
   3:../../libs/libDaisy/src/sys/../../../../libs/libDaisy/src/hid/disp/display.h **** #define DSY_DISPLAY_H /**< Macro */
   4:../../libs/libDaisy/src/sys/../../../../libs/libDaisy/src/hid/disp/display.h **** #include <cmath>
   5:../../libs/libDaisy/src/sys/../../../../libs/libDaisy/src/hid/disp/display.h **** #include "util/oled_fonts.h"
   6:../../libs/libDaisy/src/sys/../../../../libs/libDaisy/src/hid/disp/display.h **** #include "daisy_core.h"
   7:../../libs/libDaisy/src/sys/../../../../libs/libDaisy/src/hid/disp/display.h **** #include "graphics_common.h"
   8:../../libs/libDaisy/src/sys/../../../../libs/libDaisy/src/hid/disp/display.h **** 
   9:../../libs/libDaisy/src/sys/../../../../libs/libDaisy/src/hid/disp/display.h **** #ifndef deg2rad
  10:../../libs/libDaisy/src/sys/../../../../libs/libDaisy/src/hid/disp/display.h **** #define deg2rad(deg) ((deg)*3.141592 / 180.0)
  11:../../libs/libDaisy/src/sys/../../../../libs/libDaisy/src/hid/disp/display.h **** #endif
  12:../../libs/libDaisy/src/sys/../../../../libs/libDaisy/src/hid/disp/display.h **** 
  13:../../libs/libDaisy/src/sys/../../../../libs/libDaisy/src/hid/disp/display.h **** namespace daisy
  14:../../libs/libDaisy/src/sys/../../../../libs/libDaisy/src/hid/disp/display.h **** {
  15:../../libs/libDaisy/src/sys/../../../../libs/libDaisy/src/hid/disp/display.h **** /** 
  16:../../libs/libDaisy/src/sys/../../../../libs/libDaisy/src/hid/disp/display.h ****  * This interface is used as a base class for all types of 1bit-per-pixel
  17:../../libs/libDaisy/src/sys/../../../../libs/libDaisy/src/hid/disp/display.h ****  * graphics displays.
  18:../../libs/libDaisy/src/sys/../../../../libs/libDaisy/src/hid/disp/display.h **** */
  19:../../libs/libDaisy/src/sys/../../../../libs/libDaisy/src/hid/disp/display.h **** class OneBitGraphicsDisplay
  20:../../libs/libDaisy/src/sys/../../../../libs/libDaisy/src/hid/disp/display.h **** {
  21:../../libs/libDaisy/src/sys/../../../../libs/libDaisy/src/hid/disp/display.h ****   public:
  22:../../libs/libDaisy/src/sys/../../../../libs/libDaisy/src/hid/disp/display.h ****     OneBitGraphicsDisplay() {}
  23:../../libs/libDaisy/src/sys/../../../../libs/libDaisy/src/hid/disp/display.h ****     virtual ~OneBitGraphicsDisplay() {}
  24:../../libs/libDaisy/src/sys/../../../../libs/libDaisy/src/hid/disp/display.h **** 
  25:../../libs/libDaisy/src/sys/../../../../libs/libDaisy/src/hid/disp/display.h ****     virtual uint16_t Height() const = 0;
  26:../../libs/libDaisy/src/sys/../../../../libs/libDaisy/src/hid/disp/display.h ****     virtual uint16_t Width() const  = 0;
  27:../../libs/libDaisy/src/sys/../../../../libs/libDaisy/src/hid/disp/display.h **** 
  28:../../libs/libDaisy/src/sys/../../../../libs/libDaisy/src/hid/disp/display.h ****     Rectangle GetBounds() const
  29:../../libs/libDaisy/src/sys/../../../../libs/libDaisy/src/hid/disp/display.h ****     {
  30:../../libs/libDaisy/src/sys/../../../../libs/libDaisy/src/hid/disp/display.h ****         return Rectangle(int16_t(Width()), int16_t(Height()));
  31:../../libs/libDaisy/src/sys/../../../../libs/libDaisy/src/hid/disp/display.h ****     }
  32:../../libs/libDaisy/src/sys/../../../../libs/libDaisy/src/hid/disp/display.h **** 
  33:../../libs/libDaisy/src/sys/../../../../libs/libDaisy/src/hid/disp/display.h **** 
  34:../../libs/libDaisy/src/sys/../../../../libs/libDaisy/src/hid/disp/display.h ****     size_t CurrentX() { return currentX_; };
  35:../../libs/libDaisy/src/sys/../../../../libs/libDaisy/src/hid/disp/display.h ****     size_t CurrentY() { return currentY_; };
  36:../../libs/libDaisy/src/sys/../../../../libs/libDaisy/src/hid/disp/display.h **** 
ARM GAS  C:\Users\matte\AppData\Local\Temp\cclPkNhc.s 			page 11


  37:../../libs/libDaisy/src/sys/../../../../libs/libDaisy/src/hid/disp/display.h ****     /** 
  38:../../libs/libDaisy/src/sys/../../../../libs/libDaisy/src/hid/disp/display.h ****     Fills the entire display with either on/off.
  39:../../libs/libDaisy/src/sys/../../../../libs/libDaisy/src/hid/disp/display.h ****     \param on Sets on or off.
  40:../../libs/libDaisy/src/sys/../../../../libs/libDaisy/src/hid/disp/display.h ****     */
  41:../../libs/libDaisy/src/sys/../../../../libs/libDaisy/src/hid/disp/display.h ****     virtual void Fill(bool on) = 0;
  42:../../libs/libDaisy/src/sys/../../../../libs/libDaisy/src/hid/disp/display.h **** 
  43:../../libs/libDaisy/src/sys/../../../../libs/libDaisy/src/hid/disp/display.h ****     /**
  44:../../libs/libDaisy/src/sys/../../../../libs/libDaisy/src/hid/disp/display.h ****     Sets the pixel at the specified coordinate to be on/off.
  45:../../libs/libDaisy/src/sys/../../../../libs/libDaisy/src/hid/disp/display.h ****     \param x   x Coordinate
  46:../../libs/libDaisy/src/sys/../../../../libs/libDaisy/src/hid/disp/display.h ****     \param y   y coordinate
  47:../../libs/libDaisy/src/sys/../../../../libs/libDaisy/src/hid/disp/display.h ****     \param on  on or off
  48:../../libs/libDaisy/src/sys/../../../../libs/libDaisy/src/hid/disp/display.h ****     */
  49:../../libs/libDaisy/src/sys/../../../../libs/libDaisy/src/hid/disp/display.h ****     virtual void DrawPixel(uint_fast8_t x, uint_fast8_t y, bool on) = 0;
  50:../../libs/libDaisy/src/sys/../../../../libs/libDaisy/src/hid/disp/display.h **** 
  51:../../libs/libDaisy/src/sys/../../../../libs/libDaisy/src/hid/disp/display.h ****     /**
  52:../../libs/libDaisy/src/sys/../../../../libs/libDaisy/src/hid/disp/display.h ****     Draws a line from (x1, y1) to (y1, y2)
  53:../../libs/libDaisy/src/sys/../../../../libs/libDaisy/src/hid/disp/display.h ****     \param x1  x Coordinate of the starting point
  54:../../libs/libDaisy/src/sys/../../../../libs/libDaisy/src/hid/disp/display.h ****     \param y1  y Coordinate of the starting point
  55:../../libs/libDaisy/src/sys/../../../../libs/libDaisy/src/hid/disp/display.h ****     \param x2  x Coordinate of the ending point
  56:../../libs/libDaisy/src/sys/../../../../libs/libDaisy/src/hid/disp/display.h ****     \param y2  y Coordinate of the ending point
  57:../../libs/libDaisy/src/sys/../../../../libs/libDaisy/src/hid/disp/display.h ****     \param on  on or off
  58:../../libs/libDaisy/src/sys/../../../../libs/libDaisy/src/hid/disp/display.h ****     */
  59:../../libs/libDaisy/src/sys/../../../../libs/libDaisy/src/hid/disp/display.h ****     virtual void DrawLine(uint_fast8_t x1,
  60:../../libs/libDaisy/src/sys/../../../../libs/libDaisy/src/hid/disp/display.h ****                           uint_fast8_t y1,
  61:../../libs/libDaisy/src/sys/../../../../libs/libDaisy/src/hid/disp/display.h ****                           uint_fast8_t x2,
  62:../../libs/libDaisy/src/sys/../../../../libs/libDaisy/src/hid/disp/display.h ****                           uint_fast8_t y2,
  63:../../libs/libDaisy/src/sys/../../../../libs/libDaisy/src/hid/disp/display.h ****                           bool         on)
  64:../../libs/libDaisy/src/sys/../../../../libs/libDaisy/src/hid/disp/display.h ****         = 0;
  65:../../libs/libDaisy/src/sys/../../../../libs/libDaisy/src/hid/disp/display.h **** 
  66:../../libs/libDaisy/src/sys/../../../../libs/libDaisy/src/hid/disp/display.h ****     /**
  67:../../libs/libDaisy/src/sys/../../../../libs/libDaisy/src/hid/disp/display.h ****     Draws a rectangle based on two coordinates.
  68:../../libs/libDaisy/src/sys/../../../../libs/libDaisy/src/hid/disp/display.h ****     \param x1 x Coordinate of the first point
  69:../../libs/libDaisy/src/sys/../../../../libs/libDaisy/src/hid/disp/display.h ****     \param y1 y Coordinate of the first point
  70:../../libs/libDaisy/src/sys/../../../../libs/libDaisy/src/hid/disp/display.h ****     \param x2 x Coordinate of the second point
  71:../../libs/libDaisy/src/sys/../../../../libs/libDaisy/src/hid/disp/display.h ****     \param y2 y Coordinate of the second point
  72:../../libs/libDaisy/src/sys/../../../../libs/libDaisy/src/hid/disp/display.h ****     \param on on or off
  73:../../libs/libDaisy/src/sys/../../../../libs/libDaisy/src/hid/disp/display.h ****     \param fill fill the rectangle or draw only the outline
  74:../../libs/libDaisy/src/sys/../../../../libs/libDaisy/src/hid/disp/display.h ****     */
  75:../../libs/libDaisy/src/sys/../../../../libs/libDaisy/src/hid/disp/display.h ****     virtual void DrawRect(uint_fast8_t x1,
  76:../../libs/libDaisy/src/sys/../../../../libs/libDaisy/src/hid/disp/display.h ****                           uint_fast8_t y1,
  77:../../libs/libDaisy/src/sys/../../../../libs/libDaisy/src/hid/disp/display.h ****                           uint_fast8_t x2,
  78:../../libs/libDaisy/src/sys/../../../../libs/libDaisy/src/hid/disp/display.h ****                           uint_fast8_t y2,
  79:../../libs/libDaisy/src/sys/../../../../libs/libDaisy/src/hid/disp/display.h ****                           bool         on,
  80:../../libs/libDaisy/src/sys/../../../../libs/libDaisy/src/hid/disp/display.h ****                           bool         fill = false)
  81:../../libs/libDaisy/src/sys/../../../../libs/libDaisy/src/hid/disp/display.h ****         = 0;
  82:../../libs/libDaisy/src/sys/../../../../libs/libDaisy/src/hid/disp/display.h **** 
  83:../../libs/libDaisy/src/sys/../../../../libs/libDaisy/src/hid/disp/display.h ****     /**
  84:../../libs/libDaisy/src/sys/../../../../libs/libDaisy/src/hid/disp/display.h ****     Draws a rectangle.
  85:../../libs/libDaisy/src/sys/../../../../libs/libDaisy/src/hid/disp/display.h ****     \param rect the rectangle
  86:../../libs/libDaisy/src/sys/../../../../libs/libDaisy/src/hid/disp/display.h ****     \param on   on or off
  87:../../libs/libDaisy/src/sys/../../../../libs/libDaisy/src/hid/disp/display.h ****     \param fill fill the rectangle or draw only the outline
  88:../../libs/libDaisy/src/sys/../../../../libs/libDaisy/src/hid/disp/display.h ****     */
  89:../../libs/libDaisy/src/sys/../../../../libs/libDaisy/src/hid/disp/display.h ****     void DrawRect(const Rectangle& rect, bool on, bool fill = false)
  90:../../libs/libDaisy/src/sys/../../../../libs/libDaisy/src/hid/disp/display.h ****     {
  91:../../libs/libDaisy/src/sys/../../../../libs/libDaisy/src/hid/disp/display.h ****         DrawRect(rect.GetX(),
  92:../../libs/libDaisy/src/sys/../../../../libs/libDaisy/src/hid/disp/display.h ****                  rect.GetY(),
  93:../../libs/libDaisy/src/sys/../../../../libs/libDaisy/src/hid/disp/display.h ****                  rect.GetRight(),
ARM GAS  C:\Users\matte\AppData\Local\Temp\cclPkNhc.s 			page 12


  94:../../libs/libDaisy/src/sys/../../../../libs/libDaisy/src/hid/disp/display.h ****                  rect.GetBottom(),
  95:../../libs/libDaisy/src/sys/../../../../libs/libDaisy/src/hid/disp/display.h ****                  on,
  96:../../libs/libDaisy/src/sys/../../../../libs/libDaisy/src/hid/disp/display.h ****                  fill);
  97:../../libs/libDaisy/src/sys/../../../../libs/libDaisy/src/hid/disp/display.h ****     }
  98:../../libs/libDaisy/src/sys/../../../../libs/libDaisy/src/hid/disp/display.h **** 
  99:../../libs/libDaisy/src/sys/../../../../libs/libDaisy/src/hid/disp/display.h ****     /**
 100:../../libs/libDaisy/src/sys/../../../../libs/libDaisy/src/hid/disp/display.h ****     Draws an arc around the specified coordinate
 101:../../libs/libDaisy/src/sys/../../../../libs/libDaisy/src/hid/disp/display.h ****     \param x           x Coordinate of the center of the arc
 102:../../libs/libDaisy/src/sys/../../../../libs/libDaisy/src/hid/disp/display.h ****     \param y           y Coordinate of the center of the arc
 103:../../libs/libDaisy/src/sys/../../../../libs/libDaisy/src/hid/disp/display.h ****     \param radius      radius of the arc
 104:../../libs/libDaisy/src/sys/../../../../libs/libDaisy/src/hid/disp/display.h ****     \param start_angle angle where to start the arc
 105:../../libs/libDaisy/src/sys/../../../../libs/libDaisy/src/hid/disp/display.h ****     \param sweep       total angle of the arc
 106:../../libs/libDaisy/src/sys/../../../../libs/libDaisy/src/hid/disp/display.h ****     \param on  on or off
 107:../../libs/libDaisy/src/sys/../../../../libs/libDaisy/src/hid/disp/display.h ****     */
 108:../../libs/libDaisy/src/sys/../../../../libs/libDaisy/src/hid/disp/display.h ****     virtual void DrawArc(uint_fast8_t x,
 109:../../libs/libDaisy/src/sys/../../../../libs/libDaisy/src/hid/disp/display.h ****                          uint_fast8_t y,
 110:../../libs/libDaisy/src/sys/../../../../libs/libDaisy/src/hid/disp/display.h ****                          uint_fast8_t radius,
 111:../../libs/libDaisy/src/sys/../../../../libs/libDaisy/src/hid/disp/display.h ****                          int_fast16_t start_angle,
 112:../../libs/libDaisy/src/sys/../../../../libs/libDaisy/src/hid/disp/display.h ****                          int_fast16_t sweep,
 113:../../libs/libDaisy/src/sys/../../../../libs/libDaisy/src/hid/disp/display.h ****                          bool         on)
 114:../../libs/libDaisy/src/sys/../../../../libs/libDaisy/src/hid/disp/display.h ****         = 0;
 115:../../libs/libDaisy/src/sys/../../../../libs/libDaisy/src/hid/disp/display.h **** 
 116:../../libs/libDaisy/src/sys/../../../../libs/libDaisy/src/hid/disp/display.h ****     /**
 117:../../libs/libDaisy/src/sys/../../../../libs/libDaisy/src/hid/disp/display.h ****     Draws a circle around the specified coordinate
 118:../../libs/libDaisy/src/sys/../../../../libs/libDaisy/src/hid/disp/display.h ****     \param x           x Coordinate of the center of the circle
 119:../../libs/libDaisy/src/sys/../../../../libs/libDaisy/src/hid/disp/display.h ****     \param y           y Coordinate of the center of the circle
 120:../../libs/libDaisy/src/sys/../../../../libs/libDaisy/src/hid/disp/display.h ****     \param radius      radius of the circle
 121:../../libs/libDaisy/src/sys/../../../../libs/libDaisy/src/hid/disp/display.h ****     \param on  on or off
 122:../../libs/libDaisy/src/sys/../../../../libs/libDaisy/src/hid/disp/display.h ****     */
 123:../../libs/libDaisy/src/sys/../../../../libs/libDaisy/src/hid/disp/display.h ****     void
 124:../../libs/libDaisy/src/sys/../../../../libs/libDaisy/src/hid/disp/display.h ****     DrawCircle(uint_fast8_t x, uint_fast8_t y, uint_fast8_t radius, bool on)
 125:../../libs/libDaisy/src/sys/../../../../libs/libDaisy/src/hid/disp/display.h ****     {
 126:../../libs/libDaisy/src/sys/../../../../libs/libDaisy/src/hid/disp/display.h ****         DrawArc(x, y, radius, 0, 360, on);
 127:../../libs/libDaisy/src/sys/../../../../libs/libDaisy/src/hid/disp/display.h ****     };
 128:../../libs/libDaisy/src/sys/../../../../libs/libDaisy/src/hid/disp/display.h **** 
 129:../../libs/libDaisy/src/sys/../../../../libs/libDaisy/src/hid/disp/display.h ****     /** 
 130:../../libs/libDaisy/src/sys/../../../../libs/libDaisy/src/hid/disp/display.h ****     Writes the character with the specific FontDef
 131:../../libs/libDaisy/src/sys/../../../../libs/libDaisy/src/hid/disp/display.h ****     to the display buffer at the current Cursor position.
 132:../../libs/libDaisy/src/sys/../../../../libs/libDaisy/src/hid/disp/display.h ****     \param ch character to be written
 133:../../libs/libDaisy/src/sys/../../../../libs/libDaisy/src/hid/disp/display.h ****     \param font font to be written in
 134:../../libs/libDaisy/src/sys/../../../../libs/libDaisy/src/hid/disp/display.h ****     \param on    on or off
 135:../../libs/libDaisy/src/sys/../../../../libs/libDaisy/src/hid/disp/display.h ****     \return &
 136:../../libs/libDaisy/src/sys/../../../../libs/libDaisy/src/hid/disp/display.h ****     */
 137:../../libs/libDaisy/src/sys/../../../../libs/libDaisy/src/hid/disp/display.h ****     virtual char WriteChar(char ch, FontDef font, bool on) = 0;
 138:../../libs/libDaisy/src/sys/../../../../libs/libDaisy/src/hid/disp/display.h **** 
 139:../../libs/libDaisy/src/sys/../../../../libs/libDaisy/src/hid/disp/display.h ****     /** 
 140:../../libs/libDaisy/src/sys/../../../../libs/libDaisy/src/hid/disp/display.h ****     Similar to WriteChar, except it will handle an entire String.
 141:../../libs/libDaisy/src/sys/../../../../libs/libDaisy/src/hid/disp/display.h ****     Wrapping does not happen automatically, so the width
 142:../../libs/libDaisy/src/sys/../../../../libs/libDaisy/src/hid/disp/display.h ****     of the string must be kept within the dimensions of the screen.
 143:../../libs/libDaisy/src/sys/../../../../libs/libDaisy/src/hid/disp/display.h ****     \param str string to be written
 144:../../libs/libDaisy/src/sys/../../../../libs/libDaisy/src/hid/disp/display.h ****     \param font font to use
 145:../../libs/libDaisy/src/sys/../../../../libs/libDaisy/src/hid/disp/display.h ****     \param on  on or off
 146:../../libs/libDaisy/src/sys/../../../../libs/libDaisy/src/hid/disp/display.h ****     \return &
 147:../../libs/libDaisy/src/sys/../../../../libs/libDaisy/src/hid/disp/display.h ****     */
 148:../../libs/libDaisy/src/sys/../../../../libs/libDaisy/src/hid/disp/display.h ****     virtual char WriteString(const char* str, FontDef font, bool on) = 0;
 149:../../libs/libDaisy/src/sys/../../../../libs/libDaisy/src/hid/disp/display.h **** 
 150:../../libs/libDaisy/src/sys/../../../../libs/libDaisy/src/hid/disp/display.h ****     /** 
ARM GAS  C:\Users\matte\AppData\Local\Temp\cclPkNhc.s 			page 13


 151:../../libs/libDaisy/src/sys/../../../../libs/libDaisy/src/hid/disp/display.h ****     Similar to WriteString but justified within a bounding box.
 152:../../libs/libDaisy/src/sys/../../../../libs/libDaisy/src/hid/disp/display.h ****     \param str          string to be written
 153:../../libs/libDaisy/src/sys/../../../../libs/libDaisy/src/hid/disp/display.h ****     \param font         font to use
 154:../../libs/libDaisy/src/sys/../../../../libs/libDaisy/src/hid/disp/display.h ****     \param boundingBox  the bounding box to draw the text in
 155:../../libs/libDaisy/src/sys/../../../../libs/libDaisy/src/hid/disp/display.h ****     \param alignment    the alignment to use
 156:../../libs/libDaisy/src/sys/../../../../libs/libDaisy/src/hid/disp/display.h ****     \param on           on or off
 157:../../libs/libDaisy/src/sys/../../../../libs/libDaisy/src/hid/disp/display.h ****     \return The rectangle that was drawn to
 158:../../libs/libDaisy/src/sys/../../../../libs/libDaisy/src/hid/disp/display.h ****     */
 159:../../libs/libDaisy/src/sys/../../../../libs/libDaisy/src/hid/disp/display.h ****     virtual Rectangle WriteStringAligned(const char*    str,
 160:../../libs/libDaisy/src/sys/../../../../libs/libDaisy/src/hid/disp/display.h ****                                          const FontDef& font,
 161:../../libs/libDaisy/src/sys/../../../../libs/libDaisy/src/hid/disp/display.h ****                                          Rectangle      boundingBox,
 162:../../libs/libDaisy/src/sys/../../../../libs/libDaisy/src/hid/disp/display.h ****                                          Alignment      alignment,
 163:../../libs/libDaisy/src/sys/../../../../libs/libDaisy/src/hid/disp/display.h ****                                          bool           on)
 164:../../libs/libDaisy/src/sys/../../../../libs/libDaisy/src/hid/disp/display.h ****         = 0;
 165:../../libs/libDaisy/src/sys/../../../../libs/libDaisy/src/hid/disp/display.h **** 
 166:../../libs/libDaisy/src/sys/../../../../libs/libDaisy/src/hid/disp/display.h ****     /** 
 167:../../libs/libDaisy/src/sys/../../../../libs/libDaisy/src/hid/disp/display.h ****     Moves the 'Cursor' position used for WriteChar, and WriteStr to the specified coordinate.
 168:../../libs/libDaisy/src/sys/../../../../libs/libDaisy/src/hid/disp/display.h ****     \param x x pos
 169:../../libs/libDaisy/src/sys/../../../../libs/libDaisy/src/hid/disp/display.h ****     \param y y pos
 170:../../libs/libDaisy/src/sys/../../../../libs/libDaisy/src/hid/disp/display.h ****     */
 171:../../libs/libDaisy/src/sys/../../../../libs/libDaisy/src/hid/disp/display.h ****     void SetCursor(uint16_t x, uint16_t y)
 172:../../libs/libDaisy/src/sys/../../../../libs/libDaisy/src/hid/disp/display.h ****     {
 173:../../libs/libDaisy/src/sys/../../../../libs/libDaisy/src/hid/disp/display.h ****         currentX_ = (x >= Width()) ? Width() - 1 : x;
 174:../../libs/libDaisy/src/sys/../../../../libs/libDaisy/src/hid/disp/display.h ****         currentY_ = (y >= Height()) ? Height() - 1 : y;
 175:../../libs/libDaisy/src/sys/../../../../libs/libDaisy/src/hid/disp/display.h ****     }
 176:../../libs/libDaisy/src/sys/../../../../libs/libDaisy/src/hid/disp/display.h **** 
 177:../../libs/libDaisy/src/sys/../../../../libs/libDaisy/src/hid/disp/display.h ****     /** 
 178:../../libs/libDaisy/src/sys/../../../../libs/libDaisy/src/hid/disp/display.h ****     Writes the current display buffer to the OLED device using SPI or I2C depending on 
 179:../../libs/libDaisy/src/sys/../../../../libs/libDaisy/src/hid/disp/display.h ****     how the object was initialized.
 180:../../libs/libDaisy/src/sys/../../../../libs/libDaisy/src/hid/disp/display.h ****     */
 181:../../libs/libDaisy/src/sys/../../../../libs/libDaisy/src/hid/disp/display.h ****     virtual void Update() = 0;
 182:../../libs/libDaisy/src/sys/../../../../libs/libDaisy/src/hid/disp/display.h **** 
 183:../../libs/libDaisy/src/sys/../../../../libs/libDaisy/src/hid/disp/display.h ****   protected:
 184:../../libs/libDaisy/src/sys/../../../../libs/libDaisy/src/hid/disp/display.h ****     uint16_t currentX_;
 185:../../libs/libDaisy/src/sys/../../../../libs/libDaisy/src/hid/disp/display.h ****     uint16_t currentY_;
 186:../../libs/libDaisy/src/sys/../../../../libs/libDaisy/src/hid/disp/display.h **** };
 187:../../libs/libDaisy/src/sys/../../../../libs/libDaisy/src/hid/disp/display.h **** 
 188:../../libs/libDaisy/src/sys/../../../../libs/libDaisy/src/hid/disp/display.h **** /** This class is intended as a intermediary class for your actual implementation of the OneBitGrap
 189:../../libs/libDaisy/src/sys/../../../../libs/libDaisy/src/hid/disp/display.h ****  *  interface. It uses the CRTP design pattern where the template argument is the child class. It p
 190:../../libs/libDaisy/src/sys/../../../../libs/libDaisy/src/hid/disp/display.h ****  *  implementations for most of the functions, except DrawPixel(), Update() and Fill(), which you'l
 191:../../libs/libDaisy/src/sys/../../../../libs/libDaisy/src/hid/disp/display.h ****  *  to provide in your child class.
 192:../../libs/libDaisy/src/sys/../../../../libs/libDaisy/src/hid/disp/display.h ****  *  The main goal of this class is to provide common drawing functions without relying on massive a
 193:../../libs/libDaisy/src/sys/../../../../libs/libDaisy/src/hid/disp/display.h ****  *  virtual function calls that would result in a performance loss. To achieve this, any drawing fu
 194:../../libs/libDaisy/src/sys/../../../../libs/libDaisy/src/hid/disp/display.h ****  *  is implemented here and internally calls other drawing functions (e.g. DrawRect() which interna
 195:../../libs/libDaisy/src/sys/../../../../libs/libDaisy/src/hid/disp/display.h ****  *  DrawPixel() and DrawLine()) makes these calls via the qualified name of these functions to expl
 196:../../libs/libDaisy/src/sys/../../../../libs/libDaisy/src/hid/disp/display.h ****  *  suppress the virtual dispatch mechanism like this:
 197:../../libs/libDaisy/src/sys/../../../../libs/libDaisy/src/hid/disp/display.h ****  * 
 198:../../libs/libDaisy/src/sys/../../../../libs/libDaisy/src/hid/disp/display.h ****  *      ChildType::DrawPixel(...); // no virtual function call; direct call into the child class fu
 199:../../libs/libDaisy/src/sys/../../../../libs/libDaisy/src/hid/disp/display.h ****  *  
 200:../../libs/libDaisy/src/sys/../../../../libs/libDaisy/src/hid/disp/display.h ****  *  To create a custom OneBitGraphicsDisplay implementation, you can 
 201:../../libs/libDaisy/src/sys/../../../../libs/libDaisy/src/hid/disp/display.h ****  *  A) inherit from OneBitGraphicsDisplay directly and provide all the drawing functions yourself
 202:../../libs/libDaisy/src/sys/../../../../libs/libDaisy/src/hid/disp/display.h ****  *  B) Inherit from OneBitGraphicsDisplayImpl and only provide DrawPixel(), Fill() and Update()
 203:../../libs/libDaisy/src/sys/../../../../libs/libDaisy/src/hid/disp/display.h ****  *     like this:
 204:../../libs/libDaisy/src/sys/../../../../libs/libDaisy/src/hid/disp/display.h ****  *  
 205:../../libs/libDaisy/src/sys/../../../../libs/libDaisy/src/hid/disp/display.h ****  *      class MyDisplayClass : public OneBitGraphicsDisplayImpl<MyDisplayClass> 
 206:../../libs/libDaisy/src/sys/../../../../libs/libDaisy/src/hid/disp/display.h ****  *      {
 207:../../libs/libDaisy/src/sys/../../../../libs/libDaisy/src/hid/disp/display.h ****  *      public:
ARM GAS  C:\Users\matte\AppData\Local\Temp\cclPkNhc.s 			page 14


 208:../../libs/libDaisy/src/sys/../../../../libs/libDaisy/src/hid/disp/display.h ****  *          void Fill() override { ... };
 209:../../libs/libDaisy/src/sys/../../../../libs/libDaisy/src/hid/disp/display.h ****  *          void DrawPixel(uint_fast8_t x, uint_fast8_t y, bool on) override { ... };
 210:../../libs/libDaisy/src/sys/../../../../libs/libDaisy/src/hid/disp/display.h ****  *          void Update() override { ... }
 211:../../libs/libDaisy/src/sys/../../../../libs/libDaisy/src/hid/disp/display.h ****  *      };
 212:../../libs/libDaisy/src/sys/../../../../libs/libDaisy/src/hid/disp/display.h ****  *  
 213:../../libs/libDaisy/src/sys/../../../../libs/libDaisy/src/hid/disp/display.h ****  */
 214:../../libs/libDaisy/src/sys/../../../../libs/libDaisy/src/hid/disp/display.h **** template <class ChildType>
 215:../../libs/libDaisy/src/sys/../../../../libs/libDaisy/src/hid/disp/display.h **** class OneBitGraphicsDisplayImpl : public OneBitGraphicsDisplay
 216:../../libs/libDaisy/src/sys/../../../../libs/libDaisy/src/hid/disp/display.h **** {
 217:../../libs/libDaisy/src/sys/../../../../libs/libDaisy/src/hid/disp/display.h ****   public:
 218:../../libs/libDaisy/src/sys/../../../../libs/libDaisy/src/hid/disp/display.h ****     OneBitGraphicsDisplayImpl() {}
 219:../../libs/libDaisy/src/sys/../../../../libs/libDaisy/src/hid/disp/display.h ****     virtual ~OneBitGraphicsDisplayImpl() {}
 118              		.loc 9 219 13 view .LVU15
 119              	.LBB469:
 120              	.LBI469:
  23:../../libs/libDaisy/src/sys/../../../../libs/libDaisy/src/hid/disp/display.h **** 
 121              		.loc 9 23 13 view .LVU16
  23:../../libs/libDaisy/src/sys/../../../../libs/libDaisy/src/hid/disp/display.h **** 
 122              		.loc 9 23 13 is_stmt 0 view .LVU17
 123              	.LBE469:
 124              	.LBE468:
 125              		.loc 8 18 29 view .LVU18
 126 0000 7047     		bx	lr
 127              		.cfi_endproc
 128              	.LFE5443:
 130              		.weak	_ZN5daisy11OledDisplayINS_13SSD130xDriverILj128ELj64ENS_19SSD130xI2CTransportEEEED1Ev
 131              		.thumb_set _ZN5daisy11OledDisplayINS_13SSD130xDriverILj128ELj64ENS_19SSD130xI2CTransportEEEED1Ev,_
 132 0002 00BF     		.section	.text._ZNK5daisy11OledDisplayINS_13SSD130xDriverILj128ELj64ENS_19SSD130xI2CTransportEEEE6
 133              		.align	1
 134              		.p2align 2,,3
 135              		.weak	_ZNK5daisy11OledDisplayINS_13SSD130xDriverILj128ELj64ENS_19SSD130xI2CTransportEEEE6HeightEv
 136              		.syntax unified
 137              		.thumb
 138              		.thumb_func
 139              		.fpu fpv5-d16
 141              	_ZNK5daisy11OledDisplayINS_13SSD130xDriverILj128ELj64ENS_19SSD130xI2CTransportEEEE6HeightEv:
 142              	.LVL3:
 143              	.LFB5446:
  19:../../libs/libDaisy/src/sys/../../../../libs/libDaisy/src/hid/disp/oled_display.h **** 
  20:../../libs/libDaisy/src/sys/../../../../libs/libDaisy/src/hid/disp/oled_display.h ****     struct Config
  21:../../libs/libDaisy/src/sys/../../../../libs/libDaisy/src/hid/disp/oled_display.h ****     {
  22:../../libs/libDaisy/src/sys/../../../../libs/libDaisy/src/hid/disp/oled_display.h ****         typename DisplayDriver::Config driver_config;
  23:../../libs/libDaisy/src/sys/../../../../libs/libDaisy/src/hid/disp/oled_display.h ****     };
  24:../../libs/libDaisy/src/sys/../../../../libs/libDaisy/src/hid/disp/oled_display.h **** 
  25:../../libs/libDaisy/src/sys/../../../../libs/libDaisy/src/hid/disp/oled_display.h ****     void Init(Config config) { driver_.Init(config.driver_config); }
  26:../../libs/libDaisy/src/sys/../../../../libs/libDaisy/src/hid/disp/oled_display.h **** 
  27:../../libs/libDaisy/src/sys/../../../../libs/libDaisy/src/hid/disp/oled_display.h ****     uint16_t Height() const override { return driver_.Height(); }
 144              		.loc 8 27 14 is_stmt 1 view -0
 145              		.cfi_startproc
 146              		@ args = 0, pretend = 0, frame = 0
 147              		@ frame_needed = 0, uses_anonymous_args = 0
 148              		@ link register save eliminated.
 149              		.loc 8 27 65 is_stmt 0 view .LVU20
 150 0000 4020     		movs	r0, #64
 151              	.LVL4:
 152              		.loc 8 27 65 view .LVU21
 153 0002 7047     		bx	lr
ARM GAS  C:\Users\matte\AppData\Local\Temp\cclPkNhc.s 			page 15


 154              		.cfi_endproc
 155              	.LFE5446:
 157              		.section	.text._ZNK5daisy11OledDisplayINS_13SSD130xDriverILj128ELj64ENS_19SSD130xI2CTransportEEEE5
 158              		.align	1
 159              		.p2align 2,,3
 160              		.weak	_ZNK5daisy11OledDisplayINS_13SSD130xDriverILj128ELj64ENS_19SSD130xI2CTransportEEEE5WidthEv
 161              		.syntax unified
 162              		.thumb
 163              		.thumb_func
 164              		.fpu fpv5-d16
 166              	_ZNK5daisy11OledDisplayINS_13SSD130xDriverILj128ELj64ENS_19SSD130xI2CTransportEEEE5WidthEv:
 167              	.LVL5:
 168              	.LFB5447:
  28:../../libs/libDaisy/src/sys/../../../../libs/libDaisy/src/hid/disp/oled_display.h ****     uint16_t Width() const override { return driver_.Width(); }
 169              		.loc 8 28 14 is_stmt 1 view -0
 170              		.cfi_startproc
 171              		@ args = 0, pretend = 0, frame = 0
 172              		@ frame_needed = 0, uses_anonymous_args = 0
 173              		@ link register save eliminated.
 174              		.loc 8 28 63 is_stmt 0 view .LVU23
 175 0000 8020     		movs	r0, #128
 176              	.LVL6:
 177              		.loc 8 28 63 view .LVU24
 178 0002 7047     		bx	lr
 179              		.cfi_endproc
 180              	.LFE5447:
 182              		.section	.text._ZN5daisy11OledDisplayINS_13SSD130xDriverILj128ELj64ENS_19SSD130xI2CTransportEEEE4F
 183              		.align	1
 184              		.p2align 2,,3
 185              		.weak	_ZN5daisy11OledDisplayINS_13SSD130xDriverILj128ELj64ENS_19SSD130xI2CTransportEEEE4FillEb
 186              		.syntax unified
 187              		.thumb
 188              		.thumb_func
 189              		.fpu fpv5-d16
 191              	_ZN5daisy11OledDisplayINS_13SSD130xDriverILj128ELj64ENS_19SSD130xI2CTransportEEEE4FillEb:
 192              	.LVL7:
 193              	.LFB5448:
  29:../../libs/libDaisy/src/sys/../../../../libs/libDaisy/src/hid/disp/oled_display.h **** 
  30:../../libs/libDaisy/src/sys/../../../../libs/libDaisy/src/hid/disp/oled_display.h ****     /** 
  31:../../libs/libDaisy/src/sys/../../../../libs/libDaisy/src/hid/disp/oled_display.h ****     Fills the entire display with either on/off.
  32:../../libs/libDaisy/src/sys/../../../../libs/libDaisy/src/hid/disp/oled_display.h ****     \param on Sets on or off.
  33:../../libs/libDaisy/src/sys/../../../../libs/libDaisy/src/hid/disp/oled_display.h ****     */
  34:../../libs/libDaisy/src/sys/../../../../libs/libDaisy/src/hid/disp/oled_display.h ****     void Fill(bool on) override { driver_.Fill(on); }
 194              		.loc 8 34 10 is_stmt 1 view -0
 195              		.cfi_startproc
 196              		@ args = 0, pretend = 0, frame = 0
 197              		@ frame_needed = 0, uses_anonymous_args = 0
 198              		@ link register save eliminated.
 199              	.LBB470:
 200              	.LBI470:
 201              		.file 10 "../../libs/libDaisy/src/sys/../../../../libs/libDaisy/src/dev/oled_ssd130x.h"
   1:../../libs/libDaisy/src/sys/../../../../libs/libDaisy/src/dev/oled_ssd130x.h **** #pragma once
   2:../../libs/libDaisy/src/sys/../../../../libs/libDaisy/src/dev/oled_ssd130x.h **** #ifndef SA_OLED_SSD130X_H
   3:../../libs/libDaisy/src/sys/../../../../libs/libDaisy/src/dev/oled_ssd130x.h **** #define SA_OLED_SSD130X_H /**< & */
   4:../../libs/libDaisy/src/sys/../../../../libs/libDaisy/src/dev/oled_ssd130x.h **** 
   5:../../libs/libDaisy/src/sys/../../../../libs/libDaisy/src/dev/oled_ssd130x.h **** #include "per/i2c.h"
   6:../../libs/libDaisy/src/sys/../../../../libs/libDaisy/src/dev/oled_ssd130x.h **** #include "per/spi.h"
ARM GAS  C:\Users\matte\AppData\Local\Temp\cclPkNhc.s 			page 16


   7:../../libs/libDaisy/src/sys/../../../../libs/libDaisy/src/dev/oled_ssd130x.h **** #include "per/gpio.h"
   8:../../libs/libDaisy/src/sys/../../../../libs/libDaisy/src/dev/oled_ssd130x.h **** #include "sys/system.h"
   9:../../libs/libDaisy/src/sys/../../../../libs/libDaisy/src/dev/oled_ssd130x.h **** 
  10:../../libs/libDaisy/src/sys/../../../../libs/libDaisy/src/dev/oled_ssd130x.h **** namespace daisy
  11:../../libs/libDaisy/src/sys/../../../../libs/libDaisy/src/dev/oled_ssd130x.h **** {
  12:../../libs/libDaisy/src/sys/../../../../libs/libDaisy/src/dev/oled_ssd130x.h **** /**
  13:../../libs/libDaisy/src/sys/../../../../libs/libDaisy/src/dev/oled_ssd130x.h ****  * I2C Transport for SSD1306 / SSD1309 OLED display devices
  14:../../libs/libDaisy/src/sys/../../../../libs/libDaisy/src/dev/oled_ssd130x.h ****  */
  15:../../libs/libDaisy/src/sys/../../../../libs/libDaisy/src/dev/oled_ssd130x.h **** class SSD130xI2CTransport
  16:../../libs/libDaisy/src/sys/../../../../libs/libDaisy/src/dev/oled_ssd130x.h **** {
  17:../../libs/libDaisy/src/sys/../../../../libs/libDaisy/src/dev/oled_ssd130x.h ****   public:
  18:../../libs/libDaisy/src/sys/../../../../libs/libDaisy/src/dev/oled_ssd130x.h ****     struct Config
  19:../../libs/libDaisy/src/sys/../../../../libs/libDaisy/src/dev/oled_ssd130x.h ****     {
  20:../../libs/libDaisy/src/sys/../../../../libs/libDaisy/src/dev/oled_ssd130x.h ****         Config()
  21:../../libs/libDaisy/src/sys/../../../../libs/libDaisy/src/dev/oled_ssd130x.h ****         {
  22:../../libs/libDaisy/src/sys/../../../../libs/libDaisy/src/dev/oled_ssd130x.h ****             // Intialize using defaults
  23:../../libs/libDaisy/src/sys/../../../../libs/libDaisy/src/dev/oled_ssd130x.h ****             Defaults();
  24:../../libs/libDaisy/src/sys/../../../../libs/libDaisy/src/dev/oled_ssd130x.h ****         }
  25:../../libs/libDaisy/src/sys/../../../../libs/libDaisy/src/dev/oled_ssd130x.h ****         I2CHandle::Config i2c_config;
  26:../../libs/libDaisy/src/sys/../../../../libs/libDaisy/src/dev/oled_ssd130x.h ****         uint8_t           i2c_address;
  27:../../libs/libDaisy/src/sys/../../../../libs/libDaisy/src/dev/oled_ssd130x.h ****         void              Defaults()
  28:../../libs/libDaisy/src/sys/../../../../libs/libDaisy/src/dev/oled_ssd130x.h ****         {
  29:../../libs/libDaisy/src/sys/../../../../libs/libDaisy/src/dev/oled_ssd130x.h ****             i2c_config.periph         = I2CHandle::Config::Peripheral::I2C_1;
  30:../../libs/libDaisy/src/sys/../../../../libs/libDaisy/src/dev/oled_ssd130x.h ****             i2c_config.speed          = I2CHandle::Config::Speed::I2C_1MHZ;
  31:../../libs/libDaisy/src/sys/../../../../libs/libDaisy/src/dev/oled_ssd130x.h ****             i2c_config.mode           = I2CHandle::Config::Mode::I2C_MASTER;
  32:../../libs/libDaisy/src/sys/../../../../libs/libDaisy/src/dev/oled_ssd130x.h ****             i2c_config.pin_config.scl = Pin(PORTB, 8);
  33:../../libs/libDaisy/src/sys/../../../../libs/libDaisy/src/dev/oled_ssd130x.h ****             i2c_config.pin_config.sda = Pin(PORTB, 9);
  34:../../libs/libDaisy/src/sys/../../../../libs/libDaisy/src/dev/oled_ssd130x.h ****             i2c_address               = 0x3C;
  35:../../libs/libDaisy/src/sys/../../../../libs/libDaisy/src/dev/oled_ssd130x.h ****         }
  36:../../libs/libDaisy/src/sys/../../../../libs/libDaisy/src/dev/oled_ssd130x.h ****     };
  37:../../libs/libDaisy/src/sys/../../../../libs/libDaisy/src/dev/oled_ssd130x.h ****     void Init(const Config& config)
  38:../../libs/libDaisy/src/sys/../../../../libs/libDaisy/src/dev/oled_ssd130x.h ****     {
  39:../../libs/libDaisy/src/sys/../../../../libs/libDaisy/src/dev/oled_ssd130x.h ****         i2c_address_ = config.i2c_address;
  40:../../libs/libDaisy/src/sys/../../../../libs/libDaisy/src/dev/oled_ssd130x.h ****         i2c_.Init(config.i2c_config);
  41:../../libs/libDaisy/src/sys/../../../../libs/libDaisy/src/dev/oled_ssd130x.h ****     };
  42:../../libs/libDaisy/src/sys/../../../../libs/libDaisy/src/dev/oled_ssd130x.h ****     void SendCommand(uint8_t cmd)
  43:../../libs/libDaisy/src/sys/../../../../libs/libDaisy/src/dev/oled_ssd130x.h ****     {
  44:../../libs/libDaisy/src/sys/../../../../libs/libDaisy/src/dev/oled_ssd130x.h ****         uint8_t buf[2] = {0X00, cmd};
  45:../../libs/libDaisy/src/sys/../../../../libs/libDaisy/src/dev/oled_ssd130x.h ****         i2c_.TransmitBlocking(i2c_address_, buf, 2, 1000);
  46:../../libs/libDaisy/src/sys/../../../../libs/libDaisy/src/dev/oled_ssd130x.h ****     };
  47:../../libs/libDaisy/src/sys/../../../../libs/libDaisy/src/dev/oled_ssd130x.h **** 
  48:../../libs/libDaisy/src/sys/../../../../libs/libDaisy/src/dev/oled_ssd130x.h ****     void SendData(uint8_t* buff, size_t size)
  49:../../libs/libDaisy/src/sys/../../../../libs/libDaisy/src/dev/oled_ssd130x.h ****     {
  50:../../libs/libDaisy/src/sys/../../../../libs/libDaisy/src/dev/oled_ssd130x.h ****         for(size_t i = 0; i < size; i++)
  51:../../libs/libDaisy/src/sys/../../../../libs/libDaisy/src/dev/oled_ssd130x.h ****         {
  52:../../libs/libDaisy/src/sys/../../../../libs/libDaisy/src/dev/oled_ssd130x.h ****             uint8_t buf[2] = {0X40, buff[i]};
  53:../../libs/libDaisy/src/sys/../../../../libs/libDaisy/src/dev/oled_ssd130x.h ****             i2c_.TransmitBlocking(i2c_address_, buf, 2, 1000);
  54:../../libs/libDaisy/src/sys/../../../../libs/libDaisy/src/dev/oled_ssd130x.h ****         }
  55:../../libs/libDaisy/src/sys/../../../../libs/libDaisy/src/dev/oled_ssd130x.h ****     };
  56:../../libs/libDaisy/src/sys/../../../../libs/libDaisy/src/dev/oled_ssd130x.h **** 
  57:../../libs/libDaisy/src/sys/../../../../libs/libDaisy/src/dev/oled_ssd130x.h ****   private:
  58:../../libs/libDaisy/src/sys/../../../../libs/libDaisy/src/dev/oled_ssd130x.h ****     daisy::I2CHandle i2c_;
  59:../../libs/libDaisy/src/sys/../../../../libs/libDaisy/src/dev/oled_ssd130x.h ****     uint8_t          i2c_address_;
  60:../../libs/libDaisy/src/sys/../../../../libs/libDaisy/src/dev/oled_ssd130x.h **** };
  61:../../libs/libDaisy/src/sys/../../../../libs/libDaisy/src/dev/oled_ssd130x.h **** 
  62:../../libs/libDaisy/src/sys/../../../../libs/libDaisy/src/dev/oled_ssd130x.h **** /**
  63:../../libs/libDaisy/src/sys/../../../../libs/libDaisy/src/dev/oled_ssd130x.h ****  * 4 Wire SPI Transport for SSD1306 / SSD1309 OLED display devices
ARM GAS  C:\Users\matte\AppData\Local\Temp\cclPkNhc.s 			page 17


  64:../../libs/libDaisy/src/sys/../../../../libs/libDaisy/src/dev/oled_ssd130x.h ****  */
  65:../../libs/libDaisy/src/sys/../../../../libs/libDaisy/src/dev/oled_ssd130x.h **** class SSD130x4WireSpiTransport
  66:../../libs/libDaisy/src/sys/../../../../libs/libDaisy/src/dev/oled_ssd130x.h **** {
  67:../../libs/libDaisy/src/sys/../../../../libs/libDaisy/src/dev/oled_ssd130x.h ****   public:
  68:../../libs/libDaisy/src/sys/../../../../libs/libDaisy/src/dev/oled_ssd130x.h ****     struct Config
  69:../../libs/libDaisy/src/sys/../../../../libs/libDaisy/src/dev/oled_ssd130x.h ****     {
  70:../../libs/libDaisy/src/sys/../../../../libs/libDaisy/src/dev/oled_ssd130x.h ****         Config()
  71:../../libs/libDaisy/src/sys/../../../../libs/libDaisy/src/dev/oled_ssd130x.h ****         {
  72:../../libs/libDaisy/src/sys/../../../../libs/libDaisy/src/dev/oled_ssd130x.h ****             // Initialize using defaults
  73:../../libs/libDaisy/src/sys/../../../../libs/libDaisy/src/dev/oled_ssd130x.h ****             Defaults();
  74:../../libs/libDaisy/src/sys/../../../../libs/libDaisy/src/dev/oled_ssd130x.h ****         }
  75:../../libs/libDaisy/src/sys/../../../../libs/libDaisy/src/dev/oled_ssd130x.h ****         SpiHandle::Config spi_config;
  76:../../libs/libDaisy/src/sys/../../../../libs/libDaisy/src/dev/oled_ssd130x.h ****         struct
  77:../../libs/libDaisy/src/sys/../../../../libs/libDaisy/src/dev/oled_ssd130x.h ****         {
  78:../../libs/libDaisy/src/sys/../../../../libs/libDaisy/src/dev/oled_ssd130x.h ****             Pin dc;    /**< & */
  79:../../libs/libDaisy/src/sys/../../../../libs/libDaisy/src/dev/oled_ssd130x.h ****             Pin reset; /**< & */
  80:../../libs/libDaisy/src/sys/../../../../libs/libDaisy/src/dev/oled_ssd130x.h ****         } pin_config;
  81:../../libs/libDaisy/src/sys/../../../../libs/libDaisy/src/dev/oled_ssd130x.h ****         void Defaults()
  82:../../libs/libDaisy/src/sys/../../../../libs/libDaisy/src/dev/oled_ssd130x.h ****         {
  83:../../libs/libDaisy/src/sys/../../../../libs/libDaisy/src/dev/oled_ssd130x.h ****             // SPI peripheral config
  84:../../libs/libDaisy/src/sys/../../../../libs/libDaisy/src/dev/oled_ssd130x.h ****             spi_config.periph = SpiHandle::Config::Peripheral::SPI_1;
  85:../../libs/libDaisy/src/sys/../../../../libs/libDaisy/src/dev/oled_ssd130x.h ****             spi_config.mode   = SpiHandle::Config::Mode::MASTER;
  86:../../libs/libDaisy/src/sys/../../../../libs/libDaisy/src/dev/oled_ssd130x.h ****             spi_config.direction
  87:../../libs/libDaisy/src/sys/../../../../libs/libDaisy/src/dev/oled_ssd130x.h ****                 = SpiHandle::Config::Direction::TWO_LINES_TX_ONLY;
  88:../../libs/libDaisy/src/sys/../../../../libs/libDaisy/src/dev/oled_ssd130x.h ****             spi_config.datasize       = 8;
  89:../../libs/libDaisy/src/sys/../../../../libs/libDaisy/src/dev/oled_ssd130x.h ****             spi_config.clock_polarity = SpiHandle::Config::ClockPolarity::LOW;
  90:../../libs/libDaisy/src/sys/../../../../libs/libDaisy/src/dev/oled_ssd130x.h ****             spi_config.clock_phase    = SpiHandle::Config::ClockPhase::ONE_EDGE;
  91:../../libs/libDaisy/src/sys/../../../../libs/libDaisy/src/dev/oled_ssd130x.h ****             spi_config.nss            = SpiHandle::Config::NSS::HARD_OUTPUT;
  92:../../libs/libDaisy/src/sys/../../../../libs/libDaisy/src/dev/oled_ssd130x.h ****             spi_config.baud_prescaler = SpiHandle::Config::BaudPrescaler::PS_8;
  93:../../libs/libDaisy/src/sys/../../../../libs/libDaisy/src/dev/oled_ssd130x.h ****             // SPI pin config
  94:../../libs/libDaisy/src/sys/../../../../libs/libDaisy/src/dev/oled_ssd130x.h ****             spi_config.pin_config.sclk = Pin(PORTG, 11);
  95:../../libs/libDaisy/src/sys/../../../../libs/libDaisy/src/dev/oled_ssd130x.h ****             spi_config.pin_config.miso = Pin(PORTX, 0);
  96:../../libs/libDaisy/src/sys/../../../../libs/libDaisy/src/dev/oled_ssd130x.h ****             spi_config.pin_config.mosi = Pin(PORTB, 5);
  97:../../libs/libDaisy/src/sys/../../../../libs/libDaisy/src/dev/oled_ssd130x.h ****             spi_config.pin_config.nss  = Pin(PORTG, 10);
  98:../../libs/libDaisy/src/sys/../../../../libs/libDaisy/src/dev/oled_ssd130x.h ****             // SSD130x control pin config
  99:../../libs/libDaisy/src/sys/../../../../libs/libDaisy/src/dev/oled_ssd130x.h ****             pin_config.dc    = Pin(PORTB, 4);
 100:../../libs/libDaisy/src/sys/../../../../libs/libDaisy/src/dev/oled_ssd130x.h ****             pin_config.reset = Pin(PORTB, 15);
 101:../../libs/libDaisy/src/sys/../../../../libs/libDaisy/src/dev/oled_ssd130x.h ****         }
 102:../../libs/libDaisy/src/sys/../../../../libs/libDaisy/src/dev/oled_ssd130x.h ****     };
 103:../../libs/libDaisy/src/sys/../../../../libs/libDaisy/src/dev/oled_ssd130x.h ****     void Init(const Config& config)
 104:../../libs/libDaisy/src/sys/../../../../libs/libDaisy/src/dev/oled_ssd130x.h ****     {
 105:../../libs/libDaisy/src/sys/../../../../libs/libDaisy/src/dev/oled_ssd130x.h ****         // Initialize both GPIO
 106:../../libs/libDaisy/src/sys/../../../../libs/libDaisy/src/dev/oled_ssd130x.h ****         pin_dc_.Init(config.pin_config.dc, GPIO::Mode::OUTPUT);
 107:../../libs/libDaisy/src/sys/../../../../libs/libDaisy/src/dev/oled_ssd130x.h ****         pin_reset_.Init(config.pin_config.reset, GPIO::Mode::OUTPUT);
 108:../../libs/libDaisy/src/sys/../../../../libs/libDaisy/src/dev/oled_ssd130x.h **** 
 109:../../libs/libDaisy/src/sys/../../../../libs/libDaisy/src/dev/oled_ssd130x.h ****         // Initialize SPI
 110:../../libs/libDaisy/src/sys/../../../../libs/libDaisy/src/dev/oled_ssd130x.h ****         spi_.Init(config.spi_config);
 111:../../libs/libDaisy/src/sys/../../../../libs/libDaisy/src/dev/oled_ssd130x.h **** 
 112:../../libs/libDaisy/src/sys/../../../../libs/libDaisy/src/dev/oled_ssd130x.h ****         // Reset and Configure OLED.
 113:../../libs/libDaisy/src/sys/../../../../libs/libDaisy/src/dev/oled_ssd130x.h ****         pin_reset_.Write(0);
 114:../../libs/libDaisy/src/sys/../../../../libs/libDaisy/src/dev/oled_ssd130x.h ****         System::Delay(10);
 115:../../libs/libDaisy/src/sys/../../../../libs/libDaisy/src/dev/oled_ssd130x.h ****         pin_reset_.Write(1);
 116:../../libs/libDaisy/src/sys/../../../../libs/libDaisy/src/dev/oled_ssd130x.h ****         System::Delay(10);
 117:../../libs/libDaisy/src/sys/../../../../libs/libDaisy/src/dev/oled_ssd130x.h ****     };
 118:../../libs/libDaisy/src/sys/../../../../libs/libDaisy/src/dev/oled_ssd130x.h ****     void SendCommand(uint8_t cmd)
 119:../../libs/libDaisy/src/sys/../../../../libs/libDaisy/src/dev/oled_ssd130x.h ****     {
 120:../../libs/libDaisy/src/sys/../../../../libs/libDaisy/src/dev/oled_ssd130x.h ****         pin_dc_.Write(0);
ARM GAS  C:\Users\matte\AppData\Local\Temp\cclPkNhc.s 			page 18


 121:../../libs/libDaisy/src/sys/../../../../libs/libDaisy/src/dev/oled_ssd130x.h ****         spi_.BlockingTransmit(&cmd, 1);
 122:../../libs/libDaisy/src/sys/../../../../libs/libDaisy/src/dev/oled_ssd130x.h ****     };
 123:../../libs/libDaisy/src/sys/../../../../libs/libDaisy/src/dev/oled_ssd130x.h **** 
 124:../../libs/libDaisy/src/sys/../../../../libs/libDaisy/src/dev/oled_ssd130x.h ****     void SendData(uint8_t* buff, size_t size)
 125:../../libs/libDaisy/src/sys/../../../../libs/libDaisy/src/dev/oled_ssd130x.h ****     {
 126:../../libs/libDaisy/src/sys/../../../../libs/libDaisy/src/dev/oled_ssd130x.h ****         pin_dc_.Write(1);
 127:../../libs/libDaisy/src/sys/../../../../libs/libDaisy/src/dev/oled_ssd130x.h ****         spi_.BlockingTransmit(buff, size);
 128:../../libs/libDaisy/src/sys/../../../../libs/libDaisy/src/dev/oled_ssd130x.h ****     };
 129:../../libs/libDaisy/src/sys/../../../../libs/libDaisy/src/dev/oled_ssd130x.h **** 
 130:../../libs/libDaisy/src/sys/../../../../libs/libDaisy/src/dev/oled_ssd130x.h ****   private:
 131:../../libs/libDaisy/src/sys/../../../../libs/libDaisy/src/dev/oled_ssd130x.h ****     SpiHandle spi_;
 132:../../libs/libDaisy/src/sys/../../../../libs/libDaisy/src/dev/oled_ssd130x.h ****     GPIO      pin_reset_;
 133:../../libs/libDaisy/src/sys/../../../../libs/libDaisy/src/dev/oled_ssd130x.h ****     GPIO      pin_dc_;
 134:../../libs/libDaisy/src/sys/../../../../libs/libDaisy/src/dev/oled_ssd130x.h **** };
 135:../../libs/libDaisy/src/sys/../../../../libs/libDaisy/src/dev/oled_ssd130x.h **** 
 136:../../libs/libDaisy/src/sys/../../../../libs/libDaisy/src/dev/oled_ssd130x.h **** /**
 137:../../libs/libDaisy/src/sys/../../../../libs/libDaisy/src/dev/oled_ssd130x.h ****  * Soft SPI Transport for SSD1306 / SSD1309 OLED display devices
 138:../../libs/libDaisy/src/sys/../../../../libs/libDaisy/src/dev/oled_ssd130x.h ****  */
 139:../../libs/libDaisy/src/sys/../../../../libs/libDaisy/src/dev/oled_ssd130x.h **** class SSD130x4WireSoftSpiTransport
 140:../../libs/libDaisy/src/sys/../../../../libs/libDaisy/src/dev/oled_ssd130x.h **** {
 141:../../libs/libDaisy/src/sys/../../../../libs/libDaisy/src/dev/oled_ssd130x.h ****   public:
 142:../../libs/libDaisy/src/sys/../../../../libs/libDaisy/src/dev/oled_ssd130x.h ****     struct Config
 143:../../libs/libDaisy/src/sys/../../../../libs/libDaisy/src/dev/oled_ssd130x.h ****     {
 144:../../libs/libDaisy/src/sys/../../../../libs/libDaisy/src/dev/oled_ssd130x.h ****         Config()
 145:../../libs/libDaisy/src/sys/../../../../libs/libDaisy/src/dev/oled_ssd130x.h ****         {
 146:../../libs/libDaisy/src/sys/../../../../libs/libDaisy/src/dev/oled_ssd130x.h ****             // Initialize using defaults
 147:../../libs/libDaisy/src/sys/../../../../libs/libDaisy/src/dev/oled_ssd130x.h ****             Defaults();
 148:../../libs/libDaisy/src/sys/../../../../libs/libDaisy/src/dev/oled_ssd130x.h ****         }
 149:../../libs/libDaisy/src/sys/../../../../libs/libDaisy/src/dev/oled_ssd130x.h ****         struct
 150:../../libs/libDaisy/src/sys/../../../../libs/libDaisy/src/dev/oled_ssd130x.h ****         {
 151:../../libs/libDaisy/src/sys/../../../../libs/libDaisy/src/dev/oled_ssd130x.h ****             uint32_t sclk_delay;
 152:../../libs/libDaisy/src/sys/../../../../libs/libDaisy/src/dev/oled_ssd130x.h ****             Pin      sclk;
 153:../../libs/libDaisy/src/sys/../../../../libs/libDaisy/src/dev/oled_ssd130x.h ****             Pin      mosi;
 154:../../libs/libDaisy/src/sys/../../../../libs/libDaisy/src/dev/oled_ssd130x.h ****             Pin      dc;
 155:../../libs/libDaisy/src/sys/../../../../libs/libDaisy/src/dev/oled_ssd130x.h ****             Pin      reset;
 156:../../libs/libDaisy/src/sys/../../../../libs/libDaisy/src/dev/oled_ssd130x.h ****         } pin_config;
 157:../../libs/libDaisy/src/sys/../../../../libs/libDaisy/src/dev/oled_ssd130x.h ****         void Defaults()
 158:../../libs/libDaisy/src/sys/../../../../libs/libDaisy/src/dev/oled_ssd130x.h ****         {
 159:../../libs/libDaisy/src/sys/../../../../libs/libDaisy/src/dev/oled_ssd130x.h ****             pin_config.sclk_delay = 0; // fast as possible?!
 160:../../libs/libDaisy/src/sys/../../../../libs/libDaisy/src/dev/oled_ssd130x.h ****             // SPI peripheral config
 161:../../libs/libDaisy/src/sys/../../../../libs/libDaisy/src/dev/oled_ssd130x.h ****             pin_config.sclk = Pin(PORTD, 3); /**< D10 - SPI2 SCK  */
 162:../../libs/libDaisy/src/sys/../../../../libs/libDaisy/src/dev/oled_ssd130x.h ****             pin_config.mosi = Pin(PORTC, 3); /**< D9  - SPI2 MOSI */
 163:../../libs/libDaisy/src/sys/../../../../libs/libDaisy/src/dev/oled_ssd130x.h ****             // SSD130x control pin config
 164:../../libs/libDaisy/src/sys/../../../../libs/libDaisy/src/dev/oled_ssd130x.h ****             pin_config.dc    = Pin(PORTC, 11); //D2
 165:../../libs/libDaisy/src/sys/../../../../libs/libDaisy/src/dev/oled_ssd130x.h ****             pin_config.reset = Pin(PORTC, 10); //D3
 166:../../libs/libDaisy/src/sys/../../../../libs/libDaisy/src/dev/oled_ssd130x.h ****         }
 167:../../libs/libDaisy/src/sys/../../../../libs/libDaisy/src/dev/oled_ssd130x.h ****     };
 168:../../libs/libDaisy/src/sys/../../../../libs/libDaisy/src/dev/oled_ssd130x.h ****     void Init(const Config& config)
 169:../../libs/libDaisy/src/sys/../../../../libs/libDaisy/src/dev/oled_ssd130x.h ****     {
 170:../../libs/libDaisy/src/sys/../../../../libs/libDaisy/src/dev/oled_ssd130x.h ****         // Initialize both GPIO
 171:../../libs/libDaisy/src/sys/../../../../libs/libDaisy/src/dev/oled_ssd130x.h ****         pin_sclk_.Init(config.pin_config.sclk, GPIO::Mode::OUTPUT);
 172:../../libs/libDaisy/src/sys/../../../../libs/libDaisy/src/dev/oled_ssd130x.h ****         pin_sclk_.Write(1); //ClockPolarity::LOW
 173:../../libs/libDaisy/src/sys/../../../../libs/libDaisy/src/dev/oled_ssd130x.h ****         clk_delay = config.pin_config.sclk_delay;
 174:../../libs/libDaisy/src/sys/../../../../libs/libDaisy/src/dev/oled_ssd130x.h ****         pin_mosi_.Init(config.pin_config.mosi, GPIO::Mode::OUTPUT);
 175:../../libs/libDaisy/src/sys/../../../../libs/libDaisy/src/dev/oled_ssd130x.h ****         pin_mosi_.Write(0);
 176:../../libs/libDaisy/src/sys/../../../../libs/libDaisy/src/dev/oled_ssd130x.h **** 
 177:../../libs/libDaisy/src/sys/../../../../libs/libDaisy/src/dev/oled_ssd130x.h ****         pin_dc_.Init(config.pin_config.dc, GPIO::Mode::OUTPUT);
ARM GAS  C:\Users\matte\AppData\Local\Temp\cclPkNhc.s 			page 19


 178:../../libs/libDaisy/src/sys/../../../../libs/libDaisy/src/dev/oled_ssd130x.h ****         pin_reset_.Init(config.pin_config.reset, GPIO::Mode::OUTPUT);
 179:../../libs/libDaisy/src/sys/../../../../libs/libDaisy/src/dev/oled_ssd130x.h **** 
 180:../../libs/libDaisy/src/sys/../../../../libs/libDaisy/src/dev/oled_ssd130x.h ****         // Reset and Configure OLED.
 181:../../libs/libDaisy/src/sys/../../../../libs/libDaisy/src/dev/oled_ssd130x.h ****         pin_reset_.Write(0);
 182:../../libs/libDaisy/src/sys/../../../../libs/libDaisy/src/dev/oled_ssd130x.h ****         System::Delay(10);
 183:../../libs/libDaisy/src/sys/../../../../libs/libDaisy/src/dev/oled_ssd130x.h ****         pin_reset_.Write(1);
 184:../../libs/libDaisy/src/sys/../../../../libs/libDaisy/src/dev/oled_ssd130x.h ****         System::Delay(10);
 185:../../libs/libDaisy/src/sys/../../../../libs/libDaisy/src/dev/oled_ssd130x.h ****     };
 186:../../libs/libDaisy/src/sys/../../../../libs/libDaisy/src/dev/oled_ssd130x.h ****     void SendCommand(uint8_t cmd)
 187:../../libs/libDaisy/src/sys/../../../../libs/libDaisy/src/dev/oled_ssd130x.h ****     {
 188:../../libs/libDaisy/src/sys/../../../../libs/libDaisy/src/dev/oled_ssd130x.h ****         pin_dc_.Write(0);
 189:../../libs/libDaisy/src/sys/../../../../libs/libDaisy/src/dev/oled_ssd130x.h ****         SoftSpiTransmit(cmd);
 190:../../libs/libDaisy/src/sys/../../../../libs/libDaisy/src/dev/oled_ssd130x.h ****     };
 191:../../libs/libDaisy/src/sys/../../../../libs/libDaisy/src/dev/oled_ssd130x.h **** 
 192:../../libs/libDaisy/src/sys/../../../../libs/libDaisy/src/dev/oled_ssd130x.h ****     void SendData(uint8_t* buff, size_t size)
 193:../../libs/libDaisy/src/sys/../../../../libs/libDaisy/src/dev/oled_ssd130x.h ****     {
 194:../../libs/libDaisy/src/sys/../../../../libs/libDaisy/src/dev/oled_ssd130x.h ****         pin_dc_.Write(1);
 195:../../libs/libDaisy/src/sys/../../../../libs/libDaisy/src/dev/oled_ssd130x.h ****         for(size_t i = 0; i < size; i++)
 196:../../libs/libDaisy/src/sys/../../../../libs/libDaisy/src/dev/oled_ssd130x.h ****             SoftSpiTransmit(buff[i]);
 197:../../libs/libDaisy/src/sys/../../../../libs/libDaisy/src/dev/oled_ssd130x.h ****     };
 198:../../libs/libDaisy/src/sys/../../../../libs/libDaisy/src/dev/oled_ssd130x.h **** 
 199:../../libs/libDaisy/src/sys/../../../../libs/libDaisy/src/dev/oled_ssd130x.h ****   private:
 200:../../libs/libDaisy/src/sys/../../../../libs/libDaisy/src/dev/oled_ssd130x.h ****     void SoftSpiTransmit(uint8_t val)
 201:../../libs/libDaisy/src/sys/../../../../libs/libDaisy/src/dev/oled_ssd130x.h ****     {
 202:../../libs/libDaisy/src/sys/../../../../libs/libDaisy/src/dev/oled_ssd130x.h ****         // bit flip
 203:../../libs/libDaisy/src/sys/../../../../libs/libDaisy/src/dev/oled_ssd130x.h ****         val = ((val & 0x01) << 7) | ((val & 0x02) << 5) | ((val & 0x04) << 3)
 204:../../libs/libDaisy/src/sys/../../../../libs/libDaisy/src/dev/oled_ssd130x.h ****               | ((val & 0x08) << 1) | ((val & 0x10) >> 1) | ((val & 0x20) >> 3)
 205:../../libs/libDaisy/src/sys/../../../../libs/libDaisy/src/dev/oled_ssd130x.h ****               | ((val & 0x40) >> 5) | ((val & 0x80) >> 7);
 206:../../libs/libDaisy/src/sys/../../../../libs/libDaisy/src/dev/oled_ssd130x.h **** 
 207:../../libs/libDaisy/src/sys/../../../../libs/libDaisy/src/dev/oled_ssd130x.h ****         for(uint8_t bit = 0u; bit < 8u; bit++)
 208:../../libs/libDaisy/src/sys/../../../../libs/libDaisy/src/dev/oled_ssd130x.h ****         {
 209:../../libs/libDaisy/src/sys/../../../../libs/libDaisy/src/dev/oled_ssd130x.h ****             pin_mosi_.Write((val & (1 << bit)) ? 1 : 0);
 210:../../libs/libDaisy/src/sys/../../../../libs/libDaisy/src/dev/oled_ssd130x.h **** 
 211:../../libs/libDaisy/src/sys/../../../../libs/libDaisy/src/dev/oled_ssd130x.h ****             System::DelayTicks(clk_delay);
 212:../../libs/libDaisy/src/sys/../../../../libs/libDaisy/src/dev/oled_ssd130x.h **** 
 213:../../libs/libDaisy/src/sys/../../../../libs/libDaisy/src/dev/oled_ssd130x.h ****             pin_sclk_.Toggle();
 214:../../libs/libDaisy/src/sys/../../../../libs/libDaisy/src/dev/oled_ssd130x.h **** 
 215:../../libs/libDaisy/src/sys/../../../../libs/libDaisy/src/dev/oled_ssd130x.h ****             System::DelayTicks(clk_delay);
 216:../../libs/libDaisy/src/sys/../../../../libs/libDaisy/src/dev/oled_ssd130x.h **** 
 217:../../libs/libDaisy/src/sys/../../../../libs/libDaisy/src/dev/oled_ssd130x.h ****             pin_sclk_.Toggle();
 218:../../libs/libDaisy/src/sys/../../../../libs/libDaisy/src/dev/oled_ssd130x.h ****         }
 219:../../libs/libDaisy/src/sys/../../../../libs/libDaisy/src/dev/oled_ssd130x.h ****     }
 220:../../libs/libDaisy/src/sys/../../../../libs/libDaisy/src/dev/oled_ssd130x.h **** 
 221:../../libs/libDaisy/src/sys/../../../../libs/libDaisy/src/dev/oled_ssd130x.h ****     uint32_t clk_delay;
 222:../../libs/libDaisy/src/sys/../../../../libs/libDaisy/src/dev/oled_ssd130x.h ****     GPIO     pin_sclk_;
 223:../../libs/libDaisy/src/sys/../../../../libs/libDaisy/src/dev/oled_ssd130x.h ****     GPIO     pin_mosi_;
 224:../../libs/libDaisy/src/sys/../../../../libs/libDaisy/src/dev/oled_ssd130x.h ****     GPIO     pin_reset_;
 225:../../libs/libDaisy/src/sys/../../../../libs/libDaisy/src/dev/oled_ssd130x.h ****     GPIO     pin_dc_;
 226:../../libs/libDaisy/src/sys/../../../../libs/libDaisy/src/dev/oled_ssd130x.h **** };
 227:../../libs/libDaisy/src/sys/../../../../libs/libDaisy/src/dev/oled_ssd130x.h **** 
 228:../../libs/libDaisy/src/sys/../../../../libs/libDaisy/src/dev/oled_ssd130x.h **** 
 229:../../libs/libDaisy/src/sys/../../../../libs/libDaisy/src/dev/oled_ssd130x.h **** /**
 230:../../libs/libDaisy/src/sys/../../../../libs/libDaisy/src/dev/oled_ssd130x.h ****  * A driver implementation for the SSD1306/SSD1309
 231:../../libs/libDaisy/src/sys/../../../../libs/libDaisy/src/dev/oled_ssd130x.h ****  */
 232:../../libs/libDaisy/src/sys/../../../../libs/libDaisy/src/dev/oled_ssd130x.h **** template <size_t width, size_t height, typename Transport>
 233:../../libs/libDaisy/src/sys/../../../../libs/libDaisy/src/dev/oled_ssd130x.h **** class SSD130xDriver
 234:../../libs/libDaisy/src/sys/../../../../libs/libDaisy/src/dev/oled_ssd130x.h **** {
ARM GAS  C:\Users\matte\AppData\Local\Temp\cclPkNhc.s 			page 20


 235:../../libs/libDaisy/src/sys/../../../../libs/libDaisy/src/dev/oled_ssd130x.h ****   public:
 236:../../libs/libDaisy/src/sys/../../../../libs/libDaisy/src/dev/oled_ssd130x.h ****     struct Config
 237:../../libs/libDaisy/src/sys/../../../../libs/libDaisy/src/dev/oled_ssd130x.h ****     {
 238:../../libs/libDaisy/src/sys/../../../../libs/libDaisy/src/dev/oled_ssd130x.h ****         typename Transport::Config transport_config;
 239:../../libs/libDaisy/src/sys/../../../../libs/libDaisy/src/dev/oled_ssd130x.h ****     };
 240:../../libs/libDaisy/src/sys/../../../../libs/libDaisy/src/dev/oled_ssd130x.h **** 
 241:../../libs/libDaisy/src/sys/../../../../libs/libDaisy/src/dev/oled_ssd130x.h ****     void Init(Config config)
 242:../../libs/libDaisy/src/sys/../../../../libs/libDaisy/src/dev/oled_ssd130x.h ****     {
 243:../../libs/libDaisy/src/sys/../../../../libs/libDaisy/src/dev/oled_ssd130x.h ****         transport_.Init(config.transport_config);
 244:../../libs/libDaisy/src/sys/../../../../libs/libDaisy/src/dev/oled_ssd130x.h **** 
 245:../../libs/libDaisy/src/sys/../../../../libs/libDaisy/src/dev/oled_ssd130x.h ****         // Init routine...
 246:../../libs/libDaisy/src/sys/../../../../libs/libDaisy/src/dev/oled_ssd130x.h **** 
 247:../../libs/libDaisy/src/sys/../../../../libs/libDaisy/src/dev/oled_ssd130x.h ****         // Display Off
 248:../../libs/libDaisy/src/sys/../../../../libs/libDaisy/src/dev/oled_ssd130x.h ****         transport_.SendCommand(0xaE);
 249:../../libs/libDaisy/src/sys/../../../../libs/libDaisy/src/dev/oled_ssd130x.h ****         // Dimension dependent commands...
 250:../../libs/libDaisy/src/sys/../../../../libs/libDaisy/src/dev/oled_ssd130x.h ****         switch(height)
 251:../../libs/libDaisy/src/sys/../../../../libs/libDaisy/src/dev/oled_ssd130x.h ****         {
 252:../../libs/libDaisy/src/sys/../../../../libs/libDaisy/src/dev/oled_ssd130x.h ****             case 16:
 253:../../libs/libDaisy/src/sys/../../../../libs/libDaisy/src/dev/oled_ssd130x.h ****                 // Display Clock Divide Ratio
 254:../../libs/libDaisy/src/sys/../../../../libs/libDaisy/src/dev/oled_ssd130x.h ****                 transport_.SendCommand(0xD5);
 255:../../libs/libDaisy/src/sys/../../../../libs/libDaisy/src/dev/oled_ssd130x.h ****                 transport_.SendCommand(0x60);
 256:../../libs/libDaisy/src/sys/../../../../libs/libDaisy/src/dev/oled_ssd130x.h ****                 // Multiplex Ratio
 257:../../libs/libDaisy/src/sys/../../../../libs/libDaisy/src/dev/oled_ssd130x.h ****                 transport_.SendCommand(0xA8);
 258:../../libs/libDaisy/src/sys/../../../../libs/libDaisy/src/dev/oled_ssd130x.h ****                 transport_.SendCommand(0x0F);
 259:../../libs/libDaisy/src/sys/../../../../libs/libDaisy/src/dev/oled_ssd130x.h ****                 // COM Pins
 260:../../libs/libDaisy/src/sys/../../../../libs/libDaisy/src/dev/oled_ssd130x.h ****                 transport_.SendCommand(0xDA);
 261:../../libs/libDaisy/src/sys/../../../../libs/libDaisy/src/dev/oled_ssd130x.h ****                 transport_.SendCommand(0x02);
 262:../../libs/libDaisy/src/sys/../../../../libs/libDaisy/src/dev/oled_ssd130x.h ****                 break;
 263:../../libs/libDaisy/src/sys/../../../../libs/libDaisy/src/dev/oled_ssd130x.h ****             case 32:
 264:../../libs/libDaisy/src/sys/../../../../libs/libDaisy/src/dev/oled_ssd130x.h ****                 // Display Clock Divide Ratio
 265:../../libs/libDaisy/src/sys/../../../../libs/libDaisy/src/dev/oled_ssd130x.h ****                 transport_.SendCommand(0xD5);
 266:../../libs/libDaisy/src/sys/../../../../libs/libDaisy/src/dev/oled_ssd130x.h ****                 transport_.SendCommand(0x80);
 267:../../libs/libDaisy/src/sys/../../../../libs/libDaisy/src/dev/oled_ssd130x.h ****                 // Multiplex Ratio
 268:../../libs/libDaisy/src/sys/../../../../libs/libDaisy/src/dev/oled_ssd130x.h ****                 transport_.SendCommand(0xA8);
 269:../../libs/libDaisy/src/sys/../../../../libs/libDaisy/src/dev/oled_ssd130x.h ****                 transport_.SendCommand(0x1F);
 270:../../libs/libDaisy/src/sys/../../../../libs/libDaisy/src/dev/oled_ssd130x.h ****                 // COM Pins
 271:../../libs/libDaisy/src/sys/../../../../libs/libDaisy/src/dev/oled_ssd130x.h ****                 transport_.SendCommand(0xDA);
 272:../../libs/libDaisy/src/sys/../../../../libs/libDaisy/src/dev/oled_ssd130x.h ****                 if(width == 64)
 273:../../libs/libDaisy/src/sys/../../../../libs/libDaisy/src/dev/oled_ssd130x.h ****                 {
 274:../../libs/libDaisy/src/sys/../../../../libs/libDaisy/src/dev/oled_ssd130x.h ****                     transport_.SendCommand(0x12);
 275:../../libs/libDaisy/src/sys/../../../../libs/libDaisy/src/dev/oled_ssd130x.h ****                 }
 276:../../libs/libDaisy/src/sys/../../../../libs/libDaisy/src/dev/oled_ssd130x.h ****                 else
 277:../../libs/libDaisy/src/sys/../../../../libs/libDaisy/src/dev/oled_ssd130x.h ****                 {
 278:../../libs/libDaisy/src/sys/../../../../libs/libDaisy/src/dev/oled_ssd130x.h ****                     transport_.SendCommand(0x02);
 279:../../libs/libDaisy/src/sys/../../../../libs/libDaisy/src/dev/oled_ssd130x.h ****                 }
 280:../../libs/libDaisy/src/sys/../../../../libs/libDaisy/src/dev/oled_ssd130x.h **** 
 281:../../libs/libDaisy/src/sys/../../../../libs/libDaisy/src/dev/oled_ssd130x.h ****                 break;
 282:../../libs/libDaisy/src/sys/../../../../libs/libDaisy/src/dev/oled_ssd130x.h ****             case 48:
 283:../../libs/libDaisy/src/sys/../../../../libs/libDaisy/src/dev/oled_ssd130x.h ****                 // Display Clock Divide Ratio
 284:../../libs/libDaisy/src/sys/../../../../libs/libDaisy/src/dev/oled_ssd130x.h ****                 transport_.SendCommand(0xD5);
 285:../../libs/libDaisy/src/sys/../../../../libs/libDaisy/src/dev/oled_ssd130x.h ****                 transport_.SendCommand(0x80);
 286:../../libs/libDaisy/src/sys/../../../../libs/libDaisy/src/dev/oled_ssd130x.h ****                 // Multiplex Ratio
 287:../../libs/libDaisy/src/sys/../../../../libs/libDaisy/src/dev/oled_ssd130x.h ****                 transport_.SendCommand(0xA8);
 288:../../libs/libDaisy/src/sys/../../../../libs/libDaisy/src/dev/oled_ssd130x.h ****                 transport_.SendCommand(0x2F);
 289:../../libs/libDaisy/src/sys/../../../../libs/libDaisy/src/dev/oled_ssd130x.h ****                 // COM Pins
 290:../../libs/libDaisy/src/sys/../../../../libs/libDaisy/src/dev/oled_ssd130x.h ****                 transport_.SendCommand(0xDA);
 291:../../libs/libDaisy/src/sys/../../../../libs/libDaisy/src/dev/oled_ssd130x.h ****                 transport_.SendCommand(0x12);
ARM GAS  C:\Users\matte\AppData\Local\Temp\cclPkNhc.s 			page 21


 292:../../libs/libDaisy/src/sys/../../../../libs/libDaisy/src/dev/oled_ssd130x.h ****                 break;
 293:../../libs/libDaisy/src/sys/../../../../libs/libDaisy/src/dev/oled_ssd130x.h ****             default: // 128
 294:../../libs/libDaisy/src/sys/../../../../libs/libDaisy/src/dev/oled_ssd130x.h ****                 // Display Clock Divide Ratio
 295:../../libs/libDaisy/src/sys/../../../../libs/libDaisy/src/dev/oled_ssd130x.h ****                 transport_.SendCommand(0xD5);
 296:../../libs/libDaisy/src/sys/../../../../libs/libDaisy/src/dev/oled_ssd130x.h ****                 transport_.SendCommand(0x80);
 297:../../libs/libDaisy/src/sys/../../../../libs/libDaisy/src/dev/oled_ssd130x.h ****                 // Multiplex Ratio
 298:../../libs/libDaisy/src/sys/../../../../libs/libDaisy/src/dev/oled_ssd130x.h ****                 transport_.SendCommand(0xA8);
 299:../../libs/libDaisy/src/sys/../../../../libs/libDaisy/src/dev/oled_ssd130x.h ****                 transport_.SendCommand(0x3F);
 300:../../libs/libDaisy/src/sys/../../../../libs/libDaisy/src/dev/oled_ssd130x.h ****                 // COM Pins
 301:../../libs/libDaisy/src/sys/../../../../libs/libDaisy/src/dev/oled_ssd130x.h ****                 transport_.SendCommand(0xDA);
 302:../../libs/libDaisy/src/sys/../../../../libs/libDaisy/src/dev/oled_ssd130x.h ****                 transport_.SendCommand(0x12);
 303:../../libs/libDaisy/src/sys/../../../../libs/libDaisy/src/dev/oled_ssd130x.h ****                 break;
 304:../../libs/libDaisy/src/sys/../../../../libs/libDaisy/src/dev/oled_ssd130x.h ****         }
 305:../../libs/libDaisy/src/sys/../../../../libs/libDaisy/src/dev/oled_ssd130x.h **** 
 306:../../libs/libDaisy/src/sys/../../../../libs/libDaisy/src/dev/oled_ssd130x.h ****         // Display Offset
 307:../../libs/libDaisy/src/sys/../../../../libs/libDaisy/src/dev/oled_ssd130x.h ****         transport_.SendCommand(0xD3);
 308:../../libs/libDaisy/src/sys/../../../../libs/libDaisy/src/dev/oled_ssd130x.h ****         transport_.SendCommand(0x00);
 309:../../libs/libDaisy/src/sys/../../../../libs/libDaisy/src/dev/oled_ssd130x.h ****         // Start Line Address
 310:../../libs/libDaisy/src/sys/../../../../libs/libDaisy/src/dev/oled_ssd130x.h ****         transport_.SendCommand(0x40);
 311:../../libs/libDaisy/src/sys/../../../../libs/libDaisy/src/dev/oled_ssd130x.h ****         // Normal Display
 312:../../libs/libDaisy/src/sys/../../../../libs/libDaisy/src/dev/oled_ssd130x.h ****         transport_.SendCommand(0xA6);
 313:../../libs/libDaisy/src/sys/../../../../libs/libDaisy/src/dev/oled_ssd130x.h ****         // All On Resume
 314:../../libs/libDaisy/src/sys/../../../../libs/libDaisy/src/dev/oled_ssd130x.h ****         transport_.SendCommand(0xA4);
 315:../../libs/libDaisy/src/sys/../../../../libs/libDaisy/src/dev/oled_ssd130x.h ****         // Charge Pump
 316:../../libs/libDaisy/src/sys/../../../../libs/libDaisy/src/dev/oled_ssd130x.h ****         transport_.SendCommand(0x8D);
 317:../../libs/libDaisy/src/sys/../../../../libs/libDaisy/src/dev/oled_ssd130x.h ****         transport_.SendCommand(0x14);
 318:../../libs/libDaisy/src/sys/../../../../libs/libDaisy/src/dev/oled_ssd130x.h ****         // Set Segment Remap
 319:../../libs/libDaisy/src/sys/../../../../libs/libDaisy/src/dev/oled_ssd130x.h ****         transport_.SendCommand(0xA1);
 320:../../libs/libDaisy/src/sys/../../../../libs/libDaisy/src/dev/oled_ssd130x.h ****         // COM Output Scan Direction
 321:../../libs/libDaisy/src/sys/../../../../libs/libDaisy/src/dev/oled_ssd130x.h ****         transport_.SendCommand(0xC8);
 322:../../libs/libDaisy/src/sys/../../../../libs/libDaisy/src/dev/oled_ssd130x.h ****         // Contrast Control
 323:../../libs/libDaisy/src/sys/../../../../libs/libDaisy/src/dev/oled_ssd130x.h ****         transport_.SendCommand(0x81);
 324:../../libs/libDaisy/src/sys/../../../../libs/libDaisy/src/dev/oled_ssd130x.h ****         transport_.SendCommand(0x8F);
 325:../../libs/libDaisy/src/sys/../../../../libs/libDaisy/src/dev/oled_ssd130x.h ****         // Pre Charge
 326:../../libs/libDaisy/src/sys/../../../../libs/libDaisy/src/dev/oled_ssd130x.h ****         transport_.SendCommand(0xD9);
 327:../../libs/libDaisy/src/sys/../../../../libs/libDaisy/src/dev/oled_ssd130x.h ****         transport_.SendCommand(0x25);
 328:../../libs/libDaisy/src/sys/../../../../libs/libDaisy/src/dev/oled_ssd130x.h ****         // VCOM Detect
 329:../../libs/libDaisy/src/sys/../../../../libs/libDaisy/src/dev/oled_ssd130x.h ****         transport_.SendCommand(0xDB);
 330:../../libs/libDaisy/src/sys/../../../../libs/libDaisy/src/dev/oled_ssd130x.h ****         transport_.SendCommand(0x34);
 331:../../libs/libDaisy/src/sys/../../../../libs/libDaisy/src/dev/oled_ssd130x.h **** 
 332:../../libs/libDaisy/src/sys/../../../../libs/libDaisy/src/dev/oled_ssd130x.h **** 
 333:../../libs/libDaisy/src/sys/../../../../libs/libDaisy/src/dev/oled_ssd130x.h ****         // Display On
 334:../../libs/libDaisy/src/sys/../../../../libs/libDaisy/src/dev/oled_ssd130x.h ****         transport_.SendCommand(0xAF); //--turn on oled panel
 335:../../libs/libDaisy/src/sys/../../../../libs/libDaisy/src/dev/oled_ssd130x.h ****     };
 336:../../libs/libDaisy/src/sys/../../../../libs/libDaisy/src/dev/oled_ssd130x.h **** 
 337:../../libs/libDaisy/src/sys/../../../../libs/libDaisy/src/dev/oled_ssd130x.h ****     size_t Width() const { return width; };
 338:../../libs/libDaisy/src/sys/../../../../libs/libDaisy/src/dev/oled_ssd130x.h ****     size_t Height() const { return height; };
 339:../../libs/libDaisy/src/sys/../../../../libs/libDaisy/src/dev/oled_ssd130x.h **** 
 340:../../libs/libDaisy/src/sys/../../../../libs/libDaisy/src/dev/oled_ssd130x.h ****     void DrawPixel(uint_fast8_t x, uint_fast8_t y, bool on)
 341:../../libs/libDaisy/src/sys/../../../../libs/libDaisy/src/dev/oled_ssd130x.h ****     {
 342:../../libs/libDaisy/src/sys/../../../../libs/libDaisy/src/dev/oled_ssd130x.h ****         if(x >= width || y >= height)
 343:../../libs/libDaisy/src/sys/../../../../libs/libDaisy/src/dev/oled_ssd130x.h ****             return;
 344:../../libs/libDaisy/src/sys/../../../../libs/libDaisy/src/dev/oled_ssd130x.h ****         if(on)
 345:../../libs/libDaisy/src/sys/../../../../libs/libDaisy/src/dev/oled_ssd130x.h ****             buffer_[x + (y / 8) * width] |= (1 << (y % 8));
 346:../../libs/libDaisy/src/sys/../../../../libs/libDaisy/src/dev/oled_ssd130x.h ****         else
 347:../../libs/libDaisy/src/sys/../../../../libs/libDaisy/src/dev/oled_ssd130x.h ****             buffer_[x + (y / 8) * width] &= ~(1 << (y % 8));
 348:../../libs/libDaisy/src/sys/../../../../libs/libDaisy/src/dev/oled_ssd130x.h ****     }
ARM GAS  C:\Users\matte\AppData\Local\Temp\cclPkNhc.s 			page 22


 349:../../libs/libDaisy/src/sys/../../../../libs/libDaisy/src/dev/oled_ssd130x.h **** 
 350:../../libs/libDaisy/src/sys/../../../../libs/libDaisy/src/dev/oled_ssd130x.h ****     void Fill(bool on)
 202              		.loc 10 350 10 view .LVU26
 203              	.LBB471:
 351:../../libs/libDaisy/src/sys/../../../../libs/libDaisy/src/dev/oled_ssd130x.h ****     {
 352:../../libs/libDaisy/src/sys/../../../../libs/libDaisy/src/dev/oled_ssd130x.h ****         for(size_t i = 0; i < sizeof(buffer_); i++)
 204              		.loc 10 352 29 view .LVU27
 353:../../libs/libDaisy/src/sys/../../../../libs/libDaisy/src/dev/oled_ssd130x.h ****         {
 354:../../libs/libDaisy/src/sys/../../../../libs/libDaisy/src/dev/oled_ssd130x.h ****             buffer_[i] = on ? 0xff : 0x00;
 205              		.loc 10 354 24 is_stmt 0 view .LVU28
 206 0000 4942     		rsbs	r1, r1, #0
 207              	.LVL8:
 208              		.loc 10 354 24 view .LVU29
 209 0002 4FF48062 		mov	r2, #1024
 210 0006 1030     		adds	r0, r0, #16
 211              	.LVL9:
 212              		.loc 10 354 24 view .LVU30
 213 0008 C9B2     		uxtb	r1, r1
 214 000a FFF7FEBF 		b	memset
 215              	.LVL10:
 216              		.loc 10 354 24 view .LVU31
 217              	.LBE471:
 218              	.LBE470:
 219              		.cfi_endproc
 220              	.LFE5448:
 222 000e 00BF     		.section	.text._ZL13AudioCallbackPKfPfj,"ax",%progbits
 223              		.align	1
 224              		.p2align 2,,3
 225              		.syntax unified
 226              		.thumb
 227              		.thumb_func
 228              		.fpu fpv5-d16
 230              	_ZL13AudioCallbackPKfPfj:
 231              	.LVL11:
 232              	.LFB4854:
 233              		.file 11 "main.cpp"
   1:main.cpp      **** /**
   2:main.cpp      ****  * @brief Test main function for display
   3:main.cpp      ****  * 
   4:main.cpp      ****  * This is the main entry point for the display test application.
   5:main.cpp      ****  * It serves as a test harness to verify display functionality
   6:main.cpp      ****  * and demonstrate display-related operations.
   7:main.cpp      ****  * 
   8:main.cpp      ****  * @return int Exit status code (0 for success, non-zero for failure)
   9:main.cpp      ****  */
  10:main.cpp      ****  
  11:main.cpp      **** #include "displayHandler.hpp"
  12:main.cpp      **** #include "../../libs/libDaisy/src/daisy_seed.h"
  13:main.cpp      **** #include "../../libs/DaisySP/Source/daisysp.h"
  14:main.cpp      **** 
  15:main.cpp      **** using namespace daisy;
  16:main.cpp      **** using namespace daisysp;
  17:main.cpp      **** 
  18:main.cpp      **** DaisySeed hw;
  19:main.cpp      **** 
  20:main.cpp      **** // test oscillator
  21:main.cpp      **** static Oscillator osc;
ARM GAS  C:\Users\matte\AppData\Local\Temp\cclPkNhc.s 			page 23


  22:main.cpp      **** 
  23:main.cpp      **** // real disp obj, will be handled not called directly
  24:main.cpp      **** MyOledDisplay disp;
  25:main.cpp      ****  
  26:main.cpp      **** DisplayHandler disp_handle (&disp);
  27:main.cpp      **** 
  28:main.cpp      **** 
  29:main.cpp      **** static void AudioCallback(AudioHandle::InterleavingInputBuffer in, AudioHandle::InterleavingOutputB
  30:main.cpp      **** {
 234              		.loc 11 30 1 is_stmt 1 view -0
 235              		.cfi_startproc
 236              		@ args = 0, pretend = 0, frame = 0
 237              		@ frame_needed = 0, uses_anonymous_args = 0
  31:main.cpp      ****     float oscOut = 0;
 238              		.loc 11 31 5 view .LVU33
  32:main.cpp      ****     for (size_t i = 0; i < size; i += 2)
 239              		.loc 11 32 5 view .LVU34
 240              	.LBB472:
 241              		.loc 11 32 26 view .LVU35
 242 0000 CAB1     		cbz	r2, .L16
 243 0002 013A     		subs	r2, r2, #1
 244              	.LVL12:
 245              		.loc 11 32 26 is_stmt 0 view .LVU36
 246              	.LBE472:
  30:main.cpp      ****     float oscOut = 0;
 247              		.loc 11 30 1 view .LVU37
 248 0004 70B5     		push	{r4, r5, r6, lr}
 249              		.cfi_def_cfa_offset 16
 250              		.cfi_offset 4, -16
 251              		.cfi_offset 5, -12
 252              		.cfi_offset 6, -8
 253              		.cfi_offset 14, -4
 254 0006 0C46     		mov	r4, r1
 255              	.LBB473:
 256              		.loc 11 32 26 view .LVU38
 257 0008 0025     		movs	r5, #0
 258 000a 5608     		lsrs	r6, r2, #1
 259              	.LVL13:
 260              	.L10:
  33:main.cpp      ****     {
  34:main.cpp      ****         oscOut = osc.Process();
 261              		.loc 11 34 9 is_stmt 1 discriminator 2 view .LVU39
 262              		.loc 11 34 29 is_stmt 0 discriminator 2 view .LVU40
 263 000c 0A48     		ldr	r0, .L19
 264 000e FFF7FEFF 		bl	_ZN7daisysp10Oscillator7ProcessEv
 265              	.LVL14:
  35:main.cpp      ****         disp_handle.pushAudioSample (oscOut);
 266              		.loc 11 35 9 is_stmt 1 discriminator 2 view .LVU41
 267              		.loc 11 35 37 is_stmt 0 discriminator 2 view .LVU42
 268 0012 0A48     		ldr	r0, .L19+4
 269 0014 FFF7FEFF 		bl	_ZN14DisplayHandler15pushAudioSampleEf
 270              	.LVL15:
  36:main.cpp      ****         // uncomment to decimate -> frequency displayed is double the true one 
  37:main.cpp      ****         //  bool decimate;
  38:main.cpp      ****         //  if (decimate) {
  39:main.cpp      ****         //  // also applies some scale factor
  40:main.cpp      ****         //  disp_handle.pushAudioSample (oscOut/1.25);
ARM GAS  C:\Users\matte\AppData\Local\Temp\cclPkNhc.s 			page 24


  41:main.cpp      ****         //  decimate = !decimate;
  42:main.cpp      ****         // }
  43:main.cpp      ****         out[i] = out[i + 1] = osc.Process();               
 271              		.loc 11 43 9 is_stmt 1 discriminator 2 view .LVU43
 272              		.loc 11 43 42 is_stmt 0 discriminator 2 view .LVU44
 273 0018 0748     		ldr	r0, .L19
 274 001a FFF7FEFF 		bl	_ZN7daisysp10Oscillator7ProcessEv
 275              	.LVL16:
 276              		.loc 11 43 16 discriminator 2 view .LVU45
 277 001e 2246     		mov	r2, r4
  32:main.cpp      ****     {
 278              		.loc 11 32 26 discriminator 2 view .LVU46
 279 0020 AE42     		cmp	r6, r5
 280              		.loc 11 43 29 discriminator 2 view .LVU47
 281 0022 84ED010A 		vstr.32	s0, [r4, #4]
  32:main.cpp      ****     {
 282              		.loc 11 32 26 discriminator 2 view .LVU48
 283 0026 05F10105 		add	r5, r5, #1
 284              	.LVL17:
 285              		.loc 11 43 16 discriminator 2 view .LVU49
 286 002a 04F10804 		add	r4, r4, #8
 287 002e 82ED000A 		vstr.32	s0, [r2]
  32:main.cpp      ****     {
 288              		.loc 11 32 5 is_stmt 1 discriminator 2 view .LVU50
 289              	.LVL18:
  32:main.cpp      ****     {
 290              		.loc 11 32 26 discriminator 2 view .LVU51
 291 0032 EBD1     		bne	.L10
 292              	.LBE473:
  44:main.cpp      ****     }
  45:main.cpp      **** }
 293              		.loc 11 45 1 is_stmt 0 view .LVU52
 294 0034 70BD     		pop	{r4, r5, r6, pc}
 295              	.LVL19:
 296              	.L16:
 297              		.cfi_def_cfa_offset 0
 298              		.cfi_restore 4
 299              		.cfi_restore 5
 300              		.cfi_restore 6
 301              		.cfi_restore 14
 302              		.loc 11 45 1 view .LVU53
 303 0036 7047     		bx	lr
 304              	.L20:
 305              		.align	2
 306              	.L19:
 307 0038 00000000 		.word	.LANCHOR0
 308 003c 00000000 		.word	.LANCHOR1
 309              		.cfi_endproc
 310              	.LFE4854:
 312              		.section	.text._ZN5daisy11OledDisplayINS_13SSD130xDriverILj128ELj64ENS_19SSD130xI2CTransportEEEED0
 313              		.align	1
 314              		.p2align 2,,3
 315              		.weak	_ZN5daisy11OledDisplayINS_13SSD130xDriverILj128ELj64ENS_19SSD130xI2CTransportEEEED0Ev
 316              		.syntax unified
 317              		.thumb
 318              		.thumb_func
 319              		.fpu fpv5-d16
ARM GAS  C:\Users\matte\AppData\Local\Temp\cclPkNhc.s 			page 25


 321              	_ZN5daisy11OledDisplayINS_13SSD130xDriverILj128ELj64ENS_19SSD130xI2CTransportEEEED0Ev:
 322              	.LVL20:
 323              	.LFB5445:
  18:../../libs/libDaisy/src/sys/../../../../libs/libDaisy/src/hid/disp/oled_display.h **** 
 324              		.loc 8 18 13 is_stmt 1 view -0
 325              		.cfi_startproc
 326              		@ args = 0, pretend = 0, frame = 0
 327              		@ frame_needed = 0, uses_anonymous_args = 0
  18:../../libs/libDaisy/src/sys/../../../../libs/libDaisy/src/hid/disp/oled_display.h **** 
 328              		.loc 8 18 13 is_stmt 0 view .LVU55
 329 0000 10B5     		push	{r4, lr}
 330              		.cfi_def_cfa_offset 8
 331              		.cfi_offset 4, -8
 332              		.cfi_offset 14, -4
  18:../../libs/libDaisy/src/sys/../../../../libs/libDaisy/src/hid/disp/oled_display.h **** 
 333              		.loc 8 18 13 view .LVU56
 334 0002 0446     		mov	r4, r0
 335              	.LVL21:
 336              	.LBB474:
 337              	.LBI474:
  18:../../libs/libDaisy/src/sys/../../../../libs/libDaisy/src/hid/disp/oled_display.h **** 
 338              		.loc 8 18 13 is_stmt 1 view .LVU57
 339              	.LBB475:
 340              	.LBI475:
 341              		.loc 9 219 13 view .LVU58
 342              	.LBB476:
 343              	.LBI476:
  23:../../libs/libDaisy/src/sys/../../../../libs/libDaisy/src/hid/disp/display.h **** 
 344              		.loc 9 23 13 view .LVU59
  23:../../libs/libDaisy/src/sys/../../../../libs/libDaisy/src/hid/disp/display.h **** 
 345              		.loc 9 23 13 is_stmt 0 view .LVU60
 346              	.LBE476:
 347              	.LBE475:
 348              	.LBE474:
  18:../../libs/libDaisy/src/sys/../../../../libs/libDaisy/src/hid/disp/oled_display.h **** 
 349              		.loc 8 18 29 view .LVU61
 350 0004 4FF48261 		mov	r1, #1040
 351 0008 FFF7FEFF 		bl	_ZdlPvj
 352              	.LVL22:
  18:../../libs/libDaisy/src/sys/../../../../libs/libDaisy/src/hid/disp/oled_display.h **** 
 353              		.loc 8 18 29 view .LVU62
 354 000c 2046     		mov	r0, r4
 355 000e 10BD     		pop	{r4, pc}
  18:../../libs/libDaisy/src/sys/../../../../libs/libDaisy/src/hid/disp/oled_display.h **** 
 356              		.loc 8 18 29 view .LVU63
 357              		.cfi_endproc
 358              	.LFE5445:
 360              		.section	.text._ZN5daisy11OledDisplayINS_13SSD130xDriverILj128ELj64ENS_19SSD130xI2CTransportEEEE6U
 361              		.align	1
 362              		.p2align 2,,3
 363              		.weak	_ZN5daisy11OledDisplayINS_13SSD130xDriverILj128ELj64ENS_19SSD130xI2CTransportEEEE6UpdateEv
 364              		.syntax unified
 365              		.thumb
 366              		.thumb_func
 367              		.fpu fpv5-d16
 369              	_ZN5daisy11OledDisplayINS_13SSD130xDriverILj128ELj64ENS_19SSD130xI2CTransportEEEE6UpdateEv:
 370              	.LVL23:
ARM GAS  C:\Users\matte\AppData\Local\Temp\cclPkNhc.s 			page 26


 371              	.LFB5456:
  35:../../libs/libDaisy/src/sys/../../../../libs/libDaisy/src/hid/disp/oled_display.h **** 
  36:../../libs/libDaisy/src/sys/../../../../libs/libDaisy/src/hid/disp/oled_display.h ****     /**
  37:../../libs/libDaisy/src/sys/../../../../libs/libDaisy/src/hid/disp/oled_display.h ****     Sets the pixel at the specified coordinate to be on/off.
  38:../../libs/libDaisy/src/sys/../../../../libs/libDaisy/src/hid/disp/oled_display.h ****     \param x   x Coordinate
  39:../../libs/libDaisy/src/sys/../../../../libs/libDaisy/src/hid/disp/oled_display.h ****     \param y   y coordinate
  40:../../libs/libDaisy/src/sys/../../../../libs/libDaisy/src/hid/disp/oled_display.h ****     \param on  on or off
  41:../../libs/libDaisy/src/sys/../../../../libs/libDaisy/src/hid/disp/oled_display.h ****     */
  42:../../libs/libDaisy/src/sys/../../../../libs/libDaisy/src/hid/disp/oled_display.h ****     void DrawPixel(uint_fast8_t x, uint_fast8_t y, bool on) override
  43:../../libs/libDaisy/src/sys/../../../../libs/libDaisy/src/hid/disp/oled_display.h ****     {
  44:../../libs/libDaisy/src/sys/../../../../libs/libDaisy/src/hid/disp/oled_display.h ****         driver_.DrawPixel(x, y, on);
  45:../../libs/libDaisy/src/sys/../../../../libs/libDaisy/src/hid/disp/oled_display.h ****     }
  46:../../libs/libDaisy/src/sys/../../../../libs/libDaisy/src/hid/disp/oled_display.h **** 
  47:../../libs/libDaisy/src/sys/../../../../libs/libDaisy/src/hid/disp/oled_display.h ****     /** 
  48:../../libs/libDaisy/src/sys/../../../../libs/libDaisy/src/hid/disp/oled_display.h ****     Writes the current display buffer to the OLED device using SPI or I2C depending on 
  49:../../libs/libDaisy/src/sys/../../../../libs/libDaisy/src/hid/disp/oled_display.h ****     how the object was initialized.
  50:../../libs/libDaisy/src/sys/../../../../libs/libDaisy/src/hid/disp/oled_display.h ****     */
  51:../../libs/libDaisy/src/sys/../../../../libs/libDaisy/src/hid/disp/oled_display.h ****     void Update() override { driver_.Update(); }
 372              		.loc 8 51 10 is_stmt 1 view -0
 373              		.cfi_startproc
 374              		@ args = 0, pretend = 0, frame = 8
 375              		@ frame_needed = 0, uses_anonymous_args = 0
 376              		.loc 8 51 10 is_stmt 0 view .LVU65
 377 0000 2DE9F04F 		push	{r4, r5, r6, r7, r8, r9, r10, fp, lr}
 378              		.cfi_def_cfa_offset 36
 379              		.cfi_offset 4, -36
 380              		.cfi_offset 5, -32
 381              		.cfi_offset 6, -28
 382              		.cfi_offset 7, -24
 383              		.cfi_offset 8, -20
 384              		.cfi_offset 9, -16
 385              		.cfi_offset 10, -12
 386              		.cfi_offset 11, -8
 387              		.cfi_offset 14, -4
 388              	.LBB489:
 389              	.LBB490:
 390              	.LBB491:
 391              	.LBB492:
  45:../../libs/libDaisy/src/sys/../../../../libs/libDaisy/src/dev/oled_ssd130x.h ****     };
 392              		.loc 10 45 30 view .LVU66
 393 0004 4FF0B008 		mov	r8, #176
 394              	.LBE492:
 395              	.LBE491:
 396              	.LBE490:
 397              	.LBE489:
 398              		.loc 8 51 10 view .LVU67
 399 0008 85B0     		sub	sp, sp, #20
 400              		.cfi_def_cfa_offset 56
 401              		.loc 8 51 10 view .LVU68
 402 000a 0546     		mov	r5, r0
 403              	.LVL24:
 404              	.LBB504:
 405              	.LBI489:
 355:../../libs/libDaisy/src/sys/../../../../libs/libDaisy/src/dev/oled_ssd130x.h ****         }
 356:../../libs/libDaisy/src/sys/../../../../libs/libDaisy/src/dev/oled_ssd130x.h ****     };
 357:../../libs/libDaisy/src/sys/../../../../libs/libDaisy/src/dev/oled_ssd130x.h **** 
 358:../../libs/libDaisy/src/sys/../../../../libs/libDaisy/src/dev/oled_ssd130x.h ****     /**
ARM GAS  C:\Users\matte\AppData\Local\Temp\cclPkNhc.s 			page 27


 359:../../libs/libDaisy/src/sys/../../../../libs/libDaisy/src/dev/oled_ssd130x.h ****      * Update the display 
 360:../../libs/libDaisy/src/sys/../../../../libs/libDaisy/src/dev/oled_ssd130x.h ****     */
 361:../../libs/libDaisy/src/sys/../../../../libs/libDaisy/src/dev/oled_ssd130x.h ****     void Update()
 406              		.loc 10 361 10 is_stmt 1 view .LVU69
 407              	.LBB503:
 362:../../libs/libDaisy/src/sys/../../../../libs/libDaisy/src/dev/oled_ssd130x.h ****     {
 363:../../libs/libDaisy/src/sys/../../../../libs/libDaisy/src/dev/oled_ssd130x.h ****         uint8_t i;
 364:../../libs/libDaisy/src/sys/../../../../libs/libDaisy/src/dev/oled_ssd130x.h ****         uint8_t high_column_addr;
 365:../../libs/libDaisy/src/sys/../../../../libs/libDaisy/src/dev/oled_ssd130x.h ****         switch(height)
 366:../../libs/libDaisy/src/sys/../../../../libs/libDaisy/src/dev/oled_ssd130x.h ****         {
 367:../../libs/libDaisy/src/sys/../../../../libs/libDaisy/src/dev/oled_ssd130x.h ****             case 32: high_column_addr = 0x12; break;
 368:../../libs/libDaisy/src/sys/../../../../libs/libDaisy/src/dev/oled_ssd130x.h **** 
 369:../../libs/libDaisy/src/sys/../../../../libs/libDaisy/src/dev/oled_ssd130x.h ****             default: high_column_addr = 0x10; break;
 370:../../libs/libDaisy/src/sys/../../../../libs/libDaisy/src/dev/oled_ssd130x.h ****         }
 371:../../libs/libDaisy/src/sys/../../../../libs/libDaisy/src/dev/oled_ssd130x.h ****         for(i = 0; i < (height / 8); i++)
 408              		.loc 10 371 22 view .LVU70
 409              	.LBB495:
 410              	.LBB493:
  45:../../libs/libDaisy/src/sys/../../../../libs/libDaisy/src/dev/oled_ssd130x.h ****     };
 411              		.loc 10 45 30 is_stmt 0 view .LVU71
 412 000c 00F10807 		add	r7, r0, #8
 413              	.LVL25:
  45:../../libs/libDaisy/src/sys/../../../../libs/libDaisy/src/dev/oled_ssd130x.h ****     };
 414              		.loc 10 45 30 view .LVU72
 415 0010 00F18F06 		add	r6, r0, #143
 416 0014 00F28F49 		addw	r9, r0, #1167
 417              	.LVL26:
 418              	.L25:
  45:../../libs/libDaisy/src/sys/../../../../libs/libDaisy/src/dev/oled_ssd130x.h ****     };
 419              		.loc 10 45 30 view .LVU73
 420              	.LBE493:
 421              	.LBI491:
  42:../../libs/libDaisy/src/sys/../../../../libs/libDaisy/src/dev/oled_ssd130x.h ****     {
 422              		.loc 10 42 10 is_stmt 1 view .LVU74
 423              	.LBB494:
  44:../../libs/libDaisy/src/sys/../../../../libs/libDaisy/src/dev/oled_ssd130x.h ****         i2c_.TransmitBlocking(i2c_address_, buf, 2, 1000);
 424              		.loc 10 44 9 view .LVU75
  45:../../libs/libDaisy/src/sys/../../../../libs/libDaisy/src/dev/oled_ssd130x.h ****     };
 425              		.loc 10 45 30 is_stmt 0 view .LVU76
 426 0018 4FF47A7B 		mov	fp, #1000
  44:../../libs/libDaisy/src/sys/../../../../libs/libDaisy/src/dev/oled_ssd130x.h ****         i2c_.TransmitBlocking(i2c_address_, buf, 2, 1000);
 427              		.loc 10 44 17 view .LVU77
 428 001c 4FF0000A 		mov	r10, #0
  45:../../libs/libDaisy/src/sys/../../../../libs/libDaisy/src/dev/oled_ssd130x.h ****     };
 429              		.loc 10 45 30 view .LVU78
 430 0020 297B     		ldrb	r1, [r5, #12]	@ zero_extendqisi2
 431 0022 0223     		movs	r3, #2
 432 0024 03AA     		add	r2, sp, #12
 433 0026 3846     		mov	r0, r7
 434 0028 CDF800B0 		str	fp, [sp]
 435 002c A6F18004 		sub	r4, r6, #128
  44:../../libs/libDaisy/src/sys/../../../../libs/libDaisy/src/dev/oled_ssd130x.h ****         i2c_.TransmitBlocking(i2c_address_, buf, 2, 1000);
 436              		.loc 10 44 17 view .LVU79
 437 0030 8DF80CA0 		strb	r10, [sp, #12]
  44:../../libs/libDaisy/src/sys/../../../../libs/libDaisy/src/dev/oled_ssd130x.h ****         i2c_.TransmitBlocking(i2c_address_, buf, 2, 1000);
 438              		.loc 10 44 36 view .LVU80
 439 0034 8DF80D80 		strb	r8, [sp, #13]
ARM GAS  C:\Users\matte\AppData\Local\Temp\cclPkNhc.s 			page 28


  45:../../libs/libDaisy/src/sys/../../../../libs/libDaisy/src/dev/oled_ssd130x.h ****     };
 440              		.loc 10 45 9 is_stmt 1 view .LVU81
  45:../../libs/libDaisy/src/sys/../../../../libs/libDaisy/src/dev/oled_ssd130x.h ****     };
 441              		.loc 10 45 30 is_stmt 0 view .LVU82
 442 0038 FFF7FEFF 		bl	_ZN5daisy9I2CHandle16TransmitBlockingEtPhtm
 443              	.LVL27:
  45:../../libs/libDaisy/src/sys/../../../../libs/libDaisy/src/dev/oled_ssd130x.h ****     };
 444              		.loc 10 45 30 view .LVU83
 445              	.LBE494:
 446              	.LBE495:
 447              	.LBB496:
 448              	.LBI496:
  42:../../libs/libDaisy/src/sys/../../../../libs/libDaisy/src/dev/oled_ssd130x.h ****     {
 449              		.loc 10 42 10 is_stmt 1 view .LVU84
 450              	.LBB497:
  44:../../libs/libDaisy/src/sys/../../../../libs/libDaisy/src/dev/oled_ssd130x.h ****         i2c_.TransmitBlocking(i2c_address_, buf, 2, 1000);
 451              		.loc 10 44 9 view .LVU85
  45:../../libs/libDaisy/src/sys/../../../../libs/libDaisy/src/dev/oled_ssd130x.h ****     };
 452              		.loc 10 45 30 is_stmt 0 view .LVU86
 453 003c 297B     		ldrb	r1, [r5, #12]	@ zero_extendqisi2
 454 003e 0223     		movs	r3, #2
 455 0040 03AA     		add	r2, sp, #12
 456 0042 3846     		mov	r0, r7
 457 0044 CDF800B0 		str	fp, [sp]
  44:../../libs/libDaisy/src/sys/../../../../libs/libDaisy/src/dev/oled_ssd130x.h ****         i2c_.TransmitBlocking(i2c_address_, buf, 2, 1000);
 458              		.loc 10 44 17 view .LVU87
 459 0048 8DF80CA0 		strb	r10, [sp, #12]
  44:../../libs/libDaisy/src/sys/../../../../libs/libDaisy/src/dev/oled_ssd130x.h ****         i2c_.TransmitBlocking(i2c_address_, buf, 2, 1000);
 460              		.loc 10 44 36 view .LVU88
 461 004c 8DF80DA0 		strb	r10, [sp, #13]
  45:../../libs/libDaisy/src/sys/../../../../libs/libDaisy/src/dev/oled_ssd130x.h ****     };
 462              		.loc 10 45 9 is_stmt 1 view .LVU89
  45:../../libs/libDaisy/src/sys/../../../../libs/libDaisy/src/dev/oled_ssd130x.h ****     };
 463              		.loc 10 45 30 is_stmt 0 view .LVU90
 464 0050 FFF7FEFF 		bl	_ZN5daisy9I2CHandle16TransmitBlockingEtPhtm
 465              	.LVL28:
  45:../../libs/libDaisy/src/sys/../../../../libs/libDaisy/src/dev/oled_ssd130x.h ****     };
 466              		.loc 10 45 30 view .LVU91
 467              	.LBE497:
 468              	.LBE496:
 469              	.LBB498:
 470              	.LBI498:
  42:../../libs/libDaisy/src/sys/../../../../libs/libDaisy/src/dev/oled_ssd130x.h ****     {
 471              		.loc 10 42 10 is_stmt 1 view .LVU92
 472              	.LBB499:
  44:../../libs/libDaisy/src/sys/../../../../libs/libDaisy/src/dev/oled_ssd130x.h ****         i2c_.TransmitBlocking(i2c_address_, buf, 2, 1000);
 473              		.loc 10 44 9 view .LVU93
  44:../../libs/libDaisy/src/sys/../../../../libs/libDaisy/src/dev/oled_ssd130x.h ****         i2c_.TransmitBlocking(i2c_address_, buf, 2, 1000);
 474              		.loc 10 44 36 is_stmt 0 view .LVU94
 475 0054 4FF0100C 		mov	ip, #16
  45:../../libs/libDaisy/src/sys/../../../../libs/libDaisy/src/dev/oled_ssd130x.h ****     };
 476              		.loc 10 45 30 view .LVU95
 477 0058 297B     		ldrb	r1, [r5, #12]	@ zero_extendqisi2
 478 005a 0223     		movs	r3, #2
 479 005c 03AA     		add	r2, sp, #12
 480 005e 3846     		mov	r0, r7
 481 0060 CDF800B0 		str	fp, [sp]
ARM GAS  C:\Users\matte\AppData\Local\Temp\cclPkNhc.s 			page 29


  44:../../libs/libDaisy/src/sys/../../../../libs/libDaisy/src/dev/oled_ssd130x.h ****         i2c_.TransmitBlocking(i2c_address_, buf, 2, 1000);
 482              		.loc 10 44 17 view .LVU96
 483 0064 8DF80CA0 		strb	r10, [sp, #12]
  44:../../libs/libDaisy/src/sys/../../../../libs/libDaisy/src/dev/oled_ssd130x.h ****         i2c_.TransmitBlocking(i2c_address_, buf, 2, 1000);
 484              		.loc 10 44 36 view .LVU97
 485 0068 8DF80DC0 		strb	ip, [sp, #13]
  45:../../libs/libDaisy/src/sys/../../../../libs/libDaisy/src/dev/oled_ssd130x.h ****     };
 486              		.loc 10 45 9 is_stmt 1 view .LVU98
  45:../../libs/libDaisy/src/sys/../../../../libs/libDaisy/src/dev/oled_ssd130x.h ****     };
 487              		.loc 10 45 30 is_stmt 0 view .LVU99
 488 006c FFF7FEFF 		bl	_ZN5daisy9I2CHandle16TransmitBlockingEtPhtm
 489              	.LVL29:
  45:../../libs/libDaisy/src/sys/../../../../libs/libDaisy/src/dev/oled_ssd130x.h ****     };
 490              		.loc 10 45 30 view .LVU100
 491              	.LBE499:
 492              	.LBE498:
 493              	.LBB500:
 494              	.LBI500:
  48:../../libs/libDaisy/src/sys/../../../../libs/libDaisy/src/dev/oled_ssd130x.h ****     {
 495              		.loc 10 48 10 is_stmt 1 view .LVU101
 496              	.LBB501:
  50:../../libs/libDaisy/src/sys/../../../../libs/libDaisy/src/dev/oled_ssd130x.h ****         {
 497              		.loc 10 50 29 view .LVU102
 498              	.L24:
 499              	.LBB502:
  52:../../libs/libDaisy/src/sys/../../../../libs/libDaisy/src/dev/oled_ssd130x.h ****             i2c_.TransmitBlocking(i2c_address_, buf, 2, 1000);
 500              		.loc 10 52 13 view .LVU103
  53:../../libs/libDaisy/src/sys/../../../../libs/libDaisy/src/dev/oled_ssd130x.h ****         }
 501              		.loc 10 53 34 is_stmt 0 view .LVU104
 502 0070 4FF47A70 		mov	r0, #1000
  52:../../libs/libDaisy/src/sys/../../../../libs/libDaisy/src/dev/oled_ssd130x.h ****             i2c_.TransmitBlocking(i2c_address_, buf, 2, 1000);
 503              		.loc 10 52 44 view .LVU105
 504 0074 14F801CF 		ldrb	ip, [r4, #1]!	@ zero_extendqisi2
 505              	.LVL30:
  52:../../libs/libDaisy/src/sys/../../../../libs/libDaisy/src/dev/oled_ssd130x.h ****             i2c_.TransmitBlocking(i2c_address_, buf, 2, 1000);
 506              		.loc 10 52 21 view .LVU106
 507 0078 4FF0400E 		mov	lr, #64
  53:../../libs/libDaisy/src/sys/../../../../libs/libDaisy/src/dev/oled_ssd130x.h ****         }
 508              		.loc 10 53 34 view .LVU107
 509 007c 297B     		ldrb	r1, [r5, #12]	@ zero_extendqisi2
 510 007e 0223     		movs	r3, #2
 511 0080 0090     		str	r0, [sp]
 512 0082 03AA     		add	r2, sp, #12
 513 0084 3846     		mov	r0, r7
  52:../../libs/libDaisy/src/sys/../../../../libs/libDaisy/src/dev/oled_ssd130x.h ****             i2c_.TransmitBlocking(i2c_address_, buf, 2, 1000);
 514              		.loc 10 52 21 view .LVU108
 515 0086 8DF80CE0 		strb	lr, [sp, #12]
  52:../../libs/libDaisy/src/sys/../../../../libs/libDaisy/src/dev/oled_ssd130x.h ****             i2c_.TransmitBlocking(i2c_address_, buf, 2, 1000);
 516              		.loc 10 52 44 view .LVU109
 517 008a 8DF80DC0 		strb	ip, [sp, #13]
  53:../../libs/libDaisy/src/sys/../../../../libs/libDaisy/src/dev/oled_ssd130x.h ****         }
 518              		.loc 10 53 13 is_stmt 1 view .LVU110
  53:../../libs/libDaisy/src/sys/../../../../libs/libDaisy/src/dev/oled_ssd130x.h ****         }
 519              		.loc 10 53 34 is_stmt 0 view .LVU111
 520 008e FFF7FEFF 		bl	_ZN5daisy9I2CHandle16TransmitBlockingEtPhtm
 521              	.LVL31:
 522              	.LBE502:
ARM GAS  C:\Users\matte\AppData\Local\Temp\cclPkNhc.s 			page 30


  50:../../libs/libDaisy/src/sys/../../../../libs/libDaisy/src/dev/oled_ssd130x.h ****         {
 523              		.loc 10 50 9 is_stmt 1 view .LVU112
  50:../../libs/libDaisy/src/sys/../../../../libs/libDaisy/src/dev/oled_ssd130x.h ****         {
 524              		.loc 10 50 29 view .LVU113
 525 0092 B442     		cmp	r4, r6
 526 0094 ECD1     		bne	.L24
 527              	.LVL32:
  50:../../libs/libDaisy/src/sys/../../../../libs/libDaisy/src/dev/oled_ssd130x.h ****         {
 528              		.loc 10 50 29 is_stmt 0 view .LVU114
 529              	.LBE501:
 530              	.LBE500:
 531              		.loc 10 371 9 is_stmt 1 view .LVU115
 532              		.loc 10 371 22 view .LVU116
 533 0096 04F18006 		add	r6, r4, #128
 534 009a 08F10108 		add	r8, r8, #1
 535              	.LVL33:
 536              		.loc 10 371 22 is_stmt 0 view .LVU117
 537 009e 4E45     		cmp	r6, r9
 538 00a0 5FFA88F8 		uxtb	r8, r8
 539 00a4 B8D1     		bne	.L25
 540              	.LBE503:
 541              	.LBE504:
 542              		.loc 8 51 48 view .LVU118
 543 00a6 05B0     		add	sp, sp, #20
 544              		.cfi_def_cfa_offset 36
 545              		@ sp needed
 546 00a8 BDE8F08F 		pop	{r4, r5, r6, r7, r8, r9, r10, fp, pc}
 547              		.loc 8 51 48 view .LVU119
 548              		.cfi_endproc
 549              	.LFE5456:
 551              		.section	.text._ZN5daisy25OneBitGraphicsDisplayImplINS_11OledDisplayINS_13SSD130xDriverILj128ELj64
 552              		.align	1
 553              		.p2align 2,,3
 554              		.weak	_ZN5daisy25OneBitGraphicsDisplayImplINS_11OledDisplayINS_13SSD130xDriverILj128ELj64ENS_19SSD
 555              		.syntax unified
 556              		.thumb
 557              		.thumb_func
 558              		.fpu fpv5-d16
 560              	_ZN5daisy25OneBitGraphicsDisplayImplINS_11OledDisplayINS_13SSD130xDriverILj128ELj64ENS_19SSD130xI2C
 561              	.LVL34:
 562              	.LFB5454:
 220:../../libs/libDaisy/src/sys/../../../../libs/libDaisy/src/hid/disp/display.h **** 
 221:../../libs/libDaisy/src/sys/../../../../libs/libDaisy/src/hid/disp/display.h ****     void DrawLine(uint_fast8_t x1,
 222:../../libs/libDaisy/src/sys/../../../../libs/libDaisy/src/hid/disp/display.h ****                   uint_fast8_t y1,
 223:../../libs/libDaisy/src/sys/../../../../libs/libDaisy/src/hid/disp/display.h ****                   uint_fast8_t x2,
 224:../../libs/libDaisy/src/sys/../../../../libs/libDaisy/src/hid/disp/display.h ****                   uint_fast8_t y2,
 225:../../libs/libDaisy/src/sys/../../../../libs/libDaisy/src/hid/disp/display.h ****                   bool         on) override
 226:../../libs/libDaisy/src/sys/../../../../libs/libDaisy/src/hid/disp/display.h ****     {
 227:../../libs/libDaisy/src/sys/../../../../libs/libDaisy/src/hid/disp/display.h ****         int_fast16_t deltaX = abs((int_fast16_t)x2 - (int_fast16_t)x1);
 228:../../libs/libDaisy/src/sys/../../../../libs/libDaisy/src/hid/disp/display.h ****         int_fast16_t deltaY = abs((int_fast16_t)y2 - (int_fast16_t)y1);
 229:../../libs/libDaisy/src/sys/../../../../libs/libDaisy/src/hid/disp/display.h ****         int_fast16_t signX  = ((x1 < x2) ? 1 : -1);
 230:../../libs/libDaisy/src/sys/../../../../libs/libDaisy/src/hid/disp/display.h ****         int_fast16_t signY  = ((y1 < y2) ? 1 : -1);
 231:../../libs/libDaisy/src/sys/../../../../libs/libDaisy/src/hid/disp/display.h ****         int_fast16_t error  = deltaX - deltaY;
 232:../../libs/libDaisy/src/sys/../../../../libs/libDaisy/src/hid/disp/display.h ****         int_fast16_t error2;
 233:../../libs/libDaisy/src/sys/../../../../libs/libDaisy/src/hid/disp/display.h **** 
 234:../../libs/libDaisy/src/sys/../../../../libs/libDaisy/src/hid/disp/display.h ****         // If we write "ChildType::DrawPixel(x2, y2, on);", we end up with
 235:../../libs/libDaisy/src/sys/../../../../libs/libDaisy/src/hid/disp/display.h ****         // all sorts of weird compiler errors when the Child class is a template
ARM GAS  C:\Users\matte\AppData\Local\Temp\cclPkNhc.s 			page 31


 236:../../libs/libDaisy/src/sys/../../../../libs/libDaisy/src/hid/disp/display.h ****         // class. The only way around this is to use this very verbose syntax:
 237:../../libs/libDaisy/src/sys/../../../../libs/libDaisy/src/hid/disp/display.h ****         ((ChildType*)(this))->ChildType::DrawPixel(x2, y2, on);
 238:../../libs/libDaisy/src/sys/../../../../libs/libDaisy/src/hid/disp/display.h **** 
 239:../../libs/libDaisy/src/sys/../../../../libs/libDaisy/src/hid/disp/display.h ****         while((x1 != x2) || (y1 != y2))
 240:../../libs/libDaisy/src/sys/../../../../libs/libDaisy/src/hid/disp/display.h ****         {
 241:../../libs/libDaisy/src/sys/../../../../libs/libDaisy/src/hid/disp/display.h ****             ((ChildType*)(this))->ChildType::DrawPixel(x1, y1, on);
 242:../../libs/libDaisy/src/sys/../../../../libs/libDaisy/src/hid/disp/display.h ****             error2 = error * 2;
 243:../../libs/libDaisy/src/sys/../../../../libs/libDaisy/src/hid/disp/display.h ****             if(error2 > -deltaY)
 244:../../libs/libDaisy/src/sys/../../../../libs/libDaisy/src/hid/disp/display.h ****             {
 245:../../libs/libDaisy/src/sys/../../../../libs/libDaisy/src/hid/disp/display.h ****                 error -= deltaY;
 246:../../libs/libDaisy/src/sys/../../../../libs/libDaisy/src/hid/disp/display.h ****                 x1 += signX;
 247:../../libs/libDaisy/src/sys/../../../../libs/libDaisy/src/hid/disp/display.h ****             }
 248:../../libs/libDaisy/src/sys/../../../../libs/libDaisy/src/hid/disp/display.h **** 
 249:../../libs/libDaisy/src/sys/../../../../libs/libDaisy/src/hid/disp/display.h ****             if(error2 < deltaX)
 250:../../libs/libDaisy/src/sys/../../../../libs/libDaisy/src/hid/disp/display.h ****             {
 251:../../libs/libDaisy/src/sys/../../../../libs/libDaisy/src/hid/disp/display.h ****                 error += deltaX;
 252:../../libs/libDaisy/src/sys/../../../../libs/libDaisy/src/hid/disp/display.h ****                 y1 += signY;
 253:../../libs/libDaisy/src/sys/../../../../libs/libDaisy/src/hid/disp/display.h ****             }
 254:../../libs/libDaisy/src/sys/../../../../libs/libDaisy/src/hid/disp/display.h ****         }
 255:../../libs/libDaisy/src/sys/../../../../libs/libDaisy/src/hid/disp/display.h ****     }
 256:../../libs/libDaisy/src/sys/../../../../libs/libDaisy/src/hid/disp/display.h **** 
 257:../../libs/libDaisy/src/sys/../../../../libs/libDaisy/src/hid/disp/display.h ****     void DrawRect(uint_fast8_t x1,
 258:../../libs/libDaisy/src/sys/../../../../libs/libDaisy/src/hid/disp/display.h ****                   uint_fast8_t y1,
 259:../../libs/libDaisy/src/sys/../../../../libs/libDaisy/src/hid/disp/display.h ****                   uint_fast8_t x2,
 260:../../libs/libDaisy/src/sys/../../../../libs/libDaisy/src/hid/disp/display.h ****                   uint_fast8_t y2,
 261:../../libs/libDaisy/src/sys/../../../../libs/libDaisy/src/hid/disp/display.h ****                   bool         on,
 262:../../libs/libDaisy/src/sys/../../../../libs/libDaisy/src/hid/disp/display.h ****                   bool         fill = false) override
 263:../../libs/libDaisy/src/sys/../../../../libs/libDaisy/src/hid/disp/display.h ****     {
 264:../../libs/libDaisy/src/sys/../../../../libs/libDaisy/src/hid/disp/display.h ****         if(fill)
 265:../../libs/libDaisy/src/sys/../../../../libs/libDaisy/src/hid/disp/display.h ****         {
 266:../../libs/libDaisy/src/sys/../../../../libs/libDaisy/src/hid/disp/display.h ****             for(uint_fast8_t x = x1; x <= x2; x++)
 267:../../libs/libDaisy/src/sys/../../../../libs/libDaisy/src/hid/disp/display.h ****             {
 268:../../libs/libDaisy/src/sys/../../../../libs/libDaisy/src/hid/disp/display.h ****                 for(uint_fast8_t y = y1; y <= y2; y++)
 269:../../libs/libDaisy/src/sys/../../../../libs/libDaisy/src/hid/disp/display.h ****                 {
 270:../../libs/libDaisy/src/sys/../../../../libs/libDaisy/src/hid/disp/display.h ****                     ((ChildType*)(this))->ChildType::DrawPixel(x, y, on);
 271:../../libs/libDaisy/src/sys/../../../../libs/libDaisy/src/hid/disp/display.h ****                 }
 272:../../libs/libDaisy/src/sys/../../../../libs/libDaisy/src/hid/disp/display.h ****             }
 273:../../libs/libDaisy/src/sys/../../../../libs/libDaisy/src/hid/disp/display.h ****         }
 274:../../libs/libDaisy/src/sys/../../../../libs/libDaisy/src/hid/disp/display.h ****         else
 275:../../libs/libDaisy/src/sys/../../../../libs/libDaisy/src/hid/disp/display.h ****         {
 276:../../libs/libDaisy/src/sys/../../../../libs/libDaisy/src/hid/disp/display.h ****             ((ChildType*)(this))->ChildType::DrawLine(x1, y1, x2, y1, on);
 277:../../libs/libDaisy/src/sys/../../../../libs/libDaisy/src/hid/disp/display.h ****             ((ChildType*)(this))->ChildType::DrawLine(x2, y1, x2, y2, on);
 278:../../libs/libDaisy/src/sys/../../../../libs/libDaisy/src/hid/disp/display.h ****             ((ChildType*)(this))->ChildType::DrawLine(x2, y2, x1, y2, on);
 279:../../libs/libDaisy/src/sys/../../../../libs/libDaisy/src/hid/disp/display.h ****             ((ChildType*)(this))->ChildType::DrawLine(x1, y2, x1, y1, on);
 280:../../libs/libDaisy/src/sys/../../../../libs/libDaisy/src/hid/disp/display.h ****         }
 281:../../libs/libDaisy/src/sys/../../../../libs/libDaisy/src/hid/disp/display.h ****     }
 282:../../libs/libDaisy/src/sys/../../../../libs/libDaisy/src/hid/disp/display.h **** 
 283:../../libs/libDaisy/src/sys/../../../../libs/libDaisy/src/hid/disp/display.h ****     void DrawArc(uint_fast8_t x,
 284:../../libs/libDaisy/src/sys/../../../../libs/libDaisy/src/hid/disp/display.h ****                  uint_fast8_t y,
 285:../../libs/libDaisy/src/sys/../../../../libs/libDaisy/src/hid/disp/display.h ****                  uint_fast8_t radius,
 286:../../libs/libDaisy/src/sys/../../../../libs/libDaisy/src/hid/disp/display.h ****                  int_fast16_t start_angle,
 287:../../libs/libDaisy/src/sys/../../../../libs/libDaisy/src/hid/disp/display.h ****                  int_fast16_t sweep,
 288:../../libs/libDaisy/src/sys/../../../../libs/libDaisy/src/hid/disp/display.h ****                  bool         on) override
 289:../../libs/libDaisy/src/sys/../../../../libs/libDaisy/src/hid/disp/display.h ****     {
 290:../../libs/libDaisy/src/sys/../../../../libs/libDaisy/src/hid/disp/display.h ****         // Values to calculate the circle
 291:../../libs/libDaisy/src/sys/../../../../libs/libDaisy/src/hid/disp/display.h ****         int_fast16_t t_x, t_y, err, e2;
 292:../../libs/libDaisy/src/sys/../../../../libs/libDaisy/src/hid/disp/display.h **** 
ARM GAS  C:\Users\matte\AppData\Local\Temp\cclPkNhc.s 			page 32


 293:../../libs/libDaisy/src/sys/../../../../libs/libDaisy/src/hid/disp/display.h ****         // Temporary values to speed up comparisons
 294:../../libs/libDaisy/src/sys/../../../../libs/libDaisy/src/hid/disp/display.h ****         float t_sxy, t_syx, t_sxny, t_synx;
 295:../../libs/libDaisy/src/sys/../../../../libs/libDaisy/src/hid/disp/display.h ****         float t_exy, t_eyx, t_exny, t_eynx;
 296:../../libs/libDaisy/src/sys/../../../../libs/libDaisy/src/hid/disp/display.h **** 
 297:../../libs/libDaisy/src/sys/../../../../libs/libDaisy/src/hid/disp/display.h ****         float start_angle_rad, end_angle_rad;
 298:../../libs/libDaisy/src/sys/../../../../libs/libDaisy/src/hid/disp/display.h ****         float start_x, start_y, end_x, end_y;
 299:../../libs/libDaisy/src/sys/../../../../libs/libDaisy/src/hid/disp/display.h **** 
 300:../../libs/libDaisy/src/sys/../../../../libs/libDaisy/src/hid/disp/display.h ****         bool d1, d2, d3, d4;
 301:../../libs/libDaisy/src/sys/../../../../libs/libDaisy/src/hid/disp/display.h **** 
 302:../../libs/libDaisy/src/sys/../../../../libs/libDaisy/src/hid/disp/display.h ****         d1 = d2 = d3 = d4 = true;
 303:../../libs/libDaisy/src/sys/../../../../libs/libDaisy/src/hid/disp/display.h **** 
 304:../../libs/libDaisy/src/sys/../../../../libs/libDaisy/src/hid/disp/display.h ****         bool circle = false;
 305:../../libs/libDaisy/src/sys/../../../../libs/libDaisy/src/hid/disp/display.h **** 
 306:../../libs/libDaisy/src/sys/../../../../libs/libDaisy/src/hid/disp/display.h ****         if(sweep < 0)
 307:../../libs/libDaisy/src/sys/../../../../libs/libDaisy/src/hid/disp/display.h ****         {
 308:../../libs/libDaisy/src/sys/../../../../libs/libDaisy/src/hid/disp/display.h ****             start_angle += sweep;
 309:../../libs/libDaisy/src/sys/../../../../libs/libDaisy/src/hid/disp/display.h ****             sweep = -sweep;
 310:../../libs/libDaisy/src/sys/../../../../libs/libDaisy/src/hid/disp/display.h ****         }
 311:../../libs/libDaisy/src/sys/../../../../libs/libDaisy/src/hid/disp/display.h **** 
 312:../../libs/libDaisy/src/sys/../../../../libs/libDaisy/src/hid/disp/display.h ****         start_angle_rad = deg2rad(start_angle);
 313:../../libs/libDaisy/src/sys/../../../../libs/libDaisy/src/hid/disp/display.h ****         end_angle_rad   = deg2rad(start_angle + sweep);
 314:../../libs/libDaisy/src/sys/../../../../libs/libDaisy/src/hid/disp/display.h **** 
 315:../../libs/libDaisy/src/sys/../../../../libs/libDaisy/src/hid/disp/display.h ****         start_x = cos(start_angle_rad) * radius;
 316:../../libs/libDaisy/src/sys/../../../../libs/libDaisy/src/hid/disp/display.h ****         start_y = -sin(start_angle_rad) * radius;
 317:../../libs/libDaisy/src/sys/../../../../libs/libDaisy/src/hid/disp/display.h ****         end_x   = cos(end_angle_rad) * radius;
 318:../../libs/libDaisy/src/sys/../../../../libs/libDaisy/src/hid/disp/display.h ****         end_y   = -sin(end_angle_rad) * radius;
 319:../../libs/libDaisy/src/sys/../../../../libs/libDaisy/src/hid/disp/display.h **** 
 320:../../libs/libDaisy/src/sys/../../../../libs/libDaisy/src/hid/disp/display.h ****         // Check if start and endpoint are very near
 321:../../libs/libDaisy/src/sys/../../../../libs/libDaisy/src/hid/disp/display.h ****         if((end_x - start_x) * (end_x - start_x)
 322:../../libs/libDaisy/src/sys/../../../../libs/libDaisy/src/hid/disp/display.h ****                + (end_y - start_y) * (end_y - start_y)
 323:../../libs/libDaisy/src/sys/../../../../libs/libDaisy/src/hid/disp/display.h ****            < 2.0f)
 324:../../libs/libDaisy/src/sys/../../../../libs/libDaisy/src/hid/disp/display.h ****         {
 325:../../libs/libDaisy/src/sys/../../../../libs/libDaisy/src/hid/disp/display.h ****             if(sweep > 180)
 326:../../libs/libDaisy/src/sys/../../../../libs/libDaisy/src/hid/disp/display.h ****                 circle = true;
 327:../../libs/libDaisy/src/sys/../../../../libs/libDaisy/src/hid/disp/display.h ****             else
 328:../../libs/libDaisy/src/sys/../../../../libs/libDaisy/src/hid/disp/display.h ****                 // Nothing to draw
 329:../../libs/libDaisy/src/sys/../../../../libs/libDaisy/src/hid/disp/display.h ****                 return;
 330:../../libs/libDaisy/src/sys/../../../../libs/libDaisy/src/hid/disp/display.h ****         }
 331:../../libs/libDaisy/src/sys/../../../../libs/libDaisy/src/hid/disp/display.h **** 
 332:../../libs/libDaisy/src/sys/../../../../libs/libDaisy/src/hid/disp/display.h ****         t_x = -radius;
 333:../../libs/libDaisy/src/sys/../../../../libs/libDaisy/src/hid/disp/display.h ****         t_y = 0;
 334:../../libs/libDaisy/src/sys/../../../../libs/libDaisy/src/hid/disp/display.h ****         err = 2 - 2 * radius;
 335:../../libs/libDaisy/src/sys/../../../../libs/libDaisy/src/hid/disp/display.h **** 
 336:../../libs/libDaisy/src/sys/../../../../libs/libDaisy/src/hid/disp/display.h ****         do
 337:../../libs/libDaisy/src/sys/../../../../libs/libDaisy/src/hid/disp/display.h ****         {
 338:../../libs/libDaisy/src/sys/../../../../libs/libDaisy/src/hid/disp/display.h ****             if(!circle)
 339:../../libs/libDaisy/src/sys/../../../../libs/libDaisy/src/hid/disp/display.h ****             {
 340:../../libs/libDaisy/src/sys/../../../../libs/libDaisy/src/hid/disp/display.h ****                 t_sxy  = start_x * t_y;
 341:../../libs/libDaisy/src/sys/../../../../libs/libDaisy/src/hid/disp/display.h ****                 t_syx  = start_y * t_x;
 342:../../libs/libDaisy/src/sys/../../../../libs/libDaisy/src/hid/disp/display.h ****                 t_sxny = start_x * -t_y;
 343:../../libs/libDaisy/src/sys/../../../../libs/libDaisy/src/hid/disp/display.h ****                 t_synx = start_y * -t_x;
 344:../../libs/libDaisy/src/sys/../../../../libs/libDaisy/src/hid/disp/display.h ****                 t_exy  = end_x * t_y;
 345:../../libs/libDaisy/src/sys/../../../../libs/libDaisy/src/hid/disp/display.h ****                 t_eyx  = end_y * t_x;
 346:../../libs/libDaisy/src/sys/../../../../libs/libDaisy/src/hid/disp/display.h ****                 t_exny = end_x * -t_y;
 347:../../libs/libDaisy/src/sys/../../../../libs/libDaisy/src/hid/disp/display.h ****                 t_eynx = end_y * -t_x;
 348:../../libs/libDaisy/src/sys/../../../../libs/libDaisy/src/hid/disp/display.h **** 
 349:../../libs/libDaisy/src/sys/../../../../libs/libDaisy/src/hid/disp/display.h ****                 if(sweep > 180)
ARM GAS  C:\Users\matte\AppData\Local\Temp\cclPkNhc.s 			page 33


 350:../../libs/libDaisy/src/sys/../../../../libs/libDaisy/src/hid/disp/display.h ****                 {
 351:../../libs/libDaisy/src/sys/../../../../libs/libDaisy/src/hid/disp/display.h ****                     d1 = (t_sxy - t_synx < 0 || t_exy - t_eynx > 0);
 352:../../libs/libDaisy/src/sys/../../../../libs/libDaisy/src/hid/disp/display.h ****                     d2 = (t_sxy - t_syx < 0 || t_exy - t_eyx > 0);
 353:../../libs/libDaisy/src/sys/../../../../libs/libDaisy/src/hid/disp/display.h ****                     d3 = (t_sxny - t_syx < 0 || t_exny - t_eyx > 0);
 354:../../libs/libDaisy/src/sys/../../../../libs/libDaisy/src/hid/disp/display.h ****                     d4 = (t_sxny - t_synx < 0 || t_exny - t_eynx > 0);
 355:../../libs/libDaisy/src/sys/../../../../libs/libDaisy/src/hid/disp/display.h ****                 }
 356:../../libs/libDaisy/src/sys/../../../../libs/libDaisy/src/hid/disp/display.h ****                 else
 357:../../libs/libDaisy/src/sys/../../../../libs/libDaisy/src/hid/disp/display.h ****                 {
 358:../../libs/libDaisy/src/sys/../../../../libs/libDaisy/src/hid/disp/display.h ****                     d1 = (t_sxy - t_synx < 0 && t_exy - t_eynx > 0);
 359:../../libs/libDaisy/src/sys/../../../../libs/libDaisy/src/hid/disp/display.h ****                     d2 = (t_sxy - t_syx < 0 && t_exy - t_eyx > 0);
 360:../../libs/libDaisy/src/sys/../../../../libs/libDaisy/src/hid/disp/display.h ****                     d3 = (t_sxny - t_syx < 0 && t_exny - t_eyx > 0);
 361:../../libs/libDaisy/src/sys/../../../../libs/libDaisy/src/hid/disp/display.h ****                     d4 = (t_sxny - t_synx < 0 && t_exny - t_eynx > 0);
 362:../../libs/libDaisy/src/sys/../../../../libs/libDaisy/src/hid/disp/display.h ****                 }
 363:../../libs/libDaisy/src/sys/../../../../libs/libDaisy/src/hid/disp/display.h ****             }
 364:../../libs/libDaisy/src/sys/../../../../libs/libDaisy/src/hid/disp/display.h **** 
 365:../../libs/libDaisy/src/sys/../../../../libs/libDaisy/src/hid/disp/display.h ****             if(d1)
 366:../../libs/libDaisy/src/sys/../../../../libs/libDaisy/src/hid/disp/display.h ****                 ((ChildType*)(this))
 367:../../libs/libDaisy/src/sys/../../../../libs/libDaisy/src/hid/disp/display.h ****                     ->ChildType::DrawPixel(x - t_x, y + t_y, on);
 368:../../libs/libDaisy/src/sys/../../../../libs/libDaisy/src/hid/disp/display.h ****             if(d2)
 369:../../libs/libDaisy/src/sys/../../../../libs/libDaisy/src/hid/disp/display.h ****                 ((ChildType*)(this))
 370:../../libs/libDaisy/src/sys/../../../../libs/libDaisy/src/hid/disp/display.h ****                     ->ChildType::DrawPixel(x + t_x, y + t_y, on);
 371:../../libs/libDaisy/src/sys/../../../../libs/libDaisy/src/hid/disp/display.h ****             if(d3)
 372:../../libs/libDaisy/src/sys/../../../../libs/libDaisy/src/hid/disp/display.h ****                 ((ChildType*)(this))
 373:../../libs/libDaisy/src/sys/../../../../libs/libDaisy/src/hid/disp/display.h ****                     ->ChildType::DrawPixel(x + t_x, y - t_y, on);
 374:../../libs/libDaisy/src/sys/../../../../libs/libDaisy/src/hid/disp/display.h ****             if(d4)
 375:../../libs/libDaisy/src/sys/../../../../libs/libDaisy/src/hid/disp/display.h ****                 ((ChildType*)(this))
 376:../../libs/libDaisy/src/sys/../../../../libs/libDaisy/src/hid/disp/display.h ****                     ->ChildType::DrawPixel(x - t_x, y - t_y, on);
 377:../../libs/libDaisy/src/sys/../../../../libs/libDaisy/src/hid/disp/display.h **** 
 378:../../libs/libDaisy/src/sys/../../../../libs/libDaisy/src/hid/disp/display.h ****             e2 = err;
 379:../../libs/libDaisy/src/sys/../../../../libs/libDaisy/src/hid/disp/display.h ****             if(e2 <= t_y)
 380:../../libs/libDaisy/src/sys/../../../../libs/libDaisy/src/hid/disp/display.h ****             {
 381:../../libs/libDaisy/src/sys/../../../../libs/libDaisy/src/hid/disp/display.h ****                 t_y++;
 382:../../libs/libDaisy/src/sys/../../../../libs/libDaisy/src/hid/disp/display.h ****                 err = err + (t_y * 2 + 1);
 383:../../libs/libDaisy/src/sys/../../../../libs/libDaisy/src/hid/disp/display.h ****                 if(-t_x == t_y && e2 <= t_x)
 384:../../libs/libDaisy/src/sys/../../../../libs/libDaisy/src/hid/disp/display.h ****                 {
 385:../../libs/libDaisy/src/sys/../../../../libs/libDaisy/src/hid/disp/display.h ****                     e2 = 0;
 386:../../libs/libDaisy/src/sys/../../../../libs/libDaisy/src/hid/disp/display.h ****                 }
 387:../../libs/libDaisy/src/sys/../../../../libs/libDaisy/src/hid/disp/display.h ****             }
 388:../../libs/libDaisy/src/sys/../../../../libs/libDaisy/src/hid/disp/display.h ****             if(e2 > t_x)
 389:../../libs/libDaisy/src/sys/../../../../libs/libDaisy/src/hid/disp/display.h ****             {
 390:../../libs/libDaisy/src/sys/../../../../libs/libDaisy/src/hid/disp/display.h ****                 t_x++;
 391:../../libs/libDaisy/src/sys/../../../../libs/libDaisy/src/hid/disp/display.h ****                 err = err + (t_x * 2 + 1);
 392:../../libs/libDaisy/src/sys/../../../../libs/libDaisy/src/hid/disp/display.h ****             }
 393:../../libs/libDaisy/src/sys/../../../../libs/libDaisy/src/hid/disp/display.h ****         } while(t_x <= 0);
 394:../../libs/libDaisy/src/sys/../../../../libs/libDaisy/src/hid/disp/display.h ****     }
 395:../../libs/libDaisy/src/sys/../../../../libs/libDaisy/src/hid/disp/display.h **** 
 396:../../libs/libDaisy/src/sys/../../../../libs/libDaisy/src/hid/disp/display.h ****     char WriteChar(char ch, FontDef font, bool on) override
 397:../../libs/libDaisy/src/sys/../../../../libs/libDaisy/src/hid/disp/display.h ****     {
 398:../../libs/libDaisy/src/sys/../../../../libs/libDaisy/src/hid/disp/display.h ****         uint32_t i, b, j;
 399:../../libs/libDaisy/src/sys/../../../../libs/libDaisy/src/hid/disp/display.h **** 
 400:../../libs/libDaisy/src/sys/../../../../libs/libDaisy/src/hid/disp/display.h ****         // Check if character is valid
 401:../../libs/libDaisy/src/sys/../../../../libs/libDaisy/src/hid/disp/display.h ****         if(ch < 32 || ch > 126)
 402:../../libs/libDaisy/src/sys/../../../../libs/libDaisy/src/hid/disp/display.h ****             return 0;
 403:../../libs/libDaisy/src/sys/../../../../libs/libDaisy/src/hid/disp/display.h **** 
 404:../../libs/libDaisy/src/sys/../../../../libs/libDaisy/src/hid/disp/display.h ****         // Check remaining space on current line
 405:../../libs/libDaisy/src/sys/../../../../libs/libDaisy/src/hid/disp/display.h ****         if(Width() < (currentX_ + font.FontWidth)
 406:../../libs/libDaisy/src/sys/../../../../libs/libDaisy/src/hid/disp/display.h ****            || Height() < (currentY_ + font.FontHeight))
ARM GAS  C:\Users\matte\AppData\Local\Temp\cclPkNhc.s 			page 34


 407:../../libs/libDaisy/src/sys/../../../../libs/libDaisy/src/hid/disp/display.h ****         {
 408:../../libs/libDaisy/src/sys/../../../../libs/libDaisy/src/hid/disp/display.h ****             // Not enough space on current line
 409:../../libs/libDaisy/src/sys/../../../../libs/libDaisy/src/hid/disp/display.h ****             return 0;
 410:../../libs/libDaisy/src/sys/../../../../libs/libDaisy/src/hid/disp/display.h ****         }
 411:../../libs/libDaisy/src/sys/../../../../libs/libDaisy/src/hid/disp/display.h **** 
 412:../../libs/libDaisy/src/sys/../../../../libs/libDaisy/src/hid/disp/display.h ****         // Use the font to write
 413:../../libs/libDaisy/src/sys/../../../../libs/libDaisy/src/hid/disp/display.h ****         for(i = 0; i < font.FontHeight; i++)
 414:../../libs/libDaisy/src/sys/../../../../libs/libDaisy/src/hid/disp/display.h ****         {
 415:../../libs/libDaisy/src/sys/../../../../libs/libDaisy/src/hid/disp/display.h ****             b = font.data[(ch - 32) * font.FontHeight + i];
 416:../../libs/libDaisy/src/sys/../../../../libs/libDaisy/src/hid/disp/display.h ****             for(j = 0; j < font.FontWidth; j++)
 417:../../libs/libDaisy/src/sys/../../../../libs/libDaisy/src/hid/disp/display.h ****             {
 418:../../libs/libDaisy/src/sys/../../../../libs/libDaisy/src/hid/disp/display.h ****                 if((b << j) & 0x8000)
 419:../../libs/libDaisy/src/sys/../../../../libs/libDaisy/src/hid/disp/display.h ****                 {
 420:../../libs/libDaisy/src/sys/../../../../libs/libDaisy/src/hid/disp/display.h ****                     ((ChildType*)(this))
 421:../../libs/libDaisy/src/sys/../../../../libs/libDaisy/src/hid/disp/display.h ****                         ->ChildType::DrawPixel(
 422:../../libs/libDaisy/src/sys/../../../../libs/libDaisy/src/hid/disp/display.h ****                             currentX_ + j, (currentY_ + i), on);
 423:../../libs/libDaisy/src/sys/../../../../libs/libDaisy/src/hid/disp/display.h ****                 }
 424:../../libs/libDaisy/src/sys/../../../../libs/libDaisy/src/hid/disp/display.h ****                 else
 425:../../libs/libDaisy/src/sys/../../../../libs/libDaisy/src/hid/disp/display.h ****                 {
 426:../../libs/libDaisy/src/sys/../../../../libs/libDaisy/src/hid/disp/display.h ****                     ((ChildType*)(this))
 427:../../libs/libDaisy/src/sys/../../../../libs/libDaisy/src/hid/disp/display.h ****                         ->ChildType::DrawPixel(
 428:../../libs/libDaisy/src/sys/../../../../libs/libDaisy/src/hid/disp/display.h ****                             currentX_ + j, (currentY_ + i), !on);
 429:../../libs/libDaisy/src/sys/../../../../libs/libDaisy/src/hid/disp/display.h ****                 }
 430:../../libs/libDaisy/src/sys/../../../../libs/libDaisy/src/hid/disp/display.h ****             }
 431:../../libs/libDaisy/src/sys/../../../../libs/libDaisy/src/hid/disp/display.h ****         }
 432:../../libs/libDaisy/src/sys/../../../../libs/libDaisy/src/hid/disp/display.h **** 
 433:../../libs/libDaisy/src/sys/../../../../libs/libDaisy/src/hid/disp/display.h ****         // The current space is now taken
 434:../../libs/libDaisy/src/sys/../../../../libs/libDaisy/src/hid/disp/display.h ****         SetCursor(currentX_ + font.FontWidth, currentY_);
 435:../../libs/libDaisy/src/sys/../../../../libs/libDaisy/src/hid/disp/display.h **** 
 436:../../libs/libDaisy/src/sys/../../../../libs/libDaisy/src/hid/disp/display.h ****         // Return written char for validation
 437:../../libs/libDaisy/src/sys/../../../../libs/libDaisy/src/hid/disp/display.h ****         return ch;
 438:../../libs/libDaisy/src/sys/../../../../libs/libDaisy/src/hid/disp/display.h ****     }
 439:../../libs/libDaisy/src/sys/../../../../libs/libDaisy/src/hid/disp/display.h **** 
 440:../../libs/libDaisy/src/sys/../../../../libs/libDaisy/src/hid/disp/display.h ****     char WriteString(const char* str, FontDef font, bool on) override
 563              		.loc 9 440 10 is_stmt 1 view -0
 564              		.cfi_startproc
 565              		@ args = 4, pretend = 0, frame = 32
 566              		@ frame_needed = 0, uses_anonymous_args = 0
 567              		.loc 9 440 10 is_stmt 0 view .LVU121
 568 0000 2DE9F04F 		push	{r4, r5, r6, r7, r8, r9, r10, fp, lr}
 569              		.cfi_def_cfa_offset 36
 570              		.cfi_offset 4, -36
 571              		.cfi_offset 5, -32
 572              		.cfi_offset 6, -28
 573              		.cfi_offset 7, -24
 574              		.cfi_offset 8, -20
 575              		.cfi_offset 9, -16
 576              		.cfi_offset 10, -12
 577              		.cfi_offset 11, -8
 578              		.cfi_offset 14, -4
 579 0004 89B0     		sub	sp, sp, #36
 580              		.cfi_def_cfa_offset 72
 581              		.loc 9 440 10 view .LVU122
 582 0006 08AC     		add	r4, sp, #32
 583 0008 9DF84870 		ldrb	r7, [sp, #72]	@ zero_extendqisi2
 584 000c 0191     		str	r1, [sp, #4]
 585 000e 04E90C00 		stmdb	r4, {r2, r3}
ARM GAS  C:\Users\matte\AppData\Local\Temp\cclPkNhc.s 			page 35


 441:../../libs/libDaisy/src/sys/../../../../libs/libDaisy/src/hid/disp/display.h ****     {
 442:../../libs/libDaisy/src/sys/../../../../libs/libDaisy/src/hid/disp/display.h ****         // Write until null-byte
 443:../../libs/libDaisy/src/sys/../../../../libs/libDaisy/src/hid/disp/display.h ****         while(*str)
 586              		.loc 9 443 9 is_stmt 1 view .LVU123
 587 0012 0B78     		ldrb	r3, [r1]	@ zero_extendqisi2
 588 0014 002B     		cmp	r3, #0
 589 0016 00F0AB80 		beq	.L53
 590 001a 1A46     		mov	r2, r3
 591 001c 9DF81880 		ldrb	r8, [sp, #24]	@ zero_extendqisi2
 592 0020 9DF81930 		ldrb	r3, [sp, #25]	@ zero_extendqisi2
 593 0024 0646     		mov	r6, r0
 594 0026 4546     		mov	r5, r8
 595 0028 9046     		mov	r8, r2
 596 002a 0393     		str	r3, [sp, #12]
 597 002c 079B     		ldr	r3, [sp, #28]
 598 002e 0593     		str	r3, [sp, #20]
 599              	.LVL35:
 600              	.L54:
 601              	.LBB533:
 602              	.LBI533:
 396:../../libs/libDaisy/src/sys/../../../../libs/libDaisy/src/hid/disp/display.h ****     {
 603              		.loc 9 396 10 view .LVU124
 604              	.LBB534:
 401:../../libs/libDaisy/src/sys/../../../../libs/libDaisy/src/hid/disp/display.h ****             return 0;
 605              		.loc 9 401 20 is_stmt 0 view .LVU125
 606 0030 A8F12004 		sub	r4, r8, #32
 401:../../libs/libDaisy/src/sys/../../../../libs/libDaisy/src/hid/disp/display.h ****             return 0;
 607              		.loc 9 401 9 view .LVU126
 608 0034 E3B2     		uxtb	r3, r4
 609 0036 5E2B     		cmp	r3, #94
 610 0038 00F29E80 		bhi	.L35
 405:../../libs/libDaisy/src/sys/../../../../libs/libDaisy/src/hid/disp/display.h ****            || Height() < (currentY_ + font.FontHeight))
 611              		.loc 9 405 17 view .LVU127
 612 003c 3368     		ldr	r3, [r6]
 613 003e 5E4A     		ldr	r2, .L75
 614 0040 DB68     		ldr	r3, [r3, #12]
 615 0042 9342     		cmp	r3, r2
 616 0044 40F09B80 		bne	.L68
 617 0048 8020     		movs	r0, #128
 618              	.L34:
 405:../../libs/libDaisy/src/sys/../../../../libs/libDaisy/src/hid/disp/display.h ****            || Height() < (currentY_ + font.FontHeight))
 619              		.loc 9 405 23 view .LVU128
 620 004a B388     		ldrh	r3, [r6, #4]
 405:../../libs/libDaisy/src/sys/../../../../libs/libDaisy/src/hid/disp/display.h ****            || Height() < (currentY_ + font.FontHeight))
 621              		.loc 9 405 33 view .LVU129
 622 004c 2B44     		add	r3, r3, r5
 406:../../libs/libDaisy/src/sys/../../../../libs/libDaisy/src/hid/disp/display.h ****         {
 623              		.loc 9 406 12 view .LVU130
 624 004e 8342     		cmp	r3, r0
 625 0050 00F39280 		bgt	.L35
 406:../../libs/libDaisy/src/sys/../../../../libs/libDaisy/src/hid/disp/display.h ****         {
 626              		.loc 9 406 21 view .LVU131
 627 0054 3368     		ldr	r3, [r6]
 628 0056 594A     		ldr	r2, .L75+4
 629 0058 9B68     		ldr	r3, [r3, #8]
 630 005a 9342     		cmp	r3, r2
 631 005c 40F09280 		bne	.L69
ARM GAS  C:\Users\matte\AppData\Local\Temp\cclPkNhc.s 			page 36


 632 0060 4020     		movs	r0, #64
 633              	.L36:
 406:../../libs/libDaisy/src/sys/../../../../libs/libDaisy/src/hid/disp/display.h ****         {
 634              		.loc 9 406 27 view .LVU132
 635 0062 F188     		ldrh	r1, [r6, #6]
 406:../../libs/libDaisy/src/sys/../../../../libs/libDaisy/src/hid/disp/display.h ****         {
 636              		.loc 9 406 37 view .LVU133
 637 0064 039A     		ldr	r2, [sp, #12]
 406:../../libs/libDaisy/src/sys/../../../../libs/libDaisy/src/hid/disp/display.h ****         {
 638              		.loc 9 406 27 view .LVU134
 639 0066 0291     		str	r1, [sp, #8]
 406:../../libs/libDaisy/src/sys/../../../../libs/libDaisy/src/hid/disp/display.h ****         {
 640              		.loc 9 406 37 view .LVU135
 641 0068 8B18     		adds	r3, r1, r2
 406:../../libs/libDaisy/src/sys/../../../../libs/libDaisy/src/hid/disp/display.h ****         {
 642              		.loc 9 406 12 view .LVU136
 643 006a 8342     		cmp	r3, r0
 644 006c 00F38480 		bgt	.L35
 645              	.LVL36:
 413:../../libs/libDaisy/src/sys/../../../../libs/libDaisy/src/hid/disp/display.h ****         {
 646              		.loc 9 413 22 is_stmt 1 view .LVU137
 647 0070 002A     		cmp	r2, #0
 648 0072 00F09180 		beq	.L37
 415:../../libs/libDaisy/src/sys/../../../../libs/libDaisy/src/hid/disp/display.h ****             for(j = 0; j < font.FontWidth; j++)
 649              		.loc 9 415 37 is_stmt 0 view .LVU138
 650 0076 02FB04F4 		mul	r4, r2, r4
 651 007a 6FF00049 		mvn	r9, #-2147483648
 652 007e 059B     		ldr	r3, [sp, #20]
 653 0080 A144     		add	r9, r9, r4
 654 0082 1444     		add	r4, r4, r2
 434:../../libs/libDaisy/src/sys/../../../../libs/libDaisy/src/hid/disp/display.h **** 
 655              		.loc 9 434 19 view .LVU139
 656 0084 B6F804B0 		ldrh	fp, [r6, #4]
 657 0088 03EB4909 		add	r9, r3, r9, lsl #1
 658 008c 023B     		subs	r3, r3, #2
 659 008e CDF81080 		str	r8, [sp, #16]
 660 0092 03EB4403 		add	r3, r3, r4, lsl #1
 661 0096 0C46     		mov	r4, r1
 662 0098 9A46     		mov	r10, r3
 663              	.LVL37:
 664              	.L40:
 415:../../libs/libDaisy/src/sys/../../../../libs/libDaisy/src/hid/disp/display.h ****             for(j = 0; j < font.FontWidth; j++)
 665              		.loc 9 415 15 view .LVU140
 666 009a 39F802CF 		ldrh	ip, [r9, #2]!
 667              	.LVL38:
 416:../../libs/libDaisy/src/sys/../../../../libs/libDaisy/src/hid/disp/display.h ****             {
 668              		.loc 9 416 26 is_stmt 1 view .LVU141
 669 009e A5B3     		cbz	r5, .L45
 670              	.LBB535:
 671              	.LBB536:
 672              	.LBB537:
 673              	.LBB538:
 674              	.LBB539:
 347:../../libs/libDaisy/src/sys/../../../../libs/libDaisy/src/dev/oled_ssd130x.h ****     }
 675              		.loc 10 347 55 is_stmt 0 view .LVU142
 676 00a0 04F00703 		and	r3, r4, #7
 347:../../libs/libDaisy/src/sys/../../../../libs/libDaisy/src/dev/oled_ssd130x.h ****     }
ARM GAS  C:\Users\matte\AppData\Local\Temp\cclPkNhc.s 			page 37


 677              		.loc 10 347 49 view .LVU143
 678 00a4 4FF0010E 		mov	lr, #1
 347:../../libs/libDaisy/src/sys/../../../../libs/libDaisy/src/dev/oled_ssd130x.h ****     }
 679              		.loc 10 347 28 view .LVU144
 680 00a8 E208     		lsrs	r2, r4, #3
 681 00aa 5946     		mov	r1, fp
 347:../../libs/libDaisy/src/sys/../../../../libs/libDaisy/src/dev/oled_ssd130x.h ****     }
 682              		.loc 10 347 49 view .LVU145
 683 00ac 0EFA03FE 		lsl	lr, lr, r3
 684 00b0 0BF11003 		add	r3, fp, #16
 347:../../libs/libDaisy/src/sys/../../../../libs/libDaisy/src/dev/oled_ssd130x.h ****     }
 685              		.loc 10 347 42 view .LVU146
 686 00b4 4FFA8EFE 		sxtb	lr, lr
 687 00b8 03EBC212 		add	r2, r3, r2, lsl #7
 688              	.LBE539:
 689              	.LBE538:
 690              	.LBE537:
 691              	.LBE536:
 692              	.LBE535:
 416:../../libs/libDaisy/src/sys/../../../../libs/libDaisy/src/hid/disp/display.h ****             {
 693              		.loc 9 416 19 view .LVU147
 694 00bc 0023     		movs	r3, #0
 695              	.LBB557:
 696              	.LBB552:
 697              	.LBB547:
 698              	.LBB543:
 699              	.LBB540:
 347:../../libs/libDaisy/src/sys/../../../../libs/libDaisy/src/dev/oled_ssd130x.h ****     }
 700              		.loc 10 347 42 view .LVU148
 701 00be 6FEA0E08 		mvn	r8, lr
 702 00c2 3244     		add	r2, r2, r6
 703 00c4 0DE0     		b	.L46
 704              	.LVL39:
 705              	.L70:
 347:../../libs/libDaisy/src/sys/../../../../libs/libDaisy/src/dev/oled_ssd130x.h ****     }
 706              		.loc 10 347 42 view .LVU149
 707              	.LBE540:
 708              	.LBE543:
 709              	.LBE547:
 710              	.LBE552:
 711              	.LBE557:
 712              	.LBB558:
 713              	.LBI558:
  42:../../libs/libDaisy/src/sys/../../../../libs/libDaisy/src/hid/disp/oled_display.h ****     {
 714              		.loc 8 42 10 is_stmt 1 view .LVU150
 715              	.LBB559:
 716              	.LBI559:
 340:../../libs/libDaisy/src/sys/../../../../libs/libDaisy/src/dev/oled_ssd130x.h ****     {
 717              		.loc 10 340 10 view .LVU151
 718              	.LBB560:
 342:../../libs/libDaisy/src/sys/../../../../libs/libDaisy/src/dev/oled_ssd130x.h ****             return;
 719              		.loc 10 342 9 is_stmt 0 view .LVU152
 720 00c6 7F29     		cmp	r1, #127
 721 00c8 06D8     		bhi	.L42
 722 00ca 3F2C     		cmp	r4, #63
 723 00cc 04D8     		bhi	.L42
 345:../../libs/libDaisy/src/sys/../../../../libs/libDaisy/src/dev/oled_ssd130x.h ****         else
ARM GAS  C:\Users\matte\AppData\Local\Temp\cclPkNhc.s 			page 38


 724              		.loc 10 345 42 view .LVU153
 725 00ce 1078     		ldrb	r0, [r2]	@ zero_extendqisi2
 344:../../libs/libDaisy/src/sys/../../../../libs/libDaisy/src/dev/oled_ssd130x.h ****             buffer_[x + (y / 8) * width] |= (1 << (y % 8));
 726              		.loc 10 344 9 view .LVU154
 727 00d0 97B1     		cbz	r7, .L44
 728              	.L67:
 344:../../libs/libDaisy/src/sys/../../../../libs/libDaisy/src/dev/oled_ssd130x.h ****             buffer_[x + (y / 8) * width] |= (1 << (y % 8));
 729              		.loc 10 344 9 view .LVU155
 730              	.LBE560:
 731              	.LBE559:
 732              	.LBE558:
 733              	.LBB561:
 734              	.LBB553:
 735              	.LBB548:
 345:../../libs/libDaisy/src/sys/../../../../libs/libDaisy/src/dev/oled_ssd130x.h ****         else
 736              		.loc 10 345 42 view .LVU156
 737 00d2 4EEA0000 		orr	r0, lr, r0
 738 00d6 1070     		strb	r0, [r2]
 739              	.L42:
 740              	.LBE548:
 741              	.LBE553:
 742              	.LBE561:
 416:../../libs/libDaisy/src/sys/../../../../libs/libDaisy/src/hid/disp/display.h ****             {
 743              		.loc 9 416 13 is_stmt 1 view .LVU157
 744 00d8 0133     		adds	r3, r3, #1
 745              	.LVL40:
 416:../../libs/libDaisy/src/sys/../../../../libs/libDaisy/src/hid/disp/display.h ****             {
 746              		.loc 9 416 26 view .LVU158
 747 00da 0132     		adds	r2, r2, #1
 748 00dc 0131     		adds	r1, r1, #1
 749 00de AB42     		cmp	r3, r5
 750 00e0 13D0     		beq	.L45
 751              	.LVL41:
 752              	.L46:
 418:../../libs/libDaisy/src/sys/../../../../libs/libDaisy/src/hid/disp/display.h ****                 {
 753              		.loc 9 418 23 is_stmt 0 view .LVU159
 754 00e2 0CFA03F0 		lsl	r0, ip, r3
 418:../../libs/libDaisy/src/sys/../../../../libs/libDaisy/src/hid/disp/display.h ****                 {
 755              		.loc 9 418 17 view .LVU160
 756 00e6 0004     		lsls	r0, r0, #16
 757 00e8 EDD4     		bmi	.L70
 758              	.LVL42:
 759              	.LBB562:
 760              	.LBI535:
  42:../../libs/libDaisy/src/sys/../../../../libs/libDaisy/src/hid/disp/oled_display.h ****     {
 761              		.loc 8 42 10 is_stmt 1 view .LVU161
 762              	.LBB554:
 763              	.LBI536:
 340:../../libs/libDaisy/src/sys/../../../../libs/libDaisy/src/dev/oled_ssd130x.h ****     {
 764              		.loc 10 340 10 view .LVU162
 765              	.LBB549:
 342:../../libs/libDaisy/src/sys/../../../../libs/libDaisy/src/dev/oled_ssd130x.h ****             return;
 766              		.loc 10 342 9 is_stmt 0 view .LVU163
 767 00ea 7F29     		cmp	r1, #127
 768 00ec F4D8     		bhi	.L42
 769 00ee 3F2C     		cmp	r4, #63
 770 00f0 F2D8     		bhi	.L42
ARM GAS  C:\Users\matte\AppData\Local\Temp\cclPkNhc.s 			page 39


 345:../../libs/libDaisy/src/sys/../../../../libs/libDaisy/src/dev/oled_ssd130x.h ****         else
 771              		.loc 10 345 42 view .LVU164
 772 00f2 1078     		ldrb	r0, [r2]	@ zero_extendqisi2
 344:../../libs/libDaisy/src/sys/../../../../libs/libDaisy/src/dev/oled_ssd130x.h ****             buffer_[x + (y / 8) * width] |= (1 << (y % 8));
 773              		.loc 10 344 9 view .LVU165
 774 00f4 002F     		cmp	r7, #0
 775 00f6 ECD0     		beq	.L67
 776              	.L44:
 777              	.LVL43:
 778              	.LBB544:
 779              	.LBI538:
 340:../../libs/libDaisy/src/sys/../../../../libs/libDaisy/src/dev/oled_ssd130x.h ****     {
 780              		.loc 10 340 10 is_stmt 1 view .LVU166
 340:../../libs/libDaisy/src/sys/../../../../libs/libDaisy/src/dev/oled_ssd130x.h ****     {
 781              		.loc 10 340 10 is_stmt 0 view .LVU167
 782              	.LBE544:
 783              	.LBE549:
 784              	.LBE554:
 785              	.LBE562:
 416:../../libs/libDaisy/src/sys/../../../../libs/libDaisy/src/hid/disp/display.h ****             {
 786              		.loc 9 416 13 view .LVU168
 787 00f8 0133     		adds	r3, r3, #1
 788              	.LVL44:
 789              	.LBB563:
 790              	.LBB555:
 791              	.LBB550:
 792              	.LBB545:
 793              	.LBB541:
 347:../../libs/libDaisy/src/sys/../../../../libs/libDaisy/src/dev/oled_ssd130x.h ****     }
 794              		.loc 10 347 42 view .LVU169
 795 00fa 08EA0000 		and	r0, r8, r0
 796              	.LBE541:
 797              	.LBE545:
 798              	.LBE550:
 799              	.LBE555:
 800              	.LBE563:
 416:../../libs/libDaisy/src/sys/../../../../libs/libDaisy/src/hid/disp/display.h ****             {
 801              		.loc 9 416 26 view .LVU170
 802 00fe 0132     		adds	r2, r2, #1
 803 0100 0131     		adds	r1, r1, #1
 804 0102 AB42     		cmp	r3, r5
 805              	.LBB564:
 806              	.LBB556:
 807              	.LBB551:
 808              	.LBB546:
 809              	.LBB542:
 347:../../libs/libDaisy/src/sys/../../../../libs/libDaisy/src/dev/oled_ssd130x.h ****     }
 810              		.loc 10 347 42 view .LVU171
 811 0104 02F8010C 		strb	r0, [r2, #-1]
 347:../../libs/libDaisy/src/sys/../../../../libs/libDaisy/src/dev/oled_ssd130x.h ****     }
 812              		.loc 10 347 42 view .LVU172
 813              	.LBE542:
 814              	.LBE546:
 815              	.LBE551:
 816              	.LBE556:
 817              	.LBE564:
 416:../../libs/libDaisy/src/sys/../../../../libs/libDaisy/src/hid/disp/display.h ****             {
ARM GAS  C:\Users\matte\AppData\Local\Temp\cclPkNhc.s 			page 40


 818              		.loc 9 416 13 is_stmt 1 view .LVU173
 819              	.LVL45:
 416:../../libs/libDaisy/src/sys/../../../../libs/libDaisy/src/hid/disp/display.h ****             {
 820              		.loc 9 416 26 view .LVU174
 821 0108 EBD1     		bne	.L46
 822              	.LVL46:
 823              	.L45:
 413:../../libs/libDaisy/src/sys/../../../../libs/libDaisy/src/hid/disp/display.h ****         {
 824              		.loc 9 413 9 view .LVU175
 413:../../libs/libDaisy/src/sys/../../../../libs/libDaisy/src/hid/disp/display.h ****         {
 825              		.loc 9 413 22 view .LVU176
 826 010a D145     		cmp	r9, r10
 827 010c 04F10104 		add	r4, r4, #1
 828 0110 C3D1     		bne	.L40
 829 0112 DDF81080 		ldr	r8, [sp, #16]
 830              	.LVL47:
 831              	.L39:
 832              	.LBB565:
 833              	.LBB566:
 173:../../libs/libDaisy/src/sys/../../../../libs/libDaisy/src/hid/disp/display.h ****         currentY_ = (y >= Height()) ? Height() - 1 : y;
 834              		.loc 9 173 33 is_stmt 0 view .LVU177
 835 0116 3268     		ldr	r2, [r6]
 836              	.LBE566:
 837              	.LBE565:
 434:../../libs/libDaisy/src/sys/../../../../libs/libDaisy/src/hid/disp/display.h **** 
 838              		.loc 9 434 18 view .LVU178
 839 0118 0BEB0504 		add	r4, fp, r5
 840 011c 2649     		ldr	r1, .L75
 841              	.LBB571:
 842              	.LBB567:
 173:../../libs/libDaisy/src/sys/../../../../libs/libDaisy/src/hid/disp/display.h ****         currentY_ = (y >= Height()) ? Height() - 1 : y;
 843              		.loc 9 173 33 view .LVU179
 844 011e D368     		ldr	r3, [r2, #12]
 845              	.LBE567:
 846              	.LBE571:
 434:../../libs/libDaisy/src/sys/../../../../libs/libDaisy/src/hid/disp/display.h **** 
 847              		.loc 9 434 18 view .LVU180
 848 0120 A4B2     		uxth	r4, r4
 849              	.LVL48:
 850              	.LBB572:
 851              	.LBI565:
 171:../../libs/libDaisy/src/sys/../../../../libs/libDaisy/src/hid/disp/display.h ****     {
 852              		.loc 9 171 10 is_stmt 1 view .LVU181
 853              	.LBB568:
 173:../../libs/libDaisy/src/sys/../../../../libs/libDaisy/src/hid/disp/display.h ****         currentY_ = (y >= Height()) ? Height() - 1 : y;
 854              		.loc 9 173 9 view .LVU182
 855 0122 8B42     		cmp	r3, r1
 856 0124 34D1     		bne	.L71
 173:../../libs/libDaisy/src/sys/../../../../libs/libDaisy/src/hid/disp/display.h ****         currentY_ = (y >= Height()) ? Height() - 1 : y;
 857              		.loc 9 173 33 is_stmt 0 view .LVU183
 858 0126 8020     		movs	r0, #128
 859              	.L47:
 173:../../libs/libDaisy/src/sys/../../../../libs/libDaisy/src/hid/disp/display.h ****         currentY_ = (y >= Height()) ? Height() - 1 : y;
 860              		.loc 9 173 19 view .LVU184
 861 0128 8442     		cmp	r4, r0
 862 012a 04D3     		bcc	.L48
 173:../../libs/libDaisy/src/sys/../../../../libs/libDaisy/src/hid/disp/display.h ****         currentY_ = (y >= Height()) ? Height() - 1 : y;
ARM GAS  C:\Users\matte\AppData\Local\Temp\cclPkNhc.s 			page 41


 863              		.loc 9 173 44 view .LVU185
 864 012c D368     		ldr	r3, [r2, #12]
 865 012e 2249     		ldr	r1, .L75
 866 0130 8B42     		cmp	r3, r1
 867 0132 3AD1     		bne	.L72
 868 0134 7F24     		movs	r4, #127
 869              	.LVL49:
 870              	.L48:
 174:../../libs/libDaisy/src/sys/../../../../libs/libDaisy/src/hid/disp/display.h ****     }
 871              		.loc 9 174 34 view .LVU186
 872 0136 9368     		ldr	r3, [r2, #8]
 873 0138 204A     		ldr	r2, .L75+4
 173:../../libs/libDaisy/src/sys/../../../../libs/libDaisy/src/hid/disp/display.h ****         currentY_ = (y >= Height()) ? Height() - 1 : y;
 874              		.loc 9 173 19 view .LVU187
 875 013a B480     		strh	r4, [r6, #4]	@ movhi
 174:../../libs/libDaisy/src/sys/../../../../libs/libDaisy/src/hid/disp/display.h ****     }
 876              		.loc 9 174 9 is_stmt 1 view .LVU188
 877 013c 9342     		cmp	r3, r2
 878 013e 24D1     		bne	.L73
 174:../../libs/libDaisy/src/sys/../../../../libs/libDaisy/src/hid/disp/display.h ****     }
 879              		.loc 9 174 34 is_stmt 0 view .LVU189
 880 0140 4020     		movs	r0, #64
 881              	.L50:
 174:../../libs/libDaisy/src/sys/../../../../libs/libDaisy/src/hid/disp/display.h ****     }
 882              		.loc 9 174 19 view .LVU190
 883 0142 029B     		ldr	r3, [sp, #8]
 884 0144 8342     		cmp	r3, r0
 885 0146 06D3     		bcc	.L51
 174:../../libs/libDaisy/src/sys/../../../../libs/libDaisy/src/hid/disp/display.h ****     }
 886              		.loc 9 174 46 view .LVU191
 887 0148 3368     		ldr	r3, [r6]
 888 014a 1C4A     		ldr	r2, .L75+4
 889 014c 9B68     		ldr	r3, [r3, #8]
 890 014e 9342     		cmp	r3, r2
 891 0150 25D1     		bne	.L74
 892 0152 3F23     		movs	r3, #63
 893 0154 0293     		str	r3, [sp, #8]
 894              	.LVL50:
 895              	.L51:
 174:../../libs/libDaisy/src/sys/../../../../libs/libDaisy/src/hid/disp/display.h ****     }
 896              		.loc 9 174 19 view .LVU192
 897 0156 029B     		ldr	r3, [sp, #8]
 898 0158 F380     		strh	r3, [r6, #6]	@ movhi
 899              	.LVL51:
 900              	.L33:
 174:../../libs/libDaisy/src/sys/../../../../libs/libDaisy/src/hid/disp/display.h ****     }
 901              		.loc 9 174 19 view .LVU193
 902              	.LBE568:
 903              	.LBE572:
 904              	.LBE534:
 905              	.LBE533:
 444:../../libs/libDaisy/src/sys/../../../../libs/libDaisy/src/hid/disp/display.h ****         {
 445:../../libs/libDaisy/src/sys/../../../../libs/libDaisy/src/hid/disp/display.h ****             if(((ChildType*)(this))->ChildType::WriteChar(*str, font, on)
 446:../../libs/libDaisy/src/sys/../../../../libs/libDaisy/src/hid/disp/display.h ****                != *str)
 906              		.loc 9 446 16 view .LVU194
 907 015a 019B     		ldr	r3, [sp, #4]
 908 015c 1878     		ldrb	r0, [r3]	@ zero_extendqisi2
ARM GAS  C:\Users\matte\AppData\Local\Temp\cclPkNhc.s 			page 42


 445:../../libs/libDaisy/src/sys/../../../../libs/libDaisy/src/hid/disp/display.h ****                != *str)
 909              		.loc 9 445 13 view .LVU195
 910 015e 4045     		cmp	r0, r8
 911 0160 07D1     		bne	.L31
 912              	.LVL52:
 443:../../libs/libDaisy/src/sys/../../../../libs/libDaisy/src/hid/disp/display.h ****         {
 913              		.loc 9 443 9 is_stmt 1 view .LVU196
 914 0162 13F8018F 		ldrb	r8, [r3, #1]!	@ zero_extendqisi2
 915              	.LVL53:
 443:../../libs/libDaisy/src/sys/../../../../libs/libDaisy/src/hid/disp/display.h ****         {
 916              		.loc 9 443 9 is_stmt 0 view .LVU197
 917 0166 0193     		str	r3, [sp, #4]
 918 0168 B8F1000F 		cmp	r8, #0
 919 016c 7FF460AF 		bne	.L54
 920              	.LVL54:
 921              	.L53:
 922              	.LBB577:
 923              	.LBB575:
 402:../../libs/libDaisy/src/sys/../../../../libs/libDaisy/src/hid/disp/display.h **** 
 924              		.loc 9 402 20 view .LVU198
 925 0170 0020     		movs	r0, #0
 926              	.L31:
 927              	.LBE575:
 928              	.LBE577:
 447:../../libs/libDaisy/src/sys/../../../../libs/libDaisy/src/hid/disp/display.h ****             {
 448:../../libs/libDaisy/src/sys/../../../../libs/libDaisy/src/hid/disp/display.h ****                 // Char could not be written
 449:../../libs/libDaisy/src/sys/../../../../libs/libDaisy/src/hid/disp/display.h ****                 return *str;
 450:../../libs/libDaisy/src/sys/../../../../libs/libDaisy/src/hid/disp/display.h ****             }
 451:../../libs/libDaisy/src/sys/../../../../libs/libDaisy/src/hid/disp/display.h **** 
 452:../../libs/libDaisy/src/sys/../../../../libs/libDaisy/src/hid/disp/display.h ****             // Next char
 453:../../libs/libDaisy/src/sys/../../../../libs/libDaisy/src/hid/disp/display.h ****             str++;
 454:../../libs/libDaisy/src/sys/../../../../libs/libDaisy/src/hid/disp/display.h ****         }
 455:../../libs/libDaisy/src/sys/../../../../libs/libDaisy/src/hid/disp/display.h **** 
 456:../../libs/libDaisy/src/sys/../../../../libs/libDaisy/src/hid/disp/display.h ****         // Everything ok
 457:../../libs/libDaisy/src/sys/../../../../libs/libDaisy/src/hid/disp/display.h ****         return *str;
 458:../../libs/libDaisy/src/sys/../../../../libs/libDaisy/src/hid/disp/display.h ****     }
 929              		.loc 9 458 5 view .LVU199
 930 0172 09B0     		add	sp, sp, #36
 931              		.cfi_remember_state
 932              		.cfi_def_cfa_offset 36
 933              		@ sp needed
 934 0174 BDE8F08F 		pop	{r4, r5, r6, r7, r8, r9, r10, fp, pc}
 935              	.LVL55:
 936              	.L35:
 937              		.cfi_restore_state
 938              	.LBB578:
 939              	.LBB576:
 402:../../libs/libDaisy/src/sys/../../../../libs/libDaisy/src/hid/disp/display.h **** 
 940              		.loc 9 402 20 view .LVU200
 941 0178 4FF00008 		mov	r8, #0
 942              	.LVL56:
 402:../../libs/libDaisy/src/sys/../../../../libs/libDaisy/src/hid/disp/display.h **** 
 943              		.loc 9 402 20 view .LVU201
 944 017c EDE7     		b	.L33
 945              	.LVL57:
 946              	.L68:
 405:../../libs/libDaisy/src/sys/../../../../libs/libDaisy/src/hid/disp/display.h ****            || Height() < (currentY_ + font.FontHeight))
ARM GAS  C:\Users\matte\AppData\Local\Temp\cclPkNhc.s 			page 43


 947              		.loc 9 405 17 view .LVU202
 948 017e 3046     		mov	r0, r6
 949 0180 9847     		blx	r3
 950              	.LVL58:
 951 0182 62E7     		b	.L34
 952              	.L69:
 406:../../libs/libDaisy/src/sys/../../../../libs/libDaisy/src/hid/disp/display.h ****         {
 953              		.loc 9 406 21 view .LVU203
 954 0184 3046     		mov	r0, r6
 955 0186 9847     		blx	r3
 956              	.LVL59:
 957 0188 6BE7     		b	.L36
 958              	.LVL60:
 959              	.L73:
 960              	.LBB573:
 961              	.LBB569:
 174:../../libs/libDaisy/src/sys/../../../../libs/libDaisy/src/hid/disp/display.h ****     }
 962              		.loc 9 174 33 view .LVU204
 963 018a 3046     		mov	r0, r6
 964 018c 9847     		blx	r3
 965              	.LVL61:
 966 018e D8E7     		b	.L50
 967              	.LVL62:
 968              	.L71:
 173:../../libs/libDaisy/src/sys/../../../../libs/libDaisy/src/hid/disp/display.h ****         currentY_ = (y >= Height()) ? Height() - 1 : y;
 969              		.loc 9 173 32 view .LVU205
 970 0190 3046     		mov	r0, r6
 971 0192 9847     		blx	r3
 972              	.LVL63:
 173:../../libs/libDaisy/src/sys/../../../../libs/libDaisy/src/hid/disp/display.h ****         currentY_ = (y >= Height()) ? Height() - 1 : y;
 973              		.loc 9 173 44 view .LVU206
 974 0194 3268     		ldr	r2, [r6]
 975 0196 C7E7     		b	.L47
 976              	.LVL64:
 977              	.L37:
 173:../../libs/libDaisy/src/sys/../../../../libs/libDaisy/src/hid/disp/display.h ****         currentY_ = (y >= Height()) ? Height() - 1 : y;
 978              		.loc 9 173 44 view .LVU207
 979              	.LBE569:
 980              	.LBE573:
 434:../../libs/libDaisy/src/sys/../../../../libs/libDaisy/src/hid/disp/display.h **** 
 981              		.loc 9 434 19 view .LVU208
 982 0198 B6F804B0 		ldrh	fp, [r6, #4]
 983 019c BBE7     		b	.L39
 984              	.LVL65:
 985              	.L74:
 986              	.LBB574:
 987              	.LBB570:
 174:../../libs/libDaisy/src/sys/../../../../libs/libDaisy/src/hid/disp/display.h ****     }
 988              		.loc 9 174 45 view .LVU209
 989 019e 3046     		mov	r0, r6
 990 01a0 9847     		blx	r3
 991              	.LVL66:
 174:../../libs/libDaisy/src/sys/../../../../libs/libDaisy/src/hid/disp/display.h ****     }
 992              		.loc 9 174 19 view .LVU210
 993 01a2 0138     		subs	r0, r0, #1
 994 01a4 83B2     		uxth	r3, r0
 995 01a6 0293     		str	r3, [sp, #8]
ARM GAS  C:\Users\matte\AppData\Local\Temp\cclPkNhc.s 			page 44


 996              	.LVL67:
 174:../../libs/libDaisy/src/sys/../../../../libs/libDaisy/src/hid/disp/display.h ****     }
 997              		.loc 9 174 19 view .LVU211
 998 01a8 D5E7     		b	.L51
 999              	.LVL68:
 1000              	.L72:
 173:../../libs/libDaisy/src/sys/../../../../libs/libDaisy/src/hid/disp/display.h ****         currentY_ = (y >= Height()) ? Height() - 1 : y;
 1001              		.loc 9 173 43 view .LVU212
 1002 01aa 3046     		mov	r0, r6
 1003 01ac 9847     		blx	r3
 1004              	.LVL69:
 173:../../libs/libDaisy/src/sys/../../../../libs/libDaisy/src/hid/disp/display.h ****         currentY_ = (y >= Height()) ? Height() - 1 : y;
 1005              		.loc 9 173 19 view .LVU213
 1006 01ae 0138     		subs	r0, r0, #1
 174:../../libs/libDaisy/src/sys/../../../../libs/libDaisy/src/hid/disp/display.h ****     }
 1007              		.loc 9 174 34 view .LVU214
 1008 01b0 3268     		ldr	r2, [r6]
 173:../../libs/libDaisy/src/sys/../../../../libs/libDaisy/src/hid/disp/display.h ****         currentY_ = (y >= Height()) ? Height() - 1 : y;
 1009              		.loc 9 173 19 view .LVU215
 1010 01b2 84B2     		uxth	r4, r0
 1011              	.LVL70:
 173:../../libs/libDaisy/src/sys/../../../../libs/libDaisy/src/hid/disp/display.h ****         currentY_ = (y >= Height()) ? Height() - 1 : y;
 1012              		.loc 9 173 19 view .LVU216
 1013 01b4 BFE7     		b	.L48
 1014              	.L76:
 1015 01b6 00BF     		.align	2
 1016              	.L75:
 1017 01b8 00000000 		.word	_ZNK5daisy11OledDisplayINS_13SSD130xDriverILj128ELj64ENS_19SSD130xI2CTransportEEEE5WidthEv
 1018 01bc 00000000 		.word	_ZNK5daisy11OledDisplayINS_13SSD130xDriverILj128ELj64ENS_19SSD130xI2CTransportEEEE6HeightEv
 1019              	.LBE570:
 1020              	.LBE574:
 1021              	.LBE576:
 1022              	.LBE578:
 1023              		.cfi_endproc
 1024              	.LFE5454:
 1026              		.section	.text._ZN5daisy25OneBitGraphicsDisplayImplINS_11OledDisplayINS_13SSD130xDriverILj128ELj64
 1027              		.align	1
 1028              		.p2align 2,,3
 1029              		.weak	_ZN5daisy25OneBitGraphicsDisplayImplINS_11OledDisplayINS_13SSD130xDriverILj128ELj64ENS_19SSD
 1030              		.syntax unified
 1031              		.thumb
 1032              		.thumb_func
 1033              		.fpu fpv5-d16
 1035              	_ZN5daisy25OneBitGraphicsDisplayImplINS_11OledDisplayINS_13SSD130xDriverILj128ELj64ENS_19SSD130xI2C
 1036              	.LVL71:
 1037              	.LFB5453:
 396:../../libs/libDaisy/src/sys/../../../../libs/libDaisy/src/hid/disp/display.h ****     {
 1038              		.loc 9 396 10 is_stmt 1 view -0
 1039              		.cfi_startproc
 1040              		@ args = 4, pretend = 0, frame = 16
 1041              		@ frame_needed = 0, uses_anonymous_args = 0
 396:../../libs/libDaisy/src/sys/../../../../libs/libDaisy/src/hid/disp/display.h ****     {
 1042              		.loc 9 396 10 is_stmt 0 view .LVU218
 1043 0000 2DE9F04F 		push	{r4, r5, r6, r7, r8, r9, r10, fp, lr}
 1044              		.cfi_def_cfa_offset 36
 1045              		.cfi_offset 4, -36
 1046              		.cfi_offset 5, -32
ARM GAS  C:\Users\matte\AppData\Local\Temp\cclPkNhc.s 			page 45


 1047              		.cfi_offset 6, -28
 1048              		.cfi_offset 7, -24
 1049              		.cfi_offset 8, -20
 1050              		.cfi_offset 9, -16
 1051              		.cfi_offset 10, -12
 1052              		.cfi_offset 11, -8
 1053              		.cfi_offset 14, -4
 1054 0004 85B0     		sub	sp, sp, #20
 1055              		.cfi_def_cfa_offset 56
 1056              	.LVL72:
 401:../../libs/libDaisy/src/sys/../../../../libs/libDaisy/src/hid/disp/display.h ****             return 0;
 1057              		.loc 9 401 20 view .LVU219
 1058 0006 A1F12005 		sub	r5, r1, #32
 396:../../libs/libDaisy/src/sys/../../../../libs/libDaisy/src/hid/disp/display.h ****     {
 1059              		.loc 9 396 10 view .LVU220
 1060 000a 04AC     		add	r4, sp, #16
 1061 000c 9DF83870 		ldrb	r7, [sp, #56]	@ zero_extendqisi2
 1062 0010 0091     		str	r1, [sp]
 1063 0012 04E90C00 		stmdb	r4, {r2, r3}
 1064              	.LVL73:
 401:../../libs/libDaisy/src/sys/../../../../libs/libDaisy/src/hid/disp/display.h ****             return 0;
 1065              		.loc 9 401 9 view .LVU221
 1066 0016 EBB2     		uxtb	r3, r5
 1067 0018 5E2B     		cmp	r3, #94
 1068 001a 00F29580 		bhi	.L81
 405:../../libs/libDaisy/src/sys/../../../../libs/libDaisy/src/hid/disp/display.h ****            || Height() < (currentY_ + font.FontHeight))
 1069              		.loc 9 405 17 view .LVU222
 1070 001e 0368     		ldr	r3, [r0]
 1071 0020 8046     		mov	r8, r0
 1072 0022 5D4A     		ldr	r2, .L116
 1073 0024 DB68     		ldr	r3, [r3, #12]
 1074 0026 9DF80840 		ldrb	r4, [sp, #8]	@ zero_extendqisi2
 1075 002a 9342     		cmp	r3, r2
 1076 002c 9DF80960 		ldrb	r6, [sp, #9]	@ zero_extendqisi2
 1077 0030 40F09480 		bne	.L108
 1078 0034 8020     		movs	r0, #128
 1079              	.LVL74:
 1080              	.L80:
 405:../../libs/libDaisy/src/sys/../../../../libs/libDaisy/src/hid/disp/display.h ****            || Height() < (currentY_ + font.FontHeight))
 1081              		.loc 9 405 23 view .LVU223
 1082 0036 B8F80430 		ldrh	r3, [r8, #4]
 405:../../libs/libDaisy/src/sys/../../../../libs/libDaisy/src/hid/disp/display.h ****            || Height() < (currentY_ + font.FontHeight))
 1083              		.loc 9 405 33 view .LVU224
 1084 003a 2344     		add	r3, r3, r4
 406:../../libs/libDaisy/src/sys/../../../../libs/libDaisy/src/hid/disp/display.h ****         {
 1085              		.loc 9 406 12 view .LVU225
 1086 003c 8342     		cmp	r3, r0
 1087 003e 00F38380 		bgt	.L81
 406:../../libs/libDaisy/src/sys/../../../../libs/libDaisy/src/hid/disp/display.h ****         {
 1088              		.loc 9 406 21 discriminator 2 view .LVU226
 1089 0042 D8F80030 		ldr	r3, [r8]
 1090 0046 554A     		ldr	r2, .L116+4
 1091 0048 9B68     		ldr	r3, [r3, #8]
 1092 004a 9342     		cmp	r3, r2
 1093 004c 40F08880 		bne	.L109
 406:../../libs/libDaisy/src/sys/../../../../libs/libDaisy/src/hid/disp/display.h ****         {
 1094              		.loc 9 406 21 view .LVU227
ARM GAS  C:\Users\matte\AppData\Local\Temp\cclPkNhc.s 			page 46


 1095 0050 4020     		movs	r0, #64
 1096              	.L82:
 406:../../libs/libDaisy/src/sys/../../../../libs/libDaisy/src/hid/disp/display.h ****         {
 1097              		.loc 9 406 27 discriminator 2 view .LVU228
 1098 0052 B8F80620 		ldrh	r2, [r8, #6]
 406:../../libs/libDaisy/src/sys/../../../../libs/libDaisy/src/hid/disp/display.h ****         {
 1099              		.loc 9 406 37 discriminator 2 view .LVU229
 1100 0056 9319     		adds	r3, r2, r6
 406:../../libs/libDaisy/src/sys/../../../../libs/libDaisy/src/hid/disp/display.h ****         {
 1101              		.loc 9 406 27 discriminator 2 view .LVU230
 1102 0058 0192     		str	r2, [sp, #4]
 406:../../libs/libDaisy/src/sys/../../../../libs/libDaisy/src/hid/disp/display.h ****         {
 1103              		.loc 9 406 12 discriminator 2 view .LVU231
 1104 005a 8342     		cmp	r3, r0
 1105 005c 74DC     		bgt	.L81
 1106              	.LVL75:
 413:../../libs/libDaisy/src/sys/../../../../libs/libDaisy/src/hid/disp/display.h ****         {
 1107              		.loc 9 413 22 is_stmt 1 view .LVU232
 1108 005e 002E     		cmp	r6, #0
 1109 0060 00F08980 		beq	.L83
 415:../../libs/libDaisy/src/sys/../../../../libs/libDaisy/src/hid/disp/display.h ****             for(j = 0; j < font.FontWidth; j++)
 1110              		.loc 9 415 37 is_stmt 0 view .LVU233
 1111 0064 06FB05F5 		mul	r5, r6, r5
 1112 0068 6FF00040 		mvn	r0, #-2147483648
 415:../../libs/libDaisy/src/sys/../../../../libs/libDaisy/src/hid/disp/display.h ****             for(j = 0; j < font.FontWidth; j++)
 1113              		.loc 9 415 22 view .LVU234
 1114 006c 039B     		ldr	r3, [sp, #12]
 1115 006e 9646     		mov	lr, r2
 1116 0070 2844     		add	r0, r0, r5
 1117 0072 2E44     		add	r6, r6, r5
 434:../../libs/libDaisy/src/sys/../../../../libs/libDaisy/src/hid/disp/display.h **** 
 1118              		.loc 9 434 19 view .LVU235
 1119 0074 B8F804A0 		ldrh	r10, [r8, #4]
 1120 0078 03EB4000 		add	r0, r3, r0, lsl #1
 1121 007c 023B     		subs	r3, r3, #2
 1122 007e 03EB460B 		add	fp, r3, r6, lsl #1
 1123              	.LVL76:
 1124              	.L86:
 415:../../libs/libDaisy/src/sys/../../../../libs/libDaisy/src/hid/disp/display.h ****             for(j = 0; j < font.FontWidth; j++)
 1125              		.loc 9 415 15 view .LVU236
 1126 0082 30F8026F 		ldrh	r6, [r0, #2]!
 1127              	.LVL77:
 416:../../libs/libDaisy/src/sys/../../../../libs/libDaisy/src/hid/disp/display.h ****             {
 1128              		.loc 9 416 26 is_stmt 1 view .LVU237
 1129 0086 BCB3     		cbz	r4, .L91
 1130              	.LBB609:
 1131              	.LBB610:
 1132              	.LBB611:
 1133              	.LBB612:
 1134              	.LBB613:
 347:../../libs/libDaisy/src/sys/../../../../libs/libDaisy/src/dev/oled_ssd130x.h ****     }
 1135              		.loc 10 347 55 is_stmt 0 view .LVU238
 1136 0088 0EF00703 		and	r3, lr, #7
 347:../../libs/libDaisy/src/sys/../../../../libs/libDaisy/src/dev/oled_ssd130x.h ****     }
 1137              		.loc 10 347 49 view .LVU239
 1138 008c 4FF0010C 		mov	ip, #1
 347:../../libs/libDaisy/src/sys/../../../../libs/libDaisy/src/dev/oled_ssd130x.h ****     }
ARM GAS  C:\Users\matte\AppData\Local\Temp\cclPkNhc.s 			page 47


 1139              		.loc 10 347 28 view .LVU240
 1140 0090 4FEADE02 		lsr	r2, lr, #3
 1141 0094 5146     		mov	r1, r10
 347:../../libs/libDaisy/src/sys/../../../../libs/libDaisy/src/dev/oled_ssd130x.h ****     }
 1142              		.loc 10 347 49 view .LVU241
 1143 0096 0CFA03FC 		lsl	ip, ip, r3
 1144 009a 0AF11003 		add	r3, r10, #16
 347:../../libs/libDaisy/src/sys/../../../../libs/libDaisy/src/dev/oled_ssd130x.h ****     }
 1145              		.loc 10 347 42 view .LVU242
 1146 009e 4FFA8CFC 		sxtb	ip, ip
 1147 00a2 03EBC212 		add	r2, r3, r2, lsl #7
 1148              	.LBE613:
 1149              	.LBE612:
 1150              	.LBE611:
 1151              	.LBE610:
 1152              	.LBE609:
 416:../../libs/libDaisy/src/sys/../../../../libs/libDaisy/src/hid/disp/display.h ****             {
 1153              		.loc 9 416 19 view .LVU243
 1154 00a6 0023     		movs	r3, #0
 1155              	.LBB631:
 1156              	.LBB626:
 1157              	.LBB621:
 1158              	.LBB617:
 1159              	.LBB614:
 347:../../libs/libDaisy/src/sys/../../../../libs/libDaisy/src/dev/oled_ssd130x.h ****     }
 1160              		.loc 10 347 42 view .LVU244
 1161 00a8 6FEA0C09 		mvn	r9, ip
 1162 00ac 4244     		add	r2, r2, r8
 1163 00ae 0EE0     		b	.L92
 1164              	.LVL78:
 1165              	.L110:
 347:../../libs/libDaisy/src/sys/../../../../libs/libDaisy/src/dev/oled_ssd130x.h ****     }
 1166              		.loc 10 347 42 view .LVU245
 1167              	.LBE614:
 1168              	.LBE617:
 1169              	.LBE621:
 1170              	.LBE626:
 1171              	.LBE631:
 1172              	.LBB632:
 1173              	.LBI632:
  42:../../libs/libDaisy/src/sys/../../../../libs/libDaisy/src/hid/disp/oled_display.h ****     {
 1174              		.loc 8 42 10 is_stmt 1 view .LVU246
 1175              	.LBB633:
 1176              	.LBI633:
 340:../../libs/libDaisy/src/sys/../../../../libs/libDaisy/src/dev/oled_ssd130x.h ****     {
 1177              		.loc 10 340 10 view .LVU247
 1178              	.LBB634:
 342:../../libs/libDaisy/src/sys/../../../../libs/libDaisy/src/dev/oled_ssd130x.h ****             return;
 1179              		.loc 10 342 9 is_stmt 0 view .LVU248
 1180 00b0 7F29     		cmp	r1, #127
 1181 00b2 07D8     		bhi	.L88
 1182 00b4 BEF13F0F 		cmp	lr, #63
 1183 00b8 04D8     		bhi	.L88
 345:../../libs/libDaisy/src/sys/../../../../libs/libDaisy/src/dev/oled_ssd130x.h ****         else
 1184              		.loc 10 345 42 view .LVU249
 1185 00ba 1578     		ldrb	r5, [r2]	@ zero_extendqisi2
 344:../../libs/libDaisy/src/sys/../../../../libs/libDaisy/src/dev/oled_ssd130x.h ****             buffer_[x + (y / 8) * width] |= (1 << (y % 8));
ARM GAS  C:\Users\matte\AppData\Local\Temp\cclPkNhc.s 			page 48


 1186              		.loc 10 344 9 view .LVU250
 1187 00bc 9FB1     		cbz	r7, .L90
 1188              	.L107:
 344:../../libs/libDaisy/src/sys/../../../../libs/libDaisy/src/dev/oled_ssd130x.h ****             buffer_[x + (y / 8) * width] |= (1 << (y % 8));
 1189              		.loc 10 344 9 view .LVU251
 1190              	.LBE634:
 1191              	.LBE633:
 1192              	.LBE632:
 1193              	.LBB635:
 1194              	.LBB627:
 1195              	.LBB622:
 345:../../libs/libDaisy/src/sys/../../../../libs/libDaisy/src/dev/oled_ssd130x.h ****         else
 1196              		.loc 10 345 42 view .LVU252
 1197 00be 4CEA0505 		orr	r5, ip, r5
 1198 00c2 1570     		strb	r5, [r2]
 1199              	.L88:
 1200              	.LBE622:
 1201              	.LBE627:
 1202              	.LBE635:
 416:../../libs/libDaisy/src/sys/../../../../libs/libDaisy/src/hid/disp/display.h ****             {
 1203              		.loc 9 416 13 is_stmt 1 discriminator 2 view .LVU253
 1204 00c4 0133     		adds	r3, r3, #1
 1205              	.LVL79:
 416:../../libs/libDaisy/src/sys/../../../../libs/libDaisy/src/hid/disp/display.h ****             {
 1206              		.loc 9 416 26 discriminator 2 view .LVU254
 1207 00c6 0132     		adds	r2, r2, #1
 1208 00c8 0131     		adds	r1, r1, #1
 1209 00ca 9C42     		cmp	r4, r3
 1210 00cc 14D0     		beq	.L91
 1211              	.LVL80:
 1212              	.L92:
 418:../../libs/libDaisy/src/sys/../../../../libs/libDaisy/src/hid/disp/display.h ****                 {
 1213              		.loc 9 418 23 is_stmt 0 view .LVU255
 1214 00ce 06FA03F5 		lsl	r5, r6, r3
 418:../../libs/libDaisy/src/sys/../../../../libs/libDaisy/src/hid/disp/display.h ****                 {
 1215              		.loc 9 418 17 view .LVU256
 1216 00d2 2D04     		lsls	r5, r5, #16
 1217 00d4 ECD4     		bmi	.L110
 1218              	.LVL81:
 1219              	.LBB636:
 1220              	.LBI609:
  42:../../libs/libDaisy/src/sys/../../../../libs/libDaisy/src/hid/disp/oled_display.h ****     {
 1221              		.loc 8 42 10 is_stmt 1 view .LVU257
 1222              	.LBB628:
 1223              	.LBI610:
 340:../../libs/libDaisy/src/sys/../../../../libs/libDaisy/src/dev/oled_ssd130x.h ****     {
 1224              		.loc 10 340 10 view .LVU258
 1225              	.LBB623:
 342:../../libs/libDaisy/src/sys/../../../../libs/libDaisy/src/dev/oled_ssd130x.h ****             return;
 1226              		.loc 10 342 9 is_stmt 0 view .LVU259
 1227 00d6 7F29     		cmp	r1, #127
 1228 00d8 F4D8     		bhi	.L88
 1229 00da BEF13F0F 		cmp	lr, #63
 1230 00de F1D8     		bhi	.L88
 345:../../libs/libDaisy/src/sys/../../../../libs/libDaisy/src/dev/oled_ssd130x.h ****         else
 1231              		.loc 10 345 42 view .LVU260
 1232 00e0 1578     		ldrb	r5, [r2]	@ zero_extendqisi2
ARM GAS  C:\Users\matte\AppData\Local\Temp\cclPkNhc.s 			page 49


 344:../../libs/libDaisy/src/sys/../../../../libs/libDaisy/src/dev/oled_ssd130x.h ****             buffer_[x + (y / 8) * width] |= (1 << (y % 8));
 1233              		.loc 10 344 9 view .LVU261
 1234 00e2 002F     		cmp	r7, #0
 1235 00e4 EBD0     		beq	.L107
 1236              	.L90:
 1237              	.LVL82:
 1238              	.LBB618:
 1239              	.LBI612:
 340:../../libs/libDaisy/src/sys/../../../../libs/libDaisy/src/dev/oled_ssd130x.h ****     {
 1240              		.loc 10 340 10 is_stmt 1 view .LVU262
 340:../../libs/libDaisy/src/sys/../../../../libs/libDaisy/src/dev/oled_ssd130x.h ****     {
 1241              		.loc 10 340 10 is_stmt 0 view .LVU263
 1242              	.LBE618:
 1243              	.LBE623:
 1244              	.LBE628:
 1245              	.LBE636:
 416:../../libs/libDaisy/src/sys/../../../../libs/libDaisy/src/hid/disp/display.h ****             {
 1246              		.loc 9 416 13 view .LVU264
 1247 00e6 0133     		adds	r3, r3, #1
 1248              	.LVL83:
 1249              	.LBB637:
 1250              	.LBB629:
 1251              	.LBB624:
 1252              	.LBB619:
 1253              	.LBB615:
 347:../../libs/libDaisy/src/sys/../../../../libs/libDaisy/src/dev/oled_ssd130x.h ****     }
 1254              		.loc 10 347 42 view .LVU265
 1255 00e8 09EA0505 		and	r5, r9, r5
 1256              	.LBE615:
 1257              	.LBE619:
 1258              	.LBE624:
 1259              	.LBE629:
 1260              	.LBE637:
 416:../../libs/libDaisy/src/sys/../../../../libs/libDaisy/src/hid/disp/display.h ****             {
 1261              		.loc 9 416 26 view .LVU266
 1262 00ec 0132     		adds	r2, r2, #1
 1263 00ee 0131     		adds	r1, r1, #1
 1264 00f0 9C42     		cmp	r4, r3
 1265              	.LBB638:
 1266              	.LBB630:
 1267              	.LBB625:
 1268              	.LBB620:
 1269              	.LBB616:
 347:../../libs/libDaisy/src/sys/../../../../libs/libDaisy/src/dev/oled_ssd130x.h ****     }
 1270              		.loc 10 347 42 view .LVU267
 1271 00f2 02F8015C 		strb	r5, [r2, #-1]
 347:../../libs/libDaisy/src/sys/../../../../libs/libDaisy/src/dev/oled_ssd130x.h ****     }
 1272              		.loc 10 347 42 view .LVU268
 1273              	.LBE616:
 1274              	.LBE620:
 1275              	.LBE625:
 1276              	.LBE630:
 1277              	.LBE638:
 416:../../libs/libDaisy/src/sys/../../../../libs/libDaisy/src/hid/disp/display.h ****             {
 1278              		.loc 9 416 13 is_stmt 1 view .LVU269
 1279              	.LVL84:
 416:../../libs/libDaisy/src/sys/../../../../libs/libDaisy/src/hid/disp/display.h ****             {
ARM GAS  C:\Users\matte\AppData\Local\Temp\cclPkNhc.s 			page 50


 1280              		.loc 9 416 26 view .LVU270
 1281 00f6 EAD1     		bne	.L92
 1282              	.LVL85:
 1283              	.L91:
 413:../../libs/libDaisy/src/sys/../../../../libs/libDaisy/src/hid/disp/display.h ****         {
 1284              		.loc 9 413 9 view .LVU271
 413:../../libs/libDaisy/src/sys/../../../../libs/libDaisy/src/hid/disp/display.h ****         {
 1285              		.loc 9 413 22 view .LVU272
 1286 00f8 5845     		cmp	r0, fp
 1287 00fa 0EF1010E 		add	lr, lr, #1
 1288 00fe C0D1     		bne	.L86
 1289              	.LVL86:
 1290              	.L85:
 1291              	.LBB639:
 1292              	.LBB640:
 173:../../libs/libDaisy/src/sys/../../../../libs/libDaisy/src/hid/disp/display.h ****         currentY_ = (y >= Height()) ? Height() - 1 : y;
 1293              		.loc 9 173 33 is_stmt 0 view .LVU273
 1294 0100 D8F80030 		ldr	r3, [r8]
 1295              	.LBE640:
 1296              	.LBE639:
 434:../../libs/libDaisy/src/sys/../../../../libs/libDaisy/src/hid/disp/display.h **** 
 1297              		.loc 9 434 18 view .LVU274
 1298 0104 5444     		add	r4, r4, r10
 1299 0106 2449     		ldr	r1, .L116
 1300              	.LBB646:
 1301              	.LBB641:
 173:../../libs/libDaisy/src/sys/../../../../libs/libDaisy/src/hid/disp/display.h ****         currentY_ = (y >= Height()) ? Height() - 1 : y;
 1302              		.loc 9 173 33 view .LVU275
 1303 0108 DA68     		ldr	r2, [r3, #12]
 1304              	.LBE641:
 1305              	.LBE646:
 434:../../libs/libDaisy/src/sys/../../../../libs/libDaisy/src/hid/disp/display.h **** 
 1306              		.loc 9 434 18 view .LVU276
 1307 010a A4B2     		uxth	r4, r4
 1308              	.LVL87:
 1309              	.LBB647:
 1310              	.LBI639:
 171:../../libs/libDaisy/src/sys/../../../../libs/libDaisy/src/hid/disp/display.h ****     {
 1311              		.loc 9 171 10 is_stmt 1 view .LVU277
 1312              	.LBB642:
 173:../../libs/libDaisy/src/sys/../../../../libs/libDaisy/src/hid/disp/display.h ****         currentY_ = (y >= Height()) ? Height() - 1 : y;
 1313              		.loc 9 173 9 view .LVU278
 1314 010c 8A42     		cmp	r2, r1
 1315 010e 2DD1     		bne	.L111
 173:../../libs/libDaisy/src/sys/../../../../libs/libDaisy/src/hid/disp/display.h ****         currentY_ = (y >= Height()) ? Height() - 1 : y;
 1316              		.loc 9 173 33 is_stmt 0 view .LVU279
 1317 0110 8020     		movs	r0, #128
 1318              	.L93:
 173:../../libs/libDaisy/src/sys/../../../../libs/libDaisy/src/hid/disp/display.h ****         currentY_ = (y >= Height()) ? Height() - 1 : y;
 1319              		.loc 9 173 19 view .LVU280
 1320 0112 8442     		cmp	r4, r0
 1321 0114 1CD2     		bcs	.L112
 1322              	.LVL88:
 1323              	.L94:
 174:../../libs/libDaisy/src/sys/../../../../libs/libDaisy/src/hid/disp/display.h ****     }
 1324              		.loc 9 174 34 view .LVU281
 1325 0116 9B68     		ldr	r3, [r3, #8]
ARM GAS  C:\Users\matte\AppData\Local\Temp\cclPkNhc.s 			page 51


 1326 0118 204A     		ldr	r2, .L116+4
 173:../../libs/libDaisy/src/sys/../../../../libs/libDaisy/src/hid/disp/display.h ****         currentY_ = (y >= Height()) ? Height() - 1 : y;
 1327              		.loc 9 173 19 view .LVU282
 1328 011a A8F80440 		strh	r4, [r8, #4]	@ movhi
 174:../../libs/libDaisy/src/sys/../../../../libs/libDaisy/src/hid/disp/display.h ****     }
 1329              		.loc 9 174 9 is_stmt 1 view .LVU283
 1330 011e 9342     		cmp	r3, r2
 1331 0120 21D1     		bne	.L113
 174:../../libs/libDaisy/src/sys/../../../../libs/libDaisy/src/hid/disp/display.h ****     }
 1332              		.loc 9 174 34 is_stmt 0 view .LVU284
 1333 0122 4020     		movs	r0, #64
 1334              	.L96:
 174:../../libs/libDaisy/src/sys/../../../../libs/libDaisy/src/hid/disp/display.h ****     }
 1335              		.loc 9 174 19 view .LVU285
 1336 0124 019B     		ldr	r3, [sp, #4]
 1337 0126 8342     		cmp	r3, r0
 1338 0128 07D3     		bcc	.L97
 174:../../libs/libDaisy/src/sys/../../../../libs/libDaisy/src/hid/disp/display.h ****     }
 1339              		.loc 9 174 46 view .LVU286
 1340 012a D8F80030 		ldr	r3, [r8]
 1341 012e 1B4A     		ldr	r2, .L116+4
 1342 0130 9B68     		ldr	r3, [r3, #8]
 1343 0132 9342     		cmp	r3, r2
 1344 0134 29D1     		bne	.L114
 1345 0136 3F23     		movs	r3, #63
 1346 0138 0193     		str	r3, [sp, #4]
 1347              	.LVL89:
 1348              	.L97:
 174:../../libs/libDaisy/src/sys/../../../../libs/libDaisy/src/hid/disp/display.h ****     }
 1349              		.loc 9 174 19 view .LVU287
 1350 013a DDE90003 		ldrd	r0, r3, [sp]
 1351 013e A8F80630 		strh	r3, [r8, #6]	@ movhi
 1352              	.LVL90:
 174:../../libs/libDaisy/src/sys/../../../../libs/libDaisy/src/hid/disp/display.h ****     }
 1353              		.loc 9 174 19 view .LVU288
 1354              	.LBE642:
 1355              	.LBE647:
 438:../../libs/libDaisy/src/sys/../../../../libs/libDaisy/src/hid/disp/display.h **** 
 1356              		.loc 9 438 5 view .LVU289
 1357 0142 05B0     		add	sp, sp, #20
 1358              		.cfi_remember_state
 1359              		.cfi_def_cfa_offset 36
 1360              		@ sp needed
 1361 0144 BDE8F08F 		pop	{r4, r5, r6, r7, r8, r9, r10, fp, pc}
 1362              	.LVL91:
 1363              	.L81:
 1364              		.cfi_restore_state
 402:../../libs/libDaisy/src/sys/../../../../libs/libDaisy/src/hid/disp/display.h **** 
 1365              		.loc 9 402 20 view .LVU290
 1366 0148 0020     		movs	r0, #0
 438:../../libs/libDaisy/src/sys/../../../../libs/libDaisy/src/hid/disp/display.h **** 
 1367              		.loc 9 438 5 view .LVU291
 1368 014a 05B0     		add	sp, sp, #20
 1369              		.cfi_remember_state
 1370              		.cfi_def_cfa_offset 36
 1371              		@ sp needed
 1372 014c BDE8F08F 		pop	{r4, r5, r6, r7, r8, r9, r10, fp, pc}
ARM GAS  C:\Users\matte\AppData\Local\Temp\cclPkNhc.s 			page 52


 1373              	.LVL92:
 1374              	.L112:
 1375              		.cfi_restore_state
 1376              	.LBB648:
 1377              	.LBB643:
 173:../../libs/libDaisy/src/sys/../../../../libs/libDaisy/src/hid/disp/display.h ****         currentY_ = (y >= Height()) ? Height() - 1 : y;
 1378              		.loc 9 173 44 view .LVU292
 1379 0150 DA68     		ldr	r2, [r3, #12]
 1380 0152 1149     		ldr	r1, .L116
 1381 0154 8A42     		cmp	r2, r1
 1382 0156 11D1     		bne	.L115
 1383 0158 7F24     		movs	r4, #127
 1384              	.LVL93:
 173:../../libs/libDaisy/src/sys/../../../../libs/libDaisy/src/hid/disp/display.h ****         currentY_ = (y >= Height()) ? Height() - 1 : y;
 1385              		.loc 9 173 44 view .LVU293
 1386 015a DCE7     		b	.L94
 1387              	.LVL94:
 1388              	.L108:
 173:../../libs/libDaisy/src/sys/../../../../libs/libDaisy/src/hid/disp/display.h ****         currentY_ = (y >= Height()) ? Height() - 1 : y;
 1389              		.loc 9 173 44 view .LVU294
 1390              	.LBE643:
 1391              	.LBE648:
 405:../../libs/libDaisy/src/sys/../../../../libs/libDaisy/src/hid/disp/display.h ****            || Height() < (currentY_ + font.FontHeight))
 1392              		.loc 9 405 17 view .LVU295
 1393 015c 9847     		blx	r3
 1394              	.LVL95:
 405:../../libs/libDaisy/src/sys/../../../../libs/libDaisy/src/hid/disp/display.h ****            || Height() < (currentY_ + font.FontHeight))
 1395              		.loc 9 405 17 view .LVU296
 1396 015e 6AE7     		b	.L80
 1397              	.L109:
 406:../../libs/libDaisy/src/sys/../../../../libs/libDaisy/src/hid/disp/display.h ****         {
 1398              		.loc 9 406 21 discriminator 2 view .LVU297
 1399 0160 4046     		mov	r0, r8
 1400 0162 9847     		blx	r3
 1401              	.LVL96:
 1402 0164 75E7     		b	.L82
 1403              	.LVL97:
 1404              	.L113:
 1405              	.LBB649:
 1406              	.LBB644:
 174:../../libs/libDaisy/src/sys/../../../../libs/libDaisy/src/hid/disp/display.h ****     }
 1407              		.loc 9 174 33 view .LVU298
 1408 0166 4046     		mov	r0, r8
 1409 0168 9847     		blx	r3
 1410              	.LVL98:
 1411 016a DBE7     		b	.L96
 1412              	.LVL99:
 1413              	.L111:
 173:../../libs/libDaisy/src/sys/../../../../libs/libDaisy/src/hid/disp/display.h ****         currentY_ = (y >= Height()) ? Height() - 1 : y;
 1414              		.loc 9 173 32 view .LVU299
 1415 016c 4046     		mov	r0, r8
 1416 016e 9047     		blx	r2
 1417              	.LVL100:
 173:../../libs/libDaisy/src/sys/../../../../libs/libDaisy/src/hid/disp/display.h ****         currentY_ = (y >= Height()) ? Height() - 1 : y;
 1418              		.loc 9 173 44 view .LVU300
 1419 0170 D8F80030 		ldr	r3, [r8]
 1420 0174 CDE7     		b	.L93
ARM GAS  C:\Users\matte\AppData\Local\Temp\cclPkNhc.s 			page 53


 1421              	.LVL101:
 1422              	.L83:
 173:../../libs/libDaisy/src/sys/../../../../libs/libDaisy/src/hid/disp/display.h ****         currentY_ = (y >= Height()) ? Height() - 1 : y;
 1423              		.loc 9 173 44 view .LVU301
 1424              	.LBE644:
 1425              	.LBE649:
 434:../../libs/libDaisy/src/sys/../../../../libs/libDaisy/src/hid/disp/display.h **** 
 1426              		.loc 9 434 19 view .LVU302
 1427 0176 B8F804A0 		ldrh	r10, [r8, #4]
 1428 017a C1E7     		b	.L85
 1429              	.LVL102:
 1430              	.L115:
 1431              	.LBB650:
 1432              	.LBB645:
 173:../../libs/libDaisy/src/sys/../../../../libs/libDaisy/src/hid/disp/display.h ****         currentY_ = (y >= Height()) ? Height() - 1 : y;
 1433              		.loc 9 173 43 view .LVU303
 1434 017c 4046     		mov	r0, r8
 1435 017e 9047     		blx	r2
 1436              	.LVL103:
 173:../../libs/libDaisy/src/sys/../../../../libs/libDaisy/src/hid/disp/display.h ****         currentY_ = (y >= Height()) ? Height() - 1 : y;
 1437              		.loc 9 173 19 view .LVU304
 1438 0180 0138     		subs	r0, r0, #1
 174:../../libs/libDaisy/src/sys/../../../../libs/libDaisy/src/hid/disp/display.h ****     }
 1439              		.loc 9 174 34 view .LVU305
 1440 0182 D8F80030 		ldr	r3, [r8]
 173:../../libs/libDaisy/src/sys/../../../../libs/libDaisy/src/hid/disp/display.h ****         currentY_ = (y >= Height()) ? Height() - 1 : y;
 1441              		.loc 9 173 19 view .LVU306
 1442 0186 84B2     		uxth	r4, r0
 1443              	.LVL104:
 173:../../libs/libDaisy/src/sys/../../../../libs/libDaisy/src/hid/disp/display.h ****         currentY_ = (y >= Height()) ? Height() - 1 : y;
 1444              		.loc 9 173 19 view .LVU307
 1445 0188 C5E7     		b	.L94
 1446              	.L114:
 174:../../libs/libDaisy/src/sys/../../../../libs/libDaisy/src/hid/disp/display.h ****     }
 1447              		.loc 9 174 45 view .LVU308
 1448 018a 4046     		mov	r0, r8
 1449 018c 9847     		blx	r3
 1450              	.LVL105:
 174:../../libs/libDaisy/src/sys/../../../../libs/libDaisy/src/hid/disp/display.h ****     }
 1451              		.loc 9 174 19 view .LVU309
 1452 018e 0138     		subs	r0, r0, #1
 1453 0190 83B2     		uxth	r3, r0
 1454 0192 0193     		str	r3, [sp, #4]
 1455              	.LVL106:
 174:../../libs/libDaisy/src/sys/../../../../libs/libDaisy/src/hid/disp/display.h ****     }
 1456              		.loc 9 174 19 view .LVU310
 1457 0194 D1E7     		b	.L97
 1458              	.L117:
 1459 0196 00BF     		.align	2
 1460              	.L116:
 1461 0198 00000000 		.word	_ZNK5daisy11OledDisplayINS_13SSD130xDriverILj128ELj64ENS_19SSD130xI2CTransportEEEE5WidthEv
 1462 019c 00000000 		.word	_ZNK5daisy11OledDisplayINS_13SSD130xDriverILj128ELj64ENS_19SSD130xI2CTransportEEEE6HeightEv
 1463              	.LBE645:
 1464              	.LBE650:
 1465              		.cfi_endproc
 1466              	.LFE5453:
 1468              		.section	.text._ZN5daisy25OneBitGraphicsDisplayImplINS_11OledDisplayINS_13SSD130xDriverILj128ELj64
ARM GAS  C:\Users\matte\AppData\Local\Temp\cclPkNhc.s 			page 54


 1469              		.align	1
 1470              		.p2align 2,,3
 1471              		.weak	_ZN5daisy25OneBitGraphicsDisplayImplINS_11OledDisplayINS_13SSD130xDriverILj128ELj64ENS_19SSD
 1472              		.syntax unified
 1473              		.thumb
 1474              		.thumb_func
 1475              		.fpu fpv5-d16
 1477              	_ZN5daisy25OneBitGraphicsDisplayImplINS_11OledDisplayINS_13SSD130xDriverILj128ELj64ENS_19SSD130xI2C
 1478              	.LVL107:
 1479              	.LFB5455:
 459:../../libs/libDaisy/src/sys/../../../../libs/libDaisy/src/hid/disp/display.h **** 
 460:../../libs/libDaisy/src/sys/../../../../libs/libDaisy/src/hid/disp/display.h ****     Rectangle WriteStringAligned(const char*    str,
 1480              		.loc 9 460 15 is_stmt 1 view -0
 1481              		.cfi_startproc
 1482              		@ args = 12, pretend = 0, frame = 32
 1483              		@ frame_needed = 0, uses_anonymous_args = 0
 1484              		.loc 9 460 15 is_stmt 0 view .LVU312
 1485 0000 2DE9F04F 		push	{r4, r5, r6, r7, r8, r9, r10, fp, lr}
 1486              		.cfi_def_cfa_offset 36
 1487              		.cfi_offset 4, -36
 1488              		.cfi_offset 5, -32
 1489              		.cfi_offset 6, -28
 1490              		.cfi_offset 7, -24
 1491              		.cfi_offset 8, -20
 1492              		.cfi_offset 9, -16
 1493              		.cfi_offset 10, -12
 1494              		.cfi_offset 11, -8
 1495              		.cfi_offset 14, -4
 1496 0004 89B0     		sub	sp, sp, #36
 1497              		.cfi_def_cfa_offset 72
 1498              		.loc 9 460 15 view .LVU313
 1499 0006 1D46     		mov	r5, r3
 1500 0008 8846     		mov	r8, r1
 1501              	.LVL108:
 1502              	.LBB789:
 1503              	.LBI789:
 461:../../libs/libDaisy/src/sys/../../../../libs/libDaisy/src/hid/disp/display.h ****                                  const FontDef& font,
 462:../../libs/libDaisy/src/sys/../../../../libs/libDaisy/src/hid/disp/display.h ****                                  Rectangle      boundingBox,
 463:../../libs/libDaisy/src/sys/../../../../libs/libDaisy/src/hid/disp/display.h ****                                  Alignment      alignment,
 464:../../libs/libDaisy/src/sys/../../../../libs/libDaisy/src/hid/disp/display.h ****                                  bool           on) override
 465:../../libs/libDaisy/src/sys/../../../../libs/libDaisy/src/hid/disp/display.h ****     {
 466:../../libs/libDaisy/src/sys/../../../../libs/libDaisy/src/hid/disp/display.h ****         const auto alignedRect
 467:../../libs/libDaisy/src/sys/../../../../libs/libDaisy/src/hid/disp/display.h ****             = GetTextRect(str, font).AlignedWithin(boundingBox, alignment);
 468:../../libs/libDaisy/src/sys/../../../../libs/libDaisy/src/hid/disp/display.h ****         SetCursor(alignedRect.GetX(), alignedRect.GetY());
 469:../../libs/libDaisy/src/sys/../../../../libs/libDaisy/src/hid/disp/display.h ****         ((ChildType*)(this))->ChildType::WriteString(str, font, on);
 470:../../libs/libDaisy/src/sys/../../../../libs/libDaisy/src/hid/disp/display.h ****         return alignedRect;
 471:../../libs/libDaisy/src/sys/../../../../libs/libDaisy/src/hid/disp/display.h ****     }
 472:../../libs/libDaisy/src/sys/../../../../libs/libDaisy/src/hid/disp/display.h **** 
 473:../../libs/libDaisy/src/sys/../../../../libs/libDaisy/src/hid/disp/display.h ****   private:
 474:../../libs/libDaisy/src/sys/../../../../libs/libDaisy/src/hid/disp/display.h ****     uint32_t strlen(const char* string)
 475:../../libs/libDaisy/src/sys/../../../../libs/libDaisy/src/hid/disp/display.h ****     {
 476:../../libs/libDaisy/src/sys/../../../../libs/libDaisy/src/hid/disp/display.h ****         uint32_t result = 0;
 477:../../libs/libDaisy/src/sys/../../../../libs/libDaisy/src/hid/disp/display.h ****         while(*string++ != '\0')
 478:../../libs/libDaisy/src/sys/../../../../libs/libDaisy/src/hid/disp/display.h ****             result++;
 479:../../libs/libDaisy/src/sys/../../../../libs/libDaisy/src/hid/disp/display.h ****         return result;
 480:../../libs/libDaisy/src/sys/../../../../libs/libDaisy/src/hid/disp/display.h ****     }
 481:../../libs/libDaisy/src/sys/../../../../libs/libDaisy/src/hid/disp/display.h **** 
ARM GAS  C:\Users\matte\AppData\Local\Temp\cclPkNhc.s 			page 55


 482:../../libs/libDaisy/src/sys/../../../../libs/libDaisy/src/hid/disp/display.h ****     Rectangle GetTextRect(const char* text, const FontDef& font)
 1504              		.loc 9 482 15 is_stmt 1 view .LVU314
 1505              	.LBB790:
 1506              	.LBB791:
 1507              	.LBI791:
 474:../../libs/libDaisy/src/sys/../../../../libs/libDaisy/src/hid/disp/display.h ****     {
 1508              		.loc 9 474 14 view .LVU315
 1509              	.LBB792:
 477:../../libs/libDaisy/src/sys/../../../../libs/libDaisy/src/hid/disp/display.h ****             result++;
 1510              		.loc 9 477 25 view .LVU316
 1511              	.LBE792:
 1512              	.LBE791:
 1513              	.LBE790:
 1514              	.LBE789:
 460:../../libs/libDaisy/src/sys/../../../../libs/libDaisy/src/hid/disp/display.h ****                                  const FontDef& font,
 1515              		.loc 9 460 15 is_stmt 0 view .LVU317
 1516 000a 0690     		str	r0, [sp, #24]
 1517              	.LBB807:
 1518              	.LBB803:
 1519              	.LBB796:
 1520              	.LBB793:
 477:../../libs/libDaisy/src/sys/../../../../libs/libDaisy/src/hid/disp/display.h ****             result++;
 1521              		.loc 9 477 25 view .LVU318
 1522 000c 1046     		mov	r0, r2
 1523              	.LVL109:
 477:../../libs/libDaisy/src/sys/../../../../libs/libDaisy/src/hid/disp/display.h ****             result++;
 1524              		.loc 9 477 25 view .LVU319
 1525              	.LBE793:
 1526              	.LBE796:
 1527              	.LBE803:
 1528              	.LBE807:
 460:../../libs/libDaisy/src/sys/../../../../libs/libDaisy/src/hid/disp/display.h ****                                  const FontDef& font,
 1529              		.loc 9 460 15 view .LVU320
 1530 000e 129C     		ldr	r4, [sp, #72]
 1531              	.LBB808:
 1532              	.LBB804:
 1533              	.LBB797:
 1534              	.LBB794:
 477:../../libs/libDaisy/src/sys/../../../../libs/libDaisy/src/hid/disp/display.h ****             result++;
 1535              		.loc 9 477 25 view .LVU321
 1536 0010 10F8013B 		ldrb	r3, [r0], #1	@ zero_extendqisi2
 1537              	.LVL110:
 477:../../libs/libDaisy/src/sys/../../../../libs/libDaisy/src/hid/disp/display.h ****             result++;
 1538              		.loc 9 477 25 view .LVU322
 1539              	.LBE794:
 1540              	.LBE797:
 1541              	.LBE804:
 1542              	.LBE808:
 460:../../libs/libDaisy/src/sys/../../../../libs/libDaisy/src/hid/disp/display.h ****                                  const FontDef& font,
 1543              		.loc 9 460 15 view .LVU323
 1544 0014 1399     		ldr	r1, [sp, #76]
 1545              	.LVL111:
 460:../../libs/libDaisy/src/sys/../../../../libs/libDaisy/src/hid/disp/display.h ****                                  const FontDef& font,
 1546              		.loc 9 460 15 view .LVU324
 1547 0016 9DF85060 		ldrb	r6, [sp, #80]	@ zero_extendqisi2
 1548 001a 0092     		str	r2, [sp]
 1549              	.LBB809:
ARM GAS  C:\Users\matte\AppData\Local\Temp\cclPkNhc.s 			page 56


 1550              	.LBB805:
 1551              	.LBB798:
 1552              	.LBB795:
 477:../../libs/libDaisy/src/sys/../../../../libs/libDaisy/src/hid/disp/display.h ****             result++;
 1553              		.loc 9 477 25 view .LVU325
 1554 001c 33B1     		cbz	r3, .L119
 476:../../libs/libDaisy/src/sys/../../../../libs/libDaisy/src/hid/disp/display.h ****         while(*string++ != '\0')
 1555              		.loc 9 476 18 view .LVU326
 1556 001e 0022     		movs	r2, #0
 1557              	.LVL112:
 1558              	.L120:
 477:../../libs/libDaisy/src/sys/../../../../libs/libDaisy/src/hid/disp/display.h ****             result++;
 1559              		.loc 9 477 25 view .LVU327
 1560 0020 10F8013B 		ldrb	r3, [r0], #1	@ zero_extendqisi2
 1561              	.LVL113:
 478:../../libs/libDaisy/src/sys/../../../../libs/libDaisy/src/hid/disp/display.h ****         return result;
 1562              		.loc 9 478 13 view .LVU328
 1563 0024 0132     		adds	r2, r2, #1
 1564              	.LVL114:
 477:../../libs/libDaisy/src/sys/../../../../libs/libDaisy/src/hid/disp/display.h ****             result++;
 1565              		.loc 9 477 25 is_stmt 1 view .LVU329
 1566 0026 002B     		cmp	r3, #0
 1567 0028 FAD1     		bne	.L120
 1568              	.LBE795:
 1569              	.LBE798:
 483:../../libs/libDaisy/src/sys/../../../../libs/libDaisy/src/hid/disp/display.h ****     {
 484:../../libs/libDaisy/src/sys/../../../../libs/libDaisy/src/hid/disp/display.h ****         const auto numChars = strlen(text);
 485:../../libs/libDaisy/src/sys/../../../../libs/libDaisy/src/hid/disp/display.h ****         return {int16_t(numChars * font.FontWidth), font.FontHeight};
 1570              		.loc 9 485 68 is_stmt 0 view .LVU330
 1571 002a 93B2     		uxth	r3, r2
 1572              	.LVL115:
 1573              	.L119:
 1574              		.loc 9 485 68 view .LVU331
 1575 002c 2A78     		ldrb	r2, [r5]	@ zero_extendqisi2
 1576              		.loc 9 485 58 view .LVU332
 1577 002e 6878     		ldrb	r0, [r5, #1]	@ zero_extendqisi2
 1578              		.loc 9 485 68 view .LVU333
 1579 0030 12FB03F3 		smulbb	r3, r2, r3
 1580 0034 02B2     		sxth	r2, r0
 1581              	.LVL116:
 1582              	.LBB799:
 1583              	.LBI799:
 1584              		.file 12 "../../libs/libDaisy/src/sys/../../../../libs/libDaisy/src/hid/disp/graphics_common.h"
   1:../../libs/libDaisy/src/sys/../../../../libs/libDaisy/src/hid/disp/graphics_common.h **** #pragma once
   2:../../libs/libDaisy/src/sys/../../../../libs/libDaisy/src/hid/disp/graphics_common.h **** 
   3:../../libs/libDaisy/src/sys/../../../../libs/libDaisy/src/hid/disp/graphics_common.h **** #include <cstdint>
   4:../../libs/libDaisy/src/sys/../../../../libs/libDaisy/src/hid/disp/graphics_common.h **** 
   5:../../libs/libDaisy/src/sys/../../../../libs/libDaisy/src/hid/disp/graphics_common.h **** namespace daisy
   6:../../libs/libDaisy/src/sys/../../../../libs/libDaisy/src/hid/disp/graphics_common.h **** {
   7:../../libs/libDaisy/src/sys/../../../../libs/libDaisy/src/hid/disp/graphics_common.h **** /** Justifications */
   8:../../libs/libDaisy/src/sys/../../../../libs/libDaisy/src/hid/disp/graphics_common.h **** enum class Alignment
   9:../../libs/libDaisy/src/sys/../../../../libs/libDaisy/src/hid/disp/graphics_common.h **** {
  10:../../libs/libDaisy/src/sys/../../../../libs/libDaisy/src/hid/disp/graphics_common.h ****     centered,
  11:../../libs/libDaisy/src/sys/../../../../libs/libDaisy/src/hid/disp/graphics_common.h ****     topLeft,
  12:../../libs/libDaisy/src/sys/../../../../libs/libDaisy/src/hid/disp/graphics_common.h ****     topCentered,
  13:../../libs/libDaisy/src/sys/../../../../libs/libDaisy/src/hid/disp/graphics_common.h ****     topRight,
  14:../../libs/libDaisy/src/sys/../../../../libs/libDaisy/src/hid/disp/graphics_common.h ****     bottomLeft,
ARM GAS  C:\Users\matte\AppData\Local\Temp\cclPkNhc.s 			page 57


  15:../../libs/libDaisy/src/sys/../../../../libs/libDaisy/src/hid/disp/graphics_common.h ****     bottomCentered,
  16:../../libs/libDaisy/src/sys/../../../../libs/libDaisy/src/hid/disp/graphics_common.h ****     bottomRight,
  17:../../libs/libDaisy/src/sys/../../../../libs/libDaisy/src/hid/disp/graphics_common.h ****     centeredLeft,
  18:../../libs/libDaisy/src/sys/../../../../libs/libDaisy/src/hid/disp/graphics_common.h ****     centeredRight
  19:../../libs/libDaisy/src/sys/../../../../libs/libDaisy/src/hid/disp/graphics_common.h **** };
  20:../../libs/libDaisy/src/sys/../../../../libs/libDaisy/src/hid/disp/graphics_common.h **** 
  21:../../libs/libDaisy/src/sys/../../../../libs/libDaisy/src/hid/disp/graphics_common.h **** class Rectangle
  22:../../libs/libDaisy/src/sys/../../../../libs/libDaisy/src/hid/disp/graphics_common.h **** {
  23:../../libs/libDaisy/src/sys/../../../../libs/libDaisy/src/hid/disp/graphics_common.h ****   public:
  24:../../libs/libDaisy/src/sys/../../../../libs/libDaisy/src/hid/disp/graphics_common.h ****     Rectangle() : x_(0), y_(0), width_(0), height_(0) {}
  25:../../libs/libDaisy/src/sys/../../../../libs/libDaisy/src/hid/disp/graphics_common.h **** 
  26:../../libs/libDaisy/src/sys/../../../../libs/libDaisy/src/hid/disp/graphics_common.h ****     Rectangle(int16_t width, int16_t height)
 1585              		.loc 12 26 5 is_stmt 1 view .LVU334
 1586              	.LBB800:
 1587              	.LBI800:
  27:../../libs/libDaisy/src/sys/../../../../libs/libDaisy/src/hid/disp/graphics_common.h ****     : x_(0), y_(0), width_(max(0, width)), height_(max(0, height))
  28:../../libs/libDaisy/src/sys/../../../../libs/libDaisy/src/hid/disp/graphics_common.h ****     {
  29:../../libs/libDaisy/src/sys/../../../../libs/libDaisy/src/hid/disp/graphics_common.h ****     }
  30:../../libs/libDaisy/src/sys/../../../../libs/libDaisy/src/hid/disp/graphics_common.h **** 
  31:../../libs/libDaisy/src/sys/../../../../libs/libDaisy/src/hid/disp/graphics_common.h ****     Rectangle(int16_t x, int16_t y, int16_t width, int16_t height)
  32:../../libs/libDaisy/src/sys/../../../../libs/libDaisy/src/hid/disp/graphics_common.h ****     : x_(x), y_(y), width_(max(0, width)), height_(max(0, height))
  33:../../libs/libDaisy/src/sys/../../../../libs/libDaisy/src/hid/disp/graphics_common.h ****     {
  34:../../libs/libDaisy/src/sys/../../../../libs/libDaisy/src/hid/disp/graphics_common.h ****     }
  35:../../libs/libDaisy/src/sys/../../../../libs/libDaisy/src/hid/disp/graphics_common.h **** 
  36:../../libs/libDaisy/src/sys/../../../../libs/libDaisy/src/hid/disp/graphics_common.h ****     Rectangle(const Rectangle& other) { *this = other; }
  37:../../libs/libDaisy/src/sys/../../../../libs/libDaisy/src/hid/disp/graphics_common.h **** 
  38:../../libs/libDaisy/src/sys/../../../../libs/libDaisy/src/hid/disp/graphics_common.h ****     Rectangle& operator=(const Rectangle& other)
  39:../../libs/libDaisy/src/sys/../../../../libs/libDaisy/src/hid/disp/graphics_common.h ****     {
  40:../../libs/libDaisy/src/sys/../../../../libs/libDaisy/src/hid/disp/graphics_common.h ****         x_      = other.x_;
  41:../../libs/libDaisy/src/sys/../../../../libs/libDaisy/src/hid/disp/graphics_common.h ****         y_      = other.y_;
  42:../../libs/libDaisy/src/sys/../../../../libs/libDaisy/src/hid/disp/graphics_common.h ****         width_  = other.width_;
  43:../../libs/libDaisy/src/sys/../../../../libs/libDaisy/src/hid/disp/graphics_common.h ****         height_ = other.height_;
  44:../../libs/libDaisy/src/sys/../../../../libs/libDaisy/src/hid/disp/graphics_common.h ****         return *this;
  45:../../libs/libDaisy/src/sys/../../../../libs/libDaisy/src/hid/disp/graphics_common.h ****     }
  46:../../libs/libDaisy/src/sys/../../../../libs/libDaisy/src/hid/disp/graphics_common.h **** 
  47:../../libs/libDaisy/src/sys/../../../../libs/libDaisy/src/hid/disp/graphics_common.h ****     bool operator==(const Rectangle& other) const
  48:../../libs/libDaisy/src/sys/../../../../libs/libDaisy/src/hid/disp/graphics_common.h ****     {
  49:../../libs/libDaisy/src/sys/../../../../libs/libDaisy/src/hid/disp/graphics_common.h ****         return (x_ == other.x_) && (y_ == other.y_) && (width_ == other.width_)
  50:../../libs/libDaisy/src/sys/../../../../libs/libDaisy/src/hid/disp/graphics_common.h ****                && (height_ == other.height_);
  51:../../libs/libDaisy/src/sys/../../../../libs/libDaisy/src/hid/disp/graphics_common.h ****     }
  52:../../libs/libDaisy/src/sys/../../../../libs/libDaisy/src/hid/disp/graphics_common.h ****     bool operator!=(const Rectangle& other) const { return !(*this == other); }
  53:../../libs/libDaisy/src/sys/../../../../libs/libDaisy/src/hid/disp/graphics_common.h **** 
  54:../../libs/libDaisy/src/sys/../../../../libs/libDaisy/src/hid/disp/graphics_common.h ****     bool IsEmpty() const { return (width_ <= 0) || (height_ <= 0); }
  55:../../libs/libDaisy/src/sys/../../../../libs/libDaisy/src/hid/disp/graphics_common.h **** 
  56:../../libs/libDaisy/src/sys/../../../../libs/libDaisy/src/hid/disp/graphics_common.h ****     int16_t GetX() const { return x_; }
  57:../../libs/libDaisy/src/sys/../../../../libs/libDaisy/src/hid/disp/graphics_common.h ****     int16_t GetY() const { return y_; }
  58:../../libs/libDaisy/src/sys/../../../../libs/libDaisy/src/hid/disp/graphics_common.h ****     int16_t GetWidth() const { return width_; }
  59:../../libs/libDaisy/src/sys/../../../../libs/libDaisy/src/hid/disp/graphics_common.h ****     int16_t GetHeight() const { return height_; }
  60:../../libs/libDaisy/src/sys/../../../../libs/libDaisy/src/hid/disp/graphics_common.h ****     int16_t GetRight() const { return x_ + width_; }
  61:../../libs/libDaisy/src/sys/../../../../libs/libDaisy/src/hid/disp/graphics_common.h ****     int16_t GetBottom() const { return y_ + height_; }
  62:../../libs/libDaisy/src/sys/../../../../libs/libDaisy/src/hid/disp/graphics_common.h ****     int16_t GetCenterX() const { return x_ + width_ / 2; }
  63:../../libs/libDaisy/src/sys/../../../../libs/libDaisy/src/hid/disp/graphics_common.h ****     int16_t GetCenterY() const { return y_ + height_ / 2; }
  64:../../libs/libDaisy/src/sys/../../../../libs/libDaisy/src/hid/disp/graphics_common.h **** 
  65:../../libs/libDaisy/src/sys/../../../../libs/libDaisy/src/hid/disp/graphics_common.h ****     Rectangle WithX(int16_t x) const { return {x, y_, width_, height_}; }
  66:../../libs/libDaisy/src/sys/../../../../libs/libDaisy/src/hid/disp/graphics_common.h ****     Rectangle WithY(int16_t y) const { return {x_, y, width_, height_}; }
  67:../../libs/libDaisy/src/sys/../../../../libs/libDaisy/src/hid/disp/graphics_common.h ****     Rectangle WithWidth(int16_t width) const
  68:../../libs/libDaisy/src/sys/../../../../libs/libDaisy/src/hid/disp/graphics_common.h ****     {
ARM GAS  C:\Users\matte\AppData\Local\Temp\cclPkNhc.s 			page 58


  69:../../libs/libDaisy/src/sys/../../../../libs/libDaisy/src/hid/disp/graphics_common.h ****         return {x_, y_, width, height_};
  70:../../libs/libDaisy/src/sys/../../../../libs/libDaisy/src/hid/disp/graphics_common.h ****     }
  71:../../libs/libDaisy/src/sys/../../../../libs/libDaisy/src/hid/disp/graphics_common.h ****     Rectangle WithHeight(int16_t height) const
  72:../../libs/libDaisy/src/sys/../../../../libs/libDaisy/src/hid/disp/graphics_common.h ****     {
  73:../../libs/libDaisy/src/sys/../../../../libs/libDaisy/src/hid/disp/graphics_common.h ****         return {x_, y_, width_, height};
  74:../../libs/libDaisy/src/sys/../../../../libs/libDaisy/src/hid/disp/graphics_common.h ****     }
  75:../../libs/libDaisy/src/sys/../../../../libs/libDaisy/src/hid/disp/graphics_common.h ****     Rectangle WithSize(int16_t width, int16_t height) const
  76:../../libs/libDaisy/src/sys/../../../../libs/libDaisy/src/hid/disp/graphics_common.h ****     {
  77:../../libs/libDaisy/src/sys/../../../../libs/libDaisy/src/hid/disp/graphics_common.h ****         return {x_, y_, width, height};
  78:../../libs/libDaisy/src/sys/../../../../libs/libDaisy/src/hid/disp/graphics_common.h ****     }
  79:../../libs/libDaisy/src/sys/../../../../libs/libDaisy/src/hid/disp/graphics_common.h ****     Rectangle WithWidthKeepingCenter(int16_t width) const
  80:../../libs/libDaisy/src/sys/../../../../libs/libDaisy/src/hid/disp/graphics_common.h ****     {
  81:../../libs/libDaisy/src/sys/../../../../libs/libDaisy/src/hid/disp/graphics_common.h ****         return Rectangle(x_, y_, width, height_)
  82:../../libs/libDaisy/src/sys/../../../../libs/libDaisy/src/hid/disp/graphics_common.h ****             .WithCenter(GetCenterX(), GetCenterY());
  83:../../libs/libDaisy/src/sys/../../../../libs/libDaisy/src/hid/disp/graphics_common.h ****     }
  84:../../libs/libDaisy/src/sys/../../../../libs/libDaisy/src/hid/disp/graphics_common.h ****     Rectangle WithHeightKeepingCenter(int16_t height) const
  85:../../libs/libDaisy/src/sys/../../../../libs/libDaisy/src/hid/disp/graphics_common.h ****     {
  86:../../libs/libDaisy/src/sys/../../../../libs/libDaisy/src/hid/disp/graphics_common.h ****         return Rectangle(x_, y_, width_, height)
  87:../../libs/libDaisy/src/sys/../../../../libs/libDaisy/src/hid/disp/graphics_common.h ****             .WithCenter(GetCenterX(), GetCenterY());
  88:../../libs/libDaisy/src/sys/../../../../libs/libDaisy/src/hid/disp/graphics_common.h ****     }
  89:../../libs/libDaisy/src/sys/../../../../libs/libDaisy/src/hid/disp/graphics_common.h ****     Rectangle WithSizeKeepingCenter(int16_t width, int16_t height) const
  90:../../libs/libDaisy/src/sys/../../../../libs/libDaisy/src/hid/disp/graphics_common.h ****     {
  91:../../libs/libDaisy/src/sys/../../../../libs/libDaisy/src/hid/disp/graphics_common.h ****         return Rectangle(x_, y_, width, height)
  92:../../libs/libDaisy/src/sys/../../../../libs/libDaisy/src/hid/disp/graphics_common.h ****             .WithCenter(GetCenterX(), GetCenterY());
  93:../../libs/libDaisy/src/sys/../../../../libs/libDaisy/src/hid/disp/graphics_common.h ****     }
  94:../../libs/libDaisy/src/sys/../../../../libs/libDaisy/src/hid/disp/graphics_common.h **** 
  95:../../libs/libDaisy/src/sys/../../../../libs/libDaisy/src/hid/disp/graphics_common.h ****     Rectangle Reduced(int16_t sizeToReduce) const
  96:../../libs/libDaisy/src/sys/../../../../libs/libDaisy/src/hid/disp/graphics_common.h ****     {
  97:../../libs/libDaisy/src/sys/../../../../libs/libDaisy/src/hid/disp/graphics_common.h ****         return {int16_t(x_ + sizeToReduce),
  98:../../libs/libDaisy/src/sys/../../../../libs/libDaisy/src/hid/disp/graphics_common.h ****                 int16_t(y_ + sizeToReduce),
  99:../../libs/libDaisy/src/sys/../../../../libs/libDaisy/src/hid/disp/graphics_common.h ****                 int16_t(width_ - 2 * sizeToReduce),
 100:../../libs/libDaisy/src/sys/../../../../libs/libDaisy/src/hid/disp/graphics_common.h ****                 int16_t(height_ - 2 * sizeToReduce)};
 101:../../libs/libDaisy/src/sys/../../../../libs/libDaisy/src/hid/disp/graphics_common.h ****     }
 102:../../libs/libDaisy/src/sys/../../../../libs/libDaisy/src/hid/disp/graphics_common.h ****     Rectangle Reduced(int16_t xToReduce, int16_t yToReduce) const
 103:../../libs/libDaisy/src/sys/../../../../libs/libDaisy/src/hid/disp/graphics_common.h ****     {
 104:../../libs/libDaisy/src/sys/../../../../libs/libDaisy/src/hid/disp/graphics_common.h ****         return {int16_t(x_ + xToReduce),
 105:../../libs/libDaisy/src/sys/../../../../libs/libDaisy/src/hid/disp/graphics_common.h ****                 int16_t(y_ + yToReduce),
 106:../../libs/libDaisy/src/sys/../../../../libs/libDaisy/src/hid/disp/graphics_common.h ****                 int16_t(width_ - 2 * xToReduce),
 107:../../libs/libDaisy/src/sys/../../../../libs/libDaisy/src/hid/disp/graphics_common.h ****                 int16_t(height_ - 2 * yToReduce)};
 108:../../libs/libDaisy/src/sys/../../../../libs/libDaisy/src/hid/disp/graphics_common.h ****     }
 109:../../libs/libDaisy/src/sys/../../../../libs/libDaisy/src/hid/disp/graphics_common.h **** 
 110:../../libs/libDaisy/src/sys/../../../../libs/libDaisy/src/hid/disp/graphics_common.h ****     Rectangle Translated(int16_t x, int16_t y) const
 111:../../libs/libDaisy/src/sys/../../../../libs/libDaisy/src/hid/disp/graphics_common.h ****     {
 112:../../libs/libDaisy/src/sys/../../../../libs/libDaisy/src/hid/disp/graphics_common.h ****         return {int16_t(x_ + x), int16_t(y_ + y), width_, height_};
 113:../../libs/libDaisy/src/sys/../../../../libs/libDaisy/src/hid/disp/graphics_common.h ****     }
 114:../../libs/libDaisy/src/sys/../../../../libs/libDaisy/src/hid/disp/graphics_common.h **** 
 115:../../libs/libDaisy/src/sys/../../../../libs/libDaisy/src/hid/disp/graphics_common.h ****     Rectangle WithLeft(int16_t left) const
 116:../../libs/libDaisy/src/sys/../../../../libs/libDaisy/src/hid/disp/graphics_common.h ****     {
 117:../../libs/libDaisy/src/sys/../../../../libs/libDaisy/src/hid/disp/graphics_common.h ****         const auto newWidth = int16_t((x_ - left) + width_);
 118:../../libs/libDaisy/src/sys/../../../../libs/libDaisy/src/hid/disp/graphics_common.h ****         return {left, y_, newWidth, height_};
 119:../../libs/libDaisy/src/sys/../../../../libs/libDaisy/src/hid/disp/graphics_common.h ****     }
 120:../../libs/libDaisy/src/sys/../../../../libs/libDaisy/src/hid/disp/graphics_common.h **** 
 121:../../libs/libDaisy/src/sys/../../../../libs/libDaisy/src/hid/disp/graphics_common.h ****     Rectangle WithRight(int16_t right) const
 122:../../libs/libDaisy/src/sys/../../../../libs/libDaisy/src/hid/disp/graphics_common.h ****     {
 123:../../libs/libDaisy/src/sys/../../../../libs/libDaisy/src/hid/disp/graphics_common.h ****         const auto newWidth = int16_t(right - x_);
 124:../../libs/libDaisy/src/sys/../../../../libs/libDaisy/src/hid/disp/graphics_common.h ****         return {x_, y_, newWidth, height_};
 125:../../libs/libDaisy/src/sys/../../../../libs/libDaisy/src/hid/disp/graphics_common.h ****     }
ARM GAS  C:\Users\matte\AppData\Local\Temp\cclPkNhc.s 			page 59


 126:../../libs/libDaisy/src/sys/../../../../libs/libDaisy/src/hid/disp/graphics_common.h **** 
 127:../../libs/libDaisy/src/sys/../../../../libs/libDaisy/src/hid/disp/graphics_common.h ****     Rectangle WithTop(int16_t top) const
 128:../../libs/libDaisy/src/sys/../../../../libs/libDaisy/src/hid/disp/graphics_common.h ****     {
 129:../../libs/libDaisy/src/sys/../../../../libs/libDaisy/src/hid/disp/graphics_common.h ****         const auto newHeight = int16_t((y_ - top) + height_);
 130:../../libs/libDaisy/src/sys/../../../../libs/libDaisy/src/hid/disp/graphics_common.h ****         return {x_, top, width_, newHeight};
 131:../../libs/libDaisy/src/sys/../../../../libs/libDaisy/src/hid/disp/graphics_common.h ****     }
 132:../../libs/libDaisy/src/sys/../../../../libs/libDaisy/src/hid/disp/graphics_common.h **** 
 133:../../libs/libDaisy/src/sys/../../../../libs/libDaisy/src/hid/disp/graphics_common.h ****     Rectangle WithBottom(int16_t bottom) const
 134:../../libs/libDaisy/src/sys/../../../../libs/libDaisy/src/hid/disp/graphics_common.h ****     {
 135:../../libs/libDaisy/src/sys/../../../../libs/libDaisy/src/hid/disp/graphics_common.h ****         const auto newHeight = int16_t(bottom - y_);
 136:../../libs/libDaisy/src/sys/../../../../libs/libDaisy/src/hid/disp/graphics_common.h ****         return {x_, y_, width_, newHeight};
 137:../../libs/libDaisy/src/sys/../../../../libs/libDaisy/src/hid/disp/graphics_common.h ****     }
 138:../../libs/libDaisy/src/sys/../../../../libs/libDaisy/src/hid/disp/graphics_common.h **** 
 139:../../libs/libDaisy/src/sys/../../../../libs/libDaisy/src/hid/disp/graphics_common.h ****     Rectangle WithTrimmedLeft(int16_t pxToTrim) const
 140:../../libs/libDaisy/src/sys/../../../../libs/libDaisy/src/hid/disp/graphics_common.h ****     {
 141:../../libs/libDaisy/src/sys/../../../../libs/libDaisy/src/hid/disp/graphics_common.h ****         return {
 142:../../libs/libDaisy/src/sys/../../../../libs/libDaisy/src/hid/disp/graphics_common.h ****             int16_t(x_ + pxToTrim), y_, int16_t(width_ - pxToTrim), height_};
 143:../../libs/libDaisy/src/sys/../../../../libs/libDaisy/src/hid/disp/graphics_common.h ****     }
 144:../../libs/libDaisy/src/sys/../../../../libs/libDaisy/src/hid/disp/graphics_common.h **** 
 145:../../libs/libDaisy/src/sys/../../../../libs/libDaisy/src/hid/disp/graphics_common.h ****     Rectangle WithTrimmedRight(int16_t pxToTrim) const
 146:../../libs/libDaisy/src/sys/../../../../libs/libDaisy/src/hid/disp/graphics_common.h ****     {
 147:../../libs/libDaisy/src/sys/../../../../libs/libDaisy/src/hid/disp/graphics_common.h ****         return {x_, y_, int16_t(width_ - pxToTrim), height_};
 148:../../libs/libDaisy/src/sys/../../../../libs/libDaisy/src/hid/disp/graphics_common.h ****     }
 149:../../libs/libDaisy/src/sys/../../../../libs/libDaisy/src/hid/disp/graphics_common.h **** 
 150:../../libs/libDaisy/src/sys/../../../../libs/libDaisy/src/hid/disp/graphics_common.h ****     Rectangle WithTrimmedTop(int16_t pxToTrim) const
 151:../../libs/libDaisy/src/sys/../../../../libs/libDaisy/src/hid/disp/graphics_common.h ****     {
 152:../../libs/libDaisy/src/sys/../../../../libs/libDaisy/src/hid/disp/graphics_common.h ****         return {
 153:../../libs/libDaisy/src/sys/../../../../libs/libDaisy/src/hid/disp/graphics_common.h ****             x_, int16_t(y_ + pxToTrim), width_, int16_t(height_ - pxToTrim)};
 154:../../libs/libDaisy/src/sys/../../../../libs/libDaisy/src/hid/disp/graphics_common.h ****     }
 155:../../libs/libDaisy/src/sys/../../../../libs/libDaisy/src/hid/disp/graphics_common.h **** 
 156:../../libs/libDaisy/src/sys/../../../../libs/libDaisy/src/hid/disp/graphics_common.h ****     Rectangle WithTrimmedBottom(int16_t pxToTrim) const
 157:../../libs/libDaisy/src/sys/../../../../libs/libDaisy/src/hid/disp/graphics_common.h ****     {
 158:../../libs/libDaisy/src/sys/../../../../libs/libDaisy/src/hid/disp/graphics_common.h ****         return {x_, y_, width_, int16_t(height_ - pxToTrim)};
 159:../../libs/libDaisy/src/sys/../../../../libs/libDaisy/src/hid/disp/graphics_common.h ****     }
 160:../../libs/libDaisy/src/sys/../../../../libs/libDaisy/src/hid/disp/graphics_common.h **** 
 161:../../libs/libDaisy/src/sys/../../../../libs/libDaisy/src/hid/disp/graphics_common.h ****     Rectangle WithCenterX(int16_t centerX) const
 162:../../libs/libDaisy/src/sys/../../../../libs/libDaisy/src/hid/disp/graphics_common.h ****     {
 163:../../libs/libDaisy/src/sys/../../../../libs/libDaisy/src/hid/disp/graphics_common.h ****         return {int16_t(x_ + centerX - GetCenterX()), y_, width_, height_};
 164:../../libs/libDaisy/src/sys/../../../../libs/libDaisy/src/hid/disp/graphics_common.h ****     }
 165:../../libs/libDaisy/src/sys/../../../../libs/libDaisy/src/hid/disp/graphics_common.h **** 
 166:../../libs/libDaisy/src/sys/../../../../libs/libDaisy/src/hid/disp/graphics_common.h ****     Rectangle WithCenterY(int16_t centerY) const
 167:../../libs/libDaisy/src/sys/../../../../libs/libDaisy/src/hid/disp/graphics_common.h ****     {
 168:../../libs/libDaisy/src/sys/../../../../libs/libDaisy/src/hid/disp/graphics_common.h ****         return {x_, int16_t(y_ + centerY - GetCenterY()), width_, height_};
 169:../../libs/libDaisy/src/sys/../../../../libs/libDaisy/src/hid/disp/graphics_common.h ****     }
 170:../../libs/libDaisy/src/sys/../../../../libs/libDaisy/src/hid/disp/graphics_common.h **** 
 171:../../libs/libDaisy/src/sys/../../../../libs/libDaisy/src/hid/disp/graphics_common.h ****     Rectangle WithCenter(int16_t centerX, int16_t centerY) const
 172:../../libs/libDaisy/src/sys/../../../../libs/libDaisy/src/hid/disp/graphics_common.h ****     {
 173:../../libs/libDaisy/src/sys/../../../../libs/libDaisy/src/hid/disp/graphics_common.h ****         return {int16_t(x_ + centerX - GetCenterX()),
 174:../../libs/libDaisy/src/sys/../../../../libs/libDaisy/src/hid/disp/graphics_common.h ****                 int16_t(y_ + centerY - GetCenterY()),
 175:../../libs/libDaisy/src/sys/../../../../libs/libDaisy/src/hid/disp/graphics_common.h ****                 width_,
 176:../../libs/libDaisy/src/sys/../../../../libs/libDaisy/src/hid/disp/graphics_common.h ****                 height_};
 177:../../libs/libDaisy/src/sys/../../../../libs/libDaisy/src/hid/disp/graphics_common.h ****     }
 178:../../libs/libDaisy/src/sys/../../../../libs/libDaisy/src/hid/disp/graphics_common.h **** 
 179:../../libs/libDaisy/src/sys/../../../../libs/libDaisy/src/hid/disp/graphics_common.h ****     Rectangle RemoveFromLeft(int16_t pxToRemove)
 180:../../libs/libDaisy/src/sys/../../../../libs/libDaisy/src/hid/disp/graphics_common.h ****     {
 181:../../libs/libDaisy/src/sys/../../../../libs/libDaisy/src/hid/disp/graphics_common.h ****         const auto result = this->WithWidth(min(pxToRemove, width_));
 182:../../libs/libDaisy/src/sys/../../../../libs/libDaisy/src/hid/disp/graphics_common.h ****         x_ += min(pxToRemove, width_);
ARM GAS  C:\Users\matte\AppData\Local\Temp\cclPkNhc.s 			page 60


 183:../../libs/libDaisy/src/sys/../../../../libs/libDaisy/src/hid/disp/graphics_common.h ****         width_ = max(int16_t(width_ - pxToRemove), 0);
 184:../../libs/libDaisy/src/sys/../../../../libs/libDaisy/src/hid/disp/graphics_common.h ****         return result;
 185:../../libs/libDaisy/src/sys/../../../../libs/libDaisy/src/hid/disp/graphics_common.h ****     }
 186:../../libs/libDaisy/src/sys/../../../../libs/libDaisy/src/hid/disp/graphics_common.h **** 
 187:../../libs/libDaisy/src/sys/../../../../libs/libDaisy/src/hid/disp/graphics_common.h ****     Rectangle RemoveFromRight(int16_t pxToRemove)
 188:../../libs/libDaisy/src/sys/../../../../libs/libDaisy/src/hid/disp/graphics_common.h ****     {
 189:../../libs/libDaisy/src/sys/../../../../libs/libDaisy/src/hid/disp/graphics_common.h ****         const auto canRemove = min(pxToRemove, width_);
 190:../../libs/libDaisy/src/sys/../../../../libs/libDaisy/src/hid/disp/graphics_common.h ****         width_ -= canRemove;
 191:../../libs/libDaisy/src/sys/../../../../libs/libDaisy/src/hid/disp/graphics_common.h ****         return {int16_t(x_ + width_), y_, canRemove, height_};
 192:../../libs/libDaisy/src/sys/../../../../libs/libDaisy/src/hid/disp/graphics_common.h ****     }
 193:../../libs/libDaisy/src/sys/../../../../libs/libDaisy/src/hid/disp/graphics_common.h **** 
 194:../../libs/libDaisy/src/sys/../../../../libs/libDaisy/src/hid/disp/graphics_common.h ****     Rectangle RemoveFromTop(int16_t pxToRemove)
 195:../../libs/libDaisy/src/sys/../../../../libs/libDaisy/src/hid/disp/graphics_common.h ****     {
 196:../../libs/libDaisy/src/sys/../../../../libs/libDaisy/src/hid/disp/graphics_common.h ****         const auto result = this->WithHeight(min(pxToRemove, height_));
 197:../../libs/libDaisy/src/sys/../../../../libs/libDaisy/src/hid/disp/graphics_common.h ****         y_ += min(pxToRemove, height_);
 198:../../libs/libDaisy/src/sys/../../../../libs/libDaisy/src/hid/disp/graphics_common.h ****         height_ = max(height_ - pxToRemove, 0);
 199:../../libs/libDaisy/src/sys/../../../../libs/libDaisy/src/hid/disp/graphics_common.h ****         return result;
 200:../../libs/libDaisy/src/sys/../../../../libs/libDaisy/src/hid/disp/graphics_common.h ****     }
 201:../../libs/libDaisy/src/sys/../../../../libs/libDaisy/src/hid/disp/graphics_common.h **** 
 202:../../libs/libDaisy/src/sys/../../../../libs/libDaisy/src/hid/disp/graphics_common.h ****     Rectangle RemoveFromBottom(int16_t pxToRemove)
 203:../../libs/libDaisy/src/sys/../../../../libs/libDaisy/src/hid/disp/graphics_common.h ****     {
 204:../../libs/libDaisy/src/sys/../../../../libs/libDaisy/src/hid/disp/graphics_common.h ****         const auto canRemove = min(pxToRemove, height_);
 205:../../libs/libDaisy/src/sys/../../../../libs/libDaisy/src/hid/disp/graphics_common.h ****         height_ -= canRemove;
 206:../../libs/libDaisy/src/sys/../../../../libs/libDaisy/src/hid/disp/graphics_common.h ****         return {x_, int16_t(y_ + height_), width_, canRemove};
 207:../../libs/libDaisy/src/sys/../../../../libs/libDaisy/src/hid/disp/graphics_common.h ****     }
 208:../../libs/libDaisy/src/sys/../../../../libs/libDaisy/src/hid/disp/graphics_common.h **** 
 209:../../libs/libDaisy/src/sys/../../../../libs/libDaisy/src/hid/disp/graphics_common.h ****     Rectangle AlignedWithin(const Rectangle& other, Alignment alignment) const
 210:../../libs/libDaisy/src/sys/../../../../libs/libDaisy/src/hid/disp/graphics_common.h ****     {
 211:../../libs/libDaisy/src/sys/../../../../libs/libDaisy/src/hid/disp/graphics_common.h ****         switch(alignment)
 212:../../libs/libDaisy/src/sys/../../../../libs/libDaisy/src/hid/disp/graphics_common.h ****         {
 213:../../libs/libDaisy/src/sys/../../../../libs/libDaisy/src/hid/disp/graphics_common.h ****             case Alignment::topLeft:
 214:../../libs/libDaisy/src/sys/../../../../libs/libDaisy/src/hid/disp/graphics_common.h ****                 return {other.x_, other.y_, width_, height_};
 215:../../libs/libDaisy/src/sys/../../../../libs/libDaisy/src/hid/disp/graphics_common.h ****             case Alignment::topRight:
 216:../../libs/libDaisy/src/sys/../../../../libs/libDaisy/src/hid/disp/graphics_common.h ****                 return {int16_t(other.GetRight() - width_),
 217:../../libs/libDaisy/src/sys/../../../../libs/libDaisy/src/hid/disp/graphics_common.h ****                         other.y_,
 218:../../libs/libDaisy/src/sys/../../../../libs/libDaisy/src/hid/disp/graphics_common.h ****                         width_,
 219:../../libs/libDaisy/src/sys/../../../../libs/libDaisy/src/hid/disp/graphics_common.h ****                         height_};
 220:../../libs/libDaisy/src/sys/../../../../libs/libDaisy/src/hid/disp/graphics_common.h ****             case Alignment::topCentered:
 221:../../libs/libDaisy/src/sys/../../../../libs/libDaisy/src/hid/disp/graphics_common.h ****                 return {int16_t(x_ + (other.GetCenterX() - GetCenterX())),
 222:../../libs/libDaisy/src/sys/../../../../libs/libDaisy/src/hid/disp/graphics_common.h ****                         other.y_,
 223:../../libs/libDaisy/src/sys/../../../../libs/libDaisy/src/hid/disp/graphics_common.h ****                         width_,
 224:../../libs/libDaisy/src/sys/../../../../libs/libDaisy/src/hid/disp/graphics_common.h ****                         height_};
 225:../../libs/libDaisy/src/sys/../../../../libs/libDaisy/src/hid/disp/graphics_common.h ****             case Alignment::bottomLeft:
 226:../../libs/libDaisy/src/sys/../../../../libs/libDaisy/src/hid/disp/graphics_common.h ****                 return {other.x_,
 227:../../libs/libDaisy/src/sys/../../../../libs/libDaisy/src/hid/disp/graphics_common.h ****                         int16_t(other.GetBottom() - height_),
 228:../../libs/libDaisy/src/sys/../../../../libs/libDaisy/src/hid/disp/graphics_common.h ****                         width_,
 229:../../libs/libDaisy/src/sys/../../../../libs/libDaisy/src/hid/disp/graphics_common.h ****                         height_};
 230:../../libs/libDaisy/src/sys/../../../../libs/libDaisy/src/hid/disp/graphics_common.h ****             case Alignment::bottomRight:
 231:../../libs/libDaisy/src/sys/../../../../libs/libDaisy/src/hid/disp/graphics_common.h ****                 return {int16_t(other.GetRight() - width_),
 232:../../libs/libDaisy/src/sys/../../../../libs/libDaisy/src/hid/disp/graphics_common.h ****                         int16_t(other.GetBottom() - height_),
 233:../../libs/libDaisy/src/sys/../../../../libs/libDaisy/src/hid/disp/graphics_common.h ****                         width_,
 234:../../libs/libDaisy/src/sys/../../../../libs/libDaisy/src/hid/disp/graphics_common.h ****                         height_};
 235:../../libs/libDaisy/src/sys/../../../../libs/libDaisy/src/hid/disp/graphics_common.h ****             case Alignment::bottomCentered:
 236:../../libs/libDaisy/src/sys/../../../../libs/libDaisy/src/hid/disp/graphics_common.h ****                 return {int16_t(x_ + (other.GetCenterX() - GetCenterX())),
 237:../../libs/libDaisy/src/sys/../../../../libs/libDaisy/src/hid/disp/graphics_common.h ****                         int16_t(other.GetBottom() - height_),
 238:../../libs/libDaisy/src/sys/../../../../libs/libDaisy/src/hid/disp/graphics_common.h ****                         width_,
 239:../../libs/libDaisy/src/sys/../../../../libs/libDaisy/src/hid/disp/graphics_common.h ****                         height_};
ARM GAS  C:\Users\matte\AppData\Local\Temp\cclPkNhc.s 			page 61


 240:../../libs/libDaisy/src/sys/../../../../libs/libDaisy/src/hid/disp/graphics_common.h ****             case Alignment::centeredLeft:
 241:../../libs/libDaisy/src/sys/../../../../libs/libDaisy/src/hid/disp/graphics_common.h ****                 return {other.x_,
 242:../../libs/libDaisy/src/sys/../../../../libs/libDaisy/src/hid/disp/graphics_common.h ****                         int16_t(y_ + (other.GetCenterY() - GetCenterY())),
 243:../../libs/libDaisy/src/sys/../../../../libs/libDaisy/src/hid/disp/graphics_common.h ****                         width_,
 244:../../libs/libDaisy/src/sys/../../../../libs/libDaisy/src/hid/disp/graphics_common.h ****                         height_};
 245:../../libs/libDaisy/src/sys/../../../../libs/libDaisy/src/hid/disp/graphics_common.h ****             case Alignment::centeredRight:
 246:../../libs/libDaisy/src/sys/../../../../libs/libDaisy/src/hid/disp/graphics_common.h ****                 return {int16_t(other.GetRight() - width_),
 247:../../libs/libDaisy/src/sys/../../../../libs/libDaisy/src/hid/disp/graphics_common.h ****                         int16_t(y_ + (other.GetCenterY() - GetCenterY())),
 248:../../libs/libDaisy/src/sys/../../../../libs/libDaisy/src/hid/disp/graphics_common.h ****                         width_,
 249:../../libs/libDaisy/src/sys/../../../../libs/libDaisy/src/hid/disp/graphics_common.h ****                         height_};
 250:../../libs/libDaisy/src/sys/../../../../libs/libDaisy/src/hid/disp/graphics_common.h ****             case Alignment::centered:
 251:../../libs/libDaisy/src/sys/../../../../libs/libDaisy/src/hid/disp/graphics_common.h ****                 return {int16_t(x_ + (other.GetCenterX() - GetCenterX())),
 252:../../libs/libDaisy/src/sys/../../../../libs/libDaisy/src/hid/disp/graphics_common.h ****                         int16_t(y_ + (other.GetCenterY() - GetCenterY())),
 253:../../libs/libDaisy/src/sys/../../../../libs/libDaisy/src/hid/disp/graphics_common.h ****                         width_,
 254:../../libs/libDaisy/src/sys/../../../../libs/libDaisy/src/hid/disp/graphics_common.h ****                         height_};
 255:../../libs/libDaisy/src/sys/../../../../libs/libDaisy/src/hid/disp/graphics_common.h ****             default: return {};
 256:../../libs/libDaisy/src/sys/../../../../libs/libDaisy/src/hid/disp/graphics_common.h ****         }
 257:../../libs/libDaisy/src/sys/../../../../libs/libDaisy/src/hid/disp/graphics_common.h ****     }
 258:../../libs/libDaisy/src/sys/../../../../libs/libDaisy/src/hid/disp/graphics_common.h **** 
 259:../../libs/libDaisy/src/sys/../../../../libs/libDaisy/src/hid/disp/graphics_common.h ****   private:
 260:../../libs/libDaisy/src/sys/../../../../libs/libDaisy/src/hid/disp/graphics_common.h ****     int16_t x_, y_, width_, height_;
 261:../../libs/libDaisy/src/sys/../../../../libs/libDaisy/src/hid/disp/graphics_common.h ****     int16_t max(int16_t a, int16_t b) { return (a > b) ? a : b; }
 1588              		.loc 12 261 13 view .LVU335
 1589              	.LBE800:
 1590              	.LBE799:
 1591              	.LBE805:
 1592              	.LBE809:
 1593              		.loc 12 261 41 view .LVU336
 1594              	.LBB810:
 1595              	.LBB806:
 1596              	.LBB802:
 1597              	.LBB801:
 1598              	.LBI801:
 1599              		.loc 12 261 13 view .LVU337
 1600              	.LBE801:
 1601              	.LBE802:
 1602              	.LBE806:
 1603              	.LBE810:
 1604              		.loc 12 261 41 view .LVU338
 1605              	.LBB811:
 1606              	.LBI811:
 209:../../libs/libDaisy/src/sys/../../../../libs/libDaisy/src/hid/disp/graphics_common.h ****     {
 1607              		.loc 12 209 15 view .LVU339
 1608              	.LBB812:
 211:../../libs/libDaisy/src/sys/../../../../libs/libDaisy/src/hid/disp/graphics_common.h ****         {
 1609              		.loc 12 211 9 view .LVU340
 1610 0036 1BB2     		sxth	r3, r3
 1611 0038 23EAE373 		bic	r3, r3, r3, asr #31
 1612 003c 0829     		cmp	r1, #8
 1613 003e 00F2A981 		bhi	.L121
 1614 0042 DFE811F0 		tbh	[pc, r1, lsl #1]
 1615              	.L123:
 1616 0046 0201     		.2byte	(.L131-.L123)/2
 1617 0048 1401     		.2byte	(.L130-.L123)/2
 1618 004a 2001     		.2byte	(.L129-.L123)/2
 1619 004c 3401     		.2byte	(.L128-.L123)/2
 1620 004e 4201     		.2byte	(.L127-.L123)/2
ARM GAS  C:\Users\matte\AppData\Local\Temp\cclPkNhc.s 			page 62


 1621 0050 5001     		.2byte	(.L126-.L123)/2
 1622 0052 6701     		.2byte	(.L125-.L123)/2
 1623 0054 7101     		.2byte	(.L124-.L123)/2
 1624 0056 0900     		.2byte	(.L122-.L123)/2
 1625              		.p2align 1
 1626              	.L122:
 245:../../libs/libDaisy/src/sys/../../../../libs/libDaisy/src/hid/disp/graphics_common.h ****                 return {int16_t(other.GetRight() - width_),
 1627              		.loc 12 245 13 view .LVU341
 246:../../libs/libDaisy/src/sys/../../../../libs/libDaisy/src/hid/disp/graphics_common.h ****                         int16_t(y_ + (other.GetCenterY() - GetCenterY())),
 1628              		.loc 12 246 17 view .LVU342
 1629              	.LVL117:
 1630              	.LBB813:
 1631              	.LBI813:
  60:../../libs/libDaisy/src/sys/../../../../libs/libDaisy/src/hid/disp/graphics_common.h ****     int16_t GetBottom() const { return y_ + height_; }
 1632              		.loc 12 60 13 view .LVU343
 1633              	.LBB814:
  60:../../libs/libDaisy/src/sys/../../../../libs/libDaisy/src/hid/disp/graphics_common.h ****     int16_t GetBottom() const { return y_ + height_; }
 1634              		.loc 12 60 32 view .LVU344
  60:../../libs/libDaisy/src/sys/../../../../libs/libDaisy/src/hid/disp/graphics_common.h ****     int16_t GetBottom() const { return y_ + height_; }
 1635              		.loc 12 60 42 is_stmt 0 view .LVU345
 1636 0058 A188     		ldrh	r1, [r4, #4]
 1637              	.LVL118:
  60:../../libs/libDaisy/src/sys/../../../../libs/libDaisy/src/hid/disp/graphics_common.h ****     int16_t GetBottom() const { return y_ + height_; }
 1638              		.loc 12 60 42 view .LVU346
 1639 005a 2788     		ldrh	r7, [r4]
 1640 005c 0F44     		add	r7, r7, r1
 1641              	.LBE814:
 1642              	.LBE813:
 1643              	.LBB815:
 1644              	.LBB816:
  63:../../libs/libDaisy/src/sys/../../../../libs/libDaisy/src/hid/disp/graphics_common.h **** 
 1645              		.loc 12 63 54 view .LVU347
 1646 005e B4F90610 		ldrsh	r1, [r4, #6]
 1647              	.LBE816:
 1648              	.LBE815:
 246:../../libs/libDaisy/src/sys/../../../../libs/libDaisy/src/hid/disp/graphics_common.h ****                         int16_t(y_ + (other.GetCenterY() - GetCenterY())),
 1649              		.loc 12 246 50 view .LVU348
 1650 0062 FF1A     		subs	r7, r7, r3
 1651              	.LBB820:
 1652              	.LBB817:
  63:../../libs/libDaisy/src/sys/../../../../libs/libDaisy/src/hid/disp/graphics_common.h **** 
 1653              		.loc 12 63 54 view .LVU349
 1654 0064 0029     		cmp	r1, #0
 1655              	.LBE817:
 1656              	.LBE820:
 246:../../libs/libDaisy/src/sys/../../../../libs/libDaisy/src/hid/disp/graphics_common.h ****                         int16_t(y_ + (other.GetCenterY() - GetCenterY())),
 1657              		.loc 12 246 50 view .LVU350
 1658 0066 BFB2     		uxth	r7, r7
 1659              	.LVL119:
 1660              	.LBB821:
 1661              	.LBI815:
  63:../../libs/libDaisy/src/sys/../../../../libs/libDaisy/src/hid/disp/graphics_common.h **** 
 1662              		.loc 12 63 13 is_stmt 1 view .LVU351
 1663              	.LBB818:
  63:../../libs/libDaisy/src/sys/../../../../libs/libDaisy/src/hid/disp/graphics_common.h **** 
 1664              		.loc 12 63 34 view .LVU352
  63:../../libs/libDaisy/src/sys/../../../../libs/libDaisy/src/hid/disp/graphics_common.h **** 
ARM GAS  C:\Users\matte\AppData\Local\Temp\cclPkNhc.s 			page 63


 1665              		.loc 12 63 34 is_stmt 0 view .LVU353
 1666              	.LBE818:
 1667              	.LBE821:
 1668              	.LBB822:
 1669              	.LBI822:
  63:../../libs/libDaisy/src/sys/../../../../libs/libDaisy/src/hid/disp/graphics_common.h **** 
 1670              		.loc 12 63 13 is_stmt 1 view .LVU354
 1671              	.LBB823:
  63:../../libs/libDaisy/src/sys/../../../../libs/libDaisy/src/hid/disp/graphics_common.h **** 
 1672              		.loc 12 63 34 view .LVU355
  63:../../libs/libDaisy/src/sys/../../../../libs/libDaisy/src/hid/disp/graphics_common.h **** 
 1673              		.loc 12 63 34 is_stmt 0 view .LVU356
 1674              	.LBE823:
 1675              	.LBE822:
 1676              	.LBB824:
 1677              	.LBB819:
  63:../../libs/libDaisy/src/sys/../../../../libs/libDaisy/src/hid/disp/graphics_common.h **** 
 1678              		.loc 12 63 54 view .LVU357
 1679 0068 C0F2FF80 		blt	.L194
 1680              	.L138:
  63:../../libs/libDaisy/src/sys/../../../../libs/libDaisy/src/hid/disp/graphics_common.h **** 
 1681              		.loc 12 63 54 view .LVU358
 1682              	.LBE819:
 1683              	.LBE824:
 1684              	.LBB825:
 1685              	.LBB826:
  63:../../libs/libDaisy/src/sys/../../../../libs/libDaisy/src/hid/disp/graphics_common.h **** 
 1686              		.loc 12 63 44 view .LVU359
 1687 006c B4F802C0 		ldrh	ip, [r4, #2]
 1688              	.LBE826:
 1689              	.LBE825:
 1690              	.LBB832:
 1691              	.LBB833:
 1692              	.LBB834:
  32:../../libs/libDaisy/src/sys/../../../../libs/libDaisy/src/hid/disp/graphics_common.h ****     {
 1693              		.loc 12 32 66 view .LVU360
 1694 0070 0698     		ldr	r0, [sp, #24]
 1695              	.LBE834:
 1696              	.LBE833:
 1697              	.LBE832:
 1698              	.LBB845:
 1699              	.LBB827:
  63:../../libs/libDaisy/src/sys/../../../../libs/libDaisy/src/hid/disp/graphics_common.h **** 
 1700              		.loc 12 63 44 view .LVU361
 1701 0072 0CEB6104 		add	r4, ip, r1, asr #1
 1702              	.LVL120:
  63:../../libs/libDaisy/src/sys/../../../../libs/libDaisy/src/hid/disp/graphics_common.h **** 
 1703              		.loc 12 63 44 view .LVU362
 1704              	.LBE827:
 1705              	.LBE845:
 1706              	.LBB846:
 1707              	.LBB841:
 1708              	.LBB837:
  32:../../libs/libDaisy/src/sys/../../../../libs/libDaisy/src/hid/disp/graphics_common.h ****     {
 1709              		.loc 12 32 66 view .LVU363
 1710 0076 C280     		strh	r2, [r0, #6]	@ movhi
 1711              	.LBE837:
ARM GAS  C:\Users\matte\AppData\Local\Temp\cclPkNhc.s 			page 64


 1712              	.LBE841:
 1713              	.LBE846:
 252:../../libs/libDaisy/src/sys/../../../../libs/libDaisy/src/hid/disp/graphics_common.h ****                         width_,
 1714              		.loc 12 252 58 view .LVU364
 1715 0078 A4EB5202 		sub	r2, r4, r2, lsr #1
 1716              	.LBB847:
 1717              	.LBB842:
 1718              	.LBB838:
  32:../../libs/libDaisy/src/sys/../../../../libs/libDaisy/src/hid/disp/graphics_common.h ****     {
 1719              		.loc 12 32 66 view .LVU365
 1720 007c 8380     		strh	r3, [r0, #4]	@ movhi
 1721 007e 0780     		strh	r7, [r0]	@ movhi
 1722              	.LBE838:
 1723              	.LBE842:
 1724              	.LBE847:
 252:../../libs/libDaisy/src/sys/../../../../libs/libDaisy/src/hid/disp/graphics_common.h ****                         width_,
 1725              		.loc 12 252 58 view .LVU366
 1726 0080 94B2     		uxth	r4, r2
 1727              	.LVL121:
 1728              	.LBB848:
 1729              	.LBI832:
  31:../../libs/libDaisy/src/sys/../../../../libs/libDaisy/src/hid/disp/graphics_common.h ****     : x_(x), y_(y), width_(max(0, width)), height_(max(0, height))
 1730              		.loc 12 31 5 is_stmt 1 view .LVU367
 1731              	.LBB843:
 1732              	.LBB839:
  32:../../libs/libDaisy/src/sys/../../../../libs/libDaisy/src/hid/disp/graphics_common.h ****     {
 1733              		.loc 12 32 66 is_stmt 0 view .LVU368
 1734 0082 4480     		strh	r4, [r0, #2]	@ movhi
 1735              	.LVL122:
 1736              	.LBB835:
 1737              	.LBI835:
 1738              		.loc 12 261 13 is_stmt 1 view .LVU369
 1739              	.LBE835:
 1740              	.LBE839:
 1741              	.LBE843:
 1742              	.LBE848:
 1743              	.LBE812:
 1744              	.LBE811:
 1745              		.loc 12 261 41 view .LVU370
 1746              	.LBB1035:
 1747              	.LBB1013:
 1748              	.LBB849:
 1749              	.LBB844:
 1750              	.LBB840:
 1751              	.LBB836:
 1752              	.LBI836:
 1753              		.loc 12 261 13 view .LVU371
 1754              	.LBE836:
 1755              	.LBE840:
 1756              	.LBE844:
 1757              	.LBE849:
 1758              	.LBE1013:
 1759              	.LBE1035:
 1760              		.loc 12 261 41 view .LVU372
 1761              	.L132:
  56:../../libs/libDaisy/src/sys/../../../../libs/libDaisy/src/hid/disp/graphics_common.h ****     int16_t GetY() const { return y_; }
 1762              		.loc 12 56 28 view .LVU373
ARM GAS  C:\Users\matte\AppData\Local\Temp\cclPkNhc.s 			page 65


  57:../../libs/libDaisy/src/sys/../../../../libs/libDaisy/src/hid/disp/graphics_common.h ****     int16_t GetWidth() const { return width_; }
 1763              		.loc 12 57 28 view .LVU374
 1764              	.LBB1036:
 1765              	.LBI1036:
 171:../../libs/libDaisy/src/sys/../../../../libs/libDaisy/src/hid/disp/display.h ****     {
 1766              		.loc 9 171 10 view .LVU375
 1767              	.LBB1037:
 173:../../libs/libDaisy/src/sys/../../../../libs/libDaisy/src/hid/disp/display.h ****         currentY_ = (y >= Height()) ? Height() - 1 : y;
 1768              		.loc 9 173 9 view .LVU376
 1769 0084 A64A     		ldr	r2, .L204
 173:../../libs/libDaisy/src/sys/../../../../libs/libDaisy/src/hid/disp/display.h ****         currentY_ = (y >= Height()) ? Height() - 1 : y;
 1770              		.loc 9 173 33 is_stmt 0 view .LVU377
 1771 0086 D8F80030 		ldr	r3, [r8]
 1772 008a 1146     		mov	r1, r2
 1773 008c 0192     		str	r2, [sp, #4]
 1774 008e DA68     		ldr	r2, [r3, #12]
 1775 0090 8A42     		cmp	r2, r1
 1776 0092 40F08D81 		bne	.L140
 1777 0096 8020     		movs	r0, #128
 1778              	.LVL123:
 1779              	.L141:
 173:../../libs/libDaisy/src/sys/../../../../libs/libDaisy/src/hid/disp/display.h ****         currentY_ = (y >= Height()) ? Height() - 1 : y;
 1780              		.loc 9 173 19 view .LVU378
 1781 0098 B842     		cmp	r0, r7
 1782 009a 05D8     		bhi	.L142
 173:../../libs/libDaisy/src/sys/../../../../libs/libDaisy/src/hid/disp/display.h ****         currentY_ = (y >= Height()) ? Height() - 1 : y;
 1783              		.loc 9 173 44 view .LVU379
 1784 009c DA68     		ldr	r2, [r3, #12]
 1785 009e 0199     		ldr	r1, [sp, #4]
 1786 00a0 8A42     		cmp	r2, r1
 1787 00a2 40F09A81 		bne	.L195
 1788 00a6 7F27     		movs	r7, #127
 1789              	.L142:
 1790 00a8 9E4A     		ldr	r2, .L204+4
 174:../../libs/libDaisy/src/sys/../../../../libs/libDaisy/src/hid/disp/display.h ****     }
 1791              		.loc 9 174 34 view .LVU380
 1792 00aa 9B68     		ldr	r3, [r3, #8]
 173:../../libs/libDaisy/src/sys/../../../../libs/libDaisy/src/hid/disp/display.h ****         currentY_ = (y >= Height()) ? Height() - 1 : y;
 1793              		.loc 9 173 19 view .LVU381
 1794 00ac A8F80470 		strh	r7, [r8, #4]	@ movhi
 174:../../libs/libDaisy/src/sys/../../../../libs/libDaisy/src/hid/disp/display.h ****     }
 1795              		.loc 9 174 9 is_stmt 1 view .LVU382
 1796 00b0 9342     		cmp	r3, r2
 1797 00b2 0392     		str	r2, [sp, #12]
 1798 00b4 40F08981 		bne	.L172
 174:../../libs/libDaisy/src/sys/../../../../libs/libDaisy/src/hid/disp/display.h ****     }
 1799              		.loc 9 174 34 is_stmt 0 view .LVU383
 1800 00b8 4020     		movs	r0, #64
 1801              	.L144:
 174:../../libs/libDaisy/src/sys/../../../../libs/libDaisy/src/hid/disp/display.h ****     }
 1802              		.loc 9 174 19 view .LVU384
 1803 00ba A042     		cmp	r0, r4
 1804 00bc 07D8     		bhi	.L146
 174:../../libs/libDaisy/src/sys/../../../../libs/libDaisy/src/hid/disp/display.h ****     }
 1805              		.loc 9 174 46 view .LVU385
 1806 00be D8F80030 		ldr	r3, [r8]
 1807 00c2 039A     		ldr	r2, [sp, #12]
ARM GAS  C:\Users\matte\AppData\Local\Temp\cclPkNhc.s 			page 66


 1808 00c4 9B68     		ldr	r3, [r3, #8]
 1809 00c6 9342     		cmp	r3, r2
 1810 00c8 40F08281 		bne	.L196
 1811 00cc 3F24     		movs	r4, #63
 1812              	.L146:
 174:../../libs/libDaisy/src/sys/../../../../libs/libDaisy/src/hid/disp/display.h ****     }
 1813              		.loc 9 174 46 view .LVU386
 1814              	.LBE1037:
 1815              	.LBE1036:
 1816              	.LBB1041:
 1817              	.LBB1042:
 443:../../libs/libDaisy/src/sys/../../../../libs/libDaisy/src/hid/disp/display.h ****         {
 1818              		.loc 9 443 9 view .LVU387
 1819 00ce 009B     		ldr	r3, [sp]
 1820              	.LBE1042:
 1821              	.LBE1041:
 1822              	.LBB1090:
 1823              	.LBB1038:
 174:../../libs/libDaisy/src/sys/../../../../libs/libDaisy/src/hid/disp/display.h ****     }
 1824              		.loc 9 174 19 view .LVU388
 1825 00d0 A8F80640 		strh	r4, [r8, #6]	@ movhi
 1826              	.LVL124:
 174:../../libs/libDaisy/src/sys/../../../../libs/libDaisy/src/hid/disp/display.h ****     }
 1827              		.loc 9 174 19 view .LVU389
 1828              	.LBE1038:
 1829              	.LBE1090:
 1830              	.LBB1091:
 1831              	.LBB1087:
 443:../../libs/libDaisy/src/sys/../../../../libs/libDaisy/src/hid/disp/display.h ****         {
 1832              		.loc 9 443 9 view .LVU390
 1833 00d4 93F800B0 		ldrb	fp, [r3]	@ zero_extendqisi2
 1834 00d8 6B78     		ldrb	r3, [r5, #1]	@ zero_extendqisi2
 1835              	.LVL125:
 443:../../libs/libDaisy/src/sys/../../../../libs/libDaisy/src/hid/disp/display.h ****         {
 1836              		.loc 9 443 9 view .LVU391
 1837 00da 2C78     		ldrb	r4, [r5]	@ zero_extendqisi2
 1838              	.LVL126:
 443:../../libs/libDaisy/src/sys/../../../../libs/libDaisy/src/hid/disp/display.h ****         {
 1839              		.loc 9 443 9 view .LVU392
 1840 00dc 0493     		str	r3, [sp, #16]
 1841              	.LVL127:
 443:../../libs/libDaisy/src/sys/../../../../libs/libDaisy/src/hid/disp/display.h ****         {
 1842              		.loc 9 443 9 view .LVU393
 1843 00de 6B68     		ldr	r3, [r5, #4]
 1844 00e0 0793     		str	r3, [sp, #28]
 1845              	.LVL128:
 443:../../libs/libDaisy/src/sys/../../../../libs/libDaisy/src/hid/disp/display.h ****         {
 1846              		.loc 9 443 9 view .LVU394
 1847              	.LBE1087:
 1848              	.LBI1041:
 440:../../libs/libDaisy/src/sys/../../../../libs/libDaisy/src/hid/disp/display.h ****     {
 1849              		.loc 9 440 10 is_stmt 1 view .LVU395
 1850              	.LBB1088:
 443:../../libs/libDaisy/src/sys/../../../../libs/libDaisy/src/hid/disp/display.h ****         {
 1851              		.loc 9 443 9 view .LVU396
 1852 00e2 BBF1000F 		cmp	fp, #0
 1853 00e6 00F0AC80 		beq	.L118
ARM GAS  C:\Users\matte\AppData\Local\Temp\cclPkNhc.s 			page 67


 1854              	.LVL129:
 1855              	.L148:
 1856              	.LBB1043:
 1857              	.LBI1043:
 396:../../libs/libDaisy/src/sys/../../../../libs/libDaisy/src/hid/disp/display.h ****     {
 1858              		.loc 9 396 10 view .LVU397
 1859              	.LBB1044:
 401:../../libs/libDaisy/src/sys/../../../../libs/libDaisy/src/hid/disp/display.h ****             return 0;
 1860              		.loc 9 401 20 is_stmt 0 view .LVU398
 1861 00ea ABF12005 		sub	r5, fp, #32
 401:../../libs/libDaisy/src/sys/../../../../libs/libDaisy/src/hid/disp/display.h ****             return 0;
 1862              		.loc 9 401 9 view .LVU399
 1863 00ee EBB2     		uxtb	r3, r5
 1864 00f0 5E2B     		cmp	r3, #94
 1865 00f2 00F22E81 		bhi	.L152
 405:../../libs/libDaisy/src/sys/../../../../libs/libDaisy/src/hid/disp/display.h ****            || Height() < (currentY_ + font.FontHeight))
 1866              		.loc 9 405 17 view .LVU400
 1867 00f6 D8F80030 		ldr	r3, [r8]
 1868 00fa 019A     		ldr	r2, [sp, #4]
 1869 00fc DB68     		ldr	r3, [r3, #12]
 1870 00fe 9342     		cmp	r3, r2
 1871 0100 40F02A81 		bne	.L197
 1872 0104 8020     		movs	r0, #128
 1873              	.L151:
 405:../../libs/libDaisy/src/sys/../../../../libs/libDaisy/src/hid/disp/display.h ****            || Height() < (currentY_ + font.FontHeight))
 1874              		.loc 9 405 23 view .LVU401
 1875 0106 B8F80430 		ldrh	r3, [r8, #4]
 405:../../libs/libDaisy/src/sys/../../../../libs/libDaisy/src/hid/disp/display.h ****            || Height() < (currentY_ + font.FontHeight))
 1876              		.loc 9 405 33 view .LVU402
 1877 010a 2344     		add	r3, r3, r4
 406:../../libs/libDaisy/src/sys/../../../../libs/libDaisy/src/hid/disp/display.h ****         {
 1878              		.loc 9 406 12 view .LVU403
 1879 010c 9842     		cmp	r0, r3
 1880 010e C0F22081 		blt	.L152
 406:../../libs/libDaisy/src/sys/../../../../libs/libDaisy/src/hid/disp/display.h ****         {
 1881              		.loc 9 406 21 view .LVU404
 1882 0112 D8F80030 		ldr	r3, [r8]
 1883 0116 039A     		ldr	r2, [sp, #12]
 1884 0118 9B68     		ldr	r3, [r3, #8]
 1885 011a 9342     		cmp	r3, r2
 1886 011c 40F01F81 		bne	.L198
 1887 0120 4020     		movs	r0, #64
 1888              	.L153:
 406:../../libs/libDaisy/src/sys/../../../../libs/libDaisy/src/hid/disp/display.h ****         {
 1889              		.loc 9 406 27 view .LVU405
 1890 0122 B8F80610 		ldrh	r1, [r8, #6]
 406:../../libs/libDaisy/src/sys/../../../../libs/libDaisy/src/hid/disp/display.h ****         {
 1891              		.loc 9 406 37 view .LVU406
 1892 0126 049A     		ldr	r2, [sp, #16]
 406:../../libs/libDaisy/src/sys/../../../../libs/libDaisy/src/hid/disp/display.h ****         {
 1893              		.loc 9 406 27 view .LVU407
 1894 0128 0291     		str	r1, [sp, #8]
 406:../../libs/libDaisy/src/sys/../../../../libs/libDaisy/src/hid/disp/display.h ****         {
 1895              		.loc 9 406 37 view .LVU408
 1896 012a 8B18     		adds	r3, r1, r2
 406:../../libs/libDaisy/src/sys/../../../../libs/libDaisy/src/hid/disp/display.h ****         {
 1897              		.loc 9 406 12 view .LVU409
ARM GAS  C:\Users\matte\AppData\Local\Temp\cclPkNhc.s 			page 68


 1898 012c 9842     		cmp	r0, r3
 1899 012e C0F21081 		blt	.L152
 1900              	.LVL130:
 413:../../libs/libDaisy/src/sys/../../../../libs/libDaisy/src/hid/disp/display.h ****         {
 1901              		.loc 9 413 22 is_stmt 1 view .LVU410
 1902 0132 002A     		cmp	r2, #0
 1903 0134 00F01E81 		beq	.L154
 415:../../libs/libDaisy/src/sys/../../../../libs/libDaisy/src/hid/disp/display.h ****             for(j = 0; j < font.FontWidth; j++)
 1904              		.loc 9 415 37 is_stmt 0 view .LVU411
 1905 0138 02FB05F5 		mul	r5, r2, r5
 1906 013c 6FF0004E 		mvn	lr, #-2147483648
 1907 0140 079B     		ldr	r3, [sp, #28]
 1908 0142 AE44     		add	lr, lr, r5
 1909 0144 1544     		add	r5, r5, r2
 1910 0146 CDF814B0 		str	fp, [sp, #20]
 1911 014a 03EB4E0E 		add	lr, r3, lr, lsl #1
 1912 014e 023B     		subs	r3, r3, #2
 434:../../libs/libDaisy/src/sys/../../../../libs/libDaisy/src/hid/disp/display.h **** 
 1913              		.loc 9 434 19 view .LVU412
 1914 0150 B8F804A0 		ldrh	r10, [r8, #4]
 1915 0154 03EB4503 		add	r3, r3, r5, lsl #1
 1916 0158 0D46     		mov	r5, r1
 1917 015a 9B46     		mov	fp, r3
 1918              	.LVL131:
 1919              	.L157:
 415:../../libs/libDaisy/src/sys/../../../../libs/libDaisy/src/hid/disp/display.h ****             for(j = 0; j < font.FontWidth; j++)
 1920              		.loc 9 415 15 view .LVU413
 1921 015c 3EF8027F 		ldrh	r7, [lr, #2]!
 1922              	.LVL132:
 416:../../libs/libDaisy/src/sys/../../../../libs/libDaisy/src/hid/disp/display.h ****             {
 1923              		.loc 9 416 26 is_stmt 1 view .LVU414
 1924 0160 A4B3     		cbz	r4, .L162
 1925              	.LBB1045:
 1926              	.LBB1046:
 1927              	.LBB1047:
 1928              	.LBB1048:
 1929              	.LBB1049:
 347:../../libs/libDaisy/src/sys/../../../../libs/libDaisy/src/dev/oled_ssd130x.h ****     }
 1930              		.loc 10 347 55 is_stmt 0 view .LVU415
 1931 0162 05F00703 		and	r3, r5, #7
 347:../../libs/libDaisy/src/sys/../../../../libs/libDaisy/src/dev/oled_ssd130x.h ****     }
 1932              		.loc 10 347 49 view .LVU416
 1933 0166 4FF0010C 		mov	ip, #1
 347:../../libs/libDaisy/src/sys/../../../../libs/libDaisy/src/dev/oled_ssd130x.h ****     }
 1934              		.loc 10 347 28 view .LVU417
 1935 016a EA08     		lsrs	r2, r5, #3
 1936 016c 5146     		mov	r1, r10
 347:../../libs/libDaisy/src/sys/../../../../libs/libDaisy/src/dev/oled_ssd130x.h ****     }
 1937              		.loc 10 347 49 view .LVU418
 1938 016e 0CFA03FC 		lsl	ip, ip, r3
 1939 0172 0AF11003 		add	r3, r10, #16
 347:../../libs/libDaisy/src/sys/../../../../libs/libDaisy/src/dev/oled_ssd130x.h ****     }
 1940              		.loc 10 347 42 view .LVU419
 1941 0176 4FFA8CFC 		sxtb	ip, ip
 1942 017a 03EBC212 		add	r2, r3, r2, lsl #7
 1943              	.LBE1049:
 1944              	.LBE1048:
ARM GAS  C:\Users\matte\AppData\Local\Temp\cclPkNhc.s 			page 69


 1945              	.LBE1047:
 1946              	.LBE1046:
 1947              	.LBE1045:
 416:../../libs/libDaisy/src/sys/../../../../libs/libDaisy/src/hid/disp/display.h ****             {
 1948              		.loc 9 416 19 view .LVU420
 1949 017e 0023     		movs	r3, #0
 1950              	.LBB1067:
 1951              	.LBB1062:
 1952              	.LBB1057:
 1953              	.LBB1053:
 1954              	.LBB1050:
 347:../../libs/libDaisy/src/sys/../../../../libs/libDaisy/src/dev/oled_ssd130x.h ****     }
 1955              		.loc 10 347 42 view .LVU421
 1956 0180 6FEA0C09 		mvn	r9, ip
 1957 0184 4244     		add	r2, r2, r8
 1958 0186 0DE0     		b	.L163
 1959              	.LVL133:
 1960              	.L199:
 347:../../libs/libDaisy/src/sys/../../../../libs/libDaisy/src/dev/oled_ssd130x.h ****     }
 1961              		.loc 10 347 42 view .LVU422
 1962              	.LBE1050:
 1963              	.LBE1053:
 1964              	.LBE1057:
 1965              	.LBE1062:
 1966              	.LBE1067:
 1967              	.LBB1068:
 1968              	.LBI1068:
  42:../../libs/libDaisy/src/sys/../../../../libs/libDaisy/src/hid/disp/oled_display.h ****     {
 1969              		.loc 8 42 10 is_stmt 1 view .LVU423
 1970              	.LBB1069:
 1971              	.LBI1069:
 340:../../libs/libDaisy/src/sys/../../../../libs/libDaisy/src/dev/oled_ssd130x.h ****     {
 1972              		.loc 10 340 10 view .LVU424
 1973              	.LBB1070:
 342:../../libs/libDaisy/src/sys/../../../../libs/libDaisy/src/dev/oled_ssd130x.h ****             return;
 1974              		.loc 10 342 9 is_stmt 0 view .LVU425
 1975 0188 7F29     		cmp	r1, #127
 1976 018a 06D8     		bhi	.L159
 1977 018c 3F2D     		cmp	r5, #63
 1978 018e 04D8     		bhi	.L159
 345:../../libs/libDaisy/src/sys/../../../../libs/libDaisy/src/dev/oled_ssd130x.h ****         else
 1979              		.loc 10 345 42 view .LVU426
 1980 0190 1078     		ldrb	r0, [r2]	@ zero_extendqisi2
 344:../../libs/libDaisy/src/sys/../../../../libs/libDaisy/src/dev/oled_ssd130x.h ****             buffer_[x + (y / 8) * width] |= (1 << (y % 8));
 1981              		.loc 10 344 9 view .LVU427
 1982 0192 96B1     		cbz	r6, .L161
 1983              	.L193:
 344:../../libs/libDaisy/src/sys/../../../../libs/libDaisy/src/dev/oled_ssd130x.h ****             buffer_[x + (y / 8) * width] |= (1 << (y % 8));
 1984              		.loc 10 344 9 view .LVU428
 1985              	.LBE1070:
 1986              	.LBE1069:
 1987              	.LBE1068:
 1988              	.LBB1071:
 1989              	.LBB1063:
 1990              	.LBB1058:
 345:../../libs/libDaisy/src/sys/../../../../libs/libDaisy/src/dev/oled_ssd130x.h ****         else
 1991              		.loc 10 345 42 view .LVU429
ARM GAS  C:\Users\matte\AppData\Local\Temp\cclPkNhc.s 			page 70


 1992 0194 4CEA0000 		orr	r0, ip, r0
 1993 0198 1070     		strb	r0, [r2]
 1994              	.L159:
 1995              	.LBE1058:
 1996              	.LBE1063:
 1997              	.LBE1071:
 416:../../libs/libDaisy/src/sys/../../../../libs/libDaisy/src/hid/disp/display.h ****             {
 1998              		.loc 9 416 13 is_stmt 1 view .LVU430
 1999 019a 0133     		adds	r3, r3, #1
 2000              	.LVL134:
 416:../../libs/libDaisy/src/sys/../../../../libs/libDaisy/src/hid/disp/display.h ****             {
 2001              		.loc 9 416 26 view .LVU431
 2002 019c 0132     		adds	r2, r2, #1
 2003 019e 0131     		adds	r1, r1, #1
 2004 01a0 9C42     		cmp	r4, r3
 2005 01a2 13D0     		beq	.L162
 2006              	.LVL135:
 2007              	.L163:
 418:../../libs/libDaisy/src/sys/../../../../libs/libDaisy/src/hid/disp/display.h ****                 {
 2008              		.loc 9 418 23 is_stmt 0 view .LVU432
 2009 01a4 07FA03F0 		lsl	r0, r7, r3
 418:../../libs/libDaisy/src/sys/../../../../libs/libDaisy/src/hid/disp/display.h ****                 {
 2010              		.loc 9 418 17 view .LVU433
 2011 01a8 0004     		lsls	r0, r0, #16
 2012 01aa EDD4     		bmi	.L199
 2013              	.LVL136:
 2014              	.LBB1072:
 2015              	.LBI1045:
  42:../../libs/libDaisy/src/sys/../../../../libs/libDaisy/src/hid/disp/oled_display.h ****     {
 2016              		.loc 8 42 10 is_stmt 1 view .LVU434
 2017              	.LBB1064:
 2018              	.LBI1046:
 340:../../libs/libDaisy/src/sys/../../../../libs/libDaisy/src/dev/oled_ssd130x.h ****     {
 2019              		.loc 10 340 10 view .LVU435
 2020              	.LBB1059:
 342:../../libs/libDaisy/src/sys/../../../../libs/libDaisy/src/dev/oled_ssd130x.h ****             return;
 2021              		.loc 10 342 9 is_stmt 0 view .LVU436
 2022 01ac 7F29     		cmp	r1, #127
 2023 01ae F4D8     		bhi	.L159
 2024 01b0 3F2D     		cmp	r5, #63
 2025 01b2 F2D8     		bhi	.L159
 345:../../libs/libDaisy/src/sys/../../../../libs/libDaisy/src/dev/oled_ssd130x.h ****         else
 2026              		.loc 10 345 42 view .LVU437
 2027 01b4 1078     		ldrb	r0, [r2]	@ zero_extendqisi2
 344:../../libs/libDaisy/src/sys/../../../../libs/libDaisy/src/dev/oled_ssd130x.h ****             buffer_[x + (y / 8) * width] |= (1 << (y % 8));
 2028              		.loc 10 344 9 view .LVU438
 2029 01b6 002E     		cmp	r6, #0
 2030 01b8 ECD0     		beq	.L193
 2031              	.L161:
 2032              	.LVL137:
 2033              	.LBB1054:
 2034              	.LBI1048:
 340:../../libs/libDaisy/src/sys/../../../../libs/libDaisy/src/dev/oled_ssd130x.h ****     {
 2035              		.loc 10 340 10 is_stmt 1 view .LVU439
 340:../../libs/libDaisy/src/sys/../../../../libs/libDaisy/src/dev/oled_ssd130x.h ****     {
 2036              		.loc 10 340 10 is_stmt 0 view .LVU440
 2037              	.LBE1054:
ARM GAS  C:\Users\matte\AppData\Local\Temp\cclPkNhc.s 			page 71


 2038              	.LBE1059:
 2039              	.LBE1064:
 2040              	.LBE1072:
 416:../../libs/libDaisy/src/sys/../../../../libs/libDaisy/src/hid/disp/display.h ****             {
 2041              		.loc 9 416 13 view .LVU441
 2042 01ba 0133     		adds	r3, r3, #1
 2043              	.LVL138:
 2044              	.LBB1073:
 2045              	.LBB1065:
 2046              	.LBB1060:
 2047              	.LBB1055:
 2048              	.LBB1051:
 347:../../libs/libDaisy/src/sys/../../../../libs/libDaisy/src/dev/oled_ssd130x.h ****     }
 2049              		.loc 10 347 42 view .LVU442
 2050 01bc 09EA0000 		and	r0, r9, r0
 2051              	.LBE1051:
 2052              	.LBE1055:
 2053              	.LBE1060:
 2054              	.LBE1065:
 2055              	.LBE1073:
 416:../../libs/libDaisy/src/sys/../../../../libs/libDaisy/src/hid/disp/display.h ****             {
 2056              		.loc 9 416 26 view .LVU443
 2057 01c0 0132     		adds	r2, r2, #1
 2058 01c2 0131     		adds	r1, r1, #1
 2059 01c4 9C42     		cmp	r4, r3
 2060              	.LBB1074:
 2061              	.LBB1066:
 2062              	.LBB1061:
 2063              	.LBB1056:
 2064              	.LBB1052:
 347:../../libs/libDaisy/src/sys/../../../../libs/libDaisy/src/dev/oled_ssd130x.h ****     }
 2065              		.loc 10 347 42 view .LVU444
 2066 01c6 02F8010C 		strb	r0, [r2, #-1]
 347:../../libs/libDaisy/src/sys/../../../../libs/libDaisy/src/dev/oled_ssd130x.h ****     }
 2067              		.loc 10 347 42 view .LVU445
 2068              	.LBE1052:
 2069              	.LBE1056:
 2070              	.LBE1061:
 2071              	.LBE1066:
 2072              	.LBE1074:
 416:../../libs/libDaisy/src/sys/../../../../libs/libDaisy/src/hid/disp/display.h ****             {
 2073              		.loc 9 416 13 is_stmt 1 view .LVU446
 2074              	.LVL139:
 416:../../libs/libDaisy/src/sys/../../../../libs/libDaisy/src/hid/disp/display.h ****             {
 2075              		.loc 9 416 26 view .LVU447
 2076 01ca EBD1     		bne	.L163
 2077              	.LVL140:
 2078              	.L162:
 413:../../libs/libDaisy/src/sys/../../../../libs/libDaisy/src/hid/disp/display.h ****         {
 2079              		.loc 9 413 9 view .LVU448
 413:../../libs/libDaisy/src/sys/../../../../libs/libDaisy/src/hid/disp/display.h ****         {
 2080              		.loc 9 413 22 view .LVU449
 2081 01cc F345     		cmp	fp, lr
 2082 01ce 05F10105 		add	r5, r5, #1
 2083 01d2 C3D1     		bne	.L157
 2084 01d4 DDF814B0 		ldr	fp, [sp, #20]
 2085              	.LVL141:
ARM GAS  C:\Users\matte\AppData\Local\Temp\cclPkNhc.s 			page 72


 2086              	.L156:
 2087              	.LBB1075:
 2088              	.LBB1076:
 173:../../libs/libDaisy/src/sys/../../../../libs/libDaisy/src/hid/disp/display.h ****         currentY_ = (y >= Height()) ? Height() - 1 : y;
 2089              		.loc 9 173 33 is_stmt 0 view .LVU450
 2090 01d8 D8F80020 		ldr	r2, [r8]
 2091              	.LBE1076:
 2092              	.LBE1075:
 434:../../libs/libDaisy/src/sys/../../../../libs/libDaisy/src/hid/disp/display.h **** 
 2093              		.loc 9 434 18 view .LVU451
 2094 01dc 0AEB0405 		add	r5, r10, r4
 2095 01e0 0199     		ldr	r1, [sp, #4]
 2096              	.LBB1081:
 2097              	.LBB1077:
 173:../../libs/libDaisy/src/sys/../../../../libs/libDaisy/src/hid/disp/display.h ****         currentY_ = (y >= Height()) ? Height() - 1 : y;
 2098              		.loc 9 173 33 view .LVU452
 2099 01e2 D368     		ldr	r3, [r2, #12]
 2100              	.LBE1077:
 2101              	.LBE1081:
 434:../../libs/libDaisy/src/sys/../../../../libs/libDaisy/src/hid/disp/display.h **** 
 2102              		.loc 9 434 18 view .LVU453
 2103 01e4 ADB2     		uxth	r5, r5
 2104              	.LVL142:
 2105              	.LBB1082:
 2106              	.LBI1075:
 171:../../libs/libDaisy/src/sys/../../../../libs/libDaisy/src/hid/disp/display.h ****     {
 2107              		.loc 9 171 10 is_stmt 1 view .LVU454
 2108              	.LBB1078:
 173:../../libs/libDaisy/src/sys/../../../../libs/libDaisy/src/hid/disp/display.h ****         currentY_ = (y >= Height()) ? Height() - 1 : y;
 2109              		.loc 9 173 9 view .LVU455
 2110 01e6 8B42     		cmp	r3, r1
 2111 01e8 40F0BF80 		bne	.L200
 173:../../libs/libDaisy/src/sys/../../../../libs/libDaisy/src/hid/disp/display.h ****         currentY_ = (y >= Height()) ? Height() - 1 : y;
 2112              		.loc 9 173 33 is_stmt 0 view .LVU456
 2113 01ec 8020     		movs	r0, #128
 2114              	.L164:
 173:../../libs/libDaisy/src/sys/../../../../libs/libDaisy/src/hid/disp/display.h ****         currentY_ = (y >= Height()) ? Height() - 1 : y;
 2115              		.loc 9 173 19 view .LVU457
 2116 01ee 8542     		cmp	r5, r0
 2117 01f0 05D3     		bcc	.L165
 173:../../libs/libDaisy/src/sys/../../../../libs/libDaisy/src/hid/disp/display.h ****         currentY_ = (y >= Height()) ? Height() - 1 : y;
 2118              		.loc 9 173 44 view .LVU458
 2119 01f2 D368     		ldr	r3, [r2, #12]
 2120 01f4 0199     		ldr	r1, [sp, #4]
 2121 01f6 8B42     		cmp	r3, r1
 2122 01f8 40F0C580 		bne	.L201
 2123 01fc 7F25     		movs	r5, #127
 2124              	.LVL143:
 2125              	.L165:
 174:../../libs/libDaisy/src/sys/../../../../libs/libDaisy/src/hid/disp/display.h ****     }
 2126              		.loc 9 174 34 view .LVU459
 2127 01fe 9368     		ldr	r3, [r2, #8]
 2128 0200 039A     		ldr	r2, [sp, #12]
 173:../../libs/libDaisy/src/sys/../../../../libs/libDaisy/src/hid/disp/display.h ****         currentY_ = (y >= Height()) ? Height() - 1 : y;
 2129              		.loc 9 173 19 view .LVU460
 2130 0202 A8F80450 		strh	r5, [r8, #4]	@ movhi
 174:../../libs/libDaisy/src/sys/../../../../libs/libDaisy/src/hid/disp/display.h ****     }
ARM GAS  C:\Users\matte\AppData\Local\Temp\cclPkNhc.s 			page 73


 2131              		.loc 9 174 9 is_stmt 1 view .LVU461
 2132 0206 9342     		cmp	r3, r2
 2133 0208 40F0AC80 		bne	.L202
 174:../../libs/libDaisy/src/sys/../../../../libs/libDaisy/src/hid/disp/display.h ****     }
 2134              		.loc 9 174 34 is_stmt 0 view .LVU462
 2135 020c 4020     		movs	r0, #64
 2136              	.L167:
 174:../../libs/libDaisy/src/sys/../../../../libs/libDaisy/src/hid/disp/display.h ****     }
 2137              		.loc 9 174 19 view .LVU463
 2138 020e 029B     		ldr	r3, [sp, #8]
 2139 0210 8342     		cmp	r3, r0
 2140 0212 08D3     		bcc	.L168
 174:../../libs/libDaisy/src/sys/../../../../libs/libDaisy/src/hid/disp/display.h ****     }
 2141              		.loc 9 174 46 view .LVU464
 2142 0214 D8F80030 		ldr	r3, [r8]
 2143 0218 039A     		ldr	r2, [sp, #12]
 2144 021a 9B68     		ldr	r3, [r3, #8]
 2145 021c 9342     		cmp	r3, r2
 2146 021e 40F0AC80 		bne	.L203
 2147 0222 3F23     		movs	r3, #63
 2148 0224 0293     		str	r3, [sp, #8]
 2149              	.LVL144:
 2150              	.L168:
 174:../../libs/libDaisy/src/sys/../../../../libs/libDaisy/src/hid/disp/display.h ****     }
 2151              		.loc 9 174 19 view .LVU465
 2152 0226 029B     		ldr	r3, [sp, #8]
 2153 0228 A8F80630 		strh	r3, [r8, #6]	@ movhi
 2154              	.LVL145:
 2155              	.L150:
 174:../../libs/libDaisy/src/sys/../../../../libs/libDaisy/src/hid/disp/display.h ****     }
 2156              		.loc 9 174 19 view .LVU466
 2157              	.LBE1078:
 2158              	.LBE1082:
 2159              	.LBE1044:
 2160              	.LBE1043:
 445:../../libs/libDaisy/src/sys/../../../../libs/libDaisy/src/hid/disp/display.h ****                != *str)
 2161              		.loc 9 445 13 view .LVU467
 2162 022c 009A     		ldr	r2, [sp]
 2163 022e 1378     		ldrb	r3, [r2]	@ zero_extendqisi2
 2164 0230 5B45     		cmp	r3, fp
 2165 0232 06D1     		bne	.L118
 2166              	.LVL146:
 443:../../libs/libDaisy/src/sys/../../../../libs/libDaisy/src/hid/disp/display.h ****         {
 2167              		.loc 9 443 9 is_stmt 1 view .LVU468
 2168 0234 12F801BF 		ldrb	fp, [r2, #1]!	@ zero_extendqisi2
 2169              	.LVL147:
 443:../../libs/libDaisy/src/sys/../../../../libs/libDaisy/src/hid/disp/display.h ****         {
 2170              		.loc 9 443 9 is_stmt 0 view .LVU469
 2171 0238 0092     		str	r2, [sp]
 2172 023a BBF1000F 		cmp	fp, #0
 2173 023e 7FF454AF 		bne	.L148
 2174              	.LVL148:
 2175              	.L118:
 443:../../libs/libDaisy/src/sys/../../../../libs/libDaisy/src/hid/disp/display.h ****         {
 2176              		.loc 9 443 9 view .LVU470
 2177              	.LBE1088:
 2178              	.LBE1091:
ARM GAS  C:\Users\matte\AppData\Local\Temp\cclPkNhc.s 			page 74


 471:../../libs/libDaisy/src/sys/../../../../libs/libDaisy/src/hid/disp/display.h **** 
 2179              		.loc 9 471 5 view .LVU471
 2180 0242 0698     		ldr	r0, [sp, #24]
 2181 0244 09B0     		add	sp, sp, #36
 2182              		.cfi_remember_state
 2183              		.cfi_def_cfa_offset 36
 2184              		@ sp needed
 2185 0246 BDE8F08F 		pop	{r4, r5, r6, r7, r8, r9, r10, fp, pc}
 2186              	.LVL149:
 2187              	.L131:
 2188              		.cfi_restore_state
 2189              	.LBB1092:
 2190              	.LBB1014:
 250:../../libs/libDaisy/src/sys/../../../../libs/libDaisy/src/hid/disp/graphics_common.h ****                 return {int16_t(x_ + (other.GetCenterX() - GetCenterX())),
 2191              		.loc 12 250 13 is_stmt 1 view .LVU472
 251:../../libs/libDaisy/src/sys/../../../../libs/libDaisy/src/hid/disp/graphics_common.h ****                         int16_t(y_ + (other.GetCenterY() - GetCenterY())),
 2192              		.loc 12 251 17 view .LVU473
 2193              	.LBB850:
 2194              	.LBI850:
  62:../../libs/libDaisy/src/sys/../../../../libs/libDaisy/src/hid/disp/graphics_common.h ****     int16_t GetCenterY() const { return y_ + height_ / 2; }
 2195              		.loc 12 62 13 view .LVU474
 2196              	.LBB851:
  62:../../libs/libDaisy/src/sys/../../../../libs/libDaisy/src/hid/disp/graphics_common.h ****     int16_t GetCenterY() const { return y_ + height_ / 2; }
 2197              		.loc 12 62 34 view .LVU475
  62:../../libs/libDaisy/src/sys/../../../../libs/libDaisy/src/hid/disp/graphics_common.h ****     int16_t GetCenterY() const { return y_ + height_ / 2; }
 2198              		.loc 12 62 34 is_stmt 0 view .LVU476
 2199              	.LBE851:
 2200              	.LBE850:
 2201              	.LBB853:
 2202              	.LBI853:
  62:../../libs/libDaisy/src/sys/../../../../libs/libDaisy/src/hid/disp/graphics_common.h ****     int16_t GetCenterY() const { return y_ + height_ / 2; }
 2203              		.loc 12 62 13 is_stmt 1 view .LVU477
 2204              	.LBB854:
  62:../../libs/libDaisy/src/sys/../../../../libs/libDaisy/src/hid/disp/graphics_common.h ****     int16_t GetCenterY() const { return y_ + height_ / 2; }
 2205              		.loc 12 62 34 view .LVU478
  62:../../libs/libDaisy/src/sys/../../../../libs/libDaisy/src/hid/disp/graphics_common.h ****     int16_t GetCenterY() const { return y_ + height_ / 2; }
 2206              		.loc 12 62 34 is_stmt 0 view .LVU479
 2207              	.LBE854:
 2208              	.LBE853:
 2209              	.LBB855:
 2210              	.LBB852:
  62:../../libs/libDaisy/src/sys/../../../../libs/libDaisy/src/hid/disp/graphics_common.h ****     int16_t GetCenterY() const { return y_ + height_ / 2; }
 2211              		.loc 12 62 53 view .LVU480
 2212 024a B4F90410 		ldrsh	r1, [r4, #4]
 2213              	.LVL150:
  62:../../libs/libDaisy/src/sys/../../../../libs/libDaisy/src/hid/disp/graphics_common.h ****     int16_t GetCenterY() const { return y_ + height_ / 2; }
 2214              		.loc 12 62 44 view .LVU481
 2215 024e 2788     		ldrh	r7, [r4]
  62:../../libs/libDaisy/src/sys/../../../../libs/libDaisy/src/hid/disp/graphics_common.h ****     int16_t GetCenterY() const { return y_ + height_ / 2; }
 2216              		.loc 12 62 53 view .LVU482
 2217 0250 0029     		cmp	r1, #0
 2218 0252 B8BF     		it	lt
 2219 0254 0131     		addlt	r1, r1, #1
  62:../../libs/libDaisy/src/sys/../../../../libs/libDaisy/src/hid/disp/graphics_common.h ****     int16_t GetCenterY() const { return y_ + height_ / 2; }
 2220              		.loc 12 62 44 view .LVU483
 2221 0256 07EB6107 		add	r7, r7, r1, asr #1
 2222              	.LBE852:
ARM GAS  C:\Users\matte\AppData\Local\Temp\cclPkNhc.s 			page 75


 2223              	.LBE855:
 2224              	.LBB856:
 2225              	.LBB828:
  63:../../libs/libDaisy/src/sys/../../../../libs/libDaisy/src/hid/disp/graphics_common.h **** 
 2226              		.loc 12 63 54 view .LVU484
 2227 025a B4F90610 		ldrsh	r1, [r4, #6]
 2228              	.LBE828:
 2229              	.LBE856:
 251:../../libs/libDaisy/src/sys/../../../../libs/libDaisy/src/hid/disp/graphics_common.h ****                         int16_t(y_ + (other.GetCenterY() - GetCenterY())),
 2230              		.loc 12 251 58 view .LVU485
 2231 025e A7EB6307 		sub	r7, r7, r3, asr #1
 2232              	.LBB857:
 2233              	.LBB829:
  63:../../libs/libDaisy/src/sys/../../../../libs/libDaisy/src/hid/disp/graphics_common.h **** 
 2234              		.loc 12 63 54 view .LVU486
 2235 0262 0029     		cmp	r1, #0
 2236              	.LBE829:
 2237              	.LBE857:
 251:../../libs/libDaisy/src/sys/../../../../libs/libDaisy/src/hid/disp/graphics_common.h ****                         int16_t(y_ + (other.GetCenterY() - GetCenterY())),
 2238              		.loc 12 251 58 view .LVU487
 2239 0264 BFB2     		uxth	r7, r7
 2240              	.LVL151:
 2241              	.LBB858:
 2242              	.LBI825:
  63:../../libs/libDaisy/src/sys/../../../../libs/libDaisy/src/hid/disp/graphics_common.h **** 
 2243              		.loc 12 63 13 is_stmt 1 view .LVU488
 2244              	.LBB830:
  63:../../libs/libDaisy/src/sys/../../../../libs/libDaisy/src/hid/disp/graphics_common.h **** 
 2245              		.loc 12 63 34 view .LVU489
  63:../../libs/libDaisy/src/sys/../../../../libs/libDaisy/src/hid/disp/graphics_common.h **** 
 2246              		.loc 12 63 34 is_stmt 0 view .LVU490
 2247              	.LBE830:
 2248              	.LBE858:
 2249              	.LBB859:
 2250              	.LBI859:
  63:../../libs/libDaisy/src/sys/../../../../libs/libDaisy/src/hid/disp/graphics_common.h **** 
 2251              		.loc 12 63 13 is_stmt 1 view .LVU491
 2252              	.LBB860:
  63:../../libs/libDaisy/src/sys/../../../../libs/libDaisy/src/hid/disp/graphics_common.h **** 
 2253              		.loc 12 63 34 view .LVU492
  63:../../libs/libDaisy/src/sys/../../../../libs/libDaisy/src/hid/disp/graphics_common.h **** 
 2254              		.loc 12 63 34 is_stmt 0 view .LVU493
 2255              	.LBE860:
 2256              	.LBE859:
 2257              	.LBB861:
 2258              	.LBB831:
  63:../../libs/libDaisy/src/sys/../../../../libs/libDaisy/src/hid/disp/graphics_common.h **** 
 2259              		.loc 12 63 54 view .LVU494
 2260 0266 BFF601AF 		bge	.L138
 2261              	.L194:
  63:../../libs/libDaisy/src/sys/../../../../libs/libDaisy/src/hid/disp/graphics_common.h **** 
 2262              		.loc 12 63 54 view .LVU495
 2263 026a 0131     		adds	r1, r1, #1
 2264 026c FEE6     		b	.L138
 2265              	.LVL152:
 2266              	.L130:
  63:../../libs/libDaisy/src/sys/../../../../libs/libDaisy/src/hid/disp/graphics_common.h **** 
ARM GAS  C:\Users\matte\AppData\Local\Temp\cclPkNhc.s 			page 76


 2267              		.loc 12 63 54 view .LVU496
 2268              	.LBE831:
 2269              	.LBE861:
 213:../../libs/libDaisy/src/sys/../../../../libs/libDaisy/src/hid/disp/graphics_common.h ****                 return {other.x_, other.y_, width_, height_};
 2270              		.loc 12 213 13 is_stmt 1 view .LVU497
 214:../../libs/libDaisy/src/sys/../../../../libs/libDaisy/src/hid/disp/graphics_common.h ****             case Alignment::topRight:
 2271              		.loc 12 214 17 view .LVU498
 214:../../libs/libDaisy/src/sys/../../../../libs/libDaisy/src/hid/disp/graphics_common.h ****             case Alignment::topRight:
 2272              		.loc 12 214 31 is_stmt 0 view .LVU499
 2273 026e B4F90070 		ldrsh	r7, [r4]
 2274              	.LBB862:
 2275              	.LBB863:
 2276              	.LBB864:
  32:../../libs/libDaisy/src/sys/../../../../libs/libDaisy/src/hid/disp/graphics_common.h ****     {
 2277              		.loc 12 32 66 view .LVU500
 2278 0272 0699     		ldr	r1, [sp, #24]
 2279              	.LVL153:
  32:../../libs/libDaisy/src/sys/../../../../libs/libDaisy/src/hid/disp/graphics_common.h ****     {
 2280              		.loc 12 32 66 view .LVU501
 2281              	.LBE864:
 2282              	.LBE863:
 2283              	.LBE862:
 214:../../libs/libDaisy/src/sys/../../../../libs/libDaisy/src/hid/disp/graphics_common.h ****             case Alignment::topRight:
 2284              		.loc 12 214 41 view .LVU502
 2285 0274 B4F90240 		ldrsh	r4, [r4, #2]
 2286              	.LVL154:
 2287              	.LBB877:
 2288              	.LBI862:
  31:../../libs/libDaisy/src/sys/../../../../libs/libDaisy/src/hid/disp/graphics_common.h ****     : x_(x), y_(y), width_(max(0, width)), height_(max(0, height))
 2289              		.loc 12 31 5 is_stmt 1 view .LVU503
 2290              	.LBB872:
 2291              	.LBB867:
  32:../../libs/libDaisy/src/sys/../../../../libs/libDaisy/src/hid/disp/graphics_common.h ****     {
 2292              		.loc 12 32 66 is_stmt 0 view .LVU504
 2293 0278 0F80     		strh	r7, [r1]	@ movhi
 2294              	.LBE867:
 2295              	.LBE872:
 2296              	.LBE877:
 2297              	.LBE1014:
 2298              	.LBE1092:
 468:../../libs/libDaisy/src/sys/../../../../libs/libDaisy/src/hid/disp/display.h ****         ((ChildType*)(this))->ChildType::WriteString(str, font, on);
 2299              		.loc 9 468 18 view .LVU505
 2300 027a BFB2     		uxth	r7, r7
 2301              	.LVL155:
 2302              	.LBB1093:
 2303              	.LBB1015:
 2304              	.LBB878:
 2305              	.LBB873:
 2306              	.LBB868:
  32:../../libs/libDaisy/src/sys/../../../../libs/libDaisy/src/hid/disp/graphics_common.h ****     {
 2307              		.loc 12 32 66 view .LVU506
 2308 027c 4C80     		strh	r4, [r1, #2]	@ movhi
 2309              	.LBE868:
 2310              	.LBE873:
 2311              	.LBE878:
 2312              	.LBE1015:
 2313              	.LBE1093:
ARM GAS  C:\Users\matte\AppData\Local\Temp\cclPkNhc.s 			page 77


 468:../../libs/libDaisy/src/sys/../../../../libs/libDaisy/src/hid/disp/display.h ****         ((ChildType*)(this))->ChildType::WriteString(str, font, on);
 2314              		.loc 9 468 18 view .LVU507
 2315 027e A4B2     		uxth	r4, r4
 2316              	.LVL156:
 2317              	.LBB1094:
 2318              	.LBB1016:
 2319              	.LBB879:
 2320              	.LBB874:
 2321              	.LBB869:
  32:../../libs/libDaisy/src/sys/../../../../libs/libDaisy/src/hid/disp/graphics_common.h ****     {
 2322              		.loc 12 32 66 view .LVU508
 2323 0280 8B80     		strh	r3, [r1, #4]	@ movhi
 2324              	.LVL157:
 2325              	.LBB865:
 2326              	.LBI865:
 2327              		.loc 12 261 13 is_stmt 1 view .LVU509
 2328              	.LBE865:
 2329              	.LBE869:
 2330              	.LBE874:
 2331              	.LBE879:
 2332              	.LBE1016:
 2333              	.LBE1094:
 2334              		.loc 12 261 41 view .LVU510
 2335              	.LBB1095:
 2336              	.LBB1017:
 2337              	.LBB880:
 2338              	.LBB875:
 2339              	.LBB870:
 2340              	.LBB866:
 2341              	.LBI866:
 2342              		.loc 12 261 13 view .LVU511
 2343              	.LBE866:
 2344              	.LBE870:
 2345              	.LBE875:
 2346              	.LBE880:
 2347              	.LBE1017:
 2348              	.LBE1095:
 2349              		.loc 12 261 41 view .LVU512
 2350              	.LBB1096:
 2351              	.LBB1018:
 2352              	.LBB881:
 2353              	.LBB876:
 2354              	.LBB871:
  32:../../libs/libDaisy/src/sys/../../../../libs/libDaisy/src/hid/disp/graphics_common.h ****     {
 2355              		.loc 12 32 66 is_stmt 0 view .LVU513
 2356 0282 CA80     		strh	r2, [r1, #6]	@ movhi
 2357              	.LBE871:
  34:../../libs/libDaisy/src/sys/../../../../libs/libDaisy/src/hid/disp/graphics_common.h **** 
 2358              		.loc 12 34 5 view .LVU514
 2359 0284 FEE6     		b	.L132
 2360              	.LVL158:
 2361              	.L129:
  34:../../libs/libDaisy/src/sys/../../../../libs/libDaisy/src/hid/disp/graphics_common.h **** 
 2362              		.loc 12 34 5 view .LVU515
 2363              	.LBE876:
 2364              	.LBE881:
 220:../../libs/libDaisy/src/sys/../../../../libs/libDaisy/src/hid/disp/graphics_common.h ****                 return {int16_t(x_ + (other.GetCenterX() - GetCenterX())),
ARM GAS  C:\Users\matte\AppData\Local\Temp\cclPkNhc.s 			page 78


 2365              		.loc 12 220 13 is_stmt 1 view .LVU516
 221:../../libs/libDaisy/src/sys/../../../../libs/libDaisy/src/hid/disp/graphics_common.h ****                         other.y_,
 2366              		.loc 12 221 17 view .LVU517
 2367              	.LBB882:
 2368              	.LBI882:
  62:../../libs/libDaisy/src/sys/../../../../libs/libDaisy/src/hid/disp/graphics_common.h ****     int16_t GetCenterY() const { return y_ + height_ / 2; }
 2369              		.loc 12 62 13 view .LVU518
 2370              	.LBB883:
  62:../../libs/libDaisy/src/sys/../../../../libs/libDaisy/src/hid/disp/graphics_common.h ****     int16_t GetCenterY() const { return y_ + height_ / 2; }
 2371              		.loc 12 62 34 view .LVU519
  62:../../libs/libDaisy/src/sys/../../../../libs/libDaisy/src/hid/disp/graphics_common.h ****     int16_t GetCenterY() const { return y_ + height_ / 2; }
 2372              		.loc 12 62 34 is_stmt 0 view .LVU520
 2373              	.LBE883:
 2374              	.LBE882:
 2375              	.LBB886:
 2376              	.LBI886:
  62:../../libs/libDaisy/src/sys/../../../../libs/libDaisy/src/hid/disp/graphics_common.h ****     int16_t GetCenterY() const { return y_ + height_ / 2; }
 2377              		.loc 12 62 13 is_stmt 1 view .LVU521
 2378              	.LBB887:
  62:../../libs/libDaisy/src/sys/../../../../libs/libDaisy/src/hid/disp/graphics_common.h ****     int16_t GetCenterY() const { return y_ + height_ / 2; }
 2379              		.loc 12 62 34 view .LVU522
  62:../../libs/libDaisy/src/sys/../../../../libs/libDaisy/src/hid/disp/graphics_common.h ****     int16_t GetCenterY() const { return y_ + height_ / 2; }
 2380              		.loc 12 62 34 is_stmt 0 view .LVU523
 2381              	.LBE887:
 2382              	.LBE886:
 2383              	.LBB888:
 2384              	.LBB884:
  62:../../libs/libDaisy/src/sys/../../../../libs/libDaisy/src/hid/disp/graphics_common.h ****     int16_t GetCenterY() const { return y_ + height_ / 2; }
 2385              		.loc 12 62 53 view .LVU524
 2386 0286 B4F90410 		ldrsh	r1, [r4, #4]
 2387              	.LVL159:
  62:../../libs/libDaisy/src/sys/../../../../libs/libDaisy/src/hid/disp/graphics_common.h ****     int16_t GetCenterY() const { return y_ + height_ / 2; }
 2388              		.loc 12 62 44 view .LVU525
 2389 028a 2788     		ldrh	r7, [r4]
  62:../../libs/libDaisy/src/sys/../../../../libs/libDaisy/src/hid/disp/graphics_common.h ****     int16_t GetCenterY() const { return y_ + height_ / 2; }
 2390              		.loc 12 62 53 view .LVU526
 2391 028c 0029     		cmp	r1, #0
 2392              	.LBE884:
 2393              	.LBE888:
 222:../../libs/libDaisy/src/sys/../../../../libs/libDaisy/src/hid/disp/graphics_common.h ****                         width_,
 2394              		.loc 12 222 31 view .LVU527
 2395 028e B4F90240 		ldrsh	r4, [r4, #2]
 2396              	.LVL160:
 2397              	.LBB889:
 2398              	.LBB885:
  62:../../libs/libDaisy/src/sys/../../../../libs/libDaisy/src/hid/disp/graphics_common.h ****     int16_t GetCenterY() const { return y_ + height_ / 2; }
 2399              		.loc 12 62 53 view .LVU528
 2400 0292 B8BF     		it	lt
 2401 0294 0131     		addlt	r1, r1, #1
  62:../../libs/libDaisy/src/sys/../../../../libs/libDaisy/src/hid/disp/graphics_common.h ****     int16_t GetCenterY() const { return y_ + height_ / 2; }
 2402              		.loc 12 62 44 view .LVU529
 2403 0296 07EB6107 		add	r7, r7, r1, asr #1
 2404              	.LBE885:
 2405              	.LBE889:
 2406              	.LBB890:
 2407              	.LBB891:
 2408              	.LBB892:
ARM GAS  C:\Users\matte\AppData\Local\Temp\cclPkNhc.s 			page 79


  32:../../libs/libDaisy/src/sys/../../../../libs/libDaisy/src/hid/disp/graphics_common.h ****     {
 2409              		.loc 12 32 66 view .LVU530
 2410 029a 0699     		ldr	r1, [sp, #24]
 2411 029c 8B80     		strh	r3, [r1, #4]	@ movhi
 2412              	.LBE892:
 2413              	.LBE891:
 2414              	.LBE890:
 221:../../libs/libDaisy/src/sys/../../../../libs/libDaisy/src/hid/disp/graphics_common.h ****                         other.y_,
 2415              		.loc 12 221 58 view .LVU531
 2416 029e A7EB6303 		sub	r3, r7, r3, asr #1
 2417              	.LBB903:
 2418              	.LBB899:
 2419              	.LBB895:
  32:../../libs/libDaisy/src/sys/../../../../libs/libDaisy/src/hid/disp/graphics_common.h ****     {
 2420              		.loc 12 32 66 view .LVU532
 2421 02a2 4C80     		strh	r4, [r1, #2]	@ movhi
 2422              	.LBE895:
 2423              	.LBE899:
 2424              	.LBE903:
 2425              	.LBE1018:
 2426              	.LBE1096:
 468:../../libs/libDaisy/src/sys/../../../../libs/libDaisy/src/hid/disp/display.h ****         ((ChildType*)(this))->ChildType::WriteString(str, font, on);
 2427              		.loc 9 468 18 view .LVU533
 2428 02a4 A4B2     		uxth	r4, r4
 2429              	.LBB1097:
 2430              	.LBB1019:
 221:../../libs/libDaisy/src/sys/../../../../libs/libDaisy/src/hid/disp/graphics_common.h ****                         other.y_,
 2431              		.loc 12 221 58 view .LVU534
 2432 02a6 9FB2     		uxth	r7, r3
 2433              	.LVL161:
 2434              	.LBB904:
 2435              	.LBI890:
  31:../../libs/libDaisy/src/sys/../../../../libs/libDaisy/src/hid/disp/graphics_common.h ****     : x_(x), y_(y), width_(max(0, width)), height_(max(0, height))
 2436              		.loc 12 31 5 is_stmt 1 view .LVU535
 2437              	.LBB900:
 2438              	.LBB896:
 2439              	.LBB893:
 2440              	.LBI893:
 2441              		.loc 12 261 13 view .LVU536
 2442              	.LBE893:
 2443              	.LBE896:
 2444              	.LBE900:
 2445              	.LBE904:
 2446              	.LBE1019:
 2447              	.LBE1097:
 2448              		.loc 12 261 41 view .LVU537
 2449              	.LBB1098:
 2450              	.LBB1020:
 2451              	.LBB905:
 2452              	.LBB901:
 2453              	.LBB897:
 2454              	.LBB894:
 2455              	.LBI894:
 2456              		.loc 12 261 13 view .LVU538
 2457              	.LBE894:
 2458              	.LBE897:
 2459              	.LBE901:
ARM GAS  C:\Users\matte\AppData\Local\Temp\cclPkNhc.s 			page 80


 2460              	.LBE905:
 2461              	.LBE1020:
 2462              	.LBE1098:
 2463              		.loc 12 261 41 view .LVU539
 2464              	.LBB1099:
 2465              	.LBB1021:
 2466              	.LBB906:
 2467              	.LBB902:
 2468              	.LBB898:
  32:../../libs/libDaisy/src/sys/../../../../libs/libDaisy/src/hid/disp/graphics_common.h ****     {
 2469              		.loc 12 32 66 is_stmt 0 view .LVU540
 2470 02a8 CA80     		strh	r2, [r1, #6]	@ movhi
 2471 02aa 0F80     		strh	r7, [r1]	@ movhi
 2472              	.LBE898:
  34:../../libs/libDaisy/src/sys/../../../../libs/libDaisy/src/hid/disp/graphics_common.h **** 
 2473              		.loc 12 34 5 view .LVU541
 2474 02ac EAE6     		b	.L132
 2475              	.LVL162:
 2476              	.L128:
  34:../../libs/libDaisy/src/sys/../../../../libs/libDaisy/src/hid/disp/graphics_common.h **** 
 2477              		.loc 12 34 5 view .LVU542
 2478              	.LBE902:
 2479              	.LBE906:
 215:../../libs/libDaisy/src/sys/../../../../libs/libDaisy/src/hid/disp/graphics_common.h ****                 return {int16_t(other.GetRight() - width_),
 2480              		.loc 12 215 13 is_stmt 1 view .LVU543
 216:../../libs/libDaisy/src/sys/../../../../libs/libDaisy/src/hid/disp/graphics_common.h ****                         other.y_,
 2481              		.loc 12 216 17 view .LVU544
 2482              	.LBB907:
 2483              	.LBI907:
  60:../../libs/libDaisy/src/sys/../../../../libs/libDaisy/src/hid/disp/graphics_common.h ****     int16_t GetBottom() const { return y_ + height_; }
 2484              		.loc 12 60 13 view .LVU545
 2485              	.LBB908:
  60:../../libs/libDaisy/src/sys/../../../../libs/libDaisy/src/hid/disp/graphics_common.h ****     int16_t GetBottom() const { return y_ + height_; }
 2486              		.loc 12 60 32 view .LVU546
  60:../../libs/libDaisy/src/sys/../../../../libs/libDaisy/src/hid/disp/graphics_common.h ****     int16_t GetBottom() const { return y_ + height_; }
 2487              		.loc 12 60 42 is_stmt 0 view .LVU547
 2488 02ae A188     		ldrh	r1, [r4, #4]
 2489              	.LVL163:
  60:../../libs/libDaisy/src/sys/../../../../libs/libDaisy/src/hid/disp/graphics_common.h ****     int16_t GetBottom() const { return y_ + height_; }
 2490              		.loc 12 60 42 view .LVU548
 2491 02b0 2788     		ldrh	r7, [r4]
 2492              	.LBE908:
 2493              	.LBE907:
 217:../../libs/libDaisy/src/sys/../../../../libs/libDaisy/src/hid/disp/graphics_common.h ****                         width_,
 2494              		.loc 12 217 31 view .LVU549
 2495 02b2 B4F90240 		ldrsh	r4, [r4, #2]
 2496              	.LVL164:
 2497              	.LBB910:
 2498              	.LBB909:
  60:../../libs/libDaisy/src/sys/../../../../libs/libDaisy/src/hid/disp/graphics_common.h ****     int16_t GetBottom() const { return y_ + height_; }
 2499              		.loc 12 60 42 view .LVU550
 2500 02b6 0F44     		add	r7, r7, r1
 2501              	.LBE909:
 2502              	.LBE910:
 2503              	.LBB911:
 2504              	.LBB912:
 2505              	.LBB913:
ARM GAS  C:\Users\matte\AppData\Local\Temp\cclPkNhc.s 			page 81


  32:../../libs/libDaisy/src/sys/../../../../libs/libDaisy/src/hid/disp/graphics_common.h ****     {
 2506              		.loc 12 32 66 view .LVU551
 2507 02b8 0699     		ldr	r1, [sp, #24]
 2508 02ba 8B80     		strh	r3, [r1, #4]	@ movhi
 2509              	.LBE913:
 2510              	.LBE912:
 2511              	.LBE911:
 216:../../libs/libDaisy/src/sys/../../../../libs/libDaisy/src/hid/disp/graphics_common.h ****                         other.y_,
 2512              		.loc 12 216 50 view .LVU552
 2513 02bc FB1A     		subs	r3, r7, r3
 2514              	.LBB924:
 2515              	.LBB920:
 2516              	.LBB916:
  32:../../libs/libDaisy/src/sys/../../../../libs/libDaisy/src/hid/disp/graphics_common.h ****     {
 2517              		.loc 12 32 66 view .LVU553
 2518 02be 4C80     		strh	r4, [r1, #2]	@ movhi
 2519              	.LBE916:
 2520              	.LBE920:
 2521              	.LBE924:
 2522              	.LBE1021:
 2523              	.LBE1099:
 468:../../libs/libDaisy/src/sys/../../../../libs/libDaisy/src/hid/disp/display.h ****         ((ChildType*)(this))->ChildType::WriteString(str, font, on);
 2524              		.loc 9 468 18 view .LVU554
 2525 02c0 A4B2     		uxth	r4, r4
 2526              	.LBB1100:
 2527              	.LBB1022:
 216:../../libs/libDaisy/src/sys/../../../../libs/libDaisy/src/hid/disp/graphics_common.h ****                         other.y_,
 2528              		.loc 12 216 50 view .LVU555
 2529 02c2 9FB2     		uxth	r7, r3
 2530              	.LVL165:
 2531              	.LBB925:
 2532              	.LBI911:
  31:../../libs/libDaisy/src/sys/../../../../libs/libDaisy/src/hid/disp/graphics_common.h ****     : x_(x), y_(y), width_(max(0, width)), height_(max(0, height))
 2533              		.loc 12 31 5 is_stmt 1 view .LVU556
 2534              	.LBB921:
 2535              	.LBB917:
 2536              	.LBB914:
 2537              	.LBI914:
 2538              		.loc 12 261 13 view .LVU557
 2539              	.LBE914:
 2540              	.LBE917:
 2541              	.LBE921:
 2542              	.LBE925:
 2543              	.LBE1022:
 2544              	.LBE1100:
 2545              		.loc 12 261 41 view .LVU558
 2546              	.LBB1101:
 2547              	.LBB1023:
 2548              	.LBB926:
 2549              	.LBB922:
 2550              	.LBB918:
 2551              	.LBB915:
 2552              	.LBI915:
 2553              		.loc 12 261 13 view .LVU559
 2554              	.LBE915:
 2555              	.LBE918:
 2556              	.LBE922:
ARM GAS  C:\Users\matte\AppData\Local\Temp\cclPkNhc.s 			page 82


 2557              	.LBE926:
 2558              	.LBE1023:
 2559              	.LBE1101:
 2560              		.loc 12 261 41 view .LVU560
 2561              	.LBB1102:
 2562              	.LBB1024:
 2563              	.LBB927:
 2564              	.LBB923:
 2565              	.LBB919:
  32:../../libs/libDaisy/src/sys/../../../../libs/libDaisy/src/hid/disp/graphics_common.h ****     {
 2566              		.loc 12 32 66 is_stmt 0 view .LVU561
 2567 02c4 CA80     		strh	r2, [r1, #6]	@ movhi
 2568 02c6 0F80     		strh	r7, [r1]	@ movhi
 2569              	.LBE919:
  34:../../libs/libDaisy/src/sys/../../../../libs/libDaisy/src/hid/disp/graphics_common.h **** 
 2570              		.loc 12 34 5 view .LVU562
 2571 02c8 DCE6     		b	.L132
 2572              	.LVL166:
 2573              	.L127:
  34:../../libs/libDaisy/src/sys/../../../../libs/libDaisy/src/hid/disp/graphics_common.h **** 
 2574              		.loc 12 34 5 view .LVU563
 2575              	.LBE923:
 2576              	.LBE927:
 225:../../libs/libDaisy/src/sys/../../../../libs/libDaisy/src/hid/disp/graphics_common.h ****                 return {other.x_,
 2577              		.loc 12 225 13 is_stmt 1 view .LVU564
 226:../../libs/libDaisy/src/sys/../../../../libs/libDaisy/src/hid/disp/graphics_common.h ****                         int16_t(other.GetBottom() - height_),
 2578              		.loc 12 226 17 view .LVU565
 2579              	.LBB928:
 2580              	.LBB929:
  61:../../libs/libDaisy/src/sys/../../../../libs/libDaisy/src/hid/disp/graphics_common.h ****     int16_t GetCenterX() const { return x_ + width_ / 2; }
 2581              		.loc 12 61 43 is_stmt 0 view .LVU566
 2582 02ca E788     		ldrh	r7, [r4, #6]
 2583 02cc 6188     		ldrh	r1, [r4, #2]
 2584              	.LVL167:
  61:../../libs/libDaisy/src/sys/../../../../libs/libDaisy/src/hid/disp/graphics_common.h ****     int16_t GetCenterX() const { return x_ + width_ / 2; }
 2585              		.loc 12 61 43 view .LVU567
 2586 02ce 3944     		add	r1, r1, r7
 2587              	.LBE929:
 2588              	.LBE928:
 226:../../libs/libDaisy/src/sys/../../../../libs/libDaisy/src/hid/disp/graphics_common.h ****                         int16_t(other.GetBottom() - height_),
 2589              		.loc 12 226 31 view .LVU568
 2590 02d0 B4F90070 		ldrsh	r7, [r4]
 227:../../libs/libDaisy/src/sys/../../../../libs/libDaisy/src/hid/disp/graphics_common.h ****                         width_,
 2591              		.loc 12 227 51 view .LVU569
 2592 02d4 081A     		subs	r0, r1, r0
 2593              	.LVL168:
 2594              	.LBB931:
 2595              	.LBI928:
  61:../../libs/libDaisy/src/sys/../../../../libs/libDaisy/src/hid/disp/graphics_common.h ****     int16_t GetCenterX() const { return x_ + width_ / 2; }
 2596              		.loc 12 61 13 is_stmt 1 view .LVU570
 2597              	.LBB930:
  61:../../libs/libDaisy/src/sys/../../../../libs/libDaisy/src/hid/disp/graphics_common.h ****     int16_t GetCenterX() const { return x_ + width_ / 2; }
 2598              		.loc 12 61 33 view .LVU571
  61:../../libs/libDaisy/src/sys/../../../../libs/libDaisy/src/hid/disp/graphics_common.h ****     int16_t GetCenterX() const { return x_ + width_ / 2; }
 2599              		.loc 12 61 33 is_stmt 0 view .LVU572
 2600              	.LBE930:
 2601              	.LBE931:
ARM GAS  C:\Users\matte\AppData\Local\Temp\cclPkNhc.s 			page 83


 2602              	.LBB932:
 2603              	.LBB933:
 2604              	.LBB934:
  32:../../libs/libDaisy/src/sys/../../../../libs/libDaisy/src/hid/disp/graphics_common.h ****     {
 2605              		.loc 12 32 66 view .LVU573
 2606 02d6 0699     		ldr	r1, [sp, #24]
 2607              	.LBE934:
 2608              	.LBE933:
 2609              	.LBE932:
 227:../../libs/libDaisy/src/sys/../../../../libs/libDaisy/src/hid/disp/graphics_common.h ****                         width_,
 2610              		.loc 12 227 51 view .LVU574
 2611 02d8 84B2     		uxth	r4, r0
 2612              	.LVL169:
 2613              	.LBB944:
 2614              	.LBB940:
 2615              	.LBB937:
  32:../../libs/libDaisy/src/sys/../../../../libs/libDaisy/src/hid/disp/graphics_common.h ****     {
 2616              		.loc 12 32 66 view .LVU575
 2617 02da 0F80     		strh	r7, [r1]	@ movhi
 2618 02dc 8B80     		strh	r3, [r1, #4]	@ movhi
 2619              	.LVL170:
  32:../../libs/libDaisy/src/sys/../../../../libs/libDaisy/src/hid/disp/graphics_common.h ****     {
 2620              		.loc 12 32 66 view .LVU576
 2621              	.LBE937:
 2622              	.LBE940:
 2623              	.LBI932:
  31:../../libs/libDaisy/src/sys/../../../../libs/libDaisy/src/hid/disp/graphics_common.h ****     : x_(x), y_(y), width_(max(0, width)), height_(max(0, height))
 2624              		.loc 12 31 5 is_stmt 1 view .LVU577
 2625              	.LBE944:
 2626              	.LBE1024:
 2627              	.LBE1102:
 468:../../libs/libDaisy/src/sys/../../../../libs/libDaisy/src/hid/disp/display.h ****         ((ChildType*)(this))->ChildType::WriteString(str, font, on);
 2628              		.loc 9 468 18 is_stmt 0 view .LVU578
 2629 02de BFB2     		uxth	r7, r7
 2630              	.LVL171:
 2631              	.LBB1103:
 2632              	.LBB1025:
 2633              	.LBB945:
 2634              	.LBB941:
 2635              	.LBB938:
  32:../../libs/libDaisy/src/sys/../../../../libs/libDaisy/src/hid/disp/graphics_common.h ****     {
 2636              		.loc 12 32 66 view .LVU579
 2637 02e0 CA80     		strh	r2, [r1, #6]	@ movhi
 2638 02e2 4C80     		strh	r4, [r1, #2]	@ movhi
 2639              	.LVL172:
 2640              	.LBB935:
 2641              	.LBI935:
 2642              		.loc 12 261 13 is_stmt 1 view .LVU580
 2643              	.LBE935:
 2644              	.LBE938:
 2645              	.LBE941:
 2646              	.LBE945:
 2647              	.LBE1025:
 2648              	.LBE1103:
 2649              		.loc 12 261 41 view .LVU581
 2650              	.LBB1104:
 2651              	.LBB1026:
ARM GAS  C:\Users\matte\AppData\Local\Temp\cclPkNhc.s 			page 84


 2652              	.LBB946:
 2653              	.LBB942:
 2654              	.LBB939:
 2655              	.LBB936:
 2656              	.LBI936:
 2657              		.loc 12 261 13 view .LVU582
 2658              	.LBE936:
 2659              	.LBE939:
 2660              	.LBE942:
 2661              	.LBE946:
 2662              	.LBE1026:
 2663              	.LBE1104:
 2664              		.loc 12 261 41 view .LVU583
 2665              	.LBB1105:
 2666              	.LBB1027:
 2667              	.LBB947:
 2668              	.LBB943:
  34:../../libs/libDaisy/src/sys/../../../../libs/libDaisy/src/hid/disp/graphics_common.h **** 
 2669              		.loc 12 34 5 is_stmt 0 view .LVU584
 2670 02e4 CEE6     		b	.L132
 2671              	.LVL173:
 2672              	.L126:
  34:../../libs/libDaisy/src/sys/../../../../libs/libDaisy/src/hid/disp/graphics_common.h **** 
 2673              		.loc 12 34 5 view .LVU585
 2674              	.LBE943:
 2675              	.LBE947:
 235:../../libs/libDaisy/src/sys/../../../../libs/libDaisy/src/hid/disp/graphics_common.h ****                 return {int16_t(x_ + (other.GetCenterX() - GetCenterX())),
 2676              		.loc 12 235 13 is_stmt 1 view .LVU586
 236:../../libs/libDaisy/src/sys/../../../../libs/libDaisy/src/hid/disp/graphics_common.h ****                         int16_t(other.GetBottom() - height_),
 2677              		.loc 12 236 17 view .LVU587
 2678              	.LBB948:
 2679              	.LBI948:
  62:../../libs/libDaisy/src/sys/../../../../libs/libDaisy/src/hid/disp/graphics_common.h ****     int16_t GetCenterY() const { return y_ + height_ / 2; }
 2680              		.loc 12 62 13 view .LVU588
 2681              	.LBB949:
  62:../../libs/libDaisy/src/sys/../../../../libs/libDaisy/src/hid/disp/graphics_common.h ****     int16_t GetCenterY() const { return y_ + height_ / 2; }
 2682              		.loc 12 62 34 view .LVU589
  62:../../libs/libDaisy/src/sys/../../../../libs/libDaisy/src/hid/disp/graphics_common.h ****     int16_t GetCenterY() const { return y_ + height_ / 2; }
 2683              		.loc 12 62 34 is_stmt 0 view .LVU590
 2684              	.LBE949:
 2685              	.LBE948:
 2686              	.LBB951:
 2687              	.LBI951:
  62:../../libs/libDaisy/src/sys/../../../../libs/libDaisy/src/hid/disp/graphics_common.h ****     int16_t GetCenterY() const { return y_ + height_ / 2; }
 2688              		.loc 12 62 13 is_stmt 1 view .LVU591
 2689              	.LBB952:
  62:../../libs/libDaisy/src/sys/../../../../libs/libDaisy/src/hid/disp/graphics_common.h ****     int16_t GetCenterY() const { return y_ + height_ / 2; }
 2690              		.loc 12 62 34 view .LVU592
  62:../../libs/libDaisy/src/sys/../../../../libs/libDaisy/src/hid/disp/graphics_common.h ****     int16_t GetCenterY() const { return y_ + height_ / 2; }
 2691              		.loc 12 62 34 is_stmt 0 view .LVU593
 2692              	.LBE952:
 2693              	.LBE951:
 2694              	.LBB953:
 2695              	.LBB950:
  62:../../libs/libDaisy/src/sys/../../../../libs/libDaisy/src/hid/disp/graphics_common.h ****     int16_t GetCenterY() const { return y_ + height_ / 2; }
 2696              		.loc 12 62 53 view .LVU594
 2697 02e6 B4F90410 		ldrsh	r1, [r4, #4]
ARM GAS  C:\Users\matte\AppData\Local\Temp\cclPkNhc.s 			page 85


 2698              	.LVL174:
  62:../../libs/libDaisy/src/sys/../../../../libs/libDaisy/src/hid/disp/graphics_common.h ****     int16_t GetCenterY() const { return y_ + height_ / 2; }
 2699              		.loc 12 62 44 view .LVU595
 2700 02ea 2788     		ldrh	r7, [r4]
  62:../../libs/libDaisy/src/sys/../../../../libs/libDaisy/src/hid/disp/graphics_common.h ****     int16_t GetCenterY() const { return y_ + height_ / 2; }
 2701              		.loc 12 62 53 view .LVU596
 2702 02ec 0029     		cmp	r1, #0
 2703 02ee B8BF     		it	lt
 2704 02f0 0131     		addlt	r1, r1, #1
  62:../../libs/libDaisy/src/sys/../../../../libs/libDaisy/src/hid/disp/graphics_common.h ****     int16_t GetCenterY() const { return y_ + height_ / 2; }
 2705              		.loc 12 62 44 view .LVU597
 2706 02f2 07EB6107 		add	r7, r7, r1, asr #1
 2707              	.LBE950:
 2708              	.LBE953:
 236:../../libs/libDaisy/src/sys/../../../../libs/libDaisy/src/hid/disp/graphics_common.h ****                         int16_t(other.GetBottom() - height_),
 2709              		.loc 12 236 58 view .LVU598
 2710 02f6 A7EB6307 		sub	r7, r7, r3, asr #1
 2711              	.L192:
 2712              	.LBB954:
 2713              	.LBB955:
  61:../../libs/libDaisy/src/sys/../../../../libs/libDaisy/src/hid/disp/graphics_common.h ****     int16_t GetCenterX() const { return x_ + width_ / 2; }
 2714              		.loc 12 61 43 view .LVU599
 2715 02fa B4F802C0 		ldrh	ip, [r4, #2]
 2716              	.LBE955:
 2717              	.LBE954:
 236:../../libs/libDaisy/src/sys/../../../../libs/libDaisy/src/hid/disp/graphics_common.h ****                         int16_t(other.GetBottom() - height_),
 2718              		.loc 12 236 58 view .LVU600
 2719 02fe BFB2     		uxth	r7, r7
 2720              	.LVL175:
 2721              	.LBB958:
 2722              	.LBI954:
  61:../../libs/libDaisy/src/sys/../../../../libs/libDaisy/src/hid/disp/graphics_common.h ****     int16_t GetCenterX() const { return x_ + width_ / 2; }
 2723              		.loc 12 61 13 is_stmt 1 view .LVU601
 2724              	.LBB956:
  61:../../libs/libDaisy/src/sys/../../../../libs/libDaisy/src/hid/disp/graphics_common.h ****     int16_t GetCenterX() const { return x_ + width_ / 2; }
 2725              		.loc 12 61 33 view .LVU602
  61:../../libs/libDaisy/src/sys/../../../../libs/libDaisy/src/hid/disp/graphics_common.h ****     int16_t GetCenterX() const { return x_ + width_ / 2; }
 2726              		.loc 12 61 43 is_stmt 0 view .LVU603
 2727 0300 E488     		ldrh	r4, [r4, #6]
 2728              	.LVL176:
  61:../../libs/libDaisy/src/sys/../../../../libs/libDaisy/src/hid/disp/graphics_common.h ****     int16_t GetCenterX() const { return x_ + width_ / 2; }
 2729              		.loc 12 61 43 view .LVU604
 2730              	.LBE956:
 2731              	.LBE958:
 2732              	.LBB959:
 2733              	.LBB960:
 2734              	.LBB961:
  32:../../libs/libDaisy/src/sys/../../../../libs/libDaisy/src/hid/disp/graphics_common.h ****     {
 2735              		.loc 12 32 66 view .LVU605
 2736 0302 0699     		ldr	r1, [sp, #24]
 2737              	.LBE961:
 2738              	.LBE960:
 2739              	.LBE959:
 2740              	.LBB973:
 2741              	.LBB957:
  61:../../libs/libDaisy/src/sys/../../../../libs/libDaisy/src/hid/disp/graphics_common.h ****     int16_t GetCenterX() const { return x_ + width_ / 2; }
 2742              		.loc 12 61 43 view .LVU606
ARM GAS  C:\Users\matte\AppData\Local\Temp\cclPkNhc.s 			page 86


 2743 0304 6444     		add	r4, r4, ip
 2744              	.LBE957:
 2745              	.LBE973:
 2746              	.LBB974:
 2747              	.LBB968:
 2748              	.LBB964:
  32:../../libs/libDaisy/src/sys/../../../../libs/libDaisy/src/hid/disp/graphics_common.h ****     {
 2749              		.loc 12 32 66 view .LVU607
 2750 0306 8B80     		strh	r3, [r1, #4]	@ movhi
 2751              	.LBE964:
 2752              	.LBE968:
 2753              	.LBE974:
 237:../../libs/libDaisy/src/sys/../../../../libs/libDaisy/src/hid/disp/graphics_common.h ****                         width_,
 2754              		.loc 12 237 51 view .LVU608
 2755 0308 201A     		subs	r0, r4, r0
 2756              	.LBB975:
 2757              	.LBB969:
 2758              	.LBB965:
  32:../../libs/libDaisy/src/sys/../../../../libs/libDaisy/src/hid/disp/graphics_common.h ****     {
 2759              		.loc 12 32 66 view .LVU609
 2760 030a CA80     		strh	r2, [r1, #6]	@ movhi
 2761 030c 0F80     		strh	r7, [r1]	@ movhi
 2762              	.LBE965:
 2763              	.LBE969:
 2764              	.LBE975:
 237:../../libs/libDaisy/src/sys/../../../../libs/libDaisy/src/hid/disp/graphics_common.h ****                         width_,
 2765              		.loc 12 237 51 view .LVU610
 2766 030e 84B2     		uxth	r4, r0
 2767              	.LVL177:
 2768              	.LBB976:
 2769              	.LBI959:
  31:../../libs/libDaisy/src/sys/../../../../libs/libDaisy/src/hid/disp/graphics_common.h ****     : x_(x), y_(y), width_(max(0, width)), height_(max(0, height))
 2770              		.loc 12 31 5 is_stmt 1 view .LVU611
 2771              	.LBB970:
 2772              	.LBB966:
  32:../../libs/libDaisy/src/sys/../../../../libs/libDaisy/src/hid/disp/graphics_common.h ****     {
 2773              		.loc 12 32 66 is_stmt 0 view .LVU612
 2774 0310 4C80     		strh	r4, [r1, #2]	@ movhi
 2775              	.LVL178:
 2776              	.LBB962:
 2777              	.LBI962:
 2778              		.loc 12 261 13 is_stmt 1 view .LVU613
 2779              	.LBE962:
 2780              	.LBE966:
 2781              	.LBE970:
 2782              	.LBE976:
 2783              	.LBE1027:
 2784              	.LBE1105:
 2785              		.loc 12 261 41 view .LVU614
 2786              	.LBB1106:
 2787              	.LBB1028:
 2788              	.LBB977:
 2789              	.LBB971:
 2790              	.LBB967:
 2791              	.LBB963:
 2792              	.LBI963:
 2793              		.loc 12 261 13 view .LVU615
ARM GAS  C:\Users\matte\AppData\Local\Temp\cclPkNhc.s 			page 87


 2794              	.LBE963:
 2795              	.LBE967:
 2796              	.LBE971:
 2797              	.LBE977:
 2798              	.LBE1028:
 2799              	.LBE1106:
 2800              		.loc 12 261 41 view .LVU616
 2801              	.LBB1107:
 2802              	.LBB1029:
 2803              	.LBB978:
 2804              	.LBB972:
  34:../../libs/libDaisy/src/sys/../../../../libs/libDaisy/src/hid/disp/graphics_common.h **** 
 2805              		.loc 12 34 5 is_stmt 0 view .LVU617
 2806 0312 B7E6     		b	.L132
 2807              	.LVL179:
 2808              	.L125:
  34:../../libs/libDaisy/src/sys/../../../../libs/libDaisy/src/hid/disp/graphics_common.h **** 
 2809              		.loc 12 34 5 view .LVU618
 2810              	.LBE972:
 2811              	.LBE978:
 230:../../libs/libDaisy/src/sys/../../../../libs/libDaisy/src/hid/disp/graphics_common.h ****                 return {int16_t(other.GetRight() - width_),
 2812              		.loc 12 230 13 is_stmt 1 view .LVU619
 231:../../libs/libDaisy/src/sys/../../../../libs/libDaisy/src/hid/disp/graphics_common.h ****                         int16_t(other.GetBottom() - height_),
 2813              		.loc 12 231 17 view .LVU620
 2814              	.LBB979:
 2815              	.LBI979:
  60:../../libs/libDaisy/src/sys/../../../../libs/libDaisy/src/hid/disp/graphics_common.h ****     int16_t GetBottom() const { return y_ + height_; }
 2816              		.loc 12 60 13 view .LVU621
 2817              	.LBB980:
  60:../../libs/libDaisy/src/sys/../../../../libs/libDaisy/src/hid/disp/graphics_common.h ****     int16_t GetBottom() const { return y_ + height_; }
 2818              		.loc 12 60 32 view .LVU622
  60:../../libs/libDaisy/src/sys/../../../../libs/libDaisy/src/hid/disp/graphics_common.h ****     int16_t GetBottom() const { return y_ + height_; }
 2819              		.loc 12 60 42 is_stmt 0 view .LVU623
 2820 0314 2788     		ldrh	r7, [r4]
 2821 0316 A188     		ldrh	r1, [r4, #4]
 2822              	.LVL180:
  60:../../libs/libDaisy/src/sys/../../../../libs/libDaisy/src/hid/disp/graphics_common.h ****     int16_t GetBottom() const { return y_ + height_; }
 2823              		.loc 12 60 42 view .LVU624
 2824 0318 0F44     		add	r7, r7, r1
 2825              	.LBE980:
 2826              	.LBE979:
 231:../../libs/libDaisy/src/sys/../../../../libs/libDaisy/src/hid/disp/graphics_common.h ****                         int16_t(other.GetBottom() - height_),
 2827              		.loc 12 231 50 view .LVU625
 2828 031a FF1A     		subs	r7, r7, r3
 2829 031c EDE7     		b	.L192
 2830              	.L205:
 2831 031e 00BF     		.align	2
 2832              	.L204:
 2833 0320 00000000 		.word	_ZNK5daisy11OledDisplayINS_13SSD130xDriverILj128ELj64ENS_19SSD130xI2CTransportEEEE5WidthEv
 2834 0324 00000000 		.word	_ZNK5daisy11OledDisplayINS_13SSD130xDriverILj128ELj64ENS_19SSD130xI2CTransportEEEE6HeightEv
 2835              	.LVL181:
 2836              	.L124:
 240:../../libs/libDaisy/src/sys/../../../../libs/libDaisy/src/hid/disp/graphics_common.h ****                 return {other.x_,
 2837              		.loc 12 240 13 is_stmt 1 view .LVU626
 241:../../libs/libDaisy/src/sys/../../../../libs/libDaisy/src/hid/disp/graphics_common.h ****                         int16_t(y_ + (other.GetCenterY() - GetCenterY())),
 2838              		.loc 12 241 17 view .LVU627
 2839              	.LBB981:
ARM GAS  C:\Users\matte\AppData\Local\Temp\cclPkNhc.s 			page 88


 2840              	.LBB982:
  63:../../libs/libDaisy/src/sys/../../../../libs/libDaisy/src/hid/disp/graphics_common.h **** 
 2841              		.loc 12 63 54 is_stmt 0 view .LVU628
 2842 0328 B4F90610 		ldrsh	r1, [r4, #6]
 2843              	.LVL182:
  63:../../libs/libDaisy/src/sys/../../../../libs/libDaisy/src/hid/disp/graphics_common.h **** 
 2844              		.loc 12 63 44 view .LVU629
 2845 032c B4F802C0 		ldrh	ip, [r4, #2]
  63:../../libs/libDaisy/src/sys/../../../../libs/libDaisy/src/hid/disp/graphics_common.h **** 
 2846              		.loc 12 63 54 view .LVU630
 2847 0330 0029     		cmp	r1, #0
 2848              	.LBE982:
 2849              	.LBE981:
 241:../../libs/libDaisy/src/sys/../../../../libs/libDaisy/src/hid/disp/graphics_common.h ****                         int16_t(y_ + (other.GetCenterY() - GetCenterY())),
 2850              		.loc 12 241 31 view .LVU631
 2851 0332 B4F90070 		ldrsh	r7, [r4]
 2852              	.LVL183:
 2853              	.LBB986:
 2854              	.LBI981:
  63:../../libs/libDaisy/src/sys/../../../../libs/libDaisy/src/hid/disp/graphics_common.h **** 
 2855              		.loc 12 63 13 is_stmt 1 view .LVU632
 2856              	.LBB983:
  63:../../libs/libDaisy/src/sys/../../../../libs/libDaisy/src/hid/disp/graphics_common.h **** 
 2857              		.loc 12 63 34 view .LVU633
  63:../../libs/libDaisy/src/sys/../../../../libs/libDaisy/src/hid/disp/graphics_common.h **** 
 2858              		.loc 12 63 34 is_stmt 0 view .LVU634
 2859              	.LBE983:
 2860              	.LBE986:
 2861              	.LBB987:
 2862              	.LBI987:
  63:../../libs/libDaisy/src/sys/../../../../libs/libDaisy/src/hid/disp/graphics_common.h **** 
 2863              		.loc 12 63 13 is_stmt 1 view .LVU635
 2864              	.LBB988:
  63:../../libs/libDaisy/src/sys/../../../../libs/libDaisy/src/hid/disp/graphics_common.h **** 
 2865              		.loc 12 63 34 view .LVU636
  63:../../libs/libDaisy/src/sys/../../../../libs/libDaisy/src/hid/disp/graphics_common.h **** 
 2866              		.loc 12 63 34 is_stmt 0 view .LVU637
 2867              	.LBE988:
 2868              	.LBE987:
 2869              	.LBB989:
 2870              	.LBB990:
 2871              	.LBB991:
  32:../../libs/libDaisy/src/sys/../../../../libs/libDaisy/src/hid/disp/graphics_common.h ****     {
 2872              		.loc 12 32 66 view .LVU638
 2873 0336 0698     		ldr	r0, [sp, #24]
 2874              	.LBE991:
 2875              	.LBE990:
 2876              	.LBE989:
 2877              	.LBB1003:
 2878              	.LBB984:
  63:../../libs/libDaisy/src/sys/../../../../libs/libDaisy/src/hid/disp/graphics_common.h **** 
 2879              		.loc 12 63 54 view .LVU639
 2880 0338 B8BF     		it	lt
 2881 033a 0131     		addlt	r1, r1, #1
 2882              	.LBE984:
 2883              	.LBE1003:
 2884              	.LBB1004:
ARM GAS  C:\Users\matte\AppData\Local\Temp\cclPkNhc.s 			page 89


 2885              	.LBB998:
 2886              	.LBB994:
  32:../../libs/libDaisy/src/sys/../../../../libs/libDaisy/src/hid/disp/graphics_common.h ****     {
 2887              		.loc 12 32 66 view .LVU640
 2888 033c C280     		strh	r2, [r0, #6]	@ movhi
 2889              	.LBE994:
 2890              	.LBE998:
 2891              	.LBE1004:
 2892              	.LBB1005:
 2893              	.LBB985:
  63:../../libs/libDaisy/src/sys/../../../../libs/libDaisy/src/hid/disp/graphics_common.h **** 
 2894              		.loc 12 63 44 view .LVU641
 2895 033e 0CEB6104 		add	r4, ip, r1, asr #1
 2896              	.LVL184:
  63:../../libs/libDaisy/src/sys/../../../../libs/libDaisy/src/hid/disp/graphics_common.h **** 
 2897              		.loc 12 63 44 view .LVU642
 2898              	.LBE985:
 2899              	.LBE1005:
 2900              	.LBB1006:
 2901              	.LBB999:
 2902              	.LBB995:
  32:../../libs/libDaisy/src/sys/../../../../libs/libDaisy/src/hid/disp/graphics_common.h ****     {
 2903              		.loc 12 32 66 view .LVU643
 2904 0342 0780     		strh	r7, [r0]	@ movhi
 2905 0344 8380     		strh	r3, [r0, #4]	@ movhi
 2906              	.LBE995:
 2907              	.LBE999:
 2908              	.LBE1006:
 2909              	.LBE1029:
 2910              	.LBE1107:
 468:../../libs/libDaisy/src/sys/../../../../libs/libDaisy/src/hid/disp/display.h ****         ((ChildType*)(this))->ChildType::WriteString(str, font, on);
 2911              		.loc 9 468 18 view .LVU644
 2912 0346 BFB2     		uxth	r7, r7
 2913              	.LBB1108:
 2914              	.LBB1030:
 242:../../libs/libDaisy/src/sys/../../../../libs/libDaisy/src/hid/disp/graphics_common.h ****                         width_,
 2915              		.loc 12 242 58 view .LVU645
 2916 0348 A4EB5202 		sub	r2, r4, r2, lsr #1
 2917 034c 94B2     		uxth	r4, r2
 2918              	.LVL185:
 2919              	.LBB1007:
 2920              	.LBI989:
  31:../../libs/libDaisy/src/sys/../../../../libs/libDaisy/src/hid/disp/graphics_common.h ****     : x_(x), y_(y), width_(max(0, width)), height_(max(0, height))
 2921              		.loc 12 31 5 is_stmt 1 view .LVU646
 2922              	.LBB1000:
 2923              	.LBB996:
  32:../../libs/libDaisy/src/sys/../../../../libs/libDaisy/src/hid/disp/graphics_common.h ****     {
 2924              		.loc 12 32 66 is_stmt 0 view .LVU647
 2925 034e 4480     		strh	r4, [r0, #2]	@ movhi
 2926              	.LVL186:
 2927              	.LBB992:
 2928              	.LBI992:
 2929              		.loc 12 261 13 is_stmt 1 view .LVU648
 2930              	.LBE992:
 2931              	.LBE996:
 2932              	.LBE1000:
 2933              	.LBE1007:
ARM GAS  C:\Users\matte\AppData\Local\Temp\cclPkNhc.s 			page 90


 2934              	.LBE1030:
 2935              	.LBE1108:
 2936              		.loc 12 261 41 view .LVU649
 2937              	.LBB1109:
 2938              	.LBB1031:
 2939              	.LBB1008:
 2940              	.LBB1001:
 2941              	.LBB997:
 2942              	.LBB993:
 2943              	.LBI993:
 2944              		.loc 12 261 13 view .LVU650
 2945              	.LBE993:
 2946              	.LBE997:
 2947              	.LBE1001:
 2948              	.LBE1008:
 2949              	.LBE1031:
 2950              	.LBE1109:
 2951              		.loc 12 261 41 view .LVU651
 2952              	.LBB1110:
 2953              	.LBB1032:
 2954              	.LBB1009:
 2955              	.LBB1002:
  34:../../libs/libDaisy/src/sys/../../../../libs/libDaisy/src/hid/disp/graphics_common.h **** 
 2956              		.loc 12 34 5 is_stmt 0 view .LVU652
 2957 0350 98E6     		b	.L132
 2958              	.LVL187:
 2959              	.L152:
  34:../../libs/libDaisy/src/sys/../../../../libs/libDaisy/src/hid/disp/graphics_common.h **** 
 2960              		.loc 12 34 5 view .LVU653
 2961              	.LBE1002:
 2962              	.LBE1009:
 2963              	.LBE1032:
 2964              	.LBE1110:
 2965              	.LBB1111:
 2966              	.LBB1089:
 2967              	.LBB1086:
 2968              	.LBB1085:
 402:../../libs/libDaisy/src/sys/../../../../libs/libDaisy/src/hid/disp/display.h **** 
 2969              		.loc 9 402 20 view .LVU654
 2970 0352 4FF0000B 		mov	fp, #0
 2971              	.LVL188:
 402:../../libs/libDaisy/src/sys/../../../../libs/libDaisy/src/hid/disp/display.h **** 
 2972              		.loc 9 402 20 view .LVU655
 2973 0356 69E7     		b	.L150
 2974              	.LVL189:
 2975              	.L197:
 405:../../libs/libDaisy/src/sys/../../../../libs/libDaisy/src/hid/disp/display.h ****            || Height() < (currentY_ + font.FontHeight))
 2976              		.loc 9 405 17 view .LVU656
 2977 0358 4046     		mov	r0, r8
 2978 035a 9847     		blx	r3
 2979              	.LVL190:
 2980 035c D3E6     		b	.L151
 2981              	.L198:
 406:../../libs/libDaisy/src/sys/../../../../libs/libDaisy/src/hid/disp/display.h ****         {
 2982              		.loc 9 406 21 view .LVU657
 2983 035e 4046     		mov	r0, r8
 2984 0360 9847     		blx	r3
ARM GAS  C:\Users\matte\AppData\Local\Temp\cclPkNhc.s 			page 91


 2985              	.LVL191:
 2986 0362 DEE6     		b	.L153
 2987              	.LVL192:
 2988              	.L202:
 2989              	.LBB1083:
 2990              	.LBB1079:
 174:../../libs/libDaisy/src/sys/../../../../libs/libDaisy/src/hid/disp/display.h ****     }
 2991              		.loc 9 174 33 view .LVU658
 2992 0364 4046     		mov	r0, r8
 2993 0366 9847     		blx	r3
 2994              	.LVL193:
 2995 0368 51E7     		b	.L167
 2996              	.LVL194:
 2997              	.L200:
 173:../../libs/libDaisy/src/sys/../../../../libs/libDaisy/src/hid/disp/display.h ****         currentY_ = (y >= Height()) ? Height() - 1 : y;
 2998              		.loc 9 173 32 view .LVU659
 2999 036a 4046     		mov	r0, r8
 3000 036c 9847     		blx	r3
 3001              	.LVL195:
 173:../../libs/libDaisy/src/sys/../../../../libs/libDaisy/src/hid/disp/display.h ****         currentY_ = (y >= Height()) ? Height() - 1 : y;
 3002              		.loc 9 173 44 view .LVU660
 3003 036e D8F80020 		ldr	r2, [r8]
 3004 0372 3CE7     		b	.L164
 3005              	.LVL196:
 3006              	.L154:
 173:../../libs/libDaisy/src/sys/../../../../libs/libDaisy/src/hid/disp/display.h ****         currentY_ = (y >= Height()) ? Height() - 1 : y;
 3007              		.loc 9 173 44 view .LVU661
 3008              	.LBE1079:
 3009              	.LBE1083:
 434:../../libs/libDaisy/src/sys/../../../../libs/libDaisy/src/hid/disp/display.h **** 
 3010              		.loc 9 434 19 view .LVU662
 3011 0374 B8F804A0 		ldrh	r10, [r8, #4]
 3012 0378 2EE7     		b	.L156
 3013              	.LVL197:
 3014              	.L203:
 3015              	.LBB1084:
 3016              	.LBB1080:
 174:../../libs/libDaisy/src/sys/../../../../libs/libDaisy/src/hid/disp/display.h ****     }
 3017              		.loc 9 174 45 view .LVU663
 3018 037a 4046     		mov	r0, r8
 3019 037c 9847     		blx	r3
 3020              	.LVL198:
 174:../../libs/libDaisy/src/sys/../../../../libs/libDaisy/src/hid/disp/display.h ****     }
 3021              		.loc 9 174 19 view .LVU664
 3022 037e 0138     		subs	r0, r0, #1
 3023 0380 83B2     		uxth	r3, r0
 3024 0382 0293     		str	r3, [sp, #8]
 3025              	.LVL199:
 174:../../libs/libDaisy/src/sys/../../../../libs/libDaisy/src/hid/disp/display.h ****     }
 3026              		.loc 9 174 19 view .LVU665
 3027 0384 4FE7     		b	.L168
 3028              	.LVL200:
 3029              	.L201:
 173:../../libs/libDaisy/src/sys/../../../../libs/libDaisy/src/hid/disp/display.h ****         currentY_ = (y >= Height()) ? Height() - 1 : y;
 3030              		.loc 9 173 43 view .LVU666
 3031 0386 4046     		mov	r0, r8
 3032 0388 9847     		blx	r3
ARM GAS  C:\Users\matte\AppData\Local\Temp\cclPkNhc.s 			page 92


 3033              	.LVL201:
 173:../../libs/libDaisy/src/sys/../../../../libs/libDaisy/src/hid/disp/display.h ****         currentY_ = (y >= Height()) ? Height() - 1 : y;
 3034              		.loc 9 173 19 view .LVU667
 3035 038a 0138     		subs	r0, r0, #1
 174:../../libs/libDaisy/src/sys/../../../../libs/libDaisy/src/hid/disp/display.h ****     }
 3036              		.loc 9 174 34 view .LVU668
 3037 038c D8F80020 		ldr	r2, [r8]
 173:../../libs/libDaisy/src/sys/../../../../libs/libDaisy/src/hid/disp/display.h ****         currentY_ = (y >= Height()) ? Height() - 1 : y;
 3038              		.loc 9 173 19 view .LVU669
 3039 0390 85B2     		uxth	r5, r0
 3040              	.LVL202:
 173:../../libs/libDaisy/src/sys/../../../../libs/libDaisy/src/hid/disp/display.h ****         currentY_ = (y >= Height()) ? Height() - 1 : y;
 3041              		.loc 9 173 19 view .LVU670
 3042 0392 34E7     		b	.L165
 3043              	.LVL203:
 3044              	.L121:
 173:../../libs/libDaisy/src/sys/../../../../libs/libDaisy/src/hid/disp/display.h ****         currentY_ = (y >= Height()) ? Height() - 1 : y;
 3045              		.loc 9 173 19 view .LVU671
 3046              	.LBE1080:
 3047              	.LBE1084:
 3048              	.LBE1085:
 3049              	.LBE1086:
 3050              	.LBE1089:
 3051              	.LBE1111:
 3052              	.LBB1112:
 3053              	.LBB1033:
 255:../../libs/libDaisy/src/sys/../../../../libs/libDaisy/src/hid/disp/graphics_common.h ****         }
 3054              		.loc 12 255 13 is_stmt 1 view .LVU672
 255:../../libs/libDaisy/src/sys/../../../../libs/libDaisy/src/hid/disp/graphics_common.h ****         }
 3055              		.loc 12 255 22 view .LVU673
 3056              	.LBB1010:
 3057              	.LBI1010:
  24:../../libs/libDaisy/src/sys/../../../../libs/libDaisy/src/hid/disp/graphics_common.h **** 
 3058              		.loc 12 24 5 view .LVU674
 3059              	.LBE1010:
 3060              	.LBE1033:
 3061              	.LBE1112:
 3062              	.LBB1113:
 3063              	.LBB1039:
 173:../../libs/libDaisy/src/sys/../../../../libs/libDaisy/src/hid/disp/display.h ****         currentY_ = (y >= Height()) ? Height() - 1 : y;
 3064              		.loc 9 173 33 is_stmt 0 view .LVU675
 3065 0394 D8F80030 		ldr	r3, [r8]
 3066              	.LBE1039:
 3067              	.LBE1113:
 3068              	.LBB1114:
 3069              	.LBB1034:
 3070              	.LBB1012:
 3071              	.LBB1011:
  24:../../libs/libDaisy/src/sys/../../../../libs/libDaisy/src/hid/disp/graphics_common.h **** 
 3072              		.loc 12 24 53 view .LVU676
 3073 0398 0024     		movs	r4, #0
 3074              	.LVL204:
  24:../../libs/libDaisy/src/sys/../../../../libs/libDaisy/src/hid/disp/graphics_common.h **** 
 3075              		.loc 12 24 53 view .LVU677
 3076 039a 069A     		ldr	r2, [sp, #24]
 3077 039c 1249     		ldr	r1, .L206
 3078              	.LVL205:
ARM GAS  C:\Users\matte\AppData\Local\Temp\cclPkNhc.s 			page 93


  24:../../libs/libDaisy/src/sys/../../../../libs/libDaisy/src/hid/disp/graphics_common.h **** 
 3079              		.loc 12 24 53 view .LVU678
 3080 039e 1480     		strh	r4, [r2]	@ movhi
 3081 03a0 5480     		strh	r4, [r2, #2]	@ movhi
 3082 03a2 9480     		strh	r4, [r2, #4]	@ movhi
 3083 03a4 D480     		strh	r4, [r2, #6]	@ movhi
 3084              	.LVL206:
  24:../../libs/libDaisy/src/sys/../../../../libs/libDaisy/src/hid/disp/graphics_common.h **** 
 3085              		.loc 12 24 53 view .LVU679
 3086              	.LBE1011:
 3087              	.LBE1012:
 3088              	.LBE1034:
 3089              	.LBE1114:
  56:../../libs/libDaisy/src/sys/../../../../libs/libDaisy/src/hid/disp/graphics_common.h ****     int16_t GetY() const { return y_; }
 3090              		.loc 12 56 28 is_stmt 1 view .LVU680
  57:../../libs/libDaisy/src/sys/../../../../libs/libDaisy/src/hid/disp/graphics_common.h ****     int16_t GetWidth() const { return width_; }
 3091              		.loc 12 57 28 view .LVU681
 3092              	.LBB1115:
 171:../../libs/libDaisy/src/sys/../../../../libs/libDaisy/src/hid/disp/display.h ****     {
 3093              		.loc 9 171 10 view .LVU682
 3094              	.LBB1040:
 173:../../libs/libDaisy/src/sys/../../../../libs/libDaisy/src/hid/disp/display.h ****         currentY_ = (y >= Height()) ? Height() - 1 : y;
 3095              		.loc 9 173 9 view .LVU683
 173:../../libs/libDaisy/src/sys/../../../../libs/libDaisy/src/hid/disp/display.h ****         currentY_ = (y >= Height()) ? Height() - 1 : y;
 3096              		.loc 9 173 33 is_stmt 0 view .LVU684
 3097 03a6 DA68     		ldr	r2, [r3, #12]
 3098 03a8 0191     		str	r1, [sp, #4]
 3099 03aa 8A42     		cmp	r2, r1
 3100 03ac 05D0     		beq	.L139
 3101 03ae 2746     		mov	r7, r4
 3102              	.LVL207:
 3103              	.L140:
 173:../../libs/libDaisy/src/sys/../../../../libs/libDaisy/src/hid/disp/display.h ****         currentY_ = (y >= Height()) ? Height() - 1 : y;
 3104              		.loc 9 173 32 view .LVU685
 3105 03b0 4046     		mov	r0, r8
 3106 03b2 9047     		blx	r2
 3107              	.LVL208:
 173:../../libs/libDaisy/src/sys/../../../../libs/libDaisy/src/hid/disp/display.h ****         currentY_ = (y >= Height()) ? Height() - 1 : y;
 3108              		.loc 9 173 44 view .LVU686
 3109 03b4 D8F80030 		ldr	r3, [r8]
 3110 03b8 6EE6     		b	.L141
 3111              	.LVL209:
 3112              	.L139:
 174:../../libs/libDaisy/src/sys/../../../../libs/libDaisy/src/hid/disp/display.h ****     }
 3113              		.loc 9 174 34 view .LVU687
 3114 03ba 9B68     		ldr	r3, [r3, #8]
 3115 03bc 0B4A     		ldr	r2, .L206+4
 173:../../libs/libDaisy/src/sys/../../../../libs/libDaisy/src/hid/disp/display.h ****         currentY_ = (y >= Height()) ? Height() - 1 : y;
 3116              		.loc 9 173 19 view .LVU688
 3117 03be A8F80440 		strh	r4, [r8, #4]	@ movhi
 174:../../libs/libDaisy/src/sys/../../../../libs/libDaisy/src/hid/disp/display.h ****     }
 3118              		.loc 9 174 9 is_stmt 1 view .LVU689
 3119 03c2 9342     		cmp	r3, r2
 3120 03c4 0392     		str	r2, [sp, #12]
 3121 03c6 3FF482AE 		beq	.L146
 3122              	.LVL210:
 3123              	.L172:
ARM GAS  C:\Users\matte\AppData\Local\Temp\cclPkNhc.s 			page 94


 174:../../libs/libDaisy/src/sys/../../../../libs/libDaisy/src/hid/disp/display.h ****     }
 3124              		.loc 9 174 33 is_stmt 0 view .LVU690
 3125 03ca 4046     		mov	r0, r8
 3126 03cc 9847     		blx	r3
 3127              	.LVL211:
 3128 03ce 74E6     		b	.L144
 3129              	.L196:
 174:../../libs/libDaisy/src/sys/../../../../libs/libDaisy/src/hid/disp/display.h ****     }
 3130              		.loc 9 174 45 view .LVU691
 3131 03d0 4046     		mov	r0, r8
 3132 03d2 9847     		blx	r3
 3133              	.LVL212:
 174:../../libs/libDaisy/src/sys/../../../../libs/libDaisy/src/hid/disp/display.h ****     }
 3134              		.loc 9 174 19 view .LVU692
 3135 03d4 0138     		subs	r0, r0, #1
 3136 03d6 84B2     		uxth	r4, r0
 3137 03d8 79E6     		b	.L146
 3138              	.L195:
 173:../../libs/libDaisy/src/sys/../../../../libs/libDaisy/src/hid/disp/display.h ****         currentY_ = (y >= Height()) ? Height() - 1 : y;
 3139              		.loc 9 173 43 view .LVU693
 3140 03da 4046     		mov	r0, r8
 3141 03dc 9047     		blx	r2
 3142              	.LVL213:
 173:../../libs/libDaisy/src/sys/../../../../libs/libDaisy/src/hid/disp/display.h ****         currentY_ = (y >= Height()) ? Height() - 1 : y;
 3143              		.loc 9 173 19 view .LVU694
 3144 03de 0138     		subs	r0, r0, #1
 174:../../libs/libDaisy/src/sys/../../../../libs/libDaisy/src/hid/disp/display.h ****     }
 3145              		.loc 9 174 34 view .LVU695
 3146 03e0 D8F80030 		ldr	r3, [r8]
 173:../../libs/libDaisy/src/sys/../../../../libs/libDaisy/src/hid/disp/display.h ****         currentY_ = (y >= Height()) ? Height() - 1 : y;
 3147              		.loc 9 173 19 view .LVU696
 3148 03e4 87B2     		uxth	r7, r0
 3149 03e6 5FE6     		b	.L142
 3150              	.L207:
 3151              		.align	2
 3152              	.L206:
 3153 03e8 00000000 		.word	_ZNK5daisy11OledDisplayINS_13SSD130xDriverILj128ELj64ENS_19SSD130xI2CTransportEEEE5WidthEv
 3154 03ec 00000000 		.word	_ZNK5daisy11OledDisplayINS_13SSD130xDriverILj128ELj64ENS_19SSD130xI2CTransportEEEE6HeightEv
 3155              	.LBE1040:
 3156              	.LBE1115:
 3157              		.cfi_endproc
 3158              	.LFE5455:
 3160              		.section	.text._ZN5daisy11OledDisplayINS_13SSD130xDriverILj128ELj64ENS_19SSD130xI2CTransportEEEE9D
 3161              		.align	1
 3162              		.p2align 2,,3
 3163              		.weak	_ZN5daisy11OledDisplayINS_13SSD130xDriverILj128ELj64ENS_19SSD130xI2CTransportEEEE9DrawPixelE
 3164              		.syntax unified
 3165              		.thumb
 3166              		.thumb_func
 3167              		.fpu fpv5-d16
 3169              	_ZN5daisy11OledDisplayINS_13SSD130xDriverILj128ELj64ENS_19SSD130xI2CTransportEEEE9DrawPixelEjjb:
 3170              	.LVL214:
 3171              	.LFB5449:
  42:../../libs/libDaisy/src/sys/../../../../libs/libDaisy/src/hid/disp/oled_display.h ****     {
 3172              		.loc 8 42 10 is_stmt 1 view -0
 3173              		.cfi_startproc
 3174              		@ args = 0, pretend = 0, frame = 0
ARM GAS  C:\Users\matte\AppData\Local\Temp\cclPkNhc.s 			page 95


 3175              		@ frame_needed = 0, uses_anonymous_args = 0
 3176              		@ link register save eliminated.
 3177              	.LBB1120:
 3178              	.LBI1120:
 340:../../libs/libDaisy/src/sys/../../../../libs/libDaisy/src/dev/oled_ssd130x.h ****     {
 3179              		.loc 10 340 10 view .LVU698
 3180              	.LBB1121:
 342:../../libs/libDaisy/src/sys/../../../../libs/libDaisy/src/dev/oled_ssd130x.h ****             return;
 3181              		.loc 10 342 9 is_stmt 0 view .LVU699
 3182 0000 7F29     		cmp	r1, #127
 3183 0002 1ED8     		bhi	.L208
 3184 0004 3F2A     		cmp	r2, #63
 3185 0006 1CD8     		bhi	.L208
 344:../../libs/libDaisy/src/sys/../../../../libs/libDaisy/src/dev/oled_ssd130x.h ****             buffer_[x + (y / 8) * width] |= (1 << (y % 8));
 3186              		.loc 10 344 9 view .LVU700
 3187 0008 6BB1     		cbz	r3, .L210
 345:../../libs/libDaisy/src/sys/../../../../libs/libDaisy/src/dev/oled_ssd130x.h ****         else
 3188              		.loc 10 345 28 view .LVU701
 3189 000a D308     		lsrs	r3, r2, #3
 3190              	.LVL215:
 345:../../libs/libDaisy/src/sys/../../../../libs/libDaisy/src/dev/oled_ssd130x.h ****         else
 3191              		.loc 10 345 48 view .LVU702
 3192 000c 4FF0010C 		mov	ip, #1
 345:../../libs/libDaisy/src/sys/../../../../libs/libDaisy/src/dev/oled_ssd130x.h ****         else
 3193              		.loc 10 345 54 view .LVU703
 3194 0010 02F00702 		and	r2, r2, #7
 3195              	.LVL216:
 345:../../libs/libDaisy/src/sys/../../../../libs/libDaisy/src/dev/oled_ssd130x.h ****         else
 3196              		.loc 10 345 42 view .LVU704
 3197 0014 01EBC313 		add	r3, r1, r3, lsl #7
 345:../../libs/libDaisy/src/sys/../../../../libs/libDaisy/src/dev/oled_ssd130x.h ****         else
 3198              		.loc 10 345 48 view .LVU705
 3199 0018 0CFA02F2 		lsl	r2, ip, r2
 345:../../libs/libDaisy/src/sys/../../../../libs/libDaisy/src/dev/oled_ssd130x.h ****         else
 3200              		.loc 10 345 42 view .LVU706
 3201 001c C118     		adds	r1, r0, r3
 3202              	.LVL217:
 345:../../libs/libDaisy/src/sys/../../../../libs/libDaisy/src/dev/oled_ssd130x.h ****         else
 3203              		.loc 10 345 42 view .LVU707
 3204 001e 0B7C     		ldrb	r3, [r1, #16]	@ zero_extendqisi2
 3205 0020 1A43     		orrs	r2, r2, r3
 3206 0022 0A74     		strb	r2, [r1, #16]
 3207 0024 7047     		bx	lr
 3208              	.LVL218:
 3209              	.L210:
 3210              	.LBB1122:
 3211              	.LBI1122:
 340:../../libs/libDaisy/src/sys/../../../../libs/libDaisy/src/dev/oled_ssd130x.h ****     {
 3212              		.loc 10 340 10 is_stmt 1 view .LVU708
 3213              	.LBB1123:
 347:../../libs/libDaisy/src/sys/../../../../libs/libDaisy/src/dev/oled_ssd130x.h ****     }
 3214              		.loc 10 347 28 is_stmt 0 view .LVU709
 3215 0026 D308     		lsrs	r3, r2, #3
 3216              	.LVL219:
 347:../../libs/libDaisy/src/sys/../../../../libs/libDaisy/src/dev/oled_ssd130x.h ****     }
 3217              		.loc 10 347 49 view .LVU710
 3218 0028 4FF0010C 		mov	ip, #1
ARM GAS  C:\Users\matte\AppData\Local\Temp\cclPkNhc.s 			page 96


 347:../../libs/libDaisy/src/sys/../../../../libs/libDaisy/src/dev/oled_ssd130x.h ****     }
 3219              		.loc 10 347 55 view .LVU711
 3220 002c 02F00702 		and	r2, r2, #7
 3221              	.LVL220:
 347:../../libs/libDaisy/src/sys/../../../../libs/libDaisy/src/dev/oled_ssd130x.h ****     }
 3222              		.loc 10 347 42 view .LVU712
 3223 0030 01EBC313 		add	r3, r1, r3, lsl #7
 347:../../libs/libDaisy/src/sys/../../../../libs/libDaisy/src/dev/oled_ssd130x.h ****     }
 3224              		.loc 10 347 49 view .LVU713
 3225 0034 0CFA02FC 		lsl	ip, ip, r2
 347:../../libs/libDaisy/src/sys/../../../../libs/libDaisy/src/dev/oled_ssd130x.h ****     }
 3226              		.loc 10 347 42 view .LVU714
 3227 0038 C118     		adds	r1, r0, r3
 3228              	.LVL221:
 347:../../libs/libDaisy/src/sys/../../../../libs/libDaisy/src/dev/oled_ssd130x.h ****     }
 3229              		.loc 10 347 42 view .LVU715
 3230 003a 0A7C     		ldrb	r2, [r1, #16]	@ zero_extendqisi2
 3231 003c 22EA0C02 		bic	r2, r2, ip
 3232 0040 0A74     		strb	r2, [r1, #16]
 3233              	.LVL222:
 3234              	.L208:
 347:../../libs/libDaisy/src/sys/../../../../libs/libDaisy/src/dev/oled_ssd130x.h ****     }
 3235              		.loc 10 347 42 view .LVU716
 3236              	.LBE1123:
 3237              	.LBE1122:
 3238              	.LBE1121:
 3239              	.LBE1120:
  45:../../libs/libDaisy/src/sys/../../../../libs/libDaisy/src/hid/disp/oled_display.h **** 
 3240              		.loc 8 45 5 view .LVU717
 3241 0042 7047     		bx	lr
 3242              		.cfi_endproc
 3243              	.LFE5449:
 3245              		.section	.text._ZN5daisy25OneBitGraphicsDisplayImplINS_11OledDisplayINS_13SSD130xDriverILj128ELj64
 3246              		.align	1
 3247              		.p2align 2,,3
 3248              		.weak	_ZN5daisy25OneBitGraphicsDisplayImplINS_11OledDisplayINS_13SSD130xDriverILj128ELj64ENS_19SSD
 3249              		.syntax unified
 3250              		.thumb
 3251              		.thumb_func
 3252              		.fpu fpv5-d16
 3254              	_ZN5daisy25OneBitGraphicsDisplayImplINS_11OledDisplayINS_13SSD130xDriverILj128ELj64ENS_19SSD130xI2C
 3255              	.LVL223:
 3256              	.LFB5450:
 221:../../libs/libDaisy/src/sys/../../../../libs/libDaisy/src/hid/disp/display.h ****                   uint_fast8_t y1,
 3257              		.loc 9 221 10 is_stmt 1 view -0
 3258              		.cfi_startproc
 3259              		@ args = 8, pretend = 0, frame = 8
 3260              		@ frame_needed = 0, uses_anonymous_args = 0
 221:../../libs/libDaisy/src/sys/../../../../libs/libDaisy/src/hid/disp/display.h ****                   uint_fast8_t y1,
 3261              		.loc 9 221 10 is_stmt 0 view .LVU719
 3262 0000 2DE9F04F 		push	{r4, r5, r6, r7, r8, r9, r10, fp, lr}
 3263              		.cfi_def_cfa_offset 36
 3264              		.cfi_offset 4, -36
 3265              		.cfi_offset 5, -32
 3266              		.cfi_offset 6, -28
 3267              		.cfi_offset 7, -24
 3268              		.cfi_offset 8, -20
ARM GAS  C:\Users\matte\AppData\Local\Temp\cclPkNhc.s 			page 97


 3269              		.cfi_offset 9, -16
 3270              		.cfi_offset 10, -12
 3271              		.cfi_offset 11, -8
 3272              		.cfi_offset 14, -4
 3273 0004 83B0     		sub	sp, sp, #12
 3274              		.cfi_def_cfa_offset 48
 227:../../libs/libDaisy/src/sys/../../../../libs/libDaisy/src/hid/disp/display.h ****         int_fast16_t deltaY = abs((int_fast16_t)y2 - (int_fast16_t)y1);
 3275              		.loc 9 227 52 view .LVU720
 3276 0006 5C1A     		subs	r4, r3, r1
 221:../../libs/libDaisy/src/sys/../../../../libs/libDaisy/src/hid/disp/display.h ****                   uint_fast8_t y1,
 3277              		.loc 9 221 10 view .LVU721
 3278 0008 0C9E     		ldr	r6, [sp, #48]
 227:../../libs/libDaisy/src/sys/../../../../libs/libDaisy/src/hid/disp/display.h ****         int_fast16_t deltaY = abs((int_fast16_t)y2 - (int_fast16_t)y1);
 3279              		.loc 9 227 22 view .LVU722
 3280 000a 002C     		cmp	r4, #0
 221:../../libs/libDaisy/src/sys/../../../../libs/libDaisy/src/hid/disp/display.h ****                   uint_fast8_t y1,
 3281              		.loc 9 221 10 view .LVU723
 3282 000c 9DF83490 		ldrb	r9, [sp, #52]	@ zero_extendqisi2
 228:../../libs/libDaisy/src/sys/../../../../libs/libDaisy/src/hid/disp/display.h ****         int_fast16_t signX  = ((x1 < x2) ? 1 : -1);
 3283              		.loc 9 228 52 view .LVU724
 3284 0010 A6EB0208 		sub	r8, r6, r2
 227:../../libs/libDaisy/src/sys/../../../../libs/libDaisy/src/hid/disp/display.h ****         int_fast16_t deltaY = abs((int_fast16_t)y2 - (int_fast16_t)y1);
 3285              		.loc 9 227 22 view .LVU725
 3286 0014 B8BF     		it	lt
 3287 0016 6442     		rsblt	r4, r4, #0
 3288              	.LVL224:
 228:../../libs/libDaisy/src/sys/../../../../libs/libDaisy/src/hid/disp/display.h ****         int_fast16_t signX  = ((x1 < x2) ? 1 : -1);
 3289              		.loc 9 228 22 view .LVU726
 3290 0018 B8F1000F 		cmp	r8, #0
 3291 001c B8BF     		it	lt
 3292 001e C8F10008 		rsblt	r8, r8, #0
 3293              	.LVL225:
 229:../../libs/libDaisy/src/sys/../../../../libs/libDaisy/src/hid/disp/display.h ****         int_fast16_t signY  = ((y1 < y2) ? 1 : -1);
 3294              		.loc 9 229 42 view .LVU727
 3295 0022 8B42     		cmp	r3, r1
 3296 0024 8CBF     		ite	hi
 3297 0026 4FF0010A 		movhi	r10, #1
 3298 002a 4FF0FF3A 		movls	r10, #-1
 3299              	.LVL226:
 230:../../libs/libDaisy/src/sys/../../../../libs/libDaisy/src/hid/disp/display.h ****         int_fast16_t error  = deltaX - deltaY;
 3300              		.loc 9 230 42 view .LVU728
 3301 002e 9642     		cmp	r6, r2
 231:../../libs/libDaisy/src/sys/../../../../libs/libDaisy/src/hid/disp/display.h ****         int_fast16_t error2;
 3302              		.loc 9 231 22 view .LVU729
 3303 0030 A4EB080C 		sub	ip, r4, r8
 230:../../libs/libDaisy/src/sys/../../../../libs/libDaisy/src/hid/disp/display.h ****         int_fast16_t error  = deltaX - deltaY;
 3304              		.loc 9 230 42 view .LVU730
 3305 0034 51D8     		bhi	.L213
 3306              	.LVL227:
 3307              	.LBB1140:
 3308              	.LBI1140:
  42:../../libs/libDaisy/src/sys/../../../../libs/libDaisy/src/hid/disp/oled_display.h ****     {
 3309              		.loc 8 42 10 is_stmt 1 discriminator 4 view .LVU731
 3310              	.LBB1141:
 3311              	.LBI1141:
 340:../../libs/libDaisy/src/sys/../../../../libs/libDaisy/src/dev/oled_ssd130x.h ****     {
 3312              		.loc 10 340 10 discriminator 4 view .LVU732
ARM GAS  C:\Users\matte\AppData\Local\Temp\cclPkNhc.s 			page 98


 3313              	.LBE1141:
 3314              	.LBE1140:
 230:../../libs/libDaisy/src/sys/../../../../libs/libDaisy/src/hid/disp/display.h ****         int_fast16_t error  = deltaX - deltaY;
 3315              		.loc 9 230 42 is_stmt 0 discriminator 4 view .LVU733
 3316 0036 4FF0FF35 		mov	r5, #-1
 3317              	.LBB1157:
 3318              	.LBB1151:
 3319              	.LBB1142:
 342:../../libs/libDaisy/src/sys/../../../../libs/libDaisy/src/dev/oled_ssd130x.h ****             return;
 3320              		.loc 10 342 9 discriminator 4 view .LVU734
 3321 003a 7F2B     		cmp	r3, #127
 3322              	.LBE1142:
 3323              	.LBE1151:
 3324              	.LBE1157:
 230:../../libs/libDaisy/src/sys/../../../../libs/libDaisy/src/hid/disp/display.h ****         int_fast16_t error  = deltaX - deltaY;
 3325              		.loc 9 230 42 discriminator 4 view .LVU735
 3326 003c 0195     		str	r5, [sp, #4]
 3327              	.LBB1158:
 3328              	.LBB1152:
 3329              	.LBB1147:
 342:../../libs/libDaisy/src/sys/../../../../libs/libDaisy/src/dev/oled_ssd130x.h ****             return;
 3330              		.loc 10 342 9 discriminator 4 view .LVU736
 3331 003e 12D8     		bhi	.L214
 3332 0040 3F2E     		cmp	r6, #63
 3333 0042 10D8     		bhi	.L214
 3334              	.LVL228:
 3335              	.L225:
 345:../../libs/libDaisy/src/sys/../../../../libs/libDaisy/src/dev/oled_ssd130x.h ****         else
 3336              		.loc 10 345 28 view .LVU737
 3337 0044 F508     		lsrs	r5, r6, #3
 345:../../libs/libDaisy/src/sys/../../../../libs/libDaisy/src/dev/oled_ssd130x.h ****         else
 3338              		.loc 10 345 54 view .LVU738
 3339 0046 06F0070E 		and	lr, r6, #7
 345:../../libs/libDaisy/src/sys/../../../../libs/libDaisy/src/dev/oled_ssd130x.h ****         else
 3340              		.loc 10 345 48 view .LVU739
 3341 004a 0127     		movs	r7, #1
 345:../../libs/libDaisy/src/sys/../../../../libs/libDaisy/src/dev/oled_ssd130x.h ****         else
 3342              		.loc 10 345 42 view .LVU740
 3343 004c 03EBC515 		add	r5, r3, r5, lsl #7
 3344 0050 0544     		add	r5, r5, r0
 344:../../libs/libDaisy/src/sys/../../../../libs/libDaisy/src/dev/oled_ssd130x.h ****             buffer_[x + (y / 8) * width] |= (1 << (y % 8));
 3345              		.loc 10 344 9 view .LVU741
 3346 0052 B9F1000F 		cmp	r9, #0
 3347 0056 47D0     		beq	.L215
 345:../../libs/libDaisy/src/sys/../../../../libs/libDaisy/src/dev/oled_ssd130x.h ****         else
 3348              		.loc 10 345 48 view .LVU742
 3349 0058 07FA0EF7 		lsl	r7, r7, lr
 345:../../libs/libDaisy/src/sys/../../../../libs/libDaisy/src/dev/oled_ssd130x.h ****         else
 3350              		.loc 10 345 42 view .LVU743
 3351 005c 95F810E0 		ldrb	lr, [r5, #16]	@ zero_extendqisi2
 3352 0060 47EA0E07 		orr	r7, r7, lr
 3353 0064 2F74     		strb	r7, [r5, #16]
 3354              	.LVL229:
 3355              	.L214:
 345:../../libs/libDaisy/src/sys/../../../../libs/libDaisy/src/dev/oled_ssd130x.h ****         else
 3356              		.loc 10 345 42 view .LVU744
 3357              	.LBE1147:
ARM GAS  C:\Users\matte\AppData\Local\Temp\cclPkNhc.s 			page 99


 3358              	.LBE1152:
 3359              	.LBE1158:
 239:../../libs/libDaisy/src/sys/../../../../libs/libDaisy/src/hid/disp/display.h ****         {
 3360              		.loc 9 239 26 is_stmt 1 view .LVU745
 3361 0066 9642     		cmp	r6, r2
 3362 0068 01D1     		bne	.L218
 3363              	.L237:
 239:../../libs/libDaisy/src/sys/../../../../libs/libDaisy/src/hid/disp/display.h ****         {
 3364              		.loc 9 239 26 is_stmt 0 view .LVU746
 3365 006a 8B42     		cmp	r3, r1
 3366 006c 29D0     		beq	.L211
 3367              	.L218:
 3368              	.LVL230:
 243:../../libs/libDaisy/src/sys/../../../../libs/libDaisy/src/hid/disp/display.h ****             {
 3369              		.loc 9 243 23 view .LVU747
 3370 006e C8F10007 		rsb	r7, r8, #0
 3371              	.L220:
 3372              	.LVL231:
 3373              	.LBB1159:
 3374              	.LBI1159:
  42:../../libs/libDaisy/src/sys/../../../../libs/libDaisy/src/hid/disp/oled_display.h ****     {
 3375              		.loc 8 42 10 is_stmt 1 view .LVU748
 3376              	.LBB1160:
 3377              	.LBI1160:
 340:../../libs/libDaisy/src/sys/../../../../libs/libDaisy/src/dev/oled_ssd130x.h ****     {
 3378              		.loc 10 340 10 view .LVU749
 3379              	.LBB1161:
 342:../../libs/libDaisy/src/sys/../../../../libs/libDaisy/src/dev/oled_ssd130x.h ****             return;
 3380              		.loc 10 342 9 is_stmt 0 view .LVU750
 3381 0072 7F29     		cmp	r1, #127
 3382 0074 14D8     		bhi	.L221
 3383 0076 3F2A     		cmp	r2, #63
 3384 0078 12D8     		bhi	.L221
 345:../../libs/libDaisy/src/sys/../../../../libs/libDaisy/src/dev/oled_ssd130x.h ****         else
 3385              		.loc 10 345 28 view .LVU751
 3386 007a D508     		lsrs	r5, r2, #3
 345:../../libs/libDaisy/src/sys/../../../../libs/libDaisy/src/dev/oled_ssd130x.h ****         else
 3387              		.loc 10 345 54 view .LVU752
 3388 007c 02F0070B 		and	fp, r2, #7
 345:../../libs/libDaisy/src/sys/../../../../libs/libDaisy/src/dev/oled_ssd130x.h ****         else
 3389              		.loc 10 345 48 view .LVU753
 3390 0080 4FF0010E 		mov	lr, #1
 345:../../libs/libDaisy/src/sys/../../../../libs/libDaisy/src/dev/oled_ssd130x.h ****         else
 3391              		.loc 10 345 42 view .LVU754
 3392 0084 01EBC515 		add	r5, r1, r5, lsl #7
 3393 0088 0544     		add	r5, r5, r0
 344:../../libs/libDaisy/src/sys/../../../../libs/libDaisy/src/dev/oled_ssd130x.h ****             buffer_[x + (y / 8) * width] |= (1 << (y % 8));
 3394              		.loc 10 344 9 view .LVU755
 3395 008a B9F1000F 		cmp	r9, #0
 3396 008e 1BD0     		beq	.L222
 345:../../libs/libDaisy/src/sys/../../../../libs/libDaisy/src/dev/oled_ssd130x.h ****         else
 3397              		.loc 10 345 48 view .LVU756
 3398 0090 0EFA0BFE 		lsl	lr, lr, fp
 345:../../libs/libDaisy/src/sys/../../../../libs/libDaisy/src/dev/oled_ssd130x.h ****         else
 3399              		.loc 10 345 42 view .LVU757
 3400 0094 95F810B0 		ldrb	fp, [r5, #16]	@ zero_extendqisi2
 3401 0098 4EEA0B0E 		orr	lr, lr, fp
ARM GAS  C:\Users\matte\AppData\Local\Temp\cclPkNhc.s 			page 100


 3402 009c 85F810E0 		strb	lr, [r5, #16]
 3403              	.L221:
 3404              	.LVL232:
 345:../../libs/libDaisy/src/sys/../../../../libs/libDaisy/src/dev/oled_ssd130x.h ****         else
 3405              		.loc 10 345 42 view .LVU758
 3406              	.LBE1161:
 3407              	.LBE1160:
 3408              	.LBE1159:
 243:../../libs/libDaisy/src/sys/../../../../libs/libDaisy/src/hid/disp/display.h ****             {
 3409              		.loc 9 243 13 view .LVU759
 3410 00a0 B7EB4C0F 		cmp	r7, ip, lsl #1
 242:../../libs/libDaisy/src/sys/../../../../libs/libDaisy/src/hid/disp/display.h ****             if(error2 > -deltaY)
 3411              		.loc 9 242 20 view .LVU760
 3412 00a4 4FEA4C05 		lsl	r5, ip, #1
 3413              	.LVL233:
 243:../../libs/libDaisy/src/sys/../../../../libs/libDaisy/src/hid/disp/display.h ****             {
 3414              		.loc 9 243 13 view .LVU761
 3415 00a8 02DA     		bge	.L223
 245:../../libs/libDaisy/src/sys/../../../../libs/libDaisy/src/hid/disp/display.h ****                 x1 += signX;
 3416              		.loc 9 245 23 view .LVU762
 3417 00aa ACEB080C 		sub	ip, ip, r8
 3418              	.LVL234:
 246:../../libs/libDaisy/src/sys/../../../../libs/libDaisy/src/hid/disp/display.h ****             }
 3419              		.loc 9 246 20 view .LVU763
 3420 00ae 5144     		add	r1, r1, r10
 3421              	.LVL235:
 3422              	.L223:
 249:../../libs/libDaisy/src/sys/../../../../libs/libDaisy/src/hid/disp/display.h ****             {
 3423              		.loc 9 249 13 view .LVU764
 3424 00b0 AC42     		cmp	r4, r5
 3425 00b2 02DD     		ble	.L224
 252:../../libs/libDaisy/src/sys/../../../../libs/libDaisy/src/hid/disp/display.h ****             }
 3426              		.loc 9 252 20 view .LVU765
 3427 00b4 019D     		ldr	r5, [sp, #4]
 3428              	.LVL236:
 251:../../libs/libDaisy/src/sys/../../../../libs/libDaisy/src/hid/disp/display.h ****                 y1 += signY;
 3429              		.loc 9 251 23 view .LVU766
 3430 00b6 A444     		add	ip, ip, r4
 3431              	.LVL237:
 252:../../libs/libDaisy/src/sys/../../../../libs/libDaisy/src/hid/disp/display.h ****             }
 3432              		.loc 9 252 20 view .LVU767
 3433 00b8 2A44     		add	r2, r2, r5
 3434              	.LVL238:
 3435              	.L224:
 239:../../libs/libDaisy/src/sys/../../../../libs/libDaisy/src/hid/disp/display.h ****         {
 3436              		.loc 9 239 26 is_stmt 1 view .LVU768
 3437 00ba 9942     		cmp	r1, r3
 3438 00bc D9D1     		bne	.L220
 239:../../libs/libDaisy/src/sys/../../../../libs/libDaisy/src/hid/disp/display.h ****         {
 3439              		.loc 9 239 26 is_stmt 0 view .LVU769
 3440 00be 9642     		cmp	r6, r2
 3441 00c0 D7D1     		bne	.L220
 3442              	.L211:
 255:../../libs/libDaisy/src/sys/../../../../libs/libDaisy/src/hid/disp/display.h **** 
 3443              		.loc 9 255 5 view .LVU770
 3444 00c2 03B0     		add	sp, sp, #12
 3445              		.cfi_remember_state
ARM GAS  C:\Users\matte\AppData\Local\Temp\cclPkNhc.s 			page 101


 3446              		.cfi_def_cfa_offset 36
 3447              		@ sp needed
 3448 00c4 BDE8F08F 		pop	{r4, r5, r6, r7, r8, r9, r10, fp, pc}
 3449              	.LVL239:
 3450              	.L222:
 3451              		.cfi_restore_state
 3452              	.LBB1166:
 3453              	.LBB1165:
 3454              	.LBB1164:
 3455              	.LBB1162:
 3456              	.LBI1162:
 340:../../libs/libDaisy/src/sys/../../../../libs/libDaisy/src/dev/oled_ssd130x.h ****     {
 3457              		.loc 10 340 10 is_stmt 1 view .LVU771
 3458              	.LBB1163:
 347:../../libs/libDaisy/src/sys/../../../../libs/libDaisy/src/dev/oled_ssd130x.h ****     }
 3459              		.loc 10 347 49 is_stmt 0 view .LVU772
 3460 00c8 0EFA0BFB 		lsl	fp, lr, fp
 347:../../libs/libDaisy/src/sys/../../../../libs/libDaisy/src/dev/oled_ssd130x.h ****     }
 3461              		.loc 10 347 42 view .LVU773
 3462 00cc 95F810E0 		ldrb	lr, [r5, #16]	@ zero_extendqisi2
 3463 00d0 2EEA0B0E 		bic	lr, lr, fp
 3464 00d4 85F810E0 		strb	lr, [r5, #16]
 3465 00d8 E2E7     		b	.L221
 3466              	.LVL240:
 3467              	.L213:
 347:../../libs/libDaisy/src/sys/../../../../libs/libDaisy/src/dev/oled_ssd130x.h ****     }
 3468              		.loc 10 347 42 view .LVU774
 3469              	.LBE1163:
 3470              	.LBE1162:
 3471              	.LBE1164:
 3472              	.LBE1165:
 3473              	.LBE1166:
 3474              	.LBB1167:
  42:../../libs/libDaisy/src/sys/../../../../libs/libDaisy/src/hid/disp/oled_display.h ****     {
 3475              		.loc 8 42 10 is_stmt 1 view .LVU775
 3476              	.LBB1153:
 340:../../libs/libDaisy/src/sys/../../../../libs/libDaisy/src/dev/oled_ssd130x.h ****     {
 3477              		.loc 10 340 10 view .LVU776
 3478              	.LBE1153:
 3479              	.LBE1167:
 230:../../libs/libDaisy/src/sys/../../../../libs/libDaisy/src/hid/disp/display.h ****         int_fast16_t error  = deltaX - deltaY;
 3480              		.loc 9 230 42 is_stmt 0 view .LVU777
 3481 00da 0125     		movs	r5, #1
 3482              	.LBB1168:
 3483              	.LBB1154:
 3484              	.LBB1148:
 342:../../libs/libDaisy/src/sys/../../../../libs/libDaisy/src/dev/oled_ssd130x.h ****             return;
 3485              		.loc 10 342 9 view .LVU778
 3486 00dc 7F2B     		cmp	r3, #127
 3487              	.LBE1148:
 3488              	.LBE1154:
 3489              	.LBE1168:
 230:../../libs/libDaisy/src/sys/../../../../libs/libDaisy/src/hid/disp/display.h ****         int_fast16_t error  = deltaX - deltaY;
 3490              		.loc 9 230 42 view .LVU779
 3491 00de 0195     		str	r5, [sp, #4]
 3492              	.LBB1169:
 3493              	.LBB1155:
ARM GAS  C:\Users\matte\AppData\Local\Temp\cclPkNhc.s 			page 102


 3494              	.LBB1149:
 342:../../libs/libDaisy/src/sys/../../../../libs/libDaisy/src/dev/oled_ssd130x.h ****             return;
 3495              		.loc 10 342 9 view .LVU780
 3496 00e0 C5D8     		bhi	.L218
 3497 00e2 3F2E     		cmp	r6, #63
 3498 00e4 AED9     		bls	.L225
 3499 00e6 C2E7     		b	.L218
 3500              	.LVL241:
 3501              	.L215:
 3502              	.LBB1143:
 3503              	.LBI1143:
 340:../../libs/libDaisy/src/sys/../../../../libs/libDaisy/src/dev/oled_ssd130x.h ****     {
 3504              		.loc 10 340 10 is_stmt 1 view .LVU781
 3505              	.LBB1144:
 347:../../libs/libDaisy/src/sys/../../../../libs/libDaisy/src/dev/oled_ssd130x.h ****     }
 3506              		.loc 10 347 49 is_stmt 0 view .LVU782
 3507 00e8 07FA0EFE 		lsl	lr, r7, lr
 347:../../libs/libDaisy/src/sys/../../../../libs/libDaisy/src/dev/oled_ssd130x.h ****     }
 3508              		.loc 10 347 42 view .LVU783
 3509 00ec 2F7C     		ldrb	r7, [r5, #16]	@ zero_extendqisi2
 3510              	.LBE1144:
 3511              	.LBE1143:
 3512              	.LBE1149:
 3513              	.LBE1155:
 3514              	.LBE1169:
 239:../../libs/libDaisy/src/sys/../../../../libs/libDaisy/src/hid/disp/display.h ****         {
 3515              		.loc 9 239 26 view .LVU784
 3516 00ee 9642     		cmp	r6, r2
 3517              	.LBB1170:
 3518              	.LBB1156:
 3519              	.LBB1150:
 3520              	.LBB1146:
 3521              	.LBB1145:
 347:../../libs/libDaisy/src/sys/../../../../libs/libDaisy/src/dev/oled_ssd130x.h ****     }
 3522              		.loc 10 347 42 view .LVU785
 3523 00f0 27EA0E07 		bic	r7, r7, lr
 3524 00f4 2F74     		strb	r7, [r5, #16]
 3525              	.LVL242:
 347:../../libs/libDaisy/src/sys/../../../../libs/libDaisy/src/dev/oled_ssd130x.h ****     }
 3526              		.loc 10 347 42 view .LVU786
 3527              	.LBE1145:
 3528              	.LBE1146:
 3529              	.LBE1150:
 3530              	.LBE1156:
 3531              	.LBE1170:
 239:../../libs/libDaisy/src/sys/../../../../libs/libDaisy/src/hid/disp/display.h ****         {
 3532              		.loc 9 239 26 is_stmt 1 view .LVU787
 3533 00f6 B8D0     		beq	.L237
 3534 00f8 B9E7     		b	.L218
 3535              		.cfi_endproc
 3536              	.LFE5450:
 3538 00fa 00BF     		.section	.text._ZN5daisy25OneBitGraphicsDisplayImplINS_11OledDisplayINS_13SSD130xDriverILj128ELj64
 3539              		.align	1
 3540              		.p2align 2,,3
 3541              		.weak	_ZN5daisy25OneBitGraphicsDisplayImplINS_11OledDisplayINS_13SSD130xDriverILj128ELj64ENS_19SSD
 3542              		.syntax unified
 3543              		.thumb
ARM GAS  C:\Users\matte\AppData\Local\Temp\cclPkNhc.s 			page 103


 3544              		.thumb_func
 3545              		.fpu fpv5-d16
 3547              	_ZN5daisy25OneBitGraphicsDisplayImplINS_11OledDisplayINS_13SSD130xDriverILj128ELj64ENS_19SSD130xI2C
 3548              	.LVL243:
 3549              	.LFB5452:
 283:../../libs/libDaisy/src/sys/../../../../libs/libDaisy/src/hid/disp/display.h ****                  uint_fast8_t y,
 3550              		.loc 9 283 10 view -0
 3551              		.cfi_startproc
 3552              		@ args = 12, pretend = 0, frame = 8
 3553              		@ frame_needed = 0, uses_anonymous_args = 0
 283:../../libs/libDaisy/src/sys/../../../../libs/libDaisy/src/hid/disp/display.h ****                  uint_fast8_t y,
 3554              		.loc 9 283 10 is_stmt 0 view .LVU789
 3555 0000 2DE9F04F 		push	{r4, r5, r6, r7, r8, r9, r10, fp, lr}
 3556              		.cfi_def_cfa_offset 36
 3557              		.cfi_offset 4, -36
 3558              		.cfi_offset 5, -32
 3559              		.cfi_offset 6, -28
 3560              		.cfi_offset 7, -24
 3561              		.cfi_offset 8, -20
 3562              		.cfi_offset 9, -16
 3563              		.cfi_offset 10, -12
 3564              		.cfi_offset 11, -8
 3565              		.cfi_offset 14, -4
 3566 0004 2DED068B 		vpush.64	{d8, d9, d10}
 3567              		.cfi_def_cfa_offset 60
 3568              		.cfi_offset 80, -60
 3569              		.cfi_offset 81, -56
 3570              		.cfi_offset 82, -52
 3571              		.cfi_offset 83, -48
 3572              		.cfi_offset 84, -44
 3573              		.cfi_offset 85, -40
 3574 0008 83B0     		sub	sp, sp, #12
 3575              		.cfi_def_cfa_offset 72
 283:../../libs/libDaisy/src/sys/../../../../libs/libDaisy/src/hid/disp/display.h ****                  uint_fast8_t y,
 3576              		.loc 9 283 10 view .LVU790
 3577 000a 1F46     		mov	r7, r3
 3578 000c 8046     		mov	r8, r0
 3579 000e 0D46     		mov	r5, r1
 3580 0010 9DF85030 		ldrb	r3, [sp, #80]	@ zero_extendqisi2
 3581              	.LVL244:
 283:../../libs/libDaisy/src/sys/../../../../libs/libDaisy/src/hid/disp/display.h ****                  uint_fast8_t y,
 3582              		.loc 9 283 10 view .LVU791
 3583 0014 1646     		mov	r6, r2
 3584 0016 0193     		str	r3, [sp, #4]
 306:../../libs/libDaisy/src/sys/../../../../libs/libDaisy/src/hid/disp/display.h ****         {
 3585              		.loc 9 306 9 view .LVU792
 3586 0018 139B     		ldr	r3, [sp, #76]
 3587 001a 002B     		cmp	r3, #0
 3588 001c C0F22182 		blt	.L239
 313:../../libs/libDaisy/src/sys/../../../../libs/libDaisy/src/hid/disp/display.h **** 
 3589              		.loc 9 313 27 view .LVU793
 3590 0020 129A     		ldr	r2, [sp, #72]
 3591              	.LVL245:
 313:../../libs/libDaisy/src/sys/../../../../libs/libDaisy/src/hid/disp/display.h **** 
 3592              		.loc 9 313 27 view .LVU794
 3593 0022 1344     		add	r3, r3, r2
 3594 0024 06EE103A 		vmov	s12, r3	@ int
ARM GAS  C:\Users\matte\AppData\Local\Temp\cclPkNhc.s 			page 104


 3595              	.LVL246:
 3596              	.L240:
 312:../../libs/libDaisy/src/sys/../../../../libs/libDaisy/src/hid/disp/display.h ****         end_angle_rad   = deg2rad(start_angle + sweep);
 3597              		.loc 9 312 27 view .LVU795
 3598 0028 DDED127A 		vldr.32	s15, [sp, #72]	@ int
 313:../../libs/libDaisy/src/sys/../../../../libs/libDaisy/src/hid/disp/display.h **** 
 3599              		.loc 9 313 27 view .LVU796
 3600 002c B8EEC66B 		vcvt.f64.s32	d6, s12
 312:../../libs/libDaisy/src/sys/../../../../libs/libDaisy/src/hid/disp/display.h ****         end_angle_rad   = deg2rad(start_angle + sweep);
 3601              		.loc 9 312 27 view .LVU797
 3602 0030 9FEDCD4B 		vldr.64	d4, .L315
 3603 0034 B8EEE77B 		vcvt.f64.s32	d7, s15
 3604 0038 9FEDCD5B 		vldr.64	d5, .L315+8
 3605 003c 27EE047B 		vmul.f64	d7, d7, d4
 313:../../libs/libDaisy/src/sys/../../../../libs/libDaisy/src/hid/disp/display.h **** 
 3606              		.loc 9 313 27 view .LVU798
 3607 0040 26EE046B 		vmul.f64	d6, d6, d4
 312:../../libs/libDaisy/src/sys/../../../../libs/libDaisy/src/hid/disp/display.h ****         end_angle_rad   = deg2rad(start_angle + sweep);
 3608              		.loc 9 312 27 view .LVU799
 3609 0044 87EE050B 		vdiv.f64	d0, d7, d5
 313:../../libs/libDaisy/src/sys/../../../../libs/libDaisy/src/hid/disp/display.h **** 
 3610              		.loc 9 313 27 view .LVU800
 3611 0048 86EE05AB 		vdiv.f64	d10, d6, d5
 312:../../libs/libDaisy/src/sys/../../../../libs/libDaisy/src/hid/disp/display.h ****         end_angle_rad   = deg2rad(start_angle + sweep);
 3612              		.loc 9 312 25 view .LVU801
 3613 004c F7EEC08B 		vcvt.f32.f64	s17, d0
 3614              	.LVL247:
 3615              	.LBB1203:
 3616              	.LBB1204:
 3617              		.file 13 "c:\\program files\\daisytoolchain\\arm-none-eabi\\include\\c++\\10.2.1\\cmath"
   1:c:\program files\daisytoolchain\arm-none-eabi\include\c++\10.2.1\cmath **** // -*- C++ -*- C forwarding header.
   2:c:\program files\daisytoolchain\arm-none-eabi\include\c++\10.2.1\cmath **** 
   3:c:\program files\daisytoolchain\arm-none-eabi\include\c++\10.2.1\cmath **** // Copyright (C) 1997-2020 Free Software Foundation, Inc.
   4:c:\program files\daisytoolchain\arm-none-eabi\include\c++\10.2.1\cmath **** //
   5:c:\program files\daisytoolchain\arm-none-eabi\include\c++\10.2.1\cmath **** // This file is part of the GNU ISO C++ Library.  This library is free
   6:c:\program files\daisytoolchain\arm-none-eabi\include\c++\10.2.1\cmath **** // software; you can redistribute it and/or modify it under the
   7:c:\program files\daisytoolchain\arm-none-eabi\include\c++\10.2.1\cmath **** // terms of the GNU General Public License as published by the
   8:c:\program files\daisytoolchain\arm-none-eabi\include\c++\10.2.1\cmath **** // Free Software Foundation; either version 3, or (at your option)
   9:c:\program files\daisytoolchain\arm-none-eabi\include\c++\10.2.1\cmath **** // any later version.
  10:c:\program files\daisytoolchain\arm-none-eabi\include\c++\10.2.1\cmath **** 
  11:c:\program files\daisytoolchain\arm-none-eabi\include\c++\10.2.1\cmath **** // This library is distributed in the hope that it will be useful,
  12:c:\program files\daisytoolchain\arm-none-eabi\include\c++\10.2.1\cmath **** // but WITHOUT ANY WARRANTY; without even the implied warranty of
  13:c:\program files\daisytoolchain\arm-none-eabi\include\c++\10.2.1\cmath **** // MERCHANTABILITY or FITNESS FOR A PARTICULAR PURPOSE.  See the
  14:c:\program files\daisytoolchain\arm-none-eabi\include\c++\10.2.1\cmath **** // GNU General Public License for more details.
  15:c:\program files\daisytoolchain\arm-none-eabi\include\c++\10.2.1\cmath **** 
  16:c:\program files\daisytoolchain\arm-none-eabi\include\c++\10.2.1\cmath **** // Under Section 7 of GPL version 3, you are granted additional
  17:c:\program files\daisytoolchain\arm-none-eabi\include\c++\10.2.1\cmath **** // permissions described in the GCC Runtime Library Exception, version
  18:c:\program files\daisytoolchain\arm-none-eabi\include\c++\10.2.1\cmath **** // 3.1, as published by the Free Software Foundation.
  19:c:\program files\daisytoolchain\arm-none-eabi\include\c++\10.2.1\cmath **** 
  20:c:\program files\daisytoolchain\arm-none-eabi\include\c++\10.2.1\cmath **** // You should have received a copy of the GNU General Public License and
  21:c:\program files\daisytoolchain\arm-none-eabi\include\c++\10.2.1\cmath **** // a copy of the GCC Runtime Library Exception along with this program;
  22:c:\program files\daisytoolchain\arm-none-eabi\include\c++\10.2.1\cmath **** // see the files COPYING3 and COPYING.RUNTIME respectively.  If not, see
  23:c:\program files\daisytoolchain\arm-none-eabi\include\c++\10.2.1\cmath **** // <http://www.gnu.org/licenses/>.
  24:c:\program files\daisytoolchain\arm-none-eabi\include\c++\10.2.1\cmath **** 
  25:c:\program files\daisytoolchain\arm-none-eabi\include\c++\10.2.1\cmath **** /** @file include/cmath
  26:c:\program files\daisytoolchain\arm-none-eabi\include\c++\10.2.1\cmath ****  *  This is a Standard C++ Library file.  You should @c \#include this file
  27:c:\program files\daisytoolchain\arm-none-eabi\include\c++\10.2.1\cmath ****  *  in your programs, rather than any of the @a *.h implementation files.
ARM GAS  C:\Users\matte\AppData\Local\Temp\cclPkNhc.s 			page 105


  28:c:\program files\daisytoolchain\arm-none-eabi\include\c++\10.2.1\cmath ****  *
  29:c:\program files\daisytoolchain\arm-none-eabi\include\c++\10.2.1\cmath ****  *  This is the C++ version of the Standard C Library header @c math.h,
  30:c:\program files\daisytoolchain\arm-none-eabi\include\c++\10.2.1\cmath ****  *  and its contents are (mostly) the same as that header, but are all
  31:c:\program files\daisytoolchain\arm-none-eabi\include\c++\10.2.1\cmath ****  *  contained in the namespace @c std (except for names which are defined
  32:c:\program files\daisytoolchain\arm-none-eabi\include\c++\10.2.1\cmath ****  *  as macros in C).
  33:c:\program files\daisytoolchain\arm-none-eabi\include\c++\10.2.1\cmath ****  */
  34:c:\program files\daisytoolchain\arm-none-eabi\include\c++\10.2.1\cmath **** 
  35:c:\program files\daisytoolchain\arm-none-eabi\include\c++\10.2.1\cmath **** //
  36:c:\program files\daisytoolchain\arm-none-eabi\include\c++\10.2.1\cmath **** // ISO C++ 14882: 26.5  C library
  37:c:\program files\daisytoolchain\arm-none-eabi\include\c++\10.2.1\cmath **** //
  38:c:\program files\daisytoolchain\arm-none-eabi\include\c++\10.2.1\cmath **** 
  39:c:\program files\daisytoolchain\arm-none-eabi\include\c++\10.2.1\cmath **** #pragma GCC system_header
  40:c:\program files\daisytoolchain\arm-none-eabi\include\c++\10.2.1\cmath **** 
  41:c:\program files\daisytoolchain\arm-none-eabi\include\c++\10.2.1\cmath **** #include <bits/c++config.h>
  42:c:\program files\daisytoolchain\arm-none-eabi\include\c++\10.2.1\cmath **** #include <bits/cpp_type_traits.h>
  43:c:\program files\daisytoolchain\arm-none-eabi\include\c++\10.2.1\cmath **** #include <ext/type_traits.h>
  44:c:\program files\daisytoolchain\arm-none-eabi\include\c++\10.2.1\cmath **** #define _GLIBCXX_INCLUDE_NEXT_C_HEADERS
  45:c:\program files\daisytoolchain\arm-none-eabi\include\c++\10.2.1\cmath **** #include_next <math.h>
  46:c:\program files\daisytoolchain\arm-none-eabi\include\c++\10.2.1\cmath **** #undef _GLIBCXX_INCLUDE_NEXT_C_HEADERS
  47:c:\program files\daisytoolchain\arm-none-eabi\include\c++\10.2.1\cmath **** #include <bits/std_abs.h>
  48:c:\program files\daisytoolchain\arm-none-eabi\include\c++\10.2.1\cmath **** 
  49:c:\program files\daisytoolchain\arm-none-eabi\include\c++\10.2.1\cmath **** #ifndef _GLIBCXX_CMATH
  50:c:\program files\daisytoolchain\arm-none-eabi\include\c++\10.2.1\cmath **** #define _GLIBCXX_CMATH 1
  51:c:\program files\daisytoolchain\arm-none-eabi\include\c++\10.2.1\cmath **** 
  52:c:\program files\daisytoolchain\arm-none-eabi\include\c++\10.2.1\cmath **** // Get rid of those macros defined in <math.h> in lieu of real functions.
  53:c:\program files\daisytoolchain\arm-none-eabi\include\c++\10.2.1\cmath **** #undef div
  54:c:\program files\daisytoolchain\arm-none-eabi\include\c++\10.2.1\cmath **** #undef acos
  55:c:\program files\daisytoolchain\arm-none-eabi\include\c++\10.2.1\cmath **** #undef asin
  56:c:\program files\daisytoolchain\arm-none-eabi\include\c++\10.2.1\cmath **** #undef atan
  57:c:\program files\daisytoolchain\arm-none-eabi\include\c++\10.2.1\cmath **** #undef atan2
  58:c:\program files\daisytoolchain\arm-none-eabi\include\c++\10.2.1\cmath **** #undef ceil
  59:c:\program files\daisytoolchain\arm-none-eabi\include\c++\10.2.1\cmath **** #undef cos
  60:c:\program files\daisytoolchain\arm-none-eabi\include\c++\10.2.1\cmath **** #undef cosh
  61:c:\program files\daisytoolchain\arm-none-eabi\include\c++\10.2.1\cmath **** #undef exp
  62:c:\program files\daisytoolchain\arm-none-eabi\include\c++\10.2.1\cmath **** #undef fabs
  63:c:\program files\daisytoolchain\arm-none-eabi\include\c++\10.2.1\cmath **** #undef floor
  64:c:\program files\daisytoolchain\arm-none-eabi\include\c++\10.2.1\cmath **** #undef fmod
  65:c:\program files\daisytoolchain\arm-none-eabi\include\c++\10.2.1\cmath **** #undef frexp
  66:c:\program files\daisytoolchain\arm-none-eabi\include\c++\10.2.1\cmath **** #undef ldexp
  67:c:\program files\daisytoolchain\arm-none-eabi\include\c++\10.2.1\cmath **** #undef log
  68:c:\program files\daisytoolchain\arm-none-eabi\include\c++\10.2.1\cmath **** #undef log10
  69:c:\program files\daisytoolchain\arm-none-eabi\include\c++\10.2.1\cmath **** #undef modf
  70:c:\program files\daisytoolchain\arm-none-eabi\include\c++\10.2.1\cmath **** #undef pow
  71:c:\program files\daisytoolchain\arm-none-eabi\include\c++\10.2.1\cmath **** #undef sin
  72:c:\program files\daisytoolchain\arm-none-eabi\include\c++\10.2.1\cmath **** #undef sinh
  73:c:\program files\daisytoolchain\arm-none-eabi\include\c++\10.2.1\cmath **** #undef sqrt
  74:c:\program files\daisytoolchain\arm-none-eabi\include\c++\10.2.1\cmath **** #undef tan
  75:c:\program files\daisytoolchain\arm-none-eabi\include\c++\10.2.1\cmath **** #undef tanh
  76:c:\program files\daisytoolchain\arm-none-eabi\include\c++\10.2.1\cmath **** 
  77:c:\program files\daisytoolchain\arm-none-eabi\include\c++\10.2.1\cmath **** extern "C++"
  78:c:\program files\daisytoolchain\arm-none-eabi\include\c++\10.2.1\cmath **** {
  79:c:\program files\daisytoolchain\arm-none-eabi\include\c++\10.2.1\cmath **** namespace std _GLIBCXX_VISIBILITY(default)
  80:c:\program files\daisytoolchain\arm-none-eabi\include\c++\10.2.1\cmath **** {
  81:c:\program files\daisytoolchain\arm-none-eabi\include\c++\10.2.1\cmath **** _GLIBCXX_BEGIN_NAMESPACE_VERSION
  82:c:\program files\daisytoolchain\arm-none-eabi\include\c++\10.2.1\cmath **** 
  83:c:\program files\daisytoolchain\arm-none-eabi\include\c++\10.2.1\cmath ****   using ::acos;
  84:c:\program files\daisytoolchain\arm-none-eabi\include\c++\10.2.1\cmath **** 
ARM GAS  C:\Users\matte\AppData\Local\Temp\cclPkNhc.s 			page 106


  85:c:\program files\daisytoolchain\arm-none-eabi\include\c++\10.2.1\cmath **** #ifndef __CORRECT_ISO_CPP_MATH_H_PROTO
  86:c:\program files\daisytoolchain\arm-none-eabi\include\c++\10.2.1\cmath ****   inline _GLIBCXX_CONSTEXPR float
  87:c:\program files\daisytoolchain\arm-none-eabi\include\c++\10.2.1\cmath ****   acos(float __x)
  88:c:\program files\daisytoolchain\arm-none-eabi\include\c++\10.2.1\cmath ****   { return __builtin_acosf(__x); }
  89:c:\program files\daisytoolchain\arm-none-eabi\include\c++\10.2.1\cmath **** 
  90:c:\program files\daisytoolchain\arm-none-eabi\include\c++\10.2.1\cmath ****   inline _GLIBCXX_CONSTEXPR long double
  91:c:\program files\daisytoolchain\arm-none-eabi\include\c++\10.2.1\cmath ****   acos(long double __x)
  92:c:\program files\daisytoolchain\arm-none-eabi\include\c++\10.2.1\cmath ****   { return __builtin_acosl(__x); }
  93:c:\program files\daisytoolchain\arm-none-eabi\include\c++\10.2.1\cmath **** #endif
  94:c:\program files\daisytoolchain\arm-none-eabi\include\c++\10.2.1\cmath **** 
  95:c:\program files\daisytoolchain\arm-none-eabi\include\c++\10.2.1\cmath ****   template<typename _Tp>
  96:c:\program files\daisytoolchain\arm-none-eabi\include\c++\10.2.1\cmath ****     inline _GLIBCXX_CONSTEXPR
  97:c:\program files\daisytoolchain\arm-none-eabi\include\c++\10.2.1\cmath ****     typename __gnu_cxx::__enable_if<__is_integer<_Tp>::__value, 
  98:c:\program files\daisytoolchain\arm-none-eabi\include\c++\10.2.1\cmath ****                                     double>::__type
  99:c:\program files\daisytoolchain\arm-none-eabi\include\c++\10.2.1\cmath ****     acos(_Tp __x)
 100:c:\program files\daisytoolchain\arm-none-eabi\include\c++\10.2.1\cmath ****     { return __builtin_acos(__x); }
 101:c:\program files\daisytoolchain\arm-none-eabi\include\c++\10.2.1\cmath **** 
 102:c:\program files\daisytoolchain\arm-none-eabi\include\c++\10.2.1\cmath ****   using ::asin;
 103:c:\program files\daisytoolchain\arm-none-eabi\include\c++\10.2.1\cmath **** 
 104:c:\program files\daisytoolchain\arm-none-eabi\include\c++\10.2.1\cmath **** #ifndef __CORRECT_ISO_CPP_MATH_H_PROTO
 105:c:\program files\daisytoolchain\arm-none-eabi\include\c++\10.2.1\cmath ****   inline _GLIBCXX_CONSTEXPR float
 106:c:\program files\daisytoolchain\arm-none-eabi\include\c++\10.2.1\cmath ****   asin(float __x)
 107:c:\program files\daisytoolchain\arm-none-eabi\include\c++\10.2.1\cmath ****   { return __builtin_asinf(__x); }
 108:c:\program files\daisytoolchain\arm-none-eabi\include\c++\10.2.1\cmath **** 
 109:c:\program files\daisytoolchain\arm-none-eabi\include\c++\10.2.1\cmath ****   inline _GLIBCXX_CONSTEXPR long double
 110:c:\program files\daisytoolchain\arm-none-eabi\include\c++\10.2.1\cmath ****   asin(long double __x)
 111:c:\program files\daisytoolchain\arm-none-eabi\include\c++\10.2.1\cmath ****   { return __builtin_asinl(__x); }
 112:c:\program files\daisytoolchain\arm-none-eabi\include\c++\10.2.1\cmath **** #endif
 113:c:\program files\daisytoolchain\arm-none-eabi\include\c++\10.2.1\cmath **** 
 114:c:\program files\daisytoolchain\arm-none-eabi\include\c++\10.2.1\cmath ****   template<typename _Tp>
 115:c:\program files\daisytoolchain\arm-none-eabi\include\c++\10.2.1\cmath ****     inline _GLIBCXX_CONSTEXPR
 116:c:\program files\daisytoolchain\arm-none-eabi\include\c++\10.2.1\cmath ****     typename __gnu_cxx::__enable_if<__is_integer<_Tp>::__value,
 117:c:\program files\daisytoolchain\arm-none-eabi\include\c++\10.2.1\cmath ****                                     double>::__type
 118:c:\program files\daisytoolchain\arm-none-eabi\include\c++\10.2.1\cmath ****     asin(_Tp __x)
 119:c:\program files\daisytoolchain\arm-none-eabi\include\c++\10.2.1\cmath ****     { return __builtin_asin(__x); }
 120:c:\program files\daisytoolchain\arm-none-eabi\include\c++\10.2.1\cmath **** 
 121:c:\program files\daisytoolchain\arm-none-eabi\include\c++\10.2.1\cmath ****   using ::atan;
 122:c:\program files\daisytoolchain\arm-none-eabi\include\c++\10.2.1\cmath **** 
 123:c:\program files\daisytoolchain\arm-none-eabi\include\c++\10.2.1\cmath **** #ifndef __CORRECT_ISO_CPP_MATH_H_PROTO
 124:c:\program files\daisytoolchain\arm-none-eabi\include\c++\10.2.1\cmath ****   inline _GLIBCXX_CONSTEXPR float
 125:c:\program files\daisytoolchain\arm-none-eabi\include\c++\10.2.1\cmath ****   atan(float __x)
 126:c:\program files\daisytoolchain\arm-none-eabi\include\c++\10.2.1\cmath ****   { return __builtin_atanf(__x); }
 127:c:\program files\daisytoolchain\arm-none-eabi\include\c++\10.2.1\cmath **** 
 128:c:\program files\daisytoolchain\arm-none-eabi\include\c++\10.2.1\cmath ****   inline _GLIBCXX_CONSTEXPR long double
 129:c:\program files\daisytoolchain\arm-none-eabi\include\c++\10.2.1\cmath ****   atan(long double __x)
 130:c:\program files\daisytoolchain\arm-none-eabi\include\c++\10.2.1\cmath ****   { return __builtin_atanl(__x); }
 131:c:\program files\daisytoolchain\arm-none-eabi\include\c++\10.2.1\cmath **** #endif
 132:c:\program files\daisytoolchain\arm-none-eabi\include\c++\10.2.1\cmath **** 
 133:c:\program files\daisytoolchain\arm-none-eabi\include\c++\10.2.1\cmath ****   template<typename _Tp>
 134:c:\program files\daisytoolchain\arm-none-eabi\include\c++\10.2.1\cmath ****     inline _GLIBCXX_CONSTEXPR
 135:c:\program files\daisytoolchain\arm-none-eabi\include\c++\10.2.1\cmath ****     typename __gnu_cxx::__enable_if<__is_integer<_Tp>::__value,
 136:c:\program files\daisytoolchain\arm-none-eabi\include\c++\10.2.1\cmath ****                                     double>::__type
 137:c:\program files\daisytoolchain\arm-none-eabi\include\c++\10.2.1\cmath ****     atan(_Tp __x)
 138:c:\program files\daisytoolchain\arm-none-eabi\include\c++\10.2.1\cmath ****     { return __builtin_atan(__x); }
 139:c:\program files\daisytoolchain\arm-none-eabi\include\c++\10.2.1\cmath **** 
 140:c:\program files\daisytoolchain\arm-none-eabi\include\c++\10.2.1\cmath ****   using ::atan2;
 141:c:\program files\daisytoolchain\arm-none-eabi\include\c++\10.2.1\cmath **** 
ARM GAS  C:\Users\matte\AppData\Local\Temp\cclPkNhc.s 			page 107


 142:c:\program files\daisytoolchain\arm-none-eabi\include\c++\10.2.1\cmath **** #ifndef __CORRECT_ISO_CPP_MATH_H_PROTO
 143:c:\program files\daisytoolchain\arm-none-eabi\include\c++\10.2.1\cmath ****   inline _GLIBCXX_CONSTEXPR float
 144:c:\program files\daisytoolchain\arm-none-eabi\include\c++\10.2.1\cmath ****   atan2(float __y, float __x)
 145:c:\program files\daisytoolchain\arm-none-eabi\include\c++\10.2.1\cmath ****   { return __builtin_atan2f(__y, __x); }
 146:c:\program files\daisytoolchain\arm-none-eabi\include\c++\10.2.1\cmath **** 
 147:c:\program files\daisytoolchain\arm-none-eabi\include\c++\10.2.1\cmath ****   inline _GLIBCXX_CONSTEXPR long double
 148:c:\program files\daisytoolchain\arm-none-eabi\include\c++\10.2.1\cmath ****   atan2(long double __y, long double __x)
 149:c:\program files\daisytoolchain\arm-none-eabi\include\c++\10.2.1\cmath ****   { return __builtin_atan2l(__y, __x); }
 150:c:\program files\daisytoolchain\arm-none-eabi\include\c++\10.2.1\cmath **** #endif
 151:c:\program files\daisytoolchain\arm-none-eabi\include\c++\10.2.1\cmath **** 
 152:c:\program files\daisytoolchain\arm-none-eabi\include\c++\10.2.1\cmath ****   template<typename _Tp, typename _Up>
 153:c:\program files\daisytoolchain\arm-none-eabi\include\c++\10.2.1\cmath ****     inline _GLIBCXX_CONSTEXPR
 154:c:\program files\daisytoolchain\arm-none-eabi\include\c++\10.2.1\cmath ****     typename __gnu_cxx::__promote_2<_Tp, _Up>::__type
 155:c:\program files\daisytoolchain\arm-none-eabi\include\c++\10.2.1\cmath ****     atan2(_Tp __y, _Up __x)
 156:c:\program files\daisytoolchain\arm-none-eabi\include\c++\10.2.1\cmath ****     {
 157:c:\program files\daisytoolchain\arm-none-eabi\include\c++\10.2.1\cmath ****       typedef typename __gnu_cxx::__promote_2<_Tp, _Up>::__type __type;
 158:c:\program files\daisytoolchain\arm-none-eabi\include\c++\10.2.1\cmath ****       return atan2(__type(__y), __type(__x));
 159:c:\program files\daisytoolchain\arm-none-eabi\include\c++\10.2.1\cmath ****     }
 160:c:\program files\daisytoolchain\arm-none-eabi\include\c++\10.2.1\cmath **** 
 161:c:\program files\daisytoolchain\arm-none-eabi\include\c++\10.2.1\cmath ****   using ::ceil;
 162:c:\program files\daisytoolchain\arm-none-eabi\include\c++\10.2.1\cmath **** 
 163:c:\program files\daisytoolchain\arm-none-eabi\include\c++\10.2.1\cmath **** #ifndef __CORRECT_ISO_CPP_MATH_H_PROTO
 164:c:\program files\daisytoolchain\arm-none-eabi\include\c++\10.2.1\cmath ****   inline _GLIBCXX_CONSTEXPR float
 165:c:\program files\daisytoolchain\arm-none-eabi\include\c++\10.2.1\cmath ****   ceil(float __x)
 166:c:\program files\daisytoolchain\arm-none-eabi\include\c++\10.2.1\cmath ****   { return __builtin_ceilf(__x); }
 167:c:\program files\daisytoolchain\arm-none-eabi\include\c++\10.2.1\cmath **** 
 168:c:\program files\daisytoolchain\arm-none-eabi\include\c++\10.2.1\cmath ****   inline _GLIBCXX_CONSTEXPR long double
 169:c:\program files\daisytoolchain\arm-none-eabi\include\c++\10.2.1\cmath ****   ceil(long double __x)
 170:c:\program files\daisytoolchain\arm-none-eabi\include\c++\10.2.1\cmath ****   { return __builtin_ceill(__x); }
 171:c:\program files\daisytoolchain\arm-none-eabi\include\c++\10.2.1\cmath **** #endif
 172:c:\program files\daisytoolchain\arm-none-eabi\include\c++\10.2.1\cmath **** 
 173:c:\program files\daisytoolchain\arm-none-eabi\include\c++\10.2.1\cmath ****   template<typename _Tp>
 174:c:\program files\daisytoolchain\arm-none-eabi\include\c++\10.2.1\cmath ****     inline _GLIBCXX_CONSTEXPR
 175:c:\program files\daisytoolchain\arm-none-eabi\include\c++\10.2.1\cmath ****     typename __gnu_cxx::__enable_if<__is_integer<_Tp>::__value, 
 176:c:\program files\daisytoolchain\arm-none-eabi\include\c++\10.2.1\cmath ****                                     double>::__type
 177:c:\program files\daisytoolchain\arm-none-eabi\include\c++\10.2.1\cmath ****     ceil(_Tp __x)
 178:c:\program files\daisytoolchain\arm-none-eabi\include\c++\10.2.1\cmath ****     { return __builtin_ceil(__x); }
 179:c:\program files\daisytoolchain\arm-none-eabi\include\c++\10.2.1\cmath **** 
 180:c:\program files\daisytoolchain\arm-none-eabi\include\c++\10.2.1\cmath ****   using ::cos;
 181:c:\program files\daisytoolchain\arm-none-eabi\include\c++\10.2.1\cmath **** 
 182:c:\program files\daisytoolchain\arm-none-eabi\include\c++\10.2.1\cmath **** #ifndef __CORRECT_ISO_CPP_MATH_H_PROTO
 183:c:\program files\daisytoolchain\arm-none-eabi\include\c++\10.2.1\cmath ****   inline _GLIBCXX_CONSTEXPR float
 184:c:\program files\daisytoolchain\arm-none-eabi\include\c++\10.2.1\cmath ****   cos(float __x)
 185:c:\program files\daisytoolchain\arm-none-eabi\include\c++\10.2.1\cmath ****   { return __builtin_cosf(__x); }
 3618              		.loc 13 185 26 view .LVU802
 3619 0050 B0EE680A 		vmov.f32	s0, s17
 3620 0054 FFF7FEFF 		bl	cosf
 3621              	.LVL248:
 3622              		.loc 13 185 26 view .LVU803
 3623              	.LBE1204:
 3624              	.LBE1203:
 315:../../libs/libDaisy/src/sys/../../../../libs/libDaisy/src/hid/disp/display.h ****         start_y = -sin(start_angle_rad) * radius;
 3625              		.loc 9 315 17 view .LVU804
 3626 0058 07EE907A 		vmov	s15, r7	@ int
 313:../../libs/libDaisy/src/sys/../../../../libs/libDaisy/src/hid/disp/display.h **** 
 3627              		.loc 9 313 25 view .LVU805
 3628 005c B7EECAAB 		vcvt.f32.f64	s20, d10
ARM GAS  C:\Users\matte\AppData\Local\Temp\cclPkNhc.s 			page 108


 3629              	.LVL249:
 3630              	.LBB1207:
 3631              	.LBI1203:
 184:c:\program files\daisytoolchain\arm-none-eabi\include\c++\10.2.1\cmath ****   { return __builtin_cosf(__x); }
 3632              		.loc 13 184 3 is_stmt 1 view .LVU806
 3633              	.LBB1205:
 3634              		.loc 13 185 5 view .LVU807
 3635              		.loc 13 185 5 is_stmt 0 view .LVU808
 3636              	.LBE1205:
 3637              	.LBE1207:
 315:../../libs/libDaisy/src/sys/../../../../libs/libDaisy/src/hid/disp/display.h ****         start_y = -sin(start_angle_rad) * radius;
 3638              		.loc 9 315 17 view .LVU809
 3639 0060 F8EE679A 		vcvt.f32.u32	s19, s15
 3640              	.LBB1208:
 3641              	.LBB1206:
 3642              		.loc 13 185 26 view .LVU810
 3643 0064 B0EE408A 		vmov.f32	s16, s0
 3644              	.LBE1206:
 3645              	.LBE1208:
 3646              	.LBB1209:
 3647              	.LBB1210:
 186:c:\program files\daisytoolchain\arm-none-eabi\include\c++\10.2.1\cmath **** 
 187:c:\program files\daisytoolchain\arm-none-eabi\include\c++\10.2.1\cmath ****   inline _GLIBCXX_CONSTEXPR long double
 188:c:\program files\daisytoolchain\arm-none-eabi\include\c++\10.2.1\cmath ****   cos(long double __x)
 189:c:\program files\daisytoolchain\arm-none-eabi\include\c++\10.2.1\cmath ****   { return __builtin_cosl(__x); }
 190:c:\program files\daisytoolchain\arm-none-eabi\include\c++\10.2.1\cmath **** #endif
 191:c:\program files\daisytoolchain\arm-none-eabi\include\c++\10.2.1\cmath **** 
 192:c:\program files\daisytoolchain\arm-none-eabi\include\c++\10.2.1\cmath ****   template<typename _Tp>
 193:c:\program files\daisytoolchain\arm-none-eabi\include\c++\10.2.1\cmath ****     inline _GLIBCXX_CONSTEXPR
 194:c:\program files\daisytoolchain\arm-none-eabi\include\c++\10.2.1\cmath ****     typename __gnu_cxx::__enable_if<__is_integer<_Tp>::__value,
 195:c:\program files\daisytoolchain\arm-none-eabi\include\c++\10.2.1\cmath ****                                     double>::__type
 196:c:\program files\daisytoolchain\arm-none-eabi\include\c++\10.2.1\cmath ****     cos(_Tp __x)
 197:c:\program files\daisytoolchain\arm-none-eabi\include\c++\10.2.1\cmath ****     { return __builtin_cos(__x); }
 198:c:\program files\daisytoolchain\arm-none-eabi\include\c++\10.2.1\cmath **** 
 199:c:\program files\daisytoolchain\arm-none-eabi\include\c++\10.2.1\cmath ****   using ::cosh;
 200:c:\program files\daisytoolchain\arm-none-eabi\include\c++\10.2.1\cmath **** 
 201:c:\program files\daisytoolchain\arm-none-eabi\include\c++\10.2.1\cmath **** #ifndef __CORRECT_ISO_CPP_MATH_H_PROTO
 202:c:\program files\daisytoolchain\arm-none-eabi\include\c++\10.2.1\cmath ****   inline _GLIBCXX_CONSTEXPR float
 203:c:\program files\daisytoolchain\arm-none-eabi\include\c++\10.2.1\cmath ****   cosh(float __x)
 204:c:\program files\daisytoolchain\arm-none-eabi\include\c++\10.2.1\cmath ****   { return __builtin_coshf(__x); }
 205:c:\program files\daisytoolchain\arm-none-eabi\include\c++\10.2.1\cmath **** 
 206:c:\program files\daisytoolchain\arm-none-eabi\include\c++\10.2.1\cmath ****   inline _GLIBCXX_CONSTEXPR long double
 207:c:\program files\daisytoolchain\arm-none-eabi\include\c++\10.2.1\cmath ****   cosh(long double __x)
 208:c:\program files\daisytoolchain\arm-none-eabi\include\c++\10.2.1\cmath ****   { return __builtin_coshl(__x); }
 209:c:\program files\daisytoolchain\arm-none-eabi\include\c++\10.2.1\cmath **** #endif
 210:c:\program files\daisytoolchain\arm-none-eabi\include\c++\10.2.1\cmath **** 
 211:c:\program files\daisytoolchain\arm-none-eabi\include\c++\10.2.1\cmath ****   template<typename _Tp>
 212:c:\program files\daisytoolchain\arm-none-eabi\include\c++\10.2.1\cmath ****     inline _GLIBCXX_CONSTEXPR
 213:c:\program files\daisytoolchain\arm-none-eabi\include\c++\10.2.1\cmath ****     typename __gnu_cxx::__enable_if<__is_integer<_Tp>::__value,
 214:c:\program files\daisytoolchain\arm-none-eabi\include\c++\10.2.1\cmath ****                                     double>::__type
 215:c:\program files\daisytoolchain\arm-none-eabi\include\c++\10.2.1\cmath ****     cosh(_Tp __x)
 216:c:\program files\daisytoolchain\arm-none-eabi\include\c++\10.2.1\cmath ****     { return __builtin_cosh(__x); }
 217:c:\program files\daisytoolchain\arm-none-eabi\include\c++\10.2.1\cmath **** 
 218:c:\program files\daisytoolchain\arm-none-eabi\include\c++\10.2.1\cmath ****   using ::exp;
 219:c:\program files\daisytoolchain\arm-none-eabi\include\c++\10.2.1\cmath **** 
 220:c:\program files\daisytoolchain\arm-none-eabi\include\c++\10.2.1\cmath **** #ifndef __CORRECT_ISO_CPP_MATH_H_PROTO
 221:c:\program files\daisytoolchain\arm-none-eabi\include\c++\10.2.1\cmath ****   inline _GLIBCXX_CONSTEXPR float
ARM GAS  C:\Users\matte\AppData\Local\Temp\cclPkNhc.s 			page 109


 222:c:\program files\daisytoolchain\arm-none-eabi\include\c++\10.2.1\cmath ****   exp(float __x)
 223:c:\program files\daisytoolchain\arm-none-eabi\include\c++\10.2.1\cmath ****   { return __builtin_expf(__x); }
 224:c:\program files\daisytoolchain\arm-none-eabi\include\c++\10.2.1\cmath **** 
 225:c:\program files\daisytoolchain\arm-none-eabi\include\c++\10.2.1\cmath ****   inline _GLIBCXX_CONSTEXPR long double
 226:c:\program files\daisytoolchain\arm-none-eabi\include\c++\10.2.1\cmath ****   exp(long double __x)
 227:c:\program files\daisytoolchain\arm-none-eabi\include\c++\10.2.1\cmath ****   { return __builtin_expl(__x); }
 228:c:\program files\daisytoolchain\arm-none-eabi\include\c++\10.2.1\cmath **** #endif
 229:c:\program files\daisytoolchain\arm-none-eabi\include\c++\10.2.1\cmath **** 
 230:c:\program files\daisytoolchain\arm-none-eabi\include\c++\10.2.1\cmath ****   template<typename _Tp>
 231:c:\program files\daisytoolchain\arm-none-eabi\include\c++\10.2.1\cmath ****     inline _GLIBCXX_CONSTEXPR
 232:c:\program files\daisytoolchain\arm-none-eabi\include\c++\10.2.1\cmath ****     typename __gnu_cxx::__enable_if<__is_integer<_Tp>::__value,
 233:c:\program files\daisytoolchain\arm-none-eabi\include\c++\10.2.1\cmath ****                                     double>::__type
 234:c:\program files\daisytoolchain\arm-none-eabi\include\c++\10.2.1\cmath ****     exp(_Tp __x)
 235:c:\program files\daisytoolchain\arm-none-eabi\include\c++\10.2.1\cmath ****     { return __builtin_exp(__x); }
 236:c:\program files\daisytoolchain\arm-none-eabi\include\c++\10.2.1\cmath **** 
 237:c:\program files\daisytoolchain\arm-none-eabi\include\c++\10.2.1\cmath ****   using ::fabs;
 238:c:\program files\daisytoolchain\arm-none-eabi\include\c++\10.2.1\cmath **** 
 239:c:\program files\daisytoolchain\arm-none-eabi\include\c++\10.2.1\cmath **** #ifndef __CORRECT_ISO_CPP_MATH_H_PROTO
 240:c:\program files\daisytoolchain\arm-none-eabi\include\c++\10.2.1\cmath ****   inline _GLIBCXX_CONSTEXPR float
 241:c:\program files\daisytoolchain\arm-none-eabi\include\c++\10.2.1\cmath ****   fabs(float __x)
 242:c:\program files\daisytoolchain\arm-none-eabi\include\c++\10.2.1\cmath ****   { return __builtin_fabsf(__x); }
 243:c:\program files\daisytoolchain\arm-none-eabi\include\c++\10.2.1\cmath **** 
 244:c:\program files\daisytoolchain\arm-none-eabi\include\c++\10.2.1\cmath ****   inline _GLIBCXX_CONSTEXPR long double
 245:c:\program files\daisytoolchain\arm-none-eabi\include\c++\10.2.1\cmath ****   fabs(long double __x)
 246:c:\program files\daisytoolchain\arm-none-eabi\include\c++\10.2.1\cmath ****   { return __builtin_fabsl(__x); }
 247:c:\program files\daisytoolchain\arm-none-eabi\include\c++\10.2.1\cmath **** #endif
 248:c:\program files\daisytoolchain\arm-none-eabi\include\c++\10.2.1\cmath **** 
 249:c:\program files\daisytoolchain\arm-none-eabi\include\c++\10.2.1\cmath ****   template<typename _Tp>
 250:c:\program files\daisytoolchain\arm-none-eabi\include\c++\10.2.1\cmath ****     inline _GLIBCXX_CONSTEXPR
 251:c:\program files\daisytoolchain\arm-none-eabi\include\c++\10.2.1\cmath ****     typename __gnu_cxx::__enable_if<__is_integer<_Tp>::__value,
 252:c:\program files\daisytoolchain\arm-none-eabi\include\c++\10.2.1\cmath ****                                     double>::__type
 253:c:\program files\daisytoolchain\arm-none-eabi\include\c++\10.2.1\cmath ****     fabs(_Tp __x)
 254:c:\program files\daisytoolchain\arm-none-eabi\include\c++\10.2.1\cmath ****     { return __builtin_fabs(__x); }
 255:c:\program files\daisytoolchain\arm-none-eabi\include\c++\10.2.1\cmath **** 
 256:c:\program files\daisytoolchain\arm-none-eabi\include\c++\10.2.1\cmath ****   using ::floor;
 257:c:\program files\daisytoolchain\arm-none-eabi\include\c++\10.2.1\cmath **** 
 258:c:\program files\daisytoolchain\arm-none-eabi\include\c++\10.2.1\cmath **** #ifndef __CORRECT_ISO_CPP_MATH_H_PROTO
 259:c:\program files\daisytoolchain\arm-none-eabi\include\c++\10.2.1\cmath ****   inline _GLIBCXX_CONSTEXPR float
 260:c:\program files\daisytoolchain\arm-none-eabi\include\c++\10.2.1\cmath ****   floor(float __x)
 261:c:\program files\daisytoolchain\arm-none-eabi\include\c++\10.2.1\cmath ****   { return __builtin_floorf(__x); }
 262:c:\program files\daisytoolchain\arm-none-eabi\include\c++\10.2.1\cmath **** 
 263:c:\program files\daisytoolchain\arm-none-eabi\include\c++\10.2.1\cmath ****   inline _GLIBCXX_CONSTEXPR long double
 264:c:\program files\daisytoolchain\arm-none-eabi\include\c++\10.2.1\cmath ****   floor(long double __x)
 265:c:\program files\daisytoolchain\arm-none-eabi\include\c++\10.2.1\cmath ****   { return __builtin_floorl(__x); }
 266:c:\program files\daisytoolchain\arm-none-eabi\include\c++\10.2.1\cmath **** #endif
 267:c:\program files\daisytoolchain\arm-none-eabi\include\c++\10.2.1\cmath **** 
 268:c:\program files\daisytoolchain\arm-none-eabi\include\c++\10.2.1\cmath ****   template<typename _Tp>
 269:c:\program files\daisytoolchain\arm-none-eabi\include\c++\10.2.1\cmath ****     inline _GLIBCXX_CONSTEXPR
 270:c:\program files\daisytoolchain\arm-none-eabi\include\c++\10.2.1\cmath ****     typename __gnu_cxx::__enable_if<__is_integer<_Tp>::__value,
 271:c:\program files\daisytoolchain\arm-none-eabi\include\c++\10.2.1\cmath ****                                     double>::__type
 272:c:\program files\daisytoolchain\arm-none-eabi\include\c++\10.2.1\cmath ****     floor(_Tp __x)
 273:c:\program files\daisytoolchain\arm-none-eabi\include\c++\10.2.1\cmath ****     { return __builtin_floor(__x); }
 274:c:\program files\daisytoolchain\arm-none-eabi\include\c++\10.2.1\cmath **** 
 275:c:\program files\daisytoolchain\arm-none-eabi\include\c++\10.2.1\cmath ****   using ::fmod;
 276:c:\program files\daisytoolchain\arm-none-eabi\include\c++\10.2.1\cmath **** 
 277:c:\program files\daisytoolchain\arm-none-eabi\include\c++\10.2.1\cmath **** #ifndef __CORRECT_ISO_CPP_MATH_H_PROTO
 278:c:\program files\daisytoolchain\arm-none-eabi\include\c++\10.2.1\cmath ****   inline _GLIBCXX_CONSTEXPR float
ARM GAS  C:\Users\matte\AppData\Local\Temp\cclPkNhc.s 			page 110


 279:c:\program files\daisytoolchain\arm-none-eabi\include\c++\10.2.1\cmath ****   fmod(float __x, float __y)
 280:c:\program files\daisytoolchain\arm-none-eabi\include\c++\10.2.1\cmath ****   { return __builtin_fmodf(__x, __y); }
 281:c:\program files\daisytoolchain\arm-none-eabi\include\c++\10.2.1\cmath **** 
 282:c:\program files\daisytoolchain\arm-none-eabi\include\c++\10.2.1\cmath ****   inline _GLIBCXX_CONSTEXPR long double
 283:c:\program files\daisytoolchain\arm-none-eabi\include\c++\10.2.1\cmath ****   fmod(long double __x, long double __y)
 284:c:\program files\daisytoolchain\arm-none-eabi\include\c++\10.2.1\cmath ****   { return __builtin_fmodl(__x, __y); }
 285:c:\program files\daisytoolchain\arm-none-eabi\include\c++\10.2.1\cmath **** #endif
 286:c:\program files\daisytoolchain\arm-none-eabi\include\c++\10.2.1\cmath **** 
 287:c:\program files\daisytoolchain\arm-none-eabi\include\c++\10.2.1\cmath ****   template<typename _Tp, typename _Up>
 288:c:\program files\daisytoolchain\arm-none-eabi\include\c++\10.2.1\cmath ****     inline _GLIBCXX_CONSTEXPR
 289:c:\program files\daisytoolchain\arm-none-eabi\include\c++\10.2.1\cmath ****     typename __gnu_cxx::__promote_2<_Tp, _Up>::__type
 290:c:\program files\daisytoolchain\arm-none-eabi\include\c++\10.2.1\cmath ****     fmod(_Tp __x, _Up __y)
 291:c:\program files\daisytoolchain\arm-none-eabi\include\c++\10.2.1\cmath ****     {
 292:c:\program files\daisytoolchain\arm-none-eabi\include\c++\10.2.1\cmath ****       typedef typename __gnu_cxx::__promote_2<_Tp, _Up>::__type __type;
 293:c:\program files\daisytoolchain\arm-none-eabi\include\c++\10.2.1\cmath ****       return fmod(__type(__x), __type(__y));
 294:c:\program files\daisytoolchain\arm-none-eabi\include\c++\10.2.1\cmath ****     }
 295:c:\program files\daisytoolchain\arm-none-eabi\include\c++\10.2.1\cmath **** 
 296:c:\program files\daisytoolchain\arm-none-eabi\include\c++\10.2.1\cmath ****   using ::frexp;
 297:c:\program files\daisytoolchain\arm-none-eabi\include\c++\10.2.1\cmath **** 
 298:c:\program files\daisytoolchain\arm-none-eabi\include\c++\10.2.1\cmath **** #ifndef __CORRECT_ISO_CPP_MATH_H_PROTO
 299:c:\program files\daisytoolchain\arm-none-eabi\include\c++\10.2.1\cmath ****   inline float
 300:c:\program files\daisytoolchain\arm-none-eabi\include\c++\10.2.1\cmath ****   frexp(float __x, int* __exp)
 301:c:\program files\daisytoolchain\arm-none-eabi\include\c++\10.2.1\cmath ****   { return __builtin_frexpf(__x, __exp); }
 302:c:\program files\daisytoolchain\arm-none-eabi\include\c++\10.2.1\cmath **** 
 303:c:\program files\daisytoolchain\arm-none-eabi\include\c++\10.2.1\cmath ****   inline long double
 304:c:\program files\daisytoolchain\arm-none-eabi\include\c++\10.2.1\cmath ****   frexp(long double __x, int* __exp)
 305:c:\program files\daisytoolchain\arm-none-eabi\include\c++\10.2.1\cmath ****   { return __builtin_frexpl(__x, __exp); }
 306:c:\program files\daisytoolchain\arm-none-eabi\include\c++\10.2.1\cmath **** #endif
 307:c:\program files\daisytoolchain\arm-none-eabi\include\c++\10.2.1\cmath **** 
 308:c:\program files\daisytoolchain\arm-none-eabi\include\c++\10.2.1\cmath ****   template<typename _Tp>
 309:c:\program files\daisytoolchain\arm-none-eabi\include\c++\10.2.1\cmath ****     inline _GLIBCXX_CONSTEXPR
 310:c:\program files\daisytoolchain\arm-none-eabi\include\c++\10.2.1\cmath ****     typename __gnu_cxx::__enable_if<__is_integer<_Tp>::__value, 
 311:c:\program files\daisytoolchain\arm-none-eabi\include\c++\10.2.1\cmath ****                                     double>::__type
 312:c:\program files\daisytoolchain\arm-none-eabi\include\c++\10.2.1\cmath ****     frexp(_Tp __x, int* __exp)
 313:c:\program files\daisytoolchain\arm-none-eabi\include\c++\10.2.1\cmath ****     { return __builtin_frexp(__x, __exp); }
 314:c:\program files\daisytoolchain\arm-none-eabi\include\c++\10.2.1\cmath **** 
 315:c:\program files\daisytoolchain\arm-none-eabi\include\c++\10.2.1\cmath ****   using ::ldexp;
 316:c:\program files\daisytoolchain\arm-none-eabi\include\c++\10.2.1\cmath **** 
 317:c:\program files\daisytoolchain\arm-none-eabi\include\c++\10.2.1\cmath **** #ifndef __CORRECT_ISO_CPP_MATH_H_PROTO
 318:c:\program files\daisytoolchain\arm-none-eabi\include\c++\10.2.1\cmath ****   inline _GLIBCXX_CONSTEXPR float
 319:c:\program files\daisytoolchain\arm-none-eabi\include\c++\10.2.1\cmath ****   ldexp(float __x, int __exp)
 320:c:\program files\daisytoolchain\arm-none-eabi\include\c++\10.2.1\cmath ****   { return __builtin_ldexpf(__x, __exp); }
 321:c:\program files\daisytoolchain\arm-none-eabi\include\c++\10.2.1\cmath **** 
 322:c:\program files\daisytoolchain\arm-none-eabi\include\c++\10.2.1\cmath ****   inline _GLIBCXX_CONSTEXPR long double
 323:c:\program files\daisytoolchain\arm-none-eabi\include\c++\10.2.1\cmath ****   ldexp(long double __x, int __exp)
 324:c:\program files\daisytoolchain\arm-none-eabi\include\c++\10.2.1\cmath ****   { return __builtin_ldexpl(__x, __exp); }
 325:c:\program files\daisytoolchain\arm-none-eabi\include\c++\10.2.1\cmath **** #endif
 326:c:\program files\daisytoolchain\arm-none-eabi\include\c++\10.2.1\cmath **** 
 327:c:\program files\daisytoolchain\arm-none-eabi\include\c++\10.2.1\cmath ****   template<typename _Tp>
 328:c:\program files\daisytoolchain\arm-none-eabi\include\c++\10.2.1\cmath ****     inline _GLIBCXX_CONSTEXPR
 329:c:\program files\daisytoolchain\arm-none-eabi\include\c++\10.2.1\cmath ****     typename __gnu_cxx::__enable_if<__is_integer<_Tp>::__value, 
 330:c:\program files\daisytoolchain\arm-none-eabi\include\c++\10.2.1\cmath ****                                     double>::__type
 331:c:\program files\daisytoolchain\arm-none-eabi\include\c++\10.2.1\cmath ****     ldexp(_Tp __x, int __exp)
 332:c:\program files\daisytoolchain\arm-none-eabi\include\c++\10.2.1\cmath ****     { return __builtin_ldexp(__x, __exp); }
 333:c:\program files\daisytoolchain\arm-none-eabi\include\c++\10.2.1\cmath **** 
 334:c:\program files\daisytoolchain\arm-none-eabi\include\c++\10.2.1\cmath ****   using ::log;
 335:c:\program files\daisytoolchain\arm-none-eabi\include\c++\10.2.1\cmath **** 
ARM GAS  C:\Users\matte\AppData\Local\Temp\cclPkNhc.s 			page 111


 336:c:\program files\daisytoolchain\arm-none-eabi\include\c++\10.2.1\cmath **** #ifndef __CORRECT_ISO_CPP_MATH_H_PROTO
 337:c:\program files\daisytoolchain\arm-none-eabi\include\c++\10.2.1\cmath ****   inline _GLIBCXX_CONSTEXPR float
 338:c:\program files\daisytoolchain\arm-none-eabi\include\c++\10.2.1\cmath ****   log(float __x)
 339:c:\program files\daisytoolchain\arm-none-eabi\include\c++\10.2.1\cmath ****   { return __builtin_logf(__x); }
 340:c:\program files\daisytoolchain\arm-none-eabi\include\c++\10.2.1\cmath **** 
 341:c:\program files\daisytoolchain\arm-none-eabi\include\c++\10.2.1\cmath ****   inline _GLIBCXX_CONSTEXPR long double
 342:c:\program files\daisytoolchain\arm-none-eabi\include\c++\10.2.1\cmath ****   log(long double __x)
 343:c:\program files\daisytoolchain\arm-none-eabi\include\c++\10.2.1\cmath ****   { return __builtin_logl(__x); }
 344:c:\program files\daisytoolchain\arm-none-eabi\include\c++\10.2.1\cmath **** #endif
 345:c:\program files\daisytoolchain\arm-none-eabi\include\c++\10.2.1\cmath **** 
 346:c:\program files\daisytoolchain\arm-none-eabi\include\c++\10.2.1\cmath ****   template<typename _Tp>
 347:c:\program files\daisytoolchain\arm-none-eabi\include\c++\10.2.1\cmath ****     inline _GLIBCXX_CONSTEXPR
 348:c:\program files\daisytoolchain\arm-none-eabi\include\c++\10.2.1\cmath ****     typename __gnu_cxx::__enable_if<__is_integer<_Tp>::__value, 
 349:c:\program files\daisytoolchain\arm-none-eabi\include\c++\10.2.1\cmath ****                                     double>::__type
 350:c:\program files\daisytoolchain\arm-none-eabi\include\c++\10.2.1\cmath ****     log(_Tp __x)
 351:c:\program files\daisytoolchain\arm-none-eabi\include\c++\10.2.1\cmath ****     { return __builtin_log(__x); }
 352:c:\program files\daisytoolchain\arm-none-eabi\include\c++\10.2.1\cmath **** 
 353:c:\program files\daisytoolchain\arm-none-eabi\include\c++\10.2.1\cmath ****   using ::log10;
 354:c:\program files\daisytoolchain\arm-none-eabi\include\c++\10.2.1\cmath **** 
 355:c:\program files\daisytoolchain\arm-none-eabi\include\c++\10.2.1\cmath **** #ifndef __CORRECT_ISO_CPP_MATH_H_PROTO
 356:c:\program files\daisytoolchain\arm-none-eabi\include\c++\10.2.1\cmath ****   inline _GLIBCXX_CONSTEXPR float
 357:c:\program files\daisytoolchain\arm-none-eabi\include\c++\10.2.1\cmath ****   log10(float __x)
 358:c:\program files\daisytoolchain\arm-none-eabi\include\c++\10.2.1\cmath ****   { return __builtin_log10f(__x); }
 359:c:\program files\daisytoolchain\arm-none-eabi\include\c++\10.2.1\cmath **** 
 360:c:\program files\daisytoolchain\arm-none-eabi\include\c++\10.2.1\cmath ****   inline _GLIBCXX_CONSTEXPR long double
 361:c:\program files\daisytoolchain\arm-none-eabi\include\c++\10.2.1\cmath ****   log10(long double __x)
 362:c:\program files\daisytoolchain\arm-none-eabi\include\c++\10.2.1\cmath ****   { return __builtin_log10l(__x); }
 363:c:\program files\daisytoolchain\arm-none-eabi\include\c++\10.2.1\cmath **** #endif
 364:c:\program files\daisytoolchain\arm-none-eabi\include\c++\10.2.1\cmath **** 
 365:c:\program files\daisytoolchain\arm-none-eabi\include\c++\10.2.1\cmath ****   template<typename _Tp>
 366:c:\program files\daisytoolchain\arm-none-eabi\include\c++\10.2.1\cmath ****     inline _GLIBCXX_CONSTEXPR
 367:c:\program files\daisytoolchain\arm-none-eabi\include\c++\10.2.1\cmath ****     typename __gnu_cxx::__enable_if<__is_integer<_Tp>::__value,
 368:c:\program files\daisytoolchain\arm-none-eabi\include\c++\10.2.1\cmath ****                                     double>::__type
 369:c:\program files\daisytoolchain\arm-none-eabi\include\c++\10.2.1\cmath ****     log10(_Tp __x)
 370:c:\program files\daisytoolchain\arm-none-eabi\include\c++\10.2.1\cmath ****     { return __builtin_log10(__x); }
 371:c:\program files\daisytoolchain\arm-none-eabi\include\c++\10.2.1\cmath **** 
 372:c:\program files\daisytoolchain\arm-none-eabi\include\c++\10.2.1\cmath ****   using ::modf;
 373:c:\program files\daisytoolchain\arm-none-eabi\include\c++\10.2.1\cmath **** 
 374:c:\program files\daisytoolchain\arm-none-eabi\include\c++\10.2.1\cmath **** #ifndef __CORRECT_ISO_CPP_MATH_H_PROTO
 375:c:\program files\daisytoolchain\arm-none-eabi\include\c++\10.2.1\cmath ****   inline float
 376:c:\program files\daisytoolchain\arm-none-eabi\include\c++\10.2.1\cmath ****   modf(float __x, float* __iptr)
 377:c:\program files\daisytoolchain\arm-none-eabi\include\c++\10.2.1\cmath ****   { return __builtin_modff(__x, __iptr); }
 378:c:\program files\daisytoolchain\arm-none-eabi\include\c++\10.2.1\cmath **** 
 379:c:\program files\daisytoolchain\arm-none-eabi\include\c++\10.2.1\cmath ****   inline long double
 380:c:\program files\daisytoolchain\arm-none-eabi\include\c++\10.2.1\cmath ****   modf(long double __x, long double* __iptr)
 381:c:\program files\daisytoolchain\arm-none-eabi\include\c++\10.2.1\cmath ****   { return __builtin_modfl(__x, __iptr); }
 382:c:\program files\daisytoolchain\arm-none-eabi\include\c++\10.2.1\cmath **** #endif
 383:c:\program files\daisytoolchain\arm-none-eabi\include\c++\10.2.1\cmath **** 
 384:c:\program files\daisytoolchain\arm-none-eabi\include\c++\10.2.1\cmath ****   using ::pow;
 385:c:\program files\daisytoolchain\arm-none-eabi\include\c++\10.2.1\cmath **** 
 386:c:\program files\daisytoolchain\arm-none-eabi\include\c++\10.2.1\cmath **** #ifndef __CORRECT_ISO_CPP_MATH_H_PROTO
 387:c:\program files\daisytoolchain\arm-none-eabi\include\c++\10.2.1\cmath ****   inline _GLIBCXX_CONSTEXPR float
 388:c:\program files\daisytoolchain\arm-none-eabi\include\c++\10.2.1\cmath ****   pow(float __x, float __y)
 389:c:\program files\daisytoolchain\arm-none-eabi\include\c++\10.2.1\cmath ****   { return __builtin_powf(__x, __y); }
 390:c:\program files\daisytoolchain\arm-none-eabi\include\c++\10.2.1\cmath **** 
 391:c:\program files\daisytoolchain\arm-none-eabi\include\c++\10.2.1\cmath ****   inline _GLIBCXX_CONSTEXPR long double
 392:c:\program files\daisytoolchain\arm-none-eabi\include\c++\10.2.1\cmath ****   pow(long double __x, long double __y)
ARM GAS  C:\Users\matte\AppData\Local\Temp\cclPkNhc.s 			page 112


 393:c:\program files\daisytoolchain\arm-none-eabi\include\c++\10.2.1\cmath ****   { return __builtin_powl(__x, __y); }
 394:c:\program files\daisytoolchain\arm-none-eabi\include\c++\10.2.1\cmath **** 
 395:c:\program files\daisytoolchain\arm-none-eabi\include\c++\10.2.1\cmath **** #if __cplusplus < 201103L
 396:c:\program files\daisytoolchain\arm-none-eabi\include\c++\10.2.1\cmath ****   // _GLIBCXX_RESOLVE_LIB_DEFECTS
 397:c:\program files\daisytoolchain\arm-none-eabi\include\c++\10.2.1\cmath ****   // DR 550. What should the return type of pow(float,int) be?
 398:c:\program files\daisytoolchain\arm-none-eabi\include\c++\10.2.1\cmath ****   inline double
 399:c:\program files\daisytoolchain\arm-none-eabi\include\c++\10.2.1\cmath ****   pow(double __x, int __i)
 400:c:\program files\daisytoolchain\arm-none-eabi\include\c++\10.2.1\cmath ****   { return __builtin_powi(__x, __i); }
 401:c:\program files\daisytoolchain\arm-none-eabi\include\c++\10.2.1\cmath **** 
 402:c:\program files\daisytoolchain\arm-none-eabi\include\c++\10.2.1\cmath ****   inline float
 403:c:\program files\daisytoolchain\arm-none-eabi\include\c++\10.2.1\cmath ****   pow(float __x, int __n)
 404:c:\program files\daisytoolchain\arm-none-eabi\include\c++\10.2.1\cmath ****   { return __builtin_powif(__x, __n); }
 405:c:\program files\daisytoolchain\arm-none-eabi\include\c++\10.2.1\cmath **** 
 406:c:\program files\daisytoolchain\arm-none-eabi\include\c++\10.2.1\cmath ****   inline long double
 407:c:\program files\daisytoolchain\arm-none-eabi\include\c++\10.2.1\cmath ****   pow(long double __x, int __n)
 408:c:\program files\daisytoolchain\arm-none-eabi\include\c++\10.2.1\cmath ****   { return __builtin_powil(__x, __n); }
 409:c:\program files\daisytoolchain\arm-none-eabi\include\c++\10.2.1\cmath **** #endif
 410:c:\program files\daisytoolchain\arm-none-eabi\include\c++\10.2.1\cmath **** #endif
 411:c:\program files\daisytoolchain\arm-none-eabi\include\c++\10.2.1\cmath **** 
 412:c:\program files\daisytoolchain\arm-none-eabi\include\c++\10.2.1\cmath ****   template<typename _Tp, typename _Up>
 413:c:\program files\daisytoolchain\arm-none-eabi\include\c++\10.2.1\cmath ****     inline _GLIBCXX_CONSTEXPR
 414:c:\program files\daisytoolchain\arm-none-eabi\include\c++\10.2.1\cmath ****     typename __gnu_cxx::__promote_2<_Tp, _Up>::__type
 415:c:\program files\daisytoolchain\arm-none-eabi\include\c++\10.2.1\cmath ****     pow(_Tp __x, _Up __y)
 416:c:\program files\daisytoolchain\arm-none-eabi\include\c++\10.2.1\cmath ****     {
 417:c:\program files\daisytoolchain\arm-none-eabi\include\c++\10.2.1\cmath ****       typedef typename __gnu_cxx::__promote_2<_Tp, _Up>::__type __type;
 418:c:\program files\daisytoolchain\arm-none-eabi\include\c++\10.2.1\cmath ****       return pow(__type(__x), __type(__y));
 419:c:\program files\daisytoolchain\arm-none-eabi\include\c++\10.2.1\cmath ****     }
 420:c:\program files\daisytoolchain\arm-none-eabi\include\c++\10.2.1\cmath **** 
 421:c:\program files\daisytoolchain\arm-none-eabi\include\c++\10.2.1\cmath ****   using ::sin;
 422:c:\program files\daisytoolchain\arm-none-eabi\include\c++\10.2.1\cmath **** 
 423:c:\program files\daisytoolchain\arm-none-eabi\include\c++\10.2.1\cmath **** #ifndef __CORRECT_ISO_CPP_MATH_H_PROTO
 424:c:\program files\daisytoolchain\arm-none-eabi\include\c++\10.2.1\cmath ****   inline _GLIBCXX_CONSTEXPR float
 425:c:\program files\daisytoolchain\arm-none-eabi\include\c++\10.2.1\cmath ****   sin(float __x)
 426:c:\program files\daisytoolchain\arm-none-eabi\include\c++\10.2.1\cmath ****   { return __builtin_sinf(__x); }
 3648              		.loc 13 426 26 view .LVU811
 3649 0068 B0EE680A 		vmov.f32	s0, s17
 3650 006c FFF7FEFF 		bl	sinf
 3651              	.LVL250:
 3652              	.LBE1210:
 3653              	.LBE1209:
 316:../../libs/libDaisy/src/sys/../../../../libs/libDaisy/src/hid/disp/display.h ****         end_x   = cos(end_angle_rad) * radius;
 3654              		.loc 9 316 17 view .LVU812
 3655 0070 60EE698A 		vnmul.f32	s17, s0, s19
 3656              	.LVL251:
 3657              	.LBB1212:
 3658              	.LBB1213:
 185:c:\program files\daisytoolchain\arm-none-eabi\include\c++\10.2.1\cmath **** 
 3659              		.loc 13 185 26 view .LVU813
 3660 0074 B0EE4A0A 		vmov.f32	s0, s20
 3661 0078 FFF7FEFF 		bl	cosf
 3662              	.LVL252:
 3663 007c B0EE409A 		vmov.f32	s18, s0
 3664              	.LBE1213:
 3665              	.LBE1212:
 3666              	.LBB1215:
 3667              	.LBB1216:
 3668              		.loc 13 426 26 view .LVU814
ARM GAS  C:\Users\matte\AppData\Local\Temp\cclPkNhc.s 			page 113


 3669 0080 B0EE4A0A 		vmov.f32	s0, s20
 3670 0084 FFF7FEFF 		bl	sinf
 3671              	.LVL253:
 3672              	.LBE1216:
 3673              	.LBE1215:
 318:../../libs/libDaisy/src/sys/../../../../libs/libDaisy/src/hid/disp/display.h **** 
 3674              		.loc 9 318 17 view .LVU815
 3675 0088 20EE690A 		vnmul.f32	s0, s0, s19
 315:../../libs/libDaisy/src/sys/../../../../libs/libDaisy/src/hid/disp/display.h ****         start_y = -sin(start_angle_rad) * radius;
 3676              		.loc 9 315 17 view .LVU816
 3677 008c 29EE888A 		vmul.f32	s16, s19, s16
 3678              	.LVL254:
 3679              	.LBB1218:
 3680              	.LBI1209:
 425:c:\program files\daisytoolchain\arm-none-eabi\include\c++\10.2.1\cmath ****   { return __builtin_sinf(__x); }
 3681              		.loc 13 425 3 is_stmt 1 view .LVU817
 3682              	.LBB1211:
 3683              		.loc 13 426 5 view .LVU818
 3684              		.loc 13 426 5 is_stmt 0 view .LVU819
 3685              	.LBE1211:
 3686              	.LBE1218:
 3687              	.LBB1219:
 3688              	.LBI1212:
 184:c:\program files\daisytoolchain\arm-none-eabi\include\c++\10.2.1\cmath ****   { return __builtin_cosf(__x); }
 3689              		.loc 13 184 3 is_stmt 1 view .LVU820
 3690              	.LBB1214:
 185:c:\program files\daisytoolchain\arm-none-eabi\include\c++\10.2.1\cmath **** 
 3691              		.loc 13 185 5 view .LVU821
 185:c:\program files\daisytoolchain\arm-none-eabi\include\c++\10.2.1\cmath **** 
 3692              		.loc 13 185 5 is_stmt 0 view .LVU822
 3693              	.LBE1214:
 3694              	.LBE1219:
 317:../../libs/libDaisy/src/sys/../../../../libs/libDaisy/src/hid/disp/display.h ****         end_y   = -sin(end_angle_rad) * radius;
 3695              		.loc 9 317 17 view .LVU823
 3696 0090 29EE899A 		vmul.f32	s18, s19, s18
 3697              	.LVL255:
 3698              	.LBB1220:
 3699              	.LBI1215:
 425:c:\program files\daisytoolchain\arm-none-eabi\include\c++\10.2.1\cmath ****   { return __builtin_sinf(__x); }
 3700              		.loc 13 425 3 is_stmt 1 view .LVU824
 3701              	.LBB1217:
 3702              		.loc 13 426 5 view .LVU825
 3703              		.loc 13 426 5 is_stmt 0 view .LVU826
 3704              	.LBE1217:
 3705              	.LBE1220:
 322:../../libs/libDaisy/src/sys/../../../../libs/libDaisy/src/hid/disp/display.h ****            < 2.0f)
 3706              		.loc 9 322 25 view .LVU827
 3707 0094 70EE687A 		vsub.f32	s15, s0, s17
 321:../../libs/libDaisy/src/sys/../../../../libs/libDaisy/src/hid/disp/display.h ****                + (end_y - start_y) * (end_y - start_y)
 3708              		.loc 9 321 9 view .LVU828
 3709 0098 F0EE006A 		vmov.f32	s13, #2.0e+0
 321:../../libs/libDaisy/src/sys/../../../../libs/libDaisy/src/hid/disp/display.h ****                + (end_y - start_y) * (end_y - start_y)
 3710              		.loc 9 321 19 view .LVU829
 3711 009c 39EE487A 		vsub.f32	s14, s18, s16
 322:../../libs/libDaisy/src/sys/../../../../libs/libDaisy/src/hid/disp/display.h ****            < 2.0f)
 3712              		.loc 9 322 36 view .LVU830
 3713 00a0 67EEA77A 		vmul.f32	s15, s15, s15
ARM GAS  C:\Users\matte\AppData\Local\Temp\cclPkNhc.s 			page 114


 322:../../libs/libDaisy/src/sys/../../../../libs/libDaisy/src/hid/disp/display.h ****            < 2.0f)
 3714              		.loc 9 322 16 view .LVU831
 3715 00a4 E7EE077A 		vfma.f32	s15, s14, s14
 321:../../libs/libDaisy/src/sys/../../../../libs/libDaisy/src/hid/disp/display.h ****                + (end_y - start_y) * (end_y - start_y)
 3716              		.loc 9 321 9 view .LVU832
 3717 00a8 F4EEE67A 		vcmpe.f32	s15, s13
 3718 00ac F1EE10FA 		vmrs	APSR_nzcv, FPSCR
 3719 00b0 06D5     		bpl	.L297
 325:../../libs/libDaisy/src/sys/../../../../libs/libDaisy/src/hid/disp/display.h ****                 circle = true;
 3720              		.loc 9 325 13 view .LVU833
 3721 00b2 139B     		ldr	r3, [sp, #76]
 3722 00b4 B42B     		cmp	r3, #180
 3723 00b6 40F39680 		ble	.L238
 326:../../libs/libDaisy/src/sys/../../../../libs/libDaisy/src/hid/disp/display.h ****             else
 3724              		.loc 9 326 24 view .LVU834
 3725 00ba 4FF00109 		mov	r9, #1
 3726 00be 01E0     		b	.L241
 3727              	.L297:
 304:../../libs/libDaisy/src/sys/../../../../libs/libDaisy/src/hid/disp/display.h **** 
 3728              		.loc 9 304 14 view .LVU835
 3729 00c0 4FF00009 		mov	r9, #0
 3730              	.L241:
 3731              	.LVL256:
 302:../../libs/libDaisy/src/sys/../../../../libs/libDaisy/src/hid/disp/display.h **** 
 3732              		.loc 9 302 27 view .LVU836
 3733 00c4 0124     		movs	r4, #1
 332:../../libs/libDaisy/src/sys/../../../../libs/libDaisy/src/hid/disp/display.h ****         t_y = 0;
 3734              		.loc 9 332 13 view .LVU837
 3735 00c6 7842     		rsbs	r0, r7, #0
 3736              	.LVL257:
 333:../../libs/libDaisy/src/sys/../../../../libs/libDaisy/src/hid/disp/display.h ****         err = 2 - 2 * radius;
 3737              		.loc 9 333 13 view .LVU838
 3738 00c8 4FF0000C 		mov	ip, #0
 3739 00cc 0095     		str	r5, [sp]
 334:../../libs/libDaisy/src/sys/../../../../libs/libDaisy/src/hid/disp/display.h **** 
 3740              		.loc 9 334 17 view .LVU839
 3741 00ce E31B     		subs	r3, r4, r7
 302:../../libs/libDaisy/src/sys/../../../../libs/libDaisy/src/hid/disp/display.h **** 
 3742              		.loc 9 302 17 view .LVU840
 3743 00d0 2146     		mov	r1, r4
 302:../../libs/libDaisy/src/sys/../../../../libs/libDaisy/src/hid/disp/display.h **** 
 3744              		.loc 9 302 22 view .LVU841
 3745 00d2 2746     		mov	r7, r4
 3746              	.LVL258:
 302:../../libs/libDaisy/src/sys/../../../../libs/libDaisy/src/hid/disp/display.h **** 
 3747              		.loc 9 302 12 view .LVU842
 3748 00d4 2246     		mov	r2, r4
 334:../../libs/libDaisy/src/sys/../../../../libs/libDaisy/src/hid/disp/display.h **** 
 3749              		.loc 9 334 17 view .LVU843
 3750 00d6 A340     		lsls	r3, r3, r4
 3751              	.LVL259:
 3752              	.L267:
 338:../../libs/libDaisy/src/sys/../../../../libs/libDaisy/src/hid/disp/display.h ****             {
 3753              		.loc 9 338 13 view .LVU844
 3754 00d8 B9F1000F 		cmp	r9, #0
 3755 00dc 6AD1     		bne	.L243
 343:../../libs/libDaisy/src/sys/../../../../libs/libDaisy/src/hid/disp/display.h ****                 t_exy  = end_x * t_y;
ARM GAS  C:\Users\matte\AppData\Local\Temp\cclPkNhc.s 			page 115


 3756              		.loc 9 343 34 view .LVU845
 3757 00de 4242     		rsbs	r2, r0, #0
 3758              	.LVL260:
 340:../../libs/libDaisy/src/sys/../../../../libs/libDaisy/src/hid/disp/display.h ****                 t_syx  = start_y * t_x;
 3759              		.loc 9 340 24 view .LVU846
 3760 00e0 06EE90CA 		vmov	s13, ip	@ int
 342:../../libs/libDaisy/src/sys/../../../../libs/libDaisy/src/hid/disp/display.h ****                 t_synx = start_y * -t_x;
 3761              		.loc 9 342 34 view .LVU847
 3762 00e4 CCF10001 		rsb	r1, ip, #0
 3763              	.LVL261:
 343:../../libs/libDaisy/src/sys/../../../../libs/libDaisy/src/hid/disp/display.h ****                 t_exy  = end_x * t_y;
 3764              		.loc 9 343 34 view .LVU848
 3765 00e8 07EE102A 		vmov	s14, r2	@ int
 340:../../libs/libDaisy/src/sys/../../../../libs/libDaisy/src/hid/disp/display.h ****                 t_syx  = start_y * t_x;
 3766              		.loc 9 340 24 view .LVU849
 3767 00ec B8EEE66A 		vcvt.f32.s32	s12, s13
 342:../../libs/libDaisy/src/sys/../../../../libs/libDaisy/src/hid/disp/display.h ****                 t_synx = start_y * -t_x;
 3768              		.loc 9 342 34 view .LVU850
 3769 00f0 07EE901A 		vmov	s15, r1	@ int
 341:../../libs/libDaisy/src/sys/../../../../libs/libDaisy/src/hid/disp/display.h ****                 t_sxny = start_x * -t_y;
 3770              		.loc 9 341 24 view .LVU851
 3771 00f4 06EE900A 		vmov	s13, r0	@ int
 343:../../libs/libDaisy/src/sys/../../../../libs/libDaisy/src/hid/disp/display.h ****                 t_exy  = end_x * t_y;
 3772              		.loc 9 343 34 view .LVU852
 3773 00f8 B8EEC77A 		vcvt.f32.s32	s14, s14
 349:../../libs/libDaisy/src/sys/../../../../libs/libDaisy/src/hid/disp/display.h ****                 {
 3774              		.loc 9 349 17 view .LVU853
 3775 00fc 139A     		ldr	r2, [sp, #76]
 340:../../libs/libDaisy/src/sys/../../../../libs/libDaisy/src/hid/disp/display.h ****                 t_syx  = start_y * t_x;
 3776              		.loc 9 340 24 view .LVU854
 3777 00fe 66EE084A 		vmul.f32	s9, s12, s16
 3778              	.LVL262:
 342:../../libs/libDaisy/src/sys/../../../../libs/libDaisy/src/hid/disp/display.h ****                 t_synx = start_y * -t_x;
 3779              		.loc 9 342 34 view .LVU855
 3780 0102 F8EEE77A 		vcvt.f32.s32	s15, s15
 349:../../libs/libDaisy/src/sys/../../../../libs/libDaisy/src/hid/disp/display.h ****                 {
 3781              		.loc 9 349 17 view .LVU856
 3782 0106 B42A     		cmp	r2, #180
 343:../../libs/libDaisy/src/sys/../../../../libs/libDaisy/src/hid/disp/display.h ****                 t_exy  = end_x * t_y;
 3783              		.loc 9 343 24 view .LVU857
 3784 0108 27EE284A 		vmul.f32	s8, s14, s17
 341:../../libs/libDaisy/src/sys/../../../../libs/libDaisy/src/hid/disp/display.h ****                 t_sxny = start_x * -t_y;
 3785              		.loc 9 341 24 view .LVU858
 3786 010c F8EEE66A 		vcvt.f32.s32	s13, s13
 342:../../libs/libDaisy/src/sys/../../../../libs/libDaisy/src/hid/disp/display.h ****                 t_synx = start_y * -t_x;
 3787              		.loc 9 342 24 view .LVU859
 3788 0110 67EE885A 		vmul.f32	s11, s15, s16
 351:../../libs/libDaisy/src/sys/../../../../libs/libDaisy/src/hid/disp/display.h ****                     d2 = (t_sxy - t_syx < 0 || t_exy - t_eyx > 0);
 3789              		.loc 9 351 33 view .LVU860
 3790 0114 74EEC43A 		vsub.f32	s7, s9, s8
 341:../../libs/libDaisy/src/sys/../../../../libs/libDaisy/src/hid/disp/display.h ****                 t_sxny = start_x * -t_y;
 3791              		.loc 9 341 24 view .LVU861
 3792 0118 26EEA85A 		vmul.f32	s10, s13, s17
 3793              	.LVL263:
 344:../../libs/libDaisy/src/sys/../../../../libs/libDaisy/src/hid/disp/display.h ****                 t_eyx  = end_y * t_x;
 3794              		.loc 9 344 24 view .LVU862
 3795 011c 26EE096A 		vmul.f32	s12, s12, s18
ARM GAS  C:\Users\matte\AppData\Local\Temp\cclPkNhc.s 			page 116


 3796              	.LVL264:
 345:../../libs/libDaisy/src/sys/../../../../libs/libDaisy/src/hid/disp/display.h ****                 t_exny = end_x * -t_y;
 3797              		.loc 9 345 24 view .LVU863
 3798 0120 66EE806A 		vmul.f32	s13, s13, s0
 3799              	.LVL265:
 346:../../libs/libDaisy/src/sys/../../../../libs/libDaisy/src/hid/disp/display.h ****                 t_eynx = end_y * -t_x;
 3800              		.loc 9 346 24 view .LVU864
 3801 0124 67EE897A 		vmul.f32	s15, s15, s18
 3802              	.LVL266:
 347:../../libs/libDaisy/src/sys/../../../../libs/libDaisy/src/hid/disp/display.h **** 
 3803              		.loc 9 347 24 view .LVU865
 3804 0128 27EE007A 		vmul.f32	s14, s14, s0
 3805              	.LVL267:
 351:../../libs/libDaisy/src/sys/../../../../libs/libDaisy/src/hid/disp/display.h ****                     d2 = (t_sxy - t_syx < 0 || t_exy - t_eyx > 0);
 3806              		.loc 9 351 46 view .LVU866
 3807 012c F5EEC03A 		vcmpe.f32	s7, #0
 349:../../libs/libDaisy/src/sys/../../../../libs/libDaisy/src/hid/disp/display.h ****                 {
 3808              		.loc 9 349 17 view .LVU867
 3809 0130 40F3F280 		ble	.L244
 351:../../libs/libDaisy/src/sys/../../../../libs/libDaisy/src/hid/disp/display.h ****                     d2 = (t_sxy - t_syx < 0 || t_exy - t_eyx > 0);
 3810              		.loc 9 351 46 view .LVU868
 3811 0134 F1EE10FA 		vmrs	APSR_nzcv, FPSCR
 3812 0138 00F17F81 		bmi	.L270
 351:../../libs/libDaisy/src/sys/../../../../libs/libDaisy/src/hid/disp/display.h ****                     d2 = (t_sxy - t_syx < 0 || t_exy - t_eyx > 0);
 3813              		.loc 9 351 55 discriminator 2 view .LVU869
 3814 013c 76EE473A 		vsub.f32	s7, s12, s14
 352:../../libs/libDaisy/src/sys/../../../../libs/libDaisy/src/hid/disp/display.h ****                     d3 = (t_sxny - t_syx < 0 || t_exny - t_eyx > 0);
 3815              		.loc 9 352 33 discriminator 2 view .LVU870
 3816 0140 74EEC54A 		vsub.f32	s9, s9, s10
 3817              	.LVL268:
 351:../../libs/libDaisy/src/sys/../../../../libs/libDaisy/src/hid/disp/display.h ****                     d2 = (t_sxy - t_syx < 0 || t_exy - t_eyx > 0);
 3818              		.loc 9 351 46 discriminator 2 view .LVU871
 3819 0144 F5EEC03A 		vcmpe.f32	s7, #0
 3820 0148 F1EE10FA 		vmrs	APSR_nzcv, FPSCR
 352:../../libs/libDaisy/src/sys/../../../../libs/libDaisy/src/hid/disp/display.h ****                     d3 = (t_sxny - t_syx < 0 || t_exny - t_eyx > 0);
 3821              		.loc 9 352 45 discriminator 2 view .LVU872
 3822 014c F5EEC04A 		vcmpe.f32	s9, #0
 351:../../libs/libDaisy/src/sys/../../../../libs/libDaisy/src/hid/disp/display.h ****                     d2 = (t_sxy - t_syx < 0 || t_exy - t_eyx > 0);
 3823              		.loc 9 351 46 discriminator 2 view .LVU873
 3824 0150 CCBF     		ite	gt
 3825 0152 0122     		movgt	r2, #1
 3826 0154 0022     		movle	r2, #0
 3827              	.LVL269:
 352:../../libs/libDaisy/src/sys/../../../../libs/libDaisy/src/hid/disp/display.h ****                     d3 = (t_sxny - t_syx < 0 || t_exny - t_eyx > 0);
 3828              		.loc 9 352 45 discriminator 2 view .LVU874
 3829 0156 F1EE10FA 		vmrs	APSR_nzcv, FPSCR
 3830 015a 00F17781 		bmi	.L271
 3831              	.L313:
 352:../../libs/libDaisy/src/sys/../../../../libs/libDaisy/src/hid/disp/display.h ****                     d3 = (t_sxny - t_syx < 0 || t_exny - t_eyx > 0);
 3832              		.loc 9 352 54 discriminator 2 view .LVU875
 3833 015e 36EE666A 		vsub.f32	s12, s12, s13
 3834              	.LVL270:
 353:../../libs/libDaisy/src/sys/../../../../libs/libDaisy/src/hid/disp/display.h ****                     d4 = (t_sxny - t_synx < 0 || t_exny - t_eynx > 0);
 3835              		.loc 9 353 34 discriminator 2 view .LVU876
 3836 0162 35EEC55A 		vsub.f32	s10, s11, s10
 3837              	.LVL271:
 352:../../libs/libDaisy/src/sys/../../../../libs/libDaisy/src/hid/disp/display.h ****                     d3 = (t_sxny - t_syx < 0 || t_exny - t_eyx > 0);
ARM GAS  C:\Users\matte\AppData\Local\Temp\cclPkNhc.s 			page 117


 3838              		.loc 9 352 45 discriminator 2 view .LVU877
 3839 0166 B5EEC06A 		vcmpe.f32	s12, #0
 3840 016a F1EE10FA 		vmrs	APSR_nzcv, FPSCR
 353:../../libs/libDaisy/src/sys/../../../../libs/libDaisy/src/hid/disp/display.h ****                     d4 = (t_sxny - t_synx < 0 || t_exny - t_eynx > 0);
 3841              		.loc 9 353 46 discriminator 2 view .LVU878
 3842 016e B5EEC05A 		vcmpe.f32	s10, #0
 352:../../libs/libDaisy/src/sys/../../../../libs/libDaisy/src/hid/disp/display.h ****                     d3 = (t_sxny - t_syx < 0 || t_exny - t_eyx > 0);
 3843              		.loc 9 352 45 discriminator 2 view .LVU879
 3844 0172 CCBF     		ite	gt
 3845 0174 0121     		movgt	r1, #1
 3846 0176 0021     		movle	r1, #0
 3847              	.LVL272:
 353:../../libs/libDaisy/src/sys/../../../../libs/libDaisy/src/hid/disp/display.h ****                     d4 = (t_sxny - t_synx < 0 || t_exny - t_eynx > 0);
 3848              		.loc 9 353 46 discriminator 2 view .LVU880
 3849 0178 F1EE10FA 		vmrs	APSR_nzcv, FPSCR
 3850 017c 00F16F81 		bmi	.L272
 3851              	.L314:
 353:../../libs/libDaisy/src/sys/../../../../libs/libDaisy/src/hid/disp/display.h ****                     d4 = (t_sxny - t_synx < 0 || t_exny - t_eynx > 0);
 3852              		.loc 9 353 56 discriminator 2 view .LVU881
 3853 0180 77EEE66A 		vsub.f32	s13, s15, s13
 3854              	.LVL273:
 353:../../libs/libDaisy/src/sys/../../../../libs/libDaisy/src/hid/disp/display.h ****                     d4 = (t_sxny - t_synx < 0 || t_exny - t_eynx > 0);
 3855              		.loc 9 353 46 discriminator 2 view .LVU882
 3856 0184 F5EEC06A 		vcmpe.f32	s13, #0
 3857 0188 F1EE10FA 		vmrs	APSR_nzcv, FPSCR
 3858 018c CCBF     		ite	gt
 3859 018e 0127     		movgt	r7, #1
 3860              	.LVL274:
 353:../../libs/libDaisy/src/sys/../../../../libs/libDaisy/src/hid/disp/display.h ****                     d4 = (t_sxny - t_synx < 0 || t_exny - t_eynx > 0);
 3861              		.loc 9 353 46 discriminator 2 view .LVU883
 3862 0190 0027     		movle	r7, #0
 3863              	.L247:
 3864              	.LVL275:
 354:../../libs/libDaisy/src/sys/../../../../libs/libDaisy/src/hid/disp/display.h ****                 }
 3865              		.loc 9 354 34 discriminator 6 view .LVU884
 3866 0192 75EEC45A 		vsub.f32	s11, s11, s8
 3867              	.LVL276:
 354:../../libs/libDaisy/src/sys/../../../../libs/libDaisy/src/hid/disp/display.h ****                 }
 3868              		.loc 9 354 47 discriminator 6 view .LVU885
 3869 0196 F5EEC05A 		vcmpe.f32	s11, #0
 3870 019a F1EE10FA 		vmrs	APSR_nzcv, FPSCR
 3871 019e 00F14781 		bmi	.L273
 3872              	.L303:
 361:../../libs/libDaisy/src/sys/../../../../libs/libDaisy/src/hid/disp/display.h ****                 }
 3873              		.loc 9 361 57 discriminator 1 view .LVU886
 3874 01a2 77EEC77A 		vsub.f32	s15, s15, s14
 3875              	.LVL277:
 361:../../libs/libDaisy/src/sys/../../../../libs/libDaisy/src/hid/disp/display.h ****                 }
 3876              		.loc 9 361 47 discriminator 1 view .LVU887
 3877 01a6 F5EEC07A 		vcmpe.f32	s15, #0
 3878 01aa F1EE10FA 		vmrs	APSR_nzcv, FPSCR
 3879 01ae CCBF     		ite	gt
 3880 01b0 0124     		movgt	r4, #1
 3881              	.LVL278:
 361:../../libs/libDaisy/src/sys/../../../../libs/libDaisy/src/hid/disp/display.h ****                 }
 3882              		.loc 9 361 47 discriminator 1 view .LVU888
 3883 01b2 0024     		movle	r4, #0
ARM GAS  C:\Users\matte\AppData\Local\Temp\cclPkNhc.s 			page 118


 3884              	.LVL279:
 3885              	.L243:
 365:../../libs/libDaisy/src/sys/../../../../libs/libDaisy/src/hid/disp/display.h ****                 ((ChildType*)(this))
 3886              		.loc 9 365 13 view .LVU889
 3887 01b4 002A     		cmp	r2, #0
 3888 01b6 40F08A80 		bne	.L304
 3889              	.L255:
 368:../../libs/libDaisy/src/sys/../../../../libs/libDaisy/src/hid/disp/display.h ****                 ((ChildType*)(this))
 3890              		.loc 9 368 13 view .LVU890
 3891 01ba 0029     		cmp	r1, #0
 3892 01bc 64D1     		bne	.L305
 3893              	.L257:
 371:../../libs/libDaisy/src/sys/../../../../libs/libDaisy/src/hid/disp/display.h ****                 ((ChildType*)(this))
 3894              		.loc 9 371 13 view .LVU891
 3895 01be BFB9     		cbnz	r7, .L306
 3896              	.L259:
 374:../../libs/libDaisy/src/sys/../../../../libs/libDaisy/src/hid/disp/display.h ****                 ((ChildType*)(this))
 3897              		.loc 9 374 13 view .LVU892
 3898 01c0 C4BB     		cbnz	r4, .L307
 3899              	.L261:
 3900              	.LVL280:
 379:../../libs/libDaisy/src/sys/../../../../libs/libDaisy/src/hid/disp/display.h ****             {
 3901              		.loc 9 379 13 view .LVU893
 3902 01c2 9C45     		cmp	ip, r3
 3903 01c4 58DB     		blt	.L278
 3904              	.L309:
 381:../../libs/libDaisy/src/sys/../../../../libs/libDaisy/src/hid/disp/display.h ****                 err = err + (t_y * 2 + 1);
 3905              		.loc 9 381 17 view .LVU894
 3906 01c6 0CF1010C 		add	ip, ip, #1
 3907              	.LVL281:
 382:../../libs/libDaisy/src/sys/../../../../libs/libDaisy/src/hid/disp/display.h ****                 if(-t_x == t_y && e2 <= t_x)
 3908              		.loc 9 382 38 view .LVU895
 3909 01ca 03EB4C0E 		add	lr, r3, ip, lsl #1
 383:../../libs/libDaisy/src/sys/../../../../libs/libDaisy/src/hid/disp/display.h ****                 {
 3910              		.loc 9 383 17 view .LVU896
 3911 01ce 1CEB000F 		cmn	ip, r0
 382:../../libs/libDaisy/src/sys/../../../../libs/libDaisy/src/hid/disp/display.h ****                 if(-t_x == t_y && e2 <= t_x)
 3912              		.loc 9 382 21 view .LVU897
 3913 01d2 0EF1010E 		add	lr, lr, #1
 3914              	.LVL282:
 383:../../libs/libDaisy/src/sys/../../../../libs/libDaisy/src/hid/disp/display.h ****                 {
 3915              		.loc 9 383 17 view .LVU898
 3916 01d6 00F0C080 		beq	.L308
 3917              	.LVL283:
 3918              	.L263:
 388:../../libs/libDaisy/src/sys/../../../../libs/libDaisy/src/hid/disp/display.h ****             {
 3919              		.loc 9 388 13 view .LVU899
 3920 01da 9842     		cmp	r0, r3
 3921 01dc 4FDB     		blt	.L264
 3922              	.L279:
 388:../../libs/libDaisy/src/sys/../../../../libs/libDaisy/src/hid/disp/display.h ****             {
 3923              		.loc 9 388 13 view .LVU900
 3924 01de 7346     		mov	r3, lr
 3925              	.LVL284:
 3926              	.L265:
 393:../../libs/libDaisy/src/sys/../../../../libs/libDaisy/src/hid/disp/display.h ****     }
 3927              		.loc 9 393 21 is_stmt 1 view .LVU901
ARM GAS  C:\Users\matte\AppData\Local\Temp\cclPkNhc.s 			page 119


 3928 01e0 0028     		cmp	r0, #0
 3929 01e2 7FF779AF 		ble	.L267
 3930              	.LVL285:
 3931              	.L238:
 394:../../libs/libDaisy/src/sys/../../../../libs/libDaisy/src/hid/disp/display.h **** 
 3932              		.loc 9 394 5 is_stmt 0 view .LVU902
 3933 01e6 03B0     		add	sp, sp, #12
 3934              		.cfi_remember_state
 3935              		.cfi_def_cfa_offset 60
 3936              		@ sp needed
 3937 01e8 BDEC068B 		vldm	sp!, {d8-d10}
 3938              		.cfi_restore 84
 3939              		.cfi_restore 85
 3940              		.cfi_restore 82
 3941              		.cfi_restore 83
 3942              		.cfi_restore 80
 3943              		.cfi_restore 81
 3944              		.cfi_def_cfa_offset 36
 3945              	.LVL286:
 394:../../libs/libDaisy/src/sys/../../../../libs/libDaisy/src/hid/disp/display.h **** 
 3946              		.loc 9 394 5 view .LVU903
 3947 01ec BDE8F08F 		pop	{r4, r5, r6, r7, r8, r9, r10, fp, pc}
 3948              	.LVL287:
 3949              	.L306:
 3950              		.cfi_restore_state
 373:../../libs/libDaisy/src/sys/../../../../libs/libDaisy/src/hid/disp/display.h ****             if(d4)
 3951              		.loc 9 373 43 view .LVU904
 3952 01f0 009D     		ldr	r5, [sp]
 3953 01f2 A6EB0C0E 		sub	lr, r6, ip
 3954 01f6 00EB050A 		add	r10, r0, r5
 3955              	.LVL288:
 3956              	.LBB1221:
 3957              	.LBI1221:
  42:../../libs/libDaisy/src/sys/../../../../libs/libDaisy/src/hid/disp/oled_display.h ****     {
 3958              		.loc 8 42 10 is_stmt 1 view .LVU905
 3959              	.LBB1222:
 3960              	.LBI1222:
 340:../../libs/libDaisy/src/sys/../../../../libs/libDaisy/src/dev/oled_ssd130x.h ****     {
 3961              		.loc 10 340 10 view .LVU906
 3962              	.LBB1223:
 342:../../libs/libDaisy/src/sys/../../../../libs/libDaisy/src/dev/oled_ssd130x.h ****             return;
 3963              		.loc 10 342 9 is_stmt 0 view .LVU907
 3964 01fa BAF17F0F 		cmp	r10, #127
 3965 01fe DFD8     		bhi	.L259
 3966 0200 BEF13F0F 		cmp	lr, #63
 3967 0204 DCD8     		bhi	.L259
 345:../../libs/libDaisy/src/sys/../../../../libs/libDaisy/src/dev/oled_ssd130x.h ****         else
 3968              		.loc 10 345 28 view .LVU908
 3969 0206 4FEADE0B 		lsr	fp, lr, #3
 344:../../libs/libDaisy/src/sys/../../../../libs/libDaisy/src/dev/oled_ssd130x.h ****             buffer_[x + (y / 8) * width] |= (1 << (y % 8));
 3970              		.loc 10 344 9 view .LVU909
 3971 020a 019D     		ldr	r5, [sp, #4]
 345:../../libs/libDaisy/src/sys/../../../../libs/libDaisy/src/dev/oled_ssd130x.h ****         else
 3972              		.loc 10 345 42 view .LVU910
 3973 020c 0AEBCB1A 		add	r10, r10, fp, lsl #7
 3974              	.LVL289:
 344:../../libs/libDaisy/src/sys/../../../../libs/libDaisy/src/dev/oled_ssd130x.h ****             buffer_[x + (y / 8) * width] |= (1 << (y % 8));
ARM GAS  C:\Users\matte\AppData\Local\Temp\cclPkNhc.s 			page 120


 3975              		.loc 10 344 9 view .LVU911
 3976 0210 002D     		cmp	r5, #0
 3977 0212 00F0B180 		beq	.L260
 345:../../libs/libDaisy/src/sys/../../../../libs/libDaisy/src/dev/oled_ssd130x.h ****         else
 3978              		.loc 10 345 54 view .LVU912
 3979 0216 0EF0070B 		and	fp, lr, #7
 345:../../libs/libDaisy/src/sys/../../../../libs/libDaisy/src/dev/oled_ssd130x.h ****         else
 3980              		.loc 10 345 42 view .LVU913
 3981 021a C244     		add	r10, r10, r8
 345:../../libs/libDaisy/src/sys/../../../../libs/libDaisy/src/dev/oled_ssd130x.h ****         else
 3982              		.loc 10 345 48 view .LVU914
 3983 021c 4FF0010E 		mov	lr, #1
 3984              	.LVL290:
 345:../../libs/libDaisy/src/sys/../../../../libs/libDaisy/src/dev/oled_ssd130x.h ****         else
 3985              		.loc 10 345 48 view .LVU915
 3986 0220 0EFA0BFE 		lsl	lr, lr, fp
 345:../../libs/libDaisy/src/sys/../../../../libs/libDaisy/src/dev/oled_ssd130x.h ****         else
 3987              		.loc 10 345 42 view .LVU916
 3988 0224 9AF810B0 		ldrb	fp, [r10, #16]	@ zero_extendqisi2
 3989 0228 4EEA0B0E 		orr	lr, lr, fp
 3990 022c 8AF810E0 		strb	lr, [r10, #16]
 3991              	.LVL291:
 345:../../libs/libDaisy/src/sys/../../../../libs/libDaisy/src/dev/oled_ssd130x.h ****         else
 3992              		.loc 10 345 42 view .LVU917
 3993              	.LBE1223:
 3994              	.LBE1222:
 3995              	.LBE1221:
 374:../../libs/libDaisy/src/sys/../../../../libs/libDaisy/src/hid/disp/display.h ****                 ((ChildType*)(this))
 3996              		.loc 9 374 13 view .LVU918
 3997 0230 002C     		cmp	r4, #0
 3998 0232 C6D0     		beq	.L261
 3999              	.L307:
 376:../../libs/libDaisy/src/sys/../../../../libs/libDaisy/src/hid/disp/display.h **** 
 4000              		.loc 9 376 43 view .LVU919
 4001 0234 009D     		ldr	r5, [sp]
 4002 0236 A6EB0C0E 		sub	lr, r6, ip
 4003 023a A5EB000A 		sub	r10, r5, r0
 4004              	.LVL292:
 4005              	.LBB1228:
 4006              	.LBI1228:
  42:../../libs/libDaisy/src/sys/../../../../libs/libDaisy/src/hid/disp/oled_display.h ****     {
 4007              		.loc 8 42 10 is_stmt 1 view .LVU920
 4008              	.LBB1229:
 4009              	.LBI1229:
 340:../../libs/libDaisy/src/sys/../../../../libs/libDaisy/src/dev/oled_ssd130x.h ****     {
 4010              		.loc 10 340 10 view .LVU921
 4011              	.LBB1230:
 342:../../libs/libDaisy/src/sys/../../../../libs/libDaisy/src/dev/oled_ssd130x.h ****             return;
 4012              		.loc 10 342 9 is_stmt 0 view .LVU922
 4013 023e BAF17F0F 		cmp	r10, #127
 4014 0242 BED8     		bhi	.L261
 4015 0244 BEF13F0F 		cmp	lr, #63
 4016 0248 BBD8     		bhi	.L261
 345:../../libs/libDaisy/src/sys/../../../../libs/libDaisy/src/dev/oled_ssd130x.h ****         else
 4017              		.loc 10 345 28 view .LVU923
 4018 024a 4FEADE0B 		lsr	fp, lr, #3
 344:../../libs/libDaisy/src/sys/../../../../libs/libDaisy/src/dev/oled_ssd130x.h ****             buffer_[x + (y / 8) * width] |= (1 << (y % 8));
ARM GAS  C:\Users\matte\AppData\Local\Temp\cclPkNhc.s 			page 121


 4019              		.loc 10 344 9 view .LVU924
 4020 024e 019D     		ldr	r5, [sp, #4]
 345:../../libs/libDaisy/src/sys/../../../../libs/libDaisy/src/dev/oled_ssd130x.h ****         else
 4021              		.loc 10 345 42 view .LVU925
 4022 0250 0AEBCB1A 		add	r10, r10, fp, lsl #7
 4023              	.LVL293:
 344:../../libs/libDaisy/src/sys/../../../../libs/libDaisy/src/dev/oled_ssd130x.h ****             buffer_[x + (y / 8) * width] |= (1 << (y % 8));
 4024              		.loc 10 344 9 view .LVU926
 4025 0254 002D     		cmp	r5, #0
 4026 0256 00F0AE80 		beq	.L262
 345:../../libs/libDaisy/src/sys/../../../../libs/libDaisy/src/dev/oled_ssd130x.h ****         else
 4027              		.loc 10 345 54 view .LVU927
 4028 025a 0EF0070B 		and	fp, lr, #7
 345:../../libs/libDaisy/src/sys/../../../../libs/libDaisy/src/dev/oled_ssd130x.h ****         else
 4029              		.loc 10 345 42 view .LVU928
 4030 025e C244     		add	r10, r10, r8
 345:../../libs/libDaisy/src/sys/../../../../libs/libDaisy/src/dev/oled_ssd130x.h ****         else
 4031              		.loc 10 345 48 view .LVU929
 4032 0260 4FF0010E 		mov	lr, #1
 4033              	.LVL294:
 345:../../libs/libDaisy/src/sys/../../../../libs/libDaisy/src/dev/oled_ssd130x.h ****         else
 4034              		.loc 10 345 48 view .LVU930
 4035              	.LBE1230:
 4036              	.LBE1229:
 4037              	.LBE1228:
 379:../../libs/libDaisy/src/sys/../../../../libs/libDaisy/src/hid/disp/display.h ****             {
 4038              		.loc 9 379 13 view .LVU931
 4039 0264 9C45     		cmp	ip, r3
 4040              	.LBB1237:
 4041              	.LBB1235:
 4042              	.LBB1233:
 345:../../libs/libDaisy/src/sys/../../../../libs/libDaisy/src/dev/oled_ssd130x.h ****         else
 4043              		.loc 10 345 48 view .LVU932
 4044 0266 0EFA0BFE 		lsl	lr, lr, fp
 345:../../libs/libDaisy/src/sys/../../../../libs/libDaisy/src/dev/oled_ssd130x.h ****         else
 4045              		.loc 10 345 42 view .LVU933
 4046 026a 9AF810B0 		ldrb	fp, [r10, #16]	@ zero_extendqisi2
 4047 026e 4EEA0B0E 		orr	lr, lr, fp
 4048 0272 8AF810E0 		strb	lr, [r10, #16]
 4049              	.LVL295:
 345:../../libs/libDaisy/src/sys/../../../../libs/libDaisy/src/dev/oled_ssd130x.h ****         else
 4050              		.loc 10 345 42 view .LVU934
 4051              	.LBE1233:
 4052              	.LBE1235:
 4053              	.LBE1237:
 379:../../libs/libDaisy/src/sys/../../../../libs/libDaisy/src/hid/disp/display.h ****             {
 4054              		.loc 9 379 13 view .LVU935
 4055 0276 A6DA     		bge	.L309
 4056              	.L278:
 388:../../libs/libDaisy/src/sys/../../../../libs/libDaisy/src/hid/disp/display.h ****             {
 4057              		.loc 9 388 13 view .LVU936
 4058 0278 9842     		cmp	r0, r3
 4059 027a 9E46     		mov	lr, r3
 4060              	.LVL296:
 388:../../libs/libDaisy/src/sys/../../../../libs/libDaisy/src/hid/disp/display.h ****             {
 4061              		.loc 9 388 13 view .LVU937
 4062 027c AFDA     		bge	.L279
ARM GAS  C:\Users\matte\AppData\Local\Temp\cclPkNhc.s 			page 122


 4063              	.LVL297:
 4064              	.L264:
 390:../../libs/libDaisy/src/sys/../../../../libs/libDaisy/src/hid/disp/display.h ****                 err = err + (t_x * 2 + 1);
 4065              		.loc 9 390 17 view .LVU938
 4066 027e 0130     		adds	r0, r0, #1
 4067              	.LVL298:
 391:../../libs/libDaisy/src/sys/../../../../libs/libDaisy/src/hid/disp/display.h ****             }
 4068              		.loc 9 391 38 view .LVU939
 4069 0280 0EEB4003 		add	r3, lr, r0, lsl #1
 391:../../libs/libDaisy/src/sys/../../../../libs/libDaisy/src/hid/disp/display.h ****             }
 4070              		.loc 9 391 21 view .LVU940
 4071 0284 0133     		adds	r3, r3, #1
 4072              	.LVL299:
 391:../../libs/libDaisy/src/sys/../../../../libs/libDaisy/src/hid/disp/display.h ****             }
 4073              		.loc 9 391 21 view .LVU941
 4074 0286 ABE7     		b	.L265
 4075              	.L305:
 370:../../libs/libDaisy/src/sys/../../../../libs/libDaisy/src/hid/disp/display.h ****             if(d3)
 4076              		.loc 9 370 43 view .LVU942
 4077 0288 009D     		ldr	r5, [sp]
 4078 028a 0CEB060E 		add	lr, ip, r6
 4079 028e 00EB050A 		add	r10, r0, r5
 4080              	.LVL300:
 4081              	.LBB1238:
 4082              	.LBI1238:
  42:../../libs/libDaisy/src/sys/../../../../libs/libDaisy/src/hid/disp/oled_display.h ****     {
 4083              		.loc 8 42 10 is_stmt 1 view .LVU943
 4084              	.LBB1239:
 4085              	.LBI1239:
 340:../../libs/libDaisy/src/sys/../../../../libs/libDaisy/src/dev/oled_ssd130x.h ****     {
 4086              		.loc 10 340 10 view .LVU944
 4087              	.LBB1240:
 342:../../libs/libDaisy/src/sys/../../../../libs/libDaisy/src/dev/oled_ssd130x.h ****             return;
 4088              		.loc 10 342 9 is_stmt 0 view .LVU945
 4089 0292 BAF17F0F 		cmp	r10, #127
 4090 0296 92D8     		bhi	.L257
 4091 0298 BEF13F0F 		cmp	lr, #63
 4092 029c 8FD8     		bhi	.L257
 345:../../libs/libDaisy/src/sys/../../../../libs/libDaisy/src/dev/oled_ssd130x.h ****         else
 4093              		.loc 10 345 28 view .LVU946
 4094 029e 4FEADE0B 		lsr	fp, lr, #3
 344:../../libs/libDaisy/src/sys/../../../../libs/libDaisy/src/dev/oled_ssd130x.h ****             buffer_[x + (y / 8) * width] |= (1 << (y % 8));
 4095              		.loc 10 344 9 view .LVU947
 4096 02a2 019D     		ldr	r5, [sp, #4]
 345:../../libs/libDaisy/src/sys/../../../../libs/libDaisy/src/dev/oled_ssd130x.h ****         else
 4097              		.loc 10 345 42 view .LVU948
 4098 02a4 0AEBCB1A 		add	r10, r10, fp, lsl #7
 4099              	.LVL301:
 344:../../libs/libDaisy/src/sys/../../../../libs/libDaisy/src/dev/oled_ssd130x.h ****             buffer_[x + (y / 8) * width] |= (1 << (y % 8));
 4100              		.loc 10 344 9 view .LVU949
 4101 02a8 002D     		cmp	r5, #0
 4102 02aa 73D0     		beq	.L258
 345:../../libs/libDaisy/src/sys/../../../../libs/libDaisy/src/dev/oled_ssd130x.h ****         else
 4103              		.loc 10 345 54 view .LVU950
 4104 02ac 0EF0070B 		and	fp, lr, #7
 345:../../libs/libDaisy/src/sys/../../../../libs/libDaisy/src/dev/oled_ssd130x.h ****         else
 4105              		.loc 10 345 42 view .LVU951
ARM GAS  C:\Users\matte\AppData\Local\Temp\cclPkNhc.s 			page 123


 4106 02b0 C244     		add	r10, r10, r8
 345:../../libs/libDaisy/src/sys/../../../../libs/libDaisy/src/dev/oled_ssd130x.h ****         else
 4107              		.loc 10 345 48 view .LVU952
 4108 02b2 4FF0010E 		mov	lr, #1
 4109              	.LVL302:
 345:../../libs/libDaisy/src/sys/../../../../libs/libDaisy/src/dev/oled_ssd130x.h ****         else
 4110              		.loc 10 345 48 view .LVU953
 4111 02b6 0EFA0BFE 		lsl	lr, lr, fp
 345:../../libs/libDaisy/src/sys/../../../../libs/libDaisy/src/dev/oled_ssd130x.h ****         else
 4112              		.loc 10 345 42 view .LVU954
 4113 02ba 9AF810B0 		ldrb	fp, [r10, #16]	@ zero_extendqisi2
 4114 02be 4EEA0B0E 		orr	lr, lr, fp
 4115 02c2 8AF810E0 		strb	lr, [r10, #16]
 4116              	.LVL303:
 345:../../libs/libDaisy/src/sys/../../../../libs/libDaisy/src/dev/oled_ssd130x.h ****         else
 4117              		.loc 10 345 42 view .LVU955
 4118              	.LBE1240:
 4119              	.LBE1239:
 4120              	.LBE1238:
 371:../../libs/libDaisy/src/sys/../../../../libs/libDaisy/src/hid/disp/display.h ****                 ((ChildType*)(this))
 4121              		.loc 9 371 13 view .LVU956
 4122 02c6 002F     		cmp	r7, #0
 4123 02c8 3FF47AAF 		beq	.L259
 4124 02cc 90E7     		b	.L306
 4125              	.L304:
 367:../../libs/libDaisy/src/sys/../../../../libs/libDaisy/src/hid/disp/display.h ****             if(d2)
 4126              		.loc 9 367 43 view .LVU957
 4127 02ce 009D     		ldr	r5, [sp]
 4128 02d0 0CEB060E 		add	lr, ip, r6
 4129 02d4 A5EB000A 		sub	r10, r5, r0
 4130              	.LVL304:
 4131              	.LBB1245:
 4132              	.LBI1245:
  42:../../libs/libDaisy/src/sys/../../../../libs/libDaisy/src/hid/disp/oled_display.h ****     {
 4133              		.loc 8 42 10 is_stmt 1 view .LVU958
 4134              	.LBB1246:
 4135              	.LBI1246:
 340:../../libs/libDaisy/src/sys/../../../../libs/libDaisy/src/dev/oled_ssd130x.h ****     {
 4136              		.loc 10 340 10 view .LVU959
 4137              	.LBB1247:
 342:../../libs/libDaisy/src/sys/../../../../libs/libDaisy/src/dev/oled_ssd130x.h ****             return;
 4138              		.loc 10 342 9 is_stmt 0 view .LVU960
 4139 02d8 BAF17F0F 		cmp	r10, #127
 4140 02dc 3FF66DAF 		bhi	.L255
 4141 02e0 BEF13F0F 		cmp	lr, #63
 4142 02e4 3FF669AF 		bhi	.L255
 345:../../libs/libDaisy/src/sys/../../../../libs/libDaisy/src/dev/oled_ssd130x.h ****         else
 4143              		.loc 10 345 28 view .LVU961
 4144 02e8 4FEADE0B 		lsr	fp, lr, #3
 344:../../libs/libDaisy/src/sys/../../../../libs/libDaisy/src/dev/oled_ssd130x.h ****             buffer_[x + (y / 8) * width] |= (1 << (y % 8));
 4145              		.loc 10 344 9 view .LVU962
 4146 02ec 019D     		ldr	r5, [sp, #4]
 345:../../libs/libDaisy/src/sys/../../../../libs/libDaisy/src/dev/oled_ssd130x.h ****         else
 4147              		.loc 10 345 42 view .LVU963
 4148 02ee 0AEBCB1A 		add	r10, r10, fp, lsl #7
 4149              	.LVL305:
 344:../../libs/libDaisy/src/sys/../../../../libs/libDaisy/src/dev/oled_ssd130x.h ****             buffer_[x + (y / 8) * width] |= (1 << (y % 8));
ARM GAS  C:\Users\matte\AppData\Local\Temp\cclPkNhc.s 			page 124


 4150              		.loc 10 344 9 view .LVU964
 4151 02f2 002D     		cmp	r5, #0
 4152 02f4 6DD0     		beq	.L256
 345:../../libs/libDaisy/src/sys/../../../../libs/libDaisy/src/dev/oled_ssd130x.h ****         else
 4153              		.loc 10 345 54 view .LVU965
 4154 02f6 0EF0070B 		and	fp, lr, #7
 345:../../libs/libDaisy/src/sys/../../../../libs/libDaisy/src/dev/oled_ssd130x.h ****         else
 4155              		.loc 10 345 42 view .LVU966
 4156 02fa C244     		add	r10, r10, r8
 345:../../libs/libDaisy/src/sys/../../../../libs/libDaisy/src/dev/oled_ssd130x.h ****         else
 4157              		.loc 10 345 48 view .LVU967
 4158 02fc 4FF0010E 		mov	lr, #1
 4159              	.LVL306:
 345:../../libs/libDaisy/src/sys/../../../../libs/libDaisy/src/dev/oled_ssd130x.h ****         else
 4160              		.loc 10 345 48 view .LVU968
 4161 0300 0EFA0BFE 		lsl	lr, lr, fp
 345:../../libs/libDaisy/src/sys/../../../../libs/libDaisy/src/dev/oled_ssd130x.h ****         else
 4162              		.loc 10 345 42 view .LVU969
 4163 0304 9AF810B0 		ldrb	fp, [r10, #16]	@ zero_extendqisi2
 4164 0308 4EEA0B0E 		orr	lr, lr, fp
 4165 030c 8AF810E0 		strb	lr, [r10, #16]
 4166              	.LVL307:
 345:../../libs/libDaisy/src/sys/../../../../libs/libDaisy/src/dev/oled_ssd130x.h ****         else
 4167              		.loc 10 345 42 view .LVU970
 4168              	.LBE1247:
 4169              	.LBE1246:
 4170              	.LBE1245:
 368:../../libs/libDaisy/src/sys/../../../../libs/libDaisy/src/hid/disp/display.h ****                 ((ChildType*)(this))
 4171              		.loc 9 368 13 view .LVU971
 4172 0310 0029     		cmp	r1, #0
 4173 0312 3FF454AF 		beq	.L257
 4174 0316 B7E7     		b	.L305
 4175              	.LVL308:
 4176              	.L244:
 358:../../libs/libDaisy/src/sys/../../../../libs/libDaisy/src/hid/disp/display.h ****                     d2 = (t_sxy - t_syx < 0 && t_exy - t_eyx > 0);
 4177              		.loc 9 358 46 view .LVU972
 4178 0318 F1EE10FA 		vmrs	APSR_nzcv, FPSCR
 4179 031c 7ED4     		bmi	.L310
 4180 031e 4A46     		mov	r2, r9
 4181              	.L248:
 4182              	.LVL309:
 359:../../libs/libDaisy/src/sys/../../../../libs/libDaisy/src/hid/disp/display.h ****                     d3 = (t_sxny - t_syx < 0 && t_exny - t_eyx > 0);
 4183              		.loc 9 359 33 discriminator 6 view .LVU973
 4184 0320 74EEC54A 		vsub.f32	s9, s9, s10
 4185              	.LVL310:
 359:../../libs/libDaisy/src/sys/../../../../libs/libDaisy/src/hid/disp/display.h ****                     d3 = (t_sxny - t_syx < 0 && t_exny - t_eyx > 0);
 4186              		.loc 9 359 45 discriminator 6 view .LVU974
 4187 0324 F5EEC04A 		vcmpe.f32	s9, #0
 4188 0328 F1EE10FA 		vmrs	APSR_nzcv, FPSCR
 4189 032c 6CD4     		bmi	.L311
 359:../../libs/libDaisy/src/sys/../../../../libs/libDaisy/src/hid/disp/display.h ****                     d3 = (t_sxny - t_syx < 0 && t_exny - t_eyx > 0);
 4190              		.loc 9 359 45 view .LVU975
 4191 032e 0021     		movs	r1, #0
 4192              	.LVL311:
 4193              	.L250:
 360:../../libs/libDaisy/src/sys/../../../../libs/libDaisy/src/hid/disp/display.h ****                     d4 = (t_sxny - t_synx < 0 && t_exny - t_eynx > 0);
 4194              		.loc 9 360 34 discriminator 6 view .LVU976
ARM GAS  C:\Users\matte\AppData\Local\Temp\cclPkNhc.s 			page 125


 4195 0330 35EEC55A 		vsub.f32	s10, s11, s10
 4196              	.LVL312:
 360:../../libs/libDaisy/src/sys/../../../../libs/libDaisy/src/hid/disp/display.h ****                     d4 = (t_sxny - t_synx < 0 && t_exny - t_eynx > 0);
 4197              		.loc 9 360 46 discriminator 6 view .LVU977
 4198 0334 B5EEC05A 		vcmpe.f32	s10, #0
 4199 0338 F1EE10FA 		vmrs	APSR_nzcv, FPSCR
 4200 033c 5AD4     		bmi	.L312
 360:../../libs/libDaisy/src/sys/../../../../libs/libDaisy/src/hid/disp/display.h ****                     d4 = (t_sxny - t_synx < 0 && t_exny - t_eynx > 0);
 4201              		.loc 9 360 46 view .LVU978
 4202 033e 0027     		movs	r7, #0
 4203              	.LVL313:
 4204              	.L252:
 361:../../libs/libDaisy/src/sys/../../../../libs/libDaisy/src/hid/disp/display.h ****                 }
 4205              		.loc 9 361 34 discriminator 6 view .LVU979
 4206 0340 75EEC45A 		vsub.f32	s11, s11, s8
 4207              	.LVL314:
 361:../../libs/libDaisy/src/sys/../../../../libs/libDaisy/src/hid/disp/display.h ****                 }
 4208              		.loc 9 361 47 discriminator 6 view .LVU980
 4209 0344 F5EEC05A 		vcmpe.f32	s11, #0
 4210 0348 F1EE10FA 		vmrs	APSR_nzcv, FPSCR
 4211 034c 3FF529AF 		bmi	.L303
 361:../../libs/libDaisy/src/sys/../../../../libs/libDaisy/src/hid/disp/display.h ****                 }
 4212              		.loc 9 361 47 view .LVU981
 4213 0350 0024     		movs	r4, #0
 4214              	.LVL315:
 365:../../libs/libDaisy/src/sys/../../../../libs/libDaisy/src/hid/disp/display.h ****                 ((ChildType*)(this))
 4215              		.loc 9 365 13 view .LVU982
 4216 0352 002A     		cmp	r2, #0
 4217 0354 3FF431AF 		beq	.L255
 4218 0358 B9E7     		b	.L304
 4219              	.LVL316:
 4220              	.L308:
 383:../../libs/libDaisy/src/sys/../../../../libs/libDaisy/src/hid/disp/display.h ****                 {
 4221              		.loc 9 383 32 discriminator 1 view .LVU983
 4222 035a 9842     		cmp	r0, r3
 4223 035c 8FDB     		blt	.L264
 385:../../libs/libDaisy/src/sys/../../../../libs/libDaisy/src/hid/disp/display.h ****                 }
 4224              		.loc 9 385 24 view .LVU984
 4225 035e 0023     		movs	r3, #0
 4226              	.LVL317:
 385:../../libs/libDaisy/src/sys/../../../../libs/libDaisy/src/hid/disp/display.h ****                 }
 4227              		.loc 9 385 24 view .LVU985
 4228 0360 3BE7     		b	.L263
 4229              	.L316:
 4230 0362 00BFAFF3 		.align	3
 4230      0080
 4231              	.L315:
 4232 0368 7A008BFC 		.word	-57999238
 4233 036c FA210940 		.word	1074340346
 4234 0370 00000000 		.word	0
 4235 0374 00806640 		.word	1080459264
 4236              	.LVL318:
 4237              	.L260:
 4238              	.LBB1252:
 4239              	.LBB1227:
 4240              	.LBB1226:
 4241              	.LBB1224:
ARM GAS  C:\Users\matte\AppData\Local\Temp\cclPkNhc.s 			page 126


 4242              	.LBI1224:
 340:../../libs/libDaisy/src/sys/../../../../libs/libDaisy/src/dev/oled_ssd130x.h ****     {
 4243              		.loc 10 340 10 is_stmt 1 view .LVU986
 4244              	.LBB1225:
 347:../../libs/libDaisy/src/sys/../../../../libs/libDaisy/src/dev/oled_ssd130x.h ****     }
 4245              		.loc 10 347 42 is_stmt 0 view .LVU987
 4246 0378 C244     		add	r10, r10, r8
 4247              	.LVL319:
 347:../../libs/libDaisy/src/sys/../../../../libs/libDaisy/src/dev/oled_ssd130x.h ****     }
 4248              		.loc 10 347 49 view .LVU988
 4249 037a 4FF0010B 		mov	fp, #1
 4250              	.LVL320:
 347:../../libs/libDaisy/src/sys/../../../../libs/libDaisy/src/dev/oled_ssd130x.h ****     }
 4251              		.loc 10 347 55 view .LVU989
 4252 037e 0EF0070E 		and	lr, lr, #7
 4253              	.LVL321:
 347:../../libs/libDaisy/src/sys/../../../../libs/libDaisy/src/dev/oled_ssd130x.h ****     }
 4254              		.loc 10 347 49 view .LVU990
 4255 0382 0BFA0EFE 		lsl	lr, fp, lr
 347:../../libs/libDaisy/src/sys/../../../../libs/libDaisy/src/dev/oled_ssd130x.h ****     }
 4256              		.loc 10 347 42 view .LVU991
 4257 0386 9AF810B0 		ldrb	fp, [r10, #16]	@ zero_extendqisi2
 4258 038a 2BEA0E0E 		bic	lr, fp, lr
 4259 038e 8AF810E0 		strb	lr, [r10, #16]
 4260              	.LVL322:
 347:../../libs/libDaisy/src/sys/../../../../libs/libDaisy/src/dev/oled_ssd130x.h ****     }
 4261              		.loc 10 347 42 view .LVU992
 4262 0392 15E7     		b	.L259
 4263              	.LVL323:
 4264              	.L258:
 347:../../libs/libDaisy/src/sys/../../../../libs/libDaisy/src/dev/oled_ssd130x.h ****     }
 4265              		.loc 10 347 42 view .LVU993
 4266              	.LBE1225:
 4267              	.LBE1224:
 4268              	.LBE1226:
 4269              	.LBE1227:
 4270              	.LBE1252:
 4271              	.LBB1253:
 4272              	.LBB1244:
 4273              	.LBB1243:
 4274              	.LBB1241:
 4275              	.LBI1241:
 340:../../libs/libDaisy/src/sys/../../../../libs/libDaisy/src/dev/oled_ssd130x.h ****     {
 4276              		.loc 10 340 10 is_stmt 1 view .LVU994
 4277              	.LBB1242:
 347:../../libs/libDaisy/src/sys/../../../../libs/libDaisy/src/dev/oled_ssd130x.h ****     }
 4278              		.loc 10 347 42 is_stmt 0 view .LVU995
 4279 0394 C244     		add	r10, r10, r8
 4280              	.LVL324:
 347:../../libs/libDaisy/src/sys/../../../../libs/libDaisy/src/dev/oled_ssd130x.h ****     }
 4281              		.loc 10 347 49 view .LVU996
 4282 0396 4FF0010B 		mov	fp, #1
 4283              	.LVL325:
 347:../../libs/libDaisy/src/sys/../../../../libs/libDaisy/src/dev/oled_ssd130x.h ****     }
 4284              		.loc 10 347 55 view .LVU997
 4285 039a 0EF0070E 		and	lr, lr, #7
 4286              	.LVL326:
ARM GAS  C:\Users\matte\AppData\Local\Temp\cclPkNhc.s 			page 127


 347:../../libs/libDaisy/src/sys/../../../../libs/libDaisy/src/dev/oled_ssd130x.h ****     }
 4287              		.loc 10 347 49 view .LVU998
 4288 039e 0BFA0EFE 		lsl	lr, fp, lr
 347:../../libs/libDaisy/src/sys/../../../../libs/libDaisy/src/dev/oled_ssd130x.h ****     }
 4289              		.loc 10 347 42 view .LVU999
 4290 03a2 9AF810B0 		ldrb	fp, [r10, #16]	@ zero_extendqisi2
 4291 03a6 2BEA0E0E 		bic	lr, fp, lr
 4292 03aa 8AF810E0 		strb	lr, [r10, #16]
 4293              	.LVL327:
 347:../../libs/libDaisy/src/sys/../../../../libs/libDaisy/src/dev/oled_ssd130x.h ****     }
 4294              		.loc 10 347 42 view .LVU1000
 4295              	.LBE1242:
 4296              	.LBE1241:
 4297              	.LBE1243:
 4298              	.LBE1244:
 4299              	.LBE1253:
 371:../../libs/libDaisy/src/sys/../../../../libs/libDaisy/src/hid/disp/display.h ****                 ((ChildType*)(this))
 4300              		.loc 9 371 13 view .LVU1001
 4301 03ae 002F     		cmp	r7, #0
 4302 03b0 3FF406AF 		beq	.L259
 4303 03b4 1CE7     		b	.L306
 4304              	.LVL328:
 4305              	.L262:
 4306              	.LBB1254:
 4307              	.LBB1236:
 4308              	.LBB1234:
 4309              	.LBB1231:
 4310              	.LBI1231:
 340:../../libs/libDaisy/src/sys/../../../../libs/libDaisy/src/dev/oled_ssd130x.h ****     {
 4311              		.loc 10 340 10 is_stmt 1 view .LVU1002
 4312              	.LBB1232:
 347:../../libs/libDaisy/src/sys/../../../../libs/libDaisy/src/dev/oled_ssd130x.h ****     }
 4313              		.loc 10 347 42 is_stmt 0 view .LVU1003
 4314 03b6 C244     		add	r10, r10, r8
 4315              	.LVL329:
 347:../../libs/libDaisy/src/sys/../../../../libs/libDaisy/src/dev/oled_ssd130x.h ****     }
 4316              		.loc 10 347 49 view .LVU1004
 4317 03b8 4FF0010B 		mov	fp, #1
 4318              	.LVL330:
 347:../../libs/libDaisy/src/sys/../../../../libs/libDaisy/src/dev/oled_ssd130x.h ****     }
 4319              		.loc 10 347 55 view .LVU1005
 4320 03bc 0EF0070E 		and	lr, lr, #7
 4321              	.LVL331:
 347:../../libs/libDaisy/src/sys/../../../../libs/libDaisy/src/dev/oled_ssd130x.h ****     }
 4322              		.loc 10 347 49 view .LVU1006
 4323 03c0 0BFA0EFE 		lsl	lr, fp, lr
 347:../../libs/libDaisy/src/sys/../../../../libs/libDaisy/src/dev/oled_ssd130x.h ****     }
 4324              		.loc 10 347 42 view .LVU1007
 4325 03c4 9AF810B0 		ldrb	fp, [r10, #16]	@ zero_extendqisi2
 4326 03c8 2BEA0E0E 		bic	lr, fp, lr
 4327 03cc 8AF810E0 		strb	lr, [r10, #16]
 4328              	.LVL332:
 347:../../libs/libDaisy/src/sys/../../../../libs/libDaisy/src/dev/oled_ssd130x.h ****     }
 4329              		.loc 10 347 42 view .LVU1008
 4330 03d0 F7E6     		b	.L261
 4331              	.LVL333:
 4332              	.L256:
ARM GAS  C:\Users\matte\AppData\Local\Temp\cclPkNhc.s 			page 128


 347:../../libs/libDaisy/src/sys/../../../../libs/libDaisy/src/dev/oled_ssd130x.h ****     }
 4333              		.loc 10 347 42 view .LVU1009
 4334              	.LBE1232:
 4335              	.LBE1231:
 4336              	.LBE1234:
 4337              	.LBE1236:
 4338              	.LBE1254:
 4339              	.LBB1255:
 4340              	.LBB1251:
 4341              	.LBB1250:
 4342              	.LBB1248:
 4343              	.LBI1248:
 340:../../libs/libDaisy/src/sys/../../../../libs/libDaisy/src/dev/oled_ssd130x.h ****     {
 4344              		.loc 10 340 10 is_stmt 1 view .LVU1010
 4345              	.LBB1249:
 347:../../libs/libDaisy/src/sys/../../../../libs/libDaisy/src/dev/oled_ssd130x.h ****     }
 4346              		.loc 10 347 42 is_stmt 0 view .LVU1011
 4347 03d2 C244     		add	r10, r10, r8
 4348              	.LVL334:
 347:../../libs/libDaisy/src/sys/../../../../libs/libDaisy/src/dev/oled_ssd130x.h ****     }
 4349              		.loc 10 347 49 view .LVU1012
 4350 03d4 4FF0010B 		mov	fp, #1
 4351              	.LVL335:
 347:../../libs/libDaisy/src/sys/../../../../libs/libDaisy/src/dev/oled_ssd130x.h ****     }
 4352              		.loc 10 347 55 view .LVU1013
 4353 03d8 0EF0070E 		and	lr, lr, #7
 4354              	.LVL336:
 347:../../libs/libDaisy/src/sys/../../../../libs/libDaisy/src/dev/oled_ssd130x.h ****     }
 4355              		.loc 10 347 49 view .LVU1014
 4356 03dc 0BFA0EFE 		lsl	lr, fp, lr
 347:../../libs/libDaisy/src/sys/../../../../libs/libDaisy/src/dev/oled_ssd130x.h ****     }
 4357              		.loc 10 347 42 view .LVU1015
 4358 03e0 9AF810B0 		ldrb	fp, [r10, #16]	@ zero_extendqisi2
 4359 03e4 2BEA0E0E 		bic	lr, fp, lr
 4360 03e8 8AF810E0 		strb	lr, [r10, #16]
 4361              	.LVL337:
 347:../../libs/libDaisy/src/sys/../../../../libs/libDaisy/src/dev/oled_ssd130x.h ****     }
 4362              		.loc 10 347 42 view .LVU1016
 4363              	.LBE1249:
 4364              	.LBE1248:
 4365              	.LBE1250:
 4366              	.LBE1251:
 4367              	.LBE1255:
 368:../../libs/libDaisy/src/sys/../../../../libs/libDaisy/src/hid/disp/display.h ****                 ((ChildType*)(this))
 4368              		.loc 9 368 13 view .LVU1017
 4369 03ec 0029     		cmp	r1, #0
 4370 03ee 3FF4E6AE 		beq	.L257
 4371 03f2 49E7     		b	.L305
 4372              	.LVL338:
 4373              	.L312:
 360:../../libs/libDaisy/src/sys/../../../../libs/libDaisy/src/hid/disp/display.h ****                     d4 = (t_sxny - t_synx < 0 && t_exny - t_eynx > 0);
 4374              		.loc 9 360 56 discriminator 1 view .LVU1018
 4375 03f4 77EEE66A 		vsub.f32	s13, s15, s13
 4376              	.LVL339:
 360:../../libs/libDaisy/src/sys/../../../../libs/libDaisy/src/hid/disp/display.h ****                     d4 = (t_sxny - t_synx < 0 && t_exny - t_eynx > 0);
 4377              		.loc 9 360 46 discriminator 1 view .LVU1019
 4378 03f8 F5EEC06A 		vcmpe.f32	s13, #0
ARM GAS  C:\Users\matte\AppData\Local\Temp\cclPkNhc.s 			page 129


 4379 03fc F1EE10FA 		vmrs	APSR_nzcv, FPSCR
 4380 0400 CCBF     		ite	gt
 4381 0402 0127     		movgt	r7, #1
 4382              	.LVL340:
 360:../../libs/libDaisy/src/sys/../../../../libs/libDaisy/src/hid/disp/display.h ****                     d4 = (t_sxny - t_synx < 0 && t_exny - t_eynx > 0);
 4383              		.loc 9 360 46 discriminator 1 view .LVU1020
 4384 0404 0027     		movle	r7, #0
 4385 0406 9BE7     		b	.L252
 4386              	.LVL341:
 4387              	.L311:
 359:../../libs/libDaisy/src/sys/../../../../libs/libDaisy/src/hid/disp/display.h ****                     d3 = (t_sxny - t_syx < 0 && t_exny - t_eyx > 0);
 4388              		.loc 9 359 54 discriminator 1 view .LVU1021
 4389 0408 36EE666A 		vsub.f32	s12, s12, s13
 4390              	.LVL342:
 359:../../libs/libDaisy/src/sys/../../../../libs/libDaisy/src/hid/disp/display.h ****                     d3 = (t_sxny - t_syx < 0 && t_exny - t_eyx > 0);
 4391              		.loc 9 359 45 discriminator 1 view .LVU1022
 4392 040c B5EEC06A 		vcmpe.f32	s12, #0
 4393 0410 F1EE10FA 		vmrs	APSR_nzcv, FPSCR
 4394 0414 CCBF     		ite	gt
 4395 0416 0121     		movgt	r1, #1
 4396 0418 0021     		movle	r1, #0
 4397 041a 89E7     		b	.L250
 4398              	.LVL343:
 4399              	.L310:
 358:../../libs/libDaisy/src/sys/../../../../libs/libDaisy/src/hid/disp/display.h ****                     d2 = (t_sxy - t_syx < 0 && t_exy - t_eyx > 0);
 4400              		.loc 9 358 55 discriminator 1 view .LVU1023
 4401 041c 76EE473A 		vsub.f32	s7, s12, s14
 358:../../libs/libDaisy/src/sys/../../../../libs/libDaisy/src/hid/disp/display.h ****                     d2 = (t_sxy - t_syx < 0 && t_exy - t_eyx > 0);
 4402              		.loc 9 358 46 discriminator 1 view .LVU1024
 4403 0420 F5EEC03A 		vcmpe.f32	s7, #0
 4404 0424 F1EE10FA 		vmrs	APSR_nzcv, FPSCR
 4405 0428 CCBF     		ite	gt
 4406 042a 0122     		movgt	r2, #1
 4407 042c 0022     		movle	r2, #0
 4408 042e 77E7     		b	.L248
 4409              	.LVL344:
 4410              	.L273:
 354:../../libs/libDaisy/src/sys/../../../../libs/libDaisy/src/hid/disp/display.h ****                 }
 4411              		.loc 9 354 47 view .LVU1025
 4412 0430 0124     		movs	r4, #1
 4413              	.LVL345:
 365:../../libs/libDaisy/src/sys/../../../../libs/libDaisy/src/hid/disp/display.h ****                 ((ChildType*)(this))
 4414              		.loc 9 365 13 view .LVU1026
 4415 0432 002A     		cmp	r2, #0
 4416 0434 3FF4C1AE 		beq	.L255
 365:../../libs/libDaisy/src/sys/../../../../libs/libDaisy/src/hid/disp/display.h ****                 ((ChildType*)(this))
 4417              		.loc 9 365 13 view .LVU1027
 4418 0438 49E7     		b	.L304
 4419              	.LVL346:
 4420              	.L270:
 352:../../libs/libDaisy/src/sys/../../../../libs/libDaisy/src/hid/disp/display.h ****                     d3 = (t_sxny - t_syx < 0 || t_exny - t_eyx > 0);
 4421              		.loc 9 352 33 view .LVU1028
 4422 043a 74EEC54A 		vsub.f32	s9, s9, s10
 4423              	.LVL347:
 351:../../libs/libDaisy/src/sys/../../../../libs/libDaisy/src/hid/disp/display.h ****                     d2 = (t_sxy - t_syx < 0 || t_exy - t_eyx > 0);
 4424              		.loc 9 351 46 view .LVU1029
 4425 043e 0122     		movs	r2, #1
ARM GAS  C:\Users\matte\AppData\Local\Temp\cclPkNhc.s 			page 130


 4426              	.LVL348:
 352:../../libs/libDaisy/src/sys/../../../../libs/libDaisy/src/hid/disp/display.h ****                     d3 = (t_sxny - t_syx < 0 || t_exny - t_eyx > 0);
 4427              		.loc 9 352 45 view .LVU1030
 4428 0440 F5EEC04A 		vcmpe.f32	s9, #0
 4429 0444 F1EE10FA 		vmrs	APSR_nzcv, FPSCR
 4430 0448 7FF589AE 		bpl	.L313
 4431              	.L271:
 353:../../libs/libDaisy/src/sys/../../../../libs/libDaisy/src/hid/disp/display.h ****                     d4 = (t_sxny - t_synx < 0 || t_exny - t_eynx > 0);
 4432              		.loc 9 353 34 view .LVU1031
 4433 044c 35EEC55A 		vsub.f32	s10, s11, s10
 4434              	.LVL349:
 352:../../libs/libDaisy/src/sys/../../../../libs/libDaisy/src/hid/disp/display.h ****                     d3 = (t_sxny - t_syx < 0 || t_exny - t_eyx > 0);
 4435              		.loc 9 352 45 view .LVU1032
 4436 0450 0121     		movs	r1, #1
 4437              	.LVL350:
 353:../../libs/libDaisy/src/sys/../../../../libs/libDaisy/src/hid/disp/display.h ****                     d4 = (t_sxny - t_synx < 0 || t_exny - t_eynx > 0);
 4438              		.loc 9 353 46 view .LVU1033
 4439 0452 B5EEC05A 		vcmpe.f32	s10, #0
 4440 0456 F1EE10FA 		vmrs	APSR_nzcv, FPSCR
 4441 045a 7FF591AE 		bpl	.L314
 4442              	.LVL351:
 4443              	.L272:
 353:../../libs/libDaisy/src/sys/../../../../libs/libDaisy/src/hid/disp/display.h ****                     d4 = (t_sxny - t_synx < 0 || t_exny - t_eynx > 0);
 4444              		.loc 9 353 46 view .LVU1034
 4445 045e 0127     		movs	r7, #1
 4446              	.LVL352:
 353:../../libs/libDaisy/src/sys/../../../../libs/libDaisy/src/hid/disp/display.h ****                     d4 = (t_sxny - t_synx < 0 || t_exny - t_eynx > 0);
 4447              		.loc 9 353 46 view .LVU1035
 4448 0460 97E6     		b	.L247
 4449              	.LVL353:
 4450              	.L239:
 308:../../libs/libDaisy/src/sys/../../../../libs/libDaisy/src/hid/disp/display.h ****             sweep = -sweep;
 4451              		.loc 9 308 25 view .LVU1036
 4452 0462 DDE91223 		ldrd	r2, r3, [sp, #72]
 4453              	.LVL354:
 308:../../libs/libDaisy/src/sys/../../../../libs/libDaisy/src/hid/disp/display.h ****             sweep = -sweep;
 4454              		.loc 9 308 25 view .LVU1037
 4455 0466 1344     		add	r3, r3, r2
 4456              	.LVL355:
 308:../../libs/libDaisy/src/sys/../../../../libs/libDaisy/src/hid/disp/display.h ****             sweep = -sweep;
 4457              		.loc 9 308 25 view .LVU1038
 4458 0468 06EE102A 		vmov	s12, r2	@ int
 4459 046c 1293     		str	r3, [sp, #72]
 4460 046e 139B     		ldr	r3, [sp, #76]
 4461              	.LVL356:
 308:../../libs/libDaisy/src/sys/../../../../libs/libDaisy/src/hid/disp/display.h ****             sweep = -sweep;
 4462              		.loc 9 308 25 view .LVU1039
 4463 0470 5B42     		rsbs	r3, r3, #0
 4464 0472 1393     		str	r3, [sp, #76]
 4465              	.LVL357:
 308:../../libs/libDaisy/src/sys/../../../../libs/libDaisy/src/hid/disp/display.h ****             sweep = -sweep;
 4466              		.loc 9 308 25 view .LVU1040
 4467 0474 D8E5     		b	.L240
 4468              		.cfi_endproc
 4469              	.LFE5452:
 4471 0476 00BF     		.section	.text._ZN5daisy25OneBitGraphicsDisplayImplINS_11OledDisplayINS_13SSD130xDriverILj128ELj64
 4472              		.align	1
ARM GAS  C:\Users\matte\AppData\Local\Temp\cclPkNhc.s 			page 131


 4473              		.p2align 2,,3
 4474              		.weak	_ZN5daisy25OneBitGraphicsDisplayImplINS_11OledDisplayINS_13SSD130xDriverILj128ELj64ENS_19SSD
 4475              		.syntax unified
 4476              		.thumb
 4477              		.thumb_func
 4478              		.fpu fpv5-d16
 4480              	_ZN5daisy25OneBitGraphicsDisplayImplINS_11OledDisplayINS_13SSD130xDriverILj128ELj64ENS_19SSD130xI2C
 4481              	.LVL358:
 4482              	.LFB5451:
 257:../../libs/libDaisy/src/sys/../../../../libs/libDaisy/src/hid/disp/display.h ****                   uint_fast8_t y1,
 4483              		.loc 9 257 10 is_stmt 1 view -0
 4484              		.cfi_startproc
 4485              		@ args = 12, pretend = 0, frame = 24
 4486              		@ frame_needed = 0, uses_anonymous_args = 0
 257:../../libs/libDaisy/src/sys/../../../../libs/libDaisy/src/hid/disp/display.h ****                   uint_fast8_t y1,
 4487              		.loc 9 257 10 is_stmt 0 view .LVU1042
 4488 0000 2DE9F04F 		push	{r4, r5, r6, r7, r8, r9, r10, fp, lr}
 4489              		.cfi_def_cfa_offset 36
 4490              		.cfi_offset 4, -36
 4491              		.cfi_offset 5, -32
 4492              		.cfi_offset 6, -28
 4493              		.cfi_offset 7, -24
 4494              		.cfi_offset 8, -20
 4495              		.cfi_offset 9, -16
 4496              		.cfi_offset 10, -12
 4497              		.cfi_offset 11, -8
 4498              		.cfi_offset 14, -4
 4499 0004 87B0     		sub	sp, sp, #28
 4500              		.cfi_def_cfa_offset 64
 257:../../libs/libDaisy/src/sys/../../../../libs/libDaisy/src/hid/disp/display.h ****                   uint_fast8_t y1,
 4501              		.loc 9 257 10 view .LVU1043
 4502 0006 9DF84850 		ldrb	r5, [sp, #72]	@ zero_extendqisi2
 4503 000a 109C     		ldr	r4, [sp, #64]
 4504 000c 2E46     		mov	r6, r5
 4505 000e 0195     		str	r5, [sp, #4]
 4506 0010 9DF84450 		ldrb	r5, [sp, #68]	@ zero_extendqisi2
 4507              	.LBB1325:
 264:../../libs/libDaisy/src/sys/../../../../libs/libDaisy/src/hid/disp/display.h ****         {
 4508              		.loc 9 264 9 view .LVU1044
 4509 0014 9EB3     		cbz	r6, .L318
 4510              	.LVL359:
 264:../../libs/libDaisy/src/sys/../../../../libs/libDaisy/src/hid/disp/display.h ****         {
 4511              		.loc 9 264 9 view .LVU1045
 4512              	.LBE1325:
 4513              	.LBB1447:
 4514              	.LBB1448:
 266:../../libs/libDaisy/src/sys/../../../../libs/libDaisy/src/hid/disp/display.h ****             {
 4515              		.loc 9 266 40 is_stmt 1 view .LVU1046
 4516 0016 9942     		cmp	r1, r3
 4517 0018 2ED8     		bhi	.L317
 4518 001a 9946     		mov	r9, r3
 4519              	.LVL360:
 4520              	.L321:
 4521              	.LBB1449:
 268:../../libs/libDaisy/src/sys/../../../../libs/libDaisy/src/hid/disp/display.h ****                 {
 4522              		.loc 9 268 44 view .LVU1047
 4523 001c A242     		cmp	r2, r4
ARM GAS  C:\Users\matte\AppData\Local\Temp\cclPkNhc.s 			page 132


 4524 001e 28D8     		bhi	.L324
 4525              	.LBB1450:
 4526              	.LBB1451:
 4527              	.LBB1452:
 342:../../libs/libDaisy/src/sys/../../../../libs/libDaisy/src/dev/oled_ssd130x.h ****             return;
 4528              		.loc 10 342 14 is_stmt 0 view .LVU1048
 4529 0020 7F29     		cmp	r1, #127
 4530 0022 1646     		mov	r6, r2
 4531 0024 94BF     		ite	ls
 4532 0026 0023     		movls	r3, #0
 4533 0028 0123     		movhi	r3, #1
 4534 002a 08E0     		b	.L325
 4535              	.LVL361:
 4536              	.L408:
 345:../../libs/libDaisy/src/sys/../../../../libs/libDaisy/src/dev/oled_ssd130x.h ****         else
 4537              		.loc 10 345 42 view .LVU1049
 4538 002c 9CF81080 		ldrb	r8, [ip, #16]	@ zero_extendqisi2
 4539 0030 4EEA080E 		orr	lr, lr, r8
 4540 0034 8CF810E0 		strb	lr, [ip, #16]
 4541              	.LVL362:
 4542              	.L322:
 345:../../libs/libDaisy/src/sys/../../../../libs/libDaisy/src/dev/oled_ssd130x.h ****         else
 4543              		.loc 10 345 42 view .LVU1050
 4544              	.LBE1452:
 4545              	.LBE1451:
 4546              	.LBE1450:
 268:../../libs/libDaisy/src/sys/../../../../libs/libDaisy/src/hid/disp/display.h ****                 {
 4547              		.loc 9 268 17 is_stmt 1 view .LVU1051
 4548 0038 0136     		adds	r6, r6, #1
 4549              	.LVL363:
 268:../../libs/libDaisy/src/sys/../../../../libs/libDaisy/src/hid/disp/display.h ****                 {
 4550              		.loc 9 268 44 view .LVU1052
 4551 003a B442     		cmp	r4, r6
 4552 003c 19D3     		bcc	.L324
 4553              	.L325:
 4554              	.LVL364:
 4555              	.LBB1466:
 4556              	.LBI1450:
  42:../../libs/libDaisy/src/sys/../../../../libs/libDaisy/src/hid/disp/oled_display.h ****     {
 4557              		.loc 8 42 10 view .LVU1053
 4558              	.LBB1463:
 4559              	.LBI1451:
 340:../../libs/libDaisy/src/sys/../../../../libs/libDaisy/src/dev/oled_ssd130x.h ****     {
 4560              		.loc 10 340 10 view .LVU1054
 4561              	.LBB1460:
 342:../../libs/libDaisy/src/sys/../../../../libs/libDaisy/src/dev/oled_ssd130x.h ****             return;
 4562              		.loc 10 342 9 is_stmt 0 view .LVU1055
 4563 003e 3F2E     		cmp	r6, #63
 4564 0040 FAD8     		bhi	.L322
 342:../../libs/libDaisy/src/sys/../../../../libs/libDaisy/src/dev/oled_ssd130x.h ****             return;
 4565              		.loc 10 342 9 view .LVU1056
 4566 0042 002B     		cmp	r3, #0
 4567 0044 F8D1     		bne	.L322
 4568              	.LVL365:
 4569              	.LBB1453:
 4570              	.LBI1453:
 340:../../libs/libDaisy/src/sys/../../../../libs/libDaisy/src/dev/oled_ssd130x.h ****     {
ARM GAS  C:\Users\matte\AppData\Local\Temp\cclPkNhc.s 			page 133


 4571              		.loc 10 340 10 is_stmt 1 view .LVU1057
 340:../../libs/libDaisy/src/sys/../../../../libs/libDaisy/src/dev/oled_ssd130x.h ****     {
 4572              		.loc 10 340 10 is_stmt 0 view .LVU1058
 4573              	.LBE1453:
 345:../../libs/libDaisy/src/sys/../../../../libs/libDaisy/src/dev/oled_ssd130x.h ****         else
 4574              		.loc 10 345 28 view .LVU1059
 4575 0046 4FEAD60C 		lsr	ip, r6, #3
 345:../../libs/libDaisy/src/sys/../../../../libs/libDaisy/src/dev/oled_ssd130x.h ****         else
 4576              		.loc 10 345 54 view .LVU1060
 4577 004a 06F0070E 		and	lr, r6, #7
 345:../../libs/libDaisy/src/sys/../../../../libs/libDaisy/src/dev/oled_ssd130x.h ****         else
 4578              		.loc 10 345 48 view .LVU1061
 4579 004e 4FF00108 		mov	r8, #1
 345:../../libs/libDaisy/src/sys/../../../../libs/libDaisy/src/dev/oled_ssd130x.h ****         else
 4580              		.loc 10 345 42 view .LVU1062
 4581 0052 01EBCC1C 		add	ip, r1, ip, lsl #7
 345:../../libs/libDaisy/src/sys/../../../../libs/libDaisy/src/dev/oled_ssd130x.h ****         else
 4582              		.loc 10 345 48 view .LVU1063
 4583 0056 08FA0EFE 		lsl	lr, r8, lr
 345:../../libs/libDaisy/src/sys/../../../../libs/libDaisy/src/dev/oled_ssd130x.h ****         else
 4584              		.loc 10 345 42 view .LVU1064
 4585 005a 8444     		add	ip, ip, r0
 344:../../libs/libDaisy/src/sys/../../../../libs/libDaisy/src/dev/oled_ssd130x.h ****             buffer_[x + (y / 8) * width] |= (1 << (y % 8));
 4586              		.loc 10 344 9 view .LVU1065
 4587 005c 002D     		cmp	r5, #0
 4588 005e E5D1     		bne	.L408
 4589              	.LBB1457:
 4590              	.LBB1454:
 347:../../libs/libDaisy/src/sys/../../../../libs/libDaisy/src/dev/oled_ssd130x.h ****     }
 4591              		.loc 10 347 42 view .LVU1066
 4592 0060 9CF810B0 		ldrb	fp, [ip, #16]	@ zero_extendqisi2
 4593              	.LBE1454:
 4594              	.LBE1457:
 4595              	.LBE1460:
 4596              	.LBE1463:
 4597              	.LBE1466:
 268:../../libs/libDaisy/src/sys/../../../../libs/libDaisy/src/hid/disp/display.h ****                 {
 4598              		.loc 9 268 17 view .LVU1067
 4599 0064 0136     		adds	r6, r6, #1
 4600              	.LVL366:
 4601              	.LBB1467:
 4602              	.LBB1464:
 4603              	.LBB1461:
 4604              	.LBB1458:
 4605              	.LBB1455:
 347:../../libs/libDaisy/src/sys/../../../../libs/libDaisy/src/dev/oled_ssd130x.h ****     }
 4606              		.loc 10 347 42 view .LVU1068
 4607 0066 2BEA0E0A 		bic	r10, fp, lr
 4608              	.LBE1455:
 4609              	.LBE1458:
 4610              	.LBE1461:
 4611              	.LBE1464:
 4612              	.LBE1467:
 268:../../libs/libDaisy/src/sys/../../../../libs/libDaisy/src/hid/disp/display.h ****                 {
 4613              		.loc 9 268 44 view .LVU1069
 4614 006a B442     		cmp	r4, r6
 4615              	.LBB1468:
ARM GAS  C:\Users\matte\AppData\Local\Temp\cclPkNhc.s 			page 134


 4616              	.LBB1465:
 4617              	.LBB1462:
 4618              	.LBB1459:
 4619              	.LBB1456:
 347:../../libs/libDaisy/src/sys/../../../../libs/libDaisy/src/dev/oled_ssd130x.h ****     }
 4620              		.loc 10 347 42 view .LVU1070
 4621 006c 8CF810A0 		strb	r10, [ip, #16]
 4622              	.LVL367:
 347:../../libs/libDaisy/src/sys/../../../../libs/libDaisy/src/dev/oled_ssd130x.h ****     }
 4623              		.loc 10 347 42 view .LVU1071
 4624              	.LBE1456:
 4625              	.LBE1459:
 4626              	.LBE1462:
 4627              	.LBE1465:
 4628              	.LBE1468:
 268:../../libs/libDaisy/src/sys/../../../../libs/libDaisy/src/hid/disp/display.h ****                 {
 4629              		.loc 9 268 17 is_stmt 1 view .LVU1072
 268:../../libs/libDaisy/src/sys/../../../../libs/libDaisy/src/hid/disp/display.h ****                 {
 4630              		.loc 9 268 44 view .LVU1073
 4631 0070 E5D2     		bcs	.L325
 4632              	.LVL368:
 4633              	.L324:
 268:../../libs/libDaisy/src/sys/../../../../libs/libDaisy/src/hid/disp/display.h ****                 {
 4634              		.loc 9 268 44 is_stmt 0 view .LVU1074
 4635              	.LBE1449:
 266:../../libs/libDaisy/src/sys/../../../../libs/libDaisy/src/hid/disp/display.h ****             {
 4636              		.loc 9 266 13 is_stmt 1 view .LVU1075
 4637 0072 0131     		adds	r1, r1, #1
 4638              	.LVL369:
 266:../../libs/libDaisy/src/sys/../../../../libs/libDaisy/src/hid/disp/display.h ****             {
 4639              		.loc 9 266 40 view .LVU1076
 4640 0074 8945     		cmp	r9, r1
 4641 0076 D1D2     		bcs	.L321
 4642              	.LVL370:
 4643              	.L317:
 266:../../libs/libDaisy/src/sys/../../../../libs/libDaisy/src/hid/disp/display.h ****             {
 4644              		.loc 9 266 40 is_stmt 0 view .LVU1077
 4645              	.LBE1448:
 4646              	.LBE1447:
 281:../../libs/libDaisy/src/sys/../../../../libs/libDaisy/src/hid/disp/display.h **** 
 4647              		.loc 9 281 5 view .LVU1078
 4648 0078 07B0     		add	sp, sp, #28
 4649              		.cfi_remember_state
 4650              		.cfi_def_cfa_offset 36
 4651              		@ sp needed
 4652 007a BDE8F08F 		pop	{r4, r5, r6, r7, r8, r9, r10, fp, pc}
 4653              	.LVL371:
 4654              	.L318:
 4655              		.cfi_restore_state
 4656              	.LBB1469:
 4657              	.LBB1326:
 4658              	.LBI1326:
 221:../../libs/libDaisy/src/sys/../../../../libs/libDaisy/src/hid/disp/display.h ****                   uint_fast8_t y1,
 4659              		.loc 9 221 10 is_stmt 1 view .LVU1079
 4660              	.LBB1327:
 227:../../libs/libDaisy/src/sys/../../../../libs/libDaisy/src/hid/disp/display.h ****         int_fast16_t deltaY = abs((int_fast16_t)y2 - (int_fast16_t)y1);
 4661              		.loc 9 227 52 is_stmt 0 view .LVU1080
ARM GAS  C:\Users\matte\AppData\Local\Temp\cclPkNhc.s 			page 135


 4662 007e A3EB0108 		sub	r8, r3, r1
 227:../../libs/libDaisy/src/sys/../../../../libs/libDaisy/src/hid/disp/display.h ****         int_fast16_t deltaY = abs((int_fast16_t)y2 - (int_fast16_t)y1);
 4663              		.loc 9 227 22 view .LVU1081
 4664 0082 B8F1000F 		cmp	r8, #0
 4665 0086 B8BF     		it	lt
 4666 0088 C8F10008 		rsblt	r8, r8, #0
 4667              	.LVL372:
 229:../../libs/libDaisy/src/sys/../../../../libs/libDaisy/src/hid/disp/display.h ****         int_fast16_t signY  = ((y1 < y2) ? 1 : -1);
 4668              		.loc 9 229 42 view .LVU1082
 4669 008c 9942     		cmp	r1, r3
 4670 008e C0F04E81 		bcc	.L326
 4671              	.LVL373:
 4672              	.LBB1328:
 4673              	.LBI1328:
  42:../../libs/libDaisy/src/sys/../../../../libs/libDaisy/src/hid/disp/oled_display.h ****     {
 4674              		.loc 8 42 10 is_stmt 1 view .LVU1083
 4675              	.LBB1329:
 4676              	.LBI1329:
 340:../../libs/libDaisy/src/sys/../../../../libs/libDaisy/src/dev/oled_ssd130x.h ****     {
 4677              		.loc 10 340 10 view .LVU1084
 4678              	.LBB1330:
 342:../../libs/libDaisy/src/sys/../../../../libs/libDaisy/src/dev/oled_ssd130x.h ****             return;
 4679              		.loc 10 342 14 is_stmt 0 view .LVU1085
 4680 0092 7F2B     		cmp	r3, #127
 4681              	.LBE1330:
 4682              	.LBE1329:
 4683              	.LBE1328:
 229:../../libs/libDaisy/src/sys/../../../../libs/libDaisy/src/hid/disp/display.h ****         int_fast16_t signY  = ((y1 < y2) ? 1 : -1);
 4684              		.loc 9 229 42 view .LVU1086
 4685 0094 4FF0FF3A 		mov	r10, #-1
 4686              	.LBB1341:
 4687              	.LBB1337:
 4688              	.LBB1333:
 342:../../libs/libDaisy/src/sys/../../../../libs/libDaisy/src/dev/oled_ssd130x.h ****             return;
 4689              		.loc 10 342 14 view .LVU1087
 4690 0098 94BF     		ite	ls
 4691 009a 0026     		movls	r6, #0
 4692 009c 0126     		movhi	r6, #1
 342:../../libs/libDaisy/src/sys/../../../../libs/libDaisy/src/dev/oled_ssd130x.h ****             return;
 4693              		.loc 10 342 28 view .LVU1088
 4694 009e 3F2A     		cmp	r2, #63
 342:../../libs/libDaisy/src/sys/../../../../libs/libDaisy/src/dev/oled_ssd130x.h ****             return;
 4695              		.loc 10 342 14 view .LVU1089
 4696 00a0 0096     		str	r6, [sp]
 342:../../libs/libDaisy/src/sys/../../../../libs/libDaisy/src/dev/oled_ssd130x.h ****             return;
 4697              		.loc 10 342 28 view .LVU1090
 4698 00a2 94BF     		ite	ls
 4699 00a4 0027     		movls	r7, #0
 4700 00a6 0127     		movhi	r7, #1
 4701 00a8 0297     		str	r7, [sp, #8]
 342:../../libs/libDaisy/src/sys/../../../../libs/libDaisy/src/dev/oled_ssd130x.h ****             return;
 4702              		.loc 10 342 9 view .LVU1091
 4703 00aa A6B9     		cbnz	r6, .L327
 4704 00ac 9FB9     		cbnz	r7, .L327
 4705              	.LVL374:
 4706              	.L368:
 345:../../libs/libDaisy/src/sys/../../../../libs/libDaisy/src/dev/oled_ssd130x.h ****         else
ARM GAS  C:\Users\matte\AppData\Local\Temp\cclPkNhc.s 			page 136


 4707              		.loc 10 345 28 view .LVU1092
 4708 00ae D608     		lsrs	r6, r2, #3
 345:../../libs/libDaisy/src/sys/../../../../libs/libDaisy/src/dev/oled_ssd130x.h ****         else
 4709              		.loc 10 345 54 view .LVU1093
 4710 00b0 02F0070C 		and	ip, r2, #7
 345:../../libs/libDaisy/src/sys/../../../../libs/libDaisy/src/dev/oled_ssd130x.h ****         else
 4711              		.loc 10 345 48 view .LVU1094
 4712 00b4 0127     		movs	r7, #1
 345:../../libs/libDaisy/src/sys/../../../../libs/libDaisy/src/dev/oled_ssd130x.h ****         else
 4713              		.loc 10 345 42 view .LVU1095
 4714 00b6 03EBC616 		add	r6, r3, r6, lsl #7
 4715 00ba 0644     		add	r6, r6, r0
 344:../../libs/libDaisy/src/sys/../../../../libs/libDaisy/src/dev/oled_ssd130x.h ****             buffer_[x + (y / 8) * width] |= (1 << (y % 8));
 4716              		.loc 10 344 9 view .LVU1096
 4717 00bc 002D     		cmp	r5, #0
 4718 00be 00F09481 		beq	.L328
 345:../../libs/libDaisy/src/sys/../../../../libs/libDaisy/src/dev/oled_ssd130x.h ****         else
 4719              		.loc 10 345 48 view .LVU1097
 4720 00c2 07FA0CF7 		lsl	r7, r7, ip
 345:../../libs/libDaisy/src/sys/../../../../libs/libDaisy/src/dev/oled_ssd130x.h ****         else
 4721              		.loc 10 345 42 view .LVU1098
 4722 00c6 96F810C0 		ldrb	ip, [r6, #16]	@ zero_extendqisi2
 4723 00ca 47EA0C07 		orr	r7, r7, ip
 4724 00ce 3774     		strb	r7, [r6, #16]
 4725 00d0 0026     		movs	r6, #0
 4726 00d2 0296     		str	r6, [sp, #8]
 4727 00d4 0096     		str	r6, [sp]
 4728              	.L327:
 4729              	.LVL375:
 345:../../libs/libDaisy/src/sys/../../../../libs/libDaisy/src/dev/oled_ssd130x.h ****         else
 4730              		.loc 10 345 42 view .LVU1099
 4731              	.LBE1333:
 4732              	.LBE1337:
 4733              	.LBE1341:
 239:../../libs/libDaisy/src/sys/../../../../libs/libDaisy/src/hid/disp/display.h ****         {
 4734              		.loc 9 239 26 is_stmt 1 view .LVU1100
 4735 00d6 9942     		cmp	r1, r3
 4736 00d8 00F09781 		beq	.L409
 4737              	.L330:
 4738              	.LVL376:
 227:../../libs/libDaisy/src/sys/../../../../libs/libDaisy/src/hid/disp/display.h ****         int_fast16_t deltaY = abs((int_fast16_t)y2 - (int_fast16_t)y1);
 4739              		.loc 9 227 22 is_stmt 0 view .LVU1101
 4740 00dc 4646     		mov	r6, r8
 4741 00de 9446     		mov	ip, r2
 4742 00e0 8E46     		mov	lr, r1
 4743              	.LVL377:
 4744              	.L332:
 4745              	.LBB1342:
 4746              	.LBI1342:
  42:../../libs/libDaisy/src/sys/../../../../libs/libDaisy/src/hid/disp/oled_display.h ****     {
 4747              		.loc 8 42 10 is_stmt 1 view .LVU1102
 4748              	.LBB1343:
 4749              	.LBI1343:
 340:../../libs/libDaisy/src/sys/../../../../libs/libDaisy/src/dev/oled_ssd130x.h ****     {
 4750              		.loc 10 340 10 view .LVU1103
 4751              	.LBB1344:
 342:../../libs/libDaisy/src/sys/../../../../libs/libDaisy/src/dev/oled_ssd130x.h ****             return;
ARM GAS  C:\Users\matte\AppData\Local\Temp\cclPkNhc.s 			page 137


 4752              		.loc 10 342 9 is_stmt 0 view .LVU1104
 4753 00e2 BEF17F0F 		cmp	lr, #127
 4754 00e6 16D8     		bhi	.L333
 4755 00e8 BCF13F0F 		cmp	ip, #63
 4756 00ec 13D8     		bhi	.L333
 345:../../libs/libDaisy/src/sys/../../../../libs/libDaisy/src/dev/oled_ssd130x.h ****         else
 4757              		.loc 10 345 28 view .LVU1105
 4758 00ee 4FEADC07 		lsr	r7, ip, #3
 345:../../libs/libDaisy/src/sys/../../../../libs/libDaisy/src/dev/oled_ssd130x.h ****         else
 4759              		.loc 10 345 54 view .LVU1106
 4760 00f2 0CF0070B 		and	fp, ip, #7
 345:../../libs/libDaisy/src/sys/../../../../libs/libDaisy/src/dev/oled_ssd130x.h ****         else
 4761              		.loc 10 345 48 view .LVU1107
 4762 00f6 4FF00109 		mov	r9, #1
 345:../../libs/libDaisy/src/sys/../../../../libs/libDaisy/src/dev/oled_ssd130x.h ****         else
 4763              		.loc 10 345 42 view .LVU1108
 4764 00fa 0EEBC717 		add	r7, lr, r7, lsl #7
 4765 00fe 0744     		add	r7, r7, r0
 344:../../libs/libDaisy/src/sys/../../../../libs/libDaisy/src/dev/oled_ssd130x.h ****             buffer_[x + (y / 8) * width] |= (1 << (y % 8));
 4766              		.loc 10 344 9 view .LVU1109
 4767 0100 002D     		cmp	r5, #0
 4768 0102 00F03981 		beq	.L334
 345:../../libs/libDaisy/src/sys/../../../../libs/libDaisy/src/dev/oled_ssd130x.h ****         else
 4769              		.loc 10 345 48 view .LVU1110
 4770 0106 09FA0BF9 		lsl	r9, r9, fp
 345:../../libs/libDaisy/src/sys/../../../../libs/libDaisy/src/dev/oled_ssd130x.h ****         else
 4771              		.loc 10 345 42 view .LVU1111
 4772 010a 97F810B0 		ldrb	fp, [r7, #16]	@ zero_extendqisi2
 4773 010e 49EA0B09 		orr	r9, r9, fp
 4774 0112 87F81090 		strb	r9, [r7, #16]
 4775              	.L333:
 4776              	.LVL378:
 345:../../libs/libDaisy/src/sys/../../../../libs/libDaisy/src/dev/oled_ssd130x.h ****         else
 4777              		.loc 10 345 42 view .LVU1112
 4778              	.LBE1344:
 4779              	.LBE1343:
 4780              	.LBE1342:
 243:../../libs/libDaisy/src/sys/../../../../libs/libDaisy/src/hid/disp/display.h ****             {
 4781              		.loc 9 243 13 view .LVU1113
 4782 0116 7700     		lsls	r7, r6, #1
 4783              	.LVL379:
 246:../../libs/libDaisy/src/sys/../../../../libs/libDaisy/src/hid/disp/display.h ****             }
 4784              		.loc 9 246 20 view .LVU1114
 4785 0118 18BF     		it	ne
 4786 011a D644     		addne	lr, lr, r10
 4787              	.LVL380:
 249:../../libs/libDaisy/src/sys/../../../../libs/libDaisy/src/hid/disp/display.h ****             {
 4788              		.loc 9 249 13 view .LVU1115
 4789 011c B845     		cmp	r8, r7
 4790 011e 02DD     		ble	.L336
 251:../../libs/libDaisy/src/sys/../../../../libs/libDaisy/src/hid/disp/display.h ****                 y1 += signY;
 4791              		.loc 9 251 23 view .LVU1116
 4792 0120 4644     		add	r6, r6, r8
 4793              	.LVL381:
 252:../../libs/libDaisy/src/sys/../../../../libs/libDaisy/src/hid/disp/display.h ****             }
 4794              		.loc 9 252 20 view .LVU1117
 4795 0122 0CF1FF3C 		add	ip, ip, #-1
ARM GAS  C:\Users\matte\AppData\Local\Temp\cclPkNhc.s 			page 138


 4796              	.LVL382:
 4797              	.L336:
 239:../../libs/libDaisy/src/sys/../../../../libs/libDaisy/src/hid/disp/display.h ****         {
 4798              		.loc 9 239 26 is_stmt 1 view .LVU1118
 4799 0126 7345     		cmp	r3, lr
 4800 0128 DBD1     		bne	.L332
 239:../../libs/libDaisy/src/sys/../../../../libs/libDaisy/src/hid/disp/display.h ****         {
 4801              		.loc 9 239 26 is_stmt 0 view .LVU1119
 4802 012a 6245     		cmp	r2, ip
 4803 012c D9D1     		bne	.L332
 4804 012e 0026     		movs	r6, #0
 4805              	.LVL383:
 239:../../libs/libDaisy/src/sys/../../../../libs/libDaisy/src/hid/disp/display.h ****         {
 4806              		.loc 9 239 26 view .LVU1120
 4807 0130 0496     		str	r6, [sp, #16]
 4808              	.LVL384:
 4809              	.L329:
 239:../../libs/libDaisy/src/sys/../../../../libs/libDaisy/src/hid/disp/display.h ****         {
 4810              		.loc 9 239 26 view .LVU1121
 4811              	.LBE1327:
 4812              	.LBE1326:
 4813              	.LBB1357:
 4814              	.LBI1357:
 221:../../libs/libDaisy/src/sys/../../../../libs/libDaisy/src/hid/disp/display.h ****                   uint_fast8_t y1,
 4815              		.loc 9 221 10 is_stmt 1 view .LVU1122
 4816              	.LBB1358:
 228:../../libs/libDaisy/src/sys/../../../../libs/libDaisy/src/hid/disp/display.h ****         int_fast16_t signX  = ((x1 < x2) ? 1 : -1);
 4817              		.loc 9 228 52 is_stmt 0 view .LVU1123
 4818 0132 A4EB0209 		sub	r9, r4, r2
 4819              	.LBB1359:
 4820              	.LBB1360:
 4821              	.LBB1361:
 342:../../libs/libDaisy/src/sys/../../../../libs/libDaisy/src/dev/oled_ssd130x.h ****             return;
 4822              		.loc 10 342 9 view .LVU1124
 4823 0136 009F     		ldr	r7, [sp]
 4824              	.LBE1361:
 4825              	.LBE1360:
 4826              	.LBE1359:
 228:../../libs/libDaisy/src/sys/../../../../libs/libDaisy/src/hid/disp/display.h ****         int_fast16_t signX  = ((x1 < x2) ? 1 : -1);
 4827              		.loc 9 228 22 view .LVU1125
 4828 0138 B9F1000F 		cmp	r9, #0
 4829 013c B8BF     		it	lt
 4830 013e C9F10009 		rsblt	r9, r9, #0
 4831              	.LVL385:
 4832              	.LBB1376:
 4833              	.LBB1370:
 4834              	.LBB1364:
 342:../../libs/libDaisy/src/sys/../../../../libs/libDaisy/src/dev/oled_ssd130x.h ****             return;
 4835              		.loc 10 342 28 view .LVU1126
 4836 0142 3F2C     		cmp	r4, #63
 4837 0144 94BF     		ite	ls
 4838 0146 0026     		movls	r6, #0
 4839 0148 0126     		movhi	r6, #1
 4840              	.LBE1364:
 4841              	.LBE1370:
 4842              	.LBE1376:
 230:../../libs/libDaisy/src/sys/../../../../libs/libDaisy/src/hid/disp/display.h ****         int_fast16_t error  = deltaX - deltaY;
ARM GAS  C:\Users\matte\AppData\Local\Temp\cclPkNhc.s 			page 139


 4843              		.loc 9 230 42 view .LVU1127
 4844 014a A242     		cmp	r2, r4
 231:../../libs/libDaisy/src/sys/../../../../libs/libDaisy/src/hid/disp/display.h ****         int_fast16_t error2;
 4845              		.loc 9 231 22 view .LVU1128
 4846 014c C9F10008 		rsb	r8, r9, #0
 4847              	.LVL386:
 4848              	.LBB1377:
 4849              	.LBI1359:
  42:../../libs/libDaisy/src/sys/../../../../libs/libDaisy/src/hid/disp/oled_display.h ****     {
 4850              		.loc 8 42 10 is_stmt 1 view .LVU1129
 4851              	.LBB1371:
 4852              	.LBI1360:
 340:../../libs/libDaisy/src/sys/../../../../libs/libDaisy/src/dev/oled_ssd130x.h ****     {
 4853              		.loc 10 340 10 view .LVU1130
 4854              	.LBB1365:
 342:../../libs/libDaisy/src/sys/../../../../libs/libDaisy/src/dev/oled_ssd130x.h ****             return;
 4855              		.loc 10 342 28 is_stmt 0 view .LVU1131
 4856 0150 0396     		str	r6, [sp, #12]
 4857              	.LBE1365:
 4858              	.LBE1371:
 4859              	.LBE1377:
 230:../../libs/libDaisy/src/sys/../../../../libs/libDaisy/src/hid/disp/display.h ****         int_fast16_t error  = deltaX - deltaY;
 4860              		.loc 9 230 42 view .LVU1132
 4861 0152 C0F02381 		bcc	.L337
 4862              	.LVL387:
 4863              	.LBB1378:
 4864              	.LBB1372:
 4865              	.LBB1366:
 342:../../libs/libDaisy/src/sys/../../../../libs/libDaisy/src/dev/oled_ssd130x.h ****             return;
 4866              		.loc 10 342 9 view .LVU1133
 4867 0156 002F     		cmp	r7, #0
 4868 0158 40F05081 		bne	.L372
 4869 015c 002E     		cmp	r6, #0
 4870 015e 40F04D81 		bne	.L372
 4871              	.LBE1366:
 4872              	.LBE1372:
 4873              	.LBE1378:
 230:../../libs/libDaisy/src/sys/../../../../libs/libDaisy/src/hid/disp/display.h ****         int_fast16_t error  = deltaX - deltaY;
 4874              		.loc 9 230 42 view .LVU1134
 4875 0162 4FF0FF36 		mov	r6, #-1
 4876 0166 0096     		str	r6, [sp]
 4877              	.LBB1379:
 4878              	.LBB1373:
 4879              	.LBB1367:
 345:../../libs/libDaisy/src/sys/../../../../libs/libDaisy/src/dev/oled_ssd130x.h ****         else
 4880              		.loc 10 345 28 view .LVU1135
 4881 0168 E608     		lsrs	r6, r4, #3
 345:../../libs/libDaisy/src/sys/../../../../libs/libDaisy/src/dev/oled_ssd130x.h ****         else
 4882              		.loc 10 345 42 view .LVU1136
 4883 016a 03EBC616 		add	r6, r3, r6, lsl #7
 4884 016e 0644     		add	r6, r6, r0
 344:../../libs/libDaisy/src/sys/../../../../libs/libDaisy/src/dev/oled_ssd130x.h ****             buffer_[x + (y / 8) * width] |= (1 << (y % 8));
 4885              		.loc 10 344 9 view .LVU1137
 4886 0170 002D     		cmp	r5, #0
 4887 0172 00F01E81 		beq	.L339
 4888              	.LVL388:
 4889              	.L411:
ARM GAS  C:\Users\matte\AppData\Local\Temp\cclPkNhc.s 			page 140


 345:../../libs/libDaisy/src/sys/../../../../libs/libDaisy/src/dev/oled_ssd130x.h ****         else
 4890              		.loc 10 345 48 view .LVU1138
 4891 0176 4FF0010C 		mov	ip, #1
 345:../../libs/libDaisy/src/sys/../../../../libs/libDaisy/src/dev/oled_ssd130x.h ****         else
 4892              		.loc 10 345 54 view .LVU1139
 4893 017a 04F00707 		and	r7, r4, #7
 345:../../libs/libDaisy/src/sys/../../../../libs/libDaisy/src/dev/oled_ssd130x.h ****         else
 4894              		.loc 10 345 48 view .LVU1140
 4895 017e 0CFA07F7 		lsl	r7, ip, r7
 345:../../libs/libDaisy/src/sys/../../../../libs/libDaisy/src/dev/oled_ssd130x.h ****         else
 4896              		.loc 10 345 42 view .LVU1141
 4897 0182 96F810C0 		ldrb	ip, [r6, #16]	@ zero_extendqisi2
 4898 0186 47EA0C07 		orr	r7, r7, ip
 4899 018a 3774     		strb	r7, [r6, #16]
 4900 018c 0026     		movs	r6, #0
 4901 018e 0396     		str	r6, [sp, #12]
 4902              	.L338:
 4903              	.LVL389:
 345:../../libs/libDaisy/src/sys/../../../../libs/libDaisy/src/dev/oled_ssd130x.h ****         else
 4904              		.loc 10 345 42 view .LVU1142
 4905              	.LBE1367:
 4906              	.LBE1373:
 4907              	.LBE1379:
 239:../../libs/libDaisy/src/sys/../../../../libs/libDaisy/src/hid/disp/display.h ****         {
 4908              		.loc 9 239 26 is_stmt 1 view .LVU1143
 4909 0190 A242     		cmp	r2, r4
 4910 0192 00F03D81 		beq	.L410
 4911              	.L341:
 4912              	.LVL390:
 230:../../libs/libDaisy/src/sys/../../../../libs/libDaisy/src/hid/disp/display.h ****         int_fast16_t error  = deltaX - deltaY;
 4913              		.loc 9 230 42 is_stmt 0 view .LVU1144
 4914 0196 C446     		mov	ip, r8
 4915 0198 1646     		mov	r6, r2
 4916 019a 1F46     		mov	r7, r3
 4917 019c 0592     		str	r2, [sp, #20]
 4918              	.LVL391:
 4919              	.L343:
 4920              	.LBB1380:
 4921              	.LBI1380:
  42:../../libs/libDaisy/src/sys/../../../../libs/libDaisy/src/hid/disp/oled_display.h ****     {
 4922              		.loc 8 42 10 is_stmt 1 view .LVU1145
 4923              	.LBB1381:
 4924              	.LBI1381:
 340:../../libs/libDaisy/src/sys/../../../../libs/libDaisy/src/dev/oled_ssd130x.h ****     {
 4925              		.loc 10 340 10 view .LVU1146
 4926              	.LBB1382:
 342:../../libs/libDaisy/src/sys/../../../../libs/libDaisy/src/dev/oled_ssd130x.h ****             return;
 4927              		.loc 10 342 9 is_stmt 0 view .LVU1147
 4928 019e 7F2F     		cmp	r7, #127
 4929 01a0 15D8     		bhi	.L344
 4930 01a2 3F2E     		cmp	r6, #63
 4931 01a4 13D8     		bhi	.L344
 345:../../libs/libDaisy/src/sys/../../../../libs/libDaisy/src/dev/oled_ssd130x.h ****         else
 4932              		.loc 10 345 28 view .LVU1148
 4933 01a6 4FEAD60E 		lsr	lr, r6, #3
 345:../../libs/libDaisy/src/sys/../../../../libs/libDaisy/src/dev/oled_ssd130x.h ****         else
 4934              		.loc 10 345 54 view .LVU1149
ARM GAS  C:\Users\matte\AppData\Local\Temp\cclPkNhc.s 			page 141


 4935 01aa 06F0070B 		and	fp, r6, #7
 345:../../libs/libDaisy/src/sys/../../../../libs/libDaisy/src/dev/oled_ssd130x.h ****         else
 4936              		.loc 10 345 48 view .LVU1150
 4937 01ae 4FF0010A 		mov	r10, #1
 345:../../libs/libDaisy/src/sys/../../../../libs/libDaisy/src/dev/oled_ssd130x.h ****         else
 4938              		.loc 10 345 42 view .LVU1151
 4939 01b2 07EBCE1E 		add	lr, r7, lr, lsl #7
 4940 01b6 8644     		add	lr, lr, r0
 344:../../libs/libDaisy/src/sys/../../../../libs/libDaisy/src/dev/oled_ssd130x.h ****             buffer_[x + (y / 8) * width] |= (1 << (y % 8));
 4941              		.loc 10 344 9 view .LVU1152
 4942 01b8 002D     		cmp	r5, #0
 4943 01ba 00F0E680 		beq	.L345
 345:../../libs/libDaisy/src/sys/../../../../libs/libDaisy/src/dev/oled_ssd130x.h ****         else
 4944              		.loc 10 345 48 view .LVU1153
 4945 01be 0AFA0BFA 		lsl	r10, r10, fp
 345:../../libs/libDaisy/src/sys/../../../../libs/libDaisy/src/dev/oled_ssd130x.h ****         else
 4946              		.loc 10 345 42 view .LVU1154
 4947 01c2 9EF810B0 		ldrb	fp, [lr, #16]	@ zero_extendqisi2
 4948 01c6 4AEA0B0A 		orr	r10, r10, fp
 4949 01ca 8EF810A0 		strb	r10, [lr, #16]
 4950              	.L344:
 4951              	.LVL392:
 345:../../libs/libDaisy/src/sys/../../../../libs/libDaisy/src/dev/oled_ssd130x.h ****         else
 4952              		.loc 10 345 42 view .LVU1155
 4953              	.LBE1382:
 4954              	.LBE1381:
 4955              	.LBE1380:
 243:../../libs/libDaisy/src/sys/../../../../libs/libDaisy/src/hid/disp/display.h ****             {
 4956              		.loc 9 243 13 view .LVU1156
 4957 01ce B8EB4C0F 		cmp	r8, ip, lsl #1
 242:../../libs/libDaisy/src/sys/../../../../libs/libDaisy/src/hid/disp/display.h ****             if(error2 > -deltaY)
 4958              		.loc 9 242 20 view .LVU1157
 4959 01d2 4FEA4C0E 		lsl	lr, ip, #1
 4960              	.LVL393:
 243:../../libs/libDaisy/src/sys/../../../../libs/libDaisy/src/hid/disp/display.h ****             {
 4961              		.loc 9 243 13 view .LVU1158
 4962 01d6 02DA     		bge	.L346
 245:../../libs/libDaisy/src/sys/../../../../libs/libDaisy/src/hid/disp/display.h ****                 x1 += signX;
 4963              		.loc 9 245 23 view .LVU1159
 4964 01d8 ACEB090C 		sub	ip, ip, r9
 4965              	.LVL394:
 246:../../libs/libDaisy/src/sys/../../../../libs/libDaisy/src/hid/disp/display.h ****             }
 4966              		.loc 9 246 20 view .LVU1160
 4967 01dc 013F     		subs	r7, r7, #1
 4968              	.LVL395:
 4969              	.L346:
 249:../../libs/libDaisy/src/sys/../../../../libs/libDaisy/src/hid/disp/display.h ****             {
 4970              		.loc 9 249 13 view .LVU1161
 4971 01de BEF1000F 		cmp	lr, #0
 4972 01e2 01D0     		beq	.L347
 252:../../libs/libDaisy/src/sys/../../../../libs/libDaisy/src/hid/disp/display.h ****             }
 4973              		.loc 9 252 20 view .LVU1162
 4974 01e4 009A     		ldr	r2, [sp]
 4975 01e6 1644     		add	r6, r6, r2
 4976              	.LVL396:
 4977              	.L347:
 239:../../libs/libDaisy/src/sys/../../../../libs/libDaisy/src/hid/disp/display.h ****         {
ARM GAS  C:\Users\matte\AppData\Local\Temp\cclPkNhc.s 			page 142


 4978              		.loc 9 239 26 is_stmt 1 view .LVU1163
 4979 01e8 BB42     		cmp	r3, r7
 4980 01ea D8D1     		bne	.L343
 239:../../libs/libDaisy/src/sys/../../../../libs/libDaisy/src/hid/disp/display.h ****         {
 4981              		.loc 9 239 26 is_stmt 0 view .LVU1164
 4982 01ec B442     		cmp	r4, r6
 4983 01ee D6D1     		bne	.L343
 4984 01f0 059A     		ldr	r2, [sp, #20]
 4985              	.LVL397:
 4986              	.L340:
 239:../../libs/libDaisy/src/sys/../../../../libs/libDaisy/src/hid/disp/display.h ****         {
 4987              		.loc 9 239 26 view .LVU1165
 4988              	.LBE1358:
 4989              	.LBE1357:
 4990              	.LBB1393:
 4991              	.LBI1393:
 221:../../libs/libDaisy/src/sys/../../../../libs/libDaisy/src/hid/disp/display.h ****                   uint_fast8_t y1,
 4992              		.loc 9 221 10 is_stmt 1 view .LVU1166
 4993              	.LBB1394:
 227:../../libs/libDaisy/src/sys/../../../../libs/libDaisy/src/hid/disp/display.h ****         int_fast16_t deltaY = abs((int_fast16_t)y2 - (int_fast16_t)y1);
 4994              		.loc 9 227 52 is_stmt 0 view .LVU1167
 4995 01f2 A1EB030E 		sub	lr, r1, r3
 227:../../libs/libDaisy/src/sys/../../../../libs/libDaisy/src/hid/disp/display.h ****         int_fast16_t deltaY = abs((int_fast16_t)y2 - (int_fast16_t)y1);
 4996              		.loc 9 227 22 view .LVU1168
 4997 01f6 BEF1000F 		cmp	lr, #0
 4998 01fa B8BF     		it	lt
 4999 01fc CEF1000E 		rsblt	lr, lr, #0
 5000              	.LVL398:
 5001              	.LBB1395:
 5002              	.LBB1396:
 5003              	.LBB1397:
 342:../../libs/libDaisy/src/sys/../../../../libs/libDaisy/src/dev/oled_ssd130x.h ****             return;
 5004              		.loc 10 342 14 view .LVU1169
 5005 0200 7F29     		cmp	r1, #127
 5006 0202 94BF     		ite	ls
 5007 0204 4FF0000A 		movls	r10, #0
 5008 0208 4FF0010A 		movhi	r10, #1
 5009              	.LBE1397:
 5010              	.LBE1396:
 5011              	.LBE1395:
 229:../../libs/libDaisy/src/sys/../../../../libs/libDaisy/src/hid/disp/display.h ****         int_fast16_t signY  = ((y1 < y2) ? 1 : -1);
 5012              		.loc 9 229 42 view .LVU1170
 5013 020c 9942     		cmp	r1, r3
 5014 020e 8CBF     		ite	hi
 5015 0210 4FF00109 		movhi	r9, #1
 5016 0214 4FF0FF39 		movls	r9, #-1
 5017              	.LVL399:
 5018              	.LBB1404:
 5019              	.LBI1395:
  42:../../libs/libDaisy/src/sys/../../../../libs/libDaisy/src/hid/disp/oled_display.h ****     {
 5020              		.loc 8 42 10 is_stmt 1 view .LVU1171
 5021              	.LBB1402:
 5022              	.LBI1396:
 340:../../libs/libDaisy/src/sys/../../../../libs/libDaisy/src/dev/oled_ssd130x.h ****     {
 5023              		.loc 10 340 10 view .LVU1172
 5024              	.LBB1400:
 342:../../libs/libDaisy/src/sys/../../../../libs/libDaisy/src/dev/oled_ssd130x.h ****             return;
ARM GAS  C:\Users\matte\AppData\Local\Temp\cclPkNhc.s 			page 143


 5025              		.loc 10 342 9 is_stmt 0 view .LVU1173
 5026 0218 BAF1000F 		cmp	r10, #0
 5027 021c 13D1     		bne	.L349
 5028 021e 039E     		ldr	r6, [sp, #12]
 5029 0220 8EB9     		cbnz	r6, .L349
 345:../../libs/libDaisy/src/sys/../../../../libs/libDaisy/src/dev/oled_ssd130x.h ****         else
 5030              		.loc 10 345 28 view .LVU1174
 5031 0222 E608     		lsrs	r6, r4, #3
 345:../../libs/libDaisy/src/sys/../../../../libs/libDaisy/src/dev/oled_ssd130x.h ****         else
 5032              		.loc 10 345 42 view .LVU1175
 5033 0224 01EBC616 		add	r6, r1, r6, lsl #7
 5034 0228 0644     		add	r6, r6, r0
 344:../../libs/libDaisy/src/sys/../../../../libs/libDaisy/src/dev/oled_ssd130x.h ****             buffer_[x + (y / 8) * width] |= (1 << (y % 8));
 5035              		.loc 10 344 9 view .LVU1176
 5036 022a 002D     		cmp	r5, #0
 5037 022c 00F0D380 		beq	.L350
 345:../../libs/libDaisy/src/sys/../../../../libs/libDaisy/src/dev/oled_ssd130x.h ****         else
 5038              		.loc 10 345 48 view .LVU1177
 5039 0230 4FF0010C 		mov	ip, #1
 345:../../libs/libDaisy/src/sys/../../../../libs/libDaisy/src/dev/oled_ssd130x.h ****         else
 5040              		.loc 10 345 54 view .LVU1178
 5041 0234 04F00707 		and	r7, r4, #7
 345:../../libs/libDaisy/src/sys/../../../../libs/libDaisy/src/dev/oled_ssd130x.h ****         else
 5042              		.loc 10 345 48 view .LVU1179
 5043 0238 0CFA07F7 		lsl	r7, ip, r7
 345:../../libs/libDaisy/src/sys/../../../../libs/libDaisy/src/dev/oled_ssd130x.h ****         else
 5044              		.loc 10 345 42 view .LVU1180
 5045 023c 96F810C0 		ldrb	ip, [r6, #16]	@ zero_extendqisi2
 5046 0240 47EA0C07 		orr	r7, r7, ip
 5047 0244 3774     		strb	r7, [r6, #16]
 5048              	.L349:
 5049              	.LVL400:
 345:../../libs/libDaisy/src/sys/../../../../libs/libDaisy/src/dev/oled_ssd130x.h ****         else
 5050              		.loc 10 345 42 view .LVU1181
 5051              	.LBE1400:
 5052              	.LBE1402:
 5053              	.LBE1404:
 239:../../libs/libDaisy/src/sys/../../../../libs/libDaisy/src/hid/disp/display.h ****         {
 5054              		.loc 9 239 26 is_stmt 1 view .LVU1182
 5055 0246 049E     		ldr	r6, [sp, #16]
 5056 0248 26BB     		cbnz	r6, .L351
 227:../../libs/libDaisy/src/sys/../../../../libs/libDaisy/src/hid/disp/display.h ****         int_fast16_t deltaY = abs((int_fast16_t)y2 - (int_fast16_t)y1);
 5057              		.loc 9 227 22 is_stmt 0 view .LVU1183
 5058 024a 7746     		mov	r7, lr
 239:../../libs/libDaisy/src/sys/../../../../libs/libDaisy/src/hid/disp/display.h ****         {
 5059              		.loc 9 239 26 view .LVU1184
 5060 024c 2646     		mov	r6, r4
 5061              	.LVL401:
 5062              	.L352:
 5063              	.LBB1405:
 5064              	.LBI1405:
  42:../../libs/libDaisy/src/sys/../../../../libs/libDaisy/src/hid/disp/oled_display.h ****     {
 5065              		.loc 8 42 10 is_stmt 1 view .LVU1185
 5066              	.LBB1406:
 5067              	.LBI1406:
 340:../../libs/libDaisy/src/sys/../../../../libs/libDaisy/src/dev/oled_ssd130x.h ****     {
 5068              		.loc 10 340 10 view .LVU1186
ARM GAS  C:\Users\matte\AppData\Local\Temp\cclPkNhc.s 			page 144


 5069              	.LBB1407:
 342:../../libs/libDaisy/src/sys/../../../../libs/libDaisy/src/dev/oled_ssd130x.h ****             return;
 5070              		.loc 10 342 9 is_stmt 0 view .LVU1187
 5071 024e 7F2B     		cmp	r3, #127
 5072 0250 14D8     		bhi	.L354
 342:../../libs/libDaisy/src/sys/../../../../libs/libDaisy/src/dev/oled_ssd130x.h ****             return;
 5073              		.loc 10 342 9 view .LVU1188
 5074 0252 3F2E     		cmp	r6, #63
 5075 0254 12D8     		bhi	.L354
 345:../../libs/libDaisy/src/sys/../../../../libs/libDaisy/src/dev/oled_ssd130x.h ****         else
 5076              		.loc 10 345 28 view .LVU1189
 5077 0256 4FEAD60C 		lsr	ip, r6, #3
 345:../../libs/libDaisy/src/sys/../../../../libs/libDaisy/src/dev/oled_ssd130x.h ****         else
 5078              		.loc 10 345 54 view .LVU1190
 5079 025a 06F0070B 		and	fp, r6, #7
 345:../../libs/libDaisy/src/sys/../../../../libs/libDaisy/src/dev/oled_ssd130x.h ****         else
 5080              		.loc 10 345 48 view .LVU1191
 5081 025e 4FF00108 		mov	r8, #1
 345:../../libs/libDaisy/src/sys/../../../../libs/libDaisy/src/dev/oled_ssd130x.h ****         else
 5082              		.loc 10 345 42 view .LVU1192
 5083 0262 03EBCC1C 		add	ip, r3, ip, lsl #7
 5084 0266 8444     		add	ip, ip, r0
 344:../../libs/libDaisy/src/sys/../../../../libs/libDaisy/src/dev/oled_ssd130x.h ****             buffer_[x + (y / 8) * width] |= (1 << (y % 8));
 5085              		.loc 10 344 9 view .LVU1193
 5086 0268 002D     		cmp	r5, #0
 5087 026a 73D0     		beq	.L355
 345:../../libs/libDaisy/src/sys/../../../../libs/libDaisy/src/dev/oled_ssd130x.h ****         else
 5088              		.loc 10 345 48 view .LVU1194
 5089 026c 08FA0BF8 		lsl	r8, r8, fp
 345:../../libs/libDaisy/src/sys/../../../../libs/libDaisy/src/dev/oled_ssd130x.h ****         else
 5090              		.loc 10 345 42 view .LVU1195
 5091 0270 9CF810B0 		ldrb	fp, [ip, #16]	@ zero_extendqisi2
 5092 0274 48EA0B08 		orr	r8, r8, fp
 5093 0278 8CF81080 		strb	r8, [ip, #16]
 5094              	.L354:
 5095              	.LVL402:
 345:../../libs/libDaisy/src/sys/../../../../libs/libDaisy/src/dev/oled_ssd130x.h ****         else
 5096              		.loc 10 345 42 view .LVU1196
 5097              	.LBE1407:
 5098              	.LBE1406:
 5099              	.LBE1405:
 243:../../libs/libDaisy/src/sys/../../../../libs/libDaisy/src/hid/disp/display.h ****             {
 5100              		.loc 9 243 13 view .LVU1197
 5101 027c 5FEA470C 		lsls	ip, r7, #1
 5102              	.LVL403:
 246:../../libs/libDaisy/src/sys/../../../../libs/libDaisy/src/hid/disp/display.h ****             }
 5103              		.loc 9 246 20 view .LVU1198
 5104 0280 18BF     		it	ne
 5105 0282 4B44     		addne	r3, r3, r9
 5106              	.LVL404:
 249:../../libs/libDaisy/src/sys/../../../../libs/libDaisy/src/hid/disp/display.h ****             {
 5107              		.loc 9 249 13 view .LVU1199
 5108 0284 E645     		cmp	lr, ip
 5109 0286 01DD     		ble	.L357
 251:../../libs/libDaisy/src/sys/../../../../libs/libDaisy/src/hid/disp/display.h ****                 y1 += signY;
 5110              		.loc 9 251 23 view .LVU1200
 5111 0288 7744     		add	r7, r7, lr
ARM GAS  C:\Users\matte\AppData\Local\Temp\cclPkNhc.s 			page 145


 5112              	.LVL405:
 252:../../libs/libDaisy/src/sys/../../../../libs/libDaisy/src/hid/disp/display.h ****             }
 5113              		.loc 9 252 20 view .LVU1201
 5114 028a 013E     		subs	r6, r6, #1
 5115              	.LVL406:
 5116              	.L357:
 239:../../libs/libDaisy/src/sys/../../../../libs/libDaisy/src/hid/disp/display.h ****         {
 5117              		.loc 9 239 26 is_stmt 1 view .LVU1202
 5118 028c 9942     		cmp	r1, r3
 5119 028e DED1     		bne	.L352
 239:../../libs/libDaisy/src/sys/../../../../libs/libDaisy/src/hid/disp/display.h ****         {
 5120              		.loc 9 239 26 is_stmt 0 view .LVU1203
 5121 0290 B442     		cmp	r4, r6
 5122 0292 DCD1     		bne	.L352
 5123              	.LVL407:
 5124              	.L351:
 239:../../libs/libDaisy/src/sys/../../../../libs/libDaisy/src/hid/disp/display.h ****         {
 5125              		.loc 9 239 26 view .LVU1204
 5126              	.LBE1394:
 5127              	.LBE1393:
 5128              	.LBB1416:
 5129              	.LBI1416:
 221:../../libs/libDaisy/src/sys/../../../../libs/libDaisy/src/hid/disp/display.h ****                   uint_fast8_t y1,
 5130              		.loc 9 221 10 is_stmt 1 view .LVU1205
 5131              	.LBB1417:
 228:../../libs/libDaisy/src/sys/../../../../libs/libDaisy/src/hid/disp/display.h ****         int_fast16_t signX  = ((x1 < x2) ? 1 : -1);
 5132              		.loc 9 228 52 is_stmt 0 view .LVU1206
 5133 0294 A2EB040E 		sub	lr, r2, r4
 228:../../libs/libDaisy/src/sys/../../../../libs/libDaisy/src/hid/disp/display.h ****         int_fast16_t signX  = ((x1 < x2) ? 1 : -1);
 5134              		.loc 9 228 22 view .LVU1207
 5135 0298 BEF1000F 		cmp	lr, #0
 5136 029c B8BF     		it	lt
 5137 029e CEF1000E 		rsblt	lr, lr, #0
 5138              	.LVL408:
 230:../../libs/libDaisy/src/sys/../../../../libs/libDaisy/src/hid/disp/display.h ****         int_fast16_t error  = deltaX - deltaY;
 5139              		.loc 9 230 42 view .LVU1208
 5140 02a2 A242     		cmp	r2, r4
 5141 02a4 8CBF     		ite	hi
 5142 02a6 4FF00108 		movhi	r8, #1
 5143 02aa 4FF0FF38 		movls	r8, #-1
 5144              	.LVL409:
 231:../../libs/libDaisy/src/sys/../../../../libs/libDaisy/src/hid/disp/display.h ****         int_fast16_t error2;
 5145              		.loc 9 231 22 view .LVU1209
 5146 02ae CEF1000C 		rsb	ip, lr, #0
 5147              	.LVL410:
 5148              	.LBB1418:
 5149              	.LBI1418:
  42:../../libs/libDaisy/src/sys/../../../../libs/libDaisy/src/hid/disp/oled_display.h ****     {
 5150              		.loc 8 42 10 is_stmt 1 view .LVU1210
 5151              	.LBB1419:
 5152              	.LBI1419:
 340:../../libs/libDaisy/src/sys/../../../../libs/libDaisy/src/dev/oled_ssd130x.h ****     {
 5153              		.loc 10 340 10 view .LVU1211
 5154              	.LBB1420:
 342:../../libs/libDaisy/src/sys/../../../../libs/libDaisy/src/dev/oled_ssd130x.h ****             return;
 5155              		.loc 10 342 9 is_stmt 0 view .LVU1212
 5156 02b2 BAF1000F 		cmp	r10, #0
ARM GAS  C:\Users\matte\AppData\Local\Temp\cclPkNhc.s 			page 146


 5157 02b6 0ED1     		bne	.L359
 5158 02b8 029B     		ldr	r3, [sp, #8]
 5159 02ba 63B9     		cbnz	r3, .L359
 345:../../libs/libDaisy/src/sys/../../../../libs/libDaisy/src/dev/oled_ssd130x.h ****         else
 5160              		.loc 10 345 28 view .LVU1213
 5161 02bc D308     		lsrs	r3, r2, #3
 345:../../libs/libDaisy/src/sys/../../../../libs/libDaisy/src/dev/oled_ssd130x.h ****         else
 5162              		.loc 10 345 54 view .LVU1214
 5163 02be 02F00707 		and	r7, r2, #7
 345:../../libs/libDaisy/src/sys/../../../../libs/libDaisy/src/dev/oled_ssd130x.h ****         else
 5164              		.loc 10 345 48 view .LVU1215
 5165 02c2 0126     		movs	r6, #1
 345:../../libs/libDaisy/src/sys/../../../../libs/libDaisy/src/dev/oled_ssd130x.h ****         else
 5166              		.loc 10 345 42 view .LVU1216
 5167 02c4 01EBC313 		add	r3, r1, r3, lsl #7
 5168 02c8 0344     		add	r3, r3, r0
 344:../../libs/libDaisy/src/sys/../../../../libs/libDaisy/src/dev/oled_ssd130x.h ****             buffer_[x + (y / 8) * width] |= (1 << (y % 8));
 5169              		.loc 10 344 9 view .LVU1217
 5170 02ca 002D     		cmp	r5, #0
 5171 02cc 7CD0     		beq	.L360
 345:../../libs/libDaisy/src/sys/../../../../libs/libDaisy/src/dev/oled_ssd130x.h ****         else
 5172              		.loc 10 345 48 view .LVU1218
 5173 02ce BE40     		lsls	r6, r6, r7
 345:../../libs/libDaisy/src/sys/../../../../libs/libDaisy/src/dev/oled_ssd130x.h ****         else
 5174              		.loc 10 345 42 view .LVU1219
 5175 02d0 1F7C     		ldrb	r7, [r3, #16]	@ zero_extendqisi2
 5176 02d2 3E43     		orrs	r6, r6, r7
 5177 02d4 1E74     		strb	r6, [r3, #16]
 5178              	.L359:
 5179              	.LVL411:
 345:../../libs/libDaisy/src/sys/../../../../libs/libDaisy/src/dev/oled_ssd130x.h ****         else
 5180              		.loc 10 345 42 view .LVU1220
 5181              	.LBE1420:
 5182              	.LBE1419:
 5183              	.LBE1418:
 239:../../libs/libDaisy/src/sys/../../../../libs/libDaisy/src/hid/disp/display.h ****         {
 5184              		.loc 9 239 26 is_stmt 1 view .LVU1221
 5185 02d6 019B     		ldr	r3, [sp, #4]
 5186 02d8 002B     		cmp	r3, #0
 5187 02da 7FF4CDAE 		bne	.L317
 5188 02de 6646     		mov	r6, ip
 5189 02e0 0B46     		mov	r3, r1
 5190              	.LVL412:
 5191              	.L361:
 5192              	.LBB1425:
 5193              	.LBI1425:
  42:../../libs/libDaisy/src/sys/../../../../libs/libDaisy/src/hid/disp/oled_display.h ****     {
 5194              		.loc 8 42 10 view .LVU1222
 5195              	.LBB1426:
 5196              	.LBI1426:
 340:../../libs/libDaisy/src/sys/../../../../libs/libDaisy/src/dev/oled_ssd130x.h ****     {
 5197              		.loc 10 340 10 view .LVU1223
 5198              	.LBB1427:
 342:../../libs/libDaisy/src/sys/../../../../libs/libDaisy/src/dev/oled_ssd130x.h ****             return;
 5199              		.loc 10 342 9 is_stmt 0 view .LVU1224
 5200 02e2 7F2B     		cmp	r3, #127
 5201 02e4 12D8     		bhi	.L363
ARM GAS  C:\Users\matte\AppData\Local\Temp\cclPkNhc.s 			page 147


 342:../../libs/libDaisy/src/sys/../../../../libs/libDaisy/src/dev/oled_ssd130x.h ****             return;
 5202              		.loc 10 342 9 view .LVU1225
 5203 02e6 3F2C     		cmp	r4, #63
 5204 02e8 10D8     		bhi	.L363
 345:../../libs/libDaisy/src/sys/../../../../libs/libDaisy/src/dev/oled_ssd130x.h ****         else
 5205              		.loc 10 345 28 view .LVU1226
 5206 02ea E708     		lsrs	r7, r4, #3
 345:../../libs/libDaisy/src/sys/../../../../libs/libDaisy/src/dev/oled_ssd130x.h ****         else
 5207              		.loc 10 345 54 view .LVU1227
 5208 02ec 04F0070A 		and	r10, r4, #7
 345:../../libs/libDaisy/src/sys/../../../../libs/libDaisy/src/dev/oled_ssd130x.h ****         else
 5209              		.loc 10 345 48 view .LVU1228
 5210 02f0 4FF00109 		mov	r9, #1
 345:../../libs/libDaisy/src/sys/../../../../libs/libDaisy/src/dev/oled_ssd130x.h ****         else
 5211              		.loc 10 345 42 view .LVU1229
 5212 02f4 03EBC717 		add	r7, r3, r7, lsl #7
 5213 02f8 0744     		add	r7, r7, r0
 344:../../libs/libDaisy/src/sys/../../../../libs/libDaisy/src/dev/oled_ssd130x.h ****             buffer_[x + (y / 8) * width] |= (1 << (y % 8));
 5214              		.loc 10 344 9 view .LVU1230
 5215 02fa A5B3     		cbz	r5, .L364
 345:../../libs/libDaisy/src/sys/../../../../libs/libDaisy/src/dev/oled_ssd130x.h ****         else
 5216              		.loc 10 345 48 view .LVU1231
 5217 02fc 09FA0AF9 		lsl	r9, r9, r10
 345:../../libs/libDaisy/src/sys/../../../../libs/libDaisy/src/dev/oled_ssd130x.h ****         else
 5218              		.loc 10 345 42 view .LVU1232
 5219 0300 97F810A0 		ldrb	r10, [r7, #16]	@ zero_extendqisi2
 5220 0304 49EA0A09 		orr	r9, r9, r10
 5221 0308 87F81090 		strb	r9, [r7, #16]
 5222              	.L363:
 5223              	.LVL413:
 345:../../libs/libDaisy/src/sys/../../../../libs/libDaisy/src/dev/oled_ssd130x.h ****         else
 5224              		.loc 10 345 42 view .LVU1233
 5225              	.LBE1427:
 5226              	.LBE1426:
 5227              	.LBE1425:
 243:../../libs/libDaisy/src/sys/../../../../libs/libDaisy/src/hid/disp/display.h ****             {
 5228              		.loc 9 243 13 view .LVU1234
 5229 030c BCEB460F 		cmp	ip, r6, lsl #1
 242:../../libs/libDaisy/src/sys/../../../../libs/libDaisy/src/hid/disp/display.h ****             if(error2 > -deltaY)
 5230              		.loc 9 242 20 view .LVU1235
 5231 0310 4FEA4607 		lsl	r7, r6, #1
 5232              	.LVL414:
 243:../../libs/libDaisy/src/sys/../../../../libs/libDaisy/src/hid/disp/display.h ****             {
 5233              		.loc 9 243 13 view .LVU1236
 5234 0314 02DA     		bge	.L365
 245:../../libs/libDaisy/src/sys/../../../../libs/libDaisy/src/hid/disp/display.h ****                 x1 += signX;
 5235              		.loc 9 245 23 view .LVU1237
 5236 0316 A6EB0E06 		sub	r6, r6, lr
 5237              	.LVL415:
 246:../../libs/libDaisy/src/sys/../../../../libs/libDaisy/src/hid/disp/display.h ****             }
 5238              		.loc 9 246 20 view .LVU1238
 5239 031a 013B     		subs	r3, r3, #1
 5240              	.LVL416:
 5241              	.L365:
 249:../../libs/libDaisy/src/sys/../../../../libs/libDaisy/src/hid/disp/display.h ****             {
 5242              		.loc 9 249 13 view .LVU1239
 5243 031c 07B1     		cbz	r7, .L366
ARM GAS  C:\Users\matte\AppData\Local\Temp\cclPkNhc.s 			page 148


 252:../../libs/libDaisy/src/sys/../../../../libs/libDaisy/src/hid/disp/display.h ****             }
 5244              		.loc 9 252 20 view .LVU1240
 5245 031e 4444     		add	r4, r4, r8
 5246              	.LVL417:
 5247              	.L366:
 239:../../libs/libDaisy/src/sys/../../../../libs/libDaisy/src/hid/disp/display.h ****         {
 5248              		.loc 9 239 26 is_stmt 1 view .LVU1241
 5249 0320 9942     		cmp	r1, r3
 5250 0322 DED1     		bne	.L361
 239:../../libs/libDaisy/src/sys/../../../../libs/libDaisy/src/hid/disp/display.h ****         {
 5251              		.loc 9 239 26 is_stmt 0 view .LVU1242
 5252 0324 A242     		cmp	r2, r4
 5253 0326 DCD1     		bne	.L361
 5254              	.LBE1417:
 5255              	.LBE1416:
 5256              	.LBE1469:
 281:../../libs/libDaisy/src/sys/../../../../libs/libDaisy/src/hid/disp/display.h **** 
 5257              		.loc 9 281 5 view .LVU1243
 5258 0328 07B0     		add	sp, sp, #28
 5259              		.cfi_remember_state
 5260              		.cfi_def_cfa_offset 36
 5261              		@ sp needed
 5262 032a BDE8F08F 		pop	{r4, r5, r6, r7, r8, r9, r10, fp, pc}
 5263              	.LVL418:
 5264              	.L326:
 5265              		.cfi_restore_state
 5266              	.LBB1470:
 5267              	.LBB1436:
 5268              	.LBB1353:
 5269              	.LBB1349:
  42:../../libs/libDaisy/src/sys/../../../../libs/libDaisy/src/hid/disp/oled_display.h ****     {
 5270              		.loc 8 42 10 is_stmt 1 view .LVU1244
 5271              	.LBB1338:
 340:../../libs/libDaisy/src/sys/../../../../libs/libDaisy/src/dev/oled_ssd130x.h ****     {
 5272              		.loc 10 340 10 view .LVU1245
 5273              	.LBB1334:
 342:../../libs/libDaisy/src/sys/../../../../libs/libDaisy/src/dev/oled_ssd130x.h ****             return;
 5274              		.loc 10 342 28 is_stmt 0 view .LVU1246
 5275 032e 3F2A     		cmp	r2, #63
 5276              	.LBE1334:
 5277              	.LBE1338:
 5278              	.LBE1349:
 229:../../libs/libDaisy/src/sys/../../../../libs/libDaisy/src/hid/disp/display.h ****         int_fast16_t signY  = ((y1 < y2) ? 1 : -1);
 5279              		.loc 9 229 42 view .LVU1247
 5280 0330 4FF0010A 		mov	r10, #1
 5281              	.LBB1350:
 5282              	.LBB1339:
 5283              	.LBB1335:
 342:../../libs/libDaisy/src/sys/../../../../libs/libDaisy/src/dev/oled_ssd130x.h ****             return;
 5284              		.loc 10 342 28 view .LVU1248
 5285 0334 94BF     		ite	ls
 5286 0336 0026     		movls	r6, #0
 5287 0338 0126     		movhi	r6, #1
 342:../../libs/libDaisy/src/sys/../../../../libs/libDaisy/src/dev/oled_ssd130x.h ****             return;
 5288              		.loc 10 342 14 view .LVU1249
 5289 033a 7F2B     		cmp	r3, #127
 342:../../libs/libDaisy/src/sys/../../../../libs/libDaisy/src/dev/oled_ssd130x.h ****             return;
ARM GAS  C:\Users\matte\AppData\Local\Temp\cclPkNhc.s 			page 149


 5290              		.loc 10 342 28 view .LVU1250
 5291 033c 0296     		str	r6, [sp, #8]
 342:../../libs/libDaisy/src/sys/../../../../libs/libDaisy/src/dev/oled_ssd130x.h ****             return;
 5292              		.loc 10 342 14 view .LVU1251
 5293 033e 94BF     		ite	ls
 5294 0340 0027     		movls	r7, #0
 5295 0342 0127     		movhi	r7, #1
 5296 0344 0097     		str	r7, [sp]
 342:../../libs/libDaisy/src/sys/../../../../libs/libDaisy/src/dev/oled_ssd130x.h ****             return;
 5297              		.loc 10 342 9 view .LVU1252
 5298 0346 002E     		cmp	r6, #0
 5299 0348 7FF4C8AE 		bne	.L330
 5300 034c 002F     		cmp	r7, #0
 5301 034e 3FF4AEAE 		beq	.L368
 5302 0352 C3E6     		b	.L330
 5303              	.LVL419:
 5304              	.L355:
 342:../../libs/libDaisy/src/sys/../../../../libs/libDaisy/src/dev/oled_ssd130x.h ****             return;
 5305              		.loc 10 342 9 view .LVU1253
 5306              	.LBE1335:
 5307              	.LBE1339:
 5308              	.LBE1350:
 5309              	.LBE1353:
 5310              	.LBE1436:
 5311              	.LBB1437:
 5312              	.LBB1414:
 5313              	.LBB1412:
 5314              	.LBB1411:
 5315              	.LBB1410:
 5316              	.LBB1408:
 5317              	.LBI1408:
 340:../../libs/libDaisy/src/sys/../../../../libs/libDaisy/src/dev/oled_ssd130x.h ****     {
 5318              		.loc 10 340 10 is_stmt 1 view .LVU1254
 5319              	.LBB1409:
 347:../../libs/libDaisy/src/sys/../../../../libs/libDaisy/src/dev/oled_ssd130x.h ****     }
 5320              		.loc 10 347 49 is_stmt 0 view .LVU1255
 5321 0354 08FA0BFB 		lsl	fp, r8, fp
 347:../../libs/libDaisy/src/sys/../../../../libs/libDaisy/src/dev/oled_ssd130x.h ****     }
 5322              		.loc 10 347 42 view .LVU1256
 5323 0358 9CF81080 		ldrb	r8, [ip, #16]	@ zero_extendqisi2
 5324 035c 28EA0B08 		bic	r8, r8, fp
 5325 0360 8CF81080 		strb	r8, [ip, #16]
 5326 0364 8AE7     		b	.L354
 5327              	.LVL420:
 5328              	.L364:
 347:../../libs/libDaisy/src/sys/../../../../libs/libDaisy/src/dev/oled_ssd130x.h ****     }
 5329              		.loc 10 347 42 view .LVU1257
 5330              	.LBE1409:
 5331              	.LBE1408:
 5332              	.LBE1410:
 5333              	.LBE1411:
 5334              	.LBE1412:
 5335              	.LBE1414:
 5336              	.LBE1437:
 5337              	.LBB1438:
 5338              	.LBB1434:
 5339              	.LBB1432:
ARM GAS  C:\Users\matte\AppData\Local\Temp\cclPkNhc.s 			page 150


 5340              	.LBB1431:
 5341              	.LBB1430:
 5342              	.LBB1428:
 5343              	.LBI1428:
 340:../../libs/libDaisy/src/sys/../../../../libs/libDaisy/src/dev/oled_ssd130x.h ****     {
 5344              		.loc 10 340 10 is_stmt 1 view .LVU1258
 5345              	.LBB1429:
 347:../../libs/libDaisy/src/sys/../../../../libs/libDaisy/src/dev/oled_ssd130x.h ****     }
 5346              		.loc 10 347 49 is_stmt 0 view .LVU1259
 5347 0366 09FA0AFA 		lsl	r10, r9, r10
 347:../../libs/libDaisy/src/sys/../../../../libs/libDaisy/src/dev/oled_ssd130x.h ****     }
 5348              		.loc 10 347 42 view .LVU1260
 5349 036a 97F81090 		ldrb	r9, [r7, #16]	@ zero_extendqisi2
 5350 036e 29EA0A09 		bic	r9, r9, r10
 5351 0372 87F81090 		strb	r9, [r7, #16]
 5352 0376 C9E7     		b	.L363
 5353              	.LVL421:
 5354              	.L334:
 347:../../libs/libDaisy/src/sys/../../../../libs/libDaisy/src/dev/oled_ssd130x.h ****     }
 5355              		.loc 10 347 42 view .LVU1261
 5356              	.LBE1429:
 5357              	.LBE1428:
 5358              	.LBE1430:
 5359              	.LBE1431:
 5360              	.LBE1432:
 5361              	.LBE1434:
 5362              	.LBE1438:
 5363              	.LBB1439:
 5364              	.LBB1354:
 5365              	.LBB1351:
 5366              	.LBB1348:
 5367              	.LBB1347:
 5368              	.LBB1345:
 5369              	.LBI1345:
 340:../../libs/libDaisy/src/sys/../../../../libs/libDaisy/src/dev/oled_ssd130x.h ****     {
 5370              		.loc 10 340 10 is_stmt 1 view .LVU1262
 5371              	.LBB1346:
 347:../../libs/libDaisy/src/sys/../../../../libs/libDaisy/src/dev/oled_ssd130x.h ****     }
 5372              		.loc 10 347 49 is_stmt 0 view .LVU1263
 5373 0378 09FA0BFB 		lsl	fp, r9, fp
 347:../../libs/libDaisy/src/sys/../../../../libs/libDaisy/src/dev/oled_ssd130x.h ****     }
 5374              		.loc 10 347 42 view .LVU1264
 5375 037c 97F81090 		ldrb	r9, [r7, #16]	@ zero_extendqisi2
 5376 0380 29EA0B09 		bic	r9, r9, fp
 5377 0384 87F81090 		strb	r9, [r7, #16]
 5378 0388 C5E6     		b	.L333
 5379              	.LVL422:
 5380              	.L345:
 347:../../libs/libDaisy/src/sys/../../../../libs/libDaisy/src/dev/oled_ssd130x.h ****     }
 5381              		.loc 10 347 42 view .LVU1265
 5382              	.LBE1346:
 5383              	.LBE1345:
 5384              	.LBE1347:
 5385              	.LBE1348:
 5386              	.LBE1351:
 5387              	.LBE1354:
 5388              	.LBE1439:
ARM GAS  C:\Users\matte\AppData\Local\Temp\cclPkNhc.s 			page 151


 5389              	.LBB1440:
 5390              	.LBB1390:
 5391              	.LBB1387:
 5392              	.LBB1386:
 5393              	.LBB1385:
 5394              	.LBB1383:
 5395              	.LBI1383:
 340:../../libs/libDaisy/src/sys/../../../../libs/libDaisy/src/dev/oled_ssd130x.h ****     {
 5396              		.loc 10 340 10 is_stmt 1 view .LVU1266
 5397              	.LBB1384:
 347:../../libs/libDaisy/src/sys/../../../../libs/libDaisy/src/dev/oled_ssd130x.h ****     }
 5398              		.loc 10 347 49 is_stmt 0 view .LVU1267
 5399 038a 0AFA0BFB 		lsl	fp, r10, fp
 347:../../libs/libDaisy/src/sys/../../../../libs/libDaisy/src/dev/oled_ssd130x.h ****     }
 5400              		.loc 10 347 42 view .LVU1268
 5401 038e 9EF810A0 		ldrb	r10, [lr, #16]	@ zero_extendqisi2
 5402 0392 2AEA0B0A 		bic	r10, r10, fp
 5403 0396 8EF810A0 		strb	r10, [lr, #16]
 5404 039a 18E7     		b	.L344
 5405              	.LVL423:
 5406              	.L337:
 347:../../libs/libDaisy/src/sys/../../../../libs/libDaisy/src/dev/oled_ssd130x.h ****     }
 5407              		.loc 10 347 42 view .LVU1269
 5408              	.LBE1384:
 5409              	.LBE1383:
 5410              	.LBE1385:
 5411              	.LBE1386:
 5412              	.LBE1387:
 5413              	.LBB1388:
 5414              	.LBB1374:
 5415              	.LBB1368:
 342:../../libs/libDaisy/src/sys/../../../../libs/libDaisy/src/dev/oled_ssd130x.h ****             return;
 5416              		.loc 10 342 9 view .LVU1270
 5417 039c 97BB     		cbnz	r7, .L376
 5418 039e 8EBB     		cbnz	r6, .L376
 5419              	.LBE1368:
 5420              	.LBE1374:
 5421              	.LBE1388:
 230:../../libs/libDaisy/src/sys/../../../../libs/libDaisy/src/hid/disp/display.h ****         int_fast16_t error  = deltaX - deltaY;
 5422              		.loc 9 230 42 view .LVU1271
 5423 03a0 0126     		movs	r6, #1
 5424 03a2 0096     		str	r6, [sp]
 5425              	.LBB1389:
 5426              	.LBB1375:
 5427              	.LBB1369:
 345:../../libs/libDaisy/src/sys/../../../../libs/libDaisy/src/dev/oled_ssd130x.h ****         else
 5428              		.loc 10 345 28 view .LVU1272
 5429 03a4 E608     		lsrs	r6, r4, #3
 345:../../libs/libDaisy/src/sys/../../../../libs/libDaisy/src/dev/oled_ssd130x.h ****         else
 5430              		.loc 10 345 42 view .LVU1273
 5431 03a6 03EBC616 		add	r6, r3, r6, lsl #7
 5432 03aa 0644     		add	r6, r6, r0
 344:../../libs/libDaisy/src/sys/../../../../libs/libDaisy/src/dev/oled_ssd130x.h ****             buffer_[x + (y / 8) * width] |= (1 << (y % 8));
 5433              		.loc 10 344 9 view .LVU1274
 5434 03ac 002D     		cmp	r5, #0
 5435 03ae 7FF4E2AE 		bne	.L411
 5436              	.LVL424:
ARM GAS  C:\Users\matte\AppData\Local\Temp\cclPkNhc.s 			page 152


 5437              	.L339:
 5438              	.LBB1362:
 5439              	.LBI1362:
 340:../../libs/libDaisy/src/sys/../../../../libs/libDaisy/src/dev/oled_ssd130x.h ****     {
 5440              		.loc 10 340 10 is_stmt 1 view .LVU1275
 5441              	.LBB1363:
 347:../../libs/libDaisy/src/sys/../../../../libs/libDaisy/src/dev/oled_ssd130x.h ****     }
 5442              		.loc 10 347 49 is_stmt 0 view .LVU1276
 5443 03b2 0127     		movs	r7, #1
 347:../../libs/libDaisy/src/sys/../../../../libs/libDaisy/src/dev/oled_ssd130x.h ****     }
 5444              		.loc 10 347 55 view .LVU1277
 5445 03b4 04F0070C 		and	ip, r4, #7
 347:../../libs/libDaisy/src/sys/../../../../libs/libDaisy/src/dev/oled_ssd130x.h ****     }
 5446              		.loc 10 347 42 view .LVU1278
 5447 03b8 0395     		str	r5, [sp, #12]
 347:../../libs/libDaisy/src/sys/../../../../libs/libDaisy/src/dev/oled_ssd130x.h ****     }
 5448              		.loc 10 347 49 view .LVU1279
 5449 03ba 07FA0CFC 		lsl	ip, r7, ip
 347:../../libs/libDaisy/src/sys/../../../../libs/libDaisy/src/dev/oled_ssd130x.h ****     }
 5450              		.loc 10 347 42 view .LVU1280
 5451 03be 377C     		ldrb	r7, [r6, #16]	@ zero_extendqisi2
 5452 03c0 27EA0C07 		bic	r7, r7, ip
 5453 03c4 3774     		strb	r7, [r6, #16]
 5454 03c6 E3E6     		b	.L338
 5455              	.LVL425:
 5456              	.L360:
 347:../../libs/libDaisy/src/sys/../../../../libs/libDaisy/src/dev/oled_ssd130x.h ****     }
 5457              		.loc 10 347 42 view .LVU1281
 5458              	.LBE1363:
 5459              	.LBE1362:
 5460              	.LBE1369:
 5461              	.LBE1375:
 5462              	.LBE1389:
 5463              	.LBE1390:
 5464              	.LBE1440:
 5465              	.LBB1441:
 5466              	.LBB1435:
 5467              	.LBB1433:
 5468              	.LBB1424:
 5469              	.LBB1423:
 5470              	.LBB1421:
 5471              	.LBI1421:
 340:../../libs/libDaisy/src/sys/../../../../libs/libDaisy/src/dev/oled_ssd130x.h ****     {
 5472              		.loc 10 340 10 is_stmt 1 view .LVU1282
 5473              	.LBB1422:
 347:../../libs/libDaisy/src/sys/../../../../libs/libDaisy/src/dev/oled_ssd130x.h ****     }
 5474              		.loc 10 347 49 is_stmt 0 view .LVU1283
 5475 03c8 06FA07F7 		lsl	r7, r6, r7
 347:../../libs/libDaisy/src/sys/../../../../libs/libDaisy/src/dev/oled_ssd130x.h ****     }
 5476              		.loc 10 347 42 view .LVU1284
 5477 03cc 1E7C     		ldrb	r6, [r3, #16]	@ zero_extendqisi2
 5478 03ce 26EA0706 		bic	r6, r6, r7
 5479 03d2 1E74     		strb	r6, [r3, #16]
 5480 03d4 7FE7     		b	.L359
 5481              	.LVL426:
 5482              	.L350:
 347:../../libs/libDaisy/src/sys/../../../../libs/libDaisy/src/dev/oled_ssd130x.h ****     }
ARM GAS  C:\Users\matte\AppData\Local\Temp\cclPkNhc.s 			page 153


 5483              		.loc 10 347 42 view .LVU1285
 5484              	.LBE1422:
 5485              	.LBE1421:
 5486              	.LBE1423:
 5487              	.LBE1424:
 5488              	.LBE1433:
 5489              	.LBE1435:
 5490              	.LBE1441:
 5491              	.LBB1442:
 5492              	.LBB1415:
 5493              	.LBB1413:
 5494              	.LBB1403:
 5495              	.LBB1401:
 5496              	.LBB1398:
 5497              	.LBI1398:
 340:../../libs/libDaisy/src/sys/../../../../libs/libDaisy/src/dev/oled_ssd130x.h ****     {
 5498              		.loc 10 340 10 is_stmt 1 view .LVU1286
 5499              	.LBB1399:
 347:../../libs/libDaisy/src/sys/../../../../libs/libDaisy/src/dev/oled_ssd130x.h ****     }
 5500              		.loc 10 347 49 is_stmt 0 view .LVU1287
 5501 03d6 0127     		movs	r7, #1
 347:../../libs/libDaisy/src/sys/../../../../libs/libDaisy/src/dev/oled_ssd130x.h ****     }
 5502              		.loc 10 347 55 view .LVU1288
 5503 03d8 04F0070C 		and	ip, r4, #7
 347:../../libs/libDaisy/src/sys/../../../../libs/libDaisy/src/dev/oled_ssd130x.h ****     }
 5504              		.loc 10 347 49 view .LVU1289
 5505 03dc 07FA0CFC 		lsl	ip, r7, ip
 347:../../libs/libDaisy/src/sys/../../../../libs/libDaisy/src/dev/oled_ssd130x.h ****     }
 5506              		.loc 10 347 42 view .LVU1290
 5507 03e0 377C     		ldrb	r7, [r6, #16]	@ zero_extendqisi2
 5508 03e2 27EA0C07 		bic	r7, r7, ip
 5509 03e6 3774     		strb	r7, [r6, #16]
 5510 03e8 2DE7     		b	.L349
 5511              	.LVL427:
 5512              	.L328:
 347:../../libs/libDaisy/src/sys/../../../../libs/libDaisy/src/dev/oled_ssd130x.h ****     }
 5513              		.loc 10 347 42 view .LVU1291
 5514              	.LBE1399:
 5515              	.LBE1398:
 5516              	.LBE1401:
 5517              	.LBE1403:
 5518              	.LBE1413:
 5519              	.LBE1415:
 5520              	.LBE1442:
 5521              	.LBB1443:
 5522              	.LBB1355:
 5523              	.LBB1352:
 5524              	.LBB1340:
 5525              	.LBB1336:
 5526              	.LBB1331:
 5527              	.LBI1331:
 340:../../libs/libDaisy/src/sys/../../../../libs/libDaisy/src/dev/oled_ssd130x.h ****     {
 5528              		.loc 10 340 10 is_stmt 1 view .LVU1292
 5529              	.LBB1332:
 347:../../libs/libDaisy/src/sys/../../../../libs/libDaisy/src/dev/oled_ssd130x.h ****     }
 5530              		.loc 10 347 49 is_stmt 0 view .LVU1293
 5531 03ea 07FA0CFC 		lsl	ip, r7, ip
ARM GAS  C:\Users\matte\AppData\Local\Temp\cclPkNhc.s 			page 154


 347:../../libs/libDaisy/src/sys/../../../../libs/libDaisy/src/dev/oled_ssd130x.h ****     }
 5532              		.loc 10 347 42 view .LVU1294
 5533 03ee 377C     		ldrb	r7, [r6, #16]	@ zero_extendqisi2
 5534 03f0 0295     		str	r5, [sp, #8]
 5535 03f2 27EA0C07 		bic	r7, r7, ip
 5536 03f6 0095     		str	r5, [sp]
 5537 03f8 3774     		strb	r7, [r6, #16]
 5538 03fa 6CE6     		b	.L327
 5539              	.LVL428:
 5540              	.L372:
 347:../../libs/libDaisy/src/sys/../../../../libs/libDaisy/src/dev/oled_ssd130x.h ****     }
 5541              		.loc 10 347 42 view .LVU1295
 5542              	.LBE1332:
 5543              	.LBE1331:
 5544              	.LBE1336:
 5545              	.LBE1340:
 5546              	.LBE1352:
 5547              	.LBE1355:
 5548              	.LBE1443:
 5549              	.LBB1444:
 5550              	.LBB1391:
 230:../../libs/libDaisy/src/sys/../../../../libs/libDaisy/src/hid/disp/display.h ****         int_fast16_t error  = deltaX - deltaY;
 5551              		.loc 9 230 42 view .LVU1296
 5552 03fc 4FF0FF36 		mov	r6, #-1
 5553 0400 0096     		str	r6, [sp]
 5554 0402 C5E6     		b	.L338
 5555              	.LVL429:
 5556              	.L376:
 230:../../libs/libDaisy/src/sys/../../../../libs/libDaisy/src/hid/disp/display.h ****         int_fast16_t error  = deltaX - deltaY;
 5557              		.loc 9 230 42 view .LVU1297
 5558 0404 0126     		movs	r6, #1
 5559 0406 0096     		str	r6, [sp]
 5560 0408 C5E6     		b	.L341
 5561              	.LVL430:
 5562              	.L409:
 230:../../libs/libDaisy/src/sys/../../../../libs/libDaisy/src/hid/disp/display.h ****         int_fast16_t error  = deltaX - deltaY;
 5563              		.loc 9 230 42 view .LVU1298
 5564              	.LBE1391:
 5565              	.LBE1444:
 5566              	.LBB1445:
 5567              	.LBB1356:
 239:../../libs/libDaisy/src/sys/../../../../libs/libDaisy/src/hid/disp/display.h ****         {
 5568              		.loc 9 239 19 view .LVU1299
 5569 040a 0126     		movs	r6, #1
 5570 040c 0496     		str	r6, [sp, #16]
 5571 040e 90E6     		b	.L329
 5572              	.LVL431:
 5573              	.L410:
 239:../../libs/libDaisy/src/sys/../../../../libs/libDaisy/src/hid/disp/display.h ****         {
 5574              		.loc 9 239 19 view .LVU1300
 5575              	.LBE1356:
 5576              	.LBE1445:
 5577              	.LBB1446:
 5578              	.LBB1392:
 239:../../libs/libDaisy/src/sys/../../../../libs/libDaisy/src/hid/disp/display.h ****         {
 5579              		.loc 9 239 33 view .LVU1301
 5580 0410 0126     		movs	r6, #1
ARM GAS  C:\Users\matte\AppData\Local\Temp\cclPkNhc.s 			page 155


 5581 0412 0196     		str	r6, [sp, #4]
 5582 0414 EDE6     		b	.L340
 5583              	.LBE1392:
 5584              	.LBE1446:
 5585              	.LBE1470:
 5586              		.cfi_endproc
 5587              	.LFE5451:
 5589 0416 00BF     		.section	.text._ZN5daisy13SSD130xDriverILj128ELj64ENS_19SSD130xI2CTransportEE4InitENS2_6ConfigE,"a
 5590              		.align	1
 5591              		.p2align 2,,3
 5592              		.weak	_ZN5daisy13SSD130xDriverILj128ELj64ENS_19SSD130xI2CTransportEE4InitENS2_6ConfigE
 5593              		.syntax unified
 5594              		.thumb
 5595              		.thumb_func
 5596              		.fpu fpv5-d16
 5598              	_ZN5daisy13SSD130xDriverILj128ELj64ENS_19SSD130xI2CTransportEE4InitENS2_6ConfigE:
 5599              	.LVL432:
 5600              	.LFB5301:
 241:../../libs/libDaisy/src/sys/../../../../libs/libDaisy/src/dev/oled_ssd130x.h ****     {
 5601              		.loc 10 241 10 is_stmt 1 view -0
 5602              		.cfi_startproc
 5603              		@ args = 28, pretend = 16, frame = 8
 5604              		@ frame_needed = 0, uses_anonymous_args = 0
 241:../../libs/libDaisy/src/sys/../../../../libs/libDaisy/src/dev/oled_ssd130x.h ****     {
 5605              		.loc 10 241 10 is_stmt 0 view .LVU1303
 5606 0000 84B0     		sub	sp, sp, #16
 5607              		.cfi_def_cfa_offset 16
 5608 0002 70B5     		push	{r4, r5, r6, lr}
 5609              		.cfi_def_cfa_offset 32
 5610              		.cfi_offset 4, -32
 5611              		.cfi_offset 5, -28
 5612              		.cfi_offset 6, -24
 5613              		.cfi_offset 14, -20
 5614 0004 84B0     		sub	sp, sp, #16
 5615              		.cfi_def_cfa_offset 48
 241:../../libs/libDaisy/src/sys/../../../../libs/libDaisy/src/dev/oled_ssd130x.h ****     {
 5616              		.loc 10 241 10 view .LVU1304
 5617 0006 0446     		mov	r4, r0
 5618              	.LVL433:
 5619              	.LBB1519:
 5620              	.LBI1519:
  37:../../libs/libDaisy/src/sys/../../../../libs/libDaisy/src/dev/oled_ssd130x.h ****     {
 5621              		.loc 10 37 10 is_stmt 1 view .LVU1305
 5622              	.LBB1520:
  39:../../libs/libDaisy/src/sys/../../../../libs/libDaisy/src/dev/oled_ssd130x.h ****         i2c_.Init(config.i2c_config);
 5623              		.loc 10 39 9 view .LVU1306
 5624              	.LBE1520:
 5625              	.LBE1519:
 5626              	.LBB1523:
 5627              	.LBB1524:
  45:../../libs/libDaisy/src/sys/../../../../libs/libDaisy/src/dev/oled_ssd130x.h ****     };
 5628              		.loc 10 45 30 is_stmt 0 view .LVU1307
 5629 0008 4FF47A76 		mov	r6, #1000
 5630              	.LBE1524:
 5631              	.LBE1523:
 241:../../libs/libDaisy/src/sys/../../../../libs/libDaisy/src/dev/oled_ssd130x.h ****     {
 5632              		.loc 10 241 10 view .LVU1308
ARM GAS  C:\Users\matte\AppData\Local\Temp\cclPkNhc.s 			page 156


 5633 000c 09AD     		add	r5, sp, #36
 5634 000e 85E80E00 		stm	r5, {r1, r2, r3}
 5635              	.LBB1527:
 5636              	.LBB1521:
  39:../../libs/libDaisy/src/sys/../../../../libs/libDaisy/src/dev/oled_ssd130x.h ****         i2c_.Init(config.i2c_config);
 5637              		.loc 10 39 22 view .LVU1309
 5638 0012 9DF83830 		ldrb	r3, [sp, #56]	@ zero_extendqisi2
  40:../../libs/libDaisy/src/sys/../../../../libs/libDaisy/src/dev/oled_ssd130x.h ****     };
 5639              		.loc 10 40 18 view .LVU1310
 5640 0016 2946     		mov	r1, r5
 5641              	.LBE1521:
 5642              	.LBE1527:
 5643              	.LBB1528:
 5644              	.LBB1525:
  44:../../libs/libDaisy/src/sys/../../../../libs/libDaisy/src/dev/oled_ssd130x.h ****         i2c_.TransmitBlocking(i2c_address_, buf, 2, 1000);
 5645              		.loc 10 44 17 view .LVU1311
 5646 0018 0025     		movs	r5, #0
 5647              	.LBE1525:
 5648              	.LBE1528:
 5649              	.LBB1529:
 5650              	.LBB1522:
  39:../../libs/libDaisy/src/sys/../../../../libs/libDaisy/src/dev/oled_ssd130x.h ****         i2c_.Init(config.i2c_config);
 5651              		.loc 10 39 22 view .LVU1312
 5652 001a 0371     		strb	r3, [r0, #4]
  40:../../libs/libDaisy/src/sys/../../../../libs/libDaisy/src/dev/oled_ssd130x.h ****     };
 5653              		.loc 10 40 9 is_stmt 1 view .LVU1313
  40:../../libs/libDaisy/src/sys/../../../../libs/libDaisy/src/dev/oled_ssd130x.h ****     };
 5654              		.loc 10 40 18 is_stmt 0 view .LVU1314
 5655 001c FFF7FEFF 		bl	_ZN5daisy9I2CHandle4InitERKNS0_6ConfigE
 5656              	.LVL434:
  40:../../libs/libDaisy/src/sys/../../../../libs/libDaisy/src/dev/oled_ssd130x.h ****     };
 5657              		.loc 10 40 18 view .LVU1315
 5658              	.LBE1522:
 5659              	.LBE1529:
 5660              	.LBB1530:
 5661              	.LBI1523:
  42:../../libs/libDaisy/src/sys/../../../../libs/libDaisy/src/dev/oled_ssd130x.h ****     {
 5662              		.loc 10 42 10 is_stmt 1 view .LVU1316
 5663              	.LBB1526:
  44:../../libs/libDaisy/src/sys/../../../../libs/libDaisy/src/dev/oled_ssd130x.h ****         i2c_.TransmitBlocking(i2c_address_, buf, 2, 1000);
 5664              		.loc 10 44 9 view .LVU1317
  44:../../libs/libDaisy/src/sys/../../../../libs/libDaisy/src/dev/oled_ssd130x.h ****         i2c_.TransmitBlocking(i2c_address_, buf, 2, 1000);
 5665              		.loc 10 44 36 is_stmt 0 view .LVU1318
 5666 0020 AE23     		movs	r3, #174
  45:../../libs/libDaisy/src/sys/../../../../libs/libDaisy/src/dev/oled_ssd130x.h ****     };
 5667              		.loc 10 45 30 view .LVU1319
 5668 0022 03AA     		add	r2, sp, #12
 5669 0024 0096     		str	r6, [sp]
  44:../../libs/libDaisy/src/sys/../../../../libs/libDaisy/src/dev/oled_ssd130x.h ****         i2c_.TransmitBlocking(i2c_address_, buf, 2, 1000);
 5670              		.loc 10 44 36 view .LVU1320
 5671 0026 8DF80D30 		strb	r3, [sp, #13]
  45:../../libs/libDaisy/src/sys/../../../../libs/libDaisy/src/dev/oled_ssd130x.h ****     };
 5672              		.loc 10 45 9 is_stmt 1 view .LVU1321
  45:../../libs/libDaisy/src/sys/../../../../libs/libDaisy/src/dev/oled_ssd130x.h ****     };
 5673              		.loc 10 45 30 is_stmt 0 view .LVU1322
 5674 002a 2046     		mov	r0, r4
 5675 002c 2179     		ldrb	r1, [r4, #4]	@ zero_extendqisi2
ARM GAS  C:\Users\matte\AppData\Local\Temp\cclPkNhc.s 			page 157


 5676 002e 0223     		movs	r3, #2
  44:../../libs/libDaisy/src/sys/../../../../libs/libDaisy/src/dev/oled_ssd130x.h ****         i2c_.TransmitBlocking(i2c_address_, buf, 2, 1000);
 5677              		.loc 10 44 17 view .LVU1323
 5678 0030 8DF80C50 		strb	r5, [sp, #12]
  45:../../libs/libDaisy/src/sys/../../../../libs/libDaisy/src/dev/oled_ssd130x.h ****     };
 5679              		.loc 10 45 30 view .LVU1324
 5680 0034 FFF7FEFF 		bl	_ZN5daisy9I2CHandle16TransmitBlockingEtPhtm
 5681              	.LVL435:
  45:../../libs/libDaisy/src/sys/../../../../libs/libDaisy/src/dev/oled_ssd130x.h ****     };
 5682              		.loc 10 45 30 view .LVU1325
 5683              	.LBE1526:
 5684              	.LBE1530:
 5685              	.LBB1531:
 5686              	.LBI1531:
  42:../../libs/libDaisy/src/sys/../../../../libs/libDaisy/src/dev/oled_ssd130x.h ****     {
 5687              		.loc 10 42 10 is_stmt 1 view .LVU1326
 5688              	.LBB1532:
  44:../../libs/libDaisy/src/sys/../../../../libs/libDaisy/src/dev/oled_ssd130x.h ****         i2c_.TransmitBlocking(i2c_address_, buf, 2, 1000);
 5689              		.loc 10 44 9 view .LVU1327
  44:../../libs/libDaisy/src/sys/../../../../libs/libDaisy/src/dev/oled_ssd130x.h ****         i2c_.TransmitBlocking(i2c_address_, buf, 2, 1000);
 5690              		.loc 10 44 36 is_stmt 0 view .LVU1328
 5691 0038 D523     		movs	r3, #213
  45:../../libs/libDaisy/src/sys/../../../../libs/libDaisy/src/dev/oled_ssd130x.h ****     };
 5692              		.loc 10 45 30 view .LVU1329
 5693 003a 03AA     		add	r2, sp, #12
 5694 003c 0096     		str	r6, [sp]
 5695 003e 2046     		mov	r0, r4
 5696 0040 2179     		ldrb	r1, [r4, #4]	@ zero_extendqisi2
  44:../../libs/libDaisy/src/sys/../../../../libs/libDaisy/src/dev/oled_ssd130x.h ****         i2c_.TransmitBlocking(i2c_address_, buf, 2, 1000);
 5697              		.loc 10 44 36 view .LVU1330
 5698 0042 8DF80D30 		strb	r3, [sp, #13]
  45:../../libs/libDaisy/src/sys/../../../../libs/libDaisy/src/dev/oled_ssd130x.h ****     };
 5699              		.loc 10 45 9 is_stmt 1 view .LVU1331
  45:../../libs/libDaisy/src/sys/../../../../libs/libDaisy/src/dev/oled_ssd130x.h ****     };
 5700              		.loc 10 45 30 is_stmt 0 view .LVU1332
 5701 0046 0223     		movs	r3, #2
  44:../../libs/libDaisy/src/sys/../../../../libs/libDaisy/src/dev/oled_ssd130x.h ****         i2c_.TransmitBlocking(i2c_address_, buf, 2, 1000);
 5702              		.loc 10 44 17 view .LVU1333
 5703 0048 8DF80C50 		strb	r5, [sp, #12]
  45:../../libs/libDaisy/src/sys/../../../../libs/libDaisy/src/dev/oled_ssd130x.h ****     };
 5704              		.loc 10 45 30 view .LVU1334
 5705 004c FFF7FEFF 		bl	_ZN5daisy9I2CHandle16TransmitBlockingEtPhtm
 5706              	.LVL436:
  45:../../libs/libDaisy/src/sys/../../../../libs/libDaisy/src/dev/oled_ssd130x.h ****     };
 5707              		.loc 10 45 30 view .LVU1335
 5708              	.LBE1532:
 5709              	.LBE1531:
 5710              	.LBB1533:
 5711              	.LBI1533:
  42:../../libs/libDaisy/src/sys/../../../../libs/libDaisy/src/dev/oled_ssd130x.h ****     {
 5712              		.loc 10 42 10 is_stmt 1 view .LVU1336
 5713              	.LBB1534:
  44:../../libs/libDaisy/src/sys/../../../../libs/libDaisy/src/dev/oled_ssd130x.h ****         i2c_.TransmitBlocking(i2c_address_, buf, 2, 1000);
 5714              		.loc 10 44 9 view .LVU1337
  44:../../libs/libDaisy/src/sys/../../../../libs/libDaisy/src/dev/oled_ssd130x.h ****         i2c_.TransmitBlocking(i2c_address_, buf, 2, 1000);
 5715              		.loc 10 44 36 is_stmt 0 view .LVU1338
 5716 0050 8023     		movs	r3, #128
ARM GAS  C:\Users\matte\AppData\Local\Temp\cclPkNhc.s 			page 158


  45:../../libs/libDaisy/src/sys/../../../../libs/libDaisy/src/dev/oled_ssd130x.h ****     };
 5717              		.loc 10 45 30 view .LVU1339
 5718 0052 03AA     		add	r2, sp, #12
 5719 0054 0096     		str	r6, [sp]
 5720 0056 2046     		mov	r0, r4
 5721 0058 2179     		ldrb	r1, [r4, #4]	@ zero_extendqisi2
  44:../../libs/libDaisy/src/sys/../../../../libs/libDaisy/src/dev/oled_ssd130x.h ****         i2c_.TransmitBlocking(i2c_address_, buf, 2, 1000);
 5722              		.loc 10 44 36 view .LVU1340
 5723 005a 8DF80D30 		strb	r3, [sp, #13]
  45:../../libs/libDaisy/src/sys/../../../../libs/libDaisy/src/dev/oled_ssd130x.h ****     };
 5724              		.loc 10 45 9 is_stmt 1 view .LVU1341
  45:../../libs/libDaisy/src/sys/../../../../libs/libDaisy/src/dev/oled_ssd130x.h ****     };
 5725              		.loc 10 45 30 is_stmt 0 view .LVU1342
 5726 005e 0223     		movs	r3, #2
  44:../../libs/libDaisy/src/sys/../../../../libs/libDaisy/src/dev/oled_ssd130x.h ****         i2c_.TransmitBlocking(i2c_address_, buf, 2, 1000);
 5727              		.loc 10 44 17 view .LVU1343
 5728 0060 8DF80C50 		strb	r5, [sp, #12]
  45:../../libs/libDaisy/src/sys/../../../../libs/libDaisy/src/dev/oled_ssd130x.h ****     };
 5729              		.loc 10 45 30 view .LVU1344
 5730 0064 FFF7FEFF 		bl	_ZN5daisy9I2CHandle16TransmitBlockingEtPhtm
 5731              	.LVL437:
  45:../../libs/libDaisy/src/sys/../../../../libs/libDaisy/src/dev/oled_ssd130x.h ****     };
 5732              		.loc 10 45 30 view .LVU1345
 5733              	.LBE1534:
 5734              	.LBE1533:
 5735              	.LBB1535:
 5736              	.LBI1535:
  42:../../libs/libDaisy/src/sys/../../../../libs/libDaisy/src/dev/oled_ssd130x.h ****     {
 5737              		.loc 10 42 10 is_stmt 1 view .LVU1346
 5738              	.LBB1536:
  44:../../libs/libDaisy/src/sys/../../../../libs/libDaisy/src/dev/oled_ssd130x.h ****         i2c_.TransmitBlocking(i2c_address_, buf, 2, 1000);
 5739              		.loc 10 44 9 view .LVU1347
  44:../../libs/libDaisy/src/sys/../../../../libs/libDaisy/src/dev/oled_ssd130x.h ****         i2c_.TransmitBlocking(i2c_address_, buf, 2, 1000);
 5740              		.loc 10 44 36 is_stmt 0 view .LVU1348
 5741 0068 A823     		movs	r3, #168
  45:../../libs/libDaisy/src/sys/../../../../libs/libDaisy/src/dev/oled_ssd130x.h ****     };
 5742              		.loc 10 45 30 view .LVU1349
 5743 006a 03AA     		add	r2, sp, #12
 5744 006c 0096     		str	r6, [sp]
 5745 006e 2046     		mov	r0, r4
 5746 0070 2179     		ldrb	r1, [r4, #4]	@ zero_extendqisi2
  44:../../libs/libDaisy/src/sys/../../../../libs/libDaisy/src/dev/oled_ssd130x.h ****         i2c_.TransmitBlocking(i2c_address_, buf, 2, 1000);
 5747              		.loc 10 44 36 view .LVU1350
 5748 0072 8DF80D30 		strb	r3, [sp, #13]
  45:../../libs/libDaisy/src/sys/../../../../libs/libDaisy/src/dev/oled_ssd130x.h ****     };
 5749              		.loc 10 45 9 is_stmt 1 view .LVU1351
  45:../../libs/libDaisy/src/sys/../../../../libs/libDaisy/src/dev/oled_ssd130x.h ****     };
 5750              		.loc 10 45 30 is_stmt 0 view .LVU1352
 5751 0076 0223     		movs	r3, #2
  44:../../libs/libDaisy/src/sys/../../../../libs/libDaisy/src/dev/oled_ssd130x.h ****         i2c_.TransmitBlocking(i2c_address_, buf, 2, 1000);
 5752              		.loc 10 44 17 view .LVU1353
 5753 0078 8DF80C50 		strb	r5, [sp, #12]
  45:../../libs/libDaisy/src/sys/../../../../libs/libDaisy/src/dev/oled_ssd130x.h ****     };
 5754              		.loc 10 45 30 view .LVU1354
 5755 007c FFF7FEFF 		bl	_ZN5daisy9I2CHandle16TransmitBlockingEtPhtm
 5756              	.LVL438:
  45:../../libs/libDaisy/src/sys/../../../../libs/libDaisy/src/dev/oled_ssd130x.h ****     };
ARM GAS  C:\Users\matte\AppData\Local\Temp\cclPkNhc.s 			page 159


 5757              		.loc 10 45 30 view .LVU1355
 5758              	.LBE1536:
 5759              	.LBE1535:
 5760              	.LBB1537:
 5761              	.LBI1537:
  42:../../libs/libDaisy/src/sys/../../../../libs/libDaisy/src/dev/oled_ssd130x.h ****     {
 5762              		.loc 10 42 10 is_stmt 1 view .LVU1356
 5763              	.LBB1538:
  44:../../libs/libDaisy/src/sys/../../../../libs/libDaisy/src/dev/oled_ssd130x.h ****         i2c_.TransmitBlocking(i2c_address_, buf, 2, 1000);
 5764              		.loc 10 44 9 view .LVU1357
  44:../../libs/libDaisy/src/sys/../../../../libs/libDaisy/src/dev/oled_ssd130x.h ****         i2c_.TransmitBlocking(i2c_address_, buf, 2, 1000);
 5765              		.loc 10 44 36 is_stmt 0 view .LVU1358
 5766 0080 3F23     		movs	r3, #63
  45:../../libs/libDaisy/src/sys/../../../../libs/libDaisy/src/dev/oled_ssd130x.h ****     };
 5767              		.loc 10 45 30 view .LVU1359
 5768 0082 03AA     		add	r2, sp, #12
 5769 0084 0096     		str	r6, [sp]
 5770 0086 2046     		mov	r0, r4
 5771 0088 2179     		ldrb	r1, [r4, #4]	@ zero_extendqisi2
  44:../../libs/libDaisy/src/sys/../../../../libs/libDaisy/src/dev/oled_ssd130x.h ****         i2c_.TransmitBlocking(i2c_address_, buf, 2, 1000);
 5772              		.loc 10 44 36 view .LVU1360
 5773 008a 8DF80D30 		strb	r3, [sp, #13]
  45:../../libs/libDaisy/src/sys/../../../../libs/libDaisy/src/dev/oled_ssd130x.h ****     };
 5774              		.loc 10 45 9 is_stmt 1 view .LVU1361
  45:../../libs/libDaisy/src/sys/../../../../libs/libDaisy/src/dev/oled_ssd130x.h ****     };
 5775              		.loc 10 45 30 is_stmt 0 view .LVU1362
 5776 008e 0223     		movs	r3, #2
  44:../../libs/libDaisy/src/sys/../../../../libs/libDaisy/src/dev/oled_ssd130x.h ****         i2c_.TransmitBlocking(i2c_address_, buf, 2, 1000);
 5777              		.loc 10 44 17 view .LVU1363
 5778 0090 8DF80C50 		strb	r5, [sp, #12]
  45:../../libs/libDaisy/src/sys/../../../../libs/libDaisy/src/dev/oled_ssd130x.h ****     };
 5779              		.loc 10 45 30 view .LVU1364
 5780 0094 FFF7FEFF 		bl	_ZN5daisy9I2CHandle16TransmitBlockingEtPhtm
 5781              	.LVL439:
  45:../../libs/libDaisy/src/sys/../../../../libs/libDaisy/src/dev/oled_ssd130x.h ****     };
 5782              		.loc 10 45 30 view .LVU1365
 5783              	.LBE1538:
 5784              	.LBE1537:
 5785              	.LBB1539:
 5786              	.LBI1539:
  42:../../libs/libDaisy/src/sys/../../../../libs/libDaisy/src/dev/oled_ssd130x.h ****     {
 5787              		.loc 10 42 10 is_stmt 1 view .LVU1366
 5788              	.LBB1540:
  44:../../libs/libDaisy/src/sys/../../../../libs/libDaisy/src/dev/oled_ssd130x.h ****         i2c_.TransmitBlocking(i2c_address_, buf, 2, 1000);
 5789              		.loc 10 44 9 view .LVU1367
  44:../../libs/libDaisy/src/sys/../../../../libs/libDaisy/src/dev/oled_ssd130x.h ****         i2c_.TransmitBlocking(i2c_address_, buf, 2, 1000);
 5790              		.loc 10 44 36 is_stmt 0 view .LVU1368
 5791 0098 DA23     		movs	r3, #218
  45:../../libs/libDaisy/src/sys/../../../../libs/libDaisy/src/dev/oled_ssd130x.h ****     };
 5792              		.loc 10 45 30 view .LVU1369
 5793 009a 03AA     		add	r2, sp, #12
 5794 009c 0096     		str	r6, [sp]
 5795 009e 2046     		mov	r0, r4
 5796 00a0 2179     		ldrb	r1, [r4, #4]	@ zero_extendqisi2
  44:../../libs/libDaisy/src/sys/../../../../libs/libDaisy/src/dev/oled_ssd130x.h ****         i2c_.TransmitBlocking(i2c_address_, buf, 2, 1000);
 5797              		.loc 10 44 36 view .LVU1370
 5798 00a2 8DF80D30 		strb	r3, [sp, #13]
ARM GAS  C:\Users\matte\AppData\Local\Temp\cclPkNhc.s 			page 160


  45:../../libs/libDaisy/src/sys/../../../../libs/libDaisy/src/dev/oled_ssd130x.h ****     };
 5799              		.loc 10 45 9 is_stmt 1 view .LVU1371
  45:../../libs/libDaisy/src/sys/../../../../libs/libDaisy/src/dev/oled_ssd130x.h ****     };
 5800              		.loc 10 45 30 is_stmt 0 view .LVU1372
 5801 00a6 0223     		movs	r3, #2
  44:../../libs/libDaisy/src/sys/../../../../libs/libDaisy/src/dev/oled_ssd130x.h ****         i2c_.TransmitBlocking(i2c_address_, buf, 2, 1000);
 5802              		.loc 10 44 17 view .LVU1373
 5803 00a8 8DF80C50 		strb	r5, [sp, #12]
  45:../../libs/libDaisy/src/sys/../../../../libs/libDaisy/src/dev/oled_ssd130x.h ****     };
 5804              		.loc 10 45 30 view .LVU1374
 5805 00ac FFF7FEFF 		bl	_ZN5daisy9I2CHandle16TransmitBlockingEtPhtm
 5806              	.LVL440:
  45:../../libs/libDaisy/src/sys/../../../../libs/libDaisy/src/dev/oled_ssd130x.h ****     };
 5807              		.loc 10 45 30 view .LVU1375
 5808              	.LBE1540:
 5809              	.LBE1539:
 5810              	.LBB1541:
 5811              	.LBI1541:
  42:../../libs/libDaisy/src/sys/../../../../libs/libDaisy/src/dev/oled_ssd130x.h ****     {
 5812              		.loc 10 42 10 is_stmt 1 view .LVU1376
 5813              	.LBB1542:
  44:../../libs/libDaisy/src/sys/../../../../libs/libDaisy/src/dev/oled_ssd130x.h ****         i2c_.TransmitBlocking(i2c_address_, buf, 2, 1000);
 5814              		.loc 10 44 9 view .LVU1377
  44:../../libs/libDaisy/src/sys/../../../../libs/libDaisy/src/dev/oled_ssd130x.h ****         i2c_.TransmitBlocking(i2c_address_, buf, 2, 1000);
 5815              		.loc 10 44 36 is_stmt 0 view .LVU1378
 5816 00b0 1223     		movs	r3, #18
  45:../../libs/libDaisy/src/sys/../../../../libs/libDaisy/src/dev/oled_ssd130x.h ****     };
 5817              		.loc 10 45 30 view .LVU1379
 5818 00b2 03AA     		add	r2, sp, #12
 5819 00b4 0096     		str	r6, [sp]
 5820 00b6 2046     		mov	r0, r4
 5821 00b8 2179     		ldrb	r1, [r4, #4]	@ zero_extendqisi2
  44:../../libs/libDaisy/src/sys/../../../../libs/libDaisy/src/dev/oled_ssd130x.h ****         i2c_.TransmitBlocking(i2c_address_, buf, 2, 1000);
 5822              		.loc 10 44 36 view .LVU1380
 5823 00ba 8DF80D30 		strb	r3, [sp, #13]
  45:../../libs/libDaisy/src/sys/../../../../libs/libDaisy/src/dev/oled_ssd130x.h ****     };
 5824              		.loc 10 45 9 is_stmt 1 view .LVU1381
  45:../../libs/libDaisy/src/sys/../../../../libs/libDaisy/src/dev/oled_ssd130x.h ****     };
 5825              		.loc 10 45 30 is_stmt 0 view .LVU1382
 5826 00be 0223     		movs	r3, #2
  44:../../libs/libDaisy/src/sys/../../../../libs/libDaisy/src/dev/oled_ssd130x.h ****         i2c_.TransmitBlocking(i2c_address_, buf, 2, 1000);
 5827              		.loc 10 44 17 view .LVU1383
 5828 00c0 8DF80C50 		strb	r5, [sp, #12]
  45:../../libs/libDaisy/src/sys/../../../../libs/libDaisy/src/dev/oled_ssd130x.h ****     };
 5829              		.loc 10 45 30 view .LVU1384
 5830 00c4 FFF7FEFF 		bl	_ZN5daisy9I2CHandle16TransmitBlockingEtPhtm
 5831              	.LVL441:
  45:../../libs/libDaisy/src/sys/../../../../libs/libDaisy/src/dev/oled_ssd130x.h ****     };
 5832              		.loc 10 45 30 view .LVU1385
 5833              	.LBE1542:
 5834              	.LBE1541:
 5835              	.LBB1543:
 5836              	.LBI1543:
  42:../../libs/libDaisy/src/sys/../../../../libs/libDaisy/src/dev/oled_ssd130x.h ****     {
 5837              		.loc 10 42 10 is_stmt 1 view .LVU1386
 5838              	.LBB1544:
  44:../../libs/libDaisy/src/sys/../../../../libs/libDaisy/src/dev/oled_ssd130x.h ****         i2c_.TransmitBlocking(i2c_address_, buf, 2, 1000);
ARM GAS  C:\Users\matte\AppData\Local\Temp\cclPkNhc.s 			page 161


 5839              		.loc 10 44 9 view .LVU1387
  44:../../libs/libDaisy/src/sys/../../../../libs/libDaisy/src/dev/oled_ssd130x.h ****         i2c_.TransmitBlocking(i2c_address_, buf, 2, 1000);
 5840              		.loc 10 44 36 is_stmt 0 view .LVU1388
 5841 00c8 D323     		movs	r3, #211
  45:../../libs/libDaisy/src/sys/../../../../libs/libDaisy/src/dev/oled_ssd130x.h ****     };
 5842              		.loc 10 45 30 view .LVU1389
 5843 00ca 03AA     		add	r2, sp, #12
 5844 00cc 0096     		str	r6, [sp]
 5845 00ce 2046     		mov	r0, r4
 5846 00d0 2179     		ldrb	r1, [r4, #4]	@ zero_extendqisi2
  44:../../libs/libDaisy/src/sys/../../../../libs/libDaisy/src/dev/oled_ssd130x.h ****         i2c_.TransmitBlocking(i2c_address_, buf, 2, 1000);
 5847              		.loc 10 44 36 view .LVU1390
 5848 00d2 8DF80D30 		strb	r3, [sp, #13]
  45:../../libs/libDaisy/src/sys/../../../../libs/libDaisy/src/dev/oled_ssd130x.h ****     };
 5849              		.loc 10 45 9 is_stmt 1 view .LVU1391
  45:../../libs/libDaisy/src/sys/../../../../libs/libDaisy/src/dev/oled_ssd130x.h ****     };
 5850              		.loc 10 45 30 is_stmt 0 view .LVU1392
 5851 00d6 0223     		movs	r3, #2
  44:../../libs/libDaisy/src/sys/../../../../libs/libDaisy/src/dev/oled_ssd130x.h ****         i2c_.TransmitBlocking(i2c_address_, buf, 2, 1000);
 5852              		.loc 10 44 17 view .LVU1393
 5853 00d8 8DF80C50 		strb	r5, [sp, #12]
  45:../../libs/libDaisy/src/sys/../../../../libs/libDaisy/src/dev/oled_ssd130x.h ****     };
 5854              		.loc 10 45 30 view .LVU1394
 5855 00dc FFF7FEFF 		bl	_ZN5daisy9I2CHandle16TransmitBlockingEtPhtm
 5856              	.LVL442:
  45:../../libs/libDaisy/src/sys/../../../../libs/libDaisy/src/dev/oled_ssd130x.h ****     };
 5857              		.loc 10 45 30 view .LVU1395
 5858              	.LBE1544:
 5859              	.LBE1543:
 5860              	.LBB1545:
 5861              	.LBI1545:
  42:../../libs/libDaisy/src/sys/../../../../libs/libDaisy/src/dev/oled_ssd130x.h ****     {
 5862              		.loc 10 42 10 is_stmt 1 view .LVU1396
 5863              	.LBB1546:
  44:../../libs/libDaisy/src/sys/../../../../libs/libDaisy/src/dev/oled_ssd130x.h ****         i2c_.TransmitBlocking(i2c_address_, buf, 2, 1000);
 5864              		.loc 10 44 9 view .LVU1397
  45:../../libs/libDaisy/src/sys/../../../../libs/libDaisy/src/dev/oled_ssd130x.h ****     };
 5865              		.loc 10 45 30 is_stmt 0 view .LVU1398
 5866 00e0 03AA     		add	r2, sp, #12
 5867 00e2 0096     		str	r6, [sp]
 5868 00e4 0223     		movs	r3, #2
 5869 00e6 2179     		ldrb	r1, [r4, #4]	@ zero_extendqisi2
 5870 00e8 2046     		mov	r0, r4
  44:../../libs/libDaisy/src/sys/../../../../libs/libDaisy/src/dev/oled_ssd130x.h ****         i2c_.TransmitBlocking(i2c_address_, buf, 2, 1000);
 5871              		.loc 10 44 17 view .LVU1399
 5872 00ea 8DF80C50 		strb	r5, [sp, #12]
  44:../../libs/libDaisy/src/sys/../../../../libs/libDaisy/src/dev/oled_ssd130x.h ****         i2c_.TransmitBlocking(i2c_address_, buf, 2, 1000);
 5873              		.loc 10 44 36 view .LVU1400
 5874 00ee 8DF80D50 		strb	r5, [sp, #13]
  45:../../libs/libDaisy/src/sys/../../../../libs/libDaisy/src/dev/oled_ssd130x.h ****     };
 5875              		.loc 10 45 9 is_stmt 1 view .LVU1401
  45:../../libs/libDaisy/src/sys/../../../../libs/libDaisy/src/dev/oled_ssd130x.h ****     };
 5876              		.loc 10 45 30 is_stmt 0 view .LVU1402
 5877 00f2 FFF7FEFF 		bl	_ZN5daisy9I2CHandle16TransmitBlockingEtPhtm
 5878              	.LVL443:
  45:../../libs/libDaisy/src/sys/../../../../libs/libDaisy/src/dev/oled_ssd130x.h ****     };
 5879              		.loc 10 45 30 view .LVU1403
ARM GAS  C:\Users\matte\AppData\Local\Temp\cclPkNhc.s 			page 162


 5880              	.LBE1546:
 5881              	.LBE1545:
 5882              	.LBB1547:
 5883              	.LBI1547:
  42:../../libs/libDaisy/src/sys/../../../../libs/libDaisy/src/dev/oled_ssd130x.h ****     {
 5884              		.loc 10 42 10 is_stmt 1 view .LVU1404
 5885              	.LBB1548:
  44:../../libs/libDaisy/src/sys/../../../../libs/libDaisy/src/dev/oled_ssd130x.h ****         i2c_.TransmitBlocking(i2c_address_, buf, 2, 1000);
 5886              		.loc 10 44 9 view .LVU1405
  44:../../libs/libDaisy/src/sys/../../../../libs/libDaisy/src/dev/oled_ssd130x.h ****         i2c_.TransmitBlocking(i2c_address_, buf, 2, 1000);
 5887              		.loc 10 44 36 is_stmt 0 view .LVU1406
 5888 00f6 4023     		movs	r3, #64
  45:../../libs/libDaisy/src/sys/../../../../libs/libDaisy/src/dev/oled_ssd130x.h ****     };
 5889              		.loc 10 45 30 view .LVU1407
 5890 00f8 03AA     		add	r2, sp, #12
 5891 00fa 0096     		str	r6, [sp]
 5892 00fc 2046     		mov	r0, r4
 5893 00fe 2179     		ldrb	r1, [r4, #4]	@ zero_extendqisi2
  44:../../libs/libDaisy/src/sys/../../../../libs/libDaisy/src/dev/oled_ssd130x.h ****         i2c_.TransmitBlocking(i2c_address_, buf, 2, 1000);
 5894              		.loc 10 44 36 view .LVU1408
 5895 0100 8DF80D30 		strb	r3, [sp, #13]
  45:../../libs/libDaisy/src/sys/../../../../libs/libDaisy/src/dev/oled_ssd130x.h ****     };
 5896              		.loc 10 45 9 is_stmt 1 view .LVU1409
  45:../../libs/libDaisy/src/sys/../../../../libs/libDaisy/src/dev/oled_ssd130x.h ****     };
 5897              		.loc 10 45 30 is_stmt 0 view .LVU1410
 5898 0104 0223     		movs	r3, #2
  44:../../libs/libDaisy/src/sys/../../../../libs/libDaisy/src/dev/oled_ssd130x.h ****         i2c_.TransmitBlocking(i2c_address_, buf, 2, 1000);
 5899              		.loc 10 44 17 view .LVU1411
 5900 0106 8DF80C50 		strb	r5, [sp, #12]
  45:../../libs/libDaisy/src/sys/../../../../libs/libDaisy/src/dev/oled_ssd130x.h ****     };
 5901              		.loc 10 45 30 view .LVU1412
 5902 010a FFF7FEFF 		bl	_ZN5daisy9I2CHandle16TransmitBlockingEtPhtm
 5903              	.LVL444:
  45:../../libs/libDaisy/src/sys/../../../../libs/libDaisy/src/dev/oled_ssd130x.h ****     };
 5904              		.loc 10 45 30 view .LVU1413
 5905              	.LBE1548:
 5906              	.LBE1547:
 5907              	.LBB1549:
 5908              	.LBI1549:
  42:../../libs/libDaisy/src/sys/../../../../libs/libDaisy/src/dev/oled_ssd130x.h ****     {
 5909              		.loc 10 42 10 is_stmt 1 view .LVU1414
 5910              	.LBB1550:
  44:../../libs/libDaisy/src/sys/../../../../libs/libDaisy/src/dev/oled_ssd130x.h ****         i2c_.TransmitBlocking(i2c_address_, buf, 2, 1000);
 5911              		.loc 10 44 9 view .LVU1415
  44:../../libs/libDaisy/src/sys/../../../../libs/libDaisy/src/dev/oled_ssd130x.h ****         i2c_.TransmitBlocking(i2c_address_, buf, 2, 1000);
 5912              		.loc 10 44 36 is_stmt 0 view .LVU1416
 5913 010e A623     		movs	r3, #166
  45:../../libs/libDaisy/src/sys/../../../../libs/libDaisy/src/dev/oled_ssd130x.h ****     };
 5914              		.loc 10 45 30 view .LVU1417
 5915 0110 03AA     		add	r2, sp, #12
 5916 0112 0096     		str	r6, [sp]
 5917 0114 2046     		mov	r0, r4
 5918 0116 2179     		ldrb	r1, [r4, #4]	@ zero_extendqisi2
  44:../../libs/libDaisy/src/sys/../../../../libs/libDaisy/src/dev/oled_ssd130x.h ****         i2c_.TransmitBlocking(i2c_address_, buf, 2, 1000);
 5919              		.loc 10 44 36 view .LVU1418
 5920 0118 8DF80D30 		strb	r3, [sp, #13]
  45:../../libs/libDaisy/src/sys/../../../../libs/libDaisy/src/dev/oled_ssd130x.h ****     };
ARM GAS  C:\Users\matte\AppData\Local\Temp\cclPkNhc.s 			page 163


 5921              		.loc 10 45 9 is_stmt 1 view .LVU1419
  45:../../libs/libDaisy/src/sys/../../../../libs/libDaisy/src/dev/oled_ssd130x.h ****     };
 5922              		.loc 10 45 30 is_stmt 0 view .LVU1420
 5923 011c 0223     		movs	r3, #2
  44:../../libs/libDaisy/src/sys/../../../../libs/libDaisy/src/dev/oled_ssd130x.h ****         i2c_.TransmitBlocking(i2c_address_, buf, 2, 1000);
 5924              		.loc 10 44 17 view .LVU1421
 5925 011e 8DF80C50 		strb	r5, [sp, #12]
  45:../../libs/libDaisy/src/sys/../../../../libs/libDaisy/src/dev/oled_ssd130x.h ****     };
 5926              		.loc 10 45 30 view .LVU1422
 5927 0122 FFF7FEFF 		bl	_ZN5daisy9I2CHandle16TransmitBlockingEtPhtm
 5928              	.LVL445:
  45:../../libs/libDaisy/src/sys/../../../../libs/libDaisy/src/dev/oled_ssd130x.h ****     };
 5929              		.loc 10 45 30 view .LVU1423
 5930              	.LBE1550:
 5931              	.LBE1549:
 5932              	.LBB1551:
 5933              	.LBI1551:
  42:../../libs/libDaisy/src/sys/../../../../libs/libDaisy/src/dev/oled_ssd130x.h ****     {
 5934              		.loc 10 42 10 is_stmt 1 view .LVU1424
 5935              	.LBB1552:
  44:../../libs/libDaisy/src/sys/../../../../libs/libDaisy/src/dev/oled_ssd130x.h ****         i2c_.TransmitBlocking(i2c_address_, buf, 2, 1000);
 5936              		.loc 10 44 9 view .LVU1425
  44:../../libs/libDaisy/src/sys/../../../../libs/libDaisy/src/dev/oled_ssd130x.h ****         i2c_.TransmitBlocking(i2c_address_, buf, 2, 1000);
 5937              		.loc 10 44 36 is_stmt 0 view .LVU1426
 5938 0126 A423     		movs	r3, #164
  45:../../libs/libDaisy/src/sys/../../../../libs/libDaisy/src/dev/oled_ssd130x.h ****     };
 5939              		.loc 10 45 30 view .LVU1427
 5940 0128 03AA     		add	r2, sp, #12
 5941 012a 0096     		str	r6, [sp]
 5942 012c 2046     		mov	r0, r4
 5943 012e 2179     		ldrb	r1, [r4, #4]	@ zero_extendqisi2
  44:../../libs/libDaisy/src/sys/../../../../libs/libDaisy/src/dev/oled_ssd130x.h ****         i2c_.TransmitBlocking(i2c_address_, buf, 2, 1000);
 5944              		.loc 10 44 36 view .LVU1428
 5945 0130 8DF80D30 		strb	r3, [sp, #13]
  45:../../libs/libDaisy/src/sys/../../../../libs/libDaisy/src/dev/oled_ssd130x.h ****     };
 5946              		.loc 10 45 9 is_stmt 1 view .LVU1429
  45:../../libs/libDaisy/src/sys/../../../../libs/libDaisy/src/dev/oled_ssd130x.h ****     };
 5947              		.loc 10 45 30 is_stmt 0 view .LVU1430
 5948 0134 0223     		movs	r3, #2
  44:../../libs/libDaisy/src/sys/../../../../libs/libDaisy/src/dev/oled_ssd130x.h ****         i2c_.TransmitBlocking(i2c_address_, buf, 2, 1000);
 5949              		.loc 10 44 17 view .LVU1431
 5950 0136 8DF80C50 		strb	r5, [sp, #12]
  45:../../libs/libDaisy/src/sys/../../../../libs/libDaisy/src/dev/oled_ssd130x.h ****     };
 5951              		.loc 10 45 30 view .LVU1432
 5952 013a FFF7FEFF 		bl	_ZN5daisy9I2CHandle16TransmitBlockingEtPhtm
 5953              	.LVL446:
  45:../../libs/libDaisy/src/sys/../../../../libs/libDaisy/src/dev/oled_ssd130x.h ****     };
 5954              		.loc 10 45 30 view .LVU1433
 5955              	.LBE1552:
 5956              	.LBE1551:
 5957              	.LBB1553:
 5958              	.LBI1553:
  42:../../libs/libDaisy/src/sys/../../../../libs/libDaisy/src/dev/oled_ssd130x.h ****     {
 5959              		.loc 10 42 10 is_stmt 1 view .LVU1434
 5960              	.LBB1554:
  44:../../libs/libDaisy/src/sys/../../../../libs/libDaisy/src/dev/oled_ssd130x.h ****         i2c_.TransmitBlocking(i2c_address_, buf, 2, 1000);
 5961              		.loc 10 44 9 view .LVU1435
ARM GAS  C:\Users\matte\AppData\Local\Temp\cclPkNhc.s 			page 164


  44:../../libs/libDaisy/src/sys/../../../../libs/libDaisy/src/dev/oled_ssd130x.h ****         i2c_.TransmitBlocking(i2c_address_, buf, 2, 1000);
 5962              		.loc 10 44 36 is_stmt 0 view .LVU1436
 5963 013e 8D23     		movs	r3, #141
  45:../../libs/libDaisy/src/sys/../../../../libs/libDaisy/src/dev/oled_ssd130x.h ****     };
 5964              		.loc 10 45 30 view .LVU1437
 5965 0140 03AA     		add	r2, sp, #12
 5966 0142 0096     		str	r6, [sp]
 5967 0144 2046     		mov	r0, r4
 5968 0146 2179     		ldrb	r1, [r4, #4]	@ zero_extendqisi2
  44:../../libs/libDaisy/src/sys/../../../../libs/libDaisy/src/dev/oled_ssd130x.h ****         i2c_.TransmitBlocking(i2c_address_, buf, 2, 1000);
 5969              		.loc 10 44 36 view .LVU1438
 5970 0148 8DF80D30 		strb	r3, [sp, #13]
  45:../../libs/libDaisy/src/sys/../../../../libs/libDaisy/src/dev/oled_ssd130x.h ****     };
 5971              		.loc 10 45 9 is_stmt 1 view .LVU1439
  45:../../libs/libDaisy/src/sys/../../../../libs/libDaisy/src/dev/oled_ssd130x.h ****     };
 5972              		.loc 10 45 30 is_stmt 0 view .LVU1440
 5973 014c 0223     		movs	r3, #2
  44:../../libs/libDaisy/src/sys/../../../../libs/libDaisy/src/dev/oled_ssd130x.h ****         i2c_.TransmitBlocking(i2c_address_, buf, 2, 1000);
 5974              		.loc 10 44 17 view .LVU1441
 5975 014e 8DF80C50 		strb	r5, [sp, #12]
  45:../../libs/libDaisy/src/sys/../../../../libs/libDaisy/src/dev/oled_ssd130x.h ****     };
 5976              		.loc 10 45 30 view .LVU1442
 5977 0152 FFF7FEFF 		bl	_ZN5daisy9I2CHandle16TransmitBlockingEtPhtm
 5978              	.LVL447:
  45:../../libs/libDaisy/src/sys/../../../../libs/libDaisy/src/dev/oled_ssd130x.h ****     };
 5979              		.loc 10 45 30 view .LVU1443
 5980              	.LBE1554:
 5981              	.LBE1553:
 5982              	.LBB1555:
 5983              	.LBI1555:
  42:../../libs/libDaisy/src/sys/../../../../libs/libDaisy/src/dev/oled_ssd130x.h ****     {
 5984              		.loc 10 42 10 is_stmt 1 view .LVU1444
 5985              	.LBB1556:
  44:../../libs/libDaisy/src/sys/../../../../libs/libDaisy/src/dev/oled_ssd130x.h ****         i2c_.TransmitBlocking(i2c_address_, buf, 2, 1000);
 5986              		.loc 10 44 9 view .LVU1445
  44:../../libs/libDaisy/src/sys/../../../../libs/libDaisy/src/dev/oled_ssd130x.h ****         i2c_.TransmitBlocking(i2c_address_, buf, 2, 1000);
 5987              		.loc 10 44 36 is_stmt 0 view .LVU1446
 5988 0156 1423     		movs	r3, #20
  45:../../libs/libDaisy/src/sys/../../../../libs/libDaisy/src/dev/oled_ssd130x.h ****     };
 5989              		.loc 10 45 30 view .LVU1447
 5990 0158 03AA     		add	r2, sp, #12
 5991 015a 0096     		str	r6, [sp]
 5992 015c 2046     		mov	r0, r4
 5993 015e 2179     		ldrb	r1, [r4, #4]	@ zero_extendqisi2
  44:../../libs/libDaisy/src/sys/../../../../libs/libDaisy/src/dev/oled_ssd130x.h ****         i2c_.TransmitBlocking(i2c_address_, buf, 2, 1000);
 5994              		.loc 10 44 36 view .LVU1448
 5995 0160 8DF80D30 		strb	r3, [sp, #13]
  45:../../libs/libDaisy/src/sys/../../../../libs/libDaisy/src/dev/oled_ssd130x.h ****     };
 5996              		.loc 10 45 9 is_stmt 1 view .LVU1449
  45:../../libs/libDaisy/src/sys/../../../../libs/libDaisy/src/dev/oled_ssd130x.h ****     };
 5997              		.loc 10 45 30 is_stmt 0 view .LVU1450
 5998 0164 0223     		movs	r3, #2
  44:../../libs/libDaisy/src/sys/../../../../libs/libDaisy/src/dev/oled_ssd130x.h ****         i2c_.TransmitBlocking(i2c_address_, buf, 2, 1000);
 5999              		.loc 10 44 17 view .LVU1451
 6000 0166 8DF80C50 		strb	r5, [sp, #12]
  45:../../libs/libDaisy/src/sys/../../../../libs/libDaisy/src/dev/oled_ssd130x.h ****     };
 6001              		.loc 10 45 30 view .LVU1452
ARM GAS  C:\Users\matte\AppData\Local\Temp\cclPkNhc.s 			page 165


 6002 016a FFF7FEFF 		bl	_ZN5daisy9I2CHandle16TransmitBlockingEtPhtm
 6003              	.LVL448:
  45:../../libs/libDaisy/src/sys/../../../../libs/libDaisy/src/dev/oled_ssd130x.h ****     };
 6004              		.loc 10 45 30 view .LVU1453
 6005              	.LBE1556:
 6006              	.LBE1555:
 6007              	.LBB1557:
 6008              	.LBI1557:
  42:../../libs/libDaisy/src/sys/../../../../libs/libDaisy/src/dev/oled_ssd130x.h ****     {
 6009              		.loc 10 42 10 is_stmt 1 view .LVU1454
 6010              	.LBB1558:
  44:../../libs/libDaisy/src/sys/../../../../libs/libDaisy/src/dev/oled_ssd130x.h ****         i2c_.TransmitBlocking(i2c_address_, buf, 2, 1000);
 6011              		.loc 10 44 9 view .LVU1455
  44:../../libs/libDaisy/src/sys/../../../../libs/libDaisy/src/dev/oled_ssd130x.h ****         i2c_.TransmitBlocking(i2c_address_, buf, 2, 1000);
 6012              		.loc 10 44 36 is_stmt 0 view .LVU1456
 6013 016e A123     		movs	r3, #161
  45:../../libs/libDaisy/src/sys/../../../../libs/libDaisy/src/dev/oled_ssd130x.h ****     };
 6014              		.loc 10 45 30 view .LVU1457
 6015 0170 03AA     		add	r2, sp, #12
 6016 0172 0096     		str	r6, [sp]
 6017 0174 2046     		mov	r0, r4
 6018 0176 2179     		ldrb	r1, [r4, #4]	@ zero_extendqisi2
  44:../../libs/libDaisy/src/sys/../../../../libs/libDaisy/src/dev/oled_ssd130x.h ****         i2c_.TransmitBlocking(i2c_address_, buf, 2, 1000);
 6019              		.loc 10 44 36 view .LVU1458
 6020 0178 8DF80D30 		strb	r3, [sp, #13]
  45:../../libs/libDaisy/src/sys/../../../../libs/libDaisy/src/dev/oled_ssd130x.h ****     };
 6021              		.loc 10 45 9 is_stmt 1 view .LVU1459
  45:../../libs/libDaisy/src/sys/../../../../libs/libDaisy/src/dev/oled_ssd130x.h ****     };
 6022              		.loc 10 45 30 is_stmt 0 view .LVU1460
 6023 017c 0223     		movs	r3, #2
  44:../../libs/libDaisy/src/sys/../../../../libs/libDaisy/src/dev/oled_ssd130x.h ****         i2c_.TransmitBlocking(i2c_address_, buf, 2, 1000);
 6024              		.loc 10 44 17 view .LVU1461
 6025 017e 8DF80C50 		strb	r5, [sp, #12]
  45:../../libs/libDaisy/src/sys/../../../../libs/libDaisy/src/dev/oled_ssd130x.h ****     };
 6026              		.loc 10 45 30 view .LVU1462
 6027 0182 FFF7FEFF 		bl	_ZN5daisy9I2CHandle16TransmitBlockingEtPhtm
 6028              	.LVL449:
  45:../../libs/libDaisy/src/sys/../../../../libs/libDaisy/src/dev/oled_ssd130x.h ****     };
 6029              		.loc 10 45 30 view .LVU1463
 6030              	.LBE1558:
 6031              	.LBE1557:
 6032              	.LBB1559:
 6033              	.LBI1559:
  42:../../libs/libDaisy/src/sys/../../../../libs/libDaisy/src/dev/oled_ssd130x.h ****     {
 6034              		.loc 10 42 10 is_stmt 1 view .LVU1464
 6035              	.LBB1560:
  44:../../libs/libDaisy/src/sys/../../../../libs/libDaisy/src/dev/oled_ssd130x.h ****         i2c_.TransmitBlocking(i2c_address_, buf, 2, 1000);
 6036              		.loc 10 44 9 view .LVU1465
  44:../../libs/libDaisy/src/sys/../../../../libs/libDaisy/src/dev/oled_ssd130x.h ****         i2c_.TransmitBlocking(i2c_address_, buf, 2, 1000);
 6037              		.loc 10 44 36 is_stmt 0 view .LVU1466
 6038 0186 C823     		movs	r3, #200
  45:../../libs/libDaisy/src/sys/../../../../libs/libDaisy/src/dev/oled_ssd130x.h ****     };
 6039              		.loc 10 45 30 view .LVU1467
 6040 0188 03AA     		add	r2, sp, #12
 6041 018a 0096     		str	r6, [sp]
 6042 018c 2046     		mov	r0, r4
 6043 018e 2179     		ldrb	r1, [r4, #4]	@ zero_extendqisi2
ARM GAS  C:\Users\matte\AppData\Local\Temp\cclPkNhc.s 			page 166


  44:../../libs/libDaisy/src/sys/../../../../libs/libDaisy/src/dev/oled_ssd130x.h ****         i2c_.TransmitBlocking(i2c_address_, buf, 2, 1000);
 6044              		.loc 10 44 36 view .LVU1468
 6045 0190 8DF80D30 		strb	r3, [sp, #13]
  45:../../libs/libDaisy/src/sys/../../../../libs/libDaisy/src/dev/oled_ssd130x.h ****     };
 6046              		.loc 10 45 9 is_stmt 1 view .LVU1469
  45:../../libs/libDaisy/src/sys/../../../../libs/libDaisy/src/dev/oled_ssd130x.h ****     };
 6047              		.loc 10 45 30 is_stmt 0 view .LVU1470
 6048 0194 0223     		movs	r3, #2
  44:../../libs/libDaisy/src/sys/../../../../libs/libDaisy/src/dev/oled_ssd130x.h ****         i2c_.TransmitBlocking(i2c_address_, buf, 2, 1000);
 6049              		.loc 10 44 17 view .LVU1471
 6050 0196 8DF80C50 		strb	r5, [sp, #12]
  45:../../libs/libDaisy/src/sys/../../../../libs/libDaisy/src/dev/oled_ssd130x.h ****     };
 6051              		.loc 10 45 30 view .LVU1472
 6052 019a FFF7FEFF 		bl	_ZN5daisy9I2CHandle16TransmitBlockingEtPhtm
 6053              	.LVL450:
  45:../../libs/libDaisy/src/sys/../../../../libs/libDaisy/src/dev/oled_ssd130x.h ****     };
 6054              		.loc 10 45 30 view .LVU1473
 6055              	.LBE1560:
 6056              	.LBE1559:
 6057              	.LBB1561:
 6058              	.LBI1561:
  42:../../libs/libDaisy/src/sys/../../../../libs/libDaisy/src/dev/oled_ssd130x.h ****     {
 6059              		.loc 10 42 10 is_stmt 1 view .LVU1474
 6060              	.LBB1562:
  44:../../libs/libDaisy/src/sys/../../../../libs/libDaisy/src/dev/oled_ssd130x.h ****         i2c_.TransmitBlocking(i2c_address_, buf, 2, 1000);
 6061              		.loc 10 44 9 view .LVU1475
  44:../../libs/libDaisy/src/sys/../../../../libs/libDaisy/src/dev/oled_ssd130x.h ****         i2c_.TransmitBlocking(i2c_address_, buf, 2, 1000);
 6062              		.loc 10 44 36 is_stmt 0 view .LVU1476
 6063 019e 8123     		movs	r3, #129
  45:../../libs/libDaisy/src/sys/../../../../libs/libDaisy/src/dev/oled_ssd130x.h ****     };
 6064              		.loc 10 45 30 view .LVU1477
 6065 01a0 03AA     		add	r2, sp, #12
 6066 01a2 0096     		str	r6, [sp]
 6067 01a4 2046     		mov	r0, r4
 6068 01a6 2179     		ldrb	r1, [r4, #4]	@ zero_extendqisi2
  44:../../libs/libDaisy/src/sys/../../../../libs/libDaisy/src/dev/oled_ssd130x.h ****         i2c_.TransmitBlocking(i2c_address_, buf, 2, 1000);
 6069              		.loc 10 44 36 view .LVU1478
 6070 01a8 8DF80D30 		strb	r3, [sp, #13]
  45:../../libs/libDaisy/src/sys/../../../../libs/libDaisy/src/dev/oled_ssd130x.h ****     };
 6071              		.loc 10 45 9 is_stmt 1 view .LVU1479
  45:../../libs/libDaisy/src/sys/../../../../libs/libDaisy/src/dev/oled_ssd130x.h ****     };
 6072              		.loc 10 45 30 is_stmt 0 view .LVU1480
 6073 01ac 0223     		movs	r3, #2
  44:../../libs/libDaisy/src/sys/../../../../libs/libDaisy/src/dev/oled_ssd130x.h ****         i2c_.TransmitBlocking(i2c_address_, buf, 2, 1000);
 6074              		.loc 10 44 17 view .LVU1481
 6075 01ae 8DF80C50 		strb	r5, [sp, #12]
  45:../../libs/libDaisy/src/sys/../../../../libs/libDaisy/src/dev/oled_ssd130x.h ****     };
 6076              		.loc 10 45 30 view .LVU1482
 6077 01b2 FFF7FEFF 		bl	_ZN5daisy9I2CHandle16TransmitBlockingEtPhtm
 6078              	.LVL451:
  45:../../libs/libDaisy/src/sys/../../../../libs/libDaisy/src/dev/oled_ssd130x.h ****     };
 6079              		.loc 10 45 30 view .LVU1483
 6080              	.LBE1562:
 6081              	.LBE1561:
 6082              	.LBB1563:
 6083              	.LBI1563:
  42:../../libs/libDaisy/src/sys/../../../../libs/libDaisy/src/dev/oled_ssd130x.h ****     {
ARM GAS  C:\Users\matte\AppData\Local\Temp\cclPkNhc.s 			page 167


 6084              		.loc 10 42 10 is_stmt 1 view .LVU1484
 6085              	.LBB1564:
  44:../../libs/libDaisy/src/sys/../../../../libs/libDaisy/src/dev/oled_ssd130x.h ****         i2c_.TransmitBlocking(i2c_address_, buf, 2, 1000);
 6086              		.loc 10 44 9 view .LVU1485
  44:../../libs/libDaisy/src/sys/../../../../libs/libDaisy/src/dev/oled_ssd130x.h ****         i2c_.TransmitBlocking(i2c_address_, buf, 2, 1000);
 6087              		.loc 10 44 36 is_stmt 0 view .LVU1486
 6088 01b6 8F23     		movs	r3, #143
  45:../../libs/libDaisy/src/sys/../../../../libs/libDaisy/src/dev/oled_ssd130x.h ****     };
 6089              		.loc 10 45 30 view .LVU1487
 6090 01b8 03AA     		add	r2, sp, #12
 6091 01ba 0096     		str	r6, [sp]
 6092 01bc 2046     		mov	r0, r4
 6093 01be 2179     		ldrb	r1, [r4, #4]	@ zero_extendqisi2
  44:../../libs/libDaisy/src/sys/../../../../libs/libDaisy/src/dev/oled_ssd130x.h ****         i2c_.TransmitBlocking(i2c_address_, buf, 2, 1000);
 6094              		.loc 10 44 36 view .LVU1488
 6095 01c0 8DF80D30 		strb	r3, [sp, #13]
  45:../../libs/libDaisy/src/sys/../../../../libs/libDaisy/src/dev/oled_ssd130x.h ****     };
 6096              		.loc 10 45 9 is_stmt 1 view .LVU1489
  45:../../libs/libDaisy/src/sys/../../../../libs/libDaisy/src/dev/oled_ssd130x.h ****     };
 6097              		.loc 10 45 30 is_stmt 0 view .LVU1490
 6098 01c4 0223     		movs	r3, #2
  44:../../libs/libDaisy/src/sys/../../../../libs/libDaisy/src/dev/oled_ssd130x.h ****         i2c_.TransmitBlocking(i2c_address_, buf, 2, 1000);
 6099              		.loc 10 44 17 view .LVU1491
 6100 01c6 8DF80C50 		strb	r5, [sp, #12]
  45:../../libs/libDaisy/src/sys/../../../../libs/libDaisy/src/dev/oled_ssd130x.h ****     };
 6101              		.loc 10 45 30 view .LVU1492
 6102 01ca FFF7FEFF 		bl	_ZN5daisy9I2CHandle16TransmitBlockingEtPhtm
 6103              	.LVL452:
  45:../../libs/libDaisy/src/sys/../../../../libs/libDaisy/src/dev/oled_ssd130x.h ****     };
 6104              		.loc 10 45 30 view .LVU1493
 6105              	.LBE1564:
 6106              	.LBE1563:
 6107              	.LBB1565:
 6108              	.LBI1565:
  42:../../libs/libDaisy/src/sys/../../../../libs/libDaisy/src/dev/oled_ssd130x.h ****     {
 6109              		.loc 10 42 10 is_stmt 1 view .LVU1494
 6110              	.LBB1566:
  44:../../libs/libDaisy/src/sys/../../../../libs/libDaisy/src/dev/oled_ssd130x.h ****         i2c_.TransmitBlocking(i2c_address_, buf, 2, 1000);
 6111              		.loc 10 44 9 view .LVU1495
  44:../../libs/libDaisy/src/sys/../../../../libs/libDaisy/src/dev/oled_ssd130x.h ****         i2c_.TransmitBlocking(i2c_address_, buf, 2, 1000);
 6112              		.loc 10 44 36 is_stmt 0 view .LVU1496
 6113 01ce D923     		movs	r3, #217
  45:../../libs/libDaisy/src/sys/../../../../libs/libDaisy/src/dev/oled_ssd130x.h ****     };
 6114              		.loc 10 45 30 view .LVU1497
 6115 01d0 03AA     		add	r2, sp, #12
 6116 01d2 0096     		str	r6, [sp]
 6117 01d4 2046     		mov	r0, r4
 6118 01d6 2179     		ldrb	r1, [r4, #4]	@ zero_extendqisi2
  44:../../libs/libDaisy/src/sys/../../../../libs/libDaisy/src/dev/oled_ssd130x.h ****         i2c_.TransmitBlocking(i2c_address_, buf, 2, 1000);
 6119              		.loc 10 44 36 view .LVU1498
 6120 01d8 8DF80D30 		strb	r3, [sp, #13]
  45:../../libs/libDaisy/src/sys/../../../../libs/libDaisy/src/dev/oled_ssd130x.h ****     };
 6121              		.loc 10 45 9 is_stmt 1 view .LVU1499
  45:../../libs/libDaisy/src/sys/../../../../libs/libDaisy/src/dev/oled_ssd130x.h ****     };
 6122              		.loc 10 45 30 is_stmt 0 view .LVU1500
 6123 01dc 0223     		movs	r3, #2
  44:../../libs/libDaisy/src/sys/../../../../libs/libDaisy/src/dev/oled_ssd130x.h ****         i2c_.TransmitBlocking(i2c_address_, buf, 2, 1000);
ARM GAS  C:\Users\matte\AppData\Local\Temp\cclPkNhc.s 			page 168


 6124              		.loc 10 44 17 view .LVU1501
 6125 01de 8DF80C50 		strb	r5, [sp, #12]
  45:../../libs/libDaisy/src/sys/../../../../libs/libDaisy/src/dev/oled_ssd130x.h ****     };
 6126              		.loc 10 45 30 view .LVU1502
 6127 01e2 FFF7FEFF 		bl	_ZN5daisy9I2CHandle16TransmitBlockingEtPhtm
 6128              	.LVL453:
  45:../../libs/libDaisy/src/sys/../../../../libs/libDaisy/src/dev/oled_ssd130x.h ****     };
 6129              		.loc 10 45 30 view .LVU1503
 6130              	.LBE1566:
 6131              	.LBE1565:
 6132              	.LBB1567:
 6133              	.LBI1567:
  42:../../libs/libDaisy/src/sys/../../../../libs/libDaisy/src/dev/oled_ssd130x.h ****     {
 6134              		.loc 10 42 10 is_stmt 1 view .LVU1504
 6135              	.LBB1568:
  44:../../libs/libDaisy/src/sys/../../../../libs/libDaisy/src/dev/oled_ssd130x.h ****         i2c_.TransmitBlocking(i2c_address_, buf, 2, 1000);
 6136              		.loc 10 44 9 view .LVU1505
  44:../../libs/libDaisy/src/sys/../../../../libs/libDaisy/src/dev/oled_ssd130x.h ****         i2c_.TransmitBlocking(i2c_address_, buf, 2, 1000);
 6137              		.loc 10 44 36 is_stmt 0 view .LVU1506
 6138 01e6 2523     		movs	r3, #37
  45:../../libs/libDaisy/src/sys/../../../../libs/libDaisy/src/dev/oled_ssd130x.h ****     };
 6139              		.loc 10 45 30 view .LVU1507
 6140 01e8 03AA     		add	r2, sp, #12
 6141 01ea 0096     		str	r6, [sp]
 6142 01ec 2046     		mov	r0, r4
 6143 01ee 2179     		ldrb	r1, [r4, #4]	@ zero_extendqisi2
  44:../../libs/libDaisy/src/sys/../../../../libs/libDaisy/src/dev/oled_ssd130x.h ****         i2c_.TransmitBlocking(i2c_address_, buf, 2, 1000);
 6144              		.loc 10 44 36 view .LVU1508
 6145 01f0 8DF80D30 		strb	r3, [sp, #13]
  45:../../libs/libDaisy/src/sys/../../../../libs/libDaisy/src/dev/oled_ssd130x.h ****     };
 6146              		.loc 10 45 9 is_stmt 1 view .LVU1509
  45:../../libs/libDaisy/src/sys/../../../../libs/libDaisy/src/dev/oled_ssd130x.h ****     };
 6147              		.loc 10 45 30 is_stmt 0 view .LVU1510
 6148 01f4 0223     		movs	r3, #2
  44:../../libs/libDaisy/src/sys/../../../../libs/libDaisy/src/dev/oled_ssd130x.h ****         i2c_.TransmitBlocking(i2c_address_, buf, 2, 1000);
 6149              		.loc 10 44 17 view .LVU1511
 6150 01f6 8DF80C50 		strb	r5, [sp, #12]
  45:../../libs/libDaisy/src/sys/../../../../libs/libDaisy/src/dev/oled_ssd130x.h ****     };
 6151              		.loc 10 45 30 view .LVU1512
 6152 01fa FFF7FEFF 		bl	_ZN5daisy9I2CHandle16TransmitBlockingEtPhtm
 6153              	.LVL454:
  45:../../libs/libDaisy/src/sys/../../../../libs/libDaisy/src/dev/oled_ssd130x.h ****     };
 6154              		.loc 10 45 30 view .LVU1513
 6155              	.LBE1568:
 6156              	.LBE1567:
 6157              	.LBB1569:
 6158              	.LBI1569:
  42:../../libs/libDaisy/src/sys/../../../../libs/libDaisy/src/dev/oled_ssd130x.h ****     {
 6159              		.loc 10 42 10 is_stmt 1 view .LVU1514
 6160              	.LBB1570:
  44:../../libs/libDaisy/src/sys/../../../../libs/libDaisy/src/dev/oled_ssd130x.h ****         i2c_.TransmitBlocking(i2c_address_, buf, 2, 1000);
 6161              		.loc 10 44 9 view .LVU1515
  44:../../libs/libDaisy/src/sys/../../../../libs/libDaisy/src/dev/oled_ssd130x.h ****         i2c_.TransmitBlocking(i2c_address_, buf, 2, 1000);
 6162              		.loc 10 44 36 is_stmt 0 view .LVU1516
 6163 01fe DB23     		movs	r3, #219
  45:../../libs/libDaisy/src/sys/../../../../libs/libDaisy/src/dev/oled_ssd130x.h ****     };
 6164              		.loc 10 45 30 view .LVU1517
ARM GAS  C:\Users\matte\AppData\Local\Temp\cclPkNhc.s 			page 169


 6165 0200 03AA     		add	r2, sp, #12
 6166 0202 0096     		str	r6, [sp]
 6167 0204 2046     		mov	r0, r4
 6168 0206 2179     		ldrb	r1, [r4, #4]	@ zero_extendqisi2
  44:../../libs/libDaisy/src/sys/../../../../libs/libDaisy/src/dev/oled_ssd130x.h ****         i2c_.TransmitBlocking(i2c_address_, buf, 2, 1000);
 6169              		.loc 10 44 36 view .LVU1518
 6170 0208 8DF80D30 		strb	r3, [sp, #13]
  45:../../libs/libDaisy/src/sys/../../../../libs/libDaisy/src/dev/oled_ssd130x.h ****     };
 6171              		.loc 10 45 9 is_stmt 1 view .LVU1519
  45:../../libs/libDaisy/src/sys/../../../../libs/libDaisy/src/dev/oled_ssd130x.h ****     };
 6172              		.loc 10 45 30 is_stmt 0 view .LVU1520
 6173 020c 0223     		movs	r3, #2
  44:../../libs/libDaisy/src/sys/../../../../libs/libDaisy/src/dev/oled_ssd130x.h ****         i2c_.TransmitBlocking(i2c_address_, buf, 2, 1000);
 6174              		.loc 10 44 17 view .LVU1521
 6175 020e 8DF80C50 		strb	r5, [sp, #12]
  45:../../libs/libDaisy/src/sys/../../../../libs/libDaisy/src/dev/oled_ssd130x.h ****     };
 6176              		.loc 10 45 30 view .LVU1522
 6177 0212 FFF7FEFF 		bl	_ZN5daisy9I2CHandle16TransmitBlockingEtPhtm
 6178              	.LVL455:
  45:../../libs/libDaisy/src/sys/../../../../libs/libDaisy/src/dev/oled_ssd130x.h ****     };
 6179              		.loc 10 45 30 view .LVU1523
 6180              	.LBE1570:
 6181              	.LBE1569:
 6182              	.LBB1571:
 6183              	.LBI1571:
  42:../../libs/libDaisy/src/sys/../../../../libs/libDaisy/src/dev/oled_ssd130x.h ****     {
 6184              		.loc 10 42 10 is_stmt 1 view .LVU1524
 6185              	.LBB1572:
  44:../../libs/libDaisy/src/sys/../../../../libs/libDaisy/src/dev/oled_ssd130x.h ****         i2c_.TransmitBlocking(i2c_address_, buf, 2, 1000);
 6186              		.loc 10 44 9 view .LVU1525
  44:../../libs/libDaisy/src/sys/../../../../libs/libDaisy/src/dev/oled_ssd130x.h ****         i2c_.TransmitBlocking(i2c_address_, buf, 2, 1000);
 6187              		.loc 10 44 36 is_stmt 0 view .LVU1526
 6188 0216 3423     		movs	r3, #52
  45:../../libs/libDaisy/src/sys/../../../../libs/libDaisy/src/dev/oled_ssd130x.h ****     };
 6189              		.loc 10 45 30 view .LVU1527
 6190 0218 03AA     		add	r2, sp, #12
 6191 021a 0096     		str	r6, [sp]
 6192 021c 2046     		mov	r0, r4
 6193 021e 2179     		ldrb	r1, [r4, #4]	@ zero_extendqisi2
  44:../../libs/libDaisy/src/sys/../../../../libs/libDaisy/src/dev/oled_ssd130x.h ****         i2c_.TransmitBlocking(i2c_address_, buf, 2, 1000);
 6194              		.loc 10 44 36 view .LVU1528
 6195 0220 8DF80D30 		strb	r3, [sp, #13]
  45:../../libs/libDaisy/src/sys/../../../../libs/libDaisy/src/dev/oled_ssd130x.h ****     };
 6196              		.loc 10 45 9 is_stmt 1 view .LVU1529
  45:../../libs/libDaisy/src/sys/../../../../libs/libDaisy/src/dev/oled_ssd130x.h ****     };
 6197              		.loc 10 45 30 is_stmt 0 view .LVU1530
 6198 0224 0223     		movs	r3, #2
  44:../../libs/libDaisy/src/sys/../../../../libs/libDaisy/src/dev/oled_ssd130x.h ****         i2c_.TransmitBlocking(i2c_address_, buf, 2, 1000);
 6199              		.loc 10 44 17 view .LVU1531
 6200 0226 8DF80C50 		strb	r5, [sp, #12]
  45:../../libs/libDaisy/src/sys/../../../../libs/libDaisy/src/dev/oled_ssd130x.h ****     };
 6201              		.loc 10 45 30 view .LVU1532
 6202 022a FFF7FEFF 		bl	_ZN5daisy9I2CHandle16TransmitBlockingEtPhtm
 6203              	.LVL456:
  45:../../libs/libDaisy/src/sys/../../../../libs/libDaisy/src/dev/oled_ssd130x.h ****     };
 6204              		.loc 10 45 30 view .LVU1533
 6205              	.LBE1572:
ARM GAS  C:\Users\matte\AppData\Local\Temp\cclPkNhc.s 			page 170


 6206              	.LBE1571:
 6207              	.LBB1573:
 6208              	.LBI1573:
  42:../../libs/libDaisy/src/sys/../../../../libs/libDaisy/src/dev/oled_ssd130x.h ****     {
 6209              		.loc 10 42 10 is_stmt 1 view .LVU1534
 6210              	.LBB1574:
  44:../../libs/libDaisy/src/sys/../../../../libs/libDaisy/src/dev/oled_ssd130x.h ****         i2c_.TransmitBlocking(i2c_address_, buf, 2, 1000);
 6211              		.loc 10 44 9 view .LVU1535
  44:../../libs/libDaisy/src/sys/../../../../libs/libDaisy/src/dev/oled_ssd130x.h ****         i2c_.TransmitBlocking(i2c_address_, buf, 2, 1000);
 6212              		.loc 10 44 36 is_stmt 0 view .LVU1536
 6213 022e AF21     		movs	r1, #175
  45:../../libs/libDaisy/src/sys/../../../../libs/libDaisy/src/dev/oled_ssd130x.h ****     };
 6214              		.loc 10 45 30 view .LVU1537
 6215 0230 0096     		str	r6, [sp]
 6216 0232 03AA     		add	r2, sp, #12
 6217 0234 0223     		movs	r3, #2
  44:../../libs/libDaisy/src/sys/../../../../libs/libDaisy/src/dev/oled_ssd130x.h ****         i2c_.TransmitBlocking(i2c_address_, buf, 2, 1000);
 6218              		.loc 10 44 36 view .LVU1538
 6219 0236 8DF80D10 		strb	r1, [sp, #13]
  45:../../libs/libDaisy/src/sys/../../../../libs/libDaisy/src/dev/oled_ssd130x.h ****     };
 6220              		.loc 10 45 9 is_stmt 1 view .LVU1539
  45:../../libs/libDaisy/src/sys/../../../../libs/libDaisy/src/dev/oled_ssd130x.h ****     };
 6221              		.loc 10 45 30 is_stmt 0 view .LVU1540
 6222 023a 2046     		mov	r0, r4
 6223 023c 2179     		ldrb	r1, [r4, #4]	@ zero_extendqisi2
  44:../../libs/libDaisy/src/sys/../../../../libs/libDaisy/src/dev/oled_ssd130x.h ****         i2c_.TransmitBlocking(i2c_address_, buf, 2, 1000);
 6224              		.loc 10 44 17 view .LVU1541
 6225 023e 8DF80C50 		strb	r5, [sp, #12]
  45:../../libs/libDaisy/src/sys/../../../../libs/libDaisy/src/dev/oled_ssd130x.h ****     };
 6226              		.loc 10 45 30 view .LVU1542
 6227 0242 FFF7FEFF 		bl	_ZN5daisy9I2CHandle16TransmitBlockingEtPhtm
 6228              	.LVL457:
  45:../../libs/libDaisy/src/sys/../../../../libs/libDaisy/src/dev/oled_ssd130x.h ****     };
 6229              		.loc 10 45 30 view .LVU1543
 6230              	.LBE1574:
 6231              	.LBE1573:
 335:../../libs/libDaisy/src/sys/../../../../libs/libDaisy/src/dev/oled_ssd130x.h **** 
 6232              		.loc 10 335 5 view .LVU1544
 6233 0246 04B0     		add	sp, sp, #16
 6234              		.cfi_def_cfa_offset 32
 6235              		@ sp needed
 6236 0248 BDE87040 		pop	{r4, r5, r6, lr}
 6237              		.cfi_restore 14
 6238              		.cfi_restore 6
 6239              		.cfi_restore 5
 6240              		.cfi_restore 4
 6241              		.cfi_def_cfa_offset 16
 6242              	.LVL458:
 335:../../libs/libDaisy/src/sys/../../../../libs/libDaisy/src/dev/oled_ssd130x.h **** 
 6243              		.loc 10 335 5 view .LVU1545
 6244 024c 04B0     		add	sp, sp, #16
 6245              		.cfi_def_cfa_offset 0
 6246 024e 7047     		bx	lr
 6247              		.cfi_endproc
 6248              	.LFE5301:
 6250              		.section	.text.startup.main,"ax",%progbits
 6251              		.align	1
ARM GAS  C:\Users\matte\AppData\Local\Temp\cclPkNhc.s 			page 171


 6252              		.p2align 2,,3
 6253              		.global	main
 6254              		.syntax unified
 6255              		.thumb
 6256              		.thumb_func
 6257              		.fpu fpv5-d16
 6259              	main:
 6260              	.LFB4855:
  46:main.cpp      **** 
  47:main.cpp      **** int main (){
 6261              		.loc 11 47 12 is_stmt 1 view -0
 6262              		.cfi_startproc
 6263              		@ args = 0, pretend = 0, frame = 24
 6264              		@ frame_needed = 0, uses_anonymous_args = 0
  48:main.cpp      **** 
  49:main.cpp      ****     hw.Init();    
 6265              		.loc 11 49 5 view .LVU1547
  47:main.cpp      **** 
 6266              		.loc 11 47 12 is_stmt 0 view .LVU1548
 6267 0000 70B5     		push	{r4, r5, r6, lr}
 6268              		.cfi_def_cfa_offset 16
 6269              		.cfi_offset 4, -16
 6270              		.cfi_offset 5, -12
 6271              		.cfi_offset 6, -8
 6272              		.cfi_offset 14, -4
 6273              		.loc 11 49 12 view .LVU1549
 6274 0002 0021     		movs	r1, #0
  47:main.cpp      **** 
 6275              		.loc 11 47 12 view .LVU1550
 6276 0004 8AB0     		sub	sp, sp, #40
 6277              		.cfi_def_cfa_offset 56
 6278              		.loc 11 49 12 view .LVU1551
 6279 0006 3348     		ldr	r0, .L417
 6280              	.LBB1595:
 6281              	.LBB1596:
  25:../../libs/DaisySP/Source/Synthesis/oscillator.h ****     /** Choices for output waveforms, POLYBLEP are appropriately labeled. Others are naive forms.
  26:../../libs/DaisySP/Source/Synthesis/oscillator.h ****     */
  27:../../libs/DaisySP/Source/Synthesis/oscillator.h ****     enum
  28:../../libs/DaisySP/Source/Synthesis/oscillator.h ****     {
  29:../../libs/DaisySP/Source/Synthesis/oscillator.h ****         WAVE_SIN,
  30:../../libs/DaisySP/Source/Synthesis/oscillator.h ****         WAVE_TRI,
  31:../../libs/DaisySP/Source/Synthesis/oscillator.h ****         WAVE_SAW,
  32:../../libs/DaisySP/Source/Synthesis/oscillator.h ****         WAVE_RAMP,
  33:../../libs/DaisySP/Source/Synthesis/oscillator.h ****         WAVE_SQUARE,
  34:../../libs/DaisySP/Source/Synthesis/oscillator.h ****         WAVE_POLYBLEP_TRI,
  35:../../libs/DaisySP/Source/Synthesis/oscillator.h ****         WAVE_POLYBLEP_SAW,
  36:../../libs/DaisySP/Source/Synthesis/oscillator.h ****         WAVE_POLYBLEP_SQUARE,
  37:../../libs/DaisySP/Source/Synthesis/oscillator.h ****         WAVE_LAST,
  38:../../libs/DaisySP/Source/Synthesis/oscillator.h ****     };
  39:../../libs/DaisySP/Source/Synthesis/oscillator.h **** 
  40:../../libs/DaisySP/Source/Synthesis/oscillator.h **** 
  41:../../libs/DaisySP/Source/Synthesis/oscillator.h ****     /** Initializes the Oscillator
  42:../../libs/DaisySP/Source/Synthesis/oscillator.h **** 
  43:../../libs/DaisySP/Source/Synthesis/oscillator.h ****         \param sample_rate - sample rate of the audio engine being run, and the frequency that the 
  44:../../libs/DaisySP/Source/Synthesis/oscillator.h **** 
  45:../../libs/DaisySP/Source/Synthesis/oscillator.h ****         Defaults:
  46:../../libs/DaisySP/Source/Synthesis/oscillator.h ****         - freq_ = 100 Hz
ARM GAS  C:\Users\matte\AppData\Local\Temp\cclPkNhc.s 			page 172


  47:../../libs/DaisySP/Source/Synthesis/oscillator.h ****         - amp_ = 0.5
  48:../../libs/DaisySP/Source/Synthesis/oscillator.h ****         - waveform_ = sine wave.
  49:../../libs/DaisySP/Source/Synthesis/oscillator.h ****     */
  50:../../libs/DaisySP/Source/Synthesis/oscillator.h ****     void Init(float sample_rate)
  51:../../libs/DaisySP/Source/Synthesis/oscillator.h ****     {
  52:../../libs/DaisySP/Source/Synthesis/oscillator.h ****         sr_        = sample_rate;
  53:../../libs/DaisySP/Source/Synthesis/oscillator.h ****         sr_recip_  = 1.0f / sample_rate;
  54:../../libs/DaisySP/Source/Synthesis/oscillator.h ****         freq_      = 100.0f;
  55:../../libs/DaisySP/Source/Synthesis/oscillator.h ****         amp_       = 0.5f;
 6282              		.loc 7 55 20 view .LVU1552
 6283 0008 4FF07C54 		mov	r4, #1056964608
  52:../../libs/DaisySP/Source/Synthesis/oscillator.h ****         sr_recip_  = 1.0f / sample_rate;
 6284              		.loc 7 52 20 view .LVU1553
 6285 000c 324D     		ldr	r5, .L417+4
 6286              	.LBE1596:
 6287              	.LBE1595:
 6288              		.loc 11 49 12 view .LVU1554
 6289 000e FFF7FEFF 		bl	_ZN5daisy9DaisySeed4InitEb
 6290              	.LVL459:
  50:main.cpp      ****     hw.SetAudioBlockSize(16);
 6291              		.loc 11 50 5 is_stmt 1 view .LVU1555
 6292              		.loc 11 50 25 is_stmt 0 view .LVU1556
 6293 0012 1021     		movs	r1, #16
 6294 0014 2F48     		ldr	r0, .L417
 6295 0016 FFF7FEFF 		bl	_ZN5daisy9DaisySeed17SetAudioBlockSizeEj
 6296              	.LVL460:
  51:main.cpp      ****     osc.Init(48000);
 6297              		.loc 11 51 5 is_stmt 1 view .LVU1557
 6298              	.LBB1601:
 6299              	.LBI1595:
  50:../../libs/DaisySP/Source/Synthesis/oscillator.h ****     {
 6300              		.loc 7 50 10 view .LVU1558
 6301              	.LBB1597:
  52:../../libs/DaisySP/Source/Synthesis/oscillator.h ****         sr_recip_  = 1.0f / sample_rate;
 6302              		.loc 7 52 9 view .LVU1559
  52:../../libs/DaisySP/Source/Synthesis/oscillator.h ****         sr_recip_  = 1.0f / sample_rate;
 6303              		.loc 7 52 20 is_stmt 0 view .LVU1560
 6304 001a 3049     		ldr	r1, .L417+8
  53:../../libs/DaisySP/Source/Synthesis/oscillator.h ****         freq_      = 100.0f;
 6305              		.loc 7 53 20 view .LVU1561
 6306 001c 304A     		ldr	r2, .L417+12
  56:../../libs/DaisySP/Source/Synthesis/oscillator.h ****         pw_        = 0.5f;
  57:../../libs/DaisySP/Source/Synthesis/oscillator.h ****         phase_     = 0.0f;
 6307              		.loc 7 57 20 view .LVU1562
 6308 001e 0023     		movs	r3, #0
  54:../../libs/DaisySP/Source/Synthesis/oscillator.h ****         amp_       = 0.5f;
 6309              		.loc 7 54 20 view .LVU1563
 6310 0020 9FED300A 		vldr.32	s0, .L417+16
  58:../../libs/DaisySP/Source/Synthesis/oscillator.h ****         phase_inc_ = CalcPhaseInc(freq_);
 6311              		.loc 7 58 34 view .LVU1564
 6312 0024 2846     		mov	r0, r5
  52:../../libs/DaisySP/Source/Synthesis/oscillator.h ****         sr_recip_  = 1.0f / sample_rate;
 6313              		.loc 7 52 20 view .LVU1565
 6314 0026 2961     		str	r1, [r5, #16]	@ float
  53:../../libs/DaisySP/Source/Synthesis/oscillator.h ****         freq_      = 100.0f;
 6315              		.loc 7 53 9 is_stmt 1 view .LVU1566
  59:../../libs/DaisySP/Source/Synthesis/oscillator.h ****         waveform_  = WAVE_SIN;
ARM GAS  C:\Users\matte\AppData\Local\Temp\cclPkNhc.s 			page 173


 6316              		.loc 7 59 20 is_stmt 0 view .LVU1567
 6317 0028 0026     		movs	r6, #0
  53:../../libs/DaisySP/Source/Synthesis/oscillator.h ****         freq_      = 100.0f;
 6318              		.loc 7 53 20 view .LVU1568
 6319 002a 6A61     		str	r2, [r5, #20]	@ float
  54:../../libs/DaisySP/Source/Synthesis/oscillator.h ****         amp_       = 0.5f;
 6320              		.loc 7 54 9 is_stmt 1 view .LVU1569
  55:../../libs/DaisySP/Source/Synthesis/oscillator.h ****         pw_        = 0.5f;
 6321              		.loc 7 55 20 is_stmt 0 view .LVU1570
 6322 002c 6C60     		str	r4, [r5, #4]	@ float
  56:../../libs/DaisySP/Source/Synthesis/oscillator.h ****         phase_     = 0.0f;
 6323              		.loc 7 56 20 view .LVU1571
 6324 002e EC60     		str	r4, [r5, #12]	@ float
  57:../../libs/DaisySP/Source/Synthesis/oscillator.h ****         phase_inc_ = CalcPhaseInc(freq_);
 6325              		.loc 7 57 20 view .LVU1572
 6326 0030 AB61     		str	r3, [r5, #24]	@ float
  54:../../libs/DaisySP/Source/Synthesis/oscillator.h ****         amp_       = 0.5f;
 6327              		.loc 7 54 20 view .LVU1573
 6328 0032 85ED020A 		vstr.32	s0, [r5, #8]
  55:../../libs/DaisySP/Source/Synthesis/oscillator.h ****         pw_        = 0.5f;
 6329              		.loc 7 55 9 is_stmt 1 view .LVU1574
  56:../../libs/DaisySP/Source/Synthesis/oscillator.h ****         phase_     = 0.0f;
 6330              		.loc 7 56 9 view .LVU1575
  57:../../libs/DaisySP/Source/Synthesis/oscillator.h ****         phase_inc_ = CalcPhaseInc(freq_);
 6331              		.loc 7 57 9 view .LVU1576
  58:../../libs/DaisySP/Source/Synthesis/oscillator.h ****         waveform_  = WAVE_SIN;
 6332              		.loc 7 58 9 view .LVU1577
  58:../../libs/DaisySP/Source/Synthesis/oscillator.h ****         waveform_  = WAVE_SIN;
 6333              		.loc 7 58 34 is_stmt 0 view .LVU1578
 6334 0036 FFF7FEFF 		bl	_ZN7daisysp10Oscillator12CalcPhaseIncEf
 6335              	.LVL461:
 6336              	.LBE1597:
 6337              	.LBE1601:
 6338              	.LBB1602:
 6339              	.LBB1603:
  60:../../libs/DaisySP/Source/Synthesis/oscillator.h ****         eoc_       = true;
  61:../../libs/DaisySP/Source/Synthesis/oscillator.h ****         eor_       = true;
  62:../../libs/DaisySP/Source/Synthesis/oscillator.h ****     }
  63:../../libs/DaisySP/Source/Synthesis/oscillator.h **** 
  64:../../libs/DaisySP/Source/Synthesis/oscillator.h **** 
  65:../../libs/DaisySP/Source/Synthesis/oscillator.h ****     /** Changes the frequency of the Oscillator, and recalculates phase increment.
  66:../../libs/DaisySP/Source/Synthesis/oscillator.h ****     */
  67:../../libs/DaisySP/Source/Synthesis/oscillator.h ****     inline void SetFreq(const float f)
  68:../../libs/DaisySP/Source/Synthesis/oscillator.h ****     {
  69:../../libs/DaisySP/Source/Synthesis/oscillator.h ****         freq_      = f;
 6340              		.loc 7 69 20 view .LVU1579
 6341 003a DFED2B7A 		vldr.32	s15, .L417+20
 6342              	.LBE1603:
 6343              	.LBE1602:
 6344              	.LBB1608:
 6345              	.LBB1598:
  61:../../libs/DaisySP/Source/Synthesis/oscillator.h ****     }
 6346              		.loc 7 61 20 view .LVU1580
 6347 003e 40F20113 		movw	r3, #257
 6348              	.LBE1598:
 6349              	.LBE1608:
 6350              	.LBB1609:
ARM GAS  C:\Users\matte\AppData\Local\Temp\cclPkNhc.s 			page 174


 6351              	.LBB1604:
  70:../../libs/DaisySP/Source/Synthesis/oscillator.h ****         phase_inc_ = CalcPhaseInc(f);
 6352              		.loc 7 70 34 view .LVU1581
 6353 0042 2846     		mov	r0, r5
 6354              	.LBE1604:
 6355              	.LBE1609:
 6356              	.LBB1610:
 6357              	.LBB1599:
  58:../../libs/DaisySP/Source/Synthesis/oscillator.h ****         waveform_  = WAVE_SIN;
 6358              		.loc 7 58 20 view .LVU1582
 6359 0044 85ED070A 		vstr.32	s0, [r5, #28]
  59:../../libs/DaisySP/Source/Synthesis/oscillator.h ****         eoc_       = true;
 6360              		.loc 7 59 9 is_stmt 1 view .LVU1583
 6361              	.LBE1599:
 6362              	.LBE1610:
 6363              	.LBB1611:
 6364              	.LBB1605:
 6365              		.loc 7 70 34 is_stmt 0 view .LVU1584
 6366 0048 B0EE670A 		vmov.f32	s0, s15
  69:../../libs/DaisySP/Source/Synthesis/oscillator.h ****         phase_inc_ = CalcPhaseInc(f);
 6367              		.loc 7 69 20 view .LVU1585
 6368 004c C5ED027A 		vstr.32	s15, [r5, #8]
 6369              	.LBE1605:
 6370              	.LBE1611:
 6371              	.LBB1612:
 6372              	.LBB1600:
  61:../../libs/DaisySP/Source/Synthesis/oscillator.h ****     }
 6373              		.loc 7 61 20 view .LVU1586
 6374 0050 2B85     		strh	r3, [r5, #40]	@ movhi
  59:../../libs/DaisySP/Source/Synthesis/oscillator.h ****         eoc_       = true;
 6375              		.loc 7 59 20 view .LVU1587
 6376 0052 2E70     		strb	r6, [r5]
  60:../../libs/DaisySP/Source/Synthesis/oscillator.h ****         eor_       = true;
 6377              		.loc 7 60 9 is_stmt 1 view .LVU1588
  61:../../libs/DaisySP/Source/Synthesis/oscillator.h ****     }
 6378              		.loc 7 61 9 view .LVU1589
 6379              	.LVL462:
  61:../../libs/DaisySP/Source/Synthesis/oscillator.h ****     }
 6380              		.loc 7 61 9 is_stmt 0 view .LVU1590
 6381              	.LBE1600:
 6382              	.LBE1612:
  52:main.cpp      ****     int oscFreq = 440;
 6383              		.loc 11 52 5 is_stmt 1 view .LVU1591
  53:main.cpp      ****     osc.SetFreq(oscFreq);
 6384              		.loc 11 53 5 view .LVU1592
 6385              	.LBB1613:
 6386              	.LBI1602:
  67:../../libs/DaisySP/Source/Synthesis/oscillator.h ****     {
 6387              		.loc 7 67 17 view .LVU1593
 6388              	.LBB1606:
  69:../../libs/DaisySP/Source/Synthesis/oscillator.h ****         phase_inc_ = CalcPhaseInc(f);
 6389              		.loc 7 69 9 view .LVU1594
 6390              		.loc 7 70 9 view .LVU1595
 6391              		.loc 7 70 34 is_stmt 0 view .LVU1596
 6392 0054 FFF7FEFF 		bl	_ZN7daisysp10Oscillator12CalcPhaseIncEf
 6393              	.LVL463:
 6394 0058 1022     		movs	r2, #16
ARM GAS  C:\Users\matte\AppData\Local\Temp\cclPkNhc.s 			page 175


 6395 005a 244B     		ldr	r3, .L417+24
 6396 005c 0796     		str	r6, [sp, #28]
 6397 005e 8DF82020 		strb	r2, [sp, #32]
 6398 0062 0222     		movs	r2, #2
 6399 0064 0593     		str	r3, [sp, #20]
 6400 0066 3C23     		movs	r3, #60
 6401 0068 0692     		str	r2, [sp, #24]
 6402              	.LBE1606:
 6403              	.LBE1613:
 6404              	.LBB1614:
 6405              	.LBB1615:
  25:../../libs/libDaisy/src/sys/../../../../libs/libDaisy/src/hid/disp/oled_display.h **** 
 6406              		.loc 8 25 44 view .LVU1597
 6407 006a 0AAA     		add	r2, sp, #40
 6408 006c 8DF82430 		strb	r3, [sp, #36]
 6409 0070 04AB     		add	r3, sp, #16
 6410 0072 0496     		str	r6, [sp, #16]
 6411              	.LBE1615:
 6412              	.LBE1614:
 6413              	.LBB1617:
 6414              	.LBB1607:
 6415              		.loc 7 70 20 view .LVU1598
 6416 0074 85ED070A 		vstr.32	s0, [r5, #28]
 6417              	.LVL464:
 6418              		.loc 7 70 20 view .LVU1599
 6419              	.LBE1607:
 6420              	.LBE1617:
  54:main.cpp      ****     osc.SetAmp(0.5f);
 6421              		.loc 11 54 5 is_stmt 1 view .LVU1600
 6422              	.LBB1618:
 6423              	.LBI1618:
  71:../../libs/DaisySP/Source/Synthesis/oscillator.h ****     }
  72:../../libs/DaisySP/Source/Synthesis/oscillator.h **** 
  73:../../libs/DaisySP/Source/Synthesis/oscillator.h **** 
  74:../../libs/DaisySP/Source/Synthesis/oscillator.h ****     /** Sets the amplitude of the waveform.
  75:../../libs/DaisySP/Source/Synthesis/oscillator.h ****     */
  76:../../libs/DaisySP/Source/Synthesis/oscillator.h ****     inline void SetAmp(const float a) { amp_ = a; }
 6424              		.loc 7 76 17 view .LVU1601
 6425              	.LBB1619:
 6426              		.loc 7 76 41 view .LVU1602
 6427              		.loc 7 76 46 is_stmt 0 view .LVU1603
 6428 0078 6C60     		str	r4, [r5, #4]	@ float
 6429              	.LVL465:
 6430              		.loc 7 76 46 view .LVU1604
 6431              	.LBE1619:
 6432              	.LBE1618:
  55:main.cpp      ****     MyOledDisplay::Config disp_cfg;
 6433              		.loc 11 55 5 is_stmt 1 view .LVU1605
 6434              	.LBB1620:
 6435              	.LBI1620:
  20:../../libs/libDaisy/src/sys/../../../../libs/libDaisy/src/hid/disp/oled_display.h ****     {
 6436              		.loc 8 20 12 view .LVU1606
 6437              	.LBB1621:
 6438              	.LBI1621:
 236:../../libs/libDaisy/src/sys/../../../../libs/libDaisy/src/dev/oled_ssd130x.h ****     {
 6439              		.loc 10 236 12 view .LVU1607
 6440              	.LBB1622:
ARM GAS  C:\Users\matte\AppData\Local\Temp\cclPkNhc.s 			page 176


 6441              	.LBI1622:
  20:../../libs/libDaisy/src/sys/../../../../libs/libDaisy/src/dev/oled_ssd130x.h ****         {
 6442              		.loc 10 20 9 view .LVU1608
 6443              	.LBB1623:
 6444              	.LBI1623:
 6445              		.file 14 "../../libs/libDaisy/src/per/i2c.h"
   1:../../libs/libDaisy/src/per/i2c.h **** #pragma once
   2:../../libs/libDaisy/src/per/i2c.h **** #include "util/hal_map.h"
   3:../../libs/libDaisy/src/per/i2c.h **** #include "daisy_core.h"
   4:../../libs/libDaisy/src/per/i2c.h **** 
   5:../../libs/libDaisy/src/per/i2c.h **** namespace daisy
   6:../../libs/libDaisy/src/per/i2c.h **** {
   7:../../libs/libDaisy/src/per/i2c.h **** /** A handle for interacting with an I2C peripheral. This is a dumb
   8:../../libs/libDaisy/src/per/i2c.h ****  *  gateway that internally points to one of the four I2C peripherals
   9:../../libs/libDaisy/src/per/i2c.h ****  *  after it was initialised. It can then be copied and passed around.
  10:../../libs/libDaisy/src/per/i2c.h ****  *  Use an I2CHandle like this:
  11:../../libs/libDaisy/src/per/i2c.h ****  *  
  12:../../libs/libDaisy/src/per/i2c.h ****  *      // setup the configuration
  13:../../libs/libDaisy/src/per/i2c.h ****  *      I2CHandle::Config i2c_conf;
  14:../../libs/libDaisy/src/per/i2c.h ****  *      i2c_conf.periph = I2CHandle::Config::Peripheral::I2C_1;
  15:../../libs/libDaisy/src/per/i2c.h ****  *      i2c_conf.speed  = I2CHandle::Config::Speed::I2C_400KHZ;
  16:../../libs/libDaisy/src/per/i2c.h ****  *      i2c_conf.mode   = I2CHandle::Config::Mode::Master;
  17:../../libs/libDaisy/src/per/i2c.h ****  *      i2c_conf.pin_config.scl  = {DSY_GPIOB, 8};
  18:../../libs/libDaisy/src/per/i2c.h ****  *      i2c_conf.pin_config.sda  = {DSY_GPIOB, 9};
  19:../../libs/libDaisy/src/per/i2c.h ****  *      // initialise the peripheral
  20:../../libs/libDaisy/src/per/i2c.h ****  *      I2CHandle i2c;
  21:../../libs/libDaisy/src/per/i2c.h ****  *      i2c.Init(i2c_conf);
  22:../../libs/libDaisy/src/per/i2c.h ****  *      // now i2c points to the corresponding peripheral and can be used.
  23:../../libs/libDaisy/src/per/i2c.h ****  *      i2c.TransmitBlocking( ... );
  24:../../libs/libDaisy/src/per/i2c.h ****  */
  25:../../libs/libDaisy/src/per/i2c.h **** class I2CHandle
  26:../../libs/libDaisy/src/per/i2c.h **** {
  27:../../libs/libDaisy/src/per/i2c.h ****   public:
  28:../../libs/libDaisy/src/per/i2c.h ****     /** Contains settings for initialising an I2C interface. */
  29:../../libs/libDaisy/src/per/i2c.h ****     struct Config
 6446              		.loc 14 29 12 view .LVU1609
 6447              	.LBB1624:
 6448              	.LBI1624:
  30:../../libs/libDaisy/src/per/i2c.h ****     {
  31:../../libs/libDaisy/src/per/i2c.h ****         /** Specifies whether the interface will operate in master or slave mode. */
  32:../../libs/libDaisy/src/per/i2c.h ****         enum class Mode
  33:../../libs/libDaisy/src/per/i2c.h ****         {
  34:../../libs/libDaisy/src/per/i2c.h ****             I2C_MASTER,
  35:../../libs/libDaisy/src/per/i2c.h ****             I2C_SLAVE,
  36:../../libs/libDaisy/src/per/i2c.h ****         };
  37:../../libs/libDaisy/src/per/i2c.h **** 
  38:../../libs/libDaisy/src/per/i2c.h ****         /** Specifices the internal peripheral to use (these are mapped to different pins on the ha
  39:../../libs/libDaisy/src/per/i2c.h ****         enum class Peripheral
  40:../../libs/libDaisy/src/per/i2c.h ****         {
  41:../../libs/libDaisy/src/per/i2c.h ****             I2C_1 = 0, /**< & */
  42:../../libs/libDaisy/src/per/i2c.h ****             I2C_2,     /**< & */
  43:../../libs/libDaisy/src/per/i2c.h ****             I2C_3,     /**< & */
  44:../../libs/libDaisy/src/per/i2c.h ****             I2C_4,     /**< & */
  45:../../libs/libDaisy/src/per/i2c.h ****         };
  46:../../libs/libDaisy/src/per/i2c.h **** 
  47:../../libs/libDaisy/src/per/i2c.h ****         /** Rate at which the clock/data will be sent/received. The device being used will have max
  48:../../libs/libDaisy/src/per/i2c.h ****          *  1MHZ Mode is currently 886kHz
ARM GAS  C:\Users\matte\AppData\Local\Temp\cclPkNhc.s 			page 177


  49:../../libs/libDaisy/src/per/i2c.h ****          */
  50:../../libs/libDaisy/src/per/i2c.h ****         enum class Speed
  51:../../libs/libDaisy/src/per/i2c.h ****         {
  52:../../libs/libDaisy/src/per/i2c.h ****             I2C_100KHZ, /**< & */
  53:../../libs/libDaisy/src/per/i2c.h ****             I2C_400KHZ, /**< & */
  54:../../libs/libDaisy/src/per/i2c.h ****             I2C_1MHZ,   /**< & */
  55:../../libs/libDaisy/src/per/i2c.h ****         };
  56:../../libs/libDaisy/src/per/i2c.h **** 
  57:../../libs/libDaisy/src/per/i2c.h ****         Peripheral periph; /**< & */
  58:../../libs/libDaisy/src/per/i2c.h ****         struct
  59:../../libs/libDaisy/src/per/i2c.h ****         {
 6449              		.loc 14 59 9 view .LVU1610
 6450              	.LBB1625:
 6451              	.LBI1625:
 6452              		.file 15 "../../libs/libDaisy/src/daisy_core.h"
   1:../../libs/libDaisy/src/daisy_core.h **** #pragma once
   2:../../libs/libDaisy/src/daisy_core.h **** #ifndef DSY_CORE_HW_H
   3:../../libs/libDaisy/src/daisy_core.h **** #define DSY_CORE_HW_H /**< & */
   4:../../libs/libDaisy/src/daisy_core.h **** #include <stdint.h>
   5:../../libs/libDaisy/src/daisy_core.h **** #include <stdlib.h>
   6:../../libs/libDaisy/src/daisy_core.h **** 
   7:../../libs/libDaisy/src/daisy_core.h **** #if defined(_MSC_VER)
   8:../../libs/libDaisy/src/daisy_core.h **** #define FORCE_INLINE __forceinline /**< & */
   9:../../libs/libDaisy/src/daisy_core.h **** #elif defined(__clang__)
  10:../../libs/libDaisy/src/daisy_core.h **** #define FORCE_INLINE inline __attribute__((always_inline)) /**< & */
  11:../../libs/libDaisy/src/daisy_core.h **** #pragma clang diagnostic ignored "-Wduplicate-decl-specifier"
  12:../../libs/libDaisy/src/daisy_core.h **** #elif defined(__GNUC__)
  13:../../libs/libDaisy/src/daisy_core.h **** #define FORCE_INLINE inline __attribute__((always_inline)) /**< & */
  14:../../libs/libDaisy/src/daisy_core.h **** #else
  15:../../libs/libDaisy/src/daisy_core.h **** #error unknown compiler
  16:../../libs/libDaisy/src/daisy_core.h **** #endif
  17:../../libs/libDaisy/src/daisy_core.h **** 
  18:../../libs/libDaisy/src/daisy_core.h **** /** @addtogroup utility
  19:../../libs/libDaisy/src/daisy_core.h ****     @{
  20:../../libs/libDaisy/src/daisy_core.h **** */
  21:../../libs/libDaisy/src/daisy_core.h **** 
  22:../../libs/libDaisy/src/daisy_core.h **** /** Macro for area of memory that is configured as cacheless
  23:../../libs/libDaisy/src/daisy_core.h **** This should be used primarily for DMA buffers, and the like.
  24:../../libs/libDaisy/src/daisy_core.h **** */
  25:../../libs/libDaisy/src/daisy_core.h **** #define DMA_BUFFER_MEM_SECTION __attribute__((section(".sram1_bss")))
  26:../../libs/libDaisy/src/daisy_core.h **** /** 
  27:../../libs/libDaisy/src/daisy_core.h **** THE DTCM RAM section is also non-cached. However, is not suitable 
  28:../../libs/libDaisy/src/daisy_core.h **** for DMA transfers. Performance is on par with internal SRAM w/ 
  29:../../libs/libDaisy/src/daisy_core.h **** cache enabled.
  30:../../libs/libDaisy/src/daisy_core.h **** */
  31:../../libs/libDaisy/src/daisy_core.h **** #define DTCM_MEM_SECTION __attribute__((section(".dtcmram_bss")))
  32:../../libs/libDaisy/src/daisy_core.h **** 
  33:../../libs/libDaisy/src/daisy_core.h **** #define FBIPMAX 0.999985f             /**< close to 1.0f-LSB at 16 bit */
  34:../../libs/libDaisy/src/daisy_core.h **** #define FBIPMIN (-FBIPMAX)            /**< - (1 - LSB) */
  35:../../libs/libDaisy/src/daisy_core.h **** #define U82F_SCALE 0.0078740f         /**< 1 / 127 */
  36:../../libs/libDaisy/src/daisy_core.h **** #define F2U8_SCALE 127.0f             /**< 128 - 1 */
  37:../../libs/libDaisy/src/daisy_core.h **** #define S82F_SCALE 0.0078125f         /**< 1 / (2**7) */
  38:../../libs/libDaisy/src/daisy_core.h **** #define F2S8_SCALE 127.0f             /**< (2 ** 7) - 1 */
  39:../../libs/libDaisy/src/daisy_core.h **** #define S162F_SCALE 3.0517578125e-05f /**< 1 / (2** 15) */
  40:../../libs/libDaisy/src/daisy_core.h **** #define F2S16_SCALE 32767.0f          /**< (2 ** 15) - 1 */
  41:../../libs/libDaisy/src/daisy_core.h **** #define F2S24_SCALE 8388608.0f        /**< 2 ** 23 */
  42:../../libs/libDaisy/src/daisy_core.h **** #define S242F_SCALE 1.192092896e-07f  /**< 1 / (2 ** 23) */
ARM GAS  C:\Users\matte\AppData\Local\Temp\cclPkNhc.s 			page 178


  43:../../libs/libDaisy/src/daisy_core.h **** #define S24SIGN 0x800000              /**< 2 ** 23 */
  44:../../libs/libDaisy/src/daisy_core.h **** #define S322F_SCALE 4.6566129e-10f    /**< 1 / (2** 31) */
  45:../../libs/libDaisy/src/daisy_core.h **** #define F2S32_SCALE 2147483647.f      /**< (2 ** 31) - 1 */
  46:../../libs/libDaisy/src/daisy_core.h **** 
  47:../../libs/libDaisy/src/daisy_core.h **** 
  48:../../libs/libDaisy/src/daisy_core.h **** /** shorthand macro for simplifying the reading of the left 
  49:../../libs/libDaisy/src/daisy_core.h ****  *  channel of a non-interleaved output buffer named out */
  50:../../libs/libDaisy/src/daisy_core.h **** #define OUT_L out[0]
  51:../../libs/libDaisy/src/daisy_core.h **** 
  52:../../libs/libDaisy/src/daisy_core.h **** /** shorthand macro for simplifying the reading of the right 
  53:../../libs/libDaisy/src/daisy_core.h ****  *  channel of a non-interleaved output buffer named out */
  54:../../libs/libDaisy/src/daisy_core.h **** #define OUT_R out[1]
  55:../../libs/libDaisy/src/daisy_core.h **** 
  56:../../libs/libDaisy/src/daisy_core.h **** /** shorthand macro for simplifying the reading of the left 
  57:../../libs/libDaisy/src/daisy_core.h ****  *  channel of a non-interleaved input buffer named in */
  58:../../libs/libDaisy/src/daisy_core.h **** #define IN_L in[0]
  59:../../libs/libDaisy/src/daisy_core.h **** 
  60:../../libs/libDaisy/src/daisy_core.h **** /** shorthand macro for simplifying the reading of the right 
  61:../../libs/libDaisy/src/daisy_core.h ****  *  channel of a non-interleaved input buffer named in */
  62:../../libs/libDaisy/src/daisy_core.h **** #define IN_R in[1]
  63:../../libs/libDaisy/src/daisy_core.h **** 
  64:../../libs/libDaisy/src/daisy_core.h **** /** 
  65:../../libs/libDaisy/src/daisy_core.h ****     Computes cube.
  66:../../libs/libDaisy/src/daisy_core.h ****     \param x Number to be cubed
  67:../../libs/libDaisy/src/daisy_core.h ****     \return x ^ 3
  68:../../libs/libDaisy/src/daisy_core.h **** */
  69:../../libs/libDaisy/src/daisy_core.h **** FORCE_INLINE float cube(float x)
  70:../../libs/libDaisy/src/daisy_core.h **** {
  71:../../libs/libDaisy/src/daisy_core.h ****     return (x * x) * x;
  72:../../libs/libDaisy/src/daisy_core.h **** }
  73:../../libs/libDaisy/src/daisy_core.h **** 
  74:../../libs/libDaisy/src/daisy_core.h **** /** 
  75:../../libs/libDaisy/src/daisy_core.h ****     Converts unsigned 8-bit to float
  76:../../libs/libDaisy/src/daisy_core.h ****     \param x Number to be scaled.
  77:../../libs/libDaisy/src/daisy_core.h ****     \return Scaled number.
  78:../../libs/libDaisy/src/daisy_core.h **** */
  79:../../libs/libDaisy/src/daisy_core.h **** FORCE_INLINE float u82f(uint8_t x)
  80:../../libs/libDaisy/src/daisy_core.h **** {
  81:../../libs/libDaisy/src/daisy_core.h ****     return ((float)x - 127.f) * U82F_SCALE;
  82:../../libs/libDaisy/src/daisy_core.h **** }
  83:../../libs/libDaisy/src/daisy_core.h **** 
  84:../../libs/libDaisy/src/daisy_core.h **** /**
  85:../../libs/libDaisy/src/daisy_core.h ****     Converts float to unsigned 8-bit
  86:../../libs/libDaisy/src/daisy_core.h **** */
  87:../../libs/libDaisy/src/daisy_core.h **** FORCE_INLINE uint8_t f2u8(float x)
  88:../../libs/libDaisy/src/daisy_core.h **** {
  89:../../libs/libDaisy/src/daisy_core.h ****     x = x <= FBIPMIN ? FBIPMIN : x;
  90:../../libs/libDaisy/src/daisy_core.h ****     x = x >= FBIPMAX ? FBIPMAX : x;
  91:../../libs/libDaisy/src/daisy_core.h ****     return (uint8_t)((x * F2U8_SCALE) + F2U8_SCALE);
  92:../../libs/libDaisy/src/daisy_core.h **** }
  93:../../libs/libDaisy/src/daisy_core.h **** 
  94:../../libs/libDaisy/src/daisy_core.h **** 
  95:../../libs/libDaisy/src/daisy_core.h **** /** 
  96:../../libs/libDaisy/src/daisy_core.h ****     Converts Signed 8-bit to float
  97:../../libs/libDaisy/src/daisy_core.h ****     \param x Number to be scaled.
  98:../../libs/libDaisy/src/daisy_core.h ****     \return Scaled number.
  99:../../libs/libDaisy/src/daisy_core.h **** */
ARM GAS  C:\Users\matte\AppData\Local\Temp\cclPkNhc.s 			page 179


 100:../../libs/libDaisy/src/daisy_core.h **** FORCE_INLINE float s82f(int8_t x)
 101:../../libs/libDaisy/src/daisy_core.h **** {
 102:../../libs/libDaisy/src/daisy_core.h ****     return (float)x * S82F_SCALE;
 103:../../libs/libDaisy/src/daisy_core.h **** }
 104:../../libs/libDaisy/src/daisy_core.h **** 
 105:../../libs/libDaisy/src/daisy_core.h **** /**
 106:../../libs/libDaisy/src/daisy_core.h ****     Converts float to Signed 8-bit
 107:../../libs/libDaisy/src/daisy_core.h **** */
 108:../../libs/libDaisy/src/daisy_core.h **** FORCE_INLINE int8_t f2s8(float x)
 109:../../libs/libDaisy/src/daisy_core.h **** {
 110:../../libs/libDaisy/src/daisy_core.h ****     x = x <= FBIPMIN ? FBIPMIN : x;
 111:../../libs/libDaisy/src/daisy_core.h ****     x = x >= FBIPMAX ? FBIPMAX : x;
 112:../../libs/libDaisy/src/daisy_core.h ****     return (int32_t)(x * F2S8_SCALE);
 113:../../libs/libDaisy/src/daisy_core.h **** }
 114:../../libs/libDaisy/src/daisy_core.h **** 
 115:../../libs/libDaisy/src/daisy_core.h **** /** 
 116:../../libs/libDaisy/src/daisy_core.h ****     Converts Signed 16-bit to float
 117:../../libs/libDaisy/src/daisy_core.h ****     \param x Number to be scaled.
 118:../../libs/libDaisy/src/daisy_core.h ****     \return Scaled number.
 119:../../libs/libDaisy/src/daisy_core.h **** */
 120:../../libs/libDaisy/src/daisy_core.h **** FORCE_INLINE float s162f(int16_t x)
 121:../../libs/libDaisy/src/daisy_core.h **** {
 122:../../libs/libDaisy/src/daisy_core.h ****     return (float)x * S162F_SCALE;
 123:../../libs/libDaisy/src/daisy_core.h **** }
 124:../../libs/libDaisy/src/daisy_core.h **** 
 125:../../libs/libDaisy/src/daisy_core.h **** /**
 126:../../libs/libDaisy/src/daisy_core.h ****     Converts float to Signed 16-bit
 127:../../libs/libDaisy/src/daisy_core.h **** */
 128:../../libs/libDaisy/src/daisy_core.h **** FORCE_INLINE int16_t f2s16(float x)
 129:../../libs/libDaisy/src/daisy_core.h **** {
 130:../../libs/libDaisy/src/daisy_core.h ****     x = x <= FBIPMIN ? FBIPMIN : x;
 131:../../libs/libDaisy/src/daisy_core.h ****     x = x >= FBIPMAX ? FBIPMAX : x;
 132:../../libs/libDaisy/src/daisy_core.h ****     return (int32_t)(x * F2S16_SCALE);
 133:../../libs/libDaisy/src/daisy_core.h **** }
 134:../../libs/libDaisy/src/daisy_core.h **** 
 135:../../libs/libDaisy/src/daisy_core.h **** /**
 136:../../libs/libDaisy/src/daisy_core.h ****     Converts Signed 24-bit to float
 137:../../libs/libDaisy/src/daisy_core.h ****  */
 138:../../libs/libDaisy/src/daisy_core.h **** FORCE_INLINE float s242f(int32_t x)
 139:../../libs/libDaisy/src/daisy_core.h **** {
 140:../../libs/libDaisy/src/daisy_core.h ****     x = (x ^ S24SIGN) - S24SIGN; //sign extend aka ((x<<8)>>8)
 141:../../libs/libDaisy/src/daisy_core.h ****     return (float)x * S242F_SCALE;
 142:../../libs/libDaisy/src/daisy_core.h **** }
 143:../../libs/libDaisy/src/daisy_core.h **** /**
 144:../../libs/libDaisy/src/daisy_core.h ****     Converts float to Signed 24-bit
 145:../../libs/libDaisy/src/daisy_core.h ****  */
 146:../../libs/libDaisy/src/daisy_core.h **** FORCE_INLINE int32_t f2s24(float x)
 147:../../libs/libDaisy/src/daisy_core.h **** {
 148:../../libs/libDaisy/src/daisy_core.h ****     x = x <= FBIPMIN ? FBIPMIN : x;
 149:../../libs/libDaisy/src/daisy_core.h ****     x = x >= FBIPMAX ? FBIPMAX : x;
 150:../../libs/libDaisy/src/daisy_core.h ****     return (int32_t)(x * F2S24_SCALE);
 151:../../libs/libDaisy/src/daisy_core.h **** }
 152:../../libs/libDaisy/src/daisy_core.h **** 
 153:../../libs/libDaisy/src/daisy_core.h **** /**
 154:../../libs/libDaisy/src/daisy_core.h ****     Converts Signed 32-bit to float
 155:../../libs/libDaisy/src/daisy_core.h ****  */
 156:../../libs/libDaisy/src/daisy_core.h **** FORCE_INLINE float s322f(int32_t x)
ARM GAS  C:\Users\matte\AppData\Local\Temp\cclPkNhc.s 			page 180


 157:../../libs/libDaisy/src/daisy_core.h **** {
 158:../../libs/libDaisy/src/daisy_core.h ****     return (float)x * S322F_SCALE;
 159:../../libs/libDaisy/src/daisy_core.h **** }
 160:../../libs/libDaisy/src/daisy_core.h **** /**
 161:../../libs/libDaisy/src/daisy_core.h ****     Converts float to Signed 24-bit
 162:../../libs/libDaisy/src/daisy_core.h ****  */
 163:../../libs/libDaisy/src/daisy_core.h **** FORCE_INLINE int32_t f2s32(float x)
 164:../../libs/libDaisy/src/daisy_core.h **** {
 165:../../libs/libDaisy/src/daisy_core.h ****     x = x <= FBIPMIN ? FBIPMIN : x;
 166:../../libs/libDaisy/src/daisy_core.h ****     x = x >= FBIPMAX ? FBIPMAX : x;
 167:../../libs/libDaisy/src/daisy_core.h ****     return (int32_t)(x * F2S32_SCALE);
 168:../../libs/libDaisy/src/daisy_core.h **** }
 169:../../libs/libDaisy/src/daisy_core.h **** 
 170:../../libs/libDaisy/src/daisy_core.h **** #ifdef __cplusplus
 171:../../libs/libDaisy/src/daisy_core.h **** 
 172:../../libs/libDaisy/src/daisy_core.h **** namespace daisy
 173:../../libs/libDaisy/src/daisy_core.h **** {
 174:../../libs/libDaisy/src/daisy_core.h **** /** @brief GPIO Port names */
 175:../../libs/libDaisy/src/daisy_core.h **** enum GPIOPort
 176:../../libs/libDaisy/src/daisy_core.h **** {
 177:../../libs/libDaisy/src/daisy_core.h ****     PORTA, /**< Port A */
 178:../../libs/libDaisy/src/daisy_core.h ****     PORTB, /**< Port B */
 179:../../libs/libDaisy/src/daisy_core.h ****     PORTC, /**< Port C */
 180:../../libs/libDaisy/src/daisy_core.h ****     PORTD, /**< Port D */
 181:../../libs/libDaisy/src/daisy_core.h ****     PORTE, /**< Port E */
 182:../../libs/libDaisy/src/daisy_core.h ****     PORTF, /**< Port F */
 183:../../libs/libDaisy/src/daisy_core.h ****     PORTG, /**< Port G */
 184:../../libs/libDaisy/src/daisy_core.h ****     PORTH, /**< Port H */
 185:../../libs/libDaisy/src/daisy_core.h ****     PORTI, /**< Port I */
 186:../../libs/libDaisy/src/daisy_core.h ****     PORTJ, /**< Port J */
 187:../../libs/libDaisy/src/daisy_core.h ****     PORTK, /**< Port K */
 188:../../libs/libDaisy/src/daisy_core.h ****     PORTX, /**< Used as a dummy port to signal an invalid pin. */
 189:../../libs/libDaisy/src/daisy_core.h **** };
 190:../../libs/libDaisy/src/daisy_core.h **** 
 191:../../libs/libDaisy/src/daisy_core.h **** /** @brief representation of hardware port/pin combination */
 192:../../libs/libDaisy/src/daisy_core.h **** struct Pin
 193:../../libs/libDaisy/src/daisy_core.h **** {
 194:../../libs/libDaisy/src/daisy_core.h ****     GPIOPort port;
 195:../../libs/libDaisy/src/daisy_core.h ****     uint8_t  pin;
 196:../../libs/libDaisy/src/daisy_core.h **** 
 197:../../libs/libDaisy/src/daisy_core.h ****     /** @brief Constructor creates a valid pin. 
 198:../../libs/libDaisy/src/daisy_core.h ****      *  @param pt GPIOPort between PA, and PK corresponding to STM32 Port.
 199:../../libs/libDaisy/src/daisy_core.h ****      *  @param pn pin number in range of 0-15
 200:../../libs/libDaisy/src/daisy_core.h ****     */
 201:../../libs/libDaisy/src/daisy_core.h ****     constexpr Pin(const GPIOPort pt, const uint8_t pn) : port(pt), pin(pn) {}
 202:../../libs/libDaisy/src/daisy_core.h **** 
 203:../../libs/libDaisy/src/daisy_core.h ****     /** @brief Basic Constructor creates an invalid Pin object */
 204:../../libs/libDaisy/src/daisy_core.h ****     constexpr Pin() : port(PORTX), pin(255) {}
 6453              		.loc 15 204 15 view .LVU1611
 6454              		.loc 15 204 15 is_stmt 0 view .LVU1612
 6455              	.LBE1625:
 6456              	.LBB1626:
 6457              	.LBI1626:
 6458              		.loc 15 204 15 is_stmt 1 view .LVU1613
 6459              		.loc 15 204 15 is_stmt 0 view .LVU1614
 6460              	.LBE1626:
 6461              	.LBE1624:
ARM GAS  C:\Users\matte\AppData\Local\Temp\cclPkNhc.s 			page 181


 6462              	.LBE1623:
 6463              	.LBE1622:
 6464              	.LBE1621:
 6465              	.LBE1620:
  23:../../libs/libDaisy/src/sys/../../../../libs/libDaisy/src/dev/oled_ssd130x.h ****         }
 6466              		.loc 10 23 13 is_stmt 1 view .LVU1615
 6467              	.LBB1638:
 6468              	.LBB1635:
 6469              	.LBB1632:
 6470              	.LBB1627:
 6471              	.LBI1627:
  27:../../libs/libDaisy/src/sys/../../../../libs/libDaisy/src/dev/oled_ssd130x.h ****         {
 6472              		.loc 10 27 27 view .LVU1616
 6473              	.LBE1627:
 6474              	.LBE1632:
 6475              	.LBE1635:
 6476              	.LBE1638:
  29:../../libs/libDaisy/src/sys/../../../../libs/libDaisy/src/dev/oled_ssd130x.h ****             i2c_config.speed          = I2CHandle::Config::Speed::I2C_1MHZ;
 6477              		.loc 10 29 13 view .LVU1617
  30:../../libs/libDaisy/src/sys/../../../../libs/libDaisy/src/dev/oled_ssd130x.h ****             i2c_config.mode           = I2CHandle::Config::Mode::I2C_MASTER;
 6478              		.loc 10 30 13 view .LVU1618
  31:../../libs/libDaisy/src/sys/../../../../libs/libDaisy/src/dev/oled_ssd130x.h ****             i2c_config.pin_config.scl = Pin(PORTB, 8);
 6479              		.loc 10 31 13 view .LVU1619
  32:../../libs/libDaisy/src/sys/../../../../libs/libDaisy/src/dev/oled_ssd130x.h ****             i2c_config.pin_config.sda = Pin(PORTB, 9);
 6480              		.loc 10 32 13 view .LVU1620
 6481              	.LBB1639:
 6482              	.LBB1636:
 6483              	.LBB1633:
 6484              	.LBB1630:
 6485              	.LBB1628:
 6486              	.LBI1628:
 201:../../libs/libDaisy/src/daisy_core.h **** 
 6487              		.loc 15 201 15 view .LVU1621
 201:../../libs/libDaisy/src/daisy_core.h **** 
 6488              		.loc 15 201 15 is_stmt 0 view .LVU1622
 6489              	.LBE1628:
 6490              	.LBE1630:
 6491              	.LBE1633:
 6492              	.LBE1636:
 6493              	.LBE1639:
  33:../../libs/libDaisy/src/sys/../../../../libs/libDaisy/src/dev/oled_ssd130x.h ****             i2c_address               = 0x3C;
 6494              		.loc 10 33 13 is_stmt 1 view .LVU1623
 6495              	.LBB1640:
 6496              	.LBB1637:
 6497              	.LBB1634:
 6498              	.LBB1631:
 6499              	.LBB1629:
 6500              	.LBI1629:
 201:../../libs/libDaisy/src/daisy_core.h **** 
 6501              		.loc 15 201 15 view .LVU1624
 201:../../libs/libDaisy/src/daisy_core.h **** 
 6502              		.loc 15 201 15 is_stmt 0 view .LVU1625
 6503              	.LBE1629:
 6504              	.LBE1631:
 6505              	.LBE1634:
 6506              	.LBE1637:
 6507              	.LBE1640:
ARM GAS  C:\Users\matte\AppData\Local\Temp\cclPkNhc.s 			page 182


  34:../../libs/libDaisy/src/sys/../../../../libs/libDaisy/src/dev/oled_ssd130x.h ****         }
 6508              		.loc 10 34 13 is_stmt 1 view .LVU1626
  56:main.cpp      ****     disp.Init(disp_cfg);
 6509              		.loc 11 56 5 view .LVU1627
 6510              	.LBB1641:
 6511              	.LBI1614:
  25:../../libs/libDaisy/src/sys/../../../../libs/libDaisy/src/hid/disp/oled_display.h **** 
 6512              		.loc 8 25 10 view .LVU1628
 6513              	.LBE1641:
  52:main.cpp      ****     osc.SetFreq(oscFreq);
 6514              		.loc 11 52 9 is_stmt 0 view .LVU1629
 6515 007a 4FF4DC74 		mov	r4, #440
 6516              	.LBB1642:
 6517              	.LBB1616:
  25:../../libs/libDaisy/src/sys/../../../../libs/libDaisy/src/hid/disp/oled_display.h **** 
 6518              		.loc 8 25 44 view .LVU1630
 6519 007e 12E90700 		ldmdb	r2, {r0, r1, r2}
 6520 0082 8DE80700 		stm	sp, {r0, r1, r2}
 6521 0086 1A48     		ldr	r0, .L417+28
 6522 0088 0ECB     		ldm	r3, {r1, r2, r3}
 6523 008a FFF7FEFF 		bl	_ZN5daisy13SSD130xDriverILj128ELj64ENS_19SSD130xI2CTransportEE4InitENS2_6ConfigE
 6524              	.LVL466:
  25:../../libs/libDaisy/src/sys/../../../../libs/libDaisy/src/hid/disp/oled_display.h **** 
 6525              		.loc 8 25 44 view .LVU1631
 6526              	.LBE1616:
 6527              	.LBE1642:
  57:main.cpp      ****     disp_handle.SetState(DisplayState::WAVEFORM_VIEWER); 
 6528              		.loc 11 57 5 is_stmt 1 view .LVU1632
 6529              		.loc 11 57 25 is_stmt 0 view .LVU1633
 6530 008e 0121     		movs	r1, #1
 6531 0090 1848     		ldr	r0, .L417+32
 6532 0092 FFF7FEFF 		bl	_ZN14DisplayHandler8SetStateE12DisplayState
 6533              	.LVL467:
  58:main.cpp      ****     hw.StartAudio(AudioCallback);
 6534              		.loc 11 58 5 is_stmt 1 view .LVU1634
 6535              		.loc 11 58 18 is_stmt 0 view .LVU1635
 6536 0096 1849     		ldr	r1, .L417+36
 6537 0098 0E48     		ldr	r0, .L417
 6538 009a FFF7FEFF 		bl	_ZN5daisy9DaisySeed10StartAudioEPFvPKfPfjE
 6539              	.LVL468:
  59:main.cpp      ****     int i = 440;
 6540              		.loc 11 59 5 is_stmt 1 view .LVU1636
 6541              	.L415:
  60:main.cpp      ****     while (1){
 6542              		.loc 11 60 5 discriminator 1 view .LVU1637
  61:main.cpp      ****         i = (i + 1) % 440;
 6543              		.loc 11 61 9 discriminator 1 view .LVU1638
 6544              		.loc 11 61 16 is_stmt 0 discriminator 1 view .LVU1639
 6545 009e 631C     		adds	r3, r4, #1
 6546              		.loc 11 61 11 discriminator 1 view .LVU1640
 6547 00a0 164A     		ldr	r2, .L417+40
 6548 00a2 4FF4DC71 		mov	r1, #440
 6549              	.LBB1643:
 6550              	.LBB1644:
  70:../../libs/DaisySP/Source/Synthesis/oscillator.h ****     }
 6551              		.loc 7 70 34 discriminator 1 view .LVU1641
 6552 00a6 0C48     		ldr	r0, .L417+4
ARM GAS  C:\Users\matte\AppData\Local\Temp\cclPkNhc.s 			page 183


 6553              	.LBE1644:
 6554              	.LBE1643:
 6555              		.loc 11 61 11 discriminator 1 view .LVU1642
 6556 00a8 82FB0342 		smull	r4, r2, r2, r3
 6557              	.LVL469:
 6558              		.loc 11 61 11 discriminator 1 view .LVU1643
 6559 00ac DC17     		asrs	r4, r3, #31
 6560 00ae C4EB2214 		rsb	r4, r4, r2, asr #4
 6561 00b2 01FB1434 		mls	r4, r1, r4, r3
 6562              	.LVL470:
  62:main.cpp      ****         oscFreq = (oscFreq +  1) % 440;
 6563              		.loc 11 62 9 is_stmt 1 discriminator 1 view .LVU1644
  63:main.cpp      ****         osc.SetFreq(oscFreq + 440);
 6564              		.loc 11 63 9 discriminator 1 view .LVU1645
 6565              		.loc 11 63 29 is_stmt 0 discriminator 1 view .LVU1646
 6566 00b6 6318     		adds	r3, r4, r1
 6567 00b8 00EE103A 		vmov	s0, r3	@ int
 6568              		.loc 11 63 20 discriminator 1 view .LVU1647
 6569 00bc B8EEC00A 		vcvt.f32.s32	s0, s0
 6570              	.LVL471:
 6571              	.LBB1647:
 6572              	.LBI1643:
  67:../../libs/DaisySP/Source/Synthesis/oscillator.h ****     {
 6573              		.loc 7 67 17 is_stmt 1 discriminator 1 view .LVU1648
 6574              	.LBB1645:
  69:../../libs/DaisySP/Source/Synthesis/oscillator.h ****         phase_inc_ = CalcPhaseInc(f);
 6575              		.loc 7 69 9 discriminator 1 view .LVU1649
  69:../../libs/DaisySP/Source/Synthesis/oscillator.h ****         phase_inc_ = CalcPhaseInc(f);
 6576              		.loc 7 69 20 is_stmt 0 discriminator 1 view .LVU1650
 6577 00c0 85ED020A 		vstr.32	s0, [r5, #8]
  70:../../libs/DaisySP/Source/Synthesis/oscillator.h ****     }
 6578              		.loc 7 70 9 is_stmt 1 discriminator 1 view .LVU1651
  70:../../libs/DaisySP/Source/Synthesis/oscillator.h ****     }
 6579              		.loc 7 70 34 is_stmt 0 discriminator 1 view .LVU1652
 6580 00c4 FFF7FEFF 		bl	_ZN7daisysp10Oscillator12CalcPhaseIncEf
 6581              	.LVL472:
  70:../../libs/DaisySP/Source/Synthesis/oscillator.h ****     }
 6582              		.loc 7 70 34 discriminator 1 view .LVU1653
 6583              	.LBE1645:
 6584              	.LBE1647:
  64:main.cpp      ****         disp_handle.Update();
 6585              		.loc 11 64 27 discriminator 1 view .LVU1654
 6586 00c8 0A48     		ldr	r0, .L417+32
 6587              	.LBB1648:
 6588              	.LBB1646:
  70:../../libs/DaisySP/Source/Synthesis/oscillator.h ****     }
 6589              		.loc 7 70 20 discriminator 1 view .LVU1655
 6590 00ca 85ED070A 		vstr.32	s0, [r5, #28]
 6591              	.LVL473:
  70:../../libs/DaisySP/Source/Synthesis/oscillator.h ****     }
 6592              		.loc 7 70 20 discriminator 1 view .LVU1656
 6593              	.LBE1646:
 6594              	.LBE1648:
 6595              		.loc 11 64 9 is_stmt 1 discriminator 1 view .LVU1657
 6596              		.loc 11 64 27 is_stmt 0 discriminator 1 view .LVU1658
 6597 00ce FFF7FEFF 		bl	_ZN14DisplayHandler6UpdateEv
 6598              	.LVL474:
ARM GAS  C:\Users\matte\AppData\Local\Temp\cclPkNhc.s 			page 184


  60:main.cpp      ****         i = (i + 1) % 440;
 6599              		.loc 11 60 5 is_stmt 1 discriminator 1 view .LVU1659
 6600 00d2 E4E7     		b	.L415
 6601              	.L418:
 6602              		.align	2
 6603              	.L417:
 6604 00d4 00000000 		.word	.LANCHOR2
 6605 00d8 00000000 		.word	.LANCHOR0
 6606 00dc 00803B47 		.word	1195081728
 6607 00e0 3EC3AE37 		.word	934200126
 6608 00e4 0000C842 		.word	1120403456
 6609 00e8 0000DC43 		.word	1138491392
 6610 00ec 01080109 		.word	151062529
 6611 00f0 08000000 		.word	.LANCHOR3+8
 6612 00f4 00000000 		.word	.LANCHOR1
 6613 00f8 00000000 		.word	_ZL13AudioCallbackPKfPfj
 6614 00fc 95204F09 		.word	156180629
 6615              		.cfi_endproc
 6616              	.LFE4855:
 6618              		.section	.text.startup._GLOBAL__sub_I_hw,"ax",%progbits
 6619              		.align	1
 6620              		.p2align 2,,3
 6621              		.syntax unified
 6622              		.thumb
 6623              		.thumb_func
 6624              		.fpu fpv5-d16
 6626              	_GLOBAL__sub_I_hw:
 6627              	.LFB5464:
  65:main.cpp      ****         // hw.DelayMs(10); --> NO! this function creates noise
  66:main.cpp      ****     }
  67:main.cpp      ****     
  68:main.cpp      ****     return 0;
  69:main.cpp      **** 
  70:main.cpp      ****  }...
 6628              		.loc 11 70 2 view -0
 6629              		.cfi_startproc
 6630              		@ args = 0, pretend = 0, frame = 0
 6631              		@ frame_needed = 0, uses_anonymous_args = 0
 6632              	.LBB1728:
 6633              	.LBI1728:
 6634              		.loc 11 70 2 view .LVU1661
 6635              	.LVL475:
 6636              	.LBB1729:
 6637              	.LBB1730:
 6638              	.LBI1730:
  21:../../libs/libDaisy/src/sys/../../../../libs/libDaisy/src/daisy_seed.h ****     ~DaisySeed() {}
 6639              		.loc 1 21 5 view .LVU1662
 6640              	.LBB1731:
 6641              	.LBB1732:
 6642              	.LBI1732:
 6643              		.file 16 "../../libs/libDaisy/src/sys/../../../../libs/libDaisy/src/per/qspi.h"
   1:../../libs/libDaisy/src/sys/../../../../libs/libDaisy/src/per/qspi.h **** #ifndef DSY_QSPI
   2:../../libs/libDaisy/src/sys/../../../../libs/libDaisy/src/per/qspi.h **** #define DSY_QSPI /**< Macro */
   3:../../libs/libDaisy/src/sys/../../../../libs/libDaisy/src/per/qspi.h **** 
   4:../../libs/libDaisy/src/sys/../../../../libs/libDaisy/src/per/qspi.h **** #ifndef UNIT_TEST // for unit tests, a dummy implementation
   5:../../libs/libDaisy/src/sys/../../../../libs/libDaisy/src/per/qspi.h **** 
   6:../../libs/libDaisy/src/sys/../../../../libs/libDaisy/src/per/qspi.h **** #include <cstdint>
ARM GAS  C:\Users\matte\AppData\Local\Temp\cclPkNhc.s 			page 185


   7:../../libs/libDaisy/src/sys/../../../../libs/libDaisy/src/per/qspi.h **** #include "daisy_core.h"
   8:../../libs/libDaisy/src/sys/../../../../libs/libDaisy/src/per/qspi.h **** #include "util/hal_map.h"
   9:../../libs/libDaisy/src/sys/../../../../libs/libDaisy/src/per/qspi.h **** 
  10:../../libs/libDaisy/src/sys/../../../../libs/libDaisy/src/per/qspi.h **** #define DSY_QSPI_TEXT       \
  11:../../libs/libDaisy/src/sys/../../../../libs/libDaisy/src/per/qspi.h ****     __attribute__((section( \
  12:../../libs/libDaisy/src/sys/../../../../libs/libDaisy/src/per/qspi.h ****         ".qspiflash_text"))) /**< used for reading memory in memory_mapped mode. */
  13:../../libs/libDaisy/src/sys/../../../../libs/libDaisy/src/per/qspi.h **** #define DSY_QSPI_DATA       \
  14:../../libs/libDaisy/src/sys/../../../../libs/libDaisy/src/per/qspi.h ****     __attribute__((section( \
  15:../../libs/libDaisy/src/sys/../../../../libs/libDaisy/src/per/qspi.h ****         ".qspiflash_data"))) /**< used for reading memory in memory_mapped mode. */
  16:../../libs/libDaisy/src/sys/../../../../libs/libDaisy/src/per/qspi.h **** #define DSY_QSPI_BSS        \
  17:../../libs/libDaisy/src/sys/../../../../libs/libDaisy/src/per/qspi.h ****     __attribute__((section( \
  18:../../libs/libDaisy/src/sys/../../../../libs/libDaisy/src/per/qspi.h ****         ".qspiflash_bss"))) /**< used for reading memory in memory_mapped mode. */
  19:../../libs/libDaisy/src/sys/../../../../libs/libDaisy/src/per/qspi.h **** 
  20:../../libs/libDaisy/src/sys/../../../../libs/libDaisy/src/per/qspi.h **** namespace daisy
  21:../../libs/libDaisy/src/sys/../../../../libs/libDaisy/src/per/qspi.h **** {
  22:../../libs/libDaisy/src/sys/../../../../libs/libDaisy/src/per/qspi.h **** /** @addtogroup serial
  23:../../libs/libDaisy/src/sys/../../../../libs/libDaisy/src/per/qspi.h **** @{
  24:../../libs/libDaisy/src/sys/../../../../libs/libDaisy/src/per/qspi.h **** */
  25:../../libs/libDaisy/src/sys/../../../../libs/libDaisy/src/per/qspi.h **** 
  26:../../libs/libDaisy/src/sys/../../../../libs/libDaisy/src/per/qspi.h **** /** 
  27:../../libs/libDaisy/src/sys/../../../../libs/libDaisy/src/per/qspi.h ****  Driver for QSPI peripheral to interface with external flash memory. \n 
  28:../../libs/libDaisy/src/sys/../../../../libs/libDaisy/src/per/qspi.h ****     Currently supported QSPI Devices: \n 
  29:../../libs/libDaisy/src/sys/../../../../libs/libDaisy/src/per/qspi.h ****     * IS25LP080D
  30:../../libs/libDaisy/src/sys/../../../../libs/libDaisy/src/per/qspi.h **** */
  31:../../libs/libDaisy/src/sys/../../../../libs/libDaisy/src/per/qspi.h **** class QSPIHandle
  32:../../libs/libDaisy/src/sys/../../../../libs/libDaisy/src/per/qspi.h **** {
  33:../../libs/libDaisy/src/sys/../../../../libs/libDaisy/src/per/qspi.h ****   public:
  34:../../libs/libDaisy/src/sys/../../../../libs/libDaisy/src/per/qspi.h ****     enum Result
  35:../../libs/libDaisy/src/sys/../../../../libs/libDaisy/src/per/qspi.h ****     {
  36:../../libs/libDaisy/src/sys/../../../../libs/libDaisy/src/per/qspi.h ****         OK = 0,
  37:../../libs/libDaisy/src/sys/../../../../libs/libDaisy/src/per/qspi.h ****         ERR
  38:../../libs/libDaisy/src/sys/../../../../libs/libDaisy/src/per/qspi.h ****     };
  39:../../libs/libDaisy/src/sys/../../../../libs/libDaisy/src/per/qspi.h **** 
  40:../../libs/libDaisy/src/sys/../../../../libs/libDaisy/src/per/qspi.h ****     /** Indicates the current status of the module. 
  41:../../libs/libDaisy/src/sys/../../../../libs/libDaisy/src/per/qspi.h ****          *  Warnings are indicated by a leading W.
  42:../../libs/libDaisy/src/sys/../../../../libs/libDaisy/src/per/qspi.h ****          *  Errors are indicated by a leading E and cause an immediate exit.
  43:../../libs/libDaisy/src/sys/../../../../libs/libDaisy/src/per/qspi.h ****          * 
  44:../../libs/libDaisy/src/sys/../../../../libs/libDaisy/src/per/qspi.h ****          *  \param GOOD - No errors have been reported.
  45:../../libs/libDaisy/src/sys/../../../../libs/libDaisy/src/per/qspi.h ****          *  \param E_HAL_ERROR - HAL code did not return HAL_OK.
  46:../../libs/libDaisy/src/sys/../../../../libs/libDaisy/src/per/qspi.h ****          *  \param E_SWITCHING_MODES - An error was encountered while switching QSPI peripheral mod
  47:../../libs/libDaisy/src/sys/../../../../libs/libDaisy/src/per/qspi.h ****          *  \param E_INVALID_MODE - QSPI should not be written to while the program is executing fr
  48:../../libs/libDaisy/src/sys/../../../../libs/libDaisy/src/per/qspi.h ****          */
  49:../../libs/libDaisy/src/sys/../../../../libs/libDaisy/src/per/qspi.h ****     enum Status
  50:../../libs/libDaisy/src/sys/../../../../libs/libDaisy/src/per/qspi.h ****     {
  51:../../libs/libDaisy/src/sys/../../../../libs/libDaisy/src/per/qspi.h ****         GOOD = 0,
  52:../../libs/libDaisy/src/sys/../../../../libs/libDaisy/src/per/qspi.h ****         E_HAL_ERROR,
  53:../../libs/libDaisy/src/sys/../../../../libs/libDaisy/src/per/qspi.h ****         E_SWITCHING_MODES,
  54:../../libs/libDaisy/src/sys/../../../../libs/libDaisy/src/per/qspi.h ****         E_INVALID_MODE,
  55:../../libs/libDaisy/src/sys/../../../../libs/libDaisy/src/per/qspi.h ****     };
  56:../../libs/libDaisy/src/sys/../../../../libs/libDaisy/src/per/qspi.h **** 
  57:../../libs/libDaisy/src/sys/../../../../libs/libDaisy/src/per/qspi.h ****     /** Configuration structure for interfacing with QSPI Driver */
  58:../../libs/libDaisy/src/sys/../../../../libs/libDaisy/src/per/qspi.h ****     struct Config
  59:../../libs/libDaisy/src/sys/../../../../libs/libDaisy/src/per/qspi.h ****     {
  60:../../libs/libDaisy/src/sys/../../../../libs/libDaisy/src/per/qspi.h ****         /** Flash Devices supported. (Both of these are more-or-less the same, just different sizes
  61:../../libs/libDaisy/src/sys/../../../../libs/libDaisy/src/per/qspi.h ****         enum Device
  62:../../libs/libDaisy/src/sys/../../../../libs/libDaisy/src/per/qspi.h ****         {
  63:../../libs/libDaisy/src/sys/../../../../libs/libDaisy/src/per/qspi.h ****             IS25LP080D,  /**< & */
ARM GAS  C:\Users\matte\AppData\Local\Temp\cclPkNhc.s 			page 186


  64:../../libs/libDaisy/src/sys/../../../../libs/libDaisy/src/per/qspi.h ****             IS25LP064A,  /**< & */
  65:../../libs/libDaisy/src/sys/../../../../libs/libDaisy/src/per/qspi.h ****             DEVICE_LAST, /**< & */
  66:../../libs/libDaisy/src/sys/../../../../libs/libDaisy/src/per/qspi.h ****         };
  67:../../libs/libDaisy/src/sys/../../../../libs/libDaisy/src/per/qspi.h **** 
  68:../../libs/libDaisy/src/sys/../../../../libs/libDaisy/src/per/qspi.h ****         /** 
  69:../../libs/libDaisy/src/sys/../../../../libs/libDaisy/src/per/qspi.h ****         Modes of operation.
  70:../../libs/libDaisy/src/sys/../../../../libs/libDaisy/src/per/qspi.h ****         Memory Mapped mode: QSPI configured so that the QSPI can be
  71:../../libs/libDaisy/src/sys/../../../../libs/libDaisy/src/per/qspi.h ****         read from starting address 0x90000000. Writing is not
  72:../../libs/libDaisy/src/sys/../../../../libs/libDaisy/src/per/qspi.h ****         possible in this mode. \n 
  73:../../libs/libDaisy/src/sys/../../../../libs/libDaisy/src/per/qspi.h ****         Indirect Polling mode: Device driver enabled. 
  74:../../libs/libDaisy/src/sys/../../../../libs/libDaisy/src/per/qspi.h ****         */
  75:../../libs/libDaisy/src/sys/../../../../libs/libDaisy/src/per/qspi.h ****         enum Mode
  76:../../libs/libDaisy/src/sys/../../../../libs/libDaisy/src/per/qspi.h ****         {
  77:../../libs/libDaisy/src/sys/../../../../libs/libDaisy/src/per/qspi.h ****             MEMORY_MAPPED,    /**< & */
  78:../../libs/libDaisy/src/sys/../../../../libs/libDaisy/src/per/qspi.h ****             INDIRECT_POLLING, /**< & */
  79:../../libs/libDaisy/src/sys/../../../../libs/libDaisy/src/per/qspi.h ****             MODE_LAST,
  80:../../libs/libDaisy/src/sys/../../../../libs/libDaisy/src/per/qspi.h ****         };
  81:../../libs/libDaisy/src/sys/../../../../libs/libDaisy/src/per/qspi.h **** 
  82:../../libs/libDaisy/src/sys/../../../../libs/libDaisy/src/per/qspi.h ****         //SCK,  CE# (active low)
  83:../../libs/libDaisy/src/sys/../../../../libs/libDaisy/src/per/qspi.h ****         struct
  84:../../libs/libDaisy/src/sys/../../../../libs/libDaisy/src/per/qspi.h ****         {
  85:../../libs/libDaisy/src/sys/../../../../libs/libDaisy/src/per/qspi.h ****             Pin io0; /**< & */
  86:../../libs/libDaisy/src/sys/../../../../libs/libDaisy/src/per/qspi.h ****             Pin io1; /**< & */
  87:../../libs/libDaisy/src/sys/../../../../libs/libDaisy/src/per/qspi.h ****             Pin io2; /**< & */
  88:../../libs/libDaisy/src/sys/../../../../libs/libDaisy/src/per/qspi.h ****             Pin io3; /**< & */
  89:../../libs/libDaisy/src/sys/../../../../libs/libDaisy/src/per/qspi.h ****             Pin clk; /**< & */
  90:../../libs/libDaisy/src/sys/../../../../libs/libDaisy/src/per/qspi.h ****             Pin ncs; /**< & */
  91:../../libs/libDaisy/src/sys/../../../../libs/libDaisy/src/per/qspi.h ****         } pin_config;
  92:../../libs/libDaisy/src/sys/../../../../libs/libDaisy/src/per/qspi.h **** 
  93:../../libs/libDaisy/src/sys/../../../../libs/libDaisy/src/per/qspi.h ****         Device device;
  94:../../libs/libDaisy/src/sys/../../../../libs/libDaisy/src/per/qspi.h ****         Mode   mode;
  95:../../libs/libDaisy/src/sys/../../../../libs/libDaisy/src/per/qspi.h ****     };
  96:../../libs/libDaisy/src/sys/../../../../libs/libDaisy/src/per/qspi.h **** 
  97:../../libs/libDaisy/src/sys/../../../../libs/libDaisy/src/per/qspi.h ****     /** 
  98:../../libs/libDaisy/src/sys/../../../../libs/libDaisy/src/per/qspi.h ****         Initializes QSPI peripheral, and Resets, and prepares memory for access.
  99:../../libs/libDaisy/src/sys/../../../../libs/libDaisy/src/per/qspi.h ****         \param config should be populated with the mode, device and pin_config before calling this 
 100:../../libs/libDaisy/src/sys/../../../../libs/libDaisy/src/per/qspi.h ****         \return Result::OK or Result::ERR
 101:../../libs/libDaisy/src/sys/../../../../libs/libDaisy/src/per/qspi.h ****         */
 102:../../libs/libDaisy/src/sys/../../../../libs/libDaisy/src/per/qspi.h ****     Result Init(const Config& config);
 103:../../libs/libDaisy/src/sys/../../../../libs/libDaisy/src/per/qspi.h **** 
 104:../../libs/libDaisy/src/sys/../../../../libs/libDaisy/src/per/qspi.h ****     /** Returns the current config. */
 105:../../libs/libDaisy/src/sys/../../../../libs/libDaisy/src/per/qspi.h ****     const Config& GetConfig() const;
 106:../../libs/libDaisy/src/sys/../../../../libs/libDaisy/src/per/qspi.h **** 
 107:../../libs/libDaisy/src/sys/../../../../libs/libDaisy/src/per/qspi.h ****     // Couldn't this just be called before anything else in init? That
 108:../../libs/libDaisy/src/sys/../../../../libs/libDaisy/src/per/qspi.h ****     // would make manually calling it unnecessary.
 109:../../libs/libDaisy/src/sys/../../../../libs/libDaisy/src/per/qspi.h ****     /** 
 110:../../libs/libDaisy/src/sys/../../../../libs/libDaisy/src/per/qspi.h ****         Deinitializes the peripheral
 111:../../libs/libDaisy/src/sys/../../../../libs/libDaisy/src/per/qspi.h ****         This should be called before reinitializing QSPI in a different mode.
 112:../../libs/libDaisy/src/sys/../../../../libs/libDaisy/src/per/qspi.h ****         \return Result::OK or Result::ERR
 113:../../libs/libDaisy/src/sys/../../../../libs/libDaisy/src/per/qspi.h ****         */
 114:../../libs/libDaisy/src/sys/../../../../libs/libDaisy/src/per/qspi.h ****     Result DeInit();
 115:../../libs/libDaisy/src/sys/../../../../libs/libDaisy/src/per/qspi.h **** 
 116:../../libs/libDaisy/src/sys/../../../../libs/libDaisy/src/per/qspi.h ****     /** 
 117:../../libs/libDaisy/src/sys/../../../../libs/libDaisy/src/per/qspi.h ****         Writes a single page to to the specified address on the QSPI chip.
 118:../../libs/libDaisy/src/sys/../../../../libs/libDaisy/src/per/qspi.h ****         For IS25LP*, page size is 256 bytes.
 119:../../libs/libDaisy/src/sys/../../../../libs/libDaisy/src/per/qspi.h ****         \param address Address to write to
 120:../../libs/libDaisy/src/sys/../../../../libs/libDaisy/src/per/qspi.h ****         \param size Buffer size
ARM GAS  C:\Users\matte\AppData\Local\Temp\cclPkNhc.s 			page 187


 121:../../libs/libDaisy/src/sys/../../../../libs/libDaisy/src/per/qspi.h ****         \param buffer Buffer to write
 122:../../libs/libDaisy/src/sys/../../../../libs/libDaisy/src/per/qspi.h ****         \return Result::OK or Result::ERR
 123:../../libs/libDaisy/src/sys/../../../../libs/libDaisy/src/per/qspi.h ****         */
 124:../../libs/libDaisy/src/sys/../../../../libs/libDaisy/src/per/qspi.h ****     Result WritePage(uint32_t address, uint32_t size, uint8_t* buffer);
 125:../../libs/libDaisy/src/sys/../../../../libs/libDaisy/src/per/qspi.h **** 
 126:../../libs/libDaisy/src/sys/../../../../libs/libDaisy/src/per/qspi.h ****     /** 
 127:../../libs/libDaisy/src/sys/../../../../libs/libDaisy/src/per/qspi.h ****         Writes data in buffer to to the QSPI. Starting at address to address+size 
 128:../../libs/libDaisy/src/sys/../../../../libs/libDaisy/src/per/qspi.h ****         \param address Address to write to
 129:../../libs/libDaisy/src/sys/../../../../libs/libDaisy/src/per/qspi.h ****         \param size Buffer size
 130:../../libs/libDaisy/src/sys/../../../../libs/libDaisy/src/per/qspi.h ****         \param buffer Buffer to write
 131:../../libs/libDaisy/src/sys/../../../../libs/libDaisy/src/per/qspi.h ****         \return Result::OK or Result::ERR
 132:../../libs/libDaisy/src/sys/../../../../libs/libDaisy/src/per/qspi.h ****         */
 133:../../libs/libDaisy/src/sys/../../../../libs/libDaisy/src/per/qspi.h ****     Result Write(uint32_t address, uint32_t size, uint8_t* buffer);
 134:../../libs/libDaisy/src/sys/../../../../libs/libDaisy/src/per/qspi.h **** 
 135:../../libs/libDaisy/src/sys/../../../../libs/libDaisy/src/per/qspi.h ****     /** 
 136:../../libs/libDaisy/src/sys/../../../../libs/libDaisy/src/per/qspi.h ****         Erases the area specified on the chip.
 137:../../libs/libDaisy/src/sys/../../../../libs/libDaisy/src/per/qspi.h ****         Erasures will happen by 4K, 32K or 64K increments.
 138:../../libs/libDaisy/src/sys/../../../../libs/libDaisy/src/per/qspi.h ****         Smallest erase possible is 4kB at a time. (on IS25LP*)
 139:../../libs/libDaisy/src/sys/../../../../libs/libDaisy/src/per/qspi.h ****         \param start_addr Address to begin erasing from
 140:../../libs/libDaisy/src/sys/../../../../libs/libDaisy/src/per/qspi.h ****         \param end_addr  Address to stop erasing at
 141:../../libs/libDaisy/src/sys/../../../../libs/libDaisy/src/per/qspi.h ****         \return Result::OK or Result::ERR
 142:../../libs/libDaisy/src/sys/../../../../libs/libDaisy/src/per/qspi.h ****         */
 143:../../libs/libDaisy/src/sys/../../../../libs/libDaisy/src/per/qspi.h ****     Result Erase(uint32_t start_addr, uint32_t end_addr);
 144:../../libs/libDaisy/src/sys/../../../../libs/libDaisy/src/per/qspi.h **** 
 145:../../libs/libDaisy/src/sys/../../../../libs/libDaisy/src/per/qspi.h ****     /**  
 146:../../libs/libDaisy/src/sys/../../../../libs/libDaisy/src/per/qspi.h ****          Erases a single sector of the chip.  
 147:../../libs/libDaisy/src/sys/../../../../libs/libDaisy/src/per/qspi.h ****         TODO: Document the size of this function. 
 148:../../libs/libDaisy/src/sys/../../../../libs/libDaisy/src/per/qspi.h ****         \param address Address of sector to erase
 149:../../libs/libDaisy/src/sys/../../../../libs/libDaisy/src/per/qspi.h ****         \return Result::OK or Result::ERR
 150:../../libs/libDaisy/src/sys/../../../../libs/libDaisy/src/per/qspi.h ****         */
 151:../../libs/libDaisy/src/sys/../../../../libs/libDaisy/src/per/qspi.h ****     Result EraseSector(uint32_t address);
 152:../../libs/libDaisy/src/sys/../../../../libs/libDaisy/src/per/qspi.h **** 
 153:../../libs/libDaisy/src/sys/../../../../libs/libDaisy/src/per/qspi.h ****     /** Returns the current class status. Useful for debugging.
 154:../../libs/libDaisy/src/sys/../../../../libs/libDaisy/src/per/qspi.h ****      *  \returns Status
 155:../../libs/libDaisy/src/sys/../../../../libs/libDaisy/src/per/qspi.h ****      */
 156:../../libs/libDaisy/src/sys/../../../../libs/libDaisy/src/per/qspi.h ****     Status GetStatus();
 157:../../libs/libDaisy/src/sys/../../../../libs/libDaisy/src/per/qspi.h **** 
 158:../../libs/libDaisy/src/sys/../../../../libs/libDaisy/src/per/qspi.h ****     /** Returns a pointer to the actual memory used 
 159:../../libs/libDaisy/src/sys/../../../../libs/libDaisy/src/per/qspi.h ****      *  The memory at this address is read-only
 160:../../libs/libDaisy/src/sys/../../../../libs/libDaisy/src/per/qspi.h ****      *  to write to it use the Write function.
 161:../../libs/libDaisy/src/sys/../../../../libs/libDaisy/src/per/qspi.h ****      * 
 162:../../libs/libDaisy/src/sys/../../../../libs/libDaisy/src/per/qspi.h ****      *  \param offset returns the pointer starting this 
 163:../../libs/libDaisy/src/sys/../../../../libs/libDaisy/src/per/qspi.h ****      *                many bytes into the memory
 164:../../libs/libDaisy/src/sys/../../../../libs/libDaisy/src/per/qspi.h ****     */
 165:../../libs/libDaisy/src/sys/../../../../libs/libDaisy/src/per/qspi.h ****     void* GetData(uint32_t offset = 0);
 166:../../libs/libDaisy/src/sys/../../../../libs/libDaisy/src/per/qspi.h **** 
 167:../../libs/libDaisy/src/sys/../../../../libs/libDaisy/src/per/qspi.h ****     QSPIHandle() : pimpl_(nullptr) {}
 6644              		.loc 16 167 5 view .LVU1663
 6645              		.loc 16 167 5 is_stmt 0 view .LVU1664
 6646              	.LBE1732:
 6647              	.LBB1735:
 6648              	.LBI1735:
  58:../../libs/libDaisy/src/sys/../../../../libs/libDaisy/src/per/qspi.h ****     {
 6649              		.loc 16 58 12 is_stmt 1 view .LVU1665
 6650              	.LBB1736:
 6651              	.LBI1736:
  84:../../libs/libDaisy/src/sys/../../../../libs/libDaisy/src/per/qspi.h ****             Pin io0; /**< & */
ARM GAS  C:\Users\matte\AppData\Local\Temp\cclPkNhc.s 			page 188


 6652              		.loc 16 84 9 view .LVU1666
 6653              	.LBB1737:
 6654              	.LBI1737:
 6655              		.loc 15 204 15 view .LVU1667
 6656              		.loc 15 204 15 is_stmt 0 view .LVU1668
 6657              	.LBE1737:
 6658              	.LBB1738:
 6659              	.LBI1738:
 6660              		.loc 15 204 15 is_stmt 1 view .LVU1669
 6661              		.loc 15 204 15 is_stmt 0 view .LVU1670
 6662              	.LBE1738:
 6663              	.LBB1739:
 6664              	.LBI1739:
 6665              		.loc 15 204 15 is_stmt 1 view .LVU1671
 6666              		.loc 15 204 15 is_stmt 0 view .LVU1672
 6667              	.LBE1739:
 6668              	.LBB1740:
 6669              	.LBI1740:
 6670              		.loc 15 204 15 is_stmt 1 view .LVU1673
 6671              		.loc 15 204 15 is_stmt 0 view .LVU1674
 6672              	.LBE1740:
 6673              	.LBB1741:
 6674              	.LBI1741:
 6675              		.loc 15 204 15 is_stmt 1 view .LVU1675
 6676              		.loc 15 204 15 is_stmt 0 view .LVU1676
 6677              	.LBE1741:
 6678              	.LBB1742:
 6679              	.LBI1742:
 6680              		.loc 15 204 15 is_stmt 1 view .LVU1677
 6681              		.loc 15 204 15 is_stmt 0 view .LVU1678
 6682              	.LBE1742:
 6683              	.LBE1736:
 6684              	.LBE1735:
 6685              	.LBB1743:
 6686              	.LBI1743:
  87:../../libs/libDaisy/src/sys/../../../../libs/libDaisy/src/hid/audio.h ****     ~AudioHandle() {}
 6687              		.loc 6 87 5 is_stmt 1 view .LVU1679
  87:../../libs/libDaisy/src/sys/../../../../libs/libDaisy/src/hid/audio.h ****     ~AudioHandle() {}
 6688              		.loc 6 87 5 is_stmt 0 view .LVU1680
 6689              	.LBE1743:
 6690              	.LBB1746:
 6691              	.LBI1746:
 109:../../libs/libDaisy/src/sys/../../../../libs/libDaisy/src/per/adc.h ****     ~AdcHandle() {}
 6692              		.loc 5 109 5 is_stmt 1 view .LVU1681
 109:../../libs/libDaisy/src/sys/../../../../libs/libDaisy/src/per/adc.h ****     ~AdcHandle() {}
 6693              		.loc 5 109 5 is_stmt 0 view .LVU1682
 6694              	.LBE1746:
 6695              	.LBB1747:
 6696              	.LBI1747:
 6697              		.file 17 "../../libs/libDaisy/src/sys/../../../../libs/libDaisy/src/per/dac.h"
   1:../../libs/libDaisy/src/sys/../../../../libs/libDaisy/src/per/dac.h **** #pragma once
   2:../../libs/libDaisy/src/sys/../../../../libs/libDaisy/src/per/dac.h **** #ifndef DSY_DAC_H
   3:../../libs/libDaisy/src/sys/../../../../libs/libDaisy/src/per/dac.h **** #define DSY_DAC_H
   4:../../libs/libDaisy/src/sys/../../../../libs/libDaisy/src/per/dac.h **** #include "stm32h7xx_hal.h"
   5:../../libs/libDaisy/src/sys/../../../../libs/libDaisy/src/per/dac.h **** #include "daisy_core.h"
   6:../../libs/libDaisy/src/sys/../../../../libs/libDaisy/src/per/dac.h **** 
   7:../../libs/libDaisy/src/sys/../../../../libs/libDaisy/src/per/dac.h **** namespace daisy
ARM GAS  C:\Users\matte\AppData\Local\Temp\cclPkNhc.s 			page 189


   8:../../libs/libDaisy/src/sys/../../../../libs/libDaisy/src/per/dac.h **** {
   9:../../libs/libDaisy/src/sys/../../../../libs/libDaisy/src/per/dac.h **** /** @brief DAC handle for Built-in DAC Peripheral 
  10:../../libs/libDaisy/src/sys/../../../../libs/libDaisy/src/per/dac.h ****  *  @ingroup per_analog
  11:../../libs/libDaisy/src/sys/../../../../libs/libDaisy/src/per/dac.h ****  ** 
  12:../../libs/libDaisy/src/sys/../../../../libs/libDaisy/src/per/dac.h ****  ** For now only Normal Mode is supported,
  13:../../libs/libDaisy/src/sys/../../../../libs/libDaisy/src/per/dac.h ****  ** Sample and hold mode provides reduced power consumption, but requires a bit more setup.
  14:../../libs/libDaisy/src/sys/../../../../libs/libDaisy/src/per/dac.h ****  **
  15:../../libs/libDaisy/src/sys/../../../../libs/libDaisy/src/per/dac.h ****  ** For now connecting the DAC through other internal peripherals is also not supported.
  16:../../libs/libDaisy/src/sys/../../../../libs/libDaisy/src/per/dac.h ****  **
  17:../../libs/libDaisy/src/sys/../../../../libs/libDaisy/src/per/dac.h ****  ** Since the DAC channels have dedicated pins we don't need to pass in a pin config like with
  18:../../libs/libDaisy/src/sys/../../../../libs/libDaisy/src/per/dac.h ****  ** other modules. However, it is still important to not try to use the DAC pins for anything else.
  19:../../libs/libDaisy/src/sys/../../../../libs/libDaisy/src/per/dac.h ****  ** DAC Channel 1 is on PA4, and DAC Channel 2 is on PA5
  20:../../libs/libDaisy/src/sys/../../../../libs/libDaisy/src/per/dac.h ****  ***/
  21:../../libs/libDaisy/src/sys/../../../../libs/libDaisy/src/per/dac.h **** class DacHandle
  22:../../libs/libDaisy/src/sys/../../../../libs/libDaisy/src/per/dac.h **** {
  23:../../libs/libDaisy/src/sys/../../../../libs/libDaisy/src/per/dac.h ****   public:
  24:../../libs/libDaisy/src/sys/../../../../libs/libDaisy/src/per/dac.h ****     /** Return Values for the DacHandle class */
  25:../../libs/libDaisy/src/sys/../../../../libs/libDaisy/src/per/dac.h ****     enum class Result
  26:../../libs/libDaisy/src/sys/../../../../libs/libDaisy/src/per/dac.h ****     {
  27:../../libs/libDaisy/src/sys/../../../../libs/libDaisy/src/per/dac.h ****         OK,
  28:../../libs/libDaisy/src/sys/../../../../libs/libDaisy/src/per/dac.h ****         ERR,
  29:../../libs/libDaisy/src/sys/../../../../libs/libDaisy/src/per/dac.h ****     };
  30:../../libs/libDaisy/src/sys/../../../../libs/libDaisy/src/per/dac.h **** 
  31:../../libs/libDaisy/src/sys/../../../../libs/libDaisy/src/per/dac.h ****     /** Selects which channel(s) will be configured for use. */
  32:../../libs/libDaisy/src/sys/../../../../libs/libDaisy/src/per/dac.h ****     enum class Channel
  33:../../libs/libDaisy/src/sys/../../../../libs/libDaisy/src/per/dac.h ****     {
  34:../../libs/libDaisy/src/sys/../../../../libs/libDaisy/src/per/dac.h ****         ONE,
  35:../../libs/libDaisy/src/sys/../../../../libs/libDaisy/src/per/dac.h ****         TWO,
  36:../../libs/libDaisy/src/sys/../../../../libs/libDaisy/src/per/dac.h ****         BOTH,
  37:../../libs/libDaisy/src/sys/../../../../libs/libDaisy/src/per/dac.h ****     };
  38:../../libs/libDaisy/src/sys/../../../../libs/libDaisy/src/per/dac.h **** 
  39:../../libs/libDaisy/src/sys/../../../../libs/libDaisy/src/per/dac.h ****     /** Sets the Mode for the DAC channels.
  40:../../libs/libDaisy/src/sys/../../../../libs/libDaisy/src/per/dac.h ****      **
  41:../../libs/libDaisy/src/sys/../../../../libs/libDaisy/src/per/dac.h ****      ** Polling mode uses the blocking mode to transmit a single value at a time.
  42:../../libs/libDaisy/src/sys/../../../../libs/libDaisy/src/per/dac.h ****      **
  43:../../libs/libDaisy/src/sys/../../../../libs/libDaisy/src/per/dac.h ****      ** DMA mode uses a buffer, and periodically transmits it triggering a 
  44:../../libs/libDaisy/src/sys/../../../../libs/libDaisy/src/per/dac.h ****      ** callback to fill the buffer when it is ready for more samples.
  45:../../libs/libDaisy/src/sys/../../../../libs/libDaisy/src/per/dac.h ****      ***/
  46:../../libs/libDaisy/src/sys/../../../../libs/libDaisy/src/per/dac.h ****     enum class Mode
  47:../../libs/libDaisy/src/sys/../../../../libs/libDaisy/src/per/dac.h ****     {
  48:../../libs/libDaisy/src/sys/../../../../libs/libDaisy/src/per/dac.h ****         POLLING,
  49:../../libs/libDaisy/src/sys/../../../../libs/libDaisy/src/per/dac.h ****         DMA,
  50:../../libs/libDaisy/src/sys/../../../../libs/libDaisy/src/per/dac.h ****     };
  51:../../libs/libDaisy/src/sys/../../../../libs/libDaisy/src/per/dac.h **** 
  52:../../libs/libDaisy/src/sys/../../../../libs/libDaisy/src/per/dac.h ****     /** Sets the number of bits per sample transmitted out of the DAC.
  53:../../libs/libDaisy/src/sys/../../../../libs/libDaisy/src/per/dac.h ****      ** The output range will be: 0V - VDDA
  54:../../libs/libDaisy/src/sys/../../../../libs/libDaisy/src/per/dac.h ****      ** The resolution will be roughly: bitdepth / (VDDA - 0V) 
  55:../../libs/libDaisy/src/sys/../../../../libs/libDaisy/src/per/dac.h ****      ***/
  56:../../libs/libDaisy/src/sys/../../../../libs/libDaisy/src/per/dac.h ****     enum class BitDepth
  57:../../libs/libDaisy/src/sys/../../../../libs/libDaisy/src/per/dac.h ****     {
  58:../../libs/libDaisy/src/sys/../../../../libs/libDaisy/src/per/dac.h ****         BITS_8,
  59:../../libs/libDaisy/src/sys/../../../../libs/libDaisy/src/per/dac.h ****         BITS_12
  60:../../libs/libDaisy/src/sys/../../../../libs/libDaisy/src/per/dac.h ****     };
  61:../../libs/libDaisy/src/sys/../../../../libs/libDaisy/src/per/dac.h **** 
  62:../../libs/libDaisy/src/sys/../../../../libs/libDaisy/src/per/dac.h ****     /** Sets whether the DAC output is buffered for higher drive ability. */
  63:../../libs/libDaisy/src/sys/../../../../libs/libDaisy/src/per/dac.h ****     enum class BufferState
  64:../../libs/libDaisy/src/sys/../../../../libs/libDaisy/src/per/dac.h ****     {
ARM GAS  C:\Users\matte\AppData\Local\Temp\cclPkNhc.s 			page 190


  65:../../libs/libDaisy/src/sys/../../../../libs/libDaisy/src/per/dac.h ****         ENABLED,
  66:../../libs/libDaisy/src/sys/../../../../libs/libDaisy/src/per/dac.h ****         DISABLED,
  67:../../libs/libDaisy/src/sys/../../../../libs/libDaisy/src/per/dac.h ****     };
  68:../../libs/libDaisy/src/sys/../../../../libs/libDaisy/src/per/dac.h **** 
  69:../../libs/libDaisy/src/sys/../../../../libs/libDaisy/src/per/dac.h ****     /** Configuration structure for initializing the DAC structure. */
  70:../../libs/libDaisy/src/sys/../../../../libs/libDaisy/src/per/dac.h ****     struct Config
  71:../../libs/libDaisy/src/sys/../../../../libs/libDaisy/src/per/dac.h ****     {
  72:../../libs/libDaisy/src/sys/../../../../libs/libDaisy/src/per/dac.h ****         /** Target Samplerate in Hz used to configure the internal 
  73:../../libs/libDaisy/src/sys/../../../../libs/libDaisy/src/per/dac.h ****          ** timebase for DMA mode. Does nothing in POLLING mode.
  74:../../libs/libDaisy/src/sys/../../../../libs/libDaisy/src/per/dac.h ****          ** If the value is 0 at Init time this will default to 48000Hz 
  75:../../libs/libDaisy/src/sys/../../../../libs/libDaisy/src/per/dac.h ****          ** otherwise the driver will attempt meet the target.*/
  76:../../libs/libDaisy/src/sys/../../../../libs/libDaisy/src/per/dac.h ****         uint32_t target_samplerate;
  77:../../libs/libDaisy/src/sys/../../../../libs/libDaisy/src/per/dac.h **** 
  78:../../libs/libDaisy/src/sys/../../../../libs/libDaisy/src/per/dac.h ****         Channel     chn;
  79:../../libs/libDaisy/src/sys/../../../../libs/libDaisy/src/per/dac.h ****         Mode        mode;
  80:../../libs/libDaisy/src/sys/../../../../libs/libDaisy/src/per/dac.h ****         BitDepth    bitdepth;
  81:../../libs/libDaisy/src/sys/../../../../libs/libDaisy/src/per/dac.h ****         BufferState buff_state;
  82:../../libs/libDaisy/src/sys/../../../../libs/libDaisy/src/per/dac.h ****     };
  83:../../libs/libDaisy/src/sys/../../../../libs/libDaisy/src/per/dac.h **** 
  84:../../libs/libDaisy/src/sys/../../../../libs/libDaisy/src/per/dac.h ****     DacHandle() : pimpl_(nullptr) {}
 6698              		.loc 17 84 5 is_stmt 1 view .LVU1683
 6699              		.loc 17 84 5 is_stmt 0 view .LVU1684
 6700              	.LBE1747:
 6701              	.LBB1750:
 6702              	.LBI1750:
  40:../../libs/libDaisy/src/hid/usb.h **** 
 6703              		.loc 4 40 5 is_stmt 1 view .LVU1685
  40:../../libs/libDaisy/src/hid/usb.h **** 
 6704              		.loc 4 40 5 is_stmt 0 view .LVU1686
 6705              	.LBE1750:
 6706              	.LBB1751:
 6707              	.LBI1751:
 6708              		.file 18 "../../libs/libDaisy/src/per/gpio.h"
   1:../../libs/libDaisy/src/per/gpio.h **** #pragma once
   2:../../libs/libDaisy/src/per/gpio.h **** #ifndef DSY_GPIO_H
   3:../../libs/libDaisy/src/per/gpio.h **** #define DSY_GPIO_H
   4:../../libs/libDaisy/src/per/gpio.h **** #include "daisy_core.h"
   5:../../libs/libDaisy/src/per/gpio.h **** 
   6:../../libs/libDaisy/src/per/gpio.h **** #ifdef __cplusplus
   7:../../libs/libDaisy/src/per/gpio.h **** 
   8:../../libs/libDaisy/src/per/gpio.h **** namespace daisy
   9:../../libs/libDaisy/src/per/gpio.h **** {
  10:../../libs/libDaisy/src/per/gpio.h **** /** @brief General Purpose I/O control 
  11:../../libs/libDaisy/src/per/gpio.h ****  *  @details peripheral control over a single GPIO
  12:../../libs/libDaisy/src/per/gpio.h ****  *  @ingroup peripheral
  13:../../libs/libDaisy/src/per/gpio.h ****  *   
  14:../../libs/libDaisy/src/per/gpio.h ****  *  Button Input (with internal Pullup resistor)
  15:../../libs/libDaisy/src/per/gpio.h ****  *  @include GPIO_Input.cpp 
  16:../../libs/libDaisy/src/per/gpio.h ****  * 
  17:../../libs/libDaisy/src/per/gpio.h ****  *  Output Example (perfect for blinking an LED)
  18:../../libs/libDaisy/src/per/gpio.h ****  *  @include GPIO_Output.cpp
  19:../../libs/libDaisy/src/per/gpio.h ****  * 
  20:../../libs/libDaisy/src/per/gpio.h **** */
  21:../../libs/libDaisy/src/per/gpio.h **** class GPIO
  22:../../libs/libDaisy/src/per/gpio.h **** {
  23:../../libs/libDaisy/src/per/gpio.h ****   public:
  24:../../libs/libDaisy/src/per/gpio.h ****     /** @brief Mode of operation for the specified GPIO */
ARM GAS  C:\Users\matte\AppData\Local\Temp\cclPkNhc.s 			page 191


  25:../../libs/libDaisy/src/per/gpio.h ****     enum class Mode
  26:../../libs/libDaisy/src/per/gpio.h ****     {
  27:../../libs/libDaisy/src/per/gpio.h ****         INPUT,      /**< Input for reading state of pin */
  28:../../libs/libDaisy/src/per/gpio.h ****         OUTPUT,     /**< Output w/ push-pull configuration */
  29:../../libs/libDaisy/src/per/gpio.h ****         OPEN_DRAIN, /**< Output w/ open-drain configuration */
  30:../../libs/libDaisy/src/per/gpio.h ****         ANALOG,     /**< Analog for connection to ADC or DAC peripheral */
  31:../../libs/libDaisy/src/per/gpio.h ****     };
  32:../../libs/libDaisy/src/per/gpio.h **** 
  33:../../libs/libDaisy/src/per/gpio.h ****     /** @brief Configures whether an internal Pull up or Pull down resistor is used. 
  34:../../libs/libDaisy/src/per/gpio.h ****      *  
  35:../../libs/libDaisy/src/per/gpio.h ****      * Internal Pull up/down resistors are typically 40k ohms, and will be between
  36:../../libs/libDaisy/src/per/gpio.h ****      * 30k and 50k
  37:../../libs/libDaisy/src/per/gpio.h ****      * 
  38:../../libs/libDaisy/src/per/gpio.h ****      * When the Pin is configured in Analog mode, the pull up/down resistors are
  39:../../libs/libDaisy/src/per/gpio.h ****      * disabled by hardware. 
  40:../../libs/libDaisy/src/per/gpio.h ****      */
  41:../../libs/libDaisy/src/per/gpio.h ****     enum class Pull
  42:../../libs/libDaisy/src/per/gpio.h ****     {
  43:../../libs/libDaisy/src/per/gpio.h ****         NOPULL,   /**< No pull up resistor */
  44:../../libs/libDaisy/src/per/gpio.h ****         PULLUP,   /**< Internal pull up enabled */
  45:../../libs/libDaisy/src/per/gpio.h ****         PULLDOWN, /**< Internal pull down enabled*/
  46:../../libs/libDaisy/src/per/gpio.h ****     };
  47:../../libs/libDaisy/src/per/gpio.h **** 
  48:../../libs/libDaisy/src/per/gpio.h ****     /** @brief Output speed controls the drive strength, and slew rate of the pin */
  49:../../libs/libDaisy/src/per/gpio.h ****     enum class Speed
  50:../../libs/libDaisy/src/per/gpio.h ****     {
  51:../../libs/libDaisy/src/per/gpio.h ****         LOW,
  52:../../libs/libDaisy/src/per/gpio.h ****         MEDIUM,
  53:../../libs/libDaisy/src/per/gpio.h ****         HIGH,
  54:../../libs/libDaisy/src/per/gpio.h ****         VERY_HIGH,
  55:../../libs/libDaisy/src/per/gpio.h ****     };
  56:../../libs/libDaisy/src/per/gpio.h **** 
  57:../../libs/libDaisy/src/per/gpio.h ****     /** @brief Configuration for a given GPIO */
  58:../../libs/libDaisy/src/per/gpio.h ****     struct Config
  59:../../libs/libDaisy/src/per/gpio.h ****     {
  60:../../libs/libDaisy/src/per/gpio.h ****         Pin   pin;
  61:../../libs/libDaisy/src/per/gpio.h ****         Mode  mode;
  62:../../libs/libDaisy/src/per/gpio.h ****         Pull  pull;
  63:../../libs/libDaisy/src/per/gpio.h ****         Speed speed;
  64:../../libs/libDaisy/src/per/gpio.h **** 
  65:../../libs/libDaisy/src/per/gpio.h ****         /** Constructor with no arguments will prepare an invalid GPIO set as
  66:../../libs/libDaisy/src/per/gpio.h ****          *  an input, with no pullup. 
  67:../../libs/libDaisy/src/per/gpio.h ****          */
  68:../../libs/libDaisy/src/per/gpio.h ****         Config()
  69:../../libs/libDaisy/src/per/gpio.h ****         : pin(), mode(Mode::INPUT), pull(Pull::NOPULL), speed(Speed::LOW)
  70:../../libs/libDaisy/src/per/gpio.h ****         {
  71:../../libs/libDaisy/src/per/gpio.h ****         }
  72:../../libs/libDaisy/src/per/gpio.h ****     };
  73:../../libs/libDaisy/src/per/gpio.h **** 
  74:../../libs/libDaisy/src/per/gpio.h ****     GPIO() {}
 6709              		.loc 18 74 5 is_stmt 1 view .LVU1687
 6710              	.LBB1752:
 6711              	.LBB1753:
 6712              	.LBI1753:
  68:../../libs/libDaisy/src/per/gpio.h ****         : pin(), mode(Mode::INPUT), pull(Pull::NOPULL), speed(Speed::LOW)
 6713              		.loc 18 68 9 view .LVU1688
 6714              	.LBB1754:
ARM GAS  C:\Users\matte\AppData\Local\Temp\cclPkNhc.s 			page 192


 6715              	.LBB1755:
 6716              	.LBB1756:
 6717              	.LBI1756:
 6718              		.loc 15 204 15 view .LVU1689
 6719              		.loc 15 204 15 is_stmt 0 view .LVU1690
 6720              	.LBE1756:
 6721              	.LBE1755:
 6722              	.LBE1754:
 6723              	.LBE1753:
 6724              	.LBE1752:
 6725              	.LBE1751:
 6726              	.LBB1765:
 6727              	.LBI1765:
 6728              		.loc 18 74 5 is_stmt 1 view .LVU1691
 6729              	.LBB1766:
 6730              	.LBB1767:
 6731              	.LBI1767:
  68:../../libs/libDaisy/src/per/gpio.h ****         : pin(), mode(Mode::INPUT), pull(Pull::NOPULL), speed(Speed::LOW)
 6732              		.loc 18 68 9 view .LVU1692
 6733              	.LBB1768:
 6734              	.LBB1769:
 6735              	.LBB1770:
 6736              	.LBI1770:
 6737              		.loc 15 204 15 view .LVU1693
 6738              		.loc 15 204 15 is_stmt 0 view .LVU1694
 6739              	.LBE1770:
 6740              	.LBE1769:
 6741              	.LBE1768:
 6742              	.LBE1767:
 6743              	.LBE1766:
 6744              	.LBE1765:
 6745              	.LBB1779:
 6746              	.LBI1779:
  96:../../libs/libDaisy/src/sys/system.h ****     ~System() {}
 6747              		.loc 3 96 5 is_stmt 1 view .LVU1695
  96:../../libs/libDaisy/src/sys/system.h ****     ~System() {}
 6748              		.loc 3 96 5 is_stmt 0 view .LVU1696
 6749              	.LBE1779:
 6750              	.LBB1780:
 6751              	.LBI1780:
  20:../../libs/libDaisy/src/sys/../../../../libs/libDaisy/src/dev/codec_ak4556.h ****     ~Ak4556() {}
 6752              		.loc 2 20 5 is_stmt 1 view .LVU1697
 6753              	.LBB1781:
 6754              	.LBI1781:
 6755              		.loc 18 74 5 view .LVU1698
 6756              	.LBB1782:
 6757              	.LBB1783:
 6758              	.LBI1783:
  68:../../libs/libDaisy/src/per/gpio.h ****         : pin(), mode(Mode::INPUT), pull(Pull::NOPULL), speed(Speed::LOW)
 6759              		.loc 18 68 9 view .LVU1699
 6760              	.LBB1784:
 6761              	.LBB1785:
 6762              	.LBB1786:
 6763              	.LBI1786:
 6764              		.loc 15 204 15 view .LVU1700
 6765              		.loc 15 204 15 is_stmt 0 view .LVU1701
 6766              	.LBE1786:
ARM GAS  C:\Users\matte\AppData\Local\Temp\cclPkNhc.s 			page 193


 6767              	.LBE1785:
 6768              	.LBE1784:
 6769              	.LBE1783:
 6770              	.LBE1782:
 6771              	.LBE1781:
 6772              	.LBE1780:
 6773              	.LBB1797:
 6774              	.LBI1797:
 6775              		.file 19 "../../libs/libDaisy/src/per/sai.h"
   1:../../libs/libDaisy/src/per/sai.h **** #pragma once
   2:../../libs/libDaisy/src/per/sai.h **** #ifndef DSY_SAI_H
   3:../../libs/libDaisy/src/per/sai.h **** #define DSY_SAI_H
   4:../../libs/libDaisy/src/per/sai.h **** 
   5:../../libs/libDaisy/src/per/sai.h **** #include "util/hal_map.h"
   6:../../libs/libDaisy/src/per/sai.h **** #include "daisy_core.h"
   7:../../libs/libDaisy/src/per/sai.h **** 
   8:../../libs/libDaisy/src/per/sai.h **** namespace daisy
   9:../../libs/libDaisy/src/per/sai.h **** {
  10:../../libs/libDaisy/src/per/sai.h **** /** 
  11:../../libs/libDaisy/src/per/sai.h ****  * Support for I2S Audio Protocol with different bit-depth, samplerate options
  12:../../libs/libDaisy/src/per/sai.h ****  * Allows for master or slave, as well as freedom of selecting direction, 
  13:../../libs/libDaisy/src/per/sai.h ****  * and other behavior for each peripheral, and block.
  14:../../libs/libDaisy/src/per/sai.h ****  * 
  15:../../libs/libDaisy/src/per/sai.h ****  * DMA Transfer commands must use buffers located within non-cached memory or use cache maintenance
  16:../../libs/libDaisy/src/per/sai.h ****  * To declare an unitialized global element in the DMA memory section:
  17:../../libs/libDaisy/src/per/sai.h ****  *    int32_t DSY_DMA_BUFFER_SECTOR my_buffer[96];
  18:../../libs/libDaisy/src/per/sai.h ****  *
  19:../../libs/libDaisy/src/per/sai.h ****  * Callback functions will be called once per half of the buffer. In the above example, 
  20:../../libs/libDaisy/src/per/sai.h ****  * the callback function would be called once for every 48 samples.
  21:../../libs/libDaisy/src/per/sai.h ****  * 
  22:../../libs/libDaisy/src/per/sai.h ****  * Use SAI Handle like this:
  23:../../libs/libDaisy/src/per/sai.h ****  * 
  24:../../libs/libDaisy/src/per/sai.h ****  *  SaiHandle::Config sai_config;
  25:../../libs/libDaisy/src/per/sai.h ****  *  sai_config.periph          = SaiHandle::Config::Peripheral::SAI_1;
  26:../../libs/libDaisy/src/per/sai.h ****  *  sai_config.sr              = SaiHandle::Config::SampleRate::SAI_48KHZ;
  27:../../libs/libDaisy/src/per/sai.h ****  *  sai_config.bit_depth       = SaiHandle::Config::BitDepth::SAI_24BIT;
  28:../../libs/libDaisy/src/per/sai.h ****  *  sai_config.a_sync          = SaiHandle::Config::Sync::MASTER;
  29:../../libs/libDaisy/src/per/sai.h ****  *  sai_config.b_sync          = SaiHandle::Config::Sync::SLAVE;
  30:../../libs/libDaisy/src/per/sai.h ****  *  sai_config.a_dir           = SaiHandle::Config::Direction::RECEIVE;
  31:../../libs/libDaisy/src/per/sai.h ****  *  sai_config.b_dir           = SaiHandle::Config::Direction::TRANSMIT;
  32:../../libs/libDaisy/src/per/sai.h ****  *  sai_config.pin_config.fs   = {DSY_GPIOE, 4};
  33:../../libs/libDaisy/src/per/sai.h ****  *  sai_config.pin_config.mclk = {DSY_GPIOE, 2};
  34:../../libs/libDaisy/src/per/sai.h ****  *  sai_config.pin_config.sck  = {DSY_GPIOE, 5};
  35:../../libs/libDaisy/src/per/sai.h ****  *  sai_config.pin_config.sa   = {DSY_GPIOE, 6};
  36:../../libs/libDaisy/src/per/sai.h ****  *  sai_config.pin_config.sb   = {DSY_GPIOE, 3};
  37:../../libs/libDaisy/src/per/sai.h ****  *  // Then Initialize
  38:../../libs/libDaisy/src/per/sai.h ****  *  SaiHandle sai;
  39:../../libs/libDaisy/src/per/sai.h ****  *  sai.Init(sai_config);
  40:../../libs/libDaisy/src/per/sai.h ****  *  // Now you can use it:
  41:../../libs/libDaisy/src/per/sai.h ****  *  sai.StartDma(. . .);
  42:../../libs/libDaisy/src/per/sai.h ****  */
  43:../../libs/libDaisy/src/per/sai.h **** class SaiHandle
  44:../../libs/libDaisy/src/per/sai.h **** {
  45:../../libs/libDaisy/src/per/sai.h ****   public:
  46:../../libs/libDaisy/src/per/sai.h ****     /** Contains settings for initialising an SAI Interface */
  47:../../libs/libDaisy/src/per/sai.h ****     struct Config
  48:../../libs/libDaisy/src/per/sai.h ****     {
ARM GAS  C:\Users\matte\AppData\Local\Temp\cclPkNhc.s 			page 194


  49:../../libs/libDaisy/src/per/sai.h ****         /** Specifies the internal peripheral to use (mapped to different hardware pins) */
  50:../../libs/libDaisy/src/per/sai.h ****         enum class Peripheral
  51:../../libs/libDaisy/src/per/sai.h ****         {
  52:../../libs/libDaisy/src/per/sai.h ****             SAI_1,
  53:../../libs/libDaisy/src/per/sai.h ****             SAI_2,
  54:../../libs/libDaisy/src/per/sai.h ****         };
  55:../../libs/libDaisy/src/per/sai.h **** 
  56:../../libs/libDaisy/src/per/sai.h ****         /** Rate at which samples will be streaming to/from the device. */
  57:../../libs/libDaisy/src/per/sai.h ****         enum class SampleRate
  58:../../libs/libDaisy/src/per/sai.h ****         {
  59:../../libs/libDaisy/src/per/sai.h ****             SAI_8KHZ,
  60:../../libs/libDaisy/src/per/sai.h ****             SAI_16KHZ,
  61:../../libs/libDaisy/src/per/sai.h ****             SAI_32KHZ,
  62:../../libs/libDaisy/src/per/sai.h ****             SAI_48KHZ,
  63:../../libs/libDaisy/src/per/sai.h ****             SAI_96KHZ,
  64:../../libs/libDaisy/src/per/sai.h ****         };
  65:../../libs/libDaisy/src/per/sai.h **** 
  66:../../libs/libDaisy/src/per/sai.h ****         /** Bit Depth that the hardware expects to be transferred to/from the device. */
  67:../../libs/libDaisy/src/per/sai.h ****         enum class BitDepth
  68:../../libs/libDaisy/src/per/sai.h ****         {
  69:../../libs/libDaisy/src/per/sai.h ****             SAI_16BIT,
  70:../../libs/libDaisy/src/per/sai.h ****             SAI_24BIT,
  71:../../libs/libDaisy/src/per/sai.h ****             SAI_32BIT,
  72:../../libs/libDaisy/src/per/sai.h ****         };
  73:../../libs/libDaisy/src/per/sai.h **** 
  74:../../libs/libDaisy/src/per/sai.h ****         /** Specifies whether a particular block is the master or the slave 
  75:../../libs/libDaisy/src/per/sai.h ****          ** If both are set to slave, no MCLK signal will be used, and it is
  76:../../libs/libDaisy/src/per/sai.h ****          ** expected that the codec will have its own xtal.
  77:../../libs/libDaisy/src/per/sai.h ****          */
  78:../../libs/libDaisy/src/per/sai.h ****         enum class Sync
  79:../../libs/libDaisy/src/per/sai.h ****         {
  80:../../libs/libDaisy/src/per/sai.h ****             MASTER,
  81:../../libs/libDaisy/src/per/sai.h ****             SLAVE,
  82:../../libs/libDaisy/src/per/sai.h ****         };
  83:../../libs/libDaisy/src/per/sai.h **** 
  84:../../libs/libDaisy/src/per/sai.h ****         /** Specifies the direction for each peripheral block. */
  85:../../libs/libDaisy/src/per/sai.h ****         enum class Direction
  86:../../libs/libDaisy/src/per/sai.h ****         {
  87:../../libs/libDaisy/src/per/sai.h ****             TRANSMIT,
  88:../../libs/libDaisy/src/per/sai.h ****             RECEIVE,
  89:../../libs/libDaisy/src/per/sai.h ****         };
  90:../../libs/libDaisy/src/per/sai.h **** 
  91:../../libs/libDaisy/src/per/sai.h ****         Peripheral periph;
  92:../../libs/libDaisy/src/per/sai.h ****         struct
  93:../../libs/libDaisy/src/per/sai.h ****         {
  94:../../libs/libDaisy/src/per/sai.h ****             Pin mclk, fs, sck, sa, sb;
  95:../../libs/libDaisy/src/per/sai.h ****         } pin_config;
  96:../../libs/libDaisy/src/per/sai.h ****         SampleRate sr;
  97:../../libs/libDaisy/src/per/sai.h ****         BitDepth   bit_depth;
  98:../../libs/libDaisy/src/per/sai.h ****         Sync       a_sync, b_sync;
  99:../../libs/libDaisy/src/per/sai.h ****         Direction  a_dir, b_dir;
 100:../../libs/libDaisy/src/per/sai.h ****     };
 101:../../libs/libDaisy/src/per/sai.h **** 
 102:../../libs/libDaisy/src/per/sai.h ****     /** Return values for SAI functions */
 103:../../libs/libDaisy/src/per/sai.h ****     enum class Result
 104:../../libs/libDaisy/src/per/sai.h ****     {
 105:../../libs/libDaisy/src/per/sai.h ****         OK,
ARM GAS  C:\Users\matte\AppData\Local\Temp\cclPkNhc.s 			page 195


 106:../../libs/libDaisy/src/per/sai.h ****         ERR,
 107:../../libs/libDaisy/src/per/sai.h ****     };
 108:../../libs/libDaisy/src/per/sai.h **** 
 109:../../libs/libDaisy/src/per/sai.h ****     SaiHandle() : pimpl_(nullptr) {}
 6776              		.loc 19 109 5 is_stmt 1 view .LVU1702
 6777              	.LBE1797:
 6778              	.LBE1731:
 6779              	.LBE1730:
 6780              	.LBE1729:
 6781              	.LBE1728:
 6782              		.loc 11 70 2 is_stmt 0 view .LVU1703
 6783 0000 38B5     		push	{r3, r4, r5, lr}
 6784              		.cfi_def_cfa_offset 16
 6785              		.cfi_offset 3, -16
 6786              		.cfi_offset 4, -12
 6787              		.cfi_offset 5, -8
 6788              		.cfi_offset 14, -4
 6789              	.LBB1840:
 6790              	.LBB1838:
 6791              	.LBB1814:
 6792              	.LBB1810:
 6793              	.LBB1800:
 6794              	.LBB1733:
 6795              	.LBB1734:
 6796              		.loc 16 167 34 view .LVU1704
 6797 0002 1948     		ldr	r0, .L421
 6798 0004 0024     		movs	r4, #0
 6799              	.LBE1734:
 6800              	.LBE1733:
 6801              	.LBE1800:
  21:../../libs/libDaisy/src/sys/../../../../libs/libDaisy/src/daisy_seed.h ****     ~DaisySeed() {}
 6802              		.loc 1 21 17 view .LVU1705
 6803 0006 4FF60B73 		movw	r3, #65291
 6804 000a 6FF0F411 		mvn	r1, #15991028
 6805              	.LBE1810:
 6806              	.LBE1814:
  18:main.cpp      **** DaisySeed hw;
 6807              		.loc 11 18 11 view .LVU1706
 6808 000e 174A     		ldr	r2, .L421+4
 6809              	.LBB1815:
 6810              	.LBB1811:
  21:../../libs/libDaisy/src/sys/../../../../libs/libDaisy/src/daisy_seed.h ****     ~DaisySeed() {}
 6811              		.loc 1 21 17 view .LVU1707
 6812 0010 8365     		str	r3, [r0, #88]
 6813              	.LBB1801:
 6814              	.LBB1744:
 6815              	.LBB1745:
  87:../../libs/libDaisy/src/sys/../../../../libs/libDaisy/src/hid/audio.h ****     ~AudioHandle() {}
 6816              		.loc 6 87 35 view .LVU1708
 6817 0012 4461     		str	r4, [r0, #20]
 6818              	.LBE1745:
 6819              	.LBE1744:
 6820              	.LBE1801:
 6821              	.LBB1802:
 6822              	.LBB1748:
 6823              	.LBB1749:
 6824              		.loc 17 84 33 view .LVU1709
ARM GAS  C:\Users\matte\AppData\Local\Temp\cclPkNhc.s 			page 196


 6825 0014 0462     		str	r4, [r0, #32]
 6826              	.LBE1749:
 6827              	.LBE1748:
 6828              	.LBE1802:
 6829              	.LBB1803:
 6830              	.LBB1795:
 6831              	.LBB1793:
 6832              	.LBB1791:
 6833              	.LBB1789:
 6834              	.LBB1787:
  69:../../libs/libDaisy/src/per/gpio.h ****         {
 6835              		.loc 18 69 73 view .LVU1710
 6836 0016 4466     		str	r4, [r0, #100]
 6837              	.LBE1787:
 6838              	.LBE1789:
 6839              	.LBE1791:
 6840              	.LBE1793:
 6841              	.LBE1795:
 6842              	.LBE1803:
 6843              	.LBB1804:
 6844              	.LBB1798:
 6845              	.LBB1799:
 6846              		.loc 19 109 33 view .LVU1711
 6847 0018 0467     		str	r4, [r0, #112]
 6848              	.LVL476:
 6849              		.loc 19 109 33 view .LVU1712
 6850              	.LBE1799:
 6851              	.LBE1798:
 6852              	.LBE1804:
 6853              	.LBE1811:
 6854              	.LBE1815:
 6855              	.LBB1816:
 6856              	.LBB1817:
 6857              	.LBB1818:
  17:../../libs/libDaisy/src/sys/../../../../libs/libDaisy/src/hid/disp/oled_display.h ****     virtual ~OledDisplay() {}
 6858              		.loc 8 17 19 view .LVU1713
 6859 001a 154D     		ldr	r5, .L421+8
 6860              	.LBE1818:
 6861              	.LBE1817:
 6862              	.LBE1816:
 6863              	.LBB1833:
 6864              	.LBB1812:
 6865              	.LBB1805:
 6866              	.LBB1763:
 6867              	.LBB1761:
 6868              	.LBB1759:
 6869              	.LBB1757:
  69:../../libs/libDaisy/src/per/gpio.h ****         {
 6870              		.loc 18 69 73 view .LVU1714
 6871 001c C0E90A34 		strd	r3, r4, [r0, #40]
 6872              	.LBE1757:
 6873              	.LBE1759:
 6874              	.LBE1761:
 6875              	.LBE1763:
 6876              	.LBE1805:
 6877              	.LBB1806:
 6878              	.LBB1777:
ARM GAS  C:\Users\matte\AppData\Local\Temp\cclPkNhc.s 			page 197


 6879              	.LBB1775:
 6880              	.LBB1773:
 6881              	.LBB1771:
 6882 0020 C0E90F34 		strd	r3, r4, [r0, #60]
 6883              	.LBE1771:
 6884              	.LBE1773:
 6885              	.LBE1775:
 6886              	.LBE1777:
 6887              	.LBE1806:
  21:../../libs/libDaisy/src/sys/../../../../libs/libDaisy/src/daisy_seed.h ****     ~DaisySeed() {}
 6888              		.loc 1 21 17 view .LVU1715
 6889 0024 C0E90041 		strd	r4, r1, [r0]
 6890 0028 C0E90211 		strd	r1, r1, [r0, #8]
 6891              	.LBB1807:
 6892              	.LBB1764:
 6893              	.LBB1762:
 6894              	.LBB1760:
 6895              	.LBB1758:
  69:../../libs/libDaisy/src/per/gpio.h ****         {
 6896              		.loc 18 69 73 view .LVU1716
 6897 002c C0E90C44 		strd	r4, r4, [r0, #48]
 6898              	.LBE1758:
 6899              	.LBE1760:
 6900              	.LBE1762:
 6901              	.LBE1764:
 6902              	.LBE1807:
 6903              	.LBE1812:
 6904              	.LBE1833:
  18:main.cpp      **** DaisySeed hw;
 6905              		.loc 11 18 11 view .LVU1717
 6906 0030 1049     		ldr	r1, .L421+12
 6907              	.LBB1834:
 6908              	.LBB1813:
 6909              	.LBB1808:
 6910              	.LBB1778:
 6911              	.LBB1776:
 6912              	.LBB1774:
 6913              	.LBB1772:
  69:../../libs/libDaisy/src/per/gpio.h ****         {
 6914              		.loc 18 69 73 view .LVU1718
 6915 0032 C0E91144 		strd	r4, r4, [r0, #68]
 6916              	.LBE1772:
 6917              	.LBE1774:
 6918              	.LBE1776:
 6919              	.LBE1778:
 6920              	.LBE1808:
 6921              	.LBB1809:
 6922              	.LBB1796:
 6923              	.LBB1794:
 6924              	.LBB1792:
 6925              	.LBB1790:
 6926              	.LBB1788:
 6927 0036 C0E91744 		strd	r4, r4, [r0, #92]
 6928              	.LBE1788:
 6929              	.LBE1790:
 6930              	.LBE1792:
 6931              	.LBE1794:
ARM GAS  C:\Users\matte\AppData\Local\Temp\cclPkNhc.s 			page 198


 6932              	.LBE1796:
 6933              	.LBE1809:
 6934              	.LBE1813:
 6935              	.LBE1834:
  18:main.cpp      **** DaisySeed hw;
 6936              		.loc 11 18 11 view .LVU1719
 6937 003a FFF7FEFF 		bl	__aeabi_atexit
 6938              	.LVL477:
 6939              	.LBB1835:
 6940              	.LBI1835:
  23:../../libs/DaisySP/Source/Synthesis/oscillator.h ****     ~Oscillator() {}
 6941              		.loc 7 23 5 is_stmt 1 view .LVU1720
  23:../../libs/DaisySP/Source/Synthesis/oscillator.h ****     ~Oscillator() {}
 6942              		.loc 7 23 5 is_stmt 0 view .LVU1721
 6943              	.LBE1835:
  21:main.cpp      **** static Oscillator osc;
 6944              		.loc 11 21 19 view .LVU1722
 6945 003e 0B4A     		ldr	r2, .L421+4
 6946 0040 0D49     		ldr	r1, .L421+16
 6947 0042 0E48     		ldr	r0, .L421+20
 6948 0044 FFF7FEFF 		bl	__aeabi_atexit
 6949              	.LVL478:
 6950              	.LBB1836:
 6951              	.LBI1816:
  17:../../libs/libDaisy/src/sys/../../../../libs/libDaisy/src/hid/disp/oled_display.h ****     virtual ~OledDisplay() {}
 6952              		.loc 8 17 5 is_stmt 1 view .LVU1723
 6953              	.LBB1831:
 6954              	.LBB1829:
 6955              	.LBB1819:
 6956              	.LBI1819:
 218:../../libs/libDaisy/src/sys/../../../../libs/libDaisy/src/hid/disp/display.h ****     virtual ~OneBitGraphicsDisplayImpl() {}
 6957              		.loc 9 218 5 view .LVU1724
 6958              	.LBB1820:
 6959              	.LBI1820:
  22:../../libs/libDaisy/src/sys/../../../../libs/libDaisy/src/hid/disp/display.h ****     virtual ~OneBitGraphicsDisplay() {}
 6960              		.loc 9 22 5 view .LVU1725
  22:../../libs/libDaisy/src/sys/../../../../libs/libDaisy/src/hid/disp/display.h ****     virtual ~OneBitGraphicsDisplay() {}
 6961              		.loc 9 22 5 is_stmt 0 view .LVU1726
 6962              	.LBE1820:
 6963              	.LBE1819:
  17:../../libs/libDaisy/src/sys/../../../../libs/libDaisy/src/hid/disp/oled_display.h ****     virtual ~OledDisplay() {}
 6964              		.loc 8 17 19 view .LVU1727
 6965 0048 0D4B     		ldr	r3, .L421+24
 6966              	.LBE1829:
 6967              	.LBE1831:
 6968              	.LBE1836:
  24:main.cpp      **** MyOledDisplay disp;
 6969              		.loc 11 24 15 view .LVU1728
 6970 004a 084A     		ldr	r2, .L421+4
 6971 004c 2846     		mov	r0, r5
 6972 004e 0D49     		ldr	r1, .L421+28
 6973              	.LBB1837:
 6974              	.LBB1832:
 6975              	.LBB1830:
 6976              	.LBB1821:
 6977              	.LBB1822:
 6978              	.LBB1823:
ARM GAS  C:\Users\matte\AppData\Local\Temp\cclPkNhc.s 			page 199


 6979              	.LBB1824:
 6980              	.LBB1825:
  60:../../libs/libDaisy/src/per/i2c.h ****             Pin scl;  /**< & */
  61:../../libs/libDaisy/src/per/i2c.h ****             Pin sda;  /**< & */
  62:../../libs/libDaisy/src/per/i2c.h ****         } pin_config; /**< & */
  63:../../libs/libDaisy/src/per/i2c.h **** 
  64:../../libs/libDaisy/src/per/i2c.h ****         Speed speed; /**< & */
  65:../../libs/libDaisy/src/per/i2c.h ****         Mode  mode;  /**< & */
  66:../../libs/libDaisy/src/per/i2c.h ****         // 0x10 is chosen as a default to avoid conflicts with reserved addresses
  67:../../libs/libDaisy/src/per/i2c.h ****         uint8_t address = 0x10; /**< & */
  68:../../libs/libDaisy/src/per/i2c.h ****     };
  69:../../libs/libDaisy/src/per/i2c.h **** 
  70:../../libs/libDaisy/src/per/i2c.h ****     /** Return values for I2C functions. */
  71:../../libs/libDaisy/src/per/i2c.h ****     enum class Result
  72:../../libs/libDaisy/src/per/i2c.h ****     {
  73:../../libs/libDaisy/src/per/i2c.h ****         OK, /**< & */
  74:../../libs/libDaisy/src/per/i2c.h ****         ERR /**< & */
  75:../../libs/libDaisy/src/per/i2c.h ****     };
  76:../../libs/libDaisy/src/per/i2c.h **** 
  77:../../libs/libDaisy/src/per/i2c.h ****     enum class Direction
  78:../../libs/libDaisy/src/per/i2c.h ****     {
  79:../../libs/libDaisy/src/per/i2c.h ****         TRANSMIT, /**< & */
  80:../../libs/libDaisy/src/per/i2c.h ****         RECEIVE,  /**< & */
  81:../../libs/libDaisy/src/per/i2c.h ****     };
  82:../../libs/libDaisy/src/per/i2c.h **** 
  83:../../libs/libDaisy/src/per/i2c.h ****     I2CHandle() : pimpl_(nullptr) {}
 6981              		.loc 14 83 33 view .LVU1729
 6982 0050 AC60     		str	r4, [r5, #8]
 6983              	.LBE1825:
 6984              	.LBE1824:
 6985              	.LBE1823:
 6986              	.LBE1822:
 6987              	.LBE1821:
  17:../../libs/libDaisy/src/sys/../../../../libs/libDaisy/src/hid/disp/oled_display.h ****     virtual ~OledDisplay() {}
 6988              		.loc 8 17 19 view .LVU1730
 6989 0052 2B60     		str	r3, [r5]
 6990              	.LVL479:
 6991              	.LBB1828:
 6992              	.LBI1821:
 233:../../libs/libDaisy/src/sys/../../../../libs/libDaisy/src/dev/oled_ssd130x.h **** {
 6993              		.loc 10 233 7 is_stmt 1 view .LVU1731
 6994              	.LBB1827:
 6995              	.LBI1822:
  15:../../libs/libDaisy/src/sys/../../../../libs/libDaisy/src/dev/oled_ssd130x.h **** {
 6996              		.loc 10 15 7 view .LVU1732
 6997              	.LBB1826:
 6998              	.LBI1823:
 6999              		.loc 14 83 5 view .LVU1733
 7000              		.loc 14 83 5 is_stmt 0 view .LVU1734
 7001              	.LBE1826:
 7002              	.LBE1827:
 7003              	.LBE1828:
 7004              	.LBE1830:
 7005              	.LBE1832:
 7006              	.LBE1837:
  24:main.cpp      **** MyOledDisplay disp;
 7007              		.loc 11 24 15 view .LVU1735
ARM GAS  C:\Users\matte\AppData\Local\Temp\cclPkNhc.s 			page 200


 7008 0054 FFF7FEFF 		bl	__aeabi_atexit
 7009              	.LVL480:
  26:main.cpp      **** DisplayHandler disp_handle (&disp);
 7010              		.loc 11 26 34 view .LVU1736
 7011 0058 2946     		mov	r1, r5
 7012 005a 0122     		movs	r2, #1
 7013 005c 0A48     		ldr	r0, .L421+32
 7014              	.LBE1838:
 7015              	.LBE1840:
 7016              		.loc 11 70 2 view .LVU1737
 7017 005e BDE83840 		pop	{r3, r4, r5, lr}
 7018              		.cfi_restore 14
 7019              		.cfi_restore 5
 7020              		.cfi_restore 4
 7021              		.cfi_restore 3
 7022              		.cfi_def_cfa_offset 0
 7023              	.LBB1841:
 7024              	.LBB1839:
  26:main.cpp      **** DisplayHandler disp_handle (&disp);
 7025              		.loc 11 26 34 view .LVU1738
 7026 0062 FFF7FEBF 		b	_ZN14DisplayHandlerC1EPN5daisy11OledDisplayINS0_13SSD130xDriverILj128ELj64ENS0_19SSD130xI2CTrans
 7027              	.LVL481:
 7028              	.L422:
 7029 0066 00BF     		.align	2
 7030              	.L421:
 7031 0068 00000000 		.word	.LANCHOR2
 7032 006c 00000000 		.word	__dso_handle
 7033 0070 00000000 		.word	.LANCHOR3
 7034 0074 00000000 		.word	_ZN5daisy9DaisySeedD1Ev
 7035 0078 00000000 		.word	_ZN7daisysp10OscillatorD1Ev
 7036 007c 00000000 		.word	.LANCHOR0
 7037 0080 08000000 		.word	_ZTVN5daisy11OledDisplayINS_13SSD130xDriverILj128ELj64ENS_19SSD130xI2CTransportEEEEE+8
 7038 0084 00000000 		.word	_ZN5daisy11OledDisplayINS_13SSD130xDriverILj128ELj64ENS_19SSD130xI2CTransportEEEED1Ev
 7039 0088 00000000 		.word	.LANCHOR1
 7040              	.LBE1839:
 7041              	.LBE1841:
 7042              		.cfi_endproc
 7043              	.LFE5464:
 7045              		.section	.init_array,"aw",%init_array
 7046              		.align	2
 7047 0000 00000000 		.word	_GLOBAL__sub_I_hw(target1)
 7048              		.weak	_ZTVN5daisy11OledDisplayINS_13SSD130xDriverILj128ELj64ENS_19SSD130xI2CTransportEEEEE
 7049              		.section	.rodata._ZTVN5daisy11OledDisplayINS_13SSD130xDriverILj128ELj64ENS_19SSD130xI2CTransportEE
 7050              		.align	2
 7053              	_ZTVN5daisy11OledDisplayINS_13SSD130xDriverILj128ELj64ENS_19SSD130xI2CTransportEEEEE:
 7054 0000 00000000 		.word	0
 7055 0004 00000000 		.word	0
 7056 0008 00000000 		.word	_ZN5daisy11OledDisplayINS_13SSD130xDriverILj128ELj64ENS_19SSD130xI2CTransportEEEED1Ev
 7057 000c 00000000 		.word	_ZN5daisy11OledDisplayINS_13SSD130xDriverILj128ELj64ENS_19SSD130xI2CTransportEEEED0Ev
 7058 0010 00000000 		.word	_ZNK5daisy11OledDisplayINS_13SSD130xDriverILj128ELj64ENS_19SSD130xI2CTransportEEEE6HeightEv
 7059 0014 00000000 		.word	_ZNK5daisy11OledDisplayINS_13SSD130xDriverILj128ELj64ENS_19SSD130xI2CTransportEEEE5WidthEv
 7060 0018 00000000 		.word	_ZN5daisy11OledDisplayINS_13SSD130xDriverILj128ELj64ENS_19SSD130xI2CTransportEEEE4FillEb
 7061 001c 00000000 		.word	_ZN5daisy11OledDisplayINS_13SSD130xDriverILj128ELj64ENS_19SSD130xI2CTransportEEEE9DrawPixelE
 7062 0020 00000000 		.word	_ZN5daisy25OneBitGraphicsDisplayImplINS_11OledDisplayINS_13SSD130xDriverILj128ELj64ENS_19SSD
 7063 0024 00000000 		.word	_ZN5daisy25OneBitGraphicsDisplayImplINS_11OledDisplayINS_13SSD130xDriverILj128ELj64ENS_19SSD
 7064 0028 00000000 		.word	_ZN5daisy25OneBitGraphicsDisplayImplINS_11OledDisplayINS_13SSD130xDriverILj128ELj64ENS_19SSD
 7065 002c 00000000 		.word	_ZN5daisy25OneBitGraphicsDisplayImplINS_11OledDisplayINS_13SSD130xDriverILj128ELj64ENS_19SSD
ARM GAS  C:\Users\matte\AppData\Local\Temp\cclPkNhc.s 			page 201


 7066 0030 00000000 		.word	_ZN5daisy25OneBitGraphicsDisplayImplINS_11OledDisplayINS_13SSD130xDriverILj128ELj64ENS_19SSD
 7067 0034 00000000 		.word	_ZN5daisy25OneBitGraphicsDisplayImplINS_11OledDisplayINS_13SSD130xDriverILj128ELj64ENS_19SSD
 7068 0038 00000000 		.word	_ZN5daisy11OledDisplayINS_13SSD130xDriverILj128ELj64ENS_19SSD130xI2CTransportEEEE6UpdateEv
 7069              		.global	disp_handle
 7070              		.global	disp
 7071              		.global	hw
 7072              		.section	.bss._ZL3osc,"aw",%nobits
 7073              		.align	2
 7074              		.set	.LANCHOR0,. + 0
 7077              	_ZL3osc:
 7078 0000 00000000 		.space	44
 7078      00000000 
 7078      00000000 
 7078      00000000 
 7078      00000000 
 7079              		.section	.bss.disp,"aw",%nobits
 7080              		.align	2
 7081              		.set	.LANCHOR3,. + 0
 7084              	disp:
 7085 0000 00000000 		.space	1040
 7085      00000000 
 7085      00000000 
 7085      00000000 
 7085      00000000 
 7086              		.section	.bss.disp_handle,"aw",%nobits
 7087              		.align	2
 7088              		.set	.LANCHOR1,. + 0
 7091              	disp_handle:
 7092 0000 00000000 		.space	2072
 7092      00000000 
 7092      00000000 
 7092      00000000 
 7092      00000000 
 7093              		.section	.bss.hw,"aw",%nobits
 7094              		.align	2
 7095              		.set	.LANCHOR2,. + 0
 7098              	hw:
 7099 0000 00000000 		.space	116
 7099      00000000 
 7099      00000000 
 7099      00000000 
 7099      00000000 
 7100              		.text
 7101              	.Letext0:
 7102              		.file 20 "c:\\program files\\daisytoolchain\\arm-none-eabi\\include\\machine\\_default_types.h"
 7103              		.file 21 "c:\\program files\\daisytoolchain\\arm-none-eabi\\include\\sys\\_stdint.h"
 7104              		.file 22 "c:\\program files\\daisytoolchain\\arm-none-eabi\\include\\stdint.h"
 7105              		.file 23 "c:\\program files\\daisytoolchain\\lib\\gcc\\arm-none-eabi\\10.2.1\\include\\stddef.h"
 7106              		.file 24 "c:\\program files\\daisytoolchain\\arm-none-eabi\\include\\c++\\10.2.1\\bits\\std_abs.h"
 7107              		.file 25 "c:\\program files\\daisytoolchain\\arm-none-eabi\\include\\c++\\10.2.1\\cstdlib"
 7108              		.file 26 "c:\\program files\\daisytoolchain\\arm-none-eabi\\include\\c++\\10.2.1\\cstdint"
 7109              		.file 27 "c:\\program files\\daisytoolchain\\arm-none-eabi\\include\\c++\\10.2.1\\type_traits"
 7110              		.file 28 "c:\\program files\\daisytoolchain\\arm-none-eabi\\include\\c++\\10.2.1\\debug\\debug.h"
 7111              		.file 29 "c:\\program files\\daisytoolchain\\arm-none-eabi\\include\\c++\\10.2.1\\arm-none-eabi\\t
 7112              		.file 30 "c:\\program files\\daisytoolchain\\arm-none-eabi\\include\\c++\\10.2.1\\bits\\algorithmf
 7113              		.file 31 "c:\\program files\\daisytoolchain\\arm-none-eabi\\include\\c++\\10.2.1\\bits\\stl_pair.h
 7114              		.file 32 "c:\\program files\\daisytoolchain\\arm-none-eabi\\include\\c++\\10.2.1\\bits\\exception_
ARM GAS  C:\Users\matte\AppData\Local\Temp\cclPkNhc.s 			page 202


 7115              		.file 33 "c:\\program files\\daisytoolchain\\arm-none-eabi\\include\\c++\\10.2.1\\cstdarg"
 7116              		.file 34 "c:\\program files\\daisytoolchain\\arm-none-eabi\\include\\c++\\10.2.1\\cstdio"
 7117              		.file 35 "c:\\program files\\daisytoolchain\\arm-none-eabi\\include\\c++\\10.2.1\\cstring"
 7118              		.file 36 "c:\\program files\\daisytoolchain\\arm-none-eabi\\include\\c++\\10.2.1\\cwchar"
 7119              		.file 37 "c:\\program files\\daisytoolchain\\arm-none-eabi\\include\\c++\\10.2.1\\clocale"
 7120              		.file 38 "c:\\program files\\daisytoolchain\\arm-none-eabi\\include\\c++\\10.2.1\\bits\\basic_stri
 7121              		.file 39 "c:\\program files\\daisytoolchain\\arm-none-eabi\\include\\c++\\10.2.1\\bits\\stl_tempbu
 7122              		.file 40 "c:\\program files\\daisytoolchain\\arm-none-eabi\\include\\c++\\10.2.1\\bits\\predefined
 7123              		.file 41 "c:\\program files\\daisytoolchain\\arm-none-eabi\\include\\sys\\_types.h"
 7124              		.file 42 "c:\\program files\\daisytoolchain\\arm-none-eabi\\include\\sys\\reent.h"
 7125              		.file 43 "c:\\program files\\daisytoolchain\\arm-none-eabi\\include\\sys\\lock.h"
 7126              		.file 44 "c:\\program files\\daisytoolchain\\arm-none-eabi\\include\\math.h"
 7127              		.file 45 "c:\\program files\\daisytoolchain\\arm-none-eabi\\include\\stdlib.h"
 7128              		.file 46 "c:\\program files\\daisytoolchain\\arm-none-eabi\\include\\c++\\10.2.1\\math.h"
 7129              		.file 47 "c:\\program files\\daisytoolchain\\arm-none-eabi\\include\\c++\\10.2.1\\stdlib.h"
 7130              		.file 48 "../../libs/libDaisy/src/per/tim.h"
 7131              		.file 49 "../../libs/libDaisy/src/util/wav_format.h"
 7132              		.file 50 "../../libs/libDaisy/src/sys/../../../../libs/libDaisy/src/dev/sr_595.h"
 7133              		.file 51 "../../libs/libDaisy/src/sys/../../../../libs/libDaisy/src/dev/max11300.h"
 7134              		.file 52 "../../libs/libDaisy/src/sys/../../../../libs/libDaisy/src/dev/sdram.h"
 7135              		.file 53 "c:\\program files\\daisytoolchain\\lib\\gcc\\arm-none-eabi\\10.2.1\\include\\stdarg.h"
 7136              		.file 54 "c:\\program files\\daisytoolchain\\arm-none-eabi\\include\\stdio.h"
 7137              		.file 55 "../../libs/libDaisy/src/util/oled_fonts.h"
 7138              		.file 56 "c:\\program files\\daisytoolchain\\arm-none-eabi\\include\\string.h"
 7139              		.file 57 "displayHandler.hpp"
 7140              		.file 58 "../../libs/DaisySP/Source/Control/adenv.h"
 7141              		.file 59 "../../libs/DaisySP/Source/Utility/dsp.h"
 7142              		.file 60 "c:\\program files\\daisytoolchain\\arm-none-eabi\\include\\wchar.h"
 7143              		.file 61 "c:\\program files\\daisytoolchain\\arm-none-eabi\\include\\locale.h"
 7144              		.file 62 "<built-in>"
 7145              		.file 63 "c:\\program files\\daisytoolchain\\arm-none-eabi\\include\\c++\\10.2.1\\new"
ARM GAS  C:\Users\matte\AppData\Local\Temp\cclPkNhc.s 			page 203


DEFINED SYMBOLS
                            *ABS*:00000000 main.cpp
C:\Users\matte\AppData\Local\Temp\cclPkNhc.s:17     .text._ZN5daisy9DaisySeedD2Ev:00000000 $t
C:\Users\matte\AppData\Local\Temp\cclPkNhc.s:26     .text._ZN5daisy9DaisySeedD2Ev:00000000 _ZN5daisy9DaisySeedD2Ev
C:\Users\matte\AppData\Local\Temp\cclPkNhc.s:26     .text._ZN5daisy9DaisySeedD2Ev:00000000 _ZN5daisy9DaisySeedD1Ev
C:\Users\matte\AppData\Local\Temp\cclPkNhc.s:73     .text._ZN7daisysp10OscillatorD2Ev:00000000 $t
C:\Users\matte\AppData\Local\Temp\cclPkNhc.s:81     .text._ZN7daisysp10OscillatorD2Ev:00000000 _ZN7daisysp10OscillatorD2Ev
C:\Users\matte\AppData\Local\Temp\cclPkNhc.s:81     .text._ZN7daisysp10OscillatorD2Ev:00000000 _ZN7daisysp10OscillatorD1Ev
C:\Users\matte\AppData\Local\Temp\cclPkNhc.s:98     .text._ZN5daisy11OledDisplayINS_13SSD130xDriverILj128ELj64ENS_19SSD130xI2CTransportEEEED2Ev:00000000 $t
C:\Users\matte\AppData\Local\Temp\cclPkNhc.s:106    .text._ZN5daisy11OledDisplayINS_13SSD130xDriverILj128ELj64ENS_19SSD130xI2CTransportEEEED2Ev:00000000 _ZN5daisy11OledDisplayINS_13SSD130xDriverILj128ELj64ENS_19SSD130xI2CTransportEEEED2Ev
C:\Users\matte\AppData\Local\Temp\cclPkNhc.s:106    .text._ZN5daisy11OledDisplayINS_13SSD130xDriverILj128ELj64ENS_19SSD130xI2CTransportEEEED2Ev:00000000 _ZN5daisy11OledDisplayINS_13SSD130xDriverILj128ELj64ENS_19SSD130xI2CTransportEEEED1Ev
C:\Users\matte\AppData\Local\Temp\cclPkNhc.s:133    .text._ZNK5daisy11OledDisplayINS_13SSD130xDriverILj128ELj64ENS_19SSD130xI2CTransportEEEE6HeightEv:00000000 $t
C:\Users\matte\AppData\Local\Temp\cclPkNhc.s:141    .text._ZNK5daisy11OledDisplayINS_13SSD130xDriverILj128ELj64ENS_19SSD130xI2CTransportEEEE6HeightEv:00000000 _ZNK5daisy11OledDisplayINS_13SSD130xDriverILj128ELj64ENS_19SSD130xI2CTransportEEEE6HeightEv
C:\Users\matte\AppData\Local\Temp\cclPkNhc.s:158    .text._ZNK5daisy11OledDisplayINS_13SSD130xDriverILj128ELj64ENS_19SSD130xI2CTransportEEEE5WidthEv:00000000 $t
C:\Users\matte\AppData\Local\Temp\cclPkNhc.s:166    .text._ZNK5daisy11OledDisplayINS_13SSD130xDriverILj128ELj64ENS_19SSD130xI2CTransportEEEE5WidthEv:00000000 _ZNK5daisy11OledDisplayINS_13SSD130xDriverILj128ELj64ENS_19SSD130xI2CTransportEEEE5WidthEv
C:\Users\matte\AppData\Local\Temp\cclPkNhc.s:183    .text._ZN5daisy11OledDisplayINS_13SSD130xDriverILj128ELj64ENS_19SSD130xI2CTransportEEEE4FillEb:00000000 $t
C:\Users\matte\AppData\Local\Temp\cclPkNhc.s:191    .text._ZN5daisy11OledDisplayINS_13SSD130xDriverILj128ELj64ENS_19SSD130xI2CTransportEEEE4FillEb:00000000 _ZN5daisy11OledDisplayINS_13SSD130xDriverILj128ELj64ENS_19SSD130xI2CTransportEEEE4FillEb
C:\Users\matte\AppData\Local\Temp\cclPkNhc.s:223    .text._ZL13AudioCallbackPKfPfj:00000000 $t
C:\Users\matte\AppData\Local\Temp\cclPkNhc.s:230    .text._ZL13AudioCallbackPKfPfj:00000000 _ZL13AudioCallbackPKfPfj
C:\Users\matte\AppData\Local\Temp\cclPkNhc.s:307    .text._ZL13AudioCallbackPKfPfj:00000038 $d
C:\Users\matte\AppData\Local\Temp\cclPkNhc.s:313    .text._ZN5daisy11OledDisplayINS_13SSD130xDriverILj128ELj64ENS_19SSD130xI2CTransportEEEED0Ev:00000000 $t
C:\Users\matte\AppData\Local\Temp\cclPkNhc.s:321    .text._ZN5daisy11OledDisplayINS_13SSD130xDriverILj128ELj64ENS_19SSD130xI2CTransportEEEED0Ev:00000000 _ZN5daisy11OledDisplayINS_13SSD130xDriverILj128ELj64ENS_19SSD130xI2CTransportEEEED0Ev
C:\Users\matte\AppData\Local\Temp\cclPkNhc.s:361    .text._ZN5daisy11OledDisplayINS_13SSD130xDriverILj128ELj64ENS_19SSD130xI2CTransportEEEE6UpdateEv:00000000 $t
C:\Users\matte\AppData\Local\Temp\cclPkNhc.s:369    .text._ZN5daisy11OledDisplayINS_13SSD130xDriverILj128ELj64ENS_19SSD130xI2CTransportEEEE6UpdateEv:00000000 _ZN5daisy11OledDisplayINS_13SSD130xDriverILj128ELj64ENS_19SSD130xI2CTransportEEEE6UpdateEv
C:\Users\matte\AppData\Local\Temp\cclPkNhc.s:552    .text._ZN5daisy25OneBitGraphicsDisplayImplINS_11OledDisplayINS_13SSD130xDriverILj128ELj64ENS_19SSD130xI2CTransportEEEEEE11WriteStringEPKc7FontDefb:00000000 $t
C:\Users\matte\AppData\Local\Temp\cclPkNhc.s:560    .text._ZN5daisy25OneBitGraphicsDisplayImplINS_11OledDisplayINS_13SSD130xDriverILj128ELj64ENS_19SSD130xI2CTransportEEEEEE11WriteStringEPKc7FontDefb:00000000 _ZN5daisy25OneBitGraphicsDisplayImplINS_11OledDisplayINS_13SSD130xDriverILj128ELj64ENS_19SSD130xI2CTransportEEEEEE11WriteStringEPKc7FontDefb
C:\Users\matte\AppData\Local\Temp\cclPkNhc.s:1017   .text._ZN5daisy25OneBitGraphicsDisplayImplINS_11OledDisplayINS_13SSD130xDriverILj128ELj64ENS_19SSD130xI2CTransportEEEEEE11WriteStringEPKc7FontDefb:000001b8 $d
C:\Users\matte\AppData\Local\Temp\cclPkNhc.s:1027   .text._ZN5daisy25OneBitGraphicsDisplayImplINS_11OledDisplayINS_13SSD130xDriverILj128ELj64ENS_19SSD130xI2CTransportEEEEEE9WriteCharEc7FontDefb:00000000 $t
C:\Users\matte\AppData\Local\Temp\cclPkNhc.s:1035   .text._ZN5daisy25OneBitGraphicsDisplayImplINS_11OledDisplayINS_13SSD130xDriverILj128ELj64ENS_19SSD130xI2CTransportEEEEEE9WriteCharEc7FontDefb:00000000 _ZN5daisy25OneBitGraphicsDisplayImplINS_11OledDisplayINS_13SSD130xDriverILj128ELj64ENS_19SSD130xI2CTransportEEEEEE9WriteCharEc7FontDefb
C:\Users\matte\AppData\Local\Temp\cclPkNhc.s:1461   .text._ZN5daisy25OneBitGraphicsDisplayImplINS_11OledDisplayINS_13SSD130xDriverILj128ELj64ENS_19SSD130xI2CTransportEEEEEE9WriteCharEc7FontDefb:00000198 $d
C:\Users\matte\AppData\Local\Temp\cclPkNhc.s:1469   .text._ZN5daisy25OneBitGraphicsDisplayImplINS_11OledDisplayINS_13SSD130xDriverILj128ELj64ENS_19SSD130xI2CTransportEEEEEE18WriteStringAlignedEPKcRK7FontDefNS_9RectangleENS_9AlignmentEb:00000000 $t
C:\Users\matte\AppData\Local\Temp\cclPkNhc.s:1477   .text._ZN5daisy25OneBitGraphicsDisplayImplINS_11OledDisplayINS_13SSD130xDriverILj128ELj64ENS_19SSD130xI2CTransportEEEEEE18WriteStringAlignedEPKcRK7FontDefNS_9RectangleENS_9AlignmentEb:00000000 _ZN5daisy25OneBitGraphicsDisplayImplINS_11OledDisplayINS_13SSD130xDriverILj128ELj64ENS_19SSD130xI2CTransportEEEEEE18WriteStringAlignedEPKcRK7FontDefNS_9RectangleENS_9AlignmentEb
C:\Users\matte\AppData\Local\Temp\cclPkNhc.s:1616   .text._ZN5daisy25OneBitGraphicsDisplayImplINS_11OledDisplayINS_13SSD130xDriverILj128ELj64ENS_19SSD130xI2CTransportEEEEEE18WriteStringAlignedEPKcRK7FontDefNS_9RectangleENS_9AlignmentEb:00000046 $d
C:\Users\matte\AppData\Local\Temp\cclPkNhc.s:1625   .text._ZN5daisy25OneBitGraphicsDisplayImplINS_11OledDisplayINS_13SSD130xDriverILj128ELj64ENS_19SSD130xI2CTransportEEEEEE18WriteStringAlignedEPKcRK7FontDefNS_9RectangleENS_9AlignmentEb:00000058 $t
C:\Users\matte\AppData\Local\Temp\cclPkNhc.s:2833   .text._ZN5daisy25OneBitGraphicsDisplayImplINS_11OledDisplayINS_13SSD130xDriverILj128ELj64ENS_19SSD130xI2CTransportEEEEEE18WriteStringAlignedEPKcRK7FontDefNS_9RectangleENS_9AlignmentEb:00000320 $d
C:\Users\matte\AppData\Local\Temp\cclPkNhc.s:2842   .text._ZN5daisy25OneBitGraphicsDisplayImplINS_11OledDisplayINS_13SSD130xDriverILj128ELj64ENS_19SSD130xI2CTransportEEEEEE18WriteStringAlignedEPKcRK7FontDefNS_9RectangleENS_9AlignmentEb:00000328 $t
C:\Users\matte\AppData\Local\Temp\cclPkNhc.s:3153   .text._ZN5daisy25OneBitGraphicsDisplayImplINS_11OledDisplayINS_13SSD130xDriverILj128ELj64ENS_19SSD130xI2CTransportEEEEEE18WriteStringAlignedEPKcRK7FontDefNS_9RectangleENS_9AlignmentEb:000003e8 $d
C:\Users\matte\AppData\Local\Temp\cclPkNhc.s:3161   .text._ZN5daisy11OledDisplayINS_13SSD130xDriverILj128ELj64ENS_19SSD130xI2CTransportEEEE9DrawPixelEjjb:00000000 $t
C:\Users\matte\AppData\Local\Temp\cclPkNhc.s:3169   .text._ZN5daisy11OledDisplayINS_13SSD130xDriverILj128ELj64ENS_19SSD130xI2CTransportEEEE9DrawPixelEjjb:00000000 _ZN5daisy11OledDisplayINS_13SSD130xDriverILj128ELj64ENS_19SSD130xI2CTransportEEEE9DrawPixelEjjb
C:\Users\matte\AppData\Local\Temp\cclPkNhc.s:3246   .text._ZN5daisy25OneBitGraphicsDisplayImplINS_11OledDisplayINS_13SSD130xDriverILj128ELj64ENS_19SSD130xI2CTransportEEEEEE8DrawLineEjjjjb:00000000 $t
C:\Users\matte\AppData\Local\Temp\cclPkNhc.s:3254   .text._ZN5daisy25OneBitGraphicsDisplayImplINS_11OledDisplayINS_13SSD130xDriverILj128ELj64ENS_19SSD130xI2CTransportEEEEEE8DrawLineEjjjjb:00000000 _ZN5daisy25OneBitGraphicsDisplayImplINS_11OledDisplayINS_13SSD130xDriverILj128ELj64ENS_19SSD130xI2CTransportEEEEEE8DrawLineEjjjjb
C:\Users\matte\AppData\Local\Temp\cclPkNhc.s:3539   .text._ZN5daisy25OneBitGraphicsDisplayImplINS_11OledDisplayINS_13SSD130xDriverILj128ELj64ENS_19SSD130xI2CTransportEEEEEE7DrawArcEjjjiib:00000000 $t
C:\Users\matte\AppData\Local\Temp\cclPkNhc.s:3547   .text._ZN5daisy25OneBitGraphicsDisplayImplINS_11OledDisplayINS_13SSD130xDriverILj128ELj64ENS_19SSD130xI2CTransportEEEEEE7DrawArcEjjjiib:00000000 _ZN5daisy25OneBitGraphicsDisplayImplINS_11OledDisplayINS_13SSD130xDriverILj128ELj64ENS_19SSD130xI2CTransportEEEEEE7DrawArcEjjjiib
C:\Users\matte\AppData\Local\Temp\cclPkNhc.s:4232   .text._ZN5daisy25OneBitGraphicsDisplayImplINS_11OledDisplayINS_13SSD130xDriverILj128ELj64ENS_19SSD130xI2CTransportEEEEEE7DrawArcEjjjiib:00000368 $d
C:\Users\matte\AppData\Local\Temp\cclPkNhc.s:4246   .text._ZN5daisy25OneBitGraphicsDisplayImplINS_11OledDisplayINS_13SSD130xDriverILj128ELj64ENS_19SSD130xI2CTransportEEEEEE7DrawArcEjjjiib:00000378 $t
C:\Users\matte\AppData\Local\Temp\cclPkNhc.s:4472   .text._ZN5daisy25OneBitGraphicsDisplayImplINS_11OledDisplayINS_13SSD130xDriverILj128ELj64ENS_19SSD130xI2CTransportEEEEEE8DrawRectEjjjjbb:00000000 $t
C:\Users\matte\AppData\Local\Temp\cclPkNhc.s:4480   .text._ZN5daisy25OneBitGraphicsDisplayImplINS_11OledDisplayINS_13SSD130xDriverILj128ELj64ENS_19SSD130xI2CTransportEEEEEE8DrawRectEjjjjbb:00000000 _ZN5daisy25OneBitGraphicsDisplayImplINS_11OledDisplayINS_13SSD130xDriverILj128ELj64ENS_19SSD130xI2CTransportEEEEEE8DrawRectEjjjjbb
C:\Users\matte\AppData\Local\Temp\cclPkNhc.s:5590   .text._ZN5daisy13SSD130xDriverILj128ELj64ENS_19SSD130xI2CTransportEE4InitENS2_6ConfigE:00000000 $t
C:\Users\matte\AppData\Local\Temp\cclPkNhc.s:5598   .text._ZN5daisy13SSD130xDriverILj128ELj64ENS_19SSD130xI2CTransportEE4InitENS2_6ConfigE:00000000 _ZN5daisy13SSD130xDriverILj128ELj64ENS_19SSD130xI2CTransportEE4InitENS2_6ConfigE
C:\Users\matte\AppData\Local\Temp\cclPkNhc.s:6251   .text.startup.main:00000000 $t
C:\Users\matte\AppData\Local\Temp\cclPkNhc.s:6259   .text.startup.main:00000000 main
C:\Users\matte\AppData\Local\Temp\cclPkNhc.s:6604   .text.startup.main:000000d4 $d
C:\Users\matte\AppData\Local\Temp\cclPkNhc.s:6619   .text.startup._GLOBAL__sub_I_hw:00000000 $t
C:\Users\matte\AppData\Local\Temp\cclPkNhc.s:6626   .text.startup._GLOBAL__sub_I_hw:00000000 _GLOBAL__sub_I_hw
C:\Users\matte\AppData\Local\Temp\cclPkNhc.s:7031   .text.startup._GLOBAL__sub_I_hw:00000068 $d
C:\Users\matte\AppData\Local\Temp\cclPkNhc.s:7053   .rodata._ZTVN5daisy11OledDisplayINS_13SSD130xDriverILj128ELj64ENS_19SSD130xI2CTransportEEEEE:00000000 _ZTVN5daisy11OledDisplayINS_13SSD130xDriverILj128ELj64ENS_19SSD130xI2CTransportEEEEE
C:\Users\matte\AppData\Local\Temp\cclPkNhc.s:7046   .init_array:00000000 $d
ARM GAS  C:\Users\matte\AppData\Local\Temp\cclPkNhc.s 			page 204


C:\Users\matte\AppData\Local\Temp\cclPkNhc.s:7050   .rodata._ZTVN5daisy11OledDisplayINS_13SSD130xDriverILj128ELj64ENS_19SSD130xI2CTransportEEEEE:00000000 $d
C:\Users\matte\AppData\Local\Temp\cclPkNhc.s:7091   .bss.disp_handle:00000000 disp_handle
C:\Users\matte\AppData\Local\Temp\cclPkNhc.s:7084   .bss.disp:00000000 disp
C:\Users\matte\AppData\Local\Temp\cclPkNhc.s:7098   .bss.hw:00000000 hw
C:\Users\matte\AppData\Local\Temp\cclPkNhc.s:7073   .bss._ZL3osc:00000000 $d
C:\Users\matte\AppData\Local\Temp\cclPkNhc.s:7077   .bss._ZL3osc:00000000 _ZL3osc
C:\Users\matte\AppData\Local\Temp\cclPkNhc.s:7080   .bss.disp:00000000 $d
C:\Users\matte\AppData\Local\Temp\cclPkNhc.s:7087   .bss.disp_handle:00000000 $d
C:\Users\matte\AppData\Local\Temp\cclPkNhc.s:7094   .bss.hw:00000000 $d
                           .group:00000000 _ZN5daisy9DaisySeedD5Ev
                           .group:00000000 _ZN7daisysp10OscillatorD5Ev
                           .group:00000000 _ZN5daisy11OledDisplayINS_13SSD130xDriverILj128ELj64ENS_19SSD130xI2CTransportEEEED5Ev

UNDEFINED SYMBOLS
memset
_ZN7daisysp10Oscillator7ProcessEv
_ZN14DisplayHandler15pushAudioSampleEf
_ZdlPvj
_ZN5daisy9I2CHandle16TransmitBlockingEtPhtm
cosf
sinf
_ZN5daisy9I2CHandle4InitERKNS0_6ConfigE
_ZN5daisy9DaisySeed4InitEb
_ZN5daisy9DaisySeed17SetAudioBlockSizeEj
_ZN7daisysp10Oscillator12CalcPhaseIncEf
_ZN14DisplayHandler8SetStateE12DisplayState
_ZN5daisy9DaisySeed10StartAudioEPFvPKfPfjE
_ZN14DisplayHandler6UpdateEv
__aeabi_atexit
_ZN14DisplayHandlerC1EPN5daisy11OledDisplayINS0_13SSD130xDriverILj128ELj64ENS0_19SSD130xI2CTransportEEEEEb
__dso_handle
