ARM GAS  C:\Users\skipi\AppData\Local\Temp\ccs8qXFk.s 			page 1


   1              		.cpu cortex-m7
   2              		.eabi_attribute 28, 1
   3              		.eabi_attribute 20, 1
   4              		.eabi_attribute 21, 1
   5              		.eabi_attribute 23, 3
   6              		.eabi_attribute 24, 1
   7              		.eabi_attribute 25, 1
   8              		.eabi_attribute 26, 1
   9              		.eabi_attribute 30, 2
  10              		.eabi_attribute 34, 1
  11              		.eabi_attribute 18, 4
  12              		.file	"main.cpp"
  13              		.text
  14              	.Ltext0:
  15              		.cfi_sections	.debug_frame
  16              		.section	.text._ZN5daisy7EncoderD2Ev,"axG",%progbits,_ZN5daisy7EncoderD5Ev,comdat
  17              		.align	1
  18              		.p2align 2,,3
  19              		.weak	_ZN5daisy7EncoderD2Ev
  20              		.arch armv7e-m
  21              		.syntax unified
  22              		.thumb
  23              		.thumb_func
  24              		.fpu fpv5-d16
  26              	_ZN5daisy7EncoderD2Ev:
  27              	.LVL0:
  28              	.LFB1699:
  29              		.file 1 "../../libs/PoliTeKDSP/libs/libDaisy/src/hid/encoder.h"
   1:../../libs/PoliTeKDSP/libs/libDaisy/src/hid/encoder.h **** #pragma once
   2:../../libs/PoliTeKDSP/libs/libDaisy/src/hid/encoder.h **** #ifndef DSY_ENCODER_H
   3:../../libs/PoliTeKDSP/libs/libDaisy/src/hid/encoder.h **** #define DSY_ENCODER_H
   4:../../libs/PoliTeKDSP/libs/libDaisy/src/hid/encoder.h **** #include "daisy_core.h"
   5:../../libs/PoliTeKDSP/libs/libDaisy/src/hid/encoder.h **** #include "per/gpio.h"
   6:../../libs/PoliTeKDSP/libs/libDaisy/src/hid/encoder.h **** #include "hid/switch.h"
   7:../../libs/PoliTeKDSP/libs/libDaisy/src/hid/encoder.h **** 
   8:../../libs/PoliTeKDSP/libs/libDaisy/src/hid/encoder.h **** namespace daisy
   9:../../libs/PoliTeKDSP/libs/libDaisy/src/hid/encoder.h **** {
  10:../../libs/PoliTeKDSP/libs/libDaisy/src/hid/encoder.h **** /** 
  11:../../libs/PoliTeKDSP/libs/libDaisy/src/hid/encoder.h ****     @brief Generic Class for handling Quadrature Encoders \n 
  12:../../libs/PoliTeKDSP/libs/libDaisy/src/hid/encoder.h ****     Inspired/influenced by Mutable Instruments (pichenettes) Encoder classes
  13:../../libs/PoliTeKDSP/libs/libDaisy/src/hid/encoder.h ****     @author Stephen Hensley
  14:../../libs/PoliTeKDSP/libs/libDaisy/src/hid/encoder.h ****     @date December 2019
  15:../../libs/PoliTeKDSP/libs/libDaisy/src/hid/encoder.h ****     @ingroup controls
  16:../../libs/PoliTeKDSP/libs/libDaisy/src/hid/encoder.h **** */
  17:../../libs/PoliTeKDSP/libs/libDaisy/src/hid/encoder.h **** class Encoder
  18:../../libs/PoliTeKDSP/libs/libDaisy/src/hid/encoder.h **** {
  19:../../libs/PoliTeKDSP/libs/libDaisy/src/hid/encoder.h ****   public:
  20:../../libs/PoliTeKDSP/libs/libDaisy/src/hid/encoder.h ****     Encoder() {}
  21:../../libs/PoliTeKDSP/libs/libDaisy/src/hid/encoder.h ****     ~Encoder() {}
  30              		.loc 1 21 5 view -0
  31              		.cfi_startproc
  32              		@ args = 0, pretend = 0, frame = 0
  33              		@ frame_needed = 0, uses_anonymous_args = 0
  34              		@ link register save eliminated.
  35              	.LBB568:
  36              	.LBI568:
  37              		.file 2 "../../libs/PoliTeKDSP/libs/libDaisy/src/hid/switch.h"
ARM GAS  C:\Users\skipi\AppData\Local\Temp\ccs8qXFk.s 			page 2


   1:../../libs/PoliTeKDSP/libs/libDaisy/src/hid/switch.h **** #pragma once
   2:../../libs/PoliTeKDSP/libs/libDaisy/src/hid/switch.h **** #ifndef DSY_SWITCH_H
   3:../../libs/PoliTeKDSP/libs/libDaisy/src/hid/switch.h **** #define DSY_SWITCH_H
   4:../../libs/PoliTeKDSP/libs/libDaisy/src/hid/switch.h **** #include "daisy_core.h"
   5:../../libs/PoliTeKDSP/libs/libDaisy/src/hid/switch.h **** #include "per/gpio.h"
   6:../../libs/PoliTeKDSP/libs/libDaisy/src/hid/switch.h **** #include "sys/system.h"
   7:../../libs/PoliTeKDSP/libs/libDaisy/src/hid/switch.h **** 
   8:../../libs/PoliTeKDSP/libs/libDaisy/src/hid/switch.h **** namespace daisy
   9:../../libs/PoliTeKDSP/libs/libDaisy/src/hid/switch.h **** {
  10:../../libs/PoliTeKDSP/libs/libDaisy/src/hid/switch.h **** /** 
  11:../../libs/PoliTeKDSP/libs/libDaisy/src/hid/switch.h ****     Generic Class for handling momentary/latching switches \n 
  12:../../libs/PoliTeKDSP/libs/libDaisy/src/hid/switch.h ****     Inspired/influenced by Mutable Instruments (pichenettes) Switch classes
  13:../../libs/PoliTeKDSP/libs/libDaisy/src/hid/switch.h ****     @author Stephen Hensley
  14:../../libs/PoliTeKDSP/libs/libDaisy/src/hid/switch.h ****     @date December 2019
  15:../../libs/PoliTeKDSP/libs/libDaisy/src/hid/switch.h ****     @ingroup controls
  16:../../libs/PoliTeKDSP/libs/libDaisy/src/hid/switch.h **** */
  17:../../libs/PoliTeKDSP/libs/libDaisy/src/hid/switch.h **** class Switch
  18:../../libs/PoliTeKDSP/libs/libDaisy/src/hid/switch.h **** {
  19:../../libs/PoliTeKDSP/libs/libDaisy/src/hid/switch.h ****   public:
  20:../../libs/PoliTeKDSP/libs/libDaisy/src/hid/switch.h ****     /** Specifies the expected behavior of the switch */
  21:../../libs/PoliTeKDSP/libs/libDaisy/src/hid/switch.h ****     enum Type
  22:../../libs/PoliTeKDSP/libs/libDaisy/src/hid/switch.h ****     {
  23:../../libs/PoliTeKDSP/libs/libDaisy/src/hid/switch.h ****         TYPE_TOGGLE,    /**< & */
  24:../../libs/PoliTeKDSP/libs/libDaisy/src/hid/switch.h ****         TYPE_MOMENTARY, /**< & */
  25:../../libs/PoliTeKDSP/libs/libDaisy/src/hid/switch.h ****     };
  26:../../libs/PoliTeKDSP/libs/libDaisy/src/hid/switch.h ****     /** Specifies whether the pressed is HIGH or LOW. */
  27:../../libs/PoliTeKDSP/libs/libDaisy/src/hid/switch.h ****     enum Polarity
  28:../../libs/PoliTeKDSP/libs/libDaisy/src/hid/switch.h ****     {
  29:../../libs/PoliTeKDSP/libs/libDaisy/src/hid/switch.h ****         POLARITY_NORMAL,   /**< & */
  30:../../libs/PoliTeKDSP/libs/libDaisy/src/hid/switch.h ****         POLARITY_INVERTED, /**< & */
  31:../../libs/PoliTeKDSP/libs/libDaisy/src/hid/switch.h ****     };
  32:../../libs/PoliTeKDSP/libs/libDaisy/src/hid/switch.h **** 
  33:../../libs/PoliTeKDSP/libs/libDaisy/src/hid/switch.h ****     Switch() {}
  34:../../libs/PoliTeKDSP/libs/libDaisy/src/hid/switch.h ****     ~Switch() {}
  38              		.loc 2 34 5 view .LVU1
  39              		.loc 2 34 5 is_stmt 0 view .LVU2
  40              	.LBE568:
  41              		.loc 1 21 17 view .LVU3
  42 0000 7047     		bx	lr
  43              		.cfi_endproc
  44              	.LFE1699:
  46              		.weak	_ZN5daisy7EncoderD1Ev
  47              		.thumb_set _ZN5daisy7EncoderD1Ev,_ZN5daisy7EncoderD2Ev
  48 0002 00BF     		.section	.text._ZN5daisy9DaisySeedD2Ev,"axG",%progbits,_ZN5daisy9DaisySeedD5Ev,comdat
  49              		.align	1
  50              		.p2align 2,,3
  51              		.weak	_ZN5daisy9DaisySeedD2Ev
  52              		.syntax unified
  53              		.thumb
  54              		.thumb_func
  55              		.fpu fpv5-d16
  57              	_ZN5daisy9DaisySeedD2Ev:
  58              	.LVL1:
  59              	.LFB2729:
  60              		.file 3 "../../libs/PoliTeKDSP/libs/libDaisy/src/daisy_seed.h"
   1:../../libs/PoliTeKDSP/libs/libDaisy/src/daisy_seed.h **** #pragma once
   2:../../libs/PoliTeKDSP/libs/libDaisy/src/daisy_seed.h **** #ifndef DSY_SEED_H
ARM GAS  C:\Users\skipi\AppData\Local\Temp\ccs8qXFk.s 			page 3


   3:../../libs/PoliTeKDSP/libs/libDaisy/src/daisy_seed.h **** #define DSY_SEED_H
   4:../../libs/PoliTeKDSP/libs/libDaisy/src/daisy_seed.h **** 
   5:../../libs/PoliTeKDSP/libs/libDaisy/src/daisy_seed.h **** #include "daisy.h"
   6:../../libs/PoliTeKDSP/libs/libDaisy/src/daisy_seed.h **** 
   7:../../libs/PoliTeKDSP/libs/libDaisy/src/daisy_seed.h **** //Uncomment this out if you're still using the rev2 hardware
   8:../../libs/PoliTeKDSP/libs/libDaisy/src/daisy_seed.h **** //#define SEED_REV2
   9:../../libs/PoliTeKDSP/libs/libDaisy/src/daisy_seed.h **** 
  10:../../libs/PoliTeKDSP/libs/libDaisy/src/daisy_seed.h **** namespace daisy
  11:../../libs/PoliTeKDSP/libs/libDaisy/src/daisy_seed.h **** {
  12:../../libs/PoliTeKDSP/libs/libDaisy/src/daisy_seed.h **** /**
  13:../../libs/PoliTeKDSP/libs/libDaisy/src/daisy_seed.h ****    @brief This is the higher-level interface for the Daisy board. \n 
  14:../../libs/PoliTeKDSP/libs/libDaisy/src/daisy_seed.h ****     All basic peripheral configuration/initialization is setup here. \n
  15:../../libs/PoliTeKDSP/libs/libDaisy/src/daisy_seed.h **** 
  16:../../libs/PoliTeKDSP/libs/libDaisy/src/daisy_seed.h ****    @ingroup boards
  17:../../libs/PoliTeKDSP/libs/libDaisy/src/daisy_seed.h **** */
  18:../../libs/PoliTeKDSP/libs/libDaisy/src/daisy_seed.h **** class DaisySeed
  19:../../libs/PoliTeKDSP/libs/libDaisy/src/daisy_seed.h **** {
  20:../../libs/PoliTeKDSP/libs/libDaisy/src/daisy_seed.h ****   public:
  21:../../libs/PoliTeKDSP/libs/libDaisy/src/daisy_seed.h ****     DaisySeed() {}
  22:../../libs/PoliTeKDSP/libs/libDaisy/src/daisy_seed.h ****     ~DaisySeed() {}
  61              		.loc 3 22 5 is_stmt 1 view -0
  62              		.cfi_startproc
  63              		@ args = 0, pretend = 0, frame = 0
  64              		@ frame_needed = 0, uses_anonymous_args = 0
  65              		@ link register save eliminated.
  66              	.LBB569:
  67              	.LBI569:
  68              		.file 4 "../../libs/PoliTeKDSP/libs/libDaisy/src/dev/codec_ak4556.h"
   1:../../libs/PoliTeKDSP/libs/libDaisy/src/dev/codec_ak4556.h **** #pragma once
   2:../../libs/PoliTeKDSP/libs/libDaisy/src/dev/codec_ak4556.h **** #ifndef DSY_CODEC_AK4556_H
   3:../../libs/PoliTeKDSP/libs/libDaisy/src/dev/codec_ak4556.h **** #define DSY_CODEC_AK4556_H
   4:../../libs/PoliTeKDSP/libs/libDaisy/src/dev/codec_ak4556.h **** 
   5:../../libs/PoliTeKDSP/libs/libDaisy/src/dev/codec_ak4556.h **** #include "daisy_core.h"
   6:../../libs/PoliTeKDSP/libs/libDaisy/src/dev/codec_ak4556.h **** #include "per/gpio.h"
   7:../../libs/PoliTeKDSP/libs/libDaisy/src/dev/codec_ak4556.h **** 
   8:../../libs/PoliTeKDSP/libs/libDaisy/src/dev/codec_ak4556.h **** namespace daisy
   9:../../libs/PoliTeKDSP/libs/libDaisy/src/dev/codec_ak4556.h **** {
  10:../../libs/PoliTeKDSP/libs/libDaisy/src/dev/codec_ak4556.h **** /** @brief Ak4556 Codec support 
  11:../../libs/PoliTeKDSP/libs/libDaisy/src/dev/codec_ak4556.h ****  ** @author shensley
  12:../../libs/PoliTeKDSP/libs/libDaisy/src/dev/codec_ak4556.h ****  ** @addtogroup codec
  13:../../libs/PoliTeKDSP/libs/libDaisy/src/dev/codec_ak4556.h ****  ** 
  14:../../libs/PoliTeKDSP/libs/libDaisy/src/dev/codec_ak4556.h ****  ** I don't see any real reason to have this be more than a function, but in case we want
  15:../../libs/PoliTeKDSP/libs/libDaisy/src/dev/codec_ak4556.h ****  ** to add other functions down the road I wrapped the function in a class.
  16:../../libs/PoliTeKDSP/libs/libDaisy/src/dev/codec_ak4556.h ****  ***/
  17:../../libs/PoliTeKDSP/libs/libDaisy/src/dev/codec_ak4556.h **** class Ak4556
  18:../../libs/PoliTeKDSP/libs/libDaisy/src/dev/codec_ak4556.h **** {
  19:../../libs/PoliTeKDSP/libs/libDaisy/src/dev/codec_ak4556.h ****   public:
  20:../../libs/PoliTeKDSP/libs/libDaisy/src/dev/codec_ak4556.h ****     Ak4556() {}
  21:../../libs/PoliTeKDSP/libs/libDaisy/src/dev/codec_ak4556.h ****     ~Ak4556() {}
  69              		.loc 4 21 5 view .LVU5
  70              		.loc 4 21 5 is_stmt 0 view .LVU6
  71              	.LBE569:
  72              	.LBB570:
  73              	.LBI570:
  74              		.file 5 "../../libs/PoliTeKDSP/libs/libDaisy/src/sys/system.h"
   1:../../libs/PoliTeKDSP/libs/libDaisy/src/sys/system.h **** #ifndef DSY_SYSTEM_H
   2:../../libs/PoliTeKDSP/libs/libDaisy/src/sys/system.h **** #define DSY_SYSTEM_H
ARM GAS  C:\Users\skipi\AppData\Local\Temp\ccs8qXFk.s 			page 4


   3:../../libs/PoliTeKDSP/libs/libDaisy/src/sys/system.h **** 
   4:../../libs/PoliTeKDSP/libs/libDaisy/src/sys/system.h **** #ifndef UNIT_TEST // for unit tests, a dummy implementation is provided below
   5:../../libs/PoliTeKDSP/libs/libDaisy/src/sys/system.h **** 
   6:../../libs/PoliTeKDSP/libs/libDaisy/src/sys/system.h **** #include <cstdint>
   7:../../libs/PoliTeKDSP/libs/libDaisy/src/sys/system.h **** #include "per/tim.h"
   8:../../libs/PoliTeKDSP/libs/libDaisy/src/sys/system.h **** 
   9:../../libs/PoliTeKDSP/libs/libDaisy/src/sys/system.h **** namespace daisy
  10:../../libs/PoliTeKDSP/libs/libDaisy/src/sys/system.h **** {
  11:../../libs/PoliTeKDSP/libs/libDaisy/src/sys/system.h **** /** A handle for interacting with the Core System.
  12:../../libs/PoliTeKDSP/libs/libDaisy/src/sys/system.h ****  ** This includes the Clock tree, MPU, global DMA initialization,
  13:../../libs/PoliTeKDSP/libs/libDaisy/src/sys/system.h ****  ** cache handling, and any other necessary global initiailzation
  14:../../libs/PoliTeKDSP/libs/libDaisy/src/sys/system.h ****  **
  15:../../libs/PoliTeKDSP/libs/libDaisy/src/sys/system.h ****  ** @author shensley
  16:../../libs/PoliTeKDSP/libs/libDaisy/src/sys/system.h ****  ** @ingroup system
  17:../../libs/PoliTeKDSP/libs/libDaisy/src/sys/system.h ****  */
  18:../../libs/PoliTeKDSP/libs/libDaisy/src/sys/system.h **** class System
  19:../../libs/PoliTeKDSP/libs/libDaisy/src/sys/system.h **** {
  20:../../libs/PoliTeKDSP/libs/libDaisy/src/sys/system.h ****   public:
  21:../../libs/PoliTeKDSP/libs/libDaisy/src/sys/system.h ****     /** Contains settings for initializing the System */
  22:../../libs/PoliTeKDSP/libs/libDaisy/src/sys/system.h ****     struct Config
  23:../../libs/PoliTeKDSP/libs/libDaisy/src/sys/system.h ****     {
  24:../../libs/PoliTeKDSP/libs/libDaisy/src/sys/system.h ****         /** Specifies the system clock frequency that feeds APB/AHB clocks, etc. */
  25:../../libs/PoliTeKDSP/libs/libDaisy/src/sys/system.h ****         enum class SysClkFreq
  26:../../libs/PoliTeKDSP/libs/libDaisy/src/sys/system.h ****         {
  27:../../libs/PoliTeKDSP/libs/libDaisy/src/sys/system.h ****             FREQ_400MHZ,
  28:../../libs/PoliTeKDSP/libs/libDaisy/src/sys/system.h ****             FREQ_480MHZ,
  29:../../libs/PoliTeKDSP/libs/libDaisy/src/sys/system.h ****         };
  30:../../libs/PoliTeKDSP/libs/libDaisy/src/sys/system.h **** 
  31:../../libs/PoliTeKDSP/libs/libDaisy/src/sys/system.h ****         /** Method to call on the struct to set to defaults
  32:../../libs/PoliTeKDSP/libs/libDaisy/src/sys/system.h ****          ** CPU Freq set to 400MHz
  33:../../libs/PoliTeKDSP/libs/libDaisy/src/sys/system.h ****          ** Cache Enabled
  34:../../libs/PoliTeKDSP/libs/libDaisy/src/sys/system.h ****          ** */
  35:../../libs/PoliTeKDSP/libs/libDaisy/src/sys/system.h ****         void Defaults()
  36:../../libs/PoliTeKDSP/libs/libDaisy/src/sys/system.h ****         {
  37:../../libs/PoliTeKDSP/libs/libDaisy/src/sys/system.h ****             cpu_freq    = SysClkFreq::FREQ_400MHZ;
  38:../../libs/PoliTeKDSP/libs/libDaisy/src/sys/system.h ****             use_dcache  = true;
  39:../../libs/PoliTeKDSP/libs/libDaisy/src/sys/system.h ****             use_icache  = true;
  40:../../libs/PoliTeKDSP/libs/libDaisy/src/sys/system.h ****             skip_clocks = false;
  41:../../libs/PoliTeKDSP/libs/libDaisy/src/sys/system.h ****         }
  42:../../libs/PoliTeKDSP/libs/libDaisy/src/sys/system.h **** 
  43:../../libs/PoliTeKDSP/libs/libDaisy/src/sys/system.h ****         /** Method to call on the struct to set to boost mode:
  44:../../libs/PoliTeKDSP/libs/libDaisy/src/sys/system.h ****          ** CPU Freq set to 480MHz
  45:../../libs/PoliTeKDSP/libs/libDaisy/src/sys/system.h ****          ** Cache Enabled
  46:../../libs/PoliTeKDSP/libs/libDaisy/src/sys/system.h ****          ** */
  47:../../libs/PoliTeKDSP/libs/libDaisy/src/sys/system.h ****         void Boost()
  48:../../libs/PoliTeKDSP/libs/libDaisy/src/sys/system.h ****         {
  49:../../libs/PoliTeKDSP/libs/libDaisy/src/sys/system.h ****             cpu_freq    = SysClkFreq::FREQ_480MHZ;
  50:../../libs/PoliTeKDSP/libs/libDaisy/src/sys/system.h ****             use_dcache  = true;
  51:../../libs/PoliTeKDSP/libs/libDaisy/src/sys/system.h ****             use_icache  = true;
  52:../../libs/PoliTeKDSP/libs/libDaisy/src/sys/system.h ****             skip_clocks = false;
  53:../../libs/PoliTeKDSP/libs/libDaisy/src/sys/system.h ****         }
  54:../../libs/PoliTeKDSP/libs/libDaisy/src/sys/system.h **** 
  55:../../libs/PoliTeKDSP/libs/libDaisy/src/sys/system.h ****         SysClkFreq cpu_freq;
  56:../../libs/PoliTeKDSP/libs/libDaisy/src/sys/system.h ****         bool       use_dcache;
  57:../../libs/PoliTeKDSP/libs/libDaisy/src/sys/system.h ****         bool       use_icache;
  58:../../libs/PoliTeKDSP/libs/libDaisy/src/sys/system.h ****         bool       skip_clocks;
  59:../../libs/PoliTeKDSP/libs/libDaisy/src/sys/system.h ****     };
ARM GAS  C:\Users\skipi\AppData\Local\Temp\ccs8qXFk.s 			page 5


  60:../../libs/PoliTeKDSP/libs/libDaisy/src/sys/system.h **** 
  61:../../libs/PoliTeKDSP/libs/libDaisy/src/sys/system.h ****     /** Describes the different regions of memory available to the Daisy */
  62:../../libs/PoliTeKDSP/libs/libDaisy/src/sys/system.h ****     enum MemoryRegion
  63:../../libs/PoliTeKDSP/libs/libDaisy/src/sys/system.h ****     {
  64:../../libs/PoliTeKDSP/libs/libDaisy/src/sys/system.h ****         INTERNAL_FLASH = 0,
  65:../../libs/PoliTeKDSP/libs/libDaisy/src/sys/system.h ****         ITCMRAM,
  66:../../libs/PoliTeKDSP/libs/libDaisy/src/sys/system.h ****         DTCMRAM,
  67:../../libs/PoliTeKDSP/libs/libDaisy/src/sys/system.h ****         SRAM_D1,
  68:../../libs/PoliTeKDSP/libs/libDaisy/src/sys/system.h ****         SRAM_D2,
  69:../../libs/PoliTeKDSP/libs/libDaisy/src/sys/system.h ****         SRAM_D3,
  70:../../libs/PoliTeKDSP/libs/libDaisy/src/sys/system.h ****         SDRAM,
  71:../../libs/PoliTeKDSP/libs/libDaisy/src/sys/system.h ****         QSPI,
  72:../../libs/PoliTeKDSP/libs/libDaisy/src/sys/system.h ****         INVALID_ADDRESS,
  73:../../libs/PoliTeKDSP/libs/libDaisy/src/sys/system.h ****     };
  74:../../libs/PoliTeKDSP/libs/libDaisy/src/sys/system.h **** 
  75:../../libs/PoliTeKDSP/libs/libDaisy/src/sys/system.h ****     /** Bootloader struct for controlling bootloading parameters */
  76:../../libs/PoliTeKDSP/libs/libDaisy/src/sys/system.h ****     struct BootInfo
  77:../../libs/PoliTeKDSP/libs/libDaisy/src/sys/system.h ****     {
  78:../../libs/PoliTeKDSP/libs/libDaisy/src/sys/system.h ****         enum class Type : uint32_t
  79:../../libs/PoliTeKDSP/libs/libDaisy/src/sys/system.h ****         {
  80:../../libs/PoliTeKDSP/libs/libDaisy/src/sys/system.h ****             INVALID      = 0x00000000,
  81:../../libs/PoliTeKDSP/libs/libDaisy/src/sys/system.h ****             JUMP         = 0xDEADBEEF,
  82:../../libs/PoliTeKDSP/libs/libDaisy/src/sys/system.h ****             SKIP_TIMEOUT = 0x5AFEB007,
  83:../../libs/PoliTeKDSP/libs/libDaisy/src/sys/system.h ****             INF_TIMEOUT  = 0xB0074EFA,
  84:../../libs/PoliTeKDSP/libs/libDaisy/src/sys/system.h ****         } status;
  85:../../libs/PoliTeKDSP/libs/libDaisy/src/sys/system.h ****         uint32_t data;
  86:../../libs/PoliTeKDSP/libs/libDaisy/src/sys/system.h ****         enum class Version : uint32_t
  87:../../libs/PoliTeKDSP/libs/libDaisy/src/sys/system.h ****         {
  88:../../libs/PoliTeKDSP/libs/libDaisy/src/sys/system.h ****             LT_v6_0 = 0, // Less than v6.0
  89:../../libs/PoliTeKDSP/libs/libDaisy/src/sys/system.h ****             NONE,        // No bootloader present
  90:../../libs/PoliTeKDSP/libs/libDaisy/src/sys/system.h ****             v6_0,        // v6.0
  91:../../libs/PoliTeKDSP/libs/libDaisy/src/sys/system.h ****             v6_1,        // v6.1 or greater
  92:../../libs/PoliTeKDSP/libs/libDaisy/src/sys/system.h ****             LAST
  93:../../libs/PoliTeKDSP/libs/libDaisy/src/sys/system.h ****         } version;
  94:../../libs/PoliTeKDSP/libs/libDaisy/src/sys/system.h ****     };
  95:../../libs/PoliTeKDSP/libs/libDaisy/src/sys/system.h **** 
  96:../../libs/PoliTeKDSP/libs/libDaisy/src/sys/system.h ****     System() {}
  97:../../libs/PoliTeKDSP/libs/libDaisy/src/sys/system.h ****     ~System() {}
  75              		.loc 5 97 5 is_stmt 1 view .LVU7
  76              		.loc 5 97 5 is_stmt 0 view .LVU8
  77              	.LBE570:
  78              	.LBB571:
  79              	.LBI571:
  80              		.file 6 "../../libs/PoliTeKDSP/libs/libDaisy/src/hid/usb.h"
   1:../../libs/PoliTeKDSP/libs/libDaisy/src/hid/usb.h **** #pragma once
   2:../../libs/PoliTeKDSP/libs/libDaisy/src/hid/usb.h **** #ifndef DSY_HID_USB_H
   3:../../libs/PoliTeKDSP/libs/libDaisy/src/hid/usb.h **** #define DSY_HID_USB_H
   4:../../libs/PoliTeKDSP/libs/libDaisy/src/hid/usb.h **** #include <stdint.h>
   5:../../libs/PoliTeKDSP/libs/libDaisy/src/hid/usb.h **** #include <stdlib.h>
   6:../../libs/PoliTeKDSP/libs/libDaisy/src/hid/usb.h **** 
   7:../../libs/PoliTeKDSP/libs/libDaisy/src/hid/usb.h **** namespace daisy
   8:../../libs/PoliTeKDSP/libs/libDaisy/src/hid/usb.h **** /** @addtogroup human_interface
   9:../../libs/PoliTeKDSP/libs/libDaisy/src/hid/usb.h ****     @{
  10:../../libs/PoliTeKDSP/libs/libDaisy/src/hid/usb.h **** */
  11:../../libs/PoliTeKDSP/libs/libDaisy/src/hid/usb.h **** 
  12:../../libs/PoliTeKDSP/libs/libDaisy/src/hid/usb.h **** {
  13:../../libs/PoliTeKDSP/libs/libDaisy/src/hid/usb.h **** /** 
ARM GAS  C:\Users\skipi\AppData\Local\Temp\ccs8qXFk.s 			page 6


  14:../../libs/PoliTeKDSP/libs/libDaisy/src/hid/usb.h ****     @brief Interface for initializing and using the USB Peripherals on the daisy
  15:../../libs/PoliTeKDSP/libs/libDaisy/src/hid/usb.h ****     @author Stephen Hensley
  16:../../libs/PoliTeKDSP/libs/libDaisy/src/hid/usb.h ****     @date December 2019
  17:../../libs/PoliTeKDSP/libs/libDaisy/src/hid/usb.h **** */
  18:../../libs/PoliTeKDSP/libs/libDaisy/src/hid/usb.h **** class UsbHandle
  19:../../libs/PoliTeKDSP/libs/libDaisy/src/hid/usb.h **** {
  20:../../libs/PoliTeKDSP/libs/libDaisy/src/hid/usb.h ****   public:
  21:../../libs/PoliTeKDSP/libs/libDaisy/src/hid/usb.h ****     /** Return values for USBHandle Functions */
  22:../../libs/PoliTeKDSP/libs/libDaisy/src/hid/usb.h ****     enum class Result
  23:../../libs/PoliTeKDSP/libs/libDaisy/src/hid/usb.h ****     {
  24:../../libs/PoliTeKDSP/libs/libDaisy/src/hid/usb.h ****         OK,
  25:../../libs/PoliTeKDSP/libs/libDaisy/src/hid/usb.h ****         ERR,
  26:../../libs/PoliTeKDSP/libs/libDaisy/src/hid/usb.h ****     };
  27:../../libs/PoliTeKDSP/libs/libDaisy/src/hid/usb.h **** 
  28:../../libs/PoliTeKDSP/libs/libDaisy/src/hid/usb.h ****     /** Specified which of the two USB Peripherals to initialize. */
  29:../../libs/PoliTeKDSP/libs/libDaisy/src/hid/usb.h ****     enum UsbPeriph
  30:../../libs/PoliTeKDSP/libs/libDaisy/src/hid/usb.h ****     {
  31:../../libs/PoliTeKDSP/libs/libDaisy/src/hid/usb.h ****         FS_INTERNAL, /**< Internal pin */
  32:../../libs/PoliTeKDSP/libs/libDaisy/src/hid/usb.h ****         FS_EXTERNAL, /**< FS External D+ pin is Pin 38 (GPIO32). FS External D- pin is Pin 37 (GPIO
  33:../../libs/PoliTeKDSP/libs/libDaisy/src/hid/usb.h ****         FS_BOTH,     /**< Both */
  34:../../libs/PoliTeKDSP/libs/libDaisy/src/hid/usb.h ****     };
  35:../../libs/PoliTeKDSP/libs/libDaisy/src/hid/usb.h **** 
  36:../../libs/PoliTeKDSP/libs/libDaisy/src/hid/usb.h **** 
  37:../../libs/PoliTeKDSP/libs/libDaisy/src/hid/usb.h ****     /** Function called upon reception of a buffer */
  38:../../libs/PoliTeKDSP/libs/libDaisy/src/hid/usb.h ****     typedef void (*ReceiveCallback)(uint8_t* buff, uint32_t* len);
  39:../../libs/PoliTeKDSP/libs/libDaisy/src/hid/usb.h **** 
  40:../../libs/PoliTeKDSP/libs/libDaisy/src/hid/usb.h ****     UsbHandle() {}
  41:../../libs/PoliTeKDSP/libs/libDaisy/src/hid/usb.h **** 
  42:../../libs/PoliTeKDSP/libs/libDaisy/src/hid/usb.h ****     ~UsbHandle() {}
  81              		.loc 6 42 5 is_stmt 1 view .LVU9
  82              		.loc 6 42 5 is_stmt 0 view .LVU10
  83              	.LBE571:
  84              	.LBB572:
  85              	.LBI572:
  86              		.file 7 "../../libs/PoliTeKDSP/libs/libDaisy/src/per/adc.h"
   1:../../libs/PoliTeKDSP/libs/libDaisy/src/per/adc.h **** #pragma once
   2:../../libs/PoliTeKDSP/libs/libDaisy/src/per/adc.h **** #ifndef DSY_ADC_H
   3:../../libs/PoliTeKDSP/libs/libDaisy/src/per/adc.h **** #define DSY_ADC_H /**< Macro */
   4:../../libs/PoliTeKDSP/libs/libDaisy/src/per/adc.h **** #include <stdint.h>
   5:../../libs/PoliTeKDSP/libs/libDaisy/src/per/adc.h **** #include <stdlib.h>
   6:../../libs/PoliTeKDSP/libs/libDaisy/src/per/adc.h **** #include "daisy_core.h"
   7:../../libs/PoliTeKDSP/libs/libDaisy/src/per/adc.h **** #include "per/gpio.h"
   8:../../libs/PoliTeKDSP/libs/libDaisy/src/per/adc.h **** 
   9:../../libs/PoliTeKDSP/libs/libDaisy/src/per/adc.h **** #define DSY_ADC_MAX_CHANNELS 16 /**< Maximum number of ADC channels */
  10:../../libs/PoliTeKDSP/libs/libDaisy/src/per/adc.h **** 
  11:../../libs/PoliTeKDSP/libs/libDaisy/src/per/adc.h **** namespace daisy
  12:../../libs/PoliTeKDSP/libs/libDaisy/src/per/adc.h **** {
  13:../../libs/PoliTeKDSP/libs/libDaisy/src/per/adc.h **** /** @addtogroup per_analog
  14:../../libs/PoliTeKDSP/libs/libDaisy/src/per/adc.h ****     @{
  15:../../libs/PoliTeKDSP/libs/libDaisy/src/per/adc.h **** */
  16:../../libs/PoliTeKDSP/libs/libDaisy/src/per/adc.h **** 
  17:../../libs/PoliTeKDSP/libs/libDaisy/src/per/adc.h **** /* While there may not be many configuration options here,
  18:../../libs/PoliTeKDSP/libs/libDaisy/src/per/adc.h **** using a struct like this allows us to add more configuration
  19:../../libs/PoliTeKDSP/libs/libDaisy/src/per/adc.h **** later without breaking existing functionality.
  20:../../libs/PoliTeKDSP/libs/libDaisy/src/per/adc.h **** */
  21:../../libs/PoliTeKDSP/libs/libDaisy/src/per/adc.h **** 
  22:../../libs/PoliTeKDSP/libs/libDaisy/src/per/adc.h **** /** @brief   Configuration Structure for an ADC Channel 
ARM GAS  C:\Users\skipi\AppData\Local\Temp\ccs8qXFk.s 			page 7


  23:../../libs/PoliTeKDSP/libs/libDaisy/src/per/adc.h ****  *  @details This can be used to configure a a single input, 
  24:../../libs/PoliTeKDSP/libs/libDaisy/src/per/adc.h ****  *           or a multiplexed input, allowing up to 8 inputs on 
  25:../../libs/PoliTeKDSP/libs/libDaisy/src/per/adc.h ****  *           one channel.
  26:../../libs/PoliTeKDSP/libs/libDaisy/src/per/adc.h ****  *  @note    Sharing data lines to multiple muxes _is_ possible, but
  27:../../libs/PoliTeKDSP/libs/libDaisy/src/per/adc.h ****  *           each channel sharing data lines must be set to the maximum
  28:../../libs/PoliTeKDSP/libs/libDaisy/src/per/adc.h ****  *           number of channels, even if some multiplexers have fewer
  29:../../libs/PoliTeKDSP/libs/libDaisy/src/per/adc.h ****  *           inputs connected.
  30:../../libs/PoliTeKDSP/libs/libDaisy/src/per/adc.h **** */
  31:../../libs/PoliTeKDSP/libs/libDaisy/src/per/adc.h **** struct AdcChannelConfig
  32:../../libs/PoliTeKDSP/libs/libDaisy/src/per/adc.h **** {
  33:../../libs/PoliTeKDSP/libs/libDaisy/src/per/adc.h ****     /** Which pin to use for multiplexing */
  34:../../libs/PoliTeKDSP/libs/libDaisy/src/per/adc.h ****     enum MuxPin
  35:../../libs/PoliTeKDSP/libs/libDaisy/src/per/adc.h ****     {
  36:../../libs/PoliTeKDSP/libs/libDaisy/src/per/adc.h ****         MUX_SEL_0,    /**< & */
  37:../../libs/PoliTeKDSP/libs/libDaisy/src/per/adc.h ****         MUX_SEL_1,    /**< & */
  38:../../libs/PoliTeKDSP/libs/libDaisy/src/per/adc.h ****         MUX_SEL_2,    /**< & */
  39:../../libs/PoliTeKDSP/libs/libDaisy/src/per/adc.h ****         MUX_SEL_LAST, /**< & */
  40:../../libs/PoliTeKDSP/libs/libDaisy/src/per/adc.h ****     };
  41:../../libs/PoliTeKDSP/libs/libDaisy/src/per/adc.h **** 
  42:../../libs/PoliTeKDSP/libs/libDaisy/src/per/adc.h ****     /** \brief per channel conversion speed added to fixed time based on bitdepth, etc. */
  43:../../libs/PoliTeKDSP/libs/libDaisy/src/per/adc.h ****     enum ConversionSpeed
  44:../../libs/PoliTeKDSP/libs/libDaisy/src/per/adc.h ****     {
  45:../../libs/PoliTeKDSP/libs/libDaisy/src/per/adc.h ****         SPEED_1CYCLES_5,
  46:../../libs/PoliTeKDSP/libs/libDaisy/src/per/adc.h ****         SPEED_2CYCLES_5,
  47:../../libs/PoliTeKDSP/libs/libDaisy/src/per/adc.h ****         SPEED_8CYCLES_5,
  48:../../libs/PoliTeKDSP/libs/libDaisy/src/per/adc.h ****         SPEED_16CYCLES_5,
  49:../../libs/PoliTeKDSP/libs/libDaisy/src/per/adc.h ****         SPEED_32CYCLES_5,
  50:../../libs/PoliTeKDSP/libs/libDaisy/src/per/adc.h ****         SPEED_64CYCLES_5,
  51:../../libs/PoliTeKDSP/libs/libDaisy/src/per/adc.h ****         SPEED_387CYCLES_5,
  52:../../libs/PoliTeKDSP/libs/libDaisy/src/per/adc.h ****         SPEED_810CYCLES_5,
  53:../../libs/PoliTeKDSP/libs/libDaisy/src/per/adc.h ****     };
  54:../../libs/PoliTeKDSP/libs/libDaisy/src/per/adc.h **** 
  55:../../libs/PoliTeKDSP/libs/libDaisy/src/per/adc.h ****     /** Initializes a single ADC pin as an ADC. 
  56:../../libs/PoliTeKDSP/libs/libDaisy/src/per/adc.h ****     \param pin Pin to init.
  57:../../libs/PoliTeKDSP/libs/libDaisy/src/per/adc.h ****     \param speed conversion speed for this pin defaults to 8.5 cycles
  58:../../libs/PoliTeKDSP/libs/libDaisy/src/per/adc.h ****      */
  59:../../libs/PoliTeKDSP/libs/libDaisy/src/per/adc.h ****     void InitSingle(Pin pin, ConversionSpeed speed = SPEED_8CYCLES_5);
  60:../../libs/PoliTeKDSP/libs/libDaisy/src/per/adc.h **** 
  61:../../libs/PoliTeKDSP/libs/libDaisy/src/per/adc.h ****     /** 
  62:../../libs/PoliTeKDSP/libs/libDaisy/src/per/adc.h ****     Initializes a single ADC pin as a Multiplexed ADC.
  63:../../libs/PoliTeKDSP/libs/libDaisy/src/per/adc.h ****     Requires a CD405X Multiplexer connected to the pin.
  64:../../libs/PoliTeKDSP/libs/libDaisy/src/per/adc.h ****     You only need to supply the mux pins that are required,
  65:../../libs/PoliTeKDSP/libs/libDaisy/src/per/adc.h ****     e.g. a 4052 mux would only require mux_0 and mux_1.
  66:../../libs/PoliTeKDSP/libs/libDaisy/src/per/adc.h ****     Internal Callbacks handle the pin addressing.
  67:../../libs/PoliTeKDSP/libs/libDaisy/src/per/adc.h ****     \param adc_pin &
  68:../../libs/PoliTeKDSP/libs/libDaisy/src/per/adc.h ****     \param mux_channels must be 1-8
  69:../../libs/PoliTeKDSP/libs/libDaisy/src/per/adc.h ****     \param mux_0 First mux pin
  70:../../libs/PoliTeKDSP/libs/libDaisy/src/per/adc.h ****     \param mux_1 Second mux pin
  71:../../libs/PoliTeKDSP/libs/libDaisy/src/per/adc.h ****     \param mux_2 Third mux pin
  72:../../libs/PoliTeKDSP/libs/libDaisy/src/per/adc.h ****     \param speed conversion speed for this pin defaults to 8.5 cycles
  73:../../libs/PoliTeKDSP/libs/libDaisy/src/per/adc.h ****     */
  74:../../libs/PoliTeKDSP/libs/libDaisy/src/per/adc.h ****     void InitMux(Pin             adc_pin,
  75:../../libs/PoliTeKDSP/libs/libDaisy/src/per/adc.h ****                  size_t          mux_channels,
  76:../../libs/PoliTeKDSP/libs/libDaisy/src/per/adc.h ****                  Pin             mux_0,
  77:../../libs/PoliTeKDSP/libs/libDaisy/src/per/adc.h ****                  Pin             mux_1 = Pin(PORTX, 0),
  78:../../libs/PoliTeKDSP/libs/libDaisy/src/per/adc.h ****                  Pin             mux_2 = Pin(PORTX, 0),
  79:../../libs/PoliTeKDSP/libs/libDaisy/src/per/adc.h ****                  ConversionSpeed speed = SPEED_8CYCLES_5);
ARM GAS  C:\Users\skipi\AppData\Local\Temp\ccs8qXFk.s 			page 8


  80:../../libs/PoliTeKDSP/libs/libDaisy/src/per/adc.h **** 
  81:../../libs/PoliTeKDSP/libs/libDaisy/src/per/adc.h ****     GPIO            pin_;                   /**< & */
  82:../../libs/PoliTeKDSP/libs/libDaisy/src/per/adc.h ****     GPIO            mux_pin_[MUX_SEL_LAST]; /**< & */
  83:../../libs/PoliTeKDSP/libs/libDaisy/src/per/adc.h ****     uint8_t         mux_channels_;          /**< & */
  84:../../libs/PoliTeKDSP/libs/libDaisy/src/per/adc.h ****     ConversionSpeed speed_;
  85:../../libs/PoliTeKDSP/libs/libDaisy/src/per/adc.h **** };
  86:../../libs/PoliTeKDSP/libs/libDaisy/src/per/adc.h **** 
  87:../../libs/PoliTeKDSP/libs/libDaisy/src/per/adc.h **** /**
  88:../../libs/PoliTeKDSP/libs/libDaisy/src/per/adc.h ****    @brief Handler for analog to digital conversion
  89:../../libs/PoliTeKDSP/libs/libDaisy/src/per/adc.h **** */
  90:../../libs/PoliTeKDSP/libs/libDaisy/src/per/adc.h **** class AdcHandle
  91:../../libs/PoliTeKDSP/libs/libDaisy/src/per/adc.h **** {
  92:../../libs/PoliTeKDSP/libs/libDaisy/src/per/adc.h ****   public:
  93:../../libs/PoliTeKDSP/libs/libDaisy/src/per/adc.h ****     /** Supported oversampling amounts */
  94:../../libs/PoliTeKDSP/libs/libDaisy/src/per/adc.h ****     enum OverSampling
  95:../../libs/PoliTeKDSP/libs/libDaisy/src/per/adc.h ****     {
  96:../../libs/PoliTeKDSP/libs/libDaisy/src/per/adc.h ****         OVS_NONE, /**< & */
  97:../../libs/PoliTeKDSP/libs/libDaisy/src/per/adc.h ****         OVS_4,    /**< & */
  98:../../libs/PoliTeKDSP/libs/libDaisy/src/per/adc.h ****         OVS_8,    /**< & */
  99:../../libs/PoliTeKDSP/libs/libDaisy/src/per/adc.h ****         OVS_16,   /**< & */
 100:../../libs/PoliTeKDSP/libs/libDaisy/src/per/adc.h ****         OVS_32,   /**< & */
 101:../../libs/PoliTeKDSP/libs/libDaisy/src/per/adc.h ****         OVS_64,   /**< & */
 102:../../libs/PoliTeKDSP/libs/libDaisy/src/per/adc.h ****         OVS_128,  /**< & */
 103:../../libs/PoliTeKDSP/libs/libDaisy/src/per/adc.h ****         OVS_256,  /**< & */
 104:../../libs/PoliTeKDSP/libs/libDaisy/src/per/adc.h ****         OVS_512,  /**< & */
 105:../../libs/PoliTeKDSP/libs/libDaisy/src/per/adc.h ****         OVS_1024, /**< & */
 106:../../libs/PoliTeKDSP/libs/libDaisy/src/per/adc.h ****         OVS_LAST, /**< & */
 107:../../libs/PoliTeKDSP/libs/libDaisy/src/per/adc.h ****     };
 108:../../libs/PoliTeKDSP/libs/libDaisy/src/per/adc.h **** 
 109:../../libs/PoliTeKDSP/libs/libDaisy/src/per/adc.h ****     AdcHandle() {}
 110:../../libs/PoliTeKDSP/libs/libDaisy/src/per/adc.h ****     ~AdcHandle() {}
  87              		.loc 7 110 5 is_stmt 1 view .LVU11
  88              		.loc 7 110 5 is_stmt 0 view .LVU12
  89              	.LBE572:
  90              	.LBB573:
  91              	.LBI573:
  92              		.file 8 "../../libs/PoliTeKDSP/libs/libDaisy/src/hid/audio.h"
   1:../../libs/PoliTeKDSP/libs/libDaisy/src/hid/audio.h **** #ifndef DSY_AUDIO_H
   2:../../libs/PoliTeKDSP/libs/libDaisy/src/hid/audio.h **** #define DSY_AUDIO_H /**< & */
   3:../../libs/PoliTeKDSP/libs/libDaisy/src/hid/audio.h **** 
   4:../../libs/PoliTeKDSP/libs/libDaisy/src/hid/audio.h **** #include "per/sai.h"
   5:../../libs/PoliTeKDSP/libs/libDaisy/src/hid/audio.h **** 
   6:../../libs/PoliTeKDSP/libs/libDaisy/src/hid/audio.h **** namespace daisy
   7:../../libs/PoliTeKDSP/libs/libDaisy/src/hid/audio.h **** {
   8:../../libs/PoliTeKDSP/libs/libDaisy/src/hid/audio.h **** /** @brief Audio Engine Handle
   9:../../libs/PoliTeKDSP/libs/libDaisy/src/hid/audio.h ****  *  @ingroup audio 
  10:../../libs/PoliTeKDSP/libs/libDaisy/src/hid/audio.h ****  *  @details This class allows for higher level access to an audio engine.
  11:../../libs/PoliTeKDSP/libs/libDaisy/src/hid/audio.h ****  *           If you're using a SOM like the DaisySeed or DaisyPatchSM (or any 
  12:../../libs/PoliTeKDSP/libs/libDaisy/src/hid/audio.h ****  *            board that includes one of those objects) then the intialization
  13:../../libs/PoliTeKDSP/libs/libDaisy/src/hid/audio.h ****  *            is already taken  care of.
  14:../../libs/PoliTeKDSP/libs/libDaisy/src/hid/audio.h ****  *           If you're setting up your own custom hardware, or need to make changes
  15:../../libs/PoliTeKDSP/libs/libDaisy/src/hid/audio.h ****  *           you will have to take the following steps:
  16:../../libs/PoliTeKDSP/libs/libDaisy/src/hid/audio.h ****  *             1. Create and Initialize an SaiHandle or two depending on your requirements
  17:../../libs/PoliTeKDSP/libs/libDaisy/src/hid/audio.h ****  *             2. Initialize the Audio Handle with the desired settings and the Initialized SaiHand
  18:../../libs/PoliTeKDSP/libs/libDaisy/src/hid/audio.h ****  *             3. If the connected codec requires special configuration or initialization, do so
  19:../../libs/PoliTeKDSP/libs/libDaisy/src/hid/audio.h ****  *             4. Write a callback method using either the AudioCallback or the InterleavingAudioCa
  20:../../libs/PoliTeKDSP/libs/libDaisy/src/hid/audio.h ****  *             5. Start the Audio using one of the StartAudio function
ARM GAS  C:\Users\skipi\AppData\Local\Temp\ccs8qXFk.s 			page 9


  21:../../libs/PoliTeKDSP/libs/libDaisy/src/hid/audio.h ****  */
  22:../../libs/PoliTeKDSP/libs/libDaisy/src/hid/audio.h **** class AudioHandle
  23:../../libs/PoliTeKDSP/libs/libDaisy/src/hid/audio.h **** {
  24:../../libs/PoliTeKDSP/libs/libDaisy/src/hid/audio.h ****   public:
  25:../../libs/PoliTeKDSP/libs/libDaisy/src/hid/audio.h ****     /** Manually configurable details about the Audio Engine */
  26:../../libs/PoliTeKDSP/libs/libDaisy/src/hid/audio.h ****     /** TODO: Figure out how to get samplerate in here. */
  27:../../libs/PoliTeKDSP/libs/libDaisy/src/hid/audio.h ****     struct Config
  28:../../libs/PoliTeKDSP/libs/libDaisy/src/hid/audio.h ****     {
  29:../../libs/PoliTeKDSP/libs/libDaisy/src/hid/audio.h ****         /** number of samples to process per callback */
  30:../../libs/PoliTeKDSP/libs/libDaisy/src/hid/audio.h ****         size_t blocksize = 48;
  31:../../libs/PoliTeKDSP/libs/libDaisy/src/hid/audio.h **** 
  32:../../libs/PoliTeKDSP/libs/libDaisy/src/hid/audio.h ****         /**< Sample rate of audio */
  33:../../libs/PoliTeKDSP/libs/libDaisy/src/hid/audio.h ****         SaiHandle::Config::SampleRate samplerate
  34:../../libs/PoliTeKDSP/libs/libDaisy/src/hid/audio.h ****             = SaiHandle::Config::SampleRate::SAI_48KHZ;
  35:../../libs/PoliTeKDSP/libs/libDaisy/src/hid/audio.h **** 
  36:../../libs/PoliTeKDSP/libs/libDaisy/src/hid/audio.h ****         /** factor for adjustment before and after callback for hardware that may have extra headro
  37:../../libs/PoliTeKDSP/libs/libDaisy/src/hid/audio.h ****         float postgain = 1.f;
  38:../../libs/PoliTeKDSP/libs/libDaisy/src/hid/audio.h **** 
  39:../../libs/PoliTeKDSP/libs/libDaisy/src/hid/audio.h ****         /** factor for additional one-sided compensation to audio path for hardware that may
  40:../../libs/PoliTeKDSP/libs/libDaisy/src/hid/audio.h ****          *  have unequal input/output ranges
  41:../../libs/PoliTeKDSP/libs/libDaisy/src/hid/audio.h ****          */
  42:../../libs/PoliTeKDSP/libs/libDaisy/src/hid/audio.h ****         float output_compensation = 1.f;
  43:../../libs/PoliTeKDSP/libs/libDaisy/src/hid/audio.h ****     };
  44:../../libs/PoliTeKDSP/libs/libDaisy/src/hid/audio.h **** 
  45:../../libs/PoliTeKDSP/libs/libDaisy/src/hid/audio.h ****     enum class Result
  46:../../libs/PoliTeKDSP/libs/libDaisy/src/hid/audio.h ****     {
  47:../../libs/PoliTeKDSP/libs/libDaisy/src/hid/audio.h ****         OK,
  48:../../libs/PoliTeKDSP/libs/libDaisy/src/hid/audio.h ****         ERR,
  49:../../libs/PoliTeKDSP/libs/libDaisy/src/hid/audio.h ****     };
  50:../../libs/PoliTeKDSP/libs/libDaisy/src/hid/audio.h **** 
  51:../../libs/PoliTeKDSP/libs/libDaisy/src/hid/audio.h ****     /** Non-Interleaving input buffer
  52:../../libs/PoliTeKDSP/libs/libDaisy/src/hid/audio.h ****      * Buffer arranged by float[chn][sample] 
  53:../../libs/PoliTeKDSP/libs/libDaisy/src/hid/audio.h ****      * const so that the user can't modify the input
  54:../../libs/PoliTeKDSP/libs/libDaisy/src/hid/audio.h ****      */
  55:../../libs/PoliTeKDSP/libs/libDaisy/src/hid/audio.h ****     typedef const float* const* InputBuffer;
  56:../../libs/PoliTeKDSP/libs/libDaisy/src/hid/audio.h **** 
  57:../../libs/PoliTeKDSP/libs/libDaisy/src/hid/audio.h ****     /** Non-Interleaving output buffer
  58:../../libs/PoliTeKDSP/libs/libDaisy/src/hid/audio.h ****      * Arranged by float[chn][sample] 
  59:../../libs/PoliTeKDSP/libs/libDaisy/src/hid/audio.h ****      */
  60:../../libs/PoliTeKDSP/libs/libDaisy/src/hid/audio.h ****     typedef float** OutputBuffer;
  61:../../libs/PoliTeKDSP/libs/libDaisy/src/hid/audio.h **** 
  62:../../libs/PoliTeKDSP/libs/libDaisy/src/hid/audio.h ****     /** Type for a Non-Interleaving audio callback 
  63:../../libs/PoliTeKDSP/libs/libDaisy/src/hid/audio.h ****      * Non-Interleaving audio callbacks in daisy will be of this type
  64:../../libs/PoliTeKDSP/libs/libDaisy/src/hid/audio.h ****      */
  65:../../libs/PoliTeKDSP/libs/libDaisy/src/hid/audio.h ****     typedef void (*AudioCallback)(InputBuffer  in,
  66:../../libs/PoliTeKDSP/libs/libDaisy/src/hid/audio.h ****                                   OutputBuffer out,
  67:../../libs/PoliTeKDSP/libs/libDaisy/src/hid/audio.h ****                                   size_t       size);
  68:../../libs/PoliTeKDSP/libs/libDaisy/src/hid/audio.h **** 
  69:../../libs/PoliTeKDSP/libs/libDaisy/src/hid/audio.h ****     /** Interleaving Input buffer
  70:../../libs/PoliTeKDSP/libs/libDaisy/src/hid/audio.h ****      ** audio is prepared as { L0, R0, L1, R1, . . . LN, RN }]
  71:../../libs/PoliTeKDSP/libs/libDaisy/src/hid/audio.h ****      ** this is const, as the user shouldn't modify it
  72:../../libs/PoliTeKDSP/libs/libDaisy/src/hid/audio.h ****     */
  73:../../libs/PoliTeKDSP/libs/libDaisy/src/hid/audio.h ****     typedef const float* InterleavingInputBuffer;
  74:../../libs/PoliTeKDSP/libs/libDaisy/src/hid/audio.h **** 
  75:../../libs/PoliTeKDSP/libs/libDaisy/src/hid/audio.h ****     /** Interleaving Output buffer 
  76:../../libs/PoliTeKDSP/libs/libDaisy/src/hid/audio.h ****      ** audio is prepared as { L0, R0, L1, R1, . . . LN, RN }
  77:../../libs/PoliTeKDSP/libs/libDaisy/src/hid/audio.h ****     */
ARM GAS  C:\Users\skipi\AppData\Local\Temp\ccs8qXFk.s 			page 10


  78:../../libs/PoliTeKDSP/libs/libDaisy/src/hid/audio.h ****     typedef float* InterleavingOutputBuffer;
  79:../../libs/PoliTeKDSP/libs/libDaisy/src/hid/audio.h **** 
  80:../../libs/PoliTeKDSP/libs/libDaisy/src/hid/audio.h ****     /** Interleaving Audio Callback 
  81:../../libs/PoliTeKDSP/libs/libDaisy/src/hid/audio.h ****      * Interleaving audio callbacks in daisy must be of this type
  82:../../libs/PoliTeKDSP/libs/libDaisy/src/hid/audio.h ****      */
  83:../../libs/PoliTeKDSP/libs/libDaisy/src/hid/audio.h ****     typedef void (*InterleavingAudioCallback)(InterleavingInputBuffer  in,
  84:../../libs/PoliTeKDSP/libs/libDaisy/src/hid/audio.h ****                                               InterleavingOutputBuffer out,
  85:../../libs/PoliTeKDSP/libs/libDaisy/src/hid/audio.h ****                                               size_t                   size);
  86:../../libs/PoliTeKDSP/libs/libDaisy/src/hid/audio.h **** 
  87:../../libs/PoliTeKDSP/libs/libDaisy/src/hid/audio.h ****     AudioHandle() : pimpl_(nullptr) {}
  88:../../libs/PoliTeKDSP/libs/libDaisy/src/hid/audio.h ****     ~AudioHandle() {}
  93              		.loc 8 88 5 is_stmt 1 view .LVU13
  94              		.loc 8 88 5 is_stmt 0 view .LVU14
  95              	.LBE573:
  96              		.loc 3 22 19 view .LVU15
  97 0000 7047     		bx	lr
  98              		.cfi_endproc
  99              	.LFE2729:
 101              		.weak	_ZN5daisy9DaisySeedD1Ev
 102              		.thumb_set _ZN5daisy9DaisySeedD1Ev,_ZN5daisy9DaisySeedD2Ev
 103 0002 00BF     		.section	.text._Z13AudioCallbackPKPKfPPfj,"ax",%progbits
 104              		.align	1
 105              		.p2align 2,,3
 106              		.global	_Z13AudioCallbackPKPKfPPfj
 107              		.syntax unified
 108              		.thumb
 109              		.thumb_func
 110              		.fpu fpv5-d16
 112              	_Z13AudioCallbackPKPKfPPfj:
 113              	.LVL2:
 114              	.LFB2782:
 115              		.file 9 "main.cpp"
   1:main.cpp      **** #include "daisy_seed.h"
   2:main.cpp      **** #include "hid/encoder.h"
   3:main.cpp      **** #include "MenuManager.h"
   4:main.cpp      **** #include "displayHandler.h"
   5:main.cpp      **** 
   6:main.cpp      **** using namespace daisy;
   7:main.cpp      **** 
   8:main.cpp      **** DaisySeed      hw;
   9:main.cpp      **** Encoder        enc;
  10:main.cpp      **** MenuManager    menu;
  11:main.cpp      **** MyOledDisplay  disp;
  12:main.cpp      **** DisplayHandler disp_handle(&disp);
  13:main.cpp      **** 
  14:main.cpp      **** void AudioCallback(AudioHandle::InputBuffer in, AudioHandle::OutputBuffer out, size_t size) {
 116              		.loc 9 14 93 is_stmt 1 view -0
 117              		.cfi_startproc
 118              		@ args = 0, pretend = 0, frame = 8
 119              		@ frame_needed = 0, uses_anonymous_args = 0
  15:main.cpp      ****     // Audio callback pulita, solo per DSP
  16:main.cpp      ****     for (size_t i = 0; i < size; i++) {
 120              		.loc 9 16 5 view .LVU17
 121              	.LBB574:
 122              		.loc 9 16 26 view .LVU18
 123 0000 0AB3     		cbz	r2, .L15
 124 0002 1346     		mov	r3, r2
ARM GAS  C:\Users\skipi\AppData\Local\Temp\ccs8qXFk.s 			page 11


 125 0004 9200     		lsls	r2, r2, #2
 126              	.LVL3:
 127              		.loc 9 16 26 is_stmt 0 view .LVU19
 128              	.LBE574:
  14:main.cpp      ****     // Audio callback pulita, solo per DSP
 129              		.loc 9 14 93 view .LVU20
 130 0006 10B5     		push	{r4, lr}
 131              		.cfi_def_cfa_offset 8
 132              		.cfi_offset 4, -8
 133              		.cfi_offset 14, -4
 134              	.LBB575:
  17:main.cpp      ****         out[0][i] = out[1][i] = 0.0f;
 135              		.loc 9 17 26 view .LVU21
 136 0008 D1E90040 		ldrd	r4, r0, [r1]
 137              	.LVL4:
 138              		.loc 9 17 26 view .LVU22
 139              	.LBE575:
  14:main.cpp      ****     // Audio callback pulita, solo per DSP
 140              		.loc 9 14 93 view .LVU23
 141 000c 82B0     		sub	sp, sp, #8
 142              		.cfi_def_cfa_offset 16
 143 000e 04EB8303 		add	r3, r4, r3, lsl #2
 144              	.LVL5:
  14:main.cpp      ****     // Audio callback pulita, solo per DSP
 145              		.loc 9 14 93 view .LVU24
 146 0012 9842     		cmp	r0, r3
 147 0014 02D2     		bcs	.L9
 148 0016 8118     		adds	r1, r0, r2
 149              	.LVL6:
  14:main.cpp      ****     // Audio callback pulita, solo per DSP
 150              		.loc 9 14 93 view .LVU25
 151 0018 8C42     		cmp	r4, r1
 152 001a 0BD3     		bcc	.L8
 153              	.L9:
 154              	.LBB576:
 155              		.loc 9 17 31 view .LVU26
 156 001c 0021     		movs	r1, #0
 157 001e 0192     		str	r2, [sp, #4]
 158 0020 FFF7FEFF 		bl	memset
 159              	.LVL7:
 160              		.loc 9 17 19 view .LVU27
 161 0024 019A     		ldr	r2, [sp, #4]
 162 0026 0021     		movs	r1, #0
 163 0028 2046     		mov	r0, r4
 164              	.LBE576:
  18:main.cpp      ****     }
  19:main.cpp      **** }
 165              		.loc 9 19 1 view .LVU28
 166 002a 02B0     		add	sp, sp, #8
 167              		.cfi_remember_state
 168              		.cfi_def_cfa_offset 8
 169              		@ sp needed
 170 002c BDE81040 		pop	{r4, lr}
 171              		.cfi_restore 14
 172              		.cfi_restore 4
 173              		.cfi_def_cfa_offset 0
 174              	.LBB577:
ARM GAS  C:\Users\skipi\AppData\Local\Temp\ccs8qXFk.s 			page 12


  17:main.cpp      ****         out[0][i] = out[1][i] = 0.0f;
 175              		.loc 9 17 19 view .LVU29
 176 0030 FFF7FEBF 		b	memset
 177              	.LVL8:
 178              	.L8:
 179              		.cfi_restore_state
  17:main.cpp      ****         out[0][i] = out[1][i] = 0.0f;
 180              		.loc 9 17 9 is_stmt 1 view .LVU30
  17:main.cpp      ****         out[0][i] = out[1][i] = 0.0f;
 181              		.loc 9 17 31 is_stmt 0 view .LVU31
 182 0034 0023     		movs	r3, #0
 183 0036 40F8043B 		str	r3, [r0], #4	@ float
  16:main.cpp      ****         out[0][i] = out[1][i] = 0.0f;
 184              		.loc 9 16 26 view .LVU32
 185 003a 8842     		cmp	r0, r1
  17:main.cpp      ****         out[0][i] = out[1][i] = 0.0f;
 186              		.loc 9 17 19 view .LVU33
 187 003c 44F8043B 		str	r3, [r4], #4	@ float
  16:main.cpp      ****         out[0][i] = out[1][i] = 0.0f;
 188              		.loc 9 16 5 is_stmt 1 view .LVU34
  16:main.cpp      ****         out[0][i] = out[1][i] = 0.0f;
 189              		.loc 9 16 26 view .LVU35
 190 0040 F8D1     		bne	.L8
 191              	.LBE577:
 192              		.loc 9 19 1 is_stmt 0 view .LVU36
 193 0042 02B0     		add	sp, sp, #8
 194              		.cfi_def_cfa_offset 8
 195              		@ sp needed
 196 0044 10BD     		pop	{r4, pc}
 197              	.LVL9:
 198              	.L15:
 199              		.cfi_def_cfa_offset 0
 200              		.cfi_restore 4
 201              		.cfi_restore 14
 202              		.loc 9 19 1 view .LVU37
 203 0046 7047     		bx	lr
 204              		.cfi_endproc
 205              	.LFE2782:
 207              		.section	.text._ZN5daisy11OledDisplayINS_13SSD130xDriverILj128ELj64ENS_19SSD130xI2CTransportEEEED2
 208              		.align	1
 209              		.p2align 2,,3
 210              		.weak	_ZN5daisy11OledDisplayINS_13SSD130xDriverILj128ELj64ENS_19SSD130xI2CTransportEEEED2Ev
 211              		.syntax unified
 212              		.thumb
 213              		.thumb_func
 214              		.fpu fpv5-d16
 216              	_ZN5daisy11OledDisplayINS_13SSD130xDriverILj128ELj64ENS_19SSD130xI2CTransportEEEED2Ev:
 217              	.LVL10:
 218              	.LFB2831:
 219              		.file 10 "../../libs/PoliTeKDSP/libs/libDaisy/src/hid/disp/oled_display.h"
   1:../../libs/PoliTeKDSP/libs/libDaisy/src/hid/disp/oled_display.h **** #pragma once
   2:../../libs/PoliTeKDSP/libs/libDaisy/src/hid/disp/oled_display.h **** #ifndef DSY_OLED_DISPLAY_H
   3:../../libs/PoliTeKDSP/libs/libDaisy/src/hid/disp/oled_display.h **** #define DSY_OLED_DISPLAY_H /**< Macro */
   4:../../libs/PoliTeKDSP/libs/libDaisy/src/hid/disp/oled_display.h **** 
   5:../../libs/PoliTeKDSP/libs/libDaisy/src/hid/disp/oled_display.h **** #include "display.h"
   6:../../libs/PoliTeKDSP/libs/libDaisy/src/hid/disp/oled_display.h **** 
   7:../../libs/PoliTeKDSP/libs/libDaisy/src/hid/disp/oled_display.h **** namespace daisy
ARM GAS  C:\Users\skipi\AppData\Local\Temp\ccs8qXFk.s 			page 13


   8:../../libs/PoliTeKDSP/libs/libDaisy/src/hid/disp/oled_display.h **** {
   9:../../libs/PoliTeKDSP/libs/libDaisy/src/hid/disp/oled_display.h **** /** 
  10:../../libs/PoliTeKDSP/libs/libDaisy/src/hid/disp/oled_display.h ****  * This class is for drawing to a monochrome OLED display. 
  11:../../libs/PoliTeKDSP/libs/libDaisy/src/hid/disp/oled_display.h ****  * @ingroup device
  12:../../libs/PoliTeKDSP/libs/libDaisy/src/hid/disp/oled_display.h **** */
  13:../../libs/PoliTeKDSP/libs/libDaisy/src/hid/disp/oled_display.h **** template <typename DisplayDriver>
  14:../../libs/PoliTeKDSP/libs/libDaisy/src/hid/disp/oled_display.h **** class OledDisplay : public OneBitGraphicsDisplayImpl<OledDisplay<DisplayDriver>>
  15:../../libs/PoliTeKDSP/libs/libDaisy/src/hid/disp/oled_display.h **** {
  16:../../libs/PoliTeKDSP/libs/libDaisy/src/hid/disp/oled_display.h ****   public:
  17:../../libs/PoliTeKDSP/libs/libDaisy/src/hid/disp/oled_display.h ****     OledDisplay() {}
  18:../../libs/PoliTeKDSP/libs/libDaisy/src/hid/disp/oled_display.h ****     virtual ~OledDisplay() {}
 220              		.loc 10 18 13 is_stmt 1 view -0
 221              		.cfi_startproc
 222              		@ args = 0, pretend = 0, frame = 0
 223              		@ frame_needed = 0, uses_anonymous_args = 0
 224              		@ link register save eliminated.
 225              	.LBB578:
 226              	.LBI578:
 227              		.file 11 "../../libs/PoliTeKDSP/libs/libDaisy/src/hid/disp/display.h"
   1:../../libs/PoliTeKDSP/libs/libDaisy/src/hid/disp/display.h **** #pragma once
   2:../../libs/PoliTeKDSP/libs/libDaisy/src/hid/disp/display.h **** #ifndef DSY_DISPLAY_H
   3:../../libs/PoliTeKDSP/libs/libDaisy/src/hid/disp/display.h **** #define DSY_DISPLAY_H /**< Macro */
   4:../../libs/PoliTeKDSP/libs/libDaisy/src/hid/disp/display.h **** #include <cmath>
   5:../../libs/PoliTeKDSP/libs/libDaisy/src/hid/disp/display.h **** #include "util/oled_fonts.h"
   6:../../libs/PoliTeKDSP/libs/libDaisy/src/hid/disp/display.h **** #include "daisy_core.h"
   7:../../libs/PoliTeKDSP/libs/libDaisy/src/hid/disp/display.h **** #include "graphics_common.h"
   8:../../libs/PoliTeKDSP/libs/libDaisy/src/hid/disp/display.h **** 
   9:../../libs/PoliTeKDSP/libs/libDaisy/src/hid/disp/display.h **** #ifndef deg2rad
  10:../../libs/PoliTeKDSP/libs/libDaisy/src/hid/disp/display.h **** #define deg2rad(deg) ((deg)*3.141592 / 180.0)
  11:../../libs/PoliTeKDSP/libs/libDaisy/src/hid/disp/display.h **** #endif
  12:../../libs/PoliTeKDSP/libs/libDaisy/src/hid/disp/display.h **** 
  13:../../libs/PoliTeKDSP/libs/libDaisy/src/hid/disp/display.h **** namespace daisy
  14:../../libs/PoliTeKDSP/libs/libDaisy/src/hid/disp/display.h **** {
  15:../../libs/PoliTeKDSP/libs/libDaisy/src/hid/disp/display.h **** /** 
  16:../../libs/PoliTeKDSP/libs/libDaisy/src/hid/disp/display.h ****  * This interface is used as a base class for all types of 1bit-per-pixel
  17:../../libs/PoliTeKDSP/libs/libDaisy/src/hid/disp/display.h ****  * graphics displays.
  18:../../libs/PoliTeKDSP/libs/libDaisy/src/hid/disp/display.h **** */
  19:../../libs/PoliTeKDSP/libs/libDaisy/src/hid/disp/display.h **** class OneBitGraphicsDisplay
  20:../../libs/PoliTeKDSP/libs/libDaisy/src/hid/disp/display.h **** {
  21:../../libs/PoliTeKDSP/libs/libDaisy/src/hid/disp/display.h ****   public:
  22:../../libs/PoliTeKDSP/libs/libDaisy/src/hid/disp/display.h ****     OneBitGraphicsDisplay() {}
  23:../../libs/PoliTeKDSP/libs/libDaisy/src/hid/disp/display.h ****     virtual ~OneBitGraphicsDisplay() {}
  24:../../libs/PoliTeKDSP/libs/libDaisy/src/hid/disp/display.h **** 
  25:../../libs/PoliTeKDSP/libs/libDaisy/src/hid/disp/display.h ****     virtual uint16_t Height() const = 0;
  26:../../libs/PoliTeKDSP/libs/libDaisy/src/hid/disp/display.h ****     virtual uint16_t Width() const  = 0;
  27:../../libs/PoliTeKDSP/libs/libDaisy/src/hid/disp/display.h **** 
  28:../../libs/PoliTeKDSP/libs/libDaisy/src/hid/disp/display.h ****     Rectangle GetBounds() const
  29:../../libs/PoliTeKDSP/libs/libDaisy/src/hid/disp/display.h ****     {
  30:../../libs/PoliTeKDSP/libs/libDaisy/src/hid/disp/display.h ****         return Rectangle(int16_t(Width()), int16_t(Height()));
  31:../../libs/PoliTeKDSP/libs/libDaisy/src/hid/disp/display.h ****     }
  32:../../libs/PoliTeKDSP/libs/libDaisy/src/hid/disp/display.h **** 
  33:../../libs/PoliTeKDSP/libs/libDaisy/src/hid/disp/display.h **** 
  34:../../libs/PoliTeKDSP/libs/libDaisy/src/hid/disp/display.h ****     size_t CurrentX() { return currentX_; };
  35:../../libs/PoliTeKDSP/libs/libDaisy/src/hid/disp/display.h ****     size_t CurrentY() { return currentY_; };
  36:../../libs/PoliTeKDSP/libs/libDaisy/src/hid/disp/display.h **** 
  37:../../libs/PoliTeKDSP/libs/libDaisy/src/hid/disp/display.h ****     /** 
  38:../../libs/PoliTeKDSP/libs/libDaisy/src/hid/disp/display.h ****     Fills the entire display with either on/off.
ARM GAS  C:\Users\skipi\AppData\Local\Temp\ccs8qXFk.s 			page 14


  39:../../libs/PoliTeKDSP/libs/libDaisy/src/hid/disp/display.h ****     \param on Sets on or off.
  40:../../libs/PoliTeKDSP/libs/libDaisy/src/hid/disp/display.h ****     */
  41:../../libs/PoliTeKDSP/libs/libDaisy/src/hid/disp/display.h ****     virtual void Fill(bool on) = 0;
  42:../../libs/PoliTeKDSP/libs/libDaisy/src/hid/disp/display.h **** 
  43:../../libs/PoliTeKDSP/libs/libDaisy/src/hid/disp/display.h ****     /**
  44:../../libs/PoliTeKDSP/libs/libDaisy/src/hid/disp/display.h ****     Sets the pixel at the specified coordinate to be on/off.
  45:../../libs/PoliTeKDSP/libs/libDaisy/src/hid/disp/display.h ****     \param x   x Coordinate
  46:../../libs/PoliTeKDSP/libs/libDaisy/src/hid/disp/display.h ****     \param y   y coordinate
  47:../../libs/PoliTeKDSP/libs/libDaisy/src/hid/disp/display.h ****     \param on  on or off
  48:../../libs/PoliTeKDSP/libs/libDaisy/src/hid/disp/display.h ****     */
  49:../../libs/PoliTeKDSP/libs/libDaisy/src/hid/disp/display.h ****     virtual void DrawPixel(uint_fast8_t x, uint_fast8_t y, bool on) = 0;
  50:../../libs/PoliTeKDSP/libs/libDaisy/src/hid/disp/display.h **** 
  51:../../libs/PoliTeKDSP/libs/libDaisy/src/hid/disp/display.h ****     /**
  52:../../libs/PoliTeKDSP/libs/libDaisy/src/hid/disp/display.h ****     Draws a line from (x1, y1) to (y1, y2)
  53:../../libs/PoliTeKDSP/libs/libDaisy/src/hid/disp/display.h ****     \param x1  x Coordinate of the starting point
  54:../../libs/PoliTeKDSP/libs/libDaisy/src/hid/disp/display.h ****     \param y1  y Coordinate of the starting point
  55:../../libs/PoliTeKDSP/libs/libDaisy/src/hid/disp/display.h ****     \param x2  x Coordinate of the ending point
  56:../../libs/PoliTeKDSP/libs/libDaisy/src/hid/disp/display.h ****     \param y2  y Coordinate of the ending point
  57:../../libs/PoliTeKDSP/libs/libDaisy/src/hid/disp/display.h ****     \param on  on or off
  58:../../libs/PoliTeKDSP/libs/libDaisy/src/hid/disp/display.h ****     */
  59:../../libs/PoliTeKDSP/libs/libDaisy/src/hid/disp/display.h ****     virtual void DrawLine(uint_fast8_t x1,
  60:../../libs/PoliTeKDSP/libs/libDaisy/src/hid/disp/display.h ****                           uint_fast8_t y1,
  61:../../libs/PoliTeKDSP/libs/libDaisy/src/hid/disp/display.h ****                           uint_fast8_t x2,
  62:../../libs/PoliTeKDSP/libs/libDaisy/src/hid/disp/display.h ****                           uint_fast8_t y2,
  63:../../libs/PoliTeKDSP/libs/libDaisy/src/hid/disp/display.h ****                           bool         on)
  64:../../libs/PoliTeKDSP/libs/libDaisy/src/hid/disp/display.h ****         = 0;
  65:../../libs/PoliTeKDSP/libs/libDaisy/src/hid/disp/display.h **** 
  66:../../libs/PoliTeKDSP/libs/libDaisy/src/hid/disp/display.h ****     /**
  67:../../libs/PoliTeKDSP/libs/libDaisy/src/hid/disp/display.h ****     Draws a rectangle based on two coordinates.
  68:../../libs/PoliTeKDSP/libs/libDaisy/src/hid/disp/display.h ****     \param x1 x Coordinate of the first point
  69:../../libs/PoliTeKDSP/libs/libDaisy/src/hid/disp/display.h ****     \param y1 y Coordinate of the first point
  70:../../libs/PoliTeKDSP/libs/libDaisy/src/hid/disp/display.h ****     \param x2 x Coordinate of the second point
  71:../../libs/PoliTeKDSP/libs/libDaisy/src/hid/disp/display.h ****     \param y2 y Coordinate of the second point
  72:../../libs/PoliTeKDSP/libs/libDaisy/src/hid/disp/display.h ****     \param on on or off
  73:../../libs/PoliTeKDSP/libs/libDaisy/src/hid/disp/display.h ****     \param fill fill the rectangle or draw only the outline
  74:../../libs/PoliTeKDSP/libs/libDaisy/src/hid/disp/display.h ****     */
  75:../../libs/PoliTeKDSP/libs/libDaisy/src/hid/disp/display.h ****     virtual void DrawRect(uint_fast8_t x1,
  76:../../libs/PoliTeKDSP/libs/libDaisy/src/hid/disp/display.h ****                           uint_fast8_t y1,
  77:../../libs/PoliTeKDSP/libs/libDaisy/src/hid/disp/display.h ****                           uint_fast8_t x2,
  78:../../libs/PoliTeKDSP/libs/libDaisy/src/hid/disp/display.h ****                           uint_fast8_t y2,
  79:../../libs/PoliTeKDSP/libs/libDaisy/src/hid/disp/display.h ****                           bool         on,
  80:../../libs/PoliTeKDSP/libs/libDaisy/src/hid/disp/display.h ****                           bool         fill = false)
  81:../../libs/PoliTeKDSP/libs/libDaisy/src/hid/disp/display.h ****         = 0;
  82:../../libs/PoliTeKDSP/libs/libDaisy/src/hid/disp/display.h **** 
  83:../../libs/PoliTeKDSP/libs/libDaisy/src/hid/disp/display.h ****     /**
  84:../../libs/PoliTeKDSP/libs/libDaisy/src/hid/disp/display.h ****     Draws a rectangle.
  85:../../libs/PoliTeKDSP/libs/libDaisy/src/hid/disp/display.h ****     \param rect the rectangle
  86:../../libs/PoliTeKDSP/libs/libDaisy/src/hid/disp/display.h ****     \param on   on or off
  87:../../libs/PoliTeKDSP/libs/libDaisy/src/hid/disp/display.h ****     \param fill fill the rectangle or draw only the outline
  88:../../libs/PoliTeKDSP/libs/libDaisy/src/hid/disp/display.h ****     */
  89:../../libs/PoliTeKDSP/libs/libDaisy/src/hid/disp/display.h ****     void DrawRect(const Rectangle& rect, bool on, bool fill = false)
  90:../../libs/PoliTeKDSP/libs/libDaisy/src/hid/disp/display.h ****     {
  91:../../libs/PoliTeKDSP/libs/libDaisy/src/hid/disp/display.h ****         DrawRect(rect.GetX(),
  92:../../libs/PoliTeKDSP/libs/libDaisy/src/hid/disp/display.h ****                  rect.GetY(),
  93:../../libs/PoliTeKDSP/libs/libDaisy/src/hid/disp/display.h ****                  rect.GetRight(),
  94:../../libs/PoliTeKDSP/libs/libDaisy/src/hid/disp/display.h ****                  rect.GetBottom(),
  95:../../libs/PoliTeKDSP/libs/libDaisy/src/hid/disp/display.h ****                  on,
ARM GAS  C:\Users\skipi\AppData\Local\Temp\ccs8qXFk.s 			page 15


  96:../../libs/PoliTeKDSP/libs/libDaisy/src/hid/disp/display.h ****                  fill);
  97:../../libs/PoliTeKDSP/libs/libDaisy/src/hid/disp/display.h ****     }
  98:../../libs/PoliTeKDSP/libs/libDaisy/src/hid/disp/display.h **** 
  99:../../libs/PoliTeKDSP/libs/libDaisy/src/hid/disp/display.h ****     /**
 100:../../libs/PoliTeKDSP/libs/libDaisy/src/hid/disp/display.h ****     Draws an arc around the specified coordinate
 101:../../libs/PoliTeKDSP/libs/libDaisy/src/hid/disp/display.h ****     \param x           x Coordinate of the center of the arc
 102:../../libs/PoliTeKDSP/libs/libDaisy/src/hid/disp/display.h ****     \param y           y Coordinate of the center of the arc
 103:../../libs/PoliTeKDSP/libs/libDaisy/src/hid/disp/display.h ****     \param radius      radius of the arc
 104:../../libs/PoliTeKDSP/libs/libDaisy/src/hid/disp/display.h ****     \param start_angle angle where to start the arc
 105:../../libs/PoliTeKDSP/libs/libDaisy/src/hid/disp/display.h ****     \param sweep       total angle of the arc
 106:../../libs/PoliTeKDSP/libs/libDaisy/src/hid/disp/display.h ****     \param on  on or off
 107:../../libs/PoliTeKDSP/libs/libDaisy/src/hid/disp/display.h ****     */
 108:../../libs/PoliTeKDSP/libs/libDaisy/src/hid/disp/display.h ****     virtual void DrawArc(uint_fast8_t x,
 109:../../libs/PoliTeKDSP/libs/libDaisy/src/hid/disp/display.h ****                          uint_fast8_t y,
 110:../../libs/PoliTeKDSP/libs/libDaisy/src/hid/disp/display.h ****                          uint_fast8_t radius,
 111:../../libs/PoliTeKDSP/libs/libDaisy/src/hid/disp/display.h ****                          int_fast16_t start_angle,
 112:../../libs/PoliTeKDSP/libs/libDaisy/src/hid/disp/display.h ****                          int_fast16_t sweep,
 113:../../libs/PoliTeKDSP/libs/libDaisy/src/hid/disp/display.h ****                          bool         on)
 114:../../libs/PoliTeKDSP/libs/libDaisy/src/hid/disp/display.h ****         = 0;
 115:../../libs/PoliTeKDSP/libs/libDaisy/src/hid/disp/display.h **** 
 116:../../libs/PoliTeKDSP/libs/libDaisy/src/hid/disp/display.h ****     /**
 117:../../libs/PoliTeKDSP/libs/libDaisy/src/hid/disp/display.h ****     Draws a circle around the specified coordinate
 118:../../libs/PoliTeKDSP/libs/libDaisy/src/hid/disp/display.h ****     \param x           x Coordinate of the center of the circle
 119:../../libs/PoliTeKDSP/libs/libDaisy/src/hid/disp/display.h ****     \param y           y Coordinate of the center of the circle
 120:../../libs/PoliTeKDSP/libs/libDaisy/src/hid/disp/display.h ****     \param radius      radius of the circle
 121:../../libs/PoliTeKDSP/libs/libDaisy/src/hid/disp/display.h ****     \param on  on or off
 122:../../libs/PoliTeKDSP/libs/libDaisy/src/hid/disp/display.h ****     */
 123:../../libs/PoliTeKDSP/libs/libDaisy/src/hid/disp/display.h ****     void
 124:../../libs/PoliTeKDSP/libs/libDaisy/src/hid/disp/display.h ****     DrawCircle(uint_fast8_t x, uint_fast8_t y, uint_fast8_t radius, bool on)
 125:../../libs/PoliTeKDSP/libs/libDaisy/src/hid/disp/display.h ****     {
 126:../../libs/PoliTeKDSP/libs/libDaisy/src/hid/disp/display.h ****         DrawArc(x, y, radius, 0, 360, on);
 127:../../libs/PoliTeKDSP/libs/libDaisy/src/hid/disp/display.h ****     };
 128:../../libs/PoliTeKDSP/libs/libDaisy/src/hid/disp/display.h **** 
 129:../../libs/PoliTeKDSP/libs/libDaisy/src/hid/disp/display.h ****     /** 
 130:../../libs/PoliTeKDSP/libs/libDaisy/src/hid/disp/display.h ****     Writes the character with the specific FontDef
 131:../../libs/PoliTeKDSP/libs/libDaisy/src/hid/disp/display.h ****     to the display buffer at the current Cursor position.
 132:../../libs/PoliTeKDSP/libs/libDaisy/src/hid/disp/display.h ****     \param ch character to be written
 133:../../libs/PoliTeKDSP/libs/libDaisy/src/hid/disp/display.h ****     \param font font to be written in
 134:../../libs/PoliTeKDSP/libs/libDaisy/src/hid/disp/display.h ****     \param on    on or off
 135:../../libs/PoliTeKDSP/libs/libDaisy/src/hid/disp/display.h ****     \return &
 136:../../libs/PoliTeKDSP/libs/libDaisy/src/hid/disp/display.h ****     */
 137:../../libs/PoliTeKDSP/libs/libDaisy/src/hid/disp/display.h ****     virtual char WriteChar(char ch, FontDef font, bool on) = 0;
 138:../../libs/PoliTeKDSP/libs/libDaisy/src/hid/disp/display.h **** 
 139:../../libs/PoliTeKDSP/libs/libDaisy/src/hid/disp/display.h ****     /** 
 140:../../libs/PoliTeKDSP/libs/libDaisy/src/hid/disp/display.h ****     Similar to WriteChar, except it will handle an entire String.
 141:../../libs/PoliTeKDSP/libs/libDaisy/src/hid/disp/display.h ****     Wrapping does not happen automatically, so the width
 142:../../libs/PoliTeKDSP/libs/libDaisy/src/hid/disp/display.h ****     of the string must be kept within the dimensions of the screen.
 143:../../libs/PoliTeKDSP/libs/libDaisy/src/hid/disp/display.h ****     \param str string to be written
 144:../../libs/PoliTeKDSP/libs/libDaisy/src/hid/disp/display.h ****     \param font font to use
 145:../../libs/PoliTeKDSP/libs/libDaisy/src/hid/disp/display.h ****     \param on  on or off
 146:../../libs/PoliTeKDSP/libs/libDaisy/src/hid/disp/display.h ****     \return &
 147:../../libs/PoliTeKDSP/libs/libDaisy/src/hid/disp/display.h ****     */
 148:../../libs/PoliTeKDSP/libs/libDaisy/src/hid/disp/display.h ****     virtual char WriteString(const char* str, FontDef font, bool on) = 0;
 149:../../libs/PoliTeKDSP/libs/libDaisy/src/hid/disp/display.h **** 
 150:../../libs/PoliTeKDSP/libs/libDaisy/src/hid/disp/display.h ****     /** 
 151:../../libs/PoliTeKDSP/libs/libDaisy/src/hid/disp/display.h ****     Similar to WriteString but justified within a bounding box.
 152:../../libs/PoliTeKDSP/libs/libDaisy/src/hid/disp/display.h ****     \param str          string to be written
ARM GAS  C:\Users\skipi\AppData\Local\Temp\ccs8qXFk.s 			page 16


 153:../../libs/PoliTeKDSP/libs/libDaisy/src/hid/disp/display.h ****     \param font         font to use
 154:../../libs/PoliTeKDSP/libs/libDaisy/src/hid/disp/display.h ****     \param boundingBox  the bounding box to draw the text in
 155:../../libs/PoliTeKDSP/libs/libDaisy/src/hid/disp/display.h ****     \param alignment    the alignment to use
 156:../../libs/PoliTeKDSP/libs/libDaisy/src/hid/disp/display.h ****     \param on           on or off
 157:../../libs/PoliTeKDSP/libs/libDaisy/src/hid/disp/display.h ****     \return The rectangle that was drawn to
 158:../../libs/PoliTeKDSP/libs/libDaisy/src/hid/disp/display.h ****     */
 159:../../libs/PoliTeKDSP/libs/libDaisy/src/hid/disp/display.h ****     virtual Rectangle WriteStringAligned(const char*    str,
 160:../../libs/PoliTeKDSP/libs/libDaisy/src/hid/disp/display.h ****                                          const FontDef& font,
 161:../../libs/PoliTeKDSP/libs/libDaisy/src/hid/disp/display.h ****                                          Rectangle      boundingBox,
 162:../../libs/PoliTeKDSP/libs/libDaisy/src/hid/disp/display.h ****                                          Alignment      alignment,
 163:../../libs/PoliTeKDSP/libs/libDaisy/src/hid/disp/display.h ****                                          bool           on)
 164:../../libs/PoliTeKDSP/libs/libDaisy/src/hid/disp/display.h ****         = 0;
 165:../../libs/PoliTeKDSP/libs/libDaisy/src/hid/disp/display.h **** 
 166:../../libs/PoliTeKDSP/libs/libDaisy/src/hid/disp/display.h ****     /** 
 167:../../libs/PoliTeKDSP/libs/libDaisy/src/hid/disp/display.h ****     Moves the 'Cursor' position used for WriteChar, and WriteStr to the specified coordinate.
 168:../../libs/PoliTeKDSP/libs/libDaisy/src/hid/disp/display.h ****     \param x x pos
 169:../../libs/PoliTeKDSP/libs/libDaisy/src/hid/disp/display.h ****     \param y y pos
 170:../../libs/PoliTeKDSP/libs/libDaisy/src/hid/disp/display.h ****     */
 171:../../libs/PoliTeKDSP/libs/libDaisy/src/hid/disp/display.h ****     void SetCursor(uint16_t x, uint16_t y)
 172:../../libs/PoliTeKDSP/libs/libDaisy/src/hid/disp/display.h ****     {
 173:../../libs/PoliTeKDSP/libs/libDaisy/src/hid/disp/display.h ****         currentX_ = (x >= Width()) ? Width() - 1 : x;
 174:../../libs/PoliTeKDSP/libs/libDaisy/src/hid/disp/display.h ****         currentY_ = (y >= Height()) ? Height() - 1 : y;
 175:../../libs/PoliTeKDSP/libs/libDaisy/src/hid/disp/display.h ****     }
 176:../../libs/PoliTeKDSP/libs/libDaisy/src/hid/disp/display.h **** 
 177:../../libs/PoliTeKDSP/libs/libDaisy/src/hid/disp/display.h ****     /** 
 178:../../libs/PoliTeKDSP/libs/libDaisy/src/hid/disp/display.h ****     Writes the current display buffer to the OLED device using SPI or I2C depending on 
 179:../../libs/PoliTeKDSP/libs/libDaisy/src/hid/disp/display.h ****     how the object was initialized.
 180:../../libs/PoliTeKDSP/libs/libDaisy/src/hid/disp/display.h ****     */
 181:../../libs/PoliTeKDSP/libs/libDaisy/src/hid/disp/display.h ****     virtual void Update() = 0;
 182:../../libs/PoliTeKDSP/libs/libDaisy/src/hid/disp/display.h **** 
 183:../../libs/PoliTeKDSP/libs/libDaisy/src/hid/disp/display.h ****     /** 
 184:../../libs/PoliTeKDSP/libs/libDaisy/src/hid/disp/display.h ****     Returns true if the Update has finished, used for chained DMA transfers
 185:../../libs/PoliTeKDSP/libs/libDaisy/src/hid/disp/display.h ****     */
 186:../../libs/PoliTeKDSP/libs/libDaisy/src/hid/disp/display.h ****     virtual bool UpdateFinished() = 0;
 187:../../libs/PoliTeKDSP/libs/libDaisy/src/hid/disp/display.h **** 
 188:../../libs/PoliTeKDSP/libs/libDaisy/src/hid/disp/display.h ****   protected:
 189:../../libs/PoliTeKDSP/libs/libDaisy/src/hid/disp/display.h ****     uint16_t currentX_;
 190:../../libs/PoliTeKDSP/libs/libDaisy/src/hid/disp/display.h ****     uint16_t currentY_;
 191:../../libs/PoliTeKDSP/libs/libDaisy/src/hid/disp/display.h **** };
 192:../../libs/PoliTeKDSP/libs/libDaisy/src/hid/disp/display.h **** 
 193:../../libs/PoliTeKDSP/libs/libDaisy/src/hid/disp/display.h **** /** This class is intended as a intermediary class for your actual implementation of the OneBitGrap
 194:../../libs/PoliTeKDSP/libs/libDaisy/src/hid/disp/display.h ****  *  interface. It uses the CRTP design pattern where the template argument is the child class. It p
 195:../../libs/PoliTeKDSP/libs/libDaisy/src/hid/disp/display.h ****  *  implementations for most of the functions, except DrawPixel(), Update() and Fill(), which you'l
 196:../../libs/PoliTeKDSP/libs/libDaisy/src/hid/disp/display.h ****  *  to provide in your child class.
 197:../../libs/PoliTeKDSP/libs/libDaisy/src/hid/disp/display.h ****  *  The main goal of this class is to provide common drawing functions without relying on massive a
 198:../../libs/PoliTeKDSP/libs/libDaisy/src/hid/disp/display.h ****  *  virtual function calls that would result in a performance loss. To achieve this, any drawing fu
 199:../../libs/PoliTeKDSP/libs/libDaisy/src/hid/disp/display.h ****  *  is implemented here and internally calls other drawing functions (e.g. DrawRect() which interna
 200:../../libs/PoliTeKDSP/libs/libDaisy/src/hid/disp/display.h ****  *  DrawPixel() and DrawLine()) makes these calls via the qualified name of these functions to expl
 201:../../libs/PoliTeKDSP/libs/libDaisy/src/hid/disp/display.h ****  *  suppress the virtual dispatch mechanism like this:
 202:../../libs/PoliTeKDSP/libs/libDaisy/src/hid/disp/display.h ****  * 
 203:../../libs/PoliTeKDSP/libs/libDaisy/src/hid/disp/display.h ****  *      ChildType::DrawPixel(...); // no virtual function call; direct call into the child class fu
 204:../../libs/PoliTeKDSP/libs/libDaisy/src/hid/disp/display.h ****  *  
 205:../../libs/PoliTeKDSP/libs/libDaisy/src/hid/disp/display.h ****  *  To create a custom OneBitGraphicsDisplay implementation, you can 
 206:../../libs/PoliTeKDSP/libs/libDaisy/src/hid/disp/display.h ****  *  A) inherit from OneBitGraphicsDisplay directly and provide all the drawing functions yourself
 207:../../libs/PoliTeKDSP/libs/libDaisy/src/hid/disp/display.h ****  *  B) Inherit from OneBitGraphicsDisplayImpl and only provide DrawPixel(), Fill() and Update()
 208:../../libs/PoliTeKDSP/libs/libDaisy/src/hid/disp/display.h ****  *     like this:
 209:../../libs/PoliTeKDSP/libs/libDaisy/src/hid/disp/display.h ****  *  
ARM GAS  C:\Users\skipi\AppData\Local\Temp\ccs8qXFk.s 			page 17


 210:../../libs/PoliTeKDSP/libs/libDaisy/src/hid/disp/display.h ****  *      class MyDisplayClass : public OneBitGraphicsDisplayImpl<MyDisplayClass> 
 211:../../libs/PoliTeKDSP/libs/libDaisy/src/hid/disp/display.h ****  *      {
 212:../../libs/PoliTeKDSP/libs/libDaisy/src/hid/disp/display.h ****  *      public:
 213:../../libs/PoliTeKDSP/libs/libDaisy/src/hid/disp/display.h ****  *          void Fill() override { ... };
 214:../../libs/PoliTeKDSP/libs/libDaisy/src/hid/disp/display.h ****  *          void DrawPixel(uint_fast8_t x, uint_fast8_t y, bool on) override { ... };
 215:../../libs/PoliTeKDSP/libs/libDaisy/src/hid/disp/display.h ****  *          void Update() override { ... }
 216:../../libs/PoliTeKDSP/libs/libDaisy/src/hid/disp/display.h ****  *      };
 217:../../libs/PoliTeKDSP/libs/libDaisy/src/hid/disp/display.h ****  *  
 218:../../libs/PoliTeKDSP/libs/libDaisy/src/hid/disp/display.h ****  */
 219:../../libs/PoliTeKDSP/libs/libDaisy/src/hid/disp/display.h **** template <class ChildType>
 220:../../libs/PoliTeKDSP/libs/libDaisy/src/hid/disp/display.h **** class OneBitGraphicsDisplayImpl : public OneBitGraphicsDisplay
 221:../../libs/PoliTeKDSP/libs/libDaisy/src/hid/disp/display.h **** {
 222:../../libs/PoliTeKDSP/libs/libDaisy/src/hid/disp/display.h ****   public:
 223:../../libs/PoliTeKDSP/libs/libDaisy/src/hid/disp/display.h ****     OneBitGraphicsDisplayImpl() {}
 224:../../libs/PoliTeKDSP/libs/libDaisy/src/hid/disp/display.h ****     virtual ~OneBitGraphicsDisplayImpl() {}
 228              		.loc 11 224 13 view .LVU39
 229              	.LBB579:
 230              	.LBI579:
  23:../../libs/PoliTeKDSP/libs/libDaisy/src/hid/disp/display.h **** 
 231              		.loc 11 23 13 view .LVU40
  23:../../libs/PoliTeKDSP/libs/libDaisy/src/hid/disp/display.h **** 
 232              		.loc 11 23 13 is_stmt 0 view .LVU41
 233              	.LBE579:
 234              	.LBE578:
 235              		.loc 10 18 29 view .LVU42
 236 0000 7047     		bx	lr
 237              		.cfi_endproc
 238              	.LFE2831:
 240              		.weak	_ZN5daisy11OledDisplayINS_13SSD130xDriverILj128ELj64ENS_19SSD130xI2CTransportEEEED1Ev
 241              		.thumb_set _ZN5daisy11OledDisplayINS_13SSD130xDriverILj128ELj64ENS_19SSD130xI2CTransportEEEED1Ev,_
 242 0002 00BF     		.section	.text._ZNK5daisy11OledDisplayINS_13SSD130xDriverILj128ELj64ENS_19SSD130xI2CTransportEEEE6
 243              		.align	1
 244              		.p2align 2,,3
 245              		.weak	_ZNK5daisy11OledDisplayINS_13SSD130xDriverILj128ELj64ENS_19SSD130xI2CTransportEEEE6HeightEv
 246              		.syntax unified
 247              		.thumb
 248              		.thumb_func
 249              		.fpu fpv5-d16
 251              	_ZNK5daisy11OledDisplayINS_13SSD130xDriverILj128ELj64ENS_19SSD130xI2CTransportEEEE6HeightEv:
 252              	.LVL11:
 253              	.LFB2834:
  19:../../libs/PoliTeKDSP/libs/libDaisy/src/hid/disp/oled_display.h **** 
  20:../../libs/PoliTeKDSP/libs/libDaisy/src/hid/disp/oled_display.h ****     struct Config
  21:../../libs/PoliTeKDSP/libs/libDaisy/src/hid/disp/oled_display.h ****     {
  22:../../libs/PoliTeKDSP/libs/libDaisy/src/hid/disp/oled_display.h ****         typename DisplayDriver::Config driver_config;
  23:../../libs/PoliTeKDSP/libs/libDaisy/src/hid/disp/oled_display.h ****     };
  24:../../libs/PoliTeKDSP/libs/libDaisy/src/hid/disp/oled_display.h **** 
  25:../../libs/PoliTeKDSP/libs/libDaisy/src/hid/disp/oled_display.h ****     void Init(Config config) { driver_.Init(config.driver_config); }
  26:../../libs/PoliTeKDSP/libs/libDaisy/src/hid/disp/oled_display.h **** 
  27:../../libs/PoliTeKDSP/libs/libDaisy/src/hid/disp/oled_display.h ****     uint16_t Height() const override { return driver_.Height(); }
 254              		.loc 10 27 14 is_stmt 1 view -0
 255              		.cfi_startproc
 256              		@ args = 0, pretend = 0, frame = 0
 257              		@ frame_needed = 0, uses_anonymous_args = 0
 258              		@ link register save eliminated.
 259              		.loc 10 27 65 is_stmt 0 view .LVU44
 260 0000 4020     		movs	r0, #64
ARM GAS  C:\Users\skipi\AppData\Local\Temp\ccs8qXFk.s 			page 18


 261              	.LVL12:
 262              		.loc 10 27 65 view .LVU45
 263 0002 7047     		bx	lr
 264              		.cfi_endproc
 265              	.LFE2834:
 267              		.section	.text._ZNK5daisy11OledDisplayINS_13SSD130xDriverILj128ELj64ENS_19SSD130xI2CTransportEEEE5
 268              		.align	1
 269              		.p2align 2,,3
 270              		.weak	_ZNK5daisy11OledDisplayINS_13SSD130xDriverILj128ELj64ENS_19SSD130xI2CTransportEEEE5WidthEv
 271              		.syntax unified
 272              		.thumb
 273              		.thumb_func
 274              		.fpu fpv5-d16
 276              	_ZNK5daisy11OledDisplayINS_13SSD130xDriverILj128ELj64ENS_19SSD130xI2CTransportEEEE5WidthEv:
 277              	.LVL13:
 278              	.LFB2835:
  28:../../libs/PoliTeKDSP/libs/libDaisy/src/hid/disp/oled_display.h ****     uint16_t Width() const override { return driver_.Width(); }
 279              		.loc 10 28 14 is_stmt 1 view -0
 280              		.cfi_startproc
 281              		@ args = 0, pretend = 0, frame = 0
 282              		@ frame_needed = 0, uses_anonymous_args = 0
 283              		@ link register save eliminated.
 284              		.loc 10 28 63 is_stmt 0 view .LVU47
 285 0000 8020     		movs	r0, #128
 286              	.LVL14:
 287              		.loc 10 28 63 view .LVU48
 288 0002 7047     		bx	lr
 289              		.cfi_endproc
 290              	.LFE2835:
 292              		.section	.text._ZN5daisy11OledDisplayINS_13SSD130xDriverILj128ELj64ENS_19SSD130xI2CTransportEEEE4F
 293              		.align	1
 294              		.p2align 2,,3
 295              		.weak	_ZN5daisy11OledDisplayINS_13SSD130xDriverILj128ELj64ENS_19SSD130xI2CTransportEEEE4FillEb
 296              		.syntax unified
 297              		.thumb
 298              		.thumb_func
 299              		.fpu fpv5-d16
 301              	_ZN5daisy11OledDisplayINS_13SSD130xDriverILj128ELj64ENS_19SSD130xI2CTransportEEEE4FillEb:
 302              	.LVL15:
 303              	.LFB2836:
  29:../../libs/PoliTeKDSP/libs/libDaisy/src/hid/disp/oled_display.h **** 
  30:../../libs/PoliTeKDSP/libs/libDaisy/src/hid/disp/oled_display.h ****     /** 
  31:../../libs/PoliTeKDSP/libs/libDaisy/src/hid/disp/oled_display.h ****     Fills the entire display with either on/off.
  32:../../libs/PoliTeKDSP/libs/libDaisy/src/hid/disp/oled_display.h ****     \param on Sets on or off.
  33:../../libs/PoliTeKDSP/libs/libDaisy/src/hid/disp/oled_display.h ****     */
  34:../../libs/PoliTeKDSP/libs/libDaisy/src/hid/disp/oled_display.h ****     void Fill(bool on) override { driver_.Fill(on); }
 304              		.loc 10 34 10 is_stmt 1 view -0
 305              		.cfi_startproc
 306              		@ args = 0, pretend = 0, frame = 0
 307              		@ frame_needed = 0, uses_anonymous_args = 0
 308              		@ link register save eliminated.
 309              	.LBB580:
 310              	.LBI580:
 311              		.file 12 "../../libs/PoliTeKDSP/libs/libDaisy/src/dev/oled_ssd130x.h"
   1:../../libs/PoliTeKDSP/libs/libDaisy/src/dev/oled_ssd130x.h **** #pragma once
   2:../../libs/PoliTeKDSP/libs/libDaisy/src/dev/oled_ssd130x.h **** #ifndef SA_OLED_SSD130X_H
   3:../../libs/PoliTeKDSP/libs/libDaisy/src/dev/oled_ssd130x.h **** #define SA_OLED_SSD130X_H /**< & */
ARM GAS  C:\Users\skipi\AppData\Local\Temp\ccs8qXFk.s 			page 19


   4:../../libs/PoliTeKDSP/libs/libDaisy/src/dev/oled_ssd130x.h **** 
   5:../../libs/PoliTeKDSP/libs/libDaisy/src/dev/oled_ssd130x.h **** #include "per/i2c.h"
   6:../../libs/PoliTeKDSP/libs/libDaisy/src/dev/oled_ssd130x.h **** #include "per/spi.h"
   7:../../libs/PoliTeKDSP/libs/libDaisy/src/dev/oled_ssd130x.h **** #include "per/gpio.h"
   8:../../libs/PoliTeKDSP/libs/libDaisy/src/dev/oled_ssd130x.h **** #include "sys/system.h"
   9:../../libs/PoliTeKDSP/libs/libDaisy/src/dev/oled_ssd130x.h **** #include "stm32h7xx_hal.h"
  10:../../libs/PoliTeKDSP/libs/libDaisy/src/dev/oled_ssd130x.h **** 
  11:../../libs/PoliTeKDSP/libs/libDaisy/src/dev/oled_ssd130x.h **** namespace daisy
  12:../../libs/PoliTeKDSP/libs/libDaisy/src/dev/oled_ssd130x.h **** {
  13:../../libs/PoliTeKDSP/libs/libDaisy/src/dev/oled_ssd130x.h **** /**
  14:../../libs/PoliTeKDSP/libs/libDaisy/src/dev/oled_ssd130x.h ****  * I2C Transport for SSD1306 / SSD1309 OLED display devices
  15:../../libs/PoliTeKDSP/libs/libDaisy/src/dev/oled_ssd130x.h ****  */
  16:../../libs/PoliTeKDSP/libs/libDaisy/src/dev/oled_ssd130x.h **** class SSD130xI2CTransport
  17:../../libs/PoliTeKDSP/libs/libDaisy/src/dev/oled_ssd130x.h **** {
  18:../../libs/PoliTeKDSP/libs/libDaisy/src/dev/oled_ssd130x.h ****   public:
  19:../../libs/PoliTeKDSP/libs/libDaisy/src/dev/oled_ssd130x.h ****     struct Config
  20:../../libs/PoliTeKDSP/libs/libDaisy/src/dev/oled_ssd130x.h ****     {
  21:../../libs/PoliTeKDSP/libs/libDaisy/src/dev/oled_ssd130x.h ****         Config()
  22:../../libs/PoliTeKDSP/libs/libDaisy/src/dev/oled_ssd130x.h ****         {
  23:../../libs/PoliTeKDSP/libs/libDaisy/src/dev/oled_ssd130x.h ****             // Intialize using defaults
  24:../../libs/PoliTeKDSP/libs/libDaisy/src/dev/oled_ssd130x.h ****             Defaults();
  25:../../libs/PoliTeKDSP/libs/libDaisy/src/dev/oled_ssd130x.h ****         }
  26:../../libs/PoliTeKDSP/libs/libDaisy/src/dev/oled_ssd130x.h ****         I2CHandle::Config i2c_config;
  27:../../libs/PoliTeKDSP/libs/libDaisy/src/dev/oled_ssd130x.h ****         uint8_t           i2c_address;
  28:../../libs/PoliTeKDSP/libs/libDaisy/src/dev/oled_ssd130x.h ****         void              Defaults()
  29:../../libs/PoliTeKDSP/libs/libDaisy/src/dev/oled_ssd130x.h ****         {
  30:../../libs/PoliTeKDSP/libs/libDaisy/src/dev/oled_ssd130x.h ****             i2c_config.periph         = I2CHandle::Config::Peripheral::I2C_1;
  31:../../libs/PoliTeKDSP/libs/libDaisy/src/dev/oled_ssd130x.h ****             i2c_config.speed          = I2CHandle::Config::Speed::I2C_1MHZ;
  32:../../libs/PoliTeKDSP/libs/libDaisy/src/dev/oled_ssd130x.h ****             i2c_config.mode           = I2CHandle::Config::Mode::I2C_MASTER;
  33:../../libs/PoliTeKDSP/libs/libDaisy/src/dev/oled_ssd130x.h ****             i2c_config.pin_config.scl = Pin(PORTB, 8);
  34:../../libs/PoliTeKDSP/libs/libDaisy/src/dev/oled_ssd130x.h ****             i2c_config.pin_config.sda = Pin(PORTB, 9);
  35:../../libs/PoliTeKDSP/libs/libDaisy/src/dev/oled_ssd130x.h ****             i2c_address               = 0x3C;
  36:../../libs/PoliTeKDSP/libs/libDaisy/src/dev/oled_ssd130x.h ****         }
  37:../../libs/PoliTeKDSP/libs/libDaisy/src/dev/oled_ssd130x.h ****     };
  38:../../libs/PoliTeKDSP/libs/libDaisy/src/dev/oled_ssd130x.h ****     void Init(const Config& config)
  39:../../libs/PoliTeKDSP/libs/libDaisy/src/dev/oled_ssd130x.h ****     {
  40:../../libs/PoliTeKDSP/libs/libDaisy/src/dev/oled_ssd130x.h ****         i2c_address_ = config.i2c_address;
  41:../../libs/PoliTeKDSP/libs/libDaisy/src/dev/oled_ssd130x.h ****         i2c_.Init(config.i2c_config);
  42:../../libs/PoliTeKDSP/libs/libDaisy/src/dev/oled_ssd130x.h ****     };
  43:../../libs/PoliTeKDSP/libs/libDaisy/src/dev/oled_ssd130x.h ****     void SendCommand(uint8_t cmd)
  44:../../libs/PoliTeKDSP/libs/libDaisy/src/dev/oled_ssd130x.h ****     {
  45:../../libs/PoliTeKDSP/libs/libDaisy/src/dev/oled_ssd130x.h ****         uint8_t buf[2] = {0X00, cmd};
  46:../../libs/PoliTeKDSP/libs/libDaisy/src/dev/oled_ssd130x.h ****         i2c_.TransmitBlocking(i2c_address_, buf, 2, 1000);
  47:../../libs/PoliTeKDSP/libs/libDaisy/src/dev/oled_ssd130x.h ****     };
  48:../../libs/PoliTeKDSP/libs/libDaisy/src/dev/oled_ssd130x.h **** 
  49:../../libs/PoliTeKDSP/libs/libDaisy/src/dev/oled_ssd130x.h ****     void SendData(uint8_t* buff, size_t size)
  50:../../libs/PoliTeKDSP/libs/libDaisy/src/dev/oled_ssd130x.h ****     {
  51:../../libs/PoliTeKDSP/libs/libDaisy/src/dev/oled_ssd130x.h ****         for(size_t i = 0; i < size; i++)
  52:../../libs/PoliTeKDSP/libs/libDaisy/src/dev/oled_ssd130x.h ****         {
  53:../../libs/PoliTeKDSP/libs/libDaisy/src/dev/oled_ssd130x.h ****             uint8_t buf[2] = {0X40, buff[i]};
  54:../../libs/PoliTeKDSP/libs/libDaisy/src/dev/oled_ssd130x.h ****             i2c_.TransmitBlocking(i2c_address_, buf, 2, 1000);
  55:../../libs/PoliTeKDSP/libs/libDaisy/src/dev/oled_ssd130x.h ****         }
  56:../../libs/PoliTeKDSP/libs/libDaisy/src/dev/oled_ssd130x.h ****     };
  57:../../libs/PoliTeKDSP/libs/libDaisy/src/dev/oled_ssd130x.h **** 
  58:../../libs/PoliTeKDSP/libs/libDaisy/src/dev/oled_ssd130x.h ****   private:
  59:../../libs/PoliTeKDSP/libs/libDaisy/src/dev/oled_ssd130x.h ****     daisy::I2CHandle i2c_;
  60:../../libs/PoliTeKDSP/libs/libDaisy/src/dev/oled_ssd130x.h ****     uint8_t          i2c_address_;
ARM GAS  C:\Users\skipi\AppData\Local\Temp\ccs8qXFk.s 			page 20


  61:../../libs/PoliTeKDSP/libs/libDaisy/src/dev/oled_ssd130x.h **** };
  62:../../libs/PoliTeKDSP/libs/libDaisy/src/dev/oled_ssd130x.h **** 
  63:../../libs/PoliTeKDSP/libs/libDaisy/src/dev/oled_ssd130x.h **** /**
  64:../../libs/PoliTeKDSP/libs/libDaisy/src/dev/oled_ssd130x.h ****  * 4 Wire SPI Transport for SSD1306 / SSD1309 OLED display devices
  65:../../libs/PoliTeKDSP/libs/libDaisy/src/dev/oled_ssd130x.h ****  */
  66:../../libs/PoliTeKDSP/libs/libDaisy/src/dev/oled_ssd130x.h **** class SSD130x4WireSpiTransport
  67:../../libs/PoliTeKDSP/libs/libDaisy/src/dev/oled_ssd130x.h **** {
  68:../../libs/PoliTeKDSP/libs/libDaisy/src/dev/oled_ssd130x.h ****   public:
  69:../../libs/PoliTeKDSP/libs/libDaisy/src/dev/oled_ssd130x.h ****     struct Config
  70:../../libs/PoliTeKDSP/libs/libDaisy/src/dev/oled_ssd130x.h ****     {
  71:../../libs/PoliTeKDSP/libs/libDaisy/src/dev/oled_ssd130x.h ****         Config()
  72:../../libs/PoliTeKDSP/libs/libDaisy/src/dev/oled_ssd130x.h ****         {
  73:../../libs/PoliTeKDSP/libs/libDaisy/src/dev/oled_ssd130x.h ****             // Initialize using defaults
  74:../../libs/PoliTeKDSP/libs/libDaisy/src/dev/oled_ssd130x.h ****             Defaults();
  75:../../libs/PoliTeKDSP/libs/libDaisy/src/dev/oled_ssd130x.h ****         }
  76:../../libs/PoliTeKDSP/libs/libDaisy/src/dev/oled_ssd130x.h ****         SpiHandle::Config spi_config;
  77:../../libs/PoliTeKDSP/libs/libDaisy/src/dev/oled_ssd130x.h ****         struct
  78:../../libs/PoliTeKDSP/libs/libDaisy/src/dev/oled_ssd130x.h ****         {
  79:../../libs/PoliTeKDSP/libs/libDaisy/src/dev/oled_ssd130x.h ****             Pin dc;    /**< & */
  80:../../libs/PoliTeKDSP/libs/libDaisy/src/dev/oled_ssd130x.h ****             Pin reset; /**< & */
  81:../../libs/PoliTeKDSP/libs/libDaisy/src/dev/oled_ssd130x.h ****         } pin_config;
  82:../../libs/PoliTeKDSP/libs/libDaisy/src/dev/oled_ssd130x.h ****         bool useDma;
  83:../../libs/PoliTeKDSP/libs/libDaisy/src/dev/oled_ssd130x.h ****         void Defaults()
  84:../../libs/PoliTeKDSP/libs/libDaisy/src/dev/oled_ssd130x.h ****         {
  85:../../libs/PoliTeKDSP/libs/libDaisy/src/dev/oled_ssd130x.h ****             // SPI peripheral config
  86:../../libs/PoliTeKDSP/libs/libDaisy/src/dev/oled_ssd130x.h ****             spi_config.periph = SpiHandle::Config::Peripheral::SPI_1;
  87:../../libs/PoliTeKDSP/libs/libDaisy/src/dev/oled_ssd130x.h ****             spi_config.mode   = SpiHandle::Config::Mode::MASTER;
  88:../../libs/PoliTeKDSP/libs/libDaisy/src/dev/oled_ssd130x.h ****             spi_config.direction
  89:../../libs/PoliTeKDSP/libs/libDaisy/src/dev/oled_ssd130x.h ****                 = SpiHandle::Config::Direction::TWO_LINES_TX_ONLY;
  90:../../libs/PoliTeKDSP/libs/libDaisy/src/dev/oled_ssd130x.h ****             spi_config.datasize       = 8;
  91:../../libs/PoliTeKDSP/libs/libDaisy/src/dev/oled_ssd130x.h ****             spi_config.clock_polarity = SpiHandle::Config::ClockPolarity::LOW;
  92:../../libs/PoliTeKDSP/libs/libDaisy/src/dev/oled_ssd130x.h ****             spi_config.clock_phase    = SpiHandle::Config::ClockPhase::ONE_EDGE;
  93:../../libs/PoliTeKDSP/libs/libDaisy/src/dev/oled_ssd130x.h ****             spi_config.nss            = SpiHandle::Config::NSS::HARD_OUTPUT;
  94:../../libs/PoliTeKDSP/libs/libDaisy/src/dev/oled_ssd130x.h ****             spi_config.baud_prescaler = SpiHandle::Config::BaudPrescaler::PS_8;
  95:../../libs/PoliTeKDSP/libs/libDaisy/src/dev/oled_ssd130x.h ****             // SPI pin config
  96:../../libs/PoliTeKDSP/libs/libDaisy/src/dev/oled_ssd130x.h ****             spi_config.pin_config.sclk = Pin(PORTG, 11);
  97:../../libs/PoliTeKDSP/libs/libDaisy/src/dev/oled_ssd130x.h ****             spi_config.pin_config.miso = Pin(PORTX, 0);
  98:../../libs/PoliTeKDSP/libs/libDaisy/src/dev/oled_ssd130x.h ****             spi_config.pin_config.mosi = Pin(PORTB, 5);
  99:../../libs/PoliTeKDSP/libs/libDaisy/src/dev/oled_ssd130x.h ****             spi_config.pin_config.nss  = Pin(PORTG, 10);
 100:../../libs/PoliTeKDSP/libs/libDaisy/src/dev/oled_ssd130x.h ****             // SSD130x control pin config
 101:../../libs/PoliTeKDSP/libs/libDaisy/src/dev/oled_ssd130x.h ****             pin_config.dc    = Pin(PORTB, 4);
 102:../../libs/PoliTeKDSP/libs/libDaisy/src/dev/oled_ssd130x.h ****             pin_config.reset = Pin(PORTB, 15);
 103:../../libs/PoliTeKDSP/libs/libDaisy/src/dev/oled_ssd130x.h ****             // Using DMA off by default
 104:../../libs/PoliTeKDSP/libs/libDaisy/src/dev/oled_ssd130x.h ****             useDma = false;
 105:../../libs/PoliTeKDSP/libs/libDaisy/src/dev/oled_ssd130x.h ****         }
 106:../../libs/PoliTeKDSP/libs/libDaisy/src/dev/oled_ssd130x.h ****     };
 107:../../libs/PoliTeKDSP/libs/libDaisy/src/dev/oled_ssd130x.h ****     void Init(const Config& config)
 108:../../libs/PoliTeKDSP/libs/libDaisy/src/dev/oled_ssd130x.h ****     {
 109:../../libs/PoliTeKDSP/libs/libDaisy/src/dev/oled_ssd130x.h ****         // Initialize both GPIO
 110:../../libs/PoliTeKDSP/libs/libDaisy/src/dev/oled_ssd130x.h ****         pin_dc_.Init(config.pin_config.dc, GPIO::Mode::OUTPUT);
 111:../../libs/PoliTeKDSP/libs/libDaisy/src/dev/oled_ssd130x.h ****         pin_reset_.Init(config.pin_config.reset, GPIO::Mode::OUTPUT);
 112:../../libs/PoliTeKDSP/libs/libDaisy/src/dev/oled_ssd130x.h **** 
 113:../../libs/PoliTeKDSP/libs/libDaisy/src/dev/oled_ssd130x.h ****         // Initialize SPI
 114:../../libs/PoliTeKDSP/libs/libDaisy/src/dev/oled_ssd130x.h ****         spi_.Init(config.spi_config);
 115:../../libs/PoliTeKDSP/libs/libDaisy/src/dev/oled_ssd130x.h **** 
 116:../../libs/PoliTeKDSP/libs/libDaisy/src/dev/oled_ssd130x.h ****         // Reset and Configure OLED.
 117:../../libs/PoliTeKDSP/libs/libDaisy/src/dev/oled_ssd130x.h ****         pin_reset_.Write(0);
ARM GAS  C:\Users\skipi\AppData\Local\Temp\ccs8qXFk.s 			page 21


 118:../../libs/PoliTeKDSP/libs/libDaisy/src/dev/oled_ssd130x.h ****         System::Delay(10);
 119:../../libs/PoliTeKDSP/libs/libDaisy/src/dev/oled_ssd130x.h ****         pin_reset_.Write(1);
 120:../../libs/PoliTeKDSP/libs/libDaisy/src/dev/oled_ssd130x.h ****         System::Delay(10);
 121:../../libs/PoliTeKDSP/libs/libDaisy/src/dev/oled_ssd130x.h ****     };
 122:../../libs/PoliTeKDSP/libs/libDaisy/src/dev/oled_ssd130x.h **** 
 123:../../libs/PoliTeKDSP/libs/libDaisy/src/dev/oled_ssd130x.h ****     void SendCommand(uint8_t cmd)
 124:../../libs/PoliTeKDSP/libs/libDaisy/src/dev/oled_ssd130x.h ****     {
 125:../../libs/PoliTeKDSP/libs/libDaisy/src/dev/oled_ssd130x.h ****         pin_dc_.Write(0);
 126:../../libs/PoliTeKDSP/libs/libDaisy/src/dev/oled_ssd130x.h ****         spi_.BlockingTransmit(&cmd, 1);
 127:../../libs/PoliTeKDSP/libs/libDaisy/src/dev/oled_ssd130x.h ****     };
 128:../../libs/PoliTeKDSP/libs/libDaisy/src/dev/oled_ssd130x.h **** 
 129:../../libs/PoliTeKDSP/libs/libDaisy/src/dev/oled_ssd130x.h ****     void SendCommands(uint8_t* buff, size_t size)
 130:../../libs/PoliTeKDSP/libs/libDaisy/src/dev/oled_ssd130x.h ****     {
 131:../../libs/PoliTeKDSP/libs/libDaisy/src/dev/oled_ssd130x.h ****         pin_dc_.Write(0);
 132:../../libs/PoliTeKDSP/libs/libDaisy/src/dev/oled_ssd130x.h ****         spi_.BlockingTransmit(buff, size);
 133:../../libs/PoliTeKDSP/libs/libDaisy/src/dev/oled_ssd130x.h ****     };
 134:../../libs/PoliTeKDSP/libs/libDaisy/src/dev/oled_ssd130x.h **** 
 135:../../libs/PoliTeKDSP/libs/libDaisy/src/dev/oled_ssd130x.h ****     void SendData(uint8_t* buff, size_t size)
 136:../../libs/PoliTeKDSP/libs/libDaisy/src/dev/oled_ssd130x.h ****     {
 137:../../libs/PoliTeKDSP/libs/libDaisy/src/dev/oled_ssd130x.h ****         pin_dc_.Write(1);
 138:../../libs/PoliTeKDSP/libs/libDaisy/src/dev/oled_ssd130x.h ****         spi_.BlockingTransmit(buff, size);
 139:../../libs/PoliTeKDSP/libs/libDaisy/src/dev/oled_ssd130x.h ****     };
 140:../../libs/PoliTeKDSP/libs/libDaisy/src/dev/oled_ssd130x.h **** 
 141:../../libs/PoliTeKDSP/libs/libDaisy/src/dev/oled_ssd130x.h ****     void SendDataDma(uint8_t*                          buff,
 142:../../libs/PoliTeKDSP/libs/libDaisy/src/dev/oled_ssd130x.h ****                      size_t                            size,
 143:../../libs/PoliTeKDSP/libs/libDaisy/src/dev/oled_ssd130x.h ****                      SpiHandle::EndCallbackFunctionPtr end_callback,
 144:../../libs/PoliTeKDSP/libs/libDaisy/src/dev/oled_ssd130x.h ****                      void*                             context)
 145:../../libs/PoliTeKDSP/libs/libDaisy/src/dev/oled_ssd130x.h ****     {
 146:../../libs/PoliTeKDSP/libs/libDaisy/src/dev/oled_ssd130x.h ****         SCB_CleanInvalidateDCache_by_Addr(buff, size);
 147:../../libs/PoliTeKDSP/libs/libDaisy/src/dev/oled_ssd130x.h ****         pin_dc_.Write(1);
 148:../../libs/PoliTeKDSP/libs/libDaisy/src/dev/oled_ssd130x.h ****         spi_.DmaTransmit(buff, size, NULL, end_callback, context);
 149:../../libs/PoliTeKDSP/libs/libDaisy/src/dev/oled_ssd130x.h ****     };
 150:../../libs/PoliTeKDSP/libs/libDaisy/src/dev/oled_ssd130x.h **** 
 151:../../libs/PoliTeKDSP/libs/libDaisy/src/dev/oled_ssd130x.h ****   private:
 152:../../libs/PoliTeKDSP/libs/libDaisy/src/dev/oled_ssd130x.h ****     SpiHandle spi_;
 153:../../libs/PoliTeKDSP/libs/libDaisy/src/dev/oled_ssd130x.h ****     GPIO      pin_reset_;
 154:../../libs/PoliTeKDSP/libs/libDaisy/src/dev/oled_ssd130x.h ****     GPIO      pin_dc_;
 155:../../libs/PoliTeKDSP/libs/libDaisy/src/dev/oled_ssd130x.h **** };
 156:../../libs/PoliTeKDSP/libs/libDaisy/src/dev/oled_ssd130x.h **** 
 157:../../libs/PoliTeKDSP/libs/libDaisy/src/dev/oled_ssd130x.h **** /**
 158:../../libs/PoliTeKDSP/libs/libDaisy/src/dev/oled_ssd130x.h ****  * Soft SPI Transport for SSD1306 / SSD1309 OLED display devices
 159:../../libs/PoliTeKDSP/libs/libDaisy/src/dev/oled_ssd130x.h ****  */
 160:../../libs/PoliTeKDSP/libs/libDaisy/src/dev/oled_ssd130x.h **** class SSD130x4WireSoftSpiTransport
 161:../../libs/PoliTeKDSP/libs/libDaisy/src/dev/oled_ssd130x.h **** {
 162:../../libs/PoliTeKDSP/libs/libDaisy/src/dev/oled_ssd130x.h ****   public:
 163:../../libs/PoliTeKDSP/libs/libDaisy/src/dev/oled_ssd130x.h ****     struct Config
 164:../../libs/PoliTeKDSP/libs/libDaisy/src/dev/oled_ssd130x.h ****     {
 165:../../libs/PoliTeKDSP/libs/libDaisy/src/dev/oled_ssd130x.h ****         Config()
 166:../../libs/PoliTeKDSP/libs/libDaisy/src/dev/oled_ssd130x.h ****         {
 167:../../libs/PoliTeKDSP/libs/libDaisy/src/dev/oled_ssd130x.h ****             // Initialize using defaults
 168:../../libs/PoliTeKDSP/libs/libDaisy/src/dev/oled_ssd130x.h ****             Defaults();
 169:../../libs/PoliTeKDSP/libs/libDaisy/src/dev/oled_ssd130x.h ****         }
 170:../../libs/PoliTeKDSP/libs/libDaisy/src/dev/oled_ssd130x.h ****         struct
 171:../../libs/PoliTeKDSP/libs/libDaisy/src/dev/oled_ssd130x.h ****         {
 172:../../libs/PoliTeKDSP/libs/libDaisy/src/dev/oled_ssd130x.h ****             uint32_t sclk_delay;
 173:../../libs/PoliTeKDSP/libs/libDaisy/src/dev/oled_ssd130x.h ****             Pin      sclk;
 174:../../libs/PoliTeKDSP/libs/libDaisy/src/dev/oled_ssd130x.h ****             Pin      mosi;
ARM GAS  C:\Users\skipi\AppData\Local\Temp\ccs8qXFk.s 			page 22


 175:../../libs/PoliTeKDSP/libs/libDaisy/src/dev/oled_ssd130x.h ****             Pin      dc;
 176:../../libs/PoliTeKDSP/libs/libDaisy/src/dev/oled_ssd130x.h ****             Pin      reset;
 177:../../libs/PoliTeKDSP/libs/libDaisy/src/dev/oled_ssd130x.h ****         } pin_config;
 178:../../libs/PoliTeKDSP/libs/libDaisy/src/dev/oled_ssd130x.h ****         void Defaults()
 179:../../libs/PoliTeKDSP/libs/libDaisy/src/dev/oled_ssd130x.h ****         {
 180:../../libs/PoliTeKDSP/libs/libDaisy/src/dev/oled_ssd130x.h ****             pin_config.sclk_delay = 0; // fast as possible?!
 181:../../libs/PoliTeKDSP/libs/libDaisy/src/dev/oled_ssd130x.h ****             // SPI peripheral config
 182:../../libs/PoliTeKDSP/libs/libDaisy/src/dev/oled_ssd130x.h ****             pin_config.sclk = Pin(PORTD, 3); /**< D10 - SPI2 SCK  */
 183:../../libs/PoliTeKDSP/libs/libDaisy/src/dev/oled_ssd130x.h ****             pin_config.mosi = Pin(PORTC, 3); /**< D9  - SPI2 MOSI */
 184:../../libs/PoliTeKDSP/libs/libDaisy/src/dev/oled_ssd130x.h ****             // SSD130x control pin config
 185:../../libs/PoliTeKDSP/libs/libDaisy/src/dev/oled_ssd130x.h ****             pin_config.dc    = Pin(PORTC, 11); //D2
 186:../../libs/PoliTeKDSP/libs/libDaisy/src/dev/oled_ssd130x.h ****             pin_config.reset = Pin(PORTC, 10); //D3
 187:../../libs/PoliTeKDSP/libs/libDaisy/src/dev/oled_ssd130x.h ****         }
 188:../../libs/PoliTeKDSP/libs/libDaisy/src/dev/oled_ssd130x.h ****     };
 189:../../libs/PoliTeKDSP/libs/libDaisy/src/dev/oled_ssd130x.h ****     void Init(const Config& config)
 190:../../libs/PoliTeKDSP/libs/libDaisy/src/dev/oled_ssd130x.h ****     {
 191:../../libs/PoliTeKDSP/libs/libDaisy/src/dev/oled_ssd130x.h ****         // Initialize both GPIO
 192:../../libs/PoliTeKDSP/libs/libDaisy/src/dev/oled_ssd130x.h ****         pin_sclk_.Init(config.pin_config.sclk, GPIO::Mode::OUTPUT);
 193:../../libs/PoliTeKDSP/libs/libDaisy/src/dev/oled_ssd130x.h ****         pin_sclk_.Write(1); //ClockPolarity::LOW
 194:../../libs/PoliTeKDSP/libs/libDaisy/src/dev/oled_ssd130x.h ****         clk_delay = config.pin_config.sclk_delay;
 195:../../libs/PoliTeKDSP/libs/libDaisy/src/dev/oled_ssd130x.h ****         pin_mosi_.Init(config.pin_config.mosi, GPIO::Mode::OUTPUT);
 196:../../libs/PoliTeKDSP/libs/libDaisy/src/dev/oled_ssd130x.h ****         pin_mosi_.Write(0);
 197:../../libs/PoliTeKDSP/libs/libDaisy/src/dev/oled_ssd130x.h **** 
 198:../../libs/PoliTeKDSP/libs/libDaisy/src/dev/oled_ssd130x.h ****         pin_dc_.Init(config.pin_config.dc, GPIO::Mode::OUTPUT);
 199:../../libs/PoliTeKDSP/libs/libDaisy/src/dev/oled_ssd130x.h ****         pin_reset_.Init(config.pin_config.reset, GPIO::Mode::OUTPUT);
 200:../../libs/PoliTeKDSP/libs/libDaisy/src/dev/oled_ssd130x.h **** 
 201:../../libs/PoliTeKDSP/libs/libDaisy/src/dev/oled_ssd130x.h ****         // Reset and Configure OLED.
 202:../../libs/PoliTeKDSP/libs/libDaisy/src/dev/oled_ssd130x.h ****         pin_reset_.Write(0);
 203:../../libs/PoliTeKDSP/libs/libDaisy/src/dev/oled_ssd130x.h ****         System::Delay(10);
 204:../../libs/PoliTeKDSP/libs/libDaisy/src/dev/oled_ssd130x.h ****         pin_reset_.Write(1);
 205:../../libs/PoliTeKDSP/libs/libDaisy/src/dev/oled_ssd130x.h ****         System::Delay(10);
 206:../../libs/PoliTeKDSP/libs/libDaisy/src/dev/oled_ssd130x.h ****     };
 207:../../libs/PoliTeKDSP/libs/libDaisy/src/dev/oled_ssd130x.h ****     void SendCommand(uint8_t cmd)
 208:../../libs/PoliTeKDSP/libs/libDaisy/src/dev/oled_ssd130x.h ****     {
 209:../../libs/PoliTeKDSP/libs/libDaisy/src/dev/oled_ssd130x.h ****         pin_dc_.Write(0);
 210:../../libs/PoliTeKDSP/libs/libDaisy/src/dev/oled_ssd130x.h ****         SoftSpiTransmit(cmd);
 211:../../libs/PoliTeKDSP/libs/libDaisy/src/dev/oled_ssd130x.h ****     };
 212:../../libs/PoliTeKDSP/libs/libDaisy/src/dev/oled_ssd130x.h **** 
 213:../../libs/PoliTeKDSP/libs/libDaisy/src/dev/oled_ssd130x.h ****     void SendData(uint8_t* buff, size_t size)
 214:../../libs/PoliTeKDSP/libs/libDaisy/src/dev/oled_ssd130x.h ****     {
 215:../../libs/PoliTeKDSP/libs/libDaisy/src/dev/oled_ssd130x.h ****         pin_dc_.Write(1);
 216:../../libs/PoliTeKDSP/libs/libDaisy/src/dev/oled_ssd130x.h ****         for(size_t i = 0; i < size; i++)
 217:../../libs/PoliTeKDSP/libs/libDaisy/src/dev/oled_ssd130x.h ****             SoftSpiTransmit(buff[i]);
 218:../../libs/PoliTeKDSP/libs/libDaisy/src/dev/oled_ssd130x.h ****     };
 219:../../libs/PoliTeKDSP/libs/libDaisy/src/dev/oled_ssd130x.h **** 
 220:../../libs/PoliTeKDSP/libs/libDaisy/src/dev/oled_ssd130x.h ****   private:
 221:../../libs/PoliTeKDSP/libs/libDaisy/src/dev/oled_ssd130x.h ****     void SoftSpiTransmit(uint8_t val)
 222:../../libs/PoliTeKDSP/libs/libDaisy/src/dev/oled_ssd130x.h ****     {
 223:../../libs/PoliTeKDSP/libs/libDaisy/src/dev/oled_ssd130x.h ****         // bit flip
 224:../../libs/PoliTeKDSP/libs/libDaisy/src/dev/oled_ssd130x.h ****         val = ((val & 0x01) << 7) | ((val & 0x02) << 5) | ((val & 0x04) << 3)
 225:../../libs/PoliTeKDSP/libs/libDaisy/src/dev/oled_ssd130x.h ****               | ((val & 0x08) << 1) | ((val & 0x10) >> 1) | ((val & 0x20) >> 3)
 226:../../libs/PoliTeKDSP/libs/libDaisy/src/dev/oled_ssd130x.h ****               | ((val & 0x40) >> 5) | ((val & 0x80) >> 7);
 227:../../libs/PoliTeKDSP/libs/libDaisy/src/dev/oled_ssd130x.h **** 
 228:../../libs/PoliTeKDSP/libs/libDaisy/src/dev/oled_ssd130x.h ****         for(uint8_t bit = 0u; bit < 8u; bit++)
 229:../../libs/PoliTeKDSP/libs/libDaisy/src/dev/oled_ssd130x.h ****         {
 230:../../libs/PoliTeKDSP/libs/libDaisy/src/dev/oled_ssd130x.h ****             pin_mosi_.Write((val & (1 << bit)) ? 1 : 0);
 231:../../libs/PoliTeKDSP/libs/libDaisy/src/dev/oled_ssd130x.h **** 
ARM GAS  C:\Users\skipi\AppData\Local\Temp\ccs8qXFk.s 			page 23


 232:../../libs/PoliTeKDSP/libs/libDaisy/src/dev/oled_ssd130x.h ****             System::DelayTicks(clk_delay);
 233:../../libs/PoliTeKDSP/libs/libDaisy/src/dev/oled_ssd130x.h **** 
 234:../../libs/PoliTeKDSP/libs/libDaisy/src/dev/oled_ssd130x.h ****             pin_sclk_.Toggle();
 235:../../libs/PoliTeKDSP/libs/libDaisy/src/dev/oled_ssd130x.h **** 
 236:../../libs/PoliTeKDSP/libs/libDaisy/src/dev/oled_ssd130x.h ****             System::DelayTicks(clk_delay);
 237:../../libs/PoliTeKDSP/libs/libDaisy/src/dev/oled_ssd130x.h **** 
 238:../../libs/PoliTeKDSP/libs/libDaisy/src/dev/oled_ssd130x.h ****             pin_sclk_.Toggle();
 239:../../libs/PoliTeKDSP/libs/libDaisy/src/dev/oled_ssd130x.h ****         }
 240:../../libs/PoliTeKDSP/libs/libDaisy/src/dev/oled_ssd130x.h ****     }
 241:../../libs/PoliTeKDSP/libs/libDaisy/src/dev/oled_ssd130x.h **** 
 242:../../libs/PoliTeKDSP/libs/libDaisy/src/dev/oled_ssd130x.h ****     uint32_t clk_delay;
 243:../../libs/PoliTeKDSP/libs/libDaisy/src/dev/oled_ssd130x.h ****     GPIO     pin_sclk_;
 244:../../libs/PoliTeKDSP/libs/libDaisy/src/dev/oled_ssd130x.h ****     GPIO     pin_mosi_;
 245:../../libs/PoliTeKDSP/libs/libDaisy/src/dev/oled_ssd130x.h ****     GPIO     pin_reset_;
 246:../../libs/PoliTeKDSP/libs/libDaisy/src/dev/oled_ssd130x.h ****     GPIO     pin_dc_;
 247:../../libs/PoliTeKDSP/libs/libDaisy/src/dev/oled_ssd130x.h **** };
 248:../../libs/PoliTeKDSP/libs/libDaisy/src/dev/oled_ssd130x.h **** 
 249:../../libs/PoliTeKDSP/libs/libDaisy/src/dev/oled_ssd130x.h **** 
 250:../../libs/PoliTeKDSP/libs/libDaisy/src/dev/oled_ssd130x.h **** /**
 251:../../libs/PoliTeKDSP/libs/libDaisy/src/dev/oled_ssd130x.h ****  * A driver implementation for the SSD1306/SSD1309
 252:../../libs/PoliTeKDSP/libs/libDaisy/src/dev/oled_ssd130x.h ****  */
 253:../../libs/PoliTeKDSP/libs/libDaisy/src/dev/oled_ssd130x.h **** template <size_t width, size_t height, typename Transport>
 254:../../libs/PoliTeKDSP/libs/libDaisy/src/dev/oled_ssd130x.h **** class SSD130xDriver
 255:../../libs/PoliTeKDSP/libs/libDaisy/src/dev/oled_ssd130x.h **** {
 256:../../libs/PoliTeKDSP/libs/libDaisy/src/dev/oled_ssd130x.h ****   public:
 257:../../libs/PoliTeKDSP/libs/libDaisy/src/dev/oled_ssd130x.h ****     struct Config
 258:../../libs/PoliTeKDSP/libs/libDaisy/src/dev/oled_ssd130x.h ****     {
 259:../../libs/PoliTeKDSP/libs/libDaisy/src/dev/oled_ssd130x.h ****         typename Transport::Config transport_config;
 260:../../libs/PoliTeKDSP/libs/libDaisy/src/dev/oled_ssd130x.h ****     };
 261:../../libs/PoliTeKDSP/libs/libDaisy/src/dev/oled_ssd130x.h **** 
 262:../../libs/PoliTeKDSP/libs/libDaisy/src/dev/oled_ssd130x.h ****     void Init(Config config)
 263:../../libs/PoliTeKDSP/libs/libDaisy/src/dev/oled_ssd130x.h ****     {
 264:../../libs/PoliTeKDSP/libs/libDaisy/src/dev/oled_ssd130x.h ****         transport_.Init(config.transport_config);
 265:../../libs/PoliTeKDSP/libs/libDaisy/src/dev/oled_ssd130x.h **** 
 266:../../libs/PoliTeKDSP/libs/libDaisy/src/dev/oled_ssd130x.h ****         // Init routine...
 267:../../libs/PoliTeKDSP/libs/libDaisy/src/dev/oled_ssd130x.h **** 
 268:../../libs/PoliTeKDSP/libs/libDaisy/src/dev/oled_ssd130x.h ****         // Display Off
 269:../../libs/PoliTeKDSP/libs/libDaisy/src/dev/oled_ssd130x.h ****         transport_.SendCommand(0xaE);
 270:../../libs/PoliTeKDSP/libs/libDaisy/src/dev/oled_ssd130x.h ****         // Dimension dependent commands...
 271:../../libs/PoliTeKDSP/libs/libDaisy/src/dev/oled_ssd130x.h ****         switch(height)
 272:../../libs/PoliTeKDSP/libs/libDaisy/src/dev/oled_ssd130x.h ****         {
 273:../../libs/PoliTeKDSP/libs/libDaisy/src/dev/oled_ssd130x.h ****             case 16:
 274:../../libs/PoliTeKDSP/libs/libDaisy/src/dev/oled_ssd130x.h ****                 // Display Clock Divide Ratio
 275:../../libs/PoliTeKDSP/libs/libDaisy/src/dev/oled_ssd130x.h ****                 transport_.SendCommand(0xD5);
 276:../../libs/PoliTeKDSP/libs/libDaisy/src/dev/oled_ssd130x.h ****                 transport_.SendCommand(0x60);
 277:../../libs/PoliTeKDSP/libs/libDaisy/src/dev/oled_ssd130x.h ****                 // Multiplex Ratio
 278:../../libs/PoliTeKDSP/libs/libDaisy/src/dev/oled_ssd130x.h ****                 transport_.SendCommand(0xA8);
 279:../../libs/PoliTeKDSP/libs/libDaisy/src/dev/oled_ssd130x.h ****                 transport_.SendCommand(0x0F);
 280:../../libs/PoliTeKDSP/libs/libDaisy/src/dev/oled_ssd130x.h ****                 // COM Pins
 281:../../libs/PoliTeKDSP/libs/libDaisy/src/dev/oled_ssd130x.h ****                 transport_.SendCommand(0xDA);
 282:../../libs/PoliTeKDSP/libs/libDaisy/src/dev/oled_ssd130x.h ****                 transport_.SendCommand(0x02);
 283:../../libs/PoliTeKDSP/libs/libDaisy/src/dev/oled_ssd130x.h ****                 break;
 284:../../libs/PoliTeKDSP/libs/libDaisy/src/dev/oled_ssd130x.h ****             case 32:
 285:../../libs/PoliTeKDSP/libs/libDaisy/src/dev/oled_ssd130x.h ****                 // Display Clock Divide Ratio
 286:../../libs/PoliTeKDSP/libs/libDaisy/src/dev/oled_ssd130x.h ****                 transport_.SendCommand(0xD5);
 287:../../libs/PoliTeKDSP/libs/libDaisy/src/dev/oled_ssd130x.h ****                 transport_.SendCommand(0x80);
 288:../../libs/PoliTeKDSP/libs/libDaisy/src/dev/oled_ssd130x.h ****                 // Multiplex Ratio
ARM GAS  C:\Users\skipi\AppData\Local\Temp\ccs8qXFk.s 			page 24


 289:../../libs/PoliTeKDSP/libs/libDaisy/src/dev/oled_ssd130x.h ****                 transport_.SendCommand(0xA8);
 290:../../libs/PoliTeKDSP/libs/libDaisy/src/dev/oled_ssd130x.h ****                 transport_.SendCommand(0x1F);
 291:../../libs/PoliTeKDSP/libs/libDaisy/src/dev/oled_ssd130x.h ****                 // COM Pins
 292:../../libs/PoliTeKDSP/libs/libDaisy/src/dev/oled_ssd130x.h ****                 transport_.SendCommand(0xDA);
 293:../../libs/PoliTeKDSP/libs/libDaisy/src/dev/oled_ssd130x.h ****                 if(width == 64)
 294:../../libs/PoliTeKDSP/libs/libDaisy/src/dev/oled_ssd130x.h ****                 {
 295:../../libs/PoliTeKDSP/libs/libDaisy/src/dev/oled_ssd130x.h ****                     transport_.SendCommand(0x12);
 296:../../libs/PoliTeKDSP/libs/libDaisy/src/dev/oled_ssd130x.h ****                 }
 297:../../libs/PoliTeKDSP/libs/libDaisy/src/dev/oled_ssd130x.h ****                 else
 298:../../libs/PoliTeKDSP/libs/libDaisy/src/dev/oled_ssd130x.h ****                 {
 299:../../libs/PoliTeKDSP/libs/libDaisy/src/dev/oled_ssd130x.h ****                     transport_.SendCommand(0x02);
 300:../../libs/PoliTeKDSP/libs/libDaisy/src/dev/oled_ssd130x.h ****                 }
 301:../../libs/PoliTeKDSP/libs/libDaisy/src/dev/oled_ssd130x.h **** 
 302:../../libs/PoliTeKDSP/libs/libDaisy/src/dev/oled_ssd130x.h ****                 break;
 303:../../libs/PoliTeKDSP/libs/libDaisy/src/dev/oled_ssd130x.h ****             case 48:
 304:../../libs/PoliTeKDSP/libs/libDaisy/src/dev/oled_ssd130x.h ****                 // Display Clock Divide Ratio
 305:../../libs/PoliTeKDSP/libs/libDaisy/src/dev/oled_ssd130x.h ****                 transport_.SendCommand(0xD5);
 306:../../libs/PoliTeKDSP/libs/libDaisy/src/dev/oled_ssd130x.h ****                 transport_.SendCommand(0x80);
 307:../../libs/PoliTeKDSP/libs/libDaisy/src/dev/oled_ssd130x.h ****                 // Multiplex Ratio
 308:../../libs/PoliTeKDSP/libs/libDaisy/src/dev/oled_ssd130x.h ****                 transport_.SendCommand(0xA8);
 309:../../libs/PoliTeKDSP/libs/libDaisy/src/dev/oled_ssd130x.h ****                 transport_.SendCommand(0x2F);
 310:../../libs/PoliTeKDSP/libs/libDaisy/src/dev/oled_ssd130x.h ****                 // COM Pins
 311:../../libs/PoliTeKDSP/libs/libDaisy/src/dev/oled_ssd130x.h ****                 transport_.SendCommand(0xDA);
 312:../../libs/PoliTeKDSP/libs/libDaisy/src/dev/oled_ssd130x.h ****                 transport_.SendCommand(0x12);
 313:../../libs/PoliTeKDSP/libs/libDaisy/src/dev/oled_ssd130x.h ****                 break;
 314:../../libs/PoliTeKDSP/libs/libDaisy/src/dev/oled_ssd130x.h ****             default: // 128
 315:../../libs/PoliTeKDSP/libs/libDaisy/src/dev/oled_ssd130x.h ****                 // Display Clock Divide Ratio
 316:../../libs/PoliTeKDSP/libs/libDaisy/src/dev/oled_ssd130x.h ****                 transport_.SendCommand(0xD5);
 317:../../libs/PoliTeKDSP/libs/libDaisy/src/dev/oled_ssd130x.h ****                 transport_.SendCommand(0x80);
 318:../../libs/PoliTeKDSP/libs/libDaisy/src/dev/oled_ssd130x.h ****                 // Multiplex Ratio
 319:../../libs/PoliTeKDSP/libs/libDaisy/src/dev/oled_ssd130x.h ****                 transport_.SendCommand(0xA8);
 320:../../libs/PoliTeKDSP/libs/libDaisy/src/dev/oled_ssd130x.h ****                 transport_.SendCommand(0x3F);
 321:../../libs/PoliTeKDSP/libs/libDaisy/src/dev/oled_ssd130x.h ****                 // COM Pins
 322:../../libs/PoliTeKDSP/libs/libDaisy/src/dev/oled_ssd130x.h ****                 transport_.SendCommand(0xDA);
 323:../../libs/PoliTeKDSP/libs/libDaisy/src/dev/oled_ssd130x.h ****                 transport_.SendCommand(0x12);
 324:../../libs/PoliTeKDSP/libs/libDaisy/src/dev/oled_ssd130x.h ****                 break;
 325:../../libs/PoliTeKDSP/libs/libDaisy/src/dev/oled_ssd130x.h ****         }
 326:../../libs/PoliTeKDSP/libs/libDaisy/src/dev/oled_ssd130x.h **** 
 327:../../libs/PoliTeKDSP/libs/libDaisy/src/dev/oled_ssd130x.h ****         // Display Offset
 328:../../libs/PoliTeKDSP/libs/libDaisy/src/dev/oled_ssd130x.h ****         transport_.SendCommand(0xD3);
 329:../../libs/PoliTeKDSP/libs/libDaisy/src/dev/oled_ssd130x.h ****         transport_.SendCommand(0x00);
 330:../../libs/PoliTeKDSP/libs/libDaisy/src/dev/oled_ssd130x.h ****         // Start Line Address
 331:../../libs/PoliTeKDSP/libs/libDaisy/src/dev/oled_ssd130x.h ****         transport_.SendCommand(0x40);
 332:../../libs/PoliTeKDSP/libs/libDaisy/src/dev/oled_ssd130x.h ****         // Normal Display
 333:../../libs/PoliTeKDSP/libs/libDaisy/src/dev/oled_ssd130x.h ****         transport_.SendCommand(0xA6);
 334:../../libs/PoliTeKDSP/libs/libDaisy/src/dev/oled_ssd130x.h ****         // All On Resume
 335:../../libs/PoliTeKDSP/libs/libDaisy/src/dev/oled_ssd130x.h ****         transport_.SendCommand(0xA4);
 336:../../libs/PoliTeKDSP/libs/libDaisy/src/dev/oled_ssd130x.h ****         // Charge Pump
 337:../../libs/PoliTeKDSP/libs/libDaisy/src/dev/oled_ssd130x.h ****         transport_.SendCommand(0x8D);
 338:../../libs/PoliTeKDSP/libs/libDaisy/src/dev/oled_ssd130x.h ****         transport_.SendCommand(0x14);
 339:../../libs/PoliTeKDSP/libs/libDaisy/src/dev/oled_ssd130x.h ****         // Set Segment Remap
 340:../../libs/PoliTeKDSP/libs/libDaisy/src/dev/oled_ssd130x.h ****         transport_.SendCommand(0xA1);
 341:../../libs/PoliTeKDSP/libs/libDaisy/src/dev/oled_ssd130x.h ****         // COM Output Scan Direction
 342:../../libs/PoliTeKDSP/libs/libDaisy/src/dev/oled_ssd130x.h ****         transport_.SendCommand(0xC8);
 343:../../libs/PoliTeKDSP/libs/libDaisy/src/dev/oled_ssd130x.h ****         // Contrast Control
 344:../../libs/PoliTeKDSP/libs/libDaisy/src/dev/oled_ssd130x.h ****         transport_.SendCommand(0x81);
 345:../../libs/PoliTeKDSP/libs/libDaisy/src/dev/oled_ssd130x.h ****         transport_.SendCommand(0x8F);
ARM GAS  C:\Users\skipi\AppData\Local\Temp\ccs8qXFk.s 			page 25


 346:../../libs/PoliTeKDSP/libs/libDaisy/src/dev/oled_ssd130x.h ****         // Pre Charge
 347:../../libs/PoliTeKDSP/libs/libDaisy/src/dev/oled_ssd130x.h ****         transport_.SendCommand(0xD9);
 348:../../libs/PoliTeKDSP/libs/libDaisy/src/dev/oled_ssd130x.h ****         transport_.SendCommand(0x25);
 349:../../libs/PoliTeKDSP/libs/libDaisy/src/dev/oled_ssd130x.h ****         // VCOM Detect
 350:../../libs/PoliTeKDSP/libs/libDaisy/src/dev/oled_ssd130x.h ****         transport_.SendCommand(0xDB);
 351:../../libs/PoliTeKDSP/libs/libDaisy/src/dev/oled_ssd130x.h ****         transport_.SendCommand(0x34);
 352:../../libs/PoliTeKDSP/libs/libDaisy/src/dev/oled_ssd130x.h **** 
 353:../../libs/PoliTeKDSP/libs/libDaisy/src/dev/oled_ssd130x.h **** 
 354:../../libs/PoliTeKDSP/libs/libDaisy/src/dev/oled_ssd130x.h ****         // Display On
 355:../../libs/PoliTeKDSP/libs/libDaisy/src/dev/oled_ssd130x.h ****         transport_.SendCommand(0xAF); //--turn on oled panel
 356:../../libs/PoliTeKDSP/libs/libDaisy/src/dev/oled_ssd130x.h ****     };
 357:../../libs/PoliTeKDSP/libs/libDaisy/src/dev/oled_ssd130x.h **** 
 358:../../libs/PoliTeKDSP/libs/libDaisy/src/dev/oled_ssd130x.h ****     size_t Width() const { return width; };
 359:../../libs/PoliTeKDSP/libs/libDaisy/src/dev/oled_ssd130x.h ****     size_t Height() const { return height; };
 360:../../libs/PoliTeKDSP/libs/libDaisy/src/dev/oled_ssd130x.h **** 
 361:../../libs/PoliTeKDSP/libs/libDaisy/src/dev/oled_ssd130x.h ****     void DrawPixel(uint_fast8_t x, uint_fast8_t y, bool on)
 362:../../libs/PoliTeKDSP/libs/libDaisy/src/dev/oled_ssd130x.h ****     {
 363:../../libs/PoliTeKDSP/libs/libDaisy/src/dev/oled_ssd130x.h ****         if(x >= width || y >= height)
 364:../../libs/PoliTeKDSP/libs/libDaisy/src/dev/oled_ssd130x.h ****             return;
 365:../../libs/PoliTeKDSP/libs/libDaisy/src/dev/oled_ssd130x.h ****         if(on)
 366:../../libs/PoliTeKDSP/libs/libDaisy/src/dev/oled_ssd130x.h ****             buffer_[x + (y / 8) * width] |= (1 << (y % 8));
 367:../../libs/PoliTeKDSP/libs/libDaisy/src/dev/oled_ssd130x.h ****         else
 368:../../libs/PoliTeKDSP/libs/libDaisy/src/dev/oled_ssd130x.h ****             buffer_[x + (y / 8) * width] &= ~(1 << (y % 8));
 369:../../libs/PoliTeKDSP/libs/libDaisy/src/dev/oled_ssd130x.h ****     }
 370:../../libs/PoliTeKDSP/libs/libDaisy/src/dev/oled_ssd130x.h **** 
 371:../../libs/PoliTeKDSP/libs/libDaisy/src/dev/oled_ssd130x.h ****     void Fill(bool on)
 312              		.loc 12 371 10 view .LVU50
 313              	.LBB581:
 372:../../libs/PoliTeKDSP/libs/libDaisy/src/dev/oled_ssd130x.h ****     {
 373:../../libs/PoliTeKDSP/libs/libDaisy/src/dev/oled_ssd130x.h ****         for(size_t i = 0; i < sizeof(buffer_); i++)
 314              		.loc 12 373 29 view .LVU51
 374:../../libs/PoliTeKDSP/libs/libDaisy/src/dev/oled_ssd130x.h ****         {
 375:../../libs/PoliTeKDSP/libs/libDaisy/src/dev/oled_ssd130x.h ****             buffer_[i] = on ? 0xff : 0x00;
 315              		.loc 12 375 24 is_stmt 0 view .LVU52
 316 0000 4942     		rsbs	r1, r1, #0
 317              	.LVL16:
 318              		.loc 12 375 24 view .LVU53
 319 0002 4FF48062 		mov	r2, #1024
 320 0006 1030     		adds	r0, r0, #16
 321              	.LVL17:
 322              		.loc 12 375 24 view .LVU54
 323 0008 C9B2     		uxtb	r1, r1
 324 000a FFF7FEBF 		b	memset
 325              	.LVL18:
 326              		.loc 12 375 24 view .LVU55
 327              	.LBE581:
 328              	.LBE580:
 329              		.cfi_endproc
 330              	.LFE2836:
 332 000e 00BF     		.section	.text._ZN5daisy11OledDisplayINS_13SSD130xDriverILj128ELj64ENS_19SSD130xI2CTransportEEEE14
 333              		.align	1
 334              		.p2align 2,,3
 335              		.weak	_ZN5daisy11OledDisplayINS_13SSD130xDriverILj128ELj64ENS_19SSD130xI2CTransportEEEE14UpdateFin
 336              		.syntax unified
 337              		.thumb
 338              		.thumb_func
 339              		.fpu fpv5-d16
ARM GAS  C:\Users\skipi\AppData\Local\Temp\ccs8qXFk.s 			page 26


 341              	_ZN5daisy11OledDisplayINS_13SSD130xDriverILj128ELj64ENS_19SSD130xI2CTransportEEEE14UpdateFinishedEv
 342              	.LVL19:
 343              	.LFB2845:
  35:../../libs/PoliTeKDSP/libs/libDaisy/src/hid/disp/oled_display.h **** 
  36:../../libs/PoliTeKDSP/libs/libDaisy/src/hid/disp/oled_display.h ****     /**
  37:../../libs/PoliTeKDSP/libs/libDaisy/src/hid/disp/oled_display.h ****     Sets the pixel at the specified coordinate to be on/off.
  38:../../libs/PoliTeKDSP/libs/libDaisy/src/hid/disp/oled_display.h ****     \param x   x Coordinate
  39:../../libs/PoliTeKDSP/libs/libDaisy/src/hid/disp/oled_display.h ****     \param y   y coordinate
  40:../../libs/PoliTeKDSP/libs/libDaisy/src/hid/disp/oled_display.h ****     \param on  on or off
  41:../../libs/PoliTeKDSP/libs/libDaisy/src/hid/disp/oled_display.h ****     */
  42:../../libs/PoliTeKDSP/libs/libDaisy/src/hid/disp/oled_display.h ****     void DrawPixel(uint_fast8_t x, uint_fast8_t y, bool on) override
  43:../../libs/PoliTeKDSP/libs/libDaisy/src/hid/disp/oled_display.h ****     {
  44:../../libs/PoliTeKDSP/libs/libDaisy/src/hid/disp/oled_display.h ****         driver_.DrawPixel(x, y, on);
  45:../../libs/PoliTeKDSP/libs/libDaisy/src/hid/disp/oled_display.h ****     }
  46:../../libs/PoliTeKDSP/libs/libDaisy/src/hid/disp/oled_display.h **** 
  47:../../libs/PoliTeKDSP/libs/libDaisy/src/hid/disp/oled_display.h ****     /** 
  48:../../libs/PoliTeKDSP/libs/libDaisy/src/hid/disp/oled_display.h ****     Writes the current display buffer to the OLED device using SPI or I2C depending on 
  49:../../libs/PoliTeKDSP/libs/libDaisy/src/hid/disp/oled_display.h ****     how the object was initialized.
  50:../../libs/PoliTeKDSP/libs/libDaisy/src/hid/disp/oled_display.h ****     */
  51:../../libs/PoliTeKDSP/libs/libDaisy/src/hid/disp/oled_display.h ****     void Update() override { driver_.Update(); }
  52:../../libs/PoliTeKDSP/libs/libDaisy/src/hid/disp/oled_display.h **** 
  53:../../libs/PoliTeKDSP/libs/libDaisy/src/hid/disp/oled_display.h ****     bool UpdateFinished() override { return driver_.UpdateFinished(); }
 344              		.loc 10 53 10 is_stmt 1 view -0
 345              		.cfi_startproc
 346              		@ args = 0, pretend = 0, frame = 0
 347              		@ frame_needed = 0, uses_anonymous_args = 0
 348              		@ link register save eliminated.
 349              		.loc 10 53 71 is_stmt 0 view .LVU57
 350 0000 0120     		movs	r0, #1
 351              	.LVL20:
 352              		.loc 10 53 71 view .LVU58
 353 0002 7047     		bx	lr
 354              		.cfi_endproc
 355              	.LFE2845:
 357              		.section	.text._ZN5daisy11OledDisplayINS_13SSD130xDriverILj128ELj64ENS_19SSD130xI2CTransportEEEED0
 358              		.align	1
 359              		.p2align 2,,3
 360              		.weak	_ZN5daisy11OledDisplayINS_13SSD130xDriverILj128ELj64ENS_19SSD130xI2CTransportEEEED0Ev
 361              		.syntax unified
 362              		.thumb
 363              		.thumb_func
 364              		.fpu fpv5-d16
 366              	_ZN5daisy11OledDisplayINS_13SSD130xDriverILj128ELj64ENS_19SSD130xI2CTransportEEEED0Ev:
 367              	.LVL21:
 368              	.LFB2833:
  18:../../libs/PoliTeKDSP/libs/libDaisy/src/hid/disp/oled_display.h **** 
 369              		.loc 10 18 13 is_stmt 1 view -0
 370              		.cfi_startproc
 371              		@ args = 0, pretend = 0, frame = 0
 372              		@ frame_needed = 0, uses_anonymous_args = 0
  18:../../libs/PoliTeKDSP/libs/libDaisy/src/hid/disp/oled_display.h **** 
 373              		.loc 10 18 13 is_stmt 0 view .LVU60
 374 0000 10B5     		push	{r4, lr}
 375              		.cfi_def_cfa_offset 8
 376              		.cfi_offset 4, -8
 377              		.cfi_offset 14, -4
  18:../../libs/PoliTeKDSP/libs/libDaisy/src/hid/disp/oled_display.h **** 
ARM GAS  C:\Users\skipi\AppData\Local\Temp\ccs8qXFk.s 			page 27


 378              		.loc 10 18 13 view .LVU61
 379 0002 0446     		mov	r4, r0
 380              	.LVL22:
 381              	.LBB582:
 382              	.LBI582:
  18:../../libs/PoliTeKDSP/libs/libDaisy/src/hid/disp/oled_display.h **** 
 383              		.loc 10 18 13 is_stmt 1 view .LVU62
 384              	.LBB583:
 385              	.LBI583:
 386              		.loc 11 224 13 view .LVU63
 387              	.LBB584:
 388              	.LBI584:
  23:../../libs/PoliTeKDSP/libs/libDaisy/src/hid/disp/display.h **** 
 389              		.loc 11 23 13 view .LVU64
  23:../../libs/PoliTeKDSP/libs/libDaisy/src/hid/disp/display.h **** 
 390              		.loc 11 23 13 is_stmt 0 view .LVU65
 391              	.LBE584:
 392              	.LBE583:
 393              	.LBE582:
  18:../../libs/PoliTeKDSP/libs/libDaisy/src/hid/disp/oled_display.h **** 
 394              		.loc 10 18 29 view .LVU66
 395 0004 4FF48261 		mov	r1, #1040
 396 0008 FFF7FEFF 		bl	_ZdlPvj
 397              	.LVL23:
  18:../../libs/PoliTeKDSP/libs/libDaisy/src/hid/disp/oled_display.h **** 
 398              		.loc 10 18 29 view .LVU67
 399 000c 2046     		mov	r0, r4
 400 000e 10BD     		pop	{r4, pc}
  18:../../libs/PoliTeKDSP/libs/libDaisy/src/hid/disp/oled_display.h **** 
 401              		.loc 10 18 29 view .LVU68
 402              		.cfi_endproc
 403              	.LFE2833:
 405              		.section	.text._ZN5daisy11OledDisplayINS_13SSD130xDriverILj128ELj64ENS_19SSD130xI2CTransportEEEE6U
 406              		.align	1
 407              		.p2align 2,,3
 408              		.weak	_ZN5daisy11OledDisplayINS_13SSD130xDriverILj128ELj64ENS_19SSD130xI2CTransportEEEE6UpdateEv
 409              		.syntax unified
 410              		.thumb
 411              		.thumb_func
 412              		.fpu fpv5-d16
 414              	_ZN5daisy11OledDisplayINS_13SSD130xDriverILj128ELj64ENS_19SSD130xI2CTransportEEEE6UpdateEv:
 415              	.LVL24:
 416              	.LFB2844:
  51:../../libs/PoliTeKDSP/libs/libDaisy/src/hid/disp/oled_display.h **** 
 417              		.loc 10 51 10 is_stmt 1 view -0
 418              		.cfi_startproc
 419              		@ args = 0, pretend = 0, frame = 8
 420              		@ frame_needed = 0, uses_anonymous_args = 0
  51:../../libs/PoliTeKDSP/libs/libDaisy/src/hid/disp/oled_display.h **** 
 421              		.loc 10 51 10 is_stmt 0 view .LVU70
 422 0000 2DE9F04F 		push	{r4, r5, r6, r7, r8, r9, r10, fp, lr}
 423              		.cfi_def_cfa_offset 36
 424              		.cfi_offset 4, -36
 425              		.cfi_offset 5, -32
 426              		.cfi_offset 6, -28
 427              		.cfi_offset 7, -24
 428              		.cfi_offset 8, -20
ARM GAS  C:\Users\skipi\AppData\Local\Temp\ccs8qXFk.s 			page 28


 429              		.cfi_offset 9, -16
 430              		.cfi_offset 10, -12
 431              		.cfi_offset 11, -8
 432              		.cfi_offset 14, -4
 433              	.LBB597:
 434              	.LBB598:
 435              	.LBB599:
 436              	.LBB600:
  46:../../libs/PoliTeKDSP/libs/libDaisy/src/dev/oled_ssd130x.h ****     };
 437              		.loc 12 46 30 view .LVU71
 438 0004 4FF0B008 		mov	r8, #176
 439              	.LBE600:
 440              	.LBE599:
 441              	.LBE598:
 442              	.LBE597:
  51:../../libs/PoliTeKDSP/libs/libDaisy/src/hid/disp/oled_display.h **** 
 443              		.loc 10 51 10 view .LVU72
 444 0008 85B0     		sub	sp, sp, #20
 445              		.cfi_def_cfa_offset 56
  51:../../libs/PoliTeKDSP/libs/libDaisy/src/hid/disp/oled_display.h **** 
 446              		.loc 10 51 10 view .LVU73
 447 000a 0546     		mov	r5, r0
 448              	.LVL25:
 449              	.LBB612:
 450              	.LBI597:
 376:../../libs/PoliTeKDSP/libs/libDaisy/src/dev/oled_ssd130x.h ****         }
 377:../../libs/PoliTeKDSP/libs/libDaisy/src/dev/oled_ssd130x.h ****     };
 378:../../libs/PoliTeKDSP/libs/libDaisy/src/dev/oled_ssd130x.h **** 
 379:../../libs/PoliTeKDSP/libs/libDaisy/src/dev/oled_ssd130x.h ****     /**
 380:../../libs/PoliTeKDSP/libs/libDaisy/src/dev/oled_ssd130x.h ****      * Update the display
 381:../../libs/PoliTeKDSP/libs/libDaisy/src/dev/oled_ssd130x.h ****     */
 382:../../libs/PoliTeKDSP/libs/libDaisy/src/dev/oled_ssd130x.h ****     void Update()
 451              		.loc 12 382 10 is_stmt 1 view .LVU74
 452              	.LBB611:
 383:../../libs/PoliTeKDSP/libs/libDaisy/src/dev/oled_ssd130x.h ****     {
 384:../../libs/PoliTeKDSP/libs/libDaisy/src/dev/oled_ssd130x.h ****         uint8_t i;
 385:../../libs/PoliTeKDSP/libs/libDaisy/src/dev/oled_ssd130x.h ****         uint8_t high_column_addr;
 386:../../libs/PoliTeKDSP/libs/libDaisy/src/dev/oled_ssd130x.h ****         switch(height)
 387:../../libs/PoliTeKDSP/libs/libDaisy/src/dev/oled_ssd130x.h ****         {
 388:../../libs/PoliTeKDSP/libs/libDaisy/src/dev/oled_ssd130x.h ****             case 32: high_column_addr = 0x12; break;
 389:../../libs/PoliTeKDSP/libs/libDaisy/src/dev/oled_ssd130x.h **** 
 390:../../libs/PoliTeKDSP/libs/libDaisy/src/dev/oled_ssd130x.h ****             default: high_column_addr = 0x10; break;
 391:../../libs/PoliTeKDSP/libs/libDaisy/src/dev/oled_ssd130x.h ****         }
 392:../../libs/PoliTeKDSP/libs/libDaisy/src/dev/oled_ssd130x.h ****         for(i = 0; i < (height / 8); i++)
 453              		.loc 12 392 22 view .LVU75
 454              	.LBB603:
 455              	.LBB601:
  46:../../libs/PoliTeKDSP/libs/libDaisy/src/dev/oled_ssd130x.h ****     };
 456              		.loc 12 46 30 is_stmt 0 view .LVU76
 457 000c 00F10807 		add	r7, r0, #8
 458              	.LVL26:
  46:../../libs/PoliTeKDSP/libs/libDaisy/src/dev/oled_ssd130x.h ****     };
 459              		.loc 12 46 30 view .LVU77
 460 0010 00F18F06 		add	r6, r0, #143
 461 0014 00F28F49 		addw	r9, r0, #1167
 462              	.LVL27:
 463              	.L27:
ARM GAS  C:\Users\skipi\AppData\Local\Temp\ccs8qXFk.s 			page 29


  46:../../libs/PoliTeKDSP/libs/libDaisy/src/dev/oled_ssd130x.h ****     };
 464              		.loc 12 46 30 view .LVU78
 465              	.LBE601:
 466              	.LBI599:
  43:../../libs/PoliTeKDSP/libs/libDaisy/src/dev/oled_ssd130x.h ****     {
 467              		.loc 12 43 10 is_stmt 1 view .LVU79
 468              	.LBB602:
  45:../../libs/PoliTeKDSP/libs/libDaisy/src/dev/oled_ssd130x.h ****         i2c_.TransmitBlocking(i2c_address_, buf, 2, 1000);
 469              		.loc 12 45 9 view .LVU80
  46:../../libs/PoliTeKDSP/libs/libDaisy/src/dev/oled_ssd130x.h ****     };
 470              		.loc 12 46 30 is_stmt 0 view .LVU81
 471 0018 4FF47A7B 		mov	fp, #1000
  45:../../libs/PoliTeKDSP/libs/libDaisy/src/dev/oled_ssd130x.h ****         i2c_.TransmitBlocking(i2c_address_, buf, 2, 1000);
 472              		.loc 12 45 17 view .LVU82
 473 001c 4FF0000A 		mov	r10, #0
  46:../../libs/PoliTeKDSP/libs/libDaisy/src/dev/oled_ssd130x.h ****     };
 474              		.loc 12 46 30 view .LVU83
 475 0020 297B     		ldrb	r1, [r5, #12]	@ zero_extendqisi2
 476 0022 0223     		movs	r3, #2
 477 0024 03AA     		add	r2, sp, #12
 478 0026 3846     		mov	r0, r7
 479 0028 CDF800B0 		str	fp, [sp]
 480 002c A6F18004 		sub	r4, r6, #128
  45:../../libs/PoliTeKDSP/libs/libDaisy/src/dev/oled_ssd130x.h ****         i2c_.TransmitBlocking(i2c_address_, buf, 2, 1000);
 481              		.loc 12 45 17 view .LVU84
 482 0030 8DF80CA0 		strb	r10, [sp, #12]
  45:../../libs/PoliTeKDSP/libs/libDaisy/src/dev/oled_ssd130x.h ****         i2c_.TransmitBlocking(i2c_address_, buf, 2, 1000);
 483              		.loc 12 45 36 view .LVU85
 484 0034 8DF80D80 		strb	r8, [sp, #13]
  46:../../libs/PoliTeKDSP/libs/libDaisy/src/dev/oled_ssd130x.h ****     };
 485              		.loc 12 46 9 is_stmt 1 view .LVU86
  46:../../libs/PoliTeKDSP/libs/libDaisy/src/dev/oled_ssd130x.h ****     };
 486              		.loc 12 46 30 is_stmt 0 view .LVU87
 487 0038 FFF7FEFF 		bl	_ZN5daisy9I2CHandle16TransmitBlockingEtPhtm
 488              	.LVL28:
  46:../../libs/PoliTeKDSP/libs/libDaisy/src/dev/oled_ssd130x.h ****     };
 489              		.loc 12 46 30 view .LVU88
 490              	.LBE602:
 491              	.LBE603:
 492              	.LBB604:
 493              	.LBI604:
  43:../../libs/PoliTeKDSP/libs/libDaisy/src/dev/oled_ssd130x.h ****     {
 494              		.loc 12 43 10 is_stmt 1 view .LVU89
 495              	.LBB605:
  45:../../libs/PoliTeKDSP/libs/libDaisy/src/dev/oled_ssd130x.h ****         i2c_.TransmitBlocking(i2c_address_, buf, 2, 1000);
 496              		.loc 12 45 9 view .LVU90
  46:../../libs/PoliTeKDSP/libs/libDaisy/src/dev/oled_ssd130x.h ****     };
 497              		.loc 12 46 30 is_stmt 0 view .LVU91
 498 003c 297B     		ldrb	r1, [r5, #12]	@ zero_extendqisi2
 499 003e 0223     		movs	r3, #2
 500 0040 03AA     		add	r2, sp, #12
 501 0042 3846     		mov	r0, r7
 502 0044 CDF800B0 		str	fp, [sp]
  45:../../libs/PoliTeKDSP/libs/libDaisy/src/dev/oled_ssd130x.h ****         i2c_.TransmitBlocking(i2c_address_, buf, 2, 1000);
 503              		.loc 12 45 17 view .LVU92
 504 0048 8DF80CA0 		strb	r10, [sp, #12]
  45:../../libs/PoliTeKDSP/libs/libDaisy/src/dev/oled_ssd130x.h ****         i2c_.TransmitBlocking(i2c_address_, buf, 2, 1000);
ARM GAS  C:\Users\skipi\AppData\Local\Temp\ccs8qXFk.s 			page 30


 505              		.loc 12 45 36 view .LVU93
 506 004c 8DF80DA0 		strb	r10, [sp, #13]
  46:../../libs/PoliTeKDSP/libs/libDaisy/src/dev/oled_ssd130x.h ****     };
 507              		.loc 12 46 9 is_stmt 1 view .LVU94
  46:../../libs/PoliTeKDSP/libs/libDaisy/src/dev/oled_ssd130x.h ****     };
 508              		.loc 12 46 30 is_stmt 0 view .LVU95
 509 0050 FFF7FEFF 		bl	_ZN5daisy9I2CHandle16TransmitBlockingEtPhtm
 510              	.LVL29:
  46:../../libs/PoliTeKDSP/libs/libDaisy/src/dev/oled_ssd130x.h ****     };
 511              		.loc 12 46 30 view .LVU96
 512              	.LBE605:
 513              	.LBE604:
 514              	.LBB606:
 515              	.LBI606:
  43:../../libs/PoliTeKDSP/libs/libDaisy/src/dev/oled_ssd130x.h ****     {
 516              		.loc 12 43 10 is_stmt 1 view .LVU97
 517              	.LBB607:
  45:../../libs/PoliTeKDSP/libs/libDaisy/src/dev/oled_ssd130x.h ****         i2c_.TransmitBlocking(i2c_address_, buf, 2, 1000);
 518              		.loc 12 45 9 view .LVU98
  45:../../libs/PoliTeKDSP/libs/libDaisy/src/dev/oled_ssd130x.h ****         i2c_.TransmitBlocking(i2c_address_, buf, 2, 1000);
 519              		.loc 12 45 36 is_stmt 0 view .LVU99
 520 0054 4FF0100C 		mov	ip, #16
  46:../../libs/PoliTeKDSP/libs/libDaisy/src/dev/oled_ssd130x.h ****     };
 521              		.loc 12 46 30 view .LVU100
 522 0058 297B     		ldrb	r1, [r5, #12]	@ zero_extendqisi2
 523 005a 0223     		movs	r3, #2
 524 005c 03AA     		add	r2, sp, #12
 525 005e 3846     		mov	r0, r7
 526 0060 CDF800B0 		str	fp, [sp]
  45:../../libs/PoliTeKDSP/libs/libDaisy/src/dev/oled_ssd130x.h ****         i2c_.TransmitBlocking(i2c_address_, buf, 2, 1000);
 527              		.loc 12 45 17 view .LVU101
 528 0064 8DF80CA0 		strb	r10, [sp, #12]
  45:../../libs/PoliTeKDSP/libs/libDaisy/src/dev/oled_ssd130x.h ****         i2c_.TransmitBlocking(i2c_address_, buf, 2, 1000);
 529              		.loc 12 45 36 view .LVU102
 530 0068 8DF80DC0 		strb	ip, [sp, #13]
  46:../../libs/PoliTeKDSP/libs/libDaisy/src/dev/oled_ssd130x.h ****     };
 531              		.loc 12 46 9 is_stmt 1 view .LVU103
  46:../../libs/PoliTeKDSP/libs/libDaisy/src/dev/oled_ssd130x.h ****     };
 532              		.loc 12 46 30 is_stmt 0 view .LVU104
 533 006c FFF7FEFF 		bl	_ZN5daisy9I2CHandle16TransmitBlockingEtPhtm
 534              	.LVL30:
  46:../../libs/PoliTeKDSP/libs/libDaisy/src/dev/oled_ssd130x.h ****     };
 535              		.loc 12 46 30 view .LVU105
 536              	.LBE607:
 537              	.LBE606:
 538              	.LBB608:
 539              	.LBI608:
  49:../../libs/PoliTeKDSP/libs/libDaisy/src/dev/oled_ssd130x.h ****     {
 540              		.loc 12 49 10 is_stmt 1 view .LVU106
 541              	.LBB609:
  51:../../libs/PoliTeKDSP/libs/libDaisy/src/dev/oled_ssd130x.h ****         {
 542              		.loc 12 51 29 view .LVU107
 543              	.L26:
 544              	.LBB610:
  53:../../libs/PoliTeKDSP/libs/libDaisy/src/dev/oled_ssd130x.h ****             i2c_.TransmitBlocking(i2c_address_, buf, 2, 1000);
 545              		.loc 12 53 13 view .LVU108
  54:../../libs/PoliTeKDSP/libs/libDaisy/src/dev/oled_ssd130x.h ****         }
ARM GAS  C:\Users\skipi\AppData\Local\Temp\ccs8qXFk.s 			page 31


 546              		.loc 12 54 34 is_stmt 0 view .LVU109
 547 0070 4FF47A70 		mov	r0, #1000
  53:../../libs/PoliTeKDSP/libs/libDaisy/src/dev/oled_ssd130x.h ****             i2c_.TransmitBlocking(i2c_address_, buf, 2, 1000);
 548              		.loc 12 53 44 view .LVU110
 549 0074 14F801CF 		ldrb	ip, [r4, #1]!	@ zero_extendqisi2
 550              	.LVL31:
  53:../../libs/PoliTeKDSP/libs/libDaisy/src/dev/oled_ssd130x.h ****             i2c_.TransmitBlocking(i2c_address_, buf, 2, 1000);
 551              		.loc 12 53 21 view .LVU111
 552 0078 4FF0400E 		mov	lr, #64
  54:../../libs/PoliTeKDSP/libs/libDaisy/src/dev/oled_ssd130x.h ****         }
 553              		.loc 12 54 34 view .LVU112
 554 007c 297B     		ldrb	r1, [r5, #12]	@ zero_extendqisi2
 555 007e 0223     		movs	r3, #2
 556 0080 0090     		str	r0, [sp]
 557 0082 03AA     		add	r2, sp, #12
 558 0084 3846     		mov	r0, r7
  53:../../libs/PoliTeKDSP/libs/libDaisy/src/dev/oled_ssd130x.h ****             i2c_.TransmitBlocking(i2c_address_, buf, 2, 1000);
 559              		.loc 12 53 21 view .LVU113
 560 0086 8DF80CE0 		strb	lr, [sp, #12]
  53:../../libs/PoliTeKDSP/libs/libDaisy/src/dev/oled_ssd130x.h ****             i2c_.TransmitBlocking(i2c_address_, buf, 2, 1000);
 561              		.loc 12 53 44 view .LVU114
 562 008a 8DF80DC0 		strb	ip, [sp, #13]
  54:../../libs/PoliTeKDSP/libs/libDaisy/src/dev/oled_ssd130x.h ****         }
 563              		.loc 12 54 13 is_stmt 1 view .LVU115
  54:../../libs/PoliTeKDSP/libs/libDaisy/src/dev/oled_ssd130x.h ****         }
 564              		.loc 12 54 34 is_stmt 0 view .LVU116
 565 008e FFF7FEFF 		bl	_ZN5daisy9I2CHandle16TransmitBlockingEtPhtm
 566              	.LVL32:
 567              	.LBE610:
  51:../../libs/PoliTeKDSP/libs/libDaisy/src/dev/oled_ssd130x.h ****         {
 568              		.loc 12 51 9 is_stmt 1 view .LVU117
  51:../../libs/PoliTeKDSP/libs/libDaisy/src/dev/oled_ssd130x.h ****         {
 569              		.loc 12 51 29 view .LVU118
 570 0092 B442     		cmp	r4, r6
 571 0094 ECD1     		bne	.L26
 572              	.LVL33:
  51:../../libs/PoliTeKDSP/libs/libDaisy/src/dev/oled_ssd130x.h ****         {
 573              		.loc 12 51 29 is_stmt 0 view .LVU119
 574              	.LBE609:
 575              	.LBE608:
 576              		.loc 12 392 9 is_stmt 1 view .LVU120
 577              		.loc 12 392 22 view .LVU121
 578 0096 04F18006 		add	r6, r4, #128
 579 009a 08F10108 		add	r8, r8, #1
 580              	.LVL34:
 581              		.loc 12 392 22 is_stmt 0 view .LVU122
 582 009e 4E45     		cmp	r6, r9
 583 00a0 5FFA88F8 		uxtb	r8, r8
 584 00a4 B8D1     		bne	.L27
 585              	.LBE611:
 586              	.LBE612:
  51:../../libs/PoliTeKDSP/libs/libDaisy/src/hid/disp/oled_display.h **** 
 587              		.loc 10 51 48 view .LVU123
 588 00a6 05B0     		add	sp, sp, #20
 589              		.cfi_def_cfa_offset 36
 590              		@ sp needed
 591 00a8 BDE8F08F 		pop	{r4, r5, r6, r7, r8, r9, r10, fp, pc}
ARM GAS  C:\Users\skipi\AppData\Local\Temp\ccs8qXFk.s 			page 32


  51:../../libs/PoliTeKDSP/libs/libDaisy/src/hid/disp/oled_display.h **** 
 592              		.loc 10 51 48 view .LVU124
 593              		.cfi_endproc
 594              	.LFE2844:
 596              		.section	.text._ZN5daisy25OneBitGraphicsDisplayImplINS_11OledDisplayINS_13SSD130xDriverILj128ELj64
 597              		.align	1
 598              		.p2align 2,,3
 599              		.weak	_ZN5daisy25OneBitGraphicsDisplayImplINS_11OledDisplayINS_13SSD130xDriverILj128ELj64ENS_19SSD
 600              		.syntax unified
 601              		.thumb
 602              		.thumb_func
 603              		.fpu fpv5-d16
 605              	_ZN5daisy25OneBitGraphicsDisplayImplINS_11OledDisplayINS_13SSD130xDriverILj128ELj64ENS_19SSD130xI2C
 606              	.LVL35:
 607              	.LFB2842:
 225:../../libs/PoliTeKDSP/libs/libDaisy/src/hid/disp/display.h **** 
 226:../../libs/PoliTeKDSP/libs/libDaisy/src/hid/disp/display.h ****     void DrawLine(uint_fast8_t x1,
 227:../../libs/PoliTeKDSP/libs/libDaisy/src/hid/disp/display.h ****                   uint_fast8_t y1,
 228:../../libs/PoliTeKDSP/libs/libDaisy/src/hid/disp/display.h ****                   uint_fast8_t x2,
 229:../../libs/PoliTeKDSP/libs/libDaisy/src/hid/disp/display.h ****                   uint_fast8_t y2,
 230:../../libs/PoliTeKDSP/libs/libDaisy/src/hid/disp/display.h ****                   bool         on) override
 231:../../libs/PoliTeKDSP/libs/libDaisy/src/hid/disp/display.h ****     {
 232:../../libs/PoliTeKDSP/libs/libDaisy/src/hid/disp/display.h ****         int_fast16_t deltaX = abs((int_fast16_t)x2 - (int_fast16_t)x1);
 233:../../libs/PoliTeKDSP/libs/libDaisy/src/hid/disp/display.h ****         int_fast16_t deltaY = abs((int_fast16_t)y2 - (int_fast16_t)y1);
 234:../../libs/PoliTeKDSP/libs/libDaisy/src/hid/disp/display.h ****         int_fast16_t signX  = ((x1 < x2) ? 1 : -1);
 235:../../libs/PoliTeKDSP/libs/libDaisy/src/hid/disp/display.h ****         int_fast16_t signY  = ((y1 < y2) ? 1 : -1);
 236:../../libs/PoliTeKDSP/libs/libDaisy/src/hid/disp/display.h ****         int_fast16_t error  = deltaX - deltaY;
 237:../../libs/PoliTeKDSP/libs/libDaisy/src/hid/disp/display.h ****         int_fast16_t error2;
 238:../../libs/PoliTeKDSP/libs/libDaisy/src/hid/disp/display.h **** 
 239:../../libs/PoliTeKDSP/libs/libDaisy/src/hid/disp/display.h ****         // If we write "ChildType::DrawPixel(x2, y2, on);", we end up with
 240:../../libs/PoliTeKDSP/libs/libDaisy/src/hid/disp/display.h ****         // all sorts of weird compiler errors when the Child class is a template
 241:../../libs/PoliTeKDSP/libs/libDaisy/src/hid/disp/display.h ****         // class. The only way around this is to use this very verbose syntax:
 242:../../libs/PoliTeKDSP/libs/libDaisy/src/hid/disp/display.h ****         ((ChildType*)(this))->ChildType::DrawPixel(x2, y2, on);
 243:../../libs/PoliTeKDSP/libs/libDaisy/src/hid/disp/display.h **** 
 244:../../libs/PoliTeKDSP/libs/libDaisy/src/hid/disp/display.h ****         while((x1 != x2) || (y1 != y2))
 245:../../libs/PoliTeKDSP/libs/libDaisy/src/hid/disp/display.h ****         {
 246:../../libs/PoliTeKDSP/libs/libDaisy/src/hid/disp/display.h ****             ((ChildType*)(this))->ChildType::DrawPixel(x1, y1, on);
 247:../../libs/PoliTeKDSP/libs/libDaisy/src/hid/disp/display.h ****             error2 = error * 2;
 248:../../libs/PoliTeKDSP/libs/libDaisy/src/hid/disp/display.h ****             if(error2 > -deltaY)
 249:../../libs/PoliTeKDSP/libs/libDaisy/src/hid/disp/display.h ****             {
 250:../../libs/PoliTeKDSP/libs/libDaisy/src/hid/disp/display.h ****                 error -= deltaY;
 251:../../libs/PoliTeKDSP/libs/libDaisy/src/hid/disp/display.h ****                 x1 += signX;
 252:../../libs/PoliTeKDSP/libs/libDaisy/src/hid/disp/display.h ****             }
 253:../../libs/PoliTeKDSP/libs/libDaisy/src/hid/disp/display.h **** 
 254:../../libs/PoliTeKDSP/libs/libDaisy/src/hid/disp/display.h ****             if(error2 < deltaX)
 255:../../libs/PoliTeKDSP/libs/libDaisy/src/hid/disp/display.h ****             {
 256:../../libs/PoliTeKDSP/libs/libDaisy/src/hid/disp/display.h ****                 error += deltaX;
 257:../../libs/PoliTeKDSP/libs/libDaisy/src/hid/disp/display.h ****                 y1 += signY;
 258:../../libs/PoliTeKDSP/libs/libDaisy/src/hid/disp/display.h ****             }
 259:../../libs/PoliTeKDSP/libs/libDaisy/src/hid/disp/display.h ****         }
 260:../../libs/PoliTeKDSP/libs/libDaisy/src/hid/disp/display.h ****     }
 261:../../libs/PoliTeKDSP/libs/libDaisy/src/hid/disp/display.h **** 
 262:../../libs/PoliTeKDSP/libs/libDaisy/src/hid/disp/display.h ****     void DrawRect(uint_fast8_t x1,
 263:../../libs/PoliTeKDSP/libs/libDaisy/src/hid/disp/display.h ****                   uint_fast8_t y1,
 264:../../libs/PoliTeKDSP/libs/libDaisy/src/hid/disp/display.h ****                   uint_fast8_t x2,
 265:../../libs/PoliTeKDSP/libs/libDaisy/src/hid/disp/display.h ****                   uint_fast8_t y2,
 266:../../libs/PoliTeKDSP/libs/libDaisy/src/hid/disp/display.h ****                   bool         on,
ARM GAS  C:\Users\skipi\AppData\Local\Temp\ccs8qXFk.s 			page 33


 267:../../libs/PoliTeKDSP/libs/libDaisy/src/hid/disp/display.h ****                   bool         fill = false) override
 268:../../libs/PoliTeKDSP/libs/libDaisy/src/hid/disp/display.h ****     {
 269:../../libs/PoliTeKDSP/libs/libDaisy/src/hid/disp/display.h ****         if(fill)
 270:../../libs/PoliTeKDSP/libs/libDaisy/src/hid/disp/display.h ****         {
 271:../../libs/PoliTeKDSP/libs/libDaisy/src/hid/disp/display.h ****             for(uint_fast8_t x = x1; x <= x2; x++)
 272:../../libs/PoliTeKDSP/libs/libDaisy/src/hid/disp/display.h ****             {
 273:../../libs/PoliTeKDSP/libs/libDaisy/src/hid/disp/display.h ****                 for(uint_fast8_t y = y1; y <= y2; y++)
 274:../../libs/PoliTeKDSP/libs/libDaisy/src/hid/disp/display.h ****                 {
 275:../../libs/PoliTeKDSP/libs/libDaisy/src/hid/disp/display.h ****                     ((ChildType*)(this))->ChildType::DrawPixel(x, y, on);
 276:../../libs/PoliTeKDSP/libs/libDaisy/src/hid/disp/display.h ****                 }
 277:../../libs/PoliTeKDSP/libs/libDaisy/src/hid/disp/display.h ****             }
 278:../../libs/PoliTeKDSP/libs/libDaisy/src/hid/disp/display.h ****         }
 279:../../libs/PoliTeKDSP/libs/libDaisy/src/hid/disp/display.h ****         else
 280:../../libs/PoliTeKDSP/libs/libDaisy/src/hid/disp/display.h ****         {
 281:../../libs/PoliTeKDSP/libs/libDaisy/src/hid/disp/display.h ****             ((ChildType*)(this))->ChildType::DrawLine(x1, y1, x2, y1, on);
 282:../../libs/PoliTeKDSP/libs/libDaisy/src/hid/disp/display.h ****             ((ChildType*)(this))->ChildType::DrawLine(x2, y1, x2, y2, on);
 283:../../libs/PoliTeKDSP/libs/libDaisy/src/hid/disp/display.h ****             ((ChildType*)(this))->ChildType::DrawLine(x2, y2, x1, y2, on);
 284:../../libs/PoliTeKDSP/libs/libDaisy/src/hid/disp/display.h ****             ((ChildType*)(this))->ChildType::DrawLine(x1, y2, x1, y1, on);
 285:../../libs/PoliTeKDSP/libs/libDaisy/src/hid/disp/display.h ****         }
 286:../../libs/PoliTeKDSP/libs/libDaisy/src/hid/disp/display.h ****     }
 287:../../libs/PoliTeKDSP/libs/libDaisy/src/hid/disp/display.h **** 
 288:../../libs/PoliTeKDSP/libs/libDaisy/src/hid/disp/display.h ****     void DrawArc(uint_fast8_t x,
 289:../../libs/PoliTeKDSP/libs/libDaisy/src/hid/disp/display.h ****                  uint_fast8_t y,
 290:../../libs/PoliTeKDSP/libs/libDaisy/src/hid/disp/display.h ****                  uint_fast8_t radius,
 291:../../libs/PoliTeKDSP/libs/libDaisy/src/hid/disp/display.h ****                  int_fast16_t start_angle,
 292:../../libs/PoliTeKDSP/libs/libDaisy/src/hid/disp/display.h ****                  int_fast16_t sweep,
 293:../../libs/PoliTeKDSP/libs/libDaisy/src/hid/disp/display.h ****                  bool         on) override
 294:../../libs/PoliTeKDSP/libs/libDaisy/src/hid/disp/display.h ****     {
 295:../../libs/PoliTeKDSP/libs/libDaisy/src/hid/disp/display.h ****         // Values to calculate the circle
 296:../../libs/PoliTeKDSP/libs/libDaisy/src/hid/disp/display.h ****         int_fast16_t t_x, t_y, err, e2;
 297:../../libs/PoliTeKDSP/libs/libDaisy/src/hid/disp/display.h **** 
 298:../../libs/PoliTeKDSP/libs/libDaisy/src/hid/disp/display.h ****         // Temporary values to speed up comparisons
 299:../../libs/PoliTeKDSP/libs/libDaisy/src/hid/disp/display.h ****         float t_sxy, t_syx, t_sxny, t_synx;
 300:../../libs/PoliTeKDSP/libs/libDaisy/src/hid/disp/display.h ****         float t_exy, t_eyx, t_exny, t_eynx;
 301:../../libs/PoliTeKDSP/libs/libDaisy/src/hid/disp/display.h **** 
 302:../../libs/PoliTeKDSP/libs/libDaisy/src/hid/disp/display.h ****         float start_angle_rad, end_angle_rad;
 303:../../libs/PoliTeKDSP/libs/libDaisy/src/hid/disp/display.h ****         float start_x, start_y, end_x, end_y;
 304:../../libs/PoliTeKDSP/libs/libDaisy/src/hid/disp/display.h **** 
 305:../../libs/PoliTeKDSP/libs/libDaisy/src/hid/disp/display.h ****         bool d1, d2, d3, d4;
 306:../../libs/PoliTeKDSP/libs/libDaisy/src/hid/disp/display.h **** 
 307:../../libs/PoliTeKDSP/libs/libDaisy/src/hid/disp/display.h ****         d1 = d2 = d3 = d4 = true;
 308:../../libs/PoliTeKDSP/libs/libDaisy/src/hid/disp/display.h **** 
 309:../../libs/PoliTeKDSP/libs/libDaisy/src/hid/disp/display.h ****         bool circle = false;
 310:../../libs/PoliTeKDSP/libs/libDaisy/src/hid/disp/display.h **** 
 311:../../libs/PoliTeKDSP/libs/libDaisy/src/hid/disp/display.h ****         if(sweep < 0)
 312:../../libs/PoliTeKDSP/libs/libDaisy/src/hid/disp/display.h ****         {
 313:../../libs/PoliTeKDSP/libs/libDaisy/src/hid/disp/display.h ****             start_angle += sweep;
 314:../../libs/PoliTeKDSP/libs/libDaisy/src/hid/disp/display.h ****             sweep = -sweep;
 315:../../libs/PoliTeKDSP/libs/libDaisy/src/hid/disp/display.h ****         }
 316:../../libs/PoliTeKDSP/libs/libDaisy/src/hid/disp/display.h **** 
 317:../../libs/PoliTeKDSP/libs/libDaisy/src/hid/disp/display.h ****         start_angle_rad = deg2rad(start_angle);
 318:../../libs/PoliTeKDSP/libs/libDaisy/src/hid/disp/display.h ****         end_angle_rad   = deg2rad(start_angle + sweep);
 319:../../libs/PoliTeKDSP/libs/libDaisy/src/hid/disp/display.h **** 
 320:../../libs/PoliTeKDSP/libs/libDaisy/src/hid/disp/display.h ****         start_x = cos(start_angle_rad) * radius;
 321:../../libs/PoliTeKDSP/libs/libDaisy/src/hid/disp/display.h ****         start_y = -sin(start_angle_rad) * radius;
 322:../../libs/PoliTeKDSP/libs/libDaisy/src/hid/disp/display.h ****         end_x   = cos(end_angle_rad) * radius;
 323:../../libs/PoliTeKDSP/libs/libDaisy/src/hid/disp/display.h ****         end_y   = -sin(end_angle_rad) * radius;
ARM GAS  C:\Users\skipi\AppData\Local\Temp\ccs8qXFk.s 			page 34


 324:../../libs/PoliTeKDSP/libs/libDaisy/src/hid/disp/display.h **** 
 325:../../libs/PoliTeKDSP/libs/libDaisy/src/hid/disp/display.h ****         // Check if start and endpoint are very near
 326:../../libs/PoliTeKDSP/libs/libDaisy/src/hid/disp/display.h ****         if((end_x - start_x) * (end_x - start_x)
 327:../../libs/PoliTeKDSP/libs/libDaisy/src/hid/disp/display.h ****                + (end_y - start_y) * (end_y - start_y)
 328:../../libs/PoliTeKDSP/libs/libDaisy/src/hid/disp/display.h ****            < 2.0f)
 329:../../libs/PoliTeKDSP/libs/libDaisy/src/hid/disp/display.h ****         {
 330:../../libs/PoliTeKDSP/libs/libDaisy/src/hid/disp/display.h ****             if(sweep > 180)
 331:../../libs/PoliTeKDSP/libs/libDaisy/src/hid/disp/display.h ****                 circle = true;
 332:../../libs/PoliTeKDSP/libs/libDaisy/src/hid/disp/display.h ****             else
 333:../../libs/PoliTeKDSP/libs/libDaisy/src/hid/disp/display.h ****                 // Nothing to draw
 334:../../libs/PoliTeKDSP/libs/libDaisy/src/hid/disp/display.h ****                 return;
 335:../../libs/PoliTeKDSP/libs/libDaisy/src/hid/disp/display.h ****         }
 336:../../libs/PoliTeKDSP/libs/libDaisy/src/hid/disp/display.h **** 
 337:../../libs/PoliTeKDSP/libs/libDaisy/src/hid/disp/display.h ****         t_x = -radius;
 338:../../libs/PoliTeKDSP/libs/libDaisy/src/hid/disp/display.h ****         t_y = 0;
 339:../../libs/PoliTeKDSP/libs/libDaisy/src/hid/disp/display.h ****         err = 2 - 2 * radius;
 340:../../libs/PoliTeKDSP/libs/libDaisy/src/hid/disp/display.h **** 
 341:../../libs/PoliTeKDSP/libs/libDaisy/src/hid/disp/display.h ****         do
 342:../../libs/PoliTeKDSP/libs/libDaisy/src/hid/disp/display.h ****         {
 343:../../libs/PoliTeKDSP/libs/libDaisy/src/hid/disp/display.h ****             if(!circle)
 344:../../libs/PoliTeKDSP/libs/libDaisy/src/hid/disp/display.h ****             {
 345:../../libs/PoliTeKDSP/libs/libDaisy/src/hid/disp/display.h ****                 t_sxy  = start_x * t_y;
 346:../../libs/PoliTeKDSP/libs/libDaisy/src/hid/disp/display.h ****                 t_syx  = start_y * t_x;
 347:../../libs/PoliTeKDSP/libs/libDaisy/src/hid/disp/display.h ****                 t_sxny = start_x * -t_y;
 348:../../libs/PoliTeKDSP/libs/libDaisy/src/hid/disp/display.h ****                 t_synx = start_y * -t_x;
 349:../../libs/PoliTeKDSP/libs/libDaisy/src/hid/disp/display.h ****                 t_exy  = end_x * t_y;
 350:../../libs/PoliTeKDSP/libs/libDaisy/src/hid/disp/display.h ****                 t_eyx  = end_y * t_x;
 351:../../libs/PoliTeKDSP/libs/libDaisy/src/hid/disp/display.h ****                 t_exny = end_x * -t_y;
 352:../../libs/PoliTeKDSP/libs/libDaisy/src/hid/disp/display.h ****                 t_eynx = end_y * -t_x;
 353:../../libs/PoliTeKDSP/libs/libDaisy/src/hid/disp/display.h **** 
 354:../../libs/PoliTeKDSP/libs/libDaisy/src/hid/disp/display.h ****                 if(sweep > 180)
 355:../../libs/PoliTeKDSP/libs/libDaisy/src/hid/disp/display.h ****                 {
 356:../../libs/PoliTeKDSP/libs/libDaisy/src/hid/disp/display.h ****                     d1 = (t_sxy - t_synx < 0 || t_exy - t_eynx > 0);
 357:../../libs/PoliTeKDSP/libs/libDaisy/src/hid/disp/display.h ****                     d2 = (t_sxy - t_syx < 0 || t_exy - t_eyx > 0);
 358:../../libs/PoliTeKDSP/libs/libDaisy/src/hid/disp/display.h ****                     d3 = (t_sxny - t_syx < 0 || t_exny - t_eyx > 0);
 359:../../libs/PoliTeKDSP/libs/libDaisy/src/hid/disp/display.h ****                     d4 = (t_sxny - t_synx < 0 || t_exny - t_eynx > 0);
 360:../../libs/PoliTeKDSP/libs/libDaisy/src/hid/disp/display.h ****                 }
 361:../../libs/PoliTeKDSP/libs/libDaisy/src/hid/disp/display.h ****                 else
 362:../../libs/PoliTeKDSP/libs/libDaisy/src/hid/disp/display.h ****                 {
 363:../../libs/PoliTeKDSP/libs/libDaisy/src/hid/disp/display.h ****                     d1 = (t_sxy - t_synx < 0 && t_exy - t_eynx > 0);
 364:../../libs/PoliTeKDSP/libs/libDaisy/src/hid/disp/display.h ****                     d2 = (t_sxy - t_syx < 0 && t_exy - t_eyx > 0);
 365:../../libs/PoliTeKDSP/libs/libDaisy/src/hid/disp/display.h ****                     d3 = (t_sxny - t_syx < 0 && t_exny - t_eyx > 0);
 366:../../libs/PoliTeKDSP/libs/libDaisy/src/hid/disp/display.h ****                     d4 = (t_sxny - t_synx < 0 && t_exny - t_eynx > 0);
 367:../../libs/PoliTeKDSP/libs/libDaisy/src/hid/disp/display.h ****                 }
 368:../../libs/PoliTeKDSP/libs/libDaisy/src/hid/disp/display.h ****             }
 369:../../libs/PoliTeKDSP/libs/libDaisy/src/hid/disp/display.h **** 
 370:../../libs/PoliTeKDSP/libs/libDaisy/src/hid/disp/display.h ****             if(d1)
 371:../../libs/PoliTeKDSP/libs/libDaisy/src/hid/disp/display.h ****                 ((ChildType*)(this))
 372:../../libs/PoliTeKDSP/libs/libDaisy/src/hid/disp/display.h ****                     ->ChildType::DrawPixel(x - t_x, y + t_y, on);
 373:../../libs/PoliTeKDSP/libs/libDaisy/src/hid/disp/display.h ****             if(d2)
 374:../../libs/PoliTeKDSP/libs/libDaisy/src/hid/disp/display.h ****                 ((ChildType*)(this))
 375:../../libs/PoliTeKDSP/libs/libDaisy/src/hid/disp/display.h ****                     ->ChildType::DrawPixel(x + t_x, y + t_y, on);
 376:../../libs/PoliTeKDSP/libs/libDaisy/src/hid/disp/display.h ****             if(d3)
 377:../../libs/PoliTeKDSP/libs/libDaisy/src/hid/disp/display.h ****                 ((ChildType*)(this))
 378:../../libs/PoliTeKDSP/libs/libDaisy/src/hid/disp/display.h ****                     ->ChildType::DrawPixel(x + t_x, y - t_y, on);
 379:../../libs/PoliTeKDSP/libs/libDaisy/src/hid/disp/display.h ****             if(d4)
 380:../../libs/PoliTeKDSP/libs/libDaisy/src/hid/disp/display.h ****                 ((ChildType*)(this))
ARM GAS  C:\Users\skipi\AppData\Local\Temp\ccs8qXFk.s 			page 35


 381:../../libs/PoliTeKDSP/libs/libDaisy/src/hid/disp/display.h ****                     ->ChildType::DrawPixel(x - t_x, y - t_y, on);
 382:../../libs/PoliTeKDSP/libs/libDaisy/src/hid/disp/display.h **** 
 383:../../libs/PoliTeKDSP/libs/libDaisy/src/hid/disp/display.h ****             e2 = err;
 384:../../libs/PoliTeKDSP/libs/libDaisy/src/hid/disp/display.h ****             if(e2 <= t_y)
 385:../../libs/PoliTeKDSP/libs/libDaisy/src/hid/disp/display.h ****             {
 386:../../libs/PoliTeKDSP/libs/libDaisy/src/hid/disp/display.h ****                 t_y++;
 387:../../libs/PoliTeKDSP/libs/libDaisy/src/hid/disp/display.h ****                 err = err + (t_y * 2 + 1);
 388:../../libs/PoliTeKDSP/libs/libDaisy/src/hid/disp/display.h ****                 if(-t_x == t_y && e2 <= t_x)
 389:../../libs/PoliTeKDSP/libs/libDaisy/src/hid/disp/display.h ****                 {
 390:../../libs/PoliTeKDSP/libs/libDaisy/src/hid/disp/display.h ****                     e2 = 0;
 391:../../libs/PoliTeKDSP/libs/libDaisy/src/hid/disp/display.h ****                 }
 392:../../libs/PoliTeKDSP/libs/libDaisy/src/hid/disp/display.h ****             }
 393:../../libs/PoliTeKDSP/libs/libDaisy/src/hid/disp/display.h ****             if(e2 > t_x)
 394:../../libs/PoliTeKDSP/libs/libDaisy/src/hid/disp/display.h ****             {
 395:../../libs/PoliTeKDSP/libs/libDaisy/src/hid/disp/display.h ****                 t_x++;
 396:../../libs/PoliTeKDSP/libs/libDaisy/src/hid/disp/display.h ****                 err = err + (t_x * 2 + 1);
 397:../../libs/PoliTeKDSP/libs/libDaisy/src/hid/disp/display.h ****             }
 398:../../libs/PoliTeKDSP/libs/libDaisy/src/hid/disp/display.h ****         } while(t_x <= 0);
 399:../../libs/PoliTeKDSP/libs/libDaisy/src/hid/disp/display.h ****     }
 400:../../libs/PoliTeKDSP/libs/libDaisy/src/hid/disp/display.h **** 
 401:../../libs/PoliTeKDSP/libs/libDaisy/src/hid/disp/display.h ****     char WriteChar(char ch, FontDef font, bool on) override
 402:../../libs/PoliTeKDSP/libs/libDaisy/src/hid/disp/display.h ****     {
 403:../../libs/PoliTeKDSP/libs/libDaisy/src/hid/disp/display.h ****         uint32_t i, b, j;
 404:../../libs/PoliTeKDSP/libs/libDaisy/src/hid/disp/display.h **** 
 405:../../libs/PoliTeKDSP/libs/libDaisy/src/hid/disp/display.h ****         // Check if character is valid
 406:../../libs/PoliTeKDSP/libs/libDaisy/src/hid/disp/display.h ****         if(ch < 32 || ch > 126)
 407:../../libs/PoliTeKDSP/libs/libDaisy/src/hid/disp/display.h ****             return 0;
 408:../../libs/PoliTeKDSP/libs/libDaisy/src/hid/disp/display.h **** 
 409:../../libs/PoliTeKDSP/libs/libDaisy/src/hid/disp/display.h ****         // Check remaining space on current line
 410:../../libs/PoliTeKDSP/libs/libDaisy/src/hid/disp/display.h ****         if(Width() < (currentX_ + font.FontWidth)
 411:../../libs/PoliTeKDSP/libs/libDaisy/src/hid/disp/display.h ****            || Height() < (currentY_ + font.FontHeight))
 412:../../libs/PoliTeKDSP/libs/libDaisy/src/hid/disp/display.h ****         {
 413:../../libs/PoliTeKDSP/libs/libDaisy/src/hid/disp/display.h ****             // Not enough space on current line
 414:../../libs/PoliTeKDSP/libs/libDaisy/src/hid/disp/display.h ****             return 0;
 415:../../libs/PoliTeKDSP/libs/libDaisy/src/hid/disp/display.h ****         }
 416:../../libs/PoliTeKDSP/libs/libDaisy/src/hid/disp/display.h **** 
 417:../../libs/PoliTeKDSP/libs/libDaisy/src/hid/disp/display.h ****         // Use the font to write
 418:../../libs/PoliTeKDSP/libs/libDaisy/src/hid/disp/display.h ****         for(i = 0; i < font.FontHeight; i++)
 419:../../libs/PoliTeKDSP/libs/libDaisy/src/hid/disp/display.h ****         {
 420:../../libs/PoliTeKDSP/libs/libDaisy/src/hid/disp/display.h ****             b = font.data[(ch - 32) * font.FontHeight + i];
 421:../../libs/PoliTeKDSP/libs/libDaisy/src/hid/disp/display.h ****             for(j = 0; j < font.FontWidth; j++)
 422:../../libs/PoliTeKDSP/libs/libDaisy/src/hid/disp/display.h ****             {
 423:../../libs/PoliTeKDSP/libs/libDaisy/src/hid/disp/display.h ****                 if((b << j) & 0x8000)
 424:../../libs/PoliTeKDSP/libs/libDaisy/src/hid/disp/display.h ****                 {
 425:../../libs/PoliTeKDSP/libs/libDaisy/src/hid/disp/display.h ****                     ((ChildType*)(this))
 426:../../libs/PoliTeKDSP/libs/libDaisy/src/hid/disp/display.h ****                         ->ChildType::DrawPixel(
 427:../../libs/PoliTeKDSP/libs/libDaisy/src/hid/disp/display.h ****                             currentX_ + j, (currentY_ + i), on);
 428:../../libs/PoliTeKDSP/libs/libDaisy/src/hid/disp/display.h ****                 }
 429:../../libs/PoliTeKDSP/libs/libDaisy/src/hid/disp/display.h ****                 else
 430:../../libs/PoliTeKDSP/libs/libDaisy/src/hid/disp/display.h ****                 {
 431:../../libs/PoliTeKDSP/libs/libDaisy/src/hid/disp/display.h ****                     ((ChildType*)(this))
 432:../../libs/PoliTeKDSP/libs/libDaisy/src/hid/disp/display.h ****                         ->ChildType::DrawPixel(
 433:../../libs/PoliTeKDSP/libs/libDaisy/src/hid/disp/display.h ****                             currentX_ + j, (currentY_ + i), !on);
 434:../../libs/PoliTeKDSP/libs/libDaisy/src/hid/disp/display.h ****                 }
 435:../../libs/PoliTeKDSP/libs/libDaisy/src/hid/disp/display.h ****             }
 436:../../libs/PoliTeKDSP/libs/libDaisy/src/hid/disp/display.h ****         }
 437:../../libs/PoliTeKDSP/libs/libDaisy/src/hid/disp/display.h **** 
ARM GAS  C:\Users\skipi\AppData\Local\Temp\ccs8qXFk.s 			page 36


 438:../../libs/PoliTeKDSP/libs/libDaisy/src/hid/disp/display.h ****         // The current space is now taken
 439:../../libs/PoliTeKDSP/libs/libDaisy/src/hid/disp/display.h ****         SetCursor(currentX_ + font.FontWidth, currentY_);
 440:../../libs/PoliTeKDSP/libs/libDaisy/src/hid/disp/display.h **** 
 441:../../libs/PoliTeKDSP/libs/libDaisy/src/hid/disp/display.h ****         // Return written char for validation
 442:../../libs/PoliTeKDSP/libs/libDaisy/src/hid/disp/display.h ****         return ch;
 443:../../libs/PoliTeKDSP/libs/libDaisy/src/hid/disp/display.h ****     }
 444:../../libs/PoliTeKDSP/libs/libDaisy/src/hid/disp/display.h **** 
 445:../../libs/PoliTeKDSP/libs/libDaisy/src/hid/disp/display.h ****     char WriteString(const char* str, FontDef font, bool on) override
 608              		.loc 11 445 10 is_stmt 1 view -0
 609              		.cfi_startproc
 610              		@ args = 4, pretend = 0, frame = 32
 611              		@ frame_needed = 0, uses_anonymous_args = 0
 612              		.loc 11 445 10 is_stmt 0 view .LVU126
 613 0000 2DE9F04F 		push	{r4, r5, r6, r7, r8, r9, r10, fp, lr}
 614              		.cfi_def_cfa_offset 36
 615              		.cfi_offset 4, -36
 616              		.cfi_offset 5, -32
 617              		.cfi_offset 6, -28
 618              		.cfi_offset 7, -24
 619              		.cfi_offset 8, -20
 620              		.cfi_offset 9, -16
 621              		.cfi_offset 10, -12
 622              		.cfi_offset 11, -8
 623              		.cfi_offset 14, -4
 624 0004 89B0     		sub	sp, sp, #36
 625              		.cfi_def_cfa_offset 72
 626              		.loc 11 445 10 view .LVU127
 627 0006 08AC     		add	r4, sp, #32
 628 0008 9DF84870 		ldrb	r7, [sp, #72]	@ zero_extendqisi2
 629 000c 0191     		str	r1, [sp, #4]
 630 000e 04E90C00 		stmdb	r4, {r2, r3}
 446:../../libs/PoliTeKDSP/libs/libDaisy/src/hid/disp/display.h ****     {
 447:../../libs/PoliTeKDSP/libs/libDaisy/src/hid/disp/display.h ****         // Write until null-byte
 448:../../libs/PoliTeKDSP/libs/libDaisy/src/hid/disp/display.h ****         while(*str)
 631              		.loc 11 448 9 is_stmt 1 view .LVU128
 632 0012 0B78     		ldrb	r3, [r1]	@ zero_extendqisi2
 633 0014 002B     		cmp	r3, #0
 634 0016 00F0AB80 		beq	.L55
 635 001a 1A46     		mov	r2, r3
 636 001c 9DF81880 		ldrb	r8, [sp, #24]	@ zero_extendqisi2
 637 0020 9DF81930 		ldrb	r3, [sp, #25]	@ zero_extendqisi2
 638 0024 0646     		mov	r6, r0
 639 0026 4546     		mov	r5, r8
 640 0028 9046     		mov	r8, r2
 641 002a 0393     		str	r3, [sp, #12]
 642 002c 079B     		ldr	r3, [sp, #28]
 643 002e 0593     		str	r3, [sp, #20]
 644              	.LVL36:
 645              	.L56:
 646              	.LBB641:
 647              	.LBI641:
 401:../../libs/PoliTeKDSP/libs/libDaisy/src/hid/disp/display.h ****     {
 648              		.loc 11 401 10 view .LVU129
 649              	.LBB642:
 406:../../libs/PoliTeKDSP/libs/libDaisy/src/hid/disp/display.h ****             return 0;
 650              		.loc 11 406 20 is_stmt 0 view .LVU130
 651 0030 A8F12004 		sub	r4, r8, #32
ARM GAS  C:\Users\skipi\AppData\Local\Temp\ccs8qXFk.s 			page 37


 406:../../libs/PoliTeKDSP/libs/libDaisy/src/hid/disp/display.h ****             return 0;
 652              		.loc 11 406 9 view .LVU131
 653 0034 E3B2     		uxtb	r3, r4
 654 0036 5E2B     		cmp	r3, #94
 655 0038 00F29E80 		bhi	.L37
 410:../../libs/PoliTeKDSP/libs/libDaisy/src/hid/disp/display.h ****            || Height() < (currentY_ + font.FontHeight))
 656              		.loc 11 410 17 view .LVU132
 657 003c 3368     		ldr	r3, [r6]
 658 003e 5E4A     		ldr	r2, .L77
 659 0040 DB68     		ldr	r3, [r3, #12]
 660 0042 9342     		cmp	r3, r2
 661 0044 40F09B80 		bne	.L70
 662 0048 8020     		movs	r0, #128
 663              	.L36:
 410:../../libs/PoliTeKDSP/libs/libDaisy/src/hid/disp/display.h ****            || Height() < (currentY_ + font.FontHeight))
 664              		.loc 11 410 23 view .LVU133
 665 004a B388     		ldrh	r3, [r6, #4]
 410:../../libs/PoliTeKDSP/libs/libDaisy/src/hid/disp/display.h ****            || Height() < (currentY_ + font.FontHeight))
 666              		.loc 11 410 33 view .LVU134
 667 004c 2B44     		add	r3, r3, r5
 411:../../libs/PoliTeKDSP/libs/libDaisy/src/hid/disp/display.h ****         {
 668              		.loc 11 411 12 view .LVU135
 669 004e 8342     		cmp	r3, r0
 670 0050 00F39280 		bgt	.L37
 411:../../libs/PoliTeKDSP/libs/libDaisy/src/hid/disp/display.h ****         {
 671              		.loc 11 411 21 view .LVU136
 672 0054 3368     		ldr	r3, [r6]
 673 0056 594A     		ldr	r2, .L77+4
 674 0058 9B68     		ldr	r3, [r3, #8]
 675 005a 9342     		cmp	r3, r2
 676 005c 40F09280 		bne	.L71
 677 0060 4020     		movs	r0, #64
 678              	.L38:
 411:../../libs/PoliTeKDSP/libs/libDaisy/src/hid/disp/display.h ****         {
 679              		.loc 11 411 27 view .LVU137
 680 0062 F188     		ldrh	r1, [r6, #6]
 411:../../libs/PoliTeKDSP/libs/libDaisy/src/hid/disp/display.h ****         {
 681              		.loc 11 411 37 view .LVU138
 682 0064 039A     		ldr	r2, [sp, #12]
 411:../../libs/PoliTeKDSP/libs/libDaisy/src/hid/disp/display.h ****         {
 683              		.loc 11 411 27 view .LVU139
 684 0066 0291     		str	r1, [sp, #8]
 411:../../libs/PoliTeKDSP/libs/libDaisy/src/hid/disp/display.h ****         {
 685              		.loc 11 411 37 view .LVU140
 686 0068 8B18     		adds	r3, r1, r2
 411:../../libs/PoliTeKDSP/libs/libDaisy/src/hid/disp/display.h ****         {
 687              		.loc 11 411 12 view .LVU141
 688 006a 8342     		cmp	r3, r0
 689 006c 00F38480 		bgt	.L37
 690              	.LVL37:
 418:../../libs/PoliTeKDSP/libs/libDaisy/src/hid/disp/display.h ****         {
 691              		.loc 11 418 22 is_stmt 1 view .LVU142
 692 0070 002A     		cmp	r2, #0
 693 0072 00F09180 		beq	.L39
 420:../../libs/PoliTeKDSP/libs/libDaisy/src/hid/disp/display.h ****             for(j = 0; j < font.FontWidth; j++)
 694              		.loc 11 420 37 is_stmt 0 view .LVU143
 695 0076 02FB04F4 		mul	r4, r2, r4
ARM GAS  C:\Users\skipi\AppData\Local\Temp\ccs8qXFk.s 			page 38


 696 007a 6FF00049 		mvn	r9, #-2147483648
 697 007e 059B     		ldr	r3, [sp, #20]
 698 0080 A144     		add	r9, r9, r4
 699 0082 1444     		add	r4, r4, r2
 439:../../libs/PoliTeKDSP/libs/libDaisy/src/hid/disp/display.h **** 
 700              		.loc 11 439 19 view .LVU144
 701 0084 B6F804B0 		ldrh	fp, [r6, #4]
 702 0088 03EB4909 		add	r9, r3, r9, lsl #1
 703 008c 023B     		subs	r3, r3, #2
 704 008e CDF81080 		str	r8, [sp, #16]
 705 0092 03EB4403 		add	r3, r3, r4, lsl #1
 706 0096 0C46     		mov	r4, r1
 707 0098 9A46     		mov	r10, r3
 708              	.LVL38:
 709              	.L42:
 420:../../libs/PoliTeKDSP/libs/libDaisy/src/hid/disp/display.h ****             for(j = 0; j < font.FontWidth; j++)
 710              		.loc 11 420 15 view .LVU145
 711 009a 39F802CF 		ldrh	ip, [r9, #2]!
 712              	.LVL39:
 421:../../libs/PoliTeKDSP/libs/libDaisy/src/hid/disp/display.h ****             {
 713              		.loc 11 421 26 is_stmt 1 view .LVU146
 714 009e A5B3     		cbz	r5, .L47
 715              	.LBB643:
 716              	.LBB644:
 717              	.LBB645:
 718              	.LBB646:
 719              	.LBB647:
 368:../../libs/PoliTeKDSP/libs/libDaisy/src/dev/oled_ssd130x.h ****     }
 720              		.loc 12 368 55 is_stmt 0 view .LVU147
 721 00a0 04F00703 		and	r3, r4, #7
 368:../../libs/PoliTeKDSP/libs/libDaisy/src/dev/oled_ssd130x.h ****     }
 722              		.loc 12 368 49 view .LVU148
 723 00a4 4FF0010E 		mov	lr, #1
 368:../../libs/PoliTeKDSP/libs/libDaisy/src/dev/oled_ssd130x.h ****     }
 724              		.loc 12 368 28 view .LVU149
 725 00a8 E208     		lsrs	r2, r4, #3
 726 00aa 5946     		mov	r1, fp
 368:../../libs/PoliTeKDSP/libs/libDaisy/src/dev/oled_ssd130x.h ****     }
 727              		.loc 12 368 49 view .LVU150
 728 00ac 0EFA03FE 		lsl	lr, lr, r3
 729 00b0 0BF11003 		add	r3, fp, #16
 368:../../libs/PoliTeKDSP/libs/libDaisy/src/dev/oled_ssd130x.h ****     }
 730              		.loc 12 368 42 view .LVU151
 731 00b4 4FFA8EFE 		sxtb	lr, lr
 732 00b8 03EBC212 		add	r2, r3, r2, lsl #7
 733              	.LBE647:
 734              	.LBE646:
 735              	.LBE645:
 736              	.LBE644:
 737              	.LBE643:
 421:../../libs/PoliTeKDSP/libs/libDaisy/src/hid/disp/display.h ****             {
 738              		.loc 11 421 19 view .LVU152
 739 00bc 0023     		movs	r3, #0
 740              	.LBB665:
 741              	.LBB660:
 742              	.LBB655:
 743              	.LBB651:
ARM GAS  C:\Users\skipi\AppData\Local\Temp\ccs8qXFk.s 			page 39


 744              	.LBB648:
 368:../../libs/PoliTeKDSP/libs/libDaisy/src/dev/oled_ssd130x.h ****     }
 745              		.loc 12 368 42 view .LVU153
 746 00be 6FEA0E08 		mvn	r8, lr
 747 00c2 3244     		add	r2, r2, r6
 748 00c4 0DE0     		b	.L48
 749              	.LVL40:
 750              	.L72:
 368:../../libs/PoliTeKDSP/libs/libDaisy/src/dev/oled_ssd130x.h ****     }
 751              		.loc 12 368 42 view .LVU154
 752              	.LBE648:
 753              	.LBE651:
 754              	.LBE655:
 755              	.LBE660:
 756              	.LBE665:
 757              	.LBB666:
 758              	.LBI666:
  42:../../libs/PoliTeKDSP/libs/libDaisy/src/hid/disp/oled_display.h ****     {
 759              		.loc 10 42 10 is_stmt 1 view .LVU155
 760              	.LBB667:
 761              	.LBI667:
 361:../../libs/PoliTeKDSP/libs/libDaisy/src/dev/oled_ssd130x.h ****     {
 762              		.loc 12 361 10 view .LVU156
 763              	.LBB668:
 363:../../libs/PoliTeKDSP/libs/libDaisy/src/dev/oled_ssd130x.h ****             return;
 764              		.loc 12 363 9 is_stmt 0 view .LVU157
 765 00c6 7F29     		cmp	r1, #127
 766 00c8 06D8     		bhi	.L44
 767 00ca 3F2C     		cmp	r4, #63
 768 00cc 04D8     		bhi	.L44
 366:../../libs/PoliTeKDSP/libs/libDaisy/src/dev/oled_ssd130x.h ****         else
 769              		.loc 12 366 42 view .LVU158
 770 00ce 1078     		ldrb	r0, [r2]	@ zero_extendqisi2
 365:../../libs/PoliTeKDSP/libs/libDaisy/src/dev/oled_ssd130x.h ****             buffer_[x + (y / 8) * width] |= (1 << (y % 8));
 771              		.loc 12 365 9 view .LVU159
 772 00d0 97B1     		cbz	r7, .L46
 773              	.L69:
 365:../../libs/PoliTeKDSP/libs/libDaisy/src/dev/oled_ssd130x.h ****             buffer_[x + (y / 8) * width] |= (1 << (y % 8));
 774              		.loc 12 365 9 view .LVU160
 775              	.LBE668:
 776              	.LBE667:
 777              	.LBE666:
 778              	.LBB669:
 779              	.LBB661:
 780              	.LBB656:
 366:../../libs/PoliTeKDSP/libs/libDaisy/src/dev/oled_ssd130x.h ****         else
 781              		.loc 12 366 42 view .LVU161
 782 00d2 4EEA0000 		orr	r0, lr, r0
 783 00d6 1070     		strb	r0, [r2]
 784              	.L44:
 785              	.LBE656:
 786              	.LBE661:
 787              	.LBE669:
 421:../../libs/PoliTeKDSP/libs/libDaisy/src/hid/disp/display.h ****             {
 788              		.loc 11 421 13 is_stmt 1 view .LVU162
 789 00d8 0133     		adds	r3, r3, #1
 790              	.LVL41:
ARM GAS  C:\Users\skipi\AppData\Local\Temp\ccs8qXFk.s 			page 40


 421:../../libs/PoliTeKDSP/libs/libDaisy/src/hid/disp/display.h ****             {
 791              		.loc 11 421 26 view .LVU163
 792 00da 0132     		adds	r2, r2, #1
 793 00dc 0131     		adds	r1, r1, #1
 794 00de AB42     		cmp	r3, r5
 795 00e0 13D0     		beq	.L47
 796              	.LVL42:
 797              	.L48:
 423:../../libs/PoliTeKDSP/libs/libDaisy/src/hid/disp/display.h ****                 {
 798              		.loc 11 423 23 is_stmt 0 view .LVU164
 799 00e2 0CFA03F0 		lsl	r0, ip, r3
 423:../../libs/PoliTeKDSP/libs/libDaisy/src/hid/disp/display.h ****                 {
 800              		.loc 11 423 17 view .LVU165
 801 00e6 0004     		lsls	r0, r0, #16
 802 00e8 EDD4     		bmi	.L72
 803              	.LVL43:
 804              	.LBB670:
 805              	.LBI643:
  42:../../libs/PoliTeKDSP/libs/libDaisy/src/hid/disp/oled_display.h ****     {
 806              		.loc 10 42 10 is_stmt 1 view .LVU166
 807              	.LBB662:
 808              	.LBI644:
 361:../../libs/PoliTeKDSP/libs/libDaisy/src/dev/oled_ssd130x.h ****     {
 809              		.loc 12 361 10 view .LVU167
 810              	.LBB657:
 363:../../libs/PoliTeKDSP/libs/libDaisy/src/dev/oled_ssd130x.h ****             return;
 811              		.loc 12 363 9 is_stmt 0 view .LVU168
 812 00ea 7F29     		cmp	r1, #127
 813 00ec F4D8     		bhi	.L44
 814 00ee 3F2C     		cmp	r4, #63
 815 00f0 F2D8     		bhi	.L44
 366:../../libs/PoliTeKDSP/libs/libDaisy/src/dev/oled_ssd130x.h ****         else
 816              		.loc 12 366 42 view .LVU169
 817 00f2 1078     		ldrb	r0, [r2]	@ zero_extendqisi2
 365:../../libs/PoliTeKDSP/libs/libDaisy/src/dev/oled_ssd130x.h ****             buffer_[x + (y / 8) * width] |= (1 << (y % 8));
 818              		.loc 12 365 9 view .LVU170
 819 00f4 002F     		cmp	r7, #0
 820 00f6 ECD0     		beq	.L69
 821              	.L46:
 822              	.LVL44:
 823              	.LBB652:
 824              	.LBI646:
 361:../../libs/PoliTeKDSP/libs/libDaisy/src/dev/oled_ssd130x.h ****     {
 825              		.loc 12 361 10 is_stmt 1 view .LVU171
 361:../../libs/PoliTeKDSP/libs/libDaisy/src/dev/oled_ssd130x.h ****     {
 826              		.loc 12 361 10 is_stmt 0 view .LVU172
 827              	.LBE652:
 828              	.LBE657:
 829              	.LBE662:
 830              	.LBE670:
 421:../../libs/PoliTeKDSP/libs/libDaisy/src/hid/disp/display.h ****             {
 831              		.loc 11 421 13 view .LVU173
 832 00f8 0133     		adds	r3, r3, #1
 833              	.LVL45:
 834              	.LBB671:
 835              	.LBB663:
 836              	.LBB658:
ARM GAS  C:\Users\skipi\AppData\Local\Temp\ccs8qXFk.s 			page 41


 837              	.LBB653:
 838              	.LBB649:
 368:../../libs/PoliTeKDSP/libs/libDaisy/src/dev/oled_ssd130x.h ****     }
 839              		.loc 12 368 42 view .LVU174
 840 00fa 08EA0000 		and	r0, r8, r0
 841              	.LBE649:
 842              	.LBE653:
 843              	.LBE658:
 844              	.LBE663:
 845              	.LBE671:
 421:../../libs/PoliTeKDSP/libs/libDaisy/src/hid/disp/display.h ****             {
 846              		.loc 11 421 26 view .LVU175
 847 00fe 0132     		adds	r2, r2, #1
 848 0100 0131     		adds	r1, r1, #1
 849 0102 AB42     		cmp	r3, r5
 850              	.LBB672:
 851              	.LBB664:
 852              	.LBB659:
 853              	.LBB654:
 854              	.LBB650:
 368:../../libs/PoliTeKDSP/libs/libDaisy/src/dev/oled_ssd130x.h ****     }
 855              		.loc 12 368 42 view .LVU176
 856 0104 02F8010C 		strb	r0, [r2, #-1]
 368:../../libs/PoliTeKDSP/libs/libDaisy/src/dev/oled_ssd130x.h ****     }
 857              		.loc 12 368 42 view .LVU177
 858              	.LBE650:
 859              	.LBE654:
 860              	.LBE659:
 861              	.LBE664:
 862              	.LBE672:
 421:../../libs/PoliTeKDSP/libs/libDaisy/src/hid/disp/display.h ****             {
 863              		.loc 11 421 13 is_stmt 1 view .LVU178
 864              	.LVL46:
 421:../../libs/PoliTeKDSP/libs/libDaisy/src/hid/disp/display.h ****             {
 865              		.loc 11 421 26 view .LVU179
 866 0108 EBD1     		bne	.L48
 867              	.LVL47:
 868              	.L47:
 418:../../libs/PoliTeKDSP/libs/libDaisy/src/hid/disp/display.h ****         {
 869              		.loc 11 418 9 view .LVU180
 418:../../libs/PoliTeKDSP/libs/libDaisy/src/hid/disp/display.h ****         {
 870              		.loc 11 418 22 view .LVU181
 871 010a D145     		cmp	r9, r10
 872 010c 04F10104 		add	r4, r4, #1
 873 0110 C3D1     		bne	.L42
 874 0112 DDF81080 		ldr	r8, [sp, #16]
 875              	.LVL48:
 876              	.L41:
 877              	.LBB673:
 878              	.LBB674:
 173:../../libs/PoliTeKDSP/libs/libDaisy/src/hid/disp/display.h ****         currentY_ = (y >= Height()) ? Height() - 1 : y;
 879              		.loc 11 173 33 is_stmt 0 view .LVU182
 880 0116 3268     		ldr	r2, [r6]
 881              	.LBE674:
 882              	.LBE673:
 439:../../libs/PoliTeKDSP/libs/libDaisy/src/hid/disp/display.h **** 
 883              		.loc 11 439 18 view .LVU183
ARM GAS  C:\Users\skipi\AppData\Local\Temp\ccs8qXFk.s 			page 42


 884 0118 0BEB0504 		add	r4, fp, r5
 885 011c 2649     		ldr	r1, .L77
 886              	.LBB679:
 887              	.LBB675:
 173:../../libs/PoliTeKDSP/libs/libDaisy/src/hid/disp/display.h ****         currentY_ = (y >= Height()) ? Height() - 1 : y;
 888              		.loc 11 173 33 view .LVU184
 889 011e D368     		ldr	r3, [r2, #12]
 890              	.LBE675:
 891              	.LBE679:
 439:../../libs/PoliTeKDSP/libs/libDaisy/src/hid/disp/display.h **** 
 892              		.loc 11 439 18 view .LVU185
 893 0120 A4B2     		uxth	r4, r4
 894              	.LVL49:
 895              	.LBB680:
 896              	.LBI673:
 171:../../libs/PoliTeKDSP/libs/libDaisy/src/hid/disp/display.h ****     {
 897              		.loc 11 171 10 is_stmt 1 view .LVU186
 898              	.LBB676:
 173:../../libs/PoliTeKDSP/libs/libDaisy/src/hid/disp/display.h ****         currentY_ = (y >= Height()) ? Height() - 1 : y;
 899              		.loc 11 173 9 view .LVU187
 900 0122 8B42     		cmp	r3, r1
 901 0124 34D1     		bne	.L73
 173:../../libs/PoliTeKDSP/libs/libDaisy/src/hid/disp/display.h ****         currentY_ = (y >= Height()) ? Height() - 1 : y;
 902              		.loc 11 173 33 is_stmt 0 view .LVU188
 903 0126 8020     		movs	r0, #128
 904              	.L49:
 173:../../libs/PoliTeKDSP/libs/libDaisy/src/hid/disp/display.h ****         currentY_ = (y >= Height()) ? Height() - 1 : y;
 905              		.loc 11 173 19 view .LVU189
 906 0128 8442     		cmp	r4, r0
 907 012a 04D3     		bcc	.L50
 173:../../libs/PoliTeKDSP/libs/libDaisy/src/hid/disp/display.h ****         currentY_ = (y >= Height()) ? Height() - 1 : y;
 908              		.loc 11 173 44 view .LVU190
 909 012c D368     		ldr	r3, [r2, #12]
 910 012e 2249     		ldr	r1, .L77
 911 0130 8B42     		cmp	r3, r1
 912 0132 3AD1     		bne	.L74
 913 0134 7F24     		movs	r4, #127
 914              	.LVL50:
 915              	.L50:
 174:../../libs/PoliTeKDSP/libs/libDaisy/src/hid/disp/display.h ****     }
 916              		.loc 11 174 34 view .LVU191
 917 0136 9368     		ldr	r3, [r2, #8]
 918 0138 204A     		ldr	r2, .L77+4
 173:../../libs/PoliTeKDSP/libs/libDaisy/src/hid/disp/display.h ****         currentY_ = (y >= Height()) ? Height() - 1 : y;
 919              		.loc 11 173 19 view .LVU192
 920 013a B480     		strh	r4, [r6, #4]	@ movhi
 174:../../libs/PoliTeKDSP/libs/libDaisy/src/hid/disp/display.h ****     }
 921              		.loc 11 174 9 is_stmt 1 view .LVU193
 922 013c 9342     		cmp	r3, r2
 923 013e 24D1     		bne	.L75
 174:../../libs/PoliTeKDSP/libs/libDaisy/src/hid/disp/display.h ****     }
 924              		.loc 11 174 34 is_stmt 0 view .LVU194
 925 0140 4020     		movs	r0, #64
 926              	.L52:
 174:../../libs/PoliTeKDSP/libs/libDaisy/src/hid/disp/display.h ****     }
 927              		.loc 11 174 19 view .LVU195
 928 0142 029B     		ldr	r3, [sp, #8]
ARM GAS  C:\Users\skipi\AppData\Local\Temp\ccs8qXFk.s 			page 43


 929 0144 8342     		cmp	r3, r0
 930 0146 06D3     		bcc	.L53
 174:../../libs/PoliTeKDSP/libs/libDaisy/src/hid/disp/display.h ****     }
 931              		.loc 11 174 46 view .LVU196
 932 0148 3368     		ldr	r3, [r6]
 933 014a 1C4A     		ldr	r2, .L77+4
 934 014c 9B68     		ldr	r3, [r3, #8]
 935 014e 9342     		cmp	r3, r2
 936 0150 25D1     		bne	.L76
 937 0152 3F23     		movs	r3, #63
 938 0154 0293     		str	r3, [sp, #8]
 939              	.LVL51:
 940              	.L53:
 174:../../libs/PoliTeKDSP/libs/libDaisy/src/hid/disp/display.h ****     }
 941              		.loc 11 174 19 view .LVU197
 942 0156 029B     		ldr	r3, [sp, #8]
 943 0158 F380     		strh	r3, [r6, #6]	@ movhi
 944              	.LVL52:
 945              	.L35:
 174:../../libs/PoliTeKDSP/libs/libDaisy/src/hid/disp/display.h ****     }
 946              		.loc 11 174 19 view .LVU198
 947              	.LBE676:
 948              	.LBE680:
 949              	.LBE642:
 950              	.LBE641:
 449:../../libs/PoliTeKDSP/libs/libDaisy/src/hid/disp/display.h ****         {
 450:../../libs/PoliTeKDSP/libs/libDaisy/src/hid/disp/display.h ****             if(((ChildType*)(this))->ChildType::WriteChar(*str, font, on)
 451:../../libs/PoliTeKDSP/libs/libDaisy/src/hid/disp/display.h ****                != *str)
 951              		.loc 11 451 16 view .LVU199
 952 015a 019B     		ldr	r3, [sp, #4]
 953 015c 1878     		ldrb	r0, [r3]	@ zero_extendqisi2
 450:../../libs/PoliTeKDSP/libs/libDaisy/src/hid/disp/display.h ****                != *str)
 954              		.loc 11 450 13 view .LVU200
 955 015e 4045     		cmp	r0, r8
 956 0160 07D1     		bne	.L33
 957              	.LVL53:
 448:../../libs/PoliTeKDSP/libs/libDaisy/src/hid/disp/display.h ****         {
 958              		.loc 11 448 9 is_stmt 1 view .LVU201
 959 0162 13F8018F 		ldrb	r8, [r3, #1]!	@ zero_extendqisi2
 960              	.LVL54:
 448:../../libs/PoliTeKDSP/libs/libDaisy/src/hid/disp/display.h ****         {
 961              		.loc 11 448 9 is_stmt 0 view .LVU202
 962 0166 0193     		str	r3, [sp, #4]
 963 0168 B8F1000F 		cmp	r8, #0
 964 016c 7FF460AF 		bne	.L56
 965              	.LVL55:
 966              	.L55:
 967              	.LBB685:
 968              	.LBB683:
 407:../../libs/PoliTeKDSP/libs/libDaisy/src/hid/disp/display.h **** 
 969              		.loc 11 407 20 view .LVU203
 970 0170 0020     		movs	r0, #0
 971              	.L33:
 972              	.LBE683:
 973              	.LBE685:
 452:../../libs/PoliTeKDSP/libs/libDaisy/src/hid/disp/display.h ****             {
 453:../../libs/PoliTeKDSP/libs/libDaisy/src/hid/disp/display.h ****                 // Char could not be written
ARM GAS  C:\Users\skipi\AppData\Local\Temp\ccs8qXFk.s 			page 44


 454:../../libs/PoliTeKDSP/libs/libDaisy/src/hid/disp/display.h ****                 return *str;
 455:../../libs/PoliTeKDSP/libs/libDaisy/src/hid/disp/display.h ****             }
 456:../../libs/PoliTeKDSP/libs/libDaisy/src/hid/disp/display.h **** 
 457:../../libs/PoliTeKDSP/libs/libDaisy/src/hid/disp/display.h ****             // Next char
 458:../../libs/PoliTeKDSP/libs/libDaisy/src/hid/disp/display.h ****             str++;
 459:../../libs/PoliTeKDSP/libs/libDaisy/src/hid/disp/display.h ****         }
 460:../../libs/PoliTeKDSP/libs/libDaisy/src/hid/disp/display.h **** 
 461:../../libs/PoliTeKDSP/libs/libDaisy/src/hid/disp/display.h ****         // Everything ok
 462:../../libs/PoliTeKDSP/libs/libDaisy/src/hid/disp/display.h ****         return *str;
 463:../../libs/PoliTeKDSP/libs/libDaisy/src/hid/disp/display.h ****     }
 974              		.loc 11 463 5 view .LVU204
 975 0172 09B0     		add	sp, sp, #36
 976              		.cfi_remember_state
 977              		.cfi_def_cfa_offset 36
 978              		@ sp needed
 979 0174 BDE8F08F 		pop	{r4, r5, r6, r7, r8, r9, r10, fp, pc}
 980              	.LVL56:
 981              	.L37:
 982              		.cfi_restore_state
 983              	.LBB686:
 984              	.LBB684:
 407:../../libs/PoliTeKDSP/libs/libDaisy/src/hid/disp/display.h **** 
 985              		.loc 11 407 20 view .LVU205
 986 0178 4FF00008 		mov	r8, #0
 987              	.LVL57:
 407:../../libs/PoliTeKDSP/libs/libDaisy/src/hid/disp/display.h **** 
 988              		.loc 11 407 20 view .LVU206
 989 017c EDE7     		b	.L35
 990              	.LVL58:
 991              	.L70:
 410:../../libs/PoliTeKDSP/libs/libDaisy/src/hid/disp/display.h ****            || Height() < (currentY_ + font.FontHeight))
 992              		.loc 11 410 17 view .LVU207
 993 017e 3046     		mov	r0, r6
 994 0180 9847     		blx	r3
 995              	.LVL59:
 996 0182 62E7     		b	.L36
 997              	.L71:
 411:../../libs/PoliTeKDSP/libs/libDaisy/src/hid/disp/display.h ****         {
 998              		.loc 11 411 21 view .LVU208
 999 0184 3046     		mov	r0, r6
 1000 0186 9847     		blx	r3
 1001              	.LVL60:
 1002 0188 6BE7     		b	.L38
 1003              	.LVL61:
 1004              	.L75:
 1005              	.LBB681:
 1006              	.LBB677:
 174:../../libs/PoliTeKDSP/libs/libDaisy/src/hid/disp/display.h ****     }
 1007              		.loc 11 174 33 view .LVU209
 1008 018a 3046     		mov	r0, r6
 1009 018c 9847     		blx	r3
 1010              	.LVL62:
 1011 018e D8E7     		b	.L52
 1012              	.LVL63:
 1013              	.L73:
 173:../../libs/PoliTeKDSP/libs/libDaisy/src/hid/disp/display.h ****         currentY_ = (y >= Height()) ? Height() - 1 : y;
 1014              		.loc 11 173 32 view .LVU210
ARM GAS  C:\Users\skipi\AppData\Local\Temp\ccs8qXFk.s 			page 45


 1015 0190 3046     		mov	r0, r6
 1016 0192 9847     		blx	r3
 1017              	.LVL64:
 173:../../libs/PoliTeKDSP/libs/libDaisy/src/hid/disp/display.h ****         currentY_ = (y >= Height()) ? Height() - 1 : y;
 1018              		.loc 11 173 44 view .LVU211
 1019 0194 3268     		ldr	r2, [r6]
 1020 0196 C7E7     		b	.L49
 1021              	.LVL65:
 1022              	.L39:
 173:../../libs/PoliTeKDSP/libs/libDaisy/src/hid/disp/display.h ****         currentY_ = (y >= Height()) ? Height() - 1 : y;
 1023              		.loc 11 173 44 view .LVU212
 1024              	.LBE677:
 1025              	.LBE681:
 439:../../libs/PoliTeKDSP/libs/libDaisy/src/hid/disp/display.h **** 
 1026              		.loc 11 439 19 view .LVU213
 1027 0198 B6F804B0 		ldrh	fp, [r6, #4]
 1028 019c BBE7     		b	.L41
 1029              	.LVL66:
 1030              	.L76:
 1031              	.LBB682:
 1032              	.LBB678:
 174:../../libs/PoliTeKDSP/libs/libDaisy/src/hid/disp/display.h ****     }
 1033              		.loc 11 174 45 view .LVU214
 1034 019e 3046     		mov	r0, r6
 1035 01a0 9847     		blx	r3
 1036              	.LVL67:
 174:../../libs/PoliTeKDSP/libs/libDaisy/src/hid/disp/display.h ****     }
 1037              		.loc 11 174 19 view .LVU215
 1038 01a2 0138     		subs	r0, r0, #1
 1039 01a4 83B2     		uxth	r3, r0
 1040 01a6 0293     		str	r3, [sp, #8]
 1041              	.LVL68:
 174:../../libs/PoliTeKDSP/libs/libDaisy/src/hid/disp/display.h ****     }
 1042              		.loc 11 174 19 view .LVU216
 1043 01a8 D5E7     		b	.L53
 1044              	.LVL69:
 1045              	.L74:
 173:../../libs/PoliTeKDSP/libs/libDaisy/src/hid/disp/display.h ****         currentY_ = (y >= Height()) ? Height() - 1 : y;
 1046              		.loc 11 173 43 view .LVU217
 1047 01aa 3046     		mov	r0, r6
 1048 01ac 9847     		blx	r3
 1049              	.LVL70:
 173:../../libs/PoliTeKDSP/libs/libDaisy/src/hid/disp/display.h ****         currentY_ = (y >= Height()) ? Height() - 1 : y;
 1050              		.loc 11 173 19 view .LVU218
 1051 01ae 0138     		subs	r0, r0, #1
 174:../../libs/PoliTeKDSP/libs/libDaisy/src/hid/disp/display.h ****     }
 1052              		.loc 11 174 34 view .LVU219
 1053 01b0 3268     		ldr	r2, [r6]
 173:../../libs/PoliTeKDSP/libs/libDaisy/src/hid/disp/display.h ****         currentY_ = (y >= Height()) ? Height() - 1 : y;
 1054              		.loc 11 173 19 view .LVU220
 1055 01b2 84B2     		uxth	r4, r0
 1056              	.LVL71:
 173:../../libs/PoliTeKDSP/libs/libDaisy/src/hid/disp/display.h ****         currentY_ = (y >= Height()) ? Height() - 1 : y;
 1057              		.loc 11 173 19 view .LVU221
 1058 01b4 BFE7     		b	.L50
 1059              	.L78:
 1060 01b6 00BF     		.align	2
ARM GAS  C:\Users\skipi\AppData\Local\Temp\ccs8qXFk.s 			page 46


 1061              	.L77:
 1062 01b8 00000000 		.word	_ZNK5daisy11OledDisplayINS_13SSD130xDriverILj128ELj64ENS_19SSD130xI2CTransportEEEE5WidthEv
 1063 01bc 00000000 		.word	_ZNK5daisy11OledDisplayINS_13SSD130xDriverILj128ELj64ENS_19SSD130xI2CTransportEEEE6HeightEv
 1064              	.LBE678:
 1065              	.LBE682:
 1066              	.LBE684:
 1067              	.LBE686:
 1068              		.cfi_endproc
 1069              	.LFE2842:
 1071              		.section	.text._ZN5daisy25OneBitGraphicsDisplayImplINS_11OledDisplayINS_13SSD130xDriverILj128ELj64
 1072              		.align	1
 1073              		.p2align 2,,3
 1074              		.weak	_ZN5daisy25OneBitGraphicsDisplayImplINS_11OledDisplayINS_13SSD130xDriverILj128ELj64ENS_19SSD
 1075              		.syntax unified
 1076              		.thumb
 1077              		.thumb_func
 1078              		.fpu fpv5-d16
 1080              	_ZN5daisy25OneBitGraphicsDisplayImplINS_11OledDisplayINS_13SSD130xDriverILj128ELj64ENS_19SSD130xI2C
 1081              	.LVL72:
 1082              	.LFB2841:
 401:../../libs/PoliTeKDSP/libs/libDaisy/src/hid/disp/display.h ****     {
 1083              		.loc 11 401 10 is_stmt 1 view -0
 1084              		.cfi_startproc
 1085              		@ args = 4, pretend = 0, frame = 16
 1086              		@ frame_needed = 0, uses_anonymous_args = 0
 401:../../libs/PoliTeKDSP/libs/libDaisy/src/hid/disp/display.h ****     {
 1087              		.loc 11 401 10 is_stmt 0 view .LVU223
 1088 0000 2DE9F04F 		push	{r4, r5, r6, r7, r8, r9, r10, fp, lr}
 1089              		.cfi_def_cfa_offset 36
 1090              		.cfi_offset 4, -36
 1091              		.cfi_offset 5, -32
 1092              		.cfi_offset 6, -28
 1093              		.cfi_offset 7, -24
 1094              		.cfi_offset 8, -20
 1095              		.cfi_offset 9, -16
 1096              		.cfi_offset 10, -12
 1097              		.cfi_offset 11, -8
 1098              		.cfi_offset 14, -4
 1099 0004 85B0     		sub	sp, sp, #20
 1100              		.cfi_def_cfa_offset 56
 1101              	.LVL73:
 406:../../libs/PoliTeKDSP/libs/libDaisy/src/hid/disp/display.h ****             return 0;
 1102              		.loc 11 406 20 view .LVU224
 1103 0006 A1F12005 		sub	r5, r1, #32
 401:../../libs/PoliTeKDSP/libs/libDaisy/src/hid/disp/display.h ****     {
 1104              		.loc 11 401 10 view .LVU225
 1105 000a 04AC     		add	r4, sp, #16
 1106 000c 9DF83870 		ldrb	r7, [sp, #56]	@ zero_extendqisi2
 1107 0010 0091     		str	r1, [sp]
 1108 0012 04E90C00 		stmdb	r4, {r2, r3}
 1109              	.LVL74:
 406:../../libs/PoliTeKDSP/libs/libDaisy/src/hid/disp/display.h ****             return 0;
 1110              		.loc 11 406 9 view .LVU226
 1111 0016 EBB2     		uxtb	r3, r5
 1112 0018 5E2B     		cmp	r3, #94
 1113 001a 00F29580 		bhi	.L83
 410:../../libs/PoliTeKDSP/libs/libDaisy/src/hid/disp/display.h ****            || Height() < (currentY_ + font.FontHeight))
ARM GAS  C:\Users\skipi\AppData\Local\Temp\ccs8qXFk.s 			page 47


 1114              		.loc 11 410 17 view .LVU227
 1115 001e 0368     		ldr	r3, [r0]
 1116 0020 8046     		mov	r8, r0
 1117 0022 5D4A     		ldr	r2, .L118
 1118 0024 DB68     		ldr	r3, [r3, #12]
 1119 0026 9DF80840 		ldrb	r4, [sp, #8]	@ zero_extendqisi2
 1120 002a 9342     		cmp	r3, r2
 1121 002c 9DF80960 		ldrb	r6, [sp, #9]	@ zero_extendqisi2
 1122 0030 40F09480 		bne	.L110
 1123 0034 8020     		movs	r0, #128
 1124              	.LVL75:
 1125              	.L82:
 410:../../libs/PoliTeKDSP/libs/libDaisy/src/hid/disp/display.h ****            || Height() < (currentY_ + font.FontHeight))
 1126              		.loc 11 410 23 view .LVU228
 1127 0036 B8F80430 		ldrh	r3, [r8, #4]
 410:../../libs/PoliTeKDSP/libs/libDaisy/src/hid/disp/display.h ****            || Height() < (currentY_ + font.FontHeight))
 1128              		.loc 11 410 33 view .LVU229
 1129 003a 2344     		add	r3, r3, r4
 411:../../libs/PoliTeKDSP/libs/libDaisy/src/hid/disp/display.h ****         {
 1130              		.loc 11 411 12 view .LVU230
 1131 003c 8342     		cmp	r3, r0
 1132 003e 00F38380 		bgt	.L83
 411:../../libs/PoliTeKDSP/libs/libDaisy/src/hid/disp/display.h ****         {
 1133              		.loc 11 411 21 discriminator 2 view .LVU231
 1134 0042 D8F80030 		ldr	r3, [r8]
 1135 0046 554A     		ldr	r2, .L118+4
 1136 0048 9B68     		ldr	r3, [r3, #8]
 1137 004a 9342     		cmp	r3, r2
 1138 004c 40F08880 		bne	.L111
 411:../../libs/PoliTeKDSP/libs/libDaisy/src/hid/disp/display.h ****         {
 1139              		.loc 11 411 21 view .LVU232
 1140 0050 4020     		movs	r0, #64
 1141              	.L84:
 411:../../libs/PoliTeKDSP/libs/libDaisy/src/hid/disp/display.h ****         {
 1142              		.loc 11 411 27 discriminator 2 view .LVU233
 1143 0052 B8F80620 		ldrh	r2, [r8, #6]
 411:../../libs/PoliTeKDSP/libs/libDaisy/src/hid/disp/display.h ****         {
 1144              		.loc 11 411 37 discriminator 2 view .LVU234
 1145 0056 9319     		adds	r3, r2, r6
 411:../../libs/PoliTeKDSP/libs/libDaisy/src/hid/disp/display.h ****         {
 1146              		.loc 11 411 27 discriminator 2 view .LVU235
 1147 0058 0192     		str	r2, [sp, #4]
 411:../../libs/PoliTeKDSP/libs/libDaisy/src/hid/disp/display.h ****         {
 1148              		.loc 11 411 12 discriminator 2 view .LVU236
 1149 005a 8342     		cmp	r3, r0
 1150 005c 74DC     		bgt	.L83
 1151              	.LVL76:
 418:../../libs/PoliTeKDSP/libs/libDaisy/src/hid/disp/display.h ****         {
 1152              		.loc 11 418 22 is_stmt 1 view .LVU237
 1153 005e 002E     		cmp	r6, #0
 1154 0060 00F08980 		beq	.L85
 420:../../libs/PoliTeKDSP/libs/libDaisy/src/hid/disp/display.h ****             for(j = 0; j < font.FontWidth; j++)
 1155              		.loc 11 420 37 is_stmt 0 view .LVU238
 1156 0064 06FB05F5 		mul	r5, r6, r5
 1157 0068 6FF00040 		mvn	r0, #-2147483648
 420:../../libs/PoliTeKDSP/libs/libDaisy/src/hid/disp/display.h ****             for(j = 0; j < font.FontWidth; j++)
 1158              		.loc 11 420 22 view .LVU239
ARM GAS  C:\Users\skipi\AppData\Local\Temp\ccs8qXFk.s 			page 48


 1159 006c 039B     		ldr	r3, [sp, #12]
 1160 006e 9646     		mov	lr, r2
 1161 0070 2844     		add	r0, r0, r5
 1162 0072 2E44     		add	r6, r6, r5
 439:../../libs/PoliTeKDSP/libs/libDaisy/src/hid/disp/display.h **** 
 1163              		.loc 11 439 19 view .LVU240
 1164 0074 B8F804A0 		ldrh	r10, [r8, #4]
 1165 0078 03EB4000 		add	r0, r3, r0, lsl #1
 1166 007c 023B     		subs	r3, r3, #2
 1167 007e 03EB460B 		add	fp, r3, r6, lsl #1
 1168              	.LVL77:
 1169              	.L88:
 420:../../libs/PoliTeKDSP/libs/libDaisy/src/hid/disp/display.h ****             for(j = 0; j < font.FontWidth; j++)
 1170              		.loc 11 420 15 view .LVU241
 1171 0082 30F8026F 		ldrh	r6, [r0, #2]!
 1172              	.LVL78:
 421:../../libs/PoliTeKDSP/libs/libDaisy/src/hid/disp/display.h ****             {
 1173              		.loc 11 421 26 is_stmt 1 view .LVU242
 1174 0086 BCB3     		cbz	r4, .L93
 1175              	.LBB717:
 1176              	.LBB718:
 1177              	.LBB719:
 1178              	.LBB720:
 1179              	.LBB721:
 368:../../libs/PoliTeKDSP/libs/libDaisy/src/dev/oled_ssd130x.h ****     }
 1180              		.loc 12 368 55 is_stmt 0 view .LVU243
 1181 0088 0EF00703 		and	r3, lr, #7
 368:../../libs/PoliTeKDSP/libs/libDaisy/src/dev/oled_ssd130x.h ****     }
 1182              		.loc 12 368 49 view .LVU244
 1183 008c 4FF0010C 		mov	ip, #1
 368:../../libs/PoliTeKDSP/libs/libDaisy/src/dev/oled_ssd130x.h ****     }
 1184              		.loc 12 368 28 view .LVU245
 1185 0090 4FEADE02 		lsr	r2, lr, #3
 1186 0094 5146     		mov	r1, r10
 368:../../libs/PoliTeKDSP/libs/libDaisy/src/dev/oled_ssd130x.h ****     }
 1187              		.loc 12 368 49 view .LVU246
 1188 0096 0CFA03FC 		lsl	ip, ip, r3
 1189 009a 0AF11003 		add	r3, r10, #16
 368:../../libs/PoliTeKDSP/libs/libDaisy/src/dev/oled_ssd130x.h ****     }
 1190              		.loc 12 368 42 view .LVU247
 1191 009e 4FFA8CFC 		sxtb	ip, ip
 1192 00a2 03EBC212 		add	r2, r3, r2, lsl #7
 1193              	.LBE721:
 1194              	.LBE720:
 1195              	.LBE719:
 1196              	.LBE718:
 1197              	.LBE717:
 421:../../libs/PoliTeKDSP/libs/libDaisy/src/hid/disp/display.h ****             {
 1198              		.loc 11 421 19 view .LVU248
 1199 00a6 0023     		movs	r3, #0
 1200              	.LBB739:
 1201              	.LBB734:
 1202              	.LBB729:
 1203              	.LBB725:
 1204              	.LBB722:
 368:../../libs/PoliTeKDSP/libs/libDaisy/src/dev/oled_ssd130x.h ****     }
 1205              		.loc 12 368 42 view .LVU249
ARM GAS  C:\Users\skipi\AppData\Local\Temp\ccs8qXFk.s 			page 49


 1206 00a8 6FEA0C09 		mvn	r9, ip
 1207 00ac 4244     		add	r2, r2, r8
 1208 00ae 0EE0     		b	.L94
 1209              	.LVL79:
 1210              	.L112:
 368:../../libs/PoliTeKDSP/libs/libDaisy/src/dev/oled_ssd130x.h ****     }
 1211              		.loc 12 368 42 view .LVU250
 1212              	.LBE722:
 1213              	.LBE725:
 1214              	.LBE729:
 1215              	.LBE734:
 1216              	.LBE739:
 1217              	.LBB740:
 1218              	.LBI740:
  42:../../libs/PoliTeKDSP/libs/libDaisy/src/hid/disp/oled_display.h ****     {
 1219              		.loc 10 42 10 is_stmt 1 view .LVU251
 1220              	.LBB741:
 1221              	.LBI741:
 361:../../libs/PoliTeKDSP/libs/libDaisy/src/dev/oled_ssd130x.h ****     {
 1222              		.loc 12 361 10 view .LVU252
 1223              	.LBB742:
 363:../../libs/PoliTeKDSP/libs/libDaisy/src/dev/oled_ssd130x.h ****             return;
 1224              		.loc 12 363 9 is_stmt 0 view .LVU253
 1225 00b0 7F29     		cmp	r1, #127
 1226 00b2 07D8     		bhi	.L90
 1227 00b4 BEF13F0F 		cmp	lr, #63
 1228 00b8 04D8     		bhi	.L90
 366:../../libs/PoliTeKDSP/libs/libDaisy/src/dev/oled_ssd130x.h ****         else
 1229              		.loc 12 366 42 view .LVU254
 1230 00ba 1578     		ldrb	r5, [r2]	@ zero_extendqisi2
 365:../../libs/PoliTeKDSP/libs/libDaisy/src/dev/oled_ssd130x.h ****             buffer_[x + (y / 8) * width] |= (1 << (y % 8));
 1231              		.loc 12 365 9 view .LVU255
 1232 00bc 9FB1     		cbz	r7, .L92
 1233              	.L109:
 365:../../libs/PoliTeKDSP/libs/libDaisy/src/dev/oled_ssd130x.h ****             buffer_[x + (y / 8) * width] |= (1 << (y % 8));
 1234              		.loc 12 365 9 view .LVU256
 1235              	.LBE742:
 1236              	.LBE741:
 1237              	.LBE740:
 1238              	.LBB743:
 1239              	.LBB735:
 1240              	.LBB730:
 366:../../libs/PoliTeKDSP/libs/libDaisy/src/dev/oled_ssd130x.h ****         else
 1241              		.loc 12 366 42 view .LVU257
 1242 00be 4CEA0505 		orr	r5, ip, r5
 1243 00c2 1570     		strb	r5, [r2]
 1244              	.L90:
 1245              	.LBE730:
 1246              	.LBE735:
 1247              	.LBE743:
 421:../../libs/PoliTeKDSP/libs/libDaisy/src/hid/disp/display.h ****             {
 1248              		.loc 11 421 13 is_stmt 1 discriminator 2 view .LVU258
 1249 00c4 0133     		adds	r3, r3, #1
 1250              	.LVL80:
 421:../../libs/PoliTeKDSP/libs/libDaisy/src/hid/disp/display.h ****             {
 1251              		.loc 11 421 26 discriminator 2 view .LVU259
 1252 00c6 0132     		adds	r2, r2, #1
ARM GAS  C:\Users\skipi\AppData\Local\Temp\ccs8qXFk.s 			page 50


 1253 00c8 0131     		adds	r1, r1, #1
 1254 00ca 9C42     		cmp	r4, r3
 1255 00cc 14D0     		beq	.L93
 1256              	.LVL81:
 1257              	.L94:
 423:../../libs/PoliTeKDSP/libs/libDaisy/src/hid/disp/display.h ****                 {
 1258              		.loc 11 423 23 is_stmt 0 view .LVU260
 1259 00ce 06FA03F5 		lsl	r5, r6, r3
 423:../../libs/PoliTeKDSP/libs/libDaisy/src/hid/disp/display.h ****                 {
 1260              		.loc 11 423 17 view .LVU261
 1261 00d2 2D04     		lsls	r5, r5, #16
 1262 00d4 ECD4     		bmi	.L112
 1263              	.LVL82:
 1264              	.LBB744:
 1265              	.LBI717:
  42:../../libs/PoliTeKDSP/libs/libDaisy/src/hid/disp/oled_display.h ****     {
 1266              		.loc 10 42 10 is_stmt 1 view .LVU262
 1267              	.LBB736:
 1268              	.LBI718:
 361:../../libs/PoliTeKDSP/libs/libDaisy/src/dev/oled_ssd130x.h ****     {
 1269              		.loc 12 361 10 view .LVU263
 1270              	.LBB731:
 363:../../libs/PoliTeKDSP/libs/libDaisy/src/dev/oled_ssd130x.h ****             return;
 1271              		.loc 12 363 9 is_stmt 0 view .LVU264
 1272 00d6 7F29     		cmp	r1, #127
 1273 00d8 F4D8     		bhi	.L90
 1274 00da BEF13F0F 		cmp	lr, #63
 1275 00de F1D8     		bhi	.L90
 366:../../libs/PoliTeKDSP/libs/libDaisy/src/dev/oled_ssd130x.h ****         else
 1276              		.loc 12 366 42 view .LVU265
 1277 00e0 1578     		ldrb	r5, [r2]	@ zero_extendqisi2
 365:../../libs/PoliTeKDSP/libs/libDaisy/src/dev/oled_ssd130x.h ****             buffer_[x + (y / 8) * width] |= (1 << (y % 8));
 1278              		.loc 12 365 9 view .LVU266
 1279 00e2 002F     		cmp	r7, #0
 1280 00e4 EBD0     		beq	.L109
 1281              	.L92:
 1282              	.LVL83:
 1283              	.LBB726:
 1284              	.LBI720:
 361:../../libs/PoliTeKDSP/libs/libDaisy/src/dev/oled_ssd130x.h ****     {
 1285              		.loc 12 361 10 is_stmt 1 view .LVU267
 361:../../libs/PoliTeKDSP/libs/libDaisy/src/dev/oled_ssd130x.h ****     {
 1286              		.loc 12 361 10 is_stmt 0 view .LVU268
 1287              	.LBE726:
 1288              	.LBE731:
 1289              	.LBE736:
 1290              	.LBE744:
 421:../../libs/PoliTeKDSP/libs/libDaisy/src/hid/disp/display.h ****             {
 1291              		.loc 11 421 13 view .LVU269
 1292 00e6 0133     		adds	r3, r3, #1
 1293              	.LVL84:
 1294              	.LBB745:
 1295              	.LBB737:
 1296              	.LBB732:
 1297              	.LBB727:
 1298              	.LBB723:
 368:../../libs/PoliTeKDSP/libs/libDaisy/src/dev/oled_ssd130x.h ****     }
ARM GAS  C:\Users\skipi\AppData\Local\Temp\ccs8qXFk.s 			page 51


 1299              		.loc 12 368 42 view .LVU270
 1300 00e8 09EA0505 		and	r5, r9, r5
 1301              	.LBE723:
 1302              	.LBE727:
 1303              	.LBE732:
 1304              	.LBE737:
 1305              	.LBE745:
 421:../../libs/PoliTeKDSP/libs/libDaisy/src/hid/disp/display.h ****             {
 1306              		.loc 11 421 26 view .LVU271
 1307 00ec 0132     		adds	r2, r2, #1
 1308 00ee 0131     		adds	r1, r1, #1
 1309 00f0 9C42     		cmp	r4, r3
 1310              	.LBB746:
 1311              	.LBB738:
 1312              	.LBB733:
 1313              	.LBB728:
 1314              	.LBB724:
 368:../../libs/PoliTeKDSP/libs/libDaisy/src/dev/oled_ssd130x.h ****     }
 1315              		.loc 12 368 42 view .LVU272
 1316 00f2 02F8015C 		strb	r5, [r2, #-1]
 368:../../libs/PoliTeKDSP/libs/libDaisy/src/dev/oled_ssd130x.h ****     }
 1317              		.loc 12 368 42 view .LVU273
 1318              	.LBE724:
 1319              	.LBE728:
 1320              	.LBE733:
 1321              	.LBE738:
 1322              	.LBE746:
 421:../../libs/PoliTeKDSP/libs/libDaisy/src/hid/disp/display.h ****             {
 1323              		.loc 11 421 13 is_stmt 1 view .LVU274
 1324              	.LVL85:
 421:../../libs/PoliTeKDSP/libs/libDaisy/src/hid/disp/display.h ****             {
 1325              		.loc 11 421 26 view .LVU275
 1326 00f6 EAD1     		bne	.L94
 1327              	.LVL86:
 1328              	.L93:
 418:../../libs/PoliTeKDSP/libs/libDaisy/src/hid/disp/display.h ****         {
 1329              		.loc 11 418 9 view .LVU276
 418:../../libs/PoliTeKDSP/libs/libDaisy/src/hid/disp/display.h ****         {
 1330              		.loc 11 418 22 view .LVU277
 1331 00f8 5845     		cmp	r0, fp
 1332 00fa 0EF1010E 		add	lr, lr, #1
 1333 00fe C0D1     		bne	.L88
 1334              	.LVL87:
 1335              	.L87:
 1336              	.LBB747:
 1337              	.LBB748:
 173:../../libs/PoliTeKDSP/libs/libDaisy/src/hid/disp/display.h ****         currentY_ = (y >= Height()) ? Height() - 1 : y;
 1338              		.loc 11 173 33 is_stmt 0 view .LVU278
 1339 0100 D8F80030 		ldr	r3, [r8]
 1340              	.LBE748:
 1341              	.LBE747:
 439:../../libs/PoliTeKDSP/libs/libDaisy/src/hid/disp/display.h **** 
 1342              		.loc 11 439 18 view .LVU279
 1343 0104 5444     		add	r4, r4, r10
 1344 0106 2449     		ldr	r1, .L118
 1345              	.LBB754:
 1346              	.LBB749:
ARM GAS  C:\Users\skipi\AppData\Local\Temp\ccs8qXFk.s 			page 52


 173:../../libs/PoliTeKDSP/libs/libDaisy/src/hid/disp/display.h ****         currentY_ = (y >= Height()) ? Height() - 1 : y;
 1347              		.loc 11 173 33 view .LVU280
 1348 0108 DA68     		ldr	r2, [r3, #12]
 1349              	.LBE749:
 1350              	.LBE754:
 439:../../libs/PoliTeKDSP/libs/libDaisy/src/hid/disp/display.h **** 
 1351              		.loc 11 439 18 view .LVU281
 1352 010a A4B2     		uxth	r4, r4
 1353              	.LVL88:
 1354              	.LBB755:
 1355              	.LBI747:
 171:../../libs/PoliTeKDSP/libs/libDaisy/src/hid/disp/display.h ****     {
 1356              		.loc 11 171 10 is_stmt 1 view .LVU282
 1357              	.LBB750:
 173:../../libs/PoliTeKDSP/libs/libDaisy/src/hid/disp/display.h ****         currentY_ = (y >= Height()) ? Height() - 1 : y;
 1358              		.loc 11 173 9 view .LVU283
 1359 010c 8A42     		cmp	r2, r1
 1360 010e 2DD1     		bne	.L113
 173:../../libs/PoliTeKDSP/libs/libDaisy/src/hid/disp/display.h ****         currentY_ = (y >= Height()) ? Height() - 1 : y;
 1361              		.loc 11 173 33 is_stmt 0 view .LVU284
 1362 0110 8020     		movs	r0, #128
 1363              	.L95:
 173:../../libs/PoliTeKDSP/libs/libDaisy/src/hid/disp/display.h ****         currentY_ = (y >= Height()) ? Height() - 1 : y;
 1364              		.loc 11 173 19 view .LVU285
 1365 0112 8442     		cmp	r4, r0
 1366 0114 1CD2     		bcs	.L114
 1367              	.LVL89:
 1368              	.L96:
 174:../../libs/PoliTeKDSP/libs/libDaisy/src/hid/disp/display.h ****     }
 1369              		.loc 11 174 34 view .LVU286
 1370 0116 9B68     		ldr	r3, [r3, #8]
 1371 0118 204A     		ldr	r2, .L118+4
 173:../../libs/PoliTeKDSP/libs/libDaisy/src/hid/disp/display.h ****         currentY_ = (y >= Height()) ? Height() - 1 : y;
 1372              		.loc 11 173 19 view .LVU287
 1373 011a A8F80440 		strh	r4, [r8, #4]	@ movhi
 174:../../libs/PoliTeKDSP/libs/libDaisy/src/hid/disp/display.h ****     }
 1374              		.loc 11 174 9 is_stmt 1 view .LVU288
 1375 011e 9342     		cmp	r3, r2
 1376 0120 21D1     		bne	.L115
 174:../../libs/PoliTeKDSP/libs/libDaisy/src/hid/disp/display.h ****     }
 1377              		.loc 11 174 34 is_stmt 0 view .LVU289
 1378 0122 4020     		movs	r0, #64
 1379              	.L98:
 174:../../libs/PoliTeKDSP/libs/libDaisy/src/hid/disp/display.h ****     }
 1380              		.loc 11 174 19 view .LVU290
 1381 0124 019B     		ldr	r3, [sp, #4]
 1382 0126 8342     		cmp	r3, r0
 1383 0128 07D3     		bcc	.L99
 174:../../libs/PoliTeKDSP/libs/libDaisy/src/hid/disp/display.h ****     }
 1384              		.loc 11 174 46 view .LVU291
 1385 012a D8F80030 		ldr	r3, [r8]
 1386 012e 1B4A     		ldr	r2, .L118+4
 1387 0130 9B68     		ldr	r3, [r3, #8]
 1388 0132 9342     		cmp	r3, r2
 1389 0134 29D1     		bne	.L116
 1390 0136 3F23     		movs	r3, #63
 1391 0138 0193     		str	r3, [sp, #4]
ARM GAS  C:\Users\skipi\AppData\Local\Temp\ccs8qXFk.s 			page 53


 1392              	.LVL90:
 1393              	.L99:
 174:../../libs/PoliTeKDSP/libs/libDaisy/src/hid/disp/display.h ****     }
 1394              		.loc 11 174 19 view .LVU292
 1395 013a DDE90003 		ldrd	r0, r3, [sp]
 1396 013e A8F80630 		strh	r3, [r8, #6]	@ movhi
 1397              	.LVL91:
 174:../../libs/PoliTeKDSP/libs/libDaisy/src/hid/disp/display.h ****     }
 1398              		.loc 11 174 19 view .LVU293
 1399              	.LBE750:
 1400              	.LBE755:
 443:../../libs/PoliTeKDSP/libs/libDaisy/src/hid/disp/display.h **** 
 1401              		.loc 11 443 5 view .LVU294
 1402 0142 05B0     		add	sp, sp, #20
 1403              		.cfi_remember_state
 1404              		.cfi_def_cfa_offset 36
 1405              		@ sp needed
 1406 0144 BDE8F08F 		pop	{r4, r5, r6, r7, r8, r9, r10, fp, pc}
 1407              	.LVL92:
 1408              	.L83:
 1409              		.cfi_restore_state
 407:../../libs/PoliTeKDSP/libs/libDaisy/src/hid/disp/display.h **** 
 1410              		.loc 11 407 20 view .LVU295
 1411 0148 0020     		movs	r0, #0
 443:../../libs/PoliTeKDSP/libs/libDaisy/src/hid/disp/display.h **** 
 1412              		.loc 11 443 5 view .LVU296
 1413 014a 05B0     		add	sp, sp, #20
 1414              		.cfi_remember_state
 1415              		.cfi_def_cfa_offset 36
 1416              		@ sp needed
 1417 014c BDE8F08F 		pop	{r4, r5, r6, r7, r8, r9, r10, fp, pc}
 1418              	.LVL93:
 1419              	.L114:
 1420              		.cfi_restore_state
 1421              	.LBB756:
 1422              	.LBB751:
 173:../../libs/PoliTeKDSP/libs/libDaisy/src/hid/disp/display.h ****         currentY_ = (y >= Height()) ? Height() - 1 : y;
 1423              		.loc 11 173 44 view .LVU297
 1424 0150 DA68     		ldr	r2, [r3, #12]
 1425 0152 1149     		ldr	r1, .L118
 1426 0154 8A42     		cmp	r2, r1
 1427 0156 11D1     		bne	.L117
 1428 0158 7F24     		movs	r4, #127
 1429              	.LVL94:
 173:../../libs/PoliTeKDSP/libs/libDaisy/src/hid/disp/display.h ****         currentY_ = (y >= Height()) ? Height() - 1 : y;
 1430              		.loc 11 173 44 view .LVU298
 1431 015a DCE7     		b	.L96
 1432              	.LVL95:
 1433              	.L110:
 173:../../libs/PoliTeKDSP/libs/libDaisy/src/hid/disp/display.h ****         currentY_ = (y >= Height()) ? Height() - 1 : y;
 1434              		.loc 11 173 44 view .LVU299
 1435              	.LBE751:
 1436              	.LBE756:
 410:../../libs/PoliTeKDSP/libs/libDaisy/src/hid/disp/display.h ****            || Height() < (currentY_ + font.FontHeight))
 1437              		.loc 11 410 17 view .LVU300
 1438 015c 9847     		blx	r3
 1439              	.LVL96:
ARM GAS  C:\Users\skipi\AppData\Local\Temp\ccs8qXFk.s 			page 54


 410:../../libs/PoliTeKDSP/libs/libDaisy/src/hid/disp/display.h ****            || Height() < (currentY_ + font.FontHeight))
 1440              		.loc 11 410 17 view .LVU301
 1441 015e 6AE7     		b	.L82
 1442              	.L111:
 411:../../libs/PoliTeKDSP/libs/libDaisy/src/hid/disp/display.h ****         {
 1443              		.loc 11 411 21 discriminator 2 view .LVU302
 1444 0160 4046     		mov	r0, r8
 1445 0162 9847     		blx	r3
 1446              	.LVL97:
 1447 0164 75E7     		b	.L84
 1448              	.LVL98:
 1449              	.L115:
 1450              	.LBB757:
 1451              	.LBB752:
 174:../../libs/PoliTeKDSP/libs/libDaisy/src/hid/disp/display.h ****     }
 1452              		.loc 11 174 33 view .LVU303
 1453 0166 4046     		mov	r0, r8
 1454 0168 9847     		blx	r3
 1455              	.LVL99:
 1456 016a DBE7     		b	.L98
 1457              	.LVL100:
 1458              	.L113:
 173:../../libs/PoliTeKDSP/libs/libDaisy/src/hid/disp/display.h ****         currentY_ = (y >= Height()) ? Height() - 1 : y;
 1459              		.loc 11 173 32 view .LVU304
 1460 016c 4046     		mov	r0, r8
 1461 016e 9047     		blx	r2
 1462              	.LVL101:
 173:../../libs/PoliTeKDSP/libs/libDaisy/src/hid/disp/display.h ****         currentY_ = (y >= Height()) ? Height() - 1 : y;
 1463              		.loc 11 173 44 view .LVU305
 1464 0170 D8F80030 		ldr	r3, [r8]
 1465 0174 CDE7     		b	.L95
 1466              	.LVL102:
 1467              	.L85:
 173:../../libs/PoliTeKDSP/libs/libDaisy/src/hid/disp/display.h ****         currentY_ = (y >= Height()) ? Height() - 1 : y;
 1468              		.loc 11 173 44 view .LVU306
 1469              	.LBE752:
 1470              	.LBE757:
 439:../../libs/PoliTeKDSP/libs/libDaisy/src/hid/disp/display.h **** 
 1471              		.loc 11 439 19 view .LVU307
 1472 0176 B8F804A0 		ldrh	r10, [r8, #4]
 1473 017a C1E7     		b	.L87
 1474              	.LVL103:
 1475              	.L117:
 1476              	.LBB758:
 1477              	.LBB753:
 173:../../libs/PoliTeKDSP/libs/libDaisy/src/hid/disp/display.h ****         currentY_ = (y >= Height()) ? Height() - 1 : y;
 1478              		.loc 11 173 43 view .LVU308
 1479 017c 4046     		mov	r0, r8
 1480 017e 9047     		blx	r2
 1481              	.LVL104:
 173:../../libs/PoliTeKDSP/libs/libDaisy/src/hid/disp/display.h ****         currentY_ = (y >= Height()) ? Height() - 1 : y;
 1482              		.loc 11 173 19 view .LVU309
 1483 0180 0138     		subs	r0, r0, #1
 174:../../libs/PoliTeKDSP/libs/libDaisy/src/hid/disp/display.h ****     }
 1484              		.loc 11 174 34 view .LVU310
 1485 0182 D8F80030 		ldr	r3, [r8]
 173:../../libs/PoliTeKDSP/libs/libDaisy/src/hid/disp/display.h ****         currentY_ = (y >= Height()) ? Height() - 1 : y;
ARM GAS  C:\Users\skipi\AppData\Local\Temp\ccs8qXFk.s 			page 55


 1486              		.loc 11 173 19 view .LVU311
 1487 0186 84B2     		uxth	r4, r0
 1488              	.LVL105:
 173:../../libs/PoliTeKDSP/libs/libDaisy/src/hid/disp/display.h ****         currentY_ = (y >= Height()) ? Height() - 1 : y;
 1489              		.loc 11 173 19 view .LVU312
 1490 0188 C5E7     		b	.L96
 1491              	.L116:
 174:../../libs/PoliTeKDSP/libs/libDaisy/src/hid/disp/display.h ****     }
 1492              		.loc 11 174 45 view .LVU313
 1493 018a 4046     		mov	r0, r8
 1494 018c 9847     		blx	r3
 1495              	.LVL106:
 174:../../libs/PoliTeKDSP/libs/libDaisy/src/hid/disp/display.h ****     }
 1496              		.loc 11 174 19 view .LVU314
 1497 018e 0138     		subs	r0, r0, #1
 1498 0190 83B2     		uxth	r3, r0
 1499 0192 0193     		str	r3, [sp, #4]
 1500              	.LVL107:
 174:../../libs/PoliTeKDSP/libs/libDaisy/src/hid/disp/display.h ****     }
 1501              		.loc 11 174 19 view .LVU315
 1502 0194 D1E7     		b	.L99
 1503              	.L119:
 1504 0196 00BF     		.align	2
 1505              	.L118:
 1506 0198 00000000 		.word	_ZNK5daisy11OledDisplayINS_13SSD130xDriverILj128ELj64ENS_19SSD130xI2CTransportEEEE5WidthEv
 1507 019c 00000000 		.word	_ZNK5daisy11OledDisplayINS_13SSD130xDriverILj128ELj64ENS_19SSD130xI2CTransportEEEE6HeightEv
 1508              	.LBE753:
 1509              	.LBE758:
 1510              		.cfi_endproc
 1511              	.LFE2841:
 1513              		.section	.text._ZN5daisy25OneBitGraphicsDisplayImplINS_11OledDisplayINS_13SSD130xDriverILj128ELj64
 1514              		.align	1
 1515              		.p2align 2,,3
 1516              		.weak	_ZN5daisy25OneBitGraphicsDisplayImplINS_11OledDisplayINS_13SSD130xDriverILj128ELj64ENS_19SSD
 1517              		.syntax unified
 1518              		.thumb
 1519              		.thumb_func
 1520              		.fpu fpv5-d16
 1522              	_ZN5daisy25OneBitGraphicsDisplayImplINS_11OledDisplayINS_13SSD130xDriverILj128ELj64ENS_19SSD130xI2C
 1523              	.LVL108:
 1524              	.LFB2843:
 464:../../libs/PoliTeKDSP/libs/libDaisy/src/hid/disp/display.h **** 
 465:../../libs/PoliTeKDSP/libs/libDaisy/src/hid/disp/display.h ****     Rectangle WriteStringAligned(const char*    str,
 1525              		.loc 11 465 15 is_stmt 1 view -0
 1526              		.cfi_startproc
 1527              		@ args = 12, pretend = 0, frame = 32
 1528              		@ frame_needed = 0, uses_anonymous_args = 0
 1529              		.loc 11 465 15 is_stmt 0 view .LVU317
 1530 0000 2DE9F04F 		push	{r4, r5, r6, r7, r8, r9, r10, fp, lr}
 1531              		.cfi_def_cfa_offset 36
 1532              		.cfi_offset 4, -36
 1533              		.cfi_offset 5, -32
 1534              		.cfi_offset 6, -28
 1535              		.cfi_offset 7, -24
 1536              		.cfi_offset 8, -20
 1537              		.cfi_offset 9, -16
 1538              		.cfi_offset 10, -12
ARM GAS  C:\Users\skipi\AppData\Local\Temp\ccs8qXFk.s 			page 56


 1539              		.cfi_offset 11, -8
 1540              		.cfi_offset 14, -4
 1541 0004 89B0     		sub	sp, sp, #36
 1542              		.cfi_def_cfa_offset 72
 1543              		.loc 11 465 15 view .LVU318
 1544 0006 1D46     		mov	r5, r3
 1545 0008 8846     		mov	r8, r1
 1546              	.LVL109:
 1547              	.LBB897:
 1548              	.LBI897:
 466:../../libs/PoliTeKDSP/libs/libDaisy/src/hid/disp/display.h ****                                  const FontDef& font,
 467:../../libs/PoliTeKDSP/libs/libDaisy/src/hid/disp/display.h ****                                  Rectangle      boundingBox,
 468:../../libs/PoliTeKDSP/libs/libDaisy/src/hid/disp/display.h ****                                  Alignment      alignment,
 469:../../libs/PoliTeKDSP/libs/libDaisy/src/hid/disp/display.h ****                                  bool           on) override
 470:../../libs/PoliTeKDSP/libs/libDaisy/src/hid/disp/display.h ****     {
 471:../../libs/PoliTeKDSP/libs/libDaisy/src/hid/disp/display.h ****         const auto alignedRect
 472:../../libs/PoliTeKDSP/libs/libDaisy/src/hid/disp/display.h ****             = GetTextRect(str, font).AlignedWithin(boundingBox, alignment);
 473:../../libs/PoliTeKDSP/libs/libDaisy/src/hid/disp/display.h ****         SetCursor(alignedRect.GetX(), alignedRect.GetY());
 474:../../libs/PoliTeKDSP/libs/libDaisy/src/hid/disp/display.h ****         ((ChildType*)(this))->ChildType::WriteString(str, font, on);
 475:../../libs/PoliTeKDSP/libs/libDaisy/src/hid/disp/display.h ****         return alignedRect;
 476:../../libs/PoliTeKDSP/libs/libDaisy/src/hid/disp/display.h ****     }
 477:../../libs/PoliTeKDSP/libs/libDaisy/src/hid/disp/display.h **** 
 478:../../libs/PoliTeKDSP/libs/libDaisy/src/hid/disp/display.h ****   private:
 479:../../libs/PoliTeKDSP/libs/libDaisy/src/hid/disp/display.h ****     uint32_t strlen(const char* string)
 480:../../libs/PoliTeKDSP/libs/libDaisy/src/hid/disp/display.h ****     {
 481:../../libs/PoliTeKDSP/libs/libDaisy/src/hid/disp/display.h ****         uint32_t result = 0;
 482:../../libs/PoliTeKDSP/libs/libDaisy/src/hid/disp/display.h ****         while(*string++ != '\0')
 483:../../libs/PoliTeKDSP/libs/libDaisy/src/hid/disp/display.h ****             result++;
 484:../../libs/PoliTeKDSP/libs/libDaisy/src/hid/disp/display.h ****         return result;
 485:../../libs/PoliTeKDSP/libs/libDaisy/src/hid/disp/display.h ****     }
 486:../../libs/PoliTeKDSP/libs/libDaisy/src/hid/disp/display.h **** 
 487:../../libs/PoliTeKDSP/libs/libDaisy/src/hid/disp/display.h ****     Rectangle GetTextRect(const char* text, const FontDef& font)
 1549              		.loc 11 487 15 is_stmt 1 view .LVU319
 1550              	.LBB898:
 1551              	.LBB899:
 1552              	.LBI899:
 479:../../libs/PoliTeKDSP/libs/libDaisy/src/hid/disp/display.h ****     {
 1553              		.loc 11 479 14 view .LVU320
 1554              	.LBB900:
 482:../../libs/PoliTeKDSP/libs/libDaisy/src/hid/disp/display.h ****             result++;
 1555              		.loc 11 482 25 view .LVU321
 1556              	.LBE900:
 1557              	.LBE899:
 1558              	.LBE898:
 1559              	.LBE897:
 465:../../libs/PoliTeKDSP/libs/libDaisy/src/hid/disp/display.h ****                                  const FontDef& font,
 1560              		.loc 11 465 15 is_stmt 0 view .LVU322
 1561 000a 0690     		str	r0, [sp, #24]
 1562              	.LBB915:
 1563              	.LBB911:
 1564              	.LBB904:
 1565              	.LBB901:
 482:../../libs/PoliTeKDSP/libs/libDaisy/src/hid/disp/display.h ****             result++;
 1566              		.loc 11 482 25 view .LVU323
 1567 000c 1046     		mov	r0, r2
 1568              	.LVL110:
 482:../../libs/PoliTeKDSP/libs/libDaisy/src/hid/disp/display.h ****             result++;
ARM GAS  C:\Users\skipi\AppData\Local\Temp\ccs8qXFk.s 			page 57


 1569              		.loc 11 482 25 view .LVU324
 1570              	.LBE901:
 1571              	.LBE904:
 1572              	.LBE911:
 1573              	.LBE915:
 465:../../libs/PoliTeKDSP/libs/libDaisy/src/hid/disp/display.h ****                                  const FontDef& font,
 1574              		.loc 11 465 15 view .LVU325
 1575 000e 129C     		ldr	r4, [sp, #72]
 1576              	.LBB916:
 1577              	.LBB912:
 1578              	.LBB905:
 1579              	.LBB902:
 482:../../libs/PoliTeKDSP/libs/libDaisy/src/hid/disp/display.h ****             result++;
 1580              		.loc 11 482 25 view .LVU326
 1581 0010 10F8013B 		ldrb	r3, [r0], #1	@ zero_extendqisi2
 1582              	.LVL111:
 482:../../libs/PoliTeKDSP/libs/libDaisy/src/hid/disp/display.h ****             result++;
 1583              		.loc 11 482 25 view .LVU327
 1584              	.LBE902:
 1585              	.LBE905:
 1586              	.LBE912:
 1587              	.LBE916:
 465:../../libs/PoliTeKDSP/libs/libDaisy/src/hid/disp/display.h ****                                  const FontDef& font,
 1588              		.loc 11 465 15 view .LVU328
 1589 0014 1399     		ldr	r1, [sp, #76]
 1590              	.LVL112:
 465:../../libs/PoliTeKDSP/libs/libDaisy/src/hid/disp/display.h ****                                  const FontDef& font,
 1591              		.loc 11 465 15 view .LVU329
 1592 0016 9DF85060 		ldrb	r6, [sp, #80]	@ zero_extendqisi2
 1593 001a 0092     		str	r2, [sp]
 1594              	.LBB917:
 1595              	.LBB913:
 1596              	.LBB906:
 1597              	.LBB903:
 482:../../libs/PoliTeKDSP/libs/libDaisy/src/hid/disp/display.h ****             result++;
 1598              		.loc 11 482 25 view .LVU330
 1599 001c 33B1     		cbz	r3, .L121
 481:../../libs/PoliTeKDSP/libs/libDaisy/src/hid/disp/display.h ****         while(*string++ != '\0')
 1600              		.loc 11 481 18 view .LVU331
 1601 001e 0022     		movs	r2, #0
 1602              	.LVL113:
 1603              	.L122:
 482:../../libs/PoliTeKDSP/libs/libDaisy/src/hid/disp/display.h ****             result++;
 1604              		.loc 11 482 25 view .LVU332
 1605 0020 10F8013B 		ldrb	r3, [r0], #1	@ zero_extendqisi2
 1606              	.LVL114:
 483:../../libs/PoliTeKDSP/libs/libDaisy/src/hid/disp/display.h ****         return result;
 1607              		.loc 11 483 13 view .LVU333
 1608 0024 0132     		adds	r2, r2, #1
 1609              	.LVL115:
 482:../../libs/PoliTeKDSP/libs/libDaisy/src/hid/disp/display.h ****             result++;
 1610              		.loc 11 482 25 is_stmt 1 view .LVU334
 1611 0026 002B     		cmp	r3, #0
 1612 0028 FAD1     		bne	.L122
 1613              	.LBE903:
 1614              	.LBE906:
 488:../../libs/PoliTeKDSP/libs/libDaisy/src/hid/disp/display.h ****     {
ARM GAS  C:\Users\skipi\AppData\Local\Temp\ccs8qXFk.s 			page 58


 489:../../libs/PoliTeKDSP/libs/libDaisy/src/hid/disp/display.h ****         const auto numChars = strlen(text);
 490:../../libs/PoliTeKDSP/libs/libDaisy/src/hid/disp/display.h ****         return {int16_t(numChars * font.FontWidth), font.FontHeight};
 1615              		.loc 11 490 68 is_stmt 0 view .LVU335
 1616 002a 93B2     		uxth	r3, r2
 1617              	.LVL116:
 1618              	.L121:
 1619              		.loc 11 490 68 view .LVU336
 1620 002c 2A78     		ldrb	r2, [r5]	@ zero_extendqisi2
 1621              		.loc 11 490 58 view .LVU337
 1622 002e 6878     		ldrb	r0, [r5, #1]	@ zero_extendqisi2
 1623              		.loc 11 490 68 view .LVU338
 1624 0030 12FB03F3 		smulbb	r3, r2, r3
 1625 0034 02B2     		sxth	r2, r0
 1626              	.LVL117:
 1627              	.LBB907:
 1628              	.LBI907:
 1629              		.file 13 "../../libs/PoliTeKDSP/libs/libDaisy/src/hid/disp/graphics_common.h"
   1:../../libs/PoliTeKDSP/libs/libDaisy/src/hid/disp/graphics_common.h **** #pragma once
   2:../../libs/PoliTeKDSP/libs/libDaisy/src/hid/disp/graphics_common.h **** 
   3:../../libs/PoliTeKDSP/libs/libDaisy/src/hid/disp/graphics_common.h **** #include <cstdint>
   4:../../libs/PoliTeKDSP/libs/libDaisy/src/hid/disp/graphics_common.h **** 
   5:../../libs/PoliTeKDSP/libs/libDaisy/src/hid/disp/graphics_common.h **** namespace daisy
   6:../../libs/PoliTeKDSP/libs/libDaisy/src/hid/disp/graphics_common.h **** {
   7:../../libs/PoliTeKDSP/libs/libDaisy/src/hid/disp/graphics_common.h **** /** Justifications */
   8:../../libs/PoliTeKDSP/libs/libDaisy/src/hid/disp/graphics_common.h **** enum class Alignment
   9:../../libs/PoliTeKDSP/libs/libDaisy/src/hid/disp/graphics_common.h **** {
  10:../../libs/PoliTeKDSP/libs/libDaisy/src/hid/disp/graphics_common.h ****     centered,
  11:../../libs/PoliTeKDSP/libs/libDaisy/src/hid/disp/graphics_common.h ****     topLeft,
  12:../../libs/PoliTeKDSP/libs/libDaisy/src/hid/disp/graphics_common.h ****     topCentered,
  13:../../libs/PoliTeKDSP/libs/libDaisy/src/hid/disp/graphics_common.h ****     topRight,
  14:../../libs/PoliTeKDSP/libs/libDaisy/src/hid/disp/graphics_common.h ****     bottomLeft,
  15:../../libs/PoliTeKDSP/libs/libDaisy/src/hid/disp/graphics_common.h ****     bottomCentered,
  16:../../libs/PoliTeKDSP/libs/libDaisy/src/hid/disp/graphics_common.h ****     bottomRight,
  17:../../libs/PoliTeKDSP/libs/libDaisy/src/hid/disp/graphics_common.h ****     centeredLeft,
  18:../../libs/PoliTeKDSP/libs/libDaisy/src/hid/disp/graphics_common.h ****     centeredRight
  19:../../libs/PoliTeKDSP/libs/libDaisy/src/hid/disp/graphics_common.h **** };
  20:../../libs/PoliTeKDSP/libs/libDaisy/src/hid/disp/graphics_common.h **** 
  21:../../libs/PoliTeKDSP/libs/libDaisy/src/hid/disp/graphics_common.h **** class Rectangle
  22:../../libs/PoliTeKDSP/libs/libDaisy/src/hid/disp/graphics_common.h **** {
  23:../../libs/PoliTeKDSP/libs/libDaisy/src/hid/disp/graphics_common.h ****   public:
  24:../../libs/PoliTeKDSP/libs/libDaisy/src/hid/disp/graphics_common.h ****     Rectangle() : x_(0), y_(0), width_(0), height_(0) {}
  25:../../libs/PoliTeKDSP/libs/libDaisy/src/hid/disp/graphics_common.h **** 
  26:../../libs/PoliTeKDSP/libs/libDaisy/src/hid/disp/graphics_common.h ****     Rectangle(int16_t width, int16_t height)
 1630              		.loc 13 26 5 is_stmt 1 view .LVU339
 1631              	.LBB908:
 1632              	.LBI908:
  27:../../libs/PoliTeKDSP/libs/libDaisy/src/hid/disp/graphics_common.h ****     : x_(0), y_(0), width_(max(0, width)), height_(max(0, height))
  28:../../libs/PoliTeKDSP/libs/libDaisy/src/hid/disp/graphics_common.h ****     {
  29:../../libs/PoliTeKDSP/libs/libDaisy/src/hid/disp/graphics_common.h ****     }
  30:../../libs/PoliTeKDSP/libs/libDaisy/src/hid/disp/graphics_common.h **** 
  31:../../libs/PoliTeKDSP/libs/libDaisy/src/hid/disp/graphics_common.h ****     Rectangle(int16_t x, int16_t y, int16_t width, int16_t height)
  32:../../libs/PoliTeKDSP/libs/libDaisy/src/hid/disp/graphics_common.h ****     : x_(x), y_(y), width_(max(0, width)), height_(max(0, height))
  33:../../libs/PoliTeKDSP/libs/libDaisy/src/hid/disp/graphics_common.h ****     {
  34:../../libs/PoliTeKDSP/libs/libDaisy/src/hid/disp/graphics_common.h ****     }
  35:../../libs/PoliTeKDSP/libs/libDaisy/src/hid/disp/graphics_common.h **** 
  36:../../libs/PoliTeKDSP/libs/libDaisy/src/hid/disp/graphics_common.h ****     Rectangle(const Rectangle& other) { *this = other; }
  37:../../libs/PoliTeKDSP/libs/libDaisy/src/hid/disp/graphics_common.h **** 
ARM GAS  C:\Users\skipi\AppData\Local\Temp\ccs8qXFk.s 			page 59


  38:../../libs/PoliTeKDSP/libs/libDaisy/src/hid/disp/graphics_common.h ****     Rectangle& operator=(const Rectangle& other)
  39:../../libs/PoliTeKDSP/libs/libDaisy/src/hid/disp/graphics_common.h ****     {
  40:../../libs/PoliTeKDSP/libs/libDaisy/src/hid/disp/graphics_common.h ****         x_      = other.x_;
  41:../../libs/PoliTeKDSP/libs/libDaisy/src/hid/disp/graphics_common.h ****         y_      = other.y_;
  42:../../libs/PoliTeKDSP/libs/libDaisy/src/hid/disp/graphics_common.h ****         width_  = other.width_;
  43:../../libs/PoliTeKDSP/libs/libDaisy/src/hid/disp/graphics_common.h ****         height_ = other.height_;
  44:../../libs/PoliTeKDSP/libs/libDaisy/src/hid/disp/graphics_common.h ****         return *this;
  45:../../libs/PoliTeKDSP/libs/libDaisy/src/hid/disp/graphics_common.h ****     }
  46:../../libs/PoliTeKDSP/libs/libDaisy/src/hid/disp/graphics_common.h **** 
  47:../../libs/PoliTeKDSP/libs/libDaisy/src/hid/disp/graphics_common.h ****     bool operator==(const Rectangle& other) const
  48:../../libs/PoliTeKDSP/libs/libDaisy/src/hid/disp/graphics_common.h ****     {
  49:../../libs/PoliTeKDSP/libs/libDaisy/src/hid/disp/graphics_common.h ****         return (x_ == other.x_) && (y_ == other.y_) && (width_ == other.width_)
  50:../../libs/PoliTeKDSP/libs/libDaisy/src/hid/disp/graphics_common.h ****                && (height_ == other.height_);
  51:../../libs/PoliTeKDSP/libs/libDaisy/src/hid/disp/graphics_common.h ****     }
  52:../../libs/PoliTeKDSP/libs/libDaisy/src/hid/disp/graphics_common.h ****     bool operator!=(const Rectangle& other) const { return !(*this == other); }
  53:../../libs/PoliTeKDSP/libs/libDaisy/src/hid/disp/graphics_common.h **** 
  54:../../libs/PoliTeKDSP/libs/libDaisy/src/hid/disp/graphics_common.h ****     bool IsEmpty() const { return (width_ <= 0) || (height_ <= 0); }
  55:../../libs/PoliTeKDSP/libs/libDaisy/src/hid/disp/graphics_common.h **** 
  56:../../libs/PoliTeKDSP/libs/libDaisy/src/hid/disp/graphics_common.h ****     int16_t GetX() const { return x_; }
  57:../../libs/PoliTeKDSP/libs/libDaisy/src/hid/disp/graphics_common.h ****     int16_t GetY() const { return y_; }
  58:../../libs/PoliTeKDSP/libs/libDaisy/src/hid/disp/graphics_common.h ****     int16_t GetWidth() const { return width_; }
  59:../../libs/PoliTeKDSP/libs/libDaisy/src/hid/disp/graphics_common.h ****     int16_t GetHeight() const { return height_; }
  60:../../libs/PoliTeKDSP/libs/libDaisy/src/hid/disp/graphics_common.h ****     int16_t GetRight() const { return x_ + width_; }
  61:../../libs/PoliTeKDSP/libs/libDaisy/src/hid/disp/graphics_common.h ****     int16_t GetBottom() const { return y_ + height_; }
  62:../../libs/PoliTeKDSP/libs/libDaisy/src/hid/disp/graphics_common.h ****     int16_t GetCenterX() const { return x_ + width_ / 2; }
  63:../../libs/PoliTeKDSP/libs/libDaisy/src/hid/disp/graphics_common.h ****     int16_t GetCenterY() const { return y_ + height_ / 2; }
  64:../../libs/PoliTeKDSP/libs/libDaisy/src/hid/disp/graphics_common.h **** 
  65:../../libs/PoliTeKDSP/libs/libDaisy/src/hid/disp/graphics_common.h ****     Rectangle WithX(int16_t x) const { return {x, y_, width_, height_}; }
  66:../../libs/PoliTeKDSP/libs/libDaisy/src/hid/disp/graphics_common.h ****     Rectangle WithY(int16_t y) const { return {x_, y, width_, height_}; }
  67:../../libs/PoliTeKDSP/libs/libDaisy/src/hid/disp/graphics_common.h ****     Rectangle WithWidth(int16_t width) const
  68:../../libs/PoliTeKDSP/libs/libDaisy/src/hid/disp/graphics_common.h ****     {
  69:../../libs/PoliTeKDSP/libs/libDaisy/src/hid/disp/graphics_common.h ****         return {x_, y_, width, height_};
  70:../../libs/PoliTeKDSP/libs/libDaisy/src/hid/disp/graphics_common.h ****     }
  71:../../libs/PoliTeKDSP/libs/libDaisy/src/hid/disp/graphics_common.h ****     Rectangle WithHeight(int16_t height) const
  72:../../libs/PoliTeKDSP/libs/libDaisy/src/hid/disp/graphics_common.h ****     {
  73:../../libs/PoliTeKDSP/libs/libDaisy/src/hid/disp/graphics_common.h ****         return {x_, y_, width_, height};
  74:../../libs/PoliTeKDSP/libs/libDaisy/src/hid/disp/graphics_common.h ****     }
  75:../../libs/PoliTeKDSP/libs/libDaisy/src/hid/disp/graphics_common.h ****     Rectangle WithSize(int16_t width, int16_t height) const
  76:../../libs/PoliTeKDSP/libs/libDaisy/src/hid/disp/graphics_common.h ****     {
  77:../../libs/PoliTeKDSP/libs/libDaisy/src/hid/disp/graphics_common.h ****         return {x_, y_, width, height};
  78:../../libs/PoliTeKDSP/libs/libDaisy/src/hid/disp/graphics_common.h ****     }
  79:../../libs/PoliTeKDSP/libs/libDaisy/src/hid/disp/graphics_common.h ****     Rectangle WithWidthKeepingCenter(int16_t width) const
  80:../../libs/PoliTeKDSP/libs/libDaisy/src/hid/disp/graphics_common.h ****     {
  81:../../libs/PoliTeKDSP/libs/libDaisy/src/hid/disp/graphics_common.h ****         return Rectangle(x_, y_, width, height_)
  82:../../libs/PoliTeKDSP/libs/libDaisy/src/hid/disp/graphics_common.h ****             .WithCenter(GetCenterX(), GetCenterY());
  83:../../libs/PoliTeKDSP/libs/libDaisy/src/hid/disp/graphics_common.h ****     }
  84:../../libs/PoliTeKDSP/libs/libDaisy/src/hid/disp/graphics_common.h ****     Rectangle WithHeightKeepingCenter(int16_t height) const
  85:../../libs/PoliTeKDSP/libs/libDaisy/src/hid/disp/graphics_common.h ****     {
  86:../../libs/PoliTeKDSP/libs/libDaisy/src/hid/disp/graphics_common.h ****         return Rectangle(x_, y_, width_, height)
  87:../../libs/PoliTeKDSP/libs/libDaisy/src/hid/disp/graphics_common.h ****             .WithCenter(GetCenterX(), GetCenterY());
  88:../../libs/PoliTeKDSP/libs/libDaisy/src/hid/disp/graphics_common.h ****     }
  89:../../libs/PoliTeKDSP/libs/libDaisy/src/hid/disp/graphics_common.h ****     Rectangle WithSizeKeepingCenter(int16_t width, int16_t height) const
  90:../../libs/PoliTeKDSP/libs/libDaisy/src/hid/disp/graphics_common.h ****     {
  91:../../libs/PoliTeKDSP/libs/libDaisy/src/hid/disp/graphics_common.h ****         return Rectangle(x_, y_, width, height)
  92:../../libs/PoliTeKDSP/libs/libDaisy/src/hid/disp/graphics_common.h ****             .WithCenter(GetCenterX(), GetCenterY());
  93:../../libs/PoliTeKDSP/libs/libDaisy/src/hid/disp/graphics_common.h ****     }
  94:../../libs/PoliTeKDSP/libs/libDaisy/src/hid/disp/graphics_common.h **** 
ARM GAS  C:\Users\skipi\AppData\Local\Temp\ccs8qXFk.s 			page 60


  95:../../libs/PoliTeKDSP/libs/libDaisy/src/hid/disp/graphics_common.h ****     Rectangle Reduced(int16_t sizeToReduce) const
  96:../../libs/PoliTeKDSP/libs/libDaisy/src/hid/disp/graphics_common.h ****     {
  97:../../libs/PoliTeKDSP/libs/libDaisy/src/hid/disp/graphics_common.h ****         return {int16_t(x_ + sizeToReduce),
  98:../../libs/PoliTeKDSP/libs/libDaisy/src/hid/disp/graphics_common.h ****                 int16_t(y_ + sizeToReduce),
  99:../../libs/PoliTeKDSP/libs/libDaisy/src/hid/disp/graphics_common.h ****                 int16_t(width_ - 2 * sizeToReduce),
 100:../../libs/PoliTeKDSP/libs/libDaisy/src/hid/disp/graphics_common.h ****                 int16_t(height_ - 2 * sizeToReduce)};
 101:../../libs/PoliTeKDSP/libs/libDaisy/src/hid/disp/graphics_common.h ****     }
 102:../../libs/PoliTeKDSP/libs/libDaisy/src/hid/disp/graphics_common.h ****     Rectangle Reduced(int16_t xToReduce, int16_t yToReduce) const
 103:../../libs/PoliTeKDSP/libs/libDaisy/src/hid/disp/graphics_common.h ****     {
 104:../../libs/PoliTeKDSP/libs/libDaisy/src/hid/disp/graphics_common.h ****         return {int16_t(x_ + xToReduce),
 105:../../libs/PoliTeKDSP/libs/libDaisy/src/hid/disp/graphics_common.h ****                 int16_t(y_ + yToReduce),
 106:../../libs/PoliTeKDSP/libs/libDaisy/src/hid/disp/graphics_common.h ****                 int16_t(width_ - 2 * xToReduce),
 107:../../libs/PoliTeKDSP/libs/libDaisy/src/hid/disp/graphics_common.h ****                 int16_t(height_ - 2 * yToReduce)};
 108:../../libs/PoliTeKDSP/libs/libDaisy/src/hid/disp/graphics_common.h ****     }
 109:../../libs/PoliTeKDSP/libs/libDaisy/src/hid/disp/graphics_common.h **** 
 110:../../libs/PoliTeKDSP/libs/libDaisy/src/hid/disp/graphics_common.h ****     Rectangle Translated(int16_t x, int16_t y) const
 111:../../libs/PoliTeKDSP/libs/libDaisy/src/hid/disp/graphics_common.h ****     {
 112:../../libs/PoliTeKDSP/libs/libDaisy/src/hid/disp/graphics_common.h ****         return {int16_t(x_ + x), int16_t(y_ + y), width_, height_};
 113:../../libs/PoliTeKDSP/libs/libDaisy/src/hid/disp/graphics_common.h ****     }
 114:../../libs/PoliTeKDSP/libs/libDaisy/src/hid/disp/graphics_common.h **** 
 115:../../libs/PoliTeKDSP/libs/libDaisy/src/hid/disp/graphics_common.h ****     Rectangle WithLeft(int16_t left) const
 116:../../libs/PoliTeKDSP/libs/libDaisy/src/hid/disp/graphics_common.h ****     {
 117:../../libs/PoliTeKDSP/libs/libDaisy/src/hid/disp/graphics_common.h ****         const auto newWidth = int16_t((x_ - left) + width_);
 118:../../libs/PoliTeKDSP/libs/libDaisy/src/hid/disp/graphics_common.h ****         return {left, y_, newWidth, height_};
 119:../../libs/PoliTeKDSP/libs/libDaisy/src/hid/disp/graphics_common.h ****     }
 120:../../libs/PoliTeKDSP/libs/libDaisy/src/hid/disp/graphics_common.h **** 
 121:../../libs/PoliTeKDSP/libs/libDaisy/src/hid/disp/graphics_common.h ****     Rectangle WithRight(int16_t right) const
 122:../../libs/PoliTeKDSP/libs/libDaisy/src/hid/disp/graphics_common.h ****     {
 123:../../libs/PoliTeKDSP/libs/libDaisy/src/hid/disp/graphics_common.h ****         const auto newWidth = int16_t(right - x_);
 124:../../libs/PoliTeKDSP/libs/libDaisy/src/hid/disp/graphics_common.h ****         return {x_, y_, newWidth, height_};
 125:../../libs/PoliTeKDSP/libs/libDaisy/src/hid/disp/graphics_common.h ****     }
 126:../../libs/PoliTeKDSP/libs/libDaisy/src/hid/disp/graphics_common.h **** 
 127:../../libs/PoliTeKDSP/libs/libDaisy/src/hid/disp/graphics_common.h ****     Rectangle WithTop(int16_t top) const
 128:../../libs/PoliTeKDSP/libs/libDaisy/src/hid/disp/graphics_common.h ****     {
 129:../../libs/PoliTeKDSP/libs/libDaisy/src/hid/disp/graphics_common.h ****         const auto newHeight = int16_t((y_ - top) + height_);
 130:../../libs/PoliTeKDSP/libs/libDaisy/src/hid/disp/graphics_common.h ****         return {x_, top, width_, newHeight};
 131:../../libs/PoliTeKDSP/libs/libDaisy/src/hid/disp/graphics_common.h ****     }
 132:../../libs/PoliTeKDSP/libs/libDaisy/src/hid/disp/graphics_common.h **** 
 133:../../libs/PoliTeKDSP/libs/libDaisy/src/hid/disp/graphics_common.h ****     Rectangle WithBottom(int16_t bottom) const
 134:../../libs/PoliTeKDSP/libs/libDaisy/src/hid/disp/graphics_common.h ****     {
 135:../../libs/PoliTeKDSP/libs/libDaisy/src/hid/disp/graphics_common.h ****         const auto newHeight = int16_t(bottom - y_);
 136:../../libs/PoliTeKDSP/libs/libDaisy/src/hid/disp/graphics_common.h ****         return {x_, y_, width_, newHeight};
 137:../../libs/PoliTeKDSP/libs/libDaisy/src/hid/disp/graphics_common.h ****     }
 138:../../libs/PoliTeKDSP/libs/libDaisy/src/hid/disp/graphics_common.h **** 
 139:../../libs/PoliTeKDSP/libs/libDaisy/src/hid/disp/graphics_common.h ****     Rectangle WithTrimmedLeft(int16_t pxToTrim) const
 140:../../libs/PoliTeKDSP/libs/libDaisy/src/hid/disp/graphics_common.h ****     {
 141:../../libs/PoliTeKDSP/libs/libDaisy/src/hid/disp/graphics_common.h ****         return {
 142:../../libs/PoliTeKDSP/libs/libDaisy/src/hid/disp/graphics_common.h ****             int16_t(x_ + pxToTrim), y_, int16_t(width_ - pxToTrim), height_};
 143:../../libs/PoliTeKDSP/libs/libDaisy/src/hid/disp/graphics_common.h ****     }
 144:../../libs/PoliTeKDSP/libs/libDaisy/src/hid/disp/graphics_common.h **** 
 145:../../libs/PoliTeKDSP/libs/libDaisy/src/hid/disp/graphics_common.h ****     Rectangle WithTrimmedRight(int16_t pxToTrim) const
 146:../../libs/PoliTeKDSP/libs/libDaisy/src/hid/disp/graphics_common.h ****     {
 147:../../libs/PoliTeKDSP/libs/libDaisy/src/hid/disp/graphics_common.h ****         return {x_, y_, int16_t(width_ - pxToTrim), height_};
 148:../../libs/PoliTeKDSP/libs/libDaisy/src/hid/disp/graphics_common.h ****     }
 149:../../libs/PoliTeKDSP/libs/libDaisy/src/hid/disp/graphics_common.h **** 
 150:../../libs/PoliTeKDSP/libs/libDaisy/src/hid/disp/graphics_common.h ****     Rectangle WithTrimmedTop(int16_t pxToTrim) const
 151:../../libs/PoliTeKDSP/libs/libDaisy/src/hid/disp/graphics_common.h ****     {
ARM GAS  C:\Users\skipi\AppData\Local\Temp\ccs8qXFk.s 			page 61


 152:../../libs/PoliTeKDSP/libs/libDaisy/src/hid/disp/graphics_common.h ****         return {
 153:../../libs/PoliTeKDSP/libs/libDaisy/src/hid/disp/graphics_common.h ****             x_, int16_t(y_ + pxToTrim), width_, int16_t(height_ - pxToTrim)};
 154:../../libs/PoliTeKDSP/libs/libDaisy/src/hid/disp/graphics_common.h ****     }
 155:../../libs/PoliTeKDSP/libs/libDaisy/src/hid/disp/graphics_common.h **** 
 156:../../libs/PoliTeKDSP/libs/libDaisy/src/hid/disp/graphics_common.h ****     Rectangle WithTrimmedBottom(int16_t pxToTrim) const
 157:../../libs/PoliTeKDSP/libs/libDaisy/src/hid/disp/graphics_common.h ****     {
 158:../../libs/PoliTeKDSP/libs/libDaisy/src/hid/disp/graphics_common.h ****         return {x_, y_, width_, int16_t(height_ - pxToTrim)};
 159:../../libs/PoliTeKDSP/libs/libDaisy/src/hid/disp/graphics_common.h ****     }
 160:../../libs/PoliTeKDSP/libs/libDaisy/src/hid/disp/graphics_common.h **** 
 161:../../libs/PoliTeKDSP/libs/libDaisy/src/hid/disp/graphics_common.h ****     Rectangle WithCenterX(int16_t centerX) const
 162:../../libs/PoliTeKDSP/libs/libDaisy/src/hid/disp/graphics_common.h ****     {
 163:../../libs/PoliTeKDSP/libs/libDaisy/src/hid/disp/graphics_common.h ****         return {int16_t(x_ + centerX - GetCenterX()), y_, width_, height_};
 164:../../libs/PoliTeKDSP/libs/libDaisy/src/hid/disp/graphics_common.h ****     }
 165:../../libs/PoliTeKDSP/libs/libDaisy/src/hid/disp/graphics_common.h **** 
 166:../../libs/PoliTeKDSP/libs/libDaisy/src/hid/disp/graphics_common.h ****     Rectangle WithCenterY(int16_t centerY) const
 167:../../libs/PoliTeKDSP/libs/libDaisy/src/hid/disp/graphics_common.h ****     {
 168:../../libs/PoliTeKDSP/libs/libDaisy/src/hid/disp/graphics_common.h ****         return {x_, int16_t(y_ + centerY - GetCenterY()), width_, height_};
 169:../../libs/PoliTeKDSP/libs/libDaisy/src/hid/disp/graphics_common.h ****     }
 170:../../libs/PoliTeKDSP/libs/libDaisy/src/hid/disp/graphics_common.h **** 
 171:../../libs/PoliTeKDSP/libs/libDaisy/src/hid/disp/graphics_common.h ****     Rectangle WithCenter(int16_t centerX, int16_t centerY) const
 172:../../libs/PoliTeKDSP/libs/libDaisy/src/hid/disp/graphics_common.h ****     {
 173:../../libs/PoliTeKDSP/libs/libDaisy/src/hid/disp/graphics_common.h ****         return {int16_t(x_ + centerX - GetCenterX()),
 174:../../libs/PoliTeKDSP/libs/libDaisy/src/hid/disp/graphics_common.h ****                 int16_t(y_ + centerY - GetCenterY()),
 175:../../libs/PoliTeKDSP/libs/libDaisy/src/hid/disp/graphics_common.h ****                 width_,
 176:../../libs/PoliTeKDSP/libs/libDaisy/src/hid/disp/graphics_common.h ****                 height_};
 177:../../libs/PoliTeKDSP/libs/libDaisy/src/hid/disp/graphics_common.h ****     }
 178:../../libs/PoliTeKDSP/libs/libDaisy/src/hid/disp/graphics_common.h **** 
 179:../../libs/PoliTeKDSP/libs/libDaisy/src/hid/disp/graphics_common.h ****     Rectangle RemoveFromLeft(int16_t pxToRemove)
 180:../../libs/PoliTeKDSP/libs/libDaisy/src/hid/disp/graphics_common.h ****     {
 181:../../libs/PoliTeKDSP/libs/libDaisy/src/hid/disp/graphics_common.h ****         const auto result = this->WithWidth(min(pxToRemove, width_));
 182:../../libs/PoliTeKDSP/libs/libDaisy/src/hid/disp/graphics_common.h ****         x_ += min(pxToRemove, width_);
 183:../../libs/PoliTeKDSP/libs/libDaisy/src/hid/disp/graphics_common.h ****         width_ = max(int16_t(width_ - pxToRemove), 0);
 184:../../libs/PoliTeKDSP/libs/libDaisy/src/hid/disp/graphics_common.h ****         return result;
 185:../../libs/PoliTeKDSP/libs/libDaisy/src/hid/disp/graphics_common.h ****     }
 186:../../libs/PoliTeKDSP/libs/libDaisy/src/hid/disp/graphics_common.h **** 
 187:../../libs/PoliTeKDSP/libs/libDaisy/src/hid/disp/graphics_common.h ****     Rectangle RemoveFromRight(int16_t pxToRemove)
 188:../../libs/PoliTeKDSP/libs/libDaisy/src/hid/disp/graphics_common.h ****     {
 189:../../libs/PoliTeKDSP/libs/libDaisy/src/hid/disp/graphics_common.h ****         const auto canRemove = min(pxToRemove, width_);
 190:../../libs/PoliTeKDSP/libs/libDaisy/src/hid/disp/graphics_common.h ****         width_ -= canRemove;
 191:../../libs/PoliTeKDSP/libs/libDaisy/src/hid/disp/graphics_common.h ****         return {int16_t(x_ + width_), y_, canRemove, height_};
 192:../../libs/PoliTeKDSP/libs/libDaisy/src/hid/disp/graphics_common.h ****     }
 193:../../libs/PoliTeKDSP/libs/libDaisy/src/hid/disp/graphics_common.h **** 
 194:../../libs/PoliTeKDSP/libs/libDaisy/src/hid/disp/graphics_common.h ****     Rectangle RemoveFromTop(int16_t pxToRemove)
 195:../../libs/PoliTeKDSP/libs/libDaisy/src/hid/disp/graphics_common.h ****     {
 196:../../libs/PoliTeKDSP/libs/libDaisy/src/hid/disp/graphics_common.h ****         const auto result = this->WithHeight(min(pxToRemove, height_));
 197:../../libs/PoliTeKDSP/libs/libDaisy/src/hid/disp/graphics_common.h ****         y_ += min(pxToRemove, height_);
 198:../../libs/PoliTeKDSP/libs/libDaisy/src/hid/disp/graphics_common.h ****         height_ = max(height_ - pxToRemove, 0);
 199:../../libs/PoliTeKDSP/libs/libDaisy/src/hid/disp/graphics_common.h ****         return result;
 200:../../libs/PoliTeKDSP/libs/libDaisy/src/hid/disp/graphics_common.h ****     }
 201:../../libs/PoliTeKDSP/libs/libDaisy/src/hid/disp/graphics_common.h **** 
 202:../../libs/PoliTeKDSP/libs/libDaisy/src/hid/disp/graphics_common.h ****     Rectangle RemoveFromBottom(int16_t pxToRemove)
 203:../../libs/PoliTeKDSP/libs/libDaisy/src/hid/disp/graphics_common.h ****     {
 204:../../libs/PoliTeKDSP/libs/libDaisy/src/hid/disp/graphics_common.h ****         const auto canRemove = min(pxToRemove, height_);
 205:../../libs/PoliTeKDSP/libs/libDaisy/src/hid/disp/graphics_common.h ****         height_ -= canRemove;
 206:../../libs/PoliTeKDSP/libs/libDaisy/src/hid/disp/graphics_common.h ****         return {x_, int16_t(y_ + height_), width_, canRemove};
 207:../../libs/PoliTeKDSP/libs/libDaisy/src/hid/disp/graphics_common.h ****     }
 208:../../libs/PoliTeKDSP/libs/libDaisy/src/hid/disp/graphics_common.h **** 
ARM GAS  C:\Users\skipi\AppData\Local\Temp\ccs8qXFk.s 			page 62


 209:../../libs/PoliTeKDSP/libs/libDaisy/src/hid/disp/graphics_common.h ****     Rectangle AlignedWithin(const Rectangle& other, Alignment alignment) const
 210:../../libs/PoliTeKDSP/libs/libDaisy/src/hid/disp/graphics_common.h ****     {
 211:../../libs/PoliTeKDSP/libs/libDaisy/src/hid/disp/graphics_common.h ****         switch(alignment)
 212:../../libs/PoliTeKDSP/libs/libDaisy/src/hid/disp/graphics_common.h ****         {
 213:../../libs/PoliTeKDSP/libs/libDaisy/src/hid/disp/graphics_common.h ****             case Alignment::topLeft:
 214:../../libs/PoliTeKDSP/libs/libDaisy/src/hid/disp/graphics_common.h ****                 return {other.x_, other.y_, width_, height_};
 215:../../libs/PoliTeKDSP/libs/libDaisy/src/hid/disp/graphics_common.h ****             case Alignment::topRight:
 216:../../libs/PoliTeKDSP/libs/libDaisy/src/hid/disp/graphics_common.h ****                 return {int16_t(other.GetRight() - width_),
 217:../../libs/PoliTeKDSP/libs/libDaisy/src/hid/disp/graphics_common.h ****                         other.y_,
 218:../../libs/PoliTeKDSP/libs/libDaisy/src/hid/disp/graphics_common.h ****                         width_,
 219:../../libs/PoliTeKDSP/libs/libDaisy/src/hid/disp/graphics_common.h ****                         height_};
 220:../../libs/PoliTeKDSP/libs/libDaisy/src/hid/disp/graphics_common.h ****             case Alignment::topCentered:
 221:../../libs/PoliTeKDSP/libs/libDaisy/src/hid/disp/graphics_common.h ****                 return {int16_t(x_ + (other.GetCenterX() - GetCenterX())),
 222:../../libs/PoliTeKDSP/libs/libDaisy/src/hid/disp/graphics_common.h ****                         other.y_,
 223:../../libs/PoliTeKDSP/libs/libDaisy/src/hid/disp/graphics_common.h ****                         width_,
 224:../../libs/PoliTeKDSP/libs/libDaisy/src/hid/disp/graphics_common.h ****                         height_};
 225:../../libs/PoliTeKDSP/libs/libDaisy/src/hid/disp/graphics_common.h ****             case Alignment::bottomLeft:
 226:../../libs/PoliTeKDSP/libs/libDaisy/src/hid/disp/graphics_common.h ****                 return {other.x_,
 227:../../libs/PoliTeKDSP/libs/libDaisy/src/hid/disp/graphics_common.h ****                         int16_t(other.GetBottom() - height_),
 228:../../libs/PoliTeKDSP/libs/libDaisy/src/hid/disp/graphics_common.h ****                         width_,
 229:../../libs/PoliTeKDSP/libs/libDaisy/src/hid/disp/graphics_common.h ****                         height_};
 230:../../libs/PoliTeKDSP/libs/libDaisy/src/hid/disp/graphics_common.h ****             case Alignment::bottomRight:
 231:../../libs/PoliTeKDSP/libs/libDaisy/src/hid/disp/graphics_common.h ****                 return {int16_t(other.GetRight() - width_),
 232:../../libs/PoliTeKDSP/libs/libDaisy/src/hid/disp/graphics_common.h ****                         int16_t(other.GetBottom() - height_),
 233:../../libs/PoliTeKDSP/libs/libDaisy/src/hid/disp/graphics_common.h ****                         width_,
 234:../../libs/PoliTeKDSP/libs/libDaisy/src/hid/disp/graphics_common.h ****                         height_};
 235:../../libs/PoliTeKDSP/libs/libDaisy/src/hid/disp/graphics_common.h ****             case Alignment::bottomCentered:
 236:../../libs/PoliTeKDSP/libs/libDaisy/src/hid/disp/graphics_common.h ****                 return {int16_t(x_ + (other.GetCenterX() - GetCenterX())),
