ARM GAS  C:\Users\skipi\AppData\Local\Temp\ccs8qXFk.s 			page 1


   1              		.cpu cortex-m7
   2              		.eabi_attribute 28, 1
   3              		.eabi_attribute 20, 1
   4              		.eabi_attribute 21, 1
   5              		.eabi_attribute 23, 3
   6              		.eabi_attribute 24, 1
   7              		.eabi_attribute 25, 1
   8              		.eabi_attribute 26, 1
   9              		.eabi_attribute 30, 2
  10              		.eabi_attribute 34, 1
  11              		.eabi_attribute 18, 4
  12              		.file	"main.cpp"
  13              		.text
  14              	.Ltext0:
  15              		.cfi_sections	.debug_frame
  16              		.section	.text._ZN5daisy7EncoderD2Ev,"axG",%progbits,_ZN5daisy7EncoderD5Ev,comdat
  17              		.align	1
  18              		.p2align 2,,3
  19              		.weak	_ZN5daisy7EncoderD2Ev
  20              		.arch armv7e-m
  21              		.syntax unified
  22              		.thumb
  23              		.thumb_func
  24              		.fpu fpv5-d16
  26              	_ZN5daisy7EncoderD2Ev:
  27              	.LVL0:
  28              	.LFB1699:
  29              		.file 1 "../../libs/PoliTeKDSP/libs/libDaisy/src/hid/encoder.h"
   1:../../libs/PoliTeKDSP/libs/libDaisy/src/hid/encoder.h **** #pragma once
   2:../../libs/PoliTeKDSP/libs/libDaisy/src/hid/encoder.h **** #ifndef DSY_ENCODER_H
   3:../../libs/PoliTeKDSP/libs/libDaisy/src/hid/encoder.h **** #define DSY_ENCODER_H
   4:../../libs/PoliTeKDSP/libs/libDaisy/src/hid/encoder.h **** #include "daisy_core.h"
   5:../../libs/PoliTeKDSP/libs/libDaisy/src/hid/encoder.h **** #include "per/gpio.h"
   6:../../libs/PoliTeKDSP/libs/libDaisy/src/hid/encoder.h **** #include "hid/switch.h"
   7:../../libs/PoliTeKDSP/libs/libDaisy/src/hid/encoder.h **** 
   8:../../libs/PoliTeKDSP/libs/libDaisy/src/hid/encoder.h **** namespace daisy
   9:../../libs/PoliTeKDSP/libs/libDaisy/src/hid/encoder.h **** {
  10:../../libs/PoliTeKDSP/libs/libDaisy/src/hid/encoder.h **** /** 
  11:../../libs/PoliTeKDSP/libs/libDaisy/src/hid/encoder.h ****     @brief Generic Class for handling Quadrature Encoders \n 
  12:../../libs/PoliTeKDSP/libs/libDaisy/src/hid/encoder.h ****     Inspired/influenced by Mutable Instruments (pichenettes) Encoder classes
  13:../../libs/PoliTeKDSP/libs/libDaisy/src/hid/encoder.h ****     @author Stephen Hensley
  14:../../libs/PoliTeKDSP/libs/libDaisy/src/hid/encoder.h ****     @date December 2019
  15:../../libs/PoliTeKDSP/libs/libDaisy/src/hid/encoder.h ****     @ingroup controls
  16:../../libs/PoliTeKDSP/libs/libDaisy/src/hid/encoder.h **** */
  17:../../libs/PoliTeKDSP/libs/libDaisy/src/hid/encoder.h **** class Encoder
  18:../../libs/PoliTeKDSP/libs/libDaisy/src/hid/encoder.h **** {
  19:../../libs/PoliTeKDSP/libs/libDaisy/src/hid/encoder.h ****   public:
  20:../../libs/PoliTeKDSP/libs/libDaisy/src/hid/encoder.h ****     Encoder() {}
  21:../../libs/PoliTeKDSP/libs/libDaisy/src/hid/encoder.h ****     ~Encoder() {}
  30              		.loc 1 21 5 view -0
  31              		.cfi_startproc
  32              		@ args = 0, pretend = 0, frame = 0
  33              		@ frame_needed = 0, uses_anonymous_args = 0
  34              		@ link register save eliminated.
  35              	.LBB568:
  36              	.LBI568:
  37              		.file 2 "../../libs/PoliTeKDSP/libs/libDaisy/src/hid/switch.h"
ARM GAS  C:\Users\skipi\AppData\Local\Temp\ccs8qXFk.s 			page 2


   1:../../libs/PoliTeKDSP/libs/libDaisy/src/hid/switch.h **** #pragma once
   2:../../libs/PoliTeKDSP/libs/libDaisy/src/hid/switch.h **** #ifndef DSY_SWITCH_H
   3:../../libs/PoliTeKDSP/libs/libDaisy/src/hid/switch.h **** #define DSY_SWITCH_H
   4:../../libs/PoliTeKDSP/libs/libDaisy/src/hid/switch.h **** #include "daisy_core.h"
   5:../../libs/PoliTeKDSP/libs/libDaisy/src/hid/switch.h **** #include "per/gpio.h"
   6:../../libs/PoliTeKDSP/libs/libDaisy/src/hid/switch.h **** #include "sys/system.h"
   7:../../libs/PoliTeKDSP/libs/libDaisy/src/hid/switch.h **** 
   8:../../libs/PoliTeKDSP/libs/libDaisy/src/hid/switch.h **** namespace daisy
   9:../../libs/PoliTeKDSP/libs/libDaisy/src/hid/switch.h **** {
  10:../../libs/PoliTeKDSP/libs/libDaisy/src/hid/switch.h **** /** 
  11:../../libs/PoliTeKDSP/libs/libDaisy/src/hid/switch.h ****     Generic Class for handling momentary/latching switches \n 
  12:../../libs/PoliTeKDSP/libs/libDaisy/src/hid/switch.h ****     Inspired/influenced by Mutable Instruments (pichenettes) Switch classes
  13:../../libs/PoliTeKDSP/libs/libDaisy/src/hid/switch.h ****     @author Stephen Hensley
  14:../../libs/PoliTeKDSP/libs/libDaisy/src/hid/switch.h ****     @date December 2019
  15:../../libs/PoliTeKDSP/libs/libDaisy/src/hid/switch.h ****     @ingroup controls
  16:../../libs/PoliTeKDSP/libs/libDaisy/src/hid/switch.h **** */
  17:../../libs/PoliTeKDSP/libs/libDaisy/src/hid/switch.h **** class Switch
  18:../../libs/PoliTeKDSP/libs/libDaisy/src/hid/switch.h **** {
  19:../../libs/PoliTeKDSP/libs/libDaisy/src/hid/switch.h ****   public:
  20:../../libs/PoliTeKDSP/libs/libDaisy/src/hid/switch.h ****     /** Specifies the expected behavior of the switch */
  21:../../libs/PoliTeKDSP/libs/libDaisy/src/hid/switch.h ****     enum Type
  22:../../libs/PoliTeKDSP/libs/libDaisy/src/hid/switch.h ****     {
  23:../../libs/PoliTeKDSP/libs/libDaisy/src/hid/switch.h ****         TYPE_TOGGLE,    /**< & */
  24:../../libs/PoliTeKDSP/libs/libDaisy/src/hid/switch.h ****         TYPE_MOMENTARY, /**< & */
  25:../../libs/PoliTeKDSP/libs/libDaisy/src/hid/switch.h ****     };
  26:../../libs/PoliTeKDSP/libs/libDaisy/src/hid/switch.h ****     /** Specifies whether the pressed is HIGH or LOW. */
  27:../../libs/PoliTeKDSP/libs/libDaisy/src/hid/switch.h ****     enum Polarity
  28:../../libs/PoliTeKDSP/libs/libDaisy/src/hid/switch.h ****     {
  29:../../libs/PoliTeKDSP/libs/libDaisy/src/hid/switch.h ****         POLARITY_NORMAL,   /**< & */
  30:../../libs/PoliTeKDSP/libs/libDaisy/src/hid/switch.h ****         POLARITY_INVERTED, /**< & */
  31:../../libs/PoliTeKDSP/libs/libDaisy/src/hid/switch.h ****     };
  32:../../libs/PoliTeKDSP/libs/libDaisy/src/hid/switch.h **** 
  33:../../libs/PoliTeKDSP/libs/libDaisy/src/hid/switch.h ****     Switch() {}
  34:../../libs/PoliTeKDSP/libs/libDaisy/src/hid/switch.h ****     ~Switch() {}
  38              		.loc 2 34 5 view .LVU1
  39              		.loc 2 34 5 is_stmt 0 view .LVU2
  40              	.LBE568:
  41              		.loc 1 21 17 view .LVU3
  42 0000 7047     		bx	lr
  43              		.cfi_endproc
  44              	.LFE1699:
  46              		.weak	_ZN5daisy7EncoderD1Ev
  47              		.thumb_set _ZN5daisy7EncoderD1Ev,_ZN5daisy7EncoderD2Ev
  48 0002 00BF     		.section	.text._ZN5daisy9DaisySeedD2Ev,"axG",%progbits,_ZN5daisy9DaisySeedD5Ev,comdat
  49              		.align	1
  50              		.p2align 2,,3
  51              		.weak	_ZN5daisy9DaisySeedD2Ev
  52              		.syntax unified
  53              		.thumb
  54              		.thumb_func
  55              		.fpu fpv5-d16
  57              	_ZN5daisy9DaisySeedD2Ev:
  58              	.LVL1:
  59              	.LFB2729:
  60              		.file 3 "../../libs/PoliTeKDSP/libs/libDaisy/src/daisy_seed.h"
   1:../../libs/PoliTeKDSP/libs/libDaisy/src/daisy_seed.h **** #pragma once
   2:../../libs/PoliTeKDSP/libs/libDaisy/src/daisy_seed.h **** #ifndef DSY_SEED_H
ARM GAS  C:\Users\skipi\AppData\Local\Temp\ccs8qXFk.s 			page 3


   3:../../libs/PoliTeKDSP/libs/libDaisy/src/daisy_seed.h **** #define DSY_SEED_H
   4:../../libs/PoliTeKDSP/libs/libDaisy/src/daisy_seed.h **** 
   5:../../libs/PoliTeKDSP/libs/libDaisy/src/daisy_seed.h **** #include "daisy.h"
   6:../../libs/PoliTeKDSP/libs/libDaisy/src/daisy_seed.h **** 
   7:../../libs/PoliTeKDSP/libs/libDaisy/src/daisy_seed.h **** //Uncomment this out if you're still using the rev2 hardware
   8:../../libs/PoliTeKDSP/libs/libDaisy/src/daisy_seed.h **** //#define SEED_REV2
   9:../../libs/PoliTeKDSP/libs/libDaisy/src/daisy_seed.h **** 
  10:../../libs/PoliTeKDSP/libs/libDaisy/src/daisy_seed.h **** namespace daisy
  11:../../libs/PoliTeKDSP/libs/libDaisy/src/daisy_seed.h **** {
  12:../../libs/PoliTeKDSP/libs/libDaisy/src/daisy_seed.h **** /**
  13:../../libs/PoliTeKDSP/libs/libDaisy/src/daisy_seed.h ****    @brief This is the higher-level interface for the Daisy board. \n 
  14:../../libs/PoliTeKDSP/libs/libDaisy/src/daisy_seed.h ****     All basic peripheral configuration/initialization is setup here. \n
  15:../../libs/PoliTeKDSP/libs/libDaisy/src/daisy_seed.h **** 
  16:../../libs/PoliTeKDSP/libs/libDaisy/src/daisy_seed.h ****    @ingroup boards
  17:../../libs/PoliTeKDSP/libs/libDaisy/src/daisy_seed.h **** */
  18:../../libs/PoliTeKDSP/libs/libDaisy/src/daisy_seed.h **** class DaisySeed
  19:../../libs/PoliTeKDSP/libs/libDaisy/src/daisy_seed.h **** {
  20:../../libs/PoliTeKDSP/libs/libDaisy/src/daisy_seed.h ****   public:
  21:../../libs/PoliTeKDSP/libs/libDaisy/src/daisy_seed.h ****     DaisySeed() {}
  22:../../libs/PoliTeKDSP/libs/libDaisy/src/daisy_seed.h ****     ~DaisySeed() {}
  61              		.loc 3 22 5 is_stmt 1 view -0
  62              		.cfi_startproc
  63              		@ args = 0, pretend = 0, frame = 0
  64              		@ frame_needed = 0, uses_anonymous_args = 0
  65              		@ link register save eliminated.
  66              	.LBB569:
  67              	.LBI569:
  68              		.file 4 "../../libs/PoliTeKDSP/libs/libDaisy/src/dev/codec_ak4556.h"
   1:../../libs/PoliTeKDSP/libs/libDaisy/src/dev/codec_ak4556.h **** #pragma once
   2:../../libs/PoliTeKDSP/libs/libDaisy/src/dev/codec_ak4556.h **** #ifndef DSY_CODEC_AK4556_H
   3:../../libs/PoliTeKDSP/libs/libDaisy/src/dev/codec_ak4556.h **** #define DSY_CODEC_AK4556_H
   4:../../libs/PoliTeKDSP/libs/libDaisy/src/dev/codec_ak4556.h **** 
   5:../../libs/PoliTeKDSP/libs/libDaisy/src/dev/codec_ak4556.h **** #include "daisy_core.h"
   6:../../libs/PoliTeKDSP/libs/libDaisy/src/dev/codec_ak4556.h **** #include "per/gpio.h"
   7:../../libs/PoliTeKDSP/libs/libDaisy/src/dev/codec_ak4556.h **** 
   8:../../libs/PoliTeKDSP/libs/libDaisy/src/dev/codec_ak4556.h **** namespace daisy
   9:../../libs/PoliTeKDSP/libs/libDaisy/src/dev/codec_ak4556.h **** {
  10:../../libs/PoliTeKDSP/libs/libDaisy/src/dev/codec_ak4556.h **** /** @brief Ak4556 Codec support 
  11:../../libs/PoliTeKDSP/libs/libDaisy/src/dev/codec_ak4556.h ****  ** @author shensley
  12:../../libs/PoliTeKDSP/libs/libDaisy/src/dev/codec_ak4556.h ****  ** @addtogroup codec
  13:../../libs/PoliTeKDSP/libs/libDaisy/src/dev/codec_ak4556.h ****  ** 
  14:../../libs/PoliTeKDSP/libs/libDaisy/src/dev/codec_ak4556.h ****  ** I don't see any real reason to have this be more than a function, but in case we want
  15:../../libs/PoliTeKDSP/libs/libDaisy/src/dev/codec_ak4556.h ****  ** to add other functions down the road I wrapped the function in a class.
  16:../../libs/PoliTeKDSP/libs/libDaisy/src/dev/codec_ak4556.h ****  ***/
  17:../../libs/PoliTeKDSP/libs/libDaisy/src/dev/codec_ak4556.h **** class Ak4556
  18:../../libs/PoliTeKDSP/libs/libDaisy/src/dev/codec_ak4556.h **** {
  19:../../libs/PoliTeKDSP/libs/libDaisy/src/dev/codec_ak4556.h ****   public:
  20:../../libs/PoliTeKDSP/libs/libDaisy/src/dev/codec_ak4556.h ****     Ak4556() {}
  21:../../libs/PoliTeKDSP/libs/libDaisy/src/dev/codec_ak4556.h ****     ~Ak4556() {}
  69              		.loc 4 21 5 view .LVU5
  70              		.loc 4 21 5 is_stmt 0 view .LVU6
  71              	.LBE569:
  72              	.LBB570:
  73              	.LBI570:
  74              		.file 5 "../../libs/PoliTeKDSP/libs/libDaisy/src/sys/system.h"
   1:../../libs/PoliTeKDSP/libs/libDaisy/src/sys/system.h **** #ifndef DSY_SYSTEM_H
   2:../../libs/PoliTeKDSP/libs/libDaisy/src/sys/system.h **** #define DSY_SYSTEM_H
ARM GAS  C:\Users\skipi\AppData\Local\Temp\ccs8qXFk.s 			page 4


   3:../../libs/PoliTeKDSP/libs/libDaisy/src/sys/system.h **** 
   4:../../libs/PoliTeKDSP/libs/libDaisy/src/sys/system.h **** #ifndef UNIT_TEST // for unit tests, a dummy implementation is provided below
   5:../../libs/PoliTeKDSP/libs/libDaisy/src/sys/system.h **** 
   6:../../libs/PoliTeKDSP/libs/libDaisy/src/sys/system.h **** #include <cstdint>
   7:../../libs/PoliTeKDSP/libs/libDaisy/src/sys/system.h **** #include "per/tim.h"
   8:../../libs/PoliTeKDSP/libs/libDaisy/src/sys/system.h **** 
   9:../../libs/PoliTeKDSP/libs/libDaisy/src/sys/system.h **** namespace daisy
  10:../../libs/PoliTeKDSP/libs/libDaisy/src/sys/system.h **** {
  11:../../libs/PoliTeKDSP/libs/libDaisy/src/sys/system.h **** /** A handle for interacting with the Core System.
  12:../../libs/PoliTeKDSP/libs/libDaisy/src/sys/system.h ****  ** This includes the Clock tree, MPU, global DMA initialization,
  13:../../libs/PoliTeKDSP/libs/libDaisy/src/sys/system.h ****  ** cache handling, and any other necessary global initiailzation
  14:../../libs/PoliTeKDSP/libs/libDaisy/src/sys/system.h ****  **
  15:../../libs/PoliTeKDSP/libs/libDaisy/src/sys/system.h ****  ** @author shensley
  16:../../libs/PoliTeKDSP/libs/libDaisy/src/sys/system.h ****  ** @ingroup system
  17:../../libs/PoliTeKDSP/libs/libDaisy/src/sys/system.h ****  */
  18:../../libs/PoliTeKDSP/libs/libDaisy/src/sys/system.h **** class System
  19:../../libs/PoliTeKDSP/libs/libDaisy/src/sys/system.h **** {
  20:../../libs/PoliTeKDSP/libs/libDaisy/src/sys/system.h ****   public:
  21:../../libs/PoliTeKDSP/libs/libDaisy/src/sys/system.h ****     /** Contains settings for initializing the System */
  22:../../libs/PoliTeKDSP/libs/libDaisy/src/sys/system.h ****     struct Config
  23:../../libs/PoliTeKDSP/libs/libDaisy/src/sys/system.h ****     {
  24:../../libs/PoliTeKDSP/libs/libDaisy/src/sys/system.h ****         /** Specifies the system clock frequency that feeds APB/AHB clocks, etc. */
  25:../../libs/PoliTeKDSP/libs/libDaisy/src/sys/system.h ****         enum class SysClkFreq
  26:../../libs/PoliTeKDSP/libs/libDaisy/src/sys/system.h ****         {
  27:../../libs/PoliTeKDSP/libs/libDaisy/src/sys/system.h ****             FREQ_400MHZ,
  28:../../libs/PoliTeKDSP/libs/libDaisy/src/sys/system.h ****             FREQ_480MHZ,
  29:../../libs/PoliTeKDSP/libs/libDaisy/src/sys/system.h ****         };
  30:../../libs/PoliTeKDSP/libs/libDaisy/src/sys/system.h **** 
  31:../../libs/PoliTeKDSP/libs/libDaisy/src/sys/system.h ****         /** Method to call on the struct to set to defaults
  32:../../libs/PoliTeKDSP/libs/libDaisy/src/sys/system.h ****          ** CPU Freq set to 400MHz
  33:../../libs/PoliTeKDSP/libs/libDaisy/src/sys/system.h ****          ** Cache Enabled
  34:../../libs/PoliTeKDSP/libs/libDaisy/src/sys/system.h ****          ** */
  35:../../libs/PoliTeKDSP/libs/libDaisy/src/sys/system.h ****         void Defaults()
  36:../../libs/PoliTeKDSP/libs/libDaisy/src/sys/system.h ****         {
  37:../../libs/PoliTeKDSP/libs/libDaisy/src/sys/system.h ****             cpu_freq    = SysClkFreq::FREQ_400MHZ;
  38:../../libs/PoliTeKDSP/libs/libDaisy/src/sys/system.h ****             use_dcache  = true;
  39:../../libs/PoliTeKDSP/libs/libDaisy/src/sys/system.h ****             use_icache  = true;
  40:../../libs/PoliTeKDSP/libs/libDaisy/src/sys/system.h ****             skip_clocks = false;
  41:../../libs/PoliTeKDSP/libs/libDaisy/src/sys/system.h ****         }
  42:../../libs/PoliTeKDSP/libs/libDaisy/src/sys/system.h **** 
  43:../../libs/PoliTeKDSP/libs/libDaisy/src/sys/system.h ****         /** Method to call on the struct to set to boost mode:
  44:../../libs/PoliTeKDSP/libs/libDaisy/src/sys/system.h ****          ** CPU Freq set to 480MHz
  45:../../libs/PoliTeKDSP/libs/libDaisy/src/sys/system.h ****          ** Cache Enabled
  46:../../libs/PoliTeKDSP/libs/libDaisy/src/sys/system.h ****          ** */
  47:../../libs/PoliTeKDSP/libs/libDaisy/src/sys/system.h ****         void Boost()
  48:../../libs/PoliTeKDSP/libs/libDaisy/src/sys/system.h ****         {
  49:../../libs/PoliTeKDSP/libs/libDaisy/src/sys/system.h ****             cpu_freq    = SysClkFreq::FREQ_480MHZ;
  50:../../libs/PoliTeKDSP/libs/libDaisy/src/sys/system.h ****             use_dcache  = true;
  51:../../libs/PoliTeKDSP/libs/libDaisy/src/sys/system.h ****             use_icache  = true;
  52:../../libs/PoliTeKDSP/libs/libDaisy/src/sys/system.h ****             skip_clocks = false;
  53:../../libs/PoliTeKDSP/libs/libDaisy/src/sys/system.h ****         }
  54:../../libs/PoliTeKDSP/libs/libDaisy/src/sys/system.h **** 
  55:../../libs/PoliTeKDSP/libs/libDaisy/src/sys/system.h ****         SysClkFreq cpu_freq;
  56:../../libs/PoliTeKDSP/libs/libDaisy/src/sys/system.h ****         bool       use_dcache;
  57:../../libs/PoliTeKDSP/libs/libDaisy/src/sys/system.h ****         bool       use_icache;
  58:../../libs/PoliTeKDSP/libs/libDaisy/src/sys/system.h ****         bool       skip_clocks;
  59:../../libs/PoliTeKDSP/libs/libDaisy/src/sys/system.h ****     };
ARM GAS  C:\Users\skipi\AppData\Local\Temp\ccs8qXFk.s 			page 5


  60:../../libs/PoliTeKDSP/libs/libDaisy/src/sys/system.h **** 
  61:../../libs/PoliTeKDSP/libs/libDaisy/src/sys/system.h ****     /** Describes the different regions of memory available to the Daisy */
  62:../../libs/PoliTeKDSP/libs/libDaisy/src/sys/system.h ****     enum MemoryRegion
  63:../../libs/PoliTeKDSP/libs/libDaisy/src/sys/system.h ****     {
  64:../../libs/PoliTeKDSP/libs/libDaisy/src/sys/system.h ****         INTERNAL_FLASH = 0,
  65:../../libs/PoliTeKDSP/libs/libDaisy/src/sys/system.h ****         ITCMRAM,
  66:../../libs/PoliTeKDSP/libs/libDaisy/src/sys/system.h ****         DTCMRAM,
  67:../../libs/PoliTeKDSP/libs/libDaisy/src/sys/system.h ****         SRAM_D1,
  68:../../libs/PoliTeKDSP/libs/libDaisy/src/sys/system.h ****         SRAM_D2,
  69:../../libs/PoliTeKDSP/libs/libDaisy/src/sys/system.h ****         SRAM_D3,
  70:../../libs/PoliTeKDSP/libs/libDaisy/src/sys/system.h ****         SDRAM,
  71:../../libs/PoliTeKDSP/libs/libDaisy/src/sys/system.h ****         QSPI,
  72:../../libs/PoliTeKDSP/libs/libDaisy/src/sys/system.h ****         INVALID_ADDRESS,
  73:../../libs/PoliTeKDSP/libs/libDaisy/src/sys/system.h ****     };
  74:../../libs/PoliTeKDSP/libs/libDaisy/src/sys/system.h **** 
  75:../../libs/PoliTeKDSP/libs/libDaisy/src/sys/system.h ****     /** Bootloader struct for controlling bootloading parameters */
  76:../../libs/PoliTeKDSP/libs/libDaisy/src/sys/system.h ****     struct BootInfo
  77:../../libs/PoliTeKDSP/libs/libDaisy/src/sys/system.h ****     {
  78:../../libs/PoliTeKDSP/libs/libDaisy/src/sys/system.h ****         enum class Type : uint32_t
  79:../../libs/PoliTeKDSP/libs/libDaisy/src/sys/system.h ****         {
  80:../../libs/PoliTeKDSP/libs/libDaisy/src/sys/system.h ****             INVALID      = 0x00000000,
  81:../../libs/PoliTeKDSP/libs/libDaisy/src/sys/system.h ****             JUMP         = 0xDEADBEEF,
  82:../../libs/PoliTeKDSP/libs/libDaisy/src/sys/system.h ****             SKIP_TIMEOUT = 0x5AFEB007,
  83:../../libs/PoliTeKDSP/libs/libDaisy/src/sys/system.h ****             INF_TIMEOUT  = 0xB0074EFA,
  84:../../libs/PoliTeKDSP/libs/libDaisy/src/sys/system.h ****         } status;
  85:../../libs/PoliTeKDSP/libs/libDaisy/src/sys/system.h ****         uint32_t data;
  86:../../libs/PoliTeKDSP/libs/libDaisy/src/sys/system.h ****         enum class Version : uint32_t
  87:../../libs/PoliTeKDSP/libs/libDaisy/src/sys/system.h ****         {
  88:../../libs/PoliTeKDSP/libs/libDaisy/src/sys/system.h ****             LT_v6_0 = 0, // Less than v6.0
  89:../../libs/PoliTeKDSP/libs/libDaisy/src/sys/system.h ****             NONE,        // No bootloader present
  90:../../libs/PoliTeKDSP/libs/libDaisy/src/sys/system.h ****             v6_0,        // v6.0
  91:../../libs/PoliTeKDSP/libs/libDaisy/src/sys/system.h ****             v6_1,        // v6.1 or greater
  92:../../libs/PoliTeKDSP/libs/libDaisy/src/sys/system.h ****             LAST
  93:../../libs/PoliTeKDSP/libs/libDaisy/src/sys/system.h ****         } version;
  94:../../libs/PoliTeKDSP/libs/libDaisy/src/sys/system.h ****     };
  95:../../libs/PoliTeKDSP/libs/libDaisy/src/sys/system.h **** 
  96:../../libs/PoliTeKDSP/libs/libDaisy/src/sys/system.h ****     System() {}
  97:../../libs/PoliTeKDSP/libs/libDaisy/src/sys/system.h ****     ~System() {}
  75              		.loc 5 97 5 is_stmt 1 view .LVU7
  76              		.loc 5 97 5 is_stmt 0 view .LVU8
  77              	.LBE570:
  78              	.LBB571:
  79              	.LBI571:
  80              		.file 6 "../../libs/PoliTeKDSP/libs/libDaisy/src/hid/usb.h"
   1:../../libs/PoliTeKDSP/libs/libDaisy/src/hid/usb.h **** #pragma once
   2:../../libs/PoliTeKDSP/libs/libDaisy/src/hid/usb.h **** #ifndef DSY_HID_USB_H
   3:../../libs/PoliTeKDSP/libs/libDaisy/src/hid/usb.h **** #define DSY_HID_USB_H
   4:../../libs/PoliTeKDSP/libs/libDaisy/src/hid/usb.h **** #include <stdint.h>
   5:../../libs/PoliTeKDSP/libs/libDaisy/src/hid/usb.h **** #include <stdlib.h>
   6:../../libs/PoliTeKDSP/libs/libDaisy/src/hid/usb.h **** 
   7:../../libs/PoliTeKDSP/libs/libDaisy/src/hid/usb.h **** namespace daisy
   8:../../libs/PoliTeKDSP/libs/libDaisy/src/hid/usb.h **** /** @addtogroup human_interface
   9:../../libs/PoliTeKDSP/libs/libDaisy/src/hid/usb.h ****     @{
  10:../../libs/PoliTeKDSP/libs/libDaisy/src/hid/usb.h **** */
  11:../../libs/PoliTeKDSP/libs/libDaisy/src/hid/usb.h **** 
  12:../../libs/PoliTeKDSP/libs/libDaisy/src/hid/usb.h **** {
  13:../../libs/PoliTeKDSP/libs/libDaisy/src/hid/usb.h **** /** 
ARM GAS  C:\Users\skipi\AppData\Local\Temp\ccs8qXFk.s 			page 6


  14:../../libs/PoliTeKDSP/libs/libDaisy/src/hid/usb.h ****     @brief Interface for initializing and using the USB Peripherals on the daisy
  15:../../libs/PoliTeKDSP/libs/libDaisy/src/hid/usb.h ****     @author Stephen Hensley
  16:../../libs/PoliTeKDSP/libs/libDaisy/src/hid/usb.h ****     @date December 2019
  17:../../libs/PoliTeKDSP/libs/libDaisy/src/hid/usb.h **** */
  18:../../libs/PoliTeKDSP/libs/libDaisy/src/hid/usb.h **** class UsbHandle
  19:../../libs/PoliTeKDSP/libs/libDaisy/src/hid/usb.h **** {
  20:../../libs/PoliTeKDSP/libs/libDaisy/src/hid/usb.h ****   public:
  21:../../libs/PoliTeKDSP/libs/libDaisy/src/hid/usb.h ****     /** Return values for USBHandle Functions */
  22:../../libs/PoliTeKDSP/libs/libDaisy/src/hid/usb.h ****     enum class Result
  23:../../libs/PoliTeKDSP/libs/libDaisy/src/hid/usb.h ****     {
  24:../../libs/PoliTeKDSP/libs/libDaisy/src/hid/usb.h ****         OK,
  25:../../libs/PoliTeKDSP/libs/libDaisy/src/hid/usb.h ****         ERR,
  26:../../libs/PoliTeKDSP/libs/libDaisy/src/hid/usb.h ****     };
  27:../../libs/PoliTeKDSP/libs/libDaisy/src/hid/usb.h **** 
  28:../../libs/PoliTeKDSP/libs/libDaisy/src/hid/usb.h ****     /** Specified which of the two USB Peripherals to initialize. */
  29:../../libs/PoliTeKDSP/libs/libDaisy/src/hid/usb.h ****     enum UsbPeriph
  30:../../libs/PoliTeKDSP/libs/libDaisy/src/hid/usb.h ****     {
  31:../../libs/PoliTeKDSP/libs/libDaisy/src/hid/usb.h ****         FS_INTERNAL, /**< Internal pin */
  32:../../libs/PoliTeKDSP/libs/libDaisy/src/hid/usb.h ****         FS_EXTERNAL, /**< FS External D+ pin is Pin 38 (GPIO32). FS External D- pin is Pin 37 (GPIO
  33:../../libs/PoliTeKDSP/libs/libDaisy/src/hid/usb.h ****         FS_BOTH,     /**< Both */
  34:../../libs/PoliTeKDSP/libs/libDaisy/src/hid/usb.h ****     };
  35:../../libs/PoliTeKDSP/libs/libDaisy/src/hid/usb.h **** 
  36:../../libs/PoliTeKDSP/libs/libDaisy/src/hid/usb.h **** 
  37:../../libs/PoliTeKDSP/libs/libDaisy/src/hid/usb.h ****     /** Function called upon reception of a buffer */
  38:../../libs/PoliTeKDSP/libs/libDaisy/src/hid/usb.h ****     typedef void (*ReceiveCallback)(uint8_t* buff, uint32_t* len);
  39:../../libs/PoliTeKDSP/libs/libDaisy/src/hid/usb.h **** 
  40:../../libs/PoliTeKDSP/libs/libDaisy/src/hid/usb.h ****     UsbHandle() {}
  41:../../libs/PoliTeKDSP/libs/libDaisy/src/hid/usb.h **** 
  42:../../libs/PoliTeKDSP/libs/libDaisy/src/hid/usb.h ****     ~UsbHandle() {}
  81              		.loc 6 42 5 is_stmt 1 view .LVU9
  82              		.loc 6 42 5 is_stmt 0 view .LVU10
  83              	.LBE571:
  84              	.LBB572:
  85              	.LBI572:
  86              		.file 7 "../../libs/PoliTeKDSP/libs/libDaisy/src/per/adc.h"
   1:../../libs/PoliTeKDSP/libs/libDaisy/src/per/adc.h **** #pragma once
   2:../../libs/PoliTeKDSP/libs/libDaisy/src/per/adc.h **** #ifndef DSY_ADC_H
   3:../../libs/PoliTeKDSP/libs/libDaisy/src/per/adc.h **** #define DSY_ADC_H /**< Macro */
   4:../../libs/PoliTeKDSP/libs/libDaisy/src/per/adc.h **** #include <stdint.h>
   5:../../libs/PoliTeKDSP/libs/libDaisy/src/per/adc.h **** #include <stdlib.h>
   6:../../libs/PoliTeKDSP/libs/libDaisy/src/per/adc.h **** #include "daisy_core.h"
   7:../../libs/PoliTeKDSP/libs/libDaisy/src/per/adc.h **** #include "per/gpio.h"
   8:../../libs/PoliTeKDSP/libs/libDaisy/src/per/adc.h **** 
   9:../../libs/PoliTeKDSP/libs/libDaisy/src/per/adc.h **** #define DSY_ADC_MAX_CHANNELS 16 /**< Maximum number of ADC channels */
  10:../../libs/PoliTeKDSP/libs/libDaisy/src/per/adc.h **** 
  11:../../libs/PoliTeKDSP/libs/libDaisy/src/per/adc.h **** namespace daisy
  12:../../libs/PoliTeKDSP/libs/libDaisy/src/per/adc.h **** {
  13:../../libs/PoliTeKDSP/libs/libDaisy/src/per/adc.h **** /** @addtogroup per_analog
  14:../../libs/PoliTeKDSP/libs/libDaisy/src/per/adc.h ****     @{
  15:../../libs/PoliTeKDSP/libs/libDaisy/src/per/adc.h **** */
  16:../../libs/PoliTeKDSP/libs/libDaisy/src/per/adc.h **** 
  17:../../libs/PoliTeKDSP/libs/libDaisy/src/per/adc.h **** /* While there may not be many configuration options here,
  18:../../libs/PoliTeKDSP/libs/libDaisy/src/per/adc.h **** using a struct like this allows us to add more configuration
  19:../../libs/PoliTeKDSP/libs/libDaisy/src/per/adc.h **** later without breaking existing functionality.
  20:../../libs/PoliTeKDSP/libs/libDaisy/src/per/adc.h **** */
  21:../../libs/PoliTeKDSP/libs/libDaisy/src/per/adc.h **** 
  22:../../libs/PoliTeKDSP/libs/libDaisy/src/per/adc.h **** /** @brief   Configuration Structure for an ADC Channel 
ARM GAS  C:\Users\skipi\AppData\Local\Temp\ccs8qXFk.s 			page 7


  23:../../libs/PoliTeKDSP/libs/libDaisy/src/per/adc.h ****  *  @details This can be used to configure a a single input, 
  24:../../libs/PoliTeKDSP/libs/libDaisy/src/per/adc.h ****  *           or a multiplexed input, allowing up to 8 inputs on 
  25:../../libs/PoliTeKDSP/libs/libDaisy/src/per/adc.h ****  *           one channel.
  26:../../libs/PoliTeKDSP/libs/libDaisy/src/per/adc.h ****  *  @note    Sharing data lines to multiple muxes _is_ possible, but
  27:../../libs/PoliTeKDSP/libs/libDaisy/src/per/adc.h ****  *           each channel sharing data lines must be set to the maximum
  28:../../libs/PoliTeKDSP/libs/libDaisy/src/per/adc.h ****  *           number of channels, even if some multiplexers have fewer
  29:../../libs/PoliTeKDSP/libs/libDaisy/src/per/adc.h ****  *           inputs connected.
  30:../../libs/PoliTeKDSP/libs/libDaisy/src/per/adc.h **** */
  31:../../libs/PoliTeKDSP/libs/libDaisy/src/per/adc.h **** struct AdcChannelConfig
  32:../../libs/PoliTeKDSP/libs/libDaisy/src/per/adc.h **** {
  33:../../libs/PoliTeKDSP/libs/libDaisy/src/per/adc.h ****     /** Which pin to use for multiplexing */
  34:../../libs/PoliTeKDSP/libs/libDaisy/src/per/adc.h ****     enum MuxPin
  35:../../libs/PoliTeKDSP/libs/libDaisy/src/per/adc.h ****     {
  36:../../libs/PoliTeKDSP/libs/libDaisy/src/per/adc.h ****         MUX_SEL_0,    /**< & */
  37:../../libs/PoliTeKDSP/libs/libDaisy/src/per/adc.h ****         MUX_SEL_1,    /**< & */
  38:../../libs/PoliTeKDSP/libs/libDaisy/src/per/adc.h ****         MUX_SEL_2,    /**< & */
  39:../../libs/PoliTeKDSP/libs/libDaisy/src/per/adc.h ****         MUX_SEL_LAST, /**< & */
  40:../../libs/PoliTeKDSP/libs/libDaisy/src/per/adc.h ****     };
  41:../../libs/PoliTeKDSP/libs/libDaisy/src/per/adc.h **** 
  42:../../libs/PoliTeKDSP/libs/libDaisy/src/per/adc.h ****     /** \brief per channel conversion speed added to fixed time based on bitdepth, etc. */
  43:../../libs/PoliTeKDSP/libs/libDaisy/src/per/adc.h ****     enum ConversionSpeed
  44:../../libs/PoliTeKDSP/libs/libDaisy/src/per/adc.h ****     {
  45:../../libs/PoliTeKDSP/libs/libDaisy/src/per/adc.h ****         SPEED_1CYCLES_5,
  46:../../libs/PoliTeKDSP/libs/libDaisy/src/per/adc.h ****         SPEED_2CYCLES_5,
  47:../../libs/PoliTeKDSP/libs/libDaisy/src/per/adc.h ****         SPEED_8CYCLES_5,
  48:../../libs/PoliTeKDSP/libs/libDaisy/src/per/adc.h ****         SPEED_16CYCLES_5,
  49:../../libs/PoliTeKDSP/libs/libDaisy/src/per/adc.h ****         SPEED_32CYCLES_5,
  50:../../libs/PoliTeKDSP/libs/libDaisy/src/per/adc.h ****         SPEED_64CYCLES_5,
  51:../../libs/PoliTeKDSP/libs/libDaisy/src/per/adc.h ****         SPEED_387CYCLES_5,
  52:../../libs/PoliTeKDSP/libs/libDaisy/src/per/adc.h ****         SPEED_810CYCLES_5,
  53:../../libs/PoliTeKDSP/libs/libDaisy/src/per/adc.h ****     };
  54:../../libs/PoliTeKDSP/libs/libDaisy/src/per/adc.h **** 
  55:../../libs/PoliTeKDSP/libs/libDaisy/src/per/adc.h ****     /** Initializes a single ADC pin as an ADC. 
  56:../../libs/PoliTeKDSP/libs/libDaisy/src/per/adc.h ****     \param pin Pin to init.
  57:../../libs/PoliTeKDSP/libs/libDaisy/src/per/adc.h ****     \param speed conversion speed for this pin defaults to 8.5 cycles
  58:../../libs/PoliTeKDSP/libs/libDaisy/src/per/adc.h ****      */
  59:../../libs/PoliTeKDSP/libs/libDaisy/src/per/adc.h ****     void InitSingle(Pin pin, ConversionSpeed speed = SPEED_8CYCLES_5);
  60:../../libs/PoliTeKDSP/libs/libDaisy/src/per/adc.h **** 
  61:../../libs/PoliTeKDSP/libs/libDaisy/src/per/adc.h ****     /** 
  62:../../libs/PoliTeKDSP/libs/libDaisy/src/per/adc.h ****     Initializes a single ADC pin as a Multiplexed ADC.
  63:../../libs/PoliTeKDSP/libs/libDaisy/src/per/adc.h ****     Requires a CD405X Multiplexer connected to the pin.
  64:../../libs/PoliTeKDSP/libs/libDaisy/src/per/adc.h ****     You only need to supply the mux pins that are required,
  65:../../libs/PoliTeKDSP/libs/libDaisy/src/per/adc.h ****     e.g. a 4052 mux would only require mux_0 and mux_1.
  66:../../libs/PoliTeKDSP/libs/libDaisy/src/per/adc.h ****     Internal Callbacks handle the pin addressing.
  67:../../libs/PoliTeKDSP/libs/libDaisy/src/per/adc.h ****     \param adc_pin &
  68:../../libs/PoliTeKDSP/libs/libDaisy/src/per/adc.h ****     \param mux_channels must be 1-8
  69:../../libs/PoliTeKDSP/libs/libDaisy/src/per/adc.h ****     \param mux_0 First mux pin
  70:../../libs/PoliTeKDSP/libs/libDaisy/src/per/adc.h ****     \param mux_1 Second mux pin
  71:../../libs/PoliTeKDSP/libs/libDaisy/src/per/adc.h ****     \param mux_2 Third mux pin
  72:../../libs/PoliTeKDSP/libs/libDaisy/src/per/adc.h ****     \param speed conversion speed for this pin defaults to 8.5 cycles
  73:../../libs/PoliTeKDSP/libs/libDaisy/src/per/adc.h ****     */
  74:../../libs/PoliTeKDSP/libs/libDaisy/src/per/adc.h ****     void InitMux(Pin             adc_pin,
  75:../../libs/PoliTeKDSP/libs/libDaisy/src/per/adc.h ****                  size_t          mux_channels,
  76:../../libs/PoliTeKDSP/libs/libDaisy/src/per/adc.h ****                  Pin             mux_0,
  77:../../libs/PoliTeKDSP/libs/libDaisy/src/per/adc.h ****                  Pin             mux_1 = Pin(PORTX, 0),
  78:../../libs/PoliTeKDSP/libs/libDaisy/src/per/adc.h ****                  Pin             mux_2 = Pin(PORTX, 0),
  79:../../libs/PoliTeKDSP/libs/libDaisy/src/per/adc.h ****                  ConversionSpeed speed = SPEED_8CYCLES_5);
ARM GAS  C:\Users\skipi\AppData\Local\Temp\ccs8qXFk.s 			page 8


  80:../../libs/PoliTeKDSP/libs/libDaisy/src/per/adc.h **** 
  81:../../libs/PoliTeKDSP/libs/libDaisy/src/per/adc.h ****     GPIO            pin_;                   /**< & */
  82:../../libs/PoliTeKDSP/libs/libDaisy/src/per/adc.h ****     GPIO            mux_pin_[MUX_SEL_LAST]; /**< & */
  83:../../libs/PoliTeKDSP/libs/libDaisy/src/per/adc.h ****     uint8_t         mux_channels_;          /**< & */
  84:../../libs/PoliTeKDSP/libs/libDaisy/src/per/adc.h ****     ConversionSpeed speed_;
  85:../../libs/PoliTeKDSP/libs/libDaisy/src/per/adc.h **** };
  86:../../libs/PoliTeKDSP/libs/libDaisy/src/per/adc.h **** 
  87:../../libs/PoliTeKDSP/libs/libDaisy/src/per/adc.h **** /**
  88:../../libs/PoliTeKDSP/libs/libDaisy/src/per/adc.h ****    @brief Handler for analog to digital conversion
  89:../../libs/PoliTeKDSP/libs/libDaisy/src/per/adc.h **** */
  90:../../libs/PoliTeKDSP/libs/libDaisy/src/per/adc.h **** class AdcHandle
  91:../../libs/PoliTeKDSP/libs/libDaisy/src/per/adc.h **** {
  92:../../libs/PoliTeKDSP/libs/libDaisy/src/per/adc.h ****   public:
  93:../../libs/PoliTeKDSP/libs/libDaisy/src/per/adc.h ****     /** Supported oversampling amounts */
  94:../../libs/PoliTeKDSP/libs/libDaisy/src/per/adc.h ****     enum OverSampling
  95:../../libs/PoliTeKDSP/libs/libDaisy/src/per/adc.h ****     {
  96:../../libs/PoliTeKDSP/libs/libDaisy/src/per/adc.h ****         OVS_NONE, /**< & */
  97:../../libs/PoliTeKDSP/libs/libDaisy/src/per/adc.h ****         OVS_4,    /**< & */
  98:../../libs/PoliTeKDSP/libs/libDaisy/src/per/adc.h ****         OVS_8,    /**< & */
  99:../../libs/PoliTeKDSP/libs/libDaisy/src/per/adc.h ****         OVS_16,   /**< & */
 100:../../libs/PoliTeKDSP/libs/libDaisy/src/per/adc.h ****         OVS_32,   /**< & */
 101:../../libs/PoliTeKDSP/libs/libDaisy/src/per/adc.h ****         OVS_64,   /**< & */
 102:../../libs/PoliTeKDSP/libs/libDaisy/src/per/adc.h ****         OVS_128,  /**< & */
 103:../../libs/PoliTeKDSP/libs/libDaisy/src/per/adc.h ****         OVS_256,  /**< & */
 104:../../libs/PoliTeKDSP/libs/libDaisy/src/per/adc.h ****         OVS_512,  /**< & */
 105:../../libs/PoliTeKDSP/libs/libDaisy/src/per/adc.h ****         OVS_1024, /**< & */
 106:../../libs/PoliTeKDSP/libs/libDaisy/src/per/adc.h ****         OVS_LAST, /**< & */
 107:../../libs/PoliTeKDSP/libs/libDaisy/src/per/adc.h ****     };
 108:../../libs/PoliTeKDSP/libs/libDaisy/src/per/adc.h **** 
 109:../../libs/PoliTeKDSP/libs/libDaisy/src/per/adc.h ****     AdcHandle() {}
 110:../../libs/PoliTeKDSP/libs/libDaisy/src/per/adc.h ****     ~AdcHandle() {}
  87              		.loc 7 110 5 is_stmt 1 view .LVU11
  88              		.loc 7 110 5 is_stmt 0 view .LVU12
  89              	.LBE572:
  90              	.LBB573:
  91              	.LBI573:
  92              		.file 8 "../../libs/PoliTeKDSP/libs/libDaisy/src/hid/audio.h"
   1:../../libs/PoliTeKDSP/libs/libDaisy/src/hid/audio.h **** #ifndef DSY_AUDIO_H
   2:../../libs/PoliTeKDSP/libs/libDaisy/src/hid/audio.h **** #define DSY_AUDIO_H /**< & */
   3:../../libs/PoliTeKDSP/libs/libDaisy/src/hid/audio.h **** 
   4:../../libs/PoliTeKDSP/libs/libDaisy/src/hid/audio.h **** #include "per/sai.h"
   5:../../libs/PoliTeKDSP/libs/libDaisy/src/hid/audio.h **** 
   6:../../libs/PoliTeKDSP/libs/libDaisy/src/hid/audio.h **** namespace daisy
   7:../../libs/PoliTeKDSP/libs/libDaisy/src/hid/audio.h **** {
   8:../../libs/PoliTeKDSP/libs/libDaisy/src/hid/audio.h **** /** @brief Audio Engine Handle
   9:../../libs/PoliTeKDSP/libs/libDaisy/src/hid/audio.h ****  *  @ingroup audio 
  10:../../libs/PoliTeKDSP/libs/libDaisy/src/hid/audio.h ****  *  @details This class allows for higher level access to an audio engine.
  11:../../libs/PoliTeKDSP/libs/libDaisy/src/hid/audio.h ****  *           If you're using a SOM like the DaisySeed or DaisyPatchSM (or any 
  12:../../libs/PoliTeKDSP/libs/libDaisy/src/hid/audio.h ****  *            board that includes one of those objects) then the intialization
  13:../../libs/PoliTeKDSP/libs/libDaisy/src/hid/audio.h ****  *            is already taken  care of.
  14:../../libs/PoliTeKDSP/libs/libDaisy/src/hid/audio.h ****  *           If you're setting up your own custom hardware, or need to make changes
  15:../../libs/PoliTeKDSP/libs/libDaisy/src/hid/audio.h ****  *           you will have to take the following steps:
  16:../../libs/PoliTeKDSP/libs/libDaisy/src/hid/audio.h ****  *             1. Create and Initialize an SaiHandle or two depending on your requirements
  17:../../libs/PoliTeKDSP/libs/libDaisy/src/hid/audio.h ****  *             2. Initialize the Audio Handle with the desired settings and the Initialized SaiHand
  18:../../libs/PoliTeKDSP/libs/libDaisy/src/hid/audio.h ****  *             3. If the connected codec requires special configuration or initialization, do so
  19:../../libs/PoliTeKDSP/libs/libDaisy/src/hid/audio.h ****  *             4. Write a callback method using either the AudioCallback or the InterleavingAudioCa
  20:../../libs/PoliTeKDSP/libs/libDaisy/src/hid/audio.h ****  *             5. Start the Audio using one of the StartAudio function
ARM GAS  C:\Users\skipi\AppData\Local\Temp\ccs8qXFk.s 			page 9


  21:../../libs/PoliTeKDSP/libs/libDaisy/src/hid/audio.h ****  */
  22:../../libs/PoliTeKDSP/libs/libDaisy/src/hid/audio.h **** class AudioHandle
  23:../../libs/PoliTeKDSP/libs/libDaisy/src/hid/audio.h **** {
  24:../../libs/PoliTeKDSP/libs/libDaisy/src/hid/audio.h ****   public:
  25:../../libs/PoliTeKDSP/libs/libDaisy/src/hid/audio.h ****     /** Manually configurable details about the Audio Engine */
  26:../../libs/PoliTeKDSP/libs/libDaisy/src/hid/audio.h ****     /** TODO: Figure out how to get samplerate in here. */
  27:../../libs/PoliTeKDSP/libs/libDaisy/src/hid/audio.h ****     struct Config
  28:../../libs/PoliTeKDSP/libs/libDaisy/src/hid/audio.h ****     {
  29:../../libs/PoliTeKDSP/libs/libDaisy/src/hid/audio.h ****         /** number of samples to process per callback */
  30:../../libs/PoliTeKDSP/libs/libDaisy/src/hid/audio.h ****         size_t blocksize = 48;
  31:../../libs/PoliTeKDSP/libs/libDaisy/src/hid/audio.h **** 
  32:../../libs/PoliTeKDSP/libs/libDaisy/src/hid/audio.h ****         /**< Sample rate of audio */
  33:../../libs/PoliTeKDSP/libs/libDaisy/src/hid/audio.h ****         SaiHandle::Config::SampleRate samplerate
  34:../../libs/PoliTeKDSP/libs/libDaisy/src/hid/audio.h ****             = SaiHandle::Config::SampleRate::SAI_48KHZ;
  35:../../libs/PoliTeKDSP/libs/libDaisy/src/hid/audio.h **** 
  36:../../libs/PoliTeKDSP/libs/libDaisy/src/hid/audio.h ****         /** factor for adjustment before and after callback for hardware that may have extra headro
  37:../../libs/PoliTeKDSP/libs/libDaisy/src/hid/audio.h ****         float postgain = 1.f;
  38:../../libs/PoliTeKDSP/libs/libDaisy/src/hid/audio.h **** 
  39:../../libs/PoliTeKDSP/libs/libDaisy/src/hid/audio.h ****         /** factor for additional one-sided compensation to audio path for hardware that may
  40:../../libs/PoliTeKDSP/libs/libDaisy/src/hid/audio.h ****          *  have unequal input/output ranges
  41:../../libs/PoliTeKDSP/libs/libDaisy/src/hid/audio.h ****          */
  42:../../libs/PoliTeKDSP/libs/libDaisy/src/hid/audio.h ****         float output_compensation = 1.f;
  43:../../libs/PoliTeKDSP/libs/libDaisy/src/hid/audio.h ****     };
  44:../../libs/PoliTeKDSP/libs/libDaisy/src/hid/audio.h **** 
  45:../../libs/PoliTeKDSP/libs/libDaisy/src/hid/audio.h ****     enum class Result
  46:../../libs/PoliTeKDSP/libs/libDaisy/src/hid/audio.h ****     {
  47:../../libs/PoliTeKDSP/libs/libDaisy/src/hid/audio.h ****         OK,
  48:../../libs/PoliTeKDSP/libs/libDaisy/src/hid/audio.h ****         ERR,
  49:../../libs/PoliTeKDSP/libs/libDaisy/src/hid/audio.h ****     };
  50:../../libs/PoliTeKDSP/libs/libDaisy/src/hid/audio.h **** 
  51:../../libs/PoliTeKDSP/libs/libDaisy/src/hid/audio.h ****     /** Non-Interleaving input buffer
  52:../../libs/PoliTeKDSP/libs/libDaisy/src/hid/audio.h ****      * Buffer arranged by float[chn][sample] 
  53:../../libs/PoliTeKDSP/libs/libDaisy/src/hid/audio.h ****      * const so that the user can't modify the input
  54:../../libs/PoliTeKDSP/libs/libDaisy/src/hid/audio.h ****      */
  55:../../libs/PoliTeKDSP/libs/libDaisy/src/hid/audio.h ****     typedef const float* const* InputBuffer;
  56:../../libs/PoliTeKDSP/libs/libDaisy/src/hid/audio.h **** 
  57:../../libs/PoliTeKDSP/libs/libDaisy/src/hid/audio.h ****     /** Non-Interleaving output buffer
  58:../../libs/PoliTeKDSP/libs/libDaisy/src/hid/audio.h ****      * Arranged by float[chn][sample] 
  59:../../libs/PoliTeKDSP/libs/libDaisy/src/hid/audio.h ****      */
  60:../../libs/PoliTeKDSP/libs/libDaisy/src/hid/audio.h ****     typedef float** OutputBuffer;
  61:../../libs/PoliTeKDSP/libs/libDaisy/src/hid/audio.h **** 
  62:../../libs/PoliTeKDSP/libs/libDaisy/src/hid/audio.h ****     /** Type for a Non-Interleaving audio callback 
  63:../../libs/PoliTeKDSP/libs/libDaisy/src/hid/audio.h ****      * Non-Interleaving audio callbacks in daisy will be of this type
  64:../../libs/PoliTeKDSP/libs/libDaisy/src/hid/audio.h ****      */
  65:../../libs/PoliTeKDSP/libs/libDaisy/src/hid/audio.h ****     typedef void (*AudioCallback)(InputBuffer  in,
  66:../../libs/PoliTeKDSP/libs/libDaisy/src/hid/audio.h ****                                   OutputBuffer out,
  67:../../libs/PoliTeKDSP/libs/libDaisy/src/hid/audio.h ****                                   size_t       size);
  68:../../libs/PoliTeKDSP/libs/libDaisy/src/hid/audio.h **** 
  69:../../libs/PoliTeKDSP/libs/libDaisy/src/hid/audio.h ****     /** Interleaving Input buffer
  70:../../libs/PoliTeKDSP/libs/libDaisy/src/hid/audio.h ****      ** audio is prepared as { L0, R0, L1, R1, . . . LN, RN }]
  71:../../libs/PoliTeKDSP/libs/libDaisy/src/hid/audio.h ****      ** this is const, as the user shouldn't modify it
  72:../../libs/PoliTeKDSP/libs/libDaisy/src/hid/audio.h ****     */
  73:../../libs/PoliTeKDSP/libs/libDaisy/src/hid/audio.h ****     typedef const float* InterleavingInputBuffer;
  74:../../libs/PoliTeKDSP/libs/libDaisy/src/hid/audio.h **** 
  75:../../libs/PoliTeKDSP/libs/libDaisy/src/hid/audio.h ****     /** Interleaving Output buffer 
  76:../../libs/PoliTeKDSP/libs/libDaisy/src/hid/audio.h ****      ** audio is prepared as { L0, R0, L1, R1, . . . LN, RN }
  77:../../libs/PoliTeKDSP/libs/libDaisy/src/hid/audio.h ****     */
ARM GAS  C:\Users\skipi\AppData\Local\Temp\ccs8qXFk.s 			page 10


  78:../../libs/PoliTeKDSP/libs/libDaisy/src/hid/audio.h ****     typedef float* InterleavingOutputBuffer;
  79:../../libs/PoliTeKDSP/libs/libDaisy/src/hid/audio.h **** 
  80:../../libs/PoliTeKDSP/libs/libDaisy/src/hid/audio.h ****     /** Interleaving Audio Callback 
  81:../../libs/PoliTeKDSP/libs/libDaisy/src/hid/audio.h ****      * Interleaving audio callbacks in daisy must be of this type
  82:../../libs/PoliTeKDSP/libs/libDaisy/src/hid/audio.h ****      */
  83:../../libs/PoliTeKDSP/libs/libDaisy/src/hid/audio.h ****     typedef void (*InterleavingAudioCallback)(InterleavingInputBuffer  in,
  84:../../libs/PoliTeKDSP/libs/libDaisy/src/hid/audio.h ****                                               InterleavingOutputBuffer out,
  85:../../libs/PoliTeKDSP/libs/libDaisy/src/hid/audio.h ****                                               size_t                   size);
  86:../../libs/PoliTeKDSP/libs/libDaisy/src/hid/audio.h **** 
  87:../../libs/PoliTeKDSP/libs/libDaisy/src/hid/audio.h ****     AudioHandle() : pimpl_(nullptr) {}
  88:../../libs/PoliTeKDSP/libs/libDaisy/src/hid/audio.h ****     ~AudioHandle() {}
  93              		.loc 8 88 5 is_stmt 1 view .LVU13
  94              		.loc 8 88 5 is_stmt 0 view .LVU14
  95              	.LBE573:
  96              		.loc 3 22 19 view .LVU15
  97 0000 7047     		bx	lr
  98              		.cfi_endproc
  99              	.LFE2729:
 101              		.weak	_ZN5daisy9DaisySeedD1Ev
 102              		.thumb_set _ZN5daisy9DaisySeedD1Ev,_ZN5daisy9DaisySeedD2Ev
 103 0002 00BF     		.section	.text._Z13AudioCallbackPKPKfPPfj,"ax",%progbits
 104              		.align	1
 105              		.p2align 2,,3
 106              		.global	_Z13AudioCallbackPKPKfPPfj
 107              		.syntax unified
 108              		.thumb
 109              		.thumb_func
 110              		.fpu fpv5-d16
 112              	_Z13AudioCallbackPKPKfPPfj:
 113              	.LVL2:
 114              	.LFB2782:
 115              		.file 9 "main.cpp"
   1:main.cpp      **** #include "daisy_seed.h"
   2:main.cpp      **** #include "hid/encoder.h"
   3:main.cpp      **** #include "MenuManager.h"
   4:main.cpp      **** #include "displayHandler.h"
   5:main.cpp      **** 
   6:main.cpp      **** using namespace daisy;
   7:main.cpp      **** 
   8:main.cpp      **** DaisySeed      hw;
   9:main.cpp      **** Encoder        enc;
  10:main.cpp      **** MenuManager    menu;
  11:main.cpp      **** MyOledDisplay  disp;
  12:main.cpp      **** DisplayHandler disp_handle(&disp);
  13:main.cpp      **** 
  14:main.cpp      **** void AudioCallback(AudioHandle::InputBuffer in, AudioHandle::OutputBuffer out, size_t size) {
 116              		.loc 9 14 93 is_stmt 1 view -0
 117              		.cfi_startproc
 118              		@ args = 0, pretend = 0, frame = 8
 119              		@ frame_needed = 0, uses_anonymous_args = 0
  15:main.cpp      ****     // Audio callback pulita, solo per DSP
  16:main.cpp      ****     for (size_t i = 0; i < size; i++) {
 120              		.loc 9 16 5 view .LVU17
 121              	.LBB574:
 122              		.loc 9 16 26 view .LVU18
 123 0000 0AB3     		cbz	r2, .L15
 124 0002 1346     		mov	r3, r2
ARM GAS  C:\Users\skipi\AppData\Local\Temp\ccs8qXFk.s 			page 11


 125 0004 9200     		lsls	r2, r2, #2
 126              	.LVL3:
 127              		.loc 9 16 26 is_stmt 0 view .LVU19
 128              	.LBE574:
  14:main.cpp      ****     // Audio callback pulita, solo per DSP
 129              		.loc 9 14 93 view .LVU20
 130 0006 10B5     		push	{r4, lr}
 131              		.cfi_def_cfa_offset 8
 132              		.cfi_offset 4, -8
 133              		.cfi_offset 14, -4
 134              	.LBB575:
  17:main.cpp      ****         out[0][i] = out[1][i] = 0.0f;
 135              		.loc 9 17 26 view .LVU21
 136 0008 D1E90040 		ldrd	r4, r0, [r1]
 137              	.LVL4:
 138              		.loc 9 17 26 view .LVU22
 139              	.LBE575:
  14:main.cpp      ****     // Audio callback pulita, solo per DSP
 140              		.loc 9 14 93 view .LVU23
 141 000c 82B0     		sub	sp, sp, #8
 142              		.cfi_def_cfa_offset 16
 143 000e 04EB8303 		add	r3, r4, r3, lsl #2
 144              	.LVL5:
  14:main.cpp      ****     // Audio callback pulita, solo per DSP
 145              		.loc 9 14 93 view .LVU24
 146 0012 9842     		cmp	r0, r3
 147 0014 02D2     		bcs	.L9
 148 0016 8118     		adds	r1, r0, r2
 149              	.LVL6:
  14:main.cpp      ****     // Audio callback pulita, solo per DSP
 150              		.loc 9 14 93 view .LVU25
 151 0018 8C42     		cmp	r4, r1
 152 001a 0BD3     		bcc	.L8
 153              	.L9:
 154              	.LBB576:
 155              		.loc 9 17 31 view .LVU26
 156 001c 0021     		movs	r1, #0
 157 001e 0192     		str	r2, [sp, #4]
 158 0020 FFF7FEFF 		bl	memset
 159              	.LVL7:
 160              		.loc 9 17 19 view .LVU27
 161 0024 019A     		ldr	r2, [sp, #4]
 162 0026 0021     		movs	r1, #0
 163 0028 2046     		mov	r0, r4
 164              	.LBE576:
  18:main.cpp      ****     }
  19:main.cpp      **** }
 165              		.loc 9 19 1 view .LVU28
 166 002a 02B0     		add	sp, sp, #8
 167              		.cfi_remember_state
 168              		.cfi_def_cfa_offset 8
 169              		@ sp needed
 170 002c BDE81040 		pop	{r4, lr}
 171              		.cfi_restore 14
 172              		.cfi_restore 4
 173              		.cfi_def_cfa_offset 0
 174              	.LBB577:
ARM GAS  C:\Users\skipi\AppData\Local\Temp\ccs8qXFk.s 			page 12


  17:main.cpp      ****         out[0][i] = out[1][i] = 0.0f;
 175              		.loc 9 17 19 view .LVU29
 176 0030 FFF7FEBF 		b	memset
 177              	.LVL8:
 178              	.L8:
 179              		.cfi_restore_state
  17:main.cpp      ****         out[0][i] = out[1][i] = 0.0f;
 180              		.loc 9 17 9 is_stmt 1 view .LVU30
  17:main.cpp      ****         out[0][i] = out[1][i] = 0.0f;
 181              		.loc 9 17 31 is_stmt 0 view .LVU31
 182 0034 0023     		movs	r3, #0
 183 0036 40F8043B 		str	r3, [r0], #4	@ float
  16:main.cpp      ****         out[0][i] = out[1][i] = 0.0f;
 184              		.loc 9 16 26 view .LVU32
 185 003a 8842     		cmp	r0, r1
  17:main.cpp      ****         out[0][i] = out[1][i] = 0.0f;
 186              		.loc 9 17 19 view .LVU33
 187 003c 44F8043B 		str	r3, [r4], #4	@ float
  16:main.cpp      ****         out[0][i] = out[1][i] = 0.0f;
 188              		.loc 9 16 5 is_stmt 1 view .LVU34
  16:main.cpp      ****         out[0][i] = out[1][i] = 0.0f;
 189              		.loc 9 16 26 view .LVU35
 190 0040 F8D1     		bne	.L8
 191              	.LBE577:
 192              		.loc 9 19 1 is_stmt 0 view .LVU36
 193 0042 02B0     		add	sp, sp, #8
 194              		.cfi_def_cfa_offset 8
 195              		@ sp needed
 196 0044 10BD     		pop	{r4, pc}
 197              	.LVL9:
 198              	.L15:
 199              		.cfi_def_cfa_offset 0
 200              		.cfi_restore 4
 201              		.cfi_restore 14
 202              		.loc 9 19 1 view .LVU37
 203 0046 7047     		bx	lr
 204              		.cfi_endproc
 205              	.LFE2782:
 207              		.section	.text._ZN5daisy11OledDisplayINS_13SSD130xDriverILj128ELj64ENS_19SSD130xI2CTransportEEEED2
 208              		.align	1
 209              		.p2align 2,,3
 210              		.weak	_ZN5daisy11OledDisplayINS_13SSD130xDriverILj128ELj64ENS_19SSD130xI2CTransportEEEED2Ev
 211              		.syntax unified
 212              		.thumb
 213              		.thumb_func
 214              		.fpu fpv5-d16
 216              	_ZN5daisy11OledDisplayINS_13SSD130xDriverILj128ELj64ENS_19SSD130xI2CTransportEEEED2Ev:
 217              	.LVL10:
 218              	.LFB2831:
 219              		.file 10 "../../libs/PoliTeKDSP/libs/libDaisy/src/hid/disp/oled_display.h"
   1:../../libs/PoliTeKDSP/libs/libDaisy/src/hid/disp/oled_display.h **** #pragma once
   2:../../libs/PoliTeKDSP/libs/libDaisy/src/hid/disp/oled_display.h **** #ifndef DSY_OLED_DISPLAY_H
   3:../../libs/PoliTeKDSP/libs/libDaisy/src/hid/disp/oled_display.h **** #define DSY_OLED_DISPLAY_H /**< Macro */
   4:../../libs/PoliTeKDSP/libs/libDaisy/src/hid/disp/oled_display.h **** 
   5:../../libs/PoliTeKDSP/libs/libDaisy/src/hid/disp/oled_display.h **** #include "display.h"
   6:../../libs/PoliTeKDSP/libs/libDaisy/src/hid/disp/oled_display.h **** 
   7:../../libs/PoliTeKDSP/libs/libDaisy/src/hid/disp/oled_display.h **** namespace daisy
ARM GAS  C:\Users\skipi\AppData\Local\Temp\ccs8qXFk.s 			page 13


   8:../../libs/PoliTeKDSP/libs/libDaisy/src/hid/disp/oled_display.h **** {
   9:../../libs/PoliTeKDSP/libs/libDaisy/src/hid/disp/oled_display.h **** /** 
  10:../../libs/PoliTeKDSP/libs/libDaisy/src/hid/disp/oled_display.h ****  * This class is for drawing to a monochrome OLED display. 
  11:../../libs/PoliTeKDSP/libs/libDaisy/src/hid/disp/oled_display.h ****  * @ingroup device
  12:../../libs/PoliTeKDSP/libs/libDaisy/src/hid/disp/oled_display.h **** */
  13:../../libs/PoliTeKDSP/libs/libDaisy/src/hid/disp/oled_display.h **** template <typename DisplayDriver>
  14:../../libs/PoliTeKDSP/libs/libDaisy/src/hid/disp/oled_display.h **** class OledDisplay : public OneBitGraphicsDisplayImpl<OledDisplay<DisplayDriver>>
  15:../../libs/PoliTeKDSP/libs/libDaisy/src/hid/disp/oled_display.h **** {
  16:../../libs/PoliTeKDSP/libs/libDaisy/src/hid/disp/oled_display.h ****   public:
  17:../../libs/PoliTeKDSP/libs/libDaisy/src/hid/disp/oled_display.h ****     OledDisplay() {}
  18:../../libs/PoliTeKDSP/libs/libDaisy/src/hid/disp/oled_display.h ****     virtual ~OledDisplay() {}
 220              		.loc 10 18 13 is_stmt 1 view -0
 221              		.cfi_startproc
 222              		@ args = 0, pretend = 0, frame = 0
 223              		@ frame_needed = 0, uses_anonymous_args = 0
 224              		@ link register save eliminated.
 225              	.LBB578:
 226              	.LBI578:
 227              		.file 11 "../../libs/PoliTeKDSP/libs/libDaisy/src/hid/disp/display.h"
   1:../../libs/PoliTeKDSP/libs/libDaisy/src/hid/disp/display.h **** #pragma once
   2:../../libs/PoliTeKDSP/libs/libDaisy/src/hid/disp/display.h **** #ifndef DSY_DISPLAY_H
   3:../../libs/PoliTeKDSP/libs/libDaisy/src/hid/disp/display.h **** #define DSY_DISPLAY_H /**< Macro */
   4:../../libs/PoliTeKDSP/libs/libDaisy/src/hid/disp/display.h **** #include <cmath>
   5:../../libs/PoliTeKDSP/libs/libDaisy/src/hid/disp/display.h **** #include "util/oled_fonts.h"
   6:../../libs/PoliTeKDSP/libs/libDaisy/src/hid/disp/display.h **** #include "daisy_core.h"
   7:../../libs/PoliTeKDSP/libs/libDaisy/src/hid/disp/display.h **** #include "graphics_common.h"
   8:../../libs/PoliTeKDSP/libs/libDaisy/src/hid/disp/display.h **** 
   9:../../libs/PoliTeKDSP/libs/libDaisy/src/hid/disp/display.h **** #ifndef deg2rad
  10:../../libs/PoliTeKDSP/libs/libDaisy/src/hid/disp/display.h **** #define deg2rad(deg) ((deg)*3.141592 / 180.0)
  11:../../libs/PoliTeKDSP/libs/libDaisy/src/hid/disp/display.h **** #endif
  12:../../libs/PoliTeKDSP/libs/libDaisy/src/hid/disp/display.h **** 
  13:../../libs/PoliTeKDSP/libs/libDaisy/src/hid/disp/display.h **** namespace daisy
  14:../../libs/PoliTeKDSP/libs/libDaisy/src/hid/disp/display.h **** {
  15:../../libs/PoliTeKDSP/libs/libDaisy/src/hid/disp/display.h **** /** 
  16:../../libs/PoliTeKDSP/libs/libDaisy/src/hid/disp/display.h ****  * This interface is used as a base class for all types of 1bit-per-pixel
  17:../../libs/PoliTeKDSP/libs/libDaisy/src/hid/disp/display.h ****  * graphics displays.
  18:../../libs/PoliTeKDSP/libs/libDaisy/src/hid/disp/display.h **** */
  19:../../libs/PoliTeKDSP/libs/libDaisy/src/hid/disp/display.h **** class OneBitGraphicsDisplay
  20:../../libs/PoliTeKDSP/libs/libDaisy/src/hid/disp/display.h **** {
  21:../../libs/PoliTeKDSP/libs/libDaisy/src/hid/disp/display.h ****   public:
  22:../../libs/PoliTeKDSP/libs/libDaisy/src/hid/disp/display.h ****     OneBitGraphicsDisplay() {}
  23:../../libs/PoliTeKDSP/libs/libDaisy/src/hid/disp/display.h ****     virtual ~OneBitGraphicsDisplay() {}
  24:../../libs/PoliTeKDSP/libs/libDaisy/src/hid/disp/display.h **** 
  25:../../libs/PoliTeKDSP/libs/libDaisy/src/hid/disp/display.h ****     virtual uint16_t Height() const = 0;
  26:../../libs/PoliTeKDSP/libs/libDaisy/src/hid/disp/display.h ****     virtual uint16_t Width() const  = 0;
  27:../../libs/PoliTeKDSP/libs/libDaisy/src/hid/disp/display.h **** 
  28:../../libs/PoliTeKDSP/libs/libDaisy/src/hid/disp/display.h ****     Rectangle GetBounds() const
  29:../../libs/PoliTeKDSP/libs/libDaisy/src/hid/disp/display.h ****     {
  30:../../libs/PoliTeKDSP/libs/libDaisy/src/hid/disp/display.h ****         return Rectangle(int16_t(Width()), int16_t(Height()));
  31:../../libs/PoliTeKDSP/libs/libDaisy/src/hid/disp/display.h ****     }
  32:../../libs/PoliTeKDSP/libs/libDaisy/src/hid/disp/display.h **** 
  33:../../libs/PoliTeKDSP/libs/libDaisy/src/hid/disp/display.h **** 
  34:../../libs/PoliTeKDSP/libs/libDaisy/src/hid/disp/display.h ****     size_t CurrentX() { return currentX_; };
  35:../../libs/PoliTeKDSP/libs/libDaisy/src/hid/disp/display.h ****     size_t CurrentY() { return currentY_; };
  36:../../libs/PoliTeKDSP/libs/libDaisy/src/hid/disp/display.h **** 
  37:../../libs/PoliTeKDSP/libs/libDaisy/src/hid/disp/display.h ****     /** 
  38:../../libs/PoliTeKDSP/libs/libDaisy/src/hid/disp/display.h ****     Fills the entire display with either on/off.
ARM GAS  C:\Users\skipi\AppData\Local\Temp\ccs8qXFk.s 			page 14


  39:../../libs/PoliTeKDSP/libs/libDaisy/src/hid/disp/display.h ****     \param on Sets on or off.
  40:../../libs/PoliTeKDSP/libs/libDaisy/src/hid/disp/display.h ****     */
  41:../../libs/PoliTeKDSP/libs/libDaisy/src/hid/disp/display.h ****     virtual void Fill(bool on) = 0;
  42:../../libs/PoliTeKDSP/libs/libDaisy/src/hid/disp/display.h **** 
  43:../../libs/PoliTeKDSP/libs/libDaisy/src/hid/disp/display.h ****     /**
  44:../../libs/PoliTeKDSP/libs/libDaisy/src/hid/disp/display.h ****     Sets the pixel at the specified coordinate to be on/off.
  45:../../libs/PoliTeKDSP/libs/libDaisy/src/hid/disp/display.h ****     \param x   x Coordinate
  46:../../libs/PoliTeKDSP/libs/libDaisy/src/hid/disp/display.h ****     \param y   y coordinate
  47:../../libs/PoliTeKDSP/libs/libDaisy/src/hid/disp/display.h ****     \param on  on or off
  48:../../libs/PoliTeKDSP/libs/libDaisy/src/hid/disp/display.h ****     */
  49:../../libs/PoliTeKDSP/libs/libDaisy/src/hid/disp/display.h ****     virtual void DrawPixel(uint_fast8_t x, uint_fast8_t y, bool on) = 0;
  50:../../libs/PoliTeKDSP/libs/libDaisy/src/hid/disp/display.h **** 
  51:../../libs/PoliTeKDSP/libs/libDaisy/src/hid/disp/display.h ****     /**
  52:../../libs/PoliTeKDSP/libs/libDaisy/src/hid/disp/display.h ****     Draws a line from (x1, y1) to (y1, y2)
  53:../../libs/PoliTeKDSP/libs/libDaisy/src/hid/disp/display.h ****     \param x1  x Coordinate of the starting point
  54:../../libs/PoliTeKDSP/libs/libDaisy/src/hid/disp/display.h ****     \param y1  y Coordinate of the starting point
  55:../../libs/PoliTeKDSP/libs/libDaisy/src/hid/disp/display.h ****     \param x2  x Coordinate of the ending point
  56:../../libs/PoliTeKDSP/libs/libDaisy/src/hid/disp/display.h ****     \param y2  y Coordinate of the ending point
  57:../../libs/PoliTeKDSP/libs/libDaisy/src/hid/disp/display.h ****     \param on  on or off
  58:../../libs/PoliTeKDSP/libs/libDaisy/src/hid/disp/display.h ****     */
  59:../../libs/PoliTeKDSP/libs/libDaisy/src/hid/disp/display.h ****     virtual void DrawLine(uint_fast8_t x1,
  60:../../libs/PoliTeKDSP/libs/libDaisy/src/hid/disp/display.h ****                           uint_fast8_t y1,
  61:../../libs/PoliTeKDSP/libs/libDaisy/src/hid/disp/display.h ****                           uint_fast8_t x2,
  62:../../libs/PoliTeKDSP/libs/libDaisy/src/hid/disp/display.h ****                           uint_fast8_t y2,
  63:../../libs/PoliTeKDSP/libs/libDaisy/src/hid/disp/display.h ****                           bool         on)
  64:../../libs/PoliTeKDSP/libs/libDaisy/src/hid/disp/display.h ****         = 0;
  65:../../libs/PoliTeKDSP/libs/libDaisy/src/hid/disp/display.h **** 
  66:../../libs/PoliTeKDSP/libs/libDaisy/src/hid/disp/display.h ****     /**
  67:../../libs/PoliTeKDSP/libs/libDaisy/src/hid/disp/display.h ****     Draws a rectangle based on two coordinates.
  68:../../libs/PoliTeKDSP/libs/libDaisy/src/hid/disp/display.h ****     \param x1 x Coordinate of the first point
  69:../../libs/PoliTeKDSP/libs/libDaisy/src/hid/disp/display.h ****     \param y1 y Coordinate of the first point
  70:../../libs/PoliTeKDSP/libs/libDaisy/src/hid/disp/display.h ****     \param x2 x Coordinate of the second point
  71:../../libs/PoliTeKDSP/libs/libDaisy/src/hid/disp/display.h ****     \param y2 y Coordinate of the second point
  72:../../libs/PoliTeKDSP/libs/libDaisy/src/hid/disp/display.h ****     \param on on or off
  73:../../libs/PoliTeKDSP/libs/libDaisy/src/hid/disp/display.h ****     \param fill fill the rectangle or draw only the outline
  74:../../libs/PoliTeKDSP/libs/libDaisy/src/hid/disp/display.h ****     */
  75:../../libs/PoliTeKDSP/libs/libDaisy/src/hid/disp/display.h ****     virtual void DrawRect(uint_fast8_t x1,
  76:../../libs/PoliTeKDSP/libs/libDaisy/src/hid/disp/display.h ****                           uint_fast8_t y1,
  77:../../libs/PoliTeKDSP/libs/libDaisy/src/hid/disp/display.h ****                           uint_fast8_t x2,
  78:../../libs/PoliTeKDSP/libs/libDaisy/src/hid/disp/display.h ****                           uint_fast8_t y2,
  79:../../libs/PoliTeKDSP/libs/libDaisy/src/hid/disp/display.h ****                           bool         on,
  80:../../libs/PoliTeKDSP/libs/libDaisy/src/hid/disp/display.h ****                           bool         fill = false)
  81:../../libs/PoliTeKDSP/libs/libDaisy/src/hid/disp/display.h ****         = 0;
  82:../../libs/PoliTeKDSP/libs/libDaisy/src/hid/disp/display.h **** 
  83:../../libs/PoliTeKDSP/libs/libDaisy/src/hid/disp/display.h ****     /**
  84:../../libs/PoliTeKDSP/libs/libDaisy/src/hid/disp/display.h ****     Draws a rectangle.
  85:../../libs/PoliTeKDSP/libs/libDaisy/src/hid/disp/display.h ****     \param rect the rectangle
  86:../../libs/PoliTeKDSP/libs/libDaisy/src/hid/disp/display.h ****     \param on   on or off
  87:../../libs/PoliTeKDSP/libs/libDaisy/src/hid/disp/display.h ****     \param fill fill the rectangle or draw only the outline
  88:../../libs/PoliTeKDSP/libs/libDaisy/src/hid/disp/display.h ****     */
  89:../../libs/PoliTeKDSP/libs/libDaisy/src/hid/disp/display.h ****     void DrawRect(const Rectangle& rect, bool on, bool fill = false)
  90:../../libs/PoliTeKDSP/libs/libDaisy/src/hid/disp/display.h ****     {
  91:../../libs/PoliTeKDSP/libs/libDaisy/src/hid/disp/display.h ****         DrawRect(rect.GetX(),
  92:../../libs/PoliTeKDSP/libs/libDaisy/src/hid/disp/display.h ****                  rect.GetY(),
  93:../../libs/PoliTeKDSP/libs/libDaisy/src/hid/disp/display.h ****                  rect.GetRight(),
  94:../../libs/PoliTeKDSP/libs/libDaisy/src/hid/disp/display.h ****                  rect.GetBottom(),
  95:../../libs/PoliTeKDSP/libs/libDaisy/src/hid/disp/display.h ****                  on,
ARM GAS  C:\Users\skipi\AppData\Local\Temp\ccs8qXFk.s 			page 15


  96:../../libs/PoliTeKDSP/libs/libDaisy/src/hid/disp/display.h ****                  fill);
  97:../../libs/PoliTeKDSP/libs/libDaisy/src/hid/disp/display.h ****     }
  98:../../libs/PoliTeKDSP/libs/libDaisy/src/hid/disp/display.h **** 
  99:../../libs/PoliTeKDSP/libs/libDaisy/src/hid/disp/display.h ****     /**
 100:../../libs/PoliTeKDSP/libs/libDaisy/src/hid/disp/display.h ****     Draws an arc around the specified coordinate
 101:../../libs/PoliTeKDSP/libs/libDaisy/src/hid/disp/display.h ****     \param x           x Coordinate of the center of the arc
 102:../../libs/PoliTeKDSP/libs/libDaisy/src/hid/disp/display.h ****     \param y           y Coordinate of the center of the arc
 103:../../libs/PoliTeKDSP/libs/libDaisy/src/hid/disp/display.h ****     \param radius      radius of the arc
 104:../../libs/PoliTeKDSP/libs/libDaisy/src/hid/disp/display.h ****     \param start_angle angle where to start the arc
 105:../../libs/PoliTeKDSP/libs/libDaisy/src/hid/disp/display.h ****     \param sweep       total angle of the arc
 106:../../libs/PoliTeKDSP/libs/libDaisy/src/hid/disp/display.h ****     \param on  on or off
 107:../../libs/PoliTeKDSP/libs/libDaisy/src/hid/disp/display.h ****     */
 108:../../libs/PoliTeKDSP/libs/libDaisy/src/hid/disp/display.h ****     virtual void DrawArc(uint_fast8_t x,
 109:../../libs/PoliTeKDSP/libs/libDaisy/src/hid/disp/display.h ****                          uint_fast8_t y,
 110:../../libs/PoliTeKDSP/libs/libDaisy/src/hid/disp/display.h ****                          uint_fast8_t radius,
 111:../../libs/PoliTeKDSP/libs/libDaisy/src/hid/disp/display.h ****                          int_fast16_t start_angle,
 112:../../libs/PoliTeKDSP/libs/libDaisy/src/hid/disp/display.h ****                          int_fast16_t sweep,
 113:../../libs/PoliTeKDSP/libs/libDaisy/src/hid/disp/display.h ****                          bool         on)
 114:../../libs/PoliTeKDSP/libs/libDaisy/src/hid/disp/display.h ****         = 0;
 115:../../libs/PoliTeKDSP/libs/libDaisy/src/hid/disp/display.h **** 
 116:../../libs/PoliTeKDSP/libs/libDaisy/src/hid/disp/display.h ****     /**
 117:../../libs/PoliTeKDSP/libs/libDaisy/src/hid/disp/display.h ****     Draws a circle around the specified coordinate
 118:../../libs/PoliTeKDSP/libs/libDaisy/src/hid/disp/display.h ****     \param x           x Coordinate of the center of the circle
 119:../../libs/PoliTeKDSP/libs/libDaisy/src/hid/disp/display.h ****     \param y           y Coordinate of the center of the circle
 120:../../libs/PoliTeKDSP/libs/libDaisy/src/hid/disp/display.h ****     \param radius      radius of the circle
 121:../../libs/PoliTeKDSP/libs/libDaisy/src/hid/disp/display.h ****     \param on  on or off
 122:../../libs/PoliTeKDSP/libs/libDaisy/src/hid/disp/display.h ****     */
 123:../../libs/PoliTeKDSP/libs/libDaisy/src/hid/disp/display.h ****     void
 124:../../libs/PoliTeKDSP/libs/libDaisy/src/hid/disp/display.h ****     DrawCircle(uint_fast8_t x, uint_fast8_t y, uint_fast8_t radius, bool on)
 125:../../libs/PoliTeKDSP/libs/libDaisy/src/hid/disp/display.h ****     {
 126:../../libs/PoliTeKDSP/libs/libDaisy/src/hid/disp/display.h ****         DrawArc(x, y, radius, 0, 360, on);
 127:../../libs/PoliTeKDSP/libs/libDaisy/src/hid/disp/display.h ****     };
 128:../../libs/PoliTeKDSP/libs/libDaisy/src/hid/disp/display.h **** 
 129:../../libs/PoliTeKDSP/libs/libDaisy/src/hid/disp/display.h ****     /** 
 130:../../libs/PoliTeKDSP/libs/libDaisy/src/hid/disp/display.h ****     Writes the character with the specific FontDef
 131:../../libs/PoliTeKDSP/libs/libDaisy/src/hid/disp/display.h ****     to the display buffer at the current Cursor position.
 132:../../libs/PoliTeKDSP/libs/libDaisy/src/hid/disp/display.h ****     \param ch character to be written
 133:../../libs/PoliTeKDSP/libs/libDaisy/src/hid/disp/display.h ****     \param font font to be written in
 134:../../libs/PoliTeKDSP/libs/libDaisy/src/hid/disp/display.h ****     \param on    on or off
 135:../../libs/PoliTeKDSP/libs/libDaisy/src/hid/disp/display.h ****     \return &
 136:../../libs/PoliTeKDSP/libs/libDaisy/src/hid/disp/display.h ****     */
 137:../../libs/PoliTeKDSP/libs/libDaisy/src/hid/disp/display.h ****     virtual char WriteChar(char ch, FontDef font, bool on) = 0;
 138:../../libs/PoliTeKDSP/libs/libDaisy/src/hid/disp/display.h **** 
 139:../../libs/PoliTeKDSP/libs/libDaisy/src/hid/disp/display.h ****     /** 
 140:../../libs/PoliTeKDSP/libs/libDaisy/src/hid/disp/display.h ****     Similar to WriteChar, except it will handle an entire String.
 141:../../libs/PoliTeKDSP/libs/libDaisy/src/hid/disp/display.h ****     Wrapping does not happen automatically, so the width
 142:../../libs/PoliTeKDSP/libs/libDaisy/src/hid/disp/display.h ****     of the string must be kept within the dimensions of the screen.
 143:../../libs/PoliTeKDSP/libs/libDaisy/src/hid/disp/display.h ****     \param str string to be written
 144:../../libs/PoliTeKDSP/libs/libDaisy/src/hid/disp/display.h ****     \param font font to use
 145:../../libs/PoliTeKDSP/libs/libDaisy/src/hid/disp/display.h ****     \param on  on or off
 146:../../libs/PoliTeKDSP/libs/libDaisy/src/hid/disp/display.h ****     \return &
 147:../../libs/PoliTeKDSP/libs/libDaisy/src/hid/disp/display.h ****     */
 148:../../libs/PoliTeKDSP/libs/libDaisy/src/hid/disp/display.h ****     virtual char WriteString(const char* str, FontDef font, bool on) = 0;
 149:../../libs/PoliTeKDSP/libs/libDaisy/src/hid/disp/display.h **** 
 150:../../libs/PoliTeKDSP/libs/libDaisy/src/hid/disp/display.h ****     /** 
 151:../../libs/PoliTeKDSP/libs/libDaisy/src/hid/disp/display.h ****     Similar to WriteString but justified within a bounding box.
 152:../../libs/PoliTeKDSP/libs/libDaisy/src/hid/disp/display.h ****     \param str          string to be written
ARM GAS  C:\Users\skipi\AppData\Local\Temp\ccs8qXFk.s 			page 16


 153:../../libs/PoliTeKDSP/libs/libDaisy/src/hid/disp/display.h ****     \param font         font to use
 154:../../libs/PoliTeKDSP/libs/libDaisy/src/hid/disp/display.h ****     \param boundingBox  the bounding box to draw the text in
 155:../../libs/PoliTeKDSP/libs/libDaisy/src/hid/disp/display.h ****     \param alignment    the alignment to use
 156:../../libs/PoliTeKDSP/libs/libDaisy/src/hid/disp/display.h ****     \param on           on or off
 157:../../libs/PoliTeKDSP/libs/libDaisy/src/hid/disp/display.h ****     \return The rectangle that was drawn to
 158:../../libs/PoliTeKDSP/libs/libDaisy/src/hid/disp/display.h ****     */
 159:../../libs/PoliTeKDSP/libs/libDaisy/src/hid/disp/display.h ****     virtual Rectangle WriteStringAligned(const char*    str,
 160:../../libs/PoliTeKDSP/libs/libDaisy/src/hid/disp/display.h ****                                          const FontDef& font,
 161:../../libs/PoliTeKDSP/libs/libDaisy/src/hid/disp/display.h ****                                          Rectangle      boundingBox,
 162:../../libs/PoliTeKDSP/libs/libDaisy/src/hid/disp/display.h ****                                          Alignment      alignment,
 163:../../libs/PoliTeKDSP/libs/libDaisy/src/hid/disp/display.h ****                                          bool           on)
 164:../../libs/PoliTeKDSP/libs/libDaisy/src/hid/disp/display.h ****         = 0;
 165:../../libs/PoliTeKDSP/libs/libDaisy/src/hid/disp/display.h **** 
 166:../../libs/PoliTeKDSP/libs/libDaisy/src/hid/disp/display.h ****     /** 
 167:../../libs/PoliTeKDSP/libs/libDaisy/src/hid/disp/display.h ****     Moves the 'Cursor' position used for WriteChar, and WriteStr to the specified coordinate.
 168:../../libs/PoliTeKDSP/libs/libDaisy/src/hid/disp/display.h ****     \param x x pos
 169:../../libs/PoliTeKDSP/libs/libDaisy/src/hid/disp/display.h ****     \param y y pos
 170:../../libs/PoliTeKDSP/libs/libDaisy/src/hid/disp/display.h ****     */
 171:../../libs/PoliTeKDSP/libs/libDaisy/src/hid/disp/display.h ****     void SetCursor(uint16_t x, uint16_t y)
 172:../../libs/PoliTeKDSP/libs/libDaisy/src/hid/disp/display.h ****     {
 173:../../libs/PoliTeKDSP/libs/libDaisy/src/hid/disp/display.h ****         currentX_ = (x >= Width()) ? Width() - 1 : x;
 174:../../libs/PoliTeKDSP/libs/libDaisy/src/hid/disp/display.h ****         currentY_ = (y >= Height()) ? Height() - 1 : y;
 175:../../libs/PoliTeKDSP/libs/libDaisy/src/hid/disp/display.h ****     }
 176:../../libs/PoliTeKDSP/libs/libDaisy/src/hid/disp/display.h **** 
 177:../../libs/PoliTeKDSP/libs/libDaisy/src/hid/disp/display.h ****     /** 
 178:../../libs/PoliTeKDSP/libs/libDaisy/src/hid/disp/display.h ****     Writes the current display buffer to the OLED device using SPI or I2C depending on 
 179:../../libs/PoliTeKDSP/libs/libDaisy/src/hid/disp/display.h ****     how the object was initialized.
 180:../../libs/PoliTeKDSP/libs/libDaisy/src/hid/disp/display.h ****     */
 181:../../libs/PoliTeKDSP/libs/libDaisy/src/hid/disp/display.h ****     virtual void Update() = 0;
 182:../../libs/PoliTeKDSP/libs/libDaisy/src/hid/disp/display.h **** 
 183:../../libs/PoliTeKDSP/libs/libDaisy/src/hid/disp/display.h ****     /** 
 184:../../libs/PoliTeKDSP/libs/libDaisy/src/hid/disp/display.h ****     Returns true if the Update has finished, used for chained DMA transfers
 185:../../libs/PoliTeKDSP/libs/libDaisy/src/hid/disp/display.h ****     */
 186:../../libs/PoliTeKDSP/libs/libDaisy/src/hid/disp/display.h ****     virtual bool UpdateFinished() = 0;
 187:../../libs/PoliTeKDSP/libs/libDaisy/src/hid/disp/display.h **** 
 188:../../libs/PoliTeKDSP/libs/libDaisy/src/hid/disp/display.h ****   protected:
 189:../../libs/PoliTeKDSP/libs/libDaisy/src/hid/disp/display.h ****     uint16_t currentX_;
 190:../../libs/PoliTeKDSP/libs/libDaisy/src/hid/disp/display.h ****     uint16_t currentY_;
 191:../../libs/PoliTeKDSP/libs/libDaisy/src/hid/disp/display.h **** };
 192:../../libs/PoliTeKDSP/libs/libDaisy/src/hid/disp/display.h **** 
 193:../../libs/PoliTeKDSP/libs/libDaisy/src/hid/disp/display.h **** /** This class is intended as a intermediary class for your actual implementation of the OneBitGrap
 194:../../libs/PoliTeKDSP/libs/libDaisy/src/hid/disp/display.h ****  *  interface. It uses the CRTP design pattern where the template argument is the child class. It p
 195:../../libs/PoliTeKDSP/libs/libDaisy/src/hid/disp/display.h ****  *  implementations for most of the functions, except DrawPixel(), Update() and Fill(), which you'l
 196:../../libs/PoliTeKDSP/libs/libDaisy/src/hid/disp/display.h ****  *  to provide in your child class.
 197:../../libs/PoliTeKDSP/libs/libDaisy/src/hid/disp/display.h ****  *  The main goal of this class is to provide common drawing functions without relying on massive a
 198:../../libs/PoliTeKDSP/libs/libDaisy/src/hid/disp/display.h ****  *  virtual function calls that would result in a performance loss. To achieve this, any drawing fu
 199:../../libs/PoliTeKDSP/libs/libDaisy/src/hid/disp/display.h ****  *  is implemented here and internally calls other drawing functions (e.g. DrawRect() which interna
 200:../../libs/PoliTeKDSP/libs/libDaisy/src/hid/disp/display.h ****  *  DrawPixel() and DrawLine()) makes these calls via the qualified name of these functions to expl
 201:../../libs/PoliTeKDSP/libs/libDaisy/src/hid/disp/display.h ****  *  suppress the virtual dispatch mechanism like this:
 202:../../libs/PoliTeKDSP/libs/libDaisy/src/hid/disp/display.h ****  * 
 203:../../libs/PoliTeKDSP/libs/libDaisy/src/hid/disp/display.h ****  *      ChildType::DrawPixel(...); // no virtual function call; direct call into the child class fu
 204:../../libs/PoliTeKDSP/libs/libDaisy/src/hid/disp/display.h ****  *  
 205:../../libs/PoliTeKDSP/libs/libDaisy/src/hid/disp/display.h ****  *  To create a custom OneBitGraphicsDisplay implementation, you can 
 206:../../libs/PoliTeKDSP/libs/libDaisy/src/hid/disp/display.h ****  *  A) inherit from OneBitGraphicsDisplay directly and provide all the drawing functions yourself
 207:../../libs/PoliTeKDSP/libs/libDaisy/src/hid/disp/display.h ****  *  B) Inherit from OneBitGraphicsDisplayImpl and only provide DrawPixel(), Fill() and Update()
 208:../../libs/PoliTeKDSP/libs/libDaisy/src/hid/disp/display.h ****  *     like this:
 209:../../libs/PoliTeKDSP/libs/libDaisy/src/hid/disp/display.h ****  *  
ARM GAS  C:\Users\skipi\AppData\Local\Temp\ccs8qXFk.s 			page 17


 210:../../libs/PoliTeKDSP/libs/libDaisy/src/hid/disp/display.h ****  *      class MyDisplayClass : public OneBitGraphicsDisplayImpl<MyDisplayClass> 
 211:../../libs/PoliTeKDSP/libs/libDaisy/src/hid/disp/display.h ****  *      {
 212:../../libs/PoliTeKDSP/libs/libDaisy/src/hid/disp/display.h ****  *      public:
 213:../../libs/PoliTeKDSP/libs/libDaisy/src/hid/disp/display.h ****  *          void Fill() override { ... };
 214:../../libs/PoliTeKDSP/libs/libDaisy/src/hid/disp/display.h ****  *          void DrawPixel(uint_fast8_t x, uint_fast8_t y, bool on) override { ... };
 215:../../libs/PoliTeKDSP/libs/libDaisy/src/hid/disp/display.h ****  *          void Update() override { ... }
 216:../../libs/PoliTeKDSP/libs/libDaisy/src/hid/disp/display.h ****  *      };
 217:../../libs/PoliTeKDSP/libs/libDaisy/src/hid/disp/display.h ****  *  
 218:../../libs/PoliTeKDSP/libs/libDaisy/src/hid/disp/display.h ****  */
 219:../../libs/PoliTeKDSP/libs/libDaisy/src/hid/disp/display.h **** template <class ChildType>
 220:../../libs/PoliTeKDSP/libs/libDaisy/src/hid/disp/display.h **** class OneBitGraphicsDisplayImpl : public OneBitGraphicsDisplay
 221:../../libs/PoliTeKDSP/libs/libDaisy/src/hid/disp/display.h **** {
 222:../../libs/PoliTeKDSP/libs/libDaisy/src/hid/disp/display.h ****   public:
 223:../../libs/PoliTeKDSP/libs/libDaisy/src/hid/disp/display.h ****     OneBitGraphicsDisplayImpl() {}
 224:../../libs/PoliTeKDSP/libs/libDaisy/src/hid/disp/display.h ****     virtual ~OneBitGraphicsDisplayImpl() {}
 228              		.loc 11 224 13 view .LVU39
 229              	.LBB579:
 230              	.LBI579:
  23:../../libs/PoliTeKDSP/libs/libDaisy/src/hid/disp/display.h **** 
 231              		.loc 11 23 13 view .LVU40
  23:../../libs/PoliTeKDSP/libs/libDaisy/src/hid/disp/display.h **** 
 232              		.loc 11 23 13 is_stmt 0 view .LVU41
 233              	.LBE579:
 234              	.LBE578:
 235              		.loc 10 18 29 view .LVU42
 236 0000 7047     		bx	lr
 237              		.cfi_endproc
 238              	.LFE2831:
 240              		.weak	_ZN5daisy11OledDisplayINS_13SSD130xDriverILj128ELj64ENS_19SSD130xI2CTransportEEEED1Ev
 241              		.thumb_set _ZN5daisy11OledDisplayINS_13SSD130xDriverILj128ELj64ENS_19SSD130xI2CTransportEEEED1Ev,_
 242 0002 00BF     		.section	.text._ZNK5daisy11OledDisplayINS_13SSD130xDriverILj128ELj64ENS_19SSD130xI2CTransportEEEE6
 243              		.align	1
 244              		.p2align 2,,3
 245              		.weak	_ZNK5daisy11OledDisplayINS_13SSD130xDriverILj128ELj64ENS_19SSD130xI2CTransportEEEE6HeightEv
 246              		.syntax unified
 247              		.thumb
 248              		.thumb_func
 249              		.fpu fpv5-d16
 251              	_ZNK5daisy11OledDisplayINS_13SSD130xDriverILj128ELj64ENS_19SSD130xI2CTransportEEEE6HeightEv:
 252              	.LVL11:
 253              	.LFB2834:
  19:../../libs/PoliTeKDSP/libs/libDaisy/src/hid/disp/oled_display.h **** 
  20:../../libs/PoliTeKDSP/libs/libDaisy/src/hid/disp/oled_display.h ****     struct Config
  21:../../libs/PoliTeKDSP/libs/libDaisy/src/hid/disp/oled_display.h ****     {
  22:../../libs/PoliTeKDSP/libs/libDaisy/src/hid/disp/oled_display.h ****         typename DisplayDriver::Config driver_config;
  23:../../libs/PoliTeKDSP/libs/libDaisy/src/hid/disp/oled_display.h ****     };
  24:../../libs/PoliTeKDSP/libs/libDaisy/src/hid/disp/oled_display.h **** 
  25:../../libs/PoliTeKDSP/libs/libDaisy/src/hid/disp/oled_display.h ****     void Init(Config config) { driver_.Init(config.driver_config); }
  26:../../libs/PoliTeKDSP/libs/libDaisy/src/hid/disp/oled_display.h **** 
  27:../../libs/PoliTeKDSP/libs/libDaisy/src/hid/disp/oled_display.h ****     uint16_t Height() const override { return driver_.Height(); }
 254              		.loc 10 27 14 is_stmt 1 view -0
 255              		.cfi_startproc
 256              		@ args = 0, pretend = 0, frame = 0
 257              		@ frame_needed = 0, uses_anonymous_args = 0
 258              		@ link register save eliminated.
 259              		.loc 10 27 65 is_stmt 0 view .LVU44
 260 0000 4020     		movs	r0, #64
ARM GAS  C:\Users\skipi\AppData\Local\Temp\ccs8qXFk.s 			page 18


 261              	.LVL12:
 262              		.loc 10 27 65 view .LVU45
 263 0002 7047     		bx	lr
 264              		.cfi_endproc
 265              	.LFE2834:
 267              		.section	.text._ZNK5daisy11OledDisplayINS_13SSD130xDriverILj128ELj64ENS_19SSD130xI2CTransportEEEE5
 268              		.align	1
 269              		.p2align 2,,3
 270              		.weak	_ZNK5daisy11OledDisplayINS_13SSD130xDriverILj128ELj64ENS_19SSD130xI2CTransportEEEE5WidthEv
 271              		.syntax unified
 272              		.thumb
 273              		.thumb_func
 274              		.fpu fpv5-d16
 276              	_ZNK5daisy11OledDisplayINS_13SSD130xDriverILj128ELj64ENS_19SSD130xI2CTransportEEEE5WidthEv:
 277              	.LVL13:
 278              	.LFB2835:
  28:../../libs/PoliTeKDSP/libs/libDaisy/src/hid/disp/oled_display.h ****     uint16_t Width() const override { return driver_.Width(); }
 279              		.loc 10 28 14 is_stmt 1 view -0
 280              		.cfi_startproc
 281              		@ args = 0, pretend = 0, frame = 0
 282              		@ frame_needed = 0, uses_anonymous_args = 0
 283              		@ link register save eliminated.
 284              		.loc 10 28 63 is_stmt 0 view .LVU47
 285 0000 8020     		movs	r0, #128
 286              	.LVL14:
 287              		.loc 10 28 63 view .LVU48
 288 0002 7047     		bx	lr
 289              		.cfi_endproc
 290              	.LFE2835:
 292              		.section	.text._ZN5daisy11OledDisplayINS_13SSD130xDriverILj128ELj64ENS_19SSD130xI2CTransportEEEE4F
 293              		.align	1
 294              		.p2align 2,,3
 295              		.weak	_ZN5daisy11OledDisplayINS_13SSD130xDriverILj128ELj64ENS_19SSD130xI2CTransportEEEE4FillEb
 296              		.syntax unified
 297              		.thumb
 298              		.thumb_func
 299              		.fpu fpv5-d16
 301              	_ZN5daisy11OledDisplayINS_13SSD130xDriverILj128ELj64ENS_19SSD130xI2CTransportEEEE4FillEb:
 302              	.LVL15:
 303              	.LFB2836:
  29:../../libs/PoliTeKDSP/libs/libDaisy/src/hid/disp/oled_display.h **** 
  30:../../libs/PoliTeKDSP/libs/libDaisy/src/hid/disp/oled_display.h ****     /** 
  31:../../libs/PoliTeKDSP/libs/libDaisy/src/hid/disp/oled_display.h ****     Fills the entire display with either on/off.
  32:../../libs/PoliTeKDSP/libs/libDaisy/src/hid/disp/oled_display.h ****     \param on Sets on or off.
  33:../../libs/PoliTeKDSP/libs/libDaisy/src/hid/disp/oled_display.h ****     */
  34:../../libs/PoliTeKDSP/libs/libDaisy/src/hid/disp/oled_display.h ****     void Fill(bool on) override { driver_.Fill(on); }
 304              		.loc 10 34 10 is_stmt 1 view -0
 305              		.cfi_startproc
 306              		@ args = 0, pretend = 0, frame = 0
 307              		@ frame_needed = 0, uses_anonymous_args = 0
 308              		@ link register save eliminated.
 309              	.LBB580:
 310              	.LBI580:
 311              		.file 12 "../../libs/PoliTeKDSP/libs/libDaisy/src/dev/oled_ssd130x.h"
   1:../../libs/PoliTeKDSP/libs/libDaisy/src/dev/oled_ssd130x.h **** #pragma once
   2:../../libs/PoliTeKDSP/libs/libDaisy/src/dev/oled_ssd130x.h **** #ifndef SA_OLED_SSD130X_H
   3:../../libs/PoliTeKDSP/libs/libDaisy/src/dev/oled_ssd130x.h **** #define SA_OLED_SSD130X_H /**< & */
ARM GAS  C:\Users\skipi\AppData\Local\Temp\ccs8qXFk.s 			page 19


   4:../../libs/PoliTeKDSP/libs/libDaisy/src/dev/oled_ssd130x.h **** 
   5:../../libs/PoliTeKDSP/libs/libDaisy/src/dev/oled_ssd130x.h **** #include "per/i2c.h"
   6:../../libs/PoliTeKDSP/libs/libDaisy/src/dev/oled_ssd130x.h **** #include "per/spi.h"
   7:../../libs/PoliTeKDSP/libs/libDaisy/src/dev/oled_ssd130x.h **** #include "per/gpio.h"
   8:../../libs/PoliTeKDSP/libs/libDaisy/src/dev/oled_ssd130x.h **** #include "sys/system.h"
   9:../../libs/PoliTeKDSP/libs/libDaisy/src/dev/oled_ssd130x.h **** #include "stm32h7xx_hal.h"
  10:../../libs/PoliTeKDSP/libs/libDaisy/src/dev/oled_ssd130x.h **** 
  11:../../libs/PoliTeKDSP/libs/libDaisy/src/dev/oled_ssd130x.h **** namespace daisy
  12:../../libs/PoliTeKDSP/libs/libDaisy/src/dev/oled_ssd130x.h **** {
  13:../../libs/PoliTeKDSP/libs/libDaisy/src/dev/oled_ssd130x.h **** /**
  14:../../libs/PoliTeKDSP/libs/libDaisy/src/dev/oled_ssd130x.h ****  * I2C Transport for SSD1306 / SSD1309 OLED display devices
  15:../../libs/PoliTeKDSP/libs/libDaisy/src/dev/oled_ssd130x.h ****  */
  16:../../libs/PoliTeKDSP/libs/libDaisy/src/dev/oled_ssd130x.h **** class SSD130xI2CTransport
  17:../../libs/PoliTeKDSP/libs/libDaisy/src/dev/oled_ssd130x.h **** {
  18:../../libs/PoliTeKDSP/libs/libDaisy/src/dev/oled_ssd130x.h ****   public:
  19:../../libs/PoliTeKDSP/libs/libDaisy/src/dev/oled_ssd130x.h ****     struct Config
  20:../../libs/PoliTeKDSP/libs/libDaisy/src/dev/oled_ssd130x.h ****     {
  21:../../libs/PoliTeKDSP/libs/libDaisy/src/dev/oled_ssd130x.h ****         Config()
  22:../../libs/PoliTeKDSP/libs/libDaisy/src/dev/oled_ssd130x.h ****         {
  23:../../libs/PoliTeKDSP/libs/libDaisy/src/dev/oled_ssd130x.h ****             // Intialize using defaults
  24:../../libs/PoliTeKDSP/libs/libDaisy/src/dev/oled_ssd130x.h ****             Defaults();
  25:../../libs/PoliTeKDSP/libs/libDaisy/src/dev/oled_ssd130x.h ****         }
  26:../../libs/PoliTeKDSP/libs/libDaisy/src/dev/oled_ssd130x.h ****         I2CHandle::Config i2c_config;
  27:../../libs/PoliTeKDSP/libs/libDaisy/src/dev/oled_ssd130x.h ****         uint8_t           i2c_address;
  28:../../libs/PoliTeKDSP/libs/libDaisy/src/dev/oled_ssd130x.h ****         void              Defaults()
  29:../../libs/PoliTeKDSP/libs/libDaisy/src/dev/oled_ssd130x.h ****         {
  30:../../libs/PoliTeKDSP/libs/libDaisy/src/dev/oled_ssd130x.h ****             i2c_config.periph         = I2CHandle::Config::Peripheral::I2C_1;
  31:../../libs/PoliTeKDSP/libs/libDaisy/src/dev/oled_ssd130x.h ****             i2c_config.speed          = I2CHandle::Config::Speed::I2C_1MHZ;
  32:../../libs/PoliTeKDSP/libs/libDaisy/src/dev/oled_ssd130x.h ****             i2c_config.mode           = I2CHandle::Config::Mode::I2C_MASTER;
  33:../../libs/PoliTeKDSP/libs/libDaisy/src/dev/oled_ssd130x.h ****             i2c_config.pin_config.scl = Pin(PORTB, 8);
  34:../../libs/PoliTeKDSP/libs/libDaisy/src/dev/oled_ssd130x.h ****             i2c_config.pin_config.sda = Pin(PORTB, 9);
  35:../../libs/PoliTeKDSP/libs/libDaisy/src/dev/oled_ssd130x.h ****             i2c_address               = 0x3C;
  36:../../libs/PoliTeKDSP/libs/libDaisy/src/dev/oled_ssd130x.h ****         }
  37:../../libs/PoliTeKDSP/libs/libDaisy/src/dev/oled_ssd130x.h ****     };
  38:../../libs/PoliTeKDSP/libs/libDaisy/src/dev/oled_ssd130x.h ****     void Init(const Config& config)
  39:../../libs/PoliTeKDSP/libs/libDaisy/src/dev/oled_ssd130x.h ****     {
  40:../../libs/PoliTeKDSP/libs/libDaisy/src/dev/oled_ssd130x.h ****         i2c_address_ = config.i2c_address;
  41:../../libs/PoliTeKDSP/libs/libDaisy/src/dev/oled_ssd130x.h ****         i2c_.Init(config.i2c_config);
  42:../../libs/PoliTeKDSP/libs/libDaisy/src/dev/oled_ssd130x.h ****     };
  43:../../libs/PoliTeKDSP/libs/libDaisy/src/dev/oled_ssd130x.h ****     void SendCommand(uint8_t cmd)
  44:../../libs/PoliTeKDSP/libs/libDaisy/src/dev/oled_ssd130x.h ****     {
  45:../../libs/PoliTeKDSP/libs/libDaisy/src/dev/oled_ssd130x.h ****         uint8_t buf[2] = {0X00, cmd};
  46:../../libs/PoliTeKDSP/libs/libDaisy/src/dev/oled_ssd130x.h ****         i2c_.TransmitBlocking(i2c_address_, buf, 2, 1000);
  47:../../libs/PoliTeKDSP/libs/libDaisy/src/dev/oled_ssd130x.h ****     };
  48:../../libs/PoliTeKDSP/libs/libDaisy/src/dev/oled_ssd130x.h **** 
  49:../../libs/PoliTeKDSP/libs/libDaisy/src/dev/oled_ssd130x.h ****     void SendData(uint8_t* buff, size_t size)
  50:../../libs/PoliTeKDSP/libs/libDaisy/src/dev/oled_ssd130x.h ****     {
  51:../../libs/PoliTeKDSP/libs/libDaisy/src/dev/oled_ssd130x.h ****         for(size_t i = 0; i < size; i++)
  52:../../libs/PoliTeKDSP/libs/libDaisy/src/dev/oled_ssd130x.h ****         {
  53:../../libs/PoliTeKDSP/libs/libDaisy/src/dev/oled_ssd130x.h ****             uint8_t buf[2] = {0X40, buff[i]};
  54:../../libs/PoliTeKDSP/libs/libDaisy/src/dev/oled_ssd130x.h ****             i2c_.TransmitBlocking(i2c_address_, buf, 2, 1000);
  55:../../libs/PoliTeKDSP/libs/libDaisy/src/dev/oled_ssd130x.h ****         }
  56:../../libs/PoliTeKDSP/libs/libDaisy/src/dev/oled_ssd130x.h ****     };
  57:../../libs/PoliTeKDSP/libs/libDaisy/src/dev/oled_ssd130x.h **** 
  58:../../libs/PoliTeKDSP/libs/libDaisy/src/dev/oled_ssd130x.h ****   private:
  59:../../libs/PoliTeKDSP/libs/libDaisy/src/dev/oled_ssd130x.h ****     daisy::I2CHandle i2c_;
  60:../../libs/PoliTeKDSP/libs/libDaisy/src/dev/oled_ssd130x.h ****     uint8_t          i2c_address_;
ARM GAS  C:\Users\skipi\AppData\Local\Temp\ccs8qXFk.s 			page 20


  61:../../libs/PoliTeKDSP/libs/libDaisy/src/dev/oled_ssd130x.h **** };
  62:../../libs/PoliTeKDSP/libs/libDaisy/src/dev/oled_ssd130x.h **** 
  63:../../libs/PoliTeKDSP/libs/libDaisy/src/dev/oled_ssd130x.h **** /**
  64:../../libs/PoliTeKDSP/libs/libDaisy/src/dev/oled_ssd130x.h ****  * 4 Wire SPI Transport for SSD1306 / SSD1309 OLED display devices
  65:../../libs/PoliTeKDSP/libs/libDaisy/src/dev/oled_ssd130x.h ****  */
  66:../../libs/PoliTeKDSP/libs/libDaisy/src/dev/oled_ssd130x.h **** class SSD130x4WireSpiTransport
  67:../../libs/PoliTeKDSP/libs/libDaisy/src/dev/oled_ssd130x.h **** {
  68:../../libs/PoliTeKDSP/libs/libDaisy/src/dev/oled_ssd130x.h ****   public:
  69:../../libs/PoliTeKDSP/libs/libDaisy/src/dev/oled_ssd130x.h ****     struct Config
  70:../../libs/PoliTeKDSP/libs/libDaisy/src/dev/oled_ssd130x.h ****     {
  71:../../libs/PoliTeKDSP/libs/libDaisy/src/dev/oled_ssd130x.h ****         Config()
  72:../../libs/PoliTeKDSP/libs/libDaisy/src/dev/oled_ssd130x.h ****         {
  73:../../libs/PoliTeKDSP/libs/libDaisy/src/dev/oled_ssd130x.h ****             // Initialize using defaults
  74:../../libs/PoliTeKDSP/libs/libDaisy/src/dev/oled_ssd130x.h ****             Defaults();
  75:../../libs/PoliTeKDSP/libs/libDaisy/src/dev/oled_ssd130x.h ****         }
  76:../../libs/PoliTeKDSP/libs/libDaisy/src/dev/oled_ssd130x.h ****         SpiHandle::Config spi_config;
  77:../../libs/PoliTeKDSP/libs/libDaisy/src/dev/oled_ssd130x.h ****         struct
  78:../../libs/PoliTeKDSP/libs/libDaisy/src/dev/oled_ssd130x.h ****         {
  79:../../libs/PoliTeKDSP/libs/libDaisy/src/dev/oled_ssd130x.h ****             Pin dc;    /**< & */
  80:../../libs/PoliTeKDSP/libs/libDaisy/src/dev/oled_ssd130x.h ****             Pin reset; /**< & */
  81:../../libs/PoliTeKDSP/libs/libDaisy/src/dev/oled_ssd130x.h ****         } pin_config;
  82:../../libs/PoliTeKDSP/libs/libDaisy/src/dev/oled_ssd130x.h ****         bool useDma;
  83:../../libs/PoliTeKDSP/libs/libDaisy/src/dev/oled_ssd130x.h ****         void Defaults()
  84:../../libs/PoliTeKDSP/libs/libDaisy/src/dev/oled_ssd130x.h ****         {
  85:../../libs/PoliTeKDSP/libs/libDaisy/src/dev/oled_ssd130x.h ****             // SPI peripheral config
  86:../../libs/PoliTeKDSP/libs/libDaisy/src/dev/oled_ssd130x.h ****             spi_config.periph = SpiHandle::Config::Peripheral::SPI_1;
  87:../../libs/PoliTeKDSP/libs/libDaisy/src/dev/oled_ssd130x.h ****             spi_config.mode   = SpiHandle::Config::Mode::MASTER;
  88:../../libs/PoliTeKDSP/libs/libDaisy/src/dev/oled_ssd130x.h ****             spi_config.direction
  89:../../libs/PoliTeKDSP/libs/libDaisy/src/dev/oled_ssd130x.h ****                 = SpiHandle::Config::Direction::TWO_LINES_TX_ONLY;
  90:../../libs/PoliTeKDSP/libs/libDaisy/src/dev/oled_ssd130x.h ****             spi_config.datasize       = 8;
  91:../../libs/PoliTeKDSP/libs/libDaisy/src/dev/oled_ssd130x.h ****             spi_config.clock_polarity = SpiHandle::Config::ClockPolarity::LOW;
  92:../../libs/PoliTeKDSP/libs/libDaisy/src/dev/oled_ssd130x.h ****             spi_config.clock_phase    = SpiHandle::Config::ClockPhase::ONE_EDGE;
  93:../../libs/PoliTeKDSP/libs/libDaisy/src/dev/oled_ssd130x.h ****             spi_config.nss            = SpiHandle::Config::NSS::HARD_OUTPUT;
  94:../../libs/PoliTeKDSP/libs/libDaisy/src/dev/oled_ssd130x.h ****             spi_config.baud_prescaler = SpiHandle::Config::BaudPrescaler::PS_8;
  95:../../libs/PoliTeKDSP/libs/libDaisy/src/dev/oled_ssd130x.h ****             // SPI pin config
  96:../../libs/PoliTeKDSP/libs/libDaisy/src/dev/oled_ssd130x.h ****             spi_config.pin_config.sclk = Pin(PORTG, 11);
  97:../../libs/PoliTeKDSP/libs/libDaisy/src/dev/oled_ssd130x.h ****             spi_config.pin_config.miso = Pin(PORTX, 0);
  98:../../libs/PoliTeKDSP/libs/libDaisy/src/dev/oled_ssd130x.h ****             spi_config.pin_config.mosi = Pin(PORTB, 5);
  99:../../libs/PoliTeKDSP/libs/libDaisy/src/dev/oled_ssd130x.h ****             spi_config.pin_config.nss  = Pin(PORTG, 10);
 100:../../libs/PoliTeKDSP/libs/libDaisy/src/dev/oled_ssd130x.h ****             // SSD130x control pin config
 101:../../libs/PoliTeKDSP/libs/libDaisy/src/dev/oled_ssd130x.h ****             pin_config.dc    = Pin(PORTB, 4);
 102:../../libs/PoliTeKDSP/libs/libDaisy/src/dev/oled_ssd130x.h ****             pin_config.reset = Pin(PORTB, 15);
 103:../../libs/PoliTeKDSP/libs/libDaisy/src/dev/oled_ssd130x.h ****             // Using DMA off by default
 104:../../libs/PoliTeKDSP/libs/libDaisy/src/dev/oled_ssd130x.h ****             useDma = false;
 105:../../libs/PoliTeKDSP/libs/libDaisy/src/dev/oled_ssd130x.h ****         }
 106:../../libs/PoliTeKDSP/libs/libDaisy/src/dev/oled_ssd130x.h ****     };
 107:../../libs/PoliTeKDSP/libs/libDaisy/src/dev/oled_ssd130x.h ****     void Init(const Config& config)
 108:../../libs/PoliTeKDSP/libs/libDaisy/src/dev/oled_ssd130x.h ****     {
 109:../../libs/PoliTeKDSP/libs/libDaisy/src/dev/oled_ssd130x.h ****         // Initialize both GPIO
 110:../../libs/PoliTeKDSP/libs/libDaisy/src/dev/oled_ssd130x.h ****         pin_dc_.Init(config.pin_config.dc, GPIO::Mode::OUTPUT);
 111:../../libs/PoliTeKDSP/libs/libDaisy/src/dev/oled_ssd130x.h ****         pin_reset_.Init(config.pin_config.reset, GPIO::Mode::OUTPUT);
 112:../../libs/PoliTeKDSP/libs/libDaisy/src/dev/oled_ssd130x.h **** 
 113:../../libs/PoliTeKDSP/libs/libDaisy/src/dev/oled_ssd130x.h ****         // Initialize SPI
 114:../../libs/PoliTeKDSP/libs/libDaisy/src/dev/oled_ssd130x.h ****         spi_.Init(config.spi_config);
 115:../../libs/PoliTeKDSP/libs/libDaisy/src/dev/oled_ssd130x.h **** 
 116:../../libs/PoliTeKDSP/libs/libDaisy/src/dev/oled_ssd130x.h ****         // Reset and Configure OLED.
 117:../../libs/PoliTeKDSP/libs/libDaisy/src/dev/oled_ssd130x.h ****         pin_reset_.Write(0);
ARM GAS  C:\Users\skipi\AppData\Local\Temp\ccs8qXFk.s 			page 21


 118:../../libs/PoliTeKDSP/libs/libDaisy/src/dev/oled_ssd130x.h ****         System::Delay(10);
 119:../../libs/PoliTeKDSP/libs/libDaisy/src/dev/oled_ssd130x.h ****         pin_reset_.Write(1);
 120:../../libs/PoliTeKDSP/libs/libDaisy/src/dev/oled_ssd130x.h ****         System::Delay(10);
 121:../../libs/PoliTeKDSP/libs/libDaisy/src/dev/oled_ssd130x.h ****     };
 122:../../libs/PoliTeKDSP/libs/libDaisy/src/dev/oled_ssd130x.h **** 
 123:../../libs/PoliTeKDSP/libs/libDaisy/src/dev/oled_ssd130x.h ****     void SendCommand(uint8_t cmd)
 124:../../libs/PoliTeKDSP/libs/libDaisy/src/dev/oled_ssd130x.h ****     {
 125:../../libs/PoliTeKDSP/libs/libDaisy/src/dev/oled_ssd130x.h ****         pin_dc_.Write(0);
 126:../../libs/PoliTeKDSP/libs/libDaisy/src/dev/oled_ssd130x.h ****         spi_.BlockingTransmit(&cmd, 1);
 127:../../libs/PoliTeKDSP/libs/libDaisy/src/dev/oled_ssd130x.h ****     };
 128:../../libs/PoliTeKDSP/libs/libDaisy/src/dev/oled_ssd130x.h **** 
 129:../../libs/PoliTeKDSP/libs/libDaisy/src/dev/oled_ssd130x.h ****     void SendCommands(uint8_t* buff, size_t size)
 130:../../libs/PoliTeKDSP/libs/libDaisy/src/dev/oled_ssd130x.h ****     {
 131:../../libs/PoliTeKDSP/libs/libDaisy/src/dev/oled_ssd130x.h ****         pin_dc_.Write(0);
 132:../../libs/PoliTeKDSP/libs/libDaisy/src/dev/oled_ssd130x.h ****         spi_.BlockingTransmit(buff, size);
 133:../../libs/PoliTeKDSP/libs/libDaisy/src/dev/oled_ssd130x.h ****     };
 134:../../libs/PoliTeKDSP/libs/libDaisy/src/dev/oled_ssd130x.h **** 
 135:../../libs/PoliTeKDSP/libs/libDaisy/src/dev/oled_ssd130x.h ****     void SendData(uint8_t* buff, size_t size)
 136:../../libs/PoliTeKDSP/libs/libDaisy/src/dev/oled_ssd130x.h ****     {
 137:../../libs/PoliTeKDSP/libs/libDaisy/src/dev/oled_ssd130x.h ****         pin_dc_.Write(1);
 138:../../libs/PoliTeKDSP/libs/libDaisy/src/dev/oled_ssd130x.h ****         spi_.BlockingTransmit(buff, size);
 139:../../libs/PoliTeKDSP/libs/libDaisy/src/dev/oled_ssd130x.h ****     };
 140:../../libs/PoliTeKDSP/libs/libDaisy/src/dev/oled_ssd130x.h **** 
 141:../../libs/PoliTeKDSP/libs/libDaisy/src/dev/oled_ssd130x.h ****     void SendDataDma(uint8_t*                          buff,
 142:../../libs/PoliTeKDSP/libs/libDaisy/src/dev/oled_ssd130x.h ****                      size_t                            size,
 143:../../libs/PoliTeKDSP/libs/libDaisy/src/dev/oled_ssd130x.h ****                      SpiHandle::EndCallbackFunctionPtr end_callback,
 144:../../libs/PoliTeKDSP/libs/libDaisy/src/dev/oled_ssd130x.h ****                      void*                             context)
 145:../../libs/PoliTeKDSP/libs/libDaisy/src/dev/oled_ssd130x.h ****     {
 146:../../libs/PoliTeKDSP/libs/libDaisy/src/dev/oled_ssd130x.h ****         SCB_CleanInvalidateDCache_by_Addr(buff, size);
 147:../../libs/PoliTeKDSP/libs/libDaisy/src/dev/oled_ssd130x.h ****         pin_dc_.Write(1);
 148:../../libs/PoliTeKDSP/libs/libDaisy/src/dev/oled_ssd130x.h ****         spi_.DmaTransmit(buff, size, NULL, end_callback, context);
 149:../../libs/PoliTeKDSP/libs/libDaisy/src/dev/oled_ssd130x.h ****     };
 150:../../libs/PoliTeKDSP/libs/libDaisy/src/dev/oled_ssd130x.h **** 
 151:../../libs/PoliTeKDSP/libs/libDaisy/src/dev/oled_ssd130x.h ****   private:
 152:../../libs/PoliTeKDSP/libs/libDaisy/src/dev/oled_ssd130x.h ****     SpiHandle spi_;
 153:../../libs/PoliTeKDSP/libs/libDaisy/src/dev/oled_ssd130x.h ****     GPIO      pin_reset_;
 154:../../libs/PoliTeKDSP/libs/libDaisy/src/dev/oled_ssd130x.h ****     GPIO      pin_dc_;
 155:../../libs/PoliTeKDSP/libs/libDaisy/src/dev/oled_ssd130x.h **** };
 156:../../libs/PoliTeKDSP/libs/libDaisy/src/dev/oled_ssd130x.h **** 
 157:../../libs/PoliTeKDSP/libs/libDaisy/src/dev/oled_ssd130x.h **** /**
 158:../../libs/PoliTeKDSP/libs/libDaisy/src/dev/oled_ssd130x.h ****  * Soft SPI Transport for SSD1306 / SSD1309 OLED display devices
 159:../../libs/PoliTeKDSP/libs/libDaisy/src/dev/oled_ssd130x.h ****  */
 160:../../libs/PoliTeKDSP/libs/libDaisy/src/dev/oled_ssd130x.h **** class SSD130x4WireSoftSpiTransport
 161:../../libs/PoliTeKDSP/libs/libDaisy/src/dev/oled_ssd130x.h **** {
 162:../../libs/PoliTeKDSP/libs/libDaisy/src/dev/oled_ssd130x.h ****   public:
 163:../../libs/PoliTeKDSP/libs/libDaisy/src/dev/oled_ssd130x.h ****     struct Config
 164:../../libs/PoliTeKDSP/libs/libDaisy/src/dev/oled_ssd130x.h ****     {
 165:../../libs/PoliTeKDSP/libs/libDaisy/src/dev/oled_ssd130x.h ****         Config()
 166:../../libs/PoliTeKDSP/libs/libDaisy/src/dev/oled_ssd130x.h ****         {
 167:../../libs/PoliTeKDSP/libs/libDaisy/src/dev/oled_ssd130x.h ****             // Initialize using defaults
 168:../../libs/PoliTeKDSP/libs/libDaisy/src/dev/oled_ssd130x.h ****             Defaults();
 169:../../libs/PoliTeKDSP/libs/libDaisy/src/dev/oled_ssd130x.h ****         }
 170:../../libs/PoliTeKDSP/libs/libDaisy/src/dev/oled_ssd130x.h ****         struct
 171:../../libs/PoliTeKDSP/libs/libDaisy/src/dev/oled_ssd130x.h ****         {
 172:../../libs/PoliTeKDSP/libs/libDaisy/src/dev/oled_ssd130x.h ****             uint32_t sclk_delay;
 173:../../libs/PoliTeKDSP/libs/libDaisy/src/dev/oled_ssd130x.h ****             Pin      sclk;
 174:../../libs/PoliTeKDSP/libs/libDaisy/src/dev/oled_ssd130x.h ****             Pin      mosi;
ARM GAS  C:\Users\skipi\AppData\Local\Temp\ccs8qXFk.s 			page 22


 175:../../libs/PoliTeKDSP/libs/libDaisy/src/dev/oled_ssd130x.h ****             Pin      dc;
 176:../../libs/PoliTeKDSP/libs/libDaisy/src/dev/oled_ssd130x.h ****             Pin      reset;
 177:../../libs/PoliTeKDSP/libs/libDaisy/src/dev/oled_ssd130x.h ****         } pin_config;
 178:../../libs/PoliTeKDSP/libs/libDaisy/src/dev/oled_ssd130x.h ****         void Defaults()
 179:../../libs/PoliTeKDSP/libs/libDaisy/src/dev/oled_ssd130x.h ****         {
 180:../../libs/PoliTeKDSP/libs/libDaisy/src/dev/oled_ssd130x.h ****             pin_config.sclk_delay = 0; // fast as possible?!
 181:../../libs/PoliTeKDSP/libs/libDaisy/src/dev/oled_ssd130x.h ****             // SPI peripheral config
 182:../../libs/PoliTeKDSP/libs/libDaisy/src/dev/oled_ssd130x.h ****             pin_config.sclk = Pin(PORTD, 3); /**< D10 - SPI2 SCK  */
 183:../../libs/PoliTeKDSP/libs/libDaisy/src/dev/oled_ssd130x.h ****             pin_config.mosi = Pin(PORTC, 3); /**< D9  - SPI2 MOSI */
 184:../../libs/PoliTeKDSP/libs/libDaisy/src/dev/oled_ssd130x.h ****             // SSD130x control pin config
 185:../../libs/PoliTeKDSP/libs/libDaisy/src/dev/oled_ssd130x.h ****             pin_config.dc    = Pin(PORTC, 11); //D2
 186:../../libs/PoliTeKDSP/libs/libDaisy/src/dev/oled_ssd130x.h ****             pin_config.reset = Pin(PORTC, 10); //D3
 187:../../libs/PoliTeKDSP/libs/libDaisy/src/dev/oled_ssd130x.h ****         }
 188:../../libs/PoliTeKDSP/libs/libDaisy/src/dev/oled_ssd130x.h ****     };
 189:../../libs/PoliTeKDSP/libs/libDaisy/src/dev/oled_ssd130x.h ****     void Init(const Config& config)
 190:../../libs/PoliTeKDSP/libs/libDaisy/src/dev/oled_ssd130x.h ****     {
 191:../../libs/PoliTeKDSP/libs/libDaisy/src/dev/oled_ssd130x.h ****         // Initialize both GPIO
 192:../../libs/PoliTeKDSP/libs/libDaisy/src/dev/oled_ssd130x.h ****         pin_sclk_.Init(config.pin_config.sclk, GPIO::Mode::OUTPUT);
 193:../../libs/PoliTeKDSP/libs/libDaisy/src/dev/oled_ssd130x.h ****         pin_sclk_.Write(1); //ClockPolarity::LOW
 194:../../libs/PoliTeKDSP/libs/libDaisy/src/dev/oled_ssd130x.h ****         clk_delay = config.pin_config.sclk_delay;
 195:../../libs/PoliTeKDSP/libs/libDaisy/src/dev/oled_ssd130x.h ****         pin_mosi_.Init(config.pin_config.mosi, GPIO::Mode::OUTPUT);
 196:../../libs/PoliTeKDSP/libs/libDaisy/src/dev/oled_ssd130x.h ****         pin_mosi_.Write(0);
 197:../../libs/PoliTeKDSP/libs/libDaisy/src/dev/oled_ssd130x.h **** 
 198:../../libs/PoliTeKDSP/libs/libDaisy/src/dev/oled_ssd130x.h ****         pin_dc_.Init(config.pin_config.dc, GPIO::Mode::OUTPUT);
 199:../../libs/PoliTeKDSP/libs/libDaisy/src/dev/oled_ssd130x.h ****         pin_reset_.Init(config.pin_config.reset, GPIO::Mode::OUTPUT);
 200:../../libs/PoliTeKDSP/libs/libDaisy/src/dev/oled_ssd130x.h **** 
 201:../../libs/PoliTeKDSP/libs/libDaisy/src/dev/oled_ssd130x.h ****         // Reset and Configure OLED.
 202:../../libs/PoliTeKDSP/libs/libDaisy/src/dev/oled_ssd130x.h ****         pin_reset_.Write(0);
 203:../../libs/PoliTeKDSP/libs/libDaisy/src/dev/oled_ssd130x.h ****         System::Delay(10);
 204:../../libs/PoliTeKDSP/libs/libDaisy/src/dev/oled_ssd130x.h ****         pin_reset_.Write(1);
 205:../../libs/PoliTeKDSP/libs/libDaisy/src/dev/oled_ssd130x.h ****         System::Delay(10);
 206:../../libs/PoliTeKDSP/libs/libDaisy/src/dev/oled_ssd130x.h ****     };
 207:../../libs/PoliTeKDSP/libs/libDaisy/src/dev/oled_ssd130x.h ****     void SendCommand(uint8_t cmd)
 208:../../libs/PoliTeKDSP/libs/libDaisy/src/dev/oled_ssd130x.h ****     {
 209:../../libs/PoliTeKDSP/libs/libDaisy/src/dev/oled_ssd130x.h ****         pin_dc_.Write(0);
 210:../../libs/PoliTeKDSP/libs/libDaisy/src/dev/oled_ssd130x.h ****         SoftSpiTransmit(cmd);
 211:../../libs/PoliTeKDSP/libs/libDaisy/src/dev/oled_ssd130x.h ****     };
 212:../../libs/PoliTeKDSP/libs/libDaisy/src/dev/oled_ssd130x.h **** 
 213:../../libs/PoliTeKDSP/libs/libDaisy/src/dev/oled_ssd130x.h ****     void SendData(uint8_t* buff, size_t size)
 214:../../libs/PoliTeKDSP/libs/libDaisy/src/dev/oled_ssd130x.h ****     {
 215:../../libs/PoliTeKDSP/libs/libDaisy/src/dev/oled_ssd130x.h ****         pin_dc_.Write(1);
 216:../../libs/PoliTeKDSP/libs/libDaisy/src/dev/oled_ssd130x.h ****         for(size_t i = 0; i < size; i++)
 217:../../libs/PoliTeKDSP/libs/libDaisy/src/dev/oled_ssd130x.h ****             SoftSpiTransmit(buff[i]);
 218:../../libs/PoliTeKDSP/libs/libDaisy/src/dev/oled_ssd130x.h ****     };
 219:../../libs/PoliTeKDSP/libs/libDaisy/src/dev/oled_ssd130x.h **** 
 220:../../libs/PoliTeKDSP/libs/libDaisy/src/dev/oled_ssd130x.h ****   private:
 221:../../libs/PoliTeKDSP/libs/libDaisy/src/dev/oled_ssd130x.h ****     void SoftSpiTransmit(uint8_t val)
 222:../../libs/PoliTeKDSP/libs/libDaisy/src/dev/oled_ssd130x.h ****     {
 223:../../libs/PoliTeKDSP/libs/libDaisy/src/dev/oled_ssd130x.h ****         // bit flip
 224:../../libs/PoliTeKDSP/libs/libDaisy/src/dev/oled_ssd130x.h ****         val = ((val & 0x01) << 7) | ((val & 0x02) << 5) | ((val & 0x04) << 3)
 225:../../libs/PoliTeKDSP/libs/libDaisy/src/dev/oled_ssd130x.h ****               | ((val & 0x08) << 1) | ((val & 0x10) >> 1) | ((val & 0x20) >> 3)
 226:../../libs/PoliTeKDSP/libs/libDaisy/src/dev/oled_ssd130x.h ****               | ((val & 0x40) >> 5) | ((val & 0x80) >> 7);
 227:../../libs/PoliTeKDSP/libs/libDaisy/src/dev/oled_ssd130x.h **** 
 228:../../libs/PoliTeKDSP/libs/libDaisy/src/dev/oled_ssd130x.h ****         for(uint8_t bit = 0u; bit < 8u; bit++)
 229:../../libs/PoliTeKDSP/libs/libDaisy/src/dev/oled_ssd130x.h ****         {
 230:../../libs/PoliTeKDSP/libs/libDaisy/src/dev/oled_ssd130x.h ****             pin_mosi_.Write((val & (1 << bit)) ? 1 : 0);
 231:../../libs/PoliTeKDSP/libs/libDaisy/src/dev/oled_ssd130x.h **** 
ARM GAS  C:\Users\skipi\AppData\Local\Temp\ccs8qXFk.s 			page 23


 232:../../libs/PoliTeKDSP/libs/libDaisy/src/dev/oled_ssd130x.h ****             System::DelayTicks(clk_delay);
 233:../../libs/PoliTeKDSP/libs/libDaisy/src/dev/oled_ssd130x.h **** 
 234:../../libs/PoliTeKDSP/libs/libDaisy/src/dev/oled_ssd130x.h ****             pin_sclk_.Toggle();
 235:../../libs/PoliTeKDSP/libs/libDaisy/src/dev/oled_ssd130x.h **** 
 236:../../libs/PoliTeKDSP/libs/libDaisy/src/dev/oled_ssd130x.h ****             System::DelayTicks(clk_delay);
 237:../../libs/PoliTeKDSP/libs/libDaisy/src/dev/oled_ssd130x.h **** 
 238:../../libs/PoliTeKDSP/libs/libDaisy/src/dev/oled_ssd130x.h ****             pin_sclk_.Toggle();
 239:../../libs/PoliTeKDSP/libs/libDaisy/src/dev/oled_ssd130x.h ****         }
 240:../../libs/PoliTeKDSP/libs/libDaisy/src/dev/oled_ssd130x.h ****     }
 241:../../libs/PoliTeKDSP/libs/libDaisy/src/dev/oled_ssd130x.h **** 
 242:../../libs/PoliTeKDSP/libs/libDaisy/src/dev/oled_ssd130x.h ****     uint32_t clk_delay;
 243:../../libs/PoliTeKDSP/libs/libDaisy/src/dev/oled_ssd130x.h ****     GPIO     pin_sclk_;
 244:../../libs/PoliTeKDSP/libs/libDaisy/src/dev/oled_ssd130x.h ****     GPIO     pin_mosi_;
 245:../../libs/PoliTeKDSP/libs/libDaisy/src/dev/oled_ssd130x.h ****     GPIO     pin_reset_;
 246:../../libs/PoliTeKDSP/libs/libDaisy/src/dev/oled_ssd130x.h ****     GPIO     pin_dc_;
 247:../../libs/PoliTeKDSP/libs/libDaisy/src/dev/oled_ssd130x.h **** };
 248:../../libs/PoliTeKDSP/libs/libDaisy/src/dev/oled_ssd130x.h **** 
 249:../../libs/PoliTeKDSP/libs/libDaisy/src/dev/oled_ssd130x.h **** 
 250:../../libs/PoliTeKDSP/libs/libDaisy/src/dev/oled_ssd130x.h **** /**
 251:../../libs/PoliTeKDSP/libs/libDaisy/src/dev/oled_ssd130x.h ****  * A driver implementation for the SSD1306/SSD1309
 252:../../libs/PoliTeKDSP/libs/libDaisy/src/dev/oled_ssd130x.h ****  */
 253:../../libs/PoliTeKDSP/libs/libDaisy/src/dev/oled_ssd130x.h **** template <size_t width, size_t height, typename Transport>
 254:../../libs/PoliTeKDSP/libs/libDaisy/src/dev/oled_ssd130x.h **** class SSD130xDriver
 255:../../libs/PoliTeKDSP/libs/libDaisy/src/dev/oled_ssd130x.h **** {
 256:../../libs/PoliTeKDSP/libs/libDaisy/src/dev/oled_ssd130x.h ****   public:
 257:../../libs/PoliTeKDSP/libs/libDaisy/src/dev/oled_ssd130x.h ****     struct Config
 258:../../libs/PoliTeKDSP/libs/libDaisy/src/dev/oled_ssd130x.h ****     {
 259:../../libs/PoliTeKDSP/libs/libDaisy/src/dev/oled_ssd130x.h ****         typename Transport::Config transport_config;
 260:../../libs/PoliTeKDSP/libs/libDaisy/src/dev/oled_ssd130x.h ****     };
 261:../../libs/PoliTeKDSP/libs/libDaisy/src/dev/oled_ssd130x.h **** 
 262:../../libs/PoliTeKDSP/libs/libDaisy/src/dev/oled_ssd130x.h ****     void Init(Config config)
 263:../../libs/PoliTeKDSP/libs/libDaisy/src/dev/oled_ssd130x.h ****     {
 264:../../libs/PoliTeKDSP/libs/libDaisy/src/dev/oled_ssd130x.h ****         transport_.Init(config.transport_config);
 265:../../libs/PoliTeKDSP/libs/libDaisy/src/dev/oled_ssd130x.h **** 
 266:../../libs/PoliTeKDSP/libs/libDaisy/src/dev/oled_ssd130x.h ****         // Init routine...
 267:../../libs/PoliTeKDSP/libs/libDaisy/src/dev/oled_ssd130x.h **** 
 268:../../libs/PoliTeKDSP/libs/libDaisy/src/dev/oled_ssd130x.h ****         // Display Off
 269:../../libs/PoliTeKDSP/libs/libDaisy/src/dev/oled_ssd130x.h ****         transport_.SendCommand(0xaE);
 270:../../libs/PoliTeKDSP/libs/libDaisy/src/dev/oled_ssd130x.h ****         // Dimension dependent commands...
 271:../../libs/PoliTeKDSP/libs/libDaisy/src/dev/oled_ssd130x.h ****         switch(height)
 272:../../libs/PoliTeKDSP/libs/libDaisy/src/dev/oled_ssd130x.h ****         {
 273:../../libs/PoliTeKDSP/libs/libDaisy/src/dev/oled_ssd130x.h ****             case 16:
 274:../../libs/PoliTeKDSP/libs/libDaisy/src/dev/oled_ssd130x.h ****                 // Display Clock Divide Ratio
 275:../../libs/PoliTeKDSP/libs/libDaisy/src/dev/oled_ssd130x.h ****                 transport_.SendCommand(0xD5);
 276:../../libs/PoliTeKDSP/libs/libDaisy/src/dev/oled_ssd130x.h ****                 transport_.SendCommand(0x60);
 277:../../libs/PoliTeKDSP/libs/libDaisy/src/dev/oled_ssd130x.h ****                 // Multiplex Ratio
 278:../../libs/PoliTeKDSP/libs/libDaisy/src/dev/oled_ssd130x.h ****                 transport_.SendCommand(0xA8);
 279:../../libs/PoliTeKDSP/libs/libDaisy/src/dev/oled_ssd130x.h ****                 transport_.SendCommand(0x0F);
 280:../../libs/PoliTeKDSP/libs/libDaisy/src/dev/oled_ssd130x.h ****                 // COM Pins
 281:../../libs/PoliTeKDSP/libs/libDaisy/src/dev/oled_ssd130x.h ****                 transport_.SendCommand(0xDA);
 282:../../libs/PoliTeKDSP/libs/libDaisy/src/dev/oled_ssd130x.h ****                 transport_.SendCommand(0x02);
 283:../../libs/PoliTeKDSP/libs/libDaisy/src/dev/oled_ssd130x.h ****                 break;
 284:../../libs/PoliTeKDSP/libs/libDaisy/src/dev/oled_ssd130x.h ****             case 32:
 285:../../libs/PoliTeKDSP/libs/libDaisy/src/dev/oled_ssd130x.h ****                 // Display Clock Divide Ratio
 286:../../libs/PoliTeKDSP/libs/libDaisy/src/dev/oled_ssd130x.h ****                 transport_.SendCommand(0xD5);
 287:../../libs/PoliTeKDSP/libs/libDaisy/src/dev/oled_ssd130x.h ****                 transport_.SendCommand(0x80);
 288:../../libs/PoliTeKDSP/libs/libDaisy/src/dev/oled_ssd130x.h ****                 // Multiplex Ratio
ARM GAS  C:\Users\skipi\AppData\Local\Temp\ccs8qXFk.s 			page 24


 289:../../libs/PoliTeKDSP/libs/libDaisy/src/dev/oled_ssd130x.h ****                 transport_.SendCommand(0xA8);
 290:../../libs/PoliTeKDSP/libs/libDaisy/src/dev/oled_ssd130x.h ****                 transport_.SendCommand(0x1F);
 291:../../libs/PoliTeKDSP/libs/libDaisy/src/dev/oled_ssd130x.h ****                 // COM Pins
 292:../../libs/PoliTeKDSP/libs/libDaisy/src/dev/oled_ssd130x.h ****                 transport_.SendCommand(0xDA);
 293:../../libs/PoliTeKDSP/libs/libDaisy/src/dev/oled_ssd130x.h ****                 if(width == 64)
 294:../../libs/PoliTeKDSP/libs/libDaisy/src/dev/oled_ssd130x.h ****                 {
 295:../../libs/PoliTeKDSP/libs/libDaisy/src/dev/oled_ssd130x.h ****                     transport_.SendCommand(0x12);
 296:../../libs/PoliTeKDSP/libs/libDaisy/src/dev/oled_ssd130x.h ****                 }
 297:../../libs/PoliTeKDSP/libs/libDaisy/src/dev/oled_ssd130x.h ****                 else
 298:../../libs/PoliTeKDSP/libs/libDaisy/src/dev/oled_ssd130x.h ****                 {
 299:../../libs/PoliTeKDSP/libs/libDaisy/src/dev/oled_ssd130x.h ****                     transport_.SendCommand(0x02);
 300:../../libs/PoliTeKDSP/libs/libDaisy/src/dev/oled_ssd130x.h ****                 }
 301:../../libs/PoliTeKDSP/libs/libDaisy/src/dev/oled_ssd130x.h **** 
 302:../../libs/PoliTeKDSP/libs/libDaisy/src/dev/oled_ssd130x.h ****                 break;
 303:../../libs/PoliTeKDSP/libs/libDaisy/src/dev/oled_ssd130x.h ****             case 48:
 304:../../libs/PoliTeKDSP/libs/libDaisy/src/dev/oled_ssd130x.h ****                 // Display Clock Divide Ratio
 305:../../libs/PoliTeKDSP/libs/libDaisy/src/dev/oled_ssd130x.h ****                 transport_.SendCommand(0xD5);
 306:../../libs/PoliTeKDSP/libs/libDaisy/src/dev/oled_ssd130x.h ****                 transport_.SendCommand(0x80);
 307:../../libs/PoliTeKDSP/libs/libDaisy/src/dev/oled_ssd130x.h ****                 // Multiplex Ratio
 308:../../libs/PoliTeKDSP/libs/libDaisy/src/dev/oled_ssd130x.h ****                 transport_.SendCommand(0xA8);
 309:../../libs/PoliTeKDSP/libs/libDaisy/src/dev/oled_ssd130x.h ****                 transport_.SendCommand(0x2F);
 310:../../libs/PoliTeKDSP/libs/libDaisy/src/dev/oled_ssd130x.h ****                 // COM Pins
 311:../../libs/PoliTeKDSP/libs/libDaisy/src/dev/oled_ssd130x.h ****                 transport_.SendCommand(0xDA);
 312:../../libs/PoliTeKDSP/libs/libDaisy/src/dev/oled_ssd130x.h ****                 transport_.SendCommand(0x12);
 313:../../libs/PoliTeKDSP/libs/libDaisy/src/dev/oled_ssd130x.h ****                 break;
 314:../../libs/PoliTeKDSP/libs/libDaisy/src/dev/oled_ssd130x.h ****             default: // 128
 315:../../libs/PoliTeKDSP/libs/libDaisy/src/dev/oled_ssd130x.h ****                 // Display Clock Divide Ratio
 316:../../libs/PoliTeKDSP/libs/libDaisy/src/dev/oled_ssd130x.h ****                 transport_.SendCommand(0xD5);
 317:../../libs/PoliTeKDSP/libs/libDaisy/src/dev/oled_ssd130x.h ****                 transport_.SendCommand(0x80);
 318:../../libs/PoliTeKDSP/libs/libDaisy/src/dev/oled_ssd130x.h ****                 // Multiplex Ratio
 319:../../libs/PoliTeKDSP/libs/libDaisy/src/dev/oled_ssd130x.h ****                 transport_.SendCommand(0xA8);
 320:../../libs/PoliTeKDSP/libs/libDaisy/src/dev/oled_ssd130x.h ****                 transport_.SendCommand(0x3F);
 321:../../libs/PoliTeKDSP/libs/libDaisy/src/dev/oled_ssd130x.h ****                 // COM Pins
 322:../../libs/PoliTeKDSP/libs/libDaisy/src/dev/oled_ssd130x.h ****                 transport_.SendCommand(0xDA);
 323:../../libs/PoliTeKDSP/libs/libDaisy/src/dev/oled_ssd130x.h ****                 transport_.SendCommand(0x12);
 324:../../libs/PoliTeKDSP/libs/libDaisy/src/dev/oled_ssd130x.h ****                 break;
 325:../../libs/PoliTeKDSP/libs/libDaisy/src/dev/oled_ssd130x.h ****         }
 326:../../libs/PoliTeKDSP/libs/libDaisy/src/dev/oled_ssd130x.h **** 
 327:../../libs/PoliTeKDSP/libs/libDaisy/src/dev/oled_ssd130x.h ****         // Display Offset
 328:../../libs/PoliTeKDSP/libs/libDaisy/src/dev/oled_ssd130x.h ****         transport_.SendCommand(0xD3);
 329:../../libs/PoliTeKDSP/libs/libDaisy/src/dev/oled_ssd130x.h ****         transport_.SendCommand(0x00);
 330:../../libs/PoliTeKDSP/libs/libDaisy/src/dev/oled_ssd130x.h ****         // Start Line Address
 331:../../libs/PoliTeKDSP/libs/libDaisy/src/dev/oled_ssd130x.h ****         transport_.SendCommand(0x40);
 332:../../libs/PoliTeKDSP/libs/libDaisy/src/dev/oled_ssd130x.h ****         // Normal Display
 333:../../libs/PoliTeKDSP/libs/libDaisy/src/dev/oled_ssd130x.h ****         transport_.SendCommand(0xA6);
 334:../../libs/PoliTeKDSP/libs/libDaisy/src/dev/oled_ssd130x.h ****         // All On Resume
 335:../../libs/PoliTeKDSP/libs/libDaisy/src/dev/oled_ssd130x.h ****         transport_.SendCommand(0xA4);
 336:../../libs/PoliTeKDSP/libs/libDaisy/src/dev/oled_ssd130x.h ****         // Charge Pump
 337:../../libs/PoliTeKDSP/libs/libDaisy/src/dev/oled_ssd130x.h ****         transport_.SendCommand(0x8D);
 338:../../libs/PoliTeKDSP/libs/libDaisy/src/dev/oled_ssd130x.h ****         transport_.SendCommand(0x14);
 339:../../libs/PoliTeKDSP/libs/libDaisy/src/dev/oled_ssd130x.h ****         // Set Segment Remap
 340:../../libs/PoliTeKDSP/libs/libDaisy/src/dev/oled_ssd130x.h ****         transport_.SendCommand(0xA1);
 341:../../libs/PoliTeKDSP/libs/libDaisy/src/dev/oled_ssd130x.h ****         // COM Output Scan Direction
 342:../../libs/PoliTeKDSP/libs/libDaisy/src/dev/oled_ssd130x.h ****         transport_.SendCommand(0xC8);
 343:../../libs/PoliTeKDSP/libs/libDaisy/src/dev/oled_ssd130x.h ****         // Contrast Control
 344:../../libs/PoliTeKDSP/libs/libDaisy/src/dev/oled_ssd130x.h ****         transport_.SendCommand(0x81);
 345:../../libs/PoliTeKDSP/libs/libDaisy/src/dev/oled_ssd130x.h ****         transport_.SendCommand(0x8F);
ARM GAS  C:\Users\skipi\AppData\Local\Temp\ccs8qXFk.s 			page 25


 346:../../libs/PoliTeKDSP/libs/libDaisy/src/dev/oled_ssd130x.h ****         // Pre Charge
 347:../../libs/PoliTeKDSP/libs/libDaisy/src/dev/oled_ssd130x.h ****         transport_.SendCommand(0xD9);
 348:../../libs/PoliTeKDSP/libs/libDaisy/src/dev/oled_ssd130x.h ****         transport_.SendCommand(0x25);
 349:../../libs/PoliTeKDSP/libs/libDaisy/src/dev/oled_ssd130x.h ****         // VCOM Detect
 350:../../libs/PoliTeKDSP/libs/libDaisy/src/dev/oled_ssd130x.h ****         transport_.SendCommand(0xDB);
 351:../../libs/PoliTeKDSP/libs/libDaisy/src/dev/oled_ssd130x.h ****         transport_.SendCommand(0x34);
 352:../../libs/PoliTeKDSP/libs/libDaisy/src/dev/oled_ssd130x.h **** 
 353:../../libs/PoliTeKDSP/libs/libDaisy/src/dev/oled_ssd130x.h **** 
 354:../../libs/PoliTeKDSP/libs/libDaisy/src/dev/oled_ssd130x.h ****         // Display On
 355:../../libs/PoliTeKDSP/libs/libDaisy/src/dev/oled_ssd130x.h ****         transport_.SendCommand(0xAF); //--turn on oled panel
 356:../../libs/PoliTeKDSP/libs/libDaisy/src/dev/oled_ssd130x.h ****     };
 357:../../libs/PoliTeKDSP/libs/libDaisy/src/dev/oled_ssd130x.h **** 
 358:../../libs/PoliTeKDSP/libs/libDaisy/src/dev/oled_ssd130x.h ****     size_t Width() const { return width; };
 359:../../libs/PoliTeKDSP/libs/libDaisy/src/dev/oled_ssd130x.h ****     size_t Height() const { return height; };
 360:../../libs/PoliTeKDSP/libs/libDaisy/src/dev/oled_ssd130x.h **** 
 361:../../libs/PoliTeKDSP/libs/libDaisy/src/dev/oled_ssd130x.h ****     void DrawPixel(uint_fast8_t x, uint_fast8_t y, bool on)
 362:../../libs/PoliTeKDSP/libs/libDaisy/src/dev/oled_ssd130x.h ****     {
 363:../../libs/PoliTeKDSP/libs/libDaisy/src/dev/oled_ssd130x.h ****         if(x >= width || y >= height)
 364:../../libs/PoliTeKDSP/libs/libDaisy/src/dev/oled_ssd130x.h ****             return;
 365:../../libs/PoliTeKDSP/libs/libDaisy/src/dev/oled_ssd130x.h ****         if(on)
 366:../../libs/PoliTeKDSP/libs/libDaisy/src/dev/oled_ssd130x.h ****             buffer_[x + (y / 8) * width] |= (1 << (y % 8));
 367:../../libs/PoliTeKDSP/libs/libDaisy/src/dev/oled_ssd130x.h ****         else
 368:../../libs/PoliTeKDSP/libs/libDaisy/src/dev/oled_ssd130x.h ****             buffer_[x + (y / 8) * width] &= ~(1 << (y % 8));
 369:../../libs/PoliTeKDSP/libs/libDaisy/src/dev/oled_ssd130x.h ****     }
 370:../../libs/PoliTeKDSP/libs/libDaisy/src/dev/oled_ssd130x.h **** 
 371:../../libs/PoliTeKDSP/libs/libDaisy/src/dev/oled_ssd130x.h ****     void Fill(bool on)
 312              		.loc 12 371 10 view .LVU50
 313              	.LBB581:
 372:../../libs/PoliTeKDSP/libs/libDaisy/src/dev/oled_ssd130x.h ****     {
 373:../../libs/PoliTeKDSP/libs/libDaisy/src/dev/oled_ssd130x.h ****         for(size_t i = 0; i < sizeof(buffer_); i++)
 314              		.loc 12 373 29 view .LVU51
 374:../../libs/PoliTeKDSP/libs/libDaisy/src/dev/oled_ssd130x.h ****         {
 375:../../libs/PoliTeKDSP/libs/libDaisy/src/dev/oled_ssd130x.h ****             buffer_[i] = on ? 0xff : 0x00;
 315              		.loc 12 375 24 is_stmt 0 view .LVU52
 316 0000 4942     		rsbs	r1, r1, #0
 317              	.LVL16:
 318              		.loc 12 375 24 view .LVU53
 319 0002 4FF48062 		mov	r2, #1024
 320 0006 1030     		adds	r0, r0, #16
 321              	.LVL17:
 322              		.loc 12 375 24 view .LVU54
 323 0008 C9B2     		uxtb	r1, r1
 324 000a FFF7FEBF 		b	memset
 325              	.LVL18:
 326              		.loc 12 375 24 view .LVU55
 327              	.LBE581:
 328              	.LBE580:
 329              		.cfi_endproc
 330              	.LFE2836:
 332 000e 00BF     		.section	.text._ZN5daisy11OledDisplayINS_13SSD130xDriverILj128ELj64ENS_19SSD130xI2CTransportEEEE14
 333              		.align	1
 334              		.p2align 2,,3
 335              		.weak	_ZN5daisy11OledDisplayINS_13SSD130xDriverILj128ELj64ENS_19SSD130xI2CTransportEEEE14UpdateFin
 336              		.syntax unified
 337              		.thumb
 338              		.thumb_func
 339              		.fpu fpv5-d16
ARM GAS  C:\Users\skipi\AppData\Local\Temp\ccs8qXFk.s 			page 26


 341              	_ZN5daisy11OledDisplayINS_13SSD130xDriverILj128ELj64ENS_19SSD130xI2CTransportEEEE14UpdateFinishedEv
 342              	.LVL19:
 343              	.LFB2845:
  35:../../libs/PoliTeKDSP/libs/libDaisy/src/hid/disp/oled_display.h **** 
  36:../../libs/PoliTeKDSP/libs/libDaisy/src/hid/disp/oled_display.h ****     /**
  37:../../libs/PoliTeKDSP/libs/libDaisy/src/hid/disp/oled_display.h ****     Sets the pixel at the specified coordinate to be on/off.
  38:../../libs/PoliTeKDSP/libs/libDaisy/src/hid/disp/oled_display.h ****     \param x   x Coordinate
  39:../../libs/PoliTeKDSP/libs/libDaisy/src/hid/disp/oled_display.h ****     \param y   y coordinate
  40:../../libs/PoliTeKDSP/libs/libDaisy/src/hid/disp/oled_display.h ****     \param on  on or off
  41:../../libs/PoliTeKDSP/libs/libDaisy/src/hid/disp/oled_display.h ****     */
  42:../../libs/PoliTeKDSP/libs/libDaisy/src/hid/disp/oled_display.h ****     void DrawPixel(uint_fast8_t x, uint_fast8_t y, bool on) override
  43:../../libs/PoliTeKDSP/libs/libDaisy/src/hid/disp/oled_display.h ****     {
  44:../../libs/PoliTeKDSP/libs/libDaisy/src/hid/disp/oled_display.h ****         driver_.DrawPixel(x, y, on);
  45:../../libs/PoliTeKDSP/libs/libDaisy/src/hid/disp/oled_display.h ****     }
  46:../../libs/PoliTeKDSP/libs/libDaisy/src/hid/disp/oled_display.h **** 
  47:../../libs/PoliTeKDSP/libs/libDaisy/src/hid/disp/oled_display.h ****     /** 
  48:../../libs/PoliTeKDSP/libs/libDaisy/src/hid/disp/oled_display.h ****     Writes the current display buffer to the OLED device using SPI or I2C depending on 
  49:../../libs/PoliTeKDSP/libs/libDaisy/src/hid/disp/oled_display.h ****     how the object was initialized.
  50:../../libs/PoliTeKDSP/libs/libDaisy/src/hid/disp/oled_display.h ****     */
  51:../../libs/PoliTeKDSP/libs/libDaisy/src/hid/disp/oled_display.h ****     void Update() override { driver_.Update(); }
  52:../../libs/PoliTeKDSP/libs/libDaisy/src/hid/disp/oled_display.h **** 
  53:../../libs/PoliTeKDSP/libs/libDaisy/src/hid/disp/oled_display.h ****     bool UpdateFinished() override { return driver_.UpdateFinished(); }
 344              		.loc 10 53 10 is_stmt 1 view -0
 345              		.cfi_startproc
 346              		@ args = 0, pretend = 0, frame = 0
 347              		@ frame_needed = 0, uses_anonymous_args = 0
 348              		@ link register save eliminated.
 349              		.loc 10 53 71 is_stmt 0 view .LVU57
 350 0000 0120     		movs	r0, #1
 351              	.LVL20:
 352              		.loc 10 53 71 view .LVU58
 353 0002 7047     		bx	lr
 354              		.cfi_endproc
 355              	.LFE2845:
 357              		.section	.text._ZN5daisy11OledDisplayINS_13SSD130xDriverILj128ELj64ENS_19SSD130xI2CTransportEEEED0
 358              		.align	1
 359              		.p2align 2,,3
 360              		.weak	_ZN5daisy11OledDisplayINS_13SSD130xDriverILj128ELj64ENS_19SSD130xI2CTransportEEEED0Ev
 361              		.syntax unified
 362              		.thumb
 363              		.thumb_func
 364              		.fpu fpv5-d16
 366              	_ZN5daisy11OledDisplayINS_13SSD130xDriverILj128ELj64ENS_19SSD130xI2CTransportEEEED0Ev:
 367              	.LVL21:
 368              	.LFB2833:
  18:../../libs/PoliTeKDSP/libs/libDaisy/src/hid/disp/oled_display.h **** 
 369              		.loc 10 18 13 is_stmt 1 view -0
 370              		.cfi_startproc
 371              		@ args = 0, pretend = 0, frame = 0
 372              		@ frame_needed = 0, uses_anonymous_args = 0
  18:../../libs/PoliTeKDSP/libs/libDaisy/src/hid/disp/oled_display.h **** 
 373              		.loc 10 18 13 is_stmt 0 view .LVU60
 374 0000 10B5     		push	{r4, lr}
 375              		.cfi_def_cfa_offset 8
 376              		.cfi_offset 4, -8
 377              		.cfi_offset 14, -4
  18:../../libs/PoliTeKDSP/libs/libDaisy/src/hid/disp/oled_display.h **** 
ARM GAS  C:\Users\skipi\AppData\Local\Temp\ccs8qXFk.s 			page 27


 378              		.loc 10 18 13 view .LVU61
 379 0002 0446     		mov	r4, r0
 380              	.LVL22:
 381              	.LBB582:
 382              	.LBI582:
  18:../../libs/PoliTeKDSP/libs/libDaisy/src/hid/disp/oled_display.h **** 
 383              		.loc 10 18 13 is_stmt 1 view .LVU62
 384              	.LBB583:
 385              	.LBI583:
 386              		.loc 11 224 13 view .LVU63
 387              	.LBB584:
 388              	.LBI584:
  23:../../libs/PoliTeKDSP/libs/libDaisy/src/hid/disp/display.h **** 
 389              		.loc 11 23 13 view .LVU64
  23:../../libs/PoliTeKDSP/libs/libDaisy/src/hid/disp/display.h **** 
 390              		.loc 11 23 13 is_stmt 0 view .LVU65
 391              	.LBE584:
 392              	.LBE583:
 393              	.LBE582:
  18:../../libs/PoliTeKDSP/libs/libDaisy/src/hid/disp/oled_display.h **** 
 394              		.loc 10 18 29 view .LVU66
 395 0004 4FF48261 		mov	r1, #1040
 396 0008 FFF7FEFF 		bl	_ZdlPvj
 397              	.LVL23:
  18:../../libs/PoliTeKDSP/libs/libDaisy/src/hid/disp/oled_display.h **** 
 398              		.loc 10 18 29 view .LVU67
 399 000c 2046     		mov	r0, r4
 400 000e 10BD     		pop	{r4, pc}
  18:../../libs/PoliTeKDSP/libs/libDaisy/src/hid/disp/oled_display.h **** 
 401              		.loc 10 18 29 view .LVU68
 402              		.cfi_endproc
 403              	.LFE2833:
 405              		.section	.text._ZN5daisy11OledDisplayINS_13SSD130xDriverILj128ELj64ENS_19SSD130xI2CTransportEEEE6U
 406              		.align	1
 407              		.p2align 2,,3
 408              		.weak	_ZN5daisy11OledDisplayINS_13SSD130xDriverILj128ELj64ENS_19SSD130xI2CTransportEEEE6UpdateEv
 409              		.syntax unified
 410              		.thumb
 411              		.thumb_func
 412              		.fpu fpv5-d16
 414              	_ZN5daisy11OledDisplayINS_13SSD130xDriverILj128ELj64ENS_19SSD130xI2CTransportEEEE6UpdateEv:
 415              	.LVL24:
 416              	.LFB2844:
  51:../../libs/PoliTeKDSP/libs/libDaisy/src/hid/disp/oled_display.h **** 
 417              		.loc 10 51 10 is_stmt 1 view -0
 418              		.cfi_startproc
 419              		@ args = 0, pretend = 0, frame = 8
 420              		@ frame_needed = 0, uses_anonymous_args = 0
  51:../../libs/PoliTeKDSP/libs/libDaisy/src/hid/disp/oled_display.h **** 
 421              		.loc 10 51 10 is_stmt 0 view .LVU70
 422 0000 2DE9F04F 		push	{r4, r5, r6, r7, r8, r9, r10, fp, lr}
 423              		.cfi_def_cfa_offset 36
 424              		.cfi_offset 4, -36
 425              		.cfi_offset 5, -32
 426              		.cfi_offset 6, -28
 427              		.cfi_offset 7, -24
 428              		.cfi_offset 8, -20
ARM GAS  C:\Users\skipi\AppData\Local\Temp\ccs8qXFk.s 			page 28


 429              		.cfi_offset 9, -16
 430              		.cfi_offset 10, -12
 431              		.cfi_offset 11, -8
 432              		.cfi_offset 14, -4
 433              	.LBB597:
 434              	.LBB598:
 435              	.LBB599:
 436              	.LBB600:
  46:../../libs/PoliTeKDSP/libs/libDaisy/src/dev/oled_ssd130x.h ****     };
 437              		.loc 12 46 30 view .LVU71
 438 0004 4FF0B008 		mov	r8, #176
 439              	.LBE600:
 440              	.LBE599:
 441              	.LBE598:
 442              	.LBE597:
  51:../../libs/PoliTeKDSP/libs/libDaisy/src/hid/disp/oled_display.h **** 
 443              		.loc 10 51 10 view .LVU72
 444 0008 85B0     		sub	sp, sp, #20
 445              		.cfi_def_cfa_offset 56
  51:../../libs/PoliTeKDSP/libs/libDaisy/src/hid/disp/oled_display.h **** 
 446              		.loc 10 51 10 view .LVU73
 447 000a 0546     		mov	r5, r0
 448              	.LVL25:
 449              	.LBB612:
 450              	.LBI597:
 376:../../libs/PoliTeKDSP/libs/libDaisy/src/dev/oled_ssd130x.h ****         }
 377:../../libs/PoliTeKDSP/libs/libDaisy/src/dev/oled_ssd130x.h ****     };
 378:../../libs/PoliTeKDSP/libs/libDaisy/src/dev/oled_ssd130x.h **** 
 379:../../libs/PoliTeKDSP/libs/libDaisy/src/dev/oled_ssd130x.h ****     /**
 380:../../libs/PoliTeKDSP/libs/libDaisy/src/dev/oled_ssd130x.h ****      * Update the display
 381:../../libs/PoliTeKDSP/libs/libDaisy/src/dev/oled_ssd130x.h ****     */
 382:../../libs/PoliTeKDSP/libs/libDaisy/src/dev/oled_ssd130x.h ****     void Update()
 451              		.loc 12 382 10 is_stmt 1 view .LVU74
 452              	.LBB611:
 383:../../libs/PoliTeKDSP/libs/libDaisy/src/dev/oled_ssd130x.h ****     {
 384:../../libs/PoliTeKDSP/libs/libDaisy/src/dev/oled_ssd130x.h ****         uint8_t i;
 385:../../libs/PoliTeKDSP/libs/libDaisy/src/dev/oled_ssd130x.h ****         uint8_t high_column_addr;
 386:../../libs/PoliTeKDSP/libs/libDaisy/src/dev/oled_ssd130x.h ****         switch(height)
 387:../../libs/PoliTeKDSP/libs/libDaisy/src/dev/oled_ssd130x.h ****         {
 388:../../libs/PoliTeKDSP/libs/libDaisy/src/dev/oled_ssd130x.h ****             case 32: high_column_addr = 0x12; break;
 389:../../libs/PoliTeKDSP/libs/libDaisy/src/dev/oled_ssd130x.h **** 
 390:../../libs/PoliTeKDSP/libs/libDaisy/src/dev/oled_ssd130x.h ****             default: high_column_addr = 0x10; break;
 391:../../libs/PoliTeKDSP/libs/libDaisy/src/dev/oled_ssd130x.h ****         }
 392:../../libs/PoliTeKDSP/libs/libDaisy/src/dev/oled_ssd130x.h ****         for(i = 0; i < (height / 8); i++)
 453              		.loc 12 392 22 view .LVU75
 454              	.LBB603:
 455              	.LBB601:
  46:../../libs/PoliTeKDSP/libs/libDaisy/src/dev/oled_ssd130x.h ****     };
 456              		.loc 12 46 30 is_stmt 0 view .LVU76
 457 000c 00F10807 		add	r7, r0, #8
 458              	.LVL26:
  46:../../libs/PoliTeKDSP/libs/libDaisy/src/dev/oled_ssd130x.h ****     };
 459              		.loc 12 46 30 view .LVU77
 460 0010 00F18F06 		add	r6, r0, #143
 461 0014 00F28F49 		addw	r9, r0, #1167
 462              	.LVL27:
 463              	.L27:
ARM GAS  C:\Users\skipi\AppData\Local\Temp\ccs8qXFk.s 			page 29


  46:../../libs/PoliTeKDSP/libs/libDaisy/src/dev/oled_ssd130x.h ****     };
 464              		.loc 12 46 30 view .LVU78
 465              	.LBE601:
 466              	.LBI599:
  43:../../libs/PoliTeKDSP/libs/libDaisy/src/dev/oled_ssd130x.h ****     {
 467              		.loc 12 43 10 is_stmt 1 view .LVU79
 468              	.LBB602:
  45:../../libs/PoliTeKDSP/libs/libDaisy/src/dev/oled_ssd130x.h ****         i2c_.TransmitBlocking(i2c_address_, buf, 2, 1000);
 469              		.loc 12 45 9 view .LVU80
  46:../../libs/PoliTeKDSP/libs/libDaisy/src/dev/oled_ssd130x.h ****     };
 470              		.loc 12 46 30 is_stmt 0 view .LVU81
 471 0018 4FF47A7B 		mov	fp, #1000
  45:../../libs/PoliTeKDSP/libs/libDaisy/src/dev/oled_ssd130x.h ****         i2c_.TransmitBlocking(i2c_address_, buf, 2, 1000);
 472              		.loc 12 45 17 view .LVU82
 473 001c 4FF0000A 		mov	r10, #0
  46:../../libs/PoliTeKDSP/libs/libDaisy/src/dev/oled_ssd130x.h ****     };
 474              		.loc 12 46 30 view .LVU83
 475 0020 297B     		ldrb	r1, [r5, #12]	@ zero_extendqisi2
 476 0022 0223     		movs	r3, #2
 477 0024 03AA     		add	r2, sp, #12
 478 0026 3846     		mov	r0, r7
 479 0028 CDF800B0 		str	fp, [sp]
 480 002c A6F18004 		sub	r4, r6, #128
  45:../../libs/PoliTeKDSP/libs/libDaisy/src/dev/oled_ssd130x.h ****         i2c_.TransmitBlocking(i2c_address_, buf, 2, 1000);
 481              		.loc 12 45 17 view .LVU84
 482 0030 8DF80CA0 		strb	r10, [sp, #12]
  45:../../libs/PoliTeKDSP/libs/libDaisy/src/dev/oled_ssd130x.h ****         i2c_.TransmitBlocking(i2c_address_, buf, 2, 1000);
 483              		.loc 12 45 36 view .LVU85
 484 0034 8DF80D80 		strb	r8, [sp, #13]
  46:../../libs/PoliTeKDSP/libs/libDaisy/src/dev/oled_ssd130x.h ****     };
 485              		.loc 12 46 9 is_stmt 1 view .LVU86
  46:../../libs/PoliTeKDSP/libs/libDaisy/src/dev/oled_ssd130x.h ****     };
 486              		.loc 12 46 30 is_stmt 0 view .LVU87
 487 0038 FFF7FEFF 		bl	_ZN5daisy9I2CHandle16TransmitBlockingEtPhtm
 488              	.LVL28:
  46:../../libs/PoliTeKDSP/libs/libDaisy/src/dev/oled_ssd130x.h ****     };
 489              		.loc 12 46 30 view .LVU88
 490              	.LBE602:
 491              	.LBE603:
 492              	.LBB604:
 493              	.LBI604:
  43:../../libs/PoliTeKDSP/libs/libDaisy/src/dev/oled_ssd130x.h ****     {
 494              		.loc 12 43 10 is_stmt 1 view .LVU89
 495              	.LBB605:
  45:../../libs/PoliTeKDSP/libs/libDaisy/src/dev/oled_ssd130x.h ****         i2c_.TransmitBlocking(i2c_address_, buf, 2, 1000);
 496              		.loc 12 45 9 view .LVU90
  46:../../libs/PoliTeKDSP/libs/libDaisy/src/dev/oled_ssd130x.h ****     };
 497              		.loc 12 46 30 is_stmt 0 view .LVU91
 498 003c 297B     		ldrb	r1, [r5, #12]	@ zero_extendqisi2
 499 003e 0223     		movs	r3, #2
 500 0040 03AA     		add	r2, sp, #12
 501 0042 3846     		mov	r0, r7
 502 0044 CDF800B0 		str	fp, [sp]
  45:../../libs/PoliTeKDSP/libs/libDaisy/src/dev/oled_ssd130x.h ****         i2c_.TransmitBlocking(i2c_address_, buf, 2, 1000);
 503              		.loc 12 45 17 view .LVU92
 504 0048 8DF80CA0 		strb	r10, [sp, #12]
  45:../../libs/PoliTeKDSP/libs/libDaisy/src/dev/oled_ssd130x.h ****         i2c_.TransmitBlocking(i2c_address_, buf, 2, 1000);
ARM GAS  C:\Users\skipi\AppData\Local\Temp\ccs8qXFk.s 			page 30


 505              		.loc 12 45 36 view .LVU93
 506 004c 8DF80DA0 		strb	r10, [sp, #13]
  46:../../libs/PoliTeKDSP/libs/libDaisy/src/dev/oled_ssd130x.h ****     };
 507              		.loc 12 46 9 is_stmt 1 view .LVU94
  46:../../libs/PoliTeKDSP/libs/libDaisy/src/dev/oled_ssd130x.h ****     };
 508              		.loc 12 46 30 is_stmt 0 view .LVU95
 509 0050 FFF7FEFF 		bl	_ZN5daisy9I2CHandle16TransmitBlockingEtPhtm
 510              	.LVL29:
  46:../../libs/PoliTeKDSP/libs/libDaisy/src/dev/oled_ssd130x.h ****     };
 511              		.loc 12 46 30 view .LVU96
 512              	.LBE605:
 513              	.LBE604:
 514              	.LBB606:
 515              	.LBI606:
  43:../../libs/PoliTeKDSP/libs/libDaisy/src/dev/oled_ssd130x.h ****     {
 516              		.loc 12 43 10 is_stmt 1 view .LVU97
 517              	.LBB607:
  45:../../libs/PoliTeKDSP/libs/libDaisy/src/dev/oled_ssd130x.h ****         i2c_.TransmitBlocking(i2c_address_, buf, 2, 1000);
 518              		.loc 12 45 9 view .LVU98
  45:../../libs/PoliTeKDSP/libs/libDaisy/src/dev/oled_ssd130x.h ****         i2c_.TransmitBlocking(i2c_address_, buf, 2, 1000);
 519              		.loc 12 45 36 is_stmt 0 view .LVU99
 520 0054 4FF0100C 		mov	ip, #16
  46:../../libs/PoliTeKDSP/libs/libDaisy/src/dev/oled_ssd130x.h ****     };
 521              		.loc 12 46 30 view .LVU100
 522 0058 297B     		ldrb	r1, [r5, #12]	@ zero_extendqisi2
 523 005a 0223     		movs	r3, #2
 524 005c 03AA     		add	r2, sp, #12
 525 005e 3846     		mov	r0, r7
 526 0060 CDF800B0 		str	fp, [sp]
  45:../../libs/PoliTeKDSP/libs/libDaisy/src/dev/oled_ssd130x.h ****         i2c_.TransmitBlocking(i2c_address_, buf, 2, 1000);
 527              		.loc 12 45 17 view .LVU101
 528 0064 8DF80CA0 		strb	r10, [sp, #12]
  45:../../libs/PoliTeKDSP/libs/libDaisy/src/dev/oled_ssd130x.h ****         i2c_.TransmitBlocking(i2c_address_, buf, 2, 1000);
 529              		.loc 12 45 36 view .LVU102
 530 0068 8DF80DC0 		strb	ip, [sp, #13]
  46:../../libs/PoliTeKDSP/libs/libDaisy/src/dev/oled_ssd130x.h ****     };
 531              		.loc 12 46 9 is_stmt 1 view .LVU103
  46:../../libs/PoliTeKDSP/libs/libDaisy/src/dev/oled_ssd130x.h ****     };
 532              		.loc 12 46 30 is_stmt 0 view .LVU104
 533 006c FFF7FEFF 		bl	_ZN5daisy9I2CHandle16TransmitBlockingEtPhtm
 534              	.LVL30:
  46:../../libs/PoliTeKDSP/libs/libDaisy/src/dev/oled_ssd130x.h ****     };
 535              		.loc 12 46 30 view .LVU105
 536              	.LBE607:
 537              	.LBE606:
 538              	.LBB608:
 539              	.LBI608:
  49:../../libs/PoliTeKDSP/libs/libDaisy/src/dev/oled_ssd130x.h ****     {
 540              		.loc 12 49 10 is_stmt 1 view .LVU106
 541              	.LBB609:
  51:../../libs/PoliTeKDSP/libs/libDaisy/src/dev/oled_ssd130x.h ****         {
 542              		.loc 12 51 29 view .LVU107
 543              	.L26:
 544              	.LBB610:
  53:../../libs/PoliTeKDSP/libs/libDaisy/src/dev/oled_ssd130x.h ****             i2c_.TransmitBlocking(i2c_address_, buf, 2, 1000);
 545              		.loc 12 53 13 view .LVU108
  54:../../libs/PoliTeKDSP/libs/libDaisy/src/dev/oled_ssd130x.h ****         }
ARM GAS  C:\Users\skipi\AppData\Local\Temp\ccs8qXFk.s 			page 31


 546              		.loc 12 54 34 is_stmt 0 view .LVU109
 547 0070 4FF47A70 		mov	r0, #1000
  53:../../libs/PoliTeKDSP/libs/libDaisy/src/dev/oled_ssd130x.h ****             i2c_.TransmitBlocking(i2c_address_, buf, 2, 1000);
 548              		.loc 12 53 44 view .LVU110
 549 0074 14F801CF 		ldrb	ip, [r4, #1]!	@ zero_extendqisi2
 550              	.LVL31:
  53:../../libs/PoliTeKDSP/libs/libDaisy/src/dev/oled_ssd130x.h ****             i2c_.TransmitBlocking(i2c_address_, buf, 2, 1000);
 551              		.loc 12 53 21 view .LVU111
 552 0078 4FF0400E 		mov	lr, #64
  54:../../libs/PoliTeKDSP/libs/libDaisy/src/dev/oled_ssd130x.h ****         }
 553              		.loc 12 54 34 view .LVU112
 554 007c 297B     		ldrb	r1, [r5, #12]	@ zero_extendqisi2
 555 007e 0223     		movs	r3, #2
 556 0080 0090     		str	r0, [sp]
 557 0082 03AA     		add	r2, sp, #12
 558 0084 3846     		mov	r0, r7
  53:../../libs/PoliTeKDSP/libs/libDaisy/src/dev/oled_ssd130x.h ****             i2c_.TransmitBlocking(i2c_address_, buf, 2, 1000);
 559              		.loc 12 53 21 view .LVU113
 560 0086 8DF80CE0 		strb	lr, [sp, #12]
  53:../../libs/PoliTeKDSP/libs/libDaisy/src/dev/oled_ssd130x.h ****             i2c_.TransmitBlocking(i2c_address_, buf, 2, 1000);
 561              		.loc 12 53 44 view .LVU114
 562 008a 8DF80DC0 		strb	ip, [sp, #13]
  54:../../libs/PoliTeKDSP/libs/libDaisy/src/dev/oled_ssd130x.h ****         }
 563              		.loc 12 54 13 is_stmt 1 view .LVU115
  54:../../libs/PoliTeKDSP/libs/libDaisy/src/dev/oled_ssd130x.h ****         }
 564              		.loc 12 54 34 is_stmt 0 view .LVU116
 565 008e FFF7FEFF 		bl	_ZN5daisy9I2CHandle16TransmitBlockingEtPhtm
 566              	.LVL32:
 567              	.LBE610:
  51:../../libs/PoliTeKDSP/libs/libDaisy/src/dev/oled_ssd130x.h ****         {
 568              		.loc 12 51 9 is_stmt 1 view .LVU117
  51:../../libs/PoliTeKDSP/libs/libDaisy/src/dev/oled_ssd130x.h ****         {
 569              		.loc 12 51 29 view .LVU118
 570 0092 B442     		cmp	r4, r6
 571 0094 ECD1     		bne	.L26
 572              	.LVL33:
  51:../../libs/PoliTeKDSP/libs/libDaisy/src/dev/oled_ssd130x.h ****         {
 573              		.loc 12 51 29 is_stmt 0 view .LVU119
 574              	.LBE609:
 575              	.LBE608:
 576              		.loc 12 392 9 is_stmt 1 view .LVU120
 577              		.loc 12 392 22 view .LVU121
 578 0096 04F18006 		add	r6, r4, #128
 579 009a 08F10108 		add	r8, r8, #1
 580              	.LVL34:
 581              		.loc 12 392 22 is_stmt 0 view .LVU122
 582 009e 4E45     		cmp	r6, r9
 583 00a0 5FFA88F8 		uxtb	r8, r8
 584 00a4 B8D1     		bne	.L27
 585              	.LBE611:
 586              	.LBE612:
  51:../../libs/PoliTeKDSP/libs/libDaisy/src/hid/disp/oled_display.h **** 
 587              		.loc 10 51 48 view .LVU123
 588 00a6 05B0     		add	sp, sp, #20
 589              		.cfi_def_cfa_offset 36
 590              		@ sp needed
 591 00a8 BDE8F08F 		pop	{r4, r5, r6, r7, r8, r9, r10, fp, pc}
ARM GAS  C:\Users\skipi\AppData\Local\Temp\ccs8qXFk.s 			page 32


  51:../../libs/PoliTeKDSP/libs/libDaisy/src/hid/disp/oled_display.h **** 
 592              		.loc 10 51 48 view .LVU124
 593              		.cfi_endproc
 594              	.LFE2844:
 596              		.section	.text._ZN5daisy25OneBitGraphicsDisplayImplINS_11OledDisplayINS_13SSD130xDriverILj128ELj64
 597              		.align	1
 598              		.p2align 2,,3
 599              		.weak	_ZN5daisy25OneBitGraphicsDisplayImplINS_11OledDisplayINS_13SSD130xDriverILj128ELj64ENS_19SSD
 600              		.syntax unified
 601              		.thumb
 602              		.thumb_func
 603              		.fpu fpv5-d16
 605              	_ZN5daisy25OneBitGraphicsDisplayImplINS_11OledDisplayINS_13SSD130xDriverILj128ELj64ENS_19SSD130xI2C
 606              	.LVL35:
 607              	.LFB2842:
 225:../../libs/PoliTeKDSP/libs/libDaisy/src/hid/disp/display.h **** 
 226:../../libs/PoliTeKDSP/libs/libDaisy/src/hid/disp/display.h ****     void DrawLine(uint_fast8_t x1,
 227:../../libs/PoliTeKDSP/libs/libDaisy/src/hid/disp/display.h ****                   uint_fast8_t y1,
 228:../../libs/PoliTeKDSP/libs/libDaisy/src/hid/disp/display.h ****                   uint_fast8_t x2,
 229:../../libs/PoliTeKDSP/libs/libDaisy/src/hid/disp/display.h ****                   uint_fast8_t y2,
 230:../../libs/PoliTeKDSP/libs/libDaisy/src/hid/disp/display.h ****                   bool         on) override
 231:../../libs/PoliTeKDSP/libs/libDaisy/src/hid/disp/display.h ****     {
 232:../../libs/PoliTeKDSP/libs/libDaisy/src/hid/disp/display.h ****         int_fast16_t deltaX = abs((int_fast16_t)x2 - (int_fast16_t)x1);
 233:../../libs/PoliTeKDSP/libs/libDaisy/src/hid/disp/display.h ****         int_fast16_t deltaY = abs((int_fast16_t)y2 - (int_fast16_t)y1);
 234:../../libs/PoliTeKDSP/libs/libDaisy/src/hid/disp/display.h ****         int_fast16_t signX  = ((x1 < x2) ? 1 : -1);
 235:../../libs/PoliTeKDSP/libs/libDaisy/src/hid/disp/display.h ****         int_fast16_t signY  = ((y1 < y2) ? 1 : -1);
 236:../../libs/PoliTeKDSP/libs/libDaisy/src/hid/disp/display.h ****         int_fast16_t error  = deltaX - deltaY;
 237:../../libs/PoliTeKDSP/libs/libDaisy/src/hid/disp/display.h ****         int_fast16_t error2;
 238:../../libs/PoliTeKDSP/libs/libDaisy/src/hid/disp/display.h **** 
 239:../../libs/PoliTeKDSP/libs/libDaisy/src/hid/disp/display.h ****         // If we write "ChildType::DrawPixel(x2, y2, on);", we end up with
 240:../../libs/PoliTeKDSP/libs/libDaisy/src/hid/disp/display.h ****         // all sorts of weird compiler errors when the Child class is a template
 241:../../libs/PoliTeKDSP/libs/libDaisy/src/hid/disp/display.h ****         // class. The only way around this is to use this very verbose syntax:
 242:../../libs/PoliTeKDSP/libs/libDaisy/src/hid/disp/display.h ****         ((ChildType*)(this))->ChildType::DrawPixel(x2, y2, on);
 243:../../libs/PoliTeKDSP/libs/libDaisy/src/hid/disp/display.h **** 
 244:../../libs/PoliTeKDSP/libs/libDaisy/src/hid/disp/display.h ****         while((x1 != x2) || (y1 != y2))
 245:../../libs/PoliTeKDSP/libs/libDaisy/src/hid/disp/display.h ****         {
 246:../../libs/PoliTeKDSP/libs/libDaisy/src/hid/disp/display.h ****             ((ChildType*)(this))->ChildType::DrawPixel(x1, y1, on);
 247:../../libs/PoliTeKDSP/libs/libDaisy/src/hid/disp/display.h ****             error2 = error * 2;
 248:../../libs/PoliTeKDSP/libs/libDaisy/src/hid/disp/display.h ****             if(error2 > -deltaY)
 249:../../libs/PoliTeKDSP/libs/libDaisy/src/hid/disp/display.h ****             {
 250:../../libs/PoliTeKDSP/libs/libDaisy/src/hid/disp/display.h ****                 error -= deltaY;
 251:../../libs/PoliTeKDSP/libs/libDaisy/src/hid/disp/display.h ****                 x1 += signX;
 252:../../libs/PoliTeKDSP/libs/libDaisy/src/hid/disp/display.h ****             }
 253:../../libs/PoliTeKDSP/libs/libDaisy/src/hid/disp/display.h **** 
 254:../../libs/PoliTeKDSP/libs/libDaisy/src/hid/disp/display.h ****             if(error2 < deltaX)
 255:../../libs/PoliTeKDSP/libs/libDaisy/src/hid/disp/display.h ****             {
 256:../../libs/PoliTeKDSP/libs/libDaisy/src/hid/disp/display.h ****                 error += deltaX;
 257:../../libs/PoliTeKDSP/libs/libDaisy/src/hid/disp/display.h ****                 y1 += signY;
 258:../../libs/PoliTeKDSP/libs/libDaisy/src/hid/disp/display.h ****             }
 259:../../libs/PoliTeKDSP/libs/libDaisy/src/hid/disp/display.h ****         }
 260:../../libs/PoliTeKDSP/libs/libDaisy/src/hid/disp/display.h ****     }
 261:../../libs/PoliTeKDSP/libs/libDaisy/src/hid/disp/display.h **** 
 262:../../libs/PoliTeKDSP/libs/libDaisy/src/hid/disp/display.h ****     void DrawRect(uint_fast8_t x1,
 263:../../libs/PoliTeKDSP/libs/libDaisy/src/hid/disp/display.h ****                   uint_fast8_t y1,
 264:../../libs/PoliTeKDSP/libs/libDaisy/src/hid/disp/display.h ****                   uint_fast8_t x2,
 265:../../libs/PoliTeKDSP/libs/libDaisy/src/hid/disp/display.h ****                   uint_fast8_t y2,
 266:../../libs/PoliTeKDSP/libs/libDaisy/src/hid/disp/display.h ****                   bool         on,
ARM GAS  C:\Users\skipi\AppData\Local\Temp\ccs8qXFk.s 			page 33


 267:../../libs/PoliTeKDSP/libs/libDaisy/src/hid/disp/display.h ****                   bool         fill = false) override
 268:../../libs/PoliTeKDSP/libs/libDaisy/src/hid/disp/display.h ****     {
 269:../../libs/PoliTeKDSP/libs/libDaisy/src/hid/disp/display.h ****         if(fill)
 270:../../libs/PoliTeKDSP/libs/libDaisy/src/hid/disp/display.h ****         {
 271:../../libs/PoliTeKDSP/libs/libDaisy/src/hid/disp/display.h ****             for(uint_fast8_t x = x1; x <= x2; x++)
 272:../../libs/PoliTeKDSP/libs/libDaisy/src/hid/disp/display.h ****             {
 273:../../libs/PoliTeKDSP/libs/libDaisy/src/hid/disp/display.h ****                 for(uint_fast8_t y = y1; y <= y2; y++)
 274:../../libs/PoliTeKDSP/libs/libDaisy/src/hid/disp/display.h ****                 {
 275:../../libs/PoliTeKDSP/libs/libDaisy/src/hid/disp/display.h ****                     ((ChildType*)(this))->ChildType::DrawPixel(x, y, on);
 276:../../libs/PoliTeKDSP/libs/libDaisy/src/hid/disp/display.h ****                 }
 277:../../libs/PoliTeKDSP/libs/libDaisy/src/hid/disp/display.h ****             }
 278:../../libs/PoliTeKDSP/libs/libDaisy/src/hid/disp/display.h ****         }
 279:../../libs/PoliTeKDSP/libs/libDaisy/src/hid/disp/display.h ****         else
 280:../../libs/PoliTeKDSP/libs/libDaisy/src/hid/disp/display.h ****         {
 281:../../libs/PoliTeKDSP/libs/libDaisy/src/hid/disp/display.h ****             ((ChildType*)(this))->ChildType::DrawLine(x1, y1, x2, y1, on);
 282:../../libs/PoliTeKDSP/libs/libDaisy/src/hid/disp/display.h ****             ((ChildType*)(this))->ChildType::DrawLine(x2, y1, x2, y2, on);
 283:../../libs/PoliTeKDSP/libs/libDaisy/src/hid/disp/display.h ****             ((ChildType*)(this))->ChildType::DrawLine(x2, y2, x1, y2, on);
 284:../../libs/PoliTeKDSP/libs/libDaisy/src/hid/disp/display.h ****             ((ChildType*)(this))->ChildType::DrawLine(x1, y2, x1, y1, on);
 285:../../libs/PoliTeKDSP/libs/libDaisy/src/hid/disp/display.h ****         }
 286:../../libs/PoliTeKDSP/libs/libDaisy/src/hid/disp/display.h ****     }
 287:../../libs/PoliTeKDSP/libs/libDaisy/src/hid/disp/display.h **** 
 288:../../libs/PoliTeKDSP/libs/libDaisy/src/hid/disp/display.h ****     void DrawArc(uint_fast8_t x,
 289:../../libs/PoliTeKDSP/libs/libDaisy/src/hid/disp/display.h ****                  uint_fast8_t y,
 290:../../libs/PoliTeKDSP/libs/libDaisy/src/hid/disp/display.h ****                  uint_fast8_t radius,
 291:../../libs/PoliTeKDSP/libs/libDaisy/src/hid/disp/display.h ****                  int_fast16_t start_angle,
 292:../../libs/PoliTeKDSP/libs/libDaisy/src/hid/disp/display.h ****                  int_fast16_t sweep,
 293:../../libs/PoliTeKDSP/libs/libDaisy/src/hid/disp/display.h ****                  bool         on) override
 294:../../libs/PoliTeKDSP/libs/libDaisy/src/hid/disp/display.h ****     {
 295:../../libs/PoliTeKDSP/libs/libDaisy/src/hid/disp/display.h ****         // Values to calculate the circle
 296:../../libs/PoliTeKDSP/libs/libDaisy/src/hid/disp/display.h ****         int_fast16_t t_x, t_y, err, e2;
 297:../../libs/PoliTeKDSP/libs/libDaisy/src/hid/disp/display.h **** 
 298:../../libs/PoliTeKDSP/libs/libDaisy/src/hid/disp/display.h ****         // Temporary values to speed up comparisons
 299:../../libs/PoliTeKDSP/libs/libDaisy/src/hid/disp/display.h ****         float t_sxy, t_syx, t_sxny, t_synx;
 300:../../libs/PoliTeKDSP/libs/libDaisy/src/hid/disp/display.h ****         float t_exy, t_eyx, t_exny, t_eynx;
 301:../../libs/PoliTeKDSP/libs/libDaisy/src/hid/disp/display.h **** 
 302:../../libs/PoliTeKDSP/libs/libDaisy/src/hid/disp/display.h ****         float start_angle_rad, end_angle_rad;
 303:../../libs/PoliTeKDSP/libs/libDaisy/src/hid/disp/display.h ****         float start_x, start_y, end_x, end_y;
 304:../../libs/PoliTeKDSP/libs/libDaisy/src/hid/disp/display.h **** 
 305:../../libs/PoliTeKDSP/libs/libDaisy/src/hid/disp/display.h ****         bool d1, d2, d3, d4;
 306:../../libs/PoliTeKDSP/libs/libDaisy/src/hid/disp/display.h **** 
 307:../../libs/PoliTeKDSP/libs/libDaisy/src/hid/disp/display.h ****         d1 = d2 = d3 = d4 = true;
 308:../../libs/PoliTeKDSP/libs/libDaisy/src/hid/disp/display.h **** 
 309:../../libs/PoliTeKDSP/libs/libDaisy/src/hid/disp/display.h ****         bool circle = false;
 310:../../libs/PoliTeKDSP/libs/libDaisy/src/hid/disp/display.h **** 
 311:../../libs/PoliTeKDSP/libs/libDaisy/src/hid/disp/display.h ****         if(sweep < 0)
 312:../../libs/PoliTeKDSP/libs/libDaisy/src/hid/disp/display.h ****         {
 313:../../libs/PoliTeKDSP/libs/libDaisy/src/hid/disp/display.h ****             start_angle += sweep;
 314:../../libs/PoliTeKDSP/libs/libDaisy/src/hid/disp/display.h ****             sweep = -sweep;
 315:../../libs/PoliTeKDSP/libs/libDaisy/src/hid/disp/display.h ****         }
 316:../../libs/PoliTeKDSP/libs/libDaisy/src/hid/disp/display.h **** 
 317:../../libs/PoliTeKDSP/libs/libDaisy/src/hid/disp/display.h ****         start_angle_rad = deg2rad(start_angle);
 318:../../libs/PoliTeKDSP/libs/libDaisy/src/hid/disp/display.h ****         end_angle_rad   = deg2rad(start_angle + sweep);
 319:../../libs/PoliTeKDSP/libs/libDaisy/src/hid/disp/display.h **** 
 320:../../libs/PoliTeKDSP/libs/libDaisy/src/hid/disp/display.h ****         start_x = cos(start_angle_rad) * radius;
 321:../../libs/PoliTeKDSP/libs/libDaisy/src/hid/disp/display.h ****         start_y = -sin(start_angle_rad) * radius;
 322:../../libs/PoliTeKDSP/libs/libDaisy/src/hid/disp/display.h ****         end_x   = cos(end_angle_rad) * radius;
 323:../../libs/PoliTeKDSP/libs/libDaisy/src/hid/disp/display.h ****         end_y   = -sin(end_angle_rad) * radius;
ARM GAS  C:\Users\skipi\AppData\Local\Temp\ccs8qXFk.s 			page 34


 324:../../libs/PoliTeKDSP/libs/libDaisy/src/hid/disp/display.h **** 
 325:../../libs/PoliTeKDSP/libs/libDaisy/src/hid/disp/display.h ****         // Check if start and endpoint are very near
 326:../../libs/PoliTeKDSP/libs/libDaisy/src/hid/disp/display.h ****         if((end_x - start_x) * (end_x - start_x)
 327:../../libs/PoliTeKDSP/libs/libDaisy/src/hid/disp/display.h ****                + (end_y - start_y) * (end_y - start_y)
 328:../../libs/PoliTeKDSP/libs/libDaisy/src/hid/disp/display.h ****            < 2.0f)
 329:../../libs/PoliTeKDSP/libs/libDaisy/src/hid/disp/display.h ****         {
 330:../../libs/PoliTeKDSP/libs/libDaisy/src/hid/disp/display.h ****             if(sweep > 180)
 331:../../libs/PoliTeKDSP/libs/libDaisy/src/hid/disp/display.h ****                 circle = true;
 332:../../libs/PoliTeKDSP/libs/libDaisy/src/hid/disp/display.h ****             else
 333:../../libs/PoliTeKDSP/libs/libDaisy/src/hid/disp/display.h ****                 // Nothing to draw
 334:../../libs/PoliTeKDSP/libs/libDaisy/src/hid/disp/display.h ****                 return;
 335:../../libs/PoliTeKDSP/libs/libDaisy/src/hid/disp/display.h ****         }
 336:../../libs/PoliTeKDSP/libs/libDaisy/src/hid/disp/display.h **** 
 337:../../libs/PoliTeKDSP/libs/libDaisy/src/hid/disp/display.h ****         t_x = -radius;
 338:../../libs/PoliTeKDSP/libs/libDaisy/src/hid/disp/display.h ****         t_y = 0;
 339:../../libs/PoliTeKDSP/libs/libDaisy/src/hid/disp/display.h ****         err = 2 - 2 * radius;
 340:../../libs/PoliTeKDSP/libs/libDaisy/src/hid/disp/display.h **** 
 341:../../libs/PoliTeKDSP/libs/libDaisy/src/hid/disp/display.h ****         do
 342:../../libs/PoliTeKDSP/libs/libDaisy/src/hid/disp/display.h ****         {
 343:../../libs/PoliTeKDSP/libs/libDaisy/src/hid/disp/display.h ****             if(!circle)
 344:../../libs/PoliTeKDSP/libs/libDaisy/src/hid/disp/display.h ****             {
 345:../../libs/PoliTeKDSP/libs/libDaisy/src/hid/disp/display.h ****                 t_sxy  = start_x * t_y;
 346:../../libs/PoliTeKDSP/libs/libDaisy/src/hid/disp/display.h ****                 t_syx  = start_y * t_x;
 347:../../libs/PoliTeKDSP/libs/libDaisy/src/hid/disp/display.h ****                 t_sxny = start_x * -t_y;
 348:../../libs/PoliTeKDSP/libs/libDaisy/src/hid/disp/display.h ****                 t_synx = start_y * -t_x;
 349:../../libs/PoliTeKDSP/libs/libDaisy/src/hid/disp/display.h ****                 t_exy  = end_x * t_y;
 350:../../libs/PoliTeKDSP/libs/libDaisy/src/hid/disp/display.h ****                 t_eyx  = end_y * t_x;
 351:../../libs/PoliTeKDSP/libs/libDaisy/src/hid/disp/display.h ****                 t_exny = end_x * -t_y;
 352:../../libs/PoliTeKDSP/libs/libDaisy/src/hid/disp/display.h ****                 t_eynx = end_y * -t_x;
 353:../../libs/PoliTeKDSP/libs/libDaisy/src/hid/disp/display.h **** 
 354:../../libs/PoliTeKDSP/libs/libDaisy/src/hid/disp/display.h ****                 if(sweep > 180)
 355:../../libs/PoliTeKDSP/libs/libDaisy/src/hid/disp/display.h ****                 {
 356:../../libs/PoliTeKDSP/libs/libDaisy/src/hid/disp/display.h ****                     d1 = (t_sxy - t_synx < 0 || t_exy - t_eynx > 0);
 357:../../libs/PoliTeKDSP/libs/libDaisy/src/hid/disp/display.h ****                     d2 = (t_sxy - t_syx < 0 || t_exy - t_eyx > 0);
 358:../../libs/PoliTeKDSP/libs/libDaisy/src/hid/disp/display.h ****                     d3 = (t_sxny - t_syx < 0 || t_exny - t_eyx > 0);
 359:../../libs/PoliTeKDSP/libs/libDaisy/src/hid/disp/display.h ****                     d4 = (t_sxny - t_synx < 0 || t_exny - t_eynx > 0);
 360:../../libs/PoliTeKDSP/libs/libDaisy/src/hid/disp/display.h ****                 }
 361:../../libs/PoliTeKDSP/libs/libDaisy/src/hid/disp/display.h ****                 else
 362:../../libs/PoliTeKDSP/libs/libDaisy/src/hid/disp/display.h ****                 {
 363:../../libs/PoliTeKDSP/libs/libDaisy/src/hid/disp/display.h ****                     d1 = (t_sxy - t_synx < 0 && t_exy - t_eynx > 0);
 364:../../libs/PoliTeKDSP/libs/libDaisy/src/hid/disp/display.h ****                     d2 = (t_sxy - t_syx < 0 && t_exy - t_eyx > 0);
 365:../../libs/PoliTeKDSP/libs/libDaisy/src/hid/disp/display.h ****                     d3 = (t_sxny - t_syx < 0 && t_exny - t_eyx > 0);
 366:../../libs/PoliTeKDSP/libs/libDaisy/src/hid/disp/display.h ****                     d4 = (t_sxny - t_synx < 0 && t_exny - t_eynx > 0);
 367:../../libs/PoliTeKDSP/libs/libDaisy/src/hid/disp/display.h ****                 }
 368:../../libs/PoliTeKDSP/libs/libDaisy/src/hid/disp/display.h ****             }
 369:../../libs/PoliTeKDSP/libs/libDaisy/src/hid/disp/display.h **** 
 370:../../libs/PoliTeKDSP/libs/libDaisy/src/hid/disp/display.h ****             if(d1)
 371:../../libs/PoliTeKDSP/libs/libDaisy/src/hid/disp/display.h ****                 ((ChildType*)(this))
 372:../../libs/PoliTeKDSP/libs/libDaisy/src/hid/disp/display.h ****                     ->ChildType::DrawPixel(x - t_x, y + t_y, on);
 373:../../libs/PoliTeKDSP/libs/libDaisy/src/hid/disp/display.h ****             if(d2)
 374:../../libs/PoliTeKDSP/libs/libDaisy/src/hid/disp/display.h ****                 ((ChildType*)(this))
 375:../../libs/PoliTeKDSP/libs/libDaisy/src/hid/disp/display.h ****                     ->ChildType::DrawPixel(x + t_x, y + t_y, on);
 376:../../libs/PoliTeKDSP/libs/libDaisy/src/hid/disp/display.h ****             if(d3)
 377:../../libs/PoliTeKDSP/libs/libDaisy/src/hid/disp/display.h ****                 ((ChildType*)(this))
 378:../../libs/PoliTeKDSP/libs/libDaisy/src/hid/disp/display.h ****                     ->ChildType::DrawPixel(x + t_x, y - t_y, on);
 379:../../libs/PoliTeKDSP/libs/libDaisy/src/hid/disp/display.h ****             if(d4)
 380:../../libs/PoliTeKDSP/libs/libDaisy/src/hid/disp/display.h ****                 ((ChildType*)(this))
ARM GAS  C:\Users\skipi\AppData\Local\Temp\ccs8qXFk.s 			page 35


 381:../../libs/PoliTeKDSP/libs/libDaisy/src/hid/disp/display.h ****                     ->ChildType::DrawPixel(x - t_x, y - t_y, on);
 382:../../libs/PoliTeKDSP/libs/libDaisy/src/hid/disp/display.h **** 
 383:../../libs/PoliTeKDSP/libs/libDaisy/src/hid/disp/display.h ****             e2 = err;
 384:../../libs/PoliTeKDSP/libs/libDaisy/src/hid/disp/display.h ****             if(e2 <= t_y)
 385:../../libs/PoliTeKDSP/libs/libDaisy/src/hid/disp/display.h ****             {
 386:../../libs/PoliTeKDSP/libs/libDaisy/src/hid/disp/display.h ****                 t_y++;
 387:../../libs/PoliTeKDSP/libs/libDaisy/src/hid/disp/display.h ****                 err = err + (t_y * 2 + 1);
 388:../../libs/PoliTeKDSP/libs/libDaisy/src/hid/disp/display.h ****                 if(-t_x == t_y && e2 <= t_x)
 389:../../libs/PoliTeKDSP/libs/libDaisy/src/hid/disp/display.h ****                 {
 390:../../libs/PoliTeKDSP/libs/libDaisy/src/hid/disp/display.h ****                     e2 = 0;
 391:../../libs/PoliTeKDSP/libs/libDaisy/src/hid/disp/display.h ****                 }
 392:../../libs/PoliTeKDSP/libs/libDaisy/src/hid/disp/display.h ****             }
 393:../../libs/PoliTeKDSP/libs/libDaisy/src/hid/disp/display.h ****             if(e2 > t_x)
 394:../../libs/PoliTeKDSP/libs/libDaisy/src/hid/disp/display.h ****             {
 395:../../libs/PoliTeKDSP/libs/libDaisy/src/hid/disp/display.h ****                 t_x++;
 396:../../libs/PoliTeKDSP/libs/libDaisy/src/hid/disp/display.h ****                 err = err + (t_x * 2 + 1);
 397:../../libs/PoliTeKDSP/libs/libDaisy/src/hid/disp/display.h ****             }
 398:../../libs/PoliTeKDSP/libs/libDaisy/src/hid/disp/display.h ****         } while(t_x <= 0);
 399:../../libs/PoliTeKDSP/libs/libDaisy/src/hid/disp/display.h ****     }
 400:../../libs/PoliTeKDSP/libs/libDaisy/src/hid/disp/display.h **** 
 401:../../libs/PoliTeKDSP/libs/libDaisy/src/hid/disp/display.h ****     char WriteChar(char ch, FontDef font, bool on) override
 402:../../libs/PoliTeKDSP/libs/libDaisy/src/hid/disp/display.h ****     {
 403:../../libs/PoliTeKDSP/libs/libDaisy/src/hid/disp/display.h ****         uint32_t i, b, j;
 404:../../libs/PoliTeKDSP/libs/libDaisy/src/hid/disp/display.h **** 
 405:../../libs/PoliTeKDSP/libs/libDaisy/src/hid/disp/display.h ****         // Check if character is valid
 406:../../libs/PoliTeKDSP/libs/libDaisy/src/hid/disp/display.h ****         if(ch < 32 || ch > 126)
 407:../../libs/PoliTeKDSP/libs/libDaisy/src/hid/disp/display.h ****             return 0;
 408:../../libs/PoliTeKDSP/libs/libDaisy/src/hid/disp/display.h **** 
 409:../../libs/PoliTeKDSP/libs/libDaisy/src/hid/disp/display.h ****         // Check remaining space on current line
 410:../../libs/PoliTeKDSP/libs/libDaisy/src/hid/disp/display.h ****         if(Width() < (currentX_ + font.FontWidth)
 411:../../libs/PoliTeKDSP/libs/libDaisy/src/hid/disp/display.h ****            || Height() < (currentY_ + font.FontHeight))
 412:../../libs/PoliTeKDSP/libs/libDaisy/src/hid/disp/display.h ****         {
 413:../../libs/PoliTeKDSP/libs/libDaisy/src/hid/disp/display.h ****             // Not enough space on current line
 414:../../libs/PoliTeKDSP/libs/libDaisy/src/hid/disp/display.h ****             return 0;
 415:../../libs/PoliTeKDSP/libs/libDaisy/src/hid/disp/display.h ****         }
 416:../../libs/PoliTeKDSP/libs/libDaisy/src/hid/disp/display.h **** 
 417:../../libs/PoliTeKDSP/libs/libDaisy/src/hid/disp/display.h ****         // Use the font to write
 418:../../libs/PoliTeKDSP/libs/libDaisy/src/hid/disp/display.h ****         for(i = 0; i < font.FontHeight; i++)
 419:../../libs/PoliTeKDSP/libs/libDaisy/src/hid/disp/display.h ****         {
 420:../../libs/PoliTeKDSP/libs/libDaisy/src/hid/disp/display.h ****             b = font.data[(ch - 32) * font.FontHeight + i];
 421:../../libs/PoliTeKDSP/libs/libDaisy/src/hid/disp/display.h ****             for(j = 0; j < font.FontWidth; j++)
 422:../../libs/PoliTeKDSP/libs/libDaisy/src/hid/disp/display.h ****             {
 423:../../libs/PoliTeKDSP/libs/libDaisy/src/hid/disp/display.h ****                 if((b << j) & 0x8000)
 424:../../libs/PoliTeKDSP/libs/libDaisy/src/hid/disp/display.h ****                 {
 425:../../libs/PoliTeKDSP/libs/libDaisy/src/hid/disp/display.h ****                     ((ChildType*)(this))
 426:../../libs/PoliTeKDSP/libs/libDaisy/src/hid/disp/display.h ****                         ->ChildType::DrawPixel(
 427:../../libs/PoliTeKDSP/libs/libDaisy/src/hid/disp/display.h ****                             currentX_ + j, (currentY_ + i), on);
 428:../../libs/PoliTeKDSP/libs/libDaisy/src/hid/disp/display.h ****                 }
 429:../../libs/PoliTeKDSP/libs/libDaisy/src/hid/disp/display.h ****                 else
 430:../../libs/PoliTeKDSP/libs/libDaisy/src/hid/disp/display.h ****                 {
 431:../../libs/PoliTeKDSP/libs/libDaisy/src/hid/disp/display.h ****                     ((ChildType*)(this))
 432:../../libs/PoliTeKDSP/libs/libDaisy/src/hid/disp/display.h ****                         ->ChildType::DrawPixel(
 433:../../libs/PoliTeKDSP/libs/libDaisy/src/hid/disp/display.h ****                             currentX_ + j, (currentY_ + i), !on);
 434:../../libs/PoliTeKDSP/libs/libDaisy/src/hid/disp/display.h ****                 }
 435:../../libs/PoliTeKDSP/libs/libDaisy/src/hid/disp/display.h ****             }
 436:../../libs/PoliTeKDSP/libs/libDaisy/src/hid/disp/display.h ****         }
 437:../../libs/PoliTeKDSP/libs/libDaisy/src/hid/disp/display.h **** 
ARM GAS  C:\Users\skipi\AppData\Local\Temp\ccs8qXFk.s 			page 36


 438:../../libs/PoliTeKDSP/libs/libDaisy/src/hid/disp/display.h ****         // The current space is now taken
 439:../../libs/PoliTeKDSP/libs/libDaisy/src/hid/disp/display.h ****         SetCursor(currentX_ + font.FontWidth, currentY_);
 440:../../libs/PoliTeKDSP/libs/libDaisy/src/hid/disp/display.h **** 
 441:../../libs/PoliTeKDSP/libs/libDaisy/src/hid/disp/display.h ****         // Return written char for validation
 442:../../libs/PoliTeKDSP/libs/libDaisy/src/hid/disp/display.h ****         return ch;
 443:../../libs/PoliTeKDSP/libs/libDaisy/src/hid/disp/display.h ****     }
 444:../../libs/PoliTeKDSP/libs/libDaisy/src/hid/disp/display.h **** 
 445:../../libs/PoliTeKDSP/libs/libDaisy/src/hid/disp/display.h ****     char WriteString(const char* str, FontDef font, bool on) override
 608              		.loc 11 445 10 is_stmt 1 view -0
 609              		.cfi_startproc
 610              		@ args = 4, pretend = 0, frame = 32
 611              		@ frame_needed = 0, uses_anonymous_args = 0
 612              		.loc 11 445 10 is_stmt 0 view .LVU126
 613 0000 2DE9F04F 		push	{r4, r5, r6, r7, r8, r9, r10, fp, lr}
 614              		.cfi_def_cfa_offset 36
 615              		.cfi_offset 4, -36
 616              		.cfi_offset 5, -32
 617              		.cfi_offset 6, -28
 618              		.cfi_offset 7, -24
 619              		.cfi_offset 8, -20
 620              		.cfi_offset 9, -16
 621              		.cfi_offset 10, -12
 622              		.cfi_offset 11, -8
 623              		.cfi_offset 14, -4
 624 0004 89B0     		sub	sp, sp, #36
 625              		.cfi_def_cfa_offset 72
 626              		.loc 11 445 10 view .LVU127
 627 0006 08AC     		add	r4, sp, #32
 628 0008 9DF84870 		ldrb	r7, [sp, #72]	@ zero_extendqisi2
 629 000c 0191     		str	r1, [sp, #4]
 630 000e 04E90C00 		stmdb	r4, {r2, r3}
 446:../../libs/PoliTeKDSP/libs/libDaisy/src/hid/disp/display.h ****     {
 447:../../libs/PoliTeKDSP/libs/libDaisy/src/hid/disp/display.h ****         // Write until null-byte
 448:../../libs/PoliTeKDSP/libs/libDaisy/src/hid/disp/display.h ****         while(*str)
 631              		.loc 11 448 9 is_stmt 1 view .LVU128
 632 0012 0B78     		ldrb	r3, [r1]	@ zero_extendqisi2
 633 0014 002B     		cmp	r3, #0
 634 0016 00F0AB80 		beq	.L55
 635 001a 1A46     		mov	r2, r3
 636 001c 9DF81880 		ldrb	r8, [sp, #24]	@ zero_extendqisi2
 637 0020 9DF81930 		ldrb	r3, [sp, #25]	@ zero_extendqisi2
 638 0024 0646     		mov	r6, r0
 639 0026 4546     		mov	r5, r8
 640 0028 9046     		mov	r8, r2
 641 002a 0393     		str	r3, [sp, #12]
 642 002c 079B     		ldr	r3, [sp, #28]
 643 002e 0593     		str	r3, [sp, #20]
 644              	.LVL36:
 645              	.L56:
 646              	.LBB641:
 647              	.LBI641:
 401:../../libs/PoliTeKDSP/libs/libDaisy/src/hid/disp/display.h ****     {
 648              		.loc 11 401 10 view .LVU129
 649              	.LBB642:
 406:../../libs/PoliTeKDSP/libs/libDaisy/src/hid/disp/display.h ****             return 0;
 650              		.loc 11 406 20 is_stmt 0 view .LVU130
 651 0030 A8F12004 		sub	r4, r8, #32
ARM GAS  C:\Users\skipi\AppData\Local\Temp\ccs8qXFk.s 			page 37


 406:../../libs/PoliTeKDSP/libs/libDaisy/src/hid/disp/display.h ****             return 0;
 652              		.loc 11 406 9 view .LVU131
 653 0034 E3B2     		uxtb	r3, r4
 654 0036 5E2B     		cmp	r3, #94
 655 0038 00F29E80 		bhi	.L37
 410:../../libs/PoliTeKDSP/libs/libDaisy/src/hid/disp/display.h ****            || Height() < (currentY_ + font.FontHeight))
 656              		.loc 11 410 17 view .LVU132
 657 003c 3368     		ldr	r3, [r6]
 658 003e 5E4A     		ldr	r2, .L77
 659 0040 DB68     		ldr	r3, [r3, #12]
 660 0042 9342     		cmp	r3, r2
 661 0044 40F09B80 		bne	.L70
 662 0048 8020     		movs	r0, #128
 663              	.L36:
 410:../../libs/PoliTeKDSP/libs/libDaisy/src/hid/disp/display.h ****            || Height() < (currentY_ + font.FontHeight))
 664              		.loc 11 410 23 view .LVU133
 665 004a B388     		ldrh	r3, [r6, #4]
 410:../../libs/PoliTeKDSP/libs/libDaisy/src/hid/disp/display.h ****            || Height() < (currentY_ + font.FontHeight))
 666              		.loc 11 410 33 view .LVU134
 667 004c 2B44     		add	r3, r3, r5
 411:../../libs/PoliTeKDSP/libs/libDaisy/src/hid/disp/display.h ****         {
 668              		.loc 11 411 12 view .LVU135
 669 004e 8342     		cmp	r3, r0
 670 0050 00F39280 		bgt	.L37
 411:../../libs/PoliTeKDSP/libs/libDaisy/src/hid/disp/display.h ****         {
 671              		.loc 11 411 21 view .LVU136
 672 0054 3368     		ldr	r3, [r6]
 673 0056 594A     		ldr	r2, .L77+4
 674 0058 9B68     		ldr	r3, [r3, #8]
 675 005a 9342     		cmp	r3, r2
 676 005c 40F09280 		bne	.L71
 677 0060 4020     		movs	r0, #64
 678              	.L38:
 411:../../libs/PoliTeKDSP/libs/libDaisy/src/hid/disp/display.h ****         {
 679              		.loc 11 411 27 view .LVU137
 680 0062 F188     		ldrh	r1, [r6, #6]
 411:../../libs/PoliTeKDSP/libs/libDaisy/src/hid/disp/display.h ****         {
 681              		.loc 11 411 37 view .LVU138
 682 0064 039A     		ldr	r2, [sp, #12]
 411:../../libs/PoliTeKDSP/libs/libDaisy/src/hid/disp/display.h ****         {
 683              		.loc 11 411 27 view .LVU139
 684 0066 0291     		str	r1, [sp, #8]
 411:../../libs/PoliTeKDSP/libs/libDaisy/src/hid/disp/display.h ****         {
 685              		.loc 11 411 37 view .LVU140
 686 0068 8B18     		adds	r3, r1, r2
 411:../../libs/PoliTeKDSP/libs/libDaisy/src/hid/disp/display.h ****         {
 687              		.loc 11 411 12 view .LVU141
 688 006a 8342     		cmp	r3, r0
 689 006c 00F38480 		bgt	.L37
 690              	.LVL37:
 418:../../libs/PoliTeKDSP/libs/libDaisy/src/hid/disp/display.h ****         {
 691              		.loc 11 418 22 is_stmt 1 view .LVU142
 692 0070 002A     		cmp	r2, #0
 693 0072 00F09180 		beq	.L39
 420:../../libs/PoliTeKDSP/libs/libDaisy/src/hid/disp/display.h ****             for(j = 0; j < font.FontWidth; j++)
 694              		.loc 11 420 37 is_stmt 0 view .LVU143
 695 0076 02FB04F4 		mul	r4, r2, r4
ARM GAS  C:\Users\skipi\AppData\Local\Temp\ccs8qXFk.s 			page 38


 696 007a 6FF00049 		mvn	r9, #-2147483648
 697 007e 059B     		ldr	r3, [sp, #20]
 698 0080 A144     		add	r9, r9, r4
 699 0082 1444     		add	r4, r4, r2
 439:../../libs/PoliTeKDSP/libs/libDaisy/src/hid/disp/display.h **** 
 700              		.loc 11 439 19 view .LVU144
 701 0084 B6F804B0 		ldrh	fp, [r6, #4]
 702 0088 03EB4909 		add	r9, r3, r9, lsl #1
 703 008c 023B     		subs	r3, r3, #2
 704 008e CDF81080 		str	r8, [sp, #16]
 705 0092 03EB4403 		add	r3, r3, r4, lsl #1
 706 0096 0C46     		mov	r4, r1
 707 0098 9A46     		mov	r10, r3
 708              	.LVL38:
 709              	.L42:
 420:../../libs/PoliTeKDSP/libs/libDaisy/src/hid/disp/display.h ****             for(j = 0; j < font.FontWidth; j++)
 710              		.loc 11 420 15 view .LVU145
 711 009a 39F802CF 		ldrh	ip, [r9, #2]!
 712              	.LVL39:
 421:../../libs/PoliTeKDSP/libs/libDaisy/src/hid/disp/display.h ****             {
 713              		.loc 11 421 26 is_stmt 1 view .LVU146
 714 009e A5B3     		cbz	r5, .L47
 715              	.LBB643:
 716              	.LBB644:
 717              	.LBB645:
 718              	.LBB646:
 719              	.LBB647:
 368:../../libs/PoliTeKDSP/libs/libDaisy/src/dev/oled_ssd130x.h ****     }
 720              		.loc 12 368 55 is_stmt 0 view .LVU147
 721 00a0 04F00703 		and	r3, r4, #7
 368:../../libs/PoliTeKDSP/libs/libDaisy/src/dev/oled_ssd130x.h ****     }
 722              		.loc 12 368 49 view .LVU148
 723 00a4 4FF0010E 		mov	lr, #1
 368:../../libs/PoliTeKDSP/libs/libDaisy/src/dev/oled_ssd130x.h ****     }
 724              		.loc 12 368 28 view .LVU149
 725 00a8 E208     		lsrs	r2, r4, #3
 726 00aa 5946     		mov	r1, fp
 368:../../libs/PoliTeKDSP/libs/libDaisy/src/dev/oled_ssd130x.h ****     }
 727              		.loc 12 368 49 view .LVU150
 728 00ac 0EFA03FE 		lsl	lr, lr, r3
 729 00b0 0BF11003 		add	r3, fp, #16
 368:../../libs/PoliTeKDSP/libs/libDaisy/src/dev/oled_ssd130x.h ****     }
 730              		.loc 12 368 42 view .LVU151
 731 00b4 4FFA8EFE 		sxtb	lr, lr
 732 00b8 03EBC212 		add	r2, r3, r2, lsl #7
 733              	.LBE647:
 734              	.LBE646:
 735              	.LBE645:
 736              	.LBE644:
 737              	.LBE643:
 421:../../libs/PoliTeKDSP/libs/libDaisy/src/hid/disp/display.h ****             {
 738              		.loc 11 421 19 view .LVU152
 739 00bc 0023     		movs	r3, #0
 740              	.LBB665:
 741              	.LBB660:
 742              	.LBB655:
 743              	.LBB651:
ARM GAS  C:\Users\skipi\AppData\Local\Temp\ccs8qXFk.s 			page 39


 744              	.LBB648:
 368:../../libs/PoliTeKDSP/libs/libDaisy/src/dev/oled_ssd130x.h ****     }
 745              		.loc 12 368 42 view .LVU153
 746 00be 6FEA0E08 		mvn	r8, lr
 747 00c2 3244     		add	r2, r2, r6
 748 00c4 0DE0     		b	.L48
 749              	.LVL40:
 750              	.L72:
 368:../../libs/PoliTeKDSP/libs/libDaisy/src/dev/oled_ssd130x.h ****     }
 751              		.loc 12 368 42 view .LVU154
 752              	.LBE648:
 753              	.LBE651:
 754              	.LBE655:
 755              	.LBE660:
 756              	.LBE665:
 757              	.LBB666:
 758              	.LBI666:
  42:../../libs/PoliTeKDSP/libs/libDaisy/src/hid/disp/oled_display.h ****     {
 759              		.loc 10 42 10 is_stmt 1 view .LVU155
 760              	.LBB667:
 761              	.LBI667:
 361:../../libs/PoliTeKDSP/libs/libDaisy/src/dev/oled_ssd130x.h ****     {
 762              		.loc 12 361 10 view .LVU156
 763              	.LBB668:
 363:../../libs/PoliTeKDSP/libs/libDaisy/src/dev/oled_ssd130x.h ****             return;
 764              		.loc 12 363 9 is_stmt 0 view .LVU157
 765 00c6 7F29     		cmp	r1, #127
 766 00c8 06D8     		bhi	.L44
 767 00ca 3F2C     		cmp	r4, #63
 768 00cc 04D8     		bhi	.L44
 366:../../libs/PoliTeKDSP/libs/libDaisy/src/dev/oled_ssd130x.h ****         else
 769              		.loc 12 366 42 view .LVU158
 770 00ce 1078     		ldrb	r0, [r2]	@ zero_extendqisi2
 365:../../libs/PoliTeKDSP/libs/libDaisy/src/dev/oled_ssd130x.h ****             buffer_[x + (y / 8) * width] |= (1 << (y % 8));
 771              		.loc 12 365 9 view .LVU159
 772 00d0 97B1     		cbz	r7, .L46
 773              	.L69:
 365:../../libs/PoliTeKDSP/libs/libDaisy/src/dev/oled_ssd130x.h ****             buffer_[x + (y / 8) * width] |= (1 << (y % 8));
 774              		.loc 12 365 9 view .LVU160
 775              	.LBE668:
 776              	.LBE667:
 777              	.LBE666:
 778              	.LBB669:
 779              	.LBB661:
 780              	.LBB656:
 366:../../libs/PoliTeKDSP/libs/libDaisy/src/dev/oled_ssd130x.h ****         else
 781              		.loc 12 366 42 view .LVU161
 782 00d2 4EEA0000 		orr	r0, lr, r0
 783 00d6 1070     		strb	r0, [r2]
 784              	.L44:
 785              	.LBE656:
 786              	.LBE661:
 787              	.LBE669:
 421:../../libs/PoliTeKDSP/libs/libDaisy/src/hid/disp/display.h ****             {
 788              		.loc 11 421 13 is_stmt 1 view .LVU162
 789 00d8 0133     		adds	r3, r3, #1
 790              	.LVL41:
ARM GAS  C:\Users\skipi\AppData\Local\Temp\ccs8qXFk.s 			page 40


 421:../../libs/PoliTeKDSP/libs/libDaisy/src/hid/disp/display.h ****             {
 791              		.loc 11 421 26 view .LVU163
 792 00da 0132     		adds	r2, r2, #1
 793 00dc 0131     		adds	r1, r1, #1
 794 00de AB42     		cmp	r3, r5
 795 00e0 13D0     		beq	.L47
 796              	.LVL42:
 797              	.L48:
 423:../../libs/PoliTeKDSP/libs/libDaisy/src/hid/disp/display.h ****                 {
 798              		.loc 11 423 23 is_stmt 0 view .LVU164
 799 00e2 0CFA03F0 		lsl	r0, ip, r3
 423:../../libs/PoliTeKDSP/libs/libDaisy/src/hid/disp/display.h ****                 {
 800              		.loc 11 423 17 view .LVU165
 801 00e6 0004     		lsls	r0, r0, #16
 802 00e8 EDD4     		bmi	.L72
 803              	.LVL43:
 804              	.LBB670:
 805              	.LBI643:
  42:../../libs/PoliTeKDSP/libs/libDaisy/src/hid/disp/oled_display.h ****     {
 806              		.loc 10 42 10 is_stmt 1 view .LVU166
 807              	.LBB662:
 808              	.LBI644:
 361:../../libs/PoliTeKDSP/libs/libDaisy/src/dev/oled_ssd130x.h ****     {
 809              		.loc 12 361 10 view .LVU167
 810              	.LBB657:
 363:../../libs/PoliTeKDSP/libs/libDaisy/src/dev/oled_ssd130x.h ****             return;
 811              		.loc 12 363 9 is_stmt 0 view .LVU168
 812 00ea 7F29     		cmp	r1, #127
 813 00ec F4D8     		bhi	.L44
 814 00ee 3F2C     		cmp	r4, #63
 815 00f0 F2D8     		bhi	.L44
 366:../../libs/PoliTeKDSP/libs/libDaisy/src/dev/oled_ssd130x.h ****         else
 816              		.loc 12 366 42 view .LVU169
 817 00f2 1078     		ldrb	r0, [r2]	@ zero_extendqisi2
 365:../../libs/PoliTeKDSP/libs/libDaisy/src/dev/oled_ssd130x.h ****             buffer_[x + (y / 8) * width] |= (1 << (y % 8));
 818              		.loc 12 365 9 view .LVU170
 819 00f4 002F     		cmp	r7, #0
 820 00f6 ECD0     		beq	.L69
 821              	.L46:
 822              	.LVL44:
 823              	.LBB652:
 824              	.LBI646:
 361:../../libs/PoliTeKDSP/libs/libDaisy/src/dev/oled_ssd130x.h ****     {
 825              		.loc 12 361 10 is_stmt 1 view .LVU171
 361:../../libs/PoliTeKDSP/libs/libDaisy/src/dev/oled_ssd130x.h ****     {
 826              		.loc 12 361 10 is_stmt 0 view .LVU172
 827              	.LBE652:
 828              	.LBE657:
 829              	.LBE662:
 830              	.LBE670:
 421:../../libs/PoliTeKDSP/libs/libDaisy/src/hid/disp/display.h ****             {
 831              		.loc 11 421 13 view .LVU173
 832 00f8 0133     		adds	r3, r3, #1
 833              	.LVL45:
 834              	.LBB671:
 835              	.LBB663:
 836              	.LBB658:
ARM GAS  C:\Users\skipi\AppData\Local\Temp\ccs8qXFk.s 			page 41


 837              	.LBB653:
 838              	.LBB649:
 368:../../libs/PoliTeKDSP/libs/libDaisy/src/dev/oled_ssd130x.h ****     }
 839              		.loc 12 368 42 view .LVU174
 840 00fa 08EA0000 		and	r0, r8, r0
 841              	.LBE649:
 842              	.LBE653:
 843              	.LBE658:
 844              	.LBE663:
 845              	.LBE671:
 421:../../libs/PoliTeKDSP/libs/libDaisy/src/hid/disp/display.h ****             {
 846              		.loc 11 421 26 view .LVU175
 847 00fe 0132     		adds	r2, r2, #1
 848 0100 0131     		adds	r1, r1, #1
 849 0102 AB42     		cmp	r3, r5
 850              	.LBB672:
 851              	.LBB664:
 852              	.LBB659:
 853              	.LBB654:
 854              	.LBB650:
 368:../../libs/PoliTeKDSP/libs/libDaisy/src/dev/oled_ssd130x.h ****     }
 855              		.loc 12 368 42 view .LVU176
 856 0104 02F8010C 		strb	r0, [r2, #-1]
 368:../../libs/PoliTeKDSP/libs/libDaisy/src/dev/oled_ssd130x.h ****     }
 857              		.loc 12 368 42 view .LVU177
 858              	.LBE650:
 859              	.LBE654:
 860              	.LBE659:
 861              	.LBE664:
 862              	.LBE672:
 421:../../libs/PoliTeKDSP/libs/libDaisy/src/hid/disp/display.h ****             {
 863              		.loc 11 421 13 is_stmt 1 view .LVU178
 864              	.LVL46:
 421:../../libs/PoliTeKDSP/libs/libDaisy/src/hid/disp/display.h ****             {
 865              		.loc 11 421 26 view .LVU179
 866 0108 EBD1     		bne	.L48
 867              	.LVL47:
 868              	.L47:
 418:../../libs/PoliTeKDSP/libs/libDaisy/src/hid/disp/display.h ****         {
 869              		.loc 11 418 9 view .LVU180
 418:../../libs/PoliTeKDSP/libs/libDaisy/src/hid/disp/display.h ****         {
 870              		.loc 11 418 22 view .LVU181
 871 010a D145     		cmp	r9, r10
 872 010c 04F10104 		add	r4, r4, #1
 873 0110 C3D1     		bne	.L42
 874 0112 DDF81080 		ldr	r8, [sp, #16]
 875              	.LVL48:
 876              	.L41:
 877              	.LBB673:
 878              	.LBB674:
 173:../../libs/PoliTeKDSP/libs/libDaisy/src/hid/disp/display.h ****         currentY_ = (y >= Height()) ? Height() - 1 : y;
 879              		.loc 11 173 33 is_stmt 0 view .LVU182
 880 0116 3268     		ldr	r2, [r6]
 881              	.LBE674:
 882              	.LBE673:
 439:../../libs/PoliTeKDSP/libs/libDaisy/src/hid/disp/display.h **** 
 883              		.loc 11 439 18 view .LVU183
ARM GAS  C:\Users\skipi\AppData\Local\Temp\ccs8qXFk.s 			page 42


 884 0118 0BEB0504 		add	r4, fp, r5
 885 011c 2649     		ldr	r1, .L77
 886              	.LBB679:
 887              	.LBB675:
 173:../../libs/PoliTeKDSP/libs/libDaisy/src/hid/disp/display.h ****         currentY_ = (y >= Height()) ? Height() - 1 : y;
 888              		.loc 11 173 33 view .LVU184
 889 011e D368     		ldr	r3, [r2, #12]
 890              	.LBE675:
 891              	.LBE679:
 439:../../libs/PoliTeKDSP/libs/libDaisy/src/hid/disp/display.h **** 
 892              		.loc 11 439 18 view .LVU185
 893 0120 A4B2     		uxth	r4, r4
 894              	.LVL49:
 895              	.LBB680:
 896              	.LBI673:
 171:../../libs/PoliTeKDSP/libs/libDaisy/src/hid/disp/display.h ****     {
 897              		.loc 11 171 10 is_stmt 1 view .LVU186
 898              	.LBB676:
 173:../../libs/PoliTeKDSP/libs/libDaisy/src/hid/disp/display.h ****         currentY_ = (y >= Height()) ? Height() - 1 : y;
 899              		.loc 11 173 9 view .LVU187
 900 0122 8B42     		cmp	r3, r1
 901 0124 34D1     		bne	.L73
 173:../../libs/PoliTeKDSP/libs/libDaisy/src/hid/disp/display.h ****         currentY_ = (y >= Height()) ? Height() - 1 : y;
 902              		.loc 11 173 33 is_stmt 0 view .LVU188
 903 0126 8020     		movs	r0, #128
 904              	.L49:
 173:../../libs/PoliTeKDSP/libs/libDaisy/src/hid/disp/display.h ****         currentY_ = (y >= Height()) ? Height() - 1 : y;
 905              		.loc 11 173 19 view .LVU189
 906 0128 8442     		cmp	r4, r0
 907 012a 04D3     		bcc	.L50
 173:../../libs/PoliTeKDSP/libs/libDaisy/src/hid/disp/display.h ****         currentY_ = (y >= Height()) ? Height() - 1 : y;
 908              		.loc 11 173 44 view .LVU190
 909 012c D368     		ldr	r3, [r2, #12]
 910 012e 2249     		ldr	r1, .L77
 911 0130 8B42     		cmp	r3, r1
 912 0132 3AD1     		bne	.L74
 913 0134 7F24     		movs	r4, #127
 914              	.LVL50:
 915              	.L50:
 174:../../libs/PoliTeKDSP/libs/libDaisy/src/hid/disp/display.h ****     }
 916              		.loc 11 174 34 view .LVU191
 917 0136 9368     		ldr	r3, [r2, #8]
 918 0138 204A     		ldr	r2, .L77+4
 173:../../libs/PoliTeKDSP/libs/libDaisy/src/hid/disp/display.h ****         currentY_ = (y >= Height()) ? Height() - 1 : y;
 919              		.loc 11 173 19 view .LVU192
 920 013a B480     		strh	r4, [r6, #4]	@ movhi
 174:../../libs/PoliTeKDSP/libs/libDaisy/src/hid/disp/display.h ****     }
 921              		.loc 11 174 9 is_stmt 1 view .LVU193
 922 013c 9342     		cmp	r3, r2
 923 013e 24D1     		bne	.L75
 174:../../libs/PoliTeKDSP/libs/libDaisy/src/hid/disp/display.h ****     }
 924              		.loc 11 174 34 is_stmt 0 view .LVU194
 925 0140 4020     		movs	r0, #64
 926              	.L52:
 174:../../libs/PoliTeKDSP/libs/libDaisy/src/hid/disp/display.h ****     }
 927              		.loc 11 174 19 view .LVU195
 928 0142 029B     		ldr	r3, [sp, #8]
ARM GAS  C:\Users\skipi\AppData\Local\Temp\ccs8qXFk.s 			page 43


 929 0144 8342     		cmp	r3, r0
 930 0146 06D3     		bcc	.L53
 174:../../libs/PoliTeKDSP/libs/libDaisy/src/hid/disp/display.h ****     }
 931              		.loc 11 174 46 view .LVU196
 932 0148 3368     		ldr	r3, [r6]
 933 014a 1C4A     		ldr	r2, .L77+4
 934 014c 9B68     		ldr	r3, [r3, #8]
 935 014e 9342     		cmp	r3, r2
 936 0150 25D1     		bne	.L76
 937 0152 3F23     		movs	r3, #63
 938 0154 0293     		str	r3, [sp, #8]
 939              	.LVL51:
 940              	.L53:
 174:../../libs/PoliTeKDSP/libs/libDaisy/src/hid/disp/display.h ****     }
 941              		.loc 11 174 19 view .LVU197
 942 0156 029B     		ldr	r3, [sp, #8]
 943 0158 F380     		strh	r3, [r6, #6]	@ movhi
 944              	.LVL52:
 945              	.L35:
 174:../../libs/PoliTeKDSP/libs/libDaisy/src/hid/disp/display.h ****     }
 946              		.loc 11 174 19 view .LVU198
 947              	.LBE676:
 948              	.LBE680:
 949              	.LBE642:
 950              	.LBE641:
 449:../../libs/PoliTeKDSP/libs/libDaisy/src/hid/disp/display.h ****         {
 450:../../libs/PoliTeKDSP/libs/libDaisy/src/hid/disp/display.h ****             if(((ChildType*)(this))->ChildType::WriteChar(*str, font, on)
 451:../../libs/PoliTeKDSP/libs/libDaisy/src/hid/disp/display.h ****                != *str)
 951              		.loc 11 451 16 view .LVU199
 952 015a 019B     		ldr	r3, [sp, #4]
 953 015c 1878     		ldrb	r0, [r3]	@ zero_extendqisi2
 450:../../libs/PoliTeKDSP/libs/libDaisy/src/hid/disp/display.h ****                != *str)
 954              		.loc 11 450 13 view .LVU200
 955 015e 4045     		cmp	r0, r8
 956 0160 07D1     		bne	.L33
 957              	.LVL53:
 448:../../libs/PoliTeKDSP/libs/libDaisy/src/hid/disp/display.h ****         {
 958              		.loc 11 448 9 is_stmt 1 view .LVU201
 959 0162 13F8018F 		ldrb	r8, [r3, #1]!	@ zero_extendqisi2
 960              	.LVL54:
 448:../../libs/PoliTeKDSP/libs/libDaisy/src/hid/disp/display.h ****         {
 961              		.loc 11 448 9 is_stmt 0 view .LVU202
 962 0166 0193     		str	r3, [sp, #4]
 963 0168 B8F1000F 		cmp	r8, #0
 964 016c 7FF460AF 		bne	.L56
 965              	.LVL55:
 966              	.L55:
 967              	.LBB685:
 968              	.LBB683:
 407:../../libs/PoliTeKDSP/libs/libDaisy/src/hid/disp/display.h **** 
 969              		.loc 11 407 20 view .LVU203
 970 0170 0020     		movs	r0, #0
 971              	.L33:
 972              	.LBE683:
 973              	.LBE685:
 452:../../libs/PoliTeKDSP/libs/libDaisy/src/hid/disp/display.h ****             {
 453:../../libs/PoliTeKDSP/libs/libDaisy/src/hid/disp/display.h ****                 // Char could not be written
ARM GAS  C:\Users\skipi\AppData\Local\Temp\ccs8qXFk.s 			page 44


 454:../../libs/PoliTeKDSP/libs/libDaisy/src/hid/disp/display.h ****                 return *str;
 455:../../libs/PoliTeKDSP/libs/libDaisy/src/hid/disp/display.h ****             }
 456:../../libs/PoliTeKDSP/libs/libDaisy/src/hid/disp/display.h **** 
 457:../../libs/PoliTeKDSP/libs/libDaisy/src/hid/disp/display.h ****             // Next char
 458:../../libs/PoliTeKDSP/libs/libDaisy/src/hid/disp/display.h ****             str++;
 459:../../libs/PoliTeKDSP/libs/libDaisy/src/hid/disp/display.h ****         }
 460:../../libs/PoliTeKDSP/libs/libDaisy/src/hid/disp/display.h **** 
 461:../../libs/PoliTeKDSP/libs/libDaisy/src/hid/disp/display.h ****         // Everything ok
 462:../../libs/PoliTeKDSP/libs/libDaisy/src/hid/disp/display.h ****         return *str;
 463:../../libs/PoliTeKDSP/libs/libDaisy/src/hid/disp/display.h ****     }
 974              		.loc 11 463 5 view .LVU204
 975 0172 09B0     		add	sp, sp, #36
 976              		.cfi_remember_state
 977              		.cfi_def_cfa_offset 36
 978              		@ sp needed
 979 0174 BDE8F08F 		pop	{r4, r5, r6, r7, r8, r9, r10, fp, pc}
 980              	.LVL56:
 981              	.L37:
 982              		.cfi_restore_state
 983              	.LBB686:
 984              	.LBB684:
 407:../../libs/PoliTeKDSP/libs/libDaisy/src/hid/disp/display.h **** 
 985              		.loc 11 407 20 view .LVU205
 986 0178 4FF00008 		mov	r8, #0
 987              	.LVL57:
 407:../../libs/PoliTeKDSP/libs/libDaisy/src/hid/disp/display.h **** 
 988              		.loc 11 407 20 view .LVU206
 989 017c EDE7     		b	.L35
 990              	.LVL58:
 991              	.L70:
 410:../../libs/PoliTeKDSP/libs/libDaisy/src/hid/disp/display.h ****            || Height() < (currentY_ + font.FontHeight))
 992              		.loc 11 410 17 view .LVU207
 993 017e 3046     		mov	r0, r6
 994 0180 9847     		blx	r3
 995              	.LVL59:
 996 0182 62E7     		b	.L36
 997              	.L71:
 411:../../libs/PoliTeKDSP/libs/libDaisy/src/hid/disp/display.h ****         {
 998              		.loc 11 411 21 view .LVU208
 999 0184 3046     		mov	r0, r6
 1000 0186 9847     		blx	r3
 1001              	.LVL60:
 1002 0188 6BE7     		b	.L38
 1003              	.LVL61:
 1004              	.L75:
 1005              	.LBB681:
 1006              	.LBB677:
 174:../../libs/PoliTeKDSP/libs/libDaisy/src/hid/disp/display.h ****     }
 1007              		.loc 11 174 33 view .LVU209
 1008 018a 3046     		mov	r0, r6
 1009 018c 9847     		blx	r3
 1010              	.LVL62:
 1011 018e D8E7     		b	.L52
 1012              	.LVL63:
 1013              	.L73:
 173:../../libs/PoliTeKDSP/libs/libDaisy/src/hid/disp/display.h ****         currentY_ = (y >= Height()) ? Height() - 1 : y;
 1014              		.loc 11 173 32 view .LVU210
ARM GAS  C:\Users\skipi\AppData\Local\Temp\ccs8qXFk.s 			page 45


 1015 0190 3046     		mov	r0, r6
 1016 0192 9847     		blx	r3
 1017              	.LVL64:
 173:../../libs/PoliTeKDSP/libs/libDaisy/src/hid/disp/display.h ****         currentY_ = (y >= Height()) ? Height() - 1 : y;
 1018              		.loc 11 173 44 view .LVU211
 1019 0194 3268     		ldr	r2, [r6]
 1020 0196 C7E7     		b	.L49
 1021              	.LVL65:
 1022              	.L39:
 173:../../libs/PoliTeKDSP/libs/libDaisy/src/hid/disp/display.h ****         currentY_ = (y >= Height()) ? Height() - 1 : y;
 1023              		.loc 11 173 44 view .LVU212
 1024              	.LBE677:
 1025              	.LBE681:
 439:../../libs/PoliTeKDSP/libs/libDaisy/src/hid/disp/display.h **** 
 1026              		.loc 11 439 19 view .LVU213
 1027 0198 B6F804B0 		ldrh	fp, [r6, #4]
 1028 019c BBE7     		b	.L41
 1029              	.LVL66:
 1030              	.L76:
 1031              	.LBB682:
 1032              	.LBB678:
 174:../../libs/PoliTeKDSP/libs/libDaisy/src/hid/disp/display.h ****     }
 1033              		.loc 11 174 45 view .LVU214
 1034 019e 3046     		mov	r0, r6
 1035 01a0 9847     		blx	r3
 1036              	.LVL67:
 174:../../libs/PoliTeKDSP/libs/libDaisy/src/hid/disp/display.h ****     }
 1037              		.loc 11 174 19 view .LVU215
 1038 01a2 0138     		subs	r0, r0, #1
 1039 01a4 83B2     		uxth	r3, r0
 1040 01a6 0293     		str	r3, [sp, #8]
 1041              	.LVL68:
 174:../../libs/PoliTeKDSP/libs/libDaisy/src/hid/disp/display.h ****     }
 1042              		.loc 11 174 19 view .LVU216
 1043 01a8 D5E7     		b	.L53
 1044              	.LVL69:
 1045              	.L74:
 173:../../libs/PoliTeKDSP/libs/libDaisy/src/hid/disp/display.h ****         currentY_ = (y >= Height()) ? Height() - 1 : y;
 1046              		.loc 11 173 43 view .LVU217
 1047 01aa 3046     		mov	r0, r6
 1048 01ac 9847     		blx	r3
 1049              	.LVL70:
 173:../../libs/PoliTeKDSP/libs/libDaisy/src/hid/disp/display.h ****         currentY_ = (y >= Height()) ? Height() - 1 : y;
 1050              		.loc 11 173 19 view .LVU218
 1051 01ae 0138     		subs	r0, r0, #1
 174:../../libs/PoliTeKDSP/libs/libDaisy/src/hid/disp/display.h ****     }
 1052              		.loc 11 174 34 view .LVU219
 1053 01b0 3268     		ldr	r2, [r6]
 173:../../libs/PoliTeKDSP/libs/libDaisy/src/hid/disp/display.h ****         currentY_ = (y >= Height()) ? Height() - 1 : y;
 1054              		.loc 11 173 19 view .LVU220
 1055 01b2 84B2     		uxth	r4, r0
 1056              	.LVL71:
 173:../../libs/PoliTeKDSP/libs/libDaisy/src/hid/disp/display.h ****         currentY_ = (y >= Height()) ? Height() - 1 : y;
 1057              		.loc 11 173 19 view .LVU221
 1058 01b4 BFE7     		b	.L50
 1059              	.L78:
 1060 01b6 00BF     		.align	2
ARM GAS  C:\Users\skipi\AppData\Local\Temp\ccs8qXFk.s 			page 46


 1061              	.L77:
 1062 01b8 00000000 		.word	_ZNK5daisy11OledDisplayINS_13SSD130xDriverILj128ELj64ENS_19SSD130xI2CTransportEEEE5WidthEv
 1063 01bc 00000000 		.word	_ZNK5daisy11OledDisplayINS_13SSD130xDriverILj128ELj64ENS_19SSD130xI2CTransportEEEE6HeightEv
 1064              	.LBE678:
 1065              	.LBE682:
 1066              	.LBE684:
 1067              	.LBE686:
 1068              		.cfi_endproc
 1069              	.LFE2842:
 1071              		.section	.text._ZN5daisy25OneBitGraphicsDisplayImplINS_11OledDisplayINS_13SSD130xDriverILj128ELj64
 1072              		.align	1
 1073              		.p2align 2,,3
 1074              		.weak	_ZN5daisy25OneBitGraphicsDisplayImplINS_11OledDisplayINS_13SSD130xDriverILj128ELj64ENS_19SSD
 1075              		.syntax unified
 1076              		.thumb
 1077              		.thumb_func
 1078              		.fpu fpv5-d16
 1080              	_ZN5daisy25OneBitGraphicsDisplayImplINS_11OledDisplayINS_13SSD130xDriverILj128ELj64ENS_19SSD130xI2C
 1081              	.LVL72:
 1082              	.LFB2841:
 401:../../libs/PoliTeKDSP/libs/libDaisy/src/hid/disp/display.h ****     {
 1083              		.loc 11 401 10 is_stmt 1 view -0
 1084              		.cfi_startproc
 1085              		@ args = 4, pretend = 0, frame = 16
 1086              		@ frame_needed = 0, uses_anonymous_args = 0
 401:../../libs/PoliTeKDSP/libs/libDaisy/src/hid/disp/display.h ****     {
 1087              		.loc 11 401 10 is_stmt 0 view .LVU223
 1088 0000 2DE9F04F 		push	{r4, r5, r6, r7, r8, r9, r10, fp, lr}
 1089              		.cfi_def_cfa_offset 36
 1090              		.cfi_offset 4, -36
 1091              		.cfi_offset 5, -32
 1092              		.cfi_offset 6, -28
 1093              		.cfi_offset 7, -24
 1094              		.cfi_offset 8, -20
 1095              		.cfi_offset 9, -16
 1096              		.cfi_offset 10, -12
 1097              		.cfi_offset 11, -8
 1098              		.cfi_offset 14, -4
 1099 0004 85B0     		sub	sp, sp, #20
 1100              		.cfi_def_cfa_offset 56
 1101              	.LVL73:
 406:../../libs/PoliTeKDSP/libs/libDaisy/src/hid/disp/display.h ****             return 0;
 1102              		.loc 11 406 20 view .LVU224
 1103 0006 A1F12005 		sub	r5, r1, #32
 401:../../libs/PoliTeKDSP/libs/libDaisy/src/hid/disp/display.h ****     {
 1104              		.loc 11 401 10 view .LVU225
 1105 000a 04AC     		add	r4, sp, #16
 1106 000c 9DF83870 		ldrb	r7, [sp, #56]	@ zero_extendqisi2
 1107 0010 0091     		str	r1, [sp]
 1108 0012 04E90C00 		stmdb	r4, {r2, r3}
 1109              	.LVL74:
 406:../../libs/PoliTeKDSP/libs/libDaisy/src/hid/disp/display.h ****             return 0;
 1110              		.loc 11 406 9 view .LVU226
 1111 0016 EBB2     		uxtb	r3, r5
 1112 0018 5E2B     		cmp	r3, #94
 1113 001a 00F29580 		bhi	.L83
 410:../../libs/PoliTeKDSP/libs/libDaisy/src/hid/disp/display.h ****            || Height() < (currentY_ + font.FontHeight))
ARM GAS  C:\Users\skipi\AppData\Local\Temp\ccs8qXFk.s 			page 47


 1114              		.loc 11 410 17 view .LVU227
 1115 001e 0368     		ldr	r3, [r0]
 1116 0020 8046     		mov	r8, r0
 1117 0022 5D4A     		ldr	r2, .L118
 1118 0024 DB68     		ldr	r3, [r3, #12]
 1119 0026 9DF80840 		ldrb	r4, [sp, #8]	@ zero_extendqisi2
 1120 002a 9342     		cmp	r3, r2
 1121 002c 9DF80960 		ldrb	r6, [sp, #9]	@ zero_extendqisi2
 1122 0030 40F09480 		bne	.L110
 1123 0034 8020     		movs	r0, #128
 1124              	.LVL75:
 1125              	.L82:
 410:../../libs/PoliTeKDSP/libs/libDaisy/src/hid/disp/display.h ****            || Height() < (currentY_ + font.FontHeight))
 1126              		.loc 11 410 23 view .LVU228
 1127 0036 B8F80430 		ldrh	r3, [r8, #4]
 410:../../libs/PoliTeKDSP/libs/libDaisy/src/hid/disp/display.h ****            || Height() < (currentY_ + font.FontHeight))
 1128              		.loc 11 410 33 view .LVU229
 1129 003a 2344     		add	r3, r3, r4
 411:../../libs/PoliTeKDSP/libs/libDaisy/src/hid/disp/display.h ****         {
 1130              		.loc 11 411 12 view .LVU230
 1131 003c 8342     		cmp	r3, r0
 1132 003e 00F38380 		bgt	.L83
 411:../../libs/PoliTeKDSP/libs/libDaisy/src/hid/disp/display.h ****         {
 1133              		.loc 11 411 21 discriminator 2 view .LVU231
 1134 0042 D8F80030 		ldr	r3, [r8]
 1135 0046 554A     		ldr	r2, .L118+4
 1136 0048 9B68     		ldr	r3, [r3, #8]
 1137 004a 9342     		cmp	r3, r2
 1138 004c 40F08880 		bne	.L111
 411:../../libs/PoliTeKDSP/libs/libDaisy/src/hid/disp/display.h ****         {
 1139              		.loc 11 411 21 view .LVU232
 1140 0050 4020     		movs	r0, #64
 1141              	.L84:
 411:../../libs/PoliTeKDSP/libs/libDaisy/src/hid/disp/display.h ****         {
 1142              		.loc 11 411 27 discriminator 2 view .LVU233
 1143 0052 B8F80620 		ldrh	r2, [r8, #6]
 411:../../libs/PoliTeKDSP/libs/libDaisy/src/hid/disp/display.h ****         {
 1144              		.loc 11 411 37 discriminator 2 view .LVU234
 1145 0056 9319     		adds	r3, r2, r6
 411:../../libs/PoliTeKDSP/libs/libDaisy/src/hid/disp/display.h ****         {
 1146              		.loc 11 411 27 discriminator 2 view .LVU235
 1147 0058 0192     		str	r2, [sp, #4]
 411:../../libs/PoliTeKDSP/libs/libDaisy/src/hid/disp/display.h ****         {
 1148              		.loc 11 411 12 discriminator 2 view .LVU236
 1149 005a 8342     		cmp	r3, r0
 1150 005c 74DC     		bgt	.L83
 1151              	.LVL76:
 418:../../libs/PoliTeKDSP/libs/libDaisy/src/hid/disp/display.h ****         {
 1152              		.loc 11 418 22 is_stmt 1 view .LVU237
 1153 005e 002E     		cmp	r6, #0
 1154 0060 00F08980 		beq	.L85
 420:../../libs/PoliTeKDSP/libs/libDaisy/src/hid/disp/display.h ****             for(j = 0; j < font.FontWidth; j++)
 1155              		.loc 11 420 37 is_stmt 0 view .LVU238
 1156 0064 06FB05F5 		mul	r5, r6, r5
 1157 0068 6FF00040 		mvn	r0, #-2147483648
 420:../../libs/PoliTeKDSP/libs/libDaisy/src/hid/disp/display.h ****             for(j = 0; j < font.FontWidth; j++)
 1158              		.loc 11 420 22 view .LVU239
ARM GAS  C:\Users\skipi\AppData\Local\Temp\ccs8qXFk.s 			page 48


 1159 006c 039B     		ldr	r3, [sp, #12]
 1160 006e 9646     		mov	lr, r2
 1161 0070 2844     		add	r0, r0, r5
 1162 0072 2E44     		add	r6, r6, r5
 439:../../libs/PoliTeKDSP/libs/libDaisy/src/hid/disp/display.h **** 
 1163              		.loc 11 439 19 view .LVU240
 1164 0074 B8F804A0 		ldrh	r10, [r8, #4]
 1165 0078 03EB4000 		add	r0, r3, r0, lsl #1
 1166 007c 023B     		subs	r3, r3, #2
 1167 007e 03EB460B 		add	fp, r3, r6, lsl #1
 1168              	.LVL77:
 1169              	.L88:
 420:../../libs/PoliTeKDSP/libs/libDaisy/src/hid/disp/display.h ****             for(j = 0; j < font.FontWidth; j++)
 1170              		.loc 11 420 15 view .LVU241
 1171 0082 30F8026F 		ldrh	r6, [r0, #2]!
 1172              	.LVL78:
 421:../../libs/PoliTeKDSP/libs/libDaisy/src/hid/disp/display.h ****             {
 1173              		.loc 11 421 26 is_stmt 1 view .LVU242
 1174 0086 BCB3     		cbz	r4, .L93
 1175              	.LBB717:
 1176              	.LBB718:
 1177              	.LBB719:
 1178              	.LBB720:
 1179              	.LBB721:
 368:../../libs/PoliTeKDSP/libs/libDaisy/src/dev/oled_ssd130x.h ****     }
 1180              		.loc 12 368 55 is_stmt 0 view .LVU243
 1181 0088 0EF00703 		and	r3, lr, #7
 368:../../libs/PoliTeKDSP/libs/libDaisy/src/dev/oled_ssd130x.h ****     }
 1182              		.loc 12 368 49 view .LVU244
 1183 008c 4FF0010C 		mov	ip, #1
 368:../../libs/PoliTeKDSP/libs/libDaisy/src/dev/oled_ssd130x.h ****     }
 1184              		.loc 12 368 28 view .LVU245
 1185 0090 4FEADE02 		lsr	r2, lr, #3
 1186 0094 5146     		mov	r1, r10
 368:../../libs/PoliTeKDSP/libs/libDaisy/src/dev/oled_ssd130x.h ****     }
 1187              		.loc 12 368 49 view .LVU246
 1188 0096 0CFA03FC 		lsl	ip, ip, r3
 1189 009a 0AF11003 		add	r3, r10, #16
 368:../../libs/PoliTeKDSP/libs/libDaisy/src/dev/oled_ssd130x.h ****     }
 1190              		.loc 12 368 42 view .LVU247
 1191 009e 4FFA8CFC 		sxtb	ip, ip
 1192 00a2 03EBC212 		add	r2, r3, r2, lsl #7
 1193              	.LBE721:
 1194              	.LBE720:
 1195              	.LBE719:
 1196              	.LBE718:
 1197              	.LBE717:
 421:../../libs/PoliTeKDSP/libs/libDaisy/src/hid/disp/display.h ****             {
 1198              		.loc 11 421 19 view .LVU248
 1199 00a6 0023     		movs	r3, #0
 1200              	.LBB739:
 1201              	.LBB734:
 1202              	.LBB729:
 1203              	.LBB725:
 1204              	.LBB722:
 368:../../libs/PoliTeKDSP/libs/libDaisy/src/dev/oled_ssd130x.h ****     }
 1205              		.loc 12 368 42 view .LVU249
ARM GAS  C:\Users\skipi\AppData\Local\Temp\ccs8qXFk.s 			page 49


 1206 00a8 6FEA0C09 		mvn	r9, ip
 1207 00ac 4244     		add	r2, r2, r8
 1208 00ae 0EE0     		b	.L94
 1209              	.LVL79:
 1210              	.L112:
 368:../../libs/PoliTeKDSP/libs/libDaisy/src/dev/oled_ssd130x.h ****     }
 1211              		.loc 12 368 42 view .LVU250
 1212              	.LBE722:
 1213              	.LBE725:
 1214              	.LBE729:
 1215              	.LBE734:
 1216              	.LBE739:
 1217              	.LBB740:
 1218              	.LBI740:
  42:../../libs/PoliTeKDSP/libs/libDaisy/src/hid/disp/oled_display.h ****     {
 1219              		.loc 10 42 10 is_stmt 1 view .LVU251
 1220              	.LBB741:
 1221              	.LBI741:
 361:../../libs/PoliTeKDSP/libs/libDaisy/src/dev/oled_ssd130x.h ****     {
 1222              		.loc 12 361 10 view .LVU252
 1223              	.LBB742:
 363:../../libs/PoliTeKDSP/libs/libDaisy/src/dev/oled_ssd130x.h ****             return;
 1224              		.loc 12 363 9 is_stmt 0 view .LVU253
 1225 00b0 7F29     		cmp	r1, #127
 1226 00b2 07D8     		bhi	.L90
 1227 00b4 BEF13F0F 		cmp	lr, #63
 1228 00b8 04D8     		bhi	.L90
 366:../../libs/PoliTeKDSP/libs/libDaisy/src/dev/oled_ssd130x.h ****         else
 1229              		.loc 12 366 42 view .LVU254
 1230 00ba 1578     		ldrb	r5, [r2]	@ zero_extendqisi2
 365:../../libs/PoliTeKDSP/libs/libDaisy/src/dev/oled_ssd130x.h ****             buffer_[x + (y / 8) * width] |= (1 << (y % 8));
 1231              		.loc 12 365 9 view .LVU255
 1232 00bc 9FB1     		cbz	r7, .L92
 1233              	.L109:
 365:../../libs/PoliTeKDSP/libs/libDaisy/src/dev/oled_ssd130x.h ****             buffer_[x + (y / 8) * width] |= (1 << (y % 8));
 1234              		.loc 12 365 9 view .LVU256
 1235              	.LBE742:
 1236              	.LBE741:
 1237              	.LBE740:
 1238              	.LBB743:
 1239              	.LBB735:
 1240              	.LBB730:
 366:../../libs/PoliTeKDSP/libs/libDaisy/src/dev/oled_ssd130x.h ****         else
 1241              		.loc 12 366 42 view .LVU257
 1242 00be 4CEA0505 		orr	r5, ip, r5
 1243 00c2 1570     		strb	r5, [r2]
 1244              	.L90:
 1245              	.LBE730:
 1246              	.LBE735:
 1247              	.LBE743:
 421:../../libs/PoliTeKDSP/libs/libDaisy/src/hid/disp/display.h ****             {
 1248              		.loc 11 421 13 is_stmt 1 discriminator 2 view .LVU258
 1249 00c4 0133     		adds	r3, r3, #1
 1250              	.LVL80:
 421:../../libs/PoliTeKDSP/libs/libDaisy/src/hid/disp/display.h ****             {
 1251              		.loc 11 421 26 discriminator 2 view .LVU259
 1252 00c6 0132     		adds	r2, r2, #1
ARM GAS  C:\Users\skipi\AppData\Local\Temp\ccs8qXFk.s 			page 50


 1253 00c8 0131     		adds	r1, r1, #1
 1254 00ca 9C42     		cmp	r4, r3
 1255 00cc 14D0     		beq	.L93
 1256              	.LVL81:
 1257              	.L94:
 423:../../libs/PoliTeKDSP/libs/libDaisy/src/hid/disp/display.h ****                 {
 1258              		.loc 11 423 23 is_stmt 0 view .LVU260
 1259 00ce 06FA03F5 		lsl	r5, r6, r3
 423:../../libs/PoliTeKDSP/libs/libDaisy/src/hid/disp/display.h ****                 {
 1260              		.loc 11 423 17 view .LVU261
 1261 00d2 2D04     		lsls	r5, r5, #16
 1262 00d4 ECD4     		bmi	.L112
 1263              	.LVL82:
 1264              	.LBB744:
 1265              	.LBI717:
  42:../../libs/PoliTeKDSP/libs/libDaisy/src/hid/disp/oled_display.h ****     {
 1266              		.loc 10 42 10 is_stmt 1 view .LVU262
 1267              	.LBB736:
 1268              	.LBI718:
 361:../../libs/PoliTeKDSP/libs/libDaisy/src/dev/oled_ssd130x.h ****     {
 1269              		.loc 12 361 10 view .LVU263
 1270              	.LBB731:
 363:../../libs/PoliTeKDSP/libs/libDaisy/src/dev/oled_ssd130x.h ****             return;
 1271              		.loc 12 363 9 is_stmt 0 view .LVU264
 1272 00d6 7F29     		cmp	r1, #127
 1273 00d8 F4D8     		bhi	.L90
 1274 00da BEF13F0F 		cmp	lr, #63
 1275 00de F1D8     		bhi	.L90
 366:../../libs/PoliTeKDSP/libs/libDaisy/src/dev/oled_ssd130x.h ****         else
 1276              		.loc 12 366 42 view .LVU265
 1277 00e0 1578     		ldrb	r5, [r2]	@ zero_extendqisi2
 365:../../libs/PoliTeKDSP/libs/libDaisy/src/dev/oled_ssd130x.h ****             buffer_[x + (y / 8) * width] |= (1 << (y % 8));
 1278              		.loc 12 365 9 view .LVU266
 1279 00e2 002F     		cmp	r7, #0
 1280 00e4 EBD0     		beq	.L109
 1281              	.L92:
 1282              	.LVL83:
 1283              	.LBB726:
 1284              	.LBI720:
 361:../../libs/PoliTeKDSP/libs/libDaisy/src/dev/oled_ssd130x.h ****     {
 1285              		.loc 12 361 10 is_stmt 1 view .LVU267
 361:../../libs/PoliTeKDSP/libs/libDaisy/src/dev/oled_ssd130x.h ****     {
 1286              		.loc 12 361 10 is_stmt 0 view .LVU268
 1287              	.LBE726:
 1288              	.LBE731:
 1289              	.LBE736:
 1290              	.LBE744:
 421:../../libs/PoliTeKDSP/libs/libDaisy/src/hid/disp/display.h ****             {
 1291              		.loc 11 421 13 view .LVU269
 1292 00e6 0133     		adds	r3, r3, #1
 1293              	.LVL84:
 1294              	.LBB745:
 1295              	.LBB737:
 1296              	.LBB732:
 1297              	.LBB727:
 1298              	.LBB723:
 368:../../libs/PoliTeKDSP/libs/libDaisy/src/dev/oled_ssd130x.h ****     }
ARM GAS  C:\Users\skipi\AppData\Local\Temp\ccs8qXFk.s 			page 51


 1299              		.loc 12 368 42 view .LVU270
 1300 00e8 09EA0505 		and	r5, r9, r5
 1301              	.LBE723:
 1302              	.LBE727:
 1303              	.LBE732:
 1304              	.LBE737:
 1305              	.LBE745:
 421:../../libs/PoliTeKDSP/libs/libDaisy/src/hid/disp/display.h ****             {
 1306              		.loc 11 421 26 view .LVU271
 1307 00ec 0132     		adds	r2, r2, #1
 1308 00ee 0131     		adds	r1, r1, #1
 1309 00f0 9C42     		cmp	r4, r3
 1310              	.LBB746:
 1311              	.LBB738:
 1312              	.LBB733:
 1313              	.LBB728:
 1314              	.LBB724:
 368:../../libs/PoliTeKDSP/libs/libDaisy/src/dev/oled_ssd130x.h ****     }
 1315              		.loc 12 368 42 view .LVU272
 1316 00f2 02F8015C 		strb	r5, [r2, #-1]
 368:../../libs/PoliTeKDSP/libs/libDaisy/src/dev/oled_ssd130x.h ****     }
 1317              		.loc 12 368 42 view .LVU273
 1318              	.LBE724:
 1319              	.LBE728:
 1320              	.LBE733:
 1321              	.LBE738:
 1322              	.LBE746:
 421:../../libs/PoliTeKDSP/libs/libDaisy/src/hid/disp/display.h ****             {
 1323              		.loc 11 421 13 is_stmt 1 view .LVU274
 1324              	.LVL85:
 421:../../libs/PoliTeKDSP/libs/libDaisy/src/hid/disp/display.h ****             {
 1325              		.loc 11 421 26 view .LVU275
 1326 00f6 EAD1     		bne	.L94
 1327              	.LVL86:
 1328              	.L93:
 418:../../libs/PoliTeKDSP/libs/libDaisy/src/hid/disp/display.h ****         {
 1329              		.loc 11 418 9 view .LVU276
 418:../../libs/PoliTeKDSP/libs/libDaisy/src/hid/disp/display.h ****         {
 1330              		.loc 11 418 22 view .LVU277
 1331 00f8 5845     		cmp	r0, fp
 1332 00fa 0EF1010E 		add	lr, lr, #1
 1333 00fe C0D1     		bne	.L88
 1334              	.LVL87:
 1335              	.L87:
 1336              	.LBB747:
 1337              	.LBB748:
 173:../../libs/PoliTeKDSP/libs/libDaisy/src/hid/disp/display.h ****         currentY_ = (y >= Height()) ? Height() - 1 : y;
 1338              		.loc 11 173 33 is_stmt 0 view .LVU278
 1339 0100 D8F80030 		ldr	r3, [r8]
 1340              	.LBE748:
 1341              	.LBE747:
 439:../../libs/PoliTeKDSP/libs/libDaisy/src/hid/disp/display.h **** 
 1342              		.loc 11 439 18 view .LVU279
 1343 0104 5444     		add	r4, r4, r10
 1344 0106 2449     		ldr	r1, .L118
 1345              	.LBB754:
 1346              	.LBB749:
ARM GAS  C:\Users\skipi\AppData\Local\Temp\ccs8qXFk.s 			page 52


 173:../../libs/PoliTeKDSP/libs/libDaisy/src/hid/disp/display.h ****         currentY_ = (y >= Height()) ? Height() - 1 : y;
 1347              		.loc 11 173 33 view .LVU280
 1348 0108 DA68     		ldr	r2, [r3, #12]
 1349              	.LBE749:
 1350              	.LBE754:
 439:../../libs/PoliTeKDSP/libs/libDaisy/src/hid/disp/display.h **** 
 1351              		.loc 11 439 18 view .LVU281
 1352 010a A4B2     		uxth	r4, r4
 1353              	.LVL88:
 1354              	.LBB755:
 1355              	.LBI747:
 171:../../libs/PoliTeKDSP/libs/libDaisy/src/hid/disp/display.h ****     {
 1356              		.loc 11 171 10 is_stmt 1 view .LVU282
 1357              	.LBB750:
 173:../../libs/PoliTeKDSP/libs/libDaisy/src/hid/disp/display.h ****         currentY_ = (y >= Height()) ? Height() - 1 : y;
 1358              		.loc 11 173 9 view .LVU283
 1359 010c 8A42     		cmp	r2, r1
 1360 010e 2DD1     		bne	.L113
 173:../../libs/PoliTeKDSP/libs/libDaisy/src/hid/disp/display.h ****         currentY_ = (y >= Height()) ? Height() - 1 : y;
 1361              		.loc 11 173 33 is_stmt 0 view .LVU284
 1362 0110 8020     		movs	r0, #128
 1363              	.L95:
 173:../../libs/PoliTeKDSP/libs/libDaisy/src/hid/disp/display.h ****         currentY_ = (y >= Height()) ? Height() - 1 : y;
 1364              		.loc 11 173 19 view .LVU285
 1365 0112 8442     		cmp	r4, r0
 1366 0114 1CD2     		bcs	.L114
 1367              	.LVL89:
 1368              	.L96:
 174:../../libs/PoliTeKDSP/libs/libDaisy/src/hid/disp/display.h ****     }
 1369              		.loc 11 174 34 view .LVU286
 1370 0116 9B68     		ldr	r3, [r3, #8]
 1371 0118 204A     		ldr	r2, .L118+4
 173:../../libs/PoliTeKDSP/libs/libDaisy/src/hid/disp/display.h ****         currentY_ = (y >= Height()) ? Height() - 1 : y;
 1372              		.loc 11 173 19 view .LVU287
 1373 011a A8F80440 		strh	r4, [r8, #4]	@ movhi
 174:../../libs/PoliTeKDSP/libs/libDaisy/src/hid/disp/display.h ****     }
 1374              		.loc 11 174 9 is_stmt 1 view .LVU288
 1375 011e 9342     		cmp	r3, r2
 1376 0120 21D1     		bne	.L115
 174:../../libs/PoliTeKDSP/libs/libDaisy/src/hid/disp/display.h ****     }
 1377              		.loc 11 174 34 is_stmt 0 view .LVU289
 1378 0122 4020     		movs	r0, #64
 1379              	.L98:
 174:../../libs/PoliTeKDSP/libs/libDaisy/src/hid/disp/display.h ****     }
 1380              		.loc 11 174 19 view .LVU290
 1381 0124 019B     		ldr	r3, [sp, #4]
 1382 0126 8342     		cmp	r3, r0
 1383 0128 07D3     		bcc	.L99
 174:../../libs/PoliTeKDSP/libs/libDaisy/src/hid/disp/display.h ****     }
 1384              		.loc 11 174 46 view .LVU291
 1385 012a D8F80030 		ldr	r3, [r8]
 1386 012e 1B4A     		ldr	r2, .L118+4
 1387 0130 9B68     		ldr	r3, [r3, #8]
 1388 0132 9342     		cmp	r3, r2
 1389 0134 29D1     		bne	.L116
 1390 0136 3F23     		movs	r3, #63
 1391 0138 0193     		str	r3, [sp, #4]
ARM GAS  C:\Users\skipi\AppData\Local\Temp\ccs8qXFk.s 			page 53


 1392              	.LVL90:
 1393              	.L99:
 174:../../libs/PoliTeKDSP/libs/libDaisy/src/hid/disp/display.h ****     }
 1394              		.loc 11 174 19 view .LVU292
 1395 013a DDE90003 		ldrd	r0, r3, [sp]
 1396 013e A8F80630 		strh	r3, [r8, #6]	@ movhi
 1397              	.LVL91:
 174:../../libs/PoliTeKDSP/libs/libDaisy/src/hid/disp/display.h ****     }
 1398              		.loc 11 174 19 view .LVU293
 1399              	.LBE750:
 1400              	.LBE755:
 443:../../libs/PoliTeKDSP/libs/libDaisy/src/hid/disp/display.h **** 
 1401              		.loc 11 443 5 view .LVU294
 1402 0142 05B0     		add	sp, sp, #20
 1403              		.cfi_remember_state
 1404              		.cfi_def_cfa_offset 36
 1405              		@ sp needed
 1406 0144 BDE8F08F 		pop	{r4, r5, r6, r7, r8, r9, r10, fp, pc}
 1407              	.LVL92:
 1408              	.L83:
 1409              		.cfi_restore_state
 407:../../libs/PoliTeKDSP/libs/libDaisy/src/hid/disp/display.h **** 
 1410              		.loc 11 407 20 view .LVU295
 1411 0148 0020     		movs	r0, #0
 443:../../libs/PoliTeKDSP/libs/libDaisy/src/hid/disp/display.h **** 
 1412              		.loc 11 443 5 view .LVU296
 1413 014a 05B0     		add	sp, sp, #20
 1414              		.cfi_remember_state
 1415              		.cfi_def_cfa_offset 36
 1416              		@ sp needed
 1417 014c BDE8F08F 		pop	{r4, r5, r6, r7, r8, r9, r10, fp, pc}
 1418              	.LVL93:
 1419              	.L114:
 1420              		.cfi_restore_state
 1421              	.LBB756:
 1422              	.LBB751:
 173:../../libs/PoliTeKDSP/libs/libDaisy/src/hid/disp/display.h ****         currentY_ = (y >= Height()) ? Height() - 1 : y;
 1423              		.loc 11 173 44 view .LVU297
 1424 0150 DA68     		ldr	r2, [r3, #12]
 1425 0152 1149     		ldr	r1, .L118
 1426 0154 8A42     		cmp	r2, r1
 1427 0156 11D1     		bne	.L117
 1428 0158 7F24     		movs	r4, #127
 1429              	.LVL94:
 173:../../libs/PoliTeKDSP/libs/libDaisy/src/hid/disp/display.h ****         currentY_ = (y >= Height()) ? Height() - 1 : y;
 1430              		.loc 11 173 44 view .LVU298
 1431 015a DCE7     		b	.L96
 1432              	.LVL95:
 1433              	.L110:
 173:../../libs/PoliTeKDSP/libs/libDaisy/src/hid/disp/display.h ****         currentY_ = (y >= Height()) ? Height() - 1 : y;
 1434              		.loc 11 173 44 view .LVU299
 1435              	.LBE751:
 1436              	.LBE756:
 410:../../libs/PoliTeKDSP/libs/libDaisy/src/hid/disp/display.h ****            || Height() < (currentY_ + font.FontHeight))
 1437              		.loc 11 410 17 view .LVU300
 1438 015c 9847     		blx	r3
 1439              	.LVL96:
ARM GAS  C:\Users\skipi\AppData\Local\Temp\ccs8qXFk.s 			page 54


 410:../../libs/PoliTeKDSP/libs/libDaisy/src/hid/disp/display.h ****            || Height() < (currentY_ + font.FontHeight))
 1440              		.loc 11 410 17 view .LVU301
 1441 015e 6AE7     		b	.L82
 1442              	.L111:
 411:../../libs/PoliTeKDSP/libs/libDaisy/src/hid/disp/display.h ****         {
 1443              		.loc 11 411 21 discriminator 2 view .LVU302
 1444 0160 4046     		mov	r0, r8
 1445 0162 9847     		blx	r3
 1446              	.LVL97:
 1447 0164 75E7     		b	.L84
 1448              	.LVL98:
 1449              	.L115:
 1450              	.LBB757:
 1451              	.LBB752:
 174:../../libs/PoliTeKDSP/libs/libDaisy/src/hid/disp/display.h ****     }
 1452              		.loc 11 174 33 view .LVU303
 1453 0166 4046     		mov	r0, r8
 1454 0168 9847     		blx	r3
 1455              	.LVL99:
 1456 016a DBE7     		b	.L98
 1457              	.LVL100:
 1458              	.L113:
 173:../../libs/PoliTeKDSP/libs/libDaisy/src/hid/disp/display.h ****         currentY_ = (y >= Height()) ? Height() - 1 : y;
 1459              		.loc 11 173 32 view .LVU304
 1460 016c 4046     		mov	r0, r8
 1461 016e 9047     		blx	r2
 1462              	.LVL101:
 173:../../libs/PoliTeKDSP/libs/libDaisy/src/hid/disp/display.h ****         currentY_ = (y >= Height()) ? Height() - 1 : y;
 1463              		.loc 11 173 44 view .LVU305
 1464 0170 D8F80030 		ldr	r3, [r8]
 1465 0174 CDE7     		b	.L95
 1466              	.LVL102:
 1467              	.L85:
 173:../../libs/PoliTeKDSP/libs/libDaisy/src/hid/disp/display.h ****         currentY_ = (y >= Height()) ? Height() - 1 : y;
 1468              		.loc 11 173 44 view .LVU306
 1469              	.LBE752:
 1470              	.LBE757:
 439:../../libs/PoliTeKDSP/libs/libDaisy/src/hid/disp/display.h **** 
 1471              		.loc 11 439 19 view .LVU307
 1472 0176 B8F804A0 		ldrh	r10, [r8, #4]
 1473 017a C1E7     		b	.L87
 1474              	.LVL103:
 1475              	.L117:
 1476              	.LBB758:
 1477              	.LBB753:
 173:../../libs/PoliTeKDSP/libs/libDaisy/src/hid/disp/display.h ****         currentY_ = (y >= Height()) ? Height() - 1 : y;
 1478              		.loc 11 173 43 view .LVU308
 1479 017c 4046     		mov	r0, r8
 1480 017e 9047     		blx	r2
 1481              	.LVL104:
 173:../../libs/PoliTeKDSP/libs/libDaisy/src/hid/disp/display.h ****         currentY_ = (y >= Height()) ? Height() - 1 : y;
 1482              		.loc 11 173 19 view .LVU309
 1483 0180 0138     		subs	r0, r0, #1
 174:../../libs/PoliTeKDSP/libs/libDaisy/src/hid/disp/display.h ****     }
 1484              		.loc 11 174 34 view .LVU310
 1485 0182 D8F80030 		ldr	r3, [r8]
 173:../../libs/PoliTeKDSP/libs/libDaisy/src/hid/disp/display.h ****         currentY_ = (y >= Height()) ? Height() - 1 : y;
ARM GAS  C:\Users\skipi\AppData\Local\Temp\ccs8qXFk.s 			page 55


 1486              		.loc 11 173 19 view .LVU311
 1487 0186 84B2     		uxth	r4, r0
 1488              	.LVL105:
 173:../../libs/PoliTeKDSP/libs/libDaisy/src/hid/disp/display.h ****         currentY_ = (y >= Height()) ? Height() - 1 : y;
 1489              		.loc 11 173 19 view .LVU312
 1490 0188 C5E7     		b	.L96
 1491              	.L116:
 174:../../libs/PoliTeKDSP/libs/libDaisy/src/hid/disp/display.h ****     }
 1492              		.loc 11 174 45 view .LVU313
 1493 018a 4046     		mov	r0, r8
 1494 018c 9847     		blx	r3
 1495              	.LVL106:
 174:../../libs/PoliTeKDSP/libs/libDaisy/src/hid/disp/display.h ****     }
 1496              		.loc 11 174 19 view .LVU314
 1497 018e 0138     		subs	r0, r0, #1
 1498 0190 83B2     		uxth	r3, r0
 1499 0192 0193     		str	r3, [sp, #4]
 1500              	.LVL107:
 174:../../libs/PoliTeKDSP/libs/libDaisy/src/hid/disp/display.h ****     }
 1501              		.loc 11 174 19 view .LVU315
 1502 0194 D1E7     		b	.L99
 1503              	.L119:
 1504 0196 00BF     		.align	2
 1505              	.L118:
 1506 0198 00000000 		.word	_ZNK5daisy11OledDisplayINS_13SSD130xDriverILj128ELj64ENS_19SSD130xI2CTransportEEEE5WidthEv
 1507 019c 00000000 		.word	_ZNK5daisy11OledDisplayINS_13SSD130xDriverILj128ELj64ENS_19SSD130xI2CTransportEEEE6HeightEv
 1508              	.LBE753:
 1509              	.LBE758:
 1510              		.cfi_endproc
 1511              	.LFE2841:
 1513              		.section	.text._ZN5daisy25OneBitGraphicsDisplayImplINS_11OledDisplayINS_13SSD130xDriverILj128ELj64
 1514              		.align	1
 1515              		.p2align 2,,3
 1516              		.weak	_ZN5daisy25OneBitGraphicsDisplayImplINS_11OledDisplayINS_13SSD130xDriverILj128ELj64ENS_19SSD
 1517              		.syntax unified
 1518              		.thumb
 1519              		.thumb_func
 1520              		.fpu fpv5-d16
 1522              	_ZN5daisy25OneBitGraphicsDisplayImplINS_11OledDisplayINS_13SSD130xDriverILj128ELj64ENS_19SSD130xI2C
 1523              	.LVL108:
 1524              	.LFB2843:
 464:../../libs/PoliTeKDSP/libs/libDaisy/src/hid/disp/display.h **** 
 465:../../libs/PoliTeKDSP/libs/libDaisy/src/hid/disp/display.h ****     Rectangle WriteStringAligned(const char*    str,
 1525              		.loc 11 465 15 is_stmt 1 view -0
 1526              		.cfi_startproc
 1527              		@ args = 12, pretend = 0, frame = 32
 1528              		@ frame_needed = 0, uses_anonymous_args = 0
 1529              		.loc 11 465 15 is_stmt 0 view .LVU317
 1530 0000 2DE9F04F 		push	{r4, r5, r6, r7, r8, r9, r10, fp, lr}
 1531              		.cfi_def_cfa_offset 36
 1532              		.cfi_offset 4, -36
 1533              		.cfi_offset 5, -32
 1534              		.cfi_offset 6, -28
 1535              		.cfi_offset 7, -24
 1536              		.cfi_offset 8, -20
 1537              		.cfi_offset 9, -16
 1538              		.cfi_offset 10, -12
ARM GAS  C:\Users\skipi\AppData\Local\Temp\ccs8qXFk.s 			page 56


 1539              		.cfi_offset 11, -8
 1540              		.cfi_offset 14, -4
 1541 0004 89B0     		sub	sp, sp, #36
 1542              		.cfi_def_cfa_offset 72
 1543              		.loc 11 465 15 view .LVU318
 1544 0006 1D46     		mov	r5, r3
 1545 0008 8846     		mov	r8, r1
 1546              	.LVL109:
 1547              	.LBB897:
 1548              	.LBI897:
 466:../../libs/PoliTeKDSP/libs/libDaisy/src/hid/disp/display.h ****                                  const FontDef& font,
 467:../../libs/PoliTeKDSP/libs/libDaisy/src/hid/disp/display.h ****                                  Rectangle      boundingBox,
 468:../../libs/PoliTeKDSP/libs/libDaisy/src/hid/disp/display.h ****                                  Alignment      alignment,
 469:../../libs/PoliTeKDSP/libs/libDaisy/src/hid/disp/display.h ****                                  bool           on) override
 470:../../libs/PoliTeKDSP/libs/libDaisy/src/hid/disp/display.h ****     {
 471:../../libs/PoliTeKDSP/libs/libDaisy/src/hid/disp/display.h ****         const auto alignedRect
 472:../../libs/PoliTeKDSP/libs/libDaisy/src/hid/disp/display.h ****             = GetTextRect(str, font).AlignedWithin(boundingBox, alignment);
 473:../../libs/PoliTeKDSP/libs/libDaisy/src/hid/disp/display.h ****         SetCursor(alignedRect.GetX(), alignedRect.GetY());
 474:../../libs/PoliTeKDSP/libs/libDaisy/src/hid/disp/display.h ****         ((ChildType*)(this))->ChildType::WriteString(str, font, on);
 475:../../libs/PoliTeKDSP/libs/libDaisy/src/hid/disp/display.h ****         return alignedRect;
 476:../../libs/PoliTeKDSP/libs/libDaisy/src/hid/disp/display.h ****     }
 477:../../libs/PoliTeKDSP/libs/libDaisy/src/hid/disp/display.h **** 
 478:../../libs/PoliTeKDSP/libs/libDaisy/src/hid/disp/display.h ****   private:
 479:../../libs/PoliTeKDSP/libs/libDaisy/src/hid/disp/display.h ****     uint32_t strlen(const char* string)
 480:../../libs/PoliTeKDSP/libs/libDaisy/src/hid/disp/display.h ****     {
 481:../../libs/PoliTeKDSP/libs/libDaisy/src/hid/disp/display.h ****         uint32_t result = 0;
 482:../../libs/PoliTeKDSP/libs/libDaisy/src/hid/disp/display.h ****         while(*string++ != '\0')
 483:../../libs/PoliTeKDSP/libs/libDaisy/src/hid/disp/display.h ****             result++;
 484:../../libs/PoliTeKDSP/libs/libDaisy/src/hid/disp/display.h ****         return result;
 485:../../libs/PoliTeKDSP/libs/libDaisy/src/hid/disp/display.h ****     }
 486:../../libs/PoliTeKDSP/libs/libDaisy/src/hid/disp/display.h **** 
 487:../../libs/PoliTeKDSP/libs/libDaisy/src/hid/disp/display.h ****     Rectangle GetTextRect(const char* text, const FontDef& font)
 1549              		.loc 11 487 15 is_stmt 1 view .LVU319
 1550              	.LBB898:
 1551              	.LBB899:
 1552              	.LBI899:
 479:../../libs/PoliTeKDSP/libs/libDaisy/src/hid/disp/display.h ****     {
 1553              		.loc 11 479 14 view .LVU320
 1554              	.LBB900:
 482:../../libs/PoliTeKDSP/libs/libDaisy/src/hid/disp/display.h ****             result++;
 1555              		.loc 11 482 25 view .LVU321
 1556              	.LBE900:
 1557              	.LBE899:
 1558              	.LBE898:
 1559              	.LBE897:
 465:../../libs/PoliTeKDSP/libs/libDaisy/src/hid/disp/display.h ****                                  const FontDef& font,
 1560              		.loc 11 465 15 is_stmt 0 view .LVU322
 1561 000a 0690     		str	r0, [sp, #24]
 1562              	.LBB915:
 1563              	.LBB911:
 1564              	.LBB904:
 1565              	.LBB901:
 482:../../libs/PoliTeKDSP/libs/libDaisy/src/hid/disp/display.h ****             result++;
 1566              		.loc 11 482 25 view .LVU323
 1567 000c 1046     		mov	r0, r2
 1568              	.LVL110:
 482:../../libs/PoliTeKDSP/libs/libDaisy/src/hid/disp/display.h ****             result++;
ARM GAS  C:\Users\skipi\AppData\Local\Temp\ccs8qXFk.s 			page 57


 1569              		.loc 11 482 25 view .LVU324
 1570              	.LBE901:
 1571              	.LBE904:
 1572              	.LBE911:
 1573              	.LBE915:
 465:../../libs/PoliTeKDSP/libs/libDaisy/src/hid/disp/display.h ****                                  const FontDef& font,
 1574              		.loc 11 465 15 view .LVU325
 1575 000e 129C     		ldr	r4, [sp, #72]
 1576              	.LBB916:
 1577              	.LBB912:
 1578              	.LBB905:
 1579              	.LBB902:
 482:../../libs/PoliTeKDSP/libs/libDaisy/src/hid/disp/display.h ****             result++;
 1580              		.loc 11 482 25 view .LVU326
 1581 0010 10F8013B 		ldrb	r3, [r0], #1	@ zero_extendqisi2
 1582              	.LVL111:
 482:../../libs/PoliTeKDSP/libs/libDaisy/src/hid/disp/display.h ****             result++;
 1583              		.loc 11 482 25 view .LVU327
 1584              	.LBE902:
 1585              	.LBE905:
 1586              	.LBE912:
 1587              	.LBE916:
 465:../../libs/PoliTeKDSP/libs/libDaisy/src/hid/disp/display.h ****                                  const FontDef& font,
 1588              		.loc 11 465 15 view .LVU328
 1589 0014 1399     		ldr	r1, [sp, #76]
 1590              	.LVL112:
 465:../../libs/PoliTeKDSP/libs/libDaisy/src/hid/disp/display.h ****                                  const FontDef& font,
 1591              		.loc 11 465 15 view .LVU329
 1592 0016 9DF85060 		ldrb	r6, [sp, #80]	@ zero_extendqisi2
 1593 001a 0092     		str	r2, [sp]
 1594              	.LBB917:
 1595              	.LBB913:
 1596              	.LBB906:
 1597              	.LBB903:
 482:../../libs/PoliTeKDSP/libs/libDaisy/src/hid/disp/display.h ****             result++;
 1598              		.loc 11 482 25 view .LVU330
 1599 001c 33B1     		cbz	r3, .L121
 481:../../libs/PoliTeKDSP/libs/libDaisy/src/hid/disp/display.h ****         while(*string++ != '\0')
 1600              		.loc 11 481 18 view .LVU331
 1601 001e 0022     		movs	r2, #0
 1602              	.LVL113:
 1603              	.L122:
 482:../../libs/PoliTeKDSP/libs/libDaisy/src/hid/disp/display.h ****             result++;
 1604              		.loc 11 482 25 view .LVU332
 1605 0020 10F8013B 		ldrb	r3, [r0], #1	@ zero_extendqisi2
 1606              	.LVL114:
 483:../../libs/PoliTeKDSP/libs/libDaisy/src/hid/disp/display.h ****         return result;
 1607              		.loc 11 483 13 view .LVU333
 1608 0024 0132     		adds	r2, r2, #1
 1609              	.LVL115:
 482:../../libs/PoliTeKDSP/libs/libDaisy/src/hid/disp/display.h ****             result++;
 1610              		.loc 11 482 25 is_stmt 1 view .LVU334
 1611 0026 002B     		cmp	r3, #0
 1612 0028 FAD1     		bne	.L122
 1613              	.LBE903:
 1614              	.LBE906:
 488:../../libs/PoliTeKDSP/libs/libDaisy/src/hid/disp/display.h ****     {
ARM GAS  C:\Users\skipi\AppData\Local\Temp\ccs8qXFk.s 			page 58


 489:../../libs/PoliTeKDSP/libs/libDaisy/src/hid/disp/display.h ****         const auto numChars = strlen(text);
 490:../../libs/PoliTeKDSP/libs/libDaisy/src/hid/disp/display.h ****         return {int16_t(numChars * font.FontWidth), font.FontHeight};
 1615              		.loc 11 490 68 is_stmt 0 view .LVU335
 1616 002a 93B2     		uxth	r3, r2
 1617              	.LVL116:
 1618              	.L121:
 1619              		.loc 11 490 68 view .LVU336
 1620 002c 2A78     		ldrb	r2, [r5]	@ zero_extendqisi2
 1621              		.loc 11 490 58 view .LVU337
 1622 002e 6878     		ldrb	r0, [r5, #1]	@ zero_extendqisi2
 1623              		.loc 11 490 68 view .LVU338
 1624 0030 12FB03F3 		smulbb	r3, r2, r3
 1625 0034 02B2     		sxth	r2, r0
 1626              	.LVL117:
 1627              	.LBB907:
 1628              	.LBI907:
 1629              		.file 13 "../../libs/PoliTeKDSP/libs/libDaisy/src/hid/disp/graphics_common.h"
   1:../../libs/PoliTeKDSP/libs/libDaisy/src/hid/disp/graphics_common.h **** #pragma once
   2:../../libs/PoliTeKDSP/libs/libDaisy/src/hid/disp/graphics_common.h **** 
   3:../../libs/PoliTeKDSP/libs/libDaisy/src/hid/disp/graphics_common.h **** #include <cstdint>
   4:../../libs/PoliTeKDSP/libs/libDaisy/src/hid/disp/graphics_common.h **** 
   5:../../libs/PoliTeKDSP/libs/libDaisy/src/hid/disp/graphics_common.h **** namespace daisy
   6:../../libs/PoliTeKDSP/libs/libDaisy/src/hid/disp/graphics_common.h **** {
   7:../../libs/PoliTeKDSP/libs/libDaisy/src/hid/disp/graphics_common.h **** /** Justifications */
   8:../../libs/PoliTeKDSP/libs/libDaisy/src/hid/disp/graphics_common.h **** enum class Alignment
   9:../../libs/PoliTeKDSP/libs/libDaisy/src/hid/disp/graphics_common.h **** {
  10:../../libs/PoliTeKDSP/libs/libDaisy/src/hid/disp/graphics_common.h ****     centered,
  11:../../libs/PoliTeKDSP/libs/libDaisy/src/hid/disp/graphics_common.h ****     topLeft,
  12:../../libs/PoliTeKDSP/libs/libDaisy/src/hid/disp/graphics_common.h ****     topCentered,
  13:../../libs/PoliTeKDSP/libs/libDaisy/src/hid/disp/graphics_common.h ****     topRight,
  14:../../libs/PoliTeKDSP/libs/libDaisy/src/hid/disp/graphics_common.h ****     bottomLeft,
  15:../../libs/PoliTeKDSP/libs/libDaisy/src/hid/disp/graphics_common.h ****     bottomCentered,
  16:../../libs/PoliTeKDSP/libs/libDaisy/src/hid/disp/graphics_common.h ****     bottomRight,
  17:../../libs/PoliTeKDSP/libs/libDaisy/src/hid/disp/graphics_common.h ****     centeredLeft,
  18:../../libs/PoliTeKDSP/libs/libDaisy/src/hid/disp/graphics_common.h ****     centeredRight
  19:../../libs/PoliTeKDSP/libs/libDaisy/src/hid/disp/graphics_common.h **** };
  20:../../libs/PoliTeKDSP/libs/libDaisy/src/hid/disp/graphics_common.h **** 
  21:../../libs/PoliTeKDSP/libs/libDaisy/src/hid/disp/graphics_common.h **** class Rectangle
  22:../../libs/PoliTeKDSP/libs/libDaisy/src/hid/disp/graphics_common.h **** {
  23:../../libs/PoliTeKDSP/libs/libDaisy/src/hid/disp/graphics_common.h ****   public:
  24:../../libs/PoliTeKDSP/libs/libDaisy/src/hid/disp/graphics_common.h ****     Rectangle() : x_(0), y_(0), width_(0), height_(0) {}
  25:../../libs/PoliTeKDSP/libs/libDaisy/src/hid/disp/graphics_common.h **** 
  26:../../libs/PoliTeKDSP/libs/libDaisy/src/hid/disp/graphics_common.h ****     Rectangle(int16_t width, int16_t height)
 1630              		.loc 13 26 5 is_stmt 1 view .LVU339
 1631              	.LBB908:
 1632              	.LBI908:
  27:../../libs/PoliTeKDSP/libs/libDaisy/src/hid/disp/graphics_common.h ****     : x_(0), y_(0), width_(max(0, width)), height_(max(0, height))
  28:../../libs/PoliTeKDSP/libs/libDaisy/src/hid/disp/graphics_common.h ****     {
  29:../../libs/PoliTeKDSP/libs/libDaisy/src/hid/disp/graphics_common.h ****     }
  30:../../libs/PoliTeKDSP/libs/libDaisy/src/hid/disp/graphics_common.h **** 
  31:../../libs/PoliTeKDSP/libs/libDaisy/src/hid/disp/graphics_common.h ****     Rectangle(int16_t x, int16_t y, int16_t width, int16_t height)
  32:../../libs/PoliTeKDSP/libs/libDaisy/src/hid/disp/graphics_common.h ****     : x_(x), y_(y), width_(max(0, width)), height_(max(0, height))
  33:../../libs/PoliTeKDSP/libs/libDaisy/src/hid/disp/graphics_common.h ****     {
  34:../../libs/PoliTeKDSP/libs/libDaisy/src/hid/disp/graphics_common.h ****     }
  35:../../libs/PoliTeKDSP/libs/libDaisy/src/hid/disp/graphics_common.h **** 
  36:../../libs/PoliTeKDSP/libs/libDaisy/src/hid/disp/graphics_common.h ****     Rectangle(const Rectangle& other) { *this = other; }
  37:../../libs/PoliTeKDSP/libs/libDaisy/src/hid/disp/graphics_common.h **** 
ARM GAS  C:\Users\skipi\AppData\Local\Temp\ccs8qXFk.s 			page 59


  38:../../libs/PoliTeKDSP/libs/libDaisy/src/hid/disp/graphics_common.h ****     Rectangle& operator=(const Rectangle& other)
  39:../../libs/PoliTeKDSP/libs/libDaisy/src/hid/disp/graphics_common.h ****     {
  40:../../libs/PoliTeKDSP/libs/libDaisy/src/hid/disp/graphics_common.h ****         x_      = other.x_;
  41:../../libs/PoliTeKDSP/libs/libDaisy/src/hid/disp/graphics_common.h ****         y_      = other.y_;
  42:../../libs/PoliTeKDSP/libs/libDaisy/src/hid/disp/graphics_common.h ****         width_  = other.width_;
  43:../../libs/PoliTeKDSP/libs/libDaisy/src/hid/disp/graphics_common.h ****         height_ = other.height_;
  44:../../libs/PoliTeKDSP/libs/libDaisy/src/hid/disp/graphics_common.h ****         return *this;
  45:../../libs/PoliTeKDSP/libs/libDaisy/src/hid/disp/graphics_common.h ****     }
  46:../../libs/PoliTeKDSP/libs/libDaisy/src/hid/disp/graphics_common.h **** 
  47:../../libs/PoliTeKDSP/libs/libDaisy/src/hid/disp/graphics_common.h ****     bool operator==(const Rectangle& other) const
  48:../../libs/PoliTeKDSP/libs/libDaisy/src/hid/disp/graphics_common.h ****     {
  49:../../libs/PoliTeKDSP/libs/libDaisy/src/hid/disp/graphics_common.h ****         return (x_ == other.x_) && (y_ == other.y_) && (width_ == other.width_)
  50:../../libs/PoliTeKDSP/libs/libDaisy/src/hid/disp/graphics_common.h ****                && (height_ == other.height_);
  51:../../libs/PoliTeKDSP/libs/libDaisy/src/hid/disp/graphics_common.h ****     }
  52:../../libs/PoliTeKDSP/libs/libDaisy/src/hid/disp/graphics_common.h ****     bool operator!=(const Rectangle& other) const { return !(*this == other); }
  53:../../libs/PoliTeKDSP/libs/libDaisy/src/hid/disp/graphics_common.h **** 
  54:../../libs/PoliTeKDSP/libs/libDaisy/src/hid/disp/graphics_common.h ****     bool IsEmpty() const { return (width_ <= 0) || (height_ <= 0); }
  55:../../libs/PoliTeKDSP/libs/libDaisy/src/hid/disp/graphics_common.h **** 
  56:../../libs/PoliTeKDSP/libs/libDaisy/src/hid/disp/graphics_common.h ****     int16_t GetX() const { return x_; }
  57:../../libs/PoliTeKDSP/libs/libDaisy/src/hid/disp/graphics_common.h ****     int16_t GetY() const { return y_; }
  58:../../libs/PoliTeKDSP/libs/libDaisy/src/hid/disp/graphics_common.h ****     int16_t GetWidth() const { return width_; }
  59:../../libs/PoliTeKDSP/libs/libDaisy/src/hid/disp/graphics_common.h ****     int16_t GetHeight() const { return height_; }
  60:../../libs/PoliTeKDSP/libs/libDaisy/src/hid/disp/graphics_common.h ****     int16_t GetRight() const { return x_ + width_; }
  61:../../libs/PoliTeKDSP/libs/libDaisy/src/hid/disp/graphics_common.h ****     int16_t GetBottom() const { return y_ + height_; }
  62:../../libs/PoliTeKDSP/libs/libDaisy/src/hid/disp/graphics_common.h ****     int16_t GetCenterX() const { return x_ + width_ / 2; }
  63:../../libs/PoliTeKDSP/libs/libDaisy/src/hid/disp/graphics_common.h ****     int16_t GetCenterY() const { return y_ + height_ / 2; }
  64:../../libs/PoliTeKDSP/libs/libDaisy/src/hid/disp/graphics_common.h **** 
  65:../../libs/PoliTeKDSP/libs/libDaisy/src/hid/disp/graphics_common.h ****     Rectangle WithX(int16_t x) const { return {x, y_, width_, height_}; }
  66:../../libs/PoliTeKDSP/libs/libDaisy/src/hid/disp/graphics_common.h ****     Rectangle WithY(int16_t y) const { return {x_, y, width_, height_}; }
  67:../../libs/PoliTeKDSP/libs/libDaisy/src/hid/disp/graphics_common.h ****     Rectangle WithWidth(int16_t width) const
  68:../../libs/PoliTeKDSP/libs/libDaisy/src/hid/disp/graphics_common.h ****     {
  69:../../libs/PoliTeKDSP/libs/libDaisy/src/hid/disp/graphics_common.h ****         return {x_, y_, width, height_};
  70:../../libs/PoliTeKDSP/libs/libDaisy/src/hid/disp/graphics_common.h ****     }
  71:../../libs/PoliTeKDSP/libs/libDaisy/src/hid/disp/graphics_common.h ****     Rectangle WithHeight(int16_t height) const
  72:../../libs/PoliTeKDSP/libs/libDaisy/src/hid/disp/graphics_common.h ****     {
  73:../../libs/PoliTeKDSP/libs/libDaisy/src/hid/disp/graphics_common.h ****         return {x_, y_, width_, height};
  74:../../libs/PoliTeKDSP/libs/libDaisy/src/hid/disp/graphics_common.h ****     }
  75:../../libs/PoliTeKDSP/libs/libDaisy/src/hid/disp/graphics_common.h ****     Rectangle WithSize(int16_t width, int16_t height) const
  76:../../libs/PoliTeKDSP/libs/libDaisy/src/hid/disp/graphics_common.h ****     {
  77:../../libs/PoliTeKDSP/libs/libDaisy/src/hid/disp/graphics_common.h ****         return {x_, y_, width, height};
  78:../../libs/PoliTeKDSP/libs/libDaisy/src/hid/disp/graphics_common.h ****     }
  79:../../libs/PoliTeKDSP/libs/libDaisy/src/hid/disp/graphics_common.h ****     Rectangle WithWidthKeepingCenter(int16_t width) const
  80:../../libs/PoliTeKDSP/libs/libDaisy/src/hid/disp/graphics_common.h ****     {
  81:../../libs/PoliTeKDSP/libs/libDaisy/src/hid/disp/graphics_common.h ****         return Rectangle(x_, y_, width, height_)
  82:../../libs/PoliTeKDSP/libs/libDaisy/src/hid/disp/graphics_common.h ****             .WithCenter(GetCenterX(), GetCenterY());
  83:../../libs/PoliTeKDSP/libs/libDaisy/src/hid/disp/graphics_common.h ****     }
  84:../../libs/PoliTeKDSP/libs/libDaisy/src/hid/disp/graphics_common.h ****     Rectangle WithHeightKeepingCenter(int16_t height) const
  85:../../libs/PoliTeKDSP/libs/libDaisy/src/hid/disp/graphics_common.h ****     {
  86:../../libs/PoliTeKDSP/libs/libDaisy/src/hid/disp/graphics_common.h ****         return Rectangle(x_, y_, width_, height)
  87:../../libs/PoliTeKDSP/libs/libDaisy/src/hid/disp/graphics_common.h ****             .WithCenter(GetCenterX(), GetCenterY());
  88:../../libs/PoliTeKDSP/libs/libDaisy/src/hid/disp/graphics_common.h ****     }
  89:../../libs/PoliTeKDSP/libs/libDaisy/src/hid/disp/graphics_common.h ****     Rectangle WithSizeKeepingCenter(int16_t width, int16_t height) const
  90:../../libs/PoliTeKDSP/libs/libDaisy/src/hid/disp/graphics_common.h ****     {
  91:../../libs/PoliTeKDSP/libs/libDaisy/src/hid/disp/graphics_common.h ****         return Rectangle(x_, y_, width, height)
  92:../../libs/PoliTeKDSP/libs/libDaisy/src/hid/disp/graphics_common.h ****             .WithCenter(GetCenterX(), GetCenterY());
  93:../../libs/PoliTeKDSP/libs/libDaisy/src/hid/disp/graphics_common.h ****     }
  94:../../libs/PoliTeKDSP/libs/libDaisy/src/hid/disp/graphics_common.h **** 
ARM GAS  C:\Users\skipi\AppData\Local\Temp\ccs8qXFk.s 			page 60


  95:../../libs/PoliTeKDSP/libs/libDaisy/src/hid/disp/graphics_common.h ****     Rectangle Reduced(int16_t sizeToReduce) const
  96:../../libs/PoliTeKDSP/libs/libDaisy/src/hid/disp/graphics_common.h ****     {
  97:../../libs/PoliTeKDSP/libs/libDaisy/src/hid/disp/graphics_common.h ****         return {int16_t(x_ + sizeToReduce),
  98:../../libs/PoliTeKDSP/libs/libDaisy/src/hid/disp/graphics_common.h ****                 int16_t(y_ + sizeToReduce),
  99:../../libs/PoliTeKDSP/libs/libDaisy/src/hid/disp/graphics_common.h ****                 int16_t(width_ - 2 * sizeToReduce),
 100:../../libs/PoliTeKDSP/libs/libDaisy/src/hid/disp/graphics_common.h ****                 int16_t(height_ - 2 * sizeToReduce)};
 101:../../libs/PoliTeKDSP/libs/libDaisy/src/hid/disp/graphics_common.h ****     }
 102:../../libs/PoliTeKDSP/libs/libDaisy/src/hid/disp/graphics_common.h ****     Rectangle Reduced(int16_t xToReduce, int16_t yToReduce) const
 103:../../libs/PoliTeKDSP/libs/libDaisy/src/hid/disp/graphics_common.h ****     {
 104:../../libs/PoliTeKDSP/libs/libDaisy/src/hid/disp/graphics_common.h ****         return {int16_t(x_ + xToReduce),
 105:../../libs/PoliTeKDSP/libs/libDaisy/src/hid/disp/graphics_common.h ****                 int16_t(y_ + yToReduce),
 106:../../libs/PoliTeKDSP/libs/libDaisy/src/hid/disp/graphics_common.h ****                 int16_t(width_ - 2 * xToReduce),
 107:../../libs/PoliTeKDSP/libs/libDaisy/src/hid/disp/graphics_common.h ****                 int16_t(height_ - 2 * yToReduce)};
 108:../../libs/PoliTeKDSP/libs/libDaisy/src/hid/disp/graphics_common.h ****     }
 109:../../libs/PoliTeKDSP/libs/libDaisy/src/hid/disp/graphics_common.h **** 
 110:../../libs/PoliTeKDSP/libs/libDaisy/src/hid/disp/graphics_common.h ****     Rectangle Translated(int16_t x, int16_t y) const
 111:../../libs/PoliTeKDSP/libs/libDaisy/src/hid/disp/graphics_common.h ****     {
 112:../../libs/PoliTeKDSP/libs/libDaisy/src/hid/disp/graphics_common.h ****         return {int16_t(x_ + x), int16_t(y_ + y), width_, height_};
 113:../../libs/PoliTeKDSP/libs/libDaisy/src/hid/disp/graphics_common.h ****     }
 114:../../libs/PoliTeKDSP/libs/libDaisy/src/hid/disp/graphics_common.h **** 
 115:../../libs/PoliTeKDSP/libs/libDaisy/src/hid/disp/graphics_common.h ****     Rectangle WithLeft(int16_t left) const
 116:../../libs/PoliTeKDSP/libs/libDaisy/src/hid/disp/graphics_common.h ****     {
 117:../../libs/PoliTeKDSP/libs/libDaisy/src/hid/disp/graphics_common.h ****         const auto newWidth = int16_t((x_ - left) + width_);
 118:../../libs/PoliTeKDSP/libs/libDaisy/src/hid/disp/graphics_common.h ****         return {left, y_, newWidth, height_};
 119:../../libs/PoliTeKDSP/libs/libDaisy/src/hid/disp/graphics_common.h ****     }
 120:../../libs/PoliTeKDSP/libs/libDaisy/src/hid/disp/graphics_common.h **** 
 121:../../libs/PoliTeKDSP/libs/libDaisy/src/hid/disp/graphics_common.h ****     Rectangle WithRight(int16_t right) const
 122:../../libs/PoliTeKDSP/libs/libDaisy/src/hid/disp/graphics_common.h ****     {
 123:../../libs/PoliTeKDSP/libs/libDaisy/src/hid/disp/graphics_common.h ****         const auto newWidth = int16_t(right - x_);
 124:../../libs/PoliTeKDSP/libs/libDaisy/src/hid/disp/graphics_common.h ****         return {x_, y_, newWidth, height_};
 125:../../libs/PoliTeKDSP/libs/libDaisy/src/hid/disp/graphics_common.h ****     }
 126:../../libs/PoliTeKDSP/libs/libDaisy/src/hid/disp/graphics_common.h **** 
 127:../../libs/PoliTeKDSP/libs/libDaisy/src/hid/disp/graphics_common.h ****     Rectangle WithTop(int16_t top) const
 128:../../libs/PoliTeKDSP/libs/libDaisy/src/hid/disp/graphics_common.h ****     {
 129:../../libs/PoliTeKDSP/libs/libDaisy/src/hid/disp/graphics_common.h ****         const auto newHeight = int16_t((y_ - top) + height_);
 130:../../libs/PoliTeKDSP/libs/libDaisy/src/hid/disp/graphics_common.h ****         return {x_, top, width_, newHeight};
 131:../../libs/PoliTeKDSP/libs/libDaisy/src/hid/disp/graphics_common.h ****     }
 132:../../libs/PoliTeKDSP/libs/libDaisy/src/hid/disp/graphics_common.h **** 
 133:../../libs/PoliTeKDSP/libs/libDaisy/src/hid/disp/graphics_common.h ****     Rectangle WithBottom(int16_t bottom) const
 134:../../libs/PoliTeKDSP/libs/libDaisy/src/hid/disp/graphics_common.h ****     {
 135:../../libs/PoliTeKDSP/libs/libDaisy/src/hid/disp/graphics_common.h ****         const auto newHeight = int16_t(bottom - y_);
 136:../../libs/PoliTeKDSP/libs/libDaisy/src/hid/disp/graphics_common.h ****         return {x_, y_, width_, newHeight};
 137:../../libs/PoliTeKDSP/libs/libDaisy/src/hid/disp/graphics_common.h ****     }
 138:../../libs/PoliTeKDSP/libs/libDaisy/src/hid/disp/graphics_common.h **** 
 139:../../libs/PoliTeKDSP/libs/libDaisy/src/hid/disp/graphics_common.h ****     Rectangle WithTrimmedLeft(int16_t pxToTrim) const
 140:../../libs/PoliTeKDSP/libs/libDaisy/src/hid/disp/graphics_common.h ****     {
 141:../../libs/PoliTeKDSP/libs/libDaisy/src/hid/disp/graphics_common.h ****         return {
 142:../../libs/PoliTeKDSP/libs/libDaisy/src/hid/disp/graphics_common.h ****             int16_t(x_ + pxToTrim), y_, int16_t(width_ - pxToTrim), height_};
 143:../../libs/PoliTeKDSP/libs/libDaisy/src/hid/disp/graphics_common.h ****     }
 144:../../libs/PoliTeKDSP/libs/libDaisy/src/hid/disp/graphics_common.h **** 
 145:../../libs/PoliTeKDSP/libs/libDaisy/src/hid/disp/graphics_common.h ****     Rectangle WithTrimmedRight(int16_t pxToTrim) const
 146:../../libs/PoliTeKDSP/libs/libDaisy/src/hid/disp/graphics_common.h ****     {
 147:../../libs/PoliTeKDSP/libs/libDaisy/src/hid/disp/graphics_common.h ****         return {x_, y_, int16_t(width_ - pxToTrim), height_};
 148:../../libs/PoliTeKDSP/libs/libDaisy/src/hid/disp/graphics_common.h ****     }
 149:../../libs/PoliTeKDSP/libs/libDaisy/src/hid/disp/graphics_common.h **** 
 150:../../libs/PoliTeKDSP/libs/libDaisy/src/hid/disp/graphics_common.h ****     Rectangle WithTrimmedTop(int16_t pxToTrim) const
 151:../../libs/PoliTeKDSP/libs/libDaisy/src/hid/disp/graphics_common.h ****     {
ARM GAS  C:\Users\skipi\AppData\Local\Temp\ccs8qXFk.s 			page 61


 152:../../libs/PoliTeKDSP/libs/libDaisy/src/hid/disp/graphics_common.h ****         return {
 153:../../libs/PoliTeKDSP/libs/libDaisy/src/hid/disp/graphics_common.h ****             x_, int16_t(y_ + pxToTrim), width_, int16_t(height_ - pxToTrim)};
 154:../../libs/PoliTeKDSP/libs/libDaisy/src/hid/disp/graphics_common.h ****     }
 155:../../libs/PoliTeKDSP/libs/libDaisy/src/hid/disp/graphics_common.h **** 
 156:../../libs/PoliTeKDSP/libs/libDaisy/src/hid/disp/graphics_common.h ****     Rectangle WithTrimmedBottom(int16_t pxToTrim) const
 157:../../libs/PoliTeKDSP/libs/libDaisy/src/hid/disp/graphics_common.h ****     {
 158:../../libs/PoliTeKDSP/libs/libDaisy/src/hid/disp/graphics_common.h ****         return {x_, y_, width_, int16_t(height_ - pxToTrim)};
 159:../../libs/PoliTeKDSP/libs/libDaisy/src/hid/disp/graphics_common.h ****     }
 160:../../libs/PoliTeKDSP/libs/libDaisy/src/hid/disp/graphics_common.h **** 
 161:../../libs/PoliTeKDSP/libs/libDaisy/src/hid/disp/graphics_common.h ****     Rectangle WithCenterX(int16_t centerX) const
 162:../../libs/PoliTeKDSP/libs/libDaisy/src/hid/disp/graphics_common.h ****     {
 163:../../libs/PoliTeKDSP/libs/libDaisy/src/hid/disp/graphics_common.h ****         return {int16_t(x_ + centerX - GetCenterX()), y_, width_, height_};
 164:../../libs/PoliTeKDSP/libs/libDaisy/src/hid/disp/graphics_common.h ****     }
 165:../../libs/PoliTeKDSP/libs/libDaisy/src/hid/disp/graphics_common.h **** 
 166:../../libs/PoliTeKDSP/libs/libDaisy/src/hid/disp/graphics_common.h ****     Rectangle WithCenterY(int16_t centerY) const
 167:../../libs/PoliTeKDSP/libs/libDaisy/src/hid/disp/graphics_common.h ****     {
 168:../../libs/PoliTeKDSP/libs/libDaisy/src/hid/disp/graphics_common.h ****         return {x_, int16_t(y_ + centerY - GetCenterY()), width_, height_};
 169:../../libs/PoliTeKDSP/libs/libDaisy/src/hid/disp/graphics_common.h ****     }
 170:../../libs/PoliTeKDSP/libs/libDaisy/src/hid/disp/graphics_common.h **** 
 171:../../libs/PoliTeKDSP/libs/libDaisy/src/hid/disp/graphics_common.h ****     Rectangle WithCenter(int16_t centerX, int16_t centerY) const
 172:../../libs/PoliTeKDSP/libs/libDaisy/src/hid/disp/graphics_common.h ****     {
 173:../../libs/PoliTeKDSP/libs/libDaisy/src/hid/disp/graphics_common.h ****         return {int16_t(x_ + centerX - GetCenterX()),
 174:../../libs/PoliTeKDSP/libs/libDaisy/src/hid/disp/graphics_common.h ****                 int16_t(y_ + centerY - GetCenterY()),
 175:../../libs/PoliTeKDSP/libs/libDaisy/src/hid/disp/graphics_common.h ****                 width_,
 176:../../libs/PoliTeKDSP/libs/libDaisy/src/hid/disp/graphics_common.h ****                 height_};
 177:../../libs/PoliTeKDSP/libs/libDaisy/src/hid/disp/graphics_common.h ****     }
 178:../../libs/PoliTeKDSP/libs/libDaisy/src/hid/disp/graphics_common.h **** 
 179:../../libs/PoliTeKDSP/libs/libDaisy/src/hid/disp/graphics_common.h ****     Rectangle RemoveFromLeft(int16_t pxToRemove)
 180:../../libs/PoliTeKDSP/libs/libDaisy/src/hid/disp/graphics_common.h ****     {
 181:../../libs/PoliTeKDSP/libs/libDaisy/src/hid/disp/graphics_common.h ****         const auto result = this->WithWidth(min(pxToRemove, width_));
 182:../../libs/PoliTeKDSP/libs/libDaisy/src/hid/disp/graphics_common.h ****         x_ += min(pxToRemove, width_);
 183:../../libs/PoliTeKDSP/libs/libDaisy/src/hid/disp/graphics_common.h ****         width_ = max(int16_t(width_ - pxToRemove), 0);
 184:../../libs/PoliTeKDSP/libs/libDaisy/src/hid/disp/graphics_common.h ****         return result;
 185:../../libs/PoliTeKDSP/libs/libDaisy/src/hid/disp/graphics_common.h ****     }
 186:../../libs/PoliTeKDSP/libs/libDaisy/src/hid/disp/graphics_common.h **** 
 187:../../libs/PoliTeKDSP/libs/libDaisy/src/hid/disp/graphics_common.h ****     Rectangle RemoveFromRight(int16_t pxToRemove)
 188:../../libs/PoliTeKDSP/libs/libDaisy/src/hid/disp/graphics_common.h ****     {
 189:../../libs/PoliTeKDSP/libs/libDaisy/src/hid/disp/graphics_common.h ****         const auto canRemove = min(pxToRemove, width_);
 190:../../libs/PoliTeKDSP/libs/libDaisy/src/hid/disp/graphics_common.h ****         width_ -= canRemove;
 191:../../libs/PoliTeKDSP/libs/libDaisy/src/hid/disp/graphics_common.h ****         return {int16_t(x_ + width_), y_, canRemove, height_};
 192:../../libs/PoliTeKDSP/libs/libDaisy/src/hid/disp/graphics_common.h ****     }
 193:../../libs/PoliTeKDSP/libs/libDaisy/src/hid/disp/graphics_common.h **** 
 194:../../libs/PoliTeKDSP/libs/libDaisy/src/hid/disp/graphics_common.h ****     Rectangle RemoveFromTop(int16_t pxToRemove)
 195:../../libs/PoliTeKDSP/libs/libDaisy/src/hid/disp/graphics_common.h ****     {
 196:../../libs/PoliTeKDSP/libs/libDaisy/src/hid/disp/graphics_common.h ****         const auto result = this->WithHeight(min(pxToRemove, height_));
 197:../../libs/PoliTeKDSP/libs/libDaisy/src/hid/disp/graphics_common.h ****         y_ += min(pxToRemove, height_);
 198:../../libs/PoliTeKDSP/libs/libDaisy/src/hid/disp/graphics_common.h ****         height_ = max(height_ - pxToRemove, 0);
 199:../../libs/PoliTeKDSP/libs/libDaisy/src/hid/disp/graphics_common.h ****         return result;
 200:../../libs/PoliTeKDSP/libs/libDaisy/src/hid/disp/graphics_common.h ****     }
 201:../../libs/PoliTeKDSP/libs/libDaisy/src/hid/disp/graphics_common.h **** 
 202:../../libs/PoliTeKDSP/libs/libDaisy/src/hid/disp/graphics_common.h ****     Rectangle RemoveFromBottom(int16_t pxToRemove)
 203:../../libs/PoliTeKDSP/libs/libDaisy/src/hid/disp/graphics_common.h ****     {
 204:../../libs/PoliTeKDSP/libs/libDaisy/src/hid/disp/graphics_common.h ****         const auto canRemove = min(pxToRemove, height_);
 205:../../libs/PoliTeKDSP/libs/libDaisy/src/hid/disp/graphics_common.h ****         height_ -= canRemove;
 206:../../libs/PoliTeKDSP/libs/libDaisy/src/hid/disp/graphics_common.h ****         return {x_, int16_t(y_ + height_), width_, canRemove};
 207:../../libs/PoliTeKDSP/libs/libDaisy/src/hid/disp/graphics_common.h ****     }
 208:../../libs/PoliTeKDSP/libs/libDaisy/src/hid/disp/graphics_common.h **** 
ARM GAS  C:\Users\skipi\AppData\Local\Temp\ccs8qXFk.s 			page 62


 209:../../libs/PoliTeKDSP/libs/libDaisy/src/hid/disp/graphics_common.h ****     Rectangle AlignedWithin(const Rectangle& other, Alignment alignment) const
 210:../../libs/PoliTeKDSP/libs/libDaisy/src/hid/disp/graphics_common.h ****     {
 211:../../libs/PoliTeKDSP/libs/libDaisy/src/hid/disp/graphics_common.h ****         switch(alignment)
 212:../../libs/PoliTeKDSP/libs/libDaisy/src/hid/disp/graphics_common.h ****         {
 213:../../libs/PoliTeKDSP/libs/libDaisy/src/hid/disp/graphics_common.h ****             case Alignment::topLeft:
 214:../../libs/PoliTeKDSP/libs/libDaisy/src/hid/disp/graphics_common.h ****                 return {other.x_, other.y_, width_, height_};
 215:../../libs/PoliTeKDSP/libs/libDaisy/src/hid/disp/graphics_common.h ****             case Alignment::topRight:
 216:../../libs/PoliTeKDSP/libs/libDaisy/src/hid/disp/graphics_common.h ****                 return {int16_t(other.GetRight() - width_),
 217:../../libs/PoliTeKDSP/libs/libDaisy/src/hid/disp/graphics_common.h ****                         other.y_,
 218:../../libs/PoliTeKDSP/libs/libDaisy/src/hid/disp/graphics_common.h ****                         width_,
 219:../../libs/PoliTeKDSP/libs/libDaisy/src/hid/disp/graphics_common.h ****                         height_};
 220:../../libs/PoliTeKDSP/libs/libDaisy/src/hid/disp/graphics_common.h ****             case Alignment::topCentered:
 221:../../libs/PoliTeKDSP/libs/libDaisy/src/hid/disp/graphics_common.h ****                 return {int16_t(x_ + (other.GetCenterX() - GetCenterX())),
 222:../../libs/PoliTeKDSP/libs/libDaisy/src/hid/disp/graphics_common.h ****                         other.y_,
 223:../../libs/PoliTeKDSP/libs/libDaisy/src/hid/disp/graphics_common.h ****                         width_,
 224:../../libs/PoliTeKDSP/libs/libDaisy/src/hid/disp/graphics_common.h ****                         height_};
 225:../../libs/PoliTeKDSP/libs/libDaisy/src/hid/disp/graphics_common.h ****             case Alignment::bottomLeft:
 226:../../libs/PoliTeKDSP/libs/libDaisy/src/hid/disp/graphics_common.h ****                 return {other.x_,
 227:../../libs/PoliTeKDSP/libs/libDaisy/src/hid/disp/graphics_common.h ****                         int16_t(other.GetBottom() - height_),
 228:../../libs/PoliTeKDSP/libs/libDaisy/src/hid/disp/graphics_common.h ****                         width_,
 229:../../libs/PoliTeKDSP/libs/libDaisy/src/hid/disp/graphics_common.h ****                         height_};
 230:../../libs/PoliTeKDSP/libs/libDaisy/src/hid/disp/graphics_common.h ****             case Alignment::bottomRight:
 231:../../libs/PoliTeKDSP/libs/libDaisy/src/hid/disp/graphics_common.h ****                 return {int16_t(other.GetRight() - width_),
 232:../../libs/PoliTeKDSP/libs/libDaisy/src/hid/disp/graphics_common.h ****                         int16_t(other.GetBottom() - height_),
 233:../../libs/PoliTeKDSP/libs/libDaisy/src/hid/disp/graphics_common.h ****                         width_,
 234:../../libs/PoliTeKDSP/libs/libDaisy/src/hid/disp/graphics_common.h ****                         height_};
 235:../../libs/PoliTeKDSP/libs/libDaisy/src/hid/disp/graphics_common.h ****             case Alignment::bottomCentered:
 236:../../libs/PoliTeKDSP/libs/libDaisy/src/hid/disp/graphics_common.h ****                 return {int16_t(x_ + (other.GetCenterX() - GetCenterX())),
 237:../../libs/PoliTeKDSP/libs/libDaisy/src/hid/disp/graphics_common.h ****                         int16_t(other.GetBottom() - height_),
 238:../../libs/PoliTeKDSP/libs/libDaisy/src/hid/disp/graphics_common.h ****                         width_,
 239:../../libs/PoliTeKDSP/libs/libDaisy/src/hid/disp/graphics_common.h ****                         height_};
 240:../../libs/PoliTeKDSP/libs/libDaisy/src/hid/disp/graphics_common.h ****             case Alignment::centeredLeft:
 241:../../libs/PoliTeKDSP/libs/libDaisy/src/hid/disp/graphics_common.h ****                 return {other.x_,
 242:../../libs/PoliTeKDSP/libs/libDaisy/src/hid/disp/graphics_common.h ****                         int16_t(y_ + (other.GetCenterY() - GetCenterY())),
 243:../../libs/PoliTeKDSP/libs/libDaisy/src/hid/disp/graphics_common.h ****                         width_,
 244:../../libs/PoliTeKDSP/libs/libDaisy/src/hid/disp/graphics_common.h ****                         height_};
 245:../../libs/PoliTeKDSP/libs/libDaisy/src/hid/disp/graphics_common.h ****             case Alignment::centeredRight:
 246:../../libs/PoliTeKDSP/libs/libDaisy/src/hid/disp/graphics_common.h ****                 return {int16_t(other.GetRight() - width_),
 247:../../libs/PoliTeKDSP/libs/libDaisy/src/hid/disp/graphics_common.h ****                         int16_t(y_ + (other.GetCenterY() - GetCenterY())),
 248:../../libs/PoliTeKDSP/libs/libDaisy/src/hid/disp/graphics_common.h ****                         width_,
 249:../../libs/PoliTeKDSP/libs/libDaisy/src/hid/disp/graphics_common.h ****                         height_};
 250:../../libs/PoliTeKDSP/libs/libDaisy/src/hid/disp/graphics_common.h ****             case Alignment::centered:
 251:../../libs/PoliTeKDSP/libs/libDaisy/src/hid/disp/graphics_common.h ****                 return {int16_t(x_ + (other.GetCenterX() - GetCenterX())),
 252:../../libs/PoliTeKDSP/libs/libDaisy/src/hid/disp/graphics_common.h ****                         int16_t(y_ + (other.GetCenterY() - GetCenterY())),
 253:../../libs/PoliTeKDSP/libs/libDaisy/src/hid/disp/graphics_common.h ****                         width_,
 254:../../libs/PoliTeKDSP/libs/libDaisy/src/hid/disp/graphics_common.h ****                         height_};
 255:../../libs/PoliTeKDSP/libs/libDaisy/src/hid/disp/graphics_common.h ****             default: return {};
 256:../../libs/PoliTeKDSP/libs/libDaisy/src/hid/disp/graphics_common.h ****         }
 257:../../libs/PoliTeKDSP/libs/libDaisy/src/hid/disp/graphics_common.h ****     }
 258:../../libs/PoliTeKDSP/libs/libDaisy/src/hid/disp/graphics_common.h **** 
 259:../../libs/PoliTeKDSP/libs/libDaisy/src/hid/disp/graphics_common.h ****   private:
 260:../../libs/PoliTeKDSP/libs/libDaisy/src/hid/disp/graphics_common.h ****     int16_t x_, y_, width_, height_;
 261:../../libs/PoliTeKDSP/libs/libDaisy/src/hid/disp/graphics_common.h ****     int16_t max(int16_t a, int16_t b) { return (a > b) ? a : b; }
 1633              		.loc 13 261 13 view .LVU340
 1634              	.LBE908:
 1635              	.LBE907:
 1636              	.LBE913:
ARM GAS  C:\Users\skipi\AppData\Local\Temp\ccs8qXFk.s 			page 63


 1637              	.LBE917:
 1638              		.loc 13 261 41 view .LVU341
 1639              	.LBB918:
 1640              	.LBB914:
 1641              	.LBB910:
 1642              	.LBB909:
 1643              	.LBI909:
 1644              		.loc 13 261 13 view .LVU342
 1645              	.LBE909:
 1646              	.LBE910:
 1647              	.LBE914:
 1648              	.LBE918:
 1649              		.loc 13 261 41 view .LVU343
 1650              	.LBB919:
 1651              	.LBI919:
 209:../../libs/PoliTeKDSP/libs/libDaisy/src/hid/disp/graphics_common.h ****     {
 1652              		.loc 13 209 15 view .LVU344
 1653              	.LBB920:
 211:../../libs/PoliTeKDSP/libs/libDaisy/src/hid/disp/graphics_common.h ****         {
 1654              		.loc 13 211 9 view .LVU345
 1655 0036 1BB2     		sxth	r3, r3
 1656 0038 23EAE373 		bic	r3, r3, r3, asr #31
 1657 003c 0829     		cmp	r1, #8
 1658 003e 00F2A981 		bhi	.L123
 1659 0042 DFE811F0 		tbh	[pc, r1, lsl #1]
 1660              	.L125:
 1661 0046 0201     		.2byte	(.L133-.L125)/2
 1662 0048 1401     		.2byte	(.L132-.L125)/2
 1663 004a 2001     		.2byte	(.L131-.L125)/2
 1664 004c 3401     		.2byte	(.L130-.L125)/2
 1665 004e 4201     		.2byte	(.L129-.L125)/2
 1666 0050 5001     		.2byte	(.L128-.L125)/2
 1667 0052 6701     		.2byte	(.L127-.L125)/2
 1668 0054 7101     		.2byte	(.L126-.L125)/2
 1669 0056 0900     		.2byte	(.L124-.L125)/2
 1670              		.p2align 1
 1671              	.L124:
 245:../../libs/PoliTeKDSP/libs/libDaisy/src/hid/disp/graphics_common.h ****                 return {int16_t(other.GetRight() - width_),
 1672              		.loc 13 245 13 view .LVU346
 246:../../libs/PoliTeKDSP/libs/libDaisy/src/hid/disp/graphics_common.h ****                         int16_t(y_ + (other.GetCenterY() - GetCenterY())),
 1673              		.loc 13 246 17 view .LVU347
 1674              	.LVL118:
 1675              	.LBB921:
 1676              	.LBI921:
  60:../../libs/PoliTeKDSP/libs/libDaisy/src/hid/disp/graphics_common.h ****     int16_t GetBottom() const { return y_ + height_; }
 1677              		.loc 13 60 13 view .LVU348
 1678              	.LBB922:
  60:../../libs/PoliTeKDSP/libs/libDaisy/src/hid/disp/graphics_common.h ****     int16_t GetBottom() const { return y_ + height_; }
 1679              		.loc 13 60 32 view .LVU349
  60:../../libs/PoliTeKDSP/libs/libDaisy/src/hid/disp/graphics_common.h ****     int16_t GetBottom() const { return y_ + height_; }
 1680              		.loc 13 60 42 is_stmt 0 view .LVU350
 1681 0058 A188     		ldrh	r1, [r4, #4]
 1682              	.LVL119:
  60:../../libs/PoliTeKDSP/libs/libDaisy/src/hid/disp/graphics_common.h ****     int16_t GetBottom() const { return y_ + height_; }
 1683              		.loc 13 60 42 view .LVU351
 1684 005a 2788     		ldrh	r7, [r4]
 1685 005c 0F44     		add	r7, r7, r1
ARM GAS  C:\Users\skipi\AppData\Local\Temp\ccs8qXFk.s 			page 64


 1686              	.LBE922:
 1687              	.LBE921:
 1688              	.LBB923:
 1689              	.LBB924:
  63:../../libs/PoliTeKDSP/libs/libDaisy/src/hid/disp/graphics_common.h **** 
 1690              		.loc 13 63 54 view .LVU352
 1691 005e B4F90610 		ldrsh	r1, [r4, #6]
 1692              	.LBE924:
 1693              	.LBE923:
 246:../../libs/PoliTeKDSP/libs/libDaisy/src/hid/disp/graphics_common.h ****                         int16_t(y_ + (other.GetCenterY() - GetCenterY())),
 1694              		.loc 13 246 50 view .LVU353
 1695 0062 FF1A     		subs	r7, r7, r3
 1696              	.LBB928:
 1697              	.LBB925:
  63:../../libs/PoliTeKDSP/libs/libDaisy/src/hid/disp/graphics_common.h **** 
 1698              		.loc 13 63 54 view .LVU354
 1699 0064 0029     		cmp	r1, #0
 1700              	.LBE925:
 1701              	.LBE928:
 246:../../libs/PoliTeKDSP/libs/libDaisy/src/hid/disp/graphics_common.h ****                         int16_t(y_ + (other.GetCenterY() - GetCenterY())),
 1702              		.loc 13 246 50 view .LVU355
 1703 0066 BFB2     		uxth	r7, r7
 1704              	.LVL120:
 1705              	.LBB929:
 1706              	.LBI923:
  63:../../libs/PoliTeKDSP/libs/libDaisy/src/hid/disp/graphics_common.h **** 
 1707              		.loc 13 63 13 is_stmt 1 view .LVU356
 1708              	.LBB926:
  63:../../libs/PoliTeKDSP/libs/libDaisy/src/hid/disp/graphics_common.h **** 
 1709              		.loc 13 63 34 view .LVU357
  63:../../libs/PoliTeKDSP/libs/libDaisy/src/hid/disp/graphics_common.h **** 
 1710              		.loc 13 63 34 is_stmt 0 view .LVU358
 1711              	.LBE926:
 1712              	.LBE929:
 1713              	.LBB930:
 1714              	.LBI930:
  63:../../libs/PoliTeKDSP/libs/libDaisy/src/hid/disp/graphics_common.h **** 
 1715              		.loc 13 63 13 is_stmt 1 view .LVU359
 1716              	.LBB931:
  63:../../libs/PoliTeKDSP/libs/libDaisy/src/hid/disp/graphics_common.h **** 
 1717              		.loc 13 63 34 view .LVU360
  63:../../libs/PoliTeKDSP/libs/libDaisy/src/hid/disp/graphics_common.h **** 
 1718              		.loc 13 63 34 is_stmt 0 view .LVU361
 1719              	.LBE931:
 1720              	.LBE930:
 1721              	.LBB932:
 1722              	.LBB927:
  63:../../libs/PoliTeKDSP/libs/libDaisy/src/hid/disp/graphics_common.h **** 
 1723              		.loc 13 63 54 view .LVU362
 1724 0068 C0F2FF80 		blt	.L196
 1725              	.L140:
  63:../../libs/PoliTeKDSP/libs/libDaisy/src/hid/disp/graphics_common.h **** 
 1726              		.loc 13 63 54 view .LVU363
 1727              	.LBE927:
 1728              	.LBE932:
 1729              	.LBB933:
 1730              	.LBB934:
ARM GAS  C:\Users\skipi\AppData\Local\Temp\ccs8qXFk.s 			page 65


  63:../../libs/PoliTeKDSP/libs/libDaisy/src/hid/disp/graphics_common.h **** 
 1731              		.loc 13 63 44 view .LVU364
 1732 006c B4F802C0 		ldrh	ip, [r4, #2]
 1733              	.LBE934:
 1734              	.LBE933:
 1735              	.LBB940:
 1736              	.LBB941:
 1737              	.LBB942:
  32:../../libs/PoliTeKDSP/libs/libDaisy/src/hid/disp/graphics_common.h ****     {
 1738              		.loc 13 32 66 view .LVU365
 1739 0070 0698     		ldr	r0, [sp, #24]
 1740              	.LBE942:
 1741              	.LBE941:
 1742              	.LBE940:
 1743              	.LBB953:
 1744              	.LBB935:
  63:../../libs/PoliTeKDSP/libs/libDaisy/src/hid/disp/graphics_common.h **** 
 1745              		.loc 13 63 44 view .LVU366
 1746 0072 0CEB6104 		add	r4, ip, r1, asr #1
 1747              	.LVL121:
  63:../../libs/PoliTeKDSP/libs/libDaisy/src/hid/disp/graphics_common.h **** 
 1748              		.loc 13 63 44 view .LVU367
 1749              	.LBE935:
 1750              	.LBE953:
 1751              	.LBB954:
 1752              	.LBB949:
 1753              	.LBB945:
  32:../../libs/PoliTeKDSP/libs/libDaisy/src/hid/disp/graphics_common.h ****     {
 1754              		.loc 13 32 66 view .LVU368
 1755 0076 C280     		strh	r2, [r0, #6]	@ movhi
 1756              	.LBE945:
 1757              	.LBE949:
 1758              	.LBE954:
 252:../../libs/PoliTeKDSP/libs/libDaisy/src/hid/disp/graphics_common.h ****                         width_,
 1759              		.loc 13 252 58 view .LVU369
 1760 0078 A4EB5202 		sub	r2, r4, r2, lsr #1
 1761              	.LBB955:
 1762              	.LBB950:
 1763              	.LBB946:
  32:../../libs/PoliTeKDSP/libs/libDaisy/src/hid/disp/graphics_common.h ****     {
 1764              		.loc 13 32 66 view .LVU370
 1765 007c 8380     		strh	r3, [r0, #4]	@ movhi
 1766 007e 0780     		strh	r7, [r0]	@ movhi
 1767              	.LBE946:
 1768              	.LBE950:
 1769              	.LBE955:
 252:../../libs/PoliTeKDSP/libs/libDaisy/src/hid/disp/graphics_common.h ****                         width_,
 1770              		.loc 13 252 58 view .LVU371
 1771 0080 94B2     		uxth	r4, r2
 1772              	.LVL122:
 1773              	.LBB956:
 1774              	.LBI940:
  31:../../libs/PoliTeKDSP/libs/libDaisy/src/hid/disp/graphics_common.h ****     : x_(x), y_(y), width_(max(0, width)), height_(max(0, height))
 1775              		.loc 13 31 5 is_stmt 1 view .LVU372
 1776              	.LBB951:
 1777              	.LBB947:
  32:../../libs/PoliTeKDSP/libs/libDaisy/src/hid/disp/graphics_common.h ****     {
ARM GAS  C:\Users\skipi\AppData\Local\Temp\ccs8qXFk.s 			page 66


 1778              		.loc 13 32 66 is_stmt 0 view .LVU373
 1779 0082 4480     		strh	r4, [r0, #2]	@ movhi
 1780              	.LVL123:
 1781              	.LBB943:
 1782              	.LBI943:
 1783              		.loc 13 261 13 is_stmt 1 view .LVU374
 1784              	.LBE943:
 1785              	.LBE947:
 1786              	.LBE951:
 1787              	.LBE956:
 1788              	.LBE920:
 1789              	.LBE919:
 1790              		.loc 13 261 41 view .LVU375
 1791              	.LBB1143:
 1792              	.LBB1121:
 1793              	.LBB957:
 1794              	.LBB952:
 1795              	.LBB948:
 1796              	.LBB944:
 1797              	.LBI944:
 1798              		.loc 13 261 13 view .LVU376
 1799              	.LBE944:
 1800              	.LBE948:
 1801              	.LBE952:
 1802              	.LBE957:
 1803              	.LBE1121:
 1804              	.LBE1143:
 1805              		.loc 13 261 41 view .LVU377
 1806              	.L134:
  56:../../libs/PoliTeKDSP/libs/libDaisy/src/hid/disp/graphics_common.h ****     int16_t GetY() const { return y_; }
 1807              		.loc 13 56 28 view .LVU378
  57:../../libs/PoliTeKDSP/libs/libDaisy/src/hid/disp/graphics_common.h ****     int16_t GetWidth() const { return width_; }
 1808              		.loc 13 57 28 view .LVU379
 1809              	.LBB1144:
 1810              	.LBI1144:
 171:../../libs/PoliTeKDSP/libs/libDaisy/src/hid/disp/display.h ****     {
 1811              		.loc 11 171 10 view .LVU380
 1812              	.LBB1145:
 173:../../libs/PoliTeKDSP/libs/libDaisy/src/hid/disp/display.h ****         currentY_ = (y >= Height()) ? Height() - 1 : y;
 1813              		.loc 11 173 9 view .LVU381
 1814 0084 A64A     		ldr	r2, .L206
 173:../../libs/PoliTeKDSP/libs/libDaisy/src/hid/disp/display.h ****         currentY_ = (y >= Height()) ? Height() - 1 : y;
 1815              		.loc 11 173 33 is_stmt 0 view .LVU382
 1816 0086 D8F80030 		ldr	r3, [r8]
 1817 008a 1146     		mov	r1, r2
 1818 008c 0192     		str	r2, [sp, #4]
 1819 008e DA68     		ldr	r2, [r3, #12]
 1820 0090 8A42     		cmp	r2, r1
 1821 0092 40F08D81 		bne	.L142
 1822 0096 8020     		movs	r0, #128
 1823              	.LVL124:
 1824              	.L143:
 173:../../libs/PoliTeKDSP/libs/libDaisy/src/hid/disp/display.h ****         currentY_ = (y >= Height()) ? Height() - 1 : y;
 1825              		.loc 11 173 19 view .LVU383
 1826 0098 B842     		cmp	r0, r7
 1827 009a 05D8     		bhi	.L144
 173:../../libs/PoliTeKDSP/libs/libDaisy/src/hid/disp/display.h ****         currentY_ = (y >= Height()) ? Height() - 1 : y;
ARM GAS  C:\Users\skipi\AppData\Local\Temp\ccs8qXFk.s 			page 67


 1828              		.loc 11 173 44 view .LVU384
 1829 009c DA68     		ldr	r2, [r3, #12]
 1830 009e 0199     		ldr	r1, [sp, #4]
 1831 00a0 8A42     		cmp	r2, r1
 1832 00a2 40F09A81 		bne	.L197
 1833 00a6 7F27     		movs	r7, #127
 1834              	.L144:
 1835 00a8 9E4A     		ldr	r2, .L206+4
 174:../../libs/PoliTeKDSP/libs/libDaisy/src/hid/disp/display.h ****     }
 1836              		.loc 11 174 34 view .LVU385
 1837 00aa 9B68     		ldr	r3, [r3, #8]
 173:../../libs/PoliTeKDSP/libs/libDaisy/src/hid/disp/display.h ****         currentY_ = (y >= Height()) ? Height() - 1 : y;
 1838              		.loc 11 173 19 view .LVU386
 1839 00ac A8F80470 		strh	r7, [r8, #4]	@ movhi
 174:../../libs/PoliTeKDSP/libs/libDaisy/src/hid/disp/display.h ****     }
 1840              		.loc 11 174 9 is_stmt 1 view .LVU387
 1841 00b0 9342     		cmp	r3, r2
 1842 00b2 0392     		str	r2, [sp, #12]
 1843 00b4 40F08981 		bne	.L174
 174:../../libs/PoliTeKDSP/libs/libDaisy/src/hid/disp/display.h ****     }
 1844              		.loc 11 174 34 is_stmt 0 view .LVU388
 1845 00b8 4020     		movs	r0, #64
 1846              	.L146:
 174:../../libs/PoliTeKDSP/libs/libDaisy/src/hid/disp/display.h ****     }
 1847              		.loc 11 174 19 view .LVU389
 1848 00ba A042     		cmp	r0, r4
 1849 00bc 07D8     		bhi	.L148
 174:../../libs/PoliTeKDSP/libs/libDaisy/src/hid/disp/display.h ****     }
 1850              		.loc 11 174 46 view .LVU390
 1851 00be D8F80030 		ldr	r3, [r8]
 1852 00c2 039A     		ldr	r2, [sp, #12]
 1853 00c4 9B68     		ldr	r3, [r3, #8]
 1854 00c6 9342     		cmp	r3, r2
 1855 00c8 40F08281 		bne	.L198
 1856 00cc 3F24     		movs	r4, #63
 1857              	.L148:
 174:../../libs/PoliTeKDSP/libs/libDaisy/src/hid/disp/display.h ****     }
 1858              		.loc 11 174 46 view .LVU391
 1859              	.LBE1145:
 1860              	.LBE1144:
 1861              	.LBB1149:
 1862              	.LBB1150:
 448:../../libs/PoliTeKDSP/libs/libDaisy/src/hid/disp/display.h ****         {
 1863              		.loc 11 448 9 view .LVU392
 1864 00ce 009B     		ldr	r3, [sp]
 1865              	.LBE1150:
 1866              	.LBE1149:
 1867              	.LBB1198:
 1868              	.LBB1146:
 174:../../libs/PoliTeKDSP/libs/libDaisy/src/hid/disp/display.h ****     }
 1869              		.loc 11 174 19 view .LVU393
 1870 00d0 A8F80640 		strh	r4, [r8, #6]	@ movhi
 1871              	.LVL125:
 174:../../libs/PoliTeKDSP/libs/libDaisy/src/hid/disp/display.h ****     }
 1872              		.loc 11 174 19 view .LVU394
 1873              	.LBE1146:
 1874              	.LBE1198:
ARM GAS  C:\Users\skipi\AppData\Local\Temp\ccs8qXFk.s 			page 68


 1875              	.LBB1199:
 1876              	.LBB1195:
 448:../../libs/PoliTeKDSP/libs/libDaisy/src/hid/disp/display.h ****         {
 1877              		.loc 11 448 9 view .LVU395
 1878 00d4 93F800B0 		ldrb	fp, [r3]	@ zero_extendqisi2
 1879 00d8 6B78     		ldrb	r3, [r5, #1]	@ zero_extendqisi2
 1880              	.LVL126:
 448:../../libs/PoliTeKDSP/libs/libDaisy/src/hid/disp/display.h ****         {
 1881              		.loc 11 448 9 view .LVU396
 1882 00da 2C78     		ldrb	r4, [r5]	@ zero_extendqisi2
 1883              	.LVL127:
 448:../../libs/PoliTeKDSP/libs/libDaisy/src/hid/disp/display.h ****         {
 1884              		.loc 11 448 9 view .LVU397
 1885 00dc 0493     		str	r3, [sp, #16]
 1886              	.LVL128:
 448:../../libs/PoliTeKDSP/libs/libDaisy/src/hid/disp/display.h ****         {
 1887              		.loc 11 448 9 view .LVU398
 1888 00de 6B68     		ldr	r3, [r5, #4]
 1889 00e0 0793     		str	r3, [sp, #28]
 1890              	.LVL129:
 448:../../libs/PoliTeKDSP/libs/libDaisy/src/hid/disp/display.h ****         {
 1891              		.loc 11 448 9 view .LVU399
 1892              	.LBE1195:
 1893              	.LBI1149:
 445:../../libs/PoliTeKDSP/libs/libDaisy/src/hid/disp/display.h ****     {
 1894              		.loc 11 445 10 is_stmt 1 view .LVU400
 1895              	.LBB1196:
 448:../../libs/PoliTeKDSP/libs/libDaisy/src/hid/disp/display.h ****         {
 1896              		.loc 11 448 9 view .LVU401
 1897 00e2 BBF1000F 		cmp	fp, #0
 1898 00e6 00F0AC80 		beq	.L120
 1899              	.LVL130:
 1900              	.L150:
 1901              	.LBB1151:
 1902              	.LBI1151:
 401:../../libs/PoliTeKDSP/libs/libDaisy/src/hid/disp/display.h ****     {
 1903              		.loc 11 401 10 view .LVU402
 1904              	.LBB1152:
 406:../../libs/PoliTeKDSP/libs/libDaisy/src/hid/disp/display.h ****             return 0;
 1905              		.loc 11 406 20 is_stmt 0 view .LVU403
 1906 00ea ABF12005 		sub	r5, fp, #32
 406:../../libs/PoliTeKDSP/libs/libDaisy/src/hid/disp/display.h ****             return 0;
 1907              		.loc 11 406 9 view .LVU404
 1908 00ee EBB2     		uxtb	r3, r5
 1909 00f0 5E2B     		cmp	r3, #94
 1910 00f2 00F22E81 		bhi	.L154
 410:../../libs/PoliTeKDSP/libs/libDaisy/src/hid/disp/display.h ****            || Height() < (currentY_ + font.FontHeight))
 1911              		.loc 11 410 17 view .LVU405
 1912 00f6 D8F80030 		ldr	r3, [r8]
 1913 00fa 019A     		ldr	r2, [sp, #4]
 1914 00fc DB68     		ldr	r3, [r3, #12]
 1915 00fe 9342     		cmp	r3, r2
 1916 0100 40F02A81 		bne	.L199
 1917 0104 8020     		movs	r0, #128
 1918              	.L153:
 410:../../libs/PoliTeKDSP/libs/libDaisy/src/hid/disp/display.h ****            || Height() < (currentY_ + font.FontHeight))
 1919              		.loc 11 410 23 view .LVU406
ARM GAS  C:\Users\skipi\AppData\Local\Temp\ccs8qXFk.s 			page 69


 1920 0106 B8F80430 		ldrh	r3, [r8, #4]
 410:../../libs/PoliTeKDSP/libs/libDaisy/src/hid/disp/display.h ****            || Height() < (currentY_ + font.FontHeight))
 1921              		.loc 11 410 33 view .LVU407
 1922 010a 2344     		add	r3, r3, r4
 411:../../libs/PoliTeKDSP/libs/libDaisy/src/hid/disp/display.h ****         {
 1923              		.loc 11 411 12 view .LVU408
 1924 010c 9842     		cmp	r0, r3
 1925 010e C0F22081 		blt	.L154
 411:../../libs/PoliTeKDSP/libs/libDaisy/src/hid/disp/display.h ****         {
 1926              		.loc 11 411 21 view .LVU409
 1927 0112 D8F80030 		ldr	r3, [r8]
 1928 0116 039A     		ldr	r2, [sp, #12]
 1929 0118 9B68     		ldr	r3, [r3, #8]
 1930 011a 9342     		cmp	r3, r2
 1931 011c 40F01F81 		bne	.L200
 1932 0120 4020     		movs	r0, #64
 1933              	.L155:
 411:../../libs/PoliTeKDSP/libs/libDaisy/src/hid/disp/display.h ****         {
 1934              		.loc 11 411 27 view .LVU410
 1935 0122 B8F80610 		ldrh	r1, [r8, #6]
 411:../../libs/PoliTeKDSP/libs/libDaisy/src/hid/disp/display.h ****         {
 1936              		.loc 11 411 37 view .LVU411
 1937 0126 049A     		ldr	r2, [sp, #16]
 411:../../libs/PoliTeKDSP/libs/libDaisy/src/hid/disp/display.h ****         {
 1938              		.loc 11 411 27 view .LVU412
 1939 0128 0291     		str	r1, [sp, #8]
 411:../../libs/PoliTeKDSP/libs/libDaisy/src/hid/disp/display.h ****         {
 1940              		.loc 11 411 37 view .LVU413
 1941 012a 8B18     		adds	r3, r1, r2
 411:../../libs/PoliTeKDSP/libs/libDaisy/src/hid/disp/display.h ****         {
 1942              		.loc 11 411 12 view .LVU414
 1943 012c 9842     		cmp	r0, r3
 1944 012e C0F21081 		blt	.L154
 1945              	.LVL131:
 418:../../libs/PoliTeKDSP/libs/libDaisy/src/hid/disp/display.h ****         {
 1946              		.loc 11 418 22 is_stmt 1 view .LVU415
 1947 0132 002A     		cmp	r2, #0
 1948 0134 00F01E81 		beq	.L156
 420:../../libs/PoliTeKDSP/libs/libDaisy/src/hid/disp/display.h ****             for(j = 0; j < font.FontWidth; j++)
 1949              		.loc 11 420 37 is_stmt 0 view .LVU416
 1950 0138 02FB05F5 		mul	r5, r2, r5
 1951 013c 6FF0004E 		mvn	lr, #-2147483648
 1952 0140 079B     		ldr	r3, [sp, #28]
 1953 0142 AE44     		add	lr, lr, r5
 1954 0144 1544     		add	r5, r5, r2
 1955 0146 CDF814B0 		str	fp, [sp, #20]
 1956 014a 03EB4E0E 		add	lr, r3, lr, lsl #1
 1957 014e 023B     		subs	r3, r3, #2
 439:../../libs/PoliTeKDSP/libs/libDaisy/src/hid/disp/display.h **** 
 1958              		.loc 11 439 19 view .LVU417
 1959 0150 B8F804A0 		ldrh	r10, [r8, #4]
 1960 0154 03EB4503 		add	r3, r3, r5, lsl #1
 1961 0158 0D46     		mov	r5, r1
 1962 015a 9B46     		mov	fp, r3
 1963              	.LVL132:
 1964              	.L159:
 420:../../libs/PoliTeKDSP/libs/libDaisy/src/hid/disp/display.h ****             for(j = 0; j < font.FontWidth; j++)
ARM GAS  C:\Users\skipi\AppData\Local\Temp\ccs8qXFk.s 			page 70


 1965              		.loc 11 420 15 view .LVU418
 1966 015c 3EF8027F 		ldrh	r7, [lr, #2]!
 1967              	.LVL133:
 421:../../libs/PoliTeKDSP/libs/libDaisy/src/hid/disp/display.h ****             {
 1968              		.loc 11 421 26 is_stmt 1 view .LVU419
 1969 0160 A4B3     		cbz	r4, .L164
 1970              	.LBB1153:
 1971              	.LBB1154:
 1972              	.LBB1155:
 1973              	.LBB1156:
 1974              	.LBB1157:
 368:../../libs/PoliTeKDSP/libs/libDaisy/src/dev/oled_ssd130x.h ****     }
 1975              		.loc 12 368 55 is_stmt 0 view .LVU420
 1976 0162 05F00703 		and	r3, r5, #7
 368:../../libs/PoliTeKDSP/libs/libDaisy/src/dev/oled_ssd130x.h ****     }
 1977              		.loc 12 368 49 view .LVU421
 1978 0166 4FF0010C 		mov	ip, #1
 368:../../libs/PoliTeKDSP/libs/libDaisy/src/dev/oled_ssd130x.h ****     }
 1979              		.loc 12 368 28 view .LVU422
 1980 016a EA08     		lsrs	r2, r5, #3
 1981 016c 5146     		mov	r1, r10
 368:../../libs/PoliTeKDSP/libs/libDaisy/src/dev/oled_ssd130x.h ****     }
 1982              		.loc 12 368 49 view .LVU423
 1983 016e 0CFA03FC 		lsl	ip, ip, r3
 1984 0172 0AF11003 		add	r3, r10, #16
 368:../../libs/PoliTeKDSP/libs/libDaisy/src/dev/oled_ssd130x.h ****     }
 1985              		.loc 12 368 42 view .LVU424
 1986 0176 4FFA8CFC 		sxtb	ip, ip
 1987 017a 03EBC212 		add	r2, r3, r2, lsl #7
 1988              	.LBE1157:
 1989              	.LBE1156:
 1990              	.LBE1155:
 1991              	.LBE1154:
 1992              	.LBE1153:
 421:../../libs/PoliTeKDSP/libs/libDaisy/src/hid/disp/display.h ****             {
 1993              		.loc 11 421 19 view .LVU425
 1994 017e 0023     		movs	r3, #0
 1995              	.LBB1175:
 1996              	.LBB1170:
 1997              	.LBB1165:
 1998              	.LBB1161:
 1999              	.LBB1158:
 368:../../libs/PoliTeKDSP/libs/libDaisy/src/dev/oled_ssd130x.h ****     }
 2000              		.loc 12 368 42 view .LVU426
 2001 0180 6FEA0C09 		mvn	r9, ip
 2002 0184 4244     		add	r2, r2, r8
 2003 0186 0DE0     		b	.L165
 2004              	.LVL134:
 2005              	.L201:
 368:../../libs/PoliTeKDSP/libs/libDaisy/src/dev/oled_ssd130x.h ****     }
 2006              		.loc 12 368 42 view .LVU427
 2007              	.LBE1158:
 2008              	.LBE1161:
 2009              	.LBE1165:
 2010              	.LBE1170:
 2011              	.LBE1175:
 2012              	.LBB1176:
ARM GAS  C:\Users\skipi\AppData\Local\Temp\ccs8qXFk.s 			page 71


 2013              	.LBI1176:
  42:../../libs/PoliTeKDSP/libs/libDaisy/src/hid/disp/oled_display.h ****     {
 2014              		.loc 10 42 10 is_stmt 1 view .LVU428
 2015              	.LBB1177:
 2016              	.LBI1177:
 361:../../libs/PoliTeKDSP/libs/libDaisy/src/dev/oled_ssd130x.h ****     {
 2017              		.loc 12 361 10 view .LVU429
 2018              	.LBB1178:
 363:../../libs/PoliTeKDSP/libs/libDaisy/src/dev/oled_ssd130x.h ****             return;
 2019              		.loc 12 363 9 is_stmt 0 view .LVU430
 2020 0188 7F29     		cmp	r1, #127
 2021 018a 06D8     		bhi	.L161
 2022 018c 3F2D     		cmp	r5, #63
 2023 018e 04D8     		bhi	.L161
 366:../../libs/PoliTeKDSP/libs/libDaisy/src/dev/oled_ssd130x.h ****         else
 2024              		.loc 12 366 42 view .LVU431
 2025 0190 1078     		ldrb	r0, [r2]	@ zero_extendqisi2
 365:../../libs/PoliTeKDSP/libs/libDaisy/src/dev/oled_ssd130x.h ****             buffer_[x + (y / 8) * width] |= (1 << (y % 8));
 2026              		.loc 12 365 9 view .LVU432
 2027 0192 96B1     		cbz	r6, .L163
 2028              	.L195:
 365:../../libs/PoliTeKDSP/libs/libDaisy/src/dev/oled_ssd130x.h ****             buffer_[x + (y / 8) * width] |= (1 << (y % 8));
 2029              		.loc 12 365 9 view .LVU433
 2030              	.LBE1178:
 2031              	.LBE1177:
 2032              	.LBE1176:
 2033              	.LBB1179:
 2034              	.LBB1171:
 2035              	.LBB1166:
 366:../../libs/PoliTeKDSP/libs/libDaisy/src/dev/oled_ssd130x.h ****         else
 2036              		.loc 12 366 42 view .LVU434
 2037 0194 4CEA0000 		orr	r0, ip, r0
 2038 0198 1070     		strb	r0, [r2]
 2039              	.L161:
 2040              	.LBE1166:
 2041              	.LBE1171:
 2042              	.LBE1179:
 421:../../libs/PoliTeKDSP/libs/libDaisy/src/hid/disp/display.h ****             {
 2043              		.loc 11 421 13 is_stmt 1 view .LVU435
 2044 019a 0133     		adds	r3, r3, #1
 2045              	.LVL135:
 421:../../libs/PoliTeKDSP/libs/libDaisy/src/hid/disp/display.h ****             {
 2046              		.loc 11 421 26 view .LVU436
 2047 019c 0132     		adds	r2, r2, #1
 2048 019e 0131     		adds	r1, r1, #1
 2049 01a0 9C42     		cmp	r4, r3
 2050 01a2 13D0     		beq	.L164
 2051              	.LVL136:
 2052              	.L165:
 423:../../libs/PoliTeKDSP/libs/libDaisy/src/hid/disp/display.h ****                 {
 2053              		.loc 11 423 23 is_stmt 0 view .LVU437
 2054 01a4 07FA03F0 		lsl	r0, r7, r3
 423:../../libs/PoliTeKDSP/libs/libDaisy/src/hid/disp/display.h ****                 {
 2055              		.loc 11 423 17 view .LVU438
 2056 01a8 0004     		lsls	r0, r0, #16
 2057 01aa EDD4     		bmi	.L201
 2058              	.LVL137:
ARM GAS  C:\Users\skipi\AppData\Local\Temp\ccs8qXFk.s 			page 72


 2059              	.LBB1180:
 2060              	.LBI1153:
  42:../../libs/PoliTeKDSP/libs/libDaisy/src/hid/disp/oled_display.h ****     {
 2061              		.loc 10 42 10 is_stmt 1 view .LVU439
 2062              	.LBB1172:
 2063              	.LBI1154:
 361:../../libs/PoliTeKDSP/libs/libDaisy/src/dev/oled_ssd130x.h ****     {
 2064              		.loc 12 361 10 view .LVU440
 2065              	.LBB1167:
 363:../../libs/PoliTeKDSP/libs/libDaisy/src/dev/oled_ssd130x.h ****             return;
 2066              		.loc 12 363 9 is_stmt 0 view .LVU441
 2067 01ac 7F29     		cmp	r1, #127
 2068 01ae F4D8     		bhi	.L161
 2069 01b0 3F2D     		cmp	r5, #63
 2070 01b2 F2D8     		bhi	.L161
 366:../../libs/PoliTeKDSP/libs/libDaisy/src/dev/oled_ssd130x.h ****         else
 2071              		.loc 12 366 42 view .LVU442
 2072 01b4 1078     		ldrb	r0, [r2]	@ zero_extendqisi2
 365:../../libs/PoliTeKDSP/libs/libDaisy/src/dev/oled_ssd130x.h ****             buffer_[x + (y / 8) * width] |= (1 << (y % 8));
 2073              		.loc 12 365 9 view .LVU443
 2074 01b6 002E     		cmp	r6, #0
 2075 01b8 ECD0     		beq	.L195
 2076              	.L163:
 2077              	.LVL138:
 2078              	.LBB1162:
 2079              	.LBI1156:
 361:../../libs/PoliTeKDSP/libs/libDaisy/src/dev/oled_ssd130x.h ****     {
 2080              		.loc 12 361 10 is_stmt 1 view .LVU444
 361:../../libs/PoliTeKDSP/libs/libDaisy/src/dev/oled_ssd130x.h ****     {
 2081              		.loc 12 361 10 is_stmt 0 view .LVU445
 2082              	.LBE1162:
 2083              	.LBE1167:
 2084              	.LBE1172:
 2085              	.LBE1180:
 421:../../libs/PoliTeKDSP/libs/libDaisy/src/hid/disp/display.h ****             {
 2086              		.loc 11 421 13 view .LVU446
 2087 01ba 0133     		adds	r3, r3, #1
 2088              	.LVL139:
 2089              	.LBB1181:
 2090              	.LBB1173:
 2091              	.LBB1168:
 2092              	.LBB1163:
 2093              	.LBB1159:
 368:../../libs/PoliTeKDSP/libs/libDaisy/src/dev/oled_ssd130x.h ****     }
 2094              		.loc 12 368 42 view .LVU447
 2095 01bc 09EA0000 		and	r0, r9, r0
 2096              	.LBE1159:
 2097              	.LBE1163:
 2098              	.LBE1168:
 2099              	.LBE1173:
 2100              	.LBE1181:
 421:../../libs/PoliTeKDSP/libs/libDaisy/src/hid/disp/display.h ****             {
 2101              		.loc 11 421 26 view .LVU448
 2102 01c0 0132     		adds	r2, r2, #1
 2103 01c2 0131     		adds	r1, r1, #1
 2104 01c4 9C42     		cmp	r4, r3
 2105              	.LBB1182:
ARM GAS  C:\Users\skipi\AppData\Local\Temp\ccs8qXFk.s 			page 73


 2106              	.LBB1174:
 2107              	.LBB1169:
 2108              	.LBB1164:
 2109              	.LBB1160:
 368:../../libs/PoliTeKDSP/libs/libDaisy/src/dev/oled_ssd130x.h ****     }
 2110              		.loc 12 368 42 view .LVU449
 2111 01c6 02F8010C 		strb	r0, [r2, #-1]
 368:../../libs/PoliTeKDSP/libs/libDaisy/src/dev/oled_ssd130x.h ****     }
 2112              		.loc 12 368 42 view .LVU450
 2113              	.LBE1160:
 2114              	.LBE1164:
 2115              	.LBE1169:
 2116              	.LBE1174:
 2117              	.LBE1182:
 421:../../libs/PoliTeKDSP/libs/libDaisy/src/hid/disp/display.h ****             {
 2118              		.loc 11 421 13 is_stmt 1 view .LVU451
 2119              	.LVL140:
 421:../../libs/PoliTeKDSP/libs/libDaisy/src/hid/disp/display.h ****             {
 2120              		.loc 11 421 26 view .LVU452
 2121 01ca EBD1     		bne	.L165
 2122              	.LVL141:
 2123              	.L164:
 418:../../libs/PoliTeKDSP/libs/libDaisy/src/hid/disp/display.h ****         {
 2124              		.loc 11 418 9 view .LVU453
 418:../../libs/PoliTeKDSP/libs/libDaisy/src/hid/disp/display.h ****         {
 2125              		.loc 11 418 22 view .LVU454
 2126 01cc F345     		cmp	fp, lr
 2127 01ce 05F10105 		add	r5, r5, #1
 2128 01d2 C3D1     		bne	.L159
 2129 01d4 DDF814B0 		ldr	fp, [sp, #20]
 2130              	.LVL142:
 2131              	.L158:
 2132              	.LBB1183:
 2133              	.LBB1184:
 173:../../libs/PoliTeKDSP/libs/libDaisy/src/hid/disp/display.h ****         currentY_ = (y >= Height()) ? Height() - 1 : y;
 2134              		.loc 11 173 33 is_stmt 0 view .LVU455
 2135 01d8 D8F80020 		ldr	r2, [r8]
 2136              	.LBE1184:
 2137              	.LBE1183:
 439:../../libs/PoliTeKDSP/libs/libDaisy/src/hid/disp/display.h **** 
 2138              		.loc 11 439 18 view .LVU456
 2139 01dc 0AEB0405 		add	r5, r10, r4
 2140 01e0 0199     		ldr	r1, [sp, #4]
 2141              	.LBB1189:
 2142              	.LBB1185:
 173:../../libs/PoliTeKDSP/libs/libDaisy/src/hid/disp/display.h ****         currentY_ = (y >= Height()) ? Height() - 1 : y;
 2143              		.loc 11 173 33 view .LVU457
 2144 01e2 D368     		ldr	r3, [r2, #12]
 2145              	.LBE1185:
 2146              	.LBE1189:
 439:../../libs/PoliTeKDSP/libs/libDaisy/src/hid/disp/display.h **** 
 2147              		.loc 11 439 18 view .LVU458
 2148 01e4 ADB2     		uxth	r5, r5
 2149              	.LVL143:
 2150              	.LBB1190:
 2151              	.LBI1183:
 171:../../libs/PoliTeKDSP/libs/libDaisy/src/hid/disp/display.h ****     {
ARM GAS  C:\Users\skipi\AppData\Local\Temp\ccs8qXFk.s 			page 74


 2152              		.loc 11 171 10 is_stmt 1 view .LVU459
 2153              	.LBB1186:
 173:../../libs/PoliTeKDSP/libs/libDaisy/src/hid/disp/display.h ****         currentY_ = (y >= Height()) ? Height() - 1 : y;
 2154              		.loc 11 173 9 view .LVU460
 2155 01e6 8B42     		cmp	r3, r1
 2156 01e8 40F0BF80 		bne	.L202
 173:../../libs/PoliTeKDSP/libs/libDaisy/src/hid/disp/display.h ****         currentY_ = (y >= Height()) ? Height() - 1 : y;
 2157              		.loc 11 173 33 is_stmt 0 view .LVU461
 2158 01ec 8020     		movs	r0, #128
 2159              	.L166:
 173:../../libs/PoliTeKDSP/libs/libDaisy/src/hid/disp/display.h ****         currentY_ = (y >= Height()) ? Height() - 1 : y;
 2160              		.loc 11 173 19 view .LVU462
 2161 01ee 8542     		cmp	r5, r0
 2162 01f0 05D3     		bcc	.L167
 173:../../libs/PoliTeKDSP/libs/libDaisy/src/hid/disp/display.h ****         currentY_ = (y >= Height()) ? Height() - 1 : y;
 2163              		.loc 11 173 44 view .LVU463
 2164 01f2 D368     		ldr	r3, [r2, #12]
 2165 01f4 0199     		ldr	r1, [sp, #4]
 2166 01f6 8B42     		cmp	r3, r1
 2167 01f8 40F0C580 		bne	.L203
 2168 01fc 7F25     		movs	r5, #127
 2169              	.LVL144:
 2170              	.L167:
 174:../../libs/PoliTeKDSP/libs/libDaisy/src/hid/disp/display.h ****     }
 2171              		.loc 11 174 34 view .LVU464
 2172 01fe 9368     		ldr	r3, [r2, #8]
 2173 0200 039A     		ldr	r2, [sp, #12]
 173:../../libs/PoliTeKDSP/libs/libDaisy/src/hid/disp/display.h ****         currentY_ = (y >= Height()) ? Height() - 1 : y;
 2174              		.loc 11 173 19 view .LVU465
 2175 0202 A8F80450 		strh	r5, [r8, #4]	@ movhi
 174:../../libs/PoliTeKDSP/libs/libDaisy/src/hid/disp/display.h ****     }
 2176              		.loc 11 174 9 is_stmt 1 view .LVU466
 2177 0206 9342     		cmp	r3, r2
 2178 0208 40F0AC80 		bne	.L204
 174:../../libs/PoliTeKDSP/libs/libDaisy/src/hid/disp/display.h ****     }
 2179              		.loc 11 174 34 is_stmt 0 view .LVU467
 2180 020c 4020     		movs	r0, #64
 2181              	.L169:
 174:../../libs/PoliTeKDSP/libs/libDaisy/src/hid/disp/display.h ****     }
 2182              		.loc 11 174 19 view .LVU468
 2183 020e 029B     		ldr	r3, [sp, #8]
 2184 0210 8342     		cmp	r3, r0
 2185 0212 08D3     		bcc	.L170
 174:../../libs/PoliTeKDSP/libs/libDaisy/src/hid/disp/display.h ****     }
 2186              		.loc 11 174 46 view .LVU469
 2187 0214 D8F80030 		ldr	r3, [r8]
 2188 0218 039A     		ldr	r2, [sp, #12]
 2189 021a 9B68     		ldr	r3, [r3, #8]
 2190 021c 9342     		cmp	r3, r2
 2191 021e 40F0AC80 		bne	.L205
 2192 0222 3F23     		movs	r3, #63
 2193 0224 0293     		str	r3, [sp, #8]
 2194              	.LVL145:
 2195              	.L170:
 174:../../libs/PoliTeKDSP/libs/libDaisy/src/hid/disp/display.h ****     }
 2196              		.loc 11 174 19 view .LVU470
 2197 0226 029B     		ldr	r3, [sp, #8]
ARM GAS  C:\Users\skipi\AppData\Local\Temp\ccs8qXFk.s 			page 75


 2198 0228 A8F80630 		strh	r3, [r8, #6]	@ movhi
 2199              	.LVL146:
 2200              	.L152:
 174:../../libs/PoliTeKDSP/libs/libDaisy/src/hid/disp/display.h ****     }
 2201              		.loc 11 174 19 view .LVU471
 2202              	.LBE1186:
 2203              	.LBE1190:
 2204              	.LBE1152:
 2205              	.LBE1151:
 450:../../libs/PoliTeKDSP/libs/libDaisy/src/hid/disp/display.h ****                != *str)
 2206              		.loc 11 450 13 view .LVU472
 2207 022c 009A     		ldr	r2, [sp]
 2208 022e 1378     		ldrb	r3, [r2]	@ zero_extendqisi2
 2209 0230 5B45     		cmp	r3, fp
 2210 0232 06D1     		bne	.L120
 2211              	.LVL147:
 448:../../libs/PoliTeKDSP/libs/libDaisy/src/hid/disp/display.h ****         {
 2212              		.loc 11 448 9 is_stmt 1 view .LVU473
 2213 0234 12F801BF 		ldrb	fp, [r2, #1]!	@ zero_extendqisi2
 2214              	.LVL148:
 448:../../libs/PoliTeKDSP/libs/libDaisy/src/hid/disp/display.h ****         {
 2215              		.loc 11 448 9 is_stmt 0 view .LVU474
 2216 0238 0092     		str	r2, [sp]
 2217 023a BBF1000F 		cmp	fp, #0
 2218 023e 7FF454AF 		bne	.L150
 2219              	.LVL149:
 2220              	.L120:
 448:../../libs/PoliTeKDSP/libs/libDaisy/src/hid/disp/display.h ****         {
 2221              		.loc 11 448 9 view .LVU475
 2222              	.LBE1196:
 2223              	.LBE1199:
 476:../../libs/PoliTeKDSP/libs/libDaisy/src/hid/disp/display.h **** 
 2224              		.loc 11 476 5 view .LVU476
 2225 0242 0698     		ldr	r0, [sp, #24]
 2226 0244 09B0     		add	sp, sp, #36
 2227              		.cfi_remember_state
 2228              		.cfi_def_cfa_offset 36
 2229              		@ sp needed
 2230 0246 BDE8F08F 		pop	{r4, r5, r6, r7, r8, r9, r10, fp, pc}
 2231              	.LVL150:
 2232              	.L133:
 2233              		.cfi_restore_state
 2234              	.LBB1200:
 2235              	.LBB1122:
 250:../../libs/PoliTeKDSP/libs/libDaisy/src/hid/disp/graphics_common.h ****                 return {int16_t(x_ + (other.GetCenterX() - GetCenterX())),
 2236              		.loc 13 250 13 is_stmt 1 view .LVU477
 251:../../libs/PoliTeKDSP/libs/libDaisy/src/hid/disp/graphics_common.h ****                         int16_t(y_ + (other.GetCenterY() - GetCenterY())),
 2237              		.loc 13 251 17 view .LVU478
 2238              	.LBB958:
 2239              	.LBI958:
  62:../../libs/PoliTeKDSP/libs/libDaisy/src/hid/disp/graphics_common.h ****     int16_t GetCenterY() const { return y_ + height_ / 2; }
 2240              		.loc 13 62 13 view .LVU479
 2241              	.LBB959:
  62:../../libs/PoliTeKDSP/libs/libDaisy/src/hid/disp/graphics_common.h ****     int16_t GetCenterY() const { return y_ + height_ / 2; }
 2242              		.loc 13 62 34 view .LVU480
  62:../../libs/PoliTeKDSP/libs/libDaisy/src/hid/disp/graphics_common.h ****     int16_t GetCenterY() const { return y_ + height_ / 2; }
 2243              		.loc 13 62 34 is_stmt 0 view .LVU481
ARM GAS  C:\Users\skipi\AppData\Local\Temp\ccs8qXFk.s 			page 76


 2244              	.LBE959:
 2245              	.LBE958:
 2246              	.LBB961:
 2247              	.LBI961:
  62:../../libs/PoliTeKDSP/libs/libDaisy/src/hid/disp/graphics_common.h ****     int16_t GetCenterY() const { return y_ + height_ / 2; }
 2248              		.loc 13 62 13 is_stmt 1 view .LVU482
 2249              	.LBB962:
  62:../../libs/PoliTeKDSP/libs/libDaisy/src/hid/disp/graphics_common.h ****     int16_t GetCenterY() const { return y_ + height_ / 2; }
 2250              		.loc 13 62 34 view .LVU483
  62:../../libs/PoliTeKDSP/libs/libDaisy/src/hid/disp/graphics_common.h ****     int16_t GetCenterY() const { return y_ + height_ / 2; }
 2251              		.loc 13 62 34 is_stmt 0 view .LVU484
 2252              	.LBE962:
 2253              	.LBE961:
 2254              	.LBB963:
 2255              	.LBB960:
  62:../../libs/PoliTeKDSP/libs/libDaisy/src/hid/disp/graphics_common.h ****     int16_t GetCenterY() const { return y_ + height_ / 2; }
 2256              		.loc 13 62 53 view .LVU485
 2257 024a B4F90410 		ldrsh	r1, [r4, #4]
 2258              	.LVL151:
  62:../../libs/PoliTeKDSP/libs/libDaisy/src/hid/disp/graphics_common.h ****     int16_t GetCenterY() const { return y_ + height_ / 2; }
 2259              		.loc 13 62 44 view .LVU486
 2260 024e 2788     		ldrh	r7, [r4]
  62:../../libs/PoliTeKDSP/libs/libDaisy/src/hid/disp/graphics_common.h ****     int16_t GetCenterY() const { return y_ + height_ / 2; }
 2261              		.loc 13 62 53 view .LVU487
 2262 0250 0029     		cmp	r1, #0
 2263 0252 B8BF     		it	lt
 2264 0254 0131     		addlt	r1, r1, #1
  62:../../libs/PoliTeKDSP/libs/libDaisy/src/hid/disp/graphics_common.h ****     int16_t GetCenterY() const { return y_ + height_ / 2; }
 2265              		.loc 13 62 44 view .LVU488
 2266 0256 07EB6107 		add	r7, r7, r1, asr #1
 2267              	.LBE960:
 2268              	.LBE963:
 2269              	.LBB964:
 2270              	.LBB936:
  63:../../libs/PoliTeKDSP/libs/libDaisy/src/hid/disp/graphics_common.h **** 
 2271              		.loc 13 63 54 view .LVU489
 2272 025a B4F90610 		ldrsh	r1, [r4, #6]
 2273              	.LBE936:
 2274              	.LBE964:
 251:../../libs/PoliTeKDSP/libs/libDaisy/src/hid/disp/graphics_common.h ****                         int16_t(y_ + (other.GetCenterY() - GetCenterY())),
 2275              		.loc 13 251 58 view .LVU490
 2276 025e A7EB6307 		sub	r7, r7, r3, asr #1
 2277              	.LBB965:
 2278              	.LBB937:
  63:../../libs/PoliTeKDSP/libs/libDaisy/src/hid/disp/graphics_common.h **** 
 2279              		.loc 13 63 54 view .LVU491
 2280 0262 0029     		cmp	r1, #0
 2281              	.LBE937:
 2282              	.LBE965:
 251:../../libs/PoliTeKDSP/libs/libDaisy/src/hid/disp/graphics_common.h ****                         int16_t(y_ + (other.GetCenterY() - GetCenterY())),
 2283              		.loc 13 251 58 view .LVU492
 2284 0264 BFB2     		uxth	r7, r7
 2285              	.LVL152:
 2286              	.LBB966:
 2287              	.LBI933:
  63:../../libs/PoliTeKDSP/libs/libDaisy/src/hid/disp/graphics_common.h **** 
 2288              		.loc 13 63 13 is_stmt 1 view .LVU493
ARM GAS  C:\Users\skipi\AppData\Local\Temp\ccs8qXFk.s 			page 77


 2289              	.LBB938:
  63:../../libs/PoliTeKDSP/libs/libDaisy/src/hid/disp/graphics_common.h **** 
 2290              		.loc 13 63 34 view .LVU494
  63:../../libs/PoliTeKDSP/libs/libDaisy/src/hid/disp/graphics_common.h **** 
 2291              		.loc 13 63 34 is_stmt 0 view .LVU495
 2292              	.LBE938:
 2293              	.LBE966:
 2294              	.LBB967:
 2295              	.LBI967:
  63:../../libs/PoliTeKDSP/libs/libDaisy/src/hid/disp/graphics_common.h **** 
 2296              		.loc 13 63 13 is_stmt 1 view .LVU496
 2297              	.LBB968:
  63:../../libs/PoliTeKDSP/libs/libDaisy/src/hid/disp/graphics_common.h **** 
 2298              		.loc 13 63 34 view .LVU497
  63:../../libs/PoliTeKDSP/libs/libDaisy/src/hid/disp/graphics_common.h **** 
 2299              		.loc 13 63 34 is_stmt 0 view .LVU498
 2300              	.LBE968:
 2301              	.LBE967:
 2302              	.LBB969:
 2303              	.LBB939:
  63:../../libs/PoliTeKDSP/libs/libDaisy/src/hid/disp/graphics_common.h **** 
 2304              		.loc 13 63 54 view .LVU499
 2305 0266 BFF601AF 		bge	.L140
 2306              	.L196:
  63:../../libs/PoliTeKDSP/libs/libDaisy/src/hid/disp/graphics_common.h **** 
 2307              		.loc 13 63 54 view .LVU500
 2308 026a 0131     		adds	r1, r1, #1
 2309 026c FEE6     		b	.L140
 2310              	.LVL153:
 2311              	.L132:
  63:../../libs/PoliTeKDSP/libs/libDaisy/src/hid/disp/graphics_common.h **** 
 2312              		.loc 13 63 54 view .LVU501
 2313              	.LBE939:
 2314              	.LBE969:
 213:../../libs/PoliTeKDSP/libs/libDaisy/src/hid/disp/graphics_common.h ****                 return {other.x_, other.y_, width_, height_};
 2315              		.loc 13 213 13 is_stmt 1 view .LVU502
 214:../../libs/PoliTeKDSP/libs/libDaisy/src/hid/disp/graphics_common.h ****             case Alignment::topRight:
 2316              		.loc 13 214 17 view .LVU503
 214:../../libs/PoliTeKDSP/libs/libDaisy/src/hid/disp/graphics_common.h ****             case Alignment::topRight:
 2317              		.loc 13 214 31 is_stmt 0 view .LVU504
 2318 026e B4F90070 		ldrsh	r7, [r4]
 2319              	.LBB970:
 2320              	.LBB971:
 2321              	.LBB972:
  32:../../libs/PoliTeKDSP/libs/libDaisy/src/hid/disp/graphics_common.h ****     {
 2322              		.loc 13 32 66 view .LVU505
 2323 0272 0699     		ldr	r1, [sp, #24]
 2324              	.LVL154:
  32:../../libs/PoliTeKDSP/libs/libDaisy/src/hid/disp/graphics_common.h ****     {
 2325              		.loc 13 32 66 view .LVU506
 2326              	.LBE972:
 2327              	.LBE971:
 2328              	.LBE970:
 214:../../libs/PoliTeKDSP/libs/libDaisy/src/hid/disp/graphics_common.h ****             case Alignment::topRight:
 2329              		.loc 13 214 41 view .LVU507
 2330 0274 B4F90240 		ldrsh	r4, [r4, #2]
 2331              	.LVL155:
ARM GAS  C:\Users\skipi\AppData\Local\Temp\ccs8qXFk.s 			page 78


 2332              	.LBB985:
 2333              	.LBI970:
  31:../../libs/PoliTeKDSP/libs/libDaisy/src/hid/disp/graphics_common.h ****     : x_(x), y_(y), width_(max(0, width)), height_(max(0, height))
 2334              		.loc 13 31 5 is_stmt 1 view .LVU508
 2335              	.LBB980:
 2336              	.LBB975:
  32:../../libs/PoliTeKDSP/libs/libDaisy/src/hid/disp/graphics_common.h ****     {
 2337              		.loc 13 32 66 is_stmt 0 view .LVU509
 2338 0278 0F80     		strh	r7, [r1]	@ movhi
 2339              	.LBE975:
 2340              	.LBE980:
 2341              	.LBE985:
 2342              	.LBE1122:
 2343              	.LBE1200:
 473:../../libs/PoliTeKDSP/libs/libDaisy/src/hid/disp/display.h ****         ((ChildType*)(this))->ChildType::WriteString(str, font, on);
 2344              		.loc 11 473 18 view .LVU510
 2345 027a BFB2     		uxth	r7, r7
 2346              	.LVL156:
 2347              	.LBB1201:
 2348              	.LBB1123:
 2349              	.LBB986:
 2350              	.LBB981:
 2351              	.LBB976:
  32:../../libs/PoliTeKDSP/libs/libDaisy/src/hid/disp/graphics_common.h ****     {
 2352              		.loc 13 32 66 view .LVU511
 2353 027c 4C80     		strh	r4, [r1, #2]	@ movhi
 2354              	.LBE976:
 2355              	.LBE981:
 2356              	.LBE986:
 2357              	.LBE1123:
 2358              	.LBE1201:
 473:../../libs/PoliTeKDSP/libs/libDaisy/src/hid/disp/display.h ****         ((ChildType*)(this))->ChildType::WriteString(str, font, on);
 2359              		.loc 11 473 18 view .LVU512
 2360 027e A4B2     		uxth	r4, r4
 2361              	.LVL157:
 2362              	.LBB1202:
 2363              	.LBB1124:
 2364              	.LBB987:
 2365              	.LBB982:
 2366              	.LBB977:
  32:../../libs/PoliTeKDSP/libs/libDaisy/src/hid/disp/graphics_common.h ****     {
 2367              		.loc 13 32 66 view .LVU513
 2368 0280 8B80     		strh	r3, [r1, #4]	@ movhi
 2369              	.LVL158:
 2370              	.LBB973:
 2371              	.LBI973:
 2372              		.loc 13 261 13 is_stmt 1 view .LVU514
 2373              	.LBE973:
 2374              	.LBE977:
 2375              	.LBE982:
 2376              	.LBE987:
 2377              	.LBE1124:
 2378              	.LBE1202:
 2379              		.loc 13 261 41 view .LVU515
 2380              	.LBB1203:
 2381              	.LBB1125:
 2382              	.LBB988:
ARM GAS  C:\Users\skipi\AppData\Local\Temp\ccs8qXFk.s 			page 79


 2383              	.LBB983:
 2384              	.LBB978:
 2385              	.LBB974:
 2386              	.LBI974:
 2387              		.loc 13 261 13 view .LVU516
 2388              	.LBE974:
 2389              	.LBE978:
 2390              	.LBE983:
 2391              	.LBE988:
 2392              	.LBE1125:
 2393              	.LBE1203:
 2394              		.loc 13 261 41 view .LVU517
 2395              	.LBB1204:
 2396              	.LBB1126:
 2397              	.LBB989:
 2398              	.LBB984:
 2399              	.LBB979:
  32:../../libs/PoliTeKDSP/libs/libDaisy/src/hid/disp/graphics_common.h ****     {
 2400              		.loc 13 32 66 is_stmt 0 view .LVU518
 2401 0282 CA80     		strh	r2, [r1, #6]	@ movhi
 2402              	.LBE979:
  34:../../libs/PoliTeKDSP/libs/libDaisy/src/hid/disp/graphics_common.h **** 
 2403              		.loc 13 34 5 view .LVU519
 2404 0284 FEE6     		b	.L134
 2405              	.LVL159:
 2406              	.L131:
  34:../../libs/PoliTeKDSP/libs/libDaisy/src/hid/disp/graphics_common.h **** 
 2407              		.loc 13 34 5 view .LVU520
 2408              	.LBE984:
 2409              	.LBE989:
 220:../../libs/PoliTeKDSP/libs/libDaisy/src/hid/disp/graphics_common.h ****                 return {int16_t(x_ + (other.GetCenterX() - GetCenterX())),
 2410              		.loc 13 220 13 is_stmt 1 view .LVU521
 221:../../libs/PoliTeKDSP/libs/libDaisy/src/hid/disp/graphics_common.h ****                         other.y_,
 2411              		.loc 13 221 17 view .LVU522
 2412              	.LBB990:
 2413              	.LBI990:
  62:../../libs/PoliTeKDSP/libs/libDaisy/src/hid/disp/graphics_common.h ****     int16_t GetCenterY() const { return y_ + height_ / 2; }
 2414              		.loc 13 62 13 view .LVU523
 2415              	.LBB991:
  62:../../libs/PoliTeKDSP/libs/libDaisy/src/hid/disp/graphics_common.h ****     int16_t GetCenterY() const { return y_ + height_ / 2; }
 2416              		.loc 13 62 34 view .LVU524
  62:../../libs/PoliTeKDSP/libs/libDaisy/src/hid/disp/graphics_common.h ****     int16_t GetCenterY() const { return y_ + height_ / 2; }
 2417              		.loc 13 62 34 is_stmt 0 view .LVU525
 2418              	.LBE991:
 2419              	.LBE990:
 2420              	.LBB994:
 2421              	.LBI994:
  62:../../libs/PoliTeKDSP/libs/libDaisy/src/hid/disp/graphics_common.h ****     int16_t GetCenterY() const { return y_ + height_ / 2; }
 2422              		.loc 13 62 13 is_stmt 1 view .LVU526
 2423              	.LBB995:
  62:../../libs/PoliTeKDSP/libs/libDaisy/src/hid/disp/graphics_common.h ****     int16_t GetCenterY() const { return y_ + height_ / 2; }
 2424              		.loc 13 62 34 view .LVU527
  62:../../libs/PoliTeKDSP/libs/libDaisy/src/hid/disp/graphics_common.h ****     int16_t GetCenterY() const { return y_ + height_ / 2; }
 2425              		.loc 13 62 34 is_stmt 0 view .LVU528
 2426              	.LBE995:
 2427              	.LBE994:
 2428              	.LBB996:
ARM GAS  C:\Users\skipi\AppData\Local\Temp\ccs8qXFk.s 			page 80


 2429              	.LBB992:
  62:../../libs/PoliTeKDSP/libs/libDaisy/src/hid/disp/graphics_common.h ****     int16_t GetCenterY() const { return y_ + height_ / 2; }
 2430              		.loc 13 62 53 view .LVU529
 2431 0286 B4F90410 		ldrsh	r1, [r4, #4]
 2432              	.LVL160:
  62:../../libs/PoliTeKDSP/libs/libDaisy/src/hid/disp/graphics_common.h ****     int16_t GetCenterY() const { return y_ + height_ / 2; }
 2433              		.loc 13 62 44 view .LVU530
 2434 028a 2788     		ldrh	r7, [r4]
  62:../../libs/PoliTeKDSP/libs/libDaisy/src/hid/disp/graphics_common.h ****     int16_t GetCenterY() const { return y_ + height_ / 2; }
 2435              		.loc 13 62 53 view .LVU531
 2436 028c 0029     		cmp	r1, #0
 2437              	.LBE992:
 2438              	.LBE996:
 222:../../libs/PoliTeKDSP/libs/libDaisy/src/hid/disp/graphics_common.h ****                         width_,
 2439              		.loc 13 222 31 view .LVU532
 2440 028e B4F90240 		ldrsh	r4, [r4, #2]
 2441              	.LVL161:
 2442              	.LBB997:
 2443              	.LBB993:
  62:../../libs/PoliTeKDSP/libs/libDaisy/src/hid/disp/graphics_common.h ****     int16_t GetCenterY() const { return y_ + height_ / 2; }
 2444              		.loc 13 62 53 view .LVU533
 2445 0292 B8BF     		it	lt
 2446 0294 0131     		addlt	r1, r1, #1
  62:../../libs/PoliTeKDSP/libs/libDaisy/src/hid/disp/graphics_common.h ****     int16_t GetCenterY() const { return y_ + height_ / 2; }
 2447              		.loc 13 62 44 view .LVU534
 2448 0296 07EB6107 		add	r7, r7, r1, asr #1
 2449              	.LBE993:
 2450              	.LBE997:
 2451              	.LBB998:
 2452              	.LBB999:
 2453              	.LBB1000:
  32:../../libs/PoliTeKDSP/libs/libDaisy/src/hid/disp/graphics_common.h ****     {
 2454              		.loc 13 32 66 view .LVU535
 2455 029a 0699     		ldr	r1, [sp, #24]
 2456 029c 8B80     		strh	r3, [r1, #4]	@ movhi
 2457              	.LBE1000:
 2458              	.LBE999:
 2459              	.LBE998:
 221:../../libs/PoliTeKDSP/libs/libDaisy/src/hid/disp/graphics_common.h ****                         other.y_,
 2460              		.loc 13 221 58 view .LVU536
 2461 029e A7EB6303 		sub	r3, r7, r3, asr #1
 2462              	.LBB1011:
 2463              	.LBB1007:
 2464              	.LBB1003:
  32:../../libs/PoliTeKDSP/libs/libDaisy/src/hid/disp/graphics_common.h ****     {
 2465              		.loc 13 32 66 view .LVU537
 2466 02a2 4C80     		strh	r4, [r1, #2]	@ movhi
 2467              	.LBE1003:
 2468              	.LBE1007:
 2469              	.LBE1011:
 2470              	.LBE1126:
 2471              	.LBE1204:
 473:../../libs/PoliTeKDSP/libs/libDaisy/src/hid/disp/display.h ****         ((ChildType*)(this))->ChildType::WriteString(str, font, on);
 2472              		.loc 11 473 18 view .LVU538
 2473 02a4 A4B2     		uxth	r4, r4
 2474              	.LBB1205:
 2475              	.LBB1127:
ARM GAS  C:\Users\skipi\AppData\Local\Temp\ccs8qXFk.s 			page 81


 221:../../libs/PoliTeKDSP/libs/libDaisy/src/hid/disp/graphics_common.h ****                         other.y_,
 2476              		.loc 13 221 58 view .LVU539
 2477 02a6 9FB2     		uxth	r7, r3
 2478              	.LVL162:
 2479              	.LBB1012:
 2480              	.LBI998:
  31:../../libs/PoliTeKDSP/libs/libDaisy/src/hid/disp/graphics_common.h ****     : x_(x), y_(y), width_(max(0, width)), height_(max(0, height))
 2481              		.loc 13 31 5 is_stmt 1 view .LVU540
 2482              	.LBB1008:
 2483              	.LBB1004:
 2484              	.LBB1001:
 2485              	.LBI1001:
 2486              		.loc 13 261 13 view .LVU541
 2487              	.LBE1001:
 2488              	.LBE1004:
 2489              	.LBE1008:
 2490              	.LBE1012:
 2491              	.LBE1127:
 2492              	.LBE1205:
 2493              		.loc 13 261 41 view .LVU542
 2494              	.LBB1206:
 2495              	.LBB1128:
 2496              	.LBB1013:
 2497              	.LBB1009:
 2498              	.LBB1005:
 2499              	.LBB1002:
 2500              	.LBI1002:
 2501              		.loc 13 261 13 view .LVU543
 2502              	.LBE1002:
 2503              	.LBE1005:
 2504              	.LBE1009:
 2505              	.LBE1013:
 2506              	.LBE1128:
 2507              	.LBE1206:
 2508              		.loc 13 261 41 view .LVU544
 2509              	.LBB1207:
 2510              	.LBB1129:
 2511              	.LBB1014:
 2512              	.LBB1010:
 2513              	.LBB1006:
  32:../../libs/PoliTeKDSP/libs/libDaisy/src/hid/disp/graphics_common.h ****     {
 2514              		.loc 13 32 66 is_stmt 0 view .LVU545
 2515 02a8 CA80     		strh	r2, [r1, #6]	@ movhi
 2516 02aa 0F80     		strh	r7, [r1]	@ movhi
 2517              	.LBE1006:
  34:../../libs/PoliTeKDSP/libs/libDaisy/src/hid/disp/graphics_common.h **** 
 2518              		.loc 13 34 5 view .LVU546
 2519 02ac EAE6     		b	.L134
 2520              	.LVL163:
 2521              	.L130:
  34:../../libs/PoliTeKDSP/libs/libDaisy/src/hid/disp/graphics_common.h **** 
 2522              		.loc 13 34 5 view .LVU547
 2523              	.LBE1010:
 2524              	.LBE1014:
 215:../../libs/PoliTeKDSP/libs/libDaisy/src/hid/disp/graphics_common.h ****                 return {int16_t(other.GetRight() - width_),
 2525              		.loc 13 215 13 is_stmt 1 view .LVU548
 216:../../libs/PoliTeKDSP/libs/libDaisy/src/hid/disp/graphics_common.h ****                         other.y_,
ARM GAS  C:\Users\skipi\AppData\Local\Temp\ccs8qXFk.s 			page 82


 2526              		.loc 13 216 17 view .LVU549
 2527              	.LBB1015:
 2528              	.LBI1015:
  60:../../libs/PoliTeKDSP/libs/libDaisy/src/hid/disp/graphics_common.h ****     int16_t GetBottom() const { return y_ + height_; }
 2529              		.loc 13 60 13 view .LVU550
 2530              	.LBB1016:
  60:../../libs/PoliTeKDSP/libs/libDaisy/src/hid/disp/graphics_common.h ****     int16_t GetBottom() const { return y_ + height_; }
 2531              		.loc 13 60 32 view .LVU551
  60:../../libs/PoliTeKDSP/libs/libDaisy/src/hid/disp/graphics_common.h ****     int16_t GetBottom() const { return y_ + height_; }
 2532              		.loc 13 60 42 is_stmt 0 view .LVU552
 2533 02ae A188     		ldrh	r1, [r4, #4]
 2534              	.LVL164:
  60:../../libs/PoliTeKDSP/libs/libDaisy/src/hid/disp/graphics_common.h ****     int16_t GetBottom() const { return y_ + height_; }
 2535              		.loc 13 60 42 view .LVU553
 2536 02b0 2788     		ldrh	r7, [r4]
 2537              	.LBE1016:
 2538              	.LBE1015:
 217:../../libs/PoliTeKDSP/libs/libDaisy/src/hid/disp/graphics_common.h ****                         width_,
 2539              		.loc 13 217 31 view .LVU554
 2540 02b2 B4F90240 		ldrsh	r4, [r4, #2]
 2541              	.LVL165:
 2542              	.LBB1018:
 2543              	.LBB1017:
  60:../../libs/PoliTeKDSP/libs/libDaisy/src/hid/disp/graphics_common.h ****     int16_t GetBottom() const { return y_ + height_; }
 2544              		.loc 13 60 42 view .LVU555
 2545 02b6 0F44     		add	r7, r7, r1
 2546              	.LBE1017:
 2547              	.LBE1018:
 2548              	.LBB1019:
 2549              	.LBB1020:
 2550              	.LBB1021:
  32:../../libs/PoliTeKDSP/libs/libDaisy/src/hid/disp/graphics_common.h ****     {
 2551              		.loc 13 32 66 view .LVU556
 2552 02b8 0699     		ldr	r1, [sp, #24]
 2553 02ba 8B80     		strh	r3, [r1, #4]	@ movhi
 2554              	.LBE1021:
 2555              	.LBE1020:
 2556              	.LBE1019:
 216:../../libs/PoliTeKDSP/libs/libDaisy/src/hid/disp/graphics_common.h ****                         other.y_,
 2557              		.loc 13 216 50 view .LVU557
 2558 02bc FB1A     		subs	r3, r7, r3
 2559              	.LBB1032:
 2560              	.LBB1028:
 2561              	.LBB1024:
  32:../../libs/PoliTeKDSP/libs/libDaisy/src/hid/disp/graphics_common.h ****     {
 2562              		.loc 13 32 66 view .LVU558
 2563 02be 4C80     		strh	r4, [r1, #2]	@ movhi
 2564              	.LBE1024:
 2565              	.LBE1028:
 2566              	.LBE1032:
 2567              	.LBE1129:
 2568              	.LBE1207:
 473:../../libs/PoliTeKDSP/libs/libDaisy/src/hid/disp/display.h ****         ((ChildType*)(this))->ChildType::WriteString(str, font, on);
 2569              		.loc 11 473 18 view .LVU559
 2570 02c0 A4B2     		uxth	r4, r4
 2571              	.LBB1208:
 2572              	.LBB1130:
ARM GAS  C:\Users\skipi\AppData\Local\Temp\ccs8qXFk.s 			page 83


 216:../../libs/PoliTeKDSP/libs/libDaisy/src/hid/disp/graphics_common.h ****                         other.y_,
 2573              		.loc 13 216 50 view .LVU560
 2574 02c2 9FB2     		uxth	r7, r3
 2575              	.LVL166:
 2576              	.LBB1033:
 2577              	.LBI1019:
  31:../../libs/PoliTeKDSP/libs/libDaisy/src/hid/disp/graphics_common.h ****     : x_(x), y_(y), width_(max(0, width)), height_(max(0, height))
 2578              		.loc 13 31 5 is_stmt 1 view .LVU561
 2579              	.LBB1029:
 2580              	.LBB1025:
 2581              	.LBB1022:
 2582              	.LBI1022:
 2583              		.loc 13 261 13 view .LVU562
 2584              	.LBE1022:
 2585              	.LBE1025:
 2586              	.LBE1029:
 2587              	.LBE1033:
 2588              	.LBE1130:
 2589              	.LBE1208:
 2590              		.loc 13 261 41 view .LVU563
 2591              	.LBB1209:
 2592              	.LBB1131:
 2593              	.LBB1034:
 2594              	.LBB1030:
 2595              	.LBB1026:
 2596              	.LBB1023:
 2597              	.LBI1023:
 2598              		.loc 13 261 13 view .LVU564
 2599              	.LBE1023:
 2600              	.LBE1026:
 2601              	.LBE1030:
 2602              	.LBE1034:
 2603              	.LBE1131:
 2604              	.LBE1209:
 2605              		.loc 13 261 41 view .LVU565
 2606              	.LBB1210:
 2607              	.LBB1132:
 2608              	.LBB1035:
 2609              	.LBB1031:
 2610              	.LBB1027:
  32:../../libs/PoliTeKDSP/libs/libDaisy/src/hid/disp/graphics_common.h ****     {
 2611              		.loc 13 32 66 is_stmt 0 view .LVU566
 2612 02c4 CA80     		strh	r2, [r1, #6]	@ movhi
 2613 02c6 0F80     		strh	r7, [r1]	@ movhi
 2614              	.LBE1027:
  34:../../libs/PoliTeKDSP/libs/libDaisy/src/hid/disp/graphics_common.h **** 
 2615              		.loc 13 34 5 view .LVU567
 2616 02c8 DCE6     		b	.L134
 2617              	.LVL167:
 2618              	.L129:
  34:../../libs/PoliTeKDSP/libs/libDaisy/src/hid/disp/graphics_common.h **** 
 2619              		.loc 13 34 5 view .LVU568
 2620              	.LBE1031:
 2621              	.LBE1035:
 225:../../libs/PoliTeKDSP/libs/libDaisy/src/hid/disp/graphics_common.h ****                 return {other.x_,
 2622              		.loc 13 225 13 is_stmt 1 view .LVU569
 226:../../libs/PoliTeKDSP/libs/libDaisy/src/hid/disp/graphics_common.h ****                         int16_t(other.GetBottom() - height_),
ARM GAS  C:\Users\skipi\AppData\Local\Temp\ccs8qXFk.s 			page 84


 2623              		.loc 13 226 17 view .LVU570
 2624              	.LBB1036:
 2625              	.LBB1037:
  61:../../libs/PoliTeKDSP/libs/libDaisy/src/hid/disp/graphics_common.h ****     int16_t GetCenterX() const { return x_ + width_ / 2; }
 2626              		.loc 13 61 43 is_stmt 0 view .LVU571
 2627 02ca E788     		ldrh	r7, [r4, #6]
 2628 02cc 6188     		ldrh	r1, [r4, #2]
 2629              	.LVL168:
  61:../../libs/PoliTeKDSP/libs/libDaisy/src/hid/disp/graphics_common.h ****     int16_t GetCenterX() const { return x_ + width_ / 2; }
 2630              		.loc 13 61 43 view .LVU572
 2631 02ce 3944     		add	r1, r1, r7
 2632              	.LBE1037:
 2633              	.LBE1036:
 226:../../libs/PoliTeKDSP/libs/libDaisy/src/hid/disp/graphics_common.h ****                         int16_t(other.GetBottom() - height_),
 2634              		.loc 13 226 31 view .LVU573
 2635 02d0 B4F90070 		ldrsh	r7, [r4]
 227:../../libs/PoliTeKDSP/libs/libDaisy/src/hid/disp/graphics_common.h ****                         width_,
 2636              		.loc 13 227 51 view .LVU574
 2637 02d4 081A     		subs	r0, r1, r0
 2638              	.LVL169:
 2639              	.LBB1039:
 2640              	.LBI1036:
  61:../../libs/PoliTeKDSP/libs/libDaisy/src/hid/disp/graphics_common.h ****     int16_t GetCenterX() const { return x_ + width_ / 2; }
 2641              		.loc 13 61 13 is_stmt 1 view .LVU575
 2642              	.LBB1038:
  61:../../libs/PoliTeKDSP/libs/libDaisy/src/hid/disp/graphics_common.h ****     int16_t GetCenterX() const { return x_ + width_ / 2; }
 2643              		.loc 13 61 33 view .LVU576
  61:../../libs/PoliTeKDSP/libs/libDaisy/src/hid/disp/graphics_common.h ****     int16_t GetCenterX() const { return x_ + width_ / 2; }
 2644              		.loc 13 61 33 is_stmt 0 view .LVU577
 2645              	.LBE1038:
 2646              	.LBE1039:
 2647              	.LBB1040:
 2648              	.LBB1041:
 2649              	.LBB1042:
  32:../../libs/PoliTeKDSP/libs/libDaisy/src/hid/disp/graphics_common.h ****     {
 2650              		.loc 13 32 66 view .LVU578
 2651 02d6 0699     		ldr	r1, [sp, #24]
 2652              	.LBE1042:
 2653              	.LBE1041:
 2654              	.LBE1040:
 227:../../libs/PoliTeKDSP/libs/libDaisy/src/hid/disp/graphics_common.h ****                         width_,
 2655              		.loc 13 227 51 view .LVU579
 2656 02d8 84B2     		uxth	r4, r0
 2657              	.LVL170:
 2658              	.LBB1052:
 2659              	.LBB1048:
 2660              	.LBB1045:
  32:../../libs/PoliTeKDSP/libs/libDaisy/src/hid/disp/graphics_common.h ****     {
 2661              		.loc 13 32 66 view .LVU580
 2662 02da 0F80     		strh	r7, [r1]	@ movhi
 2663 02dc 8B80     		strh	r3, [r1, #4]	@ movhi
 2664              	.LVL171:
  32:../../libs/PoliTeKDSP/libs/libDaisy/src/hid/disp/graphics_common.h ****     {
 2665              		.loc 13 32 66 view .LVU581
 2666              	.LBE1045:
 2667              	.LBE1048:
 2668              	.LBI1040:
ARM GAS  C:\Users\skipi\AppData\Local\Temp\ccs8qXFk.s 			page 85


  31:../../libs/PoliTeKDSP/libs/libDaisy/src/hid/disp/graphics_common.h ****     : x_(x), y_(y), width_(max(0, width)), height_(max(0, height))
 2669              		.loc 13 31 5 is_stmt 1 view .LVU582
 2670              	.LBE1052:
 2671              	.LBE1132:
 2672              	.LBE1210:
 473:../../libs/PoliTeKDSP/libs/libDaisy/src/hid/disp/display.h ****         ((ChildType*)(this))->ChildType::WriteString(str, font, on);
 2673              		.loc 11 473 18 is_stmt 0 view .LVU583
 2674 02de BFB2     		uxth	r7, r7
 2675              	.LVL172:
 2676              	.LBB1211:
 2677              	.LBB1133:
 2678              	.LBB1053:
 2679              	.LBB1049:
 2680              	.LBB1046:
  32:../../libs/PoliTeKDSP/libs/libDaisy/src/hid/disp/graphics_common.h ****     {
 2681              		.loc 13 32 66 view .LVU584
 2682 02e0 CA80     		strh	r2, [r1, #6]	@ movhi
 2683 02e2 4C80     		strh	r4, [r1, #2]	@ movhi
 2684              	.LVL173:
 2685              	.LBB1043:
 2686              	.LBI1043:
 2687              		.loc 13 261 13 is_stmt 1 view .LVU585
 2688              	.LBE1043:
 2689              	.LBE1046:
 2690              	.LBE1049:
 2691              	.LBE1053:
 2692              	.LBE1133:
 2693              	.LBE1211:
 2694              		.loc 13 261 41 view .LVU586
 2695              	.LBB1212:
 2696              	.LBB1134:
 2697              	.LBB1054:
 2698              	.LBB1050:
 2699              	.LBB1047:
 2700              	.LBB1044:
 2701              	.LBI1044:
 2702              		.loc 13 261 13 view .LVU587
 2703              	.LBE1044:
 2704              	.LBE1047:
 2705              	.LBE1050:
 2706              	.LBE1054:
 2707              	.LBE1134:
 2708              	.LBE1212:
 2709              		.loc 13 261 41 view .LVU588
 2710              	.LBB1213:
 2711              	.LBB1135:
 2712              	.LBB1055:
 2713              	.LBB1051:
  34:../../libs/PoliTeKDSP/libs/libDaisy/src/hid/disp/graphics_common.h **** 
 2714              		.loc 13 34 5 is_stmt 0 view .LVU589
 2715 02e4 CEE6     		b	.L134
 2716              	.LVL174:
 2717              	.L128:
  34:../../libs/PoliTeKDSP/libs/libDaisy/src/hid/disp/graphics_common.h **** 
 2718              		.loc 13 34 5 view .LVU590
 2719              	.LBE1051:
 2720              	.LBE1055:
ARM GAS  C:\Users\skipi\AppData\Local\Temp\ccs8qXFk.s 			page 86


 235:../../libs/PoliTeKDSP/libs/libDaisy/src/hid/disp/graphics_common.h ****                 return {int16_t(x_ + (other.GetCenterX() - GetCenterX())),
 2721              		.loc 13 235 13 is_stmt 1 view .LVU591
 236:../../libs/PoliTeKDSP/libs/libDaisy/src/hid/disp/graphics_common.h ****                         int16_t(other.GetBottom() - height_),
 2722              		.loc 13 236 17 view .LVU592
 2723              	.LBB1056:
 2724              	.LBI1056:
  62:../../libs/PoliTeKDSP/libs/libDaisy/src/hid/disp/graphics_common.h ****     int16_t GetCenterY() const { return y_ + height_ / 2; }
 2725              		.loc 13 62 13 view .LVU593
 2726              	.LBB1057:
  62:../../libs/PoliTeKDSP/libs/libDaisy/src/hid/disp/graphics_common.h ****     int16_t GetCenterY() const { return y_ + height_ / 2; }
 2727              		.loc 13 62 34 view .LVU594
  62:../../libs/PoliTeKDSP/libs/libDaisy/src/hid/disp/graphics_common.h ****     int16_t GetCenterY() const { return y_ + height_ / 2; }
 2728              		.loc 13 62 34 is_stmt 0 view .LVU595
 2729              	.LBE1057:
 2730              	.LBE1056:
 2731              	.LBB1059:
 2732              	.LBI1059:
  62:../../libs/PoliTeKDSP/libs/libDaisy/src/hid/disp/graphics_common.h ****     int16_t GetCenterY() const { return y_ + height_ / 2; }
 2733              		.loc 13 62 13 is_stmt 1 view .LVU596
 2734              	.LBB1060:
  62:../../libs/PoliTeKDSP/libs/libDaisy/src/hid/disp/graphics_common.h ****     int16_t GetCenterY() const { return y_ + height_ / 2; }
 2735              		.loc 13 62 34 view .LVU597
  62:../../libs/PoliTeKDSP/libs/libDaisy/src/hid/disp/graphics_common.h ****     int16_t GetCenterY() const { return y_ + height_ / 2; }
 2736              		.loc 13 62 34 is_stmt 0 view .LVU598
 2737              	.LBE1060:
 2738              	.LBE1059:
 2739              	.LBB1061:
 2740              	.LBB1058:
  62:../../libs/PoliTeKDSP/libs/libDaisy/src/hid/disp/graphics_common.h ****     int16_t GetCenterY() const { return y_ + height_ / 2; }
 2741              		.loc 13 62 53 view .LVU599
 2742 02e6 B4F90410 		ldrsh	r1, [r4, #4]
 2743              	.LVL175:
  62:../../libs/PoliTeKDSP/libs/libDaisy/src/hid/disp/graphics_common.h ****     int16_t GetCenterY() const { return y_ + height_ / 2; }
 2744              		.loc 13 62 44 view .LVU600
 2745 02ea 2788     		ldrh	r7, [r4]
  62:../../libs/PoliTeKDSP/libs/libDaisy/src/hid/disp/graphics_common.h ****     int16_t GetCenterY() const { return y_ + height_ / 2; }
 2746              		.loc 13 62 53 view .LVU601
 2747 02ec 0029     		cmp	r1, #0
 2748 02ee B8BF     		it	lt
 2749 02f0 0131     		addlt	r1, r1, #1
  62:../../libs/PoliTeKDSP/libs/libDaisy/src/hid/disp/graphics_common.h ****     int16_t GetCenterY() const { return y_ + height_ / 2; }
 2750              		.loc 13 62 44 view .LVU602
 2751 02f2 07EB6107 		add	r7, r7, r1, asr #1
 2752              	.LBE1058:
 2753              	.LBE1061:
 236:../../libs/PoliTeKDSP/libs/libDaisy/src/hid/disp/graphics_common.h ****                         int16_t(other.GetBottom() - height_),
 2754              		.loc 13 236 58 view .LVU603
 2755 02f6 A7EB6307 		sub	r7, r7, r3, asr #1
 2756              	.L194:
 2757              	.LBB1062:
 2758              	.LBB1063:
  61:../../libs/PoliTeKDSP/libs/libDaisy/src/hid/disp/graphics_common.h ****     int16_t GetCenterX() const { return x_ + width_ / 2; }
 2759              		.loc 13 61 43 view .LVU604
 2760 02fa B4F802C0 		ldrh	ip, [r4, #2]
 2761              	.LBE1063:
 2762              	.LBE1062:
 236:../../libs/PoliTeKDSP/libs/libDaisy/src/hid/disp/graphics_common.h ****                         int16_t(other.GetBottom() - height_),
ARM GAS  C:\Users\skipi\AppData\Local\Temp\ccs8qXFk.s 			page 87


 2763              		.loc 13 236 58 view .LVU605
 2764 02fe BFB2     		uxth	r7, r7
 2765              	.LVL176:
 2766              	.LBB1066:
 2767              	.LBI1062:
  61:../../libs/PoliTeKDSP/libs/libDaisy/src/hid/disp/graphics_common.h ****     int16_t GetCenterX() const { return x_ + width_ / 2; }
 2768              		.loc 13 61 13 is_stmt 1 view .LVU606
 2769              	.LBB1064:
  61:../../libs/PoliTeKDSP/libs/libDaisy/src/hid/disp/graphics_common.h ****     int16_t GetCenterX() const { return x_ + width_ / 2; }
 2770              		.loc 13 61 33 view .LVU607
  61:../../libs/PoliTeKDSP/libs/libDaisy/src/hid/disp/graphics_common.h ****     int16_t GetCenterX() const { return x_ + width_ / 2; }
 2771              		.loc 13 61 43 is_stmt 0 view .LVU608
 2772 0300 E488     		ldrh	r4, [r4, #6]
 2773              	.LVL177:
  61:../../libs/PoliTeKDSP/libs/libDaisy/src/hid/disp/graphics_common.h ****     int16_t GetCenterX() const { return x_ + width_ / 2; }
 2774              		.loc 13 61 43 view .LVU609
 2775              	.LBE1064:
 2776              	.LBE1066:
 2777              	.LBB1067:
 2778              	.LBB1068:
 2779              	.LBB1069:
  32:../../libs/PoliTeKDSP/libs/libDaisy/src/hid/disp/graphics_common.h ****     {
 2780              		.loc 13 32 66 view .LVU610
 2781 0302 0699     		ldr	r1, [sp, #24]
 2782              	.LBE1069:
 2783              	.LBE1068:
 2784              	.LBE1067:
 2785              	.LBB1081:
 2786              	.LBB1065:
  61:../../libs/PoliTeKDSP/libs/libDaisy/src/hid/disp/graphics_common.h ****     int16_t GetCenterX() const { return x_ + width_ / 2; }
 2787              		.loc 13 61 43 view .LVU611
 2788 0304 6444     		add	r4, r4, ip
 2789              	.LBE1065:
 2790              	.LBE1081:
 2791              	.LBB1082:
 2792              	.LBB1076:
 2793              	.LBB1072:
  32:../../libs/PoliTeKDSP/libs/libDaisy/src/hid/disp/graphics_common.h ****     {
 2794              		.loc 13 32 66 view .LVU612
 2795 0306 8B80     		strh	r3, [r1, #4]	@ movhi
 2796              	.LBE1072:
 2797              	.LBE1076:
 2798              	.LBE1082:
 237:../../libs/PoliTeKDSP/libs/libDaisy/src/hid/disp/graphics_common.h ****                         width_,
 2799              		.loc 13 237 51 view .LVU613
 2800 0308 201A     		subs	r0, r4, r0
 2801              	.LBB1083:
 2802              	.LBB1077:
 2803              	.LBB1073:
  32:../../libs/PoliTeKDSP/libs/libDaisy/src/hid/disp/graphics_common.h ****     {
 2804              		.loc 13 32 66 view .LVU614
 2805 030a CA80     		strh	r2, [r1, #6]	@ movhi
 2806 030c 0F80     		strh	r7, [r1]	@ movhi
 2807              	.LBE1073:
 2808              	.LBE1077:
 2809              	.LBE1083:
 237:../../libs/PoliTeKDSP/libs/libDaisy/src/hid/disp/graphics_common.h ****                         width_,
ARM GAS  C:\Users\skipi\AppData\Local\Temp\ccs8qXFk.s 			page 88


 2810              		.loc 13 237 51 view .LVU615
 2811 030e 84B2     		uxth	r4, r0
 2812              	.LVL178:
 2813              	.LBB1084:
 2814              	.LBI1067:
  31:../../libs/PoliTeKDSP/libs/libDaisy/src/hid/disp/graphics_common.h ****     : x_(x), y_(y), width_(max(0, width)), height_(max(0, height))
 2815              		.loc 13 31 5 is_stmt 1 view .LVU616
 2816              	.LBB1078:
 2817              	.LBB1074:
  32:../../libs/PoliTeKDSP/libs/libDaisy/src/hid/disp/graphics_common.h ****     {
 2818              		.loc 13 32 66 is_stmt 0 view .LVU617
 2819 0310 4C80     		strh	r4, [r1, #2]	@ movhi
 2820              	.LVL179:
 2821              	.LBB1070:
 2822              	.LBI1070:
 2823              		.loc 13 261 13 is_stmt 1 view .LVU618
 2824              	.LBE1070:
 2825              	.LBE1074:
 2826              	.LBE1078:
 2827              	.LBE1084:
 2828              	.LBE1135:
 2829              	.LBE1213:
 2830              		.loc 13 261 41 view .LVU619
 2831              	.LBB1214:
 2832              	.LBB1136:
 2833              	.LBB1085:
 2834              	.LBB1079:
 2835              	.LBB1075:
 2836              	.LBB1071:
 2837              	.LBI1071:
 2838              		.loc 13 261 13 view .LVU620
 2839              	.LBE1071:
 2840              	.LBE1075:
 2841              	.LBE1079:
 2842              	.LBE1085:
 2843              	.LBE1136:
 2844              	.LBE1214:
 2845              		.loc 13 261 41 view .LVU621
 2846              	.LBB1215:
 2847              	.LBB1137:
 2848              	.LBB1086:
 2849              	.LBB1080:
  34:../../libs/PoliTeKDSP/libs/libDaisy/src/hid/disp/graphics_common.h **** 
 2850              		.loc 13 34 5 is_stmt 0 view .LVU622
 2851 0312 B7E6     		b	.L134
 2852              	.LVL180:
 2853              	.L127:
  34:../../libs/PoliTeKDSP/libs/libDaisy/src/hid/disp/graphics_common.h **** 
 2854              		.loc 13 34 5 view .LVU623
 2855              	.LBE1080:
 2856              	.LBE1086:
 230:../../libs/PoliTeKDSP/libs/libDaisy/src/hid/disp/graphics_common.h ****                 return {int16_t(other.GetRight() - width_),
 2857              		.loc 13 230 13 is_stmt 1 view .LVU624
 231:../../libs/PoliTeKDSP/libs/libDaisy/src/hid/disp/graphics_common.h ****                         int16_t(other.GetBottom() - height_),
 2858              		.loc 13 231 17 view .LVU625
 2859              	.LBB1087:
 2860              	.LBI1087:
ARM GAS  C:\Users\skipi\AppData\Local\Temp\ccs8qXFk.s 			page 89


  60:../../libs/PoliTeKDSP/libs/libDaisy/src/hid/disp/graphics_common.h ****     int16_t GetBottom() const { return y_ + height_; }
 2861              		.loc 13 60 13 view .LVU626
 2862              	.LBB1088:
  60:../../libs/PoliTeKDSP/libs/libDaisy/src/hid/disp/graphics_common.h ****     int16_t GetBottom() const { return y_ + height_; }
 2863              		.loc 13 60 32 view .LVU627
  60:../../libs/PoliTeKDSP/libs/libDaisy/src/hid/disp/graphics_common.h ****     int16_t GetBottom() const { return y_ + height_; }
 2864              		.loc 13 60 42 is_stmt 0 view .LVU628
 2865 0314 2788     		ldrh	r7, [r4]
 2866 0316 A188     		ldrh	r1, [r4, #4]
 2867              	.LVL181:
  60:../../libs/PoliTeKDSP/libs/libDaisy/src/hid/disp/graphics_common.h ****     int16_t GetBottom() const { return y_ + height_; }
 2868              		.loc 13 60 42 view .LVU629
 2869 0318 0F44     		add	r7, r7, r1
 2870              	.LBE1088:
 2871              	.LBE1087:
 231:../../libs/PoliTeKDSP/libs/libDaisy/src/hid/disp/graphics_common.h ****                         int16_t(other.GetBottom() - height_),
 2872              		.loc 13 231 50 view .LVU630
 2873 031a FF1A     		subs	r7, r7, r3
 2874 031c EDE7     		b	.L194
 2875              	.L207:
 2876 031e 00BF     		.align	2
 2877              	.L206:
 2878 0320 00000000 		.word	_ZNK5daisy11OledDisplayINS_13SSD130xDriverILj128ELj64ENS_19SSD130xI2CTransportEEEE5WidthEv
 2879 0324 00000000 		.word	_ZNK5daisy11OledDisplayINS_13SSD130xDriverILj128ELj64ENS_19SSD130xI2CTransportEEEE6HeightEv
 2880              	.LVL182:
 2881              	.L126:
 240:../../libs/PoliTeKDSP/libs/libDaisy/src/hid/disp/graphics_common.h ****                 return {other.x_,
 2882              		.loc 13 240 13 is_stmt 1 view .LVU631
 241:../../libs/PoliTeKDSP/libs/libDaisy/src/hid/disp/graphics_common.h ****                         int16_t(y_ + (other.GetCenterY() - GetCenterY())),
 2883              		.loc 13 241 17 view .LVU632
 2884              	.LBB1089:
 2885              	.LBB1090:
  63:../../libs/PoliTeKDSP/libs/libDaisy/src/hid/disp/graphics_common.h **** 
 2886              		.loc 13 63 54 is_stmt 0 view .LVU633
 2887 0328 B4F90610 		ldrsh	r1, [r4, #6]
 2888              	.LVL183:
  63:../../libs/PoliTeKDSP/libs/libDaisy/src/hid/disp/graphics_common.h **** 
 2889              		.loc 13 63 44 view .LVU634
 2890 032c B4F802C0 		ldrh	ip, [r4, #2]
  63:../../libs/PoliTeKDSP/libs/libDaisy/src/hid/disp/graphics_common.h **** 
 2891              		.loc 13 63 54 view .LVU635
 2892 0330 0029     		cmp	r1, #0
 2893              	.LBE1090:
 2894              	.LBE1089:
 241:../../libs/PoliTeKDSP/libs/libDaisy/src/hid/disp/graphics_common.h ****                         int16_t(y_ + (other.GetCenterY() - GetCenterY())),
 2895              		.loc 13 241 31 view .LVU636
 2896 0332 B4F90070 		ldrsh	r7, [r4]
 2897              	.LVL184:
 2898              	.LBB1094:
 2899              	.LBI1089:
  63:../../libs/PoliTeKDSP/libs/libDaisy/src/hid/disp/graphics_common.h **** 
 2900              		.loc 13 63 13 is_stmt 1 view .LVU637
 2901              	.LBB1091:
  63:../../libs/PoliTeKDSP/libs/libDaisy/src/hid/disp/graphics_common.h **** 
 2902              		.loc 13 63 34 view .LVU638
  63:../../libs/PoliTeKDSP/libs/libDaisy/src/hid/disp/graphics_common.h **** 
 2903              		.loc 13 63 34 is_stmt 0 view .LVU639
ARM GAS  C:\Users\skipi\AppData\Local\Temp\ccs8qXFk.s 			page 90


 2904              	.LBE1091:
 2905              	.LBE1094:
 2906              	.LBB1095:
 2907              	.LBI1095:
  63:../../libs/PoliTeKDSP/libs/libDaisy/src/hid/disp/graphics_common.h **** 
 2908              		.loc 13 63 13 is_stmt 1 view .LVU640
 2909              	.LBB1096:
  63:../../libs/PoliTeKDSP/libs/libDaisy/src/hid/disp/graphics_common.h **** 
 2910              		.loc 13 63 34 view .LVU641
  63:../../libs/PoliTeKDSP/libs/libDaisy/src/hid/disp/graphics_common.h **** 
 2911              		.loc 13 63 34 is_stmt 0 view .LVU642
 2912              	.LBE1096:
 2913              	.LBE1095:
 2914              	.LBB1097:
 2915              	.LBB1098:
 2916              	.LBB1099:
  32:../../libs/PoliTeKDSP/libs/libDaisy/src/hid/disp/graphics_common.h ****     {
 2917              		.loc 13 32 66 view .LVU643
 2918 0336 0698     		ldr	r0, [sp, #24]
 2919              	.LBE1099:
 2920              	.LBE1098:
 2921              	.LBE1097:
 2922              	.LBB1111:
 2923              	.LBB1092:
  63:../../libs/PoliTeKDSP/libs/libDaisy/src/hid/disp/graphics_common.h **** 
 2924              		.loc 13 63 54 view .LVU644
 2925 0338 B8BF     		it	lt
 2926 033a 0131     		addlt	r1, r1, #1
 2927              	.LBE1092:
 2928              	.LBE1111:
 2929              	.LBB1112:
 2930              	.LBB1106:
 2931              	.LBB1102:
  32:../../libs/PoliTeKDSP/libs/libDaisy/src/hid/disp/graphics_common.h ****     {
 2932              		.loc 13 32 66 view .LVU645
 2933 033c C280     		strh	r2, [r0, #6]	@ movhi
 2934              	.LBE1102:
 2935              	.LBE1106:
 2936              	.LBE1112:
 2937              	.LBB1113:
 2938              	.LBB1093:
  63:../../libs/PoliTeKDSP/libs/libDaisy/src/hid/disp/graphics_common.h **** 
 2939              		.loc 13 63 44 view .LVU646
 2940 033e 0CEB6104 		add	r4, ip, r1, asr #1
 2941              	.LVL185:
  63:../../libs/PoliTeKDSP/libs/libDaisy/src/hid/disp/graphics_common.h **** 
 2942              		.loc 13 63 44 view .LVU647
 2943              	.LBE1093:
 2944              	.LBE1113:
 2945              	.LBB1114:
 2946              	.LBB1107:
 2947              	.LBB1103:
  32:../../libs/PoliTeKDSP/libs/libDaisy/src/hid/disp/graphics_common.h ****     {
 2948              		.loc 13 32 66 view .LVU648
 2949 0342 0780     		strh	r7, [r0]	@ movhi
 2950 0344 8380     		strh	r3, [r0, #4]	@ movhi
 2951              	.LBE1103:
ARM GAS  C:\Users\skipi\AppData\Local\Temp\ccs8qXFk.s 			page 91


 2952              	.LBE1107:
 2953              	.LBE1114:
 2954              	.LBE1137:
 2955              	.LBE1215:
 473:../../libs/PoliTeKDSP/libs/libDaisy/src/hid/disp/display.h ****         ((ChildType*)(this))->ChildType::WriteString(str, font, on);
 2956              		.loc 11 473 18 view .LVU649
 2957 0346 BFB2     		uxth	r7, r7
 2958              	.LBB1216:
 2959              	.LBB1138:
 242:../../libs/PoliTeKDSP/libs/libDaisy/src/hid/disp/graphics_common.h ****                         width_,
 2960              		.loc 13 242 58 view .LVU650
 2961 0348 A4EB5202 		sub	r2, r4, r2, lsr #1
 2962 034c 94B2     		uxth	r4, r2
 2963              	.LVL186:
 2964              	.LBB1115:
 2965              	.LBI1097:
  31:../../libs/PoliTeKDSP/libs/libDaisy/src/hid/disp/graphics_common.h ****     : x_(x), y_(y), width_(max(0, width)), height_(max(0, height))
 2966              		.loc 13 31 5 is_stmt 1 view .LVU651
 2967              	.LBB1108:
 2968              	.LBB1104:
  32:../../libs/PoliTeKDSP/libs/libDaisy/src/hid/disp/graphics_common.h ****     {
 2969              		.loc 13 32 66 is_stmt 0 view .LVU652
 2970 034e 4480     		strh	r4, [r0, #2]	@ movhi
 2971              	.LVL187:
 2972              	.LBB1100:
 2973              	.LBI1100:
 2974              		.loc 13 261 13 is_stmt 1 view .LVU653
 2975              	.LBE1100:
 2976              	.LBE1104:
 2977              	.LBE1108:
 2978              	.LBE1115:
 2979              	.LBE1138:
 2980              	.LBE1216:
 2981              		.loc 13 261 41 view .LVU654
 2982              	.LBB1217:
 2983              	.LBB1139:
 2984              	.LBB1116:
 2985              	.LBB1109:
 2986              	.LBB1105:
 2987              	.LBB1101:
 2988              	.LBI1101:
 2989              		.loc 13 261 13 view .LVU655
 2990              	.LBE1101:
 2991              	.LBE1105:
 2992              	.LBE1109:
 2993              	.LBE1116:
 2994              	.LBE1139:
 2995              	.LBE1217:
 2996              		.loc 13 261 41 view .LVU656
 2997              	.LBB1218:
 2998              	.LBB1140:
 2999              	.LBB1117:
 3000              	.LBB1110:
  34:../../libs/PoliTeKDSP/libs/libDaisy/src/hid/disp/graphics_common.h **** 
 3001              		.loc 13 34 5 is_stmt 0 view .LVU657
 3002 0350 98E6     		b	.L134
 3003              	.LVL188:
ARM GAS  C:\Users\skipi\AppData\Local\Temp\ccs8qXFk.s 			page 92


 3004              	.L154:
  34:../../libs/PoliTeKDSP/libs/libDaisy/src/hid/disp/graphics_common.h **** 
 3005              		.loc 13 34 5 view .LVU658
 3006              	.LBE1110:
 3007              	.LBE1117:
 3008              	.LBE1140:
 3009              	.LBE1218:
 3010              	.LBB1219:
 3011              	.LBB1197:
 3012              	.LBB1194:
 3013              	.LBB1193:
 407:../../libs/PoliTeKDSP/libs/libDaisy/src/hid/disp/display.h **** 
 3014              		.loc 11 407 20 view .LVU659
 3015 0352 4FF0000B 		mov	fp, #0
 3016              	.LVL189:
 407:../../libs/PoliTeKDSP/libs/libDaisy/src/hid/disp/display.h **** 
 3017              		.loc 11 407 20 view .LVU660
 3018 0356 69E7     		b	.L152
 3019              	.LVL190:
 3020              	.L199:
 410:../../libs/PoliTeKDSP/libs/libDaisy/src/hid/disp/display.h ****            || Height() < (currentY_ + font.FontHeight))
 3021              		.loc 11 410 17 view .LVU661
 3022 0358 4046     		mov	r0, r8
 3023 035a 9847     		blx	r3
 3024              	.LVL191:
 3025 035c D3E6     		b	.L153
 3026              	.L200:
 411:../../libs/PoliTeKDSP/libs/libDaisy/src/hid/disp/display.h ****         {
 3027              		.loc 11 411 21 view .LVU662
 3028 035e 4046     		mov	r0, r8
 3029 0360 9847     		blx	r3
 3030              	.LVL192:
 3031 0362 DEE6     		b	.L155
 3032              	.LVL193:
 3033              	.L204:
 3034              	.LBB1191:
 3035              	.LBB1187:
 174:../../libs/PoliTeKDSP/libs/libDaisy/src/hid/disp/display.h ****     }
 3036              		.loc 11 174 33 view .LVU663
 3037 0364 4046     		mov	r0, r8
 3038 0366 9847     		blx	r3
 3039              	.LVL194:
 3040 0368 51E7     		b	.L169
 3041              	.LVL195:
 3042              	.L202:
 173:../../libs/PoliTeKDSP/libs/libDaisy/src/hid/disp/display.h ****         currentY_ = (y >= Height()) ? Height() - 1 : y;
 3043              		.loc 11 173 32 view .LVU664
 3044 036a 4046     		mov	r0, r8
 3045 036c 9847     		blx	r3
 3046              	.LVL196:
 173:../../libs/PoliTeKDSP/libs/libDaisy/src/hid/disp/display.h ****         currentY_ = (y >= Height()) ? Height() - 1 : y;
 3047              		.loc 11 173 44 view .LVU665
 3048 036e D8F80020 		ldr	r2, [r8]
 3049 0372 3CE7     		b	.L166
 3050              	.LVL197:
 3051              	.L156:
 173:../../libs/PoliTeKDSP/libs/libDaisy/src/hid/disp/display.h ****         currentY_ = (y >= Height()) ? Height() - 1 : y;
ARM GAS  C:\Users\skipi\AppData\Local\Temp\ccs8qXFk.s 			page 93


 3052              		.loc 11 173 44 view .LVU666
 3053              	.LBE1187:
 3054              	.LBE1191:
 439:../../libs/PoliTeKDSP/libs/libDaisy/src/hid/disp/display.h **** 
 3055              		.loc 11 439 19 view .LVU667
 3056 0374 B8F804A0 		ldrh	r10, [r8, #4]
 3057 0378 2EE7     		b	.L158
 3058              	.LVL198:
 3059              	.L205:
 3060              	.LBB1192:
 3061              	.LBB1188:
 174:../../libs/PoliTeKDSP/libs/libDaisy/src/hid/disp/display.h ****     }
 3062              		.loc 11 174 45 view .LVU668
 3063 037a 4046     		mov	r0, r8
 3064 037c 9847     		blx	r3
 3065              	.LVL199:
 174:../../libs/PoliTeKDSP/libs/libDaisy/src/hid/disp/display.h ****     }
 3066              		.loc 11 174 19 view .LVU669
 3067 037e 0138     		subs	r0, r0, #1
 3068 0380 83B2     		uxth	r3, r0
 3069 0382 0293     		str	r3, [sp, #8]
 3070              	.LVL200:
 174:../../libs/PoliTeKDSP/libs/libDaisy/src/hid/disp/display.h ****     }
 3071              		.loc 11 174 19 view .LVU670
 3072 0384 4FE7     		b	.L170
 3073              	.LVL201:
 3074              	.L203:
 173:../../libs/PoliTeKDSP/libs/libDaisy/src/hid/disp/display.h ****         currentY_ = (y >= Height()) ? Height() - 1 : y;
 3075              		.loc 11 173 43 view .LVU671
 3076 0386 4046     		mov	r0, r8
 3077 0388 9847     		blx	r3
 3078              	.LVL202:
 173:../../libs/PoliTeKDSP/libs/libDaisy/src/hid/disp/display.h ****         currentY_ = (y >= Height()) ? Height() - 1 : y;
 3079              		.loc 11 173 19 view .LVU672
 3080 038a 0138     		subs	r0, r0, #1
 174:../../libs/PoliTeKDSP/libs/libDaisy/src/hid/disp/display.h ****     }
 3081              		.loc 11 174 34 view .LVU673
 3082 038c D8F80020 		ldr	r2, [r8]
 173:../../libs/PoliTeKDSP/libs/libDaisy/src/hid/disp/display.h ****         currentY_ = (y >= Height()) ? Height() - 1 : y;
 3083              		.loc 11 173 19 view .LVU674
 3084 0390 85B2     		uxth	r5, r0
 3085              	.LVL203:
 173:../../libs/PoliTeKDSP/libs/libDaisy/src/hid/disp/display.h ****         currentY_ = (y >= Height()) ? Height() - 1 : y;
 3086              		.loc 11 173 19 view .LVU675
 3087 0392 34E7     		b	.L167
 3088              	.LVL204:
 3089              	.L123:
 173:../../libs/PoliTeKDSP/libs/libDaisy/src/hid/disp/display.h ****         currentY_ = (y >= Height()) ? Height() - 1 : y;
 3090              		.loc 11 173 19 view .LVU676
 3091              	.LBE1188:
 3092              	.LBE1192:
 3093              	.LBE1193:
 3094              	.LBE1194:
 3095              	.LBE1197:
 3096              	.LBE1219:
 3097              	.LBB1220:
 3098              	.LBB1141:
ARM GAS  C:\Users\skipi\AppData\Local\Temp\ccs8qXFk.s 			page 94


 255:../../libs/PoliTeKDSP/libs/libDaisy/src/hid/disp/graphics_common.h ****         }
 3099              		.loc 13 255 13 is_stmt 1 view .LVU677
 255:../../libs/PoliTeKDSP/libs/libDaisy/src/hid/disp/graphics_common.h ****         }
 3100              		.loc 13 255 22 view .LVU678
 3101              	.LBB1118:
 3102              	.LBI1118:
  24:../../libs/PoliTeKDSP/libs/libDaisy/src/hid/disp/graphics_common.h **** 
 3103              		.loc 13 24 5 view .LVU679
 3104              	.LBE1118:
 3105              	.LBE1141:
 3106              	.LBE1220:
 3107              	.LBB1221:
 3108              	.LBB1147:
 173:../../libs/PoliTeKDSP/libs/libDaisy/src/hid/disp/display.h ****         currentY_ = (y >= Height()) ? Height() - 1 : y;
 3109              		.loc 11 173 33 is_stmt 0 view .LVU680
 3110 0394 D8F80030 		ldr	r3, [r8]
 3111              	.LBE1147:
 3112              	.LBE1221:
 3113              	.LBB1222:
 3114              	.LBB1142:
 3115              	.LBB1120:
 3116              	.LBB1119:
  24:../../libs/PoliTeKDSP/libs/libDaisy/src/hid/disp/graphics_common.h **** 
 3117              		.loc 13 24 53 view .LVU681
 3118 0398 0024     		movs	r4, #0
 3119              	.LVL205:
  24:../../libs/PoliTeKDSP/libs/libDaisy/src/hid/disp/graphics_common.h **** 
 3120              		.loc 13 24 53 view .LVU682
 3121 039a 069A     		ldr	r2, [sp, #24]
 3122 039c 1249     		ldr	r1, .L208
 3123              	.LVL206:
  24:../../libs/PoliTeKDSP/libs/libDaisy/src/hid/disp/graphics_common.h **** 
 3124              		.loc 13 24 53 view .LVU683
 3125 039e 1480     		strh	r4, [r2]	@ movhi
 3126 03a0 5480     		strh	r4, [r2, #2]	@ movhi
 3127 03a2 9480     		strh	r4, [r2, #4]	@ movhi
 3128 03a4 D480     		strh	r4, [r2, #6]	@ movhi
 3129              	.LVL207:
  24:../../libs/PoliTeKDSP/libs/libDaisy/src/hid/disp/graphics_common.h **** 
 3130              		.loc 13 24 53 view .LVU684
 3131              	.LBE1119:
 3132              	.LBE1120:
 3133              	.LBE1142:
 3134              	.LBE1222:
  56:../../libs/PoliTeKDSP/libs/libDaisy/src/hid/disp/graphics_common.h ****     int16_t GetY() const { return y_; }
 3135              		.loc 13 56 28 is_stmt 1 view .LVU685
  57:../../libs/PoliTeKDSP/libs/libDaisy/src/hid/disp/graphics_common.h ****     int16_t GetWidth() const { return width_; }
 3136              		.loc 13 57 28 view .LVU686
 3137              	.LBB1223:
 171:../../libs/PoliTeKDSP/libs/libDaisy/src/hid/disp/display.h ****     {
 3138              		.loc 11 171 10 view .LVU687
 3139              	.LBB1148:
 173:../../libs/PoliTeKDSP/libs/libDaisy/src/hid/disp/display.h ****         currentY_ = (y >= Height()) ? Height() - 1 : y;
 3140              		.loc 11 173 9 view .LVU688
 173:../../libs/PoliTeKDSP/libs/libDaisy/src/hid/disp/display.h ****         currentY_ = (y >= Height()) ? Height() - 1 : y;
 3141              		.loc 11 173 33 is_stmt 0 view .LVU689
 3142 03a6 DA68     		ldr	r2, [r3, #12]
ARM GAS  C:\Users\skipi\AppData\Local\Temp\ccs8qXFk.s 			page 95


 3143 03a8 0191     		str	r1, [sp, #4]
 3144 03aa 8A42     		cmp	r2, r1
 3145 03ac 05D0     		beq	.L141
 3146 03ae 2746     		mov	r7, r4
 3147              	.LVL208:
 3148              	.L142:
 173:../../libs/PoliTeKDSP/libs/libDaisy/src/hid/disp/display.h ****         currentY_ = (y >= Height()) ? Height() - 1 : y;
 3149              		.loc 11 173 32 view .LVU690
 3150 03b0 4046     		mov	r0, r8
 3151 03b2 9047     		blx	r2
 3152              	.LVL209:
 173:../../libs/PoliTeKDSP/libs/libDaisy/src/hid/disp/display.h ****         currentY_ = (y >= Height()) ? Height() - 1 : y;
 3153              		.loc 11 173 44 view .LVU691
 3154 03b4 D8F80030 		ldr	r3, [r8]
 3155 03b8 6EE6     		b	.L143
 3156              	.LVL210:
 3157              	.L141:
 174:../../libs/PoliTeKDSP/libs/libDaisy/src/hid/disp/display.h ****     }
 3158              		.loc 11 174 34 view .LVU692
 3159 03ba 9B68     		ldr	r3, [r3, #8]
 3160 03bc 0B4A     		ldr	r2, .L208+4
 173:../../libs/PoliTeKDSP/libs/libDaisy/src/hid/disp/display.h ****         currentY_ = (y >= Height()) ? Height() - 1 : y;
 3161              		.loc 11 173 19 view .LVU693
 3162 03be A8F80440 		strh	r4, [r8, #4]	@ movhi
 174:../../libs/PoliTeKDSP/libs/libDaisy/src/hid/disp/display.h ****     }
 3163              		.loc 11 174 9 is_stmt 1 view .LVU694
 3164 03c2 9342     		cmp	r3, r2
 3165 03c4 0392     		str	r2, [sp, #12]
 3166 03c6 3FF482AE 		beq	.L148
 3167              	.LVL211:
 3168              	.L174:
 174:../../libs/PoliTeKDSP/libs/libDaisy/src/hid/disp/display.h ****     }
 3169              		.loc 11 174 33 is_stmt 0 view .LVU695
 3170 03ca 4046     		mov	r0, r8
 3171 03cc 9847     		blx	r3
 3172              	.LVL212:
 3173 03ce 74E6     		b	.L146
 3174              	.L198:
 174:../../libs/PoliTeKDSP/libs/libDaisy/src/hid/disp/display.h ****     }
 3175              		.loc 11 174 45 view .LVU696
 3176 03d0 4046     		mov	r0, r8
 3177 03d2 9847     		blx	r3
 3178              	.LVL213:
 174:../../libs/PoliTeKDSP/libs/libDaisy/src/hid/disp/display.h ****     }
 3179              		.loc 11 174 19 view .LVU697
 3180 03d4 0138     		subs	r0, r0, #1
 3181 03d6 84B2     		uxth	r4, r0
 3182 03d8 79E6     		b	.L148
 3183              	.L197:
 173:../../libs/PoliTeKDSP/libs/libDaisy/src/hid/disp/display.h ****         currentY_ = (y >= Height()) ? Height() - 1 : y;
 3184              		.loc 11 173 43 view .LVU698
 3185 03da 4046     		mov	r0, r8
 3186 03dc 9047     		blx	r2
 3187              	.LVL214:
 173:../../libs/PoliTeKDSP/libs/libDaisy/src/hid/disp/display.h ****         currentY_ = (y >= Height()) ? Height() - 1 : y;
 3188              		.loc 11 173 19 view .LVU699
 3189 03de 0138     		subs	r0, r0, #1
ARM GAS  C:\Users\skipi\AppData\Local\Temp\ccs8qXFk.s 			page 96


 174:../../libs/PoliTeKDSP/libs/libDaisy/src/hid/disp/display.h ****     }
 3190              		.loc 11 174 34 view .LVU700
 3191 03e0 D8F80030 		ldr	r3, [r8]
 173:../../libs/PoliTeKDSP/libs/libDaisy/src/hid/disp/display.h ****         currentY_ = (y >= Height()) ? Height() - 1 : y;
 3192              		.loc 11 173 19 view .LVU701
 3193 03e4 87B2     		uxth	r7, r0
 3194 03e6 5FE6     		b	.L144
 3195              	.L209:
 3196              		.align	2
 3197              	.L208:
 3198 03e8 00000000 		.word	_ZNK5daisy11OledDisplayINS_13SSD130xDriverILj128ELj64ENS_19SSD130xI2CTransportEEEE5WidthEv
 3199 03ec 00000000 		.word	_ZNK5daisy11OledDisplayINS_13SSD130xDriverILj128ELj64ENS_19SSD130xI2CTransportEEEE6HeightEv
 3200              	.LBE1148:
 3201              	.LBE1223:
 3202              		.cfi_endproc
 3203              	.LFE2843:
 3205              		.section	.text._ZN5daisy11OledDisplayINS_13SSD130xDriverILj128ELj64ENS_19SSD130xI2CTransportEEEE9D
 3206              		.align	1
 3207              		.p2align 2,,3
 3208              		.weak	_ZN5daisy11OledDisplayINS_13SSD130xDriverILj128ELj64ENS_19SSD130xI2CTransportEEEE9DrawPixelE
 3209              		.syntax unified
 3210              		.thumb
 3211              		.thumb_func
 3212              		.fpu fpv5-d16
 3214              	_ZN5daisy11OledDisplayINS_13SSD130xDriverILj128ELj64ENS_19SSD130xI2CTransportEEEE9DrawPixelEjjb:
 3215              	.LVL215:
 3216              	.LFB2837:
  42:../../libs/PoliTeKDSP/libs/libDaisy/src/hid/disp/oled_display.h ****     {
 3217              		.loc 10 42 10 is_stmt 1 view -0
 3218              		.cfi_startproc
 3219              		@ args = 0, pretend = 0, frame = 0
 3220              		@ frame_needed = 0, uses_anonymous_args = 0
 3221              		@ link register save eliminated.
 3222              	.LBB1228:
 3223              	.LBI1228:
 361:../../libs/PoliTeKDSP/libs/libDaisy/src/dev/oled_ssd130x.h ****     {
 3224              		.loc 12 361 10 view .LVU703
 3225              	.LBB1229:
 363:../../libs/PoliTeKDSP/libs/libDaisy/src/dev/oled_ssd130x.h ****             return;
 3226              		.loc 12 363 9 is_stmt 0 view .LVU704
 3227 0000 7F29     		cmp	r1, #127
 3228 0002 1ED8     		bhi	.L210
 3229 0004 3F2A     		cmp	r2, #63
 3230 0006 1CD8     		bhi	.L210
 365:../../libs/PoliTeKDSP/libs/libDaisy/src/dev/oled_ssd130x.h ****             buffer_[x + (y / 8) * width] |= (1 << (y % 8));
 3231              		.loc 12 365 9 view .LVU705
 3232 0008 6BB1     		cbz	r3, .L212
 366:../../libs/PoliTeKDSP/libs/libDaisy/src/dev/oled_ssd130x.h ****         else
 3233              		.loc 12 366 28 view .LVU706
 3234 000a D308     		lsrs	r3, r2, #3
 3235              	.LVL216:
 366:../../libs/PoliTeKDSP/libs/libDaisy/src/dev/oled_ssd130x.h ****         else
 3236              		.loc 12 366 48 view .LVU707
 3237 000c 4FF0010C 		mov	ip, #1
 366:../../libs/PoliTeKDSP/libs/libDaisy/src/dev/oled_ssd130x.h ****         else
 3238              		.loc 12 366 54 view .LVU708
 3239 0010 02F00702 		and	r2, r2, #7
ARM GAS  C:\Users\skipi\AppData\Local\Temp\ccs8qXFk.s 			page 97


 3240              	.LVL217:
 366:../../libs/PoliTeKDSP/libs/libDaisy/src/dev/oled_ssd130x.h ****         else
 3241              		.loc 12 366 42 view .LVU709
 3242 0014 01EBC313 		add	r3, r1, r3, lsl #7
 366:../../libs/PoliTeKDSP/libs/libDaisy/src/dev/oled_ssd130x.h ****         else
 3243              		.loc 12 366 48 view .LVU710
 3244 0018 0CFA02F2 		lsl	r2, ip, r2
 366:../../libs/PoliTeKDSP/libs/libDaisy/src/dev/oled_ssd130x.h ****         else
 3245              		.loc 12 366 42 view .LVU711
 3246 001c C118     		adds	r1, r0, r3
 3247              	.LVL218:
 366:../../libs/PoliTeKDSP/libs/libDaisy/src/dev/oled_ssd130x.h ****         else
 3248              		.loc 12 366 42 view .LVU712
 3249 001e 0B7C     		ldrb	r3, [r1, #16]	@ zero_extendqisi2
 3250 0020 1A43     		orrs	r2, r2, r3
 3251 0022 0A74     		strb	r2, [r1, #16]
 3252 0024 7047     		bx	lr
 3253              	.LVL219:
 3254              	.L212:
 3255              	.LBB1230:
 3256              	.LBI1230:
 361:../../libs/PoliTeKDSP/libs/libDaisy/src/dev/oled_ssd130x.h ****     {
 3257              		.loc 12 361 10 is_stmt 1 view .LVU713
 3258              	.LBB1231:
 368:../../libs/PoliTeKDSP/libs/libDaisy/src/dev/oled_ssd130x.h ****     }
 3259              		.loc 12 368 28 is_stmt 0 view .LVU714
 3260 0026 D308     		lsrs	r3, r2, #3
 3261              	.LVL220:
 368:../../libs/PoliTeKDSP/libs/libDaisy/src/dev/oled_ssd130x.h ****     }
 3262              		.loc 12 368 49 view .LVU715
 3263 0028 4FF0010C 		mov	ip, #1
 368:../../libs/PoliTeKDSP/libs/libDaisy/src/dev/oled_ssd130x.h ****     }
 3264              		.loc 12 368 55 view .LVU716
 3265 002c 02F00702 		and	r2, r2, #7
 3266              	.LVL221:
 368:../../libs/PoliTeKDSP/libs/libDaisy/src/dev/oled_ssd130x.h ****     }
 3267              		.loc 12 368 42 view .LVU717
 3268 0030 01EBC313 		add	r3, r1, r3, lsl #7
 368:../../libs/PoliTeKDSP/libs/libDaisy/src/dev/oled_ssd130x.h ****     }
 3269              		.loc 12 368 49 view .LVU718
 3270 0034 0CFA02FC 		lsl	ip, ip, r2
 368:../../libs/PoliTeKDSP/libs/libDaisy/src/dev/oled_ssd130x.h ****     }
 3271              		.loc 12 368 42 view .LVU719
 3272 0038 C118     		adds	r1, r0, r3
 3273              	.LVL222:
 368:../../libs/PoliTeKDSP/libs/libDaisy/src/dev/oled_ssd130x.h ****     }
 3274              		.loc 12 368 42 view .LVU720
 3275 003a 0A7C     		ldrb	r2, [r1, #16]	@ zero_extendqisi2
 3276 003c 22EA0C02 		bic	r2, r2, ip
 3277 0040 0A74     		strb	r2, [r1, #16]
 3278              	.LVL223:
 3279              	.L210:
 368:../../libs/PoliTeKDSP/libs/libDaisy/src/dev/oled_ssd130x.h ****     }
 3280              		.loc 12 368 42 view .LVU721
 3281              	.LBE1231:
 3282              	.LBE1230:
 3283              	.LBE1229:
ARM GAS  C:\Users\skipi\AppData\Local\Temp\ccs8qXFk.s 			page 98


 3284              	.LBE1228:
  45:../../libs/PoliTeKDSP/libs/libDaisy/src/hid/disp/oled_display.h **** 
 3285              		.loc 10 45 5 view .LVU722
 3286 0042 7047     		bx	lr
 3287              		.cfi_endproc
 3288              	.LFE2837:
 3290              		.section	.text._ZN5daisy25OneBitGraphicsDisplayImplINS_11OledDisplayINS_13SSD130xDriverILj128ELj64
 3291              		.align	1
 3292              		.p2align 2,,3
 3293              		.weak	_ZN5daisy25OneBitGraphicsDisplayImplINS_11OledDisplayINS_13SSD130xDriverILj128ELj64ENS_19SSD
 3294              		.syntax unified
 3295              		.thumb
 3296              		.thumb_func
 3297              		.fpu fpv5-d16
 3299              	_ZN5daisy25OneBitGraphicsDisplayImplINS_11OledDisplayINS_13SSD130xDriverILj128ELj64ENS_19SSD130xI2C
 3300              	.LVL224:
 3301              	.LFB2838:
 226:../../libs/PoliTeKDSP/libs/libDaisy/src/hid/disp/display.h ****                   uint_fast8_t y1,
 3302              		.loc 11 226 10 is_stmt 1 view -0
 3303              		.cfi_startproc
 3304              		@ args = 8, pretend = 0, frame = 8
 3305              		@ frame_needed = 0, uses_anonymous_args = 0
 226:../../libs/PoliTeKDSP/libs/libDaisy/src/hid/disp/display.h ****                   uint_fast8_t y1,
 3306              		.loc 11 226 10 is_stmt 0 view .LVU724
 3307 0000 2DE9F04F 		push	{r4, r5, r6, r7, r8, r9, r10, fp, lr}
 3308              		.cfi_def_cfa_offset 36
 3309              		.cfi_offset 4, -36
 3310              		.cfi_offset 5, -32
 3311              		.cfi_offset 6, -28
 3312              		.cfi_offset 7, -24
 3313              		.cfi_offset 8, -20
 3314              		.cfi_offset 9, -16
 3315              		.cfi_offset 10, -12
 3316              		.cfi_offset 11, -8
 3317              		.cfi_offset 14, -4
 3318 0004 83B0     		sub	sp, sp, #12
 3319              		.cfi_def_cfa_offset 48
 232:../../libs/PoliTeKDSP/libs/libDaisy/src/hid/disp/display.h ****         int_fast16_t deltaY = abs((int_fast16_t)y2 - (int_fast16_t)y1);
 3320              		.loc 11 232 52 view .LVU725
 3321 0006 5C1A     		subs	r4, r3, r1
 226:../../libs/PoliTeKDSP/libs/libDaisy/src/hid/disp/display.h ****                   uint_fast8_t y1,
 3322              		.loc 11 226 10 view .LVU726
 3323 0008 0C9E     		ldr	r6, [sp, #48]
 232:../../libs/PoliTeKDSP/libs/libDaisy/src/hid/disp/display.h ****         int_fast16_t deltaY = abs((int_fast16_t)y2 - (int_fast16_t)y1);
 3324              		.loc 11 232 22 view .LVU727
 3325 000a 002C     		cmp	r4, #0
 226:../../libs/PoliTeKDSP/libs/libDaisy/src/hid/disp/display.h ****                   uint_fast8_t y1,
 3326              		.loc 11 226 10 view .LVU728
 3327 000c 9DF83490 		ldrb	r9, [sp, #52]	@ zero_extendqisi2
 233:../../libs/PoliTeKDSP/libs/libDaisy/src/hid/disp/display.h ****         int_fast16_t signX  = ((x1 < x2) ? 1 : -1);
 3328              		.loc 11 233 52 view .LVU729
 3329 0010 A6EB0208 		sub	r8, r6, r2
 232:../../libs/PoliTeKDSP/libs/libDaisy/src/hid/disp/display.h ****         int_fast16_t deltaY = abs((int_fast16_t)y2 - (int_fast16_t)y1);
 3330              		.loc 11 232 22 view .LVU730
 3331 0014 B8BF     		it	lt
 3332 0016 6442     		rsblt	r4, r4, #0
 3333              	.LVL225:
ARM GAS  C:\Users\skipi\AppData\Local\Temp\ccs8qXFk.s 			page 99


 233:../../libs/PoliTeKDSP/libs/libDaisy/src/hid/disp/display.h ****         int_fast16_t signX  = ((x1 < x2) ? 1 : -1);
 3334              		.loc 11 233 22 view .LVU731
 3335 0018 B8F1000F 		cmp	r8, #0
 3336 001c B8BF     		it	lt
 3337 001e C8F10008 		rsblt	r8, r8, #0
 3338              	.LVL226:
 234:../../libs/PoliTeKDSP/libs/libDaisy/src/hid/disp/display.h ****         int_fast16_t signY  = ((y1 < y2) ? 1 : -1);
 3339              		.loc 11 234 42 view .LVU732
 3340 0022 8B42     		cmp	r3, r1
 3341 0024 8CBF     		ite	hi
 3342 0026 4FF0010A 		movhi	r10, #1
 3343 002a 4FF0FF3A 		movls	r10, #-1
 3344              	.LVL227:
 235:../../libs/PoliTeKDSP/libs/libDaisy/src/hid/disp/display.h ****         int_fast16_t error  = deltaX - deltaY;
 3345              		.loc 11 235 42 view .LVU733
 3346 002e 9642     		cmp	r6, r2
 236:../../libs/PoliTeKDSP/libs/libDaisy/src/hid/disp/display.h ****         int_fast16_t error2;
 3347              		.loc 11 236 22 view .LVU734
 3348 0030 A4EB080C 		sub	ip, r4, r8
 235:../../libs/PoliTeKDSP/libs/libDaisy/src/hid/disp/display.h ****         int_fast16_t error  = deltaX - deltaY;
 3349              		.loc 11 235 42 view .LVU735
 3350 0034 51D8     		bhi	.L215
 3351              	.LVL228:
 3352              	.LBB1248:
 3353              	.LBI1248:
  42:../../libs/PoliTeKDSP/libs/libDaisy/src/hid/disp/oled_display.h ****     {
 3354              		.loc 10 42 10 is_stmt 1 discriminator 4 view .LVU736
 3355              	.LBB1249:
 3356              	.LBI1249:
 361:../../libs/PoliTeKDSP/libs/libDaisy/src/dev/oled_ssd130x.h ****     {
 3357              		.loc 12 361 10 discriminator 4 view .LVU737
 3358              	.LBE1249:
 3359              	.LBE1248:
 235:../../libs/PoliTeKDSP/libs/libDaisy/src/hid/disp/display.h ****         int_fast16_t error  = deltaX - deltaY;
 3360              		.loc 11 235 42 is_stmt 0 discriminator 4 view .LVU738
 3361 0036 4FF0FF35 		mov	r5, #-1
 3362              	.LBB1265:
 3363              	.LBB1259:
 3364              	.LBB1250:
 363:../../libs/PoliTeKDSP/libs/libDaisy/src/dev/oled_ssd130x.h ****             return;
 3365              		.loc 12 363 9 discriminator 4 view .LVU739
 3366 003a 7F2B     		cmp	r3, #127
 3367              	.LBE1250:
 3368              	.LBE1259:
 3369              	.LBE1265:
 235:../../libs/PoliTeKDSP/libs/libDaisy/src/hid/disp/display.h ****         int_fast16_t error  = deltaX - deltaY;
 3370              		.loc 11 235 42 discriminator 4 view .LVU740
 3371 003c 0195     		str	r5, [sp, #4]
 3372              	.LBB1266:
 3373              	.LBB1260:
 3374              	.LBB1255:
 363:../../libs/PoliTeKDSP/libs/libDaisy/src/dev/oled_ssd130x.h ****             return;
 3375              		.loc 12 363 9 discriminator 4 view .LVU741
 3376 003e 12D8     		bhi	.L216
 3377 0040 3F2E     		cmp	r6, #63
 3378 0042 10D8     		bhi	.L216
 3379              	.LVL229:
ARM GAS  C:\Users\skipi\AppData\Local\Temp\ccs8qXFk.s 			page 100


 3380              	.L227:
 366:../../libs/PoliTeKDSP/libs/libDaisy/src/dev/oled_ssd130x.h ****         else
 3381              		.loc 12 366 28 view .LVU742
 3382 0044 F508     		lsrs	r5, r6, #3
 366:../../libs/PoliTeKDSP/libs/libDaisy/src/dev/oled_ssd130x.h ****         else
 3383              		.loc 12 366 54 view .LVU743
 3384 0046 06F0070E 		and	lr, r6, #7
 366:../../libs/PoliTeKDSP/libs/libDaisy/src/dev/oled_ssd130x.h ****         else
 3385              		.loc 12 366 48 view .LVU744
 3386 004a 0127     		movs	r7, #1
 366:../../libs/PoliTeKDSP/libs/libDaisy/src/dev/oled_ssd130x.h ****         else
 3387              		.loc 12 366 42 view .LVU745
 3388 004c 03EBC515 		add	r5, r3, r5, lsl #7
 3389 0050 0544     		add	r5, r5, r0
 365:../../libs/PoliTeKDSP/libs/libDaisy/src/dev/oled_ssd130x.h ****             buffer_[x + (y / 8) * width] |= (1 << (y % 8));
 3390              		.loc 12 365 9 view .LVU746
 3391 0052 B9F1000F 		cmp	r9, #0
 3392 0056 47D0     		beq	.L217
 366:../../libs/PoliTeKDSP/libs/libDaisy/src/dev/oled_ssd130x.h ****         else
 3393              		.loc 12 366 48 view .LVU747
 3394 0058 07FA0EF7 		lsl	r7, r7, lr
 366:../../libs/PoliTeKDSP/libs/libDaisy/src/dev/oled_ssd130x.h ****         else
 3395              		.loc 12 366 42 view .LVU748
 3396 005c 95F810E0 		ldrb	lr, [r5, #16]	@ zero_extendqisi2
 3397 0060 47EA0E07 		orr	r7, r7, lr
 3398 0064 2F74     		strb	r7, [r5, #16]
 3399              	.LVL230:
 3400              	.L216:
 366:../../libs/PoliTeKDSP/libs/libDaisy/src/dev/oled_ssd130x.h ****         else
 3401              		.loc 12 366 42 view .LVU749
 3402              	.LBE1255:
 3403              	.LBE1260:
 3404              	.LBE1266:
 244:../../libs/PoliTeKDSP/libs/libDaisy/src/hid/disp/display.h ****         {
 3405              		.loc 11 244 26 is_stmt 1 view .LVU750
 3406 0066 9642     		cmp	r6, r2
 3407 0068 01D1     		bne	.L220
 3408              	.L239:
 244:../../libs/PoliTeKDSP/libs/libDaisy/src/hid/disp/display.h ****         {
 3409              		.loc 11 244 26 is_stmt 0 view .LVU751
 3410 006a 8B42     		cmp	r3, r1
 3411 006c 29D0     		beq	.L213
 3412              	.L220:
 3413              	.LVL231:
 248:../../libs/PoliTeKDSP/libs/libDaisy/src/hid/disp/display.h ****             {
 3414              		.loc 11 248 23 view .LVU752
 3415 006e C8F10007 		rsb	r7, r8, #0
 3416              	.L222:
 3417              	.LVL232:
 3418              	.LBB1267:
 3419              	.LBI1267:
  42:../../libs/PoliTeKDSP/libs/libDaisy/src/hid/disp/oled_display.h ****     {
 3420              		.loc 10 42 10 is_stmt 1 view .LVU753
 3421              	.LBB1268:
 3422              	.LBI1268:
 361:../../libs/PoliTeKDSP/libs/libDaisy/src/dev/oled_ssd130x.h ****     {
 3423              		.loc 12 361 10 view .LVU754
ARM GAS  C:\Users\skipi\AppData\Local\Temp\ccs8qXFk.s 			page 101


 3424              	.LBB1269:
 363:../../libs/PoliTeKDSP/libs/libDaisy/src/dev/oled_ssd130x.h ****             return;
 3425              		.loc 12 363 9 is_stmt 0 view .LVU755
 3426 0072 7F29     		cmp	r1, #127
 3427 0074 14D8     		bhi	.L223
 3428 0076 3F2A     		cmp	r2, #63
 3429 0078 12D8     		bhi	.L223
 366:../../libs/PoliTeKDSP/libs/libDaisy/src/dev/oled_ssd130x.h ****         else
 3430              		.loc 12 366 28 view .LVU756
 3431 007a D508     		lsrs	r5, r2, #3
 366:../../libs/PoliTeKDSP/libs/libDaisy/src/dev/oled_ssd130x.h ****         else
 3432              		.loc 12 366 54 view .LVU757
 3433 007c 02F0070B 		and	fp, r2, #7
 366:../../libs/PoliTeKDSP/libs/libDaisy/src/dev/oled_ssd130x.h ****         else
 3434              		.loc 12 366 48 view .LVU758
 3435 0080 4FF0010E 		mov	lr, #1
 366:../../libs/PoliTeKDSP/libs/libDaisy/src/dev/oled_ssd130x.h ****         else
 3436              		.loc 12 366 42 view .LVU759
 3437 0084 01EBC515 		add	r5, r1, r5, lsl #7
 3438 0088 0544     		add	r5, r5, r0
 365:../../libs/PoliTeKDSP/libs/libDaisy/src/dev/oled_ssd130x.h ****             buffer_[x + (y / 8) * width] |= (1 << (y % 8));
 3439              		.loc 12 365 9 view .LVU760
 3440 008a B9F1000F 		cmp	r9, #0
 3441 008e 1BD0     		beq	.L224
 366:../../libs/PoliTeKDSP/libs/libDaisy/src/dev/oled_ssd130x.h ****         else
 3442              		.loc 12 366 48 view .LVU761
 3443 0090 0EFA0BFE 		lsl	lr, lr, fp
 366:../../libs/PoliTeKDSP/libs/libDaisy/src/dev/oled_ssd130x.h ****         else
 3444              		.loc 12 366 42 view .LVU762
 3445 0094 95F810B0 		ldrb	fp, [r5, #16]	@ zero_extendqisi2
 3446 0098 4EEA0B0E 		orr	lr, lr, fp
 3447 009c 85F810E0 		strb	lr, [r5, #16]
 3448              	.L223:
 3449              	.LVL233:
 366:../../libs/PoliTeKDSP/libs/libDaisy/src/dev/oled_ssd130x.h ****         else
 3450              		.loc 12 366 42 view .LVU763
 3451              	.LBE1269:
 3452              	.LBE1268:
 3453              	.LBE1267:
 248:../../libs/PoliTeKDSP/libs/libDaisy/src/hid/disp/display.h ****             {
 3454              		.loc 11 248 13 view .LVU764
 3455 00a0 B7EB4C0F 		cmp	r7, ip, lsl #1
 247:../../libs/PoliTeKDSP/libs/libDaisy/src/hid/disp/display.h ****             if(error2 > -deltaY)
 3456              		.loc 11 247 20 view .LVU765
 3457 00a4 4FEA4C05 		lsl	r5, ip, #1
 3458              	.LVL234:
 248:../../libs/PoliTeKDSP/libs/libDaisy/src/hid/disp/display.h ****             {
 3459              		.loc 11 248 13 view .LVU766
 3460 00a8 02DA     		bge	.L225
 250:../../libs/PoliTeKDSP/libs/libDaisy/src/hid/disp/display.h ****                 x1 += signX;
 3461              		.loc 11 250 23 view .LVU767
 3462 00aa ACEB080C 		sub	ip, ip, r8
 3463              	.LVL235:
 251:../../libs/PoliTeKDSP/libs/libDaisy/src/hid/disp/display.h ****             }
 3464              		.loc 11 251 20 view .LVU768
 3465 00ae 5144     		add	r1, r1, r10
 3466              	.LVL236:
ARM GAS  C:\Users\skipi\AppData\Local\Temp\ccs8qXFk.s 			page 102


 3467              	.L225:
 254:../../libs/PoliTeKDSP/libs/libDaisy/src/hid/disp/display.h ****             {
 3468              		.loc 11 254 13 view .LVU769
 3469 00b0 AC42     		cmp	r4, r5
 3470 00b2 02DD     		ble	.L226
 257:../../libs/PoliTeKDSP/libs/libDaisy/src/hid/disp/display.h ****             }
 3471              		.loc 11 257 20 view .LVU770
 3472 00b4 019D     		ldr	r5, [sp, #4]
 3473              	.LVL237:
 256:../../libs/PoliTeKDSP/libs/libDaisy/src/hid/disp/display.h ****                 y1 += signY;
 3474              		.loc 11 256 23 view .LVU771
 3475 00b6 A444     		add	ip, ip, r4
 3476              	.LVL238:
 257:../../libs/PoliTeKDSP/libs/libDaisy/src/hid/disp/display.h ****             }
 3477              		.loc 11 257 20 view .LVU772
 3478 00b8 2A44     		add	r2, r2, r5
 3479              	.LVL239:
 3480              	.L226:
 244:../../libs/PoliTeKDSP/libs/libDaisy/src/hid/disp/display.h ****         {
 3481              		.loc 11 244 26 is_stmt 1 view .LVU773
 3482 00ba 9942     		cmp	r1, r3
 3483 00bc D9D1     		bne	.L222
 244:../../libs/PoliTeKDSP/libs/libDaisy/src/hid/disp/display.h ****         {
 3484              		.loc 11 244 26 is_stmt 0 view .LVU774
 3485 00be 9642     		cmp	r6, r2
 3486 00c0 D7D1     		bne	.L222
 3487              	.L213:
 260:../../libs/PoliTeKDSP/libs/libDaisy/src/hid/disp/display.h **** 
 3488              		.loc 11 260 5 view .LVU775
 3489 00c2 03B0     		add	sp, sp, #12
 3490              		.cfi_remember_state
 3491              		.cfi_def_cfa_offset 36
 3492              		@ sp needed
 3493 00c4 BDE8F08F 		pop	{r4, r5, r6, r7, r8, r9, r10, fp, pc}
 3494              	.LVL240:
 3495              	.L224:
 3496              		.cfi_restore_state
 3497              	.LBB1274:
 3498              	.LBB1273:
 3499              	.LBB1272:
 3500              	.LBB1270:
 3501              	.LBI1270:
 361:../../libs/PoliTeKDSP/libs/libDaisy/src/dev/oled_ssd130x.h ****     {
 3502              		.loc 12 361 10 is_stmt 1 view .LVU776
 3503              	.LBB1271:
 368:../../libs/PoliTeKDSP/libs/libDaisy/src/dev/oled_ssd130x.h ****     }
 3504              		.loc 12 368 49 is_stmt 0 view .LVU777
 3505 00c8 0EFA0BFB 		lsl	fp, lr, fp
 368:../../libs/PoliTeKDSP/libs/libDaisy/src/dev/oled_ssd130x.h ****     }
 3506              		.loc 12 368 42 view .LVU778
 3507 00cc 95F810E0 		ldrb	lr, [r5, #16]	@ zero_extendqisi2
 3508 00d0 2EEA0B0E 		bic	lr, lr, fp
 3509 00d4 85F810E0 		strb	lr, [r5, #16]
 3510 00d8 E2E7     		b	.L223
 3511              	.LVL241:
 3512              	.L215:
 368:../../libs/PoliTeKDSP/libs/libDaisy/src/dev/oled_ssd130x.h ****     }
ARM GAS  C:\Users\skipi\AppData\Local\Temp\ccs8qXFk.s 			page 103


 3513              		.loc 12 368 42 view .LVU779
 3514              	.LBE1271:
 3515              	.LBE1270:
 3516              	.LBE1272:
 3517              	.LBE1273:
 3518              	.LBE1274:
 3519              	.LBB1275:
  42:../../libs/PoliTeKDSP/libs/libDaisy/src/hid/disp/oled_display.h ****     {
 3520              		.loc 10 42 10 is_stmt 1 view .LVU780
 3521              	.LBB1261:
 361:../../libs/PoliTeKDSP/libs/libDaisy/src/dev/oled_ssd130x.h ****     {
 3522              		.loc 12 361 10 view .LVU781
 3523              	.LBE1261:
 3524              	.LBE1275:
 235:../../libs/PoliTeKDSP/libs/libDaisy/src/hid/disp/display.h ****         int_fast16_t error  = deltaX - deltaY;
 3525              		.loc 11 235 42 is_stmt 0 view .LVU782
 3526 00da 0125     		movs	r5, #1
 3527              	.LBB1276:
 3528              	.LBB1262:
 3529              	.LBB1256:
 363:../../libs/PoliTeKDSP/libs/libDaisy/src/dev/oled_ssd130x.h ****             return;
 3530              		.loc 12 363 9 view .LVU783
 3531 00dc 7F2B     		cmp	r3, #127
 3532              	.LBE1256:
 3533              	.LBE1262:
 3534              	.LBE1276:
 235:../../libs/PoliTeKDSP/libs/libDaisy/src/hid/disp/display.h ****         int_fast16_t error  = deltaX - deltaY;
 3535              		.loc 11 235 42 view .LVU784
 3536 00de 0195     		str	r5, [sp, #4]
 3537              	.LBB1277:
 3538              	.LBB1263:
 3539              	.LBB1257:
 363:../../libs/PoliTeKDSP/libs/libDaisy/src/dev/oled_ssd130x.h ****             return;
 3540              		.loc 12 363 9 view .LVU785
 3541 00e0 C5D8     		bhi	.L220
 3542 00e2 3F2E     		cmp	r6, #63
 3543 00e4 AED9     		bls	.L227
 3544 00e6 C2E7     		b	.L220
 3545              	.LVL242:
 3546              	.L217:
 3547              	.LBB1251:
 3548              	.LBI1251:
 361:../../libs/PoliTeKDSP/libs/libDaisy/src/dev/oled_ssd130x.h ****     {
 3549              		.loc 12 361 10 is_stmt 1 view .LVU786
 3550              	.LBB1252:
 368:../../libs/PoliTeKDSP/libs/libDaisy/src/dev/oled_ssd130x.h ****     }
 3551              		.loc 12 368 49 is_stmt 0 view .LVU787
 3552 00e8 07FA0EFE 		lsl	lr, r7, lr
 368:../../libs/PoliTeKDSP/libs/libDaisy/src/dev/oled_ssd130x.h ****     }
 3553              		.loc 12 368 42 view .LVU788
 3554 00ec 2F7C     		ldrb	r7, [r5, #16]	@ zero_extendqisi2
 3555              	.LBE1252:
 3556              	.LBE1251:
 3557              	.LBE1257:
 3558              	.LBE1263:
 3559              	.LBE1277:
 244:../../libs/PoliTeKDSP/libs/libDaisy/src/hid/disp/display.h ****         {
ARM GAS  C:\Users\skipi\AppData\Local\Temp\ccs8qXFk.s 			page 104


 3560              		.loc 11 244 26 view .LVU789
 3561 00ee 9642     		cmp	r6, r2
 3562              	.LBB1278:
 3563              	.LBB1264:
 3564              	.LBB1258:
 3565              	.LBB1254:
 3566              	.LBB1253:
 368:../../libs/PoliTeKDSP/libs/libDaisy/src/dev/oled_ssd130x.h ****     }
 3567              		.loc 12 368 42 view .LVU790
 3568 00f0 27EA0E07 		bic	r7, r7, lr
 3569 00f4 2F74     		strb	r7, [r5, #16]
 3570              	.LVL243:
 368:../../libs/PoliTeKDSP/libs/libDaisy/src/dev/oled_ssd130x.h ****     }
 3571              		.loc 12 368 42 view .LVU791
 3572              	.LBE1253:
 3573              	.LBE1254:
 3574              	.LBE1258:
 3575              	.LBE1264:
 3576              	.LBE1278:
 244:../../libs/PoliTeKDSP/libs/libDaisy/src/hid/disp/display.h ****         {
 3577              		.loc 11 244 26 is_stmt 1 view .LVU792
 3578 00f6 B8D0     		beq	.L239
 3579 00f8 B9E7     		b	.L220
 3580              		.cfi_endproc
 3581              	.LFE2838:
 3583 00fa 00BF     		.section	.text._ZN5daisy25OneBitGraphicsDisplayImplINS_11OledDisplayINS_13SSD130xDriverILj128ELj64
 3584              		.align	1
 3585              		.p2align 2,,3
 3586              		.weak	_ZN5daisy25OneBitGraphicsDisplayImplINS_11OledDisplayINS_13SSD130xDriverILj128ELj64ENS_19SSD
 3587              		.syntax unified
 3588              		.thumb
 3589              		.thumb_func
 3590              		.fpu fpv5-d16
 3592              	_ZN5daisy25OneBitGraphicsDisplayImplINS_11OledDisplayINS_13SSD130xDriverILj128ELj64ENS_19SSD130xI2C
 3593              	.LVL244:
 3594              	.LFB2840:
 288:../../libs/PoliTeKDSP/libs/libDaisy/src/hid/disp/display.h ****                  uint_fast8_t y,
 3595              		.loc 11 288 10 view -0
 3596              		.cfi_startproc
 3597              		@ args = 12, pretend = 0, frame = 8
 3598              		@ frame_needed = 0, uses_anonymous_args = 0
 288:../../libs/PoliTeKDSP/libs/libDaisy/src/hid/disp/display.h ****                  uint_fast8_t y,
 3599              		.loc 11 288 10 is_stmt 0 view .LVU794
 3600 0000 2DE9F04F 		push	{r4, r5, r6, r7, r8, r9, r10, fp, lr}
 3601              		.cfi_def_cfa_offset 36
 3602              		.cfi_offset 4, -36
 3603              		.cfi_offset 5, -32
 3604              		.cfi_offset 6, -28
 3605              		.cfi_offset 7, -24
 3606              		.cfi_offset 8, -20
 3607              		.cfi_offset 9, -16
 3608              		.cfi_offset 10, -12
 3609              		.cfi_offset 11, -8
 3610              		.cfi_offset 14, -4
 3611 0004 2DED068B 		vpush.64	{d8, d9, d10}
 3612              		.cfi_def_cfa_offset 60
 3613              		.cfi_offset 80, -60
ARM GAS  C:\Users\skipi\AppData\Local\Temp\ccs8qXFk.s 			page 105


 3614              		.cfi_offset 81, -56
 3615              		.cfi_offset 82, -52
 3616              		.cfi_offset 83, -48
 3617              		.cfi_offset 84, -44
 3618              		.cfi_offset 85, -40
 3619 0008 83B0     		sub	sp, sp, #12
 3620              		.cfi_def_cfa_offset 72
 288:../../libs/PoliTeKDSP/libs/libDaisy/src/hid/disp/display.h ****                  uint_fast8_t y,
 3621              		.loc 11 288 10 view .LVU795
 3622 000a 1F46     		mov	r7, r3
 3623 000c 8046     		mov	r8, r0
 3624 000e 0D46     		mov	r5, r1
 3625 0010 9DF85030 		ldrb	r3, [sp, #80]	@ zero_extendqisi2
 3626              	.LVL245:
 288:../../libs/PoliTeKDSP/libs/libDaisy/src/hid/disp/display.h ****                  uint_fast8_t y,
 3627              		.loc 11 288 10 view .LVU796
 3628 0014 1646     		mov	r6, r2
 3629 0016 0193     		str	r3, [sp, #4]
 311:../../libs/PoliTeKDSP/libs/libDaisy/src/hid/disp/display.h ****         {
 3630              		.loc 11 311 9 view .LVU797
 3631 0018 139B     		ldr	r3, [sp, #76]
 3632 001a 002B     		cmp	r3, #0
 3633 001c C0F22182 		blt	.L241
 318:../../libs/PoliTeKDSP/libs/libDaisy/src/hid/disp/display.h **** 
 3634              		.loc 11 318 27 view .LVU798
 3635 0020 129A     		ldr	r2, [sp, #72]
 3636              	.LVL246:
 318:../../libs/PoliTeKDSP/libs/libDaisy/src/hid/disp/display.h **** 
 3637              		.loc 11 318 27 view .LVU799
 3638 0022 1344     		add	r3, r3, r2
 3639 0024 06EE103A 		vmov	s12, r3	@ int
 3640              	.LVL247:
 3641              	.L242:
 317:../../libs/PoliTeKDSP/libs/libDaisy/src/hid/disp/display.h ****         end_angle_rad   = deg2rad(start_angle + sweep);
 3642              		.loc 11 317 27 view .LVU800
 3643 0028 DDED127A 		vldr.32	s15, [sp, #72]	@ int
 318:../../libs/PoliTeKDSP/libs/libDaisy/src/hid/disp/display.h **** 
 3644              		.loc 11 318 27 view .LVU801
 3645 002c B8EEC66B 		vcvt.f64.s32	d6, s12
 317:../../libs/PoliTeKDSP/libs/libDaisy/src/hid/disp/display.h ****         end_angle_rad   = deg2rad(start_angle + sweep);
 3646              		.loc 11 317 27 view .LVU802
 3647 0030 9FEDCD4B 		vldr.64	d4, .L317
 3648 0034 B8EEE77B 		vcvt.f64.s32	d7, s15
 3649 0038 9FEDCD5B 		vldr.64	d5, .L317+8
 3650 003c 27EE047B 		vmul.f64	d7, d7, d4
 318:../../libs/PoliTeKDSP/libs/libDaisy/src/hid/disp/display.h **** 
 3651              		.loc 11 318 27 view .LVU803
 3652 0040 26EE046B 		vmul.f64	d6, d6, d4
 317:../../libs/PoliTeKDSP/libs/libDaisy/src/hid/disp/display.h ****         end_angle_rad   = deg2rad(start_angle + sweep);
 3653              		.loc 11 317 27 view .LVU804
 3654 0044 87EE050B 		vdiv.f64	d0, d7, d5
 318:../../libs/PoliTeKDSP/libs/libDaisy/src/hid/disp/display.h **** 
 3655              		.loc 11 318 27 view .LVU805
 3656 0048 86EE05AB 		vdiv.f64	d10, d6, d5
 317:../../libs/PoliTeKDSP/libs/libDaisy/src/hid/disp/display.h ****         end_angle_rad   = deg2rad(start_angle + sweep);
 3657              		.loc 11 317 25 view .LVU806
 3658 004c F7EEC08B 		vcvt.f32.f64	s17, d0
ARM GAS  C:\Users\skipi\AppData\Local\Temp\ccs8qXFk.s 			page 106


 3659              	.LVL248:
 3660              	.LBB1311:
 3661              	.LBB1312:
 3662              		.file 14 "c:\\program files\\daisytoolchain\\arm-none-eabi\\include\\c++\\10.2.1\\cmath"
   1:c:\program files\daisytoolchain\arm-none-eabi\include\c++\10.2.1\cmath **** // -*- C++ -*- C forwarding header.
   2:c:\program files\daisytoolchain\arm-none-eabi\include\c++\10.2.1\cmath **** 
   3:c:\program files\daisytoolchain\arm-none-eabi\include\c++\10.2.1\cmath **** // Copyright (C) 1997-2020 Free Software Foundation, Inc.
   4:c:\program files\daisytoolchain\arm-none-eabi\include\c++\10.2.1\cmath **** //
   5:c:\program files\daisytoolchain\arm-none-eabi\include\c++\10.2.1\cmath **** // This file is part of the GNU ISO C++ Library.  This library is free
   6:c:\program files\daisytoolchain\arm-none-eabi\include\c++\10.2.1\cmath **** // software; you can redistribute it and/or modify it under the
   7:c:\program files\daisytoolchain\arm-none-eabi\include\c++\10.2.1\cmath **** // terms of the GNU General Public License as published by the
   8:c:\program files\daisytoolchain\arm-none-eabi\include\c++\10.2.1\cmath **** // Free Software Foundation; either version 3, or (at your option)
   9:c:\program files\daisytoolchain\arm-none-eabi\include\c++\10.2.1\cmath **** // any later version.
  10:c:\program files\daisytoolchain\arm-none-eabi\include\c++\10.2.1\cmath **** 
  11:c:\program files\daisytoolchain\arm-none-eabi\include\c++\10.2.1\cmath **** // This library is distributed in the hope that it will be useful,
  12:c:\program files\daisytoolchain\arm-none-eabi\include\c++\10.2.1\cmath **** // but WITHOUT ANY WARRANTY; without even the implied warranty of
  13:c:\program files\daisytoolchain\arm-none-eabi\include\c++\10.2.1\cmath **** // MERCHANTABILITY or FITNESS FOR A PARTICULAR PURPOSE.  See the
  14:c:\program files\daisytoolchain\arm-none-eabi\include\c++\10.2.1\cmath **** // GNU General Public License for more details.
  15:c:\program files\daisytoolchain\arm-none-eabi\include\c++\10.2.1\cmath **** 
  16:c:\program files\daisytoolchain\arm-none-eabi\include\c++\10.2.1\cmath **** // Under Section 7 of GPL version 3, you are granted additional
  17:c:\program files\daisytoolchain\arm-none-eabi\include\c++\10.2.1\cmath **** // permissions described in the GCC Runtime Library Exception, version
  18:c:\program files\daisytoolchain\arm-none-eabi\include\c++\10.2.1\cmath **** // 3.1, as published by the Free Software Foundation.
  19:c:\program files\daisytoolchain\arm-none-eabi\include\c++\10.2.1\cmath **** 
  20:c:\program files\daisytoolchain\arm-none-eabi\include\c++\10.2.1\cmath **** // You should have received a copy of the GNU General Public License and
  21:c:\program files\daisytoolchain\arm-none-eabi\include\c++\10.2.1\cmath **** // a copy of the GCC Runtime Library Exception along with this program;
  22:c:\program files\daisytoolchain\arm-none-eabi\include\c++\10.2.1\cmath **** // see the files COPYING3 and COPYING.RUNTIME respectively.  If not, see
  23:c:\program files\daisytoolchain\arm-none-eabi\include\c++\10.2.1\cmath **** // <http://www.gnu.org/licenses/>.
  24:c:\program files\daisytoolchain\arm-none-eabi\include\c++\10.2.1\cmath **** 
  25:c:\program files\daisytoolchain\arm-none-eabi\include\c++\10.2.1\cmath **** /** @file include/cmath
  26:c:\program files\daisytoolchain\arm-none-eabi\include\c++\10.2.1\cmath ****  *  This is a Standard C++ Library file.  You should @c \#include this file
  27:c:\program files\daisytoolchain\arm-none-eabi\include\c++\10.2.1\cmath ****  *  in your programs, rather than any of the @a *.h implementation files.
  28:c:\program files\daisytoolchain\arm-none-eabi\include\c++\10.2.1\cmath ****  *
  29:c:\program files\daisytoolchain\arm-none-eabi\include\c++\10.2.1\cmath ****  *  This is the C++ version of the Standard C Library header @c math.h,
  30:c:\program files\daisytoolchain\arm-none-eabi\include\c++\10.2.1\cmath ****  *  and its contents are (mostly) the same as that header, but are all
  31:c:\program files\daisytoolchain\arm-none-eabi\include\c++\10.2.1\cmath ****  *  contained in the namespace @c std (except for names which are defined
  32:c:\program files\daisytoolchain\arm-none-eabi\include\c++\10.2.1\cmath ****  *  as macros in C).
  33:c:\program files\daisytoolchain\arm-none-eabi\include\c++\10.2.1\cmath ****  */
  34:c:\program files\daisytoolchain\arm-none-eabi\include\c++\10.2.1\cmath **** 
  35:c:\program files\daisytoolchain\arm-none-eabi\include\c++\10.2.1\cmath **** //
  36:c:\program files\daisytoolchain\arm-none-eabi\include\c++\10.2.1\cmath **** // ISO C++ 14882: 26.5  C library
  37:c:\program files\daisytoolchain\arm-none-eabi\include\c++\10.2.1\cmath **** //
  38:c:\program files\daisytoolchain\arm-none-eabi\include\c++\10.2.1\cmath **** 
  39:c:\program files\daisytoolchain\arm-none-eabi\include\c++\10.2.1\cmath **** #pragma GCC system_header
  40:c:\program files\daisytoolchain\arm-none-eabi\include\c++\10.2.1\cmath **** 
  41:c:\program files\daisytoolchain\arm-none-eabi\include\c++\10.2.1\cmath **** #include <bits/c++config.h>
  42:c:\program files\daisytoolchain\arm-none-eabi\include\c++\10.2.1\cmath **** #include <bits/cpp_type_traits.h>
  43:c:\program files\daisytoolchain\arm-none-eabi\include\c++\10.2.1\cmath **** #include <ext/type_traits.h>
  44:c:\program files\daisytoolchain\arm-none-eabi\include\c++\10.2.1\cmath **** #define _GLIBCXX_INCLUDE_NEXT_C_HEADERS
  45:c:\program files\daisytoolchain\arm-none-eabi\include\c++\10.2.1\cmath **** #include_next <math.h>
  46:c:\program files\daisytoolchain\arm-none-eabi\include\c++\10.2.1\cmath **** #undef _GLIBCXX_INCLUDE_NEXT_C_HEADERS
  47:c:\program files\daisytoolchain\arm-none-eabi\include\c++\10.2.1\cmath **** #include <bits/std_abs.h>
  48:c:\program files\daisytoolchain\arm-none-eabi\include\c++\10.2.1\cmath **** 
  49:c:\program files\daisytoolchain\arm-none-eabi\include\c++\10.2.1\cmath **** #ifndef _GLIBCXX_CMATH
  50:c:\program files\daisytoolchain\arm-none-eabi\include\c++\10.2.1\cmath **** #define _GLIBCXX_CMATH 1
  51:c:\program files\daisytoolchain\arm-none-eabi\include\c++\10.2.1\cmath **** 
  52:c:\program files\daisytoolchain\arm-none-eabi\include\c++\10.2.1\cmath **** // Get rid of those macros defined in <math.h> in lieu of real functions.
  53:c:\program files\daisytoolchain\arm-none-eabi\include\c++\10.2.1\cmath **** #undef div
ARM GAS  C:\Users\skipi\AppData\Local\Temp\ccs8qXFk.s 			page 107


  54:c:\program files\daisytoolchain\arm-none-eabi\include\c++\10.2.1\cmath **** #undef acos
  55:c:\program files\daisytoolchain\arm-none-eabi\include\c++\10.2.1\cmath **** #undef asin
  56:c:\program files\daisytoolchain\arm-none-eabi\include\c++\10.2.1\cmath **** #undef atan
  57:c:\program files\daisytoolchain\arm-none-eabi\include\c++\10.2.1\cmath **** #undef atan2
  58:c:\program files\daisytoolchain\arm-none-eabi\include\c++\10.2.1\cmath **** #undef ceil
  59:c:\program files\daisytoolchain\arm-none-eabi\include\c++\10.2.1\cmath **** #undef cos
  60:c:\program files\daisytoolchain\arm-none-eabi\include\c++\10.2.1\cmath **** #undef cosh
  61:c:\program files\daisytoolchain\arm-none-eabi\include\c++\10.2.1\cmath **** #undef exp
  62:c:\program files\daisytoolchain\arm-none-eabi\include\c++\10.2.1\cmath **** #undef fabs
  63:c:\program files\daisytoolchain\arm-none-eabi\include\c++\10.2.1\cmath **** #undef floor
  64:c:\program files\daisytoolchain\arm-none-eabi\include\c++\10.2.1\cmath **** #undef fmod
  65:c:\program files\daisytoolchain\arm-none-eabi\include\c++\10.2.1\cmath **** #undef frexp
  66:c:\program files\daisytoolchain\arm-none-eabi\include\c++\10.2.1\cmath **** #undef ldexp
  67:c:\program files\daisytoolchain\arm-none-eabi\include\c++\10.2.1\cmath **** #undef log
  68:c:\program files\daisytoolchain\arm-none-eabi\include\c++\10.2.1\cmath **** #undef log10
  69:c:\program files\daisytoolchain\arm-none-eabi\include\c++\10.2.1\cmath **** #undef modf
  70:c:\program files\daisytoolchain\arm-none-eabi\include\c++\10.2.1\cmath **** #undef pow
  71:c:\program files\daisytoolchain\arm-none-eabi\include\c++\10.2.1\cmath **** #undef sin
  72:c:\program files\daisytoolchain\arm-none-eabi\include\c++\10.2.1\cmath **** #undef sinh
  73:c:\program files\daisytoolchain\arm-none-eabi\include\c++\10.2.1\cmath **** #undef sqrt
  74:c:\program files\daisytoolchain\arm-none-eabi\include\c++\10.2.1\cmath **** #undef tan
  75:c:\program files\daisytoolchain\arm-none-eabi\include\c++\10.2.1\cmath **** #undef tanh
  76:c:\program files\daisytoolchain\arm-none-eabi\include\c++\10.2.1\cmath **** 
  77:c:\program files\daisytoolchain\arm-none-eabi\include\c++\10.2.1\cmath **** extern "C++"
  78:c:\program files\daisytoolchain\arm-none-eabi\include\c++\10.2.1\cmath **** {
  79:c:\program files\daisytoolchain\arm-none-eabi\include\c++\10.2.1\cmath **** namespace std _GLIBCXX_VISIBILITY(default)
  80:c:\program files\daisytoolchain\arm-none-eabi\include\c++\10.2.1\cmath **** {
  81:c:\program files\daisytoolchain\arm-none-eabi\include\c++\10.2.1\cmath **** _GLIBCXX_BEGIN_NAMESPACE_VERSION
  82:c:\program files\daisytoolchain\arm-none-eabi\include\c++\10.2.1\cmath **** 
  83:c:\program files\daisytoolchain\arm-none-eabi\include\c++\10.2.1\cmath ****   using ::acos;
  84:c:\program files\daisytoolchain\arm-none-eabi\include\c++\10.2.1\cmath **** 
  85:c:\program files\daisytoolchain\arm-none-eabi\include\c++\10.2.1\cmath **** #ifndef __CORRECT_ISO_CPP_MATH_H_PROTO
  86:c:\program files\daisytoolchain\arm-none-eabi\include\c++\10.2.1\cmath ****   inline _GLIBCXX_CONSTEXPR float
  87:c:\program files\daisytoolchain\arm-none-eabi\include\c++\10.2.1\cmath ****   acos(float __x)
  88:c:\program files\daisytoolchain\arm-none-eabi\include\c++\10.2.1\cmath ****   { return __builtin_acosf(__x); }
  89:c:\program files\daisytoolchain\arm-none-eabi\include\c++\10.2.1\cmath **** 
  90:c:\program files\daisytoolchain\arm-none-eabi\include\c++\10.2.1\cmath ****   inline _GLIBCXX_CONSTEXPR long double
  91:c:\program files\daisytoolchain\arm-none-eabi\include\c++\10.2.1\cmath ****   acos(long double __x)
  92:c:\program files\daisytoolchain\arm-none-eabi\include\c++\10.2.1\cmath ****   { return __builtin_acosl(__x); }
  93:c:\program files\daisytoolchain\arm-none-eabi\include\c++\10.2.1\cmath **** #endif
  94:c:\program files\daisytoolchain\arm-none-eabi\include\c++\10.2.1\cmath **** 
  95:c:\program files\daisytoolchain\arm-none-eabi\include\c++\10.2.1\cmath ****   template<typename _Tp>
  96:c:\program files\daisytoolchain\arm-none-eabi\include\c++\10.2.1\cmath ****     inline _GLIBCXX_CONSTEXPR
  97:c:\program files\daisytoolchain\arm-none-eabi\include\c++\10.2.1\cmath ****     typename __gnu_cxx::__enable_if<__is_integer<_Tp>::__value, 
  98:c:\program files\daisytoolchain\arm-none-eabi\include\c++\10.2.1\cmath ****                                     double>::__type
  99:c:\program files\daisytoolchain\arm-none-eabi\include\c++\10.2.1\cmath ****     acos(_Tp __x)
 100:c:\program files\daisytoolchain\arm-none-eabi\include\c++\10.2.1\cmath ****     { return __builtin_acos(__x); }
 101:c:\program files\daisytoolchain\arm-none-eabi\include\c++\10.2.1\cmath **** 
 102:c:\program files\daisytoolchain\arm-none-eabi\include\c++\10.2.1\cmath ****   using ::asin;
 103:c:\program files\daisytoolchain\arm-none-eabi\include\c++\10.2.1\cmath **** 
 104:c:\program files\daisytoolchain\arm-none-eabi\include\c++\10.2.1\cmath **** #ifndef __CORRECT_ISO_CPP_MATH_H_PROTO
 105:c:\program files\daisytoolchain\arm-none-eabi\include\c++\10.2.1\cmath ****   inline _GLIBCXX_CONSTEXPR float
 106:c:\program files\daisytoolchain\arm-none-eabi\include\c++\10.2.1\cmath ****   asin(float __x)
 107:c:\program files\daisytoolchain\arm-none-eabi\include\c++\10.2.1\cmath ****   { return __builtin_asinf(__x); }
 108:c:\program files\daisytoolchain\arm-none-eabi\include\c++\10.2.1\cmath **** 
 109:c:\program files\daisytoolchain\arm-none-eabi\include\c++\10.2.1\cmath ****   inline _GLIBCXX_CONSTEXPR long double
 110:c:\program files\daisytoolchain\arm-none-eabi\include\c++\10.2.1\cmath ****   asin(long double __x)
ARM GAS  C:\Users\skipi\AppData\Local\Temp\ccs8qXFk.s 			page 108


 111:c:\program files\daisytoolchain\arm-none-eabi\include\c++\10.2.1\cmath ****   { return __builtin_asinl(__x); }
 112:c:\program files\daisytoolchain\arm-none-eabi\include\c++\10.2.1\cmath **** #endif
 113:c:\program files\daisytoolchain\arm-none-eabi\include\c++\10.2.1\cmath **** 
 114:c:\program files\daisytoolchain\arm-none-eabi\include\c++\10.2.1\cmath ****   template<typename _Tp>
 115:c:\program files\daisytoolchain\arm-none-eabi\include\c++\10.2.1\cmath ****     inline _GLIBCXX_CONSTEXPR
 116:c:\program files\daisytoolchain\arm-none-eabi\include\c++\10.2.1\cmath ****     typename __gnu_cxx::__enable_if<__is_integer<_Tp>::__value,
 117:c:\program files\daisytoolchain\arm-none-eabi\include\c++\10.2.1\cmath ****                                     double>::__type
 118:c:\program files\daisytoolchain\arm-none-eabi\include\c++\10.2.1\cmath ****     asin(_Tp __x)
 119:c:\program files\daisytoolchain\arm-none-eabi\include\c++\10.2.1\cmath ****     { return __builtin_asin(__x); }
 120:c:\program files\daisytoolchain\arm-none-eabi\include\c++\10.2.1\cmath **** 
 121:c:\program files\daisytoolchain\arm-none-eabi\include\c++\10.2.1\cmath ****   using ::atan;
 122:c:\program files\daisytoolchain\arm-none-eabi\include\c++\10.2.1\cmath **** 
 123:c:\program files\daisytoolchain\arm-none-eabi\include\c++\10.2.1\cmath **** #ifndef __CORRECT_ISO_CPP_MATH_H_PROTO
 124:c:\program files\daisytoolchain\arm-none-eabi\include\c++\10.2.1\cmath ****   inline _GLIBCXX_CONSTEXPR float
 125:c:\program files\daisytoolchain\arm-none-eabi\include\c++\10.2.1\cmath ****   atan(float __x)
 126:c:\program files\daisytoolchain\arm-none-eabi\include\c++\10.2.1\cmath ****   { return __builtin_atanf(__x); }
 127:c:\program files\daisytoolchain\arm-none-eabi\include\c++\10.2.1\cmath **** 
 128:c:\program files\daisytoolchain\arm-none-eabi\include\c++\10.2.1\cmath ****   inline _GLIBCXX_CONSTEXPR long double
 129:c:\program files\daisytoolchain\arm-none-eabi\include\c++\10.2.1\cmath ****   atan(long double __x)
 130:c:\program files\daisytoolchain\arm-none-eabi\include\c++\10.2.1\cmath ****   { return __builtin_atanl(__x); }
 131:c:\program files\daisytoolchain\arm-none-eabi\include\c++\10.2.1\cmath **** #endif
 132:c:\program files\daisytoolchain\arm-none-eabi\include\c++\10.2.1\cmath **** 
 133:c:\program files\daisytoolchain\arm-none-eabi\include\c++\10.2.1\cmath ****   template<typename _Tp>
 134:c:\program files\daisytoolchain\arm-none-eabi\include\c++\10.2.1\cmath ****     inline _GLIBCXX_CONSTEXPR
 135:c:\program files\daisytoolchain\arm-none-eabi\include\c++\10.2.1\cmath ****     typename __gnu_cxx::__enable_if<__is_integer<_Tp>::__value,
 136:c:\program files\daisytoolchain\arm-none-eabi\include\c++\10.2.1\cmath ****                                     double>::__type
 137:c:\program files\daisytoolchain\arm-none-eabi\include\c++\10.2.1\cmath ****     atan(_Tp __x)
 138:c:\program files\daisytoolchain\arm-none-eabi\include\c++\10.2.1\cmath ****     { return __builtin_atan(__x); }
 139:c:\program files\daisytoolchain\arm-none-eabi\include\c++\10.2.1\cmath **** 
 140:c:\program files\daisytoolchain\arm-none-eabi\include\c++\10.2.1\cmath ****   using ::atan2;
 141:c:\program files\daisytoolchain\arm-none-eabi\include\c++\10.2.1\cmath **** 
 142:c:\program files\daisytoolchain\arm-none-eabi\include\c++\10.2.1\cmath **** #ifndef __CORRECT_ISO_CPP_MATH_H_PROTO
 143:c:\program files\daisytoolchain\arm-none-eabi\include\c++\10.2.1\cmath ****   inline _GLIBCXX_CONSTEXPR float
 144:c:\program files\daisytoolchain\arm-none-eabi\include\c++\10.2.1\cmath ****   atan2(float __y, float __x)
 145:c:\program files\daisytoolchain\arm-none-eabi\include\c++\10.2.1\cmath ****   { return __builtin_atan2f(__y, __x); }
 146:c:\program files\daisytoolchain\arm-none-eabi\include\c++\10.2.1\cmath **** 
 147:c:\program files\daisytoolchain\arm-none-eabi\include\c++\10.2.1\cmath ****   inline _GLIBCXX_CONSTEXPR long double
 148:c:\program files\daisytoolchain\arm-none-eabi\include\c++\10.2.1\cmath ****   atan2(long double __y, long double __x)
 149:c:\program files\daisytoolchain\arm-none-eabi\include\c++\10.2.1\cmath ****   { return __builtin_atan2l(__y, __x); }
 150:c:\program files\daisytoolchain\arm-none-eabi\include\c++\10.2.1\cmath **** #endif
 151:c:\program files\daisytoolchain\arm-none-eabi\include\c++\10.2.1\cmath **** 
 152:c:\program files\daisytoolchain\arm-none-eabi\include\c++\10.2.1\cmath ****   template<typename _Tp, typename _Up>
 153:c:\program files\daisytoolchain\arm-none-eabi\include\c++\10.2.1\cmath ****     inline _GLIBCXX_CONSTEXPR
 154:c:\program files\daisytoolchain\arm-none-eabi\include\c++\10.2.1\cmath ****     typename __gnu_cxx::__promote_2<_Tp, _Up>::__type
 155:c:\program files\daisytoolchain\arm-none-eabi\include\c++\10.2.1\cmath ****     atan2(_Tp __y, _Up __x)
 156:c:\program files\daisytoolchain\arm-none-eabi\include\c++\10.2.1\cmath ****     {
 157:c:\program files\daisytoolchain\arm-none-eabi\include\c++\10.2.1\cmath ****       typedef typename __gnu_cxx::__promote_2<_Tp, _Up>::__type __type;
 158:c:\program files\daisytoolchain\arm-none-eabi\include\c++\10.2.1\cmath ****       return atan2(__type(__y), __type(__x));
 159:c:\program files\daisytoolchain\arm-none-eabi\include\c++\10.2.1\cmath ****     }
 160:c:\program files\daisytoolchain\arm-none-eabi\include\c++\10.2.1\cmath **** 
 161:c:\program files\daisytoolchain\arm-none-eabi\include\c++\10.2.1\cmath ****   using ::ceil;
 162:c:\program files\daisytoolchain\arm-none-eabi\include\c++\10.2.1\cmath **** 
 163:c:\program files\daisytoolchain\arm-none-eabi\include\c++\10.2.1\cmath **** #ifndef __CORRECT_ISO_CPP_MATH_H_PROTO
 164:c:\program files\daisytoolchain\arm-none-eabi\include\c++\10.2.1\cmath ****   inline _GLIBCXX_CONSTEXPR float
 165:c:\program files\daisytoolchain\arm-none-eabi\include\c++\10.2.1\cmath ****   ceil(float __x)
 166:c:\program files\daisytoolchain\arm-none-eabi\include\c++\10.2.1\cmath ****   { return __builtin_ceilf(__x); }
 167:c:\program files\daisytoolchain\arm-none-eabi\include\c++\10.2.1\cmath **** 
ARM GAS  C:\Users\skipi\AppData\Local\Temp\ccs8qXFk.s 			page 109


 168:c:\program files\daisytoolchain\arm-none-eabi\include\c++\10.2.1\cmath ****   inline _GLIBCXX_CONSTEXPR long double
 169:c:\program files\daisytoolchain\arm-none-eabi\include\c++\10.2.1\cmath ****   ceil(long double __x)
 170:c:\program files\daisytoolchain\arm-none-eabi\include\c++\10.2.1\cmath ****   { return __builtin_ceill(__x); }
 171:c:\program files\daisytoolchain\arm-none-eabi\include\c++\10.2.1\cmath **** #endif
 172:c:\program files\daisytoolchain\arm-none-eabi\include\c++\10.2.1\cmath **** 
 173:c:\program files\daisytoolchain\arm-none-eabi\include\c++\10.2.1\cmath ****   template<typename _Tp>
 174:c:\program files\daisytoolchain\arm-none-eabi\include\c++\10.2.1\cmath ****     inline _GLIBCXX_CONSTEXPR
 175:c:\program files\daisytoolchain\arm-none-eabi\include\c++\10.2.1\cmath ****     typename __gnu_cxx::__enable_if<__is_integer<_Tp>::__value, 
 176:c:\program files\daisytoolchain\arm-none-eabi\include\c++\10.2.1\cmath ****                                     double>::__type
 177:c:\program files\daisytoolchain\arm-none-eabi\include\c++\10.2.1\cmath ****     ceil(_Tp __x)
 178:c:\program files\daisytoolchain\arm-none-eabi\include\c++\10.2.1\cmath ****     { return __builtin_ceil(__x); }
 179:c:\program files\daisytoolchain\arm-none-eabi\include\c++\10.2.1\cmath **** 
 180:c:\program files\daisytoolchain\arm-none-eabi\include\c++\10.2.1\cmath ****   using ::cos;
 181:c:\program files\daisytoolchain\arm-none-eabi\include\c++\10.2.1\cmath **** 
 182:c:\program files\daisytoolchain\arm-none-eabi\include\c++\10.2.1\cmath **** #ifndef __CORRECT_ISO_CPP_MATH_H_PROTO
 183:c:\program files\daisytoolchain\arm-none-eabi\include\c++\10.2.1\cmath ****   inline _GLIBCXX_CONSTEXPR float
 184:c:\program files\daisytoolchain\arm-none-eabi\include\c++\10.2.1\cmath ****   cos(float __x)
 185:c:\program files\daisytoolchain\arm-none-eabi\include\c++\10.2.1\cmath ****   { return __builtin_cosf(__x); }
 3663              		.loc 14 185 26 view .LVU807
 3664 0050 B0EE680A 		vmov.f32	s0, s17
 3665 0054 FFF7FEFF 		bl	cosf
 3666              	.LVL249:
 3667              		.loc 14 185 26 view .LVU808
 3668              	.LBE1312:
 3669              	.LBE1311:
 320:../../libs/PoliTeKDSP/libs/libDaisy/src/hid/disp/display.h ****         start_y = -sin(start_angle_rad) * radius;
 3670              		.loc 11 320 17 view .LVU809
 3671 0058 07EE907A 		vmov	s15, r7	@ int
 318:../../libs/PoliTeKDSP/libs/libDaisy/src/hid/disp/display.h **** 
 3672              		.loc 11 318 25 view .LVU810
 3673 005c B7EECAAB 		vcvt.f32.f64	s20, d10
 3674              	.LVL250:
 3675              	.LBB1315:
 3676              	.LBI1311:
 184:c:\program files\daisytoolchain\arm-none-eabi\include\c++\10.2.1\cmath ****   { return __builtin_cosf(__x); }
 3677              		.loc 14 184 3 is_stmt 1 view .LVU811
 3678              	.LBB1313:
 3679              		.loc 14 185 5 view .LVU812
 3680              		.loc 14 185 5 is_stmt 0 view .LVU813
 3681              	.LBE1313:
 3682              	.LBE1315:
 320:../../libs/PoliTeKDSP/libs/libDaisy/src/hid/disp/display.h ****         start_y = -sin(start_angle_rad) * radius;
 3683              		.loc 11 320 17 view .LVU814
 3684 0060 F8EE679A 		vcvt.f32.u32	s19, s15
 3685              	.LBB1316:
 3686              	.LBB1314:
 3687              		.loc 14 185 26 view .LVU815
 3688 0064 B0EE408A 		vmov.f32	s16, s0
 3689              	.LBE1314:
 3690              	.LBE1316:
 3691              	.LBB1317:
 3692              	.LBB1318:
 186:c:\program files\daisytoolchain\arm-none-eabi\include\c++\10.2.1\cmath **** 
 187:c:\program files\daisytoolchain\arm-none-eabi\include\c++\10.2.1\cmath ****   inline _GLIBCXX_CONSTEXPR long double
 188:c:\program files\daisytoolchain\arm-none-eabi\include\c++\10.2.1\cmath ****   cos(long double __x)
 189:c:\program files\daisytoolchain\arm-none-eabi\include\c++\10.2.1\cmath ****   { return __builtin_cosl(__x); }
 190:c:\program files\daisytoolchain\arm-none-eabi\include\c++\10.2.1\cmath **** #endif
ARM GAS  C:\Users\skipi\AppData\Local\Temp\ccs8qXFk.s 			page 110


 191:c:\program files\daisytoolchain\arm-none-eabi\include\c++\10.2.1\cmath **** 
 192:c:\program files\daisytoolchain\arm-none-eabi\include\c++\10.2.1\cmath ****   template<typename _Tp>
 193:c:\program files\daisytoolchain\arm-none-eabi\include\c++\10.2.1\cmath ****     inline _GLIBCXX_CONSTEXPR
 194:c:\program files\daisytoolchain\arm-none-eabi\include\c++\10.2.1\cmath ****     typename __gnu_cxx::__enable_if<__is_integer<_Tp>::__value,
 195:c:\program files\daisytoolchain\arm-none-eabi\include\c++\10.2.1\cmath ****                                     double>::__type
 196:c:\program files\daisytoolchain\arm-none-eabi\include\c++\10.2.1\cmath ****     cos(_Tp __x)
 197:c:\program files\daisytoolchain\arm-none-eabi\include\c++\10.2.1\cmath ****     { return __builtin_cos(__x); }
 198:c:\program files\daisytoolchain\arm-none-eabi\include\c++\10.2.1\cmath **** 
 199:c:\program files\daisytoolchain\arm-none-eabi\include\c++\10.2.1\cmath ****   using ::cosh;
 200:c:\program files\daisytoolchain\arm-none-eabi\include\c++\10.2.1\cmath **** 
 201:c:\program files\daisytoolchain\arm-none-eabi\include\c++\10.2.1\cmath **** #ifndef __CORRECT_ISO_CPP_MATH_H_PROTO
 202:c:\program files\daisytoolchain\arm-none-eabi\include\c++\10.2.1\cmath ****   inline _GLIBCXX_CONSTEXPR float
 203:c:\program files\daisytoolchain\arm-none-eabi\include\c++\10.2.1\cmath ****   cosh(float __x)
 204:c:\program files\daisytoolchain\arm-none-eabi\include\c++\10.2.1\cmath ****   { return __builtin_coshf(__x); }
 205:c:\program files\daisytoolchain\arm-none-eabi\include\c++\10.2.1\cmath **** 
 206:c:\program files\daisytoolchain\arm-none-eabi\include\c++\10.2.1\cmath ****   inline _GLIBCXX_CONSTEXPR long double
 207:c:\program files\daisytoolchain\arm-none-eabi\include\c++\10.2.1\cmath ****   cosh(long double __x)
 208:c:\program files\daisytoolchain\arm-none-eabi\include\c++\10.2.1\cmath ****   { return __builtin_coshl(__x); }
 209:c:\program files\daisytoolchain\arm-none-eabi\include\c++\10.2.1\cmath **** #endif
 210:c:\program files\daisytoolchain\arm-none-eabi\include\c++\10.2.1\cmath **** 
 211:c:\program files\daisytoolchain\arm-none-eabi\include\c++\10.2.1\cmath ****   template<typename _Tp>
 212:c:\program files\daisytoolchain\arm-none-eabi\include\c++\10.2.1\cmath ****     inline _GLIBCXX_CONSTEXPR
 213:c:\program files\daisytoolchain\arm-none-eabi\include\c++\10.2.1\cmath ****     typename __gnu_cxx::__enable_if<__is_integer<_Tp>::__value,
 214:c:\program files\daisytoolchain\arm-none-eabi\include\c++\10.2.1\cmath ****                                     double>::__type
 215:c:\program files\daisytoolchain\arm-none-eabi\include\c++\10.2.1\cmath ****     cosh(_Tp __x)
 216:c:\program files\daisytoolchain\arm-none-eabi\include\c++\10.2.1\cmath ****     { return __builtin_cosh(__x); }
 217:c:\program files\daisytoolchain\arm-none-eabi\include\c++\10.2.1\cmath **** 
 218:c:\program files\daisytoolchain\arm-none-eabi\include\c++\10.2.1\cmath ****   using ::exp;
 219:c:\program files\daisytoolchain\arm-none-eabi\include\c++\10.2.1\cmath **** 
 220:c:\program files\daisytoolchain\arm-none-eabi\include\c++\10.2.1\cmath **** #ifndef __CORRECT_ISO_CPP_MATH_H_PROTO
 221:c:\program files\daisytoolchain\arm-none-eabi\include\c++\10.2.1\cmath ****   inline _GLIBCXX_CONSTEXPR float
 222:c:\program files\daisytoolchain\arm-none-eabi\include\c++\10.2.1\cmath ****   exp(float __x)
 223:c:\program files\daisytoolchain\arm-none-eabi\include\c++\10.2.1\cmath ****   { return __builtin_expf(__x); }
 224:c:\program files\daisytoolchain\arm-none-eabi\include\c++\10.2.1\cmath **** 
 225:c:\program files\daisytoolchain\arm-none-eabi\include\c++\10.2.1\cmath ****   inline _GLIBCXX_CONSTEXPR long double
 226:c:\program files\daisytoolchain\arm-none-eabi\include\c++\10.2.1\cmath ****   exp(long double __x)
 227:c:\program files\daisytoolchain\arm-none-eabi\include\c++\10.2.1\cmath ****   { return __builtin_expl(__x); }
 228:c:\program files\daisytoolchain\arm-none-eabi\include\c++\10.2.1\cmath **** #endif
 229:c:\program files\daisytoolchain\arm-none-eabi\include\c++\10.2.1\cmath **** 
 230:c:\program files\daisytoolchain\arm-none-eabi\include\c++\10.2.1\cmath ****   template<typename _Tp>
 231:c:\program files\daisytoolchain\arm-none-eabi\include\c++\10.2.1\cmath ****     inline _GLIBCXX_CONSTEXPR
 232:c:\program files\daisytoolchain\arm-none-eabi\include\c++\10.2.1\cmath ****     typename __gnu_cxx::__enable_if<__is_integer<_Tp>::__value,
 233:c:\program files\daisytoolchain\arm-none-eabi\include\c++\10.2.1\cmath ****                                     double>::__type
 234:c:\program files\daisytoolchain\arm-none-eabi\include\c++\10.2.1\cmath ****     exp(_Tp __x)
 235:c:\program files\daisytoolchain\arm-none-eabi\include\c++\10.2.1\cmath ****     { return __builtin_exp(__x); }
 236:c:\program files\daisytoolchain\arm-none-eabi\include\c++\10.2.1\cmath **** 
 237:c:\program files\daisytoolchain\arm-none-eabi\include\c++\10.2.1\cmath ****   using ::fabs;
 238:c:\program files\daisytoolchain\arm-none-eabi\include\c++\10.2.1\cmath **** 
 239:c:\program files\daisytoolchain\arm-none-eabi\include\c++\10.2.1\cmath **** #ifndef __CORRECT_ISO_CPP_MATH_H_PROTO
 240:c:\program files\daisytoolchain\arm-none-eabi\include\c++\10.2.1\cmath ****   inline _GLIBCXX_CONSTEXPR float
 241:c:\program files\daisytoolchain\arm-none-eabi\include\c++\10.2.1\cmath ****   fabs(float __x)
 242:c:\program files\daisytoolchain\arm-none-eabi\include\c++\10.2.1\cmath ****   { return __builtin_fabsf(__x); }
 243:c:\program files\daisytoolchain\arm-none-eabi\include\c++\10.2.1\cmath **** 
 244:c:\program files\daisytoolchain\arm-none-eabi\include\c++\10.2.1\cmath ****   inline _GLIBCXX_CONSTEXPR long double
 245:c:\program files\daisytoolchain\arm-none-eabi\include\c++\10.2.1\cmath ****   fabs(long double __x)
 246:c:\program files\daisytoolchain\arm-none-eabi\include\c++\10.2.1\cmath ****   { return __builtin_fabsl(__x); }
 247:c:\program files\daisytoolchain\arm-none-eabi\include\c++\10.2.1\cmath **** #endif
ARM GAS  C:\Users\skipi\AppData\Local\Temp\ccs8qXFk.s 			page 111


 248:c:\program files\daisytoolchain\arm-none-eabi\include\c++\10.2.1\cmath **** 
 249:c:\program files\daisytoolchain\arm-none-eabi\include\c++\10.2.1\cmath ****   template<typename _Tp>
 250:c:\program files\daisytoolchain\arm-none-eabi\include\c++\10.2.1\cmath ****     inline _GLIBCXX_CONSTEXPR
 251:c:\program files\daisytoolchain\arm-none-eabi\include\c++\10.2.1\cmath ****     typename __gnu_cxx::__enable_if<__is_integer<_Tp>::__value,
 252:c:\program files\daisytoolchain\arm-none-eabi\include\c++\10.2.1\cmath ****                                     double>::__type
 253:c:\program files\daisytoolchain\arm-none-eabi\include\c++\10.2.1\cmath ****     fabs(_Tp __x)
 254:c:\program files\daisytoolchain\arm-none-eabi\include\c++\10.2.1\cmath ****     { return __builtin_fabs(__x); }
 255:c:\program files\daisytoolchain\arm-none-eabi\include\c++\10.2.1\cmath **** 
 256:c:\program files\daisytoolchain\arm-none-eabi\include\c++\10.2.1\cmath ****   using ::floor;
 257:c:\program files\daisytoolchain\arm-none-eabi\include\c++\10.2.1\cmath **** 
 258:c:\program files\daisytoolchain\arm-none-eabi\include\c++\10.2.1\cmath **** #ifndef __CORRECT_ISO_CPP_MATH_H_PROTO
 259:c:\program files\daisytoolchain\arm-none-eabi\include\c++\10.2.1\cmath ****   inline _GLIBCXX_CONSTEXPR float
 260:c:\program files\daisytoolchain\arm-none-eabi\include\c++\10.2.1\cmath ****   floor(float __x)
 261:c:\program files\daisytoolchain\arm-none-eabi\include\c++\10.2.1\cmath ****   { return __builtin_floorf(__x); }
 262:c:\program files\daisytoolchain\arm-none-eabi\include\c++\10.2.1\cmath **** 
 263:c:\program files\daisytoolchain\arm-none-eabi\include\c++\10.2.1\cmath ****   inline _GLIBCXX_CONSTEXPR long double
 264:c:\program files\daisytoolchain\arm-none-eabi\include\c++\10.2.1\cmath ****   floor(long double __x)
 265:c:\program files\daisytoolchain\arm-none-eabi\include\c++\10.2.1\cmath ****   { return __builtin_floorl(__x); }
 266:c:\program files\daisytoolchain\arm-none-eabi\include\c++\10.2.1\cmath **** #endif
 267:c:\program files\daisytoolchain\arm-none-eabi\include\c++\10.2.1\cmath **** 
 268:c:\program files\daisytoolchain\arm-none-eabi\include\c++\10.2.1\cmath ****   template<typename _Tp>
 269:c:\program files\daisytoolchain\arm-none-eabi\include\c++\10.2.1\cmath ****     inline _GLIBCXX_CONSTEXPR
 270:c:\program files\daisytoolchain\arm-none-eabi\include\c++\10.2.1\cmath ****     typename __gnu_cxx::__enable_if<__is_integer<_Tp>::__value,
 271:c:\program files\daisytoolchain\arm-none-eabi\include\c++\10.2.1\cmath ****                                     double>::__type
 272:c:\program files\daisytoolchain\arm-none-eabi\include\c++\10.2.1\cmath ****     floor(_Tp __x)
 273:c:\program files\daisytoolchain\arm-none-eabi\include\c++\10.2.1\cmath ****     { return __builtin_floor(__x); }
 274:c:\program files\daisytoolchain\arm-none-eabi\include\c++\10.2.1\cmath **** 
 275:c:\program files\daisytoolchain\arm-none-eabi\include\c++\10.2.1\cmath ****   using ::fmod;
 276:c:\program files\daisytoolchain\arm-none-eabi\include\c++\10.2.1\cmath **** 
 277:c:\program files\daisytoolchain\arm-none-eabi\include\c++\10.2.1\cmath **** #ifndef __CORRECT_ISO_CPP_MATH_H_PROTO
 278:c:\program files\daisytoolchain\arm-none-eabi\include\c++\10.2.1\cmath ****   inline _GLIBCXX_CONSTEXPR float
 279:c:\program files\daisytoolchain\arm-none-eabi\include\c++\10.2.1\cmath ****   fmod(float __x, float __y)
 280:c:\program files\daisytoolchain\arm-none-eabi\include\c++\10.2.1\cmath ****   { return __builtin_fmodf(__x, __y); }
 281:c:\program files\daisytoolchain\arm-none-eabi\include\c++\10.2.1\cmath **** 
 282:c:\program files\daisytoolchain\arm-none-eabi\include\c++\10.2.1\cmath ****   inline _GLIBCXX_CONSTEXPR long double
 283:c:\program files\daisytoolchain\arm-none-eabi\include\c++\10.2.1\cmath ****   fmod(long double __x, long double __y)
 284:c:\program files\daisytoolchain\arm-none-eabi\include\c++\10.2.1\cmath ****   { return __builtin_fmodl(__x, __y); }
 285:c:\program files\daisytoolchain\arm-none-eabi\include\c++\10.2.1\cmath **** #endif
 286:c:\program files\daisytoolchain\arm-none-eabi\include\c++\10.2.1\cmath **** 
 287:c:\program files\daisytoolchain\arm-none-eabi\include\c++\10.2.1\cmath ****   template<typename _Tp, typename _Up>
 288:c:\program files\daisytoolchain\arm-none-eabi\include\c++\10.2.1\cmath ****     inline _GLIBCXX_CONSTEXPR
 289:c:\program files\daisytoolchain\arm-none-eabi\include\c++\10.2.1\cmath ****     typename __gnu_cxx::__promote_2<_Tp, _Up>::__type
 290:c:\program files\daisytoolchain\arm-none-eabi\include\c++\10.2.1\cmath ****     fmod(_Tp __x, _Up __y)
 291:c:\program files\daisytoolchain\arm-none-eabi\include\c++\10.2.1\cmath ****     {
 292:c:\program files\daisytoolchain\arm-none-eabi\include\c++\10.2.1\cmath ****       typedef typename __gnu_cxx::__promote_2<_Tp, _Up>::__type __type;
 293:c:\program files\daisytoolchain\arm-none-eabi\include\c++\10.2.1\cmath ****       return fmod(__type(__x), __type(__y));
 294:c:\program files\daisytoolchain\arm-none-eabi\include\c++\10.2.1\cmath ****     }
 295:c:\program files\daisytoolchain\arm-none-eabi\include\c++\10.2.1\cmath **** 
 296:c:\program files\daisytoolchain\arm-none-eabi\include\c++\10.2.1\cmath ****   using ::frexp;
 297:c:\program files\daisytoolchain\arm-none-eabi\include\c++\10.2.1\cmath **** 
 298:c:\program files\daisytoolchain\arm-none-eabi\include\c++\10.2.1\cmath **** #ifndef __CORRECT_ISO_CPP_MATH_H_PROTO
 299:c:\program files\daisytoolchain\arm-none-eabi\include\c++\10.2.1\cmath ****   inline float
 300:c:\program files\daisytoolchain\arm-none-eabi\include\c++\10.2.1\cmath ****   frexp(float __x, int* __exp)
 301:c:\program files\daisytoolchain\arm-none-eabi\include\c++\10.2.1\cmath ****   { return __builtin_frexpf(__x, __exp); }
 302:c:\program files\daisytoolchain\arm-none-eabi\include\c++\10.2.1\cmath **** 
 303:c:\program files\daisytoolchain\arm-none-eabi\include\c++\10.2.1\cmath ****   inline long double
 304:c:\program files\daisytoolchain\arm-none-eabi\include\c++\10.2.1\cmath ****   frexp(long double __x, int* __exp)
ARM GAS  C:\Users\skipi\AppData\Local\Temp\ccs8qXFk.s 			page 112


 305:c:\program files\daisytoolchain\arm-none-eabi\include\c++\10.2.1\cmath ****   { return __builtin_frexpl(__x, __exp); }
 306:c:\program files\daisytoolchain\arm-none-eabi\include\c++\10.2.1\cmath **** #endif
 307:c:\program files\daisytoolchain\arm-none-eabi\include\c++\10.2.1\cmath **** 
 308:c:\program files\daisytoolchain\arm-none-eabi\include\c++\10.2.1\cmath ****   template<typename _Tp>
 309:c:\program files\daisytoolchain\arm-none-eabi\include\c++\10.2.1\cmath ****     inline _GLIBCXX_CONSTEXPR
 310:c:\program files\daisytoolchain\arm-none-eabi\include\c++\10.2.1\cmath ****     typename __gnu_cxx::__enable_if<__is_integer<_Tp>::__value, 
 311:c:\program files\daisytoolchain\arm-none-eabi\include\c++\10.2.1\cmath ****                                     double>::__type
 312:c:\program files\daisytoolchain\arm-none-eabi\include\c++\10.2.1\cmath ****     frexp(_Tp __x, int* __exp)
 313:c:\program files\daisytoolchain\arm-none-eabi\include\c++\10.2.1\cmath ****     { return __builtin_frexp(__x, __exp); }
 314:c:\program files\daisytoolchain\arm-none-eabi\include\c++\10.2.1\cmath **** 
 315:c:\program files\daisytoolchain\arm-none-eabi\include\c++\10.2.1\cmath ****   using ::ldexp;
 316:c:\program files\daisytoolchain\arm-none-eabi\include\c++\10.2.1\cmath **** 
 317:c:\program files\daisytoolchain\arm-none-eabi\include\c++\10.2.1\cmath **** #ifndef __CORRECT_ISO_CPP_MATH_H_PROTO
 318:c:\program files\daisytoolchain\arm-none-eabi\include\c++\10.2.1\cmath ****   inline _GLIBCXX_CONSTEXPR float
 319:c:\program files\daisytoolchain\arm-none-eabi\include\c++\10.2.1\cmath ****   ldexp(float __x, int __exp)
 320:c:\program files\daisytoolchain\arm-none-eabi\include\c++\10.2.1\cmath ****   { return __builtin_ldexpf(__x, __exp); }
 321:c:\program files\daisytoolchain\arm-none-eabi\include\c++\10.2.1\cmath **** 
 322:c:\program files\daisytoolchain\arm-none-eabi\include\c++\10.2.1\cmath ****   inline _GLIBCXX_CONSTEXPR long double
 323:c:\program files\daisytoolchain\arm-none-eabi\include\c++\10.2.1\cmath ****   ldexp(long double __x, int __exp)
 324:c:\program files\daisytoolchain\arm-none-eabi\include\c++\10.2.1\cmath ****   { return __builtin_ldexpl(__x, __exp); }
 325:c:\program files\daisytoolchain\arm-none-eabi\include\c++\10.2.1\cmath **** #endif
 326:c:\program files\daisytoolchain\arm-none-eabi\include\c++\10.2.1\cmath **** 
 327:c:\program files\daisytoolchain\arm-none-eabi\include\c++\10.2.1\cmath ****   template<typename _Tp>
 328:c:\program files\daisytoolchain\arm-none-eabi\include\c++\10.2.1\cmath ****     inline _GLIBCXX_CONSTEXPR
 329:c:\program files\daisytoolchain\arm-none-eabi\include\c++\10.2.1\cmath ****     typename __gnu_cxx::__enable_if<__is_integer<_Tp>::__value, 
 330:c:\program files\daisytoolchain\arm-none-eabi\include\c++\10.2.1\cmath ****                                     double>::__type
 331:c:\program files\daisytoolchain\arm-none-eabi\include\c++\10.2.1\cmath ****     ldexp(_Tp __x, int __exp)
 332:c:\program files\daisytoolchain\arm-none-eabi\include\c++\10.2.1\cmath ****     { return __builtin_ldexp(__x, __exp); }
 333:c:\program files\daisytoolchain\arm-none-eabi\include\c++\10.2.1\cmath **** 
 334:c:\program files\daisytoolchain\arm-none-eabi\include\c++\10.2.1\cmath ****   using ::log;
 335:c:\program files\daisytoolchain\arm-none-eabi\include\c++\10.2.1\cmath **** 
 336:c:\program files\daisytoolchain\arm-none-eabi\include\c++\10.2.1\cmath **** #ifndef __CORRECT_ISO_CPP_MATH_H_PROTO
 337:c:\program files\daisytoolchain\arm-none-eabi\include\c++\10.2.1\cmath ****   inline _GLIBCXX_CONSTEXPR float
 338:c:\program files\daisytoolchain\arm-none-eabi\include\c++\10.2.1\cmath ****   log(float __x)
 339:c:\program files\daisytoolchain\arm-none-eabi\include\c++\10.2.1\cmath ****   { return __builtin_logf(__x); }
 340:c:\program files\daisytoolchain\arm-none-eabi\include\c++\10.2.1\cmath **** 
 341:c:\program files\daisytoolchain\arm-none-eabi\include\c++\10.2.1\cmath ****   inline _GLIBCXX_CONSTEXPR long double
 342:c:\program files\daisytoolchain\arm-none-eabi\include\c++\10.2.1\cmath ****   log(long double __x)
 343:c:\program files\daisytoolchain\arm-none-eabi\include\c++\10.2.1\cmath ****   { return __builtin_logl(__x); }
 344:c:\program files\daisytoolchain\arm-none-eabi\include\c++\10.2.1\cmath **** #endif
 345:c:\program files\daisytoolchain\arm-none-eabi\include\c++\10.2.1\cmath **** 
 346:c:\program files\daisytoolchain\arm-none-eabi\include\c++\10.2.1\cmath ****   template<typename _Tp>
 347:c:\program files\daisytoolchain\arm-none-eabi\include\c++\10.2.1\cmath ****     inline _GLIBCXX_CONSTEXPR
 348:c:\program files\daisytoolchain\arm-none-eabi\include\c++\10.2.1\cmath ****     typename __gnu_cxx::__enable_if<__is_integer<_Tp>::__value, 
 349:c:\program files\daisytoolchain\arm-none-eabi\include\c++\10.2.1\cmath ****                                     double>::__type
 350:c:\program files\daisytoolchain\arm-none-eabi\include\c++\10.2.1\cmath ****     log(_Tp __x)
 351:c:\program files\daisytoolchain\arm-none-eabi\include\c++\10.2.1\cmath ****     { return __builtin_log(__x); }
 352:c:\program files\daisytoolchain\arm-none-eabi\include\c++\10.2.1\cmath **** 
 353:c:\program files\daisytoolchain\arm-none-eabi\include\c++\10.2.1\cmath ****   using ::log10;
 354:c:\program files\daisytoolchain\arm-none-eabi\include\c++\10.2.1\cmath **** 
 355:c:\program files\daisytoolchain\arm-none-eabi\include\c++\10.2.1\cmath **** #ifndef __CORRECT_ISO_CPP_MATH_H_PROTO
 356:c:\program files\daisytoolchain\arm-none-eabi\include\c++\10.2.1\cmath ****   inline _GLIBCXX_CONSTEXPR float
 357:c:\program files\daisytoolchain\arm-none-eabi\include\c++\10.2.1\cmath ****   log10(float __x)
 358:c:\program files\daisytoolchain\arm-none-eabi\include\c++\10.2.1\cmath ****   { return __builtin_log10f(__x); }
 359:c:\program files\daisytoolchain\arm-none-eabi\include\c++\10.2.1\cmath **** 
 360:c:\program files\daisytoolchain\arm-none-eabi\include\c++\10.2.1\cmath ****   inline _GLIBCXX_CONSTEXPR long double
 361:c:\program files\daisytoolchain\arm-none-eabi\include\c++\10.2.1\cmath ****   log10(long double __x)
ARM GAS  C:\Users\skipi\AppData\Local\Temp\ccs8qXFk.s 			page 113


 362:c:\program files\daisytoolchain\arm-none-eabi\include\c++\10.2.1\cmath ****   { return __builtin_log10l(__x); }
 363:c:\program files\daisytoolchain\arm-none-eabi\include\c++\10.2.1\cmath **** #endif
 364:c:\program files\daisytoolchain\arm-none-eabi\include\c++\10.2.1\cmath **** 
 365:c:\program files\daisytoolchain\arm-none-eabi\include\c++\10.2.1\cmath ****   template<typename _Tp>
 366:c:\program files\daisytoolchain\arm-none-eabi\include\c++\10.2.1\cmath ****     inline _GLIBCXX_CONSTEXPR
 367:c:\program files\daisytoolchain\arm-none-eabi\include\c++\10.2.1\cmath ****     typename __gnu_cxx::__enable_if<__is_integer<_Tp>::__value,
 368:c:\program files\daisytoolchain\arm-none-eabi\include\c++\10.2.1\cmath ****                                     double>::__type
 369:c:\program files\daisytoolchain\arm-none-eabi\include\c++\10.2.1\cmath ****     log10(_Tp __x)
 370:c:\program files\daisytoolchain\arm-none-eabi\include\c++\10.2.1\cmath ****     { return __builtin_log10(__x); }
 371:c:\program files\daisytoolchain\arm-none-eabi\include\c++\10.2.1\cmath **** 
 372:c:\program files\daisytoolchain\arm-none-eabi\include\c++\10.2.1\cmath ****   using ::modf;
 373:c:\program files\daisytoolchain\arm-none-eabi\include\c++\10.2.1\cmath **** 
 374:c:\program files\daisytoolchain\arm-none-eabi\include\c++\10.2.1\cmath **** #ifndef __CORRECT_ISO_CPP_MATH_H_PROTO
 375:c:\program files\daisytoolchain\arm-none-eabi\include\c++\10.2.1\cmath ****   inline float
 376:c:\program files\daisytoolchain\arm-none-eabi\include\c++\10.2.1\cmath ****   modf(float __x, float* __iptr)
 377:c:\program files\daisytoolchain\arm-none-eabi\include\c++\10.2.1\cmath ****   { return __builtin_modff(__x, __iptr); }
 378:c:\program files\daisytoolchain\arm-none-eabi\include\c++\10.2.1\cmath **** 
 379:c:\program files\daisytoolchain\arm-none-eabi\include\c++\10.2.1\cmath ****   inline long double
 380:c:\program files\daisytoolchain\arm-none-eabi\include\c++\10.2.1\cmath ****   modf(long double __x, long double* __iptr)
 381:c:\program files\daisytoolchain\arm-none-eabi\include\c++\10.2.1\cmath ****   { return __builtin_modfl(__x, __iptr); }
 382:c:\program files\daisytoolchain\arm-none-eabi\include\c++\10.2.1\cmath **** #endif
 383:c:\program files\daisytoolchain\arm-none-eabi\include\c++\10.2.1\cmath **** 
 384:c:\program files\daisytoolchain\arm-none-eabi\include\c++\10.2.1\cmath ****   using ::pow;
 385:c:\program files\daisytoolchain\arm-none-eabi\include\c++\10.2.1\cmath **** 
 386:c:\program files\daisytoolchain\arm-none-eabi\include\c++\10.2.1\cmath **** #ifndef __CORRECT_ISO_CPP_MATH_H_PROTO
 387:c:\program files\daisytoolchain\arm-none-eabi\include\c++\10.2.1\cmath ****   inline _GLIBCXX_CONSTEXPR float
 388:c:\program files\daisytoolchain\arm-none-eabi\include\c++\10.2.1\cmath ****   pow(float __x, float __y)
 389:c:\program files\daisytoolchain\arm-none-eabi\include\c++\10.2.1\cmath ****   { return __builtin_powf(__x, __y); }
 390:c:\program files\daisytoolchain\arm-none-eabi\include\c++\10.2.1\cmath **** 
 391:c:\program files\daisytoolchain\arm-none-eabi\include\c++\10.2.1\cmath ****   inline _GLIBCXX_CONSTEXPR long double
 392:c:\program files\daisytoolchain\arm-none-eabi\include\c++\10.2.1\cmath ****   pow(long double __x, long double __y)
 393:c:\program files\daisytoolchain\arm-none-eabi\include\c++\10.2.1\cmath ****   { return __builtin_powl(__x, __y); }
 394:c:\program files\daisytoolchain\arm-none-eabi\include\c++\10.2.1\cmath **** 
 395:c:\program files\daisytoolchain\arm-none-eabi\include\c++\10.2.1\cmath **** #if __cplusplus < 201103L
 396:c:\program files\daisytoolchain\arm-none-eabi\include\c++\10.2.1\cmath ****   // _GLIBCXX_RESOLVE_LIB_DEFECTS
 397:c:\program files\daisytoolchain\arm-none-eabi\include\c++\10.2.1\cmath ****   // DR 550. What should the return type of pow(float,int) be?
 398:c:\program files\daisytoolchain\arm-none-eabi\include\c++\10.2.1\cmath ****   inline double
 399:c:\program files\daisytoolchain\arm-none-eabi\include\c++\10.2.1\cmath ****   pow(double __x, int __i)
 400:c:\program files\daisytoolchain\arm-none-eabi\include\c++\10.2.1\cmath ****   { return __builtin_powi(__x, __i); }
 401:c:\program files\daisytoolchain\arm-none-eabi\include\c++\10.2.1\cmath **** 
 402:c:\program files\daisytoolchain\arm-none-eabi\include\c++\10.2.1\cmath ****   inline float
 403:c:\program files\daisytoolchain\arm-none-eabi\include\c++\10.2.1\cmath ****   pow(float __x, int __n)
 404:c:\program files\daisytoolchain\arm-none-eabi\include\c++\10.2.1\cmath ****   { return __builtin_powif(__x, __n); }
 405:c:\program files\daisytoolchain\arm-none-eabi\include\c++\10.2.1\cmath **** 
 406:c:\program files\daisytoolchain\arm-none-eabi\include\c++\10.2.1\cmath ****   inline long double
 407:c:\program files\daisytoolchain\arm-none-eabi\include\c++\10.2.1\cmath ****   pow(long double __x, int __n)
 408:c:\program files\daisytoolchain\arm-none-eabi\include\c++\10.2.1\cmath ****   { return __builtin_powil(__x, __n); }
 409:c:\program files\daisytoolchain\arm-none-eabi\include\c++\10.2.1\cmath **** #endif
 410:c:\program files\daisytoolchain\arm-none-eabi\include\c++\10.2.1\cmath **** #endif
 411:c:\program files\daisytoolchain\arm-none-eabi\include\c++\10.2.1\cmath **** 
 412:c:\program files\daisytoolchain\arm-none-eabi\include\c++\10.2.1\cmath ****   template<typename _Tp, typename _Up>
 413:c:\program files\daisytoolchain\arm-none-eabi\include\c++\10.2.1\cmath ****     inline _GLIBCXX_CONSTEXPR
 414:c:\program files\daisytoolchain\arm-none-eabi\include\c++\10.2.1\cmath ****     typename __gnu_cxx::__promote_2<_Tp, _Up>::__type
 415:c:\program files\daisytoolchain\arm-none-eabi\include\c++\10.2.1\cmath ****     pow(_Tp __x, _Up __y)
 416:c:\program files\daisytoolchain\arm-none-eabi\include\c++\10.2.1\cmath ****     {
 417:c:\program files\daisytoolchain\arm-none-eabi\include\c++\10.2.1\cmath ****       typedef typename __gnu_cxx::__promote_2<_Tp, _Up>::__type __type;
 418:c:\program files\daisytoolchain\arm-none-eabi\include\c++\10.2.1\cmath ****       return pow(__type(__x), __type(__y));
ARM GAS  C:\Users\skipi\AppData\Local\Temp\ccs8qXFk.s 			page 114


 419:c:\program files\daisytoolchain\arm-none-eabi\include\c++\10.2.1\cmath ****     }
 420:c:\program files\daisytoolchain\arm-none-eabi\include\c++\10.2.1\cmath **** 
 421:c:\program files\daisytoolchain\arm-none-eabi\include\c++\10.2.1\cmath ****   using ::sin;
 422:c:\program files\daisytoolchain\arm-none-eabi\include\c++\10.2.1\cmath **** 
 423:c:\program files\daisytoolchain\arm-none-eabi\include\c++\10.2.1\cmath **** #ifndef __CORRECT_ISO_CPP_MATH_H_PROTO
 424:c:\program files\daisytoolchain\arm-none-eabi\include\c++\10.2.1\cmath ****   inline _GLIBCXX_CONSTEXPR float
 425:c:\program files\daisytoolchain\arm-none-eabi\include\c++\10.2.1\cmath ****   sin(float __x)
 426:c:\program files\daisytoolchain\arm-none-eabi\include\c++\10.2.1\cmath ****   { return __builtin_sinf(__x); }
 3693              		.loc 14 426 26 view .LVU816
 3694 0068 B0EE680A 		vmov.f32	s0, s17
 3695 006c FFF7FEFF 		bl	sinf
 3696              	.LVL251:
 3697              	.LBE1318:
 3698              	.LBE1317:
 321:../../libs/PoliTeKDSP/libs/libDaisy/src/hid/disp/display.h ****         end_x   = cos(end_angle_rad) * radius;
 3699              		.loc 11 321 17 view .LVU817
 3700 0070 60EE698A 		vnmul.f32	s17, s0, s19
 3701              	.LVL252:
 3702              	.LBB1320:
 3703              	.LBB1321:
 185:c:\program files\daisytoolchain\arm-none-eabi\include\c++\10.2.1\cmath **** 
 3704              		.loc 14 185 26 view .LVU818
 3705 0074 B0EE4A0A 		vmov.f32	s0, s20
 3706 0078 FFF7FEFF 		bl	cosf
 3707              	.LVL253:
 3708 007c B0EE409A 		vmov.f32	s18, s0
 3709              	.LBE1321:
 3710              	.LBE1320:
 3711              	.LBB1323:
 3712              	.LBB1324:
 3713              		.loc 14 426 26 view .LVU819
 3714 0080 B0EE4A0A 		vmov.f32	s0, s20
 3715 0084 FFF7FEFF 		bl	sinf
 3716              	.LVL254:
 3717              	.LBE1324:
 3718              	.LBE1323:
 323:../../libs/PoliTeKDSP/libs/libDaisy/src/hid/disp/display.h **** 
 3719              		.loc 11 323 17 view .LVU820
 3720 0088 20EE690A 		vnmul.f32	s0, s0, s19
 320:../../libs/PoliTeKDSP/libs/libDaisy/src/hid/disp/display.h ****         start_y = -sin(start_angle_rad) * radius;
 3721              		.loc 11 320 17 view .LVU821
 3722 008c 29EE888A 		vmul.f32	s16, s19, s16
 3723              	.LVL255:
 3724              	.LBB1326:
 3725              	.LBI1317:
 425:c:\program files\daisytoolchain\arm-none-eabi\include\c++\10.2.1\cmath ****   { return __builtin_sinf(__x); }
 3726              		.loc 14 425 3 is_stmt 1 view .LVU822
 3727              	.LBB1319:
 3728              		.loc 14 426 5 view .LVU823
 3729              		.loc 14 426 5 is_stmt 0 view .LVU824
 3730              	.LBE1319:
 3731              	.LBE1326:
 3732              	.LBB1327:
 3733              	.LBI1320:
 184:c:\program files\daisytoolchain\arm-none-eabi\include\c++\10.2.1\cmath ****   { return __builtin_cosf(__x); }
 3734              		.loc 14 184 3 is_stmt 1 view .LVU825
 3735              	.LBB1322:
ARM GAS  C:\Users\skipi\AppData\Local\Temp\ccs8qXFk.s 			page 115


 185:c:\program files\daisytoolchain\arm-none-eabi\include\c++\10.2.1\cmath **** 
 3736              		.loc 14 185 5 view .LVU826
 185:c:\program files\daisytoolchain\arm-none-eabi\include\c++\10.2.1\cmath **** 
 3737              		.loc 14 185 5 is_stmt 0 view .LVU827
 3738              	.LBE1322:
 3739              	.LBE1327:
 322:../../libs/PoliTeKDSP/libs/libDaisy/src/hid/disp/display.h ****         end_y   = -sin(end_angle_rad) * radius;
 3740              		.loc 11 322 17 view .LVU828
 3741 0090 29EE899A 		vmul.f32	s18, s19, s18
 3742              	.LVL256:
 3743              	.LBB1328:
 3744              	.LBI1323:
 425:c:\program files\daisytoolchain\arm-none-eabi\include\c++\10.2.1\cmath ****   { return __builtin_sinf(__x); }
 3745              		.loc 14 425 3 is_stmt 1 view .LVU829
 3746              	.LBB1325:
 3747              		.loc 14 426 5 view .LVU830
 3748              		.loc 14 426 5 is_stmt 0 view .LVU831
 3749              	.LBE1325:
 3750              	.LBE1328:
 327:../../libs/PoliTeKDSP/libs/libDaisy/src/hid/disp/display.h ****            < 2.0f)
 3751              		.loc 11 327 25 view .LVU832
 3752 0094 70EE687A 		vsub.f32	s15, s0, s17
 326:../../libs/PoliTeKDSP/libs/libDaisy/src/hid/disp/display.h ****                + (end_y - start_y) * (end_y - start_y)
 3753              		.loc 11 326 9 view .LVU833
 3754 0098 F0EE006A 		vmov.f32	s13, #2.0e+0
 326:../../libs/PoliTeKDSP/libs/libDaisy/src/hid/disp/display.h ****                + (end_y - start_y) * (end_y - start_y)
 3755              		.loc 11 326 19 view .LVU834
 3756 009c 39EE487A 		vsub.f32	s14, s18, s16
 327:../../libs/PoliTeKDSP/libs/libDaisy/src/hid/disp/display.h ****            < 2.0f)
 3757              		.loc 11 327 36 view .LVU835
 3758 00a0 67EEA77A 		vmul.f32	s15, s15, s15
 327:../../libs/PoliTeKDSP/libs/libDaisy/src/hid/disp/display.h ****            < 2.0f)
 3759              		.loc 11 327 16 view .LVU836
 3760 00a4 E7EE077A 		vfma.f32	s15, s14, s14
 326:../../libs/PoliTeKDSP/libs/libDaisy/src/hid/disp/display.h ****                + (end_y - start_y) * (end_y - start_y)
 3761              		.loc 11 326 9 view .LVU837
 3762 00a8 F4EEE67A 		vcmpe.f32	s15, s13
 3763 00ac F1EE10FA 		vmrs	APSR_nzcv, FPSCR
 3764 00b0 06D5     		bpl	.L299
 330:../../libs/PoliTeKDSP/libs/libDaisy/src/hid/disp/display.h ****                 circle = true;
 3765              		.loc 11 330 13 view .LVU838
 3766 00b2 139B     		ldr	r3, [sp, #76]
 3767 00b4 B42B     		cmp	r3, #180
 3768 00b6 40F39680 		ble	.L240
 331:../../libs/PoliTeKDSP/libs/libDaisy/src/hid/disp/display.h ****             else
 3769              		.loc 11 331 24 view .LVU839
 3770 00ba 4FF00109 		mov	r9, #1
 3771 00be 01E0     		b	.L243
 3772              	.L299:
 309:../../libs/PoliTeKDSP/libs/libDaisy/src/hid/disp/display.h **** 
 3773              		.loc 11 309 14 view .LVU840
 3774 00c0 4FF00009 		mov	r9, #0
 3775              	.L243:
 3776              	.LVL257:
 307:../../libs/PoliTeKDSP/libs/libDaisy/src/hid/disp/display.h **** 
 3777              		.loc 11 307 27 view .LVU841
 3778 00c4 0124     		movs	r4, #1
ARM GAS  C:\Users\skipi\AppData\Local\Temp\ccs8qXFk.s 			page 116


 337:../../libs/PoliTeKDSP/libs/libDaisy/src/hid/disp/display.h ****         t_y = 0;
 3779              		.loc 11 337 13 view .LVU842
 3780 00c6 7842     		rsbs	r0, r7, #0
 3781              	.LVL258:
 338:../../libs/PoliTeKDSP/libs/libDaisy/src/hid/disp/display.h ****         err = 2 - 2 * radius;
 3782              		.loc 11 338 13 view .LVU843
 3783 00c8 4FF0000C 		mov	ip, #0
 3784 00cc 0095     		str	r5, [sp]
 339:../../libs/PoliTeKDSP/libs/libDaisy/src/hid/disp/display.h **** 
 3785              		.loc 11 339 17 view .LVU844
 3786 00ce E31B     		subs	r3, r4, r7
 307:../../libs/PoliTeKDSP/libs/libDaisy/src/hid/disp/display.h **** 
 3787              		.loc 11 307 17 view .LVU845
 3788 00d0 2146     		mov	r1, r4
 307:../../libs/PoliTeKDSP/libs/libDaisy/src/hid/disp/display.h **** 
 3789              		.loc 11 307 22 view .LVU846
 3790 00d2 2746     		mov	r7, r4
 3791              	.LVL259:
 307:../../libs/PoliTeKDSP/libs/libDaisy/src/hid/disp/display.h **** 
 3792              		.loc 11 307 12 view .LVU847
 3793 00d4 2246     		mov	r2, r4
 339:../../libs/PoliTeKDSP/libs/libDaisy/src/hid/disp/display.h **** 
 3794              		.loc 11 339 17 view .LVU848
 3795 00d6 A340     		lsls	r3, r3, r4
 3796              	.LVL260:
 3797              	.L269:
 343:../../libs/PoliTeKDSP/libs/libDaisy/src/hid/disp/display.h ****             {
 3798              		.loc 11 343 13 view .LVU849
 3799 00d8 B9F1000F 		cmp	r9, #0
 3800 00dc 6AD1     		bne	.L245
 348:../../libs/PoliTeKDSP/libs/libDaisy/src/hid/disp/display.h ****                 t_exy  = end_x * t_y;
 3801              		.loc 11 348 34 view .LVU850
 3802 00de 4242     		rsbs	r2, r0, #0
 3803              	.LVL261:
 345:../../libs/PoliTeKDSP/libs/libDaisy/src/hid/disp/display.h ****                 t_syx  = start_y * t_x;
 3804              		.loc 11 345 24 view .LVU851
 3805 00e0 06EE90CA 		vmov	s13, ip	@ int
 347:../../libs/PoliTeKDSP/libs/libDaisy/src/hid/disp/display.h ****                 t_synx = start_y * -t_x;
 3806              		.loc 11 347 34 view .LVU852
 3807 00e4 CCF10001 		rsb	r1, ip, #0
 3808              	.LVL262:
 348:../../libs/PoliTeKDSP/libs/libDaisy/src/hid/disp/display.h ****                 t_exy  = end_x * t_y;
 3809              		.loc 11 348 34 view .LVU853
 3810 00e8 07EE102A 		vmov	s14, r2	@ int
 345:../../libs/PoliTeKDSP/libs/libDaisy/src/hid/disp/display.h ****                 t_syx  = start_y * t_x;
 3811              		.loc 11 345 24 view .LVU854
 3812 00ec B8EEE66A 		vcvt.f32.s32	s12, s13
 347:../../libs/PoliTeKDSP/libs/libDaisy/src/hid/disp/display.h ****                 t_synx = start_y * -t_x;
 3813              		.loc 11 347 34 view .LVU855
 3814 00f0 07EE901A 		vmov	s15, r1	@ int
 346:../../libs/PoliTeKDSP/libs/libDaisy/src/hid/disp/display.h ****                 t_sxny = start_x * -t_y;
 3815              		.loc 11 346 24 view .LVU856
 3816 00f4 06EE900A 		vmov	s13, r0	@ int
 348:../../libs/PoliTeKDSP/libs/libDaisy/src/hid/disp/display.h ****                 t_exy  = end_x * t_y;
 3817              		.loc 11 348 34 view .LVU857
 3818 00f8 B8EEC77A 		vcvt.f32.s32	s14, s14
 354:../../libs/PoliTeKDSP/libs/libDaisy/src/hid/disp/display.h ****                 {
ARM GAS  C:\Users\skipi\AppData\Local\Temp\ccs8qXFk.s 			page 117


 3819              		.loc 11 354 17 view .LVU858
 3820 00fc 139A     		ldr	r2, [sp, #76]
 345:../../libs/PoliTeKDSP/libs/libDaisy/src/hid/disp/display.h ****                 t_syx  = start_y * t_x;
 3821              		.loc 11 345 24 view .LVU859
 3822 00fe 66EE084A 		vmul.f32	s9, s12, s16
 3823              	.LVL263:
 347:../../libs/PoliTeKDSP/libs/libDaisy/src/hid/disp/display.h ****                 t_synx = start_y * -t_x;
 3824              		.loc 11 347 34 view .LVU860
 3825 0102 F8EEE77A 		vcvt.f32.s32	s15, s15
 354:../../libs/PoliTeKDSP/libs/libDaisy/src/hid/disp/display.h ****                 {
 3826              		.loc 11 354 17 view .LVU861
 3827 0106 B42A     		cmp	r2, #180
 348:../../libs/PoliTeKDSP/libs/libDaisy/src/hid/disp/display.h ****                 t_exy  = end_x * t_y;
 3828              		.loc 11 348 24 view .LVU862
 3829 0108 27EE284A 		vmul.f32	s8, s14, s17
 346:../../libs/PoliTeKDSP/libs/libDaisy/src/hid/disp/display.h ****                 t_sxny = start_x * -t_y;
 3830              		.loc 11 346 24 view .LVU863
 3831 010c F8EEE66A 		vcvt.f32.s32	s13, s13
 347:../../libs/PoliTeKDSP/libs/libDaisy/src/hid/disp/display.h ****                 t_synx = start_y * -t_x;
 3832              		.loc 11 347 24 view .LVU864
 3833 0110 67EE885A 		vmul.f32	s11, s15, s16
 356:../../libs/PoliTeKDSP/libs/libDaisy/src/hid/disp/display.h ****                     d2 = (t_sxy - t_syx < 0 || t_exy - t_eyx > 0);
 3834              		.loc 11 356 33 view .LVU865
 3835 0114 74EEC43A 		vsub.f32	s7, s9, s8
 346:../../libs/PoliTeKDSP/libs/libDaisy/src/hid/disp/display.h ****                 t_sxny = start_x * -t_y;
 3836              		.loc 11 346 24 view .LVU866
 3837 0118 26EEA85A 		vmul.f32	s10, s13, s17
 3838              	.LVL264:
 349:../../libs/PoliTeKDSP/libs/libDaisy/src/hid/disp/display.h ****                 t_eyx  = end_y * t_x;
 3839              		.loc 11 349 24 view .LVU867
 3840 011c 26EE096A 		vmul.f32	s12, s12, s18
 3841              	.LVL265:
 350:../../libs/PoliTeKDSP/libs/libDaisy/src/hid/disp/display.h ****                 t_exny = end_x * -t_y;
 3842              		.loc 11 350 24 view .LVU868
 3843 0120 66EE806A 		vmul.f32	s13, s13, s0
 3844              	.LVL266:
 351:../../libs/PoliTeKDSP/libs/libDaisy/src/hid/disp/display.h ****                 t_eynx = end_y * -t_x;
 3845              		.loc 11 351 24 view .LVU869
 3846 0124 67EE897A 		vmul.f32	s15, s15, s18
 3847              	.LVL267:
 352:../../libs/PoliTeKDSP/libs/libDaisy/src/hid/disp/display.h **** 
 3848              		.loc 11 352 24 view .LVU870
 3849 0128 27EE007A 		vmul.f32	s14, s14, s0
 3850              	.LVL268:
 356:../../libs/PoliTeKDSP/libs/libDaisy/src/hid/disp/display.h ****                     d2 = (t_sxy - t_syx < 0 || t_exy - t_eyx > 0);
 3851              		.loc 11 356 46 view .LVU871
 3852 012c F5EEC03A 		vcmpe.f32	s7, #0
 354:../../libs/PoliTeKDSP/libs/libDaisy/src/hid/disp/display.h ****                 {
 3853              		.loc 11 354 17 view .LVU872
 3854 0130 40F3F280 		ble	.L246
 356:../../libs/PoliTeKDSP/libs/libDaisy/src/hid/disp/display.h ****                     d2 = (t_sxy - t_syx < 0 || t_exy - t_eyx > 0);
 3855              		.loc 11 356 46 view .LVU873
 3856 0134 F1EE10FA 		vmrs	APSR_nzcv, FPSCR
 3857 0138 00F17F81 		bmi	.L272
 356:../../libs/PoliTeKDSP/libs/libDaisy/src/hid/disp/display.h ****                     d2 = (t_sxy - t_syx < 0 || t_exy - t_eyx > 0);
 3858              		.loc 11 356 55 discriminator 2 view .LVU874
 3859 013c 76EE473A 		vsub.f32	s7, s12, s14
ARM GAS  C:\Users\skipi\AppData\Local\Temp\ccs8qXFk.s 			page 118


 357:../../libs/PoliTeKDSP/libs/libDaisy/src/hid/disp/display.h ****                     d3 = (t_sxny - t_syx < 0 || t_exny - t_eyx > 0);
 3860              		.loc 11 357 33 discriminator 2 view .LVU875
 3861 0140 74EEC54A 		vsub.f32	s9, s9, s10
 3862              	.LVL269:
 356:../../libs/PoliTeKDSP/libs/libDaisy/src/hid/disp/display.h ****                     d2 = (t_sxy - t_syx < 0 || t_exy - t_eyx > 0);
 3863              		.loc 11 356 46 discriminator 2 view .LVU876
 3864 0144 F5EEC03A 		vcmpe.f32	s7, #0
 3865 0148 F1EE10FA 		vmrs	APSR_nzcv, FPSCR
 357:../../libs/PoliTeKDSP/libs/libDaisy/src/hid/disp/display.h ****                     d3 = (t_sxny - t_syx < 0 || t_exny - t_eyx > 0);
 3866              		.loc 11 357 45 discriminator 2 view .LVU877
 3867 014c F5EEC04A 		vcmpe.f32	s9, #0
 356:../../libs/PoliTeKDSP/libs/libDaisy/src/hid/disp/display.h ****                     d2 = (t_sxy - t_syx < 0 || t_exy - t_eyx > 0);
 3868              		.loc 11 356 46 discriminator 2 view .LVU878
 3869 0150 CCBF     		ite	gt
 3870 0152 0122     		movgt	r2, #1
 3871 0154 0022     		movle	r2, #0
 3872              	.LVL270:
 357:../../libs/PoliTeKDSP/libs/libDaisy/src/hid/disp/display.h ****                     d3 = (t_sxny - t_syx < 0 || t_exny - t_eyx > 0);
 3873              		.loc 11 357 45 discriminator 2 view .LVU879
 3874 0156 F1EE10FA 		vmrs	APSR_nzcv, FPSCR
 3875 015a 00F17781 		bmi	.L273
 3876              	.L315:
 357:../../libs/PoliTeKDSP/libs/libDaisy/src/hid/disp/display.h ****                     d3 = (t_sxny - t_syx < 0 || t_exny - t_eyx > 0);
 3877              		.loc 11 357 54 discriminator 2 view .LVU880
 3878 015e 36EE666A 		vsub.f32	s12, s12, s13
 3879              	.LVL271:
 358:../../libs/PoliTeKDSP/libs/libDaisy/src/hid/disp/display.h ****                     d4 = (t_sxny - t_synx < 0 || t_exny - t_eynx > 0);
 3880              		.loc 11 358 34 discriminator 2 view .LVU881
 3881 0162 35EEC55A 		vsub.f32	s10, s11, s10
 3882              	.LVL272:
 357:../../libs/PoliTeKDSP/libs/libDaisy/src/hid/disp/display.h ****                     d3 = (t_sxny - t_syx < 0 || t_exny - t_eyx > 0);
 3883              		.loc 11 357 45 discriminator 2 view .LVU882
 3884 0166 B5EEC06A 		vcmpe.f32	s12, #0
 3885 016a F1EE10FA 		vmrs	APSR_nzcv, FPSCR
 358:../../libs/PoliTeKDSP/libs/libDaisy/src/hid/disp/display.h ****                     d4 = (t_sxny - t_synx < 0 || t_exny - t_eynx > 0);
 3886              		.loc 11 358 46 discriminator 2 view .LVU883
 3887 016e B5EEC05A 		vcmpe.f32	s10, #0
 357:../../libs/PoliTeKDSP/libs/libDaisy/src/hid/disp/display.h ****                     d3 = (t_sxny - t_syx < 0 || t_exny - t_eyx > 0);
 3888              		.loc 11 357 45 discriminator 2 view .LVU884
 3889 0172 CCBF     		ite	gt
 3890 0174 0121     		movgt	r1, #1
 3891 0176 0021     		movle	r1, #0
 3892              	.LVL273:
 358:../../libs/PoliTeKDSP/libs/libDaisy/src/hid/disp/display.h ****                     d4 = (t_sxny - t_synx < 0 || t_exny - t_eynx > 0);
 3893              		.loc 11 358 46 discriminator 2 view .LVU885
 3894 0178 F1EE10FA 		vmrs	APSR_nzcv, FPSCR
 3895 017c 00F16F81 		bmi	.L274
 3896              	.L316:
 358:../../libs/PoliTeKDSP/libs/libDaisy/src/hid/disp/display.h ****                     d4 = (t_sxny - t_synx < 0 || t_exny - t_eynx > 0);
 3897              		.loc 11 358 56 discriminator 2 view .LVU886
 3898 0180 77EEE66A 		vsub.f32	s13, s15, s13
 3899              	.LVL274:
 358:../../libs/PoliTeKDSP/libs/libDaisy/src/hid/disp/display.h ****                     d4 = (t_sxny - t_synx < 0 || t_exny - t_eynx > 0);
 3900              		.loc 11 358 46 discriminator 2 view .LVU887
 3901 0184 F5EEC06A 		vcmpe.f32	s13, #0
 3902 0188 F1EE10FA 		vmrs	APSR_nzcv, FPSCR
 3903 018c CCBF     		ite	gt
ARM GAS  C:\Users\skipi\AppData\Local\Temp\ccs8qXFk.s 			page 119


 3904 018e 0127     		movgt	r7, #1
 3905              	.LVL275:
 358:../../libs/PoliTeKDSP/libs/libDaisy/src/hid/disp/display.h ****                     d4 = (t_sxny - t_synx < 0 || t_exny - t_eynx > 0);
 3906              		.loc 11 358 46 discriminator 2 view .LVU888
 3907 0190 0027     		movle	r7, #0
 3908              	.L249:
 3909              	.LVL276:
 359:../../libs/PoliTeKDSP/libs/libDaisy/src/hid/disp/display.h ****                 }
 3910              		.loc 11 359 34 discriminator 6 view .LVU889
 3911 0192 75EEC45A 		vsub.f32	s11, s11, s8
 3912              	.LVL277:
 359:../../libs/PoliTeKDSP/libs/libDaisy/src/hid/disp/display.h ****                 }
 3913              		.loc 11 359 47 discriminator 6 view .LVU890
 3914 0196 F5EEC05A 		vcmpe.f32	s11, #0
 3915 019a F1EE10FA 		vmrs	APSR_nzcv, FPSCR
 3916 019e 00F14781 		bmi	.L275
 3917              	.L305:
 366:../../libs/PoliTeKDSP/libs/libDaisy/src/hid/disp/display.h ****                 }
 3918              		.loc 11 366 57 discriminator 1 view .LVU891
 3919 01a2 77EEC77A 		vsub.f32	s15, s15, s14
 3920              	.LVL278:
 366:../../libs/PoliTeKDSP/libs/libDaisy/src/hid/disp/display.h ****                 }
 3921              		.loc 11 366 47 discriminator 1 view .LVU892
 3922 01a6 F5EEC07A 		vcmpe.f32	s15, #0
 3923 01aa F1EE10FA 		vmrs	APSR_nzcv, FPSCR
 3924 01ae CCBF     		ite	gt
 3925 01b0 0124     		movgt	r4, #1
 3926              	.LVL279:
 366:../../libs/PoliTeKDSP/libs/libDaisy/src/hid/disp/display.h ****                 }
 3927              		.loc 11 366 47 discriminator 1 view .LVU893
 3928 01b2 0024     		movle	r4, #0
 3929              	.LVL280:
 3930              	.L245:
 370:../../libs/PoliTeKDSP/libs/libDaisy/src/hid/disp/display.h ****                 ((ChildType*)(this))
 3931              		.loc 11 370 13 view .LVU894
 3932 01b4 002A     		cmp	r2, #0
 3933 01b6 40F08A80 		bne	.L306
 3934              	.L257:
 373:../../libs/PoliTeKDSP/libs/libDaisy/src/hid/disp/display.h ****                 ((ChildType*)(this))
 3935              		.loc 11 373 13 view .LVU895
 3936 01ba 0029     		cmp	r1, #0
 3937 01bc 64D1     		bne	.L307
 3938              	.L259:
 376:../../libs/PoliTeKDSP/libs/libDaisy/src/hid/disp/display.h ****                 ((ChildType*)(this))
 3939              		.loc 11 376 13 view .LVU896
 3940 01be BFB9     		cbnz	r7, .L308
 3941              	.L261:
 379:../../libs/PoliTeKDSP/libs/libDaisy/src/hid/disp/display.h ****                 ((ChildType*)(this))
 3942              		.loc 11 379 13 view .LVU897
 3943 01c0 C4BB     		cbnz	r4, .L309
 3944              	.L263:
 3945              	.LVL281:
 384:../../libs/PoliTeKDSP/libs/libDaisy/src/hid/disp/display.h ****             {
 3946              		.loc 11 384 13 view .LVU898
 3947 01c2 9C45     		cmp	ip, r3
 3948 01c4 58DB     		blt	.L280
 3949              	.L311:
ARM GAS  C:\Users\skipi\AppData\Local\Temp\ccs8qXFk.s 			page 120


 386:../../libs/PoliTeKDSP/libs/libDaisy/src/hid/disp/display.h ****                 err = err + (t_y * 2 + 1);
 3950              		.loc 11 386 17 view .LVU899
 3951 01c6 0CF1010C 		add	ip, ip, #1
 3952              	.LVL282:
 387:../../libs/PoliTeKDSP/libs/libDaisy/src/hid/disp/display.h ****                 if(-t_x == t_y && e2 <= t_x)
 3953              		.loc 11 387 38 view .LVU900
 3954 01ca 03EB4C0E 		add	lr, r3, ip, lsl #1
 388:../../libs/PoliTeKDSP/libs/libDaisy/src/hid/disp/display.h ****                 {
 3955              		.loc 11 388 17 view .LVU901
 3956 01ce 1CEB000F 		cmn	ip, r0
 387:../../libs/PoliTeKDSP/libs/libDaisy/src/hid/disp/display.h ****                 if(-t_x == t_y && e2 <= t_x)
 3957              		.loc 11 387 21 view .LVU902
 3958 01d2 0EF1010E 		add	lr, lr, #1
 3959              	.LVL283:
 388:../../libs/PoliTeKDSP/libs/libDaisy/src/hid/disp/display.h ****                 {
 3960              		.loc 11 388 17 view .LVU903
 3961 01d6 00F0C080 		beq	.L310
 3962              	.LVL284:
 3963              	.L265:
 393:../../libs/PoliTeKDSP/libs/libDaisy/src/hid/disp/display.h ****             {
 3964              		.loc 11 393 13 view .LVU904
 3965 01da 9842     		cmp	r0, r3
 3966 01dc 4FDB     		blt	.L266
 3967              	.L281:
 393:../../libs/PoliTeKDSP/libs/libDaisy/src/hid/disp/display.h ****             {
 3968              		.loc 11 393 13 view .LVU905
 3969 01de 7346     		mov	r3, lr
 3970              	.LVL285:
 3971              	.L267:
 398:../../libs/PoliTeKDSP/libs/libDaisy/src/hid/disp/display.h ****     }
 3972              		.loc 11 398 21 is_stmt 1 view .LVU906
 3973 01e0 0028     		cmp	r0, #0
 3974 01e2 7FF779AF 		ble	.L269
 3975              	.LVL286:
 3976              	.L240:
 399:../../libs/PoliTeKDSP/libs/libDaisy/src/hid/disp/display.h **** 
 3977              		.loc 11 399 5 is_stmt 0 view .LVU907
 3978 01e6 03B0     		add	sp, sp, #12
 3979              		.cfi_remember_state
 3980              		.cfi_def_cfa_offset 60
 3981              		@ sp needed
 3982 01e8 BDEC068B 		vldm	sp!, {d8-d10}
 3983              		.cfi_restore 84
 3984              		.cfi_restore 85
 3985              		.cfi_restore 82
 3986              		.cfi_restore 83
 3987              		.cfi_restore 80
 3988              		.cfi_restore 81
 3989              		.cfi_def_cfa_offset 36
 3990              	.LVL287:
 399:../../libs/PoliTeKDSP/libs/libDaisy/src/hid/disp/display.h **** 
 3991              		.loc 11 399 5 view .LVU908
 3992 01ec BDE8F08F 		pop	{r4, r5, r6, r7, r8, r9, r10, fp, pc}
 3993              	.LVL288:
 3994              	.L308:
 3995              		.cfi_restore_state
 378:../../libs/PoliTeKDSP/libs/libDaisy/src/hid/disp/display.h ****             if(d4)
ARM GAS  C:\Users\skipi\AppData\Local\Temp\ccs8qXFk.s 			page 121


 3996              		.loc 11 378 43 view .LVU909
 3997 01f0 009D     		ldr	r5, [sp]
 3998 01f2 A6EB0C0E 		sub	lr, r6, ip
 3999 01f6 00EB050A 		add	r10, r0, r5
 4000              	.LVL289:
 4001              	.LBB1329:
 4002              	.LBI1329:
  42:../../libs/PoliTeKDSP/libs/libDaisy/src/hid/disp/oled_display.h ****     {
 4003              		.loc 10 42 10 is_stmt 1 view .LVU910
 4004              	.LBB1330:
 4005              	.LBI1330:
 361:../../libs/PoliTeKDSP/libs/libDaisy/src/dev/oled_ssd130x.h ****     {
 4006              		.loc 12 361 10 view .LVU911
 4007              	.LBB1331:
 363:../../libs/PoliTeKDSP/libs/libDaisy/src/dev/oled_ssd130x.h ****             return;
 4008              		.loc 12 363 9 is_stmt 0 view .LVU912
 4009 01fa BAF17F0F 		cmp	r10, #127
 4010 01fe DFD8     		bhi	.L261
 4011 0200 BEF13F0F 		cmp	lr, #63
 4012 0204 DCD8     		bhi	.L261
 366:../../libs/PoliTeKDSP/libs/libDaisy/src/dev/oled_ssd130x.h ****         else
 4013              		.loc 12 366 28 view .LVU913
 4014 0206 4FEADE0B 		lsr	fp, lr, #3
 365:../../libs/PoliTeKDSP/libs/libDaisy/src/dev/oled_ssd130x.h ****             buffer_[x + (y / 8) * width] |= (1 << (y % 8));
 4015              		.loc 12 365 9 view .LVU914
 4016 020a 019D     		ldr	r5, [sp, #4]
 366:../../libs/PoliTeKDSP/libs/libDaisy/src/dev/oled_ssd130x.h ****         else
 4017              		.loc 12 366 42 view .LVU915
 4018 020c 0AEBCB1A 		add	r10, r10, fp, lsl #7
 4019              	.LVL290:
 365:../../libs/PoliTeKDSP/libs/libDaisy/src/dev/oled_ssd130x.h ****             buffer_[x + (y / 8) * width] |= (1 << (y % 8));
 4020              		.loc 12 365 9 view .LVU916
 4021 0210 002D     		cmp	r5, #0
 4022 0212 00F0B180 		beq	.L262
 366:../../libs/PoliTeKDSP/libs/libDaisy/src/dev/oled_ssd130x.h ****         else
 4023              		.loc 12 366 54 view .LVU917
 4024 0216 0EF0070B 		and	fp, lr, #7
 366:../../libs/PoliTeKDSP/libs/libDaisy/src/dev/oled_ssd130x.h ****         else
 4025              		.loc 12 366 42 view .LVU918
 4026 021a C244     		add	r10, r10, r8
 366:../../libs/PoliTeKDSP/libs/libDaisy/src/dev/oled_ssd130x.h ****         else
 4027              		.loc 12 366 48 view .LVU919
 4028 021c 4FF0010E 		mov	lr, #1
 4029              	.LVL291:
 366:../../libs/PoliTeKDSP/libs/libDaisy/src/dev/oled_ssd130x.h ****         else
 4030              		.loc 12 366 48 view .LVU920
 4031 0220 0EFA0BFE 		lsl	lr, lr, fp
 366:../../libs/PoliTeKDSP/libs/libDaisy/src/dev/oled_ssd130x.h ****         else
 4032              		.loc 12 366 42 view .LVU921
 4033 0224 9AF810B0 		ldrb	fp, [r10, #16]	@ zero_extendqisi2
 4034 0228 4EEA0B0E 		orr	lr, lr, fp
 4035 022c 8AF810E0 		strb	lr, [r10, #16]
 4036              	.LVL292:
 366:../../libs/PoliTeKDSP/libs/libDaisy/src/dev/oled_ssd130x.h ****         else
 4037              		.loc 12 366 42 view .LVU922
 4038              	.LBE1331:
 4039              	.LBE1330:
ARM GAS  C:\Users\skipi\AppData\Local\Temp\ccs8qXFk.s 			page 122


 4040              	.LBE1329:
 379:../../libs/PoliTeKDSP/libs/libDaisy/src/hid/disp/display.h ****                 ((ChildType*)(this))
 4041              		.loc 11 379 13 view .LVU923
 4042 0230 002C     		cmp	r4, #0
 4043 0232 C6D0     		beq	.L263
 4044              	.L309:
 381:../../libs/PoliTeKDSP/libs/libDaisy/src/hid/disp/display.h **** 
 4045              		.loc 11 381 43 view .LVU924
 4046 0234 009D     		ldr	r5, [sp]
 4047 0236 A6EB0C0E 		sub	lr, r6, ip
 4048 023a A5EB000A 		sub	r10, r5, r0
 4049              	.LVL293:
 4050              	.LBB1336:
 4051              	.LBI1336:
  42:../../libs/PoliTeKDSP/libs/libDaisy/src/hid/disp/oled_display.h ****     {
 4052              		.loc 10 42 10 is_stmt 1 view .LVU925
 4053              	.LBB1337:
 4054              	.LBI1337:
 361:../../libs/PoliTeKDSP/libs/libDaisy/src/dev/oled_ssd130x.h ****     {
 4055              		.loc 12 361 10 view .LVU926
 4056              	.LBB1338:
 363:../../libs/PoliTeKDSP/libs/libDaisy/src/dev/oled_ssd130x.h ****             return;
 4057              		.loc 12 363 9 is_stmt 0 view .LVU927
 4058 023e BAF17F0F 		cmp	r10, #127
 4059 0242 BED8     		bhi	.L263
 4060 0244 BEF13F0F 		cmp	lr, #63
 4061 0248 BBD8     		bhi	.L263
 366:../../libs/PoliTeKDSP/libs/libDaisy/src/dev/oled_ssd130x.h ****         else
 4062              		.loc 12 366 28 view .LVU928
 4063 024a 4FEADE0B 		lsr	fp, lr, #3
 365:../../libs/PoliTeKDSP/libs/libDaisy/src/dev/oled_ssd130x.h ****             buffer_[x + (y / 8) * width] |= (1 << (y % 8));
 4064              		.loc 12 365 9 view .LVU929
 4065 024e 019D     		ldr	r5, [sp, #4]
 366:../../libs/PoliTeKDSP/libs/libDaisy/src/dev/oled_ssd130x.h ****         else
 4066              		.loc 12 366 42 view .LVU930
 4067 0250 0AEBCB1A 		add	r10, r10, fp, lsl #7
 4068              	.LVL294:
 365:../../libs/PoliTeKDSP/libs/libDaisy/src/dev/oled_ssd130x.h ****             buffer_[x + (y / 8) * width] |= (1 << (y % 8));
 4069              		.loc 12 365 9 view .LVU931
 4070 0254 002D     		cmp	r5, #0
 4071 0256 00F0AE80 		beq	.L264
 366:../../libs/PoliTeKDSP/libs/libDaisy/src/dev/oled_ssd130x.h ****         else
 4072              		.loc 12 366 54 view .LVU932
 4073 025a 0EF0070B 		and	fp, lr, #7
 366:../../libs/PoliTeKDSP/libs/libDaisy/src/dev/oled_ssd130x.h ****         else
 4074              		.loc 12 366 42 view .LVU933
 4075 025e C244     		add	r10, r10, r8
 366:../../libs/PoliTeKDSP/libs/libDaisy/src/dev/oled_ssd130x.h ****         else
 4076              		.loc 12 366 48 view .LVU934
 4077 0260 4FF0010E 		mov	lr, #1
 4078              	.LVL295:
 366:../../libs/PoliTeKDSP/libs/libDaisy/src/dev/oled_ssd130x.h ****         else
 4079              		.loc 12 366 48 view .LVU935
 4080              	.LBE1338:
 4081              	.LBE1337:
 4082              	.LBE1336:
 384:../../libs/PoliTeKDSP/libs/libDaisy/src/hid/disp/display.h ****             {
ARM GAS  C:\Users\skipi\AppData\Local\Temp\ccs8qXFk.s 			page 123


 4083              		.loc 11 384 13 view .LVU936
 4084 0264 9C45     		cmp	ip, r3
 4085              	.LBB1345:
 4086              	.LBB1343:
 4087              	.LBB1341:
 366:../../libs/PoliTeKDSP/libs/libDaisy/src/dev/oled_ssd130x.h ****         else
 4088              		.loc 12 366 48 view .LVU937
 4089 0266 0EFA0BFE 		lsl	lr, lr, fp
 366:../../libs/PoliTeKDSP/libs/libDaisy/src/dev/oled_ssd130x.h ****         else
 4090              		.loc 12 366 42 view .LVU938
 4091 026a 9AF810B0 		ldrb	fp, [r10, #16]	@ zero_extendqisi2
 4092 026e 4EEA0B0E 		orr	lr, lr, fp
 4093 0272 8AF810E0 		strb	lr, [r10, #16]
 4094              	.LVL296:
 366:../../libs/PoliTeKDSP/libs/libDaisy/src/dev/oled_ssd130x.h ****         else
 4095              		.loc 12 366 42 view .LVU939
 4096              	.LBE1341:
 4097              	.LBE1343:
 4098              	.LBE1345:
 384:../../libs/PoliTeKDSP/libs/libDaisy/src/hid/disp/display.h ****             {
 4099              		.loc 11 384 13 view .LVU940
 4100 0276 A6DA     		bge	.L311
 4101              	.L280:
 393:../../libs/PoliTeKDSP/libs/libDaisy/src/hid/disp/display.h ****             {
 4102              		.loc 11 393 13 view .LVU941
 4103 0278 9842     		cmp	r0, r3
 4104 027a 9E46     		mov	lr, r3
 4105              	.LVL297:
 393:../../libs/PoliTeKDSP/libs/libDaisy/src/hid/disp/display.h ****             {
 4106              		.loc 11 393 13 view .LVU942
 4107 027c AFDA     		bge	.L281
 4108              	.LVL298:
 4109              	.L266:
 395:../../libs/PoliTeKDSP/libs/libDaisy/src/hid/disp/display.h ****                 err = err + (t_x * 2 + 1);
 4110              		.loc 11 395 17 view .LVU943
 4111 027e 0130     		adds	r0, r0, #1
 4112              	.LVL299:
 396:../../libs/PoliTeKDSP/libs/libDaisy/src/hid/disp/display.h ****             }
 4113              		.loc 11 396 38 view .LVU944
 4114 0280 0EEB4003 		add	r3, lr, r0, lsl #1
 396:../../libs/PoliTeKDSP/libs/libDaisy/src/hid/disp/display.h ****             }
 4115              		.loc 11 396 21 view .LVU945
 4116 0284 0133     		adds	r3, r3, #1
 4117              	.LVL300:
 396:../../libs/PoliTeKDSP/libs/libDaisy/src/hid/disp/display.h ****             }
 4118              		.loc 11 396 21 view .LVU946
 4119 0286 ABE7     		b	.L267
 4120              	.L307:
 375:../../libs/PoliTeKDSP/libs/libDaisy/src/hid/disp/display.h ****             if(d3)
 4121              		.loc 11 375 43 view .LVU947
 4122 0288 009D     		ldr	r5, [sp]
 4123 028a 0CEB060E 		add	lr, ip, r6
 4124 028e 00EB050A 		add	r10, r0, r5
 4125              	.LVL301:
 4126              	.LBB1346:
 4127              	.LBI1346:
  42:../../libs/PoliTeKDSP/libs/libDaisy/src/hid/disp/oled_display.h ****     {
ARM GAS  C:\Users\skipi\AppData\Local\Temp\ccs8qXFk.s 			page 124


 4128              		.loc 10 42 10 is_stmt 1 view .LVU948
 4129              	.LBB1347:
 4130              	.LBI1347:
 361:../../libs/PoliTeKDSP/libs/libDaisy/src/dev/oled_ssd130x.h ****     {
 4131              		.loc 12 361 10 view .LVU949
 4132              	.LBB1348:
 363:../../libs/PoliTeKDSP/libs/libDaisy/src/dev/oled_ssd130x.h ****             return;
 4133              		.loc 12 363 9 is_stmt 0 view .LVU950
 4134 0292 BAF17F0F 		cmp	r10, #127
 4135 0296 92D8     		bhi	.L259
 4136 0298 BEF13F0F 		cmp	lr, #63
 4137 029c 8FD8     		bhi	.L259
 366:../../libs/PoliTeKDSP/libs/libDaisy/src/dev/oled_ssd130x.h ****         else
 4138              		.loc 12 366 28 view .LVU951
 4139 029e 4FEADE0B 		lsr	fp, lr, #3
 365:../../libs/PoliTeKDSP/libs/libDaisy/src/dev/oled_ssd130x.h ****             buffer_[x + (y / 8) * width] |= (1 << (y % 8));
 4140              		.loc 12 365 9 view .LVU952
 4141 02a2 019D     		ldr	r5, [sp, #4]
 366:../../libs/PoliTeKDSP/libs/libDaisy/src/dev/oled_ssd130x.h ****         else
 4142              		.loc 12 366 42 view .LVU953
 4143 02a4 0AEBCB1A 		add	r10, r10, fp, lsl #7
 4144              	.LVL302:
 365:../../libs/PoliTeKDSP/libs/libDaisy/src/dev/oled_ssd130x.h ****             buffer_[x + (y / 8) * width] |= (1 << (y % 8));
 4145              		.loc 12 365 9 view .LVU954
 4146 02a8 002D     		cmp	r5, #0
 4147 02aa 73D0     		beq	.L260
 366:../../libs/PoliTeKDSP/libs/libDaisy/src/dev/oled_ssd130x.h ****         else
 4148              		.loc 12 366 54 view .LVU955
 4149 02ac 0EF0070B 		and	fp, lr, #7
 366:../../libs/PoliTeKDSP/libs/libDaisy/src/dev/oled_ssd130x.h ****         else
 4150              		.loc 12 366 42 view .LVU956
 4151 02b0 C244     		add	r10, r10, r8
 366:../../libs/PoliTeKDSP/libs/libDaisy/src/dev/oled_ssd130x.h ****         else
 4152              		.loc 12 366 48 view .LVU957
 4153 02b2 4FF0010E 		mov	lr, #1
 4154              	.LVL303:
 366:../../libs/PoliTeKDSP/libs/libDaisy/src/dev/oled_ssd130x.h ****         else
 4155              		.loc 12 366 48 view .LVU958
 4156 02b6 0EFA0BFE 		lsl	lr, lr, fp
 366:../../libs/PoliTeKDSP/libs/libDaisy/src/dev/oled_ssd130x.h ****         else
 4157              		.loc 12 366 42 view .LVU959
 4158 02ba 9AF810B0 		ldrb	fp, [r10, #16]	@ zero_extendqisi2
 4159 02be 4EEA0B0E 		orr	lr, lr, fp
 4160 02c2 8AF810E0 		strb	lr, [r10, #16]
 4161              	.LVL304:
 366:../../libs/PoliTeKDSP/libs/libDaisy/src/dev/oled_ssd130x.h ****         else
 4162              		.loc 12 366 42 view .LVU960
 4163              	.LBE1348:
 4164              	.LBE1347:
 4165              	.LBE1346:
 376:../../libs/PoliTeKDSP/libs/libDaisy/src/hid/disp/display.h ****                 ((ChildType*)(this))
 4166              		.loc 11 376 13 view .LVU961
 4167 02c6 002F     		cmp	r7, #0
 4168 02c8 3FF47AAF 		beq	.L261
 4169 02cc 90E7     		b	.L308
 4170              	.L306:
 372:../../libs/PoliTeKDSP/libs/libDaisy/src/hid/disp/display.h ****             if(d2)
ARM GAS  C:\Users\skipi\AppData\Local\Temp\ccs8qXFk.s 			page 125


 4171              		.loc 11 372 43 view .LVU962
 4172 02ce 009D     		ldr	r5, [sp]
 4173 02d0 0CEB060E 		add	lr, ip, r6
 4174 02d4 A5EB000A 		sub	r10, r5, r0
 4175              	.LVL305:
 4176              	.LBB1353:
 4177              	.LBI1353:
  42:../../libs/PoliTeKDSP/libs/libDaisy/src/hid/disp/oled_display.h ****     {
 4178              		.loc 10 42 10 is_stmt 1 view .LVU963
 4179              	.LBB1354:
 4180              	.LBI1354:
 361:../../libs/PoliTeKDSP/libs/libDaisy/src/dev/oled_ssd130x.h ****     {
 4181              		.loc 12 361 10 view .LVU964
 4182              	.LBB1355:
 363:../../libs/PoliTeKDSP/libs/libDaisy/src/dev/oled_ssd130x.h ****             return;
 4183              		.loc 12 363 9 is_stmt 0 view .LVU965
 4184 02d8 BAF17F0F 		cmp	r10, #127
 4185 02dc 3FF66DAF 		bhi	.L257
 4186 02e0 BEF13F0F 		cmp	lr, #63
 4187 02e4 3FF669AF 		bhi	.L257
 366:../../libs/PoliTeKDSP/libs/libDaisy/src/dev/oled_ssd130x.h ****         else
 4188              		.loc 12 366 28 view .LVU966
 4189 02e8 4FEADE0B 		lsr	fp, lr, #3
 365:../../libs/PoliTeKDSP/libs/libDaisy/src/dev/oled_ssd130x.h ****             buffer_[x + (y / 8) * width] |= (1 << (y % 8));
 4190              		.loc 12 365 9 view .LVU967
 4191 02ec 019D     		ldr	r5, [sp, #4]
 366:../../libs/PoliTeKDSP/libs/libDaisy/src/dev/oled_ssd130x.h ****         else
 4192              		.loc 12 366 42 view .LVU968
 4193 02ee 0AEBCB1A 		add	r10, r10, fp, lsl #7
 4194              	.LVL306:
 365:../../libs/PoliTeKDSP/libs/libDaisy/src/dev/oled_ssd130x.h ****             buffer_[x + (y / 8) * width] |= (1 << (y % 8));
 4195              		.loc 12 365 9 view .LVU969
 4196 02f2 002D     		cmp	r5, #0
 4197 02f4 6DD0     		beq	.L258
 366:../../libs/PoliTeKDSP/libs/libDaisy/src/dev/oled_ssd130x.h ****         else
 4198              		.loc 12 366 54 view .LVU970
 4199 02f6 0EF0070B 		and	fp, lr, #7
 366:../../libs/PoliTeKDSP/libs/libDaisy/src/dev/oled_ssd130x.h ****         else
 4200              		.loc 12 366 42 view .LVU971
 4201 02fa C244     		add	r10, r10, r8
 366:../../libs/PoliTeKDSP/libs/libDaisy/src/dev/oled_ssd130x.h ****         else
 4202              		.loc 12 366 48 view .LVU972
 4203 02fc 4FF0010E 		mov	lr, #1
 4204              	.LVL307:
 366:../../libs/PoliTeKDSP/libs/libDaisy/src/dev/oled_ssd130x.h ****         else
 4205              		.loc 12 366 48 view .LVU973
 4206 0300 0EFA0BFE 		lsl	lr, lr, fp
 366:../../libs/PoliTeKDSP/libs/libDaisy/src/dev/oled_ssd130x.h ****         else
 4207              		.loc 12 366 42 view .LVU974
 4208 0304 9AF810B0 		ldrb	fp, [r10, #16]	@ zero_extendqisi2
 4209 0308 4EEA0B0E 		orr	lr, lr, fp
 4210 030c 8AF810E0 		strb	lr, [r10, #16]
 4211              	.LVL308:
 366:../../libs/PoliTeKDSP/libs/libDaisy/src/dev/oled_ssd130x.h ****         else
 4212              		.loc 12 366 42 view .LVU975
 4213              	.LBE1355:
 4214              	.LBE1354:
ARM GAS  C:\Users\skipi\AppData\Local\Temp\ccs8qXFk.s 			page 126


 4215              	.LBE1353:
 373:../../libs/PoliTeKDSP/libs/libDaisy/src/hid/disp/display.h ****                 ((ChildType*)(this))
 4216              		.loc 11 373 13 view .LVU976
 4217 0310 0029     		cmp	r1, #0
 4218 0312 3FF454AF 		beq	.L259
 4219 0316 B7E7     		b	.L307
 4220              	.LVL309:
 4221              	.L246:
 363:../../libs/PoliTeKDSP/libs/libDaisy/src/hid/disp/display.h ****                     d2 = (t_sxy - t_syx < 0 && t_exy - t_eyx > 0);
 4222              		.loc 11 363 46 view .LVU977
 4223 0318 F1EE10FA 		vmrs	APSR_nzcv, FPSCR
 4224 031c 7ED4     		bmi	.L312
 4225 031e 4A46     		mov	r2, r9
 4226              	.L250:
 4227              	.LVL310:
 364:../../libs/PoliTeKDSP/libs/libDaisy/src/hid/disp/display.h ****                     d3 = (t_sxny - t_syx < 0 && t_exny - t_eyx > 0);
 4228              		.loc 11 364 33 discriminator 6 view .LVU978
 4229 0320 74EEC54A 		vsub.f32	s9, s9, s10
 4230              	.LVL311:
 364:../../libs/PoliTeKDSP/libs/libDaisy/src/hid/disp/display.h ****                     d3 = (t_sxny - t_syx < 0 && t_exny - t_eyx > 0);
 4231              		.loc 11 364 45 discriminator 6 view .LVU979
 4232 0324 F5EEC04A 		vcmpe.f32	s9, #0
 4233 0328 F1EE10FA 		vmrs	APSR_nzcv, FPSCR
 4234 032c 6CD4     		bmi	.L313
 364:../../libs/PoliTeKDSP/libs/libDaisy/src/hid/disp/display.h ****                     d3 = (t_sxny - t_syx < 0 && t_exny - t_eyx > 0);
 4235              		.loc 11 364 45 view .LVU980
 4236 032e 0021     		movs	r1, #0
 4237              	.LVL312:
 4238              	.L252:
 365:../../libs/PoliTeKDSP/libs/libDaisy/src/hid/disp/display.h ****                     d4 = (t_sxny - t_synx < 0 && t_exny - t_eynx > 0);
 4239              		.loc 11 365 34 discriminator 6 view .LVU981
 4240 0330 35EEC55A 		vsub.f32	s10, s11, s10
 4241              	.LVL313:
 365:../../libs/PoliTeKDSP/libs/libDaisy/src/hid/disp/display.h ****                     d4 = (t_sxny - t_synx < 0 && t_exny - t_eynx > 0);
 4242              		.loc 11 365 46 discriminator 6 view .LVU982
 4243 0334 B5EEC05A 		vcmpe.f32	s10, #0
 4244 0338 F1EE10FA 		vmrs	APSR_nzcv, FPSCR
 4245 033c 5AD4     		bmi	.L314
 365:../../libs/PoliTeKDSP/libs/libDaisy/src/hid/disp/display.h ****                     d4 = (t_sxny - t_synx < 0 && t_exny - t_eynx > 0);
 4246              		.loc 11 365 46 view .LVU983
 4247 033e 0027     		movs	r7, #0
 4248              	.LVL314:
 4249              	.L254:
 366:../../libs/PoliTeKDSP/libs/libDaisy/src/hid/disp/display.h ****                 }
 4250              		.loc 11 366 34 discriminator 6 view .LVU984
 4251 0340 75EEC45A 		vsub.f32	s11, s11, s8
 4252              	.LVL315:
 366:../../libs/PoliTeKDSP/libs/libDaisy/src/hid/disp/display.h ****                 }
 4253              		.loc 11 366 47 discriminator 6 view .LVU985
 4254 0344 F5EEC05A 		vcmpe.f32	s11, #0
 4255 0348 F1EE10FA 		vmrs	APSR_nzcv, FPSCR
 4256 034c 3FF529AF 		bmi	.L305
 366:../../libs/PoliTeKDSP/libs/libDaisy/src/hid/disp/display.h ****                 }
 4257              		.loc 11 366 47 view .LVU986
 4258 0350 0024     		movs	r4, #0
 4259              	.LVL316:
 370:../../libs/PoliTeKDSP/libs/libDaisy/src/hid/disp/display.h ****                 ((ChildType*)(this))
ARM GAS  C:\Users\skipi\AppData\Local\Temp\ccs8qXFk.s 			page 127


 4260              		.loc 11 370 13 view .LVU987
 4261 0352 002A     		cmp	r2, #0
 4262 0354 3FF431AF 		beq	.L257
 4263 0358 B9E7     		b	.L306
 4264              	.LVL317:
 4265              	.L310:
 388:../../libs/PoliTeKDSP/libs/libDaisy/src/hid/disp/display.h ****                 {
 4266              		.loc 11 388 32 discriminator 1 view .LVU988
 4267 035a 9842     		cmp	r0, r3
 4268 035c 8FDB     		blt	.L266
 390:../../libs/PoliTeKDSP/libs/libDaisy/src/hid/disp/display.h ****                 }
 4269              		.loc 11 390 24 view .LVU989
 4270 035e 0023     		movs	r3, #0
 4271              	.LVL318:
 390:../../libs/PoliTeKDSP/libs/libDaisy/src/hid/disp/display.h ****                 }
 4272              		.loc 11 390 24 view .LVU990
 4273 0360 3BE7     		b	.L265
 4274              	.L318:
 4275 0362 00BFAFF3 		.align	3
 4275      0080
 4276              	.L317:
 4277 0368 7A008BFC 		.word	-57999238
 4278 036c FA210940 		.word	1074340346
 4279 0370 00000000 		.word	0
 4280 0374 00806640 		.word	1080459264
 4281              	.LVL319:
 4282              	.L262:
 4283              	.LBB1360:
 4284              	.LBB1335:
 4285              	.LBB1334:
 4286              	.LBB1332:
 4287              	.LBI1332:
 361:../../libs/PoliTeKDSP/libs/libDaisy/src/dev/oled_ssd130x.h ****     {
 4288              		.loc 12 361 10 is_stmt 1 view .LVU991
 4289              	.LBB1333:
 368:../../libs/PoliTeKDSP/libs/libDaisy/src/dev/oled_ssd130x.h ****     }
 4290              		.loc 12 368 42 is_stmt 0 view .LVU992
 4291 0378 C244     		add	r10, r10, r8
 4292              	.LVL320:
 368:../../libs/PoliTeKDSP/libs/libDaisy/src/dev/oled_ssd130x.h ****     }
 4293              		.loc 12 368 49 view .LVU993
 4294 037a 4FF0010B 		mov	fp, #1
 4295              	.LVL321:
 368:../../libs/PoliTeKDSP/libs/libDaisy/src/dev/oled_ssd130x.h ****     }
 4296              		.loc 12 368 55 view .LVU994
 4297 037e 0EF0070E 		and	lr, lr, #7
 4298              	.LVL322:
 368:../../libs/PoliTeKDSP/libs/libDaisy/src/dev/oled_ssd130x.h ****     }
 4299              		.loc 12 368 49 view .LVU995
 4300 0382 0BFA0EFE 		lsl	lr, fp, lr
 368:../../libs/PoliTeKDSP/libs/libDaisy/src/dev/oled_ssd130x.h ****     }
 4301              		.loc 12 368 42 view .LVU996
 4302 0386 9AF810B0 		ldrb	fp, [r10, #16]	@ zero_extendqisi2
 4303 038a 2BEA0E0E 		bic	lr, fp, lr
 4304 038e 8AF810E0 		strb	lr, [r10, #16]
 4305              	.LVL323:
 368:../../libs/PoliTeKDSP/libs/libDaisy/src/dev/oled_ssd130x.h ****     }
ARM GAS  C:\Users\skipi\AppData\Local\Temp\ccs8qXFk.s 			page 128


 4306              		.loc 12 368 42 view .LVU997
 4307 0392 15E7     		b	.L261
 4308              	.LVL324:
 4309              	.L260:
 368:../../libs/PoliTeKDSP/libs/libDaisy/src/dev/oled_ssd130x.h ****     }
 4310              		.loc 12 368 42 view .LVU998
 4311              	.LBE1333:
 4312              	.LBE1332:
 4313              	.LBE1334:
 4314              	.LBE1335:
 4315              	.LBE1360:
 4316              	.LBB1361:
 4317              	.LBB1352:
 4318              	.LBB1351:
 4319              	.LBB1349:
 4320              	.LBI1349:
 361:../../libs/PoliTeKDSP/libs/libDaisy/src/dev/oled_ssd130x.h ****     {
 4321              		.loc 12 361 10 is_stmt 1 view .LVU999
 4322              	.LBB1350:
 368:../../libs/PoliTeKDSP/libs/libDaisy/src/dev/oled_ssd130x.h ****     }
 4323              		.loc 12 368 42 is_stmt 0 view .LVU1000
 4324 0394 C244     		add	r10, r10, r8
 4325              	.LVL325:
 368:../../libs/PoliTeKDSP/libs/libDaisy/src/dev/oled_ssd130x.h ****     }
 4326              		.loc 12 368 49 view .LVU1001
 4327 0396 4FF0010B 		mov	fp, #1
 4328              	.LVL326:
 368:../../libs/PoliTeKDSP/libs/libDaisy/src/dev/oled_ssd130x.h ****     }
 4329              		.loc 12 368 55 view .LVU1002
 4330 039a 0EF0070E 		and	lr, lr, #7
 4331              	.LVL327:
 368:../../libs/PoliTeKDSP/libs/libDaisy/src/dev/oled_ssd130x.h ****     }
 4332              		.loc 12 368 49 view .LVU1003
 4333 039e 0BFA0EFE 		lsl	lr, fp, lr
 368:../../libs/PoliTeKDSP/libs/libDaisy/src/dev/oled_ssd130x.h ****     }
 4334              		.loc 12 368 42 view .LVU1004
 4335 03a2 9AF810B0 		ldrb	fp, [r10, #16]	@ zero_extendqisi2
 4336 03a6 2BEA0E0E 		bic	lr, fp, lr
 4337 03aa 8AF810E0 		strb	lr, [r10, #16]
 4338              	.LVL328:
 368:../../libs/PoliTeKDSP/libs/libDaisy/src/dev/oled_ssd130x.h ****     }
 4339              		.loc 12 368 42 view .LVU1005
 4340              	.LBE1350:
 4341              	.LBE1349:
 4342              	.LBE1351:
 4343              	.LBE1352:
 4344              	.LBE1361:
 376:../../libs/PoliTeKDSP/libs/libDaisy/src/hid/disp/display.h ****                 ((ChildType*)(this))
 4345              		.loc 11 376 13 view .LVU1006
 4346 03ae 002F     		cmp	r7, #0
 4347 03b0 3FF406AF 		beq	.L261
 4348 03b4 1CE7     		b	.L308
 4349              	.LVL329:
 4350              	.L264:
 4351              	.LBB1362:
 4352              	.LBB1344:
 4353              	.LBB1342:
ARM GAS  C:\Users\skipi\AppData\Local\Temp\ccs8qXFk.s 			page 129


 4354              	.LBB1339:
 4355              	.LBI1339:
 361:../../libs/PoliTeKDSP/libs/libDaisy/src/dev/oled_ssd130x.h ****     {
 4356              		.loc 12 361 10 is_stmt 1 view .LVU1007
 4357              	.LBB1340:
 368:../../libs/PoliTeKDSP/libs/libDaisy/src/dev/oled_ssd130x.h ****     }
 4358              		.loc 12 368 42 is_stmt 0 view .LVU1008
 4359 03b6 C244     		add	r10, r10, r8
 4360              	.LVL330:
 368:../../libs/PoliTeKDSP/libs/libDaisy/src/dev/oled_ssd130x.h ****     }
 4361              		.loc 12 368 49 view .LVU1009
 4362 03b8 4FF0010B 		mov	fp, #1
 4363              	.LVL331:
 368:../../libs/PoliTeKDSP/libs/libDaisy/src/dev/oled_ssd130x.h ****     }
 4364              		.loc 12 368 55 view .LVU1010
 4365 03bc 0EF0070E 		and	lr, lr, #7
 4366              	.LVL332:
 368:../../libs/PoliTeKDSP/libs/libDaisy/src/dev/oled_ssd130x.h ****     }
 4367              		.loc 12 368 49 view .LVU1011
 4368 03c0 0BFA0EFE 		lsl	lr, fp, lr
 368:../../libs/PoliTeKDSP/libs/libDaisy/src/dev/oled_ssd130x.h ****     }
 4369              		.loc 12 368 42 view .LVU1012
 4370 03c4 9AF810B0 		ldrb	fp, [r10, #16]	@ zero_extendqisi2
 4371 03c8 2BEA0E0E 		bic	lr, fp, lr
 4372 03cc 8AF810E0 		strb	lr, [r10, #16]
 4373              	.LVL333:
 368:../../libs/PoliTeKDSP/libs/libDaisy/src/dev/oled_ssd130x.h ****     }
 4374              		.loc 12 368 42 view .LVU1013
 4375 03d0 F7E6     		b	.L263
 4376              	.LVL334:
 4377              	.L258:
 368:../../libs/PoliTeKDSP/libs/libDaisy/src/dev/oled_ssd130x.h ****     }
 4378              		.loc 12 368 42 view .LVU1014
 4379              	.LBE1340:
 4380              	.LBE1339:
 4381              	.LBE1342:
 4382              	.LBE1344:
 4383              	.LBE1362:
 4384              	.LBB1363:
 4385              	.LBB1359:
 4386              	.LBB1358:
 4387              	.LBB1356:
 4388              	.LBI1356:
 361:../../libs/PoliTeKDSP/libs/libDaisy/src/dev/oled_ssd130x.h ****     {
 4389              		.loc 12 361 10 is_stmt 1 view .LVU1015
 4390              	.LBB1357:
 368:../../libs/PoliTeKDSP/libs/libDaisy/src/dev/oled_ssd130x.h ****     }
 4391              		.loc 12 368 42 is_stmt 0 view .LVU1016
 4392 03d2 C244     		add	r10, r10, r8
 4393              	.LVL335:
 368:../../libs/PoliTeKDSP/libs/libDaisy/src/dev/oled_ssd130x.h ****     }
 4394              		.loc 12 368 49 view .LVU1017
 4395 03d4 4FF0010B 		mov	fp, #1
 4396              	.LVL336:
 368:../../libs/PoliTeKDSP/libs/libDaisy/src/dev/oled_ssd130x.h ****     }
 4397              		.loc 12 368 55 view .LVU1018
 4398 03d8 0EF0070E 		and	lr, lr, #7
ARM GAS  C:\Users\skipi\AppData\Local\Temp\ccs8qXFk.s 			page 130


 4399              	.LVL337:
 368:../../libs/PoliTeKDSP/libs/libDaisy/src/dev/oled_ssd130x.h ****     }
 4400              		.loc 12 368 49 view .LVU1019
 4401 03dc 0BFA0EFE 		lsl	lr, fp, lr
 368:../../libs/PoliTeKDSP/libs/libDaisy/src/dev/oled_ssd130x.h ****     }
 4402              		.loc 12 368 42 view .LVU1020
 4403 03e0 9AF810B0 		ldrb	fp, [r10, #16]	@ zero_extendqisi2
 4404 03e4 2BEA0E0E 		bic	lr, fp, lr
 4405 03e8 8AF810E0 		strb	lr, [r10, #16]
 4406              	.LVL338:
 368:../../libs/PoliTeKDSP/libs/libDaisy/src/dev/oled_ssd130x.h ****     }
 4407              		.loc 12 368 42 view .LVU1021
 4408              	.LBE1357:
 4409              	.LBE1356:
 4410              	.LBE1358:
 4411              	.LBE1359:
 4412              	.LBE1363:
 373:../../libs/PoliTeKDSP/libs/libDaisy/src/hid/disp/display.h ****                 ((ChildType*)(this))
 4413              		.loc 11 373 13 view .LVU1022
 4414 03ec 0029     		cmp	r1, #0
 4415 03ee 3FF4E6AE 		beq	.L259
 4416 03f2 49E7     		b	.L307
 4417              	.LVL339:
 4418              	.L314:
 365:../../libs/PoliTeKDSP/libs/libDaisy/src/hid/disp/display.h ****                     d4 = (t_sxny - t_synx < 0 && t_exny - t_eynx > 0);
 4419              		.loc 11 365 56 discriminator 1 view .LVU1023
 4420 03f4 77EEE66A 		vsub.f32	s13, s15, s13
 4421              	.LVL340:
 365:../../libs/PoliTeKDSP/libs/libDaisy/src/hid/disp/display.h ****                     d4 = (t_sxny - t_synx < 0 && t_exny - t_eynx > 0);
 4422              		.loc 11 365 46 discriminator 1 view .LVU1024
 4423 03f8 F5EEC06A 		vcmpe.f32	s13, #0
 4424 03fc F1EE10FA 		vmrs	APSR_nzcv, FPSCR
 4425 0400 CCBF     		ite	gt
 4426 0402 0127     		movgt	r7, #1
 4427              	.LVL341:
 365:../../libs/PoliTeKDSP/libs/libDaisy/src/hid/disp/display.h ****                     d4 = (t_sxny - t_synx < 0 && t_exny - t_eynx > 0);
 4428              		.loc 11 365 46 discriminator 1 view .LVU1025
 4429 0404 0027     		movle	r7, #0
 4430 0406 9BE7     		b	.L254
 4431              	.LVL342:
 4432              	.L313:
 364:../../libs/PoliTeKDSP/libs/libDaisy/src/hid/disp/display.h ****                     d3 = (t_sxny - t_syx < 0 && t_exny - t_eyx > 0);
 4433              		.loc 11 364 54 discriminator 1 view .LVU1026
 4434 0408 36EE666A 		vsub.f32	s12, s12, s13
 4435              	.LVL343:
 364:../../libs/PoliTeKDSP/libs/libDaisy/src/hid/disp/display.h ****                     d3 = (t_sxny - t_syx < 0 && t_exny - t_eyx > 0);
 4436              		.loc 11 364 45 discriminator 1 view .LVU1027
 4437 040c B5EEC06A 		vcmpe.f32	s12, #0
 4438 0410 F1EE10FA 		vmrs	APSR_nzcv, FPSCR
 4439 0414 CCBF     		ite	gt
 4440 0416 0121     		movgt	r1, #1
 4441 0418 0021     		movle	r1, #0
 4442 041a 89E7     		b	.L252
 4443              	.LVL344:
 4444              	.L312:
 363:../../libs/PoliTeKDSP/libs/libDaisy/src/hid/disp/display.h ****                     d2 = (t_sxy - t_syx < 0 && t_exy - t_eyx > 0);
 4445              		.loc 11 363 55 discriminator 1 view .LVU1028
ARM GAS  C:\Users\skipi\AppData\Local\Temp\ccs8qXFk.s 			page 131


 4446 041c 76EE473A 		vsub.f32	s7, s12, s14
 363:../../libs/PoliTeKDSP/libs/libDaisy/src/hid/disp/display.h ****                     d2 = (t_sxy - t_syx < 0 && t_exy - t_eyx > 0);
 4447              		.loc 11 363 46 discriminator 1 view .LVU1029
 4448 0420 F5EEC03A 		vcmpe.f32	s7, #0
 4449 0424 F1EE10FA 		vmrs	APSR_nzcv, FPSCR
 4450 0428 CCBF     		ite	gt
 4451 042a 0122     		movgt	r2, #1
 4452 042c 0022     		movle	r2, #0
 4453 042e 77E7     		b	.L250
 4454              	.LVL345:
 4455              	.L275:
 359:../../libs/PoliTeKDSP/libs/libDaisy/src/hid/disp/display.h ****                 }
 4456              		.loc 11 359 47 view .LVU1030
 4457 0430 0124     		movs	r4, #1
 4458              	.LVL346:
 370:../../libs/PoliTeKDSP/libs/libDaisy/src/hid/disp/display.h ****                 ((ChildType*)(this))
 4459              		.loc 11 370 13 view .LVU1031
 4460 0432 002A     		cmp	r2, #0
 4461 0434 3FF4C1AE 		beq	.L257
 370:../../libs/PoliTeKDSP/libs/libDaisy/src/hid/disp/display.h ****                 ((ChildType*)(this))
 4462              		.loc 11 370 13 view .LVU1032
 4463 0438 49E7     		b	.L306
 4464              	.LVL347:
 4465              	.L272:
 357:../../libs/PoliTeKDSP/libs/libDaisy/src/hid/disp/display.h ****                     d3 = (t_sxny - t_syx < 0 || t_exny - t_eyx > 0);
 4466              		.loc 11 357 33 view .LVU1033
 4467 043a 74EEC54A 		vsub.f32	s9, s9, s10
 4468              	.LVL348:
 356:../../libs/PoliTeKDSP/libs/libDaisy/src/hid/disp/display.h ****                     d2 = (t_sxy - t_syx < 0 || t_exy - t_eyx > 0);
 4469              		.loc 11 356 46 view .LVU1034
 4470 043e 0122     		movs	r2, #1
 4471              	.LVL349:
 357:../../libs/PoliTeKDSP/libs/libDaisy/src/hid/disp/display.h ****                     d3 = (t_sxny - t_syx < 0 || t_exny - t_eyx > 0);
 4472              		.loc 11 357 45 view .LVU1035
 4473 0440 F5EEC04A 		vcmpe.f32	s9, #0
 4474 0444 F1EE10FA 		vmrs	APSR_nzcv, FPSCR
 4475 0448 7FF589AE 		bpl	.L315
 4476              	.L273:
 358:../../libs/PoliTeKDSP/libs/libDaisy/src/hid/disp/display.h ****                     d4 = (t_sxny - t_synx < 0 || t_exny - t_eynx > 0);
 4477              		.loc 11 358 34 view .LVU1036
 4478 044c 35EEC55A 		vsub.f32	s10, s11, s10
 4479              	.LVL350:
 357:../../libs/PoliTeKDSP/libs/libDaisy/src/hid/disp/display.h ****                     d3 = (t_sxny - t_syx < 0 || t_exny - t_eyx > 0);
 4480              		.loc 11 357 45 view .LVU1037
 4481 0450 0121     		movs	r1, #1
 4482              	.LVL351:
 358:../../libs/PoliTeKDSP/libs/libDaisy/src/hid/disp/display.h ****                     d4 = (t_sxny - t_synx < 0 || t_exny - t_eynx > 0);
 4483              		.loc 11 358 46 view .LVU1038
 4484 0452 B5EEC05A 		vcmpe.f32	s10, #0
 4485 0456 F1EE10FA 		vmrs	APSR_nzcv, FPSCR
 4486 045a 7FF591AE 		bpl	.L316
 4487              	.LVL352:
 4488              	.L274:
 358:../../libs/PoliTeKDSP/libs/libDaisy/src/hid/disp/display.h ****                     d4 = (t_sxny - t_synx < 0 || t_exny - t_eynx > 0);
 4489              		.loc 11 358 46 view .LVU1039
 4490 045e 0127     		movs	r7, #1
 4491              	.LVL353:
ARM GAS  C:\Users\skipi\AppData\Local\Temp\ccs8qXFk.s 			page 132


 358:../../libs/PoliTeKDSP/libs/libDaisy/src/hid/disp/display.h ****                     d4 = (t_sxny - t_synx < 0 || t_exny - t_eynx > 0);
 4492              		.loc 11 358 46 view .LVU1040
 4493 0460 97E6     		b	.L249
 4494              	.LVL354:
 4495              	.L241:
 313:../../libs/PoliTeKDSP/libs/libDaisy/src/hid/disp/display.h ****             sweep = -sweep;
 4496              		.loc 11 313 25 view .LVU1041
 4497 0462 DDE91223 		ldrd	r2, r3, [sp, #72]
 4498              	.LVL355:
 313:../../libs/PoliTeKDSP/libs/libDaisy/src/hid/disp/display.h ****             sweep = -sweep;
 4499              		.loc 11 313 25 view .LVU1042
 4500 0466 1344     		add	r3, r3, r2
 4501              	.LVL356:
 313:../../libs/PoliTeKDSP/libs/libDaisy/src/hid/disp/display.h ****             sweep = -sweep;
 4502              		.loc 11 313 25 view .LVU1043
 4503 0468 06EE102A 		vmov	s12, r2	@ int
 4504 046c 1293     		str	r3, [sp, #72]
 4505 046e 139B     		ldr	r3, [sp, #76]
 4506              	.LVL357:
 313:../../libs/PoliTeKDSP/libs/libDaisy/src/hid/disp/display.h ****             sweep = -sweep;
 4507              		.loc 11 313 25 view .LVU1044
 4508 0470 5B42     		rsbs	r3, r3, #0
 4509 0472 1393     		str	r3, [sp, #76]
 4510              	.LVL358:
 313:../../libs/PoliTeKDSP/libs/libDaisy/src/hid/disp/display.h ****             sweep = -sweep;
 4511              		.loc 11 313 25 view .LVU1045
 4512 0474 D8E5     		b	.L242
 4513              		.cfi_endproc
 4514              	.LFE2840:
 4516 0476 00BF     		.section	.text._ZN5daisy25OneBitGraphicsDisplayImplINS_11OledDisplayINS_13SSD130xDriverILj128ELj64
 4517              		.align	1
 4518              		.p2align 2,,3
 4519              		.weak	_ZN5daisy25OneBitGraphicsDisplayImplINS_11OledDisplayINS_13SSD130xDriverILj128ELj64ENS_19SSD
 4520              		.syntax unified
 4521              		.thumb
 4522              		.thumb_func
 4523              		.fpu fpv5-d16
 4525              	_ZN5daisy25OneBitGraphicsDisplayImplINS_11OledDisplayINS_13SSD130xDriverILj128ELj64ENS_19SSD130xI2C
 4526              	.LVL359:
 4527              	.LFB2839:
 262:../../libs/PoliTeKDSP/libs/libDaisy/src/hid/disp/display.h ****                   uint_fast8_t y1,
 4528              		.loc 11 262 10 is_stmt 1 view -0
 4529              		.cfi_startproc
 4530              		@ args = 12, pretend = 0, frame = 24
 4531              		@ frame_needed = 0, uses_anonymous_args = 0
 262:../../libs/PoliTeKDSP/libs/libDaisy/src/hid/disp/display.h ****                   uint_fast8_t y1,
 4532              		.loc 11 262 10 is_stmt 0 view .LVU1047
 4533 0000 2DE9F04F 		push	{r4, r5, r6, r7, r8, r9, r10, fp, lr}
 4534              		.cfi_def_cfa_offset 36
 4535              		.cfi_offset 4, -36
 4536              		.cfi_offset 5, -32
 4537              		.cfi_offset 6, -28
 4538              		.cfi_offset 7, -24
 4539              		.cfi_offset 8, -20
 4540              		.cfi_offset 9, -16
 4541              		.cfi_offset 10, -12
 4542              		.cfi_offset 11, -8
ARM GAS  C:\Users\skipi\AppData\Local\Temp\ccs8qXFk.s 			page 133


 4543              		.cfi_offset 14, -4
 4544 0004 87B0     		sub	sp, sp, #28
 4545              		.cfi_def_cfa_offset 64
 262:../../libs/PoliTeKDSP/libs/libDaisy/src/hid/disp/display.h ****                   uint_fast8_t y1,
 4546              		.loc 11 262 10 view .LVU1048
 4547 0006 9DF84850 		ldrb	r5, [sp, #72]	@ zero_extendqisi2
 4548 000a 109C     		ldr	r4, [sp, #64]
 4549 000c 2E46     		mov	r6, r5
 4550 000e 0195     		str	r5, [sp, #4]
 4551 0010 9DF84450 		ldrb	r5, [sp, #68]	@ zero_extendqisi2
 4552              	.LBB1433:
 269:../../libs/PoliTeKDSP/libs/libDaisy/src/hid/disp/display.h ****         {
 4553              		.loc 11 269 9 view .LVU1049
 4554 0014 9EB3     		cbz	r6, .L320
 4555              	.LVL360:
 269:../../libs/PoliTeKDSP/libs/libDaisy/src/hid/disp/display.h ****         {
 4556              		.loc 11 269 9 view .LVU1050
 4557              	.LBE1433:
 4558              	.LBB1555:
 4559              	.LBB1556:
 271:../../libs/PoliTeKDSP/libs/libDaisy/src/hid/disp/display.h ****             {
 4560              		.loc 11 271 40 is_stmt 1 view .LVU1051
 4561 0016 9942     		cmp	r1, r3
 4562 0018 2ED8     		bhi	.L319
 4563 001a 9946     		mov	r9, r3
 4564              	.LVL361:
 4565              	.L323:
 4566              	.LBB1557:
 273:../../libs/PoliTeKDSP/libs/libDaisy/src/hid/disp/display.h ****                 {
 4567              		.loc 11 273 44 view .LVU1052
 4568 001c A242     		cmp	r2, r4
 4569 001e 28D8     		bhi	.L326
 4570              	.LBB1558:
 4571              	.LBB1559:
 4572              	.LBB1560:
 363:../../libs/PoliTeKDSP/libs/libDaisy/src/dev/oled_ssd130x.h ****             return;
 4573              		.loc 12 363 14 is_stmt 0 view .LVU1053
 4574 0020 7F29     		cmp	r1, #127
 4575 0022 1646     		mov	r6, r2
 4576 0024 94BF     		ite	ls
 4577 0026 0023     		movls	r3, #0
 4578 0028 0123     		movhi	r3, #1
 4579 002a 08E0     		b	.L327
 4580              	.LVL362:
 4581              	.L410:
 366:../../libs/PoliTeKDSP/libs/libDaisy/src/dev/oled_ssd130x.h ****         else
 4582              		.loc 12 366 42 view .LVU1054
 4583 002c 9CF81080 		ldrb	r8, [ip, #16]	@ zero_extendqisi2
 4584 0030 4EEA080E 		orr	lr, lr, r8
 4585 0034 8CF810E0 		strb	lr, [ip, #16]
 4586              	.LVL363:
 4587              	.L324:
 366:../../libs/PoliTeKDSP/libs/libDaisy/src/dev/oled_ssd130x.h ****         else
 4588              		.loc 12 366 42 view .LVU1055
 4589              	.LBE1560:
 4590              	.LBE1559:
 4591              	.LBE1558:
ARM GAS  C:\Users\skipi\AppData\Local\Temp\ccs8qXFk.s 			page 134


 273:../../libs/PoliTeKDSP/libs/libDaisy/src/hid/disp/display.h ****                 {
 4592              		.loc 11 273 17 is_stmt 1 view .LVU1056
 4593 0038 0136     		adds	r6, r6, #1
 4594              	.LVL364:
 273:../../libs/PoliTeKDSP/libs/libDaisy/src/hid/disp/display.h ****                 {
 4595              		.loc 11 273 44 view .LVU1057
 4596 003a B442     		cmp	r4, r6
 4597 003c 19D3     		bcc	.L326
 4598              	.L327:
 4599              	.LVL365:
 4600              	.LBB1574:
 4601              	.LBI1558:
  42:../../libs/PoliTeKDSP/libs/libDaisy/src/hid/disp/oled_display.h ****     {
 4602              		.loc 10 42 10 view .LVU1058
 4603              	.LBB1571:
 4604              	.LBI1559:
 361:../../libs/PoliTeKDSP/libs/libDaisy/src/dev/oled_ssd130x.h ****     {
 4605              		.loc 12 361 10 view .LVU1059
 4606              	.LBB1568:
 363:../../libs/PoliTeKDSP/libs/libDaisy/src/dev/oled_ssd130x.h ****             return;
 4607              		.loc 12 363 9 is_stmt 0 view .LVU1060
 4608 003e 3F2E     		cmp	r6, #63
 4609 0040 FAD8     		bhi	.L324
 363:../../libs/PoliTeKDSP/libs/libDaisy/src/dev/oled_ssd130x.h ****             return;
 4610              		.loc 12 363 9 view .LVU1061
 4611 0042 002B     		cmp	r3, #0
 4612 0044 F8D1     		bne	.L324
 4613              	.LVL366:
 4614              	.LBB1561:
 4615              	.LBI1561:
 361:../../libs/PoliTeKDSP/libs/libDaisy/src/dev/oled_ssd130x.h ****     {
 4616              		.loc 12 361 10 is_stmt 1 view .LVU1062
 361:../../libs/PoliTeKDSP/libs/libDaisy/src/dev/oled_ssd130x.h ****     {
 4617              		.loc 12 361 10 is_stmt 0 view .LVU1063
 4618              	.LBE1561:
 366:../../libs/PoliTeKDSP/libs/libDaisy/src/dev/oled_ssd130x.h ****         else
 4619              		.loc 12 366 28 view .LVU1064
 4620 0046 4FEAD60C 		lsr	ip, r6, #3
 366:../../libs/PoliTeKDSP/libs/libDaisy/src/dev/oled_ssd130x.h ****         else
 4621              		.loc 12 366 54 view .LVU1065
 4622 004a 06F0070E 		and	lr, r6, #7
 366:../../libs/PoliTeKDSP/libs/libDaisy/src/dev/oled_ssd130x.h ****         else
 4623              		.loc 12 366 48 view .LVU1066
 4624 004e 4FF00108 		mov	r8, #1
 366:../../libs/PoliTeKDSP/libs/libDaisy/src/dev/oled_ssd130x.h ****         else
 4625              		.loc 12 366 42 view .LVU1067
 4626 0052 01EBCC1C 		add	ip, r1, ip, lsl #7
 366:../../libs/PoliTeKDSP/libs/libDaisy/src/dev/oled_ssd130x.h ****         else
 4627              		.loc 12 366 48 view .LVU1068
 4628 0056 08FA0EFE 		lsl	lr, r8, lr
 366:../../libs/PoliTeKDSP/libs/libDaisy/src/dev/oled_ssd130x.h ****         else
 4629              		.loc 12 366 42 view .LVU1069
 4630 005a 8444     		add	ip, ip, r0
 365:../../libs/PoliTeKDSP/libs/libDaisy/src/dev/oled_ssd130x.h ****             buffer_[x + (y / 8) * width] |= (1 << (y % 8));
 4631              		.loc 12 365 9 view .LVU1070
 4632 005c 002D     		cmp	r5, #0
 4633 005e E5D1     		bne	.L410
ARM GAS  C:\Users\skipi\AppData\Local\Temp\ccs8qXFk.s 			page 135


 4634              	.LBB1565:
 4635              	.LBB1562:
 368:../../libs/PoliTeKDSP/libs/libDaisy/src/dev/oled_ssd130x.h ****     }
 4636              		.loc 12 368 42 view .LVU1071
 4637 0060 9CF810B0 		ldrb	fp, [ip, #16]	@ zero_extendqisi2
 4638              	.LBE1562:
 4639              	.LBE1565:
 4640              	.LBE1568:
 4641              	.LBE1571:
 4642              	.LBE1574:
 273:../../libs/PoliTeKDSP/libs/libDaisy/src/hid/disp/display.h ****                 {
 4643              		.loc 11 273 17 view .LVU1072
 4644 0064 0136     		adds	r6, r6, #1
 4645              	.LVL367:
 4646              	.LBB1575:
 4647              	.LBB1572:
 4648              	.LBB1569:
 4649              	.LBB1566:
 4650              	.LBB1563:
 368:../../libs/PoliTeKDSP/libs/libDaisy/src/dev/oled_ssd130x.h ****     }
 4651              		.loc 12 368 42 view .LVU1073
 4652 0066 2BEA0E0A 		bic	r10, fp, lr
 4653              	.LBE1563:
 4654              	.LBE1566:
 4655              	.LBE1569:
 4656              	.LBE1572:
 4657              	.LBE1575:
 273:../../libs/PoliTeKDSP/libs/libDaisy/src/hid/disp/display.h ****                 {
 4658              		.loc 11 273 44 view .LVU1074
 4659 006a B442     		cmp	r4, r6
 4660              	.LBB1576:
 4661              	.LBB1573:
 4662              	.LBB1570:
 4663              	.LBB1567:
 4664              	.LBB1564:
 368:../../libs/PoliTeKDSP/libs/libDaisy/src/dev/oled_ssd130x.h ****     }
 4665              		.loc 12 368 42 view .LVU1075
 4666 006c 8CF810A0 		strb	r10, [ip, #16]
 4667              	.LVL368:
 368:../../libs/PoliTeKDSP/libs/libDaisy/src/dev/oled_ssd130x.h ****     }
 4668              		.loc 12 368 42 view .LVU1076
 4669              	.LBE1564:
 4670              	.LBE1567:
 4671              	.LBE1570:
 4672              	.LBE1573:
 4673              	.LBE1576:
 273:../../libs/PoliTeKDSP/libs/libDaisy/src/hid/disp/display.h ****                 {
 4674              		.loc 11 273 17 is_stmt 1 view .LVU1077
 273:../../libs/PoliTeKDSP/libs/libDaisy/src/hid/disp/display.h ****                 {
 4675              		.loc 11 273 44 view .LVU1078
 4676 0070 E5D2     		bcs	.L327
 4677              	.LVL369:
 4678              	.L326:
 273:../../libs/PoliTeKDSP/libs/libDaisy/src/hid/disp/display.h ****                 {
 4679              		.loc 11 273 44 is_stmt 0 view .LVU1079
 4680              	.LBE1557:
 271:../../libs/PoliTeKDSP/libs/libDaisy/src/hid/disp/display.h ****             {
ARM GAS  C:\Users\skipi\AppData\Local\Temp\ccs8qXFk.s 			page 136


 4681              		.loc 11 271 13 is_stmt 1 view .LVU1080
 4682 0072 0131     		adds	r1, r1, #1
 4683              	.LVL370:
 271:../../libs/PoliTeKDSP/libs/libDaisy/src/hid/disp/display.h ****             {
 4684              		.loc 11 271 40 view .LVU1081
 4685 0074 8945     		cmp	r9, r1
 4686 0076 D1D2     		bcs	.L323
 4687              	.LVL371:
 4688              	.L319:
 271:../../libs/PoliTeKDSP/libs/libDaisy/src/hid/disp/display.h ****             {
 4689              		.loc 11 271 40 is_stmt 0 view .LVU1082
 4690              	.LBE1556:
 4691              	.LBE1555:
 286:../../libs/PoliTeKDSP/libs/libDaisy/src/hid/disp/display.h **** 
 4692              		.loc 11 286 5 view .LVU1083
 4693 0078 07B0     		add	sp, sp, #28
 4694              		.cfi_remember_state
 4695              		.cfi_def_cfa_offset 36
 4696              		@ sp needed
 4697 007a BDE8F08F 		pop	{r4, r5, r6, r7, r8, r9, r10, fp, pc}
 4698              	.LVL372:
 4699              	.L320:
 4700              		.cfi_restore_state
 4701              	.LBB1577:
 4702              	.LBB1434:
 4703              	.LBI1434:
 226:../../libs/PoliTeKDSP/libs/libDaisy/src/hid/disp/display.h ****                   uint_fast8_t y1,
 4704              		.loc 11 226 10 is_stmt 1 view .LVU1084
 4705              	.LBB1435:
 232:../../libs/PoliTeKDSP/libs/libDaisy/src/hid/disp/display.h ****         int_fast16_t deltaY = abs((int_fast16_t)y2 - (int_fast16_t)y1);
 4706              		.loc 11 232 52 is_stmt 0 view .LVU1085
 4707 007e A3EB0108 		sub	r8, r3, r1
 232:../../libs/PoliTeKDSP/libs/libDaisy/src/hid/disp/display.h ****         int_fast16_t deltaY = abs((int_fast16_t)y2 - (int_fast16_t)y1);
 4708              		.loc 11 232 22 view .LVU1086
 4709 0082 B8F1000F 		cmp	r8, #0
 4710 0086 B8BF     		it	lt
 4711 0088 C8F10008 		rsblt	r8, r8, #0
 4712              	.LVL373:
 234:../../libs/PoliTeKDSP/libs/libDaisy/src/hid/disp/display.h ****         int_fast16_t signY  = ((y1 < y2) ? 1 : -1);
 4713              		.loc 11 234 42 view .LVU1087
 4714 008c 9942     		cmp	r1, r3
 4715 008e C0F04E81 		bcc	.L328
 4716              	.LVL374:
 4717              	.LBB1436:
 4718              	.LBI1436:
  42:../../libs/PoliTeKDSP/libs/libDaisy/src/hid/disp/oled_display.h ****     {
 4719              		.loc 10 42 10 is_stmt 1 view .LVU1088
 4720              	.LBB1437:
 4721              	.LBI1437:
 361:../../libs/PoliTeKDSP/libs/libDaisy/src/dev/oled_ssd130x.h ****     {
 4722              		.loc 12 361 10 view .LVU1089
 4723              	.LBB1438:
 363:../../libs/PoliTeKDSP/libs/libDaisy/src/dev/oled_ssd130x.h ****             return;
 4724              		.loc 12 363 14 is_stmt 0 view .LVU1090
 4725 0092 7F2B     		cmp	r3, #127
 4726              	.LBE1438:
 4727              	.LBE1437:
ARM GAS  C:\Users\skipi\AppData\Local\Temp\ccs8qXFk.s 			page 137


 4728              	.LBE1436:
 234:../../libs/PoliTeKDSP/libs/libDaisy/src/hid/disp/display.h ****         int_fast16_t signY  = ((y1 < y2) ? 1 : -1);
 4729              		.loc 11 234 42 view .LVU1091
 4730 0094 4FF0FF3A 		mov	r10, #-1
 4731              	.LBB1449:
 4732              	.LBB1445:
 4733              	.LBB1441:
 363:../../libs/PoliTeKDSP/libs/libDaisy/src/dev/oled_ssd130x.h ****             return;
 4734              		.loc 12 363 14 view .LVU1092
 4735 0098 94BF     		ite	ls
 4736 009a 0026     		movls	r6, #0
 4737 009c 0126     		movhi	r6, #1
 363:../../libs/PoliTeKDSP/libs/libDaisy/src/dev/oled_ssd130x.h ****             return;
 4738              		.loc 12 363 28 view .LVU1093
 4739 009e 3F2A     		cmp	r2, #63
 363:../../libs/PoliTeKDSP/libs/libDaisy/src/dev/oled_ssd130x.h ****             return;
 4740              		.loc 12 363 14 view .LVU1094
 4741 00a0 0096     		str	r6, [sp]
 363:../../libs/PoliTeKDSP/libs/libDaisy/src/dev/oled_ssd130x.h ****             return;
 4742              		.loc 12 363 28 view .LVU1095
 4743 00a2 94BF     		ite	ls
 4744 00a4 0027     		movls	r7, #0
 4745 00a6 0127     		movhi	r7, #1
 4746 00a8 0297     		str	r7, [sp, #8]
 363:../../libs/PoliTeKDSP/libs/libDaisy/src/dev/oled_ssd130x.h ****             return;
 4747              		.loc 12 363 9 view .LVU1096
 4748 00aa A6B9     		cbnz	r6, .L329
 4749 00ac 9FB9     		cbnz	r7, .L329
 4750              	.LVL375:
 4751              	.L370:
 366:../../libs/PoliTeKDSP/libs/libDaisy/src/dev/oled_ssd130x.h ****         else
 4752              		.loc 12 366 28 view .LVU1097
 4753 00ae D608     		lsrs	r6, r2, #3
 366:../../libs/PoliTeKDSP/libs/libDaisy/src/dev/oled_ssd130x.h ****         else
 4754              		.loc 12 366 54 view .LVU1098
 4755 00b0 02F0070C 		and	ip, r2, #7
 366:../../libs/PoliTeKDSP/libs/libDaisy/src/dev/oled_ssd130x.h ****         else
 4756              		.loc 12 366 48 view .LVU1099
 4757 00b4 0127     		movs	r7, #1
 366:../../libs/PoliTeKDSP/libs/libDaisy/src/dev/oled_ssd130x.h ****         else
 4758              		.loc 12 366 42 view .LVU1100
 4759 00b6 03EBC616 		add	r6, r3, r6, lsl #7
 4760 00ba 0644     		add	r6, r6, r0
 365:../../libs/PoliTeKDSP/libs/libDaisy/src/dev/oled_ssd130x.h ****             buffer_[x + (y / 8) * width] |= (1 << (y % 8));
 4761              		.loc 12 365 9 view .LVU1101
 4762 00bc 002D     		cmp	r5, #0
 4763 00be 00F09481 		beq	.L330
 366:../../libs/PoliTeKDSP/libs/libDaisy/src/dev/oled_ssd130x.h ****         else
 4764              		.loc 12 366 48 view .LVU1102
 4765 00c2 07FA0CF7 		lsl	r7, r7, ip
 366:../../libs/PoliTeKDSP/libs/libDaisy/src/dev/oled_ssd130x.h ****         else
 4766              		.loc 12 366 42 view .LVU1103
 4767 00c6 96F810C0 		ldrb	ip, [r6, #16]	@ zero_extendqisi2
 4768 00ca 47EA0C07 		orr	r7, r7, ip
 4769 00ce 3774     		strb	r7, [r6, #16]
 4770 00d0 0026     		movs	r6, #0
 4771 00d2 0296     		str	r6, [sp, #8]
ARM GAS  C:\Users\skipi\AppData\Local\Temp\ccs8qXFk.s 			page 138


 4772 00d4 0096     		str	r6, [sp]
 4773              	.L329:
 4774              	.LVL376:
 366:../../libs/PoliTeKDSP/libs/libDaisy/src/dev/oled_ssd130x.h ****         else
 4775              		.loc 12 366 42 view .LVU1104
 4776              	.LBE1441:
 4777              	.LBE1445:
 4778              	.LBE1449:
 244:../../libs/PoliTeKDSP/libs/libDaisy/src/hid/disp/display.h ****         {
 4779              		.loc 11 244 26 is_stmt 1 view .LVU1105
 4780 00d6 9942     		cmp	r1, r3
 4781 00d8 00F09781 		beq	.L411
 4782              	.L332:
 4783              	.LVL377:
 232:../../libs/PoliTeKDSP/libs/libDaisy/src/hid/disp/display.h ****         int_fast16_t deltaY = abs((int_fast16_t)y2 - (int_fast16_t)y1);
 4784              		.loc 11 232 22 is_stmt 0 view .LVU1106
 4785 00dc 4646     		mov	r6, r8
 4786 00de 9446     		mov	ip, r2
 4787 00e0 8E46     		mov	lr, r1
 4788              	.LVL378:
 4789              	.L334:
 4790              	.LBB1450:
 4791              	.LBI1450:
  42:../../libs/PoliTeKDSP/libs/libDaisy/src/hid/disp/oled_display.h ****     {
 4792              		.loc 10 42 10 is_stmt 1 view .LVU1107
 4793              	.LBB1451:
 4794              	.LBI1451:
 361:../../libs/PoliTeKDSP/libs/libDaisy/src/dev/oled_ssd130x.h ****     {
 4795              		.loc 12 361 10 view .LVU1108
 4796              	.LBB1452:
 363:../../libs/PoliTeKDSP/libs/libDaisy/src/dev/oled_ssd130x.h ****             return;
 4797              		.loc 12 363 9 is_stmt 0 view .LVU1109
 4798 00e2 BEF17F0F 		cmp	lr, #127
 4799 00e6 16D8     		bhi	.L335
 4800 00e8 BCF13F0F 		cmp	ip, #63
 4801 00ec 13D8     		bhi	.L335
 366:../../libs/PoliTeKDSP/libs/libDaisy/src/dev/oled_ssd130x.h ****         else
 4802              		.loc 12 366 28 view .LVU1110
 4803 00ee 4FEADC07 		lsr	r7, ip, #3
 366:../../libs/PoliTeKDSP/libs/libDaisy/src/dev/oled_ssd130x.h ****         else
 4804              		.loc 12 366 54 view .LVU1111
 4805 00f2 0CF0070B 		and	fp, ip, #7
 366:../../libs/PoliTeKDSP/libs/libDaisy/src/dev/oled_ssd130x.h ****         else
 4806              		.loc 12 366 48 view .LVU1112
 4807 00f6 4FF00109 		mov	r9, #1
 366:../../libs/PoliTeKDSP/libs/libDaisy/src/dev/oled_ssd130x.h ****         else
 4808              		.loc 12 366 42 view .LVU1113
 4809 00fa 0EEBC717 		add	r7, lr, r7, lsl #7
 4810 00fe 0744     		add	r7, r7, r0
 365:../../libs/PoliTeKDSP/libs/libDaisy/src/dev/oled_ssd130x.h ****             buffer_[x + (y / 8) * width] |= (1 << (y % 8));
 4811              		.loc 12 365 9 view .LVU1114
 4812 0100 002D     		cmp	r5, #0
 4813 0102 00F03981 		beq	.L336
 366:../../libs/PoliTeKDSP/libs/libDaisy/src/dev/oled_ssd130x.h ****         else
 4814              		.loc 12 366 48 view .LVU1115
 4815 0106 09FA0BF9 		lsl	r9, r9, fp
 366:../../libs/PoliTeKDSP/libs/libDaisy/src/dev/oled_ssd130x.h ****         else
ARM GAS  C:\Users\skipi\AppData\Local\Temp\ccs8qXFk.s 			page 139


 4816              		.loc 12 366 42 view .LVU1116
 4817 010a 97F810B0 		ldrb	fp, [r7, #16]	@ zero_extendqisi2
 4818 010e 49EA0B09 		orr	r9, r9, fp
 4819 0112 87F81090 		strb	r9, [r7, #16]
 4820              	.L335:
 4821              	.LVL379:
 366:../../libs/PoliTeKDSP/libs/libDaisy/src/dev/oled_ssd130x.h ****         else
 4822              		.loc 12 366 42 view .LVU1117
 4823              	.LBE1452:
 4824              	.LBE1451:
 4825              	.LBE1450:
 248:../../libs/PoliTeKDSP/libs/libDaisy/src/hid/disp/display.h ****             {
 4826              		.loc 11 248 13 view .LVU1118
 4827 0116 7700     		lsls	r7, r6, #1
 4828              	.LVL380:
 251:../../libs/PoliTeKDSP/libs/libDaisy/src/hid/disp/display.h ****             }
 4829              		.loc 11 251 20 view .LVU1119
 4830 0118 18BF     		it	ne
 4831 011a D644     		addne	lr, lr, r10
 4832              	.LVL381:
 254:../../libs/PoliTeKDSP/libs/libDaisy/src/hid/disp/display.h ****             {
 4833              		.loc 11 254 13 view .LVU1120
 4834 011c B845     		cmp	r8, r7
 4835 011e 02DD     		ble	.L338
 256:../../libs/PoliTeKDSP/libs/libDaisy/src/hid/disp/display.h ****                 y1 += signY;
 4836              		.loc 11 256 23 view .LVU1121
 4837 0120 4644     		add	r6, r6, r8
 4838              	.LVL382:
 257:../../libs/PoliTeKDSP/libs/libDaisy/src/hid/disp/display.h ****             }
 4839              		.loc 11 257 20 view .LVU1122
 4840 0122 0CF1FF3C 		add	ip, ip, #-1
 4841              	.LVL383:
 4842              	.L338:
 244:../../libs/PoliTeKDSP/libs/libDaisy/src/hid/disp/display.h ****         {
 4843              		.loc 11 244 26 is_stmt 1 view .LVU1123
 4844 0126 7345     		cmp	r3, lr
 4845 0128 DBD1     		bne	.L334
 244:../../libs/PoliTeKDSP/libs/libDaisy/src/hid/disp/display.h ****         {
 4846              		.loc 11 244 26 is_stmt 0 view .LVU1124
 4847 012a 6245     		cmp	r2, ip
 4848 012c D9D1     		bne	.L334
 4849 012e 0026     		movs	r6, #0
 4850              	.LVL384:
 244:../../libs/PoliTeKDSP/libs/libDaisy/src/hid/disp/display.h ****         {
 4851              		.loc 11 244 26 view .LVU1125
 4852 0130 0496     		str	r6, [sp, #16]
 4853              	.LVL385:
 4854              	.L331:
 244:../../libs/PoliTeKDSP/libs/libDaisy/src/hid/disp/display.h ****         {
 4855              		.loc 11 244 26 view .LVU1126
 4856              	.LBE1435:
 4857              	.LBE1434:
 4858              	.LBB1465:
 4859              	.LBI1465:
 226:../../libs/PoliTeKDSP/libs/libDaisy/src/hid/disp/display.h ****                   uint_fast8_t y1,
 4860              		.loc 11 226 10 is_stmt 1 view .LVU1127
 4861              	.LBB1466:
ARM GAS  C:\Users\skipi\AppData\Local\Temp\ccs8qXFk.s 			page 140


 233:../../libs/PoliTeKDSP/libs/libDaisy/src/hid/disp/display.h ****         int_fast16_t signX  = ((x1 < x2) ? 1 : -1);
 4862              		.loc 11 233 52 is_stmt 0 view .LVU1128
 4863 0132 A4EB0209 		sub	r9, r4, r2
 4864              	.LBB1467:
 4865              	.LBB1468:
 4866              	.LBB1469:
 363:../../libs/PoliTeKDSP/libs/libDaisy/src/dev/oled_ssd130x.h ****             return;
 4867              		.loc 12 363 9 view .LVU1129
 4868 0136 009F     		ldr	r7, [sp]
 4869              	.LBE1469:
 4870              	.LBE1468:
 4871              	.LBE1467:
 233:../../libs/PoliTeKDSP/libs/libDaisy/src/hid/disp/display.h ****         int_fast16_t signX  = ((x1 < x2) ? 1 : -1);
 4872              		.loc 11 233 22 view .LVU1130
 4873 0138 B9F1000F 		cmp	r9, #0
 4874 013c B8BF     		it	lt
 4875 013e C9F10009 		rsblt	r9, r9, #0
 4876              	.LVL386:
 4877              	.LBB1484:
 4878              	.LBB1478:
 4879              	.LBB1472:
 363:../../libs/PoliTeKDSP/libs/libDaisy/src/dev/oled_ssd130x.h ****             return;
 4880              		.loc 12 363 28 view .LVU1131
 4881 0142 3F2C     		cmp	r4, #63
 4882 0144 94BF     		ite	ls
 4883 0146 0026     		movls	r6, #0
 4884 0148 0126     		movhi	r6, #1
 4885              	.LBE1472:
 4886              	.LBE1478:
 4887              	.LBE1484:
 235:../../libs/PoliTeKDSP/libs/libDaisy/src/hid/disp/display.h ****         int_fast16_t error  = deltaX - deltaY;
 4888              		.loc 11 235 42 view .LVU1132
 4889 014a A242     		cmp	r2, r4
 236:../../libs/PoliTeKDSP/libs/libDaisy/src/hid/disp/display.h ****         int_fast16_t error2;
 4890              		.loc 11 236 22 view .LVU1133
 4891 014c C9F10008 		rsb	r8, r9, #0
 4892              	.LVL387:
 4893              	.LBB1485:
 4894              	.LBI1467:
  42:../../libs/PoliTeKDSP/libs/libDaisy/src/hid/disp/oled_display.h ****     {
 4895              		.loc 10 42 10 is_stmt 1 view .LVU1134
 4896              	.LBB1479:
 4897              	.LBI1468:
 361:../../libs/PoliTeKDSP/libs/libDaisy/src/dev/oled_ssd130x.h ****     {
 4898              		.loc 12 361 10 view .LVU1135
 4899              	.LBB1473:
 363:../../libs/PoliTeKDSP/libs/libDaisy/src/dev/oled_ssd130x.h ****             return;
 4900              		.loc 12 363 28 is_stmt 0 view .LVU1136
 4901 0150 0396     		str	r6, [sp, #12]
 4902              	.LBE1473:
 4903              	.LBE1479:
 4904              	.LBE1485:
 235:../../libs/PoliTeKDSP/libs/libDaisy/src/hid/disp/display.h ****         int_fast16_t error  = deltaX - deltaY;
 4905              		.loc 11 235 42 view .LVU1137
 4906 0152 C0F02381 		bcc	.L339
 4907              	.LVL388:
 4908              	.LBB1486:
ARM GAS  C:\Users\skipi\AppData\Local\Temp\ccs8qXFk.s 			page 141


 4909              	.LBB1480:
 4910              	.LBB1474:
 363:../../libs/PoliTeKDSP/libs/libDaisy/src/dev/oled_ssd130x.h ****             return;
 4911              		.loc 12 363 9 view .LVU1138
 4912 0156 002F     		cmp	r7, #0
 4913 0158 40F05081 		bne	.L374
 4914 015c 002E     		cmp	r6, #0
 4915 015e 40F04D81 		bne	.L374
 4916              	.LBE1474:
 4917              	.LBE1480:
 4918              	.LBE1486:
 235:../../libs/PoliTeKDSP/libs/libDaisy/src/hid/disp/display.h ****         int_fast16_t error  = deltaX - deltaY;
 4919              		.loc 11 235 42 view .LVU1139
 4920 0162 4FF0FF36 		mov	r6, #-1
 4921 0166 0096     		str	r6, [sp]
 4922              	.LBB1487:
 4923              	.LBB1481:
 4924              	.LBB1475:
 366:../../libs/PoliTeKDSP/libs/libDaisy/src/dev/oled_ssd130x.h ****         else
 4925              		.loc 12 366 28 view .LVU1140
 4926 0168 E608     		lsrs	r6, r4, #3
 366:../../libs/PoliTeKDSP/libs/libDaisy/src/dev/oled_ssd130x.h ****         else
 4927              		.loc 12 366 42 view .LVU1141
 4928 016a 03EBC616 		add	r6, r3, r6, lsl #7
 4929 016e 0644     		add	r6, r6, r0
 365:../../libs/PoliTeKDSP/libs/libDaisy/src/dev/oled_ssd130x.h ****             buffer_[x + (y / 8) * width] |= (1 << (y % 8));
 4930              		.loc 12 365 9 view .LVU1142
 4931 0170 002D     		cmp	r5, #0
 4932 0172 00F01E81 		beq	.L341
 4933              	.LVL389:
 4934              	.L413:
 366:../../libs/PoliTeKDSP/libs/libDaisy/src/dev/oled_ssd130x.h ****         else
 4935              		.loc 12 366 48 view .LVU1143
 4936 0176 4FF0010C 		mov	ip, #1
 366:../../libs/PoliTeKDSP/libs/libDaisy/src/dev/oled_ssd130x.h ****         else
 4937              		.loc 12 366 54 view .LVU1144
 4938 017a 04F00707 		and	r7, r4, #7
 366:../../libs/PoliTeKDSP/libs/libDaisy/src/dev/oled_ssd130x.h ****         else
 4939              		.loc 12 366 48 view .LVU1145
 4940 017e 0CFA07F7 		lsl	r7, ip, r7
 366:../../libs/PoliTeKDSP/libs/libDaisy/src/dev/oled_ssd130x.h ****         else
 4941              		.loc 12 366 42 view .LVU1146
 4942 0182 96F810C0 		ldrb	ip, [r6, #16]	@ zero_extendqisi2
 4943 0186 47EA0C07 		orr	r7, r7, ip
 4944 018a 3774     		strb	r7, [r6, #16]
 4945 018c 0026     		movs	r6, #0
 4946 018e 0396     		str	r6, [sp, #12]
 4947              	.L340:
 4948              	.LVL390:
 366:../../libs/PoliTeKDSP/libs/libDaisy/src/dev/oled_ssd130x.h ****         else
 4949              		.loc 12 366 42 view .LVU1147
 4950              	.LBE1475:
 4951              	.LBE1481:
 4952              	.LBE1487:
 244:../../libs/PoliTeKDSP/libs/libDaisy/src/hid/disp/display.h ****         {
 4953              		.loc 11 244 26 is_stmt 1 view .LVU1148
 4954 0190 A242     		cmp	r2, r4
ARM GAS  C:\Users\skipi\AppData\Local\Temp\ccs8qXFk.s 			page 142


 4955 0192 00F03D81 		beq	.L412
 4956              	.L343:
 4957              	.LVL391:
 235:../../libs/PoliTeKDSP/libs/libDaisy/src/hid/disp/display.h ****         int_fast16_t error  = deltaX - deltaY;
 4958              		.loc 11 235 42 is_stmt 0 view .LVU1149
 4959 0196 C446     		mov	ip, r8
 4960 0198 1646     		mov	r6, r2
 4961 019a 1F46     		mov	r7, r3
 4962 019c 0592     		str	r2, [sp, #20]
 4963              	.LVL392:
 4964              	.L345:
 4965              	.LBB1488:
 4966              	.LBI1488:
  42:../../libs/PoliTeKDSP/libs/libDaisy/src/hid/disp/oled_display.h ****     {
 4967              		.loc 10 42 10 is_stmt 1 view .LVU1150
 4968              	.LBB1489:
 4969              	.LBI1489:
 361:../../libs/PoliTeKDSP/libs/libDaisy/src/dev/oled_ssd130x.h ****     {
 4970              		.loc 12 361 10 view .LVU1151
 4971              	.LBB1490:
 363:../../libs/PoliTeKDSP/libs/libDaisy/src/dev/oled_ssd130x.h ****             return;
 4972              		.loc 12 363 9 is_stmt 0 view .LVU1152
 4973 019e 7F2F     		cmp	r7, #127
 4974 01a0 15D8     		bhi	.L346
 4975 01a2 3F2E     		cmp	r6, #63
 4976 01a4 13D8     		bhi	.L346
 366:../../libs/PoliTeKDSP/libs/libDaisy/src/dev/oled_ssd130x.h ****         else
 4977              		.loc 12 366 28 view .LVU1153
 4978 01a6 4FEAD60E 		lsr	lr, r6, #3
 366:../../libs/PoliTeKDSP/libs/libDaisy/src/dev/oled_ssd130x.h ****         else
 4979              		.loc 12 366 54 view .LVU1154
 4980 01aa 06F0070B 		and	fp, r6, #7
 366:../../libs/PoliTeKDSP/libs/libDaisy/src/dev/oled_ssd130x.h ****         else
 4981              		.loc 12 366 48 view .LVU1155
 4982 01ae 4FF0010A 		mov	r10, #1
 366:../../libs/PoliTeKDSP/libs/libDaisy/src/dev/oled_ssd130x.h ****         else
 4983              		.loc 12 366 42 view .LVU1156
 4984 01b2 07EBCE1E 		add	lr, r7, lr, lsl #7
 4985 01b6 8644     		add	lr, lr, r0
 365:../../libs/PoliTeKDSP/libs/libDaisy/src/dev/oled_ssd130x.h ****             buffer_[x + (y / 8) * width] |= (1 << (y % 8));
 4986              		.loc 12 365 9 view .LVU1157
 4987 01b8 002D     		cmp	r5, #0
 4988 01ba 00F0E680 		beq	.L347
 366:../../libs/PoliTeKDSP/libs/libDaisy/src/dev/oled_ssd130x.h ****         else
 4989              		.loc 12 366 48 view .LVU1158
 4990 01be 0AFA0BFA 		lsl	r10, r10, fp
 366:../../libs/PoliTeKDSP/libs/libDaisy/src/dev/oled_ssd130x.h ****         else
 4991              		.loc 12 366 42 view .LVU1159
 4992 01c2 9EF810B0 		ldrb	fp, [lr, #16]	@ zero_extendqisi2
 4993 01c6 4AEA0B0A 		orr	r10, r10, fp
 4994 01ca 8EF810A0 		strb	r10, [lr, #16]
 4995              	.L346:
 4996              	.LVL393:
 366:../../libs/PoliTeKDSP/libs/libDaisy/src/dev/oled_ssd130x.h ****         else
 4997              		.loc 12 366 42 view .LVU1160
 4998              	.LBE1490:
 4999              	.LBE1489:
ARM GAS  C:\Users\skipi\AppData\Local\Temp\ccs8qXFk.s 			page 143


 5000              	.LBE1488:
 248:../../libs/PoliTeKDSP/libs/libDaisy/src/hid/disp/display.h ****             {
 5001              		.loc 11 248 13 view .LVU1161
 5002 01ce B8EB4C0F 		cmp	r8, ip, lsl #1
 247:../../libs/PoliTeKDSP/libs/libDaisy/src/hid/disp/display.h ****             if(error2 > -deltaY)
 5003              		.loc 11 247 20 view .LVU1162
 5004 01d2 4FEA4C0E 		lsl	lr, ip, #1
 5005              	.LVL394:
 248:../../libs/PoliTeKDSP/libs/libDaisy/src/hid/disp/display.h ****             {
 5006              		.loc 11 248 13 view .LVU1163
 5007 01d6 02DA     		bge	.L348
 250:../../libs/PoliTeKDSP/libs/libDaisy/src/hid/disp/display.h ****                 x1 += signX;
 5008              		.loc 11 250 23 view .LVU1164
 5009 01d8 ACEB090C 		sub	ip, ip, r9
 5010              	.LVL395:
 251:../../libs/PoliTeKDSP/libs/libDaisy/src/hid/disp/display.h ****             }
 5011              		.loc 11 251 20 view .LVU1165
 5012 01dc 013F     		subs	r7, r7, #1
 5013              	.LVL396:
 5014              	.L348:
 254:../../libs/PoliTeKDSP/libs/libDaisy/src/hid/disp/display.h ****             {
 5015              		.loc 11 254 13 view .LVU1166
 5016 01de BEF1000F 		cmp	lr, #0
 5017 01e2 01D0     		beq	.L349
 257:../../libs/PoliTeKDSP/libs/libDaisy/src/hid/disp/display.h ****             }
 5018              		.loc 11 257 20 view .LVU1167
 5019 01e4 009A     		ldr	r2, [sp]
 5020 01e6 1644     		add	r6, r6, r2
 5021              	.LVL397:
 5022              	.L349:
 244:../../libs/PoliTeKDSP/libs/libDaisy/src/hid/disp/display.h ****         {
 5023              		.loc 11 244 26 is_stmt 1 view .LVU1168
 5024 01e8 BB42     		cmp	r3, r7
 5025 01ea D8D1     		bne	.L345
 244:../../libs/PoliTeKDSP/libs/libDaisy/src/hid/disp/display.h ****         {
 5026              		.loc 11 244 26 is_stmt 0 view .LVU1169
 5027 01ec B442     		cmp	r4, r6
 5028 01ee D6D1     		bne	.L345
 5029 01f0 059A     		ldr	r2, [sp, #20]
 5030              	.LVL398:
 5031              	.L342:
 244:../../libs/PoliTeKDSP/libs/libDaisy/src/hid/disp/display.h ****         {
 5032              		.loc 11 244 26 view .LVU1170
 5033              	.LBE1466:
 5034              	.LBE1465:
 5035              	.LBB1501:
 5036              	.LBI1501:
 226:../../libs/PoliTeKDSP/libs/libDaisy/src/hid/disp/display.h ****                   uint_fast8_t y1,
 5037              		.loc 11 226 10 is_stmt 1 view .LVU1171
 5038              	.LBB1502:
 232:../../libs/PoliTeKDSP/libs/libDaisy/src/hid/disp/display.h ****         int_fast16_t deltaY = abs((int_fast16_t)y2 - (int_fast16_t)y1);
 5039              		.loc 11 232 52 is_stmt 0 view .LVU1172
 5040 01f2 A1EB030E 		sub	lr, r1, r3
 232:../../libs/PoliTeKDSP/libs/libDaisy/src/hid/disp/display.h ****         int_fast16_t deltaY = abs((int_fast16_t)y2 - (int_fast16_t)y1);
 5041              		.loc 11 232 22 view .LVU1173
 5042 01f6 BEF1000F 		cmp	lr, #0
 5043 01fa B8BF     		it	lt
ARM GAS  C:\Users\skipi\AppData\Local\Temp\ccs8qXFk.s 			page 144


 5044 01fc CEF1000E 		rsblt	lr, lr, #0
 5045              	.LVL399:
 5046              	.LBB1503:
 5047              	.LBB1504:
 5048              	.LBB1505:
 363:../../libs/PoliTeKDSP/libs/libDaisy/src/dev/oled_ssd130x.h ****             return;
 5049              		.loc 12 363 14 view .LVU1174
 5050 0200 7F29     		cmp	r1, #127
 5051 0202 94BF     		ite	ls
 5052 0204 4FF0000A 		movls	r10, #0
 5053 0208 4FF0010A 		movhi	r10, #1
 5054              	.LBE1505:
 5055              	.LBE1504:
 5056              	.LBE1503:
 234:../../libs/PoliTeKDSP/libs/libDaisy/src/hid/disp/display.h ****         int_fast16_t signY  = ((y1 < y2) ? 1 : -1);
 5057              		.loc 11 234 42 view .LVU1175
 5058 020c 9942     		cmp	r1, r3
 5059 020e 8CBF     		ite	hi
 5060 0210 4FF00109 		movhi	r9, #1
 5061 0214 4FF0FF39 		movls	r9, #-1
 5062              	.LVL400:
 5063              	.LBB1512:
 5064              	.LBI1503:
  42:../../libs/PoliTeKDSP/libs/libDaisy/src/hid/disp/oled_display.h ****     {
 5065              		.loc 10 42 10 is_stmt 1 view .LVU1176
 5066              	.LBB1510:
 5067              	.LBI1504:
 361:../../libs/PoliTeKDSP/libs/libDaisy/src/dev/oled_ssd130x.h ****     {
 5068              		.loc 12 361 10 view .LVU1177
 5069              	.LBB1508:
 363:../../libs/PoliTeKDSP/libs/libDaisy/src/dev/oled_ssd130x.h ****             return;
 5070              		.loc 12 363 9 is_stmt 0 view .LVU1178
 5071 0218 BAF1000F 		cmp	r10, #0
 5072 021c 13D1     		bne	.L351
 5073 021e 039E     		ldr	r6, [sp, #12]
 5074 0220 8EB9     		cbnz	r6, .L351
 366:../../libs/PoliTeKDSP/libs/libDaisy/src/dev/oled_ssd130x.h ****         else
 5075              		.loc 12 366 28 view .LVU1179
 5076 0222 E608     		lsrs	r6, r4, #3
 366:../../libs/PoliTeKDSP/libs/libDaisy/src/dev/oled_ssd130x.h ****         else
 5077              		.loc 12 366 42 view .LVU1180
 5078 0224 01EBC616 		add	r6, r1, r6, lsl #7
 5079 0228 0644     		add	r6, r6, r0
 365:../../libs/PoliTeKDSP/libs/libDaisy/src/dev/oled_ssd130x.h ****             buffer_[x + (y / 8) * width] |= (1 << (y % 8));
 5080              		.loc 12 365 9 view .LVU1181
 5081 022a 002D     		cmp	r5, #0
 5082 022c 00F0D380 		beq	.L352
 366:../../libs/PoliTeKDSP/libs/libDaisy/src/dev/oled_ssd130x.h ****         else
 5083              		.loc 12 366 48 view .LVU1182
 5084 0230 4FF0010C 		mov	ip, #1
 366:../../libs/PoliTeKDSP/libs/libDaisy/src/dev/oled_ssd130x.h ****         else
 5085              		.loc 12 366 54 view .LVU1183
 5086 0234 04F00707 		and	r7, r4, #7
 366:../../libs/PoliTeKDSP/libs/libDaisy/src/dev/oled_ssd130x.h ****         else
 5087              		.loc 12 366 48 view .LVU1184
 5088 0238 0CFA07F7 		lsl	r7, ip, r7
 366:../../libs/PoliTeKDSP/libs/libDaisy/src/dev/oled_ssd130x.h ****         else
ARM GAS  C:\Users\skipi\AppData\Local\Temp\ccs8qXFk.s 			page 145


 5089              		.loc 12 366 42 view .LVU1185
 5090 023c 96F810C0 		ldrb	ip, [r6, #16]	@ zero_extendqisi2
 5091 0240 47EA0C07 		orr	r7, r7, ip
 5092 0244 3774     		strb	r7, [r6, #16]
 5093              	.L351:
 5094              	.LVL401:
 366:../../libs/PoliTeKDSP/libs/libDaisy/src/dev/oled_ssd130x.h ****         else
 5095              		.loc 12 366 42 view .LVU1186
 5096              	.LBE1508:
 5097              	.LBE1510:
 5098              	.LBE1512:
 244:../../libs/PoliTeKDSP/libs/libDaisy/src/hid/disp/display.h ****         {
 5099              		.loc 11 244 26 is_stmt 1 view .LVU1187
 5100 0246 049E     		ldr	r6, [sp, #16]
 5101 0248 26BB     		cbnz	r6, .L353
 232:../../libs/PoliTeKDSP/libs/libDaisy/src/hid/disp/display.h ****         int_fast16_t deltaY = abs((int_fast16_t)y2 - (int_fast16_t)y1);
 5102              		.loc 11 232 22 is_stmt 0 view .LVU1188
 5103 024a 7746     		mov	r7, lr
 244:../../libs/PoliTeKDSP/libs/libDaisy/src/hid/disp/display.h ****         {
 5104              		.loc 11 244 26 view .LVU1189
 5105 024c 2646     		mov	r6, r4
 5106              	.LVL402:
 5107              	.L354:
 5108              	.LBB1513:
 5109              	.LBI1513:
  42:../../libs/PoliTeKDSP/libs/libDaisy/src/hid/disp/oled_display.h ****     {
 5110              		.loc 10 42 10 is_stmt 1 view .LVU1190
 5111              	.LBB1514:
 5112              	.LBI1514:
 361:../../libs/PoliTeKDSP/libs/libDaisy/src/dev/oled_ssd130x.h ****     {
 5113              		.loc 12 361 10 view .LVU1191
 5114              	.LBB1515:
 363:../../libs/PoliTeKDSP/libs/libDaisy/src/dev/oled_ssd130x.h ****             return;
 5115              		.loc 12 363 9 is_stmt 0 view .LVU1192
 5116 024e 7F2B     		cmp	r3, #127
 5117 0250 14D8     		bhi	.L356
 363:../../libs/PoliTeKDSP/libs/libDaisy/src/dev/oled_ssd130x.h ****             return;
 5118              		.loc 12 363 9 view .LVU1193
 5119 0252 3F2E     		cmp	r6, #63
 5120 0254 12D8     		bhi	.L356
 366:../../libs/PoliTeKDSP/libs/libDaisy/src/dev/oled_ssd130x.h ****         else
 5121              		.loc 12 366 28 view .LVU1194
 5122 0256 4FEAD60C 		lsr	ip, r6, #3
 366:../../libs/PoliTeKDSP/libs/libDaisy/src/dev/oled_ssd130x.h ****         else
 5123              		.loc 12 366 54 view .LVU1195
 5124 025a 06F0070B 		and	fp, r6, #7
 366:../../libs/PoliTeKDSP/libs/libDaisy/src/dev/oled_ssd130x.h ****         else
 5125              		.loc 12 366 48 view .LVU1196
 5126 025e 4FF00108 		mov	r8, #1
 366:../../libs/PoliTeKDSP/libs/libDaisy/src/dev/oled_ssd130x.h ****         else
 5127              		.loc 12 366 42 view .LVU1197
 5128 0262 03EBCC1C 		add	ip, r3, ip, lsl #7
 5129 0266 8444     		add	ip, ip, r0
 365:../../libs/PoliTeKDSP/libs/libDaisy/src/dev/oled_ssd130x.h ****             buffer_[x + (y / 8) * width] |= (1 << (y % 8));
 5130              		.loc 12 365 9 view .LVU1198
 5131 0268 002D     		cmp	r5, #0
 5132 026a 73D0     		beq	.L357
ARM GAS  C:\Users\skipi\AppData\Local\Temp\ccs8qXFk.s 			page 146


 366:../../libs/PoliTeKDSP/libs/libDaisy/src/dev/oled_ssd130x.h ****         else
 5133              		.loc 12 366 48 view .LVU1199
 5134 026c 08FA0BF8 		lsl	r8, r8, fp
 366:../../libs/PoliTeKDSP/libs/libDaisy/src/dev/oled_ssd130x.h ****         else
 5135              		.loc 12 366 42 view .LVU1200
 5136 0270 9CF810B0 		ldrb	fp, [ip, #16]	@ zero_extendqisi2
 5137 0274 48EA0B08 		orr	r8, r8, fp
 5138 0278 8CF81080 		strb	r8, [ip, #16]
 5139              	.L356:
 5140              	.LVL403:
 366:../../libs/PoliTeKDSP/libs/libDaisy/src/dev/oled_ssd130x.h ****         else
 5141              		.loc 12 366 42 view .LVU1201
 5142              	.LBE1515:
 5143              	.LBE1514:
 5144              	.LBE1513:
 248:../../libs/PoliTeKDSP/libs/libDaisy/src/hid/disp/display.h ****             {
 5145              		.loc 11 248 13 view .LVU1202
 5146 027c 5FEA470C 		lsls	ip, r7, #1
 5147              	.LVL404:
 251:../../libs/PoliTeKDSP/libs/libDaisy/src/hid/disp/display.h ****             }
 5148              		.loc 11 251 20 view .LVU1203
 5149 0280 18BF     		it	ne
 5150 0282 4B44     		addne	r3, r3, r9
 5151              	.LVL405:
 254:../../libs/PoliTeKDSP/libs/libDaisy/src/hid/disp/display.h ****             {
 5152              		.loc 11 254 13 view .LVU1204
 5153 0284 E645     		cmp	lr, ip
 5154 0286 01DD     		ble	.L359
 256:../../libs/PoliTeKDSP/libs/libDaisy/src/hid/disp/display.h ****                 y1 += signY;
 5155              		.loc 11 256 23 view .LVU1205
 5156 0288 7744     		add	r7, r7, lr
 5157              	.LVL406:
 257:../../libs/PoliTeKDSP/libs/libDaisy/src/hid/disp/display.h ****             }
 5158              		.loc 11 257 20 view .LVU1206
 5159 028a 013E     		subs	r6, r6, #1
 5160              	.LVL407:
 5161              	.L359:
 244:../../libs/PoliTeKDSP/libs/libDaisy/src/hid/disp/display.h ****         {
 5162              		.loc 11 244 26 is_stmt 1 view .LVU1207
 5163 028c 9942     		cmp	r1, r3
 5164 028e DED1     		bne	.L354
 244:../../libs/PoliTeKDSP/libs/libDaisy/src/hid/disp/display.h ****         {
 5165              		.loc 11 244 26 is_stmt 0 view .LVU1208
 5166 0290 B442     		cmp	r4, r6
 5167 0292 DCD1     		bne	.L354
 5168              	.LVL408:
 5169              	.L353:
 244:../../libs/PoliTeKDSP/libs/libDaisy/src/hid/disp/display.h ****         {
 5170              		.loc 11 244 26 view .LVU1209
 5171              	.LBE1502:
 5172              	.LBE1501:
 5173              	.LBB1524:
 5174              	.LBI1524:
 226:../../libs/PoliTeKDSP/libs/libDaisy/src/hid/disp/display.h ****                   uint_fast8_t y1,
 5175              		.loc 11 226 10 is_stmt 1 view .LVU1210
 5176              	.LBB1525:
 233:../../libs/PoliTeKDSP/libs/libDaisy/src/hid/disp/display.h ****         int_fast16_t signX  = ((x1 < x2) ? 1 : -1);
ARM GAS  C:\Users\skipi\AppData\Local\Temp\ccs8qXFk.s 			page 147


 5177              		.loc 11 233 52 is_stmt 0 view .LVU1211
 5178 0294 A2EB040E 		sub	lr, r2, r4
 233:../../libs/PoliTeKDSP/libs/libDaisy/src/hid/disp/display.h ****         int_fast16_t signX  = ((x1 < x2) ? 1 : -1);
 5179              		.loc 11 233 22 view .LVU1212
 5180 0298 BEF1000F 		cmp	lr, #0
 5181 029c B8BF     		it	lt
 5182 029e CEF1000E 		rsblt	lr, lr, #0
 5183              	.LVL409:
 235:../../libs/PoliTeKDSP/libs/libDaisy/src/hid/disp/display.h ****         int_fast16_t error  = deltaX - deltaY;
 5184              		.loc 11 235 42 view .LVU1213
 5185 02a2 A242     		cmp	r2, r4
 5186 02a4 8CBF     		ite	hi
 5187 02a6 4FF00108 		movhi	r8, #1
 5188 02aa 4FF0FF38 		movls	r8, #-1
 5189              	.LVL410:
 236:../../libs/PoliTeKDSP/libs/libDaisy/src/hid/disp/display.h ****         int_fast16_t error2;
 5190              		.loc 11 236 22 view .LVU1214
 5191 02ae CEF1000C 		rsb	ip, lr, #0
 5192              	.LVL411:
 5193              	.LBB1526:
 5194              	.LBI1526:
  42:../../libs/PoliTeKDSP/libs/libDaisy/src/hid/disp/oled_display.h ****     {
 5195              		.loc 10 42 10 is_stmt 1 view .LVU1215
 5196              	.LBB1527:
 5197              	.LBI1527:
 361:../../libs/PoliTeKDSP/libs/libDaisy/src/dev/oled_ssd130x.h ****     {
 5198              		.loc 12 361 10 view .LVU1216
 5199              	.LBB1528:
 363:../../libs/PoliTeKDSP/libs/libDaisy/src/dev/oled_ssd130x.h ****             return;
 5200              		.loc 12 363 9 is_stmt 0 view .LVU1217
 5201 02b2 BAF1000F 		cmp	r10, #0
 5202 02b6 0ED1     		bne	.L361
 5203 02b8 029B     		ldr	r3, [sp, #8]
 5204 02ba 63B9     		cbnz	r3, .L361
 366:../../libs/PoliTeKDSP/libs/libDaisy/src/dev/oled_ssd130x.h ****         else
 5205              		.loc 12 366 28 view .LVU1218
 5206 02bc D308     		lsrs	r3, r2, #3
 366:../../libs/PoliTeKDSP/libs/libDaisy/src/dev/oled_ssd130x.h ****         else
 5207              		.loc 12 366 54 view .LVU1219
 5208 02be 02F00707 		and	r7, r2, #7
 366:../../libs/PoliTeKDSP/libs/libDaisy/src/dev/oled_ssd130x.h ****         else
 5209              		.loc 12 366 48 view .LVU1220
 5210 02c2 0126     		movs	r6, #1
 366:../../libs/PoliTeKDSP/libs/libDaisy/src/dev/oled_ssd130x.h ****         else
 5211              		.loc 12 366 42 view .LVU1221
 5212 02c4 01EBC313 		add	r3, r1, r3, lsl #7
 5213 02c8 0344     		add	r3, r3, r0
 365:../../libs/PoliTeKDSP/libs/libDaisy/src/dev/oled_ssd130x.h ****             buffer_[x + (y / 8) * width] |= (1 << (y % 8));
 5214              		.loc 12 365 9 view .LVU1222
 5215 02ca 002D     		cmp	r5, #0
 5216 02cc 7CD0     		beq	.L362
 366:../../libs/PoliTeKDSP/libs/libDaisy/src/dev/oled_ssd130x.h ****         else
 5217              		.loc 12 366 48 view .LVU1223
 5218 02ce BE40     		lsls	r6, r6, r7
 366:../../libs/PoliTeKDSP/libs/libDaisy/src/dev/oled_ssd130x.h ****         else
 5219              		.loc 12 366 42 view .LVU1224
 5220 02d0 1F7C     		ldrb	r7, [r3, #16]	@ zero_extendqisi2
ARM GAS  C:\Users\skipi\AppData\Local\Temp\ccs8qXFk.s 			page 148


 5221 02d2 3E43     		orrs	r6, r6, r7
 5222 02d4 1E74     		strb	r6, [r3, #16]
 5223              	.L361:
 5224              	.LVL412:
 366:../../libs/PoliTeKDSP/libs/libDaisy/src/dev/oled_ssd130x.h ****         else
 5225              		.loc 12 366 42 view .LVU1225
 5226              	.LBE1528:
 5227              	.LBE1527:
 5228              	.LBE1526:
 244:../../libs/PoliTeKDSP/libs/libDaisy/src/hid/disp/display.h ****         {
 5229              		.loc 11 244 26 is_stmt 1 view .LVU1226
 5230 02d6 019B     		ldr	r3, [sp, #4]
 5231 02d8 002B     		cmp	r3, #0
 5232 02da 7FF4CDAE 		bne	.L319
 5233 02de 6646     		mov	r6, ip
 5234 02e0 0B46     		mov	r3, r1
 5235              	.LVL413:
 5236              	.L363:
 5237              	.LBB1533:
 5238              	.LBI1533:
  42:../../libs/PoliTeKDSP/libs/libDaisy/src/hid/disp/oled_display.h ****     {
 5239              		.loc 10 42 10 view .LVU1227
 5240              	.LBB1534:
 5241              	.LBI1534:
 361:../../libs/PoliTeKDSP/libs/libDaisy/src/dev/oled_ssd130x.h ****     {
 5242              		.loc 12 361 10 view .LVU1228
 5243              	.LBB1535:
 363:../../libs/PoliTeKDSP/libs/libDaisy/src/dev/oled_ssd130x.h ****             return;
 5244              		.loc 12 363 9 is_stmt 0 view .LVU1229
 5245 02e2 7F2B     		cmp	r3, #127
 5246 02e4 12D8     		bhi	.L365
 363:../../libs/PoliTeKDSP/libs/libDaisy/src/dev/oled_ssd130x.h ****             return;
 5247              		.loc 12 363 9 view .LVU1230
 5248 02e6 3F2C     		cmp	r4, #63
 5249 02e8 10D8     		bhi	.L365
 366:../../libs/PoliTeKDSP/libs/libDaisy/src/dev/oled_ssd130x.h ****         else
 5250              		.loc 12 366 28 view .LVU1231
 5251 02ea E708     		lsrs	r7, r4, #3
 366:../../libs/PoliTeKDSP/libs/libDaisy/src/dev/oled_ssd130x.h ****         else
 5252              		.loc 12 366 54 view .LVU1232
 5253 02ec 04F0070A 		and	r10, r4, #7
 366:../../libs/PoliTeKDSP/libs/libDaisy/src/dev/oled_ssd130x.h ****         else
 5254              		.loc 12 366 48 view .LVU1233
 5255 02f0 4FF00109 		mov	r9, #1
 366:../../libs/PoliTeKDSP/libs/libDaisy/src/dev/oled_ssd130x.h ****         else
 5256              		.loc 12 366 42 view .LVU1234
 5257 02f4 03EBC717 		add	r7, r3, r7, lsl #7
 5258 02f8 0744     		add	r7, r7, r0
 365:../../libs/PoliTeKDSP/libs/libDaisy/src/dev/oled_ssd130x.h ****             buffer_[x + (y / 8) * width] |= (1 << (y % 8));
 5259              		.loc 12 365 9 view .LVU1235
 5260 02fa A5B3     		cbz	r5, .L366
 366:../../libs/PoliTeKDSP/libs/libDaisy/src/dev/oled_ssd130x.h ****         else
 5261              		.loc 12 366 48 view .LVU1236
 5262 02fc 09FA0AF9 		lsl	r9, r9, r10
 366:../../libs/PoliTeKDSP/libs/libDaisy/src/dev/oled_ssd130x.h ****         else
 5263              		.loc 12 366 42 view .LVU1237
 5264 0300 97F810A0 		ldrb	r10, [r7, #16]	@ zero_extendqisi2
ARM GAS  C:\Users\skipi\AppData\Local\Temp\ccs8qXFk.s 			page 149


 5265 0304 49EA0A09 		orr	r9, r9, r10
 5266 0308 87F81090 		strb	r9, [r7, #16]
 5267              	.L365:
 5268              	.LVL414:
 366:../../libs/PoliTeKDSP/libs/libDaisy/src/dev/oled_ssd130x.h ****         else
 5269              		.loc 12 366 42 view .LVU1238
 5270              	.LBE1535:
 5271              	.LBE1534:
 5272              	.LBE1533:
 248:../../libs/PoliTeKDSP/libs/libDaisy/src/hid/disp/display.h ****             {
 5273              		.loc 11 248 13 view .LVU1239
 5274 030c BCEB460F 		cmp	ip, r6, lsl #1
 247:../../libs/PoliTeKDSP/libs/libDaisy/src/hid/disp/display.h ****             if(error2 > -deltaY)
 5275              		.loc 11 247 20 view .LVU1240
 5276 0310 4FEA4607 		lsl	r7, r6, #1
 5277              	.LVL415:
 248:../../libs/PoliTeKDSP/libs/libDaisy/src/hid/disp/display.h ****             {
 5278              		.loc 11 248 13 view .LVU1241
 5279 0314 02DA     		bge	.L367
 250:../../libs/PoliTeKDSP/libs/libDaisy/src/hid/disp/display.h ****                 x1 += signX;
 5280              		.loc 11 250 23 view .LVU1242
 5281 0316 A6EB0E06 		sub	r6, r6, lr
 5282              	.LVL416:
 251:../../libs/PoliTeKDSP/libs/libDaisy/src/hid/disp/display.h ****             }
 5283              		.loc 11 251 20 view .LVU1243
 5284 031a 013B     		subs	r3, r3, #1
 5285              	.LVL417:
 5286              	.L367:
 254:../../libs/PoliTeKDSP/libs/libDaisy/src/hid/disp/display.h ****             {
 5287              		.loc 11 254 13 view .LVU1244
 5288 031c 07B1     		cbz	r7, .L368
 257:../../libs/PoliTeKDSP/libs/libDaisy/src/hid/disp/display.h ****             }
 5289              		.loc 11 257 20 view .LVU1245
 5290 031e 4444     		add	r4, r4, r8
 5291              	.LVL418:
 5292              	.L368:
 244:../../libs/PoliTeKDSP/libs/libDaisy/src/hid/disp/display.h ****         {
 5293              		.loc 11 244 26 is_stmt 1 view .LVU1246
 5294 0320 9942     		cmp	r1, r3
 5295 0322 DED1     		bne	.L363
 244:../../libs/PoliTeKDSP/libs/libDaisy/src/hid/disp/display.h ****         {
 5296              		.loc 11 244 26 is_stmt 0 view .LVU1247
 5297 0324 A242     		cmp	r2, r4
 5298 0326 DCD1     		bne	.L363
 5299              	.LBE1525:
 5300              	.LBE1524:
 5301              	.LBE1577:
 286:../../libs/PoliTeKDSP/libs/libDaisy/src/hid/disp/display.h **** 
 5302              		.loc 11 286 5 view .LVU1248
 5303 0328 07B0     		add	sp, sp, #28
 5304              		.cfi_remember_state
 5305              		.cfi_def_cfa_offset 36
 5306              		@ sp needed
 5307 032a BDE8F08F 		pop	{r4, r5, r6, r7, r8, r9, r10, fp, pc}
 5308              	.LVL419:
 5309              	.L328:
 5310              		.cfi_restore_state
ARM GAS  C:\Users\skipi\AppData\Local\Temp\ccs8qXFk.s 			page 150


 5311              	.LBB1578:
 5312              	.LBB1544:
 5313              	.LBB1461:
 5314              	.LBB1457:
  42:../../libs/PoliTeKDSP/libs/libDaisy/src/hid/disp/oled_display.h ****     {
 5315              		.loc 10 42 10 is_stmt 1 view .LVU1249
 5316              	.LBB1446:
 361:../../libs/PoliTeKDSP/libs/libDaisy/src/dev/oled_ssd130x.h ****     {
 5317              		.loc 12 361 10 view .LVU1250
 5318              	.LBB1442:
 363:../../libs/PoliTeKDSP/libs/libDaisy/src/dev/oled_ssd130x.h ****             return;
 5319              		.loc 12 363 28 is_stmt 0 view .LVU1251
 5320 032e 3F2A     		cmp	r2, #63
 5321              	.LBE1442:
 5322              	.LBE1446:
 5323              	.LBE1457:
 234:../../libs/PoliTeKDSP/libs/libDaisy/src/hid/disp/display.h ****         int_fast16_t signY  = ((y1 < y2) ? 1 : -1);
 5324              		.loc 11 234 42 view .LVU1252
 5325 0330 4FF0010A 		mov	r10, #1
 5326              	.LBB1458:
 5327              	.LBB1447:
 5328              	.LBB1443:
 363:../../libs/PoliTeKDSP/libs/libDaisy/src/dev/oled_ssd130x.h ****             return;
 5329              		.loc 12 363 28 view .LVU1253
 5330 0334 94BF     		ite	ls
 5331 0336 0026     		movls	r6, #0
 5332 0338 0126     		movhi	r6, #1
 363:../../libs/PoliTeKDSP/libs/libDaisy/src/dev/oled_ssd130x.h ****             return;
 5333              		.loc 12 363 14 view .LVU1254
 5334 033a 7F2B     		cmp	r3, #127
 363:../../libs/PoliTeKDSP/libs/libDaisy/src/dev/oled_ssd130x.h ****             return;
 5335              		.loc 12 363 28 view .LVU1255
 5336 033c 0296     		str	r6, [sp, #8]
 363:../../libs/PoliTeKDSP/libs/libDaisy/src/dev/oled_ssd130x.h ****             return;
 5337              		.loc 12 363 14 view .LVU1256
 5338 033e 94BF     		ite	ls
 5339 0340 0027     		movls	r7, #0
 5340 0342 0127     		movhi	r7, #1
 5341 0344 0097     		str	r7, [sp]
 363:../../libs/PoliTeKDSP/libs/libDaisy/src/dev/oled_ssd130x.h ****             return;
 5342              		.loc 12 363 9 view .LVU1257
 5343 0346 002E     		cmp	r6, #0
 5344 0348 7FF4C8AE 		bne	.L332
 5345 034c 002F     		cmp	r7, #0
 5346 034e 3FF4AEAE 		beq	.L370
 5347 0352 C3E6     		b	.L332
 5348              	.LVL420:
 5349              	.L357:
 363:../../libs/PoliTeKDSP/libs/libDaisy/src/dev/oled_ssd130x.h ****             return;
 5350              		.loc 12 363 9 view .LVU1258
 5351              	.LBE1443:
 5352              	.LBE1447:
 5353              	.LBE1458:
 5354              	.LBE1461:
 5355              	.LBE1544:
 5356              	.LBB1545:
 5357              	.LBB1522:
ARM GAS  C:\Users\skipi\AppData\Local\Temp\ccs8qXFk.s 			page 151


 5358              	.LBB1520:
 5359              	.LBB1519:
 5360              	.LBB1518:
 5361              	.LBB1516:
 5362              	.LBI1516:
 361:../../libs/PoliTeKDSP/libs/libDaisy/src/dev/oled_ssd130x.h ****     {
 5363              		.loc 12 361 10 is_stmt 1 view .LVU1259
 5364              	.LBB1517:
 368:../../libs/PoliTeKDSP/libs/libDaisy/src/dev/oled_ssd130x.h ****     }
 5365              		.loc 12 368 49 is_stmt 0 view .LVU1260
 5366 0354 08FA0BFB 		lsl	fp, r8, fp
 368:../../libs/PoliTeKDSP/libs/libDaisy/src/dev/oled_ssd130x.h ****     }
 5367              		.loc 12 368 42 view .LVU1261
 5368 0358 9CF81080 		ldrb	r8, [ip, #16]	@ zero_extendqisi2
 5369 035c 28EA0B08 		bic	r8, r8, fp
 5370 0360 8CF81080 		strb	r8, [ip, #16]
 5371 0364 8AE7     		b	.L356
 5372              	.LVL421:
 5373              	.L366:
 368:../../libs/PoliTeKDSP/libs/libDaisy/src/dev/oled_ssd130x.h ****     }
 5374              		.loc 12 368 42 view .LVU1262
 5375              	.LBE1517:
 5376              	.LBE1516:
 5377              	.LBE1518:
 5378              	.LBE1519:
 5379              	.LBE1520:
 5380              	.LBE1522:
 5381              	.LBE1545:
 5382              	.LBB1546:
 5383              	.LBB1542:
 5384              	.LBB1540:
 5385              	.LBB1539:
 5386              	.LBB1538:
 5387              	.LBB1536:
 5388              	.LBI1536:
 361:../../libs/PoliTeKDSP/libs/libDaisy/src/dev/oled_ssd130x.h ****     {
 5389              		.loc 12 361 10 is_stmt 1 view .LVU1263
 5390              	.LBB1537:
 368:../../libs/PoliTeKDSP/libs/libDaisy/src/dev/oled_ssd130x.h ****     }
 5391              		.loc 12 368 49 is_stmt 0 view .LVU1264
 5392 0366 09FA0AFA 		lsl	r10, r9, r10
 368:../../libs/PoliTeKDSP/libs/libDaisy/src/dev/oled_ssd130x.h ****     }
 5393              		.loc 12 368 42 view .LVU1265
 5394 036a 97F81090 		ldrb	r9, [r7, #16]	@ zero_extendqisi2
 5395 036e 29EA0A09 		bic	r9, r9, r10
 5396 0372 87F81090 		strb	r9, [r7, #16]
 5397 0376 C9E7     		b	.L365
 5398              	.LVL422:
 5399              	.L336:
 368:../../libs/PoliTeKDSP/libs/libDaisy/src/dev/oled_ssd130x.h ****     }
 5400              		.loc 12 368 42 view .LVU1266
 5401              	.LBE1537:
 5402              	.LBE1536:
 5403              	.LBE1538:
 5404              	.LBE1539:
 5405              	.LBE1540:
 5406              	.LBE1542:
ARM GAS  C:\Users\skipi\AppData\Local\Temp\ccs8qXFk.s 			page 152


 5407              	.LBE1546:
 5408              	.LBB1547:
 5409              	.LBB1462:
 5410              	.LBB1459:
 5411              	.LBB1456:
 5412              	.LBB1455:
 5413              	.LBB1453:
 5414              	.LBI1453:
 361:../../libs/PoliTeKDSP/libs/libDaisy/src/dev/oled_ssd130x.h ****     {
 5415              		.loc 12 361 10 is_stmt 1 view .LVU1267
 5416              	.LBB1454:
 368:../../libs/PoliTeKDSP/libs/libDaisy/src/dev/oled_ssd130x.h ****     }
 5417              		.loc 12 368 49 is_stmt 0 view .LVU1268
 5418 0378 09FA0BFB 		lsl	fp, r9, fp
 368:../../libs/PoliTeKDSP/libs/libDaisy/src/dev/oled_ssd130x.h ****     }
 5419              		.loc 12 368 42 view .LVU1269
 5420 037c 97F81090 		ldrb	r9, [r7, #16]	@ zero_extendqisi2
 5421 0380 29EA0B09 		bic	r9, r9, fp
 5422 0384 87F81090 		strb	r9, [r7, #16]
 5423 0388 C5E6     		b	.L335
 5424              	.LVL423:
 5425              	.L347:
 368:../../libs/PoliTeKDSP/libs/libDaisy/src/dev/oled_ssd130x.h ****     }
 5426              		.loc 12 368 42 view .LVU1270
 5427              	.LBE1454:
 5428              	.LBE1453:
 5429              	.LBE1455:
 5430              	.LBE1456:
 5431              	.LBE1459:
 5432              	.LBE1462:
 5433              	.LBE1547:
 5434              	.LBB1548:
 5435              	.LBB1498:
 5436              	.LBB1495:
 5437              	.LBB1494:
 5438              	.LBB1493:
 5439              	.LBB1491:
 5440              	.LBI1491:
 361:../../libs/PoliTeKDSP/libs/libDaisy/src/dev/oled_ssd130x.h ****     {
 5441              		.loc 12 361 10 is_stmt 1 view .LVU1271
 5442              	.LBB1492:
 368:../../libs/PoliTeKDSP/libs/libDaisy/src/dev/oled_ssd130x.h ****     }
 5443              		.loc 12 368 49 is_stmt 0 view .LVU1272
 5444 038a 0AFA0BFB 		lsl	fp, r10, fp
 368:../../libs/PoliTeKDSP/libs/libDaisy/src/dev/oled_ssd130x.h ****     }
 5445              		.loc 12 368 42 view .LVU1273
 5446 038e 9EF810A0 		ldrb	r10, [lr, #16]	@ zero_extendqisi2
 5447 0392 2AEA0B0A 		bic	r10, r10, fp
 5448 0396 8EF810A0 		strb	r10, [lr, #16]
 5449 039a 18E7     		b	.L346
 5450              	.LVL424:
 5451              	.L339:
 368:../../libs/PoliTeKDSP/libs/libDaisy/src/dev/oled_ssd130x.h ****     }
 5452              		.loc 12 368 42 view .LVU1274
 5453              	.LBE1492:
 5454              	.LBE1491:
 5455              	.LBE1493:
ARM GAS  C:\Users\skipi\AppData\Local\Temp\ccs8qXFk.s 			page 153


 5456              	.LBE1494:
 5457              	.LBE1495:
 5458              	.LBB1496:
 5459              	.LBB1482:
 5460              	.LBB1476:
 363:../../libs/PoliTeKDSP/libs/libDaisy/src/dev/oled_ssd130x.h ****             return;
 5461              		.loc 12 363 9 view .LVU1275
 5462 039c 97BB     		cbnz	r7, .L378
 5463 039e 8EBB     		cbnz	r6, .L378
 5464              	.LBE1476:
 5465              	.LBE1482:
 5466              	.LBE1496:
 235:../../libs/PoliTeKDSP/libs/libDaisy/src/hid/disp/display.h ****         int_fast16_t error  = deltaX - deltaY;
 5467              		.loc 11 235 42 view .LVU1276
 5468 03a0 0126     		movs	r6, #1
 5469 03a2 0096     		str	r6, [sp]
 5470              	.LBB1497:
 5471              	.LBB1483:
 5472              	.LBB1477:
 366:../../libs/PoliTeKDSP/libs/libDaisy/src/dev/oled_ssd130x.h ****         else
 5473              		.loc 12 366 28 view .LVU1277
 5474 03a4 E608     		lsrs	r6, r4, #3
 366:../../libs/PoliTeKDSP/libs/libDaisy/src/dev/oled_ssd130x.h ****         else
 5475              		.loc 12 366 42 view .LVU1278
 5476 03a6 03EBC616 		add	r6, r3, r6, lsl #7
 5477 03aa 0644     		add	r6, r6, r0
 365:../../libs/PoliTeKDSP/libs/libDaisy/src/dev/oled_ssd130x.h ****             buffer_[x + (y / 8) * width] |= (1 << (y % 8));
 5478              		.loc 12 365 9 view .LVU1279
 5479 03ac 002D     		cmp	r5, #0
 5480 03ae 7FF4E2AE 		bne	.L413
 5481              	.LVL425:
 5482              	.L341:
 5483              	.LBB1470:
 5484              	.LBI1470:
 361:../../libs/PoliTeKDSP/libs/libDaisy/src/dev/oled_ssd130x.h ****     {
 5485              		.loc 12 361 10 is_stmt 1 view .LVU1280
 5486              	.LBB1471:
 368:../../libs/PoliTeKDSP/libs/libDaisy/src/dev/oled_ssd130x.h ****     }
 5487              		.loc 12 368 49 is_stmt 0 view .LVU1281
 5488 03b2 0127     		movs	r7, #1
 368:../../libs/PoliTeKDSP/libs/libDaisy/src/dev/oled_ssd130x.h ****     }
 5489              		.loc 12 368 55 view .LVU1282
 5490 03b4 04F0070C 		and	ip, r4, #7
 368:../../libs/PoliTeKDSP/libs/libDaisy/src/dev/oled_ssd130x.h ****     }
 5491              		.loc 12 368 42 view .LVU1283
 5492 03b8 0395     		str	r5, [sp, #12]
 368:../../libs/PoliTeKDSP/libs/libDaisy/src/dev/oled_ssd130x.h ****     }
 5493              		.loc 12 368 49 view .LVU1284
 5494 03ba 07FA0CFC 		lsl	ip, r7, ip
 368:../../libs/PoliTeKDSP/libs/libDaisy/src/dev/oled_ssd130x.h ****     }
 5495              		.loc 12 368 42 view .LVU1285
 5496 03be 377C     		ldrb	r7, [r6, #16]	@ zero_extendqisi2
 5497 03c0 27EA0C07 		bic	r7, r7, ip
 5498 03c4 3774     		strb	r7, [r6, #16]
 5499 03c6 E3E6     		b	.L340
 5500              	.LVL426:
 5501              	.L362:
ARM GAS  C:\Users\skipi\AppData\Local\Temp\ccs8qXFk.s 			page 154


 368:../../libs/PoliTeKDSP/libs/libDaisy/src/dev/oled_ssd130x.h ****     }
 5502              		.loc 12 368 42 view .LVU1286
 5503              	.LBE1471:
 5504              	.LBE1470:
 5505              	.LBE1477:
 5506              	.LBE1483:
 5507              	.LBE1497:
 5508              	.LBE1498:
 5509              	.LBE1548:
 5510              	.LBB1549:
 5511              	.LBB1543:
 5512              	.LBB1541:
 5513              	.LBB1532:
 5514              	.LBB1531:
 5515              	.LBB1529:
 5516              	.LBI1529:
 361:../../libs/PoliTeKDSP/libs/libDaisy/src/dev/oled_ssd130x.h ****     {
 5517              		.loc 12 361 10 is_stmt 1 view .LVU1287
 5518              	.LBB1530:
 368:../../libs/PoliTeKDSP/libs/libDaisy/src/dev/oled_ssd130x.h ****     }
 5519              		.loc 12 368 49 is_stmt 0 view .LVU1288
 5520 03c8 06FA07F7 		lsl	r7, r6, r7
 368:../../libs/PoliTeKDSP/libs/libDaisy/src/dev/oled_ssd130x.h ****     }
 5521              		.loc 12 368 42 view .LVU1289
 5522 03cc 1E7C     		ldrb	r6, [r3, #16]	@ zero_extendqisi2
 5523 03ce 26EA0706 		bic	r6, r6, r7
 5524 03d2 1E74     		strb	r6, [r3, #16]
 5525 03d4 7FE7     		b	.L361
 5526              	.LVL427:
 5527              	.L352:
 368:../../libs/PoliTeKDSP/libs/libDaisy/src/dev/oled_ssd130x.h ****     }
 5528              		.loc 12 368 42 view .LVU1290
 5529              	.LBE1530:
 5530              	.LBE1529:
 5531              	.LBE1531:
 5532              	.LBE1532:
 5533              	.LBE1541:
 5534              	.LBE1543:
 5535              	.LBE1549:
 5536              	.LBB1550:
 5537              	.LBB1523:
 5538              	.LBB1521:
 5539              	.LBB1511:
 5540              	.LBB1509:
 5541              	.LBB1506:
 5542              	.LBI1506:
 361:../../libs/PoliTeKDSP/libs/libDaisy/src/dev/oled_ssd130x.h ****     {
 5543              		.loc 12 361 10 is_stmt 1 view .LVU1291
 5544              	.LBB1507:
 368:../../libs/PoliTeKDSP/libs/libDaisy/src/dev/oled_ssd130x.h ****     }
 5545              		.loc 12 368 49 is_stmt 0 view .LVU1292
 5546 03d6 0127     		movs	r7, #1
 368:../../libs/PoliTeKDSP/libs/libDaisy/src/dev/oled_ssd130x.h ****     }
 5547              		.loc 12 368 55 view .LVU1293
 5548 03d8 04F0070C 		and	ip, r4, #7
 368:../../libs/PoliTeKDSP/libs/libDaisy/src/dev/oled_ssd130x.h ****     }
 5549              		.loc 12 368 49 view .LVU1294
ARM GAS  C:\Users\skipi\AppData\Local\Temp\ccs8qXFk.s 			page 155


 5550 03dc 07FA0CFC 		lsl	ip, r7, ip
 368:../../libs/PoliTeKDSP/libs/libDaisy/src/dev/oled_ssd130x.h ****     }
 5551              		.loc 12 368 42 view .LVU1295
 5552 03e0 377C     		ldrb	r7, [r6, #16]	@ zero_extendqisi2
 5553 03e2 27EA0C07 		bic	r7, r7, ip
 5554 03e6 3774     		strb	r7, [r6, #16]
 5555 03e8 2DE7     		b	.L351
 5556              	.LVL428:
 5557              	.L330:
 368:../../libs/PoliTeKDSP/libs/libDaisy/src/dev/oled_ssd130x.h ****     }
 5558              		.loc 12 368 42 view .LVU1296
 5559              	.LBE1507:
 5560              	.LBE1506:
 5561              	.LBE1509:
 5562              	.LBE1511:
 5563              	.LBE1521:
 5564              	.LBE1523:
 5565              	.LBE1550:
 5566              	.LBB1551:
 5567              	.LBB1463:
 5568              	.LBB1460:
 5569              	.LBB1448:
 5570              	.LBB1444:
 5571              	.LBB1439:
 5572              	.LBI1439:
 361:../../libs/PoliTeKDSP/libs/libDaisy/src/dev/oled_ssd130x.h ****     {
 5573              		.loc 12 361 10 is_stmt 1 view .LVU1297
 5574              	.LBB1440:
 368:../../libs/PoliTeKDSP/libs/libDaisy/src/dev/oled_ssd130x.h ****     }
 5575              		.loc 12 368 49 is_stmt 0 view .LVU1298
 5576 03ea 07FA0CFC 		lsl	ip, r7, ip
 368:../../libs/PoliTeKDSP/libs/libDaisy/src/dev/oled_ssd130x.h ****     }
 5577              		.loc 12 368 42 view .LVU1299
 5578 03ee 377C     		ldrb	r7, [r6, #16]	@ zero_extendqisi2
 5579 03f0 0295     		str	r5, [sp, #8]
 5580 03f2 27EA0C07 		bic	r7, r7, ip
 5581 03f6 0095     		str	r5, [sp]
 5582 03f8 3774     		strb	r7, [r6, #16]
 5583 03fa 6CE6     		b	.L329
 5584              	.LVL429:
 5585              	.L374:
 368:../../libs/PoliTeKDSP/libs/libDaisy/src/dev/oled_ssd130x.h ****     }
 5586              		.loc 12 368 42 view .LVU1300
 5587              	.LBE1440:
 5588              	.LBE1439:
 5589              	.LBE1444:
 5590              	.LBE1448:
 5591              	.LBE1460:
 5592              	.LBE1463:
 5593              	.LBE1551:
 5594              	.LBB1552:
 5595              	.LBB1499:
 235:../../libs/PoliTeKDSP/libs/libDaisy/src/hid/disp/display.h ****         int_fast16_t error  = deltaX - deltaY;
 5596              		.loc 11 235 42 view .LVU1301
 5597 03fc 4FF0FF36 		mov	r6, #-1
 5598 0400 0096     		str	r6, [sp]
 5599 0402 C5E6     		b	.L340
ARM GAS  C:\Users\skipi\AppData\Local\Temp\ccs8qXFk.s 			page 156


 5600              	.LVL430:
 5601              	.L378:
 235:../../libs/PoliTeKDSP/libs/libDaisy/src/hid/disp/display.h ****         int_fast16_t error  = deltaX - deltaY;
 5602              		.loc 11 235 42 view .LVU1302
 5603 0404 0126     		movs	r6, #1
 5604 0406 0096     		str	r6, [sp]
 5605 0408 C5E6     		b	.L343
 5606              	.LVL431:
 5607              	.L411:
 235:../../libs/PoliTeKDSP/libs/libDaisy/src/hid/disp/display.h ****         int_fast16_t error  = deltaX - deltaY;
 5608              		.loc 11 235 42 view .LVU1303
 5609              	.LBE1499:
 5610              	.LBE1552:
 5611              	.LBB1553:
 5612              	.LBB1464:
 244:../../libs/PoliTeKDSP/libs/libDaisy/src/hid/disp/display.h ****         {
 5613              		.loc 11 244 19 view .LVU1304
 5614 040a 0126     		movs	r6, #1
 5615 040c 0496     		str	r6, [sp, #16]
 5616 040e 90E6     		b	.L331
 5617              	.LVL432:
 5618              	.L412:
 244:../../libs/PoliTeKDSP/libs/libDaisy/src/hid/disp/display.h ****         {
 5619              		.loc 11 244 19 view .LVU1305
 5620              	.LBE1464:
 5621              	.LBE1553:
 5622              	.LBB1554:
 5623              	.LBB1500:
 244:../../libs/PoliTeKDSP/libs/libDaisy/src/hid/disp/display.h ****         {
 5624              		.loc 11 244 33 view .LVU1306
 5625 0410 0126     		movs	r6, #1
 5626 0412 0196     		str	r6, [sp, #4]
 5627 0414 EDE6     		b	.L342
 5628              	.LBE1500:
 5629              	.LBE1554:
 5630              	.LBE1578:
 5631              		.cfi_endproc
 5632              	.LFE2839:
 5634 0416 00BF     		.section	.text._ZN5daisy13SSD130xDriverILj128ELj64ENS_19SSD130xI2CTransportEE4InitENS2_6ConfigE,"a
 5635              		.align	1
 5636              		.p2align 2,,3
 5637              		.weak	_ZN5daisy13SSD130xDriverILj128ELj64ENS_19SSD130xI2CTransportEE4InitENS2_6ConfigE
 5638              		.syntax unified
 5639              		.thumb
 5640              		.thumb_func
 5641              		.fpu fpv5-d16
 5643              	_ZN5daisy13SSD130xDriverILj128ELj64ENS_19SSD130xI2CTransportEE4InitENS2_6ConfigE:
 5644              	.LVL433:
 5645              	.LFB2822:
 262:../../libs/PoliTeKDSP/libs/libDaisy/src/dev/oled_ssd130x.h ****     {
 5646              		.loc 12 262 10 is_stmt 1 view -0
 5647              		.cfi_startproc
 5648              		@ args = 28, pretend = 16, frame = 8
 5649              		@ frame_needed = 0, uses_anonymous_args = 0
 262:../../libs/PoliTeKDSP/libs/libDaisy/src/dev/oled_ssd130x.h ****     {
 5650              		.loc 12 262 10 is_stmt 0 view .LVU1308
 5651 0000 84B0     		sub	sp, sp, #16
ARM GAS  C:\Users\skipi\AppData\Local\Temp\ccs8qXFk.s 			page 157


 5652              		.cfi_def_cfa_offset 16
 5653 0002 70B5     		push	{r4, r5, r6, lr}
 5654              		.cfi_def_cfa_offset 32
 5655              		.cfi_offset 4, -32
 5656              		.cfi_offset 5, -28
 5657              		.cfi_offset 6, -24
 5658              		.cfi_offset 14, -20
 5659 0004 84B0     		sub	sp, sp, #16
 5660              		.cfi_def_cfa_offset 48
 262:../../libs/PoliTeKDSP/libs/libDaisy/src/dev/oled_ssd130x.h ****     {
 5661              		.loc 12 262 10 view .LVU1309
 5662 0006 0446     		mov	r4, r0
 5663              	.LVL434:
 5664              	.LBB1627:
 5665              	.LBI1627:
  38:../../libs/PoliTeKDSP/libs/libDaisy/src/dev/oled_ssd130x.h ****     {
 5666              		.loc 12 38 10 is_stmt 1 view .LVU1310
 5667              	.LBB1628:
  40:../../libs/PoliTeKDSP/libs/libDaisy/src/dev/oled_ssd130x.h ****         i2c_.Init(config.i2c_config);
 5668              		.loc 12 40 9 view .LVU1311
 5669              	.LBE1628:
 5670              	.LBE1627:
 5671              	.LBB1631:
 5672              	.LBB1632:
  46:../../libs/PoliTeKDSP/libs/libDaisy/src/dev/oled_ssd130x.h ****     };
 5673              		.loc 12 46 30 is_stmt 0 view .LVU1312
 5674 0008 4FF47A76 		mov	r6, #1000
 5675              	.LBE1632:
 5676              	.LBE1631:
 262:../../libs/PoliTeKDSP/libs/libDaisy/src/dev/oled_ssd130x.h ****     {
 5677              		.loc 12 262 10 view .LVU1313
 5678 000c 09AD     		add	r5, sp, #36
 5679 000e 85E80E00 		stm	r5, {r1, r2, r3}
 5680              	.LBB1635:
 5681              	.LBB1629:
  40:../../libs/PoliTeKDSP/libs/libDaisy/src/dev/oled_ssd130x.h ****         i2c_.Init(config.i2c_config);
 5682              		.loc 12 40 22 view .LVU1314
 5683 0012 9DF83830 		ldrb	r3, [sp, #56]	@ zero_extendqisi2
  41:../../libs/PoliTeKDSP/libs/libDaisy/src/dev/oled_ssd130x.h ****     };
 5684              		.loc 12 41 18 view .LVU1315
 5685 0016 2946     		mov	r1, r5
 5686              	.LBE1629:
 5687              	.LBE1635:
 5688              	.LBB1636:
 5689              	.LBB1633:
  45:../../libs/PoliTeKDSP/libs/libDaisy/src/dev/oled_ssd130x.h ****         i2c_.TransmitBlocking(i2c_address_, buf, 2, 1000);
 5690              		.loc 12 45 17 view .LVU1316
 5691 0018 0025     		movs	r5, #0
 5692              	.LBE1633:
 5693              	.LBE1636:
 5694              	.LBB1637:
 5695              	.LBB1630:
  40:../../libs/PoliTeKDSP/libs/libDaisy/src/dev/oled_ssd130x.h ****         i2c_.Init(config.i2c_config);
 5696              		.loc 12 40 22 view .LVU1317
 5697 001a 0371     		strb	r3, [r0, #4]
  41:../../libs/PoliTeKDSP/libs/libDaisy/src/dev/oled_ssd130x.h ****     };
 5698              		.loc 12 41 9 is_stmt 1 view .LVU1318
ARM GAS  C:\Users\skipi\AppData\Local\Temp\ccs8qXFk.s 			page 158


  41:../../libs/PoliTeKDSP/libs/libDaisy/src/dev/oled_ssd130x.h ****     };
 5699              		.loc 12 41 18 is_stmt 0 view .LVU1319
 5700 001c FFF7FEFF 		bl	_ZN5daisy9I2CHandle4InitERKNS0_6ConfigE
 5701              	.LVL435:
  41:../../libs/PoliTeKDSP/libs/libDaisy/src/dev/oled_ssd130x.h ****     };
 5702              		.loc 12 41 18 view .LVU1320
 5703              	.LBE1630:
 5704              	.LBE1637:
 5705              	.LBB1638:
 5706              	.LBI1631:
  43:../../libs/PoliTeKDSP/libs/libDaisy/src/dev/oled_ssd130x.h ****     {
 5707              		.loc 12 43 10 is_stmt 1 view .LVU1321
 5708              	.LBB1634:
  45:../../libs/PoliTeKDSP/libs/libDaisy/src/dev/oled_ssd130x.h ****         i2c_.TransmitBlocking(i2c_address_, buf, 2, 1000);
 5709              		.loc 12 45 9 view .LVU1322
  45:../../libs/PoliTeKDSP/libs/libDaisy/src/dev/oled_ssd130x.h ****         i2c_.TransmitBlocking(i2c_address_, buf, 2, 1000);
 5710              		.loc 12 45 36 is_stmt 0 view .LVU1323
 5711 0020 AE23     		movs	r3, #174
  46:../../libs/PoliTeKDSP/libs/libDaisy/src/dev/oled_ssd130x.h ****     };
 5712              		.loc 12 46 30 view .LVU1324
 5713 0022 03AA     		add	r2, sp, #12
 5714 0024 0096     		str	r6, [sp]
  45:../../libs/PoliTeKDSP/libs/libDaisy/src/dev/oled_ssd130x.h ****         i2c_.TransmitBlocking(i2c_address_, buf, 2, 1000);
 5715              		.loc 12 45 36 view .LVU1325
 5716 0026 8DF80D30 		strb	r3, [sp, #13]
  46:../../libs/PoliTeKDSP/libs/libDaisy/src/dev/oled_ssd130x.h ****     };
 5717              		.loc 12 46 9 is_stmt 1 view .LVU1326
  46:../../libs/PoliTeKDSP/libs/libDaisy/src/dev/oled_ssd130x.h ****     };
 5718              		.loc 12 46 30 is_stmt 0 view .LVU1327
 5719 002a 2046     		mov	r0, r4
 5720 002c 2179     		ldrb	r1, [r4, #4]	@ zero_extendqisi2
 5721 002e 0223     		movs	r3, #2
  45:../../libs/PoliTeKDSP/libs/libDaisy/src/dev/oled_ssd130x.h ****         i2c_.TransmitBlocking(i2c_address_, buf, 2, 1000);
 5722              		.loc 12 45 17 view .LVU1328
 5723 0030 8DF80C50 		strb	r5, [sp, #12]
  46:../../libs/PoliTeKDSP/libs/libDaisy/src/dev/oled_ssd130x.h ****     };
 5724              		.loc 12 46 30 view .LVU1329
 5725 0034 FFF7FEFF 		bl	_ZN5daisy9I2CHandle16TransmitBlockingEtPhtm
 5726              	.LVL436:
  46:../../libs/PoliTeKDSP/libs/libDaisy/src/dev/oled_ssd130x.h ****     };
 5727              		.loc 12 46 30 view .LVU1330
 5728              	.LBE1634:
 5729              	.LBE1638:
 5730              	.LBB1639:
 5731              	.LBI1639:
  43:../../libs/PoliTeKDSP/libs/libDaisy/src/dev/oled_ssd130x.h ****     {
 5732              		.loc 12 43 10 is_stmt 1 view .LVU1331
 5733              	.LBB1640:
  45:../../libs/PoliTeKDSP/libs/libDaisy/src/dev/oled_ssd130x.h ****         i2c_.TransmitBlocking(i2c_address_, buf, 2, 1000);
 5734              		.loc 12 45 9 view .LVU1332
  45:../../libs/PoliTeKDSP/libs/libDaisy/src/dev/oled_ssd130x.h ****         i2c_.TransmitBlocking(i2c_address_, buf, 2, 1000);
 5735              		.loc 12 45 36 is_stmt 0 view .LVU1333
 5736 0038 D523     		movs	r3, #213
  46:../../libs/PoliTeKDSP/libs/libDaisy/src/dev/oled_ssd130x.h ****     };
 5737              		.loc 12 46 30 view .LVU1334
 5738 003a 03AA     		add	r2, sp, #12
 5739 003c 0096     		str	r6, [sp]
ARM GAS  C:\Users\skipi\AppData\Local\Temp\ccs8qXFk.s 			page 159


 5740 003e 2046     		mov	r0, r4
 5741 0040 2179     		ldrb	r1, [r4, #4]	@ zero_extendqisi2
  45:../../libs/PoliTeKDSP/libs/libDaisy/src/dev/oled_ssd130x.h ****         i2c_.TransmitBlocking(i2c_address_, buf, 2, 1000);
 5742              		.loc 12 45 36 view .LVU1335
 5743 0042 8DF80D30 		strb	r3, [sp, #13]
  46:../../libs/PoliTeKDSP/libs/libDaisy/src/dev/oled_ssd130x.h ****     };
 5744              		.loc 12 46 9 is_stmt 1 view .LVU1336
  46:../../libs/PoliTeKDSP/libs/libDaisy/src/dev/oled_ssd130x.h ****     };
 5745              		.loc 12 46 30 is_stmt 0 view .LVU1337
 5746 0046 0223     		movs	r3, #2
  45:../../libs/PoliTeKDSP/libs/libDaisy/src/dev/oled_ssd130x.h ****         i2c_.TransmitBlocking(i2c_address_, buf, 2, 1000);
 5747              		.loc 12 45 17 view .LVU1338
 5748 0048 8DF80C50 		strb	r5, [sp, #12]
  46:../../libs/PoliTeKDSP/libs/libDaisy/src/dev/oled_ssd130x.h ****     };
 5749              		.loc 12 46 30 view .LVU1339
 5750 004c FFF7FEFF 		bl	_ZN5daisy9I2CHandle16TransmitBlockingEtPhtm
 5751              	.LVL437:
  46:../../libs/PoliTeKDSP/libs/libDaisy/src/dev/oled_ssd130x.h ****     };
 5752              		.loc 12 46 30 view .LVU1340
 5753              	.LBE1640:
 5754              	.LBE1639:
 5755              	.LBB1641:
 5756              	.LBI1641:
  43:../../libs/PoliTeKDSP/libs/libDaisy/src/dev/oled_ssd130x.h ****     {
 5757              		.loc 12 43 10 is_stmt 1 view .LVU1341
 5758              	.LBB1642:
  45:../../libs/PoliTeKDSP/libs/libDaisy/src/dev/oled_ssd130x.h ****         i2c_.TransmitBlocking(i2c_address_, buf, 2, 1000);
 5759              		.loc 12 45 9 view .LVU1342
  45:../../libs/PoliTeKDSP/libs/libDaisy/src/dev/oled_ssd130x.h ****         i2c_.TransmitBlocking(i2c_address_, buf, 2, 1000);
 5760              		.loc 12 45 36 is_stmt 0 view .LVU1343
 5761 0050 8023     		movs	r3, #128
  46:../../libs/PoliTeKDSP/libs/libDaisy/src/dev/oled_ssd130x.h ****     };
 5762              		.loc 12 46 30 view .LVU1344
 5763 0052 03AA     		add	r2, sp, #12
 5764 0054 0096     		str	r6, [sp]
 5765 0056 2046     		mov	r0, r4
 5766 0058 2179     		ldrb	r1, [r4, #4]	@ zero_extendqisi2
  45:../../libs/PoliTeKDSP/libs/libDaisy/src/dev/oled_ssd130x.h ****         i2c_.TransmitBlocking(i2c_address_, buf, 2, 1000);
 5767              		.loc 12 45 36 view .LVU1345
 5768 005a 8DF80D30 		strb	r3, [sp, #13]
  46:../../libs/PoliTeKDSP/libs/libDaisy/src/dev/oled_ssd130x.h ****     };
 5769              		.loc 12 46 9 is_stmt 1 view .LVU1346
  46:../../libs/PoliTeKDSP/libs/libDaisy/src/dev/oled_ssd130x.h ****     };
 5770              		.loc 12 46 30 is_stmt 0 view .LVU1347
 5771 005e 0223     		movs	r3, #2
  45:../../libs/PoliTeKDSP/libs/libDaisy/src/dev/oled_ssd130x.h ****         i2c_.TransmitBlocking(i2c_address_, buf, 2, 1000);
 5772              		.loc 12 45 17 view .LVU1348
 5773 0060 8DF80C50 		strb	r5, [sp, #12]
  46:../../libs/PoliTeKDSP/libs/libDaisy/src/dev/oled_ssd130x.h ****     };
 5774              		.loc 12 46 30 view .LVU1349
 5775 0064 FFF7FEFF 		bl	_ZN5daisy9I2CHandle16TransmitBlockingEtPhtm
 5776              	.LVL438:
  46:../../libs/PoliTeKDSP/libs/libDaisy/src/dev/oled_ssd130x.h ****     };
 5777              		.loc 12 46 30 view .LVU1350
 5778              	.LBE1642:
 5779              	.LBE1641:
 5780              	.LBB1643:
ARM GAS  C:\Users\skipi\AppData\Local\Temp\ccs8qXFk.s 			page 160


 5781              	.LBI1643:
  43:../../libs/PoliTeKDSP/libs/libDaisy/src/dev/oled_ssd130x.h ****     {
 5782              		.loc 12 43 10 is_stmt 1 view .LVU1351
 5783              	.LBB1644:
  45:../../libs/PoliTeKDSP/libs/libDaisy/src/dev/oled_ssd130x.h ****         i2c_.TransmitBlocking(i2c_address_, buf, 2, 1000);
 5784              		.loc 12 45 9 view .LVU1352
  45:../../libs/PoliTeKDSP/libs/libDaisy/src/dev/oled_ssd130x.h ****         i2c_.TransmitBlocking(i2c_address_, buf, 2, 1000);
 5785              		.loc 12 45 36 is_stmt 0 view .LVU1353
 5786 0068 A823     		movs	r3, #168
  46:../../libs/PoliTeKDSP/libs/libDaisy/src/dev/oled_ssd130x.h ****     };
 5787              		.loc 12 46 30 view .LVU1354
 5788 006a 03AA     		add	r2, sp, #12
 5789 006c 0096     		str	r6, [sp]
 5790 006e 2046     		mov	r0, r4
 5791 0070 2179     		ldrb	r1, [r4, #4]	@ zero_extendqisi2
  45:../../libs/PoliTeKDSP/libs/libDaisy/src/dev/oled_ssd130x.h ****         i2c_.TransmitBlocking(i2c_address_, buf, 2, 1000);
 5792              		.loc 12 45 36 view .LVU1355
 5793 0072 8DF80D30 		strb	r3, [sp, #13]
  46:../../libs/PoliTeKDSP/libs/libDaisy/src/dev/oled_ssd130x.h ****     };
 5794              		.loc 12 46 9 is_stmt 1 view .LVU1356
  46:../../libs/PoliTeKDSP/libs/libDaisy/src/dev/oled_ssd130x.h ****     };
 5795              		.loc 12 46 30 is_stmt 0 view .LVU1357
 5796 0076 0223     		movs	r3, #2
  45:../../libs/PoliTeKDSP/libs/libDaisy/src/dev/oled_ssd130x.h ****         i2c_.TransmitBlocking(i2c_address_, buf, 2, 1000);
 5797              		.loc 12 45 17 view .LVU1358
 5798 0078 8DF80C50 		strb	r5, [sp, #12]
  46:../../libs/PoliTeKDSP/libs/libDaisy/src/dev/oled_ssd130x.h ****     };
 5799              		.loc 12 46 30 view .LVU1359
 5800 007c FFF7FEFF 		bl	_ZN5daisy9I2CHandle16TransmitBlockingEtPhtm
 5801              	.LVL439:
  46:../../libs/PoliTeKDSP/libs/libDaisy/src/dev/oled_ssd130x.h ****     };
 5802              		.loc 12 46 30 view .LVU1360
 5803              	.LBE1644:
 5804              	.LBE1643:
 5805              	.LBB1645:
 5806              	.LBI1645:
  43:../../libs/PoliTeKDSP/libs/libDaisy/src/dev/oled_ssd130x.h ****     {
 5807              		.loc 12 43 10 is_stmt 1 view .LVU1361
 5808              	.LBB1646:
  45:../../libs/PoliTeKDSP/libs/libDaisy/src/dev/oled_ssd130x.h ****         i2c_.TransmitBlocking(i2c_address_, buf, 2, 1000);
 5809              		.loc 12 45 9 view .LVU1362
  45:../../libs/PoliTeKDSP/libs/libDaisy/src/dev/oled_ssd130x.h ****         i2c_.TransmitBlocking(i2c_address_, buf, 2, 1000);
 5810              		.loc 12 45 36 is_stmt 0 view .LVU1363
 5811 0080 3F23     		movs	r3, #63
  46:../../libs/PoliTeKDSP/libs/libDaisy/src/dev/oled_ssd130x.h ****     };
 5812              		.loc 12 46 30 view .LVU1364
 5813 0082 03AA     		add	r2, sp, #12
 5814 0084 0096     		str	r6, [sp]
 5815 0086 2046     		mov	r0, r4
 5816 0088 2179     		ldrb	r1, [r4, #4]	@ zero_extendqisi2
  45:../../libs/PoliTeKDSP/libs/libDaisy/src/dev/oled_ssd130x.h ****         i2c_.TransmitBlocking(i2c_address_, buf, 2, 1000);
 5817              		.loc 12 45 36 view .LVU1365
 5818 008a 8DF80D30 		strb	r3, [sp, #13]
  46:../../libs/PoliTeKDSP/libs/libDaisy/src/dev/oled_ssd130x.h ****     };
 5819              		.loc 12 46 9 is_stmt 1 view .LVU1366
  46:../../libs/PoliTeKDSP/libs/libDaisy/src/dev/oled_ssd130x.h ****     };
 5820              		.loc 12 46 30 is_stmt 0 view .LVU1367
ARM GAS  C:\Users\skipi\AppData\Local\Temp\ccs8qXFk.s 			page 161


 5821 008e 0223     		movs	r3, #2
  45:../../libs/PoliTeKDSP/libs/libDaisy/src/dev/oled_ssd130x.h ****         i2c_.TransmitBlocking(i2c_address_, buf, 2, 1000);
 5822              		.loc 12 45 17 view .LVU1368
 5823 0090 8DF80C50 		strb	r5, [sp, #12]
  46:../../libs/PoliTeKDSP/libs/libDaisy/src/dev/oled_ssd130x.h ****     };
 5824              		.loc 12 46 30 view .LVU1369
 5825 0094 FFF7FEFF 		bl	_ZN5daisy9I2CHandle16TransmitBlockingEtPhtm
 5826              	.LVL440:
  46:../../libs/PoliTeKDSP/libs/libDaisy/src/dev/oled_ssd130x.h ****     };
 5827              		.loc 12 46 30 view .LVU1370
 5828              	.LBE1646:
 5829              	.LBE1645:
 5830              	.LBB1647:
 5831              	.LBI1647:
  43:../../libs/PoliTeKDSP/libs/libDaisy/src/dev/oled_ssd130x.h ****     {
 5832              		.loc 12 43 10 is_stmt 1 view .LVU1371
 5833              	.LBB1648:
  45:../../libs/PoliTeKDSP/libs/libDaisy/src/dev/oled_ssd130x.h ****         i2c_.TransmitBlocking(i2c_address_, buf, 2, 1000);
 5834              		.loc 12 45 9 view .LVU1372
  45:../../libs/PoliTeKDSP/libs/libDaisy/src/dev/oled_ssd130x.h ****         i2c_.TransmitBlocking(i2c_address_, buf, 2, 1000);
 5835              		.loc 12 45 36 is_stmt 0 view .LVU1373
 5836 0098 DA23     		movs	r3, #218
  46:../../libs/PoliTeKDSP/libs/libDaisy/src/dev/oled_ssd130x.h ****     };
 5837              		.loc 12 46 30 view .LVU1374
 5838 009a 03AA     		add	r2, sp, #12
 5839 009c 0096     		str	r6, [sp]
 5840 009e 2046     		mov	r0, r4
 5841 00a0 2179     		ldrb	r1, [r4, #4]	@ zero_extendqisi2
  45:../../libs/PoliTeKDSP/libs/libDaisy/src/dev/oled_ssd130x.h ****         i2c_.TransmitBlocking(i2c_address_, buf, 2, 1000);
 5842              		.loc 12 45 36 view .LVU1375
 5843 00a2 8DF80D30 		strb	r3, [sp, #13]
  46:../../libs/PoliTeKDSP/libs/libDaisy/src/dev/oled_ssd130x.h ****     };
 5844              		.loc 12 46 9 is_stmt 1 view .LVU1376
  46:../../libs/PoliTeKDSP/libs/libDaisy/src/dev/oled_ssd130x.h ****     };
 5845              		.loc 12 46 30 is_stmt 0 view .LVU1377
 5846 00a6 0223     		movs	r3, #2
  45:../../libs/PoliTeKDSP/libs/libDaisy/src/dev/oled_ssd130x.h ****         i2c_.TransmitBlocking(i2c_address_, buf, 2, 1000);
 5847              		.loc 12 45 17 view .LVU1378
 5848 00a8 8DF80C50 		strb	r5, [sp, #12]
  46:../../libs/PoliTeKDSP/libs/libDaisy/src/dev/oled_ssd130x.h ****     };
 5849              		.loc 12 46 30 view .LVU1379
 5850 00ac FFF7FEFF 		bl	_ZN5daisy9I2CHandle16TransmitBlockingEtPhtm
 5851              	.LVL441:
  46:../../libs/PoliTeKDSP/libs/libDaisy/src/dev/oled_ssd130x.h ****     };
 5852              		.loc 12 46 30 view .LVU1380
 5853              	.LBE1648:
 5854              	.LBE1647:
 5855              	.LBB1649:
 5856              	.LBI1649:
  43:../../libs/PoliTeKDSP/libs/libDaisy/src/dev/oled_ssd130x.h ****     {
 5857              		.loc 12 43 10 is_stmt 1 view .LVU1381
 5858              	.LBB1650:
  45:../../libs/PoliTeKDSP/libs/libDaisy/src/dev/oled_ssd130x.h ****         i2c_.TransmitBlocking(i2c_address_, buf, 2, 1000);
 5859              		.loc 12 45 9 view .LVU1382
  45:../../libs/PoliTeKDSP/libs/libDaisy/src/dev/oled_ssd130x.h ****         i2c_.TransmitBlocking(i2c_address_, buf, 2, 1000);
 5860              		.loc 12 45 36 is_stmt 0 view .LVU1383
 5861 00b0 1223     		movs	r3, #18
ARM GAS  C:\Users\skipi\AppData\Local\Temp\ccs8qXFk.s 			page 162


  46:../../libs/PoliTeKDSP/libs/libDaisy/src/dev/oled_ssd130x.h ****     };
 5862              		.loc 12 46 30 view .LVU1384
 5863 00b2 03AA     		add	r2, sp, #12
 5864 00b4 0096     		str	r6, [sp]
 5865 00b6 2046     		mov	r0, r4
 5866 00b8 2179     		ldrb	r1, [r4, #4]	@ zero_extendqisi2
  45:../../libs/PoliTeKDSP/libs/libDaisy/src/dev/oled_ssd130x.h ****         i2c_.TransmitBlocking(i2c_address_, buf, 2, 1000);
 5867              		.loc 12 45 36 view .LVU1385
 5868 00ba 8DF80D30 		strb	r3, [sp, #13]
  46:../../libs/PoliTeKDSP/libs/libDaisy/src/dev/oled_ssd130x.h ****     };
 5869              		.loc 12 46 9 is_stmt 1 view .LVU1386
  46:../../libs/PoliTeKDSP/libs/libDaisy/src/dev/oled_ssd130x.h ****     };
 5870              		.loc 12 46 30 is_stmt 0 view .LVU1387
 5871 00be 0223     		movs	r3, #2
  45:../../libs/PoliTeKDSP/libs/libDaisy/src/dev/oled_ssd130x.h ****         i2c_.TransmitBlocking(i2c_address_, buf, 2, 1000);
 5872              		.loc 12 45 17 view .LVU1388
 5873 00c0 8DF80C50 		strb	r5, [sp, #12]
  46:../../libs/PoliTeKDSP/libs/libDaisy/src/dev/oled_ssd130x.h ****     };
 5874              		.loc 12 46 30 view .LVU1389
 5875 00c4 FFF7FEFF 		bl	_ZN5daisy9I2CHandle16TransmitBlockingEtPhtm
 5876              	.LVL442:
  46:../../libs/PoliTeKDSP/libs/libDaisy/src/dev/oled_ssd130x.h ****     };
 5877              		.loc 12 46 30 view .LVU1390
 5878              	.LBE1650:
 5879              	.LBE1649:
 5880              	.LBB1651:
 5881              	.LBI1651:
  43:../../libs/PoliTeKDSP/libs/libDaisy/src/dev/oled_ssd130x.h ****     {
 5882              		.loc 12 43 10 is_stmt 1 view .LVU1391
 5883              	.LBB1652:
  45:../../libs/PoliTeKDSP/libs/libDaisy/src/dev/oled_ssd130x.h ****         i2c_.TransmitBlocking(i2c_address_, buf, 2, 1000);
 5884              		.loc 12 45 9 view .LVU1392
  45:../../libs/PoliTeKDSP/libs/libDaisy/src/dev/oled_ssd130x.h ****         i2c_.TransmitBlocking(i2c_address_, buf, 2, 1000);
 5885              		.loc 12 45 36 is_stmt 0 view .LVU1393
 5886 00c8 D323     		movs	r3, #211
  46:../../libs/PoliTeKDSP/libs/libDaisy/src/dev/oled_ssd130x.h ****     };
 5887              		.loc 12 46 30 view .LVU1394
 5888 00ca 03AA     		add	r2, sp, #12
 5889 00cc 0096     		str	r6, [sp]
 5890 00ce 2046     		mov	r0, r4
 5891 00d0 2179     		ldrb	r1, [r4, #4]	@ zero_extendqisi2
  45:../../libs/PoliTeKDSP/libs/libDaisy/src/dev/oled_ssd130x.h ****         i2c_.TransmitBlocking(i2c_address_, buf, 2, 1000);
 5892              		.loc 12 45 36 view .LVU1395
 5893 00d2 8DF80D30 		strb	r3, [sp, #13]
  46:../../libs/PoliTeKDSP/libs/libDaisy/src/dev/oled_ssd130x.h ****     };
 5894              		.loc 12 46 9 is_stmt 1 view .LVU1396
  46:../../libs/PoliTeKDSP/libs/libDaisy/src/dev/oled_ssd130x.h ****     };
 5895              		.loc 12 46 30 is_stmt 0 view .LVU1397
 5896 00d6 0223     		movs	r3, #2
  45:../../libs/PoliTeKDSP/libs/libDaisy/src/dev/oled_ssd130x.h ****         i2c_.TransmitBlocking(i2c_address_, buf, 2, 1000);
 5897              		.loc 12 45 17 view .LVU1398
 5898 00d8 8DF80C50 		strb	r5, [sp, #12]
  46:../../libs/PoliTeKDSP/libs/libDaisy/src/dev/oled_ssd130x.h ****     };
 5899              		.loc 12 46 30 view .LVU1399
 5900 00dc FFF7FEFF 		bl	_ZN5daisy9I2CHandle16TransmitBlockingEtPhtm
 5901              	.LVL443:
  46:../../libs/PoliTeKDSP/libs/libDaisy/src/dev/oled_ssd130x.h ****     };
ARM GAS  C:\Users\skipi\AppData\Local\Temp\ccs8qXFk.s 			page 163


 5902              		.loc 12 46 30 view .LVU1400
 5903              	.LBE1652:
 5904              	.LBE1651:
 5905              	.LBB1653:
 5906              	.LBI1653:
  43:../../libs/PoliTeKDSP/libs/libDaisy/src/dev/oled_ssd130x.h ****     {
 5907              		.loc 12 43 10 is_stmt 1 view .LVU1401
 5908              	.LBB1654:
  45:../../libs/PoliTeKDSP/libs/libDaisy/src/dev/oled_ssd130x.h ****         i2c_.TransmitBlocking(i2c_address_, buf, 2, 1000);
 5909              		.loc 12 45 9 view .LVU1402
  46:../../libs/PoliTeKDSP/libs/libDaisy/src/dev/oled_ssd130x.h ****     };
 5910              		.loc 12 46 30 is_stmt 0 view .LVU1403
 5911 00e0 03AA     		add	r2, sp, #12
 5912 00e2 0096     		str	r6, [sp]
 5913 00e4 0223     		movs	r3, #2
 5914 00e6 2179     		ldrb	r1, [r4, #4]	@ zero_extendqisi2
 5915 00e8 2046     		mov	r0, r4
  45:../../libs/PoliTeKDSP/libs/libDaisy/src/dev/oled_ssd130x.h ****         i2c_.TransmitBlocking(i2c_address_, buf, 2, 1000);
 5916              		.loc 12 45 17 view .LVU1404
 5917 00ea 8DF80C50 		strb	r5, [sp, #12]
  45:../../libs/PoliTeKDSP/libs/libDaisy/src/dev/oled_ssd130x.h ****         i2c_.TransmitBlocking(i2c_address_, buf, 2, 1000);
 5918              		.loc 12 45 36 view .LVU1405
 5919 00ee 8DF80D50 		strb	r5, [sp, #13]
  46:../../libs/PoliTeKDSP/libs/libDaisy/src/dev/oled_ssd130x.h ****     };
 5920              		.loc 12 46 9 is_stmt 1 view .LVU1406
  46:../../libs/PoliTeKDSP/libs/libDaisy/src/dev/oled_ssd130x.h ****     };
 5921              		.loc 12 46 30 is_stmt 0 view .LVU1407
 5922 00f2 FFF7FEFF 		bl	_ZN5daisy9I2CHandle16TransmitBlockingEtPhtm
 5923              	.LVL444:
  46:../../libs/PoliTeKDSP/libs/libDaisy/src/dev/oled_ssd130x.h ****     };
 5924              		.loc 12 46 30 view .LVU1408
 5925              	.LBE1654:
 5926              	.LBE1653:
 5927              	.LBB1655:
 5928              	.LBI1655:
  43:../../libs/PoliTeKDSP/libs/libDaisy/src/dev/oled_ssd130x.h ****     {
 5929              		.loc 12 43 10 is_stmt 1 view .LVU1409
 5930              	.LBB1656:
  45:../../libs/PoliTeKDSP/libs/libDaisy/src/dev/oled_ssd130x.h ****         i2c_.TransmitBlocking(i2c_address_, buf, 2, 1000);
 5931              		.loc 12 45 9 view .LVU1410
  45:../../libs/PoliTeKDSP/libs/libDaisy/src/dev/oled_ssd130x.h ****         i2c_.TransmitBlocking(i2c_address_, buf, 2, 1000);
 5932              		.loc 12 45 36 is_stmt 0 view .LVU1411
 5933 00f6 4023     		movs	r3, #64
  46:../../libs/PoliTeKDSP/libs/libDaisy/src/dev/oled_ssd130x.h ****     };
 5934              		.loc 12 46 30 view .LVU1412
 5935 00f8 03AA     		add	r2, sp, #12
 5936 00fa 0096     		str	r6, [sp]
 5937 00fc 2046     		mov	r0, r4
 5938 00fe 2179     		ldrb	r1, [r4, #4]	@ zero_extendqisi2
  45:../../libs/PoliTeKDSP/libs/libDaisy/src/dev/oled_ssd130x.h ****         i2c_.TransmitBlocking(i2c_address_, buf, 2, 1000);
 5939              		.loc 12 45 36 view .LVU1413
 5940 0100 8DF80D30 		strb	r3, [sp, #13]
  46:../../libs/PoliTeKDSP/libs/libDaisy/src/dev/oled_ssd130x.h ****     };
 5941              		.loc 12 46 9 is_stmt 1 view .LVU1414
  46:../../libs/PoliTeKDSP/libs/libDaisy/src/dev/oled_ssd130x.h ****     };
 5942              		.loc 12 46 30 is_stmt 0 view .LVU1415
 5943 0104 0223     		movs	r3, #2
ARM GAS  C:\Users\skipi\AppData\Local\Temp\ccs8qXFk.s 			page 164


  45:../../libs/PoliTeKDSP/libs/libDaisy/src/dev/oled_ssd130x.h ****         i2c_.TransmitBlocking(i2c_address_, buf, 2, 1000);
 5944              		.loc 12 45 17 view .LVU1416
 5945 0106 8DF80C50 		strb	r5, [sp, #12]
  46:../../libs/PoliTeKDSP/libs/libDaisy/src/dev/oled_ssd130x.h ****     };
 5946              		.loc 12 46 30 view .LVU1417
 5947 010a FFF7FEFF 		bl	_ZN5daisy9I2CHandle16TransmitBlockingEtPhtm
 5948              	.LVL445:
  46:../../libs/PoliTeKDSP/libs/libDaisy/src/dev/oled_ssd130x.h ****     };
 5949              		.loc 12 46 30 view .LVU1418
 5950              	.LBE1656:
 5951              	.LBE1655:
 5952              	.LBB1657:
 5953              	.LBI1657:
  43:../../libs/PoliTeKDSP/libs/libDaisy/src/dev/oled_ssd130x.h ****     {
 5954              		.loc 12 43 10 is_stmt 1 view .LVU1419
 5955              	.LBB1658:
  45:../../libs/PoliTeKDSP/libs/libDaisy/src/dev/oled_ssd130x.h ****         i2c_.TransmitBlocking(i2c_address_, buf, 2, 1000);
 5956              		.loc 12 45 9 view .LVU1420
  45:../../libs/PoliTeKDSP/libs/libDaisy/src/dev/oled_ssd130x.h ****         i2c_.TransmitBlocking(i2c_address_, buf, 2, 1000);
 5957              		.loc 12 45 36 is_stmt 0 view .LVU1421
 5958 010e A623     		movs	r3, #166
  46:../../libs/PoliTeKDSP/libs/libDaisy/src/dev/oled_ssd130x.h ****     };
 5959              		.loc 12 46 30 view .LVU1422
 5960 0110 03AA     		add	r2, sp, #12
 5961 0112 0096     		str	r6, [sp]
 5962 0114 2046     		mov	r0, r4
 5963 0116 2179     		ldrb	r1, [r4, #4]	@ zero_extendqisi2
  45:../../libs/PoliTeKDSP/libs/libDaisy/src/dev/oled_ssd130x.h ****         i2c_.TransmitBlocking(i2c_address_, buf, 2, 1000);
 5964              		.loc 12 45 36 view .LVU1423
 5965 0118 8DF80D30 		strb	r3, [sp, #13]
  46:../../libs/PoliTeKDSP/libs/libDaisy/src/dev/oled_ssd130x.h ****     };
 5966              		.loc 12 46 9 is_stmt 1 view .LVU1424
  46:../../libs/PoliTeKDSP/libs/libDaisy/src/dev/oled_ssd130x.h ****     };
 5967              		.loc 12 46 30 is_stmt 0 view .LVU1425
 5968 011c 0223     		movs	r3, #2
  45:../../libs/PoliTeKDSP/libs/libDaisy/src/dev/oled_ssd130x.h ****         i2c_.TransmitBlocking(i2c_address_, buf, 2, 1000);
 5969              		.loc 12 45 17 view .LVU1426
 5970 011e 8DF80C50 		strb	r5, [sp, #12]
  46:../../libs/PoliTeKDSP/libs/libDaisy/src/dev/oled_ssd130x.h ****     };
 5971              		.loc 12 46 30 view .LVU1427
 5972 0122 FFF7FEFF 		bl	_ZN5daisy9I2CHandle16TransmitBlockingEtPhtm
 5973              	.LVL446:
  46:../../libs/PoliTeKDSP/libs/libDaisy/src/dev/oled_ssd130x.h ****     };
 5974              		.loc 12 46 30 view .LVU1428
 5975              	.LBE1658:
 5976              	.LBE1657:
 5977              	.LBB1659:
 5978              	.LBI1659:
  43:../../libs/PoliTeKDSP/libs/libDaisy/src/dev/oled_ssd130x.h ****     {
 5979              		.loc 12 43 10 is_stmt 1 view .LVU1429
 5980              	.LBB1660:
  45:../../libs/PoliTeKDSP/libs/libDaisy/src/dev/oled_ssd130x.h ****         i2c_.TransmitBlocking(i2c_address_, buf, 2, 1000);
 5981              		.loc 12 45 9 view .LVU1430
  45:../../libs/PoliTeKDSP/libs/libDaisy/src/dev/oled_ssd130x.h ****         i2c_.TransmitBlocking(i2c_address_, buf, 2, 1000);
 5982              		.loc 12 45 36 is_stmt 0 view .LVU1431
 5983 0126 A423     		movs	r3, #164
  46:../../libs/PoliTeKDSP/libs/libDaisy/src/dev/oled_ssd130x.h ****     };
ARM GAS  C:\Users\skipi\AppData\Local\Temp\ccs8qXFk.s 			page 165


 5984              		.loc 12 46 30 view .LVU1432
 5985 0128 03AA     		add	r2, sp, #12
 5986 012a 0096     		str	r6, [sp]
 5987 012c 2046     		mov	r0, r4
 5988 012e 2179     		ldrb	r1, [r4, #4]	@ zero_extendqisi2
  45:../../libs/PoliTeKDSP/libs/libDaisy/src/dev/oled_ssd130x.h ****         i2c_.TransmitBlocking(i2c_address_, buf, 2, 1000);
 5989              		.loc 12 45 36 view .LVU1433
 5990 0130 8DF80D30 		strb	r3, [sp, #13]
  46:../../libs/PoliTeKDSP/libs/libDaisy/src/dev/oled_ssd130x.h ****     };
 5991              		.loc 12 46 9 is_stmt 1 view .LVU1434
  46:../../libs/PoliTeKDSP/libs/libDaisy/src/dev/oled_ssd130x.h ****     };
 5992              		.loc 12 46 30 is_stmt 0 view .LVU1435
 5993 0134 0223     		movs	r3, #2
  45:../../libs/PoliTeKDSP/libs/libDaisy/src/dev/oled_ssd130x.h ****         i2c_.TransmitBlocking(i2c_address_, buf, 2, 1000);
 5994              		.loc 12 45 17 view .LVU1436
 5995 0136 8DF80C50 		strb	r5, [sp, #12]
  46:../../libs/PoliTeKDSP/libs/libDaisy/src/dev/oled_ssd130x.h ****     };
 5996              		.loc 12 46 30 view .LVU1437
 5997 013a FFF7FEFF 		bl	_ZN5daisy9I2CHandle16TransmitBlockingEtPhtm
 5998              	.LVL447:
  46:../../libs/PoliTeKDSP/libs/libDaisy/src/dev/oled_ssd130x.h ****     };
 5999              		.loc 12 46 30 view .LVU1438
 6000              	.LBE1660:
 6001              	.LBE1659:
 6002              	.LBB1661:
 6003              	.LBI1661:
  43:../../libs/PoliTeKDSP/libs/libDaisy/src/dev/oled_ssd130x.h ****     {
 6004              		.loc 12 43 10 is_stmt 1 view .LVU1439
 6005              	.LBB1662:
  45:../../libs/PoliTeKDSP/libs/libDaisy/src/dev/oled_ssd130x.h ****         i2c_.TransmitBlocking(i2c_address_, buf, 2, 1000);
 6006              		.loc 12 45 9 view .LVU1440
  45:../../libs/PoliTeKDSP/libs/libDaisy/src/dev/oled_ssd130x.h ****         i2c_.TransmitBlocking(i2c_address_, buf, 2, 1000);
 6007              		.loc 12 45 36 is_stmt 0 view .LVU1441
 6008 013e 8D23     		movs	r3, #141
  46:../../libs/PoliTeKDSP/libs/libDaisy/src/dev/oled_ssd130x.h ****     };
 6009              		.loc 12 46 30 view .LVU1442
 6010 0140 03AA     		add	r2, sp, #12
 6011 0142 0096     		str	r6, [sp]
 6012 0144 2046     		mov	r0, r4
 6013 0146 2179     		ldrb	r1, [r4, #4]	@ zero_extendqisi2
  45:../../libs/PoliTeKDSP/libs/libDaisy/src/dev/oled_ssd130x.h ****         i2c_.TransmitBlocking(i2c_address_, buf, 2, 1000);
 6014              		.loc 12 45 36 view .LVU1443
 6015 0148 8DF80D30 		strb	r3, [sp, #13]
  46:../../libs/PoliTeKDSP/libs/libDaisy/src/dev/oled_ssd130x.h ****     };
 6016              		.loc 12 46 9 is_stmt 1 view .LVU1444
  46:../../libs/PoliTeKDSP/libs/libDaisy/src/dev/oled_ssd130x.h ****     };
 6017              		.loc 12 46 30 is_stmt 0 view .LVU1445
 6018 014c 0223     		movs	r3, #2
  45:../../libs/PoliTeKDSP/libs/libDaisy/src/dev/oled_ssd130x.h ****         i2c_.TransmitBlocking(i2c_address_, buf, 2, 1000);
 6019              		.loc 12 45 17 view .LVU1446
 6020 014e 8DF80C50 		strb	r5, [sp, #12]
  46:../../libs/PoliTeKDSP/libs/libDaisy/src/dev/oled_ssd130x.h ****     };
 6021              		.loc 12 46 30 view .LVU1447
 6022 0152 FFF7FEFF 		bl	_ZN5daisy9I2CHandle16TransmitBlockingEtPhtm
 6023              	.LVL448:
  46:../../libs/PoliTeKDSP/libs/libDaisy/src/dev/oled_ssd130x.h ****     };
 6024              		.loc 12 46 30 view .LVU1448
ARM GAS  C:\Users\skipi\AppData\Local\Temp\ccs8qXFk.s 			page 166


 6025              	.LBE1662:
 6026              	.LBE1661:
 6027              	.LBB1663:
 6028              	.LBI1663:
  43:../../libs/PoliTeKDSP/libs/libDaisy/src/dev/oled_ssd130x.h ****     {
 6029              		.loc 12 43 10 is_stmt 1 view .LVU1449
 6030              	.LBB1664:
  45:../../libs/PoliTeKDSP/libs/libDaisy/src/dev/oled_ssd130x.h ****         i2c_.TransmitBlocking(i2c_address_, buf, 2, 1000);
 6031              		.loc 12 45 9 view .LVU1450
  45:../../libs/PoliTeKDSP/libs/libDaisy/src/dev/oled_ssd130x.h ****         i2c_.TransmitBlocking(i2c_address_, buf, 2, 1000);
 6032              		.loc 12 45 36 is_stmt 0 view .LVU1451
 6033 0156 1423     		movs	r3, #20
  46:../../libs/PoliTeKDSP/libs/libDaisy/src/dev/oled_ssd130x.h ****     };
 6034              		.loc 12 46 30 view .LVU1452
 6035 0158 03AA     		add	r2, sp, #12
 6036 015a 0096     		str	r6, [sp]
 6037 015c 2046     		mov	r0, r4
 6038 015e 2179     		ldrb	r1, [r4, #4]	@ zero_extendqisi2
  45:../../libs/PoliTeKDSP/libs/libDaisy/src/dev/oled_ssd130x.h ****         i2c_.TransmitBlocking(i2c_address_, buf, 2, 1000);
 6039              		.loc 12 45 36 view .LVU1453
 6040 0160 8DF80D30 		strb	r3, [sp, #13]
  46:../../libs/PoliTeKDSP/libs/libDaisy/src/dev/oled_ssd130x.h ****     };
 6041              		.loc 12 46 9 is_stmt 1 view .LVU1454
  46:../../libs/PoliTeKDSP/libs/libDaisy/src/dev/oled_ssd130x.h ****     };
 6042              		.loc 12 46 30 is_stmt 0 view .LVU1455
 6043 0164 0223     		movs	r3, #2
  45:../../libs/PoliTeKDSP/libs/libDaisy/src/dev/oled_ssd130x.h ****         i2c_.TransmitBlocking(i2c_address_, buf, 2, 1000);
 6044              		.loc 12 45 17 view .LVU1456
 6045 0166 8DF80C50 		strb	r5, [sp, #12]
  46:../../libs/PoliTeKDSP/libs/libDaisy/src/dev/oled_ssd130x.h ****     };
 6046              		.loc 12 46 30 view .LVU1457
 6047 016a FFF7FEFF 		bl	_ZN5daisy9I2CHandle16TransmitBlockingEtPhtm
 6048              	.LVL449:
  46:../../libs/PoliTeKDSP/libs/libDaisy/src/dev/oled_ssd130x.h ****     };
 6049              		.loc 12 46 30 view .LVU1458
 6050              	.LBE1664:
 6051              	.LBE1663:
 6052              	.LBB1665:
 6053              	.LBI1665:
  43:../../libs/PoliTeKDSP/libs/libDaisy/src/dev/oled_ssd130x.h ****     {
 6054              		.loc 12 43 10 is_stmt 1 view .LVU1459
 6055              	.LBB1666:
  45:../../libs/PoliTeKDSP/libs/libDaisy/src/dev/oled_ssd130x.h ****         i2c_.TransmitBlocking(i2c_address_, buf, 2, 1000);
 6056              		.loc 12 45 9 view .LVU1460
  45:../../libs/PoliTeKDSP/libs/libDaisy/src/dev/oled_ssd130x.h ****         i2c_.TransmitBlocking(i2c_address_, buf, 2, 1000);
 6057              		.loc 12 45 36 is_stmt 0 view .LVU1461
 6058 016e A123     		movs	r3, #161
  46:../../libs/PoliTeKDSP/libs/libDaisy/src/dev/oled_ssd130x.h ****     };
 6059              		.loc 12 46 30 view .LVU1462
 6060 0170 03AA     		add	r2, sp, #12
 6061 0172 0096     		str	r6, [sp]
 6062 0174 2046     		mov	r0, r4
 6063 0176 2179     		ldrb	r1, [r4, #4]	@ zero_extendqisi2
  45:../../libs/PoliTeKDSP/libs/libDaisy/src/dev/oled_ssd130x.h ****         i2c_.TransmitBlocking(i2c_address_, buf, 2, 1000);
 6064              		.loc 12 45 36 view .LVU1463
 6065 0178 8DF80D30 		strb	r3, [sp, #13]
  46:../../libs/PoliTeKDSP/libs/libDaisy/src/dev/oled_ssd130x.h ****     };
ARM GAS  C:\Users\skipi\AppData\Local\Temp\ccs8qXFk.s 			page 167


 6066              		.loc 12 46 9 is_stmt 1 view .LVU1464
  46:../../libs/PoliTeKDSP/libs/libDaisy/src/dev/oled_ssd130x.h ****     };
 6067              		.loc 12 46 30 is_stmt 0 view .LVU1465
 6068 017c 0223     		movs	r3, #2
  45:../../libs/PoliTeKDSP/libs/libDaisy/src/dev/oled_ssd130x.h ****         i2c_.TransmitBlocking(i2c_address_, buf, 2, 1000);
 6069              		.loc 12 45 17 view .LVU1466
 6070 017e 8DF80C50 		strb	r5, [sp, #12]
  46:../../libs/PoliTeKDSP/libs/libDaisy/src/dev/oled_ssd130x.h ****     };
 6071              		.loc 12 46 30 view .LVU1467
 6072 0182 FFF7FEFF 		bl	_ZN5daisy9I2CHandle16TransmitBlockingEtPhtm
 6073              	.LVL450:
  46:../../libs/PoliTeKDSP/libs/libDaisy/src/dev/oled_ssd130x.h ****     };
 6074              		.loc 12 46 30 view .LVU1468
 6075              	.LBE1666:
 6076              	.LBE1665:
 6077              	.LBB1667:
 6078              	.LBI1667:
  43:../../libs/PoliTeKDSP/libs/libDaisy/src/dev/oled_ssd130x.h ****     {
 6079              		.loc 12 43 10 is_stmt 1 view .LVU1469
 6080              	.LBB1668:
  45:../../libs/PoliTeKDSP/libs/libDaisy/src/dev/oled_ssd130x.h ****         i2c_.TransmitBlocking(i2c_address_, buf, 2, 1000);
 6081              		.loc 12 45 9 view .LVU1470
  45:../../libs/PoliTeKDSP/libs/libDaisy/src/dev/oled_ssd130x.h ****         i2c_.TransmitBlocking(i2c_address_, buf, 2, 1000);
 6082              		.loc 12 45 36 is_stmt 0 view .LVU1471
 6083 0186 C823     		movs	r3, #200
  46:../../libs/PoliTeKDSP/libs/libDaisy/src/dev/oled_ssd130x.h ****     };
 6084              		.loc 12 46 30 view .LVU1472
 6085 0188 03AA     		add	r2, sp, #12
 6086 018a 0096     		str	r6, [sp]
 6087 018c 2046     		mov	r0, r4
 6088 018e 2179     		ldrb	r1, [r4, #4]	@ zero_extendqisi2
  45:../../libs/PoliTeKDSP/libs/libDaisy/src/dev/oled_ssd130x.h ****         i2c_.TransmitBlocking(i2c_address_, buf, 2, 1000);
 6089              		.loc 12 45 36 view .LVU1473
 6090 0190 8DF80D30 		strb	r3, [sp, #13]
  46:../../libs/PoliTeKDSP/libs/libDaisy/src/dev/oled_ssd130x.h ****     };
 6091              		.loc 12 46 9 is_stmt 1 view .LVU1474
  46:../../libs/PoliTeKDSP/libs/libDaisy/src/dev/oled_ssd130x.h ****     };
 6092              		.loc 12 46 30 is_stmt 0 view .LVU1475
 6093 0194 0223     		movs	r3, #2
  45:../../libs/PoliTeKDSP/libs/libDaisy/src/dev/oled_ssd130x.h ****         i2c_.TransmitBlocking(i2c_address_, buf, 2, 1000);
 6094              		.loc 12 45 17 view .LVU1476
 6095 0196 8DF80C50 		strb	r5, [sp, #12]
  46:../../libs/PoliTeKDSP/libs/libDaisy/src/dev/oled_ssd130x.h ****     };
 6096              		.loc 12 46 30 view .LVU1477
 6097 019a FFF7FEFF 		bl	_ZN5daisy9I2CHandle16TransmitBlockingEtPhtm
 6098              	.LVL451:
  46:../../libs/PoliTeKDSP/libs/libDaisy/src/dev/oled_ssd130x.h ****     };
 6099              		.loc 12 46 30 view .LVU1478
 6100              	.LBE1668:
 6101              	.LBE1667:
 6102              	.LBB1669:
 6103              	.LBI1669:
  43:../../libs/PoliTeKDSP/libs/libDaisy/src/dev/oled_ssd130x.h ****     {
 6104              		.loc 12 43 10 is_stmt 1 view .LVU1479
 6105              	.LBB1670:
  45:../../libs/PoliTeKDSP/libs/libDaisy/src/dev/oled_ssd130x.h ****         i2c_.TransmitBlocking(i2c_address_, buf, 2, 1000);
 6106              		.loc 12 45 9 view .LVU1480
ARM GAS  C:\Users\skipi\AppData\Local\Temp\ccs8qXFk.s 			page 168


  45:../../libs/PoliTeKDSP/libs/libDaisy/src/dev/oled_ssd130x.h ****         i2c_.TransmitBlocking(i2c_address_, buf, 2, 1000);
 6107              		.loc 12 45 36 is_stmt 0 view .LVU1481
 6108 019e 8123     		movs	r3, #129
  46:../../libs/PoliTeKDSP/libs/libDaisy/src/dev/oled_ssd130x.h ****     };
 6109              		.loc 12 46 30 view .LVU1482
 6110 01a0 03AA     		add	r2, sp, #12
 6111 01a2 0096     		str	r6, [sp]
 6112 01a4 2046     		mov	r0, r4
 6113 01a6 2179     		ldrb	r1, [r4, #4]	@ zero_extendqisi2
  45:../../libs/PoliTeKDSP/libs/libDaisy/src/dev/oled_ssd130x.h ****         i2c_.TransmitBlocking(i2c_address_, buf, 2, 1000);
 6114              		.loc 12 45 36 view .LVU1483
 6115 01a8 8DF80D30 		strb	r3, [sp, #13]
  46:../../libs/PoliTeKDSP/libs/libDaisy/src/dev/oled_ssd130x.h ****     };
 6116              		.loc 12 46 9 is_stmt 1 view .LVU1484
  46:../../libs/PoliTeKDSP/libs/libDaisy/src/dev/oled_ssd130x.h ****     };
 6117              		.loc 12 46 30 is_stmt 0 view .LVU1485
 6118 01ac 0223     		movs	r3, #2
  45:../../libs/PoliTeKDSP/libs/libDaisy/src/dev/oled_ssd130x.h ****         i2c_.TransmitBlocking(i2c_address_, buf, 2, 1000);
 6119              		.loc 12 45 17 view .LVU1486
 6120 01ae 8DF80C50 		strb	r5, [sp, #12]
  46:../../libs/PoliTeKDSP/libs/libDaisy/src/dev/oled_ssd130x.h ****     };
 6121              		.loc 12 46 30 view .LVU1487
 6122 01b2 FFF7FEFF 		bl	_ZN5daisy9I2CHandle16TransmitBlockingEtPhtm
 6123              	.LVL452:
  46:../../libs/PoliTeKDSP/libs/libDaisy/src/dev/oled_ssd130x.h ****     };
 6124              		.loc 12 46 30 view .LVU1488
 6125              	.LBE1670:
 6126              	.LBE1669:
 6127              	.LBB1671:
 6128              	.LBI1671:
  43:../../libs/PoliTeKDSP/libs/libDaisy/src/dev/oled_ssd130x.h ****     {
 6129              		.loc 12 43 10 is_stmt 1 view .LVU1489
 6130              	.LBB1672:
  45:../../libs/PoliTeKDSP/libs/libDaisy/src/dev/oled_ssd130x.h ****         i2c_.TransmitBlocking(i2c_address_, buf, 2, 1000);
 6131              		.loc 12 45 9 view .LVU1490
  45:../../libs/PoliTeKDSP/libs/libDaisy/src/dev/oled_ssd130x.h ****         i2c_.TransmitBlocking(i2c_address_, buf, 2, 1000);
 6132              		.loc 12 45 36 is_stmt 0 view .LVU1491
 6133 01b6 8F23     		movs	r3, #143
  46:../../libs/PoliTeKDSP/libs/libDaisy/src/dev/oled_ssd130x.h ****     };
 6134              		.loc 12 46 30 view .LVU1492
 6135 01b8 03AA     		add	r2, sp, #12
 6136 01ba 0096     		str	r6, [sp]
 6137 01bc 2046     		mov	r0, r4
 6138 01be 2179     		ldrb	r1, [r4, #4]	@ zero_extendqisi2
  45:../../libs/PoliTeKDSP/libs/libDaisy/src/dev/oled_ssd130x.h ****         i2c_.TransmitBlocking(i2c_address_, buf, 2, 1000);
 6139              		.loc 12 45 36 view .LVU1493
 6140 01c0 8DF80D30 		strb	r3, [sp, #13]
  46:../../libs/PoliTeKDSP/libs/libDaisy/src/dev/oled_ssd130x.h ****     };
 6141              		.loc 12 46 9 is_stmt 1 view .LVU1494
  46:../../libs/PoliTeKDSP/libs/libDaisy/src/dev/oled_ssd130x.h ****     };
 6142              		.loc 12 46 30 is_stmt 0 view .LVU1495
 6143 01c4 0223     		movs	r3, #2
  45:../../libs/PoliTeKDSP/libs/libDaisy/src/dev/oled_ssd130x.h ****         i2c_.TransmitBlocking(i2c_address_, buf, 2, 1000);
 6144              		.loc 12 45 17 view .LVU1496
 6145 01c6 8DF80C50 		strb	r5, [sp, #12]
  46:../../libs/PoliTeKDSP/libs/libDaisy/src/dev/oled_ssd130x.h ****     };
 6146              		.loc 12 46 30 view .LVU1497
ARM GAS  C:\Users\skipi\AppData\Local\Temp\ccs8qXFk.s 			page 169


 6147 01ca FFF7FEFF 		bl	_ZN5daisy9I2CHandle16TransmitBlockingEtPhtm
 6148              	.LVL453:
  46:../../libs/PoliTeKDSP/libs/libDaisy/src/dev/oled_ssd130x.h ****     };
 6149              		.loc 12 46 30 view .LVU1498
 6150              	.LBE1672:
 6151              	.LBE1671:
 6152              	.LBB1673:
 6153              	.LBI1673:
  43:../../libs/PoliTeKDSP/libs/libDaisy/src/dev/oled_ssd130x.h ****     {
 6154              		.loc 12 43 10 is_stmt 1 view .LVU1499
 6155              	.LBB1674:
  45:../../libs/PoliTeKDSP/libs/libDaisy/src/dev/oled_ssd130x.h ****         i2c_.TransmitBlocking(i2c_address_, buf, 2, 1000);
 6156              		.loc 12 45 9 view .LVU1500
  45:../../libs/PoliTeKDSP/libs/libDaisy/src/dev/oled_ssd130x.h ****         i2c_.TransmitBlocking(i2c_address_, buf, 2, 1000);
 6157              		.loc 12 45 36 is_stmt 0 view .LVU1501
 6158 01ce D923     		movs	r3, #217
  46:../../libs/PoliTeKDSP/libs/libDaisy/src/dev/oled_ssd130x.h ****     };
 6159              		.loc 12 46 30 view .LVU1502
 6160 01d0 03AA     		add	r2, sp, #12
 6161 01d2 0096     		str	r6, [sp]
 6162 01d4 2046     		mov	r0, r4
 6163 01d6 2179     		ldrb	r1, [r4, #4]	@ zero_extendqisi2
  45:../../libs/PoliTeKDSP/libs/libDaisy/src/dev/oled_ssd130x.h ****         i2c_.TransmitBlocking(i2c_address_, buf, 2, 1000);
 6164              		.loc 12 45 36 view .LVU1503
 6165 01d8 8DF80D30 		strb	r3, [sp, #13]
  46:../../libs/PoliTeKDSP/libs/libDaisy/src/dev/oled_ssd130x.h ****     };
 6166              		.loc 12 46 9 is_stmt 1 view .LVU1504
  46:../../libs/PoliTeKDSP/libs/libDaisy/src/dev/oled_ssd130x.h ****     };
 6167              		.loc 12 46 30 is_stmt 0 view .LVU1505
 6168 01dc 0223     		movs	r3, #2
  45:../../libs/PoliTeKDSP/libs/libDaisy/src/dev/oled_ssd130x.h ****         i2c_.TransmitBlocking(i2c_address_, buf, 2, 1000);
 6169              		.loc 12 45 17 view .LVU1506
 6170 01de 8DF80C50 		strb	r5, [sp, #12]
  46:../../libs/PoliTeKDSP/libs/libDaisy/src/dev/oled_ssd130x.h ****     };
 6171              		.loc 12 46 30 view .LVU1507
 6172 01e2 FFF7FEFF 		bl	_ZN5daisy9I2CHandle16TransmitBlockingEtPhtm
 6173              	.LVL454:
  46:../../libs/PoliTeKDSP/libs/libDaisy/src/dev/oled_ssd130x.h ****     };
 6174              		.loc 12 46 30 view .LVU1508
 6175              	.LBE1674:
 6176              	.LBE1673:
 6177              	.LBB1675:
 6178              	.LBI1675:
  43:../../libs/PoliTeKDSP/libs/libDaisy/src/dev/oled_ssd130x.h ****     {
 6179              		.loc 12 43 10 is_stmt 1 view .LVU1509
 6180              	.LBB1676:
  45:../../libs/PoliTeKDSP/libs/libDaisy/src/dev/oled_ssd130x.h ****         i2c_.TransmitBlocking(i2c_address_, buf, 2, 1000);
 6181              		.loc 12 45 9 view .LVU1510
  45:../../libs/PoliTeKDSP/libs/libDaisy/src/dev/oled_ssd130x.h ****         i2c_.TransmitBlocking(i2c_address_, buf, 2, 1000);
 6182              		.loc 12 45 36 is_stmt 0 view .LVU1511
 6183 01e6 2523     		movs	r3, #37
  46:../../libs/PoliTeKDSP/libs/libDaisy/src/dev/oled_ssd130x.h ****     };
 6184              		.loc 12 46 30 view .LVU1512
 6185 01e8 03AA     		add	r2, sp, #12
 6186 01ea 0096     		str	r6, [sp]
 6187 01ec 2046     		mov	r0, r4
 6188 01ee 2179     		ldrb	r1, [r4, #4]	@ zero_extendqisi2
ARM GAS  C:\Users\skipi\AppData\Local\Temp\ccs8qXFk.s 			page 170


  45:../../libs/PoliTeKDSP/libs/libDaisy/src/dev/oled_ssd130x.h ****         i2c_.TransmitBlocking(i2c_address_, buf, 2, 1000);
 6189              		.loc 12 45 36 view .LVU1513
 6190 01f0 8DF80D30 		strb	r3, [sp, #13]
  46:../../libs/PoliTeKDSP/libs/libDaisy/src/dev/oled_ssd130x.h ****     };
 6191              		.loc 12 46 9 is_stmt 1 view .LVU1514
  46:../../libs/PoliTeKDSP/libs/libDaisy/src/dev/oled_ssd130x.h ****     };
 6192              		.loc 12 46 30 is_stmt 0 view .LVU1515
 6193 01f4 0223     		movs	r3, #2
  45:../../libs/PoliTeKDSP/libs/libDaisy/src/dev/oled_ssd130x.h ****         i2c_.TransmitBlocking(i2c_address_, buf, 2, 1000);
 6194              		.loc 12 45 17 view .LVU1516
 6195 01f6 8DF80C50 		strb	r5, [sp, #12]
  46:../../libs/PoliTeKDSP/libs/libDaisy/src/dev/oled_ssd130x.h ****     };
 6196              		.loc 12 46 30 view .LVU1517
 6197 01fa FFF7FEFF 		bl	_ZN5daisy9I2CHandle16TransmitBlockingEtPhtm
 6198              	.LVL455:
  46:../../libs/PoliTeKDSP/libs/libDaisy/src/dev/oled_ssd130x.h ****     };
 6199              		.loc 12 46 30 view .LVU1518
 6200              	.LBE1676:
 6201              	.LBE1675:
 6202              	.LBB1677:
 6203              	.LBI1677:
  43:../../libs/PoliTeKDSP/libs/libDaisy/src/dev/oled_ssd130x.h ****     {
 6204              		.loc 12 43 10 is_stmt 1 view .LVU1519
 6205              	.LBB1678:
  45:../../libs/PoliTeKDSP/libs/libDaisy/src/dev/oled_ssd130x.h ****         i2c_.TransmitBlocking(i2c_address_, buf, 2, 1000);
 6206              		.loc 12 45 9 view .LVU1520
  45:../../libs/PoliTeKDSP/libs/libDaisy/src/dev/oled_ssd130x.h ****         i2c_.TransmitBlocking(i2c_address_, buf, 2, 1000);
 6207              		.loc 12 45 36 is_stmt 0 view .LVU1521
 6208 01fe DB23     		movs	r3, #219
  46:../../libs/PoliTeKDSP/libs/libDaisy/src/dev/oled_ssd130x.h ****     };
 6209              		.loc 12 46 30 view .LVU1522
 6210 0200 03AA     		add	r2, sp, #12
 6211 0202 0096     		str	r6, [sp]
 6212 0204 2046     		mov	r0, r4
 6213 0206 2179     		ldrb	r1, [r4, #4]	@ zero_extendqisi2
  45:../../libs/PoliTeKDSP/libs/libDaisy/src/dev/oled_ssd130x.h ****         i2c_.TransmitBlocking(i2c_address_, buf, 2, 1000);
 6214              		.loc 12 45 36 view .LVU1523
 6215 0208 8DF80D30 		strb	r3, [sp, #13]
  46:../../libs/PoliTeKDSP/libs/libDaisy/src/dev/oled_ssd130x.h ****     };
 6216              		.loc 12 46 9 is_stmt 1 view .LVU1524
  46:../../libs/PoliTeKDSP/libs/libDaisy/src/dev/oled_ssd130x.h ****     };
 6217              		.loc 12 46 30 is_stmt 0 view .LVU1525
 6218 020c 0223     		movs	r3, #2
  45:../../libs/PoliTeKDSP/libs/libDaisy/src/dev/oled_ssd130x.h ****         i2c_.TransmitBlocking(i2c_address_, buf, 2, 1000);
 6219              		.loc 12 45 17 view .LVU1526
 6220 020e 8DF80C50 		strb	r5, [sp, #12]
  46:../../libs/PoliTeKDSP/libs/libDaisy/src/dev/oled_ssd130x.h ****     };
 6221              		.loc 12 46 30 view .LVU1527
 6222 0212 FFF7FEFF 		bl	_ZN5daisy9I2CHandle16TransmitBlockingEtPhtm
 6223              	.LVL456:
  46:../../libs/PoliTeKDSP/libs/libDaisy/src/dev/oled_ssd130x.h ****     };
 6224              		.loc 12 46 30 view .LVU1528
 6225              	.LBE1678:
 6226              	.LBE1677:
 6227              	.LBB1679:
 6228              	.LBI1679:
  43:../../libs/PoliTeKDSP/libs/libDaisy/src/dev/oled_ssd130x.h ****     {
ARM GAS  C:\Users\skipi\AppData\Local\Temp\ccs8qXFk.s 			page 171


 6229              		.loc 12 43 10 is_stmt 1 view .LVU1529
 6230              	.LBB1680:
  45:../../libs/PoliTeKDSP/libs/libDaisy/src/dev/oled_ssd130x.h ****         i2c_.TransmitBlocking(i2c_address_, buf, 2, 1000);
 6231              		.loc 12 45 9 view .LVU1530
  45:../../libs/PoliTeKDSP/libs/libDaisy/src/dev/oled_ssd130x.h ****         i2c_.TransmitBlocking(i2c_address_, buf, 2, 1000);
 6232              		.loc 12 45 36 is_stmt 0 view .LVU1531
 6233 0216 3423     		movs	r3, #52
  46:../../libs/PoliTeKDSP/libs/libDaisy/src/dev/oled_ssd130x.h ****     };
 6234              		.loc 12 46 30 view .LVU1532
 6235 0218 03AA     		add	r2, sp, #12
 6236 021a 0096     		str	r6, [sp]
 6237 021c 2046     		mov	r0, r4
 6238 021e 2179     		ldrb	r1, [r4, #4]	@ zero_extendqisi2
  45:../../libs/PoliTeKDSP/libs/libDaisy/src/dev/oled_ssd130x.h ****         i2c_.TransmitBlocking(i2c_address_, buf, 2, 1000);
 6239              		.loc 12 45 36 view .LVU1533
 6240 0220 8DF80D30 		strb	r3, [sp, #13]
  46:../../libs/PoliTeKDSP/libs/libDaisy/src/dev/oled_ssd130x.h ****     };
 6241              		.loc 12 46 9 is_stmt 1 view .LVU1534
  46:../../libs/PoliTeKDSP/libs/libDaisy/src/dev/oled_ssd130x.h ****     };
 6242              		.loc 12 46 30 is_stmt 0 view .LVU1535
 6243 0224 0223     		movs	r3, #2
  45:../../libs/PoliTeKDSP/libs/libDaisy/src/dev/oled_ssd130x.h ****         i2c_.TransmitBlocking(i2c_address_, buf, 2, 1000);
 6244              		.loc 12 45 17 view .LVU1536
 6245 0226 8DF80C50 		strb	r5, [sp, #12]
  46:../../libs/PoliTeKDSP/libs/libDaisy/src/dev/oled_ssd130x.h ****     };
 6246              		.loc 12 46 30 view .LVU1537
 6247 022a FFF7FEFF 		bl	_ZN5daisy9I2CHandle16TransmitBlockingEtPhtm
 6248              	.LVL457:
  46:../../libs/PoliTeKDSP/libs/libDaisy/src/dev/oled_ssd130x.h ****     };
 6249              		.loc 12 46 30 view .LVU1538
 6250              	.LBE1680:
 6251              	.LBE1679:
 6252              	.LBB1681:
 6253              	.LBI1681:
  43:../../libs/PoliTeKDSP/libs/libDaisy/src/dev/oled_ssd130x.h ****     {
 6254              		.loc 12 43 10 is_stmt 1 view .LVU1539
 6255              	.LBB1682:
  45:../../libs/PoliTeKDSP/libs/libDaisy/src/dev/oled_ssd130x.h ****         i2c_.TransmitBlocking(i2c_address_, buf, 2, 1000);
 6256              		.loc 12 45 9 view .LVU1540
  45:../../libs/PoliTeKDSP/libs/libDaisy/src/dev/oled_ssd130x.h ****         i2c_.TransmitBlocking(i2c_address_, buf, 2, 1000);
 6257              		.loc 12 45 36 is_stmt 0 view .LVU1541
 6258 022e AF21     		movs	r1, #175
  46:../../libs/PoliTeKDSP/libs/libDaisy/src/dev/oled_ssd130x.h ****     };
 6259              		.loc 12 46 30 view .LVU1542
 6260 0230 0096     		str	r6, [sp]
 6261 0232 03AA     		add	r2, sp, #12
 6262 0234 0223     		movs	r3, #2
  45:../../libs/PoliTeKDSP/libs/libDaisy/src/dev/oled_ssd130x.h ****         i2c_.TransmitBlocking(i2c_address_, buf, 2, 1000);
 6263              		.loc 12 45 36 view .LVU1543
 6264 0236 8DF80D10 		strb	r1, [sp, #13]
  46:../../libs/PoliTeKDSP/libs/libDaisy/src/dev/oled_ssd130x.h ****     };
 6265              		.loc 12 46 9 is_stmt 1 view .LVU1544
  46:../../libs/PoliTeKDSP/libs/libDaisy/src/dev/oled_ssd130x.h ****     };
 6266              		.loc 12 46 30 is_stmt 0 view .LVU1545
 6267 023a 2046     		mov	r0, r4
 6268 023c 2179     		ldrb	r1, [r4, #4]	@ zero_extendqisi2
  45:../../libs/PoliTeKDSP/libs/libDaisy/src/dev/oled_ssd130x.h ****         i2c_.TransmitBlocking(i2c_address_, buf, 2, 1000);
ARM GAS  C:\Users\skipi\AppData\Local\Temp\ccs8qXFk.s 			page 172


 6269              		.loc 12 45 17 view .LVU1546
 6270 023e 8DF80C50 		strb	r5, [sp, #12]
  46:../../libs/PoliTeKDSP/libs/libDaisy/src/dev/oled_ssd130x.h ****     };
 6271              		.loc 12 46 30 view .LVU1547
 6272 0242 FFF7FEFF 		bl	_ZN5daisy9I2CHandle16TransmitBlockingEtPhtm
 6273              	.LVL458:
  46:../../libs/PoliTeKDSP/libs/libDaisy/src/dev/oled_ssd130x.h ****     };
 6274              		.loc 12 46 30 view .LVU1548
 6275              	.LBE1682:
 6276              	.LBE1681:
 356:../../libs/PoliTeKDSP/libs/libDaisy/src/dev/oled_ssd130x.h **** 
 6277              		.loc 12 356 5 view .LVU1549
 6278 0246 04B0     		add	sp, sp, #16
 6279              		.cfi_def_cfa_offset 32
 6280              		@ sp needed
 6281 0248 BDE87040 		pop	{r4, r5, r6, lr}
 6282              		.cfi_restore 14
 6283              		.cfi_restore 6
 6284              		.cfi_restore 5
 6285              		.cfi_restore 4
 6286              		.cfi_def_cfa_offset 16
 6287              	.LVL459:
 356:../../libs/PoliTeKDSP/libs/libDaisy/src/dev/oled_ssd130x.h **** 
 6288              		.loc 12 356 5 view .LVU1550
 6289 024c 04B0     		add	sp, sp, #16
 6290              		.cfi_def_cfa_offset 0
 6291 024e 7047     		bx	lr
 6292              		.cfi_endproc
 6293              	.LFE2822:
 6295              		.section	.rodata.main.str1.4,"aMS",%progbits,1
 6296              		.align	2
 6297              	.LC0:
 6298 0000 44454C54 		.ascii	"DELTA\000"
 6298      4100
 6299              		.section	.text.startup.main,"ax",%progbits
 6300              		.align	1
 6301              		.p2align 2,,3
 6302              		.global	main
 6303              		.syntax unified
 6304              		.thumb
 6305              		.thumb_func
 6306              		.fpu fpv5-d16
 6308              	main:
 6309              	.LFB2783:
  20:main.cpp      **** 
  21:main.cpp      **** int main() {
 6310              		.loc 9 21 12 is_stmt 1 view -0
 6311              		.cfi_startproc
 6312              		@ args = 0, pretend = 0, frame = 40
 6313              		@ frame_needed = 0, uses_anonymous_args = 0
  22:main.cpp      ****     hw.Init();
 6314              		.loc 9 22 5 view .LVU1552
  21:main.cpp      ****     hw.Init();
 6315              		.loc 9 21 12 is_stmt 0 view .LVU1553
 6316 0000 2DE9F041 		push	{r4, r5, r6, r7, r8, lr}
 6317              		.cfi_def_cfa_offset 24
 6318              		.cfi_offset 4, -24
ARM GAS  C:\Users\skipi\AppData\Local\Temp\ccs8qXFk.s 			page 173


 6319              		.cfi_offset 5, -20
 6320              		.cfi_offset 6, -16
 6321              		.cfi_offset 7, -12
 6322              		.cfi_offset 8, -8
 6323              		.cfi_offset 14, -4
 6324              		.loc 9 22 12 view .LVU1554
 6325 0004 0021     		movs	r1, #0
 6326 0006 5B48     		ldr	r0, .L446
 6327 0008 0024     		movs	r4, #0
 6328 000a 5B4E     		ldr	r6, .L446+4
 6329 000c 0225     		movs	r5, #2
 6330 000e 5B4F     		ldr	r7, .L446+8
 6331 0010 DFF87081 		ldr	r8, .L446+16
  21:main.cpp      ****     hw.Init();
 6332              		.loc 9 21 12 view .LVU1555
 6333 0014 2DED028B 		vpush.64	{d8}
 6334              		.cfi_def_cfa_offset 32
 6335              		.cfi_offset 80, -32
 6336              		.cfi_offset 81, -28
 6337 0018 8EB0     		sub	sp, sp, #56
 6338              		.cfi_def_cfa_offset 88
 6339              		.loc 9 22 12 view .LVU1556
 6340 001a FFF7FEFF 		bl	_ZN5daisy9DaisySeed4InitEb
 6341              	.LVL460:
  23:main.cpp      ****     
  24:main.cpp      ****     // Inizializzazione fisica (Pin 13, 14, 10)
  25:main.cpp      ****     enc.Init(hw.GetPin(13), hw.GetPin(14), hw.GetPin(10));
 6342              		.loc 9 25 5 is_stmt 1 view .LVU1557
 6343              		.loc 9 25 13 is_stmt 0 view .LVU1558
 6344 001e 0D20     		movs	r0, #13
 6345 0020 FFF7FEFF 		bl	_ZN5daisy9DaisySeed6GetPinEh
 6346              	.LVL461:
 6347 0024 0346     		mov	r3, r0	@ movhi
 6348 0026 0E20     		movs	r0, #14
 6349 0028 ADF81430 		strh	r3, [sp, #20]	@ movhi
 6350 002c FFF7FEFF 		bl	_ZN5daisy9DaisySeed6GetPinEh
 6351              	.LVL462:
 6352 0030 0346     		mov	r3, r0	@ movhi
 6353 0032 0A20     		movs	r0, #10
 6354 0034 ADF81830 		strh	r3, [sp, #24]	@ movhi
 6355 0038 FFF7FEFF 		bl	_ZN5daisy9DaisySeed6GetPinEh
 6356              	.LVL463:
 6357 003c ADF81C00 		strh	r0, [sp, #28]	@ movhi
 6358 0040 9FED4F0A 		vldr.32	s0, .L446+12
 6359 0044 079B     		ldr	r3, [sp, #28]
 6360 0046 4D48     		ldr	r0, .L446+8
 6361 0048 DDE90512 		ldrd	r1, r2, [sp, #20]
 6362 004c FFF7FEFF 		bl	_ZN5daisy7Encoder4InitENS_3PinES1_S1_f
 6363              	.LVL464:
  26:main.cpp      ****     menu.Init();
 6364              		.loc 9 26 5 is_stmt 1 view .LVU1559
 6365              		.loc 9 26 14 is_stmt 0 view .LVU1560
 6366 0050 4C48     		ldr	r0, .L446+16
 6367 0052 FFF7FEFF 		bl	_ZN11MenuManager4InitEv
 6368              	.LVL465:
  27:main.cpp      **** 
  28:main.cpp      ****     // Inizializzazione Display
ARM GAS  C:\Users\skipi\AppData\Local\Temp\ccs8qXFk.s 			page 174


  29:main.cpp      ****     MyOledDisplay::Config disp_cfg;
 6369              		.loc 9 29 5 is_stmt 1 view .LVU1561
 6370              	.LBB1683:
 6371              	.LBI1683:
  20:../../libs/PoliTeKDSP/libs/libDaisy/src/hid/disp/oled_display.h ****     {
 6372              		.loc 10 20 12 view .LVU1562
 6373              	.LBB1684:
 6374              	.LBI1684:
 257:../../libs/PoliTeKDSP/libs/libDaisy/src/dev/oled_ssd130x.h ****     {
 6375              		.loc 12 257 12 view .LVU1563
 6376              	.LBB1685:
 6377              	.LBI1685:
  21:../../libs/PoliTeKDSP/libs/libDaisy/src/dev/oled_ssd130x.h ****         {
 6378              		.loc 12 21 9 view .LVU1564
 6379              	.LBB1686:
 6380              	.LBI1686:
 6381              		.file 15 "../../libs/PoliTeKDSP/libs/libDaisy/src/per/i2c.h"
   1:../../libs/PoliTeKDSP/libs/libDaisy/src/per/i2c.h **** #pragma once
   2:../../libs/PoliTeKDSP/libs/libDaisy/src/per/i2c.h **** #include "util/hal_map.h"
   3:../../libs/PoliTeKDSP/libs/libDaisy/src/per/i2c.h **** #include "daisy_core.h"
   4:../../libs/PoliTeKDSP/libs/libDaisy/src/per/i2c.h **** 
   5:../../libs/PoliTeKDSP/libs/libDaisy/src/per/i2c.h **** namespace daisy
   6:../../libs/PoliTeKDSP/libs/libDaisy/src/per/i2c.h **** {
   7:../../libs/PoliTeKDSP/libs/libDaisy/src/per/i2c.h **** /** A handle for interacting with an I2C peripheral. This is a dumb
   8:../../libs/PoliTeKDSP/libs/libDaisy/src/per/i2c.h ****  *  gateway that internally points to one of the four I2C peripherals
   9:../../libs/PoliTeKDSP/libs/libDaisy/src/per/i2c.h ****  *  after it was initialised. It can then be copied and passed around.
  10:../../libs/PoliTeKDSP/libs/libDaisy/src/per/i2c.h ****  *  Use an I2CHandle like this:
  11:../../libs/PoliTeKDSP/libs/libDaisy/src/per/i2c.h ****  *  
  12:../../libs/PoliTeKDSP/libs/libDaisy/src/per/i2c.h ****  *      // setup the configuration
  13:../../libs/PoliTeKDSP/libs/libDaisy/src/per/i2c.h ****  *      I2CHandle::Config i2c_conf;
  14:../../libs/PoliTeKDSP/libs/libDaisy/src/per/i2c.h ****  *      i2c_conf.periph = I2CHandle::Config::Peripheral::I2C_1;
  15:../../libs/PoliTeKDSP/libs/libDaisy/src/per/i2c.h ****  *      i2c_conf.speed  = I2CHandle::Config::Speed::I2C_400KHZ;
  16:../../libs/PoliTeKDSP/libs/libDaisy/src/per/i2c.h ****  *      i2c_conf.mode   = I2CHandle::Config::Mode::Master;
  17:../../libs/PoliTeKDSP/libs/libDaisy/src/per/i2c.h ****  *      i2c_conf.pin_config.scl  = {DSY_GPIOB, 8};
  18:../../libs/PoliTeKDSP/libs/libDaisy/src/per/i2c.h ****  *      i2c_conf.pin_config.sda  = {DSY_GPIOB, 9};
  19:../../libs/PoliTeKDSP/libs/libDaisy/src/per/i2c.h ****  *      // initialise the peripheral
  20:../../libs/PoliTeKDSP/libs/libDaisy/src/per/i2c.h ****  *      I2CHandle i2c;
  21:../../libs/PoliTeKDSP/libs/libDaisy/src/per/i2c.h ****  *      i2c.Init(i2c_conf);
  22:../../libs/PoliTeKDSP/libs/libDaisy/src/per/i2c.h ****  *      // now i2c points to the corresponding peripheral and can be used.
  23:../../libs/PoliTeKDSP/libs/libDaisy/src/per/i2c.h ****  *      i2c.TransmitBlocking( ... );
  24:../../libs/PoliTeKDSP/libs/libDaisy/src/per/i2c.h ****  */
  25:../../libs/PoliTeKDSP/libs/libDaisy/src/per/i2c.h **** class I2CHandle
  26:../../libs/PoliTeKDSP/libs/libDaisy/src/per/i2c.h **** {
  27:../../libs/PoliTeKDSP/libs/libDaisy/src/per/i2c.h ****   public:
  28:../../libs/PoliTeKDSP/libs/libDaisy/src/per/i2c.h ****     /** Contains settings for initialising an I2C interface. */
  29:../../libs/PoliTeKDSP/libs/libDaisy/src/per/i2c.h ****     struct Config
 6382              		.loc 15 29 12 view .LVU1565
 6383              	.LBB1687:
 6384              	.LBI1687:
  30:../../libs/PoliTeKDSP/libs/libDaisy/src/per/i2c.h ****     {
  31:../../libs/PoliTeKDSP/libs/libDaisy/src/per/i2c.h ****         /** Specifies whether the interface will operate in master or slave mode. */
  32:../../libs/PoliTeKDSP/libs/libDaisy/src/per/i2c.h ****         enum class Mode
  33:../../libs/PoliTeKDSP/libs/libDaisy/src/per/i2c.h ****         {
  34:../../libs/PoliTeKDSP/libs/libDaisy/src/per/i2c.h ****             I2C_MASTER,
  35:../../libs/PoliTeKDSP/libs/libDaisy/src/per/i2c.h ****             I2C_SLAVE,
  36:../../libs/PoliTeKDSP/libs/libDaisy/src/per/i2c.h ****         };
  37:../../libs/PoliTeKDSP/libs/libDaisy/src/per/i2c.h **** 
ARM GAS  C:\Users\skipi\AppData\Local\Temp\ccs8qXFk.s 			page 175


  38:../../libs/PoliTeKDSP/libs/libDaisy/src/per/i2c.h ****         /** Specifices the internal peripheral to use (these are mapped to different pins on the ha
  39:../../libs/PoliTeKDSP/libs/libDaisy/src/per/i2c.h ****         enum class Peripheral
  40:../../libs/PoliTeKDSP/libs/libDaisy/src/per/i2c.h ****         {
  41:../../libs/PoliTeKDSP/libs/libDaisy/src/per/i2c.h ****             I2C_1 = 0, /**< & */
  42:../../libs/PoliTeKDSP/libs/libDaisy/src/per/i2c.h ****             I2C_2,     /**< & */
  43:../../libs/PoliTeKDSP/libs/libDaisy/src/per/i2c.h ****             I2C_3,     /**< & */
  44:../../libs/PoliTeKDSP/libs/libDaisy/src/per/i2c.h ****             I2C_4,     /**< & */
  45:../../libs/PoliTeKDSP/libs/libDaisy/src/per/i2c.h ****         };
  46:../../libs/PoliTeKDSP/libs/libDaisy/src/per/i2c.h **** 
  47:../../libs/PoliTeKDSP/libs/libDaisy/src/per/i2c.h ****         /** Rate at which the clock/data will be sent/received. The device being used will have max
  48:../../libs/PoliTeKDSP/libs/libDaisy/src/per/i2c.h ****          *  1MHZ Mode is currently 886kHz
  49:../../libs/PoliTeKDSP/libs/libDaisy/src/per/i2c.h ****          */
  50:../../libs/PoliTeKDSP/libs/libDaisy/src/per/i2c.h ****         enum class Speed
  51:../../libs/PoliTeKDSP/libs/libDaisy/src/per/i2c.h ****         {
  52:../../libs/PoliTeKDSP/libs/libDaisy/src/per/i2c.h ****             I2C_100KHZ, /**< & */
  53:../../libs/PoliTeKDSP/libs/libDaisy/src/per/i2c.h ****             I2C_400KHZ, /**< & */
  54:../../libs/PoliTeKDSP/libs/libDaisy/src/per/i2c.h ****             I2C_1MHZ,   /**< & */
  55:../../libs/PoliTeKDSP/libs/libDaisy/src/per/i2c.h ****         };
  56:../../libs/PoliTeKDSP/libs/libDaisy/src/per/i2c.h **** 
  57:../../libs/PoliTeKDSP/libs/libDaisy/src/per/i2c.h ****         Peripheral periph; /**< & */
  58:../../libs/PoliTeKDSP/libs/libDaisy/src/per/i2c.h ****         struct
  59:../../libs/PoliTeKDSP/libs/libDaisy/src/per/i2c.h ****         {
 6385              		.loc 15 59 9 view .LVU1566
 6386              	.LBB1688:
 6387              	.LBI1688:
 6388              		.file 16 "../../libs/PoliTeKDSP/libs/libDaisy/src/daisy_core.h"
   1:../../libs/PoliTeKDSP/libs/libDaisy/src/daisy_core.h **** #pragma once
   2:../../libs/PoliTeKDSP/libs/libDaisy/src/daisy_core.h **** #ifndef DSY_CORE_HW_H
   3:../../libs/PoliTeKDSP/libs/libDaisy/src/daisy_core.h **** #define DSY_CORE_HW_H /**< & */
   4:../../libs/PoliTeKDSP/libs/libDaisy/src/daisy_core.h **** #include <stdint.h>
   5:../../libs/PoliTeKDSP/libs/libDaisy/src/daisy_core.h **** #include <stdlib.h>
   6:../../libs/PoliTeKDSP/libs/libDaisy/src/daisy_core.h **** 
   7:../../libs/PoliTeKDSP/libs/libDaisy/src/daisy_core.h **** #if defined(_MSC_VER)
   8:../../libs/PoliTeKDSP/libs/libDaisy/src/daisy_core.h **** #define FORCE_INLINE __forceinline /**< & */
   9:../../libs/PoliTeKDSP/libs/libDaisy/src/daisy_core.h **** #elif defined(__clang__)
  10:../../libs/PoliTeKDSP/libs/libDaisy/src/daisy_core.h **** #define FORCE_INLINE inline __attribute__((always_inline)) /**< & */
  11:../../libs/PoliTeKDSP/libs/libDaisy/src/daisy_core.h **** #pragma clang diagnostic ignored "-Wduplicate-decl-specifier"
  12:../../libs/PoliTeKDSP/libs/libDaisy/src/daisy_core.h **** #elif defined(__GNUC__)
  13:../../libs/PoliTeKDSP/libs/libDaisy/src/daisy_core.h **** #define FORCE_INLINE inline __attribute__((always_inline)) /**< & */
  14:../../libs/PoliTeKDSP/libs/libDaisy/src/daisy_core.h **** #else
  15:../../libs/PoliTeKDSP/libs/libDaisy/src/daisy_core.h **** #error unknown compiler
  16:../../libs/PoliTeKDSP/libs/libDaisy/src/daisy_core.h **** #endif
  17:../../libs/PoliTeKDSP/libs/libDaisy/src/daisy_core.h **** 
  18:../../libs/PoliTeKDSP/libs/libDaisy/src/daisy_core.h **** /** @addtogroup utility
  19:../../libs/PoliTeKDSP/libs/libDaisy/src/daisy_core.h ****     @{
  20:../../libs/PoliTeKDSP/libs/libDaisy/src/daisy_core.h **** */
  21:../../libs/PoliTeKDSP/libs/libDaisy/src/daisy_core.h **** 
  22:../../libs/PoliTeKDSP/libs/libDaisy/src/daisy_core.h **** /** Macro for area of memory that is configured as cacheless
  23:../../libs/PoliTeKDSP/libs/libDaisy/src/daisy_core.h **** This should be used primarily for DMA buffers, and the like.
  24:../../libs/PoliTeKDSP/libs/libDaisy/src/daisy_core.h **** */
  25:../../libs/PoliTeKDSP/libs/libDaisy/src/daisy_core.h **** #define DMA_BUFFER_MEM_SECTION __attribute__((section(".sram1_bss")))
  26:../../libs/PoliTeKDSP/libs/libDaisy/src/daisy_core.h **** /** 
  27:../../libs/PoliTeKDSP/libs/libDaisy/src/daisy_core.h **** THE DTCM RAM section is also non-cached. However, is not suitable 
  28:../../libs/PoliTeKDSP/libs/libDaisy/src/daisy_core.h **** for DMA transfers. Performance is on par with internal SRAM w/ 
  29:../../libs/PoliTeKDSP/libs/libDaisy/src/daisy_core.h **** cache enabled.
  30:../../libs/PoliTeKDSP/libs/libDaisy/src/daisy_core.h **** */
  31:../../libs/PoliTeKDSP/libs/libDaisy/src/daisy_core.h **** #define DTCM_MEM_SECTION __attribute__((section(".dtcmram_bss")))
ARM GAS  C:\Users\skipi\AppData\Local\Temp\ccs8qXFk.s 			page 176


  32:../../libs/PoliTeKDSP/libs/libDaisy/src/daisy_core.h **** 
  33:../../libs/PoliTeKDSP/libs/libDaisy/src/daisy_core.h **** #define FBIPMAX 0.999985f             /**< close to 1.0f-LSB at 16 bit */
  34:../../libs/PoliTeKDSP/libs/libDaisy/src/daisy_core.h **** #define FBIPMIN (-FBIPMAX)            /**< - (1 - LSB) */
  35:../../libs/PoliTeKDSP/libs/libDaisy/src/daisy_core.h **** #define U82F_SCALE 0.0078740f         /**< 1 / 127 */
  36:../../libs/PoliTeKDSP/libs/libDaisy/src/daisy_core.h **** #define F2U8_SCALE 127.0f             /**< 128 - 1 */
  37:../../libs/PoliTeKDSP/libs/libDaisy/src/daisy_core.h **** #define S82F_SCALE 0.0078125f         /**< 1 / (2**7) */
  38:../../libs/PoliTeKDSP/libs/libDaisy/src/daisy_core.h **** #define F2S8_SCALE 127.0f             /**< (2 ** 7) - 1 */
  39:../../libs/PoliTeKDSP/libs/libDaisy/src/daisy_core.h **** #define S162F_SCALE 3.0517578125e-05f /**< 1 / (2** 15) */
  40:../../libs/PoliTeKDSP/libs/libDaisy/src/daisy_core.h **** #define F2S16_SCALE 32767.0f          /**< (2 ** 15) - 1 */
  41:../../libs/PoliTeKDSP/libs/libDaisy/src/daisy_core.h **** #define F2S24_SCALE 8388608.0f        /**< 2 ** 23 */
  42:../../libs/PoliTeKDSP/libs/libDaisy/src/daisy_core.h **** #define S242F_SCALE 1.192092896e-07f  /**< 1 / (2 ** 23) */
  43:../../libs/PoliTeKDSP/libs/libDaisy/src/daisy_core.h **** #define S24SIGN 0x800000              /**< 2 ** 23 */
  44:../../libs/PoliTeKDSP/libs/libDaisy/src/daisy_core.h **** #define S322F_SCALE 4.6566129e-10f    /**< 1 / (2** 31) */
  45:../../libs/PoliTeKDSP/libs/libDaisy/src/daisy_core.h **** #define F2S32_SCALE 2147483647.f      /**< (2 ** 31) - 1 */
  46:../../libs/PoliTeKDSP/libs/libDaisy/src/daisy_core.h **** 
  47:../../libs/PoliTeKDSP/libs/libDaisy/src/daisy_core.h **** 
  48:../../libs/PoliTeKDSP/libs/libDaisy/src/daisy_core.h **** /** shorthand macro for simplifying the reading of the left 
  49:../../libs/PoliTeKDSP/libs/libDaisy/src/daisy_core.h ****  *  channel of a non-interleaved output buffer named out */
  50:../../libs/PoliTeKDSP/libs/libDaisy/src/daisy_core.h **** #define OUT_L out[0]
  51:../../libs/PoliTeKDSP/libs/libDaisy/src/daisy_core.h **** 
  52:../../libs/PoliTeKDSP/libs/libDaisy/src/daisy_core.h **** /** shorthand macro for simplifying the reading of the right 
  53:../../libs/PoliTeKDSP/libs/libDaisy/src/daisy_core.h ****  *  channel of a non-interleaved output buffer named out */
  54:../../libs/PoliTeKDSP/libs/libDaisy/src/daisy_core.h **** #define OUT_R out[1]
  55:../../libs/PoliTeKDSP/libs/libDaisy/src/daisy_core.h **** 
  56:../../libs/PoliTeKDSP/libs/libDaisy/src/daisy_core.h **** /** shorthand macro for simplifying the reading of the left 
  57:../../libs/PoliTeKDSP/libs/libDaisy/src/daisy_core.h ****  *  channel of a non-interleaved input buffer named in */
  58:../../libs/PoliTeKDSP/libs/libDaisy/src/daisy_core.h **** #define IN_L in[0]
  59:../../libs/PoliTeKDSP/libs/libDaisy/src/daisy_core.h **** 
  60:../../libs/PoliTeKDSP/libs/libDaisy/src/daisy_core.h **** /** shorthand macro for simplifying the reading of the right 
  61:../../libs/PoliTeKDSP/libs/libDaisy/src/daisy_core.h ****  *  channel of a non-interleaved input buffer named in */
  62:../../libs/PoliTeKDSP/libs/libDaisy/src/daisy_core.h **** #define IN_R in[1]
  63:../../libs/PoliTeKDSP/libs/libDaisy/src/daisy_core.h **** 
  64:../../libs/PoliTeKDSP/libs/libDaisy/src/daisy_core.h **** /** 
  65:../../libs/PoliTeKDSP/libs/libDaisy/src/daisy_core.h ****     Computes cube.
  66:../../libs/PoliTeKDSP/libs/libDaisy/src/daisy_core.h ****     \param x Number to be cubed
  67:../../libs/PoliTeKDSP/libs/libDaisy/src/daisy_core.h ****     \return x ^ 3
  68:../../libs/PoliTeKDSP/libs/libDaisy/src/daisy_core.h **** */
  69:../../libs/PoliTeKDSP/libs/libDaisy/src/daisy_core.h **** FORCE_INLINE float cube(float x)
  70:../../libs/PoliTeKDSP/libs/libDaisy/src/daisy_core.h **** {
  71:../../libs/PoliTeKDSP/libs/libDaisy/src/daisy_core.h ****     return (x * x) * x;
  72:../../libs/PoliTeKDSP/libs/libDaisy/src/daisy_core.h **** }
  73:../../libs/PoliTeKDSP/libs/libDaisy/src/daisy_core.h **** 
  74:../../libs/PoliTeKDSP/libs/libDaisy/src/daisy_core.h **** /** 
  75:../../libs/PoliTeKDSP/libs/libDaisy/src/daisy_core.h ****     Converts unsigned 8-bit to float
  76:../../libs/PoliTeKDSP/libs/libDaisy/src/daisy_core.h ****     \param x Number to be scaled.
  77:../../libs/PoliTeKDSP/libs/libDaisy/src/daisy_core.h ****     \return Scaled number.
  78:../../libs/PoliTeKDSP/libs/libDaisy/src/daisy_core.h **** */
  79:../../libs/PoliTeKDSP/libs/libDaisy/src/daisy_core.h **** FORCE_INLINE float u82f(uint8_t x)
  80:../../libs/PoliTeKDSP/libs/libDaisy/src/daisy_core.h **** {
  81:../../libs/PoliTeKDSP/libs/libDaisy/src/daisy_core.h ****     return ((float)x - 127.f) * U82F_SCALE;
  82:../../libs/PoliTeKDSP/libs/libDaisy/src/daisy_core.h **** }
  83:../../libs/PoliTeKDSP/libs/libDaisy/src/daisy_core.h **** 
  84:../../libs/PoliTeKDSP/libs/libDaisy/src/daisy_core.h **** /**
  85:../../libs/PoliTeKDSP/libs/libDaisy/src/daisy_core.h ****     Converts float to unsigned 8-bit
  86:../../libs/PoliTeKDSP/libs/libDaisy/src/daisy_core.h **** */
  87:../../libs/PoliTeKDSP/libs/libDaisy/src/daisy_core.h **** FORCE_INLINE uint8_t f2u8(float x)
  88:../../libs/PoliTeKDSP/libs/libDaisy/src/daisy_core.h **** {
ARM GAS  C:\Users\skipi\AppData\Local\Temp\ccs8qXFk.s 			page 177


  89:../../libs/PoliTeKDSP/libs/libDaisy/src/daisy_core.h ****     x = x <= FBIPMIN ? FBIPMIN : x;
  90:../../libs/PoliTeKDSP/libs/libDaisy/src/daisy_core.h ****     x = x >= FBIPMAX ? FBIPMAX : x;
  91:../../libs/PoliTeKDSP/libs/libDaisy/src/daisy_core.h ****     return (uint8_t)((x * F2U8_SCALE) + F2U8_SCALE);
  92:../../libs/PoliTeKDSP/libs/libDaisy/src/daisy_core.h **** }
  93:../../libs/PoliTeKDSP/libs/libDaisy/src/daisy_core.h **** 
  94:../../libs/PoliTeKDSP/libs/libDaisy/src/daisy_core.h **** 
  95:../../libs/PoliTeKDSP/libs/libDaisy/src/daisy_core.h **** /** 
  96:../../libs/PoliTeKDSP/libs/libDaisy/src/daisy_core.h ****     Converts Signed 8-bit to float
  97:../../libs/PoliTeKDSP/libs/libDaisy/src/daisy_core.h ****     \param x Number to be scaled.
  98:../../libs/PoliTeKDSP/libs/libDaisy/src/daisy_core.h ****     \return Scaled number.
  99:../../libs/PoliTeKDSP/libs/libDaisy/src/daisy_core.h **** */
 100:../../libs/PoliTeKDSP/libs/libDaisy/src/daisy_core.h **** FORCE_INLINE float s82f(int8_t x)
 101:../../libs/PoliTeKDSP/libs/libDaisy/src/daisy_core.h **** {
 102:../../libs/PoliTeKDSP/libs/libDaisy/src/daisy_core.h ****     return (float)x * S82F_SCALE;
 103:../../libs/PoliTeKDSP/libs/libDaisy/src/daisy_core.h **** }
 104:../../libs/PoliTeKDSP/libs/libDaisy/src/daisy_core.h **** 
 105:../../libs/PoliTeKDSP/libs/libDaisy/src/daisy_core.h **** /**
 106:../../libs/PoliTeKDSP/libs/libDaisy/src/daisy_core.h ****     Converts float to Signed 8-bit
 107:../../libs/PoliTeKDSP/libs/libDaisy/src/daisy_core.h **** */
 108:../../libs/PoliTeKDSP/libs/libDaisy/src/daisy_core.h **** FORCE_INLINE int8_t f2s8(float x)
 109:../../libs/PoliTeKDSP/libs/libDaisy/src/daisy_core.h **** {
 110:../../libs/PoliTeKDSP/libs/libDaisy/src/daisy_core.h ****     x = x <= FBIPMIN ? FBIPMIN : x;
 111:../../libs/PoliTeKDSP/libs/libDaisy/src/daisy_core.h ****     x = x >= FBIPMAX ? FBIPMAX : x;
 112:../../libs/PoliTeKDSP/libs/libDaisy/src/daisy_core.h ****     return (int32_t)(x * F2S8_SCALE);
 113:../../libs/PoliTeKDSP/libs/libDaisy/src/daisy_core.h **** }
 114:../../libs/PoliTeKDSP/libs/libDaisy/src/daisy_core.h **** 
 115:../../libs/PoliTeKDSP/libs/libDaisy/src/daisy_core.h **** /** 
 116:../../libs/PoliTeKDSP/libs/libDaisy/src/daisy_core.h ****     Converts Signed 16-bit to float
 117:../../libs/PoliTeKDSP/libs/libDaisy/src/daisy_core.h ****     \param x Number to be scaled.
 118:../../libs/PoliTeKDSP/libs/libDaisy/src/daisy_core.h ****     \return Scaled number.
 119:../../libs/PoliTeKDSP/libs/libDaisy/src/daisy_core.h **** */
 120:../../libs/PoliTeKDSP/libs/libDaisy/src/daisy_core.h **** FORCE_INLINE float s162f(int16_t x)
 121:../../libs/PoliTeKDSP/libs/libDaisy/src/daisy_core.h **** {
 122:../../libs/PoliTeKDSP/libs/libDaisy/src/daisy_core.h ****     return (float)x * S162F_SCALE;
 123:../../libs/PoliTeKDSP/libs/libDaisy/src/daisy_core.h **** }
 124:../../libs/PoliTeKDSP/libs/libDaisy/src/daisy_core.h **** 
 125:../../libs/PoliTeKDSP/libs/libDaisy/src/daisy_core.h **** /**
 126:../../libs/PoliTeKDSP/libs/libDaisy/src/daisy_core.h ****     Converts float to Signed 16-bit
 127:../../libs/PoliTeKDSP/libs/libDaisy/src/daisy_core.h **** */
 128:../../libs/PoliTeKDSP/libs/libDaisy/src/daisy_core.h **** FORCE_INLINE int16_t f2s16(float x)
 129:../../libs/PoliTeKDSP/libs/libDaisy/src/daisy_core.h **** {
 130:../../libs/PoliTeKDSP/libs/libDaisy/src/daisy_core.h ****     x = x <= FBIPMIN ? FBIPMIN : x;
 131:../../libs/PoliTeKDSP/libs/libDaisy/src/daisy_core.h ****     x = x >= FBIPMAX ? FBIPMAX : x;
 132:../../libs/PoliTeKDSP/libs/libDaisy/src/daisy_core.h ****     return (int32_t)(x * F2S16_SCALE);
 133:../../libs/PoliTeKDSP/libs/libDaisy/src/daisy_core.h **** }
 134:../../libs/PoliTeKDSP/libs/libDaisy/src/daisy_core.h **** 
 135:../../libs/PoliTeKDSP/libs/libDaisy/src/daisy_core.h **** /**
 136:../../libs/PoliTeKDSP/libs/libDaisy/src/daisy_core.h ****     Converts Signed 24-bit to float
 137:../../libs/PoliTeKDSP/libs/libDaisy/src/daisy_core.h ****  */
 138:../../libs/PoliTeKDSP/libs/libDaisy/src/daisy_core.h **** FORCE_INLINE float s242f(int32_t x)
 139:../../libs/PoliTeKDSP/libs/libDaisy/src/daisy_core.h **** {
 140:../../libs/PoliTeKDSP/libs/libDaisy/src/daisy_core.h ****     x = (x ^ S24SIGN) - S24SIGN; //sign extend aka ((x<<8)>>8)
 141:../../libs/PoliTeKDSP/libs/libDaisy/src/daisy_core.h ****     return (float)x * S242F_SCALE;
 142:../../libs/PoliTeKDSP/libs/libDaisy/src/daisy_core.h **** }
 143:../../libs/PoliTeKDSP/libs/libDaisy/src/daisy_core.h **** /**
 144:../../libs/PoliTeKDSP/libs/libDaisy/src/daisy_core.h ****     Converts float to Signed 24-bit
 145:../../libs/PoliTeKDSP/libs/libDaisy/src/daisy_core.h ****  */
ARM GAS  C:\Users\skipi\AppData\Local\Temp\ccs8qXFk.s 			page 178


 146:../../libs/PoliTeKDSP/libs/libDaisy/src/daisy_core.h **** FORCE_INLINE int32_t f2s24(float x)
 147:../../libs/PoliTeKDSP/libs/libDaisy/src/daisy_core.h **** {
 148:../../libs/PoliTeKDSP/libs/libDaisy/src/daisy_core.h ****     x = x <= FBIPMIN ? FBIPMIN : x;
 149:../../libs/PoliTeKDSP/libs/libDaisy/src/daisy_core.h ****     x = x >= FBIPMAX ? FBIPMAX : x;
 150:../../libs/PoliTeKDSP/libs/libDaisy/src/daisy_core.h ****     return (int32_t)(x * F2S24_SCALE);
 151:../../libs/PoliTeKDSP/libs/libDaisy/src/daisy_core.h **** }
 152:../../libs/PoliTeKDSP/libs/libDaisy/src/daisy_core.h **** 
 153:../../libs/PoliTeKDSP/libs/libDaisy/src/daisy_core.h **** /**
 154:../../libs/PoliTeKDSP/libs/libDaisy/src/daisy_core.h ****     Converts Signed 32-bit to float
 155:../../libs/PoliTeKDSP/libs/libDaisy/src/daisy_core.h ****  */
 156:../../libs/PoliTeKDSP/libs/libDaisy/src/daisy_core.h **** FORCE_INLINE float s322f(int32_t x)
 157:../../libs/PoliTeKDSP/libs/libDaisy/src/daisy_core.h **** {
 158:../../libs/PoliTeKDSP/libs/libDaisy/src/daisy_core.h ****     return (float)x * S322F_SCALE;
 159:../../libs/PoliTeKDSP/libs/libDaisy/src/daisy_core.h **** }
 160:../../libs/PoliTeKDSP/libs/libDaisy/src/daisy_core.h **** /**
 161:../../libs/PoliTeKDSP/libs/libDaisy/src/daisy_core.h ****     Converts float to Signed 24-bit
 162:../../libs/PoliTeKDSP/libs/libDaisy/src/daisy_core.h ****  */
 163:../../libs/PoliTeKDSP/libs/libDaisy/src/daisy_core.h **** FORCE_INLINE int32_t f2s32(float x)
 164:../../libs/PoliTeKDSP/libs/libDaisy/src/daisy_core.h **** {
 165:../../libs/PoliTeKDSP/libs/libDaisy/src/daisy_core.h ****     x = x <= FBIPMIN ? FBIPMIN : x;
 166:../../libs/PoliTeKDSP/libs/libDaisy/src/daisy_core.h ****     x = x >= FBIPMAX ? FBIPMAX : x;
 167:../../libs/PoliTeKDSP/libs/libDaisy/src/daisy_core.h ****     return (int32_t)(x * F2S32_SCALE);
 168:../../libs/PoliTeKDSP/libs/libDaisy/src/daisy_core.h **** }
 169:../../libs/PoliTeKDSP/libs/libDaisy/src/daisy_core.h **** 
 170:../../libs/PoliTeKDSP/libs/libDaisy/src/daisy_core.h **** #ifdef __cplusplus
 171:../../libs/PoliTeKDSP/libs/libDaisy/src/daisy_core.h **** 
 172:../../libs/PoliTeKDSP/libs/libDaisy/src/daisy_core.h **** namespace daisy
 173:../../libs/PoliTeKDSP/libs/libDaisy/src/daisy_core.h **** {
 174:../../libs/PoliTeKDSP/libs/libDaisy/src/daisy_core.h **** /** @brief GPIO Port names */
 175:../../libs/PoliTeKDSP/libs/libDaisy/src/daisy_core.h **** enum GPIOPort
 176:../../libs/PoliTeKDSP/libs/libDaisy/src/daisy_core.h **** {
 177:../../libs/PoliTeKDSP/libs/libDaisy/src/daisy_core.h ****     PORTA, /**< Port A */
 178:../../libs/PoliTeKDSP/libs/libDaisy/src/daisy_core.h ****     PORTB, /**< Port B */
 179:../../libs/PoliTeKDSP/libs/libDaisy/src/daisy_core.h ****     PORTC, /**< Port C */
 180:../../libs/PoliTeKDSP/libs/libDaisy/src/daisy_core.h ****     PORTD, /**< Port D */
 181:../../libs/PoliTeKDSP/libs/libDaisy/src/daisy_core.h ****     PORTE, /**< Port E */
 182:../../libs/PoliTeKDSP/libs/libDaisy/src/daisy_core.h ****     PORTF, /**< Port F */
 183:../../libs/PoliTeKDSP/libs/libDaisy/src/daisy_core.h ****     PORTG, /**< Port G */
 184:../../libs/PoliTeKDSP/libs/libDaisy/src/daisy_core.h ****     PORTH, /**< Port H */
 185:../../libs/PoliTeKDSP/libs/libDaisy/src/daisy_core.h ****     PORTI, /**< Port I */
 186:../../libs/PoliTeKDSP/libs/libDaisy/src/daisy_core.h ****     PORTJ, /**< Port J */
 187:../../libs/PoliTeKDSP/libs/libDaisy/src/daisy_core.h ****     PORTK, /**< Port K */
 188:../../libs/PoliTeKDSP/libs/libDaisy/src/daisy_core.h ****     PORTX, /**< Used as a dummy port to signal an invalid pin. */
 189:../../libs/PoliTeKDSP/libs/libDaisy/src/daisy_core.h **** };
 190:../../libs/PoliTeKDSP/libs/libDaisy/src/daisy_core.h **** 
 191:../../libs/PoliTeKDSP/libs/libDaisy/src/daisy_core.h **** /** @brief representation of hardware port/pin combination */
 192:../../libs/PoliTeKDSP/libs/libDaisy/src/daisy_core.h **** struct Pin
 193:../../libs/PoliTeKDSP/libs/libDaisy/src/daisy_core.h **** {
 194:../../libs/PoliTeKDSP/libs/libDaisy/src/daisy_core.h ****     GPIOPort port;
 195:../../libs/PoliTeKDSP/libs/libDaisy/src/daisy_core.h ****     uint8_t  pin;
 196:../../libs/PoliTeKDSP/libs/libDaisy/src/daisy_core.h **** 
 197:../../libs/PoliTeKDSP/libs/libDaisy/src/daisy_core.h ****     /** @brief Constructor creates a valid pin. 
 198:../../libs/PoliTeKDSP/libs/libDaisy/src/daisy_core.h ****      *  @param pt GPIOPort between PA, and PK corresponding to STM32 Port.
 199:../../libs/PoliTeKDSP/libs/libDaisy/src/daisy_core.h ****      *  @param pn pin number in range of 0-15
 200:../../libs/PoliTeKDSP/libs/libDaisy/src/daisy_core.h ****     */
 201:../../libs/PoliTeKDSP/libs/libDaisy/src/daisy_core.h ****     constexpr Pin(const GPIOPort pt, const uint8_t pn) : port(pt), pin(pn) {}
 202:../../libs/PoliTeKDSP/libs/libDaisy/src/daisy_core.h **** 
ARM GAS  C:\Users\skipi\AppData\Local\Temp\ccs8qXFk.s 			page 179


 203:../../libs/PoliTeKDSP/libs/libDaisy/src/daisy_core.h ****     /** @brief Basic Constructor creates an invalid Pin object */
 204:../../libs/PoliTeKDSP/libs/libDaisy/src/daisy_core.h ****     constexpr Pin() : port(PORTX), pin(255) {}
 6389              		.loc 16 204 15 view .LVU1567
 6390              		.loc 16 204 15 is_stmt 0 view .LVU1568
 6391              	.LBE1688:
 6392              	.LBB1689:
 6393              	.LBI1689:
 6394              		.loc 16 204 15 is_stmt 1 view .LVU1569
 6395              		.loc 16 204 15 is_stmt 0 view .LVU1570
 6396              	.LBE1689:
 6397              	.LBE1687:
 6398              	.LBE1686:
 6399              	.LBE1685:
 6400              	.LBE1684:
 6401              	.LBE1683:
  24:../../libs/PoliTeKDSP/libs/libDaisy/src/dev/oled_ssd130x.h ****         }
 6402              		.loc 12 24 13 is_stmt 1 view .LVU1571
 6403              	.LBB1701:
 6404              	.LBB1698:
 6405              	.LBB1695:
 6406              	.LBB1690:
 6407              	.LBI1690:
  28:../../libs/PoliTeKDSP/libs/libDaisy/src/dev/oled_ssd130x.h ****         {
 6408              		.loc 12 28 27 view .LVU1572
 6409              	.LBE1690:
 6410              	.LBE1695:
 6411              	.LBE1698:
 6412              	.LBE1701:
  30:../../libs/PoliTeKDSP/libs/libDaisy/src/dev/oled_ssd130x.h ****             i2c_config.speed          = I2CHandle::Config::Speed::I2C_1MHZ;
 6413              		.loc 12 30 13 view .LVU1573
  31:../../libs/PoliTeKDSP/libs/libDaisy/src/dev/oled_ssd130x.h ****             i2c_config.mode           = I2CHandle::Config::Mode::I2C_MASTER;
 6414              		.loc 12 31 13 view .LVU1574
  32:../../libs/PoliTeKDSP/libs/libDaisy/src/dev/oled_ssd130x.h ****             i2c_config.pin_config.scl = Pin(PORTB, 8);
 6415              		.loc 12 32 13 view .LVU1575
  33:../../libs/PoliTeKDSP/libs/libDaisy/src/dev/oled_ssd130x.h ****             i2c_config.pin_config.sda = Pin(PORTB, 9);
 6416              		.loc 12 33 13 view .LVU1576
 6417              	.LBB1702:
 6418              	.LBB1699:
 6419              	.LBB1696:
 6420              	.LBB1693:
 6421              	.LBB1691:
 6422              	.LBI1691:
 201:../../libs/PoliTeKDSP/libs/libDaisy/src/daisy_core.h **** 
 6423              		.loc 16 201 15 view .LVU1577
 201:../../libs/PoliTeKDSP/libs/libDaisy/src/daisy_core.h **** 
 6424              		.loc 16 201 15 is_stmt 0 view .LVU1578
 6425              	.LBE1691:
 6426              	.LBE1693:
 6427              	.LBE1696:
 6428              	.LBE1699:
 6429              	.LBE1702:
  34:../../libs/PoliTeKDSP/libs/libDaisy/src/dev/oled_ssd130x.h ****             i2c_address               = 0x3C;
 6430              		.loc 12 34 13 is_stmt 1 view .LVU1579
 6431              	.LBB1703:
 6432              	.LBB1700:
 6433              	.LBB1697:
 6434              	.LBB1694:
ARM GAS  C:\Users\skipi\AppData\Local\Temp\ccs8qXFk.s 			page 180


 6435              	.LBB1692:
 6436              	.LBI1692:
 201:../../libs/PoliTeKDSP/libs/libDaisy/src/daisy_core.h **** 
 6437              		.loc 16 201 15 view .LVU1580
 201:../../libs/PoliTeKDSP/libs/libDaisy/src/daisy_core.h **** 
 6438              		.loc 16 201 15 is_stmt 0 view .LVU1581
 6439              	.LBE1692:
 6440              	.LBE1694:
 6441              	.LBE1697:
 6442              	.LBE1700:
 6443              	.LBE1703:
  35:../../libs/PoliTeKDSP/libs/libDaisy/src/dev/oled_ssd130x.h ****         }
 6444              		.loc 12 35 13 is_stmt 1 view .LVU1582
  30:main.cpp      ****     disp.Init(disp_cfg);
 6445              		.loc 9 30 5 view .LVU1583
 6446              		.loc 9 30 5 is_stmt 0 view .LVU1584
 6447 0056 3C23     		movs	r3, #60
 6448 0058 1022     		movs	r2, #16
 6449 005a 0B94     		str	r4, [sp, #44]
 6450 005c 8DF83430 		strb	r3, [sp, #52]
 6451              	.LBB1704:
 6452              	.LBI1704:
  25:../../libs/PoliTeKDSP/libs/libDaisy/src/hid/disp/oled_display.h **** 
 6453              		.loc 10 25 10 is_stmt 1 view .LVU1585
 6454              	.LBB1705:
  25:../../libs/PoliTeKDSP/libs/libDaisy/src/hid/disp/oled_display.h **** 
 6455              		.loc 10 25 44 is_stmt 0 view .LVU1586
 6456 0060 0EAB     		add	r3, sp, #56
 6457 0062 8DF83020 		strb	r2, [sp, #48]
 6458 0066 0A95     		str	r5, [sp, #40]
 6459 0068 13E90700 		ldmdb	r3, {r0, r1, r2}
 6460 006c 08AB     		add	r3, sp, #32
 6461 006e 8DE80700 		stm	sp, {r0, r1, r2}
 6462 0072 CDE90846 		strd	r4, r6, [sp, #32]
 6463 0076 4448     		ldr	r0, .L446+20
 6464 0078 0ECB     		ldm	r3, {r1, r2, r3}
 6465 007a FFF7FEFF 		bl	_ZN5daisy13SSD130xDriverILj128ELj64ENS_19SSD130xI2CTransportEE4InitENS2_6ConfigE
 6466              	.LVL466:
  25:../../libs/PoliTeKDSP/libs/libDaisy/src/hid/disp/oled_display.h **** 
 6467              		.loc 10 25 44 view .LVU1587
 6468              	.LBE1705:
 6469              	.LBE1704:
  31:main.cpp      ****     disp_handle.SetState(DisplayState::WAVEFORM_VIEWER);
 6470              		.loc 9 31 5 is_stmt 1 view .LVU1588
 6471              		.loc 9 31 25 is_stmt 0 view .LVU1589
 6472 007e 0121     		movs	r1, #1
 6473 0080 4248     		ldr	r0, .L446+24
 6474 0082 FFF7FEFF 		bl	_ZN14DisplayHandler8SetStateE12DisplayState
 6475              	.LVL467:
  32:main.cpp      **** 
  33:main.cpp      ****     hw.StartAudio(AudioCallback);
 6476              		.loc 9 33 5 is_stmt 1 view .LVU1590
 6477              		.loc 9 33 18 is_stmt 0 view .LVU1591
 6478 0086 4249     		ldr	r1, .L446+28
 6479 0088 3A48     		ldr	r0, .L446
 6480 008a FFF7FEFF 		bl	_ZN5daisy9DaisySeed10StartAudioEPFvPKPKfPPfjE
 6481              	.LVL468:
ARM GAS  C:\Users\skipi\AppData\Local\Temp\ccs8qXFk.s 			page 181


  34:main.cpp      **** 
  35:main.cpp      ****     uint32_t last_enc_poll = System::GetNow();
 6482              		.loc 9 35 5 is_stmt 1 view .LVU1592
 6483              		.loc 9 35 44 is_stmt 0 view .LVU1593
 6484 008e FFF7FEFF 		bl	_ZN5daisy6System6GetNowEv
 6485              	.LVL469:
 6486 0092 0446     		mov	r4, r0
 6487              	.LVL470:
  36:main.cpp      ****     uint32_t disp_cnt = 0;
 6488              		.loc 9 36 5 is_stmt 1 view .LVU1594
 6489              	.L430:
  21:main.cpp      ****     hw.Init();
 6490              		.loc 9 21 12 is_stmt 0 view .LVU1595
 6491 0094 3226     		movs	r6, #50
 6492              	.LVL471:
 6493              	.L423:
 6494              	.LBB1706:
 6495              	.LBB1707:
  37:main.cpp      **** 
  38:main.cpp      ****     while(1) {
  39:main.cpp      ****         uint32_t now = System::GetNow();
  40:main.cpp      **** 
  41:main.cpp      ****         // 1. CAMPIONAMENTO ENCODER
  42:main.cpp      ****         if(now >= last_enc_poll + 1) {
 6496              		.loc 9 42 33 view .LVU1596
 6497 0096 651C     		adds	r5, r4, #1
 6498              	.L417:
 6499              		.loc 9 42 33 view .LVU1597
 6500              	.LBE1707:
 6501              	.LBE1706:
  38:main.cpp      ****         uint32_t now = System::GetNow();
 6502              		.loc 9 38 5 is_stmt 1 view .LVU1598
 6503              	.LBB1750:
  39:main.cpp      **** 
 6504              		.loc 9 39 9 view .LVU1599
  39:main.cpp      **** 
 6505              		.loc 9 39 38 is_stmt 0 view .LVU1600
 6506 0098 FFF7FEFF 		bl	_ZN5daisy6System6GetNowEv
 6507              	.LVL472:
 6508              	.LBB1732:
 6509              		.loc 9 42 9 view .LVU1601
 6510 009c A842     		cmp	r0, r5
 6511              	.LBE1732:
  39:main.cpp      **** 
 6512              		.loc 9 39 38 view .LVU1602
 6513 009e 0446     		mov	r4, r0
 6514              	.LVL473:
 6515              		.loc 9 42 9 is_stmt 1 view .LVU1603
 6516              	.LBB1733:
 6517 00a0 FAD3     		bcc	.L417
 6518              	.LBB1708:
  43:main.cpp      ****             last_enc_poll = now; // Allineamento preciso
 6519              		.loc 9 43 13 view .LVU1604
  44:main.cpp      ****             
  45:main.cpp      ****             enc.Debounce();
 6520              		.loc 9 45 13 view .LVU1605
 6521              		.loc 9 45 25 is_stmt 0 view .LVU1606
ARM GAS  C:\Users\skipi\AppData\Local\Temp\ccs8qXFk.s 			page 182


 6522 00a2 3648     		ldr	r0, .L446+8
 6523              	.LVL474:
 6524              		.loc 9 45 25 view .LVU1607
 6525 00a4 FFF7FEFF 		bl	_ZN5daisy7Encoder8DebounceEv
 6526              	.LVL475:
  46:main.cpp      ****             int32_t inc = enc.Increment();
 6527              		.loc 9 46 13 is_stmt 1 view .LVU1608
 6528              	.LBB1709:
 6529              	.LBI1709:
  22:../../libs/PoliTeKDSP/libs/libDaisy/src/hid/encoder.h **** 
  23:../../libs/PoliTeKDSP/libs/libDaisy/src/hid/encoder.h ****     /** Initializes the encoder with the specified hardware pins.
  24:../../libs/PoliTeKDSP/libs/libDaisy/src/hid/encoder.h ****      * Update rate is to be deprecated in a future release
  25:../../libs/PoliTeKDSP/libs/libDaisy/src/hid/encoder.h ****      */
  26:../../libs/PoliTeKDSP/libs/libDaisy/src/hid/encoder.h ****     void Init(Pin a, Pin b, Pin click, float update_rate = 0.f);
  27:../../libs/PoliTeKDSP/libs/libDaisy/src/hid/encoder.h ****     /** Called at update_rate to debounce and handle timing for the switch.
  28:../../libs/PoliTeKDSP/libs/libDaisy/src/hid/encoder.h ****      * In order for events not to be missed, its important that the Edge/Pressed checks be made at 
  29:../../libs/PoliTeKDSP/libs/libDaisy/src/hid/encoder.h ****      */
  30:../../libs/PoliTeKDSP/libs/libDaisy/src/hid/encoder.h ****     void Debounce();
  31:../../libs/PoliTeKDSP/libs/libDaisy/src/hid/encoder.h **** 
  32:../../libs/PoliTeKDSP/libs/libDaisy/src/hid/encoder.h ****     /** Returns +1 if the encoder was turned clockwise, -1 if it was turned counter-clockwise, or 0
  33:../../libs/PoliTeKDSP/libs/libDaisy/src/hid/encoder.h ****     inline int32_t Increment() const { return updated_ ? inc_ : 0; }
 6530              		.loc 1 33 20 view .LVU1609
 6531              	.LBB1710:
 6532              		.loc 1 33 40 view .LVU1610
 6533              		.loc 1 33 47 is_stmt 0 view .LVU1611
 6534 00a8 3B79     		ldrb	r3, [r7, #4]	@ zero_extendqisi2
 6535              		.loc 1 33 56 view .LVU1612
 6536 00aa 9BB1     		cbz	r3, .L418
 6537              	.LBE1710:
 6538              	.LBE1709:
 6539              	.LBB1713:
 6540              	.LBB1714:
 6541              	.LBB1715:
  35:../../libs/PoliTeKDSP/libs/libDaisy/src/hid/switch.h **** 
  36:../../libs/PoliTeKDSP/libs/libDaisy/src/hid/switch.h ****     /** 
  37:../../libs/PoliTeKDSP/libs/libDaisy/src/hid/switch.h ****     Initializes the switch object with a given port/pin combo.
  38:../../libs/PoliTeKDSP/libs/libDaisy/src/hid/switch.h ****     \param pin port/pin object to tell the switch which hardware pin to use.
  39:../../libs/PoliTeKDSP/libs/libDaisy/src/hid/switch.h ****     \param update_rate Does nothing. Backwards compatibility until next breaking update.
  40:../../libs/PoliTeKDSP/libs/libDaisy/src/hid/switch.h ****     \param t switch type -- Default: TYPE_MOMENTARY
  41:../../libs/PoliTeKDSP/libs/libDaisy/src/hid/switch.h ****     \param pol switch polarity -- Default: POLARITY_INVERTED
  42:../../libs/PoliTeKDSP/libs/libDaisy/src/hid/switch.h ****     \param pu switch pull up/down -- Default: PULL_UP
  43:../../libs/PoliTeKDSP/libs/libDaisy/src/hid/switch.h ****     */
  44:../../libs/PoliTeKDSP/libs/libDaisy/src/hid/switch.h ****     void Init(Pin        pin,
  45:../../libs/PoliTeKDSP/libs/libDaisy/src/hid/switch.h ****               float      update_rate,
  46:../../libs/PoliTeKDSP/libs/libDaisy/src/hid/switch.h ****               Type       t,
  47:../../libs/PoliTeKDSP/libs/libDaisy/src/hid/switch.h ****               Polarity   pol,
  48:../../libs/PoliTeKDSP/libs/libDaisy/src/hid/switch.h ****               GPIO::Pull pu = GPIO::Pull::PULLUP);
  49:../../libs/PoliTeKDSP/libs/libDaisy/src/hid/switch.h **** 
  50:../../libs/PoliTeKDSP/libs/libDaisy/src/hid/switch.h ****     /**
  51:../../libs/PoliTeKDSP/libs/libDaisy/src/hid/switch.h ****        Simplified Init.
  52:../../libs/PoliTeKDSP/libs/libDaisy/src/hid/switch.h ****        \param pin port/pin object to tell the switch which hardware pin to use.
  53:../../libs/PoliTeKDSP/libs/libDaisy/src/hid/switch.h ****        \param update_rate Left for backwards compatibility until next breaking change.
  54:../../libs/PoliTeKDSP/libs/libDaisy/src/hid/switch.h ****     */
  55:../../libs/PoliTeKDSP/libs/libDaisy/src/hid/switch.h ****     void Init(Pin pin, float update_rate = 0.f);
  56:../../libs/PoliTeKDSP/libs/libDaisy/src/hid/switch.h **** 
  57:../../libs/PoliTeKDSP/libs/libDaisy/src/hid/switch.h ****     /** 
  58:../../libs/PoliTeKDSP/libs/libDaisy/src/hid/switch.h ****     Called at update_rate to debounce and handle timing for the switch.
ARM GAS  C:\Users\skipi\AppData\Local\Temp\ccs8qXFk.s 			page 183


  59:../../libs/PoliTeKDSP/libs/libDaisy/src/hid/switch.h ****     In order for events not to be missed, its important that the Edge/Pressed checks
  60:../../libs/PoliTeKDSP/libs/libDaisy/src/hid/switch.h ****     be made at the same rate as the debounce function is being called.
  61:../../libs/PoliTeKDSP/libs/libDaisy/src/hid/switch.h ****     */
  62:../../libs/PoliTeKDSP/libs/libDaisy/src/hid/switch.h ****     void Debounce();
  63:../../libs/PoliTeKDSP/libs/libDaisy/src/hid/switch.h **** 
  64:../../libs/PoliTeKDSP/libs/libDaisy/src/hid/switch.h ****     /** \return true if a button was just pressed. */
  65:../../libs/PoliTeKDSP/libs/libDaisy/src/hid/switch.h ****     inline bool RisingEdge() const { return updated_ ? state_ == 0x7f : false; }
 6542              		.loc 2 65 45 view .LVU1613
 6543 00ac 397B     		ldrb	r1, [r7, #12]	@ zero_extendqisi2
 6544              	.LBE1715:
 6545              	.LBE1714:
 6546              	.LBE1713:
 6547              	.LBB1722:
 6548              	.LBB1711:
 6549              		.loc 1 33 56 view .LVU1614
 6550 00ae BA6D     		ldr	r2, [r7, #88]
 6551              	.LVL476:
 6552              		.loc 1 33 56 view .LVU1615
 6553              	.LBE1711:
 6554              	.LBE1722:
  47:main.cpp      ****             bool clicked = enc.RisingEdge();
 6555              		.loc 9 47 13 is_stmt 1 view .LVU1616
 6556              	.LBB1723:
 6557              	.LBI1713:
  34:../../libs/PoliTeKDSP/libs/libDaisy/src/hid/encoder.h **** 
  35:../../libs/PoliTeKDSP/libs/libDaisy/src/hid/encoder.h ****     /** Returns true if the encoder was just pressed. */
  36:../../libs/PoliTeKDSP/libs/libDaisy/src/hid/encoder.h ****     inline bool RisingEdge() const { return sw_.RisingEdge(); }
 6558              		.loc 1 36 17 view .LVU1617
 6559              	.LBE1723:
 6560              	.LBE1708:
 6561              	.LBE1733:
 6562              	.LBE1750:
 6563              		.loc 1 36 38 view .LVU1618
 6564              	.LBB1751:
 6565              	.LBB1734:
 6566              	.LBB1729:
 6567              	.LBB1724:
 6568              	.LBB1719:
 6569              	.LBI1714:
 6570              		.loc 2 65 17 view .LVU1619
 6571              	.LBB1716:
 6572              		.loc 2 65 38 view .LVU1620
 6573              		.loc 2 65 54 is_stmt 0 view .LVU1621
 6574 00b0 19BB     		cbnz	r1, .L419
 6575              	.LVL477:
 6576              		.loc 2 65 54 view .LVU1622
 6577              	.LBE1716:
 6578              	.LBE1719:
 6579              	.LBE1724:
  48:main.cpp      **** 
  49:main.cpp      ****             if(inc != 0 || clicked) {
 6580              		.loc 9 49 13 is_stmt 1 view .LVU1623
 6581 00b2 EAB9     		cbnz	r2, .L420
 6582              	.LVL478:
 6583              	.L421:
  50:main.cpp      ****                 menu.StateTransition(clicked, inc, false);
  51:main.cpp      ****             }
ARM GAS  C:\Users\skipi\AppData\Local\Temp\ccs8qXFk.s 			page 184


  52:main.cpp      ****             
  53:main.cpp      ****             disp_cnt++;
 6584              		.loc 9 53 13 view .LVU1624
 6585              		.loc 9 53 13 is_stmt 0 view .LVU1625
 6586              	.LBE1729:
 6587              	.LBE1734:
  54:main.cpp      ****         }
  55:main.cpp      **** 
  56:main.cpp      ****         // 2. AGGIORNAMENTO DISPLAY (Ogni 50ms per dare più respiro all'encoder)
  57:main.cpp      ****         if (disp_cnt >= 50) {
 6588              		.loc 9 57 9 is_stmt 1 view .LVU1626
 6589              	.LBB1735:
 6590 00b4 013E     		subs	r6, r6, #1
 6591              	.LVL479:
 6592              		.loc 9 57 9 is_stmt 0 view .LVU1627
 6593 00b6 EED1     		bne	.L423
 6594              	.LBB1736:
  58:main.cpp      ****             disp_cnt = 0;
 6595              		.loc 9 58 13 is_stmt 1 view .LVU1628
 6596              	.LVL480:
  59:main.cpp      **** 
  60:main.cpp      ****             MenuManager::MenuData ui_data = menu.GetData();
 6597              		.loc 9 60 13 view .LVU1629
 6598              	.LBB1737:
 6599              	.LBI1737:
 6600              		.file 17 "MenuManager.h"
   1:MenuManager.h **** #pragma once
   2:MenuManager.h **** #include <stdint.h>
   3:MenuManager.h **** 
   4:MenuManager.h **** class MenuManager {
   5:MenuManager.h **** public:
   6:MenuManager.h ****     // Rinominato in MenuState per coerenza con il resto del codice
   7:MenuManager.h ****     enum MenuState {
   8:MenuManager.h ****         PLAYMODE,           // Visualizzazione Onda
   9:MenuManager.h ****         MAIN_MENU,
  10:MenuManager.h ****         // Nodi principali (Hub)
  11:MenuManager.h ****         CALIBRATION_HUB,
  12:MenuManager.h ****         SCALES_HUB,         // Rinominato per coerenza con PRESETS_HUB
  13:MenuManager.h ****         PRESETS_HUB,
  14:MenuManager.h **** 
  15:MenuManager.h ****         // Foglie: Parametri Calibrazione
  16:MenuManager.h ****         CURVE,
  17:MenuManager.h ****         DELTA,
  18:MenuManager.h **** 
  19:MenuManager.h ****         // Foglie: Parametri Scale
  20:MenuManager.h ****         ROOT,
  21:MenuManager.h ****         SCALE,
  22:MenuManager.h ****         OCTAVE,
  23:MenuManager.h **** 
  24:MenuManager.h ****         BACK,
  25:MenuManager.h ****     };
  26:MenuManager.h **** 
  27:MenuManager.h ****     // Struttura espansa con i nuovi parametri
  28:MenuManager.h ****     struct MenuData {
  29:MenuManager.h ****         MenuState state;
  30:MenuManager.h ****         MenuState cursor_state;
  31:MenuManager.h ****         float delta;
ARM GAS  C:\Users\skipi\AppData\Local\Temp\ccs8qXFk.s 			page 185


  32:MenuManager.h ****         float curve;
  33:MenuManager.h ****         int root;       // Es: 0 = C, 1 = C#...
  34:MenuManager.h ****         int scale;      // Es: 0 = Major, 1 = Minor...
  35:MenuManager.h ****         int octave;          // Es: 1, 2, 3, 4
  36:MenuManager.h ****         int preset;    // Indice per il synth
  37:MenuManager.h ****         //bool state_just_changed; 
  38:MenuManager.h ****     };
  39:MenuManager.h **** 
  40:MenuManager.h ****     void Init();
  41:MenuManager.h ****     
  42:MenuManager.h ****     void StateTransition(bool click, int rotation, bool timeout);
  43:MenuManager.h ****     
  44:MenuManager.h ****     MenuData GetData(){return _outData;}
 6601              		.loc 17 44 14 view .LVU1630
 6602              	.LBB1738:
 6603              		.loc 17 44 24 view .LVU1631
 6604              		.loc 17 44 31 is_stmt 0 view .LVU1632
 6605 00b8 98F80440 		ldrb	r4, [r8, #4]	@ zero_extendqisi2
 6606              	.LVL481:
 6607              		.loc 17 44 31 view .LVU1633
 6608              	.LBE1738:
 6609              	.LBE1737:
  61:main.cpp      **** 
  62:main.cpp      ****             if (ui_data.state == MenuManager::PLAYMODE) {
 6610              		.loc 9 62 13 is_stmt 1 view .LVU1634
 6611              	.LBB1740:
 6612 00bc 0CBB     		cbnz	r4, .L424
  63:main.cpp      ****                 disp_handle.SetState(DisplayState::WAVEFORM_VIEWER);
 6613              		.loc 9 63 17 view .LVU1635
 6614              		.loc 9 63 37 is_stmt 0 view .LVU1636
 6615 00be 0121     		movs	r1, #1
 6616 00c0 3248     		ldr	r0, .L446+24
 6617 00c2 FFF7FEFF 		bl	_ZN14DisplayHandler8SetStateE12DisplayState
 6618              	.LVL482:
 6619              	.L425:
 6620              		.loc 9 63 37 view .LVU1637
 6621              	.LBE1740:
  64:main.cpp      ****             } 
  65:main.cpp      ****             else {
  66:main.cpp      ****                 disp_handle.SetState(DisplayState::MENU_MODE);
  67:main.cpp      ****                 int cursor_idx = 0;
  68:main.cpp      ****                 
  69:main.cpp      ****                 switch (ui_data.state) {
  70:main.cpp      ****                     case MenuManager::MAIN_MENU:
  71:main.cpp      ****                         if (ui_data.cursor_state == MenuManager::CALIBRATION_HUB) cursor_idx = 0;
  72:main.cpp      ****                         else if (ui_data.cursor_state == MenuManager::SCALES_HUB) cursor_idx = 1;
  73:main.cpp      ****                         else if (ui_data.cursor_state == MenuManager::PRESETS_HUB) cursor_idx = 2;
  74:main.cpp      ****                         else if (ui_data.cursor_state == MenuManager::BACK) cursor_idx = 3;
  75:main.cpp      ****                         disp_handle.DrawMainMenu(cursor_idx);
  76:main.cpp      ****                         break;
  77:main.cpp      **** 
  78:main.cpp      ****                     case MenuManager::CALIBRATION_HUB:
  79:main.cpp      ****                         if (ui_data.cursor_state == MenuManager::DELTA) cursor_idx = 0;
  80:main.cpp      ****                         else if (ui_data.cursor_state == MenuManager::CURVE) cursor_idx = 1;
  81:main.cpp      ****                         else if (ui_data.cursor_state == MenuManager::BACK) cursor_idx = 2;
  82:main.cpp      ****                         disp_handle.DrawCalibrationHub(cursor_idx);
  83:main.cpp      ****                         break;
ARM GAS  C:\Users\skipi\AppData\Local\Temp\ccs8qXFk.s 			page 186


  84:main.cpp      **** 
  85:main.cpp      ****                     case MenuManager::DELTA:
  86:main.cpp      ****                         disp_handle.DrawFloatParameter("DELTA", ui_data.delta);
  87:main.cpp      ****                         break;
  88:main.cpp      **** 
  89:main.cpp      ****                     default:
  90:main.cpp      ****                         break;
  91:main.cpp      ****                 }
  92:main.cpp      ****             } 
  93:main.cpp      ****             // Invia i dati (operazione bloccante)
  94:main.cpp      ****             disp_handle.Update(); 
 6622              		.loc 9 94 13 is_stmt 1 view .LVU1638
 6623              		.loc 9 94 31 is_stmt 0 view .LVU1639
 6624 00c6 3148     		ldr	r0, .L446+24
 6625 00c8 FFF7FEFF 		bl	_ZN14DisplayHandler6UpdateEv
 6626              	.LVL483:
  95:main.cpp      ****             
  96:main.cpp      ****             // Dopo l'update, resetta il tempo per non far scattare immediatamente il poll successi
  97:main.cpp      ****             last_enc_poll = System::GetNow();
 6627              		.loc 9 97 13 is_stmt 1 view .LVU1640
 6628              		.loc 9 97 43 is_stmt 0 view .LVU1641
 6629 00cc FFF7FEFF 		bl	_ZN5daisy6System6GetNowEv
 6630              	.LVL484:
 6631              		.loc 9 97 43 view .LVU1642
 6632 00d0 0446     		mov	r4, r0
 6633              	.LVL485:
 6634              		.loc 9 97 43 view .LVU1643
 6635              	.LBE1736:
 6636 00d2 DFE7     		b	.L430
 6637              	.LVL486:
 6638              	.L418:
 6639              		.loc 9 97 43 view .LVU1644
 6640              	.LBE1735:
 6641              	.LBB1747:
 6642              	.LBB1730:
  47:main.cpp      **** 
 6643              		.loc 9 47 13 is_stmt 1 view .LVU1645
 6644              	.LBB1725:
 6645              		.loc 1 36 17 view .LVU1646
 6646              	.LBE1725:
 6647              	.LBE1730:
 6648              	.LBE1747:
 6649              	.LBE1751:
 6650              		.loc 1 36 38 view .LVU1647
 6651              	.LBB1752:
 6652              	.LBB1748:
 6653              	.LBB1731:
 6654              	.LBB1726:
 6655              	.LBB1720:
 6656              		.loc 2 65 17 view .LVU1648
 6657              	.LBB1717:
 6658              		.loc 2 65 38 view .LVU1649
 6659              		.loc 2 65 54 is_stmt 0 view .LVU1650
 6660 00d4 3A7B     		ldrb	r2, [r7, #12]	@ zero_extendqisi2
 6661 00d6 002A     		cmp	r2, #0
 6662 00d8 ECD0     		beq	.L421
 6663              	.LBE1717:
ARM GAS  C:\Users\skipi\AppData\Local\Temp\ccs8qXFk.s 			page 187


 6664              	.LBE1720:
 6665              	.LBE1726:
 6666              	.LBB1727:
 6667              	.LBB1712:
  33:../../libs/PoliTeKDSP/libs/libDaisy/src/hid/encoder.h **** 
 6668              		.loc 1 33 56 view .LVU1651
 6669 00da 1A46     		mov	r2, r3
 6670              	.LVL487:
 6671              	.L431:
  33:../../libs/PoliTeKDSP/libs/libDaisy/src/hid/encoder.h **** 
 6672              		.loc 1 33 56 view .LVU1652
 6673              	.LBE1712:
 6674              	.LBE1727:
 6675              	.LBB1728:
 6676              	.LBB1721:
 6677              	.LBB1718:
 6678              		.loc 2 65 54 view .LVU1653
 6679 00dc 97F82410 		ldrb	r1, [r7, #36]	@ zero_extendqisi2
 6680 00e0 A1F17F01 		sub	r1, #127
 6681 00e4 B1FA81F1 		clz	r1, r1
 6682 00e8 4909     		lsrs	r1, r1, #5
 6683              	.LVL488:
 6684              		.loc 2 65 54 view .LVU1654
 6685              	.LBE1718:
 6686              	.LBE1721:
 6687              	.LBE1728:
  49:main.cpp      ****                 menu.StateTransition(clicked, inc, false);
 6688              		.loc 9 49 13 is_stmt 1 view .LVU1655
 6689 00ea 09B9     		cbnz	r1, .L420
 6690 00ec 002B     		cmp	r3, #0
 6691 00ee E1D0     		beq	.L421
 6692              	.LVL489:
 6693              	.L420:
  50:main.cpp      ****             }
 6694              		.loc 9 50 17 view .LVU1656
  50:main.cpp      ****             }
 6695              		.loc 9 50 37 is_stmt 0 view .LVU1657
 6696 00f0 0023     		movs	r3, #0
 6697 00f2 2448     		ldr	r0, .L446+16
 6698 00f4 FFF7FEFF 		bl	_ZN11MenuManager15StateTransitionEbib
 6699              	.LVL490:
 6700 00f8 DCE7     		b	.L421
 6701              	.LVL491:
 6702              	.L419:
  49:main.cpp      ****                 menu.StateTransition(clicked, inc, false);
 6703              		.loc 9 49 20 view .LVU1658
 6704 00fa 131E     		subs	r3, r2, #0
 6705 00fc 18BF     		it	ne
 6706 00fe 0123     		movne	r3, #1
 6707 0100 ECE7     		b	.L431
 6708              	.LVL492:
 6709              	.L424:
  49:main.cpp      ****                 menu.StateTransition(clicked, inc, false);
 6710              		.loc 9 49 20 view .LVU1659
 6711              	.LBE1731:
 6712              	.LBE1748:
 6713              	.LBB1749:
ARM GAS  C:\Users\skipi\AppData\Local\Temp\ccs8qXFk.s 			page 188


 6714              	.LBB1746:
 6715              	.LBB1743:
 6716              	.LBB1741:
  66:main.cpp      ****                 int cursor_idx = 0;
 6717              		.loc 9 66 37 view .LVU1660
 6718 0102 0221     		movs	r1, #2
 6719 0104 2148     		ldr	r0, .L446+24
 6720              	.LBE1741:
 6721              	.LBE1743:
 6722              	.LBB1744:
 6723              	.LBB1739:
 6724              		.loc 17 44 31 view .LVU1661
 6725 0106 98F80550 		ldrb	r5, [r8, #5]	@ zero_extendqisi2
 6726 010a 98ED028A 		vldr.32	s16, [r8, #8]
 6727              	.LBE1739:
 6728              	.LBE1744:
 6729              	.LBB1745:
 6730              	.LBB1742:
  66:main.cpp      ****                 int cursor_idx = 0;
 6731              		.loc 9 66 17 is_stmt 1 view .LVU1662
  66:main.cpp      ****                 int cursor_idx = 0;
 6732              		.loc 9 66 37 is_stmt 0 view .LVU1663
 6733 010e FFF7FEFF 		bl	_ZN14DisplayHandler8SetStateE12DisplayState
 6734              	.LVL493:
  67:main.cpp      ****                 
 6735              		.loc 9 67 17 is_stmt 1 view .LVU1664
  69:main.cpp      ****                     case MenuManager::MAIN_MENU:
 6736              		.loc 9 69 17 view .LVU1665
 6737 0112 022C     		cmp	r4, #2
 6738 0114 18D0     		beq	.L426
 6739 0116 062C     		cmp	r4, #6
 6740 0118 0FD0     		beq	.L427
 6741 011a 012C     		cmp	r4, #1
 6742 011c D3D1     		bne	.L425
  70:main.cpp      ****                         if (ui_data.cursor_state == MenuManager::CALIBRATION_HUB) cursor_idx = 0;
 6743              		.loc 9 70 21 view .LVU1666
  71:main.cpp      ****                         else if (ui_data.cursor_state == MenuManager::SCALES_HUB) cursor_idx = 1;
 6744              		.loc 9 71 25 view .LVU1667
 6745 011e 022D     		cmp	r5, #2
 6746 0120 1ED0     		beq	.L432
  72:main.cpp      ****                         else if (ui_data.cursor_state == MenuManager::PRESETS_HUB) cursor_idx = 2;
 6747              		.loc 9 72 30 view .LVU1668
 6748 0122 032D     		cmp	r5, #3
 6749 0124 22D0     		beq	.L433
  73:main.cpp      ****                         else if (ui_data.cursor_state == MenuManager::BACK) cursor_idx = 3;
 6750              		.loc 9 73 30 view .LVU1669
 6751 0126 042D     		cmp	r5, #4
 6752 0128 22D0     		beq	.L434
  74:main.cpp      ****                         disp_handle.DrawMainMenu(cursor_idx);
 6753              		.loc 9 74 30 view .LVU1670
  74:main.cpp      ****                         disp_handle.DrawMainMenu(cursor_idx);
 6754              		.loc 9 74 88 is_stmt 0 view .LVU1671
 6755 012a 0A2D     		cmp	r5, #10
 6756 012c 14BF     		ite	ne
 6757 012e 0021     		movne	r1, #0
 6758 0130 0321     		moveq	r1, #3
 6759              	.L428:
ARM GAS  C:\Users\skipi\AppData\Local\Temp\ccs8qXFk.s 			page 189


 6760              	.LVL494:
  75:main.cpp      ****                         break;
 6761              		.loc 9 75 25 is_stmt 1 view .LVU1672
  75:main.cpp      ****                         break;
 6762              		.loc 9 75 49 is_stmt 0 view .LVU1673
 6763 0132 1648     		ldr	r0, .L446+24
 6764 0134 FFF7FEFF 		bl	_ZN14DisplayHandler12DrawMainMenuEi
 6765              	.LVL495:
  76:main.cpp      **** 
 6766              		.loc 9 76 25 is_stmt 1 view .LVU1674
 6767 0138 C5E7     		b	.L425
 6768              	.LVL496:
 6769              	.L427:
  85:main.cpp      ****                         disp_handle.DrawFloatParameter("DELTA", ui_data.delta);
 6770              		.loc 9 85 21 view .LVU1675
  86:main.cpp      ****                         break;
 6771              		.loc 9 86 25 view .LVU1676
  86:main.cpp      ****                         break;
 6772              		.loc 9 86 55 is_stmt 0 view .LVU1677
 6773 013a B0EE480A 		vmov.f32	s0, s16
 6774 013e 1549     		ldr	r1, .L446+32
 6775 0140 1248     		ldr	r0, .L446+24
 6776 0142 FFF7FEFF 		bl	_ZN14DisplayHandler18DrawFloatParameterEPKcf
 6777              	.LVL497:
  87:main.cpp      **** 
 6778              		.loc 9 87 25 is_stmt 1 view .LVU1678
 6779 0146 BEE7     		b	.L425
 6780              	.L426:
  78:main.cpp      ****                         if (ui_data.cursor_state == MenuManager::DELTA) cursor_idx = 0;
 6781              		.loc 9 78 21 view .LVU1679
  79:main.cpp      ****                         else if (ui_data.cursor_state == MenuManager::CURVE) cursor_idx = 1;
 6782              		.loc 9 79 25 view .LVU1680
 6783 0148 062D     		cmp	r5, #6
 6784 014a 0BD0     		beq	.L436
  80:main.cpp      ****                         else if (ui_data.cursor_state == MenuManager::BACK) cursor_idx = 2;
 6785              		.loc 9 80 30 view .LVU1681
 6786 014c 052D     		cmp	r5, #5
 6787 014e 0BD0     		beq	.L437
  81:main.cpp      ****                         disp_handle.DrawCalibrationHub(cursor_idx);
 6788              		.loc 9 81 30 view .LVU1682
  81:main.cpp      ****                         disp_handle.DrawCalibrationHub(cursor_idx);
 6789              		.loc 9 81 88 is_stmt 0 view .LVU1683
 6790 0150 0A2D     		cmp	r5, #10
 6791 0152 14BF     		ite	ne
 6792 0154 0021     		movne	r1, #0
 6793 0156 0221     		moveq	r1, #2
 6794              	.L429:
 6795              	.LVL498:
  82:main.cpp      ****                         break;
 6796              		.loc 9 82 25 is_stmt 1 view .LVU1684
  82:main.cpp      ****                         break;
 6797              		.loc 9 82 55 is_stmt 0 view .LVU1685
 6798 0158 0C48     		ldr	r0, .L446+24
 6799 015a FFF7FEFF 		bl	_ZN14DisplayHandler18DrawCalibrationHubEi
 6800              	.LVL499:
  83:main.cpp      **** 
 6801              		.loc 9 83 25 is_stmt 1 view .LVU1686
ARM GAS  C:\Users\skipi\AppData\Local\Temp\ccs8qXFk.s 			page 190


 6802 015e B2E7     		b	.L425
 6803              	.LVL500:
 6804              	.L432:
  67:main.cpp      ****                 
 6805              		.loc 9 67 21 is_stmt 0 view .LVU1687
 6806 0160 3146     		mov	r1, r6
 6807 0162 E6E7     		b	.L428
 6808              	.L436:
 6809 0164 3146     		mov	r1, r6
 6810 0166 F7E7     		b	.L429
 6811              	.L437:
  80:main.cpp      ****                         else if (ui_data.cursor_state == MenuManager::BACK) cursor_idx = 2;
 6812              		.loc 9 80 89 view .LVU1688
 6813 0168 0121     		movs	r1, #1
 6814 016a F5E7     		b	.L429
 6815              	.L433:
  72:main.cpp      ****                         else if (ui_data.cursor_state == MenuManager::PRESETS_HUB) cursor_idx = 2;
 6816              		.loc 9 72 94 view .LVU1689
 6817 016c 2146     		mov	r1, r4
 6818 016e E0E7     		b	.L428
 6819              	.L434:
  73:main.cpp      ****                         else if (ui_data.cursor_state == MenuManager::BACK) cursor_idx = 3;
 6820              		.loc 9 73 95 view .LVU1690
 6821 0170 0221     		movs	r1, #2
 6822 0172 DEE7     		b	.L428
 6823              	.L447:
 6824              		.align	2
 6825              	.L446:
 6826 0174 00000000 		.word	.LANCHOR0
 6827 0178 01080109 		.word	151062529
 6828 017c 00000000 		.word	.LANCHOR1
 6829 0180 00000000 		.word	0
 6830 0184 00000000 		.word	.LANCHOR2
 6831 0188 08000000 		.word	.LANCHOR3+8
 6832 018c 00000000 		.word	.LANCHOR4
 6833 0190 00000000 		.word	_Z13AudioCallbackPKPKfPPfj
 6834 0194 00000000 		.word	.LC0
 6835              	.LBE1742:
 6836              	.LBE1745:
 6837              	.LBE1746:
 6838              	.LBE1749:
 6839              	.LBE1752:
 6840              		.cfi_endproc
 6841              	.LFE2783:
 6843              		.section	.text.startup._GLOBAL__sub_I_hw,"ax",%progbits
 6844              		.align	1
 6845              		.p2align 2,,3
 6846              		.syntax unified
 6847              		.thumb
 6848              		.thumb_func
 6849              		.fpu fpv5-d16
 6851              	_GLOBAL__sub_I_hw:
 6852              	.LFB2854:
  98:main.cpp      ****         }
  99:main.cpp      ****     }
 100:main.cpp      **** }...
 6853              		.loc 9 100 1 is_stmt 1 view -0
ARM GAS  C:\Users\skipi\AppData\Local\Temp\ccs8qXFk.s 			page 191


 6854              		.cfi_startproc
 6855              		@ args = 0, pretend = 0, frame = 0
 6856              		@ frame_needed = 0, uses_anonymous_args = 0
 6857              	.LBB1858:
 6858              	.LBI1858:
 6859              		.loc 9 100 1 view .LVU1692
 6860              	.LVL501:
 6861              	.LBB1859:
 6862              	.LBB1860:
 6863              	.LBI1860:
  21:../../libs/PoliTeKDSP/libs/libDaisy/src/daisy_seed.h ****     ~DaisySeed() {}
 6864              		.loc 3 21 5 view .LVU1693
 6865              	.LBB1861:
 6866              	.LBB1862:
 6867              	.LBI1862:
 6868              		.file 18 "../../libs/PoliTeKDSP/libs/libDaisy/src/per/qspi.h"
   1:../../libs/PoliTeKDSP/libs/libDaisy/src/per/qspi.h **** #ifndef DSY_QSPI
   2:../../libs/PoliTeKDSP/libs/libDaisy/src/per/qspi.h **** #define DSY_QSPI /**< Macro */
   3:../../libs/PoliTeKDSP/libs/libDaisy/src/per/qspi.h **** 
   4:../../libs/PoliTeKDSP/libs/libDaisy/src/per/qspi.h **** #ifndef UNIT_TEST // for unit tests, a dummy implementation
   5:../../libs/PoliTeKDSP/libs/libDaisy/src/per/qspi.h **** 
   6:../../libs/PoliTeKDSP/libs/libDaisy/src/per/qspi.h **** #include <cstdint>
   7:../../libs/PoliTeKDSP/libs/libDaisy/src/per/qspi.h **** #include "daisy_core.h"
   8:../../libs/PoliTeKDSP/libs/libDaisy/src/per/qspi.h **** #include "util/hal_map.h"
   9:../../libs/PoliTeKDSP/libs/libDaisy/src/per/qspi.h **** 
  10:../../libs/PoliTeKDSP/libs/libDaisy/src/per/qspi.h **** #define DSY_QSPI_TEXT       \
  11:../../libs/PoliTeKDSP/libs/libDaisy/src/per/qspi.h ****     __attribute__((section( \
  12:../../libs/PoliTeKDSP/libs/libDaisy/src/per/qspi.h ****         ".qspiflash_text"))) /**< used for reading memory in memory_mapped mode. */
  13:../../libs/PoliTeKDSP/libs/libDaisy/src/per/qspi.h **** #define DSY_QSPI_DATA       \
  14:../../libs/PoliTeKDSP/libs/libDaisy/src/per/qspi.h ****     __attribute__((section( \
  15:../../libs/PoliTeKDSP/libs/libDaisy/src/per/qspi.h ****         ".qspiflash_data"))) /**< used for reading memory in memory_mapped mode. */
  16:../../libs/PoliTeKDSP/libs/libDaisy/src/per/qspi.h **** #define DSY_QSPI_BSS        \
  17:../../libs/PoliTeKDSP/libs/libDaisy/src/per/qspi.h ****     __attribute__((section( \
  18:../../libs/PoliTeKDSP/libs/libDaisy/src/per/qspi.h ****         ".qspiflash_bss"))) /**< used for reading memory in memory_mapped mode. */
  19:../../libs/PoliTeKDSP/libs/libDaisy/src/per/qspi.h **** 
  20:../../libs/PoliTeKDSP/libs/libDaisy/src/per/qspi.h **** namespace daisy
  21:../../libs/PoliTeKDSP/libs/libDaisy/src/per/qspi.h **** {
  22:../../libs/PoliTeKDSP/libs/libDaisy/src/per/qspi.h **** /** @addtogroup serial
  23:../../libs/PoliTeKDSP/libs/libDaisy/src/per/qspi.h **** @{
  24:../../libs/PoliTeKDSP/libs/libDaisy/src/per/qspi.h **** */
  25:../../libs/PoliTeKDSP/libs/libDaisy/src/per/qspi.h **** 
  26:../../libs/PoliTeKDSP/libs/libDaisy/src/per/qspi.h **** /**
  27:../../libs/PoliTeKDSP/libs/libDaisy/src/per/qspi.h ****  Driver for QSPI peripheral to interface with external flash memory. \n
  28:../../libs/PoliTeKDSP/libs/libDaisy/src/per/qspi.h ****     Currently supported QSPI Devices: \n
  29:../../libs/PoliTeKDSP/libs/libDaisy/src/per/qspi.h ****     * IS25LP080D
  30:../../libs/PoliTeKDSP/libs/libDaisy/src/per/qspi.h **** */
  31:../../libs/PoliTeKDSP/libs/libDaisy/src/per/qspi.h **** class QSPIHandle
  32:../../libs/PoliTeKDSP/libs/libDaisy/src/per/qspi.h **** {
  33:../../libs/PoliTeKDSP/libs/libDaisy/src/per/qspi.h ****   public:
  34:../../libs/PoliTeKDSP/libs/libDaisy/src/per/qspi.h ****     enum Result
  35:../../libs/PoliTeKDSP/libs/libDaisy/src/per/qspi.h ****     {
  36:../../libs/PoliTeKDSP/libs/libDaisy/src/per/qspi.h ****         OK = 0,
  37:../../libs/PoliTeKDSP/libs/libDaisy/src/per/qspi.h ****         ERR
  38:../../libs/PoliTeKDSP/libs/libDaisy/src/per/qspi.h ****     };
  39:../../libs/PoliTeKDSP/libs/libDaisy/src/per/qspi.h **** 
  40:../../libs/PoliTeKDSP/libs/libDaisy/src/per/qspi.h ****     /** Indicates the current status of the module.
  41:../../libs/PoliTeKDSP/libs/libDaisy/src/per/qspi.h ****          *  Warnings are indicated by a leading W.
ARM GAS  C:\Users\skipi\AppData\Local\Temp\ccs8qXFk.s 			page 192


  42:../../libs/PoliTeKDSP/libs/libDaisy/src/per/qspi.h ****          *  Errors are indicated by a leading E and cause an immediate exit.
  43:../../libs/PoliTeKDSP/libs/libDaisy/src/per/qspi.h ****          *
  44:../../libs/PoliTeKDSP/libs/libDaisy/src/per/qspi.h ****          *  \param GOOD - No errors have been reported.
  45:../../libs/PoliTeKDSP/libs/libDaisy/src/per/qspi.h ****          *  \param E_HAL_ERROR - HAL code did not return HAL_OK.
  46:../../libs/PoliTeKDSP/libs/libDaisy/src/per/qspi.h ****          *  \param E_SWITCHING_MODES - An error was encountered while switching QSPI peripheral mod
  47:../../libs/PoliTeKDSP/libs/libDaisy/src/per/qspi.h ****          *  \param E_INVALID_MODE - QSPI should not be written to while the program is executing fr
  48:../../libs/PoliTeKDSP/libs/libDaisy/src/per/qspi.h ****          */
  49:../../libs/PoliTeKDSP/libs/libDaisy/src/per/qspi.h ****     enum Status
  50:../../libs/PoliTeKDSP/libs/libDaisy/src/per/qspi.h ****     {
  51:../../libs/PoliTeKDSP/libs/libDaisy/src/per/qspi.h ****         GOOD = 0,
  52:../../libs/PoliTeKDSP/libs/libDaisy/src/per/qspi.h ****         E_HAL_ERROR,
  53:../../libs/PoliTeKDSP/libs/libDaisy/src/per/qspi.h ****         E_SWITCHING_MODES,
  54:../../libs/PoliTeKDSP/libs/libDaisy/src/per/qspi.h ****         E_INVALID_MODE,
  55:../../libs/PoliTeKDSP/libs/libDaisy/src/per/qspi.h ****     };
  56:../../libs/PoliTeKDSP/libs/libDaisy/src/per/qspi.h **** 
  57:../../libs/PoliTeKDSP/libs/libDaisy/src/per/qspi.h ****     /** Configuration structure for interfacing with QSPI Driver */
  58:../../libs/PoliTeKDSP/libs/libDaisy/src/per/qspi.h ****     struct Config
  59:../../libs/PoliTeKDSP/libs/libDaisy/src/per/qspi.h ****     {
  60:../../libs/PoliTeKDSP/libs/libDaisy/src/per/qspi.h ****         /** Flash Devices supported. (Both of these are more-or-less the same, just different sizes
  61:../../libs/PoliTeKDSP/libs/libDaisy/src/per/qspi.h ****         enum Device
  62:../../libs/PoliTeKDSP/libs/libDaisy/src/per/qspi.h ****         {
  63:../../libs/PoliTeKDSP/libs/libDaisy/src/per/qspi.h ****             IS25LP080D,  /**< & */
  64:../../libs/PoliTeKDSP/libs/libDaisy/src/per/qspi.h ****             IS25LP064A,  /**< & */
  65:../../libs/PoliTeKDSP/libs/libDaisy/src/per/qspi.h ****             DEVICE_LAST, /**< & */
  66:../../libs/PoliTeKDSP/libs/libDaisy/src/per/qspi.h ****         };
  67:../../libs/PoliTeKDSP/libs/libDaisy/src/per/qspi.h **** 
  68:../../libs/PoliTeKDSP/libs/libDaisy/src/per/qspi.h ****         /**
  69:../../libs/PoliTeKDSP/libs/libDaisy/src/per/qspi.h ****         Modes of operation.
  70:../../libs/PoliTeKDSP/libs/libDaisy/src/per/qspi.h ****         Memory Mapped mode: QSPI configured so that the QSPI can be
  71:../../libs/PoliTeKDSP/libs/libDaisy/src/per/qspi.h ****         read from starting address 0x90000000. Writing is not
  72:../../libs/PoliTeKDSP/libs/libDaisy/src/per/qspi.h ****         possible in this mode. \n
  73:../../libs/PoliTeKDSP/libs/libDaisy/src/per/qspi.h ****         Indirect Polling mode: Device driver enabled.
  74:../../libs/PoliTeKDSP/libs/libDaisy/src/per/qspi.h ****         */
  75:../../libs/PoliTeKDSP/libs/libDaisy/src/per/qspi.h ****         enum Mode
  76:../../libs/PoliTeKDSP/libs/libDaisy/src/per/qspi.h ****         {
  77:../../libs/PoliTeKDSP/libs/libDaisy/src/per/qspi.h ****             MEMORY_MAPPED,    /**< & */
  78:../../libs/PoliTeKDSP/libs/libDaisy/src/per/qspi.h ****             INDIRECT_POLLING, /**< & */
  79:../../libs/PoliTeKDSP/libs/libDaisy/src/per/qspi.h ****             MODE_LAST,
  80:../../libs/PoliTeKDSP/libs/libDaisy/src/per/qspi.h ****         };
  81:../../libs/PoliTeKDSP/libs/libDaisy/src/per/qspi.h **** 
  82:../../libs/PoliTeKDSP/libs/libDaisy/src/per/qspi.h ****         //SCK,  CE# (active low)
  83:../../libs/PoliTeKDSP/libs/libDaisy/src/per/qspi.h ****         struct
  84:../../libs/PoliTeKDSP/libs/libDaisy/src/per/qspi.h ****         {
  85:../../libs/PoliTeKDSP/libs/libDaisy/src/per/qspi.h ****             Pin io0; /**< & */
  86:../../libs/PoliTeKDSP/libs/libDaisy/src/per/qspi.h ****             Pin io1; /**< & */
  87:../../libs/PoliTeKDSP/libs/libDaisy/src/per/qspi.h ****             Pin io2; /**< & */
  88:../../libs/PoliTeKDSP/libs/libDaisy/src/per/qspi.h ****             Pin io3; /**< & */
  89:../../libs/PoliTeKDSP/libs/libDaisy/src/per/qspi.h ****             Pin clk; /**< & */
  90:../../libs/PoliTeKDSP/libs/libDaisy/src/per/qspi.h ****             Pin ncs; /**< & */
  91:../../libs/PoliTeKDSP/libs/libDaisy/src/per/qspi.h ****         } pin_config;
  92:../../libs/PoliTeKDSP/libs/libDaisy/src/per/qspi.h **** 
  93:../../libs/PoliTeKDSP/libs/libDaisy/src/per/qspi.h ****         Device device;
  94:../../libs/PoliTeKDSP/libs/libDaisy/src/per/qspi.h ****         Mode   mode;
  95:../../libs/PoliTeKDSP/libs/libDaisy/src/per/qspi.h ****     };
  96:../../libs/PoliTeKDSP/libs/libDaisy/src/per/qspi.h **** 
  97:../../libs/PoliTeKDSP/libs/libDaisy/src/per/qspi.h ****     /**
  98:../../libs/PoliTeKDSP/libs/libDaisy/src/per/qspi.h ****         Initializes QSPI peripheral, and Resets, and prepares memory for access.
ARM GAS  C:\Users\skipi\AppData\Local\Temp\ccs8qXFk.s 			page 193


  99:../../libs/PoliTeKDSP/libs/libDaisy/src/per/qspi.h ****         \param config should be populated with the mode, device and pin_config before calling this 
 100:../../libs/PoliTeKDSP/libs/libDaisy/src/per/qspi.h ****         \return Result::OK or Result::ERR
 101:../../libs/PoliTeKDSP/libs/libDaisy/src/per/qspi.h ****         */
 102:../../libs/PoliTeKDSP/libs/libDaisy/src/per/qspi.h ****     Result Init(const Config& config);
 103:../../libs/PoliTeKDSP/libs/libDaisy/src/per/qspi.h **** 
 104:../../libs/PoliTeKDSP/libs/libDaisy/src/per/qspi.h ****     /** Returns the current config. */
 105:../../libs/PoliTeKDSP/libs/libDaisy/src/per/qspi.h ****     const Config& GetConfig() const;
 106:../../libs/PoliTeKDSP/libs/libDaisy/src/per/qspi.h **** 
 107:../../libs/PoliTeKDSP/libs/libDaisy/src/per/qspi.h ****     // Couldn't this just be called before anything else in init? That
 108:../../libs/PoliTeKDSP/libs/libDaisy/src/per/qspi.h ****     // would make manually calling it unnecessary.
 109:../../libs/PoliTeKDSP/libs/libDaisy/src/per/qspi.h ****     /**
 110:../../libs/PoliTeKDSP/libs/libDaisy/src/per/qspi.h ****         Deinitializes the peripheral
 111:../../libs/PoliTeKDSP/libs/libDaisy/src/per/qspi.h ****         This should be called before reinitializing QSPI in a different mode.
 112:../../libs/PoliTeKDSP/libs/libDaisy/src/per/qspi.h ****         \return Result::OK or Result::ERR
 113:../../libs/PoliTeKDSP/libs/libDaisy/src/per/qspi.h ****         */
 114:../../libs/PoliTeKDSP/libs/libDaisy/src/per/qspi.h ****     Result DeInit();
 115:../../libs/PoliTeKDSP/libs/libDaisy/src/per/qspi.h **** 
 116:../../libs/PoliTeKDSP/libs/libDaisy/src/per/qspi.h ****     /**
 117:../../libs/PoliTeKDSP/libs/libDaisy/src/per/qspi.h ****         Writes a single page to to the specified address on the QSPI chip.
 118:../../libs/PoliTeKDSP/libs/libDaisy/src/per/qspi.h ****         For IS25LP*, page size is 256 bytes.
 119:../../libs/PoliTeKDSP/libs/libDaisy/src/per/qspi.h ****         \param address Address to write to
 120:../../libs/PoliTeKDSP/libs/libDaisy/src/per/qspi.h ****         \param size Buffer size
 121:../../libs/PoliTeKDSP/libs/libDaisy/src/per/qspi.h ****         \param buffer Buffer to write
 122:../../libs/PoliTeKDSP/libs/libDaisy/src/per/qspi.h ****         \return Result::OK or Result::ERR
 123:../../libs/PoliTeKDSP/libs/libDaisy/src/per/qspi.h ****         */
 124:../../libs/PoliTeKDSP/libs/libDaisy/src/per/qspi.h ****     Result WritePage(uint32_t address, uint32_t size, uint8_t* buffer);
 125:../../libs/PoliTeKDSP/libs/libDaisy/src/per/qspi.h **** 
 126:../../libs/PoliTeKDSP/libs/libDaisy/src/per/qspi.h ****     /**
 127:../../libs/PoliTeKDSP/libs/libDaisy/src/per/qspi.h ****         Writes data in buffer to to the QSPI. Starting at address to address+size
 128:../../libs/PoliTeKDSP/libs/libDaisy/src/per/qspi.h ****         \param address Address to write to
 129:../../libs/PoliTeKDSP/libs/libDaisy/src/per/qspi.h ****         \param size Buffer size
 130:../../libs/PoliTeKDSP/libs/libDaisy/src/per/qspi.h ****         \param buffer Buffer to write
 131:../../libs/PoliTeKDSP/libs/libDaisy/src/per/qspi.h ****         \return Result::OK or Result::ERR
 132:../../libs/PoliTeKDSP/libs/libDaisy/src/per/qspi.h ****         */
 133:../../libs/PoliTeKDSP/libs/libDaisy/src/per/qspi.h ****     Result Write(uint32_t address, uint32_t size, uint8_t* buffer);
 134:../../libs/PoliTeKDSP/libs/libDaisy/src/per/qspi.h **** 
 135:../../libs/PoliTeKDSP/libs/libDaisy/src/per/qspi.h ****     /**
 136:../../libs/PoliTeKDSP/libs/libDaisy/src/per/qspi.h ****         Erases the area specified on the chip.
 137:../../libs/PoliTeKDSP/libs/libDaisy/src/per/qspi.h ****         Erasures will happen by 4K, 32K or 64K increments.
 138:../../libs/PoliTeKDSP/libs/libDaisy/src/per/qspi.h ****         Smallest erase possible is 4kB at a time. (on IS25LP*)
 139:../../libs/PoliTeKDSP/libs/libDaisy/src/per/qspi.h ****         \param start_addr Address to begin erasing from
 140:../../libs/PoliTeKDSP/libs/libDaisy/src/per/qspi.h ****         \param end_addr  Address to stop erasing at
 141:../../libs/PoliTeKDSP/libs/libDaisy/src/per/qspi.h ****         \return Result::OK or Result::ERR
 142:../../libs/PoliTeKDSP/libs/libDaisy/src/per/qspi.h ****         */
 143:../../libs/PoliTeKDSP/libs/libDaisy/src/per/qspi.h ****     Result Erase(uint32_t start_addr, uint32_t end_addr);
 144:../../libs/PoliTeKDSP/libs/libDaisy/src/per/qspi.h **** 
 145:../../libs/PoliTeKDSP/libs/libDaisy/src/per/qspi.h ****     /**
 146:../../libs/PoliTeKDSP/libs/libDaisy/src/per/qspi.h ****          Erases a single sector of the chip.
 147:../../libs/PoliTeKDSP/libs/libDaisy/src/per/qspi.h ****         TODO: Document the size of this function.
 148:../../libs/PoliTeKDSP/libs/libDaisy/src/per/qspi.h ****         \param address Address of sector to erase
 149:../../libs/PoliTeKDSP/libs/libDaisy/src/per/qspi.h ****         \return Result::OK or Result::ERR
 150:../../libs/PoliTeKDSP/libs/libDaisy/src/per/qspi.h ****         */
 151:../../libs/PoliTeKDSP/libs/libDaisy/src/per/qspi.h ****     Result EraseSector(uint32_t address);
 152:../../libs/PoliTeKDSP/libs/libDaisy/src/per/qspi.h **** 
 153:../../libs/PoliTeKDSP/libs/libDaisy/src/per/qspi.h ****     /** Returns the current class status. Useful for debugging.
 154:../../libs/PoliTeKDSP/libs/libDaisy/src/per/qspi.h ****      *  \returns Status
 155:../../libs/PoliTeKDSP/libs/libDaisy/src/per/qspi.h ****      */
ARM GAS  C:\Users\skipi\AppData\Local\Temp\ccs8qXFk.s 			page 194


 156:../../libs/PoliTeKDSP/libs/libDaisy/src/per/qspi.h ****     Status GetStatus();
 157:../../libs/PoliTeKDSP/libs/libDaisy/src/per/qspi.h **** 
 158:../../libs/PoliTeKDSP/libs/libDaisy/src/per/qspi.h ****     /** Returns a pointer to the actual memory used
 159:../../libs/PoliTeKDSP/libs/libDaisy/src/per/qspi.h ****      *  The memory at this address is read-only
 160:../../libs/PoliTeKDSP/libs/libDaisy/src/per/qspi.h ****      *  to write to it use the Write function.
 161:../../libs/PoliTeKDSP/libs/libDaisy/src/per/qspi.h ****      *
 162:../../libs/PoliTeKDSP/libs/libDaisy/src/per/qspi.h ****      *  \param offset returns the pointer starting this
 163:../../libs/PoliTeKDSP/libs/libDaisy/src/per/qspi.h ****      *                many bytes into the memory
 164:../../libs/PoliTeKDSP/libs/libDaisy/src/per/qspi.h ****     */
 165:../../libs/PoliTeKDSP/libs/libDaisy/src/per/qspi.h ****     void* GetData(uint32_t offset = 0);
 166:../../libs/PoliTeKDSP/libs/libDaisy/src/per/qspi.h **** 
 167:../../libs/PoliTeKDSP/libs/libDaisy/src/per/qspi.h ****     QSPIHandle() : pimpl_(nullptr) {}
 6869              		.loc 18 167 5 view .LVU1694
 6870              		.loc 18 167 5 is_stmt 0 view .LVU1695
 6871              	.LBE1862:
 6872              	.LBB1867:
 6873              	.LBI1867:
  58:../../libs/PoliTeKDSP/libs/libDaisy/src/per/qspi.h ****     {
 6874              		.loc 18 58 12 is_stmt 1 view .LVU1696
 6875              	.LBB1868:
 6876              	.LBI1868:
  84:../../libs/PoliTeKDSP/libs/libDaisy/src/per/qspi.h ****             Pin io0; /**< & */
 6877              		.loc 18 84 9 view .LVU1697
 6878              	.LBB1869:
 6879              	.LBI1869:
 6880              		.loc 16 204 15 view .LVU1698
 6881              		.loc 16 204 15 is_stmt 0 view .LVU1699
 6882              	.LBE1869:
 6883              	.LBB1870:
 6884              	.LBI1870:
 6885              		.loc 16 204 15 is_stmt 1 view .LVU1700
 6886              		.loc 16 204 15 is_stmt 0 view .LVU1701
 6887              	.LBE1870:
 6888              	.LBB1871:
 6889              	.LBI1871:
 6890              		.loc 16 204 15 is_stmt 1 view .LVU1702
 6891              		.loc 16 204 15 is_stmt 0 view .LVU1703
 6892              	.LBE1871:
 6893              	.LBB1872:
 6894              	.LBI1872:
 6895              		.loc 16 204 15 is_stmt 1 view .LVU1704
 6896              		.loc 16 204 15 is_stmt 0 view .LVU1705
 6897              	.LBE1872:
 6898              	.LBB1873:
 6899              	.LBI1873:
 6900              		.loc 16 204 15 is_stmt 1 view .LVU1706
 6901              		.loc 16 204 15 is_stmt 0 view .LVU1707
 6902              	.LBE1873:
 6903              	.LBB1874:
 6904              	.LBI1874:
 6905              		.loc 16 204 15 is_stmt 1 view .LVU1708
 6906              		.loc 16 204 15 is_stmt 0 view .LVU1709
 6907              	.LBE1874:
 6908              	.LBE1868:
 6909              	.LBE1867:
 6910              	.LBB1875:
 6911              	.LBI1875:
ARM GAS  C:\Users\skipi\AppData\Local\Temp\ccs8qXFk.s 			page 195


  87:../../libs/PoliTeKDSP/libs/libDaisy/src/hid/audio.h ****     ~AudioHandle() {}
 6912              		.loc 8 87 5 is_stmt 1 view .LVU1710
  87:../../libs/PoliTeKDSP/libs/libDaisy/src/hid/audio.h ****     ~AudioHandle() {}
 6913              		.loc 8 87 5 is_stmt 0 view .LVU1711
 6914              	.LBE1875:
 6915              	.LBB1878:
 6916              	.LBI1878:
 109:../../libs/PoliTeKDSP/libs/libDaisy/src/per/adc.h ****     ~AdcHandle() {}
 6917              		.loc 7 109 5 is_stmt 1 view .LVU1712
 109:../../libs/PoliTeKDSP/libs/libDaisy/src/per/adc.h ****     ~AdcHandle() {}
 6918              		.loc 7 109 5 is_stmt 0 view .LVU1713
 6919              	.LBE1878:
 6920              	.LBB1879:
 6921              	.LBI1879:
 6922              		.file 19 "../../libs/PoliTeKDSP/libs/libDaisy/src/per/dac.h"
   1:../../libs/PoliTeKDSP/libs/libDaisy/src/per/dac.h **** #pragma once
   2:../../libs/PoliTeKDSP/libs/libDaisy/src/per/dac.h **** #ifndef DSY_DAC_H
   3:../../libs/PoliTeKDSP/libs/libDaisy/src/per/dac.h **** #define DSY_DAC_H
   4:../../libs/PoliTeKDSP/libs/libDaisy/src/per/dac.h **** #include "stm32h7xx_hal.h"
   5:../../libs/PoliTeKDSP/libs/libDaisy/src/per/dac.h **** #include "daisy_core.h"
   6:../../libs/PoliTeKDSP/libs/libDaisy/src/per/dac.h **** 
   7:../../libs/PoliTeKDSP/libs/libDaisy/src/per/dac.h **** namespace daisy
   8:../../libs/PoliTeKDSP/libs/libDaisy/src/per/dac.h **** {
   9:../../libs/PoliTeKDSP/libs/libDaisy/src/per/dac.h **** /** @brief DAC handle for Built-in DAC Peripheral 
  10:../../libs/PoliTeKDSP/libs/libDaisy/src/per/dac.h ****  *  @ingroup per_analog
  11:../../libs/PoliTeKDSP/libs/libDaisy/src/per/dac.h ****  ** 
  12:../../libs/PoliTeKDSP/libs/libDaisy/src/per/dac.h ****  ** For now only Normal Mode is supported,
  13:../../libs/PoliTeKDSP/libs/libDaisy/src/per/dac.h ****  ** Sample and hold mode provides reduced power consumption, but requires a bit more setup.
  14:../../libs/PoliTeKDSP/libs/libDaisy/src/per/dac.h ****  **
  15:../../libs/PoliTeKDSP/libs/libDaisy/src/per/dac.h ****  ** For now connecting the DAC through other internal peripherals is also not supported.
  16:../../libs/PoliTeKDSP/libs/libDaisy/src/per/dac.h ****  **
  17:../../libs/PoliTeKDSP/libs/libDaisy/src/per/dac.h ****  ** Since the DAC channels have dedicated pins we don't need to pass in a pin config like with
  18:../../libs/PoliTeKDSP/libs/libDaisy/src/per/dac.h ****  ** other modules. However, it is still important to not try to use the DAC pins for anything else.
  19:../../libs/PoliTeKDSP/libs/libDaisy/src/per/dac.h ****  ** DAC Channel 1 is on PA4, and DAC Channel 2 is on PA5
  20:../../libs/PoliTeKDSP/libs/libDaisy/src/per/dac.h ****  ***/
  21:../../libs/PoliTeKDSP/libs/libDaisy/src/per/dac.h **** class DacHandle
  22:../../libs/PoliTeKDSP/libs/libDaisy/src/per/dac.h **** {
  23:../../libs/PoliTeKDSP/libs/libDaisy/src/per/dac.h ****   public:
  24:../../libs/PoliTeKDSP/libs/libDaisy/src/per/dac.h ****     /** Return Values for the DacHandle class */
  25:../../libs/PoliTeKDSP/libs/libDaisy/src/per/dac.h ****     enum class Result
  26:../../libs/PoliTeKDSP/libs/libDaisy/src/per/dac.h ****     {
  27:../../libs/PoliTeKDSP/libs/libDaisy/src/per/dac.h ****         OK,
  28:../../libs/PoliTeKDSP/libs/libDaisy/src/per/dac.h ****         ERR,
  29:../../libs/PoliTeKDSP/libs/libDaisy/src/per/dac.h ****     };
  30:../../libs/PoliTeKDSP/libs/libDaisy/src/per/dac.h **** 
  31:../../libs/PoliTeKDSP/libs/libDaisy/src/per/dac.h ****     /** Selects which channel(s) will be configured for use. */
  32:../../libs/PoliTeKDSP/libs/libDaisy/src/per/dac.h ****     enum class Channel
  33:../../libs/PoliTeKDSP/libs/libDaisy/src/per/dac.h ****     {
  34:../../libs/PoliTeKDSP/libs/libDaisy/src/per/dac.h ****         ONE,
  35:../../libs/PoliTeKDSP/libs/libDaisy/src/per/dac.h ****         TWO,
  36:../../libs/PoliTeKDSP/libs/libDaisy/src/per/dac.h ****         BOTH,
  37:../../libs/PoliTeKDSP/libs/libDaisy/src/per/dac.h ****     };
  38:../../libs/PoliTeKDSP/libs/libDaisy/src/per/dac.h **** 
  39:../../libs/PoliTeKDSP/libs/libDaisy/src/per/dac.h ****     /** Sets the Mode for the DAC channels.
  40:../../libs/PoliTeKDSP/libs/libDaisy/src/per/dac.h ****      **
  41:../../libs/PoliTeKDSP/libs/libDaisy/src/per/dac.h ****      ** Polling mode uses the blocking mode to transmit a single value at a time.
  42:../../libs/PoliTeKDSP/libs/libDaisy/src/per/dac.h ****      **
ARM GAS  C:\Users\skipi\AppData\Local\Temp\ccs8qXFk.s 			page 196


  43:../../libs/PoliTeKDSP/libs/libDaisy/src/per/dac.h ****      ** DMA mode uses a buffer, and periodically transmits it triggering a 
  44:../../libs/PoliTeKDSP/libs/libDaisy/src/per/dac.h ****      ** callback to fill the buffer when it is ready for more samples.
  45:../../libs/PoliTeKDSP/libs/libDaisy/src/per/dac.h ****      ***/
  46:../../libs/PoliTeKDSP/libs/libDaisy/src/per/dac.h ****     enum class Mode
  47:../../libs/PoliTeKDSP/libs/libDaisy/src/per/dac.h ****     {
  48:../../libs/PoliTeKDSP/libs/libDaisy/src/per/dac.h ****         POLLING,
  49:../../libs/PoliTeKDSP/libs/libDaisy/src/per/dac.h ****         DMA,
  50:../../libs/PoliTeKDSP/libs/libDaisy/src/per/dac.h ****     };
  51:../../libs/PoliTeKDSP/libs/libDaisy/src/per/dac.h **** 
  52:../../libs/PoliTeKDSP/libs/libDaisy/src/per/dac.h ****     /** Sets the number of bits per sample transmitted out of the DAC.
  53:../../libs/PoliTeKDSP/libs/libDaisy/src/per/dac.h ****      ** The output range will be: 0V - VDDA
  54:../../libs/PoliTeKDSP/libs/libDaisy/src/per/dac.h ****      ** The resolution will be roughly: bitdepth / (VDDA - 0V) 
  55:../../libs/PoliTeKDSP/libs/libDaisy/src/per/dac.h ****      ***/
  56:../../libs/PoliTeKDSP/libs/libDaisy/src/per/dac.h ****     enum class BitDepth
  57:../../libs/PoliTeKDSP/libs/libDaisy/src/per/dac.h ****     {
  58:../../libs/PoliTeKDSP/libs/libDaisy/src/per/dac.h ****         BITS_8,
  59:../../libs/PoliTeKDSP/libs/libDaisy/src/per/dac.h ****         BITS_12
  60:../../libs/PoliTeKDSP/libs/libDaisy/src/per/dac.h ****     };
  61:../../libs/PoliTeKDSP/libs/libDaisy/src/per/dac.h **** 
  62:../../libs/PoliTeKDSP/libs/libDaisy/src/per/dac.h ****     /** Sets whether the DAC output is buffered for higher drive ability. */
  63:../../libs/PoliTeKDSP/libs/libDaisy/src/per/dac.h ****     enum class BufferState
  64:../../libs/PoliTeKDSP/libs/libDaisy/src/per/dac.h ****     {
  65:../../libs/PoliTeKDSP/libs/libDaisy/src/per/dac.h ****         ENABLED,
  66:../../libs/PoliTeKDSP/libs/libDaisy/src/per/dac.h ****         DISABLED,
  67:../../libs/PoliTeKDSP/libs/libDaisy/src/per/dac.h ****     };
  68:../../libs/PoliTeKDSP/libs/libDaisy/src/per/dac.h **** 
  69:../../libs/PoliTeKDSP/libs/libDaisy/src/per/dac.h ****     /** Configuration structure for initializing the DAC structure. */
  70:../../libs/PoliTeKDSP/libs/libDaisy/src/per/dac.h ****     struct Config
  71:../../libs/PoliTeKDSP/libs/libDaisy/src/per/dac.h ****     {
  72:../../libs/PoliTeKDSP/libs/libDaisy/src/per/dac.h ****         /** Target Samplerate in Hz used to configure the internal 
  73:../../libs/PoliTeKDSP/libs/libDaisy/src/per/dac.h ****          ** timebase for DMA mode. Does nothing in POLLING mode.
  74:../../libs/PoliTeKDSP/libs/libDaisy/src/per/dac.h ****          ** If the value is 0 at Init time this will default to 48000Hz 
  75:../../libs/PoliTeKDSP/libs/libDaisy/src/per/dac.h ****          ** otherwise the driver will attempt meet the target.*/
  76:../../libs/PoliTeKDSP/libs/libDaisy/src/per/dac.h ****         uint32_t target_samplerate;
  77:../../libs/PoliTeKDSP/libs/libDaisy/src/per/dac.h **** 
  78:../../libs/PoliTeKDSP/libs/libDaisy/src/per/dac.h ****         Channel     chn;
  79:../../libs/PoliTeKDSP/libs/libDaisy/src/per/dac.h ****         Mode        mode;
  80:../../libs/PoliTeKDSP/libs/libDaisy/src/per/dac.h ****         BitDepth    bitdepth;
  81:../../libs/PoliTeKDSP/libs/libDaisy/src/per/dac.h ****         BufferState buff_state;
  82:../../libs/PoliTeKDSP/libs/libDaisy/src/per/dac.h ****     };
  83:../../libs/PoliTeKDSP/libs/libDaisy/src/per/dac.h **** 
  84:../../libs/PoliTeKDSP/libs/libDaisy/src/per/dac.h ****     DacHandle() : pimpl_(nullptr) {}
 6923              		.loc 19 84 5 is_stmt 1 view .LVU1714
 6924              		.loc 19 84 5 is_stmt 0 view .LVU1715
 6925              	.LBE1879:
 6926              	.LBB1882:
 6927              	.LBI1882:
  40:../../libs/PoliTeKDSP/libs/libDaisy/src/hid/usb.h **** 
 6928              		.loc 6 40 5 is_stmt 1 view .LVU1716
  40:../../libs/PoliTeKDSP/libs/libDaisy/src/hid/usb.h **** 
 6929              		.loc 6 40 5 is_stmt 0 view .LVU1717
 6930              	.LBE1882:
 6931              	.LBB1883:
 6932              	.LBI1883:
 6933              		.file 20 "../../libs/PoliTeKDSP/libs/libDaisy/src/per/gpio.h"
   1:../../libs/PoliTeKDSP/libs/libDaisy/src/per/gpio.h **** #pragma once
   2:../../libs/PoliTeKDSP/libs/libDaisy/src/per/gpio.h **** #ifndef DSY_GPIO_H
ARM GAS  C:\Users\skipi\AppData\Local\Temp\ccs8qXFk.s 			page 197


   3:../../libs/PoliTeKDSP/libs/libDaisy/src/per/gpio.h **** #define DSY_GPIO_H
   4:../../libs/PoliTeKDSP/libs/libDaisy/src/per/gpio.h **** #include "daisy_core.h"
   5:../../libs/PoliTeKDSP/libs/libDaisy/src/per/gpio.h **** 
   6:../../libs/PoliTeKDSP/libs/libDaisy/src/per/gpio.h **** #ifdef __cplusplus
   7:../../libs/PoliTeKDSP/libs/libDaisy/src/per/gpio.h **** 
   8:../../libs/PoliTeKDSP/libs/libDaisy/src/per/gpio.h **** namespace daisy
   9:../../libs/PoliTeKDSP/libs/libDaisy/src/per/gpio.h **** {
  10:../../libs/PoliTeKDSP/libs/libDaisy/src/per/gpio.h **** /** @brief General Purpose I/O control 
  11:../../libs/PoliTeKDSP/libs/libDaisy/src/per/gpio.h ****  *  @details peripheral control over a single GPIO
  12:../../libs/PoliTeKDSP/libs/libDaisy/src/per/gpio.h ****  *  @ingroup peripheral
  13:../../libs/PoliTeKDSP/libs/libDaisy/src/per/gpio.h ****  *   
  14:../../libs/PoliTeKDSP/libs/libDaisy/src/per/gpio.h ****  *  Button Input (with internal Pullup resistor)
  15:../../libs/PoliTeKDSP/libs/libDaisy/src/per/gpio.h ****  *  @include GPIO_Input.cpp 
  16:../../libs/PoliTeKDSP/libs/libDaisy/src/per/gpio.h ****  * 
  17:../../libs/PoliTeKDSP/libs/libDaisy/src/per/gpio.h ****  *  Output Example (perfect for blinking an LED)
  18:../../libs/PoliTeKDSP/libs/libDaisy/src/per/gpio.h ****  *  @include GPIO_Output.cpp
  19:../../libs/PoliTeKDSP/libs/libDaisy/src/per/gpio.h ****  * 
  20:../../libs/PoliTeKDSP/libs/libDaisy/src/per/gpio.h **** */
  21:../../libs/PoliTeKDSP/libs/libDaisy/src/per/gpio.h **** class GPIO
  22:../../libs/PoliTeKDSP/libs/libDaisy/src/per/gpio.h **** {
  23:../../libs/PoliTeKDSP/libs/libDaisy/src/per/gpio.h ****   public:
  24:../../libs/PoliTeKDSP/libs/libDaisy/src/per/gpio.h ****     /** @brief Mode of operation for the specified GPIO */
  25:../../libs/PoliTeKDSP/libs/libDaisy/src/per/gpio.h ****     enum class Mode
  26:../../libs/PoliTeKDSP/libs/libDaisy/src/per/gpio.h ****     {
  27:../../libs/PoliTeKDSP/libs/libDaisy/src/per/gpio.h ****         INPUT,      /**< Input for reading state of pin */
  28:../../libs/PoliTeKDSP/libs/libDaisy/src/per/gpio.h ****         OUTPUT,     /**< Output w/ push-pull configuration */
  29:../../libs/PoliTeKDSP/libs/libDaisy/src/per/gpio.h ****         OPEN_DRAIN, /**< Output w/ open-drain configuration */
  30:../../libs/PoliTeKDSP/libs/libDaisy/src/per/gpio.h ****         ANALOG,     /**< Analog for connection to ADC or DAC peripheral */
  31:../../libs/PoliTeKDSP/libs/libDaisy/src/per/gpio.h ****     };
  32:../../libs/PoliTeKDSP/libs/libDaisy/src/per/gpio.h **** 
  33:../../libs/PoliTeKDSP/libs/libDaisy/src/per/gpio.h ****     /** @brief Configures whether an internal Pull up or Pull down resistor is used. 
  34:../../libs/PoliTeKDSP/libs/libDaisy/src/per/gpio.h ****      *  
  35:../../libs/PoliTeKDSP/libs/libDaisy/src/per/gpio.h ****      * Internal Pull up/down resistors are typically 40k ohms, and will be between
  36:../../libs/PoliTeKDSP/libs/libDaisy/src/per/gpio.h ****      * 30k and 50k
  37:../../libs/PoliTeKDSP/libs/libDaisy/src/per/gpio.h ****      * 
  38:../../libs/PoliTeKDSP/libs/libDaisy/src/per/gpio.h ****      * When the Pin is configured in Analog mode, the pull up/down resistors are
  39:../../libs/PoliTeKDSP/libs/libDaisy/src/per/gpio.h ****      * disabled by hardware. 
  40:../../libs/PoliTeKDSP/libs/libDaisy/src/per/gpio.h ****      */
  41:../../libs/PoliTeKDSP/libs/libDaisy/src/per/gpio.h ****     enum class Pull
  42:../../libs/PoliTeKDSP/libs/libDaisy/src/per/gpio.h ****     {
  43:../../libs/PoliTeKDSP/libs/libDaisy/src/per/gpio.h ****         NOPULL,   /**< No pull up resistor */
  44:../../libs/PoliTeKDSP/libs/libDaisy/src/per/gpio.h ****         PULLUP,   /**< Internal pull up enabled */
  45:../../libs/PoliTeKDSP/libs/libDaisy/src/per/gpio.h ****         PULLDOWN, /**< Internal pull down enabled*/
  46:../../libs/PoliTeKDSP/libs/libDaisy/src/per/gpio.h ****     };
  47:../../libs/PoliTeKDSP/libs/libDaisy/src/per/gpio.h **** 
  48:../../libs/PoliTeKDSP/libs/libDaisy/src/per/gpio.h ****     /** @brief Output speed controls the drive strength, and slew rate of the pin */
  49:../../libs/PoliTeKDSP/libs/libDaisy/src/per/gpio.h ****     enum class Speed
  50:../../libs/PoliTeKDSP/libs/libDaisy/src/per/gpio.h ****     {
  51:../../libs/PoliTeKDSP/libs/libDaisy/src/per/gpio.h ****         LOW,
  52:../../libs/PoliTeKDSP/libs/libDaisy/src/per/gpio.h ****         MEDIUM,
  53:../../libs/PoliTeKDSP/libs/libDaisy/src/per/gpio.h ****         HIGH,
  54:../../libs/PoliTeKDSP/libs/libDaisy/src/per/gpio.h ****         VERY_HIGH,
  55:../../libs/PoliTeKDSP/libs/libDaisy/src/per/gpio.h ****     };
  56:../../libs/PoliTeKDSP/libs/libDaisy/src/per/gpio.h **** 
  57:../../libs/PoliTeKDSP/libs/libDaisy/src/per/gpio.h ****     /** @brief Configuration for a given GPIO */
  58:../../libs/PoliTeKDSP/libs/libDaisy/src/per/gpio.h ****     struct Config
  59:../../libs/PoliTeKDSP/libs/libDaisy/src/per/gpio.h ****     {
ARM GAS  C:\Users\skipi\AppData\Local\Temp\ccs8qXFk.s 			page 198


  60:../../libs/PoliTeKDSP/libs/libDaisy/src/per/gpio.h ****         Pin   pin;
  61:../../libs/PoliTeKDSP/libs/libDaisy/src/per/gpio.h ****         Mode  mode;
  62:../../libs/PoliTeKDSP/libs/libDaisy/src/per/gpio.h ****         Pull  pull;
  63:../../libs/PoliTeKDSP/libs/libDaisy/src/per/gpio.h ****         Speed speed;
  64:../../libs/PoliTeKDSP/libs/libDaisy/src/per/gpio.h **** 
  65:../../libs/PoliTeKDSP/libs/libDaisy/src/per/gpio.h ****         /** Constructor with no arguments will prepare an invalid GPIO set as
  66:../../libs/PoliTeKDSP/libs/libDaisy/src/per/gpio.h ****          *  an input, with no pullup. 
  67:../../libs/PoliTeKDSP/libs/libDaisy/src/per/gpio.h ****          */
  68:../../libs/PoliTeKDSP/libs/libDaisy/src/per/gpio.h ****         Config()
  69:../../libs/PoliTeKDSP/libs/libDaisy/src/per/gpio.h ****         : pin(), mode(Mode::INPUT), pull(Pull::NOPULL), speed(Speed::LOW)
  70:../../libs/PoliTeKDSP/libs/libDaisy/src/per/gpio.h ****         {
  71:../../libs/PoliTeKDSP/libs/libDaisy/src/per/gpio.h ****         }
  72:../../libs/PoliTeKDSP/libs/libDaisy/src/per/gpio.h ****     };
  73:../../libs/PoliTeKDSP/libs/libDaisy/src/per/gpio.h **** 
  74:../../libs/PoliTeKDSP/libs/libDaisy/src/per/gpio.h ****     GPIO() {}
 6934              		.loc 20 74 5 is_stmt 1 view .LVU1718
 6935              	.LBB1884:
 6936              	.LBB1885:
 6937              	.LBI1885:
  68:../../libs/PoliTeKDSP/libs/libDaisy/src/per/gpio.h ****         : pin(), mode(Mode::INPUT), pull(Pull::NOPULL), speed(Speed::LOW)
 6938              		.loc 20 68 9 view .LVU1719
 6939              	.LBB1886:
 6940              	.LBB1887:
 6941              	.LBB1888:
 6942              	.LBI1888:
 6943              		.loc 16 204 15 view .LVU1720
 6944              		.loc 16 204 15 is_stmt 0 view .LVU1721
 6945              	.LBE1888:
 6946              	.LBE1887:
 6947              	.LBE1886:
 6948              	.LBE1885:
 6949              	.LBE1884:
 6950              	.LBE1883:
 6951              	.LBB1897:
 6952              	.LBI1897:
 6953              		.loc 20 74 5 is_stmt 1 view .LVU1722
 6954              	.LBB1898:
 6955              	.LBB1899:
 6956              	.LBI1899:
  68:../../libs/PoliTeKDSP/libs/libDaisy/src/per/gpio.h ****         : pin(), mode(Mode::INPUT), pull(Pull::NOPULL), speed(Speed::LOW)
 6957              		.loc 20 68 9 view .LVU1723
 6958              	.LBB1900:
 6959              	.LBB1901:
 6960              	.LBB1902:
 6961              	.LBI1902:
 6962              		.loc 16 204 15 view .LVU1724
 6963              		.loc 16 204 15 is_stmt 0 view .LVU1725
 6964              	.LBE1902:
 6965              	.LBE1901:
 6966              	.LBE1900:
 6967              	.LBE1899:
 6968              	.LBE1898:
 6969              	.LBE1897:
 6970              	.LBB1911:
 6971              	.LBI1911:
  96:../../libs/PoliTeKDSP/libs/libDaisy/src/sys/system.h ****     ~System() {}
 6972              		.loc 5 96 5 is_stmt 1 view .LVU1726
ARM GAS  C:\Users\skipi\AppData\Local\Temp\ccs8qXFk.s 			page 199


  96:../../libs/PoliTeKDSP/libs/libDaisy/src/sys/system.h ****     ~System() {}
 6973              		.loc 5 96 5 is_stmt 0 view .LVU1727
 6974              	.LBE1911:
 6975              	.LBB1912:
 6976              	.LBI1912:
  20:../../libs/PoliTeKDSP/libs/libDaisy/src/dev/codec_ak4556.h ****     ~Ak4556() {}
 6977              		.loc 4 20 5 is_stmt 1 view .LVU1728
 6978              	.LBB1913:
 6979              	.LBI1913:
 6980              		.loc 20 74 5 view .LVU1729
 6981              	.LBB1914:
 6982              	.LBB1915:
 6983              	.LBI1915:
  68:../../libs/PoliTeKDSP/libs/libDaisy/src/per/gpio.h ****         : pin(), mode(Mode::INPUT), pull(Pull::NOPULL), speed(Speed::LOW)
 6984              		.loc 20 68 9 view .LVU1730
 6985              	.LBB1916:
 6986              	.LBB1917:
 6987              	.LBB1918:
 6988              	.LBI1918:
 6989              		.loc 16 204 15 view .LVU1731
 6990              		.loc 16 204 15 is_stmt 0 view .LVU1732
 6991              	.LBE1918:
 6992              	.LBE1917:
 6993              	.LBE1916:
 6994              	.LBE1915:
 6995              	.LBE1914:
 6996              	.LBE1913:
 6997              	.LBE1912:
 6998              	.LBB1929:
 6999              	.LBI1929:
 7000              		.file 21 "../../libs/PoliTeKDSP/libs/libDaisy/src/per/sai.h"
   1:../../libs/PoliTeKDSP/libs/libDaisy/src/per/sai.h **** #pragma once
   2:../../libs/PoliTeKDSP/libs/libDaisy/src/per/sai.h **** #ifndef DSY_SAI_H
   3:../../libs/PoliTeKDSP/libs/libDaisy/src/per/sai.h **** #define DSY_SAI_H
   4:../../libs/PoliTeKDSP/libs/libDaisy/src/per/sai.h **** 
   5:../../libs/PoliTeKDSP/libs/libDaisy/src/per/sai.h **** #include "util/hal_map.h"
   6:../../libs/PoliTeKDSP/libs/libDaisy/src/per/sai.h **** #include "daisy_core.h"
   7:../../libs/PoliTeKDSP/libs/libDaisy/src/per/sai.h **** 
   8:../../libs/PoliTeKDSP/libs/libDaisy/src/per/sai.h **** namespace daisy
   9:../../libs/PoliTeKDSP/libs/libDaisy/src/per/sai.h **** {
  10:../../libs/PoliTeKDSP/libs/libDaisy/src/per/sai.h **** /** 
  11:../../libs/PoliTeKDSP/libs/libDaisy/src/per/sai.h ****  * Support for I2S Audio Protocol with different bit-depth, samplerate options
  12:../../libs/PoliTeKDSP/libs/libDaisy/src/per/sai.h ****  * Allows for master or slave, as well as freedom of selecting direction, 
  13:../../libs/PoliTeKDSP/libs/libDaisy/src/per/sai.h ****  * and other behavior for each peripheral, and block.
  14:../../libs/PoliTeKDSP/libs/libDaisy/src/per/sai.h ****  * 
  15:../../libs/PoliTeKDSP/libs/libDaisy/src/per/sai.h ****  * DMA Transfer commands must use buffers located within non-cached memory or use cache maintenance
  16:../../libs/PoliTeKDSP/libs/libDaisy/src/per/sai.h ****  * To declare an unitialized global element in the DMA memory section:
  17:../../libs/PoliTeKDSP/libs/libDaisy/src/per/sai.h ****  *    int32_t DSY_DMA_BUFFER_SECTOR my_buffer[96];
  18:../../libs/PoliTeKDSP/libs/libDaisy/src/per/sai.h ****  *
  19:../../libs/PoliTeKDSP/libs/libDaisy/src/per/sai.h ****  * Callback functions will be called once per half of the buffer. In the above example, 
  20:../../libs/PoliTeKDSP/libs/libDaisy/src/per/sai.h ****  * the callback function would be called once for every 48 samples.
  21:../../libs/PoliTeKDSP/libs/libDaisy/src/per/sai.h ****  * 
  22:../../libs/PoliTeKDSP/libs/libDaisy/src/per/sai.h ****  * Use SAI Handle like this:
  23:../../libs/PoliTeKDSP/libs/libDaisy/src/per/sai.h ****  * 
  24:../../libs/PoliTeKDSP/libs/libDaisy/src/per/sai.h ****  *  SaiHandle::Config sai_config;
  25:../../libs/PoliTeKDSP/libs/libDaisy/src/per/sai.h ****  *  sai_config.periph          = SaiHandle::Config::Peripheral::SAI_1;
  26:../../libs/PoliTeKDSP/libs/libDaisy/src/per/sai.h ****  *  sai_config.sr              = SaiHandle::Config::SampleRate::SAI_48KHZ;
ARM GAS  C:\Users\skipi\AppData\Local\Temp\ccs8qXFk.s 			page 200


  27:../../libs/PoliTeKDSP/libs/libDaisy/src/per/sai.h ****  *  sai_config.bit_depth       = SaiHandle::Config::BitDepth::SAI_24BIT;
  28:../../libs/PoliTeKDSP/libs/libDaisy/src/per/sai.h ****  *  sai_config.a_sync          = SaiHandle::Config::Sync::MASTER;
  29:../../libs/PoliTeKDSP/libs/libDaisy/src/per/sai.h ****  *  sai_config.b_sync          = SaiHandle::Config::Sync::SLAVE;
  30:../../libs/PoliTeKDSP/libs/libDaisy/src/per/sai.h ****  *  sai_config.a_dir           = SaiHandle::Config::Direction::RECEIVE;
  31:../../libs/PoliTeKDSP/libs/libDaisy/src/per/sai.h ****  *  sai_config.b_dir           = SaiHandle::Config::Direction::TRANSMIT;
  32:../../libs/PoliTeKDSP/libs/libDaisy/src/per/sai.h ****  *  sai_config.pin_config.fs   = {DSY_GPIOE, 4};
  33:../../libs/PoliTeKDSP/libs/libDaisy/src/per/sai.h ****  *  sai_config.pin_config.mclk = {DSY_GPIOE, 2};
  34:../../libs/PoliTeKDSP/libs/libDaisy/src/per/sai.h ****  *  sai_config.pin_config.sck  = {DSY_GPIOE, 5};
  35:../../libs/PoliTeKDSP/libs/libDaisy/src/per/sai.h ****  *  sai_config.pin_config.sa   = {DSY_GPIOE, 6};
  36:../../libs/PoliTeKDSP/libs/libDaisy/src/per/sai.h ****  *  sai_config.pin_config.sb   = {DSY_GPIOE, 3};
  37:../../libs/PoliTeKDSP/libs/libDaisy/src/per/sai.h ****  *  // Then Initialize
  38:../../libs/PoliTeKDSP/libs/libDaisy/src/per/sai.h ****  *  SaiHandle sai;
  39:../../libs/PoliTeKDSP/libs/libDaisy/src/per/sai.h ****  *  sai.Init(sai_config);
  40:../../libs/PoliTeKDSP/libs/libDaisy/src/per/sai.h ****  *  // Now you can use it:
  41:../../libs/PoliTeKDSP/libs/libDaisy/src/per/sai.h ****  *  sai.StartDma(. . .);
  42:../../libs/PoliTeKDSP/libs/libDaisy/src/per/sai.h ****  */
  43:../../libs/PoliTeKDSP/libs/libDaisy/src/per/sai.h **** class SaiHandle
  44:../../libs/PoliTeKDSP/libs/libDaisy/src/per/sai.h **** {
  45:../../libs/PoliTeKDSP/libs/libDaisy/src/per/sai.h ****   public:
  46:../../libs/PoliTeKDSP/libs/libDaisy/src/per/sai.h ****     /** Contains settings for initialising an SAI Interface */
  47:../../libs/PoliTeKDSP/libs/libDaisy/src/per/sai.h ****     struct Config
  48:../../libs/PoliTeKDSP/libs/libDaisy/src/per/sai.h ****     {
  49:../../libs/PoliTeKDSP/libs/libDaisy/src/per/sai.h ****         /** Specifies the internal peripheral to use (mapped to different hardware pins) */
  50:../../libs/PoliTeKDSP/libs/libDaisy/src/per/sai.h ****         enum class Peripheral
  51:../../libs/PoliTeKDSP/libs/libDaisy/src/per/sai.h ****         {
  52:../../libs/PoliTeKDSP/libs/libDaisy/src/per/sai.h ****             SAI_1,
  53:../../libs/PoliTeKDSP/libs/libDaisy/src/per/sai.h ****             SAI_2,
  54:../../libs/PoliTeKDSP/libs/libDaisy/src/per/sai.h ****         };
  55:../../libs/PoliTeKDSP/libs/libDaisy/src/per/sai.h **** 
  56:../../libs/PoliTeKDSP/libs/libDaisy/src/per/sai.h ****         /** Rate at which samples will be streaming to/from the device. */
  57:../../libs/PoliTeKDSP/libs/libDaisy/src/per/sai.h ****         enum class SampleRate
  58:../../libs/PoliTeKDSP/libs/libDaisy/src/per/sai.h ****         {
  59:../../libs/PoliTeKDSP/libs/libDaisy/src/per/sai.h ****             SAI_8KHZ,
  60:../../libs/PoliTeKDSP/libs/libDaisy/src/per/sai.h ****             SAI_16KHZ,
  61:../../libs/PoliTeKDSP/libs/libDaisy/src/per/sai.h ****             SAI_32KHZ,
  62:../../libs/PoliTeKDSP/libs/libDaisy/src/per/sai.h ****             SAI_48KHZ,
  63:../../libs/PoliTeKDSP/libs/libDaisy/src/per/sai.h ****             SAI_96KHZ,
  64:../../libs/PoliTeKDSP/libs/libDaisy/src/per/sai.h ****         };
  65:../../libs/PoliTeKDSP/libs/libDaisy/src/per/sai.h **** 
  66:../../libs/PoliTeKDSP/libs/libDaisy/src/per/sai.h ****         /** Bit Depth that the hardware expects to be transferred to/from the device. */
  67:../../libs/PoliTeKDSP/libs/libDaisy/src/per/sai.h ****         enum class BitDepth
  68:../../libs/PoliTeKDSP/libs/libDaisy/src/per/sai.h ****         {
  69:../../libs/PoliTeKDSP/libs/libDaisy/src/per/sai.h ****             SAI_16BIT,
  70:../../libs/PoliTeKDSP/libs/libDaisy/src/per/sai.h ****             SAI_24BIT,
  71:../../libs/PoliTeKDSP/libs/libDaisy/src/per/sai.h ****             SAI_32BIT,
  72:../../libs/PoliTeKDSP/libs/libDaisy/src/per/sai.h ****         };
  73:../../libs/PoliTeKDSP/libs/libDaisy/src/per/sai.h **** 
  74:../../libs/PoliTeKDSP/libs/libDaisy/src/per/sai.h ****         /** Specifies whether a particular block is the master or the slave 
  75:../../libs/PoliTeKDSP/libs/libDaisy/src/per/sai.h ****          ** If both are set to slave, no MCLK signal will be used, and it is
  76:../../libs/PoliTeKDSP/libs/libDaisy/src/per/sai.h ****          ** expected that the codec will have its own xtal.
  77:../../libs/PoliTeKDSP/libs/libDaisy/src/per/sai.h ****          */
  78:../../libs/PoliTeKDSP/libs/libDaisy/src/per/sai.h ****         enum class Sync
  79:../../libs/PoliTeKDSP/libs/libDaisy/src/per/sai.h ****         {
  80:../../libs/PoliTeKDSP/libs/libDaisy/src/per/sai.h ****             MASTER,
  81:../../libs/PoliTeKDSP/libs/libDaisy/src/per/sai.h ****             SLAVE,
  82:../../libs/PoliTeKDSP/libs/libDaisy/src/per/sai.h ****         };
  83:../../libs/PoliTeKDSP/libs/libDaisy/src/per/sai.h **** 
ARM GAS  C:\Users\skipi\AppData\Local\Temp\ccs8qXFk.s 			page 201


  84:../../libs/PoliTeKDSP/libs/libDaisy/src/per/sai.h ****         /** Specifies the direction for each peripheral block. */
  85:../../libs/PoliTeKDSP/libs/libDaisy/src/per/sai.h ****         enum class Direction
  86:../../libs/PoliTeKDSP/libs/libDaisy/src/per/sai.h ****         {
  87:../../libs/PoliTeKDSP/libs/libDaisy/src/per/sai.h ****             TRANSMIT,
  88:../../libs/PoliTeKDSP/libs/libDaisy/src/per/sai.h ****             RECEIVE,
  89:../../libs/PoliTeKDSP/libs/libDaisy/src/per/sai.h ****         };
  90:../../libs/PoliTeKDSP/libs/libDaisy/src/per/sai.h **** 
  91:../../libs/PoliTeKDSP/libs/libDaisy/src/per/sai.h ****         Peripheral periph;
  92:../../libs/PoliTeKDSP/libs/libDaisy/src/per/sai.h ****         struct
  93:../../libs/PoliTeKDSP/libs/libDaisy/src/per/sai.h ****         {
  94:../../libs/PoliTeKDSP/libs/libDaisy/src/per/sai.h ****             Pin mclk, fs, sck, sa, sb;
  95:../../libs/PoliTeKDSP/libs/libDaisy/src/per/sai.h ****         } pin_config;
  96:../../libs/PoliTeKDSP/libs/libDaisy/src/per/sai.h ****         SampleRate sr;
  97:../../libs/PoliTeKDSP/libs/libDaisy/src/per/sai.h ****         BitDepth   bit_depth;
  98:../../libs/PoliTeKDSP/libs/libDaisy/src/per/sai.h ****         Sync       a_sync, b_sync;
  99:../../libs/PoliTeKDSP/libs/libDaisy/src/per/sai.h ****         Direction  a_dir, b_dir;
 100:../../libs/PoliTeKDSP/libs/libDaisy/src/per/sai.h ****     };
 101:../../libs/PoliTeKDSP/libs/libDaisy/src/per/sai.h **** 
 102:../../libs/PoliTeKDSP/libs/libDaisy/src/per/sai.h ****     /** Return values for SAI functions */
 103:../../libs/PoliTeKDSP/libs/libDaisy/src/per/sai.h ****     enum class Result
 104:../../libs/PoliTeKDSP/libs/libDaisy/src/per/sai.h ****     {
 105:../../libs/PoliTeKDSP/libs/libDaisy/src/per/sai.h ****         OK,
 106:../../libs/PoliTeKDSP/libs/libDaisy/src/per/sai.h ****         ERR,
 107:../../libs/PoliTeKDSP/libs/libDaisy/src/per/sai.h ****     };
 108:../../libs/PoliTeKDSP/libs/libDaisy/src/per/sai.h **** 
 109:../../libs/PoliTeKDSP/libs/libDaisy/src/per/sai.h ****     SaiHandle() : pimpl_(nullptr) {}
 7001              		.loc 21 109 5 is_stmt 1 view .LVU1733
 7002              	.LBE1929:
 7003              	.LBE1861:
 7004              	.LBE1860:
 7005              	.LBE1859:
 7006              	.LBE1858:
 7007              		.loc 9 100 1 is_stmt 0 view .LVU1734
 7008 0000 38B5     		push	{r3, r4, r5, lr}
 7009              		.cfi_def_cfa_offset 16
 7010              		.cfi_offset 3, -16
 7011              		.cfi_offset 4, -12
 7012              		.cfi_offset 5, -8
 7013              		.cfi_offset 14, -4
 7014              	.LBB2022:
 7015              	.LBB2020:
 7016              	.LBB1946:
 7017              	.LBB1943:
 7018              	.LBB1932:
 7019              	.LBB1863:
 7020              	.LBB1864:
 7021              		.loc 18 167 34 view .LVU1735
 7022 0002 1F48     		ldr	r0, .L450
 7023 0004 0024     		movs	r4, #0
 7024              	.LBE1864:
 7025              	.LBE1863:
 7026              	.LBE1932:
  21:../../libs/PoliTeKDSP/libs/libDaisy/src/daisy_seed.h ****     ~DaisySeed() {}
 7027              		.loc 3 21 17 view .LVU1736
 7028 0006 4FF60B75 		movw	r5, #65291
 7029 000a 6FF0F413 		mvn	r3, #15991028
 7030              	.LBE1943:
ARM GAS  C:\Users\skipi\AppData\Local\Temp\ccs8qXFk.s 			page 202


 7031              	.LBE1946:
   8:main.cpp      **** DaisySeed      hw;
 7032              		.loc 9 8 16 view .LVU1737
 7033 000e 1D4A     		ldr	r2, .L450+4
 7034              	.LBB1947:
 7035              	.LBB1944:
  21:../../libs/PoliTeKDSP/libs/libDaisy/src/daisy_seed.h ****     ~DaisySeed() {}
 7036              		.loc 3 21 17 view .LVU1738
 7037 0010 C360     		str	r3, [r0, #12]
 7038              	.LBE1944:
 7039              	.LBE1947:
   8:main.cpp      **** DaisySeed      hw;
 7040              		.loc 9 8 16 view .LVU1739
 7041 0012 1D49     		ldr	r1, .L450+8
 7042              	.LBB1948:
 7043              	.LBB1945:
 7044              	.LBB1933:
 7045              	.LBB1866:
 7046              	.LBB1865:
 7047              		.loc 18 167 34 view .LVU1740
 7048 0014 0460     		str	r4, [r0]
 7049              	.LBE1865:
 7050              	.LBE1866:
 7051              	.LBE1933:
 7052              	.LBB1934:
 7053              	.LBB1876:
 7054              	.LBB1877:
  87:../../libs/PoliTeKDSP/libs/libDaisy/src/hid/audio.h ****     ~AudioHandle() {}
 7055              		.loc 8 87 35 view .LVU1741
 7056 0016 4461     		str	r4, [r0, #20]
 7057              	.LBE1877:
 7058              	.LBE1876:
 7059              	.LBE1934:
 7060              	.LBB1935:
 7061              	.LBB1880:
 7062              	.LBB1881:
 7063              		.loc 19 84 33 view .LVU1742
 7064 0018 0462     		str	r4, [r0, #32]
 7065              	.LBE1881:
 7066              	.LBE1880:
 7067              	.LBE1935:
 7068              	.LBB1936:
 7069              	.LBB1930:
 7070              	.LBB1931:
 7071              		.loc 21 109 33 view .LVU1743
 7072 001a 0467     		str	r4, [r0, #112]
 7073              	.LVL502:
 7074              		.loc 21 109 33 view .LVU1744
 7075              	.LBE1931:
 7076              	.LBE1930:
 7077              	.LBE1936:
  21:../../libs/PoliTeKDSP/libs/libDaisy/src/daisy_seed.h ****     ~DaisySeed() {}
 7078              		.loc 3 21 17 view .LVU1745
 7079 001c C0E90133 		strd	r3, r3, [r0, #4]
 7080              	.LBB1937:
 7081              	.LBB1895:
 7082              	.LBB1893:
ARM GAS  C:\Users\skipi\AppData\Local\Temp\ccs8qXFk.s 			page 203


 7083              	.LBB1891:
 7084              	.LBB1889:
  69:../../libs/PoliTeKDSP/libs/libDaisy/src/per/gpio.h ****         {
 7085              		.loc 20 69 73 view .LVU1746
 7086 0020 C0E90A54 		strd	r5, r4, [r0, #40]
 7087              	.LBE1889:
 7088              	.LBE1891:
 7089              	.LBE1893:
 7090              	.LBE1895:
 7091              	.LBE1937:
 7092              	.LBB1938:
 7093              	.LBB1909:
 7094              	.LBB1907:
 7095              	.LBB1905:
 7096              	.LBB1903:
 7097 0024 C0E90F54 		strd	r5, r4, [r0, #60]
 7098              	.LBE1903:
 7099              	.LBE1905:
 7100              	.LBE1907:
 7101              	.LBE1909:
 7102              	.LBE1938:
 7103              	.LBB1939:
 7104              	.LBB1927:
 7105              	.LBB1925:
 7106              	.LBB1923:
 7107              	.LBB1921:
 7108              	.LBB1919:
 7109 0028 C0E91654 		strd	r5, r4, [r0, #88]
 7110              	.LBE1919:
 7111              	.LBE1921:
 7112              	.LBE1923:
 7113              	.LBE1925:
 7114              	.LBE1927:
 7115              	.LBE1939:
 7116              	.LBB1940:
 7117              	.LBB1896:
 7118              	.LBB1894:
 7119              	.LBB1892:
 7120              	.LBB1890:
 7121 002c C0E90C44 		strd	r4, r4, [r0, #48]
 7122              	.LBE1890:
 7123              	.LBE1892:
 7124              	.LBE1894:
 7125              	.LBE1896:
 7126              	.LBE1940:
 7127              	.LBB1941:
 7128              	.LBB1910:
 7129              	.LBB1908:
 7130              	.LBB1906:
 7131              	.LBB1904:
 7132 0030 C0E91144 		strd	r4, r4, [r0, #68]
 7133              	.LBE1904:
 7134              	.LBE1906:
 7135              	.LBE1908:
 7136              	.LBE1910:
 7137              	.LBE1941:
 7138              	.LBB1942:
ARM GAS  C:\Users\skipi\AppData\Local\Temp\ccs8qXFk.s 			page 204


 7139              	.LBB1928:
 7140              	.LBB1926:
 7141              	.LBB1924:
 7142              	.LBB1922:
 7143              	.LBB1920:
 7144 0034 C0E91844 		strd	r4, r4, [r0, #96]
 7145              	.LBE1920:
 7146              	.LBE1922:
 7147              	.LBE1924:
 7148              	.LBE1926:
 7149              	.LBE1928:
 7150              	.LBE1942:
 7151              	.LBE1945:
 7152              	.LBE1948:
   8:main.cpp      **** DaisySeed      hw;
 7153              		.loc 9 8 16 view .LVU1747
 7154 0038 FFF7FEFF 		bl	__aeabi_atexit
 7155              	.LVL503:
 7156              	.LBB1949:
 7157              	.LBI1949:
  20:../../libs/PoliTeKDSP/libs/libDaisy/src/hid/encoder.h ****     ~Encoder() {}
 7158              		.loc 1 20 5 is_stmt 1 view .LVU1748
 7159              	.LBB1950:
 7160              	.LBB1951:
 7161              	.LBI1951:
  33:../../libs/PoliTeKDSP/libs/libDaisy/src/hid/switch.h ****     ~Switch() {}
 7162              		.loc 2 33 5 view .LVU1749
 7163              	.LBB1952:
 7164              	.LBB1953:
 7165              	.LBI1953:
 7166              		.loc 20 74 5 view .LVU1750
 7167              	.LBB1954:
 7168              	.LBB1955:
 7169              	.LBI1955:
  68:../../libs/PoliTeKDSP/libs/libDaisy/src/per/gpio.h ****         : pin(), mode(Mode::INPUT), pull(Pull::NOPULL), speed(Speed::LOW)
 7170              		.loc 20 68 9 view .LVU1751
 7171              	.LBB1956:
 7172              	.LBB1957:
 7173              	.LBB1958:
 7174              	.LBI1958:
 7175              		.loc 16 204 15 view .LVU1752
 7176              		.loc 16 204 15 is_stmt 0 view .LVU1753
 7177              	.LBE1958:
 7178              	.LBE1957:
 7179              	.LBE1956:
 7180              	.LBE1955:
 7181              	.LBE1954:
 7182              	.LBE1953:
 7183              	.LBE1952:
 7184              	.LBE1951:
 7185              	.LBB1971:
 7186              	.LBI1971:
 7187              		.loc 20 74 5 is_stmt 1 view .LVU1754
 7188              	.LBB1972:
 7189              	.LBB1973:
 7190              	.LBI1973:
  68:../../libs/PoliTeKDSP/libs/libDaisy/src/per/gpio.h ****         : pin(), mode(Mode::INPUT), pull(Pull::NOPULL), speed(Speed::LOW)
ARM GAS  C:\Users\skipi\AppData\Local\Temp\ccs8qXFk.s 			page 205


 7191              		.loc 20 68 9 view .LVU1755
 7192              	.LBB1974:
 7193              	.LBB1975:
 7194              	.LBB1976:
 7195              	.LBI1976:
 7196              		.loc 16 204 15 view .LVU1756
 7197              		.loc 16 204 15 is_stmt 0 view .LVU1757
 7198              	.LBE1976:
 7199              	.LBE1975:
 7200              	.LBE1974:
 7201              	.LBE1973:
 7202              	.LBE1972:
 7203              	.LBE1971:
 7204              	.LBB1985:
 7205              	.LBI1985:
 7206              		.loc 20 74 5 is_stmt 1 view .LVU1758
 7207              	.LBB1986:
 7208              	.LBB1987:
 7209              	.LBI1987:
  68:../../libs/PoliTeKDSP/libs/libDaisy/src/per/gpio.h ****         : pin(), mode(Mode::INPUT), pull(Pull::NOPULL), speed(Speed::LOW)
 7210              		.loc 20 68 9 view .LVU1759
 7211              	.LBB1988:
 7212              	.LBB1989:
 7213              	.LBB1990:
 7214              	.LBI1990:
 7215              		.loc 16 204 15 view .LVU1760
 7216              		.loc 16 204 15 is_stmt 0 view .LVU1761
 7217              	.LBE1990:
 7218              	.LBE1989:
 7219              	.LBE1988:
 7220              	.LBE1987:
 7221              	.LBE1986:
 7222              	.LBE1985:
  20:../../libs/PoliTeKDSP/libs/libDaisy/src/hid/encoder.h ****     ~Encoder() {}
 7223              		.loc 1 20 15 view .LVU1762
 7224 003c 1348     		ldr	r0, .L450+12
 7225              	.LBE1950:
 7226              	.LBE1949:
   9:main.cpp      **** Encoder        enc;
 7227              		.loc 9 9 16 view .LVU1763
 7228 003e 114A     		ldr	r2, .L450+4
 7229 0040 1349     		ldr	r1, .L450+16
 7230              	.LBB2006:
 7231              	.LBB2005:
 7232              	.LBB1999:
 7233              	.LBB1969:
 7234              	.LBB1967:
 7235              	.LBB1965:
 7236              	.LBB1963:
 7237              	.LBB1961:
 7238              	.LBB1959:
  69:../../libs/PoliTeKDSP/libs/libDaisy/src/per/gpio.h ****         {
 7239              		.loc 20 69 73 view .LVU1764
 7240 0042 C0E90454 		strd	r5, r4, [r0, #16]
 7241              	.LBE1959:
 7242              	.LBE1961:
 7243              	.LBE1963:
ARM GAS  C:\Users\skipi\AppData\Local\Temp\ccs8qXFk.s 			page 206


 7244              	.LBE1965:
 7245              	.LBE1967:
 7246              	.LBE1969:
 7247              	.LBE1999:
 7248              	.LBB2000:
 7249              	.LBB1983:
 7250              	.LBB1981:
 7251              	.LBB1979:
 7252              	.LBB1977:
 7253 0046 C0E90B54 		strd	r5, r4, [r0, #44]
 7254              	.LBE1977:
 7255              	.LBE1979:
 7256              	.LBE1981:
 7257              	.LBE1983:
 7258              	.LBE2000:
 7259              	.LBB2001:
 7260              	.LBB1997:
 7261              	.LBB1995:
 7262              	.LBB1993:
 7263              	.LBB1991:
 7264 004a C0E91054 		strd	r5, r4, [r0, #64]
 7265              	.LBE1991:
 7266              	.LBE1993:
 7267              	.LBE1995:
 7268              	.LBE1997:
 7269              	.LBE2001:
 7270              	.LBB2002:
 7271              	.LBB1970:
 7272              	.LBB1968:
 7273              	.LBB1966:
 7274              	.LBB1964:
 7275              	.LBB1962:
 7276              	.LBB1960:
 7277 004e C0E90644 		strd	r4, r4, [r0, #24]
 7278              	.LBE1960:
 7279              	.LBE1962:
 7280              	.LBE1964:
 7281              	.LBE1966:
 7282              	.LBE1968:
 7283              	.LBE1970:
 7284              	.LBE2002:
 7285              	.LBB2003:
 7286              	.LBB1984:
 7287              	.LBB1982:
 7288              	.LBB1980:
 7289              	.LBB1978:
 7290 0052 C0E90D44 		strd	r4, r4, [r0, #52]
 7291              	.LBE1978:
 7292              	.LBE1980:
 7293              	.LBE1982:
 7294              	.LBE1984:
 7295              	.LBE2003:
 7296              	.LBB2004:
 7297              	.LBB1998:
 7298              	.LBB1996:
 7299              	.LBB1994:
 7300              	.LBB1992:
ARM GAS  C:\Users\skipi\AppData\Local\Temp\ccs8qXFk.s 			page 207


 7301 0056 C0E91244 		strd	r4, r4, [r0, #72]
 7302              	.LVL504:
  69:../../libs/PoliTeKDSP/libs/libDaisy/src/per/gpio.h ****         {
 7303              		.loc 20 69 73 view .LVU1765
 7304              	.LBE1992:
 7305              	.LBE1994:
 7306              	.LBE1996:
 7307              	.LBE1998:
 7308              	.LBE2004:
 7309              	.LBE2005:
 7310              	.LBE2006:
   9:main.cpp      **** Encoder        enc;
 7311              		.loc 9 9 16 view .LVU1766
 7312 005a FFF7FEFF 		bl	__aeabi_atexit
 7313              	.LVL505:
 7314              	.LBB2007:
 7315              	.LBI2007:
  17:../../libs/PoliTeKDSP/libs/libDaisy/src/hid/disp/oled_display.h ****     virtual ~OledDisplay() {}
 7316              		.loc 10 17 5 is_stmt 1 view .LVU1767
 7317              	.LBB2008:
 7318              	.LBB2009:
 7319              	.LBB2010:
 7320              	.LBI2010:
 223:../../libs/PoliTeKDSP/libs/libDaisy/src/hid/disp/display.h ****     virtual ~OneBitGraphicsDisplayImpl() {}
 7321              		.loc 11 223 5 view .LVU1768
 7322              	.LBB2011:
 7323              	.LBI2011:
  22:../../libs/PoliTeKDSP/libs/libDaisy/src/hid/disp/display.h ****     virtual ~OneBitGraphicsDisplay() {}
 7324              		.loc 11 22 5 view .LVU1769
  22:../../libs/PoliTeKDSP/libs/libDaisy/src/hid/disp/display.h ****     virtual ~OneBitGraphicsDisplay() {}
 7325              		.loc 11 22 5 is_stmt 0 view .LVU1770
 7326              	.LBE2011:
 7327              	.LBE2010:
  17:../../libs/PoliTeKDSP/libs/libDaisy/src/hid/disp/oled_display.h ****     virtual ~OledDisplay() {}
 7328              		.loc 10 17 19 view .LVU1771
 7329 005e 0D4D     		ldr	r5, .L450+20
 7330 0060 0D4B     		ldr	r3, .L450+24
 7331              	.LBE2009:
 7332              	.LBE2008:
 7333              	.LBE2007:
  11:main.cpp      **** MyOledDisplay  disp;
 7334              		.loc 9 11 16 view .LVU1772
 7335 0062 084A     		ldr	r2, .L450+4
 7336 0064 2846     		mov	r0, r5
 7337 0066 0D49     		ldr	r1, .L450+28
 7338              	.LBB2019:
 7339              	.LBB2018:
 7340              	.LBB2017:
  17:../../libs/PoliTeKDSP/libs/libDaisy/src/hid/disp/oled_display.h ****     virtual ~OledDisplay() {}
 7341              		.loc 10 17 19 view .LVU1773
 7342 0068 2B60     		str	r3, [r5]
 7343              	.LVL506:
 7344              	.LBB2012:
 7345              	.LBI2012:
 254:../../libs/PoliTeKDSP/libs/libDaisy/src/dev/oled_ssd130x.h **** {
 7346              		.loc 12 254 7 is_stmt 1 view .LVU1774
 7347              	.LBB2013:
ARM GAS  C:\Users\skipi\AppData\Local\Temp\ccs8qXFk.s 			page 208


 7348              	.LBI2013:
  16:../../libs/PoliTeKDSP/libs/libDaisy/src/dev/oled_ssd130x.h **** {
 7349              		.loc 12 16 7 view .LVU1775
 7350              	.LBB2014:
 7351              	.LBI2014:
  60:../../libs/PoliTeKDSP/libs/libDaisy/src/per/i2c.h ****             Pin scl;  /**< & */
  61:../../libs/PoliTeKDSP/libs/libDaisy/src/per/i2c.h ****             Pin sda;  /**< & */
  62:../../libs/PoliTeKDSP/libs/libDaisy/src/per/i2c.h ****         } pin_config; /**< & */
  63:../../libs/PoliTeKDSP/libs/libDaisy/src/per/i2c.h **** 
  64:../../libs/PoliTeKDSP/libs/libDaisy/src/per/i2c.h ****         Speed speed; /**< & */
  65:../../libs/PoliTeKDSP/libs/libDaisy/src/per/i2c.h ****         Mode  mode;  /**< & */
  66:../../libs/PoliTeKDSP/libs/libDaisy/src/per/i2c.h ****         // 0x10 is chosen as a default to avoid conflicts with reserved addresses
  67:../../libs/PoliTeKDSP/libs/libDaisy/src/per/i2c.h ****         uint8_t address = 0x10; /**< & */
  68:../../libs/PoliTeKDSP/libs/libDaisy/src/per/i2c.h ****     };
  69:../../libs/PoliTeKDSP/libs/libDaisy/src/per/i2c.h **** 
  70:../../libs/PoliTeKDSP/libs/libDaisy/src/per/i2c.h ****     /** Return values for I2C functions. */
  71:../../libs/PoliTeKDSP/libs/libDaisy/src/per/i2c.h ****     enum class Result
  72:../../libs/PoliTeKDSP/libs/libDaisy/src/per/i2c.h ****     {
  73:../../libs/PoliTeKDSP/libs/libDaisy/src/per/i2c.h ****         OK, /**< & */
  74:../../libs/PoliTeKDSP/libs/libDaisy/src/per/i2c.h ****         ERR /**< & */
  75:../../libs/PoliTeKDSP/libs/libDaisy/src/per/i2c.h ****     };
  76:../../libs/PoliTeKDSP/libs/libDaisy/src/per/i2c.h **** 
  77:../../libs/PoliTeKDSP/libs/libDaisy/src/per/i2c.h ****     enum class Direction
  78:../../libs/PoliTeKDSP/libs/libDaisy/src/per/i2c.h ****     {
  79:../../libs/PoliTeKDSP/libs/libDaisy/src/per/i2c.h ****         TRANSMIT, /**< & */
  80:../../libs/PoliTeKDSP/libs/libDaisy/src/per/i2c.h ****         RECEIVE,  /**< & */
  81:../../libs/PoliTeKDSP/libs/libDaisy/src/per/i2c.h ****     };
  82:../../libs/PoliTeKDSP/libs/libDaisy/src/per/i2c.h **** 
  83:../../libs/PoliTeKDSP/libs/libDaisy/src/per/i2c.h ****     I2CHandle() : pimpl_(nullptr) {}
 7352              		.loc 15 83 5 view .LVU1776
 7353              	.LBB2015:
 7354              	.LBB2016:
 7355              		.loc 15 83 33 is_stmt 0 view .LVU1777
 7356 006a AC60     		str	r4, [r5, #8]
 7357              	.LVL507:
 7358              		.loc 15 83 33 view .LVU1778
 7359              	.LBE2016:
 7360              	.LBE2015:
 7361              	.LBE2014:
 7362              	.LBE2013:
 7363              	.LBE2012:
 7364              	.LBE2017:
 7365              	.LBE2018:
 7366              	.LBE2019:
  11:main.cpp      **** MyOledDisplay  disp;
 7367              		.loc 9 11 16 view .LVU1779
 7368 006c FFF7FEFF 		bl	__aeabi_atexit
 7369              	.LVL508:
  12:main.cpp      **** DisplayHandler disp_handle(&disp);
 7370              		.loc 9 12 33 view .LVU1780
 7371 0070 2946     		mov	r1, r5
 7372 0072 0122     		movs	r2, #1
 7373 0074 0A48     		ldr	r0, .L450+32
 7374              	.LBE2020:
 7375              	.LBE2022:
 7376              		.loc 9 100 1 view .LVU1781
 7377 0076 BDE83840 		pop	{r3, r4, r5, lr}
ARM GAS  C:\Users\skipi\AppData\Local\Temp\ccs8qXFk.s 			page 209


 7378              		.cfi_restore 14
 7379              		.cfi_restore 5
 7380              		.cfi_restore 4
 7381              		.cfi_restore 3
 7382              		.cfi_def_cfa_offset 0
 7383              	.LBB2023:
 7384              	.LBB2021:
  12:main.cpp      **** DisplayHandler disp_handle(&disp);
 7385              		.loc 9 12 33 view .LVU1782
 7386 007a FFF7FEBF 		b	_ZN14DisplayHandlerC1EPN5daisy11OledDisplayINS0_13SSD130xDriverILj128ELj64ENS0_19SSD130xI2CTrans
 7387              	.LVL509:
 7388              	.L451:
 7389 007e 00BF     		.align	2
 7390              	.L450:
 7391 0080 00000000 		.word	.LANCHOR0
 7392 0084 00000000 		.word	__dso_handle
 7393 0088 00000000 		.word	_ZN5daisy9DaisySeedD1Ev
 7394 008c 00000000 		.word	.LANCHOR1
 7395 0090 00000000 		.word	_ZN5daisy7EncoderD1Ev
 7396 0094 00000000 		.word	.LANCHOR3
 7397 0098 08000000 		.word	_ZTVN5daisy11OledDisplayINS_13SSD130xDriverILj128ELj64ENS_19SSD130xI2CTransportEEEEE+8
 7398 009c 00000000 		.word	_ZN5daisy11OledDisplayINS_13SSD130xDriverILj128ELj64ENS_19SSD130xI2CTransportEEEED1Ev
 7399 00a0 00000000 		.word	.LANCHOR4
 7400              	.LBE2021:
 7401              	.LBE2023:
 7402              		.cfi_endproc
 7403              	.LFE2854:
 7405              		.section	.init_array,"aw",%init_array
 7406              		.align	2
 7407 0000 00000000 		.word	_GLOBAL__sub_I_hw(target1)
 7408              		.weak	_ZTVN5daisy11OledDisplayINS_13SSD130xDriverILj128ELj64ENS_19SSD130xI2CTransportEEEEE
 7409              		.section	.rodata._ZTVN5daisy11OledDisplayINS_13SSD130xDriverILj128ELj64ENS_19SSD130xI2CTransportEE
 7410              		.align	2
 7413              	_ZTVN5daisy11OledDisplayINS_13SSD130xDriverILj128ELj64ENS_19SSD130xI2CTransportEEEEE:
 7414 0000 00000000 		.word	0
 7415 0004 00000000 		.word	0
 7416 0008 00000000 		.word	_ZN5daisy11OledDisplayINS_13SSD130xDriverILj128ELj64ENS_19SSD130xI2CTransportEEEED1Ev
 7417 000c 00000000 		.word	_ZN5daisy11OledDisplayINS_13SSD130xDriverILj128ELj64ENS_19SSD130xI2CTransportEEEED0Ev
 7418 0010 00000000 		.word	_ZNK5daisy11OledDisplayINS_13SSD130xDriverILj128ELj64ENS_19SSD130xI2CTransportEEEE6HeightEv
 7419 0014 00000000 		.word	_ZNK5daisy11OledDisplayINS_13SSD130xDriverILj128ELj64ENS_19SSD130xI2CTransportEEEE5WidthEv
 7420 0018 00000000 		.word	_ZN5daisy11OledDisplayINS_13SSD130xDriverILj128ELj64ENS_19SSD130xI2CTransportEEEE4FillEb
 7421 001c 00000000 		.word	_ZN5daisy11OledDisplayINS_13SSD130xDriverILj128ELj64ENS_19SSD130xI2CTransportEEEE9DrawPixelE
 7422 0020 00000000 		.word	_ZN5daisy25OneBitGraphicsDisplayImplINS_11OledDisplayINS_13SSD130xDriverILj128ELj64ENS_19SSD
 7423 0024 00000000 		.word	_ZN5daisy25OneBitGraphicsDisplayImplINS_11OledDisplayINS_13SSD130xDriverILj128ELj64ENS_19SSD
 7424 0028 00000000 		.word	_ZN5daisy25OneBitGraphicsDisplayImplINS_11OledDisplayINS_13SSD130xDriverILj128ELj64ENS_19SSD
 7425 002c 00000000 		.word	_ZN5daisy25OneBitGraphicsDisplayImplINS_11OledDisplayINS_13SSD130xDriverILj128ELj64ENS_19SSD
 7426 0030 00000000 		.word	_ZN5daisy25OneBitGraphicsDisplayImplINS_11OledDisplayINS_13SSD130xDriverILj128ELj64ENS_19SSD
 7427 0034 00000000 		.word	_ZN5daisy25OneBitGraphicsDisplayImplINS_11OledDisplayINS_13SSD130xDriverILj128ELj64ENS_19SSD
 7428 0038 00000000 		.word	_ZN5daisy11OledDisplayINS_13SSD130xDriverILj128ELj64ENS_19SSD130xI2CTransportEEEE6UpdateEv
 7429 003c 00000000 		.word	_ZN5daisy11OledDisplayINS_13SSD130xDriverILj128ELj64ENS_19SSD130xI2CTransportEEEE14UpdateFin
 7430              		.global	disp_handle
 7431              		.global	disp
 7432              		.global	menu
 7433              		.global	enc
 7434              		.global	hw
 7435              		.section	.bss.disp,"aw",%nobits
 7436              		.align	2
ARM GAS  C:\Users\skipi\AppData\Local\Temp\ccs8qXFk.s 			page 210


 7437              		.set	.LANCHOR3,. + 0
 7440              	disp:
 7441 0000 00000000 		.space	1040
 7441      00000000 
 7441      00000000 
 7441      00000000 
 7441      00000000 
 7442              		.section	.bss.disp_handle,"aw",%nobits
 7443              		.align	2
 7444              		.set	.LANCHOR4,. + 0
 7447              	disp_handle:
 7448 0000 00000000 		.space	2072
 7448      00000000 
 7448      00000000 
 7448      00000000 
 7448      00000000 
 7449              		.section	.bss.enc,"aw",%nobits
 7450              		.align	2
 7451              		.set	.LANCHOR1,. + 0
 7454              	enc:
 7455 0000 00000000 		.space	92
 7455      00000000 
 7455      00000000 
 7455      00000000 
 7455      00000000 
 7456              		.section	.bss.hw,"aw",%nobits
 7457              		.align	2
 7458              		.set	.LANCHOR0,. + 0
 7461              	hw:
 7462 0000 00000000 		.space	116
 7462      00000000 
 7462      00000000 
 7462      00000000 
 7462      00000000 
 7463              		.section	.bss.menu,"aw",%nobits
 7464              		.align	2
 7465              		.set	.LANCHOR2,. + 0
 7468              	menu:
 7469 0000 00000000 		.space	56
 7469      00000000 
 7469      00000000 
 7469      00000000 
 7469      00000000 
 7470              		.text
 7471              	.Letext0:
 7472              		.file 22 "c:\\program files\\daisytoolchain\\arm-none-eabi\\include\\machine\\_default_types.h"
 7473              		.file 23 "c:\\program files\\daisytoolchain\\arm-none-eabi\\include\\sys\\_stdint.h"
 7474              		.file 24 "c:\\program files\\daisytoolchain\\arm-none-eabi\\include\\stdint.h"
 7475              		.file 25 "c:\\program files\\daisytoolchain\\lib\\gcc\\arm-none-eabi\\10.2.1\\include\\stddef.h"
 7476              		.file 26 "c:\\program files\\daisytoolchain\\arm-none-eabi\\include\\c++\\10.2.1\\bits\\std_abs.h"
 7477              		.file 27 "c:\\program files\\daisytoolchain\\arm-none-eabi\\include\\c++\\10.2.1\\cstdlib"
 7478              		.file 28 "c:\\program files\\daisytoolchain\\arm-none-eabi\\include\\c++\\10.2.1\\cstdint"
 7479              		.file 29 "c:\\program files\\daisytoolchain\\arm-none-eabi\\include\\c++\\10.2.1\\type_traits"
 7480              		.file 30 "c:\\program files\\daisytoolchain\\arm-none-eabi\\include\\c++\\10.2.1\\debug\\debug.h"
 7481              		.file 31 "c:\\program files\\daisytoolchain\\arm-none-eabi\\include\\c++\\10.2.1\\arm-none-eabi\\t
 7482              		.file 32 "c:\\program files\\daisytoolchain\\arm-none-eabi\\include\\c++\\10.2.1\\bits\\algorithmf
 7483              		.file 33 "c:\\program files\\daisytoolchain\\arm-none-eabi\\include\\c++\\10.2.1\\bits\\stl_pair.h
ARM GAS  C:\Users\skipi\AppData\Local\Temp\ccs8qXFk.s 			page 211


 7484              		.file 34 "c:\\program files\\daisytoolchain\\arm-none-eabi\\include\\c++\\10.2.1\\bits\\exception_
 7485              		.file 35 "c:\\program files\\daisytoolchain\\arm-none-eabi\\include\\c++\\10.2.1\\cstdarg"
 7486              		.file 36 "c:\\program files\\daisytoolchain\\arm-none-eabi\\include\\c++\\10.2.1\\cstdio"
 7487              		.file 37 "c:\\program files\\daisytoolchain\\arm-none-eabi\\include\\c++\\10.2.1\\cstring"
 7488              		.file 38 "c:\\program files\\daisytoolchain\\arm-none-eabi\\include\\c++\\10.2.1\\cstddef"
 7489              		.file 39 "c:\\program files\\daisytoolchain\\arm-none-eabi\\include\\c++\\10.2.1\\bits\\predefined
 7490              		.file 40 "c:\\program files\\daisytoolchain\\arm-none-eabi\\include\\sys\\_types.h"
 7491              		.file 41 "c:\\program files\\daisytoolchain\\arm-none-eabi\\include\\sys\\reent.h"
 7492              		.file 42 "c:\\program files\\daisytoolchain\\arm-none-eabi\\include\\sys\\lock.h"
 7493              		.file 43 "c:\\program files\\daisytoolchain\\arm-none-eabi\\include\\math.h"
 7494              		.file 44 "c:\\program files\\daisytoolchain\\arm-none-eabi\\include\\stdlib.h"
 7495              		.file 45 "c:\\program files\\daisytoolchain\\arm-none-eabi\\include\\c++\\10.2.1\\math.h"
 7496              		.file 46 "c:\\program files\\daisytoolchain\\arm-none-eabi\\include\\c++\\10.2.1\\stdlib.h"
 7497              		.file 47 "../../libs/PoliTeKDSP/libs/libDaisy/src/per/tim.h"
 7498              		.file 48 "../../libs/PoliTeKDSP/libs/libDaisy/src/dev/max11300.h"
 7499              		.file 49 "../../libs/PoliTeKDSP/libs/libDaisy/src/dev/sr_595.h"
 7500              		.file 50 "../../libs/PoliTeKDSP/libs/libDaisy/src/util/wav_format.h"
 7501              		.file 51 "../../libs/PoliTeKDSP/libs/libDaisy/src/dev/sdram.h"
 7502              		.file 52 "c:\\program files\\daisytoolchain\\lib\\gcc\\arm-none-eabi\\10.2.1\\include\\stdarg.h"
 7503              		.file 53 "c:\\program files\\daisytoolchain\\arm-none-eabi\\include\\stdio.h"
 7504              		.file 54 "../../libs/PoliTeKDSP/libs/libDaisy/src/util/oled_fonts.h"
 7505              		.file 55 "c:\\program files\\daisytoolchain\\arm-none-eabi\\include\\string.h"
 7506              		.file 56 "../../libs/PoliTeKDSP/libs/libDaisy/Middlewares/Third_Party/FatFs/src/integer.h"
 7507              		.file 57 "../../libs/PoliTeKDSP/libs/libDaisy/Middlewares/Third_Party/FatFs/src/ff.h"
 7508              		.file 58 "displayHandler.h"
 7509              		.file 59 "<built-in>"
 7510              		.file 60 "c:\\program files\\daisytoolchain\\arm-none-eabi\\include\\c++\\10.2.1\\new"
ARM GAS  C:\Users\skipi\AppData\Local\Temp\ccs8qXFk.s 			page 212


DEFINED SYMBOLS
                            *ABS*:00000000 main.cpp
C:\Users\skipi\AppData\Local\Temp\ccs8qXFk.s:17     .text._ZN5daisy7EncoderD2Ev:00000000 $t
C:\Users\skipi\AppData\Local\Temp\ccs8qXFk.s:26     .text._ZN5daisy7EncoderD2Ev:00000000 _ZN5daisy7EncoderD2Ev
C:\Users\skipi\AppData\Local\Temp\ccs8qXFk.s:26     .text._ZN5daisy7EncoderD2Ev:00000000 _ZN5daisy7EncoderD1Ev
C:\Users\skipi\AppData\Local\Temp\ccs8qXFk.s:49     .text._ZN5daisy9DaisySeedD2Ev:00000000 $t
C:\Users\skipi\AppData\Local\Temp\ccs8qXFk.s:57     .text._ZN5daisy9DaisySeedD2Ev:00000000 _ZN5daisy9DaisySeedD2Ev
C:\Users\skipi\AppData\Local\Temp\ccs8qXFk.s:57     .text._ZN5daisy9DaisySeedD2Ev:00000000 _ZN5daisy9DaisySeedD1Ev
C:\Users\skipi\AppData\Local\Temp\ccs8qXFk.s:104    .text._Z13AudioCallbackPKPKfPPfj:00000000 $t
C:\Users\skipi\AppData\Local\Temp\ccs8qXFk.s:112    .text._Z13AudioCallbackPKPKfPPfj:00000000 _Z13AudioCallbackPKPKfPPfj
C:\Users\skipi\AppData\Local\Temp\ccs8qXFk.s:208    .text._ZN5daisy11OledDisplayINS_13SSD130xDriverILj128ELj64ENS_19SSD130xI2CTransportEEEED2Ev:00000000 $t
C:\Users\skipi\AppData\Local\Temp\ccs8qXFk.s:216    .text._ZN5daisy11OledDisplayINS_13SSD130xDriverILj128ELj64ENS_19SSD130xI2CTransportEEEED2Ev:00000000 _ZN5daisy11OledDisplayINS_13SSD130xDriverILj128ELj64ENS_19SSD130xI2CTransportEEEED2Ev
C:\Users\skipi\AppData\Local\Temp\ccs8qXFk.s:216    .text._ZN5daisy11OledDisplayINS_13SSD130xDriverILj128ELj64ENS_19SSD130xI2CTransportEEEED2Ev:00000000 _ZN5daisy11OledDisplayINS_13SSD130xDriverILj128ELj64ENS_19SSD130xI2CTransportEEEED1Ev
C:\Users\skipi\AppData\Local\Temp\ccs8qXFk.s:243    .text._ZNK5daisy11OledDisplayINS_13SSD130xDriverILj128ELj64ENS_19SSD130xI2CTransportEEEE6HeightEv:00000000 $t
C:\Users\skipi\AppData\Local\Temp\ccs8qXFk.s:251    .text._ZNK5daisy11OledDisplayINS_13SSD130xDriverILj128ELj64ENS_19SSD130xI2CTransportEEEE6HeightEv:00000000 _ZNK5daisy11OledDisplayINS_13SSD130xDriverILj128ELj64ENS_19SSD130xI2CTransportEEEE6HeightEv
C:\Users\skipi\AppData\Local\Temp\ccs8qXFk.s:268    .text._ZNK5daisy11OledDisplayINS_13SSD130xDriverILj128ELj64ENS_19SSD130xI2CTransportEEEE5WidthEv:00000000 $t
C:\Users\skipi\AppData\Local\Temp\ccs8qXFk.s:276    .text._ZNK5daisy11OledDisplayINS_13SSD130xDriverILj128ELj64ENS_19SSD130xI2CTransportEEEE5WidthEv:00000000 _ZNK5daisy11OledDisplayINS_13SSD130xDriverILj128ELj64ENS_19SSD130xI2CTransportEEEE5WidthEv
C:\Users\skipi\AppData\Local\Temp\ccs8qXFk.s:293    .text._ZN5daisy11OledDisplayINS_13SSD130xDriverILj128ELj64ENS_19SSD130xI2CTransportEEEE4FillEb:00000000 $t
C:\Users\skipi\AppData\Local\Temp\ccs8qXFk.s:301    .text._ZN5daisy11OledDisplayINS_13SSD130xDriverILj128ELj64ENS_19SSD130xI2CTransportEEEE4FillEb:00000000 _ZN5daisy11OledDisplayINS_13SSD130xDriverILj128ELj64ENS_19SSD130xI2CTransportEEEE4FillEb
C:\Users\skipi\AppData\Local\Temp\ccs8qXFk.s:333    .text._ZN5daisy11OledDisplayINS_13SSD130xDriverILj128ELj64ENS_19SSD130xI2CTransportEEEE14UpdateFinishedEv:00000000 $t
C:\Users\skipi\AppData\Local\Temp\ccs8qXFk.s:341    .text._ZN5daisy11OledDisplayINS_13SSD130xDriverILj128ELj64ENS_19SSD130xI2CTransportEEEE14UpdateFinishedEv:00000000 _ZN5daisy11OledDisplayINS_13SSD130xDriverILj128ELj64ENS_19SSD130xI2CTransportEEEE14UpdateFinishedEv
C:\Users\skipi\AppData\Local\Temp\ccs8qXFk.s:358    .text._ZN5daisy11OledDisplayINS_13SSD130xDriverILj128ELj64ENS_19SSD130xI2CTransportEEEED0Ev:00000000 $t
C:\Users\skipi\AppData\Local\Temp\ccs8qXFk.s:366    .text._ZN5daisy11OledDisplayINS_13SSD130xDriverILj128ELj64ENS_19SSD130xI2CTransportEEEED0Ev:00000000 _ZN5daisy11OledDisplayINS_13SSD130xDriverILj128ELj64ENS_19SSD130xI2CTransportEEEED0Ev
C:\Users\skipi\AppData\Local\Temp\ccs8qXFk.s:406    .text._ZN5daisy11OledDisplayINS_13SSD130xDriverILj128ELj64ENS_19SSD130xI2CTransportEEEE6UpdateEv:00000000 $t
C:\Users\skipi\AppData\Local\Temp\ccs8qXFk.s:414    .text._ZN5daisy11OledDisplayINS_13SSD130xDriverILj128ELj64ENS_19SSD130xI2CTransportEEEE6UpdateEv:00000000 _ZN5daisy11OledDisplayINS_13SSD130xDriverILj128ELj64ENS_19SSD130xI2CTransportEEEE6UpdateEv
C:\Users\skipi\AppData\Local\Temp\ccs8qXFk.s:597    .text._ZN5daisy25OneBitGraphicsDisplayImplINS_11OledDisplayINS_13SSD130xDriverILj128ELj64ENS_19SSD130xI2CTransportEEEEEE11WriteStringEPKc7FontDefb:00000000 $t
C:\Users\skipi\AppData\Local\Temp\ccs8qXFk.s:605    .text._ZN5daisy25OneBitGraphicsDisplayImplINS_11OledDisplayINS_13SSD130xDriverILj128ELj64ENS_19SSD130xI2CTransportEEEEEE11WriteStringEPKc7FontDefb:00000000 _ZN5daisy25OneBitGraphicsDisplayImplINS_11OledDisplayINS_13SSD130xDriverILj128ELj64ENS_19SSD130xI2CTransportEEEEEE11WriteStringEPKc7FontDefb
C:\Users\skipi\AppData\Local\Temp\ccs8qXFk.s:1062   .text._ZN5daisy25OneBitGraphicsDisplayImplINS_11OledDisplayINS_13SSD130xDriverILj128ELj64ENS_19SSD130xI2CTransportEEEEEE11WriteStringEPKc7FontDefb:000001b8 $d
C:\Users\skipi\AppData\Local\Temp\ccs8qXFk.s:1072   .text._ZN5daisy25OneBitGraphicsDisplayImplINS_11OledDisplayINS_13SSD130xDriverILj128ELj64ENS_19SSD130xI2CTransportEEEEEE9WriteCharEc7FontDefb:00000000 $t
C:\Users\skipi\AppData\Local\Temp\ccs8qXFk.s:1080   .text._ZN5daisy25OneBitGraphicsDisplayImplINS_11OledDisplayINS_13SSD130xDriverILj128ELj64ENS_19SSD130xI2CTransportEEEEEE9WriteCharEc7FontDefb:00000000 _ZN5daisy25OneBitGraphicsDisplayImplINS_11OledDisplayINS_13SSD130xDriverILj128ELj64ENS_19SSD130xI2CTransportEEEEEE9WriteCharEc7FontDefb
C:\Users\skipi\AppData\Local\Temp\ccs8qXFk.s:1506   .text._ZN5daisy25OneBitGraphicsDisplayImplINS_11OledDisplayINS_13SSD130xDriverILj128ELj64ENS_19SSD130xI2CTransportEEEEEE9WriteCharEc7FontDefb:00000198 $d
C:\Users\skipi\AppData\Local\Temp\ccs8qXFk.s:1514   .text._ZN5daisy25OneBitGraphicsDisplayImplINS_11OledDisplayINS_13SSD130xDriverILj128ELj64ENS_19SSD130xI2CTransportEEEEEE18WriteStringAlignedEPKcRK7FontDefNS_9RectangleENS_9AlignmentEb:00000000 $t
C:\Users\skipi\AppData\Local\Temp\ccs8qXFk.s:1522   .text._ZN5daisy25OneBitGraphicsDisplayImplINS_11OledDisplayINS_13SSD130xDriverILj128ELj64ENS_19SSD130xI2CTransportEEEEEE18WriteStringAlignedEPKcRK7FontDefNS_9RectangleENS_9AlignmentEb:00000000 _ZN5daisy25OneBitGraphicsDisplayImplINS_11OledDisplayINS_13SSD130xDriverILj128ELj64ENS_19SSD130xI2CTransportEEEEEE18WriteStringAlignedEPKcRK7FontDefNS_9RectangleENS_9AlignmentEb
C:\Users\skipi\AppData\Local\Temp\ccs8qXFk.s:1661   .text._ZN5daisy25OneBitGraphicsDisplayImplINS_11OledDisplayINS_13SSD130xDriverILj128ELj64ENS_19SSD130xI2CTransportEEEEEE18WriteStringAlignedEPKcRK7FontDefNS_9RectangleENS_9AlignmentEb:00000046 $d
C:\Users\skipi\AppData\Local\Temp\ccs8qXFk.s:1670   .text._ZN5daisy25OneBitGraphicsDisplayImplINS_11OledDisplayINS_13SSD130xDriverILj128ELj64ENS_19SSD130xI2CTransportEEEEEE18WriteStringAlignedEPKcRK7FontDefNS_9RectangleENS_9AlignmentEb:00000058 $t
C:\Users\skipi\AppData\Local\Temp\ccs8qXFk.s:2878   .text._ZN5daisy25OneBitGraphicsDisplayImplINS_11OledDisplayINS_13SSD130xDriverILj128ELj64ENS_19SSD130xI2CTransportEEEEEE18WriteStringAlignedEPKcRK7FontDefNS_9RectangleENS_9AlignmentEb:00000320 $d
C:\Users\skipi\AppData\Local\Temp\ccs8qXFk.s:2887   .text._ZN5daisy25OneBitGraphicsDisplayImplINS_11OledDisplayINS_13SSD130xDriverILj128ELj64ENS_19SSD130xI2CTransportEEEEEE18WriteStringAlignedEPKcRK7FontDefNS_9RectangleENS_9AlignmentEb:00000328 $t
C:\Users\skipi\AppData\Local\Temp\ccs8qXFk.s:3198   .text._ZN5daisy25OneBitGraphicsDisplayImplINS_11OledDisplayINS_13SSD130xDriverILj128ELj64ENS_19SSD130xI2CTransportEEEEEE18WriteStringAlignedEPKcRK7FontDefNS_9RectangleENS_9AlignmentEb:000003e8 $d
C:\Users\skipi\AppData\Local\Temp\ccs8qXFk.s:3206   .text._ZN5daisy11OledDisplayINS_13SSD130xDriverILj128ELj64ENS_19SSD130xI2CTransportEEEE9DrawPixelEjjb:00000000 $t
C:\Users\skipi\AppData\Local\Temp\ccs8qXFk.s:3214   .text._ZN5daisy11OledDisplayINS_13SSD130xDriverILj128ELj64ENS_19SSD130xI2CTransportEEEE9DrawPixelEjjb:00000000 _ZN5daisy11OledDisplayINS_13SSD130xDriverILj128ELj64ENS_19SSD130xI2CTransportEEEE9DrawPixelEjjb
C:\Users\skipi\AppData\Local\Temp\ccs8qXFk.s:3291   .text._ZN5daisy25OneBitGraphicsDisplayImplINS_11OledDisplayINS_13SSD130xDriverILj128ELj64ENS_19SSD130xI2CTransportEEEEEE8DrawLineEjjjjb:00000000 $t
C:\Users\skipi\AppData\Local\Temp\ccs8qXFk.s:3299   .text._ZN5daisy25OneBitGraphicsDisplayImplINS_11OledDisplayINS_13SSD130xDriverILj128ELj64ENS_19SSD130xI2CTransportEEEEEE8DrawLineEjjjjb:00000000 _ZN5daisy25OneBitGraphicsDisplayImplINS_11OledDisplayINS_13SSD130xDriverILj128ELj64ENS_19SSD130xI2CTransportEEEEEE8DrawLineEjjjjb
C:\Users\skipi\AppData\Local\Temp\ccs8qXFk.s:3584   .text._ZN5daisy25OneBitGraphicsDisplayImplINS_11OledDisplayINS_13SSD130xDriverILj128ELj64ENS_19SSD130xI2CTransportEEEEEE7DrawArcEjjjiib:00000000 $t
C:\Users\skipi\AppData\Local\Temp\ccs8qXFk.s:3592   .text._ZN5daisy25OneBitGraphicsDisplayImplINS_11OledDisplayINS_13SSD130xDriverILj128ELj64ENS_19SSD130xI2CTransportEEEEEE7DrawArcEjjjiib:00000000 _ZN5daisy25OneBitGraphicsDisplayImplINS_11OledDisplayINS_13SSD130xDriverILj128ELj64ENS_19SSD130xI2CTransportEEEEEE7DrawArcEjjjiib
C:\Users\skipi\AppData\Local\Temp\ccs8qXFk.s:4277   .text._ZN5daisy25OneBitGraphicsDisplayImplINS_11OledDisplayINS_13SSD130xDriverILj128ELj64ENS_19SSD130xI2CTransportEEEEEE7DrawArcEjjjiib:00000368 $d
C:\Users\skipi\AppData\Local\Temp\ccs8qXFk.s:4291   .text._ZN5daisy25OneBitGraphicsDisplayImplINS_11OledDisplayINS_13SSD130xDriverILj128ELj64ENS_19SSD130xI2CTransportEEEEEE7DrawArcEjjjiib:00000378 $t
C:\Users\skipi\AppData\Local\Temp\ccs8qXFk.s:4517   .text._ZN5daisy25OneBitGraphicsDisplayImplINS_11OledDisplayINS_13SSD130xDriverILj128ELj64ENS_19SSD130xI2CTransportEEEEEE8DrawRectEjjjjbb:00000000 $t
C:\Users\skipi\AppData\Local\Temp\ccs8qXFk.s:4525   .text._ZN5daisy25OneBitGraphicsDisplayImplINS_11OledDisplayINS_13SSD130xDriverILj128ELj64ENS_19SSD130xI2CTransportEEEEEE8DrawRectEjjjjbb:00000000 _ZN5daisy25OneBitGraphicsDisplayImplINS_11OledDisplayINS_13SSD130xDriverILj128ELj64ENS_19SSD130xI2CTransportEEEEEE8DrawRectEjjjjbb
C:\Users\skipi\AppData\Local\Temp\ccs8qXFk.s:5635   .text._ZN5daisy13SSD130xDriverILj128ELj64ENS_19SSD130xI2CTransportEE4InitENS2_6ConfigE:00000000 $t
C:\Users\skipi\AppData\Local\Temp\ccs8qXFk.s:5643   .text._ZN5daisy13SSD130xDriverILj128ELj64ENS_19SSD130xI2CTransportEE4InitENS2_6ConfigE:00000000 _ZN5daisy13SSD130xDriverILj128ELj64ENS_19SSD130xI2CTransportEE4InitENS2_6ConfigE
C:\Users\skipi\AppData\Local\Temp\ccs8qXFk.s:6296   .rodata.main.str1.4:00000000 $d
C:\Users\skipi\AppData\Local\Temp\ccs8qXFk.s:6300   .text.startup.main:00000000 $t
C:\Users\skipi\AppData\Local\Temp\ccs8qXFk.s:6308   .text.startup.main:00000000 main
C:\Users\skipi\AppData\Local\Temp\ccs8qXFk.s:6826   .text.startup.main:00000174 $d
C:\Users\skipi\AppData\Local\Temp\ccs8qXFk.s:6844   .text.startup._GLOBAL__sub_I_hw:00000000 $t
C:\Users\skipi\AppData\Local\Temp\ccs8qXFk.s:6851   .text.startup._GLOBAL__sub_I_hw:00000000 _GLOBAL__sub_I_hw
C:\Users\skipi\AppData\Local\Temp\ccs8qXFk.s:7391   .text.startup._GLOBAL__sub_I_hw:00000080 $d
ARM GAS  C:\Users\skipi\AppData\Local\Temp\ccs8qXFk.s 			page 213


C:\Users\skipi\AppData\Local\Temp\ccs8qXFk.s:7413   .rodata._ZTVN5daisy11OledDisplayINS_13SSD130xDriverILj128ELj64ENS_19SSD130xI2CTransportEEEEE:00000000 _ZTVN5daisy11OledDisplayINS_13SSD130xDriverILj128ELj64ENS_19SSD130xI2CTransportEEEEE
C:\Users\skipi\AppData\Local\Temp\ccs8qXFk.s:7406   .init_array:00000000 $d
C:\Users\skipi\AppData\Local\Temp\ccs8qXFk.s:7410   .rodata._ZTVN5daisy11OledDisplayINS_13SSD130xDriverILj128ELj64ENS_19SSD130xI2CTransportEEEEE:00000000 $d
C:\Users\skipi\AppData\Local\Temp\ccs8qXFk.s:7447   .bss.disp_handle:00000000 disp_handle
C:\Users\skipi\AppData\Local\Temp\ccs8qXFk.s:7440   .bss.disp:00000000 disp
C:\Users\skipi\AppData\Local\Temp\ccs8qXFk.s:7468   .bss.menu:00000000 menu
C:\Users\skipi\AppData\Local\Temp\ccs8qXFk.s:7454   .bss.enc:00000000 enc
C:\Users\skipi\AppData\Local\Temp\ccs8qXFk.s:7461   .bss.hw:00000000 hw
C:\Users\skipi\AppData\Local\Temp\ccs8qXFk.s:7436   .bss.disp:00000000 $d
C:\Users\skipi\AppData\Local\Temp\ccs8qXFk.s:7443   .bss.disp_handle:00000000 $d
C:\Users\skipi\AppData\Local\Temp\ccs8qXFk.s:7450   .bss.enc:00000000 $d
C:\Users\skipi\AppData\Local\Temp\ccs8qXFk.s:7457   .bss.hw:00000000 $d
C:\Users\skipi\AppData\Local\Temp\ccs8qXFk.s:7464   .bss.menu:00000000 $d
                           .group:00000000 _ZN5daisy7EncoderD5Ev
                           .group:00000000 _ZN5daisy9DaisySeedD5Ev
                           .group:00000000 _ZN5daisy11OledDisplayINS_13SSD130xDriverILj128ELj64ENS_19SSD130xI2CTransportEEEED5Ev

UNDEFINED SYMBOLS
memset
_ZdlPvj
_ZN5daisy9I2CHandle16TransmitBlockingEtPhtm
cosf
sinf
_ZN5daisy9I2CHandle4InitERKNS0_6ConfigE
_ZN5daisy9DaisySeed4InitEb
_ZN5daisy9DaisySeed6GetPinEh
_ZN5daisy7Encoder4InitENS_3PinES1_S1_f
_ZN11MenuManager4InitEv
_ZN14DisplayHandler8SetStateE12DisplayState
_ZN5daisy9DaisySeed10StartAudioEPFvPKPKfPPfjE
_ZN5daisy6System6GetNowEv
_ZN5daisy7Encoder8DebounceEv
_ZN14DisplayHandler6UpdateEv
_ZN11MenuManager15StateTransitionEbib
_ZN14DisplayHandler12DrawMainMenuEi
_ZN14DisplayHandler18DrawFloatParameterEPKcf
_ZN14DisplayHandler18DrawCalibrationHubEi
__aeabi_atexit
_ZN14DisplayHandlerC1EPN5daisy11OledDisplayINS0_13SSD130xDriverILj128ELj64ENS0_19SSD130xI2CTransportEEEEEb
__dso_handle
