ARM GAS  C:\Users\matte\AppData\Local\Temp\ccrMwnXK.s 			page 1


   1              		.cpu cortex-m7
   2              		.eabi_attribute 28, 1
   3              		.eabi_attribute 20, 1
   4              		.eabi_attribute 21, 1
   5              		.eabi_attribute 23, 3
   6              		.eabi_attribute 24, 1
   7              		.eabi_attribute 25, 1
   8              		.eabi_attribute 26, 1
   9              		.eabi_attribute 30, 2
  10              		.eabi_attribute 34, 1
  11              		.eabi_attribute 18, 4
  12              		.file	"main.cpp"
  13              		.text
  14              	.Ltext0:
  15              		.cfi_sections	.debug_frame
  16              		.section	.text._ZN5daisy9DaisySeedD2Ev,"axG",%progbits,_ZN5daisy9DaisySeedD5Ev,comdat
  17              		.align	1
  18              		.p2align 2,,3
  19              		.weak	_ZN5daisy9DaisySeedD2Ev
  20              		.arch armv7e-m
  21              		.syntax unified
  22              		.thumb
  23              		.thumb_func
  24              		.fpu fpv5-d16
  26              	_ZN5daisy9DaisySeedD2Ev:
  27              	.LVL0:
  28              	.LFB2685:
  29              		.file 1 "../../libs/PoliTeKDSP/libs/libDaisy/src/daisy_seed.h"
   1:../../libs/PoliTeKDSP/libs/libDaisy/src/daisy_seed.h **** #pragma once
   2:../../libs/PoliTeKDSP/libs/libDaisy/src/daisy_seed.h **** #ifndef DSY_SEED_H
   3:../../libs/PoliTeKDSP/libs/libDaisy/src/daisy_seed.h **** #define DSY_SEED_H
   4:../../libs/PoliTeKDSP/libs/libDaisy/src/daisy_seed.h **** 
   5:../../libs/PoliTeKDSP/libs/libDaisy/src/daisy_seed.h **** #include "daisy.h"
   6:../../libs/PoliTeKDSP/libs/libDaisy/src/daisy_seed.h **** 
   7:../../libs/PoliTeKDSP/libs/libDaisy/src/daisy_seed.h **** //Uncomment this out if you're still using the rev2 hardware
   8:../../libs/PoliTeKDSP/libs/libDaisy/src/daisy_seed.h **** //#define SEED_REV2
   9:../../libs/PoliTeKDSP/libs/libDaisy/src/daisy_seed.h **** 
  10:../../libs/PoliTeKDSP/libs/libDaisy/src/daisy_seed.h **** namespace daisy
  11:../../libs/PoliTeKDSP/libs/libDaisy/src/daisy_seed.h **** {
  12:../../libs/PoliTeKDSP/libs/libDaisy/src/daisy_seed.h **** /**
  13:../../libs/PoliTeKDSP/libs/libDaisy/src/daisy_seed.h ****    @brief This is the higher-level interface for the Daisy board. \n 
  14:../../libs/PoliTeKDSP/libs/libDaisy/src/daisy_seed.h ****     All basic peripheral configuration/initialization is setup here. \n
  15:../../libs/PoliTeKDSP/libs/libDaisy/src/daisy_seed.h **** 
  16:../../libs/PoliTeKDSP/libs/libDaisy/src/daisy_seed.h ****    @ingroup boards
  17:../../libs/PoliTeKDSP/libs/libDaisy/src/daisy_seed.h **** */
  18:../../libs/PoliTeKDSP/libs/libDaisy/src/daisy_seed.h **** class DaisySeed
  19:../../libs/PoliTeKDSP/libs/libDaisy/src/daisy_seed.h **** {
  20:../../libs/PoliTeKDSP/libs/libDaisy/src/daisy_seed.h ****   public:
  21:../../libs/PoliTeKDSP/libs/libDaisy/src/daisy_seed.h ****     DaisySeed() {}
  22:../../libs/PoliTeKDSP/libs/libDaisy/src/daisy_seed.h ****     ~DaisySeed() {}
  30              		.loc 1 22 5 view -0
  31              		.cfi_startproc
  32              		@ args = 0, pretend = 0, frame = 0
  33              		@ frame_needed = 0, uses_anonymous_args = 0
  34              		@ link register save eliminated.
  35              	.LBB463:
  36              	.LBI463:
ARM GAS  C:\Users\matte\AppData\Local\Temp\ccrMwnXK.s 			page 2


  37              		.file 2 "../../libs/PoliTeKDSP/libs/libDaisy/src/dev/codec_ak4556.h"
   1:../../libs/PoliTeKDSP/libs/libDaisy/src/dev/codec_ak4556.h **** #pragma once
   2:../../libs/PoliTeKDSP/libs/libDaisy/src/dev/codec_ak4556.h **** #ifndef DSY_CODEC_AK4556_H
   3:../../libs/PoliTeKDSP/libs/libDaisy/src/dev/codec_ak4556.h **** #define DSY_CODEC_AK4556_H
   4:../../libs/PoliTeKDSP/libs/libDaisy/src/dev/codec_ak4556.h **** 
   5:../../libs/PoliTeKDSP/libs/libDaisy/src/dev/codec_ak4556.h **** #include "daisy_core.h"
   6:../../libs/PoliTeKDSP/libs/libDaisy/src/dev/codec_ak4556.h **** #include "per/gpio.h"
   7:../../libs/PoliTeKDSP/libs/libDaisy/src/dev/codec_ak4556.h **** 
   8:../../libs/PoliTeKDSP/libs/libDaisy/src/dev/codec_ak4556.h **** namespace daisy
   9:../../libs/PoliTeKDSP/libs/libDaisy/src/dev/codec_ak4556.h **** {
  10:../../libs/PoliTeKDSP/libs/libDaisy/src/dev/codec_ak4556.h **** /** @brief Ak4556 Codec support 
  11:../../libs/PoliTeKDSP/libs/libDaisy/src/dev/codec_ak4556.h ****  ** @author shensley
  12:../../libs/PoliTeKDSP/libs/libDaisy/src/dev/codec_ak4556.h ****  ** @addtogroup codec
  13:../../libs/PoliTeKDSP/libs/libDaisy/src/dev/codec_ak4556.h ****  ** 
  14:../../libs/PoliTeKDSP/libs/libDaisy/src/dev/codec_ak4556.h ****  ** I don't see any real reason to have this be more than a function, but in case we want
  15:../../libs/PoliTeKDSP/libs/libDaisy/src/dev/codec_ak4556.h ****  ** to add other functions down the road I wrapped the function in a class.
  16:../../libs/PoliTeKDSP/libs/libDaisy/src/dev/codec_ak4556.h ****  ***/
  17:../../libs/PoliTeKDSP/libs/libDaisy/src/dev/codec_ak4556.h **** class Ak4556
  18:../../libs/PoliTeKDSP/libs/libDaisy/src/dev/codec_ak4556.h **** {
  19:../../libs/PoliTeKDSP/libs/libDaisy/src/dev/codec_ak4556.h ****   public:
  20:../../libs/PoliTeKDSP/libs/libDaisy/src/dev/codec_ak4556.h ****     Ak4556() {}
  21:../../libs/PoliTeKDSP/libs/libDaisy/src/dev/codec_ak4556.h ****     ~Ak4556() {}
  38              		.loc 2 21 5 view .LVU1
  39              		.loc 2 21 5 is_stmt 0 view .LVU2
  40              	.LBE463:
  41              	.LBB464:
  42              	.LBI464:
  43              		.file 3 "../../libs/libDaisy/src/sys/system.h"
   1:../../libs/libDaisy/src/sys/system.h **** #ifndef DSY_SYSTEM_H
   2:../../libs/libDaisy/src/sys/system.h **** #define DSY_SYSTEM_H
   3:../../libs/libDaisy/src/sys/system.h **** 
   4:../../libs/libDaisy/src/sys/system.h **** #ifndef UNIT_TEST // for unit tests, a dummy implementation is provided below
   5:../../libs/libDaisy/src/sys/system.h **** 
   6:../../libs/libDaisy/src/sys/system.h **** #include <cstdint>
   7:../../libs/libDaisy/src/sys/system.h **** #include "per/tim.h"
   8:../../libs/libDaisy/src/sys/system.h **** 
   9:../../libs/libDaisy/src/sys/system.h **** namespace daisy
  10:../../libs/libDaisy/src/sys/system.h **** {
  11:../../libs/libDaisy/src/sys/system.h **** /** A handle for interacting with the Core System.
  12:../../libs/libDaisy/src/sys/system.h ****  ** This includes the Clock tree, MPU, global DMA initialization,
  13:../../libs/libDaisy/src/sys/system.h ****  ** cache handling, and any other necessary global initiailzation
  14:../../libs/libDaisy/src/sys/system.h ****  **
  15:../../libs/libDaisy/src/sys/system.h ****  ** @author shensley
  16:../../libs/libDaisy/src/sys/system.h ****  ** @ingroup system
  17:../../libs/libDaisy/src/sys/system.h ****  */
  18:../../libs/libDaisy/src/sys/system.h **** class System
  19:../../libs/libDaisy/src/sys/system.h **** {
  20:../../libs/libDaisy/src/sys/system.h ****   public:
  21:../../libs/libDaisy/src/sys/system.h ****     /** Contains settings for initializing the System */
  22:../../libs/libDaisy/src/sys/system.h ****     struct Config
  23:../../libs/libDaisy/src/sys/system.h ****     {
  24:../../libs/libDaisy/src/sys/system.h ****         /** Specifies the system clock frequency that feeds APB/AHB clocks, etc. */
  25:../../libs/libDaisy/src/sys/system.h ****         enum class SysClkFreq
  26:../../libs/libDaisy/src/sys/system.h ****         {
  27:../../libs/libDaisy/src/sys/system.h ****             FREQ_400MHZ,
  28:../../libs/libDaisy/src/sys/system.h ****             FREQ_480MHZ,
  29:../../libs/libDaisy/src/sys/system.h ****         };
ARM GAS  C:\Users\matte\AppData\Local\Temp\ccrMwnXK.s 			page 3


  30:../../libs/libDaisy/src/sys/system.h **** 
  31:../../libs/libDaisy/src/sys/system.h ****         /** Method to call on the struct to set to defaults
  32:../../libs/libDaisy/src/sys/system.h ****          ** CPU Freq set to 400MHz
  33:../../libs/libDaisy/src/sys/system.h ****          ** Cache Enabled
  34:../../libs/libDaisy/src/sys/system.h ****          ** */
  35:../../libs/libDaisy/src/sys/system.h ****         void Defaults()
  36:../../libs/libDaisy/src/sys/system.h ****         {
  37:../../libs/libDaisy/src/sys/system.h ****             cpu_freq    = SysClkFreq::FREQ_400MHZ;
  38:../../libs/libDaisy/src/sys/system.h ****             use_dcache  = true;
  39:../../libs/libDaisy/src/sys/system.h ****             use_icache  = true;
  40:../../libs/libDaisy/src/sys/system.h ****             skip_clocks = false;
  41:../../libs/libDaisy/src/sys/system.h ****         }
  42:../../libs/libDaisy/src/sys/system.h **** 
  43:../../libs/libDaisy/src/sys/system.h ****         /** Method to call on the struct to set to boost mode:
  44:../../libs/libDaisy/src/sys/system.h ****          ** CPU Freq set to 480MHz
  45:../../libs/libDaisy/src/sys/system.h ****          ** Cache Enabled
  46:../../libs/libDaisy/src/sys/system.h ****          ** */
  47:../../libs/libDaisy/src/sys/system.h ****         void Boost()
  48:../../libs/libDaisy/src/sys/system.h ****         {
  49:../../libs/libDaisy/src/sys/system.h ****             cpu_freq    = SysClkFreq::FREQ_480MHZ;
  50:../../libs/libDaisy/src/sys/system.h ****             use_dcache  = true;
  51:../../libs/libDaisy/src/sys/system.h ****             use_icache  = true;
  52:../../libs/libDaisy/src/sys/system.h ****             skip_clocks = false;
  53:../../libs/libDaisy/src/sys/system.h ****         }
  54:../../libs/libDaisy/src/sys/system.h **** 
  55:../../libs/libDaisy/src/sys/system.h ****         SysClkFreq cpu_freq;
  56:../../libs/libDaisy/src/sys/system.h ****         bool       use_dcache;
  57:../../libs/libDaisy/src/sys/system.h ****         bool       use_icache;
  58:../../libs/libDaisy/src/sys/system.h ****         bool       skip_clocks;
  59:../../libs/libDaisy/src/sys/system.h ****     };
  60:../../libs/libDaisy/src/sys/system.h **** 
  61:../../libs/libDaisy/src/sys/system.h ****     /** Describes the different regions of memory available to the Daisy */
  62:../../libs/libDaisy/src/sys/system.h ****     enum MemoryRegion
  63:../../libs/libDaisy/src/sys/system.h ****     {
  64:../../libs/libDaisy/src/sys/system.h ****         INTERNAL_FLASH = 0,
  65:../../libs/libDaisy/src/sys/system.h ****         ITCMRAM,
  66:../../libs/libDaisy/src/sys/system.h ****         DTCMRAM,
  67:../../libs/libDaisy/src/sys/system.h ****         SRAM_D1,
  68:../../libs/libDaisy/src/sys/system.h ****         SRAM_D2,
  69:../../libs/libDaisy/src/sys/system.h ****         SRAM_D3,
  70:../../libs/libDaisy/src/sys/system.h ****         SDRAM,
  71:../../libs/libDaisy/src/sys/system.h ****         QSPI,
  72:../../libs/libDaisy/src/sys/system.h ****         INVALID_ADDRESS,
  73:../../libs/libDaisy/src/sys/system.h ****     };
  74:../../libs/libDaisy/src/sys/system.h **** 
  75:../../libs/libDaisy/src/sys/system.h ****     /** Bootloader struct for controlling bootloading parameters */
  76:../../libs/libDaisy/src/sys/system.h ****     struct BootInfo
  77:../../libs/libDaisy/src/sys/system.h ****     {
  78:../../libs/libDaisy/src/sys/system.h ****         enum class Type : uint32_t
  79:../../libs/libDaisy/src/sys/system.h ****         {
  80:../../libs/libDaisy/src/sys/system.h ****             INVALID      = 0x00000000,
  81:../../libs/libDaisy/src/sys/system.h ****             JUMP         = 0xDEADBEEF,
  82:../../libs/libDaisy/src/sys/system.h ****             SKIP_TIMEOUT = 0x5AFEB007,
  83:../../libs/libDaisy/src/sys/system.h ****             INF_TIMEOUT  = 0xB0074EFA,
  84:../../libs/libDaisy/src/sys/system.h ****         } status;
  85:../../libs/libDaisy/src/sys/system.h ****         uint32_t data;
  86:../../libs/libDaisy/src/sys/system.h ****         enum class Version : uint32_t
ARM GAS  C:\Users\matte\AppData\Local\Temp\ccrMwnXK.s 			page 4


  87:../../libs/libDaisy/src/sys/system.h ****         {
  88:../../libs/libDaisy/src/sys/system.h ****             LT_v6_0 = 0, // Less than v6.0
  89:../../libs/libDaisy/src/sys/system.h ****             NONE,        // No bootloader present
  90:../../libs/libDaisy/src/sys/system.h ****             v6_0,        // v6.0
  91:../../libs/libDaisy/src/sys/system.h ****             v6_1,        // v6.1 or greater
  92:../../libs/libDaisy/src/sys/system.h ****             LAST
  93:../../libs/libDaisy/src/sys/system.h ****         } version;
  94:../../libs/libDaisy/src/sys/system.h ****     };
  95:../../libs/libDaisy/src/sys/system.h **** 
  96:../../libs/libDaisy/src/sys/system.h ****     System() {}
  97:../../libs/libDaisy/src/sys/system.h ****     ~System() {}
  44              		.loc 3 97 5 is_stmt 1 view .LVU3
  45              		.loc 3 97 5 is_stmt 0 view .LVU4
  46              	.LBE464:
  47              	.LBB465:
  48              	.LBI465:
  49              		.file 4 "../../libs/libDaisy/src/hid/usb.h"
   1:../../libs/libDaisy/src/hid/usb.h **** #pragma once
   2:../../libs/libDaisy/src/hid/usb.h **** #ifndef DSY_HID_USB_H
   3:../../libs/libDaisy/src/hid/usb.h **** #define DSY_HID_USB_H
   4:../../libs/libDaisy/src/hid/usb.h **** #include <stdint.h>
   5:../../libs/libDaisy/src/hid/usb.h **** #include <stdlib.h>
   6:../../libs/libDaisy/src/hid/usb.h **** 
   7:../../libs/libDaisy/src/hid/usb.h **** namespace daisy
   8:../../libs/libDaisy/src/hid/usb.h **** /** @addtogroup human_interface
   9:../../libs/libDaisy/src/hid/usb.h ****     @{
  10:../../libs/libDaisy/src/hid/usb.h **** */
  11:../../libs/libDaisy/src/hid/usb.h **** 
  12:../../libs/libDaisy/src/hid/usb.h **** {
  13:../../libs/libDaisy/src/hid/usb.h **** /** 
  14:../../libs/libDaisy/src/hid/usb.h ****     @brief Interface for initializing and using the USB Peripherals on the daisy
  15:../../libs/libDaisy/src/hid/usb.h ****     @author Stephen Hensley
  16:../../libs/libDaisy/src/hid/usb.h ****     @date December 2019
  17:../../libs/libDaisy/src/hid/usb.h **** */
  18:../../libs/libDaisy/src/hid/usb.h **** class UsbHandle
  19:../../libs/libDaisy/src/hid/usb.h **** {
  20:../../libs/libDaisy/src/hid/usb.h ****   public:
  21:../../libs/libDaisy/src/hid/usb.h ****     /** Return values for USBHandle Functions */
  22:../../libs/libDaisy/src/hid/usb.h ****     enum class Result
  23:../../libs/libDaisy/src/hid/usb.h ****     {
  24:../../libs/libDaisy/src/hid/usb.h ****         OK,
  25:../../libs/libDaisy/src/hid/usb.h ****         ERR,
  26:../../libs/libDaisy/src/hid/usb.h ****     };
  27:../../libs/libDaisy/src/hid/usb.h **** 
  28:../../libs/libDaisy/src/hid/usb.h ****     /** Specified which of the two USB Peripherals to initialize. */
  29:../../libs/libDaisy/src/hid/usb.h ****     enum UsbPeriph
  30:../../libs/libDaisy/src/hid/usb.h ****     {
  31:../../libs/libDaisy/src/hid/usb.h ****         FS_INTERNAL, /**< Internal pin */
  32:../../libs/libDaisy/src/hid/usb.h ****         FS_EXTERNAL, /**< FS External D+ pin is Pin 38 (GPIO32). FS External D- pin is Pin 37 (GPIO
  33:../../libs/libDaisy/src/hid/usb.h ****         FS_BOTH,     /**< Both */
  34:../../libs/libDaisy/src/hid/usb.h ****     };
  35:../../libs/libDaisy/src/hid/usb.h **** 
  36:../../libs/libDaisy/src/hid/usb.h **** 
  37:../../libs/libDaisy/src/hid/usb.h ****     /** Function called upon reception of a buffer */
  38:../../libs/libDaisy/src/hid/usb.h ****     typedef void (*ReceiveCallback)(uint8_t* buff, uint32_t* len);
  39:../../libs/libDaisy/src/hid/usb.h **** 
  40:../../libs/libDaisy/src/hid/usb.h ****     UsbHandle() {}
ARM GAS  C:\Users\matte\AppData\Local\Temp\ccrMwnXK.s 			page 5


  41:../../libs/libDaisy/src/hid/usb.h **** 
  42:../../libs/libDaisy/src/hid/usb.h ****     ~UsbHandle() {}
  50              		.loc 4 42 5 is_stmt 1 view .LVU5
  51              		.loc 4 42 5 is_stmt 0 view .LVU6
  52              	.LBE465:
  53              	.LBB466:
  54              	.LBI466:
  55              		.file 5 "../../libs/PoliTeKDSP/libs/libDaisy/src/per/adc.h"
   1:../../libs/PoliTeKDSP/libs/libDaisy/src/per/adc.h **** #pragma once
   2:../../libs/PoliTeKDSP/libs/libDaisy/src/per/adc.h **** #ifndef DSY_ADC_H
   3:../../libs/PoliTeKDSP/libs/libDaisy/src/per/adc.h **** #define DSY_ADC_H /**< Macro */
   4:../../libs/PoliTeKDSP/libs/libDaisy/src/per/adc.h **** #include <stdint.h>
   5:../../libs/PoliTeKDSP/libs/libDaisy/src/per/adc.h **** #include <stdlib.h>
   6:../../libs/PoliTeKDSP/libs/libDaisy/src/per/adc.h **** #include "daisy_core.h"
   7:../../libs/PoliTeKDSP/libs/libDaisy/src/per/adc.h **** #include "per/gpio.h"
   8:../../libs/PoliTeKDSP/libs/libDaisy/src/per/adc.h **** 
   9:../../libs/PoliTeKDSP/libs/libDaisy/src/per/adc.h **** #define DSY_ADC_MAX_CHANNELS 16 /**< Maximum number of ADC channels */
  10:../../libs/PoliTeKDSP/libs/libDaisy/src/per/adc.h **** 
  11:../../libs/PoliTeKDSP/libs/libDaisy/src/per/adc.h **** namespace daisy
  12:../../libs/PoliTeKDSP/libs/libDaisy/src/per/adc.h **** {
  13:../../libs/PoliTeKDSP/libs/libDaisy/src/per/adc.h **** /** @addtogroup per_analog
  14:../../libs/PoliTeKDSP/libs/libDaisy/src/per/adc.h ****     @{
  15:../../libs/PoliTeKDSP/libs/libDaisy/src/per/adc.h **** */
  16:../../libs/PoliTeKDSP/libs/libDaisy/src/per/adc.h **** 
  17:../../libs/PoliTeKDSP/libs/libDaisy/src/per/adc.h **** /* While there may not be many configuration options here,
  18:../../libs/PoliTeKDSP/libs/libDaisy/src/per/adc.h **** using a struct like this allows us to add more configuration
  19:../../libs/PoliTeKDSP/libs/libDaisy/src/per/adc.h **** later without breaking existing functionality.
  20:../../libs/PoliTeKDSP/libs/libDaisy/src/per/adc.h **** */
  21:../../libs/PoliTeKDSP/libs/libDaisy/src/per/adc.h **** 
  22:../../libs/PoliTeKDSP/libs/libDaisy/src/per/adc.h **** /** @brief   Configuration Structure for an ADC Channel 
  23:../../libs/PoliTeKDSP/libs/libDaisy/src/per/adc.h ****  *  @details This can be used to configure a a single input, 
  24:../../libs/PoliTeKDSP/libs/libDaisy/src/per/adc.h ****  *           or a multiplexed input, allowing up to 8 inputs on 
  25:../../libs/PoliTeKDSP/libs/libDaisy/src/per/adc.h ****  *           one channel.
  26:../../libs/PoliTeKDSP/libs/libDaisy/src/per/adc.h ****  *  @note    Sharing data lines to multiple muxes _is_ possible, but
  27:../../libs/PoliTeKDSP/libs/libDaisy/src/per/adc.h ****  *           each channel sharing data lines must be set to the maximum
  28:../../libs/PoliTeKDSP/libs/libDaisy/src/per/adc.h ****  *           number of channels, even if some multiplexers have fewer
  29:../../libs/PoliTeKDSP/libs/libDaisy/src/per/adc.h ****  *           inputs connected.
  30:../../libs/PoliTeKDSP/libs/libDaisy/src/per/adc.h **** */
  31:../../libs/PoliTeKDSP/libs/libDaisy/src/per/adc.h **** struct AdcChannelConfig
  32:../../libs/PoliTeKDSP/libs/libDaisy/src/per/adc.h **** {
  33:../../libs/PoliTeKDSP/libs/libDaisy/src/per/adc.h ****     /** Which pin to use for multiplexing */
  34:../../libs/PoliTeKDSP/libs/libDaisy/src/per/adc.h ****     enum MuxPin
  35:../../libs/PoliTeKDSP/libs/libDaisy/src/per/adc.h ****     {
  36:../../libs/PoliTeKDSP/libs/libDaisy/src/per/adc.h ****         MUX_SEL_0,    /**< & */
  37:../../libs/PoliTeKDSP/libs/libDaisy/src/per/adc.h ****         MUX_SEL_1,    /**< & */
  38:../../libs/PoliTeKDSP/libs/libDaisy/src/per/adc.h ****         MUX_SEL_2,    /**< & */
  39:../../libs/PoliTeKDSP/libs/libDaisy/src/per/adc.h ****         MUX_SEL_LAST, /**< & */
  40:../../libs/PoliTeKDSP/libs/libDaisy/src/per/adc.h ****     };
  41:../../libs/PoliTeKDSP/libs/libDaisy/src/per/adc.h **** 
  42:../../libs/PoliTeKDSP/libs/libDaisy/src/per/adc.h ****     /** \brief per channel conversion speed added to fixed time based on bitdepth, etc. */
  43:../../libs/PoliTeKDSP/libs/libDaisy/src/per/adc.h ****     enum ConversionSpeed
  44:../../libs/PoliTeKDSP/libs/libDaisy/src/per/adc.h ****     {
  45:../../libs/PoliTeKDSP/libs/libDaisy/src/per/adc.h ****         SPEED_1CYCLES_5,
  46:../../libs/PoliTeKDSP/libs/libDaisy/src/per/adc.h ****         SPEED_2CYCLES_5,
  47:../../libs/PoliTeKDSP/libs/libDaisy/src/per/adc.h ****         SPEED_8CYCLES_5,
  48:../../libs/PoliTeKDSP/libs/libDaisy/src/per/adc.h ****         SPEED_16CYCLES_5,
  49:../../libs/PoliTeKDSP/libs/libDaisy/src/per/adc.h ****         SPEED_32CYCLES_5,
ARM GAS  C:\Users\matte\AppData\Local\Temp\ccrMwnXK.s 			page 6


  50:../../libs/PoliTeKDSP/libs/libDaisy/src/per/adc.h ****         SPEED_64CYCLES_5,
  51:../../libs/PoliTeKDSP/libs/libDaisy/src/per/adc.h ****         SPEED_387CYCLES_5,
  52:../../libs/PoliTeKDSP/libs/libDaisy/src/per/adc.h ****         SPEED_810CYCLES_5,
  53:../../libs/PoliTeKDSP/libs/libDaisy/src/per/adc.h ****     };
  54:../../libs/PoliTeKDSP/libs/libDaisy/src/per/adc.h **** 
  55:../../libs/PoliTeKDSP/libs/libDaisy/src/per/adc.h ****     /** Initializes a single ADC pin as an ADC. 
  56:../../libs/PoliTeKDSP/libs/libDaisy/src/per/adc.h ****     \param pin Pin to init.
  57:../../libs/PoliTeKDSP/libs/libDaisy/src/per/adc.h ****     \param speed conversion speed for this pin defaults to 8.5 cycles
  58:../../libs/PoliTeKDSP/libs/libDaisy/src/per/adc.h ****      */
  59:../../libs/PoliTeKDSP/libs/libDaisy/src/per/adc.h ****     void InitSingle(Pin pin, ConversionSpeed speed = SPEED_8CYCLES_5);
  60:../../libs/PoliTeKDSP/libs/libDaisy/src/per/adc.h **** 
  61:../../libs/PoliTeKDSP/libs/libDaisy/src/per/adc.h ****     /** 
  62:../../libs/PoliTeKDSP/libs/libDaisy/src/per/adc.h ****     Initializes a single ADC pin as a Multiplexed ADC.
  63:../../libs/PoliTeKDSP/libs/libDaisy/src/per/adc.h ****     Requires a CD405X Multiplexer connected to the pin.
  64:../../libs/PoliTeKDSP/libs/libDaisy/src/per/adc.h ****     You only need to supply the mux pins that are required,
  65:../../libs/PoliTeKDSP/libs/libDaisy/src/per/adc.h ****     e.g. a 4052 mux would only require mux_0 and mux_1.
  66:../../libs/PoliTeKDSP/libs/libDaisy/src/per/adc.h ****     Internal Callbacks handle the pin addressing.
  67:../../libs/PoliTeKDSP/libs/libDaisy/src/per/adc.h ****     \param adc_pin &
  68:../../libs/PoliTeKDSP/libs/libDaisy/src/per/adc.h ****     \param mux_channels must be 1-8
  69:../../libs/PoliTeKDSP/libs/libDaisy/src/per/adc.h ****     \param mux_0 First mux pin
  70:../../libs/PoliTeKDSP/libs/libDaisy/src/per/adc.h ****     \param mux_1 Second mux pin
  71:../../libs/PoliTeKDSP/libs/libDaisy/src/per/adc.h ****     \param mux_2 Third mux pin
  72:../../libs/PoliTeKDSP/libs/libDaisy/src/per/adc.h ****     \param speed conversion speed for this pin defaults to 8.5 cycles
  73:../../libs/PoliTeKDSP/libs/libDaisy/src/per/adc.h ****     */
  74:../../libs/PoliTeKDSP/libs/libDaisy/src/per/adc.h ****     void InitMux(Pin             adc_pin,
  75:../../libs/PoliTeKDSP/libs/libDaisy/src/per/adc.h ****                  size_t          mux_channels,
  76:../../libs/PoliTeKDSP/libs/libDaisy/src/per/adc.h ****                  Pin             mux_0,
  77:../../libs/PoliTeKDSP/libs/libDaisy/src/per/adc.h ****                  Pin             mux_1 = Pin(PORTX, 0),
  78:../../libs/PoliTeKDSP/libs/libDaisy/src/per/adc.h ****                  Pin             mux_2 = Pin(PORTX, 0),
  79:../../libs/PoliTeKDSP/libs/libDaisy/src/per/adc.h ****                  ConversionSpeed speed = SPEED_8CYCLES_5);
  80:../../libs/PoliTeKDSP/libs/libDaisy/src/per/adc.h **** 
  81:../../libs/PoliTeKDSP/libs/libDaisy/src/per/adc.h ****     GPIO            pin_;                   /**< & */
  82:../../libs/PoliTeKDSP/libs/libDaisy/src/per/adc.h ****     GPIO            mux_pin_[MUX_SEL_LAST]; /**< & */
  83:../../libs/PoliTeKDSP/libs/libDaisy/src/per/adc.h ****     uint8_t         mux_channels_;          /**< & */
  84:../../libs/PoliTeKDSP/libs/libDaisy/src/per/adc.h ****     ConversionSpeed speed_;
  85:../../libs/PoliTeKDSP/libs/libDaisy/src/per/adc.h **** };
  86:../../libs/PoliTeKDSP/libs/libDaisy/src/per/adc.h **** 
  87:../../libs/PoliTeKDSP/libs/libDaisy/src/per/adc.h **** /**
  88:../../libs/PoliTeKDSP/libs/libDaisy/src/per/adc.h ****    @brief Handler for analog to digital conversion
  89:../../libs/PoliTeKDSP/libs/libDaisy/src/per/adc.h **** */
  90:../../libs/PoliTeKDSP/libs/libDaisy/src/per/adc.h **** class AdcHandle
  91:../../libs/PoliTeKDSP/libs/libDaisy/src/per/adc.h **** {
  92:../../libs/PoliTeKDSP/libs/libDaisy/src/per/adc.h ****   public:
  93:../../libs/PoliTeKDSP/libs/libDaisy/src/per/adc.h ****     /** Supported oversampling amounts */
  94:../../libs/PoliTeKDSP/libs/libDaisy/src/per/adc.h ****     enum OverSampling
  95:../../libs/PoliTeKDSP/libs/libDaisy/src/per/adc.h ****     {
  96:../../libs/PoliTeKDSP/libs/libDaisy/src/per/adc.h ****         OVS_NONE, /**< & */
  97:../../libs/PoliTeKDSP/libs/libDaisy/src/per/adc.h ****         OVS_4,    /**< & */
  98:../../libs/PoliTeKDSP/libs/libDaisy/src/per/adc.h ****         OVS_8,    /**< & */
  99:../../libs/PoliTeKDSP/libs/libDaisy/src/per/adc.h ****         OVS_16,   /**< & */
 100:../../libs/PoliTeKDSP/libs/libDaisy/src/per/adc.h ****         OVS_32,   /**< & */
 101:../../libs/PoliTeKDSP/libs/libDaisy/src/per/adc.h ****         OVS_64,   /**< & */
 102:../../libs/PoliTeKDSP/libs/libDaisy/src/per/adc.h ****         OVS_128,  /**< & */
 103:../../libs/PoliTeKDSP/libs/libDaisy/src/per/adc.h ****         OVS_256,  /**< & */
 104:../../libs/PoliTeKDSP/libs/libDaisy/src/per/adc.h ****         OVS_512,  /**< & */
 105:../../libs/PoliTeKDSP/libs/libDaisy/src/per/adc.h ****         OVS_1024, /**< & */
 106:../../libs/PoliTeKDSP/libs/libDaisy/src/per/adc.h ****         OVS_LAST, /**< & */
ARM GAS  C:\Users\matte\AppData\Local\Temp\ccrMwnXK.s 			page 7


 107:../../libs/PoliTeKDSP/libs/libDaisy/src/per/adc.h ****     };
 108:../../libs/PoliTeKDSP/libs/libDaisy/src/per/adc.h **** 
 109:../../libs/PoliTeKDSP/libs/libDaisy/src/per/adc.h ****     AdcHandle() {}
 110:../../libs/PoliTeKDSP/libs/libDaisy/src/per/adc.h ****     ~AdcHandle() {}
  56              		.loc 5 110 5 is_stmt 1 view .LVU7
  57              		.loc 5 110 5 is_stmt 0 view .LVU8
  58              	.LBE466:
  59              	.LBB467:
  60              	.LBI467:
  61              		.file 6 "../../libs/PoliTeKDSP/libs/libDaisy/src/hid/audio.h"
   1:../../libs/PoliTeKDSP/libs/libDaisy/src/hid/audio.h **** #ifndef DSY_AUDIO_H
   2:../../libs/PoliTeKDSP/libs/libDaisy/src/hid/audio.h **** #define DSY_AUDIO_H /**< & */
   3:../../libs/PoliTeKDSP/libs/libDaisy/src/hid/audio.h **** 
   4:../../libs/PoliTeKDSP/libs/libDaisy/src/hid/audio.h **** #include "per/sai.h"
   5:../../libs/PoliTeKDSP/libs/libDaisy/src/hid/audio.h **** 
   6:../../libs/PoliTeKDSP/libs/libDaisy/src/hid/audio.h **** namespace daisy
   7:../../libs/PoliTeKDSP/libs/libDaisy/src/hid/audio.h **** {
   8:../../libs/PoliTeKDSP/libs/libDaisy/src/hid/audio.h **** /** @brief Audio Engine Handle
   9:../../libs/PoliTeKDSP/libs/libDaisy/src/hid/audio.h ****  *  @ingroup audio 
  10:../../libs/PoliTeKDSP/libs/libDaisy/src/hid/audio.h ****  *  @details This class allows for higher level access to an audio engine.
  11:../../libs/PoliTeKDSP/libs/libDaisy/src/hid/audio.h ****  *           If you're using a SOM like the DaisySeed or DaisyPatchSM (or any 
  12:../../libs/PoliTeKDSP/libs/libDaisy/src/hid/audio.h ****  *            board that includes one of those objects) then the intialization
  13:../../libs/PoliTeKDSP/libs/libDaisy/src/hid/audio.h ****  *            is already taken  care of.
  14:../../libs/PoliTeKDSP/libs/libDaisy/src/hid/audio.h ****  *           If you're setting up your own custom hardware, or need to make changes
  15:../../libs/PoliTeKDSP/libs/libDaisy/src/hid/audio.h ****  *           you will have to take the following steps:
  16:../../libs/PoliTeKDSP/libs/libDaisy/src/hid/audio.h ****  *             1. Create and Initialize an SaiHandle or two depending on your requirements
  17:../../libs/PoliTeKDSP/libs/libDaisy/src/hid/audio.h ****  *             2. Initialize the Audio Handle with the desired settings and the Initialized SaiHand
  18:../../libs/PoliTeKDSP/libs/libDaisy/src/hid/audio.h ****  *             3. If the connected codec requires special configuration or initialization, do so
  19:../../libs/PoliTeKDSP/libs/libDaisy/src/hid/audio.h ****  *             4. Write a callback method using either the AudioCallback or the InterleavingAudioCa
  20:../../libs/PoliTeKDSP/libs/libDaisy/src/hid/audio.h ****  *             5. Start the Audio using one of the StartAudio function
  21:../../libs/PoliTeKDSP/libs/libDaisy/src/hid/audio.h ****  */
  22:../../libs/PoliTeKDSP/libs/libDaisy/src/hid/audio.h **** class AudioHandle
  23:../../libs/PoliTeKDSP/libs/libDaisy/src/hid/audio.h **** {
  24:../../libs/PoliTeKDSP/libs/libDaisy/src/hid/audio.h ****   public:
  25:../../libs/PoliTeKDSP/libs/libDaisy/src/hid/audio.h ****     /** Manually configurable details about the Audio Engine */
  26:../../libs/PoliTeKDSP/libs/libDaisy/src/hid/audio.h ****     /** TODO: Figure out how to get samplerate in here. */
  27:../../libs/PoliTeKDSP/libs/libDaisy/src/hid/audio.h ****     struct Config
  28:../../libs/PoliTeKDSP/libs/libDaisy/src/hid/audio.h ****     {
  29:../../libs/PoliTeKDSP/libs/libDaisy/src/hid/audio.h ****         /** number of samples to process per callback */
  30:../../libs/PoliTeKDSP/libs/libDaisy/src/hid/audio.h ****         size_t blocksize = 48;
  31:../../libs/PoliTeKDSP/libs/libDaisy/src/hid/audio.h **** 
  32:../../libs/PoliTeKDSP/libs/libDaisy/src/hid/audio.h ****         /**< Sample rate of audio */
  33:../../libs/PoliTeKDSP/libs/libDaisy/src/hid/audio.h ****         SaiHandle::Config::SampleRate samplerate
  34:../../libs/PoliTeKDSP/libs/libDaisy/src/hid/audio.h ****             = SaiHandle::Config::SampleRate::SAI_48KHZ;
  35:../../libs/PoliTeKDSP/libs/libDaisy/src/hid/audio.h **** 
  36:../../libs/PoliTeKDSP/libs/libDaisy/src/hid/audio.h ****         /** factor for adjustment before and after callback for hardware that may have extra headro
  37:../../libs/PoliTeKDSP/libs/libDaisy/src/hid/audio.h ****         float postgain = 1.f;
  38:../../libs/PoliTeKDSP/libs/libDaisy/src/hid/audio.h **** 
  39:../../libs/PoliTeKDSP/libs/libDaisy/src/hid/audio.h ****         /** factor for additional one-sided compensation to audio path for hardware that may
  40:../../libs/PoliTeKDSP/libs/libDaisy/src/hid/audio.h ****          *  have unequal input/output ranges
  41:../../libs/PoliTeKDSP/libs/libDaisy/src/hid/audio.h ****          */
  42:../../libs/PoliTeKDSP/libs/libDaisy/src/hid/audio.h ****         float output_compensation = 1.f;
  43:../../libs/PoliTeKDSP/libs/libDaisy/src/hid/audio.h ****     };
  44:../../libs/PoliTeKDSP/libs/libDaisy/src/hid/audio.h **** 
  45:../../libs/PoliTeKDSP/libs/libDaisy/src/hid/audio.h ****     enum class Result
  46:../../libs/PoliTeKDSP/libs/libDaisy/src/hid/audio.h ****     {
  47:../../libs/PoliTeKDSP/libs/libDaisy/src/hid/audio.h ****         OK,
ARM GAS  C:\Users\matte\AppData\Local\Temp\ccrMwnXK.s 			page 8


  48:../../libs/PoliTeKDSP/libs/libDaisy/src/hid/audio.h ****         ERR,
  49:../../libs/PoliTeKDSP/libs/libDaisy/src/hid/audio.h ****     };
  50:../../libs/PoliTeKDSP/libs/libDaisy/src/hid/audio.h **** 
  51:../../libs/PoliTeKDSP/libs/libDaisy/src/hid/audio.h ****     /** Non-Interleaving input buffer
  52:../../libs/PoliTeKDSP/libs/libDaisy/src/hid/audio.h ****      * Buffer arranged by float[chn][sample] 
  53:../../libs/PoliTeKDSP/libs/libDaisy/src/hid/audio.h ****      * const so that the user can't modify the input
  54:../../libs/PoliTeKDSP/libs/libDaisy/src/hid/audio.h ****      */
  55:../../libs/PoliTeKDSP/libs/libDaisy/src/hid/audio.h ****     typedef const float* const* InputBuffer;
  56:../../libs/PoliTeKDSP/libs/libDaisy/src/hid/audio.h **** 
  57:../../libs/PoliTeKDSP/libs/libDaisy/src/hid/audio.h ****     /** Non-Interleaving output buffer
  58:../../libs/PoliTeKDSP/libs/libDaisy/src/hid/audio.h ****      * Arranged by float[chn][sample] 
  59:../../libs/PoliTeKDSP/libs/libDaisy/src/hid/audio.h ****      */
  60:../../libs/PoliTeKDSP/libs/libDaisy/src/hid/audio.h ****     typedef float** OutputBuffer;
  61:../../libs/PoliTeKDSP/libs/libDaisy/src/hid/audio.h **** 
  62:../../libs/PoliTeKDSP/libs/libDaisy/src/hid/audio.h ****     /** Type for a Non-Interleaving audio callback 
  63:../../libs/PoliTeKDSP/libs/libDaisy/src/hid/audio.h ****      * Non-Interleaving audio callbacks in daisy will be of this type
  64:../../libs/PoliTeKDSP/libs/libDaisy/src/hid/audio.h ****      */
  65:../../libs/PoliTeKDSP/libs/libDaisy/src/hid/audio.h ****     typedef void (*AudioCallback)(InputBuffer  in,
  66:../../libs/PoliTeKDSP/libs/libDaisy/src/hid/audio.h ****                                   OutputBuffer out,
  67:../../libs/PoliTeKDSP/libs/libDaisy/src/hid/audio.h ****                                   size_t       size);
  68:../../libs/PoliTeKDSP/libs/libDaisy/src/hid/audio.h **** 
  69:../../libs/PoliTeKDSP/libs/libDaisy/src/hid/audio.h ****     /** Interleaving Input buffer
  70:../../libs/PoliTeKDSP/libs/libDaisy/src/hid/audio.h ****      ** audio is prepared as { L0, R0, L1, R1, . . . LN, RN }]
  71:../../libs/PoliTeKDSP/libs/libDaisy/src/hid/audio.h ****      ** this is const, as the user shouldn't modify it
  72:../../libs/PoliTeKDSP/libs/libDaisy/src/hid/audio.h ****     */
  73:../../libs/PoliTeKDSP/libs/libDaisy/src/hid/audio.h ****     typedef const float* InterleavingInputBuffer;
  74:../../libs/PoliTeKDSP/libs/libDaisy/src/hid/audio.h **** 
  75:../../libs/PoliTeKDSP/libs/libDaisy/src/hid/audio.h ****     /** Interleaving Output buffer 
  76:../../libs/PoliTeKDSP/libs/libDaisy/src/hid/audio.h ****      ** audio is prepared as { L0, R0, L1, R1, . . . LN, RN }
  77:../../libs/PoliTeKDSP/libs/libDaisy/src/hid/audio.h ****     */
  78:../../libs/PoliTeKDSP/libs/libDaisy/src/hid/audio.h ****     typedef float* InterleavingOutputBuffer;
  79:../../libs/PoliTeKDSP/libs/libDaisy/src/hid/audio.h **** 
  80:../../libs/PoliTeKDSP/libs/libDaisy/src/hid/audio.h ****     /** Interleaving Audio Callback 
  81:../../libs/PoliTeKDSP/libs/libDaisy/src/hid/audio.h ****      * Interleaving audio callbacks in daisy must be of this type
  82:../../libs/PoliTeKDSP/libs/libDaisy/src/hid/audio.h ****      */
  83:../../libs/PoliTeKDSP/libs/libDaisy/src/hid/audio.h ****     typedef void (*InterleavingAudioCallback)(InterleavingInputBuffer  in,
  84:../../libs/PoliTeKDSP/libs/libDaisy/src/hid/audio.h ****                                               InterleavingOutputBuffer out,
  85:../../libs/PoliTeKDSP/libs/libDaisy/src/hid/audio.h ****                                               size_t                   size);
  86:../../libs/PoliTeKDSP/libs/libDaisy/src/hid/audio.h **** 
  87:../../libs/PoliTeKDSP/libs/libDaisy/src/hid/audio.h ****     AudioHandle() : pimpl_(nullptr) {}
  88:../../libs/PoliTeKDSP/libs/libDaisy/src/hid/audio.h ****     ~AudioHandle() {}
  62              		.loc 6 88 5 is_stmt 1 view .LVU9
  63              		.loc 6 88 5 is_stmt 0 view .LVU10
  64              	.LBE467:
  65              		.loc 1 22 19 view .LVU11
  66 0000 7047     		bx	lr
  67              		.cfi_endproc
  68              	.LFE2685:
  70              		.weak	_ZN5daisy9DaisySeedD1Ev
  71              		.thumb_set _ZN5daisy9DaisySeedD1Ev,_ZN5daisy9DaisySeedD2Ev
  72 0002 00BF     		.section	.text._ZN7daisysp10OscillatorD2Ev,"axG",%progbits,_ZN7daisysp10OscillatorD5Ev,comdat
  73              		.align	1
  74              		.p2align 2,,3
  75              		.weak	_ZN7daisysp10OscillatorD2Ev
  76              		.syntax unified
  77              		.thumb
  78              		.thumb_func
ARM GAS  C:\Users\matte\AppData\Local\Temp\ccrMwnXK.s 			page 9


  79              		.fpu fpv5-d16
  81              	_ZN7daisysp10OscillatorD2Ev:
  82              	.LVL1:
  83              	.LFB4370:
  84              		.file 7 "../../libs/DaisySP/Source/Synthesis/oscillator.h"
   1:../../libs/DaisySP/Source/Synthesis/oscillator.h **** /*
   2:../../libs/DaisySP/Source/Synthesis/oscillator.h **** Copyright (c) 2020 Electrosmith, Corp
   3:../../libs/DaisySP/Source/Synthesis/oscillator.h **** 
   4:../../libs/DaisySP/Source/Synthesis/oscillator.h **** Use of this source code is governed by an MIT-style
   5:../../libs/DaisySP/Source/Synthesis/oscillator.h **** license that can be found in the LICENSE file or at
   6:../../libs/DaisySP/Source/Synthesis/oscillator.h **** https://opensource.org/licenses/MIT.
   7:../../libs/DaisySP/Source/Synthesis/oscillator.h **** */
   8:../../libs/DaisySP/Source/Synthesis/oscillator.h **** 
   9:../../libs/DaisySP/Source/Synthesis/oscillator.h **** #pragma once
  10:../../libs/DaisySP/Source/Synthesis/oscillator.h **** #ifndef DSY_OSCILLATOR_H
  11:../../libs/DaisySP/Source/Synthesis/oscillator.h **** #define DSY_OSCILLATOR_H
  12:../../libs/DaisySP/Source/Synthesis/oscillator.h **** #include <stdint.h>
  13:../../libs/DaisySP/Source/Synthesis/oscillator.h **** #include "Utility/dsp.h"
  14:../../libs/DaisySP/Source/Synthesis/oscillator.h **** #ifdef __cplusplus
  15:../../libs/DaisySP/Source/Synthesis/oscillator.h **** 
  16:../../libs/DaisySP/Source/Synthesis/oscillator.h **** namespace daisysp
  17:../../libs/DaisySP/Source/Synthesis/oscillator.h **** {
  18:../../libs/DaisySP/Source/Synthesis/oscillator.h **** /** Synthesis of several waveforms, including polyBLEP bandlimited waveforms.
  19:../../libs/DaisySP/Source/Synthesis/oscillator.h **** */
  20:../../libs/DaisySP/Source/Synthesis/oscillator.h **** class Oscillator
  21:../../libs/DaisySP/Source/Synthesis/oscillator.h **** {
  22:../../libs/DaisySP/Source/Synthesis/oscillator.h ****   public:
  23:../../libs/DaisySP/Source/Synthesis/oscillator.h ****     Oscillator() {}
  24:../../libs/DaisySP/Source/Synthesis/oscillator.h ****     ~Oscillator() {}
  85              		.loc 7 24 5 is_stmt 1 view -0
  86              		.cfi_startproc
  87              		@ args = 0, pretend = 0, frame = 0
  88              		@ frame_needed = 0, uses_anonymous_args = 0
  89              		@ link register save eliminated.
  90              		.loc 7 24 20 is_stmt 0 view .LVU13
  91 0000 7047     		bx	lr
  92              		.cfi_endproc
  93              	.LFE4370:
  95              		.weak	_ZN7daisysp10OscillatorD1Ev
  96              		.thumb_set _ZN7daisysp10OscillatorD1Ev,_ZN7daisysp10OscillatorD2Ev
  97              		.section	.text._ZN5daisy11OledDisplayINS_13SSD130xDriverILj128ELj64ENS_19SSD130xI2CTransportEEEED2
  98              		.align	1
  99              		.p2align 2,,3
 100              		.weak	_ZN5daisy11OledDisplayINS_13SSD130xDriverILj128ELj64ENS_19SSD130xI2CTransportEEEED2Ev
 101              		.syntax unified
 102              		.thumb
 103              		.thumb_func
 104              		.fpu fpv5-d16
 106              	_ZN5daisy11OledDisplayINS_13SSD130xDriverILj128ELj64ENS_19SSD130xI2CTransportEEEED2Ev:
 107              	.LVL2:
 108              	.LFB5443:
 109              		.file 8 "../../libs/PoliTeKDSP/libs/libDaisy/src/hid/disp/oled_display.h"
   1:../../libs/PoliTeKDSP/libs/libDaisy/src/hid/disp/oled_display.h **** #pragma once
   2:../../libs/PoliTeKDSP/libs/libDaisy/src/hid/disp/oled_display.h **** #ifndef DSY_OLED_DISPLAY_H
   3:../../libs/PoliTeKDSP/libs/libDaisy/src/hid/disp/oled_display.h **** #define DSY_OLED_DISPLAY_H /**< Macro */
   4:../../libs/PoliTeKDSP/libs/libDaisy/src/hid/disp/oled_display.h **** 
   5:../../libs/PoliTeKDSP/libs/libDaisy/src/hid/disp/oled_display.h **** #include "display.h"
ARM GAS  C:\Users\matte\AppData\Local\Temp\ccrMwnXK.s 			page 10


   6:../../libs/PoliTeKDSP/libs/libDaisy/src/hid/disp/oled_display.h **** 
   7:../../libs/PoliTeKDSP/libs/libDaisy/src/hid/disp/oled_display.h **** namespace daisy
   8:../../libs/PoliTeKDSP/libs/libDaisy/src/hid/disp/oled_display.h **** {
   9:../../libs/PoliTeKDSP/libs/libDaisy/src/hid/disp/oled_display.h **** /** 
  10:../../libs/PoliTeKDSP/libs/libDaisy/src/hid/disp/oled_display.h ****  * This class is for drawing to a monochrome OLED display. 
  11:../../libs/PoliTeKDSP/libs/libDaisy/src/hid/disp/oled_display.h ****  * @ingroup device
  12:../../libs/PoliTeKDSP/libs/libDaisy/src/hid/disp/oled_display.h **** */
  13:../../libs/PoliTeKDSP/libs/libDaisy/src/hid/disp/oled_display.h **** template <typename DisplayDriver>
  14:../../libs/PoliTeKDSP/libs/libDaisy/src/hid/disp/oled_display.h **** class OledDisplay : public OneBitGraphicsDisplayImpl<OledDisplay<DisplayDriver>>
  15:../../libs/PoliTeKDSP/libs/libDaisy/src/hid/disp/oled_display.h **** {
  16:../../libs/PoliTeKDSP/libs/libDaisy/src/hid/disp/oled_display.h ****   public:
  17:../../libs/PoliTeKDSP/libs/libDaisy/src/hid/disp/oled_display.h ****     OledDisplay() {}
  18:../../libs/PoliTeKDSP/libs/libDaisy/src/hid/disp/oled_display.h ****     virtual ~OledDisplay() {}
 110              		.loc 8 18 13 is_stmt 1 view -0
 111              		.cfi_startproc
 112              		@ args = 0, pretend = 0, frame = 0
 113              		@ frame_needed = 0, uses_anonymous_args = 0
 114              		@ link register save eliminated.
 115              	.LBB468:
 116              	.LBI468:
 117              		.file 9 "../../libs/PoliTeKDSP/libs/libDaisy/src/hid/disp/display.h"
   1:../../libs/PoliTeKDSP/libs/libDaisy/src/hid/disp/display.h **** #pragma once
   2:../../libs/PoliTeKDSP/libs/libDaisy/src/hid/disp/display.h **** #ifndef DSY_DISPLAY_H
   3:../../libs/PoliTeKDSP/libs/libDaisy/src/hid/disp/display.h **** #define DSY_DISPLAY_H /**< Macro */
   4:../../libs/PoliTeKDSP/libs/libDaisy/src/hid/disp/display.h **** #include <cmath>
   5:../../libs/PoliTeKDSP/libs/libDaisy/src/hid/disp/display.h **** #include "util/oled_fonts.h"
   6:../../libs/PoliTeKDSP/libs/libDaisy/src/hid/disp/display.h **** #include "daisy_core.h"
   7:../../libs/PoliTeKDSP/libs/libDaisy/src/hid/disp/display.h **** #include "graphics_common.h"
   8:../../libs/PoliTeKDSP/libs/libDaisy/src/hid/disp/display.h **** 
   9:../../libs/PoliTeKDSP/libs/libDaisy/src/hid/disp/display.h **** #ifndef deg2rad
  10:../../libs/PoliTeKDSP/libs/libDaisy/src/hid/disp/display.h **** #define deg2rad(deg) ((deg)*3.141592 / 180.0)
  11:../../libs/PoliTeKDSP/libs/libDaisy/src/hid/disp/display.h **** #endif
  12:../../libs/PoliTeKDSP/libs/libDaisy/src/hid/disp/display.h **** 
  13:../../libs/PoliTeKDSP/libs/libDaisy/src/hid/disp/display.h **** namespace daisy
  14:../../libs/PoliTeKDSP/libs/libDaisy/src/hid/disp/display.h **** {
  15:../../libs/PoliTeKDSP/libs/libDaisy/src/hid/disp/display.h **** /** 
  16:../../libs/PoliTeKDSP/libs/libDaisy/src/hid/disp/display.h ****  * This interface is used as a base class for all types of 1bit-per-pixel
  17:../../libs/PoliTeKDSP/libs/libDaisy/src/hid/disp/display.h ****  * graphics displays.
  18:../../libs/PoliTeKDSP/libs/libDaisy/src/hid/disp/display.h **** */
  19:../../libs/PoliTeKDSP/libs/libDaisy/src/hid/disp/display.h **** class OneBitGraphicsDisplay
  20:../../libs/PoliTeKDSP/libs/libDaisy/src/hid/disp/display.h **** {
  21:../../libs/PoliTeKDSP/libs/libDaisy/src/hid/disp/display.h ****   public:
  22:../../libs/PoliTeKDSP/libs/libDaisy/src/hid/disp/display.h ****     OneBitGraphicsDisplay() {}
  23:../../libs/PoliTeKDSP/libs/libDaisy/src/hid/disp/display.h ****     virtual ~OneBitGraphicsDisplay() {}
  24:../../libs/PoliTeKDSP/libs/libDaisy/src/hid/disp/display.h **** 
  25:../../libs/PoliTeKDSP/libs/libDaisy/src/hid/disp/display.h ****     virtual uint16_t Height() const = 0;
  26:../../libs/PoliTeKDSP/libs/libDaisy/src/hid/disp/display.h ****     virtual uint16_t Width() const  = 0;
  27:../../libs/PoliTeKDSP/libs/libDaisy/src/hid/disp/display.h **** 
  28:../../libs/PoliTeKDSP/libs/libDaisy/src/hid/disp/display.h ****     Rectangle GetBounds() const
  29:../../libs/PoliTeKDSP/libs/libDaisy/src/hid/disp/display.h ****     {
  30:../../libs/PoliTeKDSP/libs/libDaisy/src/hid/disp/display.h ****         return Rectangle(int16_t(Width()), int16_t(Height()));
  31:../../libs/PoliTeKDSP/libs/libDaisy/src/hid/disp/display.h ****     }
  32:../../libs/PoliTeKDSP/libs/libDaisy/src/hid/disp/display.h **** 
  33:../../libs/PoliTeKDSP/libs/libDaisy/src/hid/disp/display.h **** 
  34:../../libs/PoliTeKDSP/libs/libDaisy/src/hid/disp/display.h ****     size_t CurrentX() { return currentX_; };
  35:../../libs/PoliTeKDSP/libs/libDaisy/src/hid/disp/display.h ****     size_t CurrentY() { return currentY_; };
  36:../../libs/PoliTeKDSP/libs/libDaisy/src/hid/disp/display.h **** 
ARM GAS  C:\Users\matte\AppData\Local\Temp\ccrMwnXK.s 			page 11


  37:../../libs/PoliTeKDSP/libs/libDaisy/src/hid/disp/display.h ****     /** 
  38:../../libs/PoliTeKDSP/libs/libDaisy/src/hid/disp/display.h ****     Fills the entire display with either on/off.
  39:../../libs/PoliTeKDSP/libs/libDaisy/src/hid/disp/display.h ****     \param on Sets on or off.
  40:../../libs/PoliTeKDSP/libs/libDaisy/src/hid/disp/display.h ****     */
  41:../../libs/PoliTeKDSP/libs/libDaisy/src/hid/disp/display.h ****     virtual void Fill(bool on) = 0;
  42:../../libs/PoliTeKDSP/libs/libDaisy/src/hid/disp/display.h **** 
  43:../../libs/PoliTeKDSP/libs/libDaisy/src/hid/disp/display.h ****     /**
  44:../../libs/PoliTeKDSP/libs/libDaisy/src/hid/disp/display.h ****     Sets the pixel at the specified coordinate to be on/off.
  45:../../libs/PoliTeKDSP/libs/libDaisy/src/hid/disp/display.h ****     \param x   x Coordinate
  46:../../libs/PoliTeKDSP/libs/libDaisy/src/hid/disp/display.h ****     \param y   y coordinate
  47:../../libs/PoliTeKDSP/libs/libDaisy/src/hid/disp/display.h ****     \param on  on or off
  48:../../libs/PoliTeKDSP/libs/libDaisy/src/hid/disp/display.h ****     */
  49:../../libs/PoliTeKDSP/libs/libDaisy/src/hid/disp/display.h ****     virtual void DrawPixel(uint_fast8_t x, uint_fast8_t y, bool on) = 0;
  50:../../libs/PoliTeKDSP/libs/libDaisy/src/hid/disp/display.h **** 
  51:../../libs/PoliTeKDSP/libs/libDaisy/src/hid/disp/display.h ****     /**
  52:../../libs/PoliTeKDSP/libs/libDaisy/src/hid/disp/display.h ****     Draws a line from (x1, y1) to (y1, y2)
  53:../../libs/PoliTeKDSP/libs/libDaisy/src/hid/disp/display.h ****     \param x1  x Coordinate of the starting point
  54:../../libs/PoliTeKDSP/libs/libDaisy/src/hid/disp/display.h ****     \param y1  y Coordinate of the starting point
  55:../../libs/PoliTeKDSP/libs/libDaisy/src/hid/disp/display.h ****     \param x2  x Coordinate of the ending point
  56:../../libs/PoliTeKDSP/libs/libDaisy/src/hid/disp/display.h ****     \param y2  y Coordinate of the ending point
  57:../../libs/PoliTeKDSP/libs/libDaisy/src/hid/disp/display.h ****     \param on  on or off
  58:../../libs/PoliTeKDSP/libs/libDaisy/src/hid/disp/display.h ****     */
  59:../../libs/PoliTeKDSP/libs/libDaisy/src/hid/disp/display.h ****     virtual void DrawLine(uint_fast8_t x1,
  60:../../libs/PoliTeKDSP/libs/libDaisy/src/hid/disp/display.h ****                           uint_fast8_t y1,
  61:../../libs/PoliTeKDSP/libs/libDaisy/src/hid/disp/display.h ****                           uint_fast8_t x2,
  62:../../libs/PoliTeKDSP/libs/libDaisy/src/hid/disp/display.h ****                           uint_fast8_t y2,
  63:../../libs/PoliTeKDSP/libs/libDaisy/src/hid/disp/display.h ****                           bool         on)
  64:../../libs/PoliTeKDSP/libs/libDaisy/src/hid/disp/display.h ****         = 0;
  65:../../libs/PoliTeKDSP/libs/libDaisy/src/hid/disp/display.h **** 
  66:../../libs/PoliTeKDSP/libs/libDaisy/src/hid/disp/display.h ****     /**
  67:../../libs/PoliTeKDSP/libs/libDaisy/src/hid/disp/display.h ****     Draws a rectangle based on two coordinates.
  68:../../libs/PoliTeKDSP/libs/libDaisy/src/hid/disp/display.h ****     \param x1 x Coordinate of the first point
  69:../../libs/PoliTeKDSP/libs/libDaisy/src/hid/disp/display.h ****     \param y1 y Coordinate of the first point
  70:../../libs/PoliTeKDSP/libs/libDaisy/src/hid/disp/display.h ****     \param x2 x Coordinate of the second point
  71:../../libs/PoliTeKDSP/libs/libDaisy/src/hid/disp/display.h ****     \param y2 y Coordinate of the second point
  72:../../libs/PoliTeKDSP/libs/libDaisy/src/hid/disp/display.h ****     \param on on or off
  73:../../libs/PoliTeKDSP/libs/libDaisy/src/hid/disp/display.h ****     \param fill fill the rectangle or draw only the outline
  74:../../libs/PoliTeKDSP/libs/libDaisy/src/hid/disp/display.h ****     */
  75:../../libs/PoliTeKDSP/libs/libDaisy/src/hid/disp/display.h ****     virtual void DrawRect(uint_fast8_t x1,
  76:../../libs/PoliTeKDSP/libs/libDaisy/src/hid/disp/display.h ****                           uint_fast8_t y1,
  77:../../libs/PoliTeKDSP/libs/libDaisy/src/hid/disp/display.h ****                           uint_fast8_t x2,
  78:../../libs/PoliTeKDSP/libs/libDaisy/src/hid/disp/display.h ****                           uint_fast8_t y2,
  79:../../libs/PoliTeKDSP/libs/libDaisy/src/hid/disp/display.h ****                           bool         on,
  80:../../libs/PoliTeKDSP/libs/libDaisy/src/hid/disp/display.h ****                           bool         fill = false)
  81:../../libs/PoliTeKDSP/libs/libDaisy/src/hid/disp/display.h ****         = 0;
  82:../../libs/PoliTeKDSP/libs/libDaisy/src/hid/disp/display.h **** 
  83:../../libs/PoliTeKDSP/libs/libDaisy/src/hid/disp/display.h ****     /**
  84:../../libs/PoliTeKDSP/libs/libDaisy/src/hid/disp/display.h ****     Draws a rectangle.
  85:../../libs/PoliTeKDSP/libs/libDaisy/src/hid/disp/display.h ****     \param rect the rectangle
  86:../../libs/PoliTeKDSP/libs/libDaisy/src/hid/disp/display.h ****     \param on   on or off
  87:../../libs/PoliTeKDSP/libs/libDaisy/src/hid/disp/display.h ****     \param fill fill the rectangle or draw only the outline
  88:../../libs/PoliTeKDSP/libs/libDaisy/src/hid/disp/display.h ****     */
  89:../../libs/PoliTeKDSP/libs/libDaisy/src/hid/disp/display.h ****     void DrawRect(const Rectangle& rect, bool on, bool fill = false)
  90:../../libs/PoliTeKDSP/libs/libDaisy/src/hid/disp/display.h ****     {
  91:../../libs/PoliTeKDSP/libs/libDaisy/src/hid/disp/display.h ****         DrawRect(rect.GetX(),
  92:../../libs/PoliTeKDSP/libs/libDaisy/src/hid/disp/display.h ****                  rect.GetY(),
  93:../../libs/PoliTeKDSP/libs/libDaisy/src/hid/disp/display.h ****                  rect.GetRight(),
ARM GAS  C:\Users\matte\AppData\Local\Temp\ccrMwnXK.s 			page 12


  94:../../libs/PoliTeKDSP/libs/libDaisy/src/hid/disp/display.h ****                  rect.GetBottom(),
  95:../../libs/PoliTeKDSP/libs/libDaisy/src/hid/disp/display.h ****                  on,
  96:../../libs/PoliTeKDSP/libs/libDaisy/src/hid/disp/display.h ****                  fill);
  97:../../libs/PoliTeKDSP/libs/libDaisy/src/hid/disp/display.h ****     }
  98:../../libs/PoliTeKDSP/libs/libDaisy/src/hid/disp/display.h **** 
  99:../../libs/PoliTeKDSP/libs/libDaisy/src/hid/disp/display.h ****     /**
 100:../../libs/PoliTeKDSP/libs/libDaisy/src/hid/disp/display.h ****     Draws an arc around the specified coordinate
 101:../../libs/PoliTeKDSP/libs/libDaisy/src/hid/disp/display.h ****     \param x           x Coordinate of the center of the arc
 102:../../libs/PoliTeKDSP/libs/libDaisy/src/hid/disp/display.h ****     \param y           y Coordinate of the center of the arc
 103:../../libs/PoliTeKDSP/libs/libDaisy/src/hid/disp/display.h ****     \param radius      radius of the arc
 104:../../libs/PoliTeKDSP/libs/libDaisy/src/hid/disp/display.h ****     \param start_angle angle where to start the arc
 105:../../libs/PoliTeKDSP/libs/libDaisy/src/hid/disp/display.h ****     \param sweep       total angle of the arc
 106:../../libs/PoliTeKDSP/libs/libDaisy/src/hid/disp/display.h ****     \param on  on or off
 107:../../libs/PoliTeKDSP/libs/libDaisy/src/hid/disp/display.h ****     */
 108:../../libs/PoliTeKDSP/libs/libDaisy/src/hid/disp/display.h ****     virtual void DrawArc(uint_fast8_t x,
 109:../../libs/PoliTeKDSP/libs/libDaisy/src/hid/disp/display.h ****                          uint_fast8_t y,
 110:../../libs/PoliTeKDSP/libs/libDaisy/src/hid/disp/display.h ****                          uint_fast8_t radius,
 111:../../libs/PoliTeKDSP/libs/libDaisy/src/hid/disp/display.h ****                          int_fast16_t start_angle,
 112:../../libs/PoliTeKDSP/libs/libDaisy/src/hid/disp/display.h ****                          int_fast16_t sweep,
 113:../../libs/PoliTeKDSP/libs/libDaisy/src/hid/disp/display.h ****                          bool         on)
 114:../../libs/PoliTeKDSP/libs/libDaisy/src/hid/disp/display.h ****         = 0;
 115:../../libs/PoliTeKDSP/libs/libDaisy/src/hid/disp/display.h **** 
 116:../../libs/PoliTeKDSP/libs/libDaisy/src/hid/disp/display.h ****     /**
 117:../../libs/PoliTeKDSP/libs/libDaisy/src/hid/disp/display.h ****     Draws a circle around the specified coordinate
 118:../../libs/PoliTeKDSP/libs/libDaisy/src/hid/disp/display.h ****     \param x           x Coordinate of the center of the circle
 119:../../libs/PoliTeKDSP/libs/libDaisy/src/hid/disp/display.h ****     \param y           y Coordinate of the center of the circle
 120:../../libs/PoliTeKDSP/libs/libDaisy/src/hid/disp/display.h ****     \param radius      radius of the circle
 121:../../libs/PoliTeKDSP/libs/libDaisy/src/hid/disp/display.h ****     \param on  on or off
 122:../../libs/PoliTeKDSP/libs/libDaisy/src/hid/disp/display.h ****     */
 123:../../libs/PoliTeKDSP/libs/libDaisy/src/hid/disp/display.h ****     void
 124:../../libs/PoliTeKDSP/libs/libDaisy/src/hid/disp/display.h ****     DrawCircle(uint_fast8_t x, uint_fast8_t y, uint_fast8_t radius, bool on)
 125:../../libs/PoliTeKDSP/libs/libDaisy/src/hid/disp/display.h ****     {
 126:../../libs/PoliTeKDSP/libs/libDaisy/src/hid/disp/display.h ****         DrawArc(x, y, radius, 0, 360, on);
 127:../../libs/PoliTeKDSP/libs/libDaisy/src/hid/disp/display.h ****     };
 128:../../libs/PoliTeKDSP/libs/libDaisy/src/hid/disp/display.h **** 
 129:../../libs/PoliTeKDSP/libs/libDaisy/src/hid/disp/display.h ****     /** 
 130:../../libs/PoliTeKDSP/libs/libDaisy/src/hid/disp/display.h ****     Writes the character with the specific FontDef
 131:../../libs/PoliTeKDSP/libs/libDaisy/src/hid/disp/display.h ****     to the display buffer at the current Cursor position.
 132:../../libs/PoliTeKDSP/libs/libDaisy/src/hid/disp/display.h ****     \param ch character to be written
 133:../../libs/PoliTeKDSP/libs/libDaisy/src/hid/disp/display.h ****     \param font font to be written in
 134:../../libs/PoliTeKDSP/libs/libDaisy/src/hid/disp/display.h ****     \param on    on or off
 135:../../libs/PoliTeKDSP/libs/libDaisy/src/hid/disp/display.h ****     \return &
 136:../../libs/PoliTeKDSP/libs/libDaisy/src/hid/disp/display.h ****     */
 137:../../libs/PoliTeKDSP/libs/libDaisy/src/hid/disp/display.h ****     virtual char WriteChar(char ch, FontDef font, bool on) = 0;
 138:../../libs/PoliTeKDSP/libs/libDaisy/src/hid/disp/display.h **** 
 139:../../libs/PoliTeKDSP/libs/libDaisy/src/hid/disp/display.h ****     /** 
 140:../../libs/PoliTeKDSP/libs/libDaisy/src/hid/disp/display.h ****     Similar to WriteChar, except it will handle an entire String.
 141:../../libs/PoliTeKDSP/libs/libDaisy/src/hid/disp/display.h ****     Wrapping does not happen automatically, so the width
 142:../../libs/PoliTeKDSP/libs/libDaisy/src/hid/disp/display.h ****     of the string must be kept within the dimensions of the screen.
 143:../../libs/PoliTeKDSP/libs/libDaisy/src/hid/disp/display.h ****     \param str string to be written
 144:../../libs/PoliTeKDSP/libs/libDaisy/src/hid/disp/display.h ****     \param font font to use
 145:../../libs/PoliTeKDSP/libs/libDaisy/src/hid/disp/display.h ****     \param on  on or off
 146:../../libs/PoliTeKDSP/libs/libDaisy/src/hid/disp/display.h ****     \return &
 147:../../libs/PoliTeKDSP/libs/libDaisy/src/hid/disp/display.h ****     */
 148:../../libs/PoliTeKDSP/libs/libDaisy/src/hid/disp/display.h ****     virtual char WriteString(const char* str, FontDef font, bool on) = 0;
 149:../../libs/PoliTeKDSP/libs/libDaisy/src/hid/disp/display.h **** 
 150:../../libs/PoliTeKDSP/libs/libDaisy/src/hid/disp/display.h ****     /** 
ARM GAS  C:\Users\matte\AppData\Local\Temp\ccrMwnXK.s 			page 13


 151:../../libs/PoliTeKDSP/libs/libDaisy/src/hid/disp/display.h ****     Similar to WriteString but justified within a bounding box.
 152:../../libs/PoliTeKDSP/libs/libDaisy/src/hid/disp/display.h ****     \param str          string to be written
 153:../../libs/PoliTeKDSP/libs/libDaisy/src/hid/disp/display.h ****     \param font         font to use
 154:../../libs/PoliTeKDSP/libs/libDaisy/src/hid/disp/display.h ****     \param boundingBox  the bounding box to draw the text in
 155:../../libs/PoliTeKDSP/libs/libDaisy/src/hid/disp/display.h ****     \param alignment    the alignment to use
 156:../../libs/PoliTeKDSP/libs/libDaisy/src/hid/disp/display.h ****     \param on           on or off
 157:../../libs/PoliTeKDSP/libs/libDaisy/src/hid/disp/display.h ****     \return The rectangle that was drawn to
 158:../../libs/PoliTeKDSP/libs/libDaisy/src/hid/disp/display.h ****     */
 159:../../libs/PoliTeKDSP/libs/libDaisy/src/hid/disp/display.h ****     virtual Rectangle WriteStringAligned(const char*    str,
 160:../../libs/PoliTeKDSP/libs/libDaisy/src/hid/disp/display.h ****                                          const FontDef& font,
 161:../../libs/PoliTeKDSP/libs/libDaisy/src/hid/disp/display.h ****                                          Rectangle      boundingBox,
 162:../../libs/PoliTeKDSP/libs/libDaisy/src/hid/disp/display.h ****                                          Alignment      alignment,
 163:../../libs/PoliTeKDSP/libs/libDaisy/src/hid/disp/display.h ****                                          bool           on)
 164:../../libs/PoliTeKDSP/libs/libDaisy/src/hid/disp/display.h ****         = 0;
 165:../../libs/PoliTeKDSP/libs/libDaisy/src/hid/disp/display.h **** 
 166:../../libs/PoliTeKDSP/libs/libDaisy/src/hid/disp/display.h ****     /** 
 167:../../libs/PoliTeKDSP/libs/libDaisy/src/hid/disp/display.h ****     Moves the 'Cursor' position used for WriteChar, and WriteStr to the specified coordinate.
 168:../../libs/PoliTeKDSP/libs/libDaisy/src/hid/disp/display.h ****     \param x x pos
 169:../../libs/PoliTeKDSP/libs/libDaisy/src/hid/disp/display.h ****     \param y y pos
 170:../../libs/PoliTeKDSP/libs/libDaisy/src/hid/disp/display.h ****     */
 171:../../libs/PoliTeKDSP/libs/libDaisy/src/hid/disp/display.h ****     void SetCursor(uint16_t x, uint16_t y)
 172:../../libs/PoliTeKDSP/libs/libDaisy/src/hid/disp/display.h ****     {
 173:../../libs/PoliTeKDSP/libs/libDaisy/src/hid/disp/display.h ****         currentX_ = (x >= Width()) ? Width() - 1 : x;
 174:../../libs/PoliTeKDSP/libs/libDaisy/src/hid/disp/display.h ****         currentY_ = (y >= Height()) ? Height() - 1 : y;
 175:../../libs/PoliTeKDSP/libs/libDaisy/src/hid/disp/display.h ****     }
 176:../../libs/PoliTeKDSP/libs/libDaisy/src/hid/disp/display.h **** 
 177:../../libs/PoliTeKDSP/libs/libDaisy/src/hid/disp/display.h ****     /** 
 178:../../libs/PoliTeKDSP/libs/libDaisy/src/hid/disp/display.h ****     Writes the current display buffer to the OLED device using SPI or I2C depending on 
 179:../../libs/PoliTeKDSP/libs/libDaisy/src/hid/disp/display.h ****     how the object was initialized.
 180:../../libs/PoliTeKDSP/libs/libDaisy/src/hid/disp/display.h ****     */
 181:../../libs/PoliTeKDSP/libs/libDaisy/src/hid/disp/display.h ****     virtual void Update() = 0;
 182:../../libs/PoliTeKDSP/libs/libDaisy/src/hid/disp/display.h **** 
 183:../../libs/PoliTeKDSP/libs/libDaisy/src/hid/disp/display.h ****   protected:
 184:../../libs/PoliTeKDSP/libs/libDaisy/src/hid/disp/display.h ****     uint16_t currentX_;
 185:../../libs/PoliTeKDSP/libs/libDaisy/src/hid/disp/display.h ****     uint16_t currentY_;
 186:../../libs/PoliTeKDSP/libs/libDaisy/src/hid/disp/display.h **** };
 187:../../libs/PoliTeKDSP/libs/libDaisy/src/hid/disp/display.h **** 
 188:../../libs/PoliTeKDSP/libs/libDaisy/src/hid/disp/display.h **** /** This class is intended as a intermediary class for your actual implementation of the OneBitGrap
 189:../../libs/PoliTeKDSP/libs/libDaisy/src/hid/disp/display.h ****  *  interface. It uses the CRTP design pattern where the template argument is the child class. It p
 190:../../libs/PoliTeKDSP/libs/libDaisy/src/hid/disp/display.h ****  *  implementations for most of the functions, except DrawPixel(), Update() and Fill(), which you'l
 191:../../libs/PoliTeKDSP/libs/libDaisy/src/hid/disp/display.h ****  *  to provide in your child class.
 192:../../libs/PoliTeKDSP/libs/libDaisy/src/hid/disp/display.h ****  *  The main goal of this class is to provide common drawing functions without relying on massive a
 193:../../libs/PoliTeKDSP/libs/libDaisy/src/hid/disp/display.h ****  *  virtual function calls that would result in a performance loss. To achieve this, any drawing fu
 194:../../libs/PoliTeKDSP/libs/libDaisy/src/hid/disp/display.h ****  *  is implemented here and internally calls other drawing functions (e.g. DrawRect() which interna
 195:../../libs/PoliTeKDSP/libs/libDaisy/src/hid/disp/display.h ****  *  DrawPixel() and DrawLine()) makes these calls via the qualified name of these functions to expl
 196:../../libs/PoliTeKDSP/libs/libDaisy/src/hid/disp/display.h ****  *  suppress the virtual dispatch mechanism like this:
 197:../../libs/PoliTeKDSP/libs/libDaisy/src/hid/disp/display.h ****  * 
 198:../../libs/PoliTeKDSP/libs/libDaisy/src/hid/disp/display.h ****  *      ChildType::DrawPixel(...); // no virtual function call; direct call into the child class fu
 199:../../libs/PoliTeKDSP/libs/libDaisy/src/hid/disp/display.h ****  *  
 200:../../libs/PoliTeKDSP/libs/libDaisy/src/hid/disp/display.h ****  *  To create a custom OneBitGraphicsDisplay implementation, you can 
 201:../../libs/PoliTeKDSP/libs/libDaisy/src/hid/disp/display.h ****  *  A) inherit from OneBitGraphicsDisplay directly and provide all the drawing functions yourself
 202:../../libs/PoliTeKDSP/libs/libDaisy/src/hid/disp/display.h ****  *  B) Inherit from OneBitGraphicsDisplayImpl and only provide DrawPixel(), Fill() and Update()
 203:../../libs/PoliTeKDSP/libs/libDaisy/src/hid/disp/display.h ****  *     like this:
 204:../../libs/PoliTeKDSP/libs/libDaisy/src/hid/disp/display.h ****  *  
 205:../../libs/PoliTeKDSP/libs/libDaisy/src/hid/disp/display.h ****  *      class MyDisplayClass : public OneBitGraphicsDisplayImpl<MyDisplayClass> 
 206:../../libs/PoliTeKDSP/libs/libDaisy/src/hid/disp/display.h ****  *      {
 207:../../libs/PoliTeKDSP/libs/libDaisy/src/hid/disp/display.h ****  *      public:
ARM GAS  C:\Users\matte\AppData\Local\Temp\ccrMwnXK.s 			page 14


 208:../../libs/PoliTeKDSP/libs/libDaisy/src/hid/disp/display.h ****  *          void Fill() override { ... };
 209:../../libs/PoliTeKDSP/libs/libDaisy/src/hid/disp/display.h ****  *          void DrawPixel(uint_fast8_t x, uint_fast8_t y, bool on) override { ... };
 210:../../libs/PoliTeKDSP/libs/libDaisy/src/hid/disp/display.h ****  *          void Update() override { ... }
 211:../../libs/PoliTeKDSP/libs/libDaisy/src/hid/disp/display.h ****  *      };
 212:../../libs/PoliTeKDSP/libs/libDaisy/src/hid/disp/display.h ****  *  
 213:../../libs/PoliTeKDSP/libs/libDaisy/src/hid/disp/display.h ****  */
 214:../../libs/PoliTeKDSP/libs/libDaisy/src/hid/disp/display.h **** template <class ChildType>
 215:../../libs/PoliTeKDSP/libs/libDaisy/src/hid/disp/display.h **** class OneBitGraphicsDisplayImpl : public OneBitGraphicsDisplay
 216:../../libs/PoliTeKDSP/libs/libDaisy/src/hid/disp/display.h **** {
 217:../../libs/PoliTeKDSP/libs/libDaisy/src/hid/disp/display.h ****   public:
 218:../../libs/PoliTeKDSP/libs/libDaisy/src/hid/disp/display.h ****     OneBitGraphicsDisplayImpl() {}
 219:../../libs/PoliTeKDSP/libs/libDaisy/src/hid/disp/display.h ****     virtual ~OneBitGraphicsDisplayImpl() {}
 118              		.loc 9 219 13 view .LVU15
 119              	.LBB469:
 120              	.LBI469:
  23:../../libs/PoliTeKDSP/libs/libDaisy/src/hid/disp/display.h **** 
 121              		.loc 9 23 13 view .LVU16
  23:../../libs/PoliTeKDSP/libs/libDaisy/src/hid/disp/display.h **** 
 122              		.loc 9 23 13 is_stmt 0 view .LVU17
 123              	.LBE469:
 124              	.LBE468:
 125              		.loc 8 18 29 view .LVU18
 126 0000 7047     		bx	lr
 127              		.cfi_endproc
 128              	.LFE5443:
 130              		.weak	_ZN5daisy11OledDisplayINS_13SSD130xDriverILj128ELj64ENS_19SSD130xI2CTransportEEEED1Ev
 131              		.thumb_set _ZN5daisy11OledDisplayINS_13SSD130xDriverILj128ELj64ENS_19SSD130xI2CTransportEEEED1Ev,_
 132 0002 00BF     		.section	.text._ZNK5daisy11OledDisplayINS_13SSD130xDriverILj128ELj64ENS_19SSD130xI2CTransportEEEE6
 133              		.align	1
 134              		.p2align 2,,3
 135              		.weak	_ZNK5daisy11OledDisplayINS_13SSD130xDriverILj128ELj64ENS_19SSD130xI2CTransportEEEE6HeightEv
 136              		.syntax unified
 137              		.thumb
 138              		.thumb_func
 139              		.fpu fpv5-d16
 141              	_ZNK5daisy11OledDisplayINS_13SSD130xDriverILj128ELj64ENS_19SSD130xI2CTransportEEEE6HeightEv:
 142              	.LVL3:
 143              	.LFB5446:
  19:../../libs/PoliTeKDSP/libs/libDaisy/src/hid/disp/oled_display.h **** 
  20:../../libs/PoliTeKDSP/libs/libDaisy/src/hid/disp/oled_display.h ****     struct Config
  21:../../libs/PoliTeKDSP/libs/libDaisy/src/hid/disp/oled_display.h ****     {
  22:../../libs/PoliTeKDSP/libs/libDaisy/src/hid/disp/oled_display.h ****         typename DisplayDriver::Config driver_config;
  23:../../libs/PoliTeKDSP/libs/libDaisy/src/hid/disp/oled_display.h ****     };
  24:../../libs/PoliTeKDSP/libs/libDaisy/src/hid/disp/oled_display.h **** 
  25:../../libs/PoliTeKDSP/libs/libDaisy/src/hid/disp/oled_display.h ****     void Init(Config config) { driver_.Init(config.driver_config); }
  26:../../libs/PoliTeKDSP/libs/libDaisy/src/hid/disp/oled_display.h **** 
  27:../../libs/PoliTeKDSP/libs/libDaisy/src/hid/disp/oled_display.h ****     uint16_t Height() const override { return driver_.Height(); }
 144              		.loc 8 27 14 is_stmt 1 view -0
 145              		.cfi_startproc
 146              		@ args = 0, pretend = 0, frame = 0
 147              		@ frame_needed = 0, uses_anonymous_args = 0
 148              		@ link register save eliminated.
 149              		.loc 8 27 65 is_stmt 0 view .LVU20
 150 0000 4020     		movs	r0, #64
 151              	.LVL4:
 152              		.loc 8 27 65 view .LVU21
 153 0002 7047     		bx	lr
ARM GAS  C:\Users\matte\AppData\Local\Temp\ccrMwnXK.s 			page 15


 154              		.cfi_endproc
 155              	.LFE5446:
 157              		.section	.text._ZNK5daisy11OledDisplayINS_13SSD130xDriverILj128ELj64ENS_19SSD130xI2CTransportEEEE5
 158              		.align	1
 159              		.p2align 2,,3
 160              		.weak	_ZNK5daisy11OledDisplayINS_13SSD130xDriverILj128ELj64ENS_19SSD130xI2CTransportEEEE5WidthEv
 161              		.syntax unified
 162              		.thumb
 163              		.thumb_func
 164              		.fpu fpv5-d16
 166              	_ZNK5daisy11OledDisplayINS_13SSD130xDriverILj128ELj64ENS_19SSD130xI2CTransportEEEE5WidthEv:
 167              	.LVL5:
 168              	.LFB5447:
  28:../../libs/PoliTeKDSP/libs/libDaisy/src/hid/disp/oled_display.h ****     uint16_t Width() const override { return driver_.Width(); }
 169              		.loc 8 28 14 is_stmt 1 view -0
 170              		.cfi_startproc
 171              		@ args = 0, pretend = 0, frame = 0
 172              		@ frame_needed = 0, uses_anonymous_args = 0
 173              		@ link register save eliminated.
 174              		.loc 8 28 63 is_stmt 0 view .LVU23
 175 0000 8020     		movs	r0, #128
 176              	.LVL6:
 177              		.loc 8 28 63 view .LVU24
 178 0002 7047     		bx	lr
 179              		.cfi_endproc
 180              	.LFE5447:
 182              		.section	.text._ZN5daisy11OledDisplayINS_13SSD130xDriverILj128ELj64ENS_19SSD130xI2CTransportEEEE4F
 183              		.align	1
 184              		.p2align 2,,3
 185              		.weak	_ZN5daisy11OledDisplayINS_13SSD130xDriverILj128ELj64ENS_19SSD130xI2CTransportEEEE4FillEb
 186              		.syntax unified
 187              		.thumb
 188              		.thumb_func
 189              		.fpu fpv5-d16
 191              	_ZN5daisy11OledDisplayINS_13SSD130xDriverILj128ELj64ENS_19SSD130xI2CTransportEEEE4FillEb:
 192              	.LVL7:
 193              	.LFB5448:
  29:../../libs/PoliTeKDSP/libs/libDaisy/src/hid/disp/oled_display.h **** 
  30:../../libs/PoliTeKDSP/libs/libDaisy/src/hid/disp/oled_display.h ****     /** 
  31:../../libs/PoliTeKDSP/libs/libDaisy/src/hid/disp/oled_display.h ****     Fills the entire display with either on/off.
  32:../../libs/PoliTeKDSP/libs/libDaisy/src/hid/disp/oled_display.h ****     \param on Sets on or off.
  33:../../libs/PoliTeKDSP/libs/libDaisy/src/hid/disp/oled_display.h ****     */
  34:../../libs/PoliTeKDSP/libs/libDaisy/src/hid/disp/oled_display.h ****     void Fill(bool on) override { driver_.Fill(on); }
 194              		.loc 8 34 10 is_stmt 1 view -0
 195              		.cfi_startproc
 196              		@ args = 0, pretend = 0, frame = 0
 197              		@ frame_needed = 0, uses_anonymous_args = 0
 198              		@ link register save eliminated.
 199              	.LBB470:
 200              	.LBI470:
 201              		.file 10 "../../libs/PoliTeKDSP/libs/libDaisy/src/dev/oled_ssd130x.h"
   1:../../libs/PoliTeKDSP/libs/libDaisy/src/dev/oled_ssd130x.h **** #pragma once
   2:../../libs/PoliTeKDSP/libs/libDaisy/src/dev/oled_ssd130x.h **** #ifndef SA_OLED_SSD130X_H
   3:../../libs/PoliTeKDSP/libs/libDaisy/src/dev/oled_ssd130x.h **** #define SA_OLED_SSD130X_H /**< & */
   4:../../libs/PoliTeKDSP/libs/libDaisy/src/dev/oled_ssd130x.h **** 
   5:../../libs/PoliTeKDSP/libs/libDaisy/src/dev/oled_ssd130x.h **** #include "per/i2c.h"
   6:../../libs/PoliTeKDSP/libs/libDaisy/src/dev/oled_ssd130x.h **** #include "per/spi.h"
ARM GAS  C:\Users\matte\AppData\Local\Temp\ccrMwnXK.s 			page 16


   7:../../libs/PoliTeKDSP/libs/libDaisy/src/dev/oled_ssd130x.h **** #include "per/gpio.h"
   8:../../libs/PoliTeKDSP/libs/libDaisy/src/dev/oled_ssd130x.h **** #include "sys/system.h"
   9:../../libs/PoliTeKDSP/libs/libDaisy/src/dev/oled_ssd130x.h **** 
  10:../../libs/PoliTeKDSP/libs/libDaisy/src/dev/oled_ssd130x.h **** namespace daisy
  11:../../libs/PoliTeKDSP/libs/libDaisy/src/dev/oled_ssd130x.h **** {
  12:../../libs/PoliTeKDSP/libs/libDaisy/src/dev/oled_ssd130x.h **** /**
  13:../../libs/PoliTeKDSP/libs/libDaisy/src/dev/oled_ssd130x.h ****  * I2C Transport for SSD1306 / SSD1309 OLED display devices
  14:../../libs/PoliTeKDSP/libs/libDaisy/src/dev/oled_ssd130x.h ****  */
  15:../../libs/PoliTeKDSP/libs/libDaisy/src/dev/oled_ssd130x.h **** class SSD130xI2CTransport
  16:../../libs/PoliTeKDSP/libs/libDaisy/src/dev/oled_ssd130x.h **** {
  17:../../libs/PoliTeKDSP/libs/libDaisy/src/dev/oled_ssd130x.h ****   public:
  18:../../libs/PoliTeKDSP/libs/libDaisy/src/dev/oled_ssd130x.h ****     struct Config
  19:../../libs/PoliTeKDSP/libs/libDaisy/src/dev/oled_ssd130x.h ****     {
  20:../../libs/PoliTeKDSP/libs/libDaisy/src/dev/oled_ssd130x.h ****         Config()
  21:../../libs/PoliTeKDSP/libs/libDaisy/src/dev/oled_ssd130x.h ****         {
  22:../../libs/PoliTeKDSP/libs/libDaisy/src/dev/oled_ssd130x.h ****             // Intialize using defaults
  23:../../libs/PoliTeKDSP/libs/libDaisy/src/dev/oled_ssd130x.h ****             Defaults();
  24:../../libs/PoliTeKDSP/libs/libDaisy/src/dev/oled_ssd130x.h ****         }
  25:../../libs/PoliTeKDSP/libs/libDaisy/src/dev/oled_ssd130x.h ****         I2CHandle::Config i2c_config;
  26:../../libs/PoliTeKDSP/libs/libDaisy/src/dev/oled_ssd130x.h ****         uint8_t           i2c_address;
  27:../../libs/PoliTeKDSP/libs/libDaisy/src/dev/oled_ssd130x.h ****         void              Defaults()
  28:../../libs/PoliTeKDSP/libs/libDaisy/src/dev/oled_ssd130x.h ****         {
  29:../../libs/PoliTeKDSP/libs/libDaisy/src/dev/oled_ssd130x.h ****             i2c_config.periph         = I2CHandle::Config::Peripheral::I2C_1;
  30:../../libs/PoliTeKDSP/libs/libDaisy/src/dev/oled_ssd130x.h ****             i2c_config.speed          = I2CHandle::Config::Speed::I2C_1MHZ;
  31:../../libs/PoliTeKDSP/libs/libDaisy/src/dev/oled_ssd130x.h ****             i2c_config.mode           = I2CHandle::Config::Mode::I2C_MASTER;
  32:../../libs/PoliTeKDSP/libs/libDaisy/src/dev/oled_ssd130x.h ****             i2c_config.pin_config.scl = Pin(PORTB, 8);
  33:../../libs/PoliTeKDSP/libs/libDaisy/src/dev/oled_ssd130x.h ****             i2c_config.pin_config.sda = Pin(PORTB, 9);
  34:../../libs/PoliTeKDSP/libs/libDaisy/src/dev/oled_ssd130x.h ****             i2c_address               = 0x3C;
  35:../../libs/PoliTeKDSP/libs/libDaisy/src/dev/oled_ssd130x.h ****         }
  36:../../libs/PoliTeKDSP/libs/libDaisy/src/dev/oled_ssd130x.h ****     };
  37:../../libs/PoliTeKDSP/libs/libDaisy/src/dev/oled_ssd130x.h ****     void Init(const Config& config)
  38:../../libs/PoliTeKDSP/libs/libDaisy/src/dev/oled_ssd130x.h ****     {
  39:../../libs/PoliTeKDSP/libs/libDaisy/src/dev/oled_ssd130x.h ****         i2c_address_ = config.i2c_address;
  40:../../libs/PoliTeKDSP/libs/libDaisy/src/dev/oled_ssd130x.h ****         i2c_.Init(config.i2c_config);
  41:../../libs/PoliTeKDSP/libs/libDaisy/src/dev/oled_ssd130x.h ****     };
  42:../../libs/PoliTeKDSP/libs/libDaisy/src/dev/oled_ssd130x.h ****     void SendCommand(uint8_t cmd)
  43:../../libs/PoliTeKDSP/libs/libDaisy/src/dev/oled_ssd130x.h ****     {
  44:../../libs/PoliTeKDSP/libs/libDaisy/src/dev/oled_ssd130x.h ****         uint8_t buf[2] = {0X00, cmd};
  45:../../libs/PoliTeKDSP/libs/libDaisy/src/dev/oled_ssd130x.h ****         i2c_.TransmitBlocking(i2c_address_, buf, 2, 1000);
  46:../../libs/PoliTeKDSP/libs/libDaisy/src/dev/oled_ssd130x.h ****     };
  47:../../libs/PoliTeKDSP/libs/libDaisy/src/dev/oled_ssd130x.h **** 
  48:../../libs/PoliTeKDSP/libs/libDaisy/src/dev/oled_ssd130x.h ****     void SendData(uint8_t* buff, size_t size)
  49:../../libs/PoliTeKDSP/libs/libDaisy/src/dev/oled_ssd130x.h ****     {
  50:../../libs/PoliTeKDSP/libs/libDaisy/src/dev/oled_ssd130x.h ****         for(size_t i = 0; i < size; i++)
  51:../../libs/PoliTeKDSP/libs/libDaisy/src/dev/oled_ssd130x.h ****         {
  52:../../libs/PoliTeKDSP/libs/libDaisy/src/dev/oled_ssd130x.h ****             uint8_t buf[2] = {0X40, buff[i]};
  53:../../libs/PoliTeKDSP/libs/libDaisy/src/dev/oled_ssd130x.h ****             i2c_.TransmitBlocking(i2c_address_, buf, 2, 1000);
  54:../../libs/PoliTeKDSP/libs/libDaisy/src/dev/oled_ssd130x.h ****         }
  55:../../libs/PoliTeKDSP/libs/libDaisy/src/dev/oled_ssd130x.h ****     };
  56:../../libs/PoliTeKDSP/libs/libDaisy/src/dev/oled_ssd130x.h **** 
  57:../../libs/PoliTeKDSP/libs/libDaisy/src/dev/oled_ssd130x.h ****   private:
  58:../../libs/PoliTeKDSP/libs/libDaisy/src/dev/oled_ssd130x.h ****     daisy::I2CHandle i2c_;
  59:../../libs/PoliTeKDSP/libs/libDaisy/src/dev/oled_ssd130x.h ****     uint8_t          i2c_address_;
  60:../../libs/PoliTeKDSP/libs/libDaisy/src/dev/oled_ssd130x.h **** };
  61:../../libs/PoliTeKDSP/libs/libDaisy/src/dev/oled_ssd130x.h **** 
  62:../../libs/PoliTeKDSP/libs/libDaisy/src/dev/oled_ssd130x.h **** /**
  63:../../libs/PoliTeKDSP/libs/libDaisy/src/dev/oled_ssd130x.h ****  * 4 Wire SPI Transport for SSD1306 / SSD1309 OLED display devices
ARM GAS  C:\Users\matte\AppData\Local\Temp\ccrMwnXK.s 			page 17


  64:../../libs/PoliTeKDSP/libs/libDaisy/src/dev/oled_ssd130x.h ****  */
  65:../../libs/PoliTeKDSP/libs/libDaisy/src/dev/oled_ssd130x.h **** class SSD130x4WireSpiTransport
  66:../../libs/PoliTeKDSP/libs/libDaisy/src/dev/oled_ssd130x.h **** {
  67:../../libs/PoliTeKDSP/libs/libDaisy/src/dev/oled_ssd130x.h ****   public:
  68:../../libs/PoliTeKDSP/libs/libDaisy/src/dev/oled_ssd130x.h ****     struct Config
  69:../../libs/PoliTeKDSP/libs/libDaisy/src/dev/oled_ssd130x.h ****     {
  70:../../libs/PoliTeKDSP/libs/libDaisy/src/dev/oled_ssd130x.h ****         Config()
  71:../../libs/PoliTeKDSP/libs/libDaisy/src/dev/oled_ssd130x.h ****         {
  72:../../libs/PoliTeKDSP/libs/libDaisy/src/dev/oled_ssd130x.h ****             // Initialize using defaults
  73:../../libs/PoliTeKDSP/libs/libDaisy/src/dev/oled_ssd130x.h ****             Defaults();
  74:../../libs/PoliTeKDSP/libs/libDaisy/src/dev/oled_ssd130x.h ****         }
  75:../../libs/PoliTeKDSP/libs/libDaisy/src/dev/oled_ssd130x.h ****         SpiHandle::Config spi_config;
  76:../../libs/PoliTeKDSP/libs/libDaisy/src/dev/oled_ssd130x.h ****         struct
  77:../../libs/PoliTeKDSP/libs/libDaisy/src/dev/oled_ssd130x.h ****         {
  78:../../libs/PoliTeKDSP/libs/libDaisy/src/dev/oled_ssd130x.h ****             Pin dc;    /**< & */
  79:../../libs/PoliTeKDSP/libs/libDaisy/src/dev/oled_ssd130x.h ****             Pin reset; /**< & */
  80:../../libs/PoliTeKDSP/libs/libDaisy/src/dev/oled_ssd130x.h ****         } pin_config;
  81:../../libs/PoliTeKDSP/libs/libDaisy/src/dev/oled_ssd130x.h ****         void Defaults()
  82:../../libs/PoliTeKDSP/libs/libDaisy/src/dev/oled_ssd130x.h ****         {
  83:../../libs/PoliTeKDSP/libs/libDaisy/src/dev/oled_ssd130x.h ****             // SPI peripheral config
  84:../../libs/PoliTeKDSP/libs/libDaisy/src/dev/oled_ssd130x.h ****             spi_config.periph = SpiHandle::Config::Peripheral::SPI_1;
  85:../../libs/PoliTeKDSP/libs/libDaisy/src/dev/oled_ssd130x.h ****             spi_config.mode   = SpiHandle::Config::Mode::MASTER;
  86:../../libs/PoliTeKDSP/libs/libDaisy/src/dev/oled_ssd130x.h ****             spi_config.direction
  87:../../libs/PoliTeKDSP/libs/libDaisy/src/dev/oled_ssd130x.h ****                 = SpiHandle::Config::Direction::TWO_LINES_TX_ONLY;
  88:../../libs/PoliTeKDSP/libs/libDaisy/src/dev/oled_ssd130x.h ****             spi_config.datasize       = 8;
  89:../../libs/PoliTeKDSP/libs/libDaisy/src/dev/oled_ssd130x.h ****             spi_config.clock_polarity = SpiHandle::Config::ClockPolarity::LOW;
  90:../../libs/PoliTeKDSP/libs/libDaisy/src/dev/oled_ssd130x.h ****             spi_config.clock_phase    = SpiHandle::Config::ClockPhase::ONE_EDGE;
  91:../../libs/PoliTeKDSP/libs/libDaisy/src/dev/oled_ssd130x.h ****             spi_config.nss            = SpiHandle::Config::NSS::HARD_OUTPUT;
  92:../../libs/PoliTeKDSP/libs/libDaisy/src/dev/oled_ssd130x.h ****             spi_config.baud_prescaler = SpiHandle::Config::BaudPrescaler::PS_8;
  93:../../libs/PoliTeKDSP/libs/libDaisy/src/dev/oled_ssd130x.h ****             // SPI pin config
  94:../../libs/PoliTeKDSP/libs/libDaisy/src/dev/oled_ssd130x.h ****             spi_config.pin_config.sclk = Pin(PORTG, 11);
  95:../../libs/PoliTeKDSP/libs/libDaisy/src/dev/oled_ssd130x.h ****             spi_config.pin_config.miso = Pin(PORTX, 0);
  96:../../libs/PoliTeKDSP/libs/libDaisy/src/dev/oled_ssd130x.h ****             spi_config.pin_config.mosi = Pin(PORTB, 5);
  97:../../libs/PoliTeKDSP/libs/libDaisy/src/dev/oled_ssd130x.h ****             spi_config.pin_config.nss  = Pin(PORTG, 10);
  98:../../libs/PoliTeKDSP/libs/libDaisy/src/dev/oled_ssd130x.h ****             // SSD130x control pin config
  99:../../libs/PoliTeKDSP/libs/libDaisy/src/dev/oled_ssd130x.h ****             pin_config.dc    = Pin(PORTB, 4);
 100:../../libs/PoliTeKDSP/libs/libDaisy/src/dev/oled_ssd130x.h ****             pin_config.reset = Pin(PORTB, 15);
 101:../../libs/PoliTeKDSP/libs/libDaisy/src/dev/oled_ssd130x.h ****         }
 102:../../libs/PoliTeKDSP/libs/libDaisy/src/dev/oled_ssd130x.h ****     };
 103:../../libs/PoliTeKDSP/libs/libDaisy/src/dev/oled_ssd130x.h ****     void Init(const Config& config)
 104:../../libs/PoliTeKDSP/libs/libDaisy/src/dev/oled_ssd130x.h ****     {
 105:../../libs/PoliTeKDSP/libs/libDaisy/src/dev/oled_ssd130x.h ****         // Initialize both GPIO
 106:../../libs/PoliTeKDSP/libs/libDaisy/src/dev/oled_ssd130x.h ****         pin_dc_.Init(config.pin_config.dc, GPIO::Mode::OUTPUT);
 107:../../libs/PoliTeKDSP/libs/libDaisy/src/dev/oled_ssd130x.h ****         pin_reset_.Init(config.pin_config.reset, GPIO::Mode::OUTPUT);
 108:../../libs/PoliTeKDSP/libs/libDaisy/src/dev/oled_ssd130x.h **** 
 109:../../libs/PoliTeKDSP/libs/libDaisy/src/dev/oled_ssd130x.h ****         // Initialize SPI
 110:../../libs/PoliTeKDSP/libs/libDaisy/src/dev/oled_ssd130x.h ****         spi_.Init(config.spi_config);
 111:../../libs/PoliTeKDSP/libs/libDaisy/src/dev/oled_ssd130x.h **** 
 112:../../libs/PoliTeKDSP/libs/libDaisy/src/dev/oled_ssd130x.h ****         // Reset and Configure OLED.
 113:../../libs/PoliTeKDSP/libs/libDaisy/src/dev/oled_ssd130x.h ****         pin_reset_.Write(0);
 114:../../libs/PoliTeKDSP/libs/libDaisy/src/dev/oled_ssd130x.h ****         System::Delay(10);
 115:../../libs/PoliTeKDSP/libs/libDaisy/src/dev/oled_ssd130x.h ****         pin_reset_.Write(1);
 116:../../libs/PoliTeKDSP/libs/libDaisy/src/dev/oled_ssd130x.h ****         System::Delay(10);
 117:../../libs/PoliTeKDSP/libs/libDaisy/src/dev/oled_ssd130x.h ****     };
 118:../../libs/PoliTeKDSP/libs/libDaisy/src/dev/oled_ssd130x.h ****     void SendCommand(uint8_t cmd)
 119:../../libs/PoliTeKDSP/libs/libDaisy/src/dev/oled_ssd130x.h ****     {
 120:../../libs/PoliTeKDSP/libs/libDaisy/src/dev/oled_ssd130x.h ****         pin_dc_.Write(0);
ARM GAS  C:\Users\matte\AppData\Local\Temp\ccrMwnXK.s 			page 18


 121:../../libs/PoliTeKDSP/libs/libDaisy/src/dev/oled_ssd130x.h ****         spi_.BlockingTransmit(&cmd, 1);
 122:../../libs/PoliTeKDSP/libs/libDaisy/src/dev/oled_ssd130x.h ****     };
 123:../../libs/PoliTeKDSP/libs/libDaisy/src/dev/oled_ssd130x.h **** 
 124:../../libs/PoliTeKDSP/libs/libDaisy/src/dev/oled_ssd130x.h ****     void SendData(uint8_t* buff, size_t size)
 125:../../libs/PoliTeKDSP/libs/libDaisy/src/dev/oled_ssd130x.h ****     {
 126:../../libs/PoliTeKDSP/libs/libDaisy/src/dev/oled_ssd130x.h ****         pin_dc_.Write(1);
 127:../../libs/PoliTeKDSP/libs/libDaisy/src/dev/oled_ssd130x.h ****         spi_.BlockingTransmit(buff, size);
 128:../../libs/PoliTeKDSP/libs/libDaisy/src/dev/oled_ssd130x.h ****     };
 129:../../libs/PoliTeKDSP/libs/libDaisy/src/dev/oled_ssd130x.h **** 
 130:../../libs/PoliTeKDSP/libs/libDaisy/src/dev/oled_ssd130x.h ****   private:
 131:../../libs/PoliTeKDSP/libs/libDaisy/src/dev/oled_ssd130x.h ****     SpiHandle spi_;
 132:../../libs/PoliTeKDSP/libs/libDaisy/src/dev/oled_ssd130x.h ****     GPIO      pin_reset_;
 133:../../libs/PoliTeKDSP/libs/libDaisy/src/dev/oled_ssd130x.h ****     GPIO      pin_dc_;
 134:../../libs/PoliTeKDSP/libs/libDaisy/src/dev/oled_ssd130x.h **** };
 135:../../libs/PoliTeKDSP/libs/libDaisy/src/dev/oled_ssd130x.h **** 
 136:../../libs/PoliTeKDSP/libs/libDaisy/src/dev/oled_ssd130x.h **** /**
 137:../../libs/PoliTeKDSP/libs/libDaisy/src/dev/oled_ssd130x.h ****  * Soft SPI Transport for SSD1306 / SSD1309 OLED display devices
 138:../../libs/PoliTeKDSP/libs/libDaisy/src/dev/oled_ssd130x.h ****  */
 139:../../libs/PoliTeKDSP/libs/libDaisy/src/dev/oled_ssd130x.h **** class SSD130x4WireSoftSpiTransport
 140:../../libs/PoliTeKDSP/libs/libDaisy/src/dev/oled_ssd130x.h **** {
 141:../../libs/PoliTeKDSP/libs/libDaisy/src/dev/oled_ssd130x.h ****   public:
 142:../../libs/PoliTeKDSP/libs/libDaisy/src/dev/oled_ssd130x.h ****     struct Config
 143:../../libs/PoliTeKDSP/libs/libDaisy/src/dev/oled_ssd130x.h ****     {
 144:../../libs/PoliTeKDSP/libs/libDaisy/src/dev/oled_ssd130x.h ****         Config()
 145:../../libs/PoliTeKDSP/libs/libDaisy/src/dev/oled_ssd130x.h ****         {
 146:../../libs/PoliTeKDSP/libs/libDaisy/src/dev/oled_ssd130x.h ****             // Initialize using defaults
 147:../../libs/PoliTeKDSP/libs/libDaisy/src/dev/oled_ssd130x.h ****             Defaults();
 148:../../libs/PoliTeKDSP/libs/libDaisy/src/dev/oled_ssd130x.h ****         }
 149:../../libs/PoliTeKDSP/libs/libDaisy/src/dev/oled_ssd130x.h ****         struct
 150:../../libs/PoliTeKDSP/libs/libDaisy/src/dev/oled_ssd130x.h ****         {
 151:../../libs/PoliTeKDSP/libs/libDaisy/src/dev/oled_ssd130x.h ****             uint32_t sclk_delay;
 152:../../libs/PoliTeKDSP/libs/libDaisy/src/dev/oled_ssd130x.h ****             Pin      sclk;
 153:../../libs/PoliTeKDSP/libs/libDaisy/src/dev/oled_ssd130x.h ****             Pin      mosi;
 154:../../libs/PoliTeKDSP/libs/libDaisy/src/dev/oled_ssd130x.h ****             Pin      dc;
 155:../../libs/PoliTeKDSP/libs/libDaisy/src/dev/oled_ssd130x.h ****             Pin      reset;
 156:../../libs/PoliTeKDSP/libs/libDaisy/src/dev/oled_ssd130x.h ****         } pin_config;
 157:../../libs/PoliTeKDSP/libs/libDaisy/src/dev/oled_ssd130x.h ****         void Defaults()
 158:../../libs/PoliTeKDSP/libs/libDaisy/src/dev/oled_ssd130x.h ****         {
 159:../../libs/PoliTeKDSP/libs/libDaisy/src/dev/oled_ssd130x.h ****             pin_config.sclk_delay = 0; // fast as possible?!
 160:../../libs/PoliTeKDSP/libs/libDaisy/src/dev/oled_ssd130x.h ****             // SPI peripheral config
 161:../../libs/PoliTeKDSP/libs/libDaisy/src/dev/oled_ssd130x.h ****             pin_config.sclk = Pin(PORTD, 3); /**< D10 - SPI2 SCK  */
 162:../../libs/PoliTeKDSP/libs/libDaisy/src/dev/oled_ssd130x.h ****             pin_config.mosi = Pin(PORTC, 3); /**< D9  - SPI2 MOSI */
 163:../../libs/PoliTeKDSP/libs/libDaisy/src/dev/oled_ssd130x.h ****             // SSD130x control pin config
 164:../../libs/PoliTeKDSP/libs/libDaisy/src/dev/oled_ssd130x.h ****             pin_config.dc    = Pin(PORTC, 11); //D2
 165:../../libs/PoliTeKDSP/libs/libDaisy/src/dev/oled_ssd130x.h ****             pin_config.reset = Pin(PORTC, 10); //D3
 166:../../libs/PoliTeKDSP/libs/libDaisy/src/dev/oled_ssd130x.h ****         }
 167:../../libs/PoliTeKDSP/libs/libDaisy/src/dev/oled_ssd130x.h ****     };
 168:../../libs/PoliTeKDSP/libs/libDaisy/src/dev/oled_ssd130x.h ****     void Init(const Config& config)
 169:../../libs/PoliTeKDSP/libs/libDaisy/src/dev/oled_ssd130x.h ****     {
 170:../../libs/PoliTeKDSP/libs/libDaisy/src/dev/oled_ssd130x.h ****         // Initialize both GPIO
 171:../../libs/PoliTeKDSP/libs/libDaisy/src/dev/oled_ssd130x.h ****         pin_sclk_.Init(config.pin_config.sclk, GPIO::Mode::OUTPUT);
 172:../../libs/PoliTeKDSP/libs/libDaisy/src/dev/oled_ssd130x.h ****         pin_sclk_.Write(1); //ClockPolarity::LOW
 173:../../libs/PoliTeKDSP/libs/libDaisy/src/dev/oled_ssd130x.h ****         clk_delay = config.pin_config.sclk_delay;
 174:../../libs/PoliTeKDSP/libs/libDaisy/src/dev/oled_ssd130x.h ****         pin_mosi_.Init(config.pin_config.mosi, GPIO::Mode::OUTPUT);
 175:../../libs/PoliTeKDSP/libs/libDaisy/src/dev/oled_ssd130x.h ****         pin_mosi_.Write(0);
 176:../../libs/PoliTeKDSP/libs/libDaisy/src/dev/oled_ssd130x.h **** 
 177:../../libs/PoliTeKDSP/libs/libDaisy/src/dev/oled_ssd130x.h ****         pin_dc_.Init(config.pin_config.dc, GPIO::Mode::OUTPUT);
ARM GAS  C:\Users\matte\AppData\Local\Temp\ccrMwnXK.s 			page 19


 178:../../libs/PoliTeKDSP/libs/libDaisy/src/dev/oled_ssd130x.h ****         pin_reset_.Init(config.pin_config.reset, GPIO::Mode::OUTPUT);
 179:../../libs/PoliTeKDSP/libs/libDaisy/src/dev/oled_ssd130x.h **** 
 180:../../libs/PoliTeKDSP/libs/libDaisy/src/dev/oled_ssd130x.h ****         // Reset and Configure OLED.
 181:../../libs/PoliTeKDSP/libs/libDaisy/src/dev/oled_ssd130x.h ****         pin_reset_.Write(0);
 182:../../libs/PoliTeKDSP/libs/libDaisy/src/dev/oled_ssd130x.h ****         System::Delay(10);
 183:../../libs/PoliTeKDSP/libs/libDaisy/src/dev/oled_ssd130x.h ****         pin_reset_.Write(1);
 184:../../libs/PoliTeKDSP/libs/libDaisy/src/dev/oled_ssd130x.h ****         System::Delay(10);
 185:../../libs/PoliTeKDSP/libs/libDaisy/src/dev/oled_ssd130x.h ****     };
 186:../../libs/PoliTeKDSP/libs/libDaisy/src/dev/oled_ssd130x.h ****     void SendCommand(uint8_t cmd)
 187:../../libs/PoliTeKDSP/libs/libDaisy/src/dev/oled_ssd130x.h ****     {
 188:../../libs/PoliTeKDSP/libs/libDaisy/src/dev/oled_ssd130x.h ****         pin_dc_.Write(0);
 189:../../libs/PoliTeKDSP/libs/libDaisy/src/dev/oled_ssd130x.h ****         SoftSpiTransmit(cmd);
 190:../../libs/PoliTeKDSP/libs/libDaisy/src/dev/oled_ssd130x.h ****     };
 191:../../libs/PoliTeKDSP/libs/libDaisy/src/dev/oled_ssd130x.h **** 
 192:../../libs/PoliTeKDSP/libs/libDaisy/src/dev/oled_ssd130x.h ****     void SendData(uint8_t* buff, size_t size)
 193:../../libs/PoliTeKDSP/libs/libDaisy/src/dev/oled_ssd130x.h ****     {
 194:../../libs/PoliTeKDSP/libs/libDaisy/src/dev/oled_ssd130x.h ****         pin_dc_.Write(1);
 195:../../libs/PoliTeKDSP/libs/libDaisy/src/dev/oled_ssd130x.h ****         for(size_t i = 0; i < size; i++)
 196:../../libs/PoliTeKDSP/libs/libDaisy/src/dev/oled_ssd130x.h ****             SoftSpiTransmit(buff[i]);
 197:../../libs/PoliTeKDSP/libs/libDaisy/src/dev/oled_ssd130x.h ****     };
 198:../../libs/PoliTeKDSP/libs/libDaisy/src/dev/oled_ssd130x.h **** 
 199:../../libs/PoliTeKDSP/libs/libDaisy/src/dev/oled_ssd130x.h ****   private:
 200:../../libs/PoliTeKDSP/libs/libDaisy/src/dev/oled_ssd130x.h ****     void SoftSpiTransmit(uint8_t val)
 201:../../libs/PoliTeKDSP/libs/libDaisy/src/dev/oled_ssd130x.h ****     {
 202:../../libs/PoliTeKDSP/libs/libDaisy/src/dev/oled_ssd130x.h ****         // bit flip
 203:../../libs/PoliTeKDSP/libs/libDaisy/src/dev/oled_ssd130x.h ****         val = ((val & 0x01) << 7) | ((val & 0x02) << 5) | ((val & 0x04) << 3)
 204:../../libs/PoliTeKDSP/libs/libDaisy/src/dev/oled_ssd130x.h ****               | ((val & 0x08) << 1) | ((val & 0x10) >> 1) | ((val & 0x20) >> 3)
 205:../../libs/PoliTeKDSP/libs/libDaisy/src/dev/oled_ssd130x.h ****               | ((val & 0x40) >> 5) | ((val & 0x80) >> 7);
 206:../../libs/PoliTeKDSP/libs/libDaisy/src/dev/oled_ssd130x.h **** 
 207:../../libs/PoliTeKDSP/libs/libDaisy/src/dev/oled_ssd130x.h ****         for(uint8_t bit = 0u; bit < 8u; bit++)
 208:../../libs/PoliTeKDSP/libs/libDaisy/src/dev/oled_ssd130x.h ****         {
 209:../../libs/PoliTeKDSP/libs/libDaisy/src/dev/oled_ssd130x.h ****             pin_mosi_.Write((val & (1 << bit)) ? 1 : 0);
 210:../../libs/PoliTeKDSP/libs/libDaisy/src/dev/oled_ssd130x.h **** 
 211:../../libs/PoliTeKDSP/libs/libDaisy/src/dev/oled_ssd130x.h ****             System::DelayTicks(clk_delay);
 212:../../libs/PoliTeKDSP/libs/libDaisy/src/dev/oled_ssd130x.h **** 
 213:../../libs/PoliTeKDSP/libs/libDaisy/src/dev/oled_ssd130x.h ****             pin_sclk_.Toggle();
 214:../../libs/PoliTeKDSP/libs/libDaisy/src/dev/oled_ssd130x.h **** 
 215:../../libs/PoliTeKDSP/libs/libDaisy/src/dev/oled_ssd130x.h ****             System::DelayTicks(clk_delay);
 216:../../libs/PoliTeKDSP/libs/libDaisy/src/dev/oled_ssd130x.h **** 
 217:../../libs/PoliTeKDSP/libs/libDaisy/src/dev/oled_ssd130x.h ****             pin_sclk_.Toggle();
 218:../../libs/PoliTeKDSP/libs/libDaisy/src/dev/oled_ssd130x.h ****         }
 219:../../libs/PoliTeKDSP/libs/libDaisy/src/dev/oled_ssd130x.h ****     }
 220:../../libs/PoliTeKDSP/libs/libDaisy/src/dev/oled_ssd130x.h **** 
 221:../../libs/PoliTeKDSP/libs/libDaisy/src/dev/oled_ssd130x.h ****     uint32_t clk_delay;
 222:../../libs/PoliTeKDSP/libs/libDaisy/src/dev/oled_ssd130x.h ****     GPIO     pin_sclk_;
 223:../../libs/PoliTeKDSP/libs/libDaisy/src/dev/oled_ssd130x.h ****     GPIO     pin_mosi_;
 224:../../libs/PoliTeKDSP/libs/libDaisy/src/dev/oled_ssd130x.h ****     GPIO     pin_reset_;
 225:../../libs/PoliTeKDSP/libs/libDaisy/src/dev/oled_ssd130x.h ****     GPIO     pin_dc_;
 226:../../libs/PoliTeKDSP/libs/libDaisy/src/dev/oled_ssd130x.h **** };
 227:../../libs/PoliTeKDSP/libs/libDaisy/src/dev/oled_ssd130x.h **** 
 228:../../libs/PoliTeKDSP/libs/libDaisy/src/dev/oled_ssd130x.h **** 
 229:../../libs/PoliTeKDSP/libs/libDaisy/src/dev/oled_ssd130x.h **** /**
 230:../../libs/PoliTeKDSP/libs/libDaisy/src/dev/oled_ssd130x.h ****  * A driver implementation for the SSD1306/SSD1309
 231:../../libs/PoliTeKDSP/libs/libDaisy/src/dev/oled_ssd130x.h ****  */
 232:../../libs/PoliTeKDSP/libs/libDaisy/src/dev/oled_ssd130x.h **** template <size_t width, size_t height, typename Transport>
 233:../../libs/PoliTeKDSP/libs/libDaisy/src/dev/oled_ssd130x.h **** class SSD130xDriver
 234:../../libs/PoliTeKDSP/libs/libDaisy/src/dev/oled_ssd130x.h **** {
ARM GAS  C:\Users\matte\AppData\Local\Temp\ccrMwnXK.s 			page 20


 235:../../libs/PoliTeKDSP/libs/libDaisy/src/dev/oled_ssd130x.h ****   public:
 236:../../libs/PoliTeKDSP/libs/libDaisy/src/dev/oled_ssd130x.h ****     struct Config
 237:../../libs/PoliTeKDSP/libs/libDaisy/src/dev/oled_ssd130x.h ****     {
 238:../../libs/PoliTeKDSP/libs/libDaisy/src/dev/oled_ssd130x.h ****         typename Transport::Config transport_config;
 239:../../libs/PoliTeKDSP/libs/libDaisy/src/dev/oled_ssd130x.h ****     };
 240:../../libs/PoliTeKDSP/libs/libDaisy/src/dev/oled_ssd130x.h **** 
 241:../../libs/PoliTeKDSP/libs/libDaisy/src/dev/oled_ssd130x.h ****     void Init(Config config)
 242:../../libs/PoliTeKDSP/libs/libDaisy/src/dev/oled_ssd130x.h ****     {
 243:../../libs/PoliTeKDSP/libs/libDaisy/src/dev/oled_ssd130x.h ****         transport_.Init(config.transport_config);
 244:../../libs/PoliTeKDSP/libs/libDaisy/src/dev/oled_ssd130x.h **** 
 245:../../libs/PoliTeKDSP/libs/libDaisy/src/dev/oled_ssd130x.h ****         // Init routine...
 246:../../libs/PoliTeKDSP/libs/libDaisy/src/dev/oled_ssd130x.h **** 
 247:../../libs/PoliTeKDSP/libs/libDaisy/src/dev/oled_ssd130x.h ****         // Display Off
 248:../../libs/PoliTeKDSP/libs/libDaisy/src/dev/oled_ssd130x.h ****         transport_.SendCommand(0xaE);
 249:../../libs/PoliTeKDSP/libs/libDaisy/src/dev/oled_ssd130x.h ****         // Dimension dependent commands...
 250:../../libs/PoliTeKDSP/libs/libDaisy/src/dev/oled_ssd130x.h ****         switch(height)
 251:../../libs/PoliTeKDSP/libs/libDaisy/src/dev/oled_ssd130x.h ****         {
 252:../../libs/PoliTeKDSP/libs/libDaisy/src/dev/oled_ssd130x.h ****             case 16:
 253:../../libs/PoliTeKDSP/libs/libDaisy/src/dev/oled_ssd130x.h ****                 // Display Clock Divide Ratio
 254:../../libs/PoliTeKDSP/libs/libDaisy/src/dev/oled_ssd130x.h ****                 transport_.SendCommand(0xD5);
 255:../../libs/PoliTeKDSP/libs/libDaisy/src/dev/oled_ssd130x.h ****                 transport_.SendCommand(0x60);
 256:../../libs/PoliTeKDSP/libs/libDaisy/src/dev/oled_ssd130x.h ****                 // Multiplex Ratio
 257:../../libs/PoliTeKDSP/libs/libDaisy/src/dev/oled_ssd130x.h ****                 transport_.SendCommand(0xA8);
 258:../../libs/PoliTeKDSP/libs/libDaisy/src/dev/oled_ssd130x.h ****                 transport_.SendCommand(0x0F);
 259:../../libs/PoliTeKDSP/libs/libDaisy/src/dev/oled_ssd130x.h ****                 // COM Pins
 260:../../libs/PoliTeKDSP/libs/libDaisy/src/dev/oled_ssd130x.h ****                 transport_.SendCommand(0xDA);
 261:../../libs/PoliTeKDSP/libs/libDaisy/src/dev/oled_ssd130x.h ****                 transport_.SendCommand(0x02);
 262:../../libs/PoliTeKDSP/libs/libDaisy/src/dev/oled_ssd130x.h ****                 break;
 263:../../libs/PoliTeKDSP/libs/libDaisy/src/dev/oled_ssd130x.h ****             case 32:
 264:../../libs/PoliTeKDSP/libs/libDaisy/src/dev/oled_ssd130x.h ****                 // Display Clock Divide Ratio
 265:../../libs/PoliTeKDSP/libs/libDaisy/src/dev/oled_ssd130x.h ****                 transport_.SendCommand(0xD5);
 266:../../libs/PoliTeKDSP/libs/libDaisy/src/dev/oled_ssd130x.h ****                 transport_.SendCommand(0x80);
 267:../../libs/PoliTeKDSP/libs/libDaisy/src/dev/oled_ssd130x.h ****                 // Multiplex Ratio
 268:../../libs/PoliTeKDSP/libs/libDaisy/src/dev/oled_ssd130x.h ****                 transport_.SendCommand(0xA8);
 269:../../libs/PoliTeKDSP/libs/libDaisy/src/dev/oled_ssd130x.h ****                 transport_.SendCommand(0x1F);
 270:../../libs/PoliTeKDSP/libs/libDaisy/src/dev/oled_ssd130x.h ****                 // COM Pins
 271:../../libs/PoliTeKDSP/libs/libDaisy/src/dev/oled_ssd130x.h ****                 transport_.SendCommand(0xDA);
 272:../../libs/PoliTeKDSP/libs/libDaisy/src/dev/oled_ssd130x.h ****                 if(width == 64)
 273:../../libs/PoliTeKDSP/libs/libDaisy/src/dev/oled_ssd130x.h ****                 {
 274:../../libs/PoliTeKDSP/libs/libDaisy/src/dev/oled_ssd130x.h ****                     transport_.SendCommand(0x12);
 275:../../libs/PoliTeKDSP/libs/libDaisy/src/dev/oled_ssd130x.h ****                 }
 276:../../libs/PoliTeKDSP/libs/libDaisy/src/dev/oled_ssd130x.h ****                 else
 277:../../libs/PoliTeKDSP/libs/libDaisy/src/dev/oled_ssd130x.h ****                 {
 278:../../libs/PoliTeKDSP/libs/libDaisy/src/dev/oled_ssd130x.h ****                     transport_.SendCommand(0x02);
 279:../../libs/PoliTeKDSP/libs/libDaisy/src/dev/oled_ssd130x.h ****                 }
 280:../../libs/PoliTeKDSP/libs/libDaisy/src/dev/oled_ssd130x.h **** 
 281:../../libs/PoliTeKDSP/libs/libDaisy/src/dev/oled_ssd130x.h ****                 break;
 282:../../libs/PoliTeKDSP/libs/libDaisy/src/dev/oled_ssd130x.h ****             case 48:
 283:../../libs/PoliTeKDSP/libs/libDaisy/src/dev/oled_ssd130x.h ****                 // Display Clock Divide Ratio
 284:../../libs/PoliTeKDSP/libs/libDaisy/src/dev/oled_ssd130x.h ****                 transport_.SendCommand(0xD5);
 285:../../libs/PoliTeKDSP/libs/libDaisy/src/dev/oled_ssd130x.h ****                 transport_.SendCommand(0x80);
 286:../../libs/PoliTeKDSP/libs/libDaisy/src/dev/oled_ssd130x.h ****                 // Multiplex Ratio
 287:../../libs/PoliTeKDSP/libs/libDaisy/src/dev/oled_ssd130x.h ****                 transport_.SendCommand(0xA8);
 288:../../libs/PoliTeKDSP/libs/libDaisy/src/dev/oled_ssd130x.h ****                 transport_.SendCommand(0x2F);
 289:../../libs/PoliTeKDSP/libs/libDaisy/src/dev/oled_ssd130x.h ****                 // COM Pins
 290:../../libs/PoliTeKDSP/libs/libDaisy/src/dev/oled_ssd130x.h ****                 transport_.SendCommand(0xDA);
 291:../../libs/PoliTeKDSP/libs/libDaisy/src/dev/oled_ssd130x.h ****                 transport_.SendCommand(0x12);
ARM GAS  C:\Users\matte\AppData\Local\Temp\ccrMwnXK.s 			page 21


 292:../../libs/PoliTeKDSP/libs/libDaisy/src/dev/oled_ssd130x.h ****                 break;
 293:../../libs/PoliTeKDSP/libs/libDaisy/src/dev/oled_ssd130x.h ****             default: // 128
 294:../../libs/PoliTeKDSP/libs/libDaisy/src/dev/oled_ssd130x.h ****                 // Display Clock Divide Ratio
 295:../../libs/PoliTeKDSP/libs/libDaisy/src/dev/oled_ssd130x.h ****                 transport_.SendCommand(0xD5);
 296:../../libs/PoliTeKDSP/libs/libDaisy/src/dev/oled_ssd130x.h ****                 transport_.SendCommand(0x80);
 297:../../libs/PoliTeKDSP/libs/libDaisy/src/dev/oled_ssd130x.h ****                 // Multiplex Ratio
 298:../../libs/PoliTeKDSP/libs/libDaisy/src/dev/oled_ssd130x.h ****                 transport_.SendCommand(0xA8);
 299:../../libs/PoliTeKDSP/libs/libDaisy/src/dev/oled_ssd130x.h ****                 transport_.SendCommand(0x3F);
 300:../../libs/PoliTeKDSP/libs/libDaisy/src/dev/oled_ssd130x.h ****                 // COM Pins
 301:../../libs/PoliTeKDSP/libs/libDaisy/src/dev/oled_ssd130x.h ****                 transport_.SendCommand(0xDA);
 302:../../libs/PoliTeKDSP/libs/libDaisy/src/dev/oled_ssd130x.h ****                 transport_.SendCommand(0x12);
 303:../../libs/PoliTeKDSP/libs/libDaisy/src/dev/oled_ssd130x.h ****                 break;
 304:../../libs/PoliTeKDSP/libs/libDaisy/src/dev/oled_ssd130x.h ****         }
 305:../../libs/PoliTeKDSP/libs/libDaisy/src/dev/oled_ssd130x.h **** 
 306:../../libs/PoliTeKDSP/libs/libDaisy/src/dev/oled_ssd130x.h ****         // Display Offset
 307:../../libs/PoliTeKDSP/libs/libDaisy/src/dev/oled_ssd130x.h ****         transport_.SendCommand(0xD3);
 308:../../libs/PoliTeKDSP/libs/libDaisy/src/dev/oled_ssd130x.h ****         transport_.SendCommand(0x00);
 309:../../libs/PoliTeKDSP/libs/libDaisy/src/dev/oled_ssd130x.h ****         // Start Line Address
 310:../../libs/PoliTeKDSP/libs/libDaisy/src/dev/oled_ssd130x.h ****         transport_.SendCommand(0x40);
 311:../../libs/PoliTeKDSP/libs/libDaisy/src/dev/oled_ssd130x.h ****         // Normal Display
 312:../../libs/PoliTeKDSP/libs/libDaisy/src/dev/oled_ssd130x.h ****         transport_.SendCommand(0xA6);
 313:../../libs/PoliTeKDSP/libs/libDaisy/src/dev/oled_ssd130x.h ****         // All On Resume
 314:../../libs/PoliTeKDSP/libs/libDaisy/src/dev/oled_ssd130x.h ****         transport_.SendCommand(0xA4);
 315:../../libs/PoliTeKDSP/libs/libDaisy/src/dev/oled_ssd130x.h ****         // Charge Pump
 316:../../libs/PoliTeKDSP/libs/libDaisy/src/dev/oled_ssd130x.h ****         transport_.SendCommand(0x8D);
 317:../../libs/PoliTeKDSP/libs/libDaisy/src/dev/oled_ssd130x.h ****         transport_.SendCommand(0x14);
 318:../../libs/PoliTeKDSP/libs/libDaisy/src/dev/oled_ssd130x.h ****         // Set Segment Remap
 319:../../libs/PoliTeKDSP/libs/libDaisy/src/dev/oled_ssd130x.h ****         transport_.SendCommand(0xA1);
 320:../../libs/PoliTeKDSP/libs/libDaisy/src/dev/oled_ssd130x.h ****         // COM Output Scan Direction
 321:../../libs/PoliTeKDSP/libs/libDaisy/src/dev/oled_ssd130x.h ****         transport_.SendCommand(0xC8);
 322:../../libs/PoliTeKDSP/libs/libDaisy/src/dev/oled_ssd130x.h ****         // Contrast Control
 323:../../libs/PoliTeKDSP/libs/libDaisy/src/dev/oled_ssd130x.h ****         transport_.SendCommand(0x81);
 324:../../libs/PoliTeKDSP/libs/libDaisy/src/dev/oled_ssd130x.h ****         transport_.SendCommand(0x8F);
 325:../../libs/PoliTeKDSP/libs/libDaisy/src/dev/oled_ssd130x.h ****         // Pre Charge
 326:../../libs/PoliTeKDSP/libs/libDaisy/src/dev/oled_ssd130x.h ****         transport_.SendCommand(0xD9);
 327:../../libs/PoliTeKDSP/libs/libDaisy/src/dev/oled_ssd130x.h ****         transport_.SendCommand(0x25);
 328:../../libs/PoliTeKDSP/libs/libDaisy/src/dev/oled_ssd130x.h ****         // VCOM Detect
 329:../../libs/PoliTeKDSP/libs/libDaisy/src/dev/oled_ssd130x.h ****         transport_.SendCommand(0xDB);
 330:../../libs/PoliTeKDSP/libs/libDaisy/src/dev/oled_ssd130x.h ****         transport_.SendCommand(0x34);
 331:../../libs/PoliTeKDSP/libs/libDaisy/src/dev/oled_ssd130x.h **** 
 332:../../libs/PoliTeKDSP/libs/libDaisy/src/dev/oled_ssd130x.h **** 
 333:../../libs/PoliTeKDSP/libs/libDaisy/src/dev/oled_ssd130x.h ****         // Display On
 334:../../libs/PoliTeKDSP/libs/libDaisy/src/dev/oled_ssd130x.h ****         transport_.SendCommand(0xAF); //--turn on oled panel
 335:../../libs/PoliTeKDSP/libs/libDaisy/src/dev/oled_ssd130x.h ****     };
 336:../../libs/PoliTeKDSP/libs/libDaisy/src/dev/oled_ssd130x.h **** 
 337:../../libs/PoliTeKDSP/libs/libDaisy/src/dev/oled_ssd130x.h ****     size_t Width() const { return width; };
 338:../../libs/PoliTeKDSP/libs/libDaisy/src/dev/oled_ssd130x.h ****     size_t Height() const { return height; };
 339:../../libs/PoliTeKDSP/libs/libDaisy/src/dev/oled_ssd130x.h **** 
 340:../../libs/PoliTeKDSP/libs/libDaisy/src/dev/oled_ssd130x.h ****     void DrawPixel(uint_fast8_t x, uint_fast8_t y, bool on)
 341:../../libs/PoliTeKDSP/libs/libDaisy/src/dev/oled_ssd130x.h ****     {
 342:../../libs/PoliTeKDSP/libs/libDaisy/src/dev/oled_ssd130x.h ****         if(x >= width || y >= height)
 343:../../libs/PoliTeKDSP/libs/libDaisy/src/dev/oled_ssd130x.h ****             return;
 344:../../libs/PoliTeKDSP/libs/libDaisy/src/dev/oled_ssd130x.h ****         if(on)
 345:../../libs/PoliTeKDSP/libs/libDaisy/src/dev/oled_ssd130x.h ****             buffer_[x + (y / 8) * width] |= (1 << (y % 8));
 346:../../libs/PoliTeKDSP/libs/libDaisy/src/dev/oled_ssd130x.h ****         else
 347:../../libs/PoliTeKDSP/libs/libDaisy/src/dev/oled_ssd130x.h ****             buffer_[x + (y / 8) * width] &= ~(1 << (y % 8));
 348:../../libs/PoliTeKDSP/libs/libDaisy/src/dev/oled_ssd130x.h ****     }
ARM GAS  C:\Users\matte\AppData\Local\Temp\ccrMwnXK.s 			page 22


 349:../../libs/PoliTeKDSP/libs/libDaisy/src/dev/oled_ssd130x.h **** 
 350:../../libs/PoliTeKDSP/libs/libDaisy/src/dev/oled_ssd130x.h ****     void Fill(bool on)
 202              		.loc 10 350 10 view .LVU26
 203              	.LBB471:
 351:../../libs/PoliTeKDSP/libs/libDaisy/src/dev/oled_ssd130x.h ****     {
 352:../../libs/PoliTeKDSP/libs/libDaisy/src/dev/oled_ssd130x.h ****         for(size_t i = 0; i < sizeof(buffer_); i++)
 204              		.loc 10 352 29 view .LVU27
 353:../../libs/PoliTeKDSP/libs/libDaisy/src/dev/oled_ssd130x.h ****         {
 354:../../libs/PoliTeKDSP/libs/libDaisy/src/dev/oled_ssd130x.h ****             buffer_[i] = on ? 0xff : 0x00;
 205              		.loc 10 354 24 is_stmt 0 view .LVU28
 206 0000 4942     		rsbs	r1, r1, #0
 207              	.LVL8:
 208              		.loc 10 354 24 view .LVU29
 209 0002 4FF48062 		mov	r2, #1024
 210 0006 1030     		adds	r0, r0, #16
 211              	.LVL9:
 212              		.loc 10 354 24 view .LVU30
 213 0008 C9B2     		uxtb	r1, r1
 214 000a FFF7FEBF 		b	memset
 215              	.LVL10:
 216              		.loc 10 354 24 view .LVU31
 217              	.LBE471:
 218              	.LBE470:
 219              		.cfi_endproc
 220              	.LFE5448:
 222 000e 00BF     		.section	.text._ZL13AudioCallbackPKfPfj,"ax",%progbits
 223              		.align	1
 224              		.p2align 2,,3
 225              		.syntax unified
 226              		.thumb
 227              		.thumb_func
 228              		.fpu fpv5-d16
 230              	_ZL13AudioCallbackPKfPfj:
 231              	.LVL11:
 232              	.LFB4854:
 233              		.file 11 "main.cpp"
   1:main.cpp      **** /**
   2:main.cpp      ****  * @brief Test main function for display
   3:main.cpp      ****  * 
   4:main.cpp      ****  * This is the main entry point for the display test application.
   5:main.cpp      ****  * It serves as a test harness to verify display functionality
   6:main.cpp      ****  * and demonstrate display-related operations.
   7:main.cpp      ****  * 
   8:main.cpp      ****  * @return int Exit status code (0 for success, non-zero for failure)
   9:main.cpp      ****  */
  10:main.cpp      ****  
  11:main.cpp      **** #include "displayHandler.h"
  12:main.cpp      **** #include "../../libs/libDaisy/src/daisy_seed.h"
  13:main.cpp      **** #include "../../libs/DaisySP/Source/daisysp.h"
  14:main.cpp      **** 
  15:main.cpp      **** using namespace daisy;
  16:main.cpp      **** using namespace daisysp;
  17:main.cpp      **** 
  18:main.cpp      **** DaisySeed hw;
  19:main.cpp      **** 
  20:main.cpp      **** // test oscillator
  21:main.cpp      **** static Oscillator osc;
ARM GAS  C:\Users\matte\AppData\Local\Temp\ccrMwnXK.s 			page 23


  22:main.cpp      **** 
  23:main.cpp      **** // real disp obj, will be handled not called directly
  24:main.cpp      **** MyOledDisplay disp;
  25:main.cpp      ****  
  26:main.cpp      **** DisplayHandler disp_handle (&disp);
  27:main.cpp      **** 
  28:main.cpp      **** 
  29:main.cpp      **** static void AudioCallback(AudioHandle::InterleavingInputBuffer in, AudioHandle::InterleavingOutputB
  30:main.cpp      **** {
 234              		.loc 11 30 1 is_stmt 1 view -0
 235              		.cfi_startproc
 236              		@ args = 0, pretend = 0, frame = 0
 237              		@ frame_needed = 0, uses_anonymous_args = 0
  31:main.cpp      ****     float oscOut = 0;
 238              		.loc 11 31 5 view .LVU33
  32:main.cpp      ****     float yscaleMult = 8;
 239              		.loc 11 32 5 view .LVU34
  33:main.cpp      ****     for (size_t i = 0; i < size; i += 2)
 240              		.loc 11 33 5 view .LVU35
 241              	.LBB472:
 242              		.loc 11 33 26 view .LVU36
 243 0000 DAB1     		cbz	r2, .L16
 244 0002 013A     		subs	r2, r2, #1
 245              	.LVL12:
 246              		.loc 11 33 26 is_stmt 0 view .LVU37
 247              	.LBE472:
  30:main.cpp      ****     float oscOut = 0;
 248              		.loc 11 30 1 view .LVU38
 249 0004 70B5     		push	{r4, r5, r6, lr}
 250              		.cfi_def_cfa_offset 16
 251              		.cfi_offset 4, -16
 252              		.cfi_offset 5, -12
 253              		.cfi_offset 6, -8
 254              		.cfi_offset 14, -4
 255 0006 0C46     		mov	r4, r1
 256              	.LBB473:
 257              		.loc 11 33 26 view .LVU39
 258 0008 0025     		movs	r5, #0
 259 000a 5608     		lsrs	r6, r2, #1
 260              	.LVL13:
 261              	.L10:
  34:main.cpp      ****     {
  35:main.cpp      ****         oscOut = osc.Process();
 262              		.loc 11 35 9 is_stmt 1 discriminator 2 view .LVU40
 263              		.loc 11 35 29 is_stmt 0 discriminator 2 view .LVU41
 264 000c 0B48     		ldr	r0, .L19
 265 000e FFF7FEFF 		bl	_ZN7daisysp10Oscillator7ProcessEv
 266              	.LVL14:
  36:main.cpp      **** 
  37:main.cpp      ****         // value x2 (second parameter)
  38:main.cpp      ****         disp_handle.pushAudioSample (oscOut, yscaleMult);
 267              		.loc 11 38 9 is_stmt 1 discriminator 2 view .LVU42
 268              		.loc 11 38 37 is_stmt 0 discriminator 2 view .LVU43
 269 0012 F2EE000A 		vmov.f32	s1, #8.0e+0
 270 0016 0A48     		ldr	r0, .L19+4
 271 0018 FFF7FEFF 		bl	_ZN14DisplayHandler15pushAudioSampleEff
 272              	.LVL15:
ARM GAS  C:\Users\matte\AppData\Local\Temp\ccrMwnXK.s 			page 24


  39:main.cpp      ****         // uncomment to decimate -> frequency displayed is double the true one 
  40:main.cpp      ****         //  bool decimate;
  41:main.cpp      ****         //  if (decimate) {
  42:main.cpp      ****         //  // also applies some scale factor
  43:main.cpp      ****         //  disp_handle.pushAudioSample (oscOut/1.25);
  44:main.cpp      ****         //  decimate = !decimate;
  45:main.cpp      ****         // }
  46:main.cpp      ****         out[i] = out[i + 1] = osc.Process();               
 273              		.loc 11 46 9 is_stmt 1 discriminator 2 view .LVU44
 274              		.loc 11 46 42 is_stmt 0 discriminator 2 view .LVU45
 275 001c 0748     		ldr	r0, .L19
 276 001e FFF7FEFF 		bl	_ZN7daisysp10Oscillator7ProcessEv
 277              	.LVL16:
 278              		.loc 11 46 16 discriminator 2 view .LVU46
 279 0022 2246     		mov	r2, r4
  33:main.cpp      ****     {
 280              		.loc 11 33 26 discriminator 2 view .LVU47
 281 0024 AE42     		cmp	r6, r5
 282              		.loc 11 46 29 discriminator 2 view .LVU48
 283 0026 84ED010A 		vstr.32	s0, [r4, #4]
  33:main.cpp      ****     {
 284              		.loc 11 33 26 discriminator 2 view .LVU49
 285 002a 05F10105 		add	r5, r5, #1
 286              	.LVL17:
 287              		.loc 11 46 16 discriminator 2 view .LVU50
 288 002e 04F10804 		add	r4, r4, #8
 289 0032 82ED000A 		vstr.32	s0, [r2]
  33:main.cpp      ****     {
 290              		.loc 11 33 5 is_stmt 1 discriminator 2 view .LVU51
 291              	.LVL18:
  33:main.cpp      ****     {
 292              		.loc 11 33 26 discriminator 2 view .LVU52
 293 0036 E9D1     		bne	.L10
 294              	.LBE473:
  47:main.cpp      ****     }
  48:main.cpp      **** }
 295              		.loc 11 48 1 is_stmt 0 view .LVU53
 296 0038 70BD     		pop	{r4, r5, r6, pc}
 297              	.LVL19:
 298              	.L16:
 299              		.cfi_def_cfa_offset 0
 300              		.cfi_restore 4
 301              		.cfi_restore 5
 302              		.cfi_restore 6
 303              		.cfi_restore 14
 304              		.loc 11 48 1 view .LVU54
 305 003a 7047     		bx	lr
 306              	.L20:
 307              		.align	2
 308              	.L19:
 309 003c 00000000 		.word	.LANCHOR0
 310 0040 00000000 		.word	.LANCHOR1
 311              		.cfi_endproc
 312              	.LFE4854:
 314              		.section	.text._ZN5daisy11OledDisplayINS_13SSD130xDriverILj128ELj64ENS_19SSD130xI2CTransportEEEED0
 315              		.align	1
 316              		.p2align 2,,3
ARM GAS  C:\Users\matte\AppData\Local\Temp\ccrMwnXK.s 			page 25


 317              		.weak	_ZN5daisy11OledDisplayINS_13SSD130xDriverILj128ELj64ENS_19SSD130xI2CTransportEEEED0Ev
 318              		.syntax unified
 319              		.thumb
 320              		.thumb_func
 321              		.fpu fpv5-d16
 323              	_ZN5daisy11OledDisplayINS_13SSD130xDriverILj128ELj64ENS_19SSD130xI2CTransportEEEED0Ev:
 324              	.LVL20:
 325              	.LFB5445:
  18:../../libs/PoliTeKDSP/libs/libDaisy/src/hid/disp/oled_display.h **** 
 326              		.loc 8 18 13 is_stmt 1 view -0
 327              		.cfi_startproc
 328              		@ args = 0, pretend = 0, frame = 0
 329              		@ frame_needed = 0, uses_anonymous_args = 0
  18:../../libs/PoliTeKDSP/libs/libDaisy/src/hid/disp/oled_display.h **** 
 330              		.loc 8 18 13 is_stmt 0 view .LVU56
 331 0000 10B5     		push	{r4, lr}
 332              		.cfi_def_cfa_offset 8
 333              		.cfi_offset 4, -8
 334              		.cfi_offset 14, -4
  18:../../libs/PoliTeKDSP/libs/libDaisy/src/hid/disp/oled_display.h **** 
 335              		.loc 8 18 13 view .LVU57
 336 0002 0446     		mov	r4, r0
 337              	.LVL21:
 338              	.LBB474:
 339              	.LBI474:
  18:../../libs/PoliTeKDSP/libs/libDaisy/src/hid/disp/oled_display.h **** 
 340              		.loc 8 18 13 is_stmt 1 view .LVU58
 341              	.LBB475:
 342              	.LBI475:
 343              		.loc 9 219 13 view .LVU59
 344              	.LBB476:
 345              	.LBI476:
  23:../../libs/PoliTeKDSP/libs/libDaisy/src/hid/disp/display.h **** 
 346              		.loc 9 23 13 view .LVU60
  23:../../libs/PoliTeKDSP/libs/libDaisy/src/hid/disp/display.h **** 
 347              		.loc 9 23 13 is_stmt 0 view .LVU61
 348              	.LBE476:
 349              	.LBE475:
 350              	.LBE474:
  18:../../libs/PoliTeKDSP/libs/libDaisy/src/hid/disp/oled_display.h **** 
 351              		.loc 8 18 29 view .LVU62
 352 0004 4FF48261 		mov	r1, #1040
 353 0008 FFF7FEFF 		bl	_ZdlPvj
 354              	.LVL22:
  18:../../libs/PoliTeKDSP/libs/libDaisy/src/hid/disp/oled_display.h **** 
 355              		.loc 8 18 29 view .LVU63
 356 000c 2046     		mov	r0, r4
 357 000e 10BD     		pop	{r4, pc}
  18:../../libs/PoliTeKDSP/libs/libDaisy/src/hid/disp/oled_display.h **** 
 358              		.loc 8 18 29 view .LVU64
 359              		.cfi_endproc
 360              	.LFE5445:
 362              		.section	.text._ZN5daisy11OledDisplayINS_13SSD130xDriverILj128ELj64ENS_19SSD130xI2CTransportEEEE6U
 363              		.align	1
 364              		.p2align 2,,3
 365              		.weak	_ZN5daisy11OledDisplayINS_13SSD130xDriverILj128ELj64ENS_19SSD130xI2CTransportEEEE6UpdateEv
 366              		.syntax unified
ARM GAS  C:\Users\matte\AppData\Local\Temp\ccrMwnXK.s 			page 26


 367              		.thumb
 368              		.thumb_func
 369              		.fpu fpv5-d16
 371              	_ZN5daisy11OledDisplayINS_13SSD130xDriverILj128ELj64ENS_19SSD130xI2CTransportEEEE6UpdateEv:
 372              	.LVL23:
 373              	.LFB5456:
  35:../../libs/PoliTeKDSP/libs/libDaisy/src/hid/disp/oled_display.h **** 
  36:../../libs/PoliTeKDSP/libs/libDaisy/src/hid/disp/oled_display.h ****     /**
  37:../../libs/PoliTeKDSP/libs/libDaisy/src/hid/disp/oled_display.h ****     Sets the pixel at the specified coordinate to be on/off.
  38:../../libs/PoliTeKDSP/libs/libDaisy/src/hid/disp/oled_display.h ****     \param x   x Coordinate
  39:../../libs/PoliTeKDSP/libs/libDaisy/src/hid/disp/oled_display.h ****     \param y   y coordinate
  40:../../libs/PoliTeKDSP/libs/libDaisy/src/hid/disp/oled_display.h ****     \param on  on or off
  41:../../libs/PoliTeKDSP/libs/libDaisy/src/hid/disp/oled_display.h ****     */
  42:../../libs/PoliTeKDSP/libs/libDaisy/src/hid/disp/oled_display.h ****     void DrawPixel(uint_fast8_t x, uint_fast8_t y, bool on) override
  43:../../libs/PoliTeKDSP/libs/libDaisy/src/hid/disp/oled_display.h ****     {
  44:../../libs/PoliTeKDSP/libs/libDaisy/src/hid/disp/oled_display.h ****         driver_.DrawPixel(x, y, on);
  45:../../libs/PoliTeKDSP/libs/libDaisy/src/hid/disp/oled_display.h ****     }
  46:../../libs/PoliTeKDSP/libs/libDaisy/src/hid/disp/oled_display.h **** 
  47:../../libs/PoliTeKDSP/libs/libDaisy/src/hid/disp/oled_display.h ****     /** 
  48:../../libs/PoliTeKDSP/libs/libDaisy/src/hid/disp/oled_display.h ****     Writes the current display buffer to the OLED device using SPI or I2C depending on 
  49:../../libs/PoliTeKDSP/libs/libDaisy/src/hid/disp/oled_display.h ****     how the object was initialized.
  50:../../libs/PoliTeKDSP/libs/libDaisy/src/hid/disp/oled_display.h ****     */
  51:../../libs/PoliTeKDSP/libs/libDaisy/src/hid/disp/oled_display.h ****     void Update() override { driver_.Update(); }
 374              		.loc 8 51 10 is_stmt 1 view -0
 375              		.cfi_startproc
 376              		@ args = 0, pretend = 0, frame = 8
 377              		@ frame_needed = 0, uses_anonymous_args = 0
 378              		.loc 8 51 10 is_stmt 0 view .LVU66
 379 0000 2DE9F04F 		push	{r4, r5, r6, r7, r8, r9, r10, fp, lr}
 380              		.cfi_def_cfa_offset 36
 381              		.cfi_offset 4, -36
 382              		.cfi_offset 5, -32
 383              		.cfi_offset 6, -28
 384              		.cfi_offset 7, -24
 385              		.cfi_offset 8, -20
 386              		.cfi_offset 9, -16
 387              		.cfi_offset 10, -12
 388              		.cfi_offset 11, -8
 389              		.cfi_offset 14, -4
 390              	.LBB489:
 391              	.LBB490:
 392              	.LBB491:
 393              	.LBB492:
  45:../../libs/PoliTeKDSP/libs/libDaisy/src/dev/oled_ssd130x.h ****     };
 394              		.loc 10 45 30 view .LVU67
 395 0004 4FF0B008 		mov	r8, #176
 396              	.LBE492:
 397              	.LBE491:
 398              	.LBE490:
 399              	.LBE489:
 400              		.loc 8 51 10 view .LVU68
 401 0008 85B0     		sub	sp, sp, #20
 402              		.cfi_def_cfa_offset 56
 403              		.loc 8 51 10 view .LVU69
 404 000a 0546     		mov	r5, r0
 405              	.LVL24:
 406              	.LBB504:
ARM GAS  C:\Users\matte\AppData\Local\Temp\ccrMwnXK.s 			page 27


 407              	.LBI489:
 355:../../libs/PoliTeKDSP/libs/libDaisy/src/dev/oled_ssd130x.h ****         }
 356:../../libs/PoliTeKDSP/libs/libDaisy/src/dev/oled_ssd130x.h ****     };
 357:../../libs/PoliTeKDSP/libs/libDaisy/src/dev/oled_ssd130x.h **** 
 358:../../libs/PoliTeKDSP/libs/libDaisy/src/dev/oled_ssd130x.h ****     /**
 359:../../libs/PoliTeKDSP/libs/libDaisy/src/dev/oled_ssd130x.h ****      * Update the display 
 360:../../libs/PoliTeKDSP/libs/libDaisy/src/dev/oled_ssd130x.h ****     */
 361:../../libs/PoliTeKDSP/libs/libDaisy/src/dev/oled_ssd130x.h ****     void Update()
 408              		.loc 10 361 10 is_stmt 1 view .LVU70
 409              	.LBB503:
 362:../../libs/PoliTeKDSP/libs/libDaisy/src/dev/oled_ssd130x.h ****     {
 363:../../libs/PoliTeKDSP/libs/libDaisy/src/dev/oled_ssd130x.h ****         uint8_t i;
 364:../../libs/PoliTeKDSP/libs/libDaisy/src/dev/oled_ssd130x.h ****         uint8_t high_column_addr;
 365:../../libs/PoliTeKDSP/libs/libDaisy/src/dev/oled_ssd130x.h ****         switch(height)
 366:../../libs/PoliTeKDSP/libs/libDaisy/src/dev/oled_ssd130x.h ****         {
 367:../../libs/PoliTeKDSP/libs/libDaisy/src/dev/oled_ssd130x.h ****             case 32: high_column_addr = 0x12; break;
 368:../../libs/PoliTeKDSP/libs/libDaisy/src/dev/oled_ssd130x.h **** 
 369:../../libs/PoliTeKDSP/libs/libDaisy/src/dev/oled_ssd130x.h ****             default: high_column_addr = 0x10; break;
 370:../../libs/PoliTeKDSP/libs/libDaisy/src/dev/oled_ssd130x.h ****         }
 371:../../libs/PoliTeKDSP/libs/libDaisy/src/dev/oled_ssd130x.h ****         for(i = 0; i < (height / 8); i++)
 410              		.loc 10 371 22 view .LVU71
 411              	.LBB495:
 412              	.LBB493:
  45:../../libs/PoliTeKDSP/libs/libDaisy/src/dev/oled_ssd130x.h ****     };
 413              		.loc 10 45 30 is_stmt 0 view .LVU72
 414 000c 00F10807 		add	r7, r0, #8
 415              	.LVL25:
  45:../../libs/PoliTeKDSP/libs/libDaisy/src/dev/oled_ssd130x.h ****     };
 416              		.loc 10 45 30 view .LVU73
 417 0010 00F18F06 		add	r6, r0, #143
 418 0014 00F28F49 		addw	r9, r0, #1167
 419              	.LVL26:
 420              	.L25:
  45:../../libs/PoliTeKDSP/libs/libDaisy/src/dev/oled_ssd130x.h ****     };
 421              		.loc 10 45 30 view .LVU74
 422              	.LBE493:
 423              	.LBI491:
  42:../../libs/PoliTeKDSP/libs/libDaisy/src/dev/oled_ssd130x.h ****     {
 424              		.loc 10 42 10 is_stmt 1 view .LVU75
 425              	.LBB494:
  44:../../libs/PoliTeKDSP/libs/libDaisy/src/dev/oled_ssd130x.h ****         i2c_.TransmitBlocking(i2c_address_, buf, 2, 1000);
 426              		.loc 10 44 9 view .LVU76
  45:../../libs/PoliTeKDSP/libs/libDaisy/src/dev/oled_ssd130x.h ****     };
 427              		.loc 10 45 30 is_stmt 0 view .LVU77
 428 0018 4FF47A7B 		mov	fp, #1000
  44:../../libs/PoliTeKDSP/libs/libDaisy/src/dev/oled_ssd130x.h ****         i2c_.TransmitBlocking(i2c_address_, buf, 2, 1000);
 429              		.loc 10 44 17 view .LVU78
 430 001c 4FF0000A 		mov	r10, #0
  45:../../libs/PoliTeKDSP/libs/libDaisy/src/dev/oled_ssd130x.h ****     };
 431              		.loc 10 45 30 view .LVU79
 432 0020 297B     		ldrb	r1, [r5, #12]	@ zero_extendqisi2
 433 0022 0223     		movs	r3, #2
 434 0024 03AA     		add	r2, sp, #12
 435 0026 3846     		mov	r0, r7
 436 0028 CDF800B0 		str	fp, [sp]
 437 002c A6F18004 		sub	r4, r6, #128
  44:../../libs/PoliTeKDSP/libs/libDaisy/src/dev/oled_ssd130x.h ****         i2c_.TransmitBlocking(i2c_address_, buf, 2, 1000);
ARM GAS  C:\Users\matte\AppData\Local\Temp\ccrMwnXK.s 			page 28


 438              		.loc 10 44 17 view .LVU80
 439 0030 8DF80CA0 		strb	r10, [sp, #12]
  44:../../libs/PoliTeKDSP/libs/libDaisy/src/dev/oled_ssd130x.h ****         i2c_.TransmitBlocking(i2c_address_, buf, 2, 1000);
 440              		.loc 10 44 36 view .LVU81
 441 0034 8DF80D80 		strb	r8, [sp, #13]
  45:../../libs/PoliTeKDSP/libs/libDaisy/src/dev/oled_ssd130x.h ****     };
 442              		.loc 10 45 9 is_stmt 1 view .LVU82
  45:../../libs/PoliTeKDSP/libs/libDaisy/src/dev/oled_ssd130x.h ****     };
 443              		.loc 10 45 30 is_stmt 0 view .LVU83
 444 0038 FFF7FEFF 		bl	_ZN5daisy9I2CHandle16TransmitBlockingEtPhtm
 445              	.LVL27:
  45:../../libs/PoliTeKDSP/libs/libDaisy/src/dev/oled_ssd130x.h ****     };
 446              		.loc 10 45 30 view .LVU84
 447              	.LBE494:
 448              	.LBE495:
 449              	.LBB496:
 450              	.LBI496:
  42:../../libs/PoliTeKDSP/libs/libDaisy/src/dev/oled_ssd130x.h ****     {
 451              		.loc 10 42 10 is_stmt 1 view .LVU85
 452              	.LBB497:
  44:../../libs/PoliTeKDSP/libs/libDaisy/src/dev/oled_ssd130x.h ****         i2c_.TransmitBlocking(i2c_address_, buf, 2, 1000);
 453              		.loc 10 44 9 view .LVU86
  45:../../libs/PoliTeKDSP/libs/libDaisy/src/dev/oled_ssd130x.h ****     };
 454              		.loc 10 45 30 is_stmt 0 view .LVU87
 455 003c 297B     		ldrb	r1, [r5, #12]	@ zero_extendqisi2
 456 003e 0223     		movs	r3, #2
 457 0040 03AA     		add	r2, sp, #12
 458 0042 3846     		mov	r0, r7
 459 0044 CDF800B0 		str	fp, [sp]
  44:../../libs/PoliTeKDSP/libs/libDaisy/src/dev/oled_ssd130x.h ****         i2c_.TransmitBlocking(i2c_address_, buf, 2, 1000);
 460              		.loc 10 44 17 view .LVU88
 461 0048 8DF80CA0 		strb	r10, [sp, #12]
  44:../../libs/PoliTeKDSP/libs/libDaisy/src/dev/oled_ssd130x.h ****         i2c_.TransmitBlocking(i2c_address_, buf, 2, 1000);
 462              		.loc 10 44 36 view .LVU89
 463 004c 8DF80DA0 		strb	r10, [sp, #13]
  45:../../libs/PoliTeKDSP/libs/libDaisy/src/dev/oled_ssd130x.h ****     };
 464              		.loc 10 45 9 is_stmt 1 view .LVU90
  45:../../libs/PoliTeKDSP/libs/libDaisy/src/dev/oled_ssd130x.h ****     };
 465              		.loc 10 45 30 is_stmt 0 view .LVU91
 466 0050 FFF7FEFF 		bl	_ZN5daisy9I2CHandle16TransmitBlockingEtPhtm
 467              	.LVL28:
  45:../../libs/PoliTeKDSP/libs/libDaisy/src/dev/oled_ssd130x.h ****     };
 468              		.loc 10 45 30 view .LVU92
 469              	.LBE497:
 470              	.LBE496:
 471              	.LBB498:
 472              	.LBI498:
  42:../../libs/PoliTeKDSP/libs/libDaisy/src/dev/oled_ssd130x.h ****     {
 473              		.loc 10 42 10 is_stmt 1 view .LVU93
 474              	.LBB499:
  44:../../libs/PoliTeKDSP/libs/libDaisy/src/dev/oled_ssd130x.h ****         i2c_.TransmitBlocking(i2c_address_, buf, 2, 1000);
 475              		.loc 10 44 9 view .LVU94
  44:../../libs/PoliTeKDSP/libs/libDaisy/src/dev/oled_ssd130x.h ****         i2c_.TransmitBlocking(i2c_address_, buf, 2, 1000);
 476              		.loc 10 44 36 is_stmt 0 view .LVU95
 477 0054 4FF0100C 		mov	ip, #16
  45:../../libs/PoliTeKDSP/libs/libDaisy/src/dev/oled_ssd130x.h ****     };
 478              		.loc 10 45 30 view .LVU96
ARM GAS  C:\Users\matte\AppData\Local\Temp\ccrMwnXK.s 			page 29


 479 0058 297B     		ldrb	r1, [r5, #12]	@ zero_extendqisi2
 480 005a 0223     		movs	r3, #2
 481 005c 03AA     		add	r2, sp, #12
 482 005e 3846     		mov	r0, r7
 483 0060 CDF800B0 		str	fp, [sp]
  44:../../libs/PoliTeKDSP/libs/libDaisy/src/dev/oled_ssd130x.h ****         i2c_.TransmitBlocking(i2c_address_, buf, 2, 1000);
 484              		.loc 10 44 17 view .LVU97
 485 0064 8DF80CA0 		strb	r10, [sp, #12]
  44:../../libs/PoliTeKDSP/libs/libDaisy/src/dev/oled_ssd130x.h ****         i2c_.TransmitBlocking(i2c_address_, buf, 2, 1000);
 486              		.loc 10 44 36 view .LVU98
 487 0068 8DF80DC0 		strb	ip, [sp, #13]
  45:../../libs/PoliTeKDSP/libs/libDaisy/src/dev/oled_ssd130x.h ****     };
 488              		.loc 10 45 9 is_stmt 1 view .LVU99
  45:../../libs/PoliTeKDSP/libs/libDaisy/src/dev/oled_ssd130x.h ****     };
 489              		.loc 10 45 30 is_stmt 0 view .LVU100
 490 006c FFF7FEFF 		bl	_ZN5daisy9I2CHandle16TransmitBlockingEtPhtm
 491              	.LVL29:
  45:../../libs/PoliTeKDSP/libs/libDaisy/src/dev/oled_ssd130x.h ****     };
 492              		.loc 10 45 30 view .LVU101
 493              	.LBE499:
 494              	.LBE498:
 495              	.LBB500:
 496              	.LBI500:
  48:../../libs/PoliTeKDSP/libs/libDaisy/src/dev/oled_ssd130x.h ****     {
 497              		.loc 10 48 10 is_stmt 1 view .LVU102
 498              	.LBB501:
  50:../../libs/PoliTeKDSP/libs/libDaisy/src/dev/oled_ssd130x.h ****         {
 499              		.loc 10 50 29 view .LVU103
 500              	.L24:
 501              	.LBB502:
  52:../../libs/PoliTeKDSP/libs/libDaisy/src/dev/oled_ssd130x.h ****             i2c_.TransmitBlocking(i2c_address_, buf, 2, 1000);
 502              		.loc 10 52 13 view .LVU104
  53:../../libs/PoliTeKDSP/libs/libDaisy/src/dev/oled_ssd130x.h ****         }
 503              		.loc 10 53 34 is_stmt 0 view .LVU105
 504 0070 4FF47A70 		mov	r0, #1000
  52:../../libs/PoliTeKDSP/libs/libDaisy/src/dev/oled_ssd130x.h ****             i2c_.TransmitBlocking(i2c_address_, buf, 2, 1000);
 505              		.loc 10 52 44 view .LVU106
 506 0074 14F801CF 		ldrb	ip, [r4, #1]!	@ zero_extendqisi2
 507              	.LVL30:
  52:../../libs/PoliTeKDSP/libs/libDaisy/src/dev/oled_ssd130x.h ****             i2c_.TransmitBlocking(i2c_address_, buf, 2, 1000);
 508              		.loc 10 52 21 view .LVU107
 509 0078 4FF0400E 		mov	lr, #64
  53:../../libs/PoliTeKDSP/libs/libDaisy/src/dev/oled_ssd130x.h ****         }
 510              		.loc 10 53 34 view .LVU108
 511 007c 297B     		ldrb	r1, [r5, #12]	@ zero_extendqisi2
 512 007e 0223     		movs	r3, #2
 513 0080 0090     		str	r0, [sp]
 514 0082 03AA     		add	r2, sp, #12
 515 0084 3846     		mov	r0, r7
  52:../../libs/PoliTeKDSP/libs/libDaisy/src/dev/oled_ssd130x.h ****             i2c_.TransmitBlocking(i2c_address_, buf, 2, 1000);
 516              		.loc 10 52 21 view .LVU109
 517 0086 8DF80CE0 		strb	lr, [sp, #12]
  52:../../libs/PoliTeKDSP/libs/libDaisy/src/dev/oled_ssd130x.h ****             i2c_.TransmitBlocking(i2c_address_, buf, 2, 1000);
 518              		.loc 10 52 44 view .LVU110
 519 008a 8DF80DC0 		strb	ip, [sp, #13]
  53:../../libs/PoliTeKDSP/libs/libDaisy/src/dev/oled_ssd130x.h ****         }
 520              		.loc 10 53 13 is_stmt 1 view .LVU111
ARM GAS  C:\Users\matte\AppData\Local\Temp\ccrMwnXK.s 			page 30


  53:../../libs/PoliTeKDSP/libs/libDaisy/src/dev/oled_ssd130x.h ****         }
 521              		.loc 10 53 34 is_stmt 0 view .LVU112
 522 008e FFF7FEFF 		bl	_ZN5daisy9I2CHandle16TransmitBlockingEtPhtm
 523              	.LVL31:
 524              	.LBE502:
  50:../../libs/PoliTeKDSP/libs/libDaisy/src/dev/oled_ssd130x.h ****         {
 525              		.loc 10 50 9 is_stmt 1 view .LVU113
  50:../../libs/PoliTeKDSP/libs/libDaisy/src/dev/oled_ssd130x.h ****         {
 526              		.loc 10 50 29 view .LVU114
 527 0092 B442     		cmp	r4, r6
 528 0094 ECD1     		bne	.L24
 529              	.LVL32:
  50:../../libs/PoliTeKDSP/libs/libDaisy/src/dev/oled_ssd130x.h ****         {
 530              		.loc 10 50 29 is_stmt 0 view .LVU115
 531              	.LBE501:
 532              	.LBE500:
 533              		.loc 10 371 9 is_stmt 1 view .LVU116
 534              		.loc 10 371 22 view .LVU117
 535 0096 04F18006 		add	r6, r4, #128
 536 009a 08F10108 		add	r8, r8, #1
 537              	.LVL33:
 538              		.loc 10 371 22 is_stmt 0 view .LVU118
 539 009e 4E45     		cmp	r6, r9
 540 00a0 5FFA88F8 		uxtb	r8, r8
 541 00a4 B8D1     		bne	.L25
 542              	.LBE503:
 543              	.LBE504:
 544              		.loc 8 51 48 view .LVU119
 545 00a6 05B0     		add	sp, sp, #20
 546              		.cfi_def_cfa_offset 36
 547              		@ sp needed
 548 00a8 BDE8F08F 		pop	{r4, r5, r6, r7, r8, r9, r10, fp, pc}
 549              		.loc 8 51 48 view .LVU120
 550              		.cfi_endproc
 551              	.LFE5456:
 553              		.section	.text._ZN5daisy25OneBitGraphicsDisplayImplINS_11OledDisplayINS_13SSD130xDriverILj128ELj64
 554              		.align	1
 555              		.p2align 2,,3
 556              		.weak	_ZN5daisy25OneBitGraphicsDisplayImplINS_11OledDisplayINS_13SSD130xDriverILj128ELj64ENS_19SSD
 557              		.syntax unified
 558              		.thumb
 559              		.thumb_func
 560              		.fpu fpv5-d16
 562              	_ZN5daisy25OneBitGraphicsDisplayImplINS_11OledDisplayINS_13SSD130xDriverILj128ELj64ENS_19SSD130xI2C
 563              	.LVL34:
 564              	.LFB5454:
 220:../../libs/PoliTeKDSP/libs/libDaisy/src/hid/disp/display.h **** 
 221:../../libs/PoliTeKDSP/libs/libDaisy/src/hid/disp/display.h ****     void DrawLine(uint_fast8_t x1,
 222:../../libs/PoliTeKDSP/libs/libDaisy/src/hid/disp/display.h ****                   uint_fast8_t y1,
 223:../../libs/PoliTeKDSP/libs/libDaisy/src/hid/disp/display.h ****                   uint_fast8_t x2,
 224:../../libs/PoliTeKDSP/libs/libDaisy/src/hid/disp/display.h ****                   uint_fast8_t y2,
 225:../../libs/PoliTeKDSP/libs/libDaisy/src/hid/disp/display.h ****                   bool         on) override
 226:../../libs/PoliTeKDSP/libs/libDaisy/src/hid/disp/display.h ****     {
 227:../../libs/PoliTeKDSP/libs/libDaisy/src/hid/disp/display.h ****         int_fast16_t deltaX = abs((int_fast16_t)x2 - (int_fast16_t)x1);
 228:../../libs/PoliTeKDSP/libs/libDaisy/src/hid/disp/display.h ****         int_fast16_t deltaY = abs((int_fast16_t)y2 - (int_fast16_t)y1);
 229:../../libs/PoliTeKDSP/libs/libDaisy/src/hid/disp/display.h ****         int_fast16_t signX  = ((x1 < x2) ? 1 : -1);
 230:../../libs/PoliTeKDSP/libs/libDaisy/src/hid/disp/display.h ****         int_fast16_t signY  = ((y1 < y2) ? 1 : -1);
ARM GAS  C:\Users\matte\AppData\Local\Temp\ccrMwnXK.s 			page 31


 231:../../libs/PoliTeKDSP/libs/libDaisy/src/hid/disp/display.h ****         int_fast16_t error  = deltaX - deltaY;
 232:../../libs/PoliTeKDSP/libs/libDaisy/src/hid/disp/display.h ****         int_fast16_t error2;
 233:../../libs/PoliTeKDSP/libs/libDaisy/src/hid/disp/display.h **** 
 234:../../libs/PoliTeKDSP/libs/libDaisy/src/hid/disp/display.h ****         // If we write "ChildType::DrawPixel(x2, y2, on);", we end up with
 235:../../libs/PoliTeKDSP/libs/libDaisy/src/hid/disp/display.h ****         // all sorts of weird compiler errors when the Child class is a template
 236:../../libs/PoliTeKDSP/libs/libDaisy/src/hid/disp/display.h ****         // class. The only way around this is to use this very verbose syntax:
 237:../../libs/PoliTeKDSP/libs/libDaisy/src/hid/disp/display.h ****         ((ChildType*)(this))->ChildType::DrawPixel(x2, y2, on);
 238:../../libs/PoliTeKDSP/libs/libDaisy/src/hid/disp/display.h **** 
 239:../../libs/PoliTeKDSP/libs/libDaisy/src/hid/disp/display.h ****         while((x1 != x2) || (y1 != y2))
 240:../../libs/PoliTeKDSP/libs/libDaisy/src/hid/disp/display.h ****         {
 241:../../libs/PoliTeKDSP/libs/libDaisy/src/hid/disp/display.h ****             ((ChildType*)(this))->ChildType::DrawPixel(x1, y1, on);
 242:../../libs/PoliTeKDSP/libs/libDaisy/src/hid/disp/display.h ****             error2 = error * 2;
 243:../../libs/PoliTeKDSP/libs/libDaisy/src/hid/disp/display.h ****             if(error2 > -deltaY)
 244:../../libs/PoliTeKDSP/libs/libDaisy/src/hid/disp/display.h ****             {
 245:../../libs/PoliTeKDSP/libs/libDaisy/src/hid/disp/display.h ****                 error -= deltaY;
 246:../../libs/PoliTeKDSP/libs/libDaisy/src/hid/disp/display.h ****                 x1 += signX;
 247:../../libs/PoliTeKDSP/libs/libDaisy/src/hid/disp/display.h ****             }
 248:../../libs/PoliTeKDSP/libs/libDaisy/src/hid/disp/display.h **** 
 249:../../libs/PoliTeKDSP/libs/libDaisy/src/hid/disp/display.h ****             if(error2 < deltaX)
 250:../../libs/PoliTeKDSP/libs/libDaisy/src/hid/disp/display.h ****             {
 251:../../libs/PoliTeKDSP/libs/libDaisy/src/hid/disp/display.h ****                 error += deltaX;
 252:../../libs/PoliTeKDSP/libs/libDaisy/src/hid/disp/display.h ****                 y1 += signY;
 253:../../libs/PoliTeKDSP/libs/libDaisy/src/hid/disp/display.h ****             }
 254:../../libs/PoliTeKDSP/libs/libDaisy/src/hid/disp/display.h ****         }
 255:../../libs/PoliTeKDSP/libs/libDaisy/src/hid/disp/display.h ****     }
 256:../../libs/PoliTeKDSP/libs/libDaisy/src/hid/disp/display.h **** 
 257:../../libs/PoliTeKDSP/libs/libDaisy/src/hid/disp/display.h ****     void DrawRect(uint_fast8_t x1,
 258:../../libs/PoliTeKDSP/libs/libDaisy/src/hid/disp/display.h ****                   uint_fast8_t y1,
 259:../../libs/PoliTeKDSP/libs/libDaisy/src/hid/disp/display.h ****                   uint_fast8_t x2,
 260:../../libs/PoliTeKDSP/libs/libDaisy/src/hid/disp/display.h ****                   uint_fast8_t y2,
 261:../../libs/PoliTeKDSP/libs/libDaisy/src/hid/disp/display.h ****                   bool         on,
 262:../../libs/PoliTeKDSP/libs/libDaisy/src/hid/disp/display.h ****                   bool         fill = false) override
 263:../../libs/PoliTeKDSP/libs/libDaisy/src/hid/disp/display.h ****     {
 264:../../libs/PoliTeKDSP/libs/libDaisy/src/hid/disp/display.h ****         if(fill)
 265:../../libs/PoliTeKDSP/libs/libDaisy/src/hid/disp/display.h ****         {
 266:../../libs/PoliTeKDSP/libs/libDaisy/src/hid/disp/display.h ****             for(uint_fast8_t x = x1; x <= x2; x++)
 267:../../libs/PoliTeKDSP/libs/libDaisy/src/hid/disp/display.h ****             {
 268:../../libs/PoliTeKDSP/libs/libDaisy/src/hid/disp/display.h ****                 for(uint_fast8_t y = y1; y <= y2; y++)
 269:../../libs/PoliTeKDSP/libs/libDaisy/src/hid/disp/display.h ****                 {
 270:../../libs/PoliTeKDSP/libs/libDaisy/src/hid/disp/display.h ****                     ((ChildType*)(this))->ChildType::DrawPixel(x, y, on);
 271:../../libs/PoliTeKDSP/libs/libDaisy/src/hid/disp/display.h ****                 }
 272:../../libs/PoliTeKDSP/libs/libDaisy/src/hid/disp/display.h ****             }
 273:../../libs/PoliTeKDSP/libs/libDaisy/src/hid/disp/display.h ****         }
 274:../../libs/PoliTeKDSP/libs/libDaisy/src/hid/disp/display.h ****         else
 275:../../libs/PoliTeKDSP/libs/libDaisy/src/hid/disp/display.h ****         {
 276:../../libs/PoliTeKDSP/libs/libDaisy/src/hid/disp/display.h ****             ((ChildType*)(this))->ChildType::DrawLine(x1, y1, x2, y1, on);
 277:../../libs/PoliTeKDSP/libs/libDaisy/src/hid/disp/display.h ****             ((ChildType*)(this))->ChildType::DrawLine(x2, y1, x2, y2, on);
 278:../../libs/PoliTeKDSP/libs/libDaisy/src/hid/disp/display.h ****             ((ChildType*)(this))->ChildType::DrawLine(x2, y2, x1, y2, on);
 279:../../libs/PoliTeKDSP/libs/libDaisy/src/hid/disp/display.h ****             ((ChildType*)(this))->ChildType::DrawLine(x1, y2, x1, y1, on);
 280:../../libs/PoliTeKDSP/libs/libDaisy/src/hid/disp/display.h ****         }
 281:../../libs/PoliTeKDSP/libs/libDaisy/src/hid/disp/display.h ****     }
 282:../../libs/PoliTeKDSP/libs/libDaisy/src/hid/disp/display.h **** 
 283:../../libs/PoliTeKDSP/libs/libDaisy/src/hid/disp/display.h ****     void DrawArc(uint_fast8_t x,
 284:../../libs/PoliTeKDSP/libs/libDaisy/src/hid/disp/display.h ****                  uint_fast8_t y,
 285:../../libs/PoliTeKDSP/libs/libDaisy/src/hid/disp/display.h ****                  uint_fast8_t radius,
 286:../../libs/PoliTeKDSP/libs/libDaisy/src/hid/disp/display.h ****                  int_fast16_t start_angle,
 287:../../libs/PoliTeKDSP/libs/libDaisy/src/hid/disp/display.h ****                  int_fast16_t sweep,
ARM GAS  C:\Users\matte\AppData\Local\Temp\ccrMwnXK.s 			page 32


 288:../../libs/PoliTeKDSP/libs/libDaisy/src/hid/disp/display.h ****                  bool         on) override
 289:../../libs/PoliTeKDSP/libs/libDaisy/src/hid/disp/display.h ****     {
 290:../../libs/PoliTeKDSP/libs/libDaisy/src/hid/disp/display.h ****         // Values to calculate the circle
 291:../../libs/PoliTeKDSP/libs/libDaisy/src/hid/disp/display.h ****         int_fast16_t t_x, t_y, err, e2;
 292:../../libs/PoliTeKDSP/libs/libDaisy/src/hid/disp/display.h **** 
 293:../../libs/PoliTeKDSP/libs/libDaisy/src/hid/disp/display.h ****         // Temporary values to speed up comparisons
 294:../../libs/PoliTeKDSP/libs/libDaisy/src/hid/disp/display.h ****         float t_sxy, t_syx, t_sxny, t_synx;
 295:../../libs/PoliTeKDSP/libs/libDaisy/src/hid/disp/display.h ****         float t_exy, t_eyx, t_exny, t_eynx;
 296:../../libs/PoliTeKDSP/libs/libDaisy/src/hid/disp/display.h **** 
 297:../../libs/PoliTeKDSP/libs/libDaisy/src/hid/disp/display.h ****         float start_angle_rad, end_angle_rad;
 298:../../libs/PoliTeKDSP/libs/libDaisy/src/hid/disp/display.h ****         float start_x, start_y, end_x, end_y;
 299:../../libs/PoliTeKDSP/libs/libDaisy/src/hid/disp/display.h **** 
 300:../../libs/PoliTeKDSP/libs/libDaisy/src/hid/disp/display.h ****         bool d1, d2, d3, d4;
 301:../../libs/PoliTeKDSP/libs/libDaisy/src/hid/disp/display.h **** 
 302:../../libs/PoliTeKDSP/libs/libDaisy/src/hid/disp/display.h ****         d1 = d2 = d3 = d4 = true;
 303:../../libs/PoliTeKDSP/libs/libDaisy/src/hid/disp/display.h **** 
 304:../../libs/PoliTeKDSP/libs/libDaisy/src/hid/disp/display.h ****         bool circle = false;
 305:../../libs/PoliTeKDSP/libs/libDaisy/src/hid/disp/display.h **** 
 306:../../libs/PoliTeKDSP/libs/libDaisy/src/hid/disp/display.h ****         if(sweep < 0)
 307:../../libs/PoliTeKDSP/libs/libDaisy/src/hid/disp/display.h ****         {
 308:../../libs/PoliTeKDSP/libs/libDaisy/src/hid/disp/display.h ****             start_angle += sweep;
 309:../../libs/PoliTeKDSP/libs/libDaisy/src/hid/disp/display.h ****             sweep = -sweep;
 310:../../libs/PoliTeKDSP/libs/libDaisy/src/hid/disp/display.h ****         }
 311:../../libs/PoliTeKDSP/libs/libDaisy/src/hid/disp/display.h **** 
 312:../../libs/PoliTeKDSP/libs/libDaisy/src/hid/disp/display.h ****         start_angle_rad = deg2rad(start_angle);
 313:../../libs/PoliTeKDSP/libs/libDaisy/src/hid/disp/display.h ****         end_angle_rad   = deg2rad(start_angle + sweep);
 314:../../libs/PoliTeKDSP/libs/libDaisy/src/hid/disp/display.h **** 
 315:../../libs/PoliTeKDSP/libs/libDaisy/src/hid/disp/display.h ****         start_x = cos(start_angle_rad) * radius;
 316:../../libs/PoliTeKDSP/libs/libDaisy/src/hid/disp/display.h ****         start_y = -sin(start_angle_rad) * radius;
 317:../../libs/PoliTeKDSP/libs/libDaisy/src/hid/disp/display.h ****         end_x   = cos(end_angle_rad) * radius;
 318:../../libs/PoliTeKDSP/libs/libDaisy/src/hid/disp/display.h ****         end_y   = -sin(end_angle_rad) * radius;
 319:../../libs/PoliTeKDSP/libs/libDaisy/src/hid/disp/display.h **** 
 320:../../libs/PoliTeKDSP/libs/libDaisy/src/hid/disp/display.h ****         // Check if start and endpoint are very near
 321:../../libs/PoliTeKDSP/libs/libDaisy/src/hid/disp/display.h ****         if((end_x - start_x) * (end_x - start_x)
 322:../../libs/PoliTeKDSP/libs/libDaisy/src/hid/disp/display.h ****                + (end_y - start_y) * (end_y - start_y)
 323:../../libs/PoliTeKDSP/libs/libDaisy/src/hid/disp/display.h ****            < 2.0f)
 324:../../libs/PoliTeKDSP/libs/libDaisy/src/hid/disp/display.h ****         {
 325:../../libs/PoliTeKDSP/libs/libDaisy/src/hid/disp/display.h ****             if(sweep > 180)
 326:../../libs/PoliTeKDSP/libs/libDaisy/src/hid/disp/display.h ****                 circle = true;
 327:../../libs/PoliTeKDSP/libs/libDaisy/src/hid/disp/display.h ****             else
 328:../../libs/PoliTeKDSP/libs/libDaisy/src/hid/disp/display.h ****                 // Nothing to draw
 329:../../libs/PoliTeKDSP/libs/libDaisy/src/hid/disp/display.h ****                 return;
 330:../../libs/PoliTeKDSP/libs/libDaisy/src/hid/disp/display.h ****         }
 331:../../libs/PoliTeKDSP/libs/libDaisy/src/hid/disp/display.h **** 
 332:../../libs/PoliTeKDSP/libs/libDaisy/src/hid/disp/display.h ****         t_x = -radius;
 333:../../libs/PoliTeKDSP/libs/libDaisy/src/hid/disp/display.h ****         t_y = 0;
 334:../../libs/PoliTeKDSP/libs/libDaisy/src/hid/disp/display.h ****         err = 2 - 2 * radius;
 335:../../libs/PoliTeKDSP/libs/libDaisy/src/hid/disp/display.h **** 
 336:../../libs/PoliTeKDSP/libs/libDaisy/src/hid/disp/display.h ****         do
 337:../../libs/PoliTeKDSP/libs/libDaisy/src/hid/disp/display.h ****         {
 338:../../libs/PoliTeKDSP/libs/libDaisy/src/hid/disp/display.h ****             if(!circle)
 339:../../libs/PoliTeKDSP/libs/libDaisy/src/hid/disp/display.h ****             {
 340:../../libs/PoliTeKDSP/libs/libDaisy/src/hid/disp/display.h ****                 t_sxy  = start_x * t_y;
 341:../../libs/PoliTeKDSP/libs/libDaisy/src/hid/disp/display.h ****                 t_syx  = start_y * t_x;
 342:../../libs/PoliTeKDSP/libs/libDaisy/src/hid/disp/display.h ****                 t_sxny = start_x * -t_y;
 343:../../libs/PoliTeKDSP/libs/libDaisy/src/hid/disp/display.h ****                 t_synx = start_y * -t_x;
 344:../../libs/PoliTeKDSP/libs/libDaisy/src/hid/disp/display.h ****                 t_exy  = end_x * t_y;
ARM GAS  C:\Users\matte\AppData\Local\Temp\ccrMwnXK.s 			page 33


 345:../../libs/PoliTeKDSP/libs/libDaisy/src/hid/disp/display.h ****                 t_eyx  = end_y * t_x;
 346:../../libs/PoliTeKDSP/libs/libDaisy/src/hid/disp/display.h ****                 t_exny = end_x * -t_y;
 347:../../libs/PoliTeKDSP/libs/libDaisy/src/hid/disp/display.h ****                 t_eynx = end_y * -t_x;
 348:../../libs/PoliTeKDSP/libs/libDaisy/src/hid/disp/display.h **** 
 349:../../libs/PoliTeKDSP/libs/libDaisy/src/hid/disp/display.h ****                 if(sweep > 180)
 350:../../libs/PoliTeKDSP/libs/libDaisy/src/hid/disp/display.h ****                 {
 351:../../libs/PoliTeKDSP/libs/libDaisy/src/hid/disp/display.h ****                     d1 = (t_sxy - t_synx < 0 || t_exy - t_eynx > 0);
 352:../../libs/PoliTeKDSP/libs/libDaisy/src/hid/disp/display.h ****                     d2 = (t_sxy - t_syx < 0 || t_exy - t_eyx > 0);
 353:../../libs/PoliTeKDSP/libs/libDaisy/src/hid/disp/display.h ****                     d3 = (t_sxny - t_syx < 0 || t_exny - t_eyx > 0);
 354:../../libs/PoliTeKDSP/libs/libDaisy/src/hid/disp/display.h ****                     d4 = (t_sxny - t_synx < 0 || t_exny - t_eynx > 0);
 355:../../libs/PoliTeKDSP/libs/libDaisy/src/hid/disp/display.h ****                 }
 356:../../libs/PoliTeKDSP/libs/libDaisy/src/hid/disp/display.h ****                 else
 357:../../libs/PoliTeKDSP/libs/libDaisy/src/hid/disp/display.h ****                 {
 358:../../libs/PoliTeKDSP/libs/libDaisy/src/hid/disp/display.h ****                     d1 = (t_sxy - t_synx < 0 && t_exy - t_eynx > 0);
 359:../../libs/PoliTeKDSP/libs/libDaisy/src/hid/disp/display.h ****                     d2 = (t_sxy - t_syx < 0 && t_exy - t_eyx > 0);
 360:../../libs/PoliTeKDSP/libs/libDaisy/src/hid/disp/display.h ****                     d3 = (t_sxny - t_syx < 0 && t_exny - t_eyx > 0);
 361:../../libs/PoliTeKDSP/libs/libDaisy/src/hid/disp/display.h ****                     d4 = (t_sxny - t_synx < 0 && t_exny - t_eynx > 0);
 362:../../libs/PoliTeKDSP/libs/libDaisy/src/hid/disp/display.h ****                 }
 363:../../libs/PoliTeKDSP/libs/libDaisy/src/hid/disp/display.h ****             }
 364:../../libs/PoliTeKDSP/libs/libDaisy/src/hid/disp/display.h **** 
 365:../../libs/PoliTeKDSP/libs/libDaisy/src/hid/disp/display.h ****             if(d1)
 366:../../libs/PoliTeKDSP/libs/libDaisy/src/hid/disp/display.h ****                 ((ChildType*)(this))
 367:../../libs/PoliTeKDSP/libs/libDaisy/src/hid/disp/display.h ****                     ->ChildType::DrawPixel(x - t_x, y + t_y, on);
 368:../../libs/PoliTeKDSP/libs/libDaisy/src/hid/disp/display.h ****             if(d2)
 369:../../libs/PoliTeKDSP/libs/libDaisy/src/hid/disp/display.h ****                 ((ChildType*)(this))
 370:../../libs/PoliTeKDSP/libs/libDaisy/src/hid/disp/display.h ****                     ->ChildType::DrawPixel(x + t_x, y + t_y, on);
 371:../../libs/PoliTeKDSP/libs/libDaisy/src/hid/disp/display.h ****             if(d3)
 372:../../libs/PoliTeKDSP/libs/libDaisy/src/hid/disp/display.h ****                 ((ChildType*)(this))
 373:../../libs/PoliTeKDSP/libs/libDaisy/src/hid/disp/display.h ****                     ->ChildType::DrawPixel(x + t_x, y - t_y, on);
 374:../../libs/PoliTeKDSP/libs/libDaisy/src/hid/disp/display.h ****             if(d4)
 375:../../libs/PoliTeKDSP/libs/libDaisy/src/hid/disp/display.h ****                 ((ChildType*)(this))
 376:../../libs/PoliTeKDSP/libs/libDaisy/src/hid/disp/display.h ****                     ->ChildType::DrawPixel(x - t_x, y - t_y, on);
 377:../../libs/PoliTeKDSP/libs/libDaisy/src/hid/disp/display.h **** 
 378:../../libs/PoliTeKDSP/libs/libDaisy/src/hid/disp/display.h ****             e2 = err;
 379:../../libs/PoliTeKDSP/libs/libDaisy/src/hid/disp/display.h ****             if(e2 <= t_y)
 380:../../libs/PoliTeKDSP/libs/libDaisy/src/hid/disp/display.h ****             {
 381:../../libs/PoliTeKDSP/libs/libDaisy/src/hid/disp/display.h ****                 t_y++;
 382:../../libs/PoliTeKDSP/libs/libDaisy/src/hid/disp/display.h ****                 err = err + (t_y * 2 + 1);
 383:../../libs/PoliTeKDSP/libs/libDaisy/src/hid/disp/display.h ****                 if(-t_x == t_y && e2 <= t_x)
 384:../../libs/PoliTeKDSP/libs/libDaisy/src/hid/disp/display.h ****                 {
 385:../../libs/PoliTeKDSP/libs/libDaisy/src/hid/disp/display.h ****                     e2 = 0;
 386:../../libs/PoliTeKDSP/libs/libDaisy/src/hid/disp/display.h ****                 }
 387:../../libs/PoliTeKDSP/libs/libDaisy/src/hid/disp/display.h ****             }
 388:../../libs/PoliTeKDSP/libs/libDaisy/src/hid/disp/display.h ****             if(e2 > t_x)
 389:../../libs/PoliTeKDSP/libs/libDaisy/src/hid/disp/display.h ****             {
 390:../../libs/PoliTeKDSP/libs/libDaisy/src/hid/disp/display.h ****                 t_x++;
 391:../../libs/PoliTeKDSP/libs/libDaisy/src/hid/disp/display.h ****                 err = err + (t_x * 2 + 1);
 392:../../libs/PoliTeKDSP/libs/libDaisy/src/hid/disp/display.h ****             }
 393:../../libs/PoliTeKDSP/libs/libDaisy/src/hid/disp/display.h ****         } while(t_x <= 0);
 394:../../libs/PoliTeKDSP/libs/libDaisy/src/hid/disp/display.h ****     }
 395:../../libs/PoliTeKDSP/libs/libDaisy/src/hid/disp/display.h **** 
 396:../../libs/PoliTeKDSP/libs/libDaisy/src/hid/disp/display.h ****     char WriteChar(char ch, FontDef font, bool on) override
 397:../../libs/PoliTeKDSP/libs/libDaisy/src/hid/disp/display.h ****     {
 398:../../libs/PoliTeKDSP/libs/libDaisy/src/hid/disp/display.h ****         uint32_t i, b, j;
 399:../../libs/PoliTeKDSP/libs/libDaisy/src/hid/disp/display.h **** 
 400:../../libs/PoliTeKDSP/libs/libDaisy/src/hid/disp/display.h ****         // Check if character is valid
 401:../../libs/PoliTeKDSP/libs/libDaisy/src/hid/disp/display.h ****         if(ch < 32 || ch > 126)
ARM GAS  C:\Users\matte\AppData\Local\Temp\ccrMwnXK.s 			page 34


 402:../../libs/PoliTeKDSP/libs/libDaisy/src/hid/disp/display.h ****             return 0;
 403:../../libs/PoliTeKDSP/libs/libDaisy/src/hid/disp/display.h **** 
 404:../../libs/PoliTeKDSP/libs/libDaisy/src/hid/disp/display.h ****         // Check remaining space on current line
 405:../../libs/PoliTeKDSP/libs/libDaisy/src/hid/disp/display.h ****         if(Width() < (currentX_ + font.FontWidth)
 406:../../libs/PoliTeKDSP/libs/libDaisy/src/hid/disp/display.h ****            || Height() < (currentY_ + font.FontHeight))
 407:../../libs/PoliTeKDSP/libs/libDaisy/src/hid/disp/display.h ****         {
 408:../../libs/PoliTeKDSP/libs/libDaisy/src/hid/disp/display.h ****             // Not enough space on current line
 409:../../libs/PoliTeKDSP/libs/libDaisy/src/hid/disp/display.h ****             return 0;
 410:../../libs/PoliTeKDSP/libs/libDaisy/src/hid/disp/display.h ****         }
 411:../../libs/PoliTeKDSP/libs/libDaisy/src/hid/disp/display.h **** 
 412:../../libs/PoliTeKDSP/libs/libDaisy/src/hid/disp/display.h ****         // Use the font to write
 413:../../libs/PoliTeKDSP/libs/libDaisy/src/hid/disp/display.h ****         for(i = 0; i < font.FontHeight; i++)
 414:../../libs/PoliTeKDSP/libs/libDaisy/src/hid/disp/display.h ****         {
 415:../../libs/PoliTeKDSP/libs/libDaisy/src/hid/disp/display.h ****             b = font.data[(ch - 32) * font.FontHeight + i];
 416:../../libs/PoliTeKDSP/libs/libDaisy/src/hid/disp/display.h ****             for(j = 0; j < font.FontWidth; j++)
 417:../../libs/PoliTeKDSP/libs/libDaisy/src/hid/disp/display.h ****             {
 418:../../libs/PoliTeKDSP/libs/libDaisy/src/hid/disp/display.h ****                 if((b << j) & 0x8000)
 419:../../libs/PoliTeKDSP/libs/libDaisy/src/hid/disp/display.h ****                 {
 420:../../libs/PoliTeKDSP/libs/libDaisy/src/hid/disp/display.h ****                     ((ChildType*)(this))
 421:../../libs/PoliTeKDSP/libs/libDaisy/src/hid/disp/display.h ****                         ->ChildType::DrawPixel(
 422:../../libs/PoliTeKDSP/libs/libDaisy/src/hid/disp/display.h ****                             currentX_ + j, (currentY_ + i), on);
 423:../../libs/PoliTeKDSP/libs/libDaisy/src/hid/disp/display.h ****                 }
 424:../../libs/PoliTeKDSP/libs/libDaisy/src/hid/disp/display.h ****                 else
 425:../../libs/PoliTeKDSP/libs/libDaisy/src/hid/disp/display.h ****                 {
 426:../../libs/PoliTeKDSP/libs/libDaisy/src/hid/disp/display.h ****                     ((ChildType*)(this))
 427:../../libs/PoliTeKDSP/libs/libDaisy/src/hid/disp/display.h ****                         ->ChildType::DrawPixel(
 428:../../libs/PoliTeKDSP/libs/libDaisy/src/hid/disp/display.h ****                             currentX_ + j, (currentY_ + i), !on);
 429:../../libs/PoliTeKDSP/libs/libDaisy/src/hid/disp/display.h ****                 }
 430:../../libs/PoliTeKDSP/libs/libDaisy/src/hid/disp/display.h ****             }
 431:../../libs/PoliTeKDSP/libs/libDaisy/src/hid/disp/display.h ****         }
 432:../../libs/PoliTeKDSP/libs/libDaisy/src/hid/disp/display.h **** 
 433:../../libs/PoliTeKDSP/libs/libDaisy/src/hid/disp/display.h ****         // The current space is now taken
 434:../../libs/PoliTeKDSP/libs/libDaisy/src/hid/disp/display.h ****         SetCursor(currentX_ + font.FontWidth, currentY_);
 435:../../libs/PoliTeKDSP/libs/libDaisy/src/hid/disp/display.h **** 
 436:../../libs/PoliTeKDSP/libs/libDaisy/src/hid/disp/display.h ****         // Return written char for validation
 437:../../libs/PoliTeKDSP/libs/libDaisy/src/hid/disp/display.h ****         return ch;
 438:../../libs/PoliTeKDSP/libs/libDaisy/src/hid/disp/display.h ****     }
 439:../../libs/PoliTeKDSP/libs/libDaisy/src/hid/disp/display.h **** 
 440:../../libs/PoliTeKDSP/libs/libDaisy/src/hid/disp/display.h ****     char WriteString(const char* str, FontDef font, bool on) override
 565              		.loc 9 440 10 is_stmt 1 view -0
 566              		.cfi_startproc
 567              		@ args = 4, pretend = 0, frame = 32
 568              		@ frame_needed = 0, uses_anonymous_args = 0
 569              		.loc 9 440 10 is_stmt 0 view .LVU122
 570 0000 2DE9F04F 		push	{r4, r5, r6, r7, r8, r9, r10, fp, lr}
 571              		.cfi_def_cfa_offset 36
 572              		.cfi_offset 4, -36
 573              		.cfi_offset 5, -32
 574              		.cfi_offset 6, -28
 575              		.cfi_offset 7, -24
 576              		.cfi_offset 8, -20
 577              		.cfi_offset 9, -16
 578              		.cfi_offset 10, -12
 579              		.cfi_offset 11, -8
 580              		.cfi_offset 14, -4
 581 0004 89B0     		sub	sp, sp, #36
 582              		.cfi_def_cfa_offset 72
ARM GAS  C:\Users\matte\AppData\Local\Temp\ccrMwnXK.s 			page 35


 583              		.loc 9 440 10 view .LVU123
 584 0006 08AC     		add	r4, sp, #32
 585 0008 9DF84870 		ldrb	r7, [sp, #72]	@ zero_extendqisi2
 586 000c 0191     		str	r1, [sp, #4]
 587 000e 04E90C00 		stmdb	r4, {r2, r3}
 441:../../libs/PoliTeKDSP/libs/libDaisy/src/hid/disp/display.h ****     {
 442:../../libs/PoliTeKDSP/libs/libDaisy/src/hid/disp/display.h ****         // Write until null-byte
 443:../../libs/PoliTeKDSP/libs/libDaisy/src/hid/disp/display.h ****         while(*str)
 588              		.loc 9 443 9 is_stmt 1 view .LVU124
 589 0012 0B78     		ldrb	r3, [r1]	@ zero_extendqisi2
 590 0014 002B     		cmp	r3, #0
 591 0016 00F0AB80 		beq	.L53
 592 001a 1A46     		mov	r2, r3
 593 001c 9DF81880 		ldrb	r8, [sp, #24]	@ zero_extendqisi2
 594 0020 9DF81930 		ldrb	r3, [sp, #25]	@ zero_extendqisi2
 595 0024 0646     		mov	r6, r0
 596 0026 4546     		mov	r5, r8
 597 0028 9046     		mov	r8, r2
 598 002a 0393     		str	r3, [sp, #12]
 599 002c 079B     		ldr	r3, [sp, #28]
 600 002e 0593     		str	r3, [sp, #20]
 601              	.LVL35:
 602              	.L54:
 603              	.LBB533:
 604              	.LBI533:
 396:../../libs/PoliTeKDSP/libs/libDaisy/src/hid/disp/display.h ****     {
 605              		.loc 9 396 10 view .LVU125
 606              	.LBB534:
 401:../../libs/PoliTeKDSP/libs/libDaisy/src/hid/disp/display.h ****             return 0;
 607              		.loc 9 401 20 is_stmt 0 view .LVU126
 608 0030 A8F12004 		sub	r4, r8, #32
 401:../../libs/PoliTeKDSP/libs/libDaisy/src/hid/disp/display.h ****             return 0;
 609              		.loc 9 401 9 view .LVU127
 610 0034 E3B2     		uxtb	r3, r4
 611 0036 5E2B     		cmp	r3, #94
 612 0038 00F29E80 		bhi	.L35
 405:../../libs/PoliTeKDSP/libs/libDaisy/src/hid/disp/display.h ****            || Height() < (currentY_ + font.FontHeight))
 613              		.loc 9 405 17 view .LVU128
 614 003c 3368     		ldr	r3, [r6]
 615 003e 5E4A     		ldr	r2, .L75
 616 0040 DB68     		ldr	r3, [r3, #12]
 617 0042 9342     		cmp	r3, r2
 618 0044 40F09B80 		bne	.L68
 619 0048 8020     		movs	r0, #128
 620              	.L34:
 405:../../libs/PoliTeKDSP/libs/libDaisy/src/hid/disp/display.h ****            || Height() < (currentY_ + font.FontHeight))
 621              		.loc 9 405 23 view .LVU129
 622 004a B388     		ldrh	r3, [r6, #4]
 405:../../libs/PoliTeKDSP/libs/libDaisy/src/hid/disp/display.h ****            || Height() < (currentY_ + font.FontHeight))
 623              		.loc 9 405 33 view .LVU130
 624 004c 2B44     		add	r3, r3, r5
 406:../../libs/PoliTeKDSP/libs/libDaisy/src/hid/disp/display.h ****         {
 625              		.loc 9 406 12 view .LVU131
 626 004e 8342     		cmp	r3, r0
 627 0050 00F39280 		bgt	.L35
 406:../../libs/PoliTeKDSP/libs/libDaisy/src/hid/disp/display.h ****         {
 628              		.loc 9 406 21 view .LVU132
ARM GAS  C:\Users\matte\AppData\Local\Temp\ccrMwnXK.s 			page 36


 629 0054 3368     		ldr	r3, [r6]
 630 0056 594A     		ldr	r2, .L75+4
 631 0058 9B68     		ldr	r3, [r3, #8]
 632 005a 9342     		cmp	r3, r2
 633 005c 40F09280 		bne	.L69
 634 0060 4020     		movs	r0, #64
 635              	.L36:
 406:../../libs/PoliTeKDSP/libs/libDaisy/src/hid/disp/display.h ****         {
 636              		.loc 9 406 27 view .LVU133
 637 0062 F188     		ldrh	r1, [r6, #6]
 406:../../libs/PoliTeKDSP/libs/libDaisy/src/hid/disp/display.h ****         {
 638              		.loc 9 406 37 view .LVU134
 639 0064 039A     		ldr	r2, [sp, #12]
 406:../../libs/PoliTeKDSP/libs/libDaisy/src/hid/disp/display.h ****         {
 640              		.loc 9 406 27 view .LVU135
 641 0066 0291     		str	r1, [sp, #8]
 406:../../libs/PoliTeKDSP/libs/libDaisy/src/hid/disp/display.h ****         {
 642              		.loc 9 406 37 view .LVU136
 643 0068 8B18     		adds	r3, r1, r2
 406:../../libs/PoliTeKDSP/libs/libDaisy/src/hid/disp/display.h ****         {
 644              		.loc 9 406 12 view .LVU137
 645 006a 8342     		cmp	r3, r0
 646 006c 00F38480 		bgt	.L35
 647              	.LVL36:
 413:../../libs/PoliTeKDSP/libs/libDaisy/src/hid/disp/display.h ****         {
 648              		.loc 9 413 22 is_stmt 1 view .LVU138
 649 0070 002A     		cmp	r2, #0
 650 0072 00F09180 		beq	.L37
 415:../../libs/PoliTeKDSP/libs/libDaisy/src/hid/disp/display.h ****             for(j = 0; j < font.FontWidth; j++)
 651              		.loc 9 415 37 is_stmt 0 view .LVU139
 652 0076 02FB04F4 		mul	r4, r2, r4
 653 007a 6FF00049 		mvn	r9, #-2147483648
 654 007e 059B     		ldr	r3, [sp, #20]
 655 0080 A144     		add	r9, r9, r4
 656 0082 1444     		add	r4, r4, r2
 434:../../libs/PoliTeKDSP/libs/libDaisy/src/hid/disp/display.h **** 
 657              		.loc 9 434 19 view .LVU140
 658 0084 B6F804B0 		ldrh	fp, [r6, #4]
 659 0088 03EB4909 		add	r9, r3, r9, lsl #1
 660 008c 023B     		subs	r3, r3, #2
 661 008e CDF81080 		str	r8, [sp, #16]
 662 0092 03EB4403 		add	r3, r3, r4, lsl #1
 663 0096 0C46     		mov	r4, r1
 664 0098 9A46     		mov	r10, r3
 665              	.LVL37:
 666              	.L40:
 415:../../libs/PoliTeKDSP/libs/libDaisy/src/hid/disp/display.h ****             for(j = 0; j < font.FontWidth; j++)
 667              		.loc 9 415 15 view .LVU141
 668 009a 39F802CF 		ldrh	ip, [r9, #2]!
 669              	.LVL38:
 416:../../libs/PoliTeKDSP/libs/libDaisy/src/hid/disp/display.h ****             {
 670              		.loc 9 416 26 is_stmt 1 view .LVU142
 671 009e A5B3     		cbz	r5, .L45
 672              	.LBB535:
 673              	.LBB536:
 674              	.LBB537:
 675              	.LBB538:
ARM GAS  C:\Users\matte\AppData\Local\Temp\ccrMwnXK.s 			page 37


 676              	.LBB539:
 347:../../libs/PoliTeKDSP/libs/libDaisy/src/dev/oled_ssd130x.h ****     }
 677              		.loc 10 347 55 is_stmt 0 view .LVU143
 678 00a0 04F00703 		and	r3, r4, #7
 347:../../libs/PoliTeKDSP/libs/libDaisy/src/dev/oled_ssd130x.h ****     }
 679              		.loc 10 347 49 view .LVU144
 680 00a4 4FF0010E 		mov	lr, #1
 347:../../libs/PoliTeKDSP/libs/libDaisy/src/dev/oled_ssd130x.h ****     }
 681              		.loc 10 347 28 view .LVU145
 682 00a8 E208     		lsrs	r2, r4, #3
 683 00aa 5946     		mov	r1, fp
 347:../../libs/PoliTeKDSP/libs/libDaisy/src/dev/oled_ssd130x.h ****     }
 684              		.loc 10 347 49 view .LVU146
 685 00ac 0EFA03FE 		lsl	lr, lr, r3
 686 00b0 0BF11003 		add	r3, fp, #16
 347:../../libs/PoliTeKDSP/libs/libDaisy/src/dev/oled_ssd130x.h ****     }
 687              		.loc 10 347 42 view .LVU147
 688 00b4 4FFA8EFE 		sxtb	lr, lr
 689 00b8 03EBC212 		add	r2, r3, r2, lsl #7
 690              	.LBE539:
 691              	.LBE538:
 692              	.LBE537:
 693              	.LBE536:
 694              	.LBE535:
 416:../../libs/PoliTeKDSP/libs/libDaisy/src/hid/disp/display.h ****             {
 695              		.loc 9 416 19 view .LVU148
 696 00bc 0023     		movs	r3, #0
 697              	.LBB557:
 698              	.LBB552:
 699              	.LBB547:
 700              	.LBB543:
 701              	.LBB540:
 347:../../libs/PoliTeKDSP/libs/libDaisy/src/dev/oled_ssd130x.h ****     }
 702              		.loc 10 347 42 view .LVU149
 703 00be 6FEA0E08 		mvn	r8, lr
 704 00c2 3244     		add	r2, r2, r6
 705 00c4 0DE0     		b	.L46
 706              	.LVL39:
 707              	.L70:
 347:../../libs/PoliTeKDSP/libs/libDaisy/src/dev/oled_ssd130x.h ****     }
 708              		.loc 10 347 42 view .LVU150
 709              	.LBE540:
 710              	.LBE543:
 711              	.LBE547:
 712              	.LBE552:
 713              	.LBE557:
 714              	.LBB558:
 715              	.LBI558:
  42:../../libs/PoliTeKDSP/libs/libDaisy/src/hid/disp/oled_display.h ****     {
 716              		.loc 8 42 10 is_stmt 1 view .LVU151
 717              	.LBB559:
 718              	.LBI559:
 340:../../libs/PoliTeKDSP/libs/libDaisy/src/dev/oled_ssd130x.h ****     {
 719              		.loc 10 340 10 view .LVU152
 720              	.LBB560:
 342:../../libs/PoliTeKDSP/libs/libDaisy/src/dev/oled_ssd130x.h ****             return;
 721              		.loc 10 342 9 is_stmt 0 view .LVU153
ARM GAS  C:\Users\matte\AppData\Local\Temp\ccrMwnXK.s 			page 38


 722 00c6 7F29     		cmp	r1, #127
 723 00c8 06D8     		bhi	.L42
 724 00ca 3F2C     		cmp	r4, #63
 725 00cc 04D8     		bhi	.L42
 345:../../libs/PoliTeKDSP/libs/libDaisy/src/dev/oled_ssd130x.h ****         else
 726              		.loc 10 345 42 view .LVU154
 727 00ce 1078     		ldrb	r0, [r2]	@ zero_extendqisi2
 344:../../libs/PoliTeKDSP/libs/libDaisy/src/dev/oled_ssd130x.h ****             buffer_[x + (y / 8) * width] |= (1 << (y % 8));
 728              		.loc 10 344 9 view .LVU155
 729 00d0 97B1     		cbz	r7, .L44
 730              	.L67:
 344:../../libs/PoliTeKDSP/libs/libDaisy/src/dev/oled_ssd130x.h ****             buffer_[x + (y / 8) * width] |= (1 << (y % 8));
 731              		.loc 10 344 9 view .LVU156
 732              	.LBE560:
 733              	.LBE559:
 734              	.LBE558:
 735              	.LBB561:
 736              	.LBB553:
 737              	.LBB548:
 345:../../libs/PoliTeKDSP/libs/libDaisy/src/dev/oled_ssd130x.h ****         else
 738              		.loc 10 345 42 view .LVU157
 739 00d2 4EEA0000 		orr	r0, lr, r0
 740 00d6 1070     		strb	r0, [r2]
 741              	.L42:
 742              	.LBE548:
 743              	.LBE553:
 744              	.LBE561:
 416:../../libs/PoliTeKDSP/libs/libDaisy/src/hid/disp/display.h ****             {
 745              		.loc 9 416 13 is_stmt 1 view .LVU158
 746 00d8 0133     		adds	r3, r3, #1
 747              	.LVL40:
 416:../../libs/PoliTeKDSP/libs/libDaisy/src/hid/disp/display.h ****             {
 748              		.loc 9 416 26 view .LVU159
 749 00da 0132     		adds	r2, r2, #1
 750 00dc 0131     		adds	r1, r1, #1
 751 00de AB42     		cmp	r3, r5
 752 00e0 13D0     		beq	.L45
 753              	.LVL41:
 754              	.L46:
 418:../../libs/PoliTeKDSP/libs/libDaisy/src/hid/disp/display.h ****                 {
 755              		.loc 9 418 23 is_stmt 0 view .LVU160
 756 00e2 0CFA03F0 		lsl	r0, ip, r3
 418:../../libs/PoliTeKDSP/libs/libDaisy/src/hid/disp/display.h ****                 {
 757              		.loc 9 418 17 view .LVU161
 758 00e6 0004     		lsls	r0, r0, #16
 759 00e8 EDD4     		bmi	.L70
 760              	.LVL42:
 761              	.LBB562:
 762              	.LBI535:
  42:../../libs/PoliTeKDSP/libs/libDaisy/src/hid/disp/oled_display.h ****     {
 763              		.loc 8 42 10 is_stmt 1 view .LVU162
 764              	.LBB554:
 765              	.LBI536:
 340:../../libs/PoliTeKDSP/libs/libDaisy/src/dev/oled_ssd130x.h ****     {
 766              		.loc 10 340 10 view .LVU163
 767              	.LBB549:
 342:../../libs/PoliTeKDSP/libs/libDaisy/src/dev/oled_ssd130x.h ****             return;
ARM GAS  C:\Users\matte\AppData\Local\Temp\ccrMwnXK.s 			page 39


 768              		.loc 10 342 9 is_stmt 0 view .LVU164
 769 00ea 7F29     		cmp	r1, #127
 770 00ec F4D8     		bhi	.L42
 771 00ee 3F2C     		cmp	r4, #63
 772 00f0 F2D8     		bhi	.L42
 345:../../libs/PoliTeKDSP/libs/libDaisy/src/dev/oled_ssd130x.h ****         else
 773              		.loc 10 345 42 view .LVU165
 774 00f2 1078     		ldrb	r0, [r2]	@ zero_extendqisi2
 344:../../libs/PoliTeKDSP/libs/libDaisy/src/dev/oled_ssd130x.h ****             buffer_[x + (y / 8) * width] |= (1 << (y % 8));
 775              		.loc 10 344 9 view .LVU166
 776 00f4 002F     		cmp	r7, #0
 777 00f6 ECD0     		beq	.L67
 778              	.L44:
 779              	.LVL43:
 780              	.LBB544:
 781              	.LBI538:
 340:../../libs/PoliTeKDSP/libs/libDaisy/src/dev/oled_ssd130x.h ****     {
 782              		.loc 10 340 10 is_stmt 1 view .LVU167
 340:../../libs/PoliTeKDSP/libs/libDaisy/src/dev/oled_ssd130x.h ****     {
 783              		.loc 10 340 10 is_stmt 0 view .LVU168
 784              	.LBE544:
 785              	.LBE549:
 786              	.LBE554:
 787              	.LBE562:
 416:../../libs/PoliTeKDSP/libs/libDaisy/src/hid/disp/display.h ****             {
 788              		.loc 9 416 13 view .LVU169
 789 00f8 0133     		adds	r3, r3, #1
 790              	.LVL44:
 791              	.LBB563:
 792              	.LBB555:
 793              	.LBB550:
 794              	.LBB545:
 795              	.LBB541:
 347:../../libs/PoliTeKDSP/libs/libDaisy/src/dev/oled_ssd130x.h ****     }
 796              		.loc 10 347 42 view .LVU170
 797 00fa 08EA0000 		and	r0, r8, r0
 798              	.LBE541:
 799              	.LBE545:
 800              	.LBE550:
 801              	.LBE555:
 802              	.LBE563:
 416:../../libs/PoliTeKDSP/libs/libDaisy/src/hid/disp/display.h ****             {
 803              		.loc 9 416 26 view .LVU171
 804 00fe 0132     		adds	r2, r2, #1
 805 0100 0131     		adds	r1, r1, #1
 806 0102 AB42     		cmp	r3, r5
 807              	.LBB564:
 808              	.LBB556:
 809              	.LBB551:
 810              	.LBB546:
 811              	.LBB542:
 347:../../libs/PoliTeKDSP/libs/libDaisy/src/dev/oled_ssd130x.h ****     }
 812              		.loc 10 347 42 view .LVU172
 813 0104 02F8010C 		strb	r0, [r2, #-1]
 347:../../libs/PoliTeKDSP/libs/libDaisy/src/dev/oled_ssd130x.h ****     }
 814              		.loc 10 347 42 view .LVU173
 815              	.LBE542:
ARM GAS  C:\Users\matte\AppData\Local\Temp\ccrMwnXK.s 			page 40


 816              	.LBE546:
 817              	.LBE551:
 818              	.LBE556:
 819              	.LBE564:
 416:../../libs/PoliTeKDSP/libs/libDaisy/src/hid/disp/display.h ****             {
 820              		.loc 9 416 13 is_stmt 1 view .LVU174
 821              	.LVL45:
 416:../../libs/PoliTeKDSP/libs/libDaisy/src/hid/disp/display.h ****             {
 822              		.loc 9 416 26 view .LVU175
 823 0108 EBD1     		bne	.L46
 824              	.LVL46:
 825              	.L45:
 413:../../libs/PoliTeKDSP/libs/libDaisy/src/hid/disp/display.h ****         {
 826              		.loc 9 413 9 view .LVU176
 413:../../libs/PoliTeKDSP/libs/libDaisy/src/hid/disp/display.h ****         {
 827              		.loc 9 413 22 view .LVU177
 828 010a D145     		cmp	r9, r10
 829 010c 04F10104 		add	r4, r4, #1
 830 0110 C3D1     		bne	.L40
 831 0112 DDF81080 		ldr	r8, [sp, #16]
 832              	.LVL47:
 833              	.L39:
 834              	.LBB565:
 835              	.LBB566:
 173:../../libs/PoliTeKDSP/libs/libDaisy/src/hid/disp/display.h ****         currentY_ = (y >= Height()) ? Height() - 1 : y;
 836              		.loc 9 173 33 is_stmt 0 view .LVU178
 837 0116 3268     		ldr	r2, [r6]
 838              	.LBE566:
 839              	.LBE565:
 434:../../libs/PoliTeKDSP/libs/libDaisy/src/hid/disp/display.h **** 
 840              		.loc 9 434 18 view .LVU179
 841 0118 0BEB0504 		add	r4, fp, r5
 842 011c 2649     		ldr	r1, .L75
 843              	.LBB571:
 844              	.LBB567:
 173:../../libs/PoliTeKDSP/libs/libDaisy/src/hid/disp/display.h ****         currentY_ = (y >= Height()) ? Height() - 1 : y;
 845              		.loc 9 173 33 view .LVU180
 846 011e D368     		ldr	r3, [r2, #12]
 847              	.LBE567:
 848              	.LBE571:
 434:../../libs/PoliTeKDSP/libs/libDaisy/src/hid/disp/display.h **** 
 849              		.loc 9 434 18 view .LVU181
 850 0120 A4B2     		uxth	r4, r4
 851              	.LVL48:
 852              	.LBB572:
 853              	.LBI565:
 171:../../libs/PoliTeKDSP/libs/libDaisy/src/hid/disp/display.h ****     {
 854              		.loc 9 171 10 is_stmt 1 view .LVU182
 855              	.LBB568:
 173:../../libs/PoliTeKDSP/libs/libDaisy/src/hid/disp/display.h ****         currentY_ = (y >= Height()) ? Height() - 1 : y;
 856              		.loc 9 173 9 view .LVU183
 857 0122 8B42     		cmp	r3, r1
 858 0124 34D1     		bne	.L71
 173:../../libs/PoliTeKDSP/libs/libDaisy/src/hid/disp/display.h ****         currentY_ = (y >= Height()) ? Height() - 1 : y;
 859              		.loc 9 173 33 is_stmt 0 view .LVU184
 860 0126 8020     		movs	r0, #128
 861              	.L47:
ARM GAS  C:\Users\matte\AppData\Local\Temp\ccrMwnXK.s 			page 41


 173:../../libs/PoliTeKDSP/libs/libDaisy/src/hid/disp/display.h ****         currentY_ = (y >= Height()) ? Height() - 1 : y;
 862              		.loc 9 173 19 view .LVU185
 863 0128 8442     		cmp	r4, r0
 864 012a 04D3     		bcc	.L48
 173:../../libs/PoliTeKDSP/libs/libDaisy/src/hid/disp/display.h ****         currentY_ = (y >= Height()) ? Height() - 1 : y;
 865              		.loc 9 173 44 view .LVU186
 866 012c D368     		ldr	r3, [r2, #12]
 867 012e 2249     		ldr	r1, .L75
 868 0130 8B42     		cmp	r3, r1
 869 0132 3AD1     		bne	.L72
 870 0134 7F24     		movs	r4, #127
 871              	.LVL49:
 872              	.L48:
 174:../../libs/PoliTeKDSP/libs/libDaisy/src/hid/disp/display.h ****     }
 873              		.loc 9 174 34 view .LVU187
 874 0136 9368     		ldr	r3, [r2, #8]
 875 0138 204A     		ldr	r2, .L75+4
 173:../../libs/PoliTeKDSP/libs/libDaisy/src/hid/disp/display.h ****         currentY_ = (y >= Height()) ? Height() - 1 : y;
 876              		.loc 9 173 19 view .LVU188
 877 013a B480     		strh	r4, [r6, #4]	@ movhi
 174:../../libs/PoliTeKDSP/libs/libDaisy/src/hid/disp/display.h ****     }
 878              		.loc 9 174 9 is_stmt 1 view .LVU189
 879 013c 9342     		cmp	r3, r2
 880 013e 24D1     		bne	.L73
 174:../../libs/PoliTeKDSP/libs/libDaisy/src/hid/disp/display.h ****     }
 881              		.loc 9 174 34 is_stmt 0 view .LVU190
 882 0140 4020     		movs	r0, #64
 883              	.L50:
 174:../../libs/PoliTeKDSP/libs/libDaisy/src/hid/disp/display.h ****     }
 884              		.loc 9 174 19 view .LVU191
 885 0142 029B     		ldr	r3, [sp, #8]
 886 0144 8342     		cmp	r3, r0
 887 0146 06D3     		bcc	.L51
 174:../../libs/PoliTeKDSP/libs/libDaisy/src/hid/disp/display.h ****     }
 888              		.loc 9 174 46 view .LVU192
 889 0148 3368     		ldr	r3, [r6]
 890 014a 1C4A     		ldr	r2, .L75+4
 891 014c 9B68     		ldr	r3, [r3, #8]
 892 014e 9342     		cmp	r3, r2
 893 0150 25D1     		bne	.L74
 894 0152 3F23     		movs	r3, #63
 895 0154 0293     		str	r3, [sp, #8]
 896              	.LVL50:
 897              	.L51:
 174:../../libs/PoliTeKDSP/libs/libDaisy/src/hid/disp/display.h ****     }
 898              		.loc 9 174 19 view .LVU193
 899 0156 029B     		ldr	r3, [sp, #8]
 900 0158 F380     		strh	r3, [r6, #6]	@ movhi
 901              	.LVL51:
 902              	.L33:
 174:../../libs/PoliTeKDSP/libs/libDaisy/src/hid/disp/display.h ****     }
 903              		.loc 9 174 19 view .LVU194
 904              	.LBE568:
 905              	.LBE572:
 906              	.LBE534:
 907              	.LBE533:
 444:../../libs/PoliTeKDSP/libs/libDaisy/src/hid/disp/display.h ****         {
ARM GAS  C:\Users\matte\AppData\Local\Temp\ccrMwnXK.s 			page 42


 445:../../libs/PoliTeKDSP/libs/libDaisy/src/hid/disp/display.h ****             if(((ChildType*)(this))->ChildType::WriteChar(*str, font, on)
 446:../../libs/PoliTeKDSP/libs/libDaisy/src/hid/disp/display.h ****                != *str)
 908              		.loc 9 446 16 view .LVU195
 909 015a 019B     		ldr	r3, [sp, #4]
 910 015c 1878     		ldrb	r0, [r3]	@ zero_extendqisi2
 445:../../libs/PoliTeKDSP/libs/libDaisy/src/hid/disp/display.h ****                != *str)
 911              		.loc 9 445 13 view .LVU196
 912 015e 4045     		cmp	r0, r8
 913 0160 07D1     		bne	.L31
 914              	.LVL52:
 443:../../libs/PoliTeKDSP/libs/libDaisy/src/hid/disp/display.h ****         {
 915              		.loc 9 443 9 is_stmt 1 view .LVU197
 916 0162 13F8018F 		ldrb	r8, [r3, #1]!	@ zero_extendqisi2
 917              	.LVL53:
 443:../../libs/PoliTeKDSP/libs/libDaisy/src/hid/disp/display.h ****         {
 918              		.loc 9 443 9 is_stmt 0 view .LVU198
 919 0166 0193     		str	r3, [sp, #4]
 920 0168 B8F1000F 		cmp	r8, #0
 921 016c 7FF460AF 		bne	.L54
 922              	.LVL54:
 923              	.L53:
 924              	.LBB577:
 925              	.LBB575:
 402:../../libs/PoliTeKDSP/libs/libDaisy/src/hid/disp/display.h **** 
 926              		.loc 9 402 20 view .LVU199
 927 0170 0020     		movs	r0, #0
 928              	.L31:
 929              	.LBE575:
 930              	.LBE577:
 447:../../libs/PoliTeKDSP/libs/libDaisy/src/hid/disp/display.h ****             {
 448:../../libs/PoliTeKDSP/libs/libDaisy/src/hid/disp/display.h ****                 // Char could not be written
 449:../../libs/PoliTeKDSP/libs/libDaisy/src/hid/disp/display.h ****                 return *str;
 450:../../libs/PoliTeKDSP/libs/libDaisy/src/hid/disp/display.h ****             }
 451:../../libs/PoliTeKDSP/libs/libDaisy/src/hid/disp/display.h **** 
 452:../../libs/PoliTeKDSP/libs/libDaisy/src/hid/disp/display.h ****             // Next char
 453:../../libs/PoliTeKDSP/libs/libDaisy/src/hid/disp/display.h ****             str++;
 454:../../libs/PoliTeKDSP/libs/libDaisy/src/hid/disp/display.h ****         }
 455:../../libs/PoliTeKDSP/libs/libDaisy/src/hid/disp/display.h **** 
 456:../../libs/PoliTeKDSP/libs/libDaisy/src/hid/disp/display.h ****         // Everything ok
 457:../../libs/PoliTeKDSP/libs/libDaisy/src/hid/disp/display.h ****         return *str;
 458:../../libs/PoliTeKDSP/libs/libDaisy/src/hid/disp/display.h ****     }
 931              		.loc 9 458 5 view .LVU200
 932 0172 09B0     		add	sp, sp, #36
 933              		.cfi_remember_state
 934              		.cfi_def_cfa_offset 36
 935              		@ sp needed
 936 0174 BDE8F08F 		pop	{r4, r5, r6, r7, r8, r9, r10, fp, pc}
 937              	.LVL55:
 938              	.L35:
 939              		.cfi_restore_state
 940              	.LBB578:
 941              	.LBB576:
 402:../../libs/PoliTeKDSP/libs/libDaisy/src/hid/disp/display.h **** 
 942              		.loc 9 402 20 view .LVU201
 943 0178 4FF00008 		mov	r8, #0
 944              	.LVL56:
 402:../../libs/PoliTeKDSP/libs/libDaisy/src/hid/disp/display.h **** 
ARM GAS  C:\Users\matte\AppData\Local\Temp\ccrMwnXK.s 			page 43


 945              		.loc 9 402 20 view .LVU202
 946 017c EDE7     		b	.L33
 947              	.LVL57:
 948              	.L68:
 405:../../libs/PoliTeKDSP/libs/libDaisy/src/hid/disp/display.h ****            || Height() < (currentY_ + font.FontHeight))
 949              		.loc 9 405 17 view .LVU203
 950 017e 3046     		mov	r0, r6
 951 0180 9847     		blx	r3
 952              	.LVL58:
 953 0182 62E7     		b	.L34
 954              	.L69:
 406:../../libs/PoliTeKDSP/libs/libDaisy/src/hid/disp/display.h ****         {
 955              		.loc 9 406 21 view .LVU204
 956 0184 3046     		mov	r0, r6
 957 0186 9847     		blx	r3
 958              	.LVL59:
 959 0188 6BE7     		b	.L36
 960              	.LVL60:
 961              	.L73:
 962              	.LBB573:
 963              	.LBB569:
 174:../../libs/PoliTeKDSP/libs/libDaisy/src/hid/disp/display.h ****     }
 964              		.loc 9 174 33 view .LVU205
 965 018a 3046     		mov	r0, r6
 966 018c 9847     		blx	r3
 967              	.LVL61:
 968 018e D8E7     		b	.L50
 969              	.LVL62:
 970              	.L71:
 173:../../libs/PoliTeKDSP/libs/libDaisy/src/hid/disp/display.h ****         currentY_ = (y >= Height()) ? Height() - 1 : y;
 971              		.loc 9 173 32 view .LVU206
 972 0190 3046     		mov	r0, r6
 973 0192 9847     		blx	r3
 974              	.LVL63:
 173:../../libs/PoliTeKDSP/libs/libDaisy/src/hid/disp/display.h ****         currentY_ = (y >= Height()) ? Height() - 1 : y;
 975              		.loc 9 173 44 view .LVU207
 976 0194 3268     		ldr	r2, [r6]
 977 0196 C7E7     		b	.L47
 978              	.LVL64:
 979              	.L37:
 173:../../libs/PoliTeKDSP/libs/libDaisy/src/hid/disp/display.h ****         currentY_ = (y >= Height()) ? Height() - 1 : y;
 980              		.loc 9 173 44 view .LVU208
 981              	.LBE569:
 982              	.LBE573:
 434:../../libs/PoliTeKDSP/libs/libDaisy/src/hid/disp/display.h **** 
 983              		.loc 9 434 19 view .LVU209
 984 0198 B6F804B0 		ldrh	fp, [r6, #4]
 985 019c BBE7     		b	.L39
 986              	.LVL65:
 987              	.L74:
 988              	.LBB574:
 989              	.LBB570:
 174:../../libs/PoliTeKDSP/libs/libDaisy/src/hid/disp/display.h ****     }
 990              		.loc 9 174 45 view .LVU210
 991 019e 3046     		mov	r0, r6
 992 01a0 9847     		blx	r3
 993              	.LVL66:
ARM GAS  C:\Users\matte\AppData\Local\Temp\ccrMwnXK.s 			page 44


 174:../../libs/PoliTeKDSP/libs/libDaisy/src/hid/disp/display.h ****     }
 994              		.loc 9 174 19 view .LVU211
 995 01a2 0138     		subs	r0, r0, #1
 996 01a4 83B2     		uxth	r3, r0
 997 01a6 0293     		str	r3, [sp, #8]
 998              	.LVL67:
 174:../../libs/PoliTeKDSP/libs/libDaisy/src/hid/disp/display.h ****     }
 999              		.loc 9 174 19 view .LVU212
 1000 01a8 D5E7     		b	.L51
 1001              	.LVL68:
 1002              	.L72:
 173:../../libs/PoliTeKDSP/libs/libDaisy/src/hid/disp/display.h ****         currentY_ = (y >= Height()) ? Height() - 1 : y;
 1003              		.loc 9 173 43 view .LVU213
 1004 01aa 3046     		mov	r0, r6
 1005 01ac 9847     		blx	r3
 1006              	.LVL69:
 173:../../libs/PoliTeKDSP/libs/libDaisy/src/hid/disp/display.h ****         currentY_ = (y >= Height()) ? Height() - 1 : y;
 1007              		.loc 9 173 19 view .LVU214
 1008 01ae 0138     		subs	r0, r0, #1
 174:../../libs/PoliTeKDSP/libs/libDaisy/src/hid/disp/display.h ****     }
 1009              		.loc 9 174 34 view .LVU215
 1010 01b0 3268     		ldr	r2, [r6]
 173:../../libs/PoliTeKDSP/libs/libDaisy/src/hid/disp/display.h ****         currentY_ = (y >= Height()) ? Height() - 1 : y;
 1011              		.loc 9 173 19 view .LVU216
 1012 01b2 84B2     		uxth	r4, r0
 1013              	.LVL70:
 173:../../libs/PoliTeKDSP/libs/libDaisy/src/hid/disp/display.h ****         currentY_ = (y >= Height()) ? Height() - 1 : y;
 1014              		.loc 9 173 19 view .LVU217
 1015 01b4 BFE7     		b	.L48
 1016              	.L76:
 1017 01b6 00BF     		.align	2
 1018              	.L75:
 1019 01b8 00000000 		.word	_ZNK5daisy11OledDisplayINS_13SSD130xDriverILj128ELj64ENS_19SSD130xI2CTransportEEEE5WidthEv
 1020 01bc 00000000 		.word	_ZNK5daisy11OledDisplayINS_13SSD130xDriverILj128ELj64ENS_19SSD130xI2CTransportEEEE6HeightEv
 1021              	.LBE570:
 1022              	.LBE574:
 1023              	.LBE576:
 1024              	.LBE578:
 1025              		.cfi_endproc
 1026              	.LFE5454:
 1028              		.section	.text._ZN5daisy25OneBitGraphicsDisplayImplINS_11OledDisplayINS_13SSD130xDriverILj128ELj64
 1029              		.align	1
 1030              		.p2align 2,,3
 1031              		.weak	_ZN5daisy25OneBitGraphicsDisplayImplINS_11OledDisplayINS_13SSD130xDriverILj128ELj64ENS_19SSD
 1032              		.syntax unified
 1033              		.thumb
 1034              		.thumb_func
 1035              		.fpu fpv5-d16
 1037              	_ZN5daisy25OneBitGraphicsDisplayImplINS_11OledDisplayINS_13SSD130xDriverILj128ELj64ENS_19SSD130xI2C
 1038              	.LVL71:
 1039              	.LFB5453:
 396:../../libs/PoliTeKDSP/libs/libDaisy/src/hid/disp/display.h ****     {
 1040              		.loc 9 396 10 is_stmt 1 view -0
 1041              		.cfi_startproc
 1042              		@ args = 4, pretend = 0, frame = 16
 1043              		@ frame_needed = 0, uses_anonymous_args = 0
 396:../../libs/PoliTeKDSP/libs/libDaisy/src/hid/disp/display.h ****     {
ARM GAS  C:\Users\matte\AppData\Local\Temp\ccrMwnXK.s 			page 45


 1044              		.loc 9 396 10 is_stmt 0 view .LVU219
 1045 0000 2DE9F04F 		push	{r4, r5, r6, r7, r8, r9, r10, fp, lr}
 1046              		.cfi_def_cfa_offset 36
 1047              		.cfi_offset 4, -36
 1048              		.cfi_offset 5, -32
 1049              		.cfi_offset 6, -28
 1050              		.cfi_offset 7, -24
 1051              		.cfi_offset 8, -20
 1052              		.cfi_offset 9, -16
 1053              		.cfi_offset 10, -12
 1054              		.cfi_offset 11, -8
 1055              		.cfi_offset 14, -4
 1056 0004 85B0     		sub	sp, sp, #20
 1057              		.cfi_def_cfa_offset 56
 1058              	.LVL72:
 401:../../libs/PoliTeKDSP/libs/libDaisy/src/hid/disp/display.h ****             return 0;
 1059              		.loc 9 401 20 view .LVU220
 1060 0006 A1F12005 		sub	r5, r1, #32
 396:../../libs/PoliTeKDSP/libs/libDaisy/src/hid/disp/display.h ****     {
 1061              		.loc 9 396 10 view .LVU221
 1062 000a 04AC     		add	r4, sp, #16
 1063 000c 9DF83870 		ldrb	r7, [sp, #56]	@ zero_extendqisi2
 1064 0010 0091     		str	r1, [sp]
 1065 0012 04E90C00 		stmdb	r4, {r2, r3}
 1066              	.LVL73:
 401:../../libs/PoliTeKDSP/libs/libDaisy/src/hid/disp/display.h ****             return 0;
 1067              		.loc 9 401 9 view .LVU222
 1068 0016 EBB2     		uxtb	r3, r5
 1069 0018 5E2B     		cmp	r3, #94
 1070 001a 00F29580 		bhi	.L81
 405:../../libs/PoliTeKDSP/libs/libDaisy/src/hid/disp/display.h ****            || Height() < (currentY_ + font.FontHeight))
 1071              		.loc 9 405 17 view .LVU223
 1072 001e 0368     		ldr	r3, [r0]
 1073 0020 8046     		mov	r8, r0
 1074 0022 5D4A     		ldr	r2, .L116
 1075 0024 DB68     		ldr	r3, [r3, #12]
 1076 0026 9DF80840 		ldrb	r4, [sp, #8]	@ zero_extendqisi2
 1077 002a 9342     		cmp	r3, r2
 1078 002c 9DF80960 		ldrb	r6, [sp, #9]	@ zero_extendqisi2
 1079 0030 40F09480 		bne	.L108
 1080 0034 8020     		movs	r0, #128
 1081              	.LVL74:
 1082              	.L80:
 405:../../libs/PoliTeKDSP/libs/libDaisy/src/hid/disp/display.h ****            || Height() < (currentY_ + font.FontHeight))
 1083              		.loc 9 405 23 view .LVU224
 1084 0036 B8F80430 		ldrh	r3, [r8, #4]
 405:../../libs/PoliTeKDSP/libs/libDaisy/src/hid/disp/display.h ****            || Height() < (currentY_ + font.FontHeight))
 1085              		.loc 9 405 33 view .LVU225
 1086 003a 2344     		add	r3, r3, r4
 406:../../libs/PoliTeKDSP/libs/libDaisy/src/hid/disp/display.h ****         {
 1087              		.loc 9 406 12 view .LVU226
 1088 003c 8342     		cmp	r3, r0
 1089 003e 00F38380 		bgt	.L81
 406:../../libs/PoliTeKDSP/libs/libDaisy/src/hid/disp/display.h ****         {
 1090              		.loc 9 406 21 discriminator 2 view .LVU227
 1091 0042 D8F80030 		ldr	r3, [r8]
 1092 0046 554A     		ldr	r2, .L116+4
ARM GAS  C:\Users\matte\AppData\Local\Temp\ccrMwnXK.s 			page 46


 1093 0048 9B68     		ldr	r3, [r3, #8]
 1094 004a 9342     		cmp	r3, r2
 1095 004c 40F08880 		bne	.L109
 406:../../libs/PoliTeKDSP/libs/libDaisy/src/hid/disp/display.h ****         {
 1096              		.loc 9 406 21 view .LVU228
 1097 0050 4020     		movs	r0, #64
 1098              	.L82:
 406:../../libs/PoliTeKDSP/libs/libDaisy/src/hid/disp/display.h ****         {
 1099              		.loc 9 406 27 discriminator 2 view .LVU229
 1100 0052 B8F80620 		ldrh	r2, [r8, #6]
 406:../../libs/PoliTeKDSP/libs/libDaisy/src/hid/disp/display.h ****         {
 1101              		.loc 9 406 37 discriminator 2 view .LVU230
 1102 0056 9319     		adds	r3, r2, r6
 406:../../libs/PoliTeKDSP/libs/libDaisy/src/hid/disp/display.h ****         {
 1103              		.loc 9 406 27 discriminator 2 view .LVU231
 1104 0058 0192     		str	r2, [sp, #4]
 406:../../libs/PoliTeKDSP/libs/libDaisy/src/hid/disp/display.h ****         {
 1105              		.loc 9 406 12 discriminator 2 view .LVU232
 1106 005a 8342     		cmp	r3, r0
 1107 005c 74DC     		bgt	.L81
 1108              	.LVL75:
 413:../../libs/PoliTeKDSP/libs/libDaisy/src/hid/disp/display.h ****         {
 1109              		.loc 9 413 22 is_stmt 1 view .LVU233
 1110 005e 002E     		cmp	r6, #0
 1111 0060 00F08980 		beq	.L83
 415:../../libs/PoliTeKDSP/libs/libDaisy/src/hid/disp/display.h ****             for(j = 0; j < font.FontWidth; j++)
 1112              		.loc 9 415 37 is_stmt 0 view .LVU234
 1113 0064 06FB05F5 		mul	r5, r6, r5
 1114 0068 6FF00040 		mvn	r0, #-2147483648
 415:../../libs/PoliTeKDSP/libs/libDaisy/src/hid/disp/display.h ****             for(j = 0; j < font.FontWidth; j++)
 1115              		.loc 9 415 22 view .LVU235
 1116 006c 039B     		ldr	r3, [sp, #12]
 1117 006e 9646     		mov	lr, r2
 1118 0070 2844     		add	r0, r0, r5
 1119 0072 2E44     		add	r6, r6, r5
 434:../../libs/PoliTeKDSP/libs/libDaisy/src/hid/disp/display.h **** 
 1120              		.loc 9 434 19 view .LVU236
 1121 0074 B8F804A0 		ldrh	r10, [r8, #4]
 1122 0078 03EB4000 		add	r0, r3, r0, lsl #1
 1123 007c 023B     		subs	r3, r3, #2
 1124 007e 03EB460B 		add	fp, r3, r6, lsl #1
 1125              	.LVL76:
 1126              	.L86:
 415:../../libs/PoliTeKDSP/libs/libDaisy/src/hid/disp/display.h ****             for(j = 0; j < font.FontWidth; j++)
 1127              		.loc 9 415 15 view .LVU237
 1128 0082 30F8026F 		ldrh	r6, [r0, #2]!
 1129              	.LVL77:
 416:../../libs/PoliTeKDSP/libs/libDaisy/src/hid/disp/display.h ****             {
 1130              		.loc 9 416 26 is_stmt 1 view .LVU238
 1131 0086 BCB3     		cbz	r4, .L91
 1132              	.LBB609:
 1133              	.LBB610:
 1134              	.LBB611:
 1135              	.LBB612:
 1136              	.LBB613:
 347:../../libs/PoliTeKDSP/libs/libDaisy/src/dev/oled_ssd130x.h ****     }
 1137              		.loc 10 347 55 is_stmt 0 view .LVU239
ARM GAS  C:\Users\matte\AppData\Local\Temp\ccrMwnXK.s 			page 47


 1138 0088 0EF00703 		and	r3, lr, #7
 347:../../libs/PoliTeKDSP/libs/libDaisy/src/dev/oled_ssd130x.h ****     }
 1139              		.loc 10 347 49 view .LVU240
 1140 008c 4FF0010C 		mov	ip, #1
 347:../../libs/PoliTeKDSP/libs/libDaisy/src/dev/oled_ssd130x.h ****     }
 1141              		.loc 10 347 28 view .LVU241
 1142 0090 4FEADE02 		lsr	r2, lr, #3
 1143 0094 5146     		mov	r1, r10
 347:../../libs/PoliTeKDSP/libs/libDaisy/src/dev/oled_ssd130x.h ****     }
 1144              		.loc 10 347 49 view .LVU242
 1145 0096 0CFA03FC 		lsl	ip, ip, r3
 1146 009a 0AF11003 		add	r3, r10, #16
 347:../../libs/PoliTeKDSP/libs/libDaisy/src/dev/oled_ssd130x.h ****     }
 1147              		.loc 10 347 42 view .LVU243
 1148 009e 4FFA8CFC 		sxtb	ip, ip
 1149 00a2 03EBC212 		add	r2, r3, r2, lsl #7
 1150              	.LBE613:
 1151              	.LBE612:
 1152              	.LBE611:
 1153              	.LBE610:
 1154              	.LBE609:
 416:../../libs/PoliTeKDSP/libs/libDaisy/src/hid/disp/display.h ****             {
 1155              		.loc 9 416 19 view .LVU244
 1156 00a6 0023     		movs	r3, #0
 1157              	.LBB631:
 1158              	.LBB626:
 1159              	.LBB621:
 1160              	.LBB617:
 1161              	.LBB614:
 347:../../libs/PoliTeKDSP/libs/libDaisy/src/dev/oled_ssd130x.h ****     }
 1162              		.loc 10 347 42 view .LVU245
 1163 00a8 6FEA0C09 		mvn	r9, ip
 1164 00ac 4244     		add	r2, r2, r8
 1165 00ae 0EE0     		b	.L92
 1166              	.LVL78:
 1167              	.L110:
 347:../../libs/PoliTeKDSP/libs/libDaisy/src/dev/oled_ssd130x.h ****     }
 1168              		.loc 10 347 42 view .LVU246
 1169              	.LBE614:
 1170              	.LBE617:
 1171              	.LBE621:
 1172              	.LBE626:
 1173              	.LBE631:
 1174              	.LBB632:
 1175              	.LBI632:
  42:../../libs/PoliTeKDSP/libs/libDaisy/src/hid/disp/oled_display.h ****     {
 1176              		.loc 8 42 10 is_stmt 1 view .LVU247
 1177              	.LBB633:
 1178              	.LBI633:
 340:../../libs/PoliTeKDSP/libs/libDaisy/src/dev/oled_ssd130x.h ****     {
 1179              		.loc 10 340 10 view .LVU248
 1180              	.LBB634:
 342:../../libs/PoliTeKDSP/libs/libDaisy/src/dev/oled_ssd130x.h ****             return;
 1181              		.loc 10 342 9 is_stmt 0 view .LVU249
 1182 00b0 7F29     		cmp	r1, #127
 1183 00b2 07D8     		bhi	.L88
 1184 00b4 BEF13F0F 		cmp	lr, #63
ARM GAS  C:\Users\matte\AppData\Local\Temp\ccrMwnXK.s 			page 48


 1185 00b8 04D8     		bhi	.L88
 345:../../libs/PoliTeKDSP/libs/libDaisy/src/dev/oled_ssd130x.h ****         else
 1186              		.loc 10 345 42 view .LVU250
 1187 00ba 1578     		ldrb	r5, [r2]	@ zero_extendqisi2
 344:../../libs/PoliTeKDSP/libs/libDaisy/src/dev/oled_ssd130x.h ****             buffer_[x + (y / 8) * width] |= (1 << (y % 8));
 1188              		.loc 10 344 9 view .LVU251
 1189 00bc 9FB1     		cbz	r7, .L90
 1190              	.L107:
 344:../../libs/PoliTeKDSP/libs/libDaisy/src/dev/oled_ssd130x.h ****             buffer_[x + (y / 8) * width] |= (1 << (y % 8));
 1191              		.loc 10 344 9 view .LVU252
 1192              	.LBE634:
 1193              	.LBE633:
 1194              	.LBE632:
 1195              	.LBB635:
 1196              	.LBB627:
 1197              	.LBB622:
 345:../../libs/PoliTeKDSP/libs/libDaisy/src/dev/oled_ssd130x.h ****         else
 1198              		.loc 10 345 42 view .LVU253
 1199 00be 4CEA0505 		orr	r5, ip, r5
 1200 00c2 1570     		strb	r5, [r2]
 1201              	.L88:
 1202              	.LBE622:
 1203              	.LBE627:
 1204              	.LBE635:
 416:../../libs/PoliTeKDSP/libs/libDaisy/src/hid/disp/display.h ****             {
 1205              		.loc 9 416 13 is_stmt 1 discriminator 2 view .LVU254
 1206 00c4 0133     		adds	r3, r3, #1
 1207              	.LVL79:
 416:../../libs/PoliTeKDSP/libs/libDaisy/src/hid/disp/display.h ****             {
 1208              		.loc 9 416 26 discriminator 2 view .LVU255
 1209 00c6 0132     		adds	r2, r2, #1
 1210 00c8 0131     		adds	r1, r1, #1
 1211 00ca 9C42     		cmp	r4, r3
 1212 00cc 14D0     		beq	.L91
 1213              	.LVL80:
 1214              	.L92:
 418:../../libs/PoliTeKDSP/libs/libDaisy/src/hid/disp/display.h ****                 {
 1215              		.loc 9 418 23 is_stmt 0 view .LVU256
 1216 00ce 06FA03F5 		lsl	r5, r6, r3
 418:../../libs/PoliTeKDSP/libs/libDaisy/src/hid/disp/display.h ****                 {
 1217              		.loc 9 418 17 view .LVU257
 1218 00d2 2D04     		lsls	r5, r5, #16
 1219 00d4 ECD4     		bmi	.L110
 1220              	.LVL81:
 1221              	.LBB636:
 1222              	.LBI609:
  42:../../libs/PoliTeKDSP/libs/libDaisy/src/hid/disp/oled_display.h ****     {
 1223              		.loc 8 42 10 is_stmt 1 view .LVU258
 1224              	.LBB628:
 1225              	.LBI610:
 340:../../libs/PoliTeKDSP/libs/libDaisy/src/dev/oled_ssd130x.h ****     {
 1226              		.loc 10 340 10 view .LVU259
 1227              	.LBB623:
 342:../../libs/PoliTeKDSP/libs/libDaisy/src/dev/oled_ssd130x.h ****             return;
 1228              		.loc 10 342 9 is_stmt 0 view .LVU260
 1229 00d6 7F29     		cmp	r1, #127
 1230 00d8 F4D8     		bhi	.L88
ARM GAS  C:\Users\matte\AppData\Local\Temp\ccrMwnXK.s 			page 49


 1231 00da BEF13F0F 		cmp	lr, #63
 1232 00de F1D8     		bhi	.L88
 345:../../libs/PoliTeKDSP/libs/libDaisy/src/dev/oled_ssd130x.h ****         else
 1233              		.loc 10 345 42 view .LVU261
 1234 00e0 1578     		ldrb	r5, [r2]	@ zero_extendqisi2
 344:../../libs/PoliTeKDSP/libs/libDaisy/src/dev/oled_ssd130x.h ****             buffer_[x + (y / 8) * width] |= (1 << (y % 8));
 1235              		.loc 10 344 9 view .LVU262
 1236 00e2 002F     		cmp	r7, #0
 1237 00e4 EBD0     		beq	.L107
 1238              	.L90:
 1239              	.LVL82:
 1240              	.LBB618:
 1241              	.LBI612:
 340:../../libs/PoliTeKDSP/libs/libDaisy/src/dev/oled_ssd130x.h ****     {
 1242              		.loc 10 340 10 is_stmt 1 view .LVU263
 340:../../libs/PoliTeKDSP/libs/libDaisy/src/dev/oled_ssd130x.h ****     {
 1243              		.loc 10 340 10 is_stmt 0 view .LVU264
 1244              	.LBE618:
 1245              	.LBE623:
 1246              	.LBE628:
 1247              	.LBE636:
 416:../../libs/PoliTeKDSP/libs/libDaisy/src/hid/disp/display.h ****             {
 1248              		.loc 9 416 13 view .LVU265
 1249 00e6 0133     		adds	r3, r3, #1
 1250              	.LVL83:
 1251              	.LBB637:
 1252              	.LBB629:
 1253              	.LBB624:
 1254              	.LBB619:
 1255              	.LBB615:
 347:../../libs/PoliTeKDSP/libs/libDaisy/src/dev/oled_ssd130x.h ****     }
 1256              		.loc 10 347 42 view .LVU266
 1257 00e8 09EA0505 		and	r5, r9, r5
 1258              	.LBE615:
 1259              	.LBE619:
 1260              	.LBE624:
 1261              	.LBE629:
 1262              	.LBE637:
 416:../../libs/PoliTeKDSP/libs/libDaisy/src/hid/disp/display.h ****             {
 1263              		.loc 9 416 26 view .LVU267
 1264 00ec 0132     		adds	r2, r2, #1
 1265 00ee 0131     		adds	r1, r1, #1
 1266 00f0 9C42     		cmp	r4, r3
 1267              	.LBB638:
 1268              	.LBB630:
 1269              	.LBB625:
 1270              	.LBB620:
 1271              	.LBB616:
 347:../../libs/PoliTeKDSP/libs/libDaisy/src/dev/oled_ssd130x.h ****     }
 1272              		.loc 10 347 42 view .LVU268
 1273 00f2 02F8015C 		strb	r5, [r2, #-1]
 347:../../libs/PoliTeKDSP/libs/libDaisy/src/dev/oled_ssd130x.h ****     }
 1274              		.loc 10 347 42 view .LVU269
 1275              	.LBE616:
 1276              	.LBE620:
 1277              	.LBE625:
 1278              	.LBE630:
ARM GAS  C:\Users\matte\AppData\Local\Temp\ccrMwnXK.s 			page 50


 1279              	.LBE638:
 416:../../libs/PoliTeKDSP/libs/libDaisy/src/hid/disp/display.h ****             {
 1280              		.loc 9 416 13 is_stmt 1 view .LVU270
 1281              	.LVL84:
 416:../../libs/PoliTeKDSP/libs/libDaisy/src/hid/disp/display.h ****             {
 1282              		.loc 9 416 26 view .LVU271
 1283 00f6 EAD1     		bne	.L92
 1284              	.LVL85:
 1285              	.L91:
 413:../../libs/PoliTeKDSP/libs/libDaisy/src/hid/disp/display.h ****         {
 1286              		.loc 9 413 9 view .LVU272
 413:../../libs/PoliTeKDSP/libs/libDaisy/src/hid/disp/display.h ****         {
 1287              		.loc 9 413 22 view .LVU273
 1288 00f8 5845     		cmp	r0, fp
 1289 00fa 0EF1010E 		add	lr, lr, #1
 1290 00fe C0D1     		bne	.L86
 1291              	.LVL86:
 1292              	.L85:
 1293              	.LBB639:
 1294              	.LBB640:
 173:../../libs/PoliTeKDSP/libs/libDaisy/src/hid/disp/display.h ****         currentY_ = (y >= Height()) ? Height() - 1 : y;
 1295              		.loc 9 173 33 is_stmt 0 view .LVU274
 1296 0100 D8F80030 		ldr	r3, [r8]
 1297              	.LBE640:
 1298              	.LBE639:
 434:../../libs/PoliTeKDSP/libs/libDaisy/src/hid/disp/display.h **** 
 1299              		.loc 9 434 18 view .LVU275
 1300 0104 5444     		add	r4, r4, r10
 1301 0106 2449     		ldr	r1, .L116
 1302              	.LBB646:
 1303              	.LBB641:
 173:../../libs/PoliTeKDSP/libs/libDaisy/src/hid/disp/display.h ****         currentY_ = (y >= Height()) ? Height() - 1 : y;
 1304              		.loc 9 173 33 view .LVU276
 1305 0108 DA68     		ldr	r2, [r3, #12]
 1306              	.LBE641:
 1307              	.LBE646:
 434:../../libs/PoliTeKDSP/libs/libDaisy/src/hid/disp/display.h **** 
 1308              		.loc 9 434 18 view .LVU277
 1309 010a A4B2     		uxth	r4, r4
 1310              	.LVL87:
 1311              	.LBB647:
 1312              	.LBI639:
 171:../../libs/PoliTeKDSP/libs/libDaisy/src/hid/disp/display.h ****     {
 1313              		.loc 9 171 10 is_stmt 1 view .LVU278
 1314              	.LBB642:
 173:../../libs/PoliTeKDSP/libs/libDaisy/src/hid/disp/display.h ****         currentY_ = (y >= Height()) ? Height() - 1 : y;
 1315              		.loc 9 173 9 view .LVU279
 1316 010c 8A42     		cmp	r2, r1
 1317 010e 2DD1     		bne	.L111
 173:../../libs/PoliTeKDSP/libs/libDaisy/src/hid/disp/display.h ****         currentY_ = (y >= Height()) ? Height() - 1 : y;
 1318              		.loc 9 173 33 is_stmt 0 view .LVU280
 1319 0110 8020     		movs	r0, #128
 1320              	.L93:
 173:../../libs/PoliTeKDSP/libs/libDaisy/src/hid/disp/display.h ****         currentY_ = (y >= Height()) ? Height() - 1 : y;
 1321              		.loc 9 173 19 view .LVU281
 1322 0112 8442     		cmp	r4, r0
 1323 0114 1CD2     		bcs	.L112
ARM GAS  C:\Users\matte\AppData\Local\Temp\ccrMwnXK.s 			page 51


 1324              	.LVL88:
 1325              	.L94:
 174:../../libs/PoliTeKDSP/libs/libDaisy/src/hid/disp/display.h ****     }
 1326              		.loc 9 174 34 view .LVU282
 1327 0116 9B68     		ldr	r3, [r3, #8]
 1328 0118 204A     		ldr	r2, .L116+4
 173:../../libs/PoliTeKDSP/libs/libDaisy/src/hid/disp/display.h ****         currentY_ = (y >= Height()) ? Height() - 1 : y;
 1329              		.loc 9 173 19 view .LVU283
 1330 011a A8F80440 		strh	r4, [r8, #4]	@ movhi
 174:../../libs/PoliTeKDSP/libs/libDaisy/src/hid/disp/display.h ****     }
 1331              		.loc 9 174 9 is_stmt 1 view .LVU284
 1332 011e 9342     		cmp	r3, r2
 1333 0120 21D1     		bne	.L113
 174:../../libs/PoliTeKDSP/libs/libDaisy/src/hid/disp/display.h ****     }
 1334              		.loc 9 174 34 is_stmt 0 view .LVU285
 1335 0122 4020     		movs	r0, #64
 1336              	.L96:
 174:../../libs/PoliTeKDSP/libs/libDaisy/src/hid/disp/display.h ****     }
 1337              		.loc 9 174 19 view .LVU286
 1338 0124 019B     		ldr	r3, [sp, #4]
 1339 0126 8342     		cmp	r3, r0
 1340 0128 07D3     		bcc	.L97
 174:../../libs/PoliTeKDSP/libs/libDaisy/src/hid/disp/display.h ****     }
 1341              		.loc 9 174 46 view .LVU287
 1342 012a D8F80030 		ldr	r3, [r8]
 1343 012e 1B4A     		ldr	r2, .L116+4
 1344 0130 9B68     		ldr	r3, [r3, #8]
 1345 0132 9342     		cmp	r3, r2
 1346 0134 29D1     		bne	.L114
 1347 0136 3F23     		movs	r3, #63
 1348 0138 0193     		str	r3, [sp, #4]
 1349              	.LVL89:
 1350              	.L97:
 174:../../libs/PoliTeKDSP/libs/libDaisy/src/hid/disp/display.h ****     }
 1351              		.loc 9 174 19 view .LVU288
 1352 013a DDE90003 		ldrd	r0, r3, [sp]
 1353 013e A8F80630 		strh	r3, [r8, #6]	@ movhi
 1354              	.LVL90:
 174:../../libs/PoliTeKDSP/libs/libDaisy/src/hid/disp/display.h ****     }
 1355              		.loc 9 174 19 view .LVU289
 1356              	.LBE642:
 1357              	.LBE647:
 438:../../libs/PoliTeKDSP/libs/libDaisy/src/hid/disp/display.h **** 
 1358              		.loc 9 438 5 view .LVU290
 1359 0142 05B0     		add	sp, sp, #20
 1360              		.cfi_remember_state
 1361              		.cfi_def_cfa_offset 36
 1362              		@ sp needed
 1363 0144 BDE8F08F 		pop	{r4, r5, r6, r7, r8, r9, r10, fp, pc}
 1364              	.LVL91:
 1365              	.L81:
 1366              		.cfi_restore_state
 402:../../libs/PoliTeKDSP/libs/libDaisy/src/hid/disp/display.h **** 
 1367              		.loc 9 402 20 view .LVU291
 1368 0148 0020     		movs	r0, #0
 438:../../libs/PoliTeKDSP/libs/libDaisy/src/hid/disp/display.h **** 
 1369              		.loc 9 438 5 view .LVU292
ARM GAS  C:\Users\matte\AppData\Local\Temp\ccrMwnXK.s 			page 52


 1370 014a 05B0     		add	sp, sp, #20
 1371              		.cfi_remember_state
 1372              		.cfi_def_cfa_offset 36
 1373              		@ sp needed
 1374 014c BDE8F08F 		pop	{r4, r5, r6, r7, r8, r9, r10, fp, pc}
 1375              	.LVL92:
 1376              	.L112:
 1377              		.cfi_restore_state
 1378              	.LBB648:
 1379              	.LBB643:
 173:../../libs/PoliTeKDSP/libs/libDaisy/src/hid/disp/display.h ****         currentY_ = (y >= Height()) ? Height() - 1 : y;
 1380              		.loc 9 173 44 view .LVU293
 1381 0150 DA68     		ldr	r2, [r3, #12]
 1382 0152 1149     		ldr	r1, .L116
 1383 0154 8A42     		cmp	r2, r1
 1384 0156 11D1     		bne	.L115
 1385 0158 7F24     		movs	r4, #127
 1386              	.LVL93:
 173:../../libs/PoliTeKDSP/libs/libDaisy/src/hid/disp/display.h ****         currentY_ = (y >= Height()) ? Height() - 1 : y;
 1387              		.loc 9 173 44 view .LVU294
 1388 015a DCE7     		b	.L94
 1389              	.LVL94:
 1390              	.L108:
 173:../../libs/PoliTeKDSP/libs/libDaisy/src/hid/disp/display.h ****         currentY_ = (y >= Height()) ? Height() - 1 : y;
 1391              		.loc 9 173 44 view .LVU295
 1392              	.LBE643:
 1393              	.LBE648:
 405:../../libs/PoliTeKDSP/libs/libDaisy/src/hid/disp/display.h ****            || Height() < (currentY_ + font.FontHeight))
 1394              		.loc 9 405 17 view .LVU296
 1395 015c 9847     		blx	r3
 1396              	.LVL95:
 405:../../libs/PoliTeKDSP/libs/libDaisy/src/hid/disp/display.h ****            || Height() < (currentY_ + font.FontHeight))
 1397              		.loc 9 405 17 view .LVU297
 1398 015e 6AE7     		b	.L80
 1399              	.L109:
 406:../../libs/PoliTeKDSP/libs/libDaisy/src/hid/disp/display.h ****         {
 1400              		.loc 9 406 21 discriminator 2 view .LVU298
 1401 0160 4046     		mov	r0, r8
 1402 0162 9847     		blx	r3
 1403              	.LVL96:
 1404 0164 75E7     		b	.L82
 1405              	.LVL97:
 1406              	.L113:
 1407              	.LBB649:
 1408              	.LBB644:
 174:../../libs/PoliTeKDSP/libs/libDaisy/src/hid/disp/display.h ****     }
 1409              		.loc 9 174 33 view .LVU299
 1410 0166 4046     		mov	r0, r8
 1411 0168 9847     		blx	r3
 1412              	.LVL98:
 1413 016a DBE7     		b	.L96
 1414              	.LVL99:
 1415              	.L111:
 173:../../libs/PoliTeKDSP/libs/libDaisy/src/hid/disp/display.h ****         currentY_ = (y >= Height()) ? Height() - 1 : y;
 1416              		.loc 9 173 32 view .LVU300
 1417 016c 4046     		mov	r0, r8
 1418 016e 9047     		blx	r2
ARM GAS  C:\Users\matte\AppData\Local\Temp\ccrMwnXK.s 			page 53


 1419              	.LVL100:
 173:../../libs/PoliTeKDSP/libs/libDaisy/src/hid/disp/display.h ****         currentY_ = (y >= Height()) ? Height() - 1 : y;
 1420              		.loc 9 173 44 view .LVU301
 1421 0170 D8F80030 		ldr	r3, [r8]
 1422 0174 CDE7     		b	.L93
 1423              	.LVL101:
 1424              	.L83:
 173:../../libs/PoliTeKDSP/libs/libDaisy/src/hid/disp/display.h ****         currentY_ = (y >= Height()) ? Height() - 1 : y;
 1425              		.loc 9 173 44 view .LVU302
 1426              	.LBE644:
 1427              	.LBE649:
 434:../../libs/PoliTeKDSP/libs/libDaisy/src/hid/disp/display.h **** 
 1428              		.loc 9 434 19 view .LVU303
 1429 0176 B8F804A0 		ldrh	r10, [r8, #4]
 1430 017a C1E7     		b	.L85
 1431              	.LVL102:
 1432              	.L115:
 1433              	.LBB650:
 1434              	.LBB645:
 173:../../libs/PoliTeKDSP/libs/libDaisy/src/hid/disp/display.h ****         currentY_ = (y >= Height()) ? Height() - 1 : y;
 1435              		.loc 9 173 43 view .LVU304
 1436 017c 4046     		mov	r0, r8
 1437 017e 9047     		blx	r2
 1438              	.LVL103:
 173:../../libs/PoliTeKDSP/libs/libDaisy/src/hid/disp/display.h ****         currentY_ = (y >= Height()) ? Height() - 1 : y;
 1439              		.loc 9 173 19 view .LVU305
 1440 0180 0138     		subs	r0, r0, #1
 174:../../libs/PoliTeKDSP/libs/libDaisy/src/hid/disp/display.h ****     }
 1441              		.loc 9 174 34 view .LVU306
 1442 0182 D8F80030 		ldr	r3, [r8]
 173:../../libs/PoliTeKDSP/libs/libDaisy/src/hid/disp/display.h ****         currentY_ = (y >= Height()) ? Height() - 1 : y;
 1443              		.loc 9 173 19 view .LVU307
 1444 0186 84B2     		uxth	r4, r0
 1445              	.LVL104:
 173:../../libs/PoliTeKDSP/libs/libDaisy/src/hid/disp/display.h ****         currentY_ = (y >= Height()) ? Height() - 1 : y;
 1446              		.loc 9 173 19 view .LVU308
 1447 0188 C5E7     		b	.L94
 1448              	.L114:
 174:../../libs/PoliTeKDSP/libs/libDaisy/src/hid/disp/display.h ****     }
 1449              		.loc 9 174 45 view .LVU309
 1450 018a 4046     		mov	r0, r8
 1451 018c 9847     		blx	r3
 1452              	.LVL105:
 174:../../libs/PoliTeKDSP/libs/libDaisy/src/hid/disp/display.h ****     }
 1453              		.loc 9 174 19 view .LVU310
 1454 018e 0138     		subs	r0, r0, #1
 1455 0190 83B2     		uxth	r3, r0
 1456 0192 0193     		str	r3, [sp, #4]
 1457              	.LVL106:
 174:../../libs/PoliTeKDSP/libs/libDaisy/src/hid/disp/display.h ****     }
 1458              		.loc 9 174 19 view .LVU311
 1459 0194 D1E7     		b	.L97
 1460              	.L117:
 1461 0196 00BF     		.align	2
 1462              	.L116:
 1463 0198 00000000 		.word	_ZNK5daisy11OledDisplayINS_13SSD130xDriverILj128ELj64ENS_19SSD130xI2CTransportEEEE5WidthEv
 1464 019c 00000000 		.word	_ZNK5daisy11OledDisplayINS_13SSD130xDriverILj128ELj64ENS_19SSD130xI2CTransportEEEE6HeightEv
ARM GAS  C:\Users\matte\AppData\Local\Temp\ccrMwnXK.s 			page 54


 1465              	.LBE645:
 1466              	.LBE650:
 1467              		.cfi_endproc
 1468              	.LFE5453:
 1470              		.section	.text._ZN5daisy25OneBitGraphicsDisplayImplINS_11OledDisplayINS_13SSD130xDriverILj128ELj64
 1471              		.align	1
 1472              		.p2align 2,,3
 1473              		.weak	_ZN5daisy25OneBitGraphicsDisplayImplINS_11OledDisplayINS_13SSD130xDriverILj128ELj64ENS_19SSD
 1474              		.syntax unified
 1475              		.thumb
 1476              		.thumb_func
 1477              		.fpu fpv5-d16
 1479              	_ZN5daisy25OneBitGraphicsDisplayImplINS_11OledDisplayINS_13SSD130xDriverILj128ELj64ENS_19SSD130xI2C
 1480              	.LVL107:
 1481              	.LFB5455:
 459:../../libs/PoliTeKDSP/libs/libDaisy/src/hid/disp/display.h **** 
 460:../../libs/PoliTeKDSP/libs/libDaisy/src/hid/disp/display.h ****     Rectangle WriteStringAligned(const char*    str,
 1482              		.loc 9 460 15 is_stmt 1 view -0
 1483              		.cfi_startproc
 1484              		@ args = 12, pretend = 0, frame = 32
 1485              		@ frame_needed = 0, uses_anonymous_args = 0
 1486              		.loc 9 460 15 is_stmt 0 view .LVU313
 1487 0000 2DE9F04F 		push	{r4, r5, r6, r7, r8, r9, r10, fp, lr}
 1488              		.cfi_def_cfa_offset 36
 1489              		.cfi_offset 4, -36
 1490              		.cfi_offset 5, -32
 1491              		.cfi_offset 6, -28
 1492              		.cfi_offset 7, -24
 1493              		.cfi_offset 8, -20
 1494              		.cfi_offset 9, -16
 1495              		.cfi_offset 10, -12
 1496              		.cfi_offset 11, -8
 1497              		.cfi_offset 14, -4
 1498 0004 89B0     		sub	sp, sp, #36
 1499              		.cfi_def_cfa_offset 72
 1500              		.loc 9 460 15 view .LVU314
 1501 0006 1D46     		mov	r5, r3
 1502 0008 8846     		mov	r8, r1
 1503              	.LVL108:
 1504              	.LBB789:
 1505              	.LBI789:
 461:../../libs/PoliTeKDSP/libs/libDaisy/src/hid/disp/display.h ****                                  const FontDef& font,
 462:../../libs/PoliTeKDSP/libs/libDaisy/src/hid/disp/display.h ****                                  Rectangle      boundingBox,
 463:../../libs/PoliTeKDSP/libs/libDaisy/src/hid/disp/display.h ****                                  Alignment      alignment,
 464:../../libs/PoliTeKDSP/libs/libDaisy/src/hid/disp/display.h ****                                  bool           on) override
 465:../../libs/PoliTeKDSP/libs/libDaisy/src/hid/disp/display.h ****     {
 466:../../libs/PoliTeKDSP/libs/libDaisy/src/hid/disp/display.h ****         const auto alignedRect
 467:../../libs/PoliTeKDSP/libs/libDaisy/src/hid/disp/display.h ****             = GetTextRect(str, font).AlignedWithin(boundingBox, alignment);
 468:../../libs/PoliTeKDSP/libs/libDaisy/src/hid/disp/display.h ****         SetCursor(alignedRect.GetX(), alignedRect.GetY());
 469:../../libs/PoliTeKDSP/libs/libDaisy/src/hid/disp/display.h ****         ((ChildType*)(this))->ChildType::WriteString(str, font, on);
 470:../../libs/PoliTeKDSP/libs/libDaisy/src/hid/disp/display.h ****         return alignedRect;
 471:../../libs/PoliTeKDSP/libs/libDaisy/src/hid/disp/display.h ****     }
 472:../../libs/PoliTeKDSP/libs/libDaisy/src/hid/disp/display.h **** 
 473:../../libs/PoliTeKDSP/libs/libDaisy/src/hid/disp/display.h ****   private:
 474:../../libs/PoliTeKDSP/libs/libDaisy/src/hid/disp/display.h ****     uint32_t strlen(const char* string)
 475:../../libs/PoliTeKDSP/libs/libDaisy/src/hid/disp/display.h ****     {
 476:../../libs/PoliTeKDSP/libs/libDaisy/src/hid/disp/display.h ****         uint32_t result = 0;
ARM GAS  C:\Users\matte\AppData\Local\Temp\ccrMwnXK.s 			page 55


 477:../../libs/PoliTeKDSP/libs/libDaisy/src/hid/disp/display.h ****         while(*string++ != '\0')
 478:../../libs/PoliTeKDSP/libs/libDaisy/src/hid/disp/display.h ****             result++;
 479:../../libs/PoliTeKDSP/libs/libDaisy/src/hid/disp/display.h ****         return result;
 480:../../libs/PoliTeKDSP/libs/libDaisy/src/hid/disp/display.h ****     }
 481:../../libs/PoliTeKDSP/libs/libDaisy/src/hid/disp/display.h **** 
 482:../../libs/PoliTeKDSP/libs/libDaisy/src/hid/disp/display.h ****     Rectangle GetTextRect(const char* text, const FontDef& font)
 1506              		.loc 9 482 15 is_stmt 1 view .LVU315
 1507              	.LBB790:
 1508              	.LBB791:
 1509              	.LBI791:
 474:../../libs/PoliTeKDSP/libs/libDaisy/src/hid/disp/display.h ****     {
 1510              		.loc 9 474 14 view .LVU316
 1511              	.LBB792:
 477:../../libs/PoliTeKDSP/libs/libDaisy/src/hid/disp/display.h ****             result++;
 1512              		.loc 9 477 25 view .LVU317
 1513              	.LBE792:
 1514              	.LBE791:
 1515              	.LBE790:
 1516              	.LBE789:
 460:../../libs/PoliTeKDSP/libs/libDaisy/src/hid/disp/display.h ****                                  const FontDef& font,
 1517              		.loc 9 460 15 is_stmt 0 view .LVU318
 1518 000a 0690     		str	r0, [sp, #24]
 1519              	.LBB807:
 1520              	.LBB803:
 1521              	.LBB796:
 1522              	.LBB793:
 477:../../libs/PoliTeKDSP/libs/libDaisy/src/hid/disp/display.h ****             result++;
 1523              		.loc 9 477 25 view .LVU319
 1524 000c 1046     		mov	r0, r2
 1525              	.LVL109:
 477:../../libs/PoliTeKDSP/libs/libDaisy/src/hid/disp/display.h ****             result++;
 1526              		.loc 9 477 25 view .LVU320
 1527              	.LBE793:
 1528              	.LBE796:
 1529              	.LBE803:
 1530              	.LBE807:
 460:../../libs/PoliTeKDSP/libs/libDaisy/src/hid/disp/display.h ****                                  const FontDef& font,
 1531              		.loc 9 460 15 view .LVU321
 1532 000e 129C     		ldr	r4, [sp, #72]
 1533              	.LBB808:
 1534              	.LBB804:
 1535              	.LBB797:
 1536              	.LBB794:
 477:../../libs/PoliTeKDSP/libs/libDaisy/src/hid/disp/display.h ****             result++;
 1537              		.loc 9 477 25 view .LVU322
 1538 0010 10F8013B 		ldrb	r3, [r0], #1	@ zero_extendqisi2
 1539              	.LVL110:
 477:../../libs/PoliTeKDSP/libs/libDaisy/src/hid/disp/display.h ****             result++;
 1540              		.loc 9 477 25 view .LVU323
 1541              	.LBE794:
 1542              	.LBE797:
 1543              	.LBE804:
 1544              	.LBE808:
 460:../../libs/PoliTeKDSP/libs/libDaisy/src/hid/disp/display.h ****                                  const FontDef& font,
 1545              		.loc 9 460 15 view .LVU324
 1546 0014 1399     		ldr	r1, [sp, #76]
 1547              	.LVL111:
ARM GAS  C:\Users\matte\AppData\Local\Temp\ccrMwnXK.s 			page 56


 460:../../libs/PoliTeKDSP/libs/libDaisy/src/hid/disp/display.h ****                                  const FontDef& font,
 1548              		.loc 9 460 15 view .LVU325
 1549 0016 9DF85060 		ldrb	r6, [sp, #80]	@ zero_extendqisi2
 1550 001a 0092     		str	r2, [sp]
 1551              	.LBB809:
 1552              	.LBB805:
 1553              	.LBB798:
 1554              	.LBB795:
 477:../../libs/PoliTeKDSP/libs/libDaisy/src/hid/disp/display.h ****             result++;
 1555              		.loc 9 477 25 view .LVU326
 1556 001c 33B1     		cbz	r3, .L119
 476:../../libs/PoliTeKDSP/libs/libDaisy/src/hid/disp/display.h ****         while(*string++ != '\0')
 1557              		.loc 9 476 18 view .LVU327
 1558 001e 0022     		movs	r2, #0
 1559              	.LVL112:
 1560              	.L120:
 477:../../libs/PoliTeKDSP/libs/libDaisy/src/hid/disp/display.h ****             result++;
 1561              		.loc 9 477 25 view .LVU328
 1562 0020 10F8013B 		ldrb	r3, [r0], #1	@ zero_extendqisi2
 1563              	.LVL113:
 478:../../libs/PoliTeKDSP/libs/libDaisy/src/hid/disp/display.h ****         return result;
 1564              		.loc 9 478 13 view .LVU329
 1565 0024 0132     		adds	r2, r2, #1
 1566              	.LVL114:
 477:../../libs/PoliTeKDSP/libs/libDaisy/src/hid/disp/display.h ****             result++;
 1567              		.loc 9 477 25 is_stmt 1 view .LVU330
 1568 0026 002B     		cmp	r3, #0
 1569 0028 FAD1     		bne	.L120
 1570              	.LBE795:
 1571              	.LBE798:
 483:../../libs/PoliTeKDSP/libs/libDaisy/src/hid/disp/display.h ****     {
 484:../../libs/PoliTeKDSP/libs/libDaisy/src/hid/disp/display.h ****         const auto numChars = strlen(text);
 485:../../libs/PoliTeKDSP/libs/libDaisy/src/hid/disp/display.h ****         return {int16_t(numChars * font.FontWidth), font.FontHeight};
 1572              		.loc 9 485 68 is_stmt 0 view .LVU331
 1573 002a 93B2     		uxth	r3, r2
 1574              	.LVL115:
 1575              	.L119:
 1576              		.loc 9 485 68 view .LVU332
 1577 002c 2A78     		ldrb	r2, [r5]	@ zero_extendqisi2
 1578              		.loc 9 485 58 view .LVU333
 1579 002e 6878     		ldrb	r0, [r5, #1]	@ zero_extendqisi2
 1580              		.loc 9 485 68 view .LVU334
 1581 0030 12FB03F3 		smulbb	r3, r2, r3
 1582 0034 02B2     		sxth	r2, r0
 1583              	.LVL116:
 1584              	.LBB799:
 1585              	.LBI799:
 1586              		.file 12 "../../libs/PoliTeKDSP/libs/libDaisy/src/hid/disp/graphics_common.h"
   1:../../libs/PoliTeKDSP/libs/libDaisy/src/hid/disp/graphics_common.h **** #pragma once
   2:../../libs/PoliTeKDSP/libs/libDaisy/src/hid/disp/graphics_common.h **** 
   3:../../libs/PoliTeKDSP/libs/libDaisy/src/hid/disp/graphics_common.h **** #include <cstdint>
   4:../../libs/PoliTeKDSP/libs/libDaisy/src/hid/disp/graphics_common.h **** 
   5:../../libs/PoliTeKDSP/libs/libDaisy/src/hid/disp/graphics_common.h **** namespace daisy
   6:../../libs/PoliTeKDSP/libs/libDaisy/src/hid/disp/graphics_common.h **** {
   7:../../libs/PoliTeKDSP/libs/libDaisy/src/hid/disp/graphics_common.h **** /** Justifications */
   8:../../libs/PoliTeKDSP/libs/libDaisy/src/hid/disp/graphics_common.h **** enum class Alignment
   9:../../libs/PoliTeKDSP/libs/libDaisy/src/hid/disp/graphics_common.h **** {
ARM GAS  C:\Users\matte\AppData\Local\Temp\ccrMwnXK.s 			page 57


  10:../../libs/PoliTeKDSP/libs/libDaisy/src/hid/disp/graphics_common.h ****     centered,
  11:../../libs/PoliTeKDSP/libs/libDaisy/src/hid/disp/graphics_common.h ****     topLeft,
  12:../../libs/PoliTeKDSP/libs/libDaisy/src/hid/disp/graphics_common.h ****     topCentered,
  13:../../libs/PoliTeKDSP/libs/libDaisy/src/hid/disp/graphics_common.h ****     topRight,
  14:../../libs/PoliTeKDSP/libs/libDaisy/src/hid/disp/graphics_common.h ****     bottomLeft,
  15:../../libs/PoliTeKDSP/libs/libDaisy/src/hid/disp/graphics_common.h ****     bottomCentered,
  16:../../libs/PoliTeKDSP/libs/libDaisy/src/hid/disp/graphics_common.h ****     bottomRight,
  17:../../libs/PoliTeKDSP/libs/libDaisy/src/hid/disp/graphics_common.h ****     centeredLeft,
  18:../../libs/PoliTeKDSP/libs/libDaisy/src/hid/disp/graphics_common.h ****     centeredRight
  19:../../libs/PoliTeKDSP/libs/libDaisy/src/hid/disp/graphics_common.h **** };
  20:../../libs/PoliTeKDSP/libs/libDaisy/src/hid/disp/graphics_common.h **** 
  21:../../libs/PoliTeKDSP/libs/libDaisy/src/hid/disp/graphics_common.h **** class Rectangle
  22:../../libs/PoliTeKDSP/libs/libDaisy/src/hid/disp/graphics_common.h **** {
  23:../../libs/PoliTeKDSP/libs/libDaisy/src/hid/disp/graphics_common.h ****   public:
  24:../../libs/PoliTeKDSP/libs/libDaisy/src/hid/disp/graphics_common.h ****     Rectangle() : x_(0), y_(0), width_(0), height_(0) {}
  25:../../libs/PoliTeKDSP/libs/libDaisy/src/hid/disp/graphics_common.h **** 
  26:../../libs/PoliTeKDSP/libs/libDaisy/src/hid/disp/graphics_common.h ****     Rectangle(int16_t width, int16_t height)
 1587              		.loc 12 26 5 is_stmt 1 view .LVU335
 1588              	.LBB800:
 1589              	.LBI800:
  27:../../libs/PoliTeKDSP/libs/libDaisy/src/hid/disp/graphics_common.h ****     : x_(0), y_(0), width_(max(0, width)), height_(max(0, height))
  28:../../libs/PoliTeKDSP/libs/libDaisy/src/hid/disp/graphics_common.h ****     {
  29:../../libs/PoliTeKDSP/libs/libDaisy/src/hid/disp/graphics_common.h ****     }
  30:../../libs/PoliTeKDSP/libs/libDaisy/src/hid/disp/graphics_common.h **** 
  31:../../libs/PoliTeKDSP/libs/libDaisy/src/hid/disp/graphics_common.h ****     Rectangle(int16_t x, int16_t y, int16_t width, int16_t height)
  32:../../libs/PoliTeKDSP/libs/libDaisy/src/hid/disp/graphics_common.h ****     : x_(x), y_(y), width_(max(0, width)), height_(max(0, height))
  33:../../libs/PoliTeKDSP/libs/libDaisy/src/hid/disp/graphics_common.h ****     {
  34:../../libs/PoliTeKDSP/libs/libDaisy/src/hid/disp/graphics_common.h ****     }
  35:../../libs/PoliTeKDSP/libs/libDaisy/src/hid/disp/graphics_common.h **** 
  36:../../libs/PoliTeKDSP/libs/libDaisy/src/hid/disp/graphics_common.h ****     Rectangle(const Rectangle& other) { *this = other; }
  37:../../libs/PoliTeKDSP/libs/libDaisy/src/hid/disp/graphics_common.h **** 
  38:../../libs/PoliTeKDSP/libs/libDaisy/src/hid/disp/graphics_common.h ****     Rectangle& operator=(const Rectangle& other)
  39:../../libs/PoliTeKDSP/libs/libDaisy/src/hid/disp/graphics_common.h ****     {
  40:../../libs/PoliTeKDSP/libs/libDaisy/src/hid/disp/graphics_common.h ****         x_      = other.x_;
  41:../../libs/PoliTeKDSP/libs/libDaisy/src/hid/disp/graphics_common.h ****         y_      = other.y_;
  42:../../libs/PoliTeKDSP/libs/libDaisy/src/hid/disp/graphics_common.h ****         width_  = other.width_;
  43:../../libs/PoliTeKDSP/libs/libDaisy/src/hid/disp/graphics_common.h ****         height_ = other.height_;
  44:../../libs/PoliTeKDSP/libs/libDaisy/src/hid/disp/graphics_common.h ****         return *this;
  45:../../libs/PoliTeKDSP/libs/libDaisy/src/hid/disp/graphics_common.h ****     }
  46:../../libs/PoliTeKDSP/libs/libDaisy/src/hid/disp/graphics_common.h **** 
  47:../../libs/PoliTeKDSP/libs/libDaisy/src/hid/disp/graphics_common.h ****     bool operator==(const Rectangle& other) const
  48:../../libs/PoliTeKDSP/libs/libDaisy/src/hid/disp/graphics_common.h ****     {
  49:../../libs/PoliTeKDSP/libs/libDaisy/src/hid/disp/graphics_common.h ****         return (x_ == other.x_) && (y_ == other.y_) && (width_ == other.width_)
  50:../../libs/PoliTeKDSP/libs/libDaisy/src/hid/disp/graphics_common.h ****                && (height_ == other.height_);
  51:../../libs/PoliTeKDSP/libs/libDaisy/src/hid/disp/graphics_common.h ****     }
  52:../../libs/PoliTeKDSP/libs/libDaisy/src/hid/disp/graphics_common.h ****     bool operator!=(const Rectangle& other) const { return !(*this == other); }
  53:../../libs/PoliTeKDSP/libs/libDaisy/src/hid/disp/graphics_common.h **** 
  54:../../libs/PoliTeKDSP/libs/libDaisy/src/hid/disp/graphics_common.h ****     bool IsEmpty() const { return (width_ <= 0) || (height_ <= 0); }
  55:../../libs/PoliTeKDSP/libs/libDaisy/src/hid/disp/graphics_common.h **** 
  56:../../libs/PoliTeKDSP/libs/libDaisy/src/hid/disp/graphics_common.h ****     int16_t GetX() const { return x_; }
  57:../../libs/PoliTeKDSP/libs/libDaisy/src/hid/disp/graphics_common.h ****     int16_t GetY() const { return y_; }
  58:../../libs/PoliTeKDSP/libs/libDaisy/src/hid/disp/graphics_common.h ****     int16_t GetWidth() const { return width_; }
  59:../../libs/PoliTeKDSP/libs/libDaisy/src/hid/disp/graphics_common.h ****     int16_t GetHeight() const { return height_; }
  60:../../libs/PoliTeKDSP/libs/libDaisy/src/hid/disp/graphics_common.h ****     int16_t GetRight() const { return x_ + width_; }
  61:../../libs/PoliTeKDSP/libs/libDaisy/src/hid/disp/graphics_common.h ****     int16_t GetBottom() const { return y_ + height_; }
  62:../../libs/PoliTeKDSP/libs/libDaisy/src/hid/disp/graphics_common.h ****     int16_t GetCenterX() const { return x_ + width_ / 2; }
  63:../../libs/PoliTeKDSP/libs/libDaisy/src/hid/disp/graphics_common.h ****     int16_t GetCenterY() const { return y_ + height_ / 2; }
ARM GAS  C:\Users\matte\AppData\Local\Temp\ccrMwnXK.s 			page 58


  64:../../libs/PoliTeKDSP/libs/libDaisy/src/hid/disp/graphics_common.h **** 
  65:../../libs/PoliTeKDSP/libs/libDaisy/src/hid/disp/graphics_common.h ****     Rectangle WithX(int16_t x) const { return {x, y_, width_, height_}; }
  66:../../libs/PoliTeKDSP/libs/libDaisy/src/hid/disp/graphics_common.h ****     Rectangle WithY(int16_t y) const { return {x_, y, width_, height_}; }
  67:../../libs/PoliTeKDSP/libs/libDaisy/src/hid/disp/graphics_common.h ****     Rectangle WithWidth(int16_t width) const
  68:../../libs/PoliTeKDSP/libs/libDaisy/src/hid/disp/graphics_common.h ****     {
  69:../../libs/PoliTeKDSP/libs/libDaisy/src/hid/disp/graphics_common.h ****         return {x_, y_, width, height_};
  70:../../libs/PoliTeKDSP/libs/libDaisy/src/hid/disp/graphics_common.h ****     }
  71:../../libs/PoliTeKDSP/libs/libDaisy/src/hid/disp/graphics_common.h ****     Rectangle WithHeight(int16_t height) const
  72:../../libs/PoliTeKDSP/libs/libDaisy/src/hid/disp/graphics_common.h ****     {
  73:../../libs/PoliTeKDSP/libs/libDaisy/src/hid/disp/graphics_common.h ****         return {x_, y_, width_, height};
  74:../../libs/PoliTeKDSP/libs/libDaisy/src/hid/disp/graphics_common.h ****     }
  75:../../libs/PoliTeKDSP/libs/libDaisy/src/hid/disp/graphics_common.h ****     Rectangle WithSize(int16_t width, int16_t height) const
  76:../../libs/PoliTeKDSP/libs/libDaisy/src/hid/disp/graphics_common.h ****     {
  77:../../libs/PoliTeKDSP/libs/libDaisy/src/hid/disp/graphics_common.h ****         return {x_, y_, width, height};
  78:../../libs/PoliTeKDSP/libs/libDaisy/src/hid/disp/graphics_common.h ****     }
  79:../../libs/PoliTeKDSP/libs/libDaisy/src/hid/disp/graphics_common.h ****     Rectangle WithWidthKeepingCenter(int16_t width) const
  80:../../libs/PoliTeKDSP/libs/libDaisy/src/hid/disp/graphics_common.h ****     {
  81:../../libs/PoliTeKDSP/libs/libDaisy/src/hid/disp/graphics_common.h ****         return Rectangle(x_, y_, width, height_)
  82:../../libs/PoliTeKDSP/libs/libDaisy/src/hid/disp/graphics_common.h ****             .WithCenter(GetCenterX(), GetCenterY());
  83:../../libs/PoliTeKDSP/libs/libDaisy/src/hid/disp/graphics_common.h ****     }
  84:../../libs/PoliTeKDSP/libs/libDaisy/src/hid/disp/graphics_common.h ****     Rectangle WithHeightKeepingCenter(int16_t height) const
  85:../../libs/PoliTeKDSP/libs/libDaisy/src/hid/disp/graphics_common.h ****     {
  86:../../libs/PoliTeKDSP/libs/libDaisy/src/hid/disp/graphics_common.h ****         return Rectangle(x_, y_, width_, height)
  87:../../libs/PoliTeKDSP/libs/libDaisy/src/hid/disp/graphics_common.h ****             .WithCenter(GetCenterX(), GetCenterY());
  88:../../libs/PoliTeKDSP/libs/libDaisy/src/hid/disp/graphics_common.h ****     }
  89:../../libs/PoliTeKDSP/libs/libDaisy/src/hid/disp/graphics_common.h ****     Rectangle WithSizeKeepingCenter(int16_t width, int16_t height) const
  90:../../libs/PoliTeKDSP/libs/libDaisy/src/hid/disp/graphics_common.h ****     {
  91:../../libs/PoliTeKDSP/libs/libDaisy/src/hid/disp/graphics_common.h ****         return Rectangle(x_, y_, width, height)
  92:../../libs/PoliTeKDSP/libs/libDaisy/src/hid/disp/graphics_common.h ****             .WithCenter(GetCenterX(), GetCenterY());
  93:../../libs/PoliTeKDSP/libs/libDaisy/src/hid/disp/graphics_common.h ****     }
  94:../../libs/PoliTeKDSP/libs/libDaisy/src/hid/disp/graphics_common.h **** 
  95:../../libs/PoliTeKDSP/libs/libDaisy/src/hid/disp/graphics_common.h ****     Rectangle Reduced(int16_t sizeToReduce) const
  96:../../libs/PoliTeKDSP/libs/libDaisy/src/hid/disp/graphics_common.h ****     {
  97:../../libs/PoliTeKDSP/libs/libDaisy/src/hid/disp/graphics_common.h ****         return {int16_t(x_ + sizeToReduce),
  98:../../libs/PoliTeKDSP/libs/libDaisy/src/hid/disp/graphics_common.h ****                 int16_t(y_ + sizeToReduce),
  99:../../libs/PoliTeKDSP/libs/libDaisy/src/hid/disp/graphics_common.h ****                 int16_t(width_ - 2 * sizeToReduce),
 100:../../libs/PoliTeKDSP/libs/libDaisy/src/hid/disp/graphics_common.h ****                 int16_t(height_ - 2 * sizeToReduce)};
 101:../../libs/PoliTeKDSP/libs/libDaisy/src/hid/disp/graphics_common.h ****     }
 102:../../libs/PoliTeKDSP/libs/libDaisy/src/hid/disp/graphics_common.h ****     Rectangle Reduced(int16_t xToReduce, int16_t yToReduce) const
 103:../../libs/PoliTeKDSP/libs/libDaisy/src/hid/disp/graphics_common.h ****     {
 104:../../libs/PoliTeKDSP/libs/libDaisy/src/hid/disp/graphics_common.h ****         return {int16_t(x_ + xToReduce),
 105:../../libs/PoliTeKDSP/libs/libDaisy/src/hid/disp/graphics_common.h ****                 int16_t(y_ + yToReduce),
 106:../../libs/PoliTeKDSP/libs/libDaisy/src/hid/disp/graphics_common.h ****                 int16_t(width_ - 2 * xToReduce),
 107:../../libs/PoliTeKDSP/libs/libDaisy/src/hid/disp/graphics_common.h ****                 int16_t(height_ - 2 * yToReduce)};
 108:../../libs/PoliTeKDSP/libs/libDaisy/src/hid/disp/graphics_common.h ****     }
 109:../../libs/PoliTeKDSP/libs/libDaisy/src/hid/disp/graphics_common.h **** 
 110:../../libs/PoliTeKDSP/libs/libDaisy/src/hid/disp/graphics_common.h ****     Rectangle Translated(int16_t x, int16_t y) const
 111:../../libs/PoliTeKDSP/libs/libDaisy/src/hid/disp/graphics_common.h ****     {
 112:../../libs/PoliTeKDSP/libs/libDaisy/src/hid/disp/graphics_common.h ****         return {int16_t(x_ + x), int16_t(y_ + y), width_, height_};
 113:../../libs/PoliTeKDSP/libs/libDaisy/src/hid/disp/graphics_common.h ****     }
 114:../../libs/PoliTeKDSP/libs/libDaisy/src/hid/disp/graphics_common.h **** 
 115:../../libs/PoliTeKDSP/libs/libDaisy/src/hid/disp/graphics_common.h ****     Rectangle WithLeft(int16_t left) const
 116:../../libs/PoliTeKDSP/libs/libDaisy/src/hid/disp/graphics_common.h ****     {
 117:../../libs/PoliTeKDSP/libs/libDaisy/src/hid/disp/graphics_common.h ****         const auto newWidth = int16_t((x_ - left) + width_);
 118:../../libs/PoliTeKDSP/libs/libDaisy/src/hid/disp/graphics_common.h ****         return {left, y_, newWidth, height_};
 119:../../libs/PoliTeKDSP/libs/libDaisy/src/hid/disp/graphics_common.h ****     }
 120:../../libs/PoliTeKDSP/libs/libDaisy/src/hid/disp/graphics_common.h **** 
ARM GAS  C:\Users\matte\AppData\Local\Temp\ccrMwnXK.s 			page 59


 121:../../libs/PoliTeKDSP/libs/libDaisy/src/hid/disp/graphics_common.h ****     Rectangle WithRight(int16_t right) const
 122:../../libs/PoliTeKDSP/libs/libDaisy/src/hid/disp/graphics_common.h ****     {
 123:../../libs/PoliTeKDSP/libs/libDaisy/src/hid/disp/graphics_common.h ****         const auto newWidth = int16_t(right - x_);
 124:../../libs/PoliTeKDSP/libs/libDaisy/src/hid/disp/graphics_common.h ****         return {x_, y_, newWidth, height_};
 125:../../libs/PoliTeKDSP/libs/libDaisy/src/hid/disp/graphics_common.h ****     }
 126:../../libs/PoliTeKDSP/libs/libDaisy/src/hid/disp/graphics_common.h **** 
 127:../../libs/PoliTeKDSP/libs/libDaisy/src/hid/disp/graphics_common.h ****     Rectangle WithTop(int16_t top) const
 128:../../libs/PoliTeKDSP/libs/libDaisy/src/hid/disp/graphics_common.h ****     {
 129:../../libs/PoliTeKDSP/libs/libDaisy/src/hid/disp/graphics_common.h ****         const auto newHeight = int16_t((y_ - top) + height_);
 130:../../libs/PoliTeKDSP/libs/libDaisy/src/hid/disp/graphics_common.h ****         return {x_, top, width_, newHeight};
 131:../../libs/PoliTeKDSP/libs/libDaisy/src/hid/disp/graphics_common.h ****     }
 132:../../libs/PoliTeKDSP/libs/libDaisy/src/hid/disp/graphics_common.h **** 
 133:../../libs/PoliTeKDSP/libs/libDaisy/src/hid/disp/graphics_common.h ****     Rectangle WithBottom(int16_t bottom) const
 134:../../libs/PoliTeKDSP/libs/libDaisy/src/hid/disp/graphics_common.h ****     {
 135:../../libs/PoliTeKDSP/libs/libDaisy/src/hid/disp/graphics_common.h ****         const auto newHeight = int16_t(bottom - y_);
 136:../../libs/PoliTeKDSP/libs/libDaisy/src/hid/disp/graphics_common.h ****         return {x_, y_, width_, newHeight};
 137:../../libs/PoliTeKDSP/libs/libDaisy/src/hid/disp/graphics_common.h ****     }
 138:../../libs/PoliTeKDSP/libs/libDaisy/src/hid/disp/graphics_common.h **** 
 139:../../libs/PoliTeKDSP/libs/libDaisy/src/hid/disp/graphics_common.h ****     Rectangle WithTrimmedLeft(int16_t pxToTrim) const
 140:../../libs/PoliTeKDSP/libs/libDaisy/src/hid/disp/graphics_common.h ****     {
 141:../../libs/PoliTeKDSP/libs/libDaisy/src/hid/disp/graphics_common.h ****         return {
 142:../../libs/PoliTeKDSP/libs/libDaisy/src/hid/disp/graphics_common.h ****             int16_t(x_ + pxToTrim), y_, int16_t(width_ - pxToTrim), height_};
 143:../../libs/PoliTeKDSP/libs/libDaisy/src/hid/disp/graphics_common.h ****     }
 144:../../libs/PoliTeKDSP/libs/libDaisy/src/hid/disp/graphics_common.h **** 
 145:../../libs/PoliTeKDSP/libs/libDaisy/src/hid/disp/graphics_common.h ****     Rectangle WithTrimmedRight(int16_t pxToTrim) const
 146:../../libs/PoliTeKDSP/libs/libDaisy/src/hid/disp/graphics_common.h ****     {
 147:../../libs/PoliTeKDSP/libs/libDaisy/src/hid/disp/graphics_common.h ****         return {x_, y_, int16_t(width_ - pxToTrim), height_};
 148:../../libs/PoliTeKDSP/libs/libDaisy/src/hid/disp/graphics_common.h ****     }
 149:../../libs/PoliTeKDSP/libs/libDaisy/src/hid/disp/graphics_common.h **** 
 150:../../libs/PoliTeKDSP/libs/libDaisy/src/hid/disp/graphics_common.h ****     Rectangle WithTrimmedTop(int16_t pxToTrim) const
 151:../../libs/PoliTeKDSP/libs/libDaisy/src/hid/disp/graphics_common.h ****     {
 152:../../libs/PoliTeKDSP/libs/libDaisy/src/hid/disp/graphics_common.h ****         return {
 153:../../libs/PoliTeKDSP/libs/libDaisy/src/hid/disp/graphics_common.h ****             x_, int16_t(y_ + pxToTrim), width_, int16_t(height_ - pxToTrim)};
 154:../../libs/PoliTeKDSP/libs/libDaisy/src/hid/disp/graphics_common.h ****     }
 155:../../libs/PoliTeKDSP/libs/libDaisy/src/hid/disp/graphics_common.h **** 
 156:../../libs/PoliTeKDSP/libs/libDaisy/src/hid/disp/graphics_common.h ****     Rectangle WithTrimmedBottom(int16_t pxToTrim) const
 157:../../libs/PoliTeKDSP/libs/libDaisy/src/hid/disp/graphics_common.h ****     {
 158:../../libs/PoliTeKDSP/libs/libDaisy/src/hid/disp/graphics_common.h ****         return {x_, y_, width_, int16_t(height_ - pxToTrim)};
 159:../../libs/PoliTeKDSP/libs/libDaisy/src/hid/disp/graphics_common.h ****     }
 160:../../libs/PoliTeKDSP/libs/libDaisy/src/hid/disp/graphics_common.h **** 
 161:../../libs/PoliTeKDSP/libs/libDaisy/src/hid/disp/graphics_common.h ****     Rectangle WithCenterX(int16_t centerX) const
 162:../../libs/PoliTeKDSP/libs/libDaisy/src/hid/disp/graphics_common.h ****     {
 163:../../libs/PoliTeKDSP/libs/libDaisy/src/hid/disp/graphics_common.h ****         return {int16_t(x_ + centerX - GetCenterX()), y_, width_, height_};
 164:../../libs/PoliTeKDSP/libs/libDaisy/src/hid/disp/graphics_common.h ****     }
 165:../../libs/PoliTeKDSP/libs/libDaisy/src/hid/disp/graphics_common.h **** 
 166:../../libs/PoliTeKDSP/libs/libDaisy/src/hid/disp/graphics_common.h ****     Rectangle WithCenterY(int16_t centerY) const
 167:../../libs/PoliTeKDSP/libs/libDaisy/src/hid/disp/graphics_common.h ****     {
 168:../../libs/PoliTeKDSP/libs/libDaisy/src/hid/disp/graphics_common.h ****         return {x_, int16_t(y_ + centerY - GetCenterY()), width_, height_};
 169:../../libs/PoliTeKDSP/libs/libDaisy/src/hid/disp/graphics_common.h ****     }
 170:../../libs/PoliTeKDSP/libs/libDaisy/src/hid/disp/graphics_common.h **** 
 171:../../libs/PoliTeKDSP/libs/libDaisy/src/hid/disp/graphics_common.h ****     Rectangle WithCenter(int16_t centerX, int16_t centerY) const
 172:../../libs/PoliTeKDSP/libs/libDaisy/src/hid/disp/graphics_common.h ****     {
 173:../../libs/PoliTeKDSP/libs/libDaisy/src/hid/disp/graphics_common.h ****         return {int16_t(x_ + centerX - GetCenterX()),
 174:../../libs/PoliTeKDSP/libs/libDaisy/src/hid/disp/graphics_common.h ****                 int16_t(y_ + centerY - GetCenterY()),
 175:../../libs/PoliTeKDSP/libs/libDaisy/src/hid/disp/graphics_common.h ****                 width_,
 176:../../libs/PoliTeKDSP/libs/libDaisy/src/hid/disp/graphics_common.h ****                 height_};
 177:../../libs/PoliTeKDSP/libs/libDaisy/src/hid/disp/graphics_common.h ****     }
ARM GAS  C:\Users\matte\AppData\Local\Temp\ccrMwnXK.s 			page 60


 178:../../libs/PoliTeKDSP/libs/libDaisy/src/hid/disp/graphics_common.h **** 
 179:../../libs/PoliTeKDSP/libs/libDaisy/src/hid/disp/graphics_common.h ****     Rectangle RemoveFromLeft(int16_t pxToRemove)
 180:../../libs/PoliTeKDSP/libs/libDaisy/src/hid/disp/graphics_common.h ****     {
 181:../../libs/PoliTeKDSP/libs/libDaisy/src/hid/disp/graphics_common.h ****         const auto result = this->WithWidth(min(pxToRemove, width_));
 182:../../libs/PoliTeKDSP/libs/libDaisy/src/hid/disp/graphics_common.h ****         x_ += min(pxToRemove, width_);
 183:../../libs/PoliTeKDSP/libs/libDaisy/src/hid/disp/graphics_common.h ****         width_ = max(int16_t(width_ - pxToRemove), 0);
 184:../../libs/PoliTeKDSP/libs/libDaisy/src/hid/disp/graphics_common.h ****         return result;
 185:../../libs/PoliTeKDSP/libs/libDaisy/src/hid/disp/graphics_common.h ****     }
 186:../../libs/PoliTeKDSP/libs/libDaisy/src/hid/disp/graphics_common.h **** 
 187:../../libs/PoliTeKDSP/libs/libDaisy/src/hid/disp/graphics_common.h ****     Rectangle RemoveFromRight(int16_t pxToRemove)
 188:../../libs/PoliTeKDSP/libs/libDaisy/src/hid/disp/graphics_common.h ****     {
 189:../../libs/PoliTeKDSP/libs/libDaisy/src/hid/disp/graphics_common.h ****         const auto canRemove = min(pxToRemove, width_);
 190:../../libs/PoliTeKDSP/libs/libDaisy/src/hid/disp/graphics_common.h ****         width_ -= canRemove;
 191:../../libs/PoliTeKDSP/libs/libDaisy/src/hid/disp/graphics_common.h ****         return {int16_t(x_ + width_), y_, canRemove, height_};
 192:../../libs/PoliTeKDSP/libs/libDaisy/src/hid/disp/graphics_common.h ****     }
 193:../../libs/PoliTeKDSP/libs/libDaisy/src/hid/disp/graphics_common.h **** 
 194:../../libs/PoliTeKDSP/libs/libDaisy/src/hid/disp/graphics_common.h ****     Rectangle RemoveFromTop(int16_t pxToRemove)
 195:../../libs/PoliTeKDSP/libs/libDaisy/src/hid/disp/graphics_common.h ****     {
 196:../../libs/PoliTeKDSP/libs/libDaisy/src/hid/disp/graphics_common.h ****         const auto result = this->WithHeight(min(pxToRemove, height_));
 197:../../libs/PoliTeKDSP/libs/libDaisy/src/hid/disp/graphics_common.h ****         y_ += min(pxToRemove, height_);
 198:../../libs/PoliTeKDSP/libs/libDaisy/src/hid/disp/graphics_common.h ****         height_ = max(height_ - pxToRemove, 0);
 199:../../libs/PoliTeKDSP/libs/libDaisy/src/hid/disp/graphics_common.h ****         return result;
 200:../../libs/PoliTeKDSP/libs/libDaisy/src/hid/disp/graphics_common.h ****     }
 201:../../libs/PoliTeKDSP/libs/libDaisy/src/hid/disp/graphics_common.h **** 
 202:../../libs/PoliTeKDSP/libs/libDaisy/src/hid/disp/graphics_common.h ****     Rectangle RemoveFromBottom(int16_t pxToRemove)
 203:../../libs/PoliTeKDSP/libs/libDaisy/src/hid/disp/graphics_common.h ****     {
 204:../../libs/PoliTeKDSP/libs/libDaisy/src/hid/disp/graphics_common.h ****         const auto canRemove = min(pxToRemove, height_);
 205:../../libs/PoliTeKDSP/libs/libDaisy/src/hid/disp/graphics_common.h ****         height_ -= canRemove;
 206:../../libs/PoliTeKDSP/libs/libDaisy/src/hid/disp/graphics_common.h ****         return {x_, int16_t(y_ + height_), width_, canRemove};
 207:../../libs/PoliTeKDSP/libs/libDaisy/src/hid/disp/graphics_common.h ****     }
 208:../../libs/PoliTeKDSP/libs/libDaisy/src/hid/disp/graphics_common.h **** 
 209:../../libs/PoliTeKDSP/libs/libDaisy/src/hid/disp/graphics_common.h ****     Rectangle AlignedWithin(const Rectangle& other, Alignment alignment) const
 210:../../libs/PoliTeKDSP/libs/libDaisy/src/hid/disp/graphics_common.h ****     {
 211:../../libs/PoliTeKDSP/libs/libDaisy/src/hid/disp/graphics_common.h ****         switch(alignment)
 212:../../libs/PoliTeKDSP/libs/libDaisy/src/hid/disp/graphics_common.h ****         {
 213:../../libs/PoliTeKDSP/libs/libDaisy/src/hid/disp/graphics_common.h ****             case Alignment::topLeft:
 214:../../libs/PoliTeKDSP/libs/libDaisy/src/hid/disp/graphics_common.h ****                 return {other.x_, other.y_, width_, height_};
 215:../../libs/PoliTeKDSP/libs/libDaisy/src/hid/disp/graphics_common.h ****             case Alignment::topRight:
 216:../../libs/PoliTeKDSP/libs/libDaisy/src/hid/disp/graphics_common.h ****                 return {int16_t(other.GetRight() - width_),
 217:../../libs/PoliTeKDSP/libs/libDaisy/src/hid/disp/graphics_common.h ****                         other.y_,
 218:../../libs/PoliTeKDSP/libs/libDaisy/src/hid/disp/graphics_common.h ****                         width_,
 219:../../libs/PoliTeKDSP/libs/libDaisy/src/hid/disp/graphics_common.h ****                         height_};
 220:../../libs/PoliTeKDSP/libs/libDaisy/src/hid/disp/graphics_common.h ****             case Alignment::topCentered:
 221:../../libs/PoliTeKDSP/libs/libDaisy/src/hid/disp/graphics_common.h ****                 return {int16_t(x_ + (other.GetCenterX() - GetCenterX())),
 222:../../libs/PoliTeKDSP/libs/libDaisy/src/hid/disp/graphics_common.h ****                         other.y_,
 223:../../libs/PoliTeKDSP/libs/libDaisy/src/hid/disp/graphics_common.h ****                         width_,
 224:../../libs/PoliTeKDSP/libs/libDaisy/src/hid/disp/graphics_common.h ****                         height_};
 225:../../libs/PoliTeKDSP/libs/libDaisy/src/hid/disp/graphics_common.h ****             case Alignment::bottomLeft:
 226:../../libs/PoliTeKDSP/libs/libDaisy/src/hid/disp/graphics_common.h ****                 return {other.x_,
 227:../../libs/PoliTeKDSP/libs/libDaisy/src/hid/disp/graphics_common.h ****                         int16_t(other.GetBottom() - height_),
 228:../../libs/PoliTeKDSP/libs/libDaisy/src/hid/disp/graphics_common.h ****                         width_,
 229:../../libs/PoliTeKDSP/libs/libDaisy/src/hid/disp/graphics_common.h ****                         height_};
 230:../../libs/PoliTeKDSP/libs/libDaisy/src/hid/disp/graphics_common.h ****             case Alignment::bottomRight:
 231:../../libs/PoliTeKDSP/libs/libDaisy/src/hid/disp/graphics_common.h ****                 return {int16_t(other.GetRight() - width_),
 232:../../libs/PoliTeKDSP/libs/libDaisy/src/hid/disp/graphics_common.h ****                         int16_t(other.GetBottom() - height_),
 233:../../libs/PoliTeKDSP/libs/libDaisy/src/hid/disp/graphics_common.h ****                         width_,
 234:../../libs/PoliTeKDSP/libs/libDaisy/src/hid/disp/graphics_common.h ****                         height_};
ARM GAS  C:\Users\matte\AppData\Local\Temp\ccrMwnXK.s 			page 61


 235:../../libs/PoliTeKDSP/libs/libDaisy/src/hid/disp/graphics_common.h ****             case Alignment::bottomCentered:
 236:../../libs/PoliTeKDSP/libs/libDaisy/src/hid/disp/graphics_common.h ****                 return {int16_t(x_ + (other.GetCenterX() - GetCenterX())),
 237:../../libs/PoliTeKDSP/libs/libDaisy/src/hid/disp/graphics_common.h ****                         int16_t(other.GetBottom() - height_),
 238:../../libs/PoliTeKDSP/libs/libDaisy/src/hid/disp/graphics_common.h ****                         width_,
 239:../../libs/PoliTeKDSP/libs/libDaisy/src/hid/disp/graphics_common.h ****                         height_};
 240:../../libs/PoliTeKDSP/libs/libDaisy/src/hid/disp/graphics_common.h ****             case Alignment::centeredLeft:
 241:../../libs/PoliTeKDSP/libs/libDaisy/src/hid/disp/graphics_common.h ****                 return {other.x_,
 242:../../libs/PoliTeKDSP/libs/libDaisy/src/hid/disp/graphics_common.h ****                         int16_t(y_ + (other.GetCenterY() - GetCenterY())),
 243:../../libs/PoliTeKDSP/libs/libDaisy/src/hid/disp/graphics_common.h ****                         width_,
 244:../../libs/PoliTeKDSP/libs/libDaisy/src/hid/disp/graphics_common.h ****                         height_};
 245:../../libs/PoliTeKDSP/libs/libDaisy/src/hid/disp/graphics_common.h ****             case Alignment::centeredRight:
 246:../../libs/PoliTeKDSP/libs/libDaisy/src/hid/disp/graphics_common.h ****                 return {int16_t(other.GetRight() - width_),
 247:../../libs/PoliTeKDSP/libs/libDaisy/src/hid/disp/graphics_common.h ****                         int16_t(y_ + (other.GetCenterY() - GetCenterY())),
 248:../../libs/PoliTeKDSP/libs/libDaisy/src/hid/disp/graphics_common.h ****                         width_,
 249:../../libs/PoliTeKDSP/libs/libDaisy/src/hid/disp/graphics_common.h ****                         height_};
 250:../../libs/PoliTeKDSP/libs/libDaisy/src/hid/disp/graphics_common.h ****             case Alignment::centered:
 251:../../libs/PoliTeKDSP/libs/libDaisy/src/hid/disp/graphics_common.h ****                 return {int16_t(x_ + (other.GetCenterX() - GetCenterX())),
 252:../../libs/PoliTeKDSP/libs/libDaisy/src/hid/disp/graphics_common.h ****                         int16_t(y_ + (other.GetCenterY() - GetCenterY())),
 253:../../libs/PoliTeKDSP/libs/libDaisy/src/hid/disp/graphics_common.h ****                         width_,
 254:../../libs/PoliTeKDSP/libs/libDaisy/src/hid/disp/graphics_common.h ****                         height_};
 255:../../libs/PoliTeKDSP/libs/libDaisy/src/hid/disp/graphics_common.h ****             default: return {};
 256:../../libs/PoliTeKDSP/libs/libDaisy/src/hid/disp/graphics_common.h ****         }
 257:../../libs/PoliTeKDSP/libs/libDaisy/src/hid/disp/graphics_common.h ****     }
 258:../../libs/PoliTeKDSP/libs/libDaisy/src/hid/disp/graphics_common.h **** 
 259:../../libs/PoliTeKDSP/libs/libDaisy/src/hid/disp/graphics_common.h ****   private:
 260:../../libs/PoliTeKDSP/libs/libDaisy/src/hid/disp/graphics_common.h ****     int16_t x_, y_, width_, height_;
 261:../../libs/PoliTeKDSP/libs/libDaisy/src/hid/disp/graphics_common.h ****     int16_t max(int16_t a, int16_t b) { return (a > b) ? a : b; }
 1590              		.loc 12 261 13 view .LVU336
 1591              	.LBE800:
 1592              	.LBE799:
 1593              	.LBE805:
 1594              	.LBE809:
 1595              		.loc 12 261 41 view .LVU337
 1596              	.LBB810:
 1597              	.LBB806:
 1598              	.LBB802:
 1599              	.LBB801:
 1600              	.LBI801:
 1601              		.loc 12 261 13 view .LVU338
 1602              	.LBE801:
 1603              	.LBE802:
 1604              	.LBE806:
 1605              	.LBE810:
 1606              		.loc 12 261 41 view .LVU339
 1607              	.LBB811:
 1608              	.LBI811:
 209:../../libs/PoliTeKDSP/libs/libDaisy/src/hid/disp/graphics_common.h ****     {
 1609              		.loc 12 209 15 view .LVU340
 1610              	.LBB812:
 211:../../libs/PoliTeKDSP/libs/libDaisy/src/hid/disp/graphics_common.h ****         {
 1611              		.loc 12 211 9 view .LVU341
 1612 0036 1BB2     		sxth	r3, r3
 1613 0038 23EAE373 		bic	r3, r3, r3, asr #31
 1614 003c 0829     		cmp	r1, #8
 1615 003e 00F2A981 		bhi	.L121
 1616 0042 DFE811F0 		tbh	[pc, r1, lsl #1]
 1617              	.L123:
ARM GAS  C:\Users\matte\AppData\Local\Temp\ccrMwnXK.s 			page 62


 1618 0046 0201     		.2byte	(.L131-.L123)/2
 1619 0048 1401     		.2byte	(.L130-.L123)/2
 1620 004a 2001     		.2byte	(.L129-.L123)/2
 1621 004c 3401     		.2byte	(.L128-.L123)/2
 1622 004e 4201     		.2byte	(.L127-.L123)/2
 1623 0050 5001     		.2byte	(.L126-.L123)/2
 1624 0052 6701     		.2byte	(.L125-.L123)/2
 1625 0054 7101     		.2byte	(.L124-.L123)/2
 1626 0056 0900     		.2byte	(.L122-.L123)/2
 1627              		.p2align 1
 1628              	.L122:
 245:../../libs/PoliTeKDSP/libs/libDaisy/src/hid/disp/graphics_common.h ****                 return {int16_t(other.GetRight() - width_),
 1629              		.loc 12 245 13 view .LVU342
 246:../../libs/PoliTeKDSP/libs/libDaisy/src/hid/disp/graphics_common.h ****                         int16_t(y_ + (other.GetCenterY() - GetCenterY())),
 1630              		.loc 12 246 17 view .LVU343
 1631              	.LVL117:
 1632              	.LBB813:
 1633              	.LBI813:
  60:../../libs/PoliTeKDSP/libs/libDaisy/src/hid/disp/graphics_common.h ****     int16_t GetBottom() const { return y_ + height_; }
 1634              		.loc 12 60 13 view .LVU344
 1635              	.LBB814:
  60:../../libs/PoliTeKDSP/libs/libDaisy/src/hid/disp/graphics_common.h ****     int16_t GetBottom() const { return y_ + height_; }
 1636              		.loc 12 60 32 view .LVU345
  60:../../libs/PoliTeKDSP/libs/libDaisy/src/hid/disp/graphics_common.h ****     int16_t GetBottom() const { return y_ + height_; }
 1637              		.loc 12 60 42 is_stmt 0 view .LVU346
 1638 0058 A188     		ldrh	r1, [r4, #4]
 1639              	.LVL118:
  60:../../libs/PoliTeKDSP/libs/libDaisy/src/hid/disp/graphics_common.h ****     int16_t GetBottom() const { return y_ + height_; }
 1640              		.loc 12 60 42 view .LVU347
 1641 005a 2788     		ldrh	r7, [r4]
 1642 005c 0F44     		add	r7, r7, r1
 1643              	.LBE814:
 1644              	.LBE813:
 1645              	.LBB815:
 1646              	.LBB816:
  63:../../libs/PoliTeKDSP/libs/libDaisy/src/hid/disp/graphics_common.h **** 
 1647              		.loc 12 63 54 view .LVU348
 1648 005e B4F90610 		ldrsh	r1, [r4, #6]
 1649              	.LBE816:
 1650              	.LBE815:
 246:../../libs/PoliTeKDSP/libs/libDaisy/src/hid/disp/graphics_common.h ****                         int16_t(y_ + (other.GetCenterY() - GetCenterY())),
 1651              		.loc 12 246 50 view .LVU349
 1652 0062 FF1A     		subs	r7, r7, r3
 1653              	.LBB820:
 1654              	.LBB817:
  63:../../libs/PoliTeKDSP/libs/libDaisy/src/hid/disp/graphics_common.h **** 
 1655              		.loc 12 63 54 view .LVU350
 1656 0064 0029     		cmp	r1, #0
 1657              	.LBE817:
 1658              	.LBE820:
 246:../../libs/PoliTeKDSP/libs/libDaisy/src/hid/disp/graphics_common.h ****                         int16_t(y_ + (other.GetCenterY() - GetCenterY())),
 1659              		.loc 12 246 50 view .LVU351
 1660 0066 BFB2     		uxth	r7, r7
 1661              	.LVL119:
 1662              	.LBB821:
 1663              	.LBI815:
  63:../../libs/PoliTeKDSP/libs/libDaisy/src/hid/disp/graphics_common.h **** 
ARM GAS  C:\Users\matte\AppData\Local\Temp\ccrMwnXK.s 			page 63


 1664              		.loc 12 63 13 is_stmt 1 view .LVU352
 1665              	.LBB818:
  63:../../libs/PoliTeKDSP/libs/libDaisy/src/hid/disp/graphics_common.h **** 
 1666              		.loc 12 63 34 view .LVU353
  63:../../libs/PoliTeKDSP/libs/libDaisy/src/hid/disp/graphics_common.h **** 
 1667              		.loc 12 63 34 is_stmt 0 view .LVU354
 1668              	.LBE818:
 1669              	.LBE821:
 1670              	.LBB822:
 1671              	.LBI822:
  63:../../libs/PoliTeKDSP/libs/libDaisy/src/hid/disp/graphics_common.h **** 
 1672              		.loc 12 63 13 is_stmt 1 view .LVU355
 1673              	.LBB823:
  63:../../libs/PoliTeKDSP/libs/libDaisy/src/hid/disp/graphics_common.h **** 
 1674              		.loc 12 63 34 view .LVU356
  63:../../libs/PoliTeKDSP/libs/libDaisy/src/hid/disp/graphics_common.h **** 
 1675              		.loc 12 63 34 is_stmt 0 view .LVU357
 1676              	.LBE823:
 1677              	.LBE822:
 1678              	.LBB824:
 1679              	.LBB819:
  63:../../libs/PoliTeKDSP/libs/libDaisy/src/hid/disp/graphics_common.h **** 
 1680              		.loc 12 63 54 view .LVU358
 1681 0068 C0F2FF80 		blt	.L194
 1682              	.L138:
  63:../../libs/PoliTeKDSP/libs/libDaisy/src/hid/disp/graphics_common.h **** 
 1683              		.loc 12 63 54 view .LVU359
 1684              	.LBE819:
 1685              	.LBE824:
 1686              	.LBB825:
 1687              	.LBB826:
  63:../../libs/PoliTeKDSP/libs/libDaisy/src/hid/disp/graphics_common.h **** 
 1688              		.loc 12 63 44 view .LVU360
 1689 006c B4F802C0 		ldrh	ip, [r4, #2]
 1690              	.LBE826:
 1691              	.LBE825:
 1692              	.LBB832:
 1693              	.LBB833:
 1694              	.LBB834:
  32:../../libs/PoliTeKDSP/libs/libDaisy/src/hid/disp/graphics_common.h ****     {
 1695              		.loc 12 32 66 view .LVU361
 1696 0070 0698     		ldr	r0, [sp, #24]
 1697              	.LBE834:
 1698              	.LBE833:
 1699              	.LBE832:
 1700              	.LBB845:
 1701              	.LBB827:
  63:../../libs/PoliTeKDSP/libs/libDaisy/src/hid/disp/graphics_common.h **** 
 1702              		.loc 12 63 44 view .LVU362
 1703 0072 0CEB6104 		add	r4, ip, r1, asr #1
 1704              	.LVL120:
  63:../../libs/PoliTeKDSP/libs/libDaisy/src/hid/disp/graphics_common.h **** 
 1705              		.loc 12 63 44 view .LVU363
 1706              	.LBE827:
 1707              	.LBE845:
 1708              	.LBB846:
 1709              	.LBB841:
ARM GAS  C:\Users\matte\AppData\Local\Temp\ccrMwnXK.s 			page 64


 1710              	.LBB837:
  32:../../libs/PoliTeKDSP/libs/libDaisy/src/hid/disp/graphics_common.h ****     {
 1711              		.loc 12 32 66 view .LVU364
 1712 0076 C280     		strh	r2, [r0, #6]	@ movhi
 1713              	.LBE837:
 1714              	.LBE841:
 1715              	.LBE846:
 252:../../libs/PoliTeKDSP/libs/libDaisy/src/hid/disp/graphics_common.h ****                         width_,
 1716              		.loc 12 252 58 view .LVU365
 1717 0078 A4EB5202 		sub	r2, r4, r2, lsr #1
 1718              	.LBB847:
 1719              	.LBB842:
 1720              	.LBB838:
  32:../../libs/PoliTeKDSP/libs/libDaisy/src/hid/disp/graphics_common.h ****     {
 1721              		.loc 12 32 66 view .LVU366
 1722 007c 8380     		strh	r3, [r0, #4]	@ movhi
 1723 007e 0780     		strh	r7, [r0]	@ movhi
 1724              	.LBE838:
 1725              	.LBE842:
 1726              	.LBE847:
 252:../../libs/PoliTeKDSP/libs/libDaisy/src/hid/disp/graphics_common.h ****                         width_,
 1727              		.loc 12 252 58 view .LVU367
 1728 0080 94B2     		uxth	r4, r2
 1729              	.LVL121:
 1730              	.LBB848:
 1731              	.LBI832:
  31:../../libs/PoliTeKDSP/libs/libDaisy/src/hid/disp/graphics_common.h ****     : x_(x), y_(y), width_(max(0, width)), height_(max(0, height))
 1732              		.loc 12 31 5 is_stmt 1 view .LVU368
 1733              	.LBB843:
 1734              	.LBB839:
  32:../../libs/PoliTeKDSP/libs/libDaisy/src/hid/disp/graphics_common.h ****     {
 1735              		.loc 12 32 66 is_stmt 0 view .LVU369
 1736 0082 4480     		strh	r4, [r0, #2]	@ movhi
 1737              	.LVL122:
 1738              	.LBB835:
 1739              	.LBI835:
 1740              		.loc 12 261 13 is_stmt 1 view .LVU370
 1741              	.LBE835:
 1742              	.LBE839:
 1743              	.LBE843:
 1744              	.LBE848:
 1745              	.LBE812:
 1746              	.LBE811:
 1747              		.loc 12 261 41 view .LVU371
 1748              	.LBB1035:
 1749              	.LBB1013:
 1750              	.LBB849:
 1751              	.LBB844:
 1752              	.LBB840:
 1753              	.LBB836:
 1754              	.LBI836:
 1755              		.loc 12 261 13 view .LVU372
 1756              	.LBE836:
 1757              	.LBE840:
 1758              	.LBE844:
 1759              	.LBE849:
 1760              	.LBE1013:
ARM GAS  C:\Users\matte\AppData\Local\Temp\ccrMwnXK.s 			page 65


 1761              	.LBE1035:
 1762              		.loc 12 261 41 view .LVU373
 1763              	.L132:
  56:../../libs/PoliTeKDSP/libs/libDaisy/src/hid/disp/graphics_common.h ****     int16_t GetY() const { return y_; }
 1764              		.loc 12 56 28 view .LVU374
  57:../../libs/PoliTeKDSP/libs/libDaisy/src/hid/disp/graphics_common.h ****     int16_t GetWidth() const { return width_; }
 1765              		.loc 12 57 28 view .LVU375
 1766              	.LBB1036:
 1767              	.LBI1036:
 171:../../libs/PoliTeKDSP/libs/libDaisy/src/hid/disp/display.h ****     {
 1768              		.loc 9 171 10 view .LVU376
 1769              	.LBB1037:
 173:../../libs/PoliTeKDSP/libs/libDaisy/src/hid/disp/display.h ****         currentY_ = (y >= Height()) ? Height() - 1 : y;
 1770              		.loc 9 173 9 view .LVU377
 1771 0084 A64A     		ldr	r2, .L204
 173:../../libs/PoliTeKDSP/libs/libDaisy/src/hid/disp/display.h ****         currentY_ = (y >= Height()) ? Height() - 1 : y;
 1772              		.loc 9 173 33 is_stmt 0 view .LVU378
 1773 0086 D8F80030 		ldr	r3, [r8]
 1774 008a 1146     		mov	r1, r2
 1775 008c 0192     		str	r2, [sp, #4]
 1776 008e DA68     		ldr	r2, [r3, #12]
 1777 0090 8A42     		cmp	r2, r1
 1778 0092 40F08D81 		bne	.L140
 1779 0096 8020     		movs	r0, #128
 1780              	.LVL123:
 1781              	.L141:
 173:../../libs/PoliTeKDSP/libs/libDaisy/src/hid/disp/display.h ****         currentY_ = (y >= Height()) ? Height() - 1 : y;
 1782              		.loc 9 173 19 view .LVU379
 1783 0098 B842     		cmp	r0, r7
 1784 009a 05D8     		bhi	.L142
 173:../../libs/PoliTeKDSP/libs/libDaisy/src/hid/disp/display.h ****         currentY_ = (y >= Height()) ? Height() - 1 : y;
 1785              		.loc 9 173 44 view .LVU380
 1786 009c DA68     		ldr	r2, [r3, #12]
 1787 009e 0199     		ldr	r1, [sp, #4]
 1788 00a0 8A42     		cmp	r2, r1
 1789 00a2 40F09A81 		bne	.L195
 1790 00a6 7F27     		movs	r7, #127
 1791              	.L142:
 1792 00a8 9E4A     		ldr	r2, .L204+4
 174:../../libs/PoliTeKDSP/libs/libDaisy/src/hid/disp/display.h ****     }
 1793              		.loc 9 174 34 view .LVU381
 1794 00aa 9B68     		ldr	r3, [r3, #8]
 173:../../libs/PoliTeKDSP/libs/libDaisy/src/hid/disp/display.h ****         currentY_ = (y >= Height()) ? Height() - 1 : y;
 1795              		.loc 9 173 19 view .LVU382
 1796 00ac A8F80470 		strh	r7, [r8, #4]	@ movhi
 174:../../libs/PoliTeKDSP/libs/libDaisy/src/hid/disp/display.h ****     }
 1797              		.loc 9 174 9 is_stmt 1 view .LVU383
 1798 00b0 9342     		cmp	r3, r2
 1799 00b2 0392     		str	r2, [sp, #12]
 1800 00b4 40F08981 		bne	.L172
 174:../../libs/PoliTeKDSP/libs/libDaisy/src/hid/disp/display.h ****     }
 1801              		.loc 9 174 34 is_stmt 0 view .LVU384
 1802 00b8 4020     		movs	r0, #64
 1803              	.L144:
 174:../../libs/PoliTeKDSP/libs/libDaisy/src/hid/disp/display.h ****     }
 1804              		.loc 9 174 19 view .LVU385
 1805 00ba A042     		cmp	r0, r4
ARM GAS  C:\Users\matte\AppData\Local\Temp\ccrMwnXK.s 			page 66


 1806 00bc 07D8     		bhi	.L146
 174:../../libs/PoliTeKDSP/libs/libDaisy/src/hid/disp/display.h ****     }
 1807              		.loc 9 174 46 view .LVU386
 1808 00be D8F80030 		ldr	r3, [r8]
 1809 00c2 039A     		ldr	r2, [sp, #12]
 1810 00c4 9B68     		ldr	r3, [r3, #8]
 1811 00c6 9342     		cmp	r3, r2
 1812 00c8 40F08281 		bne	.L196
 1813 00cc 3F24     		movs	r4, #63
 1814              	.L146:
 174:../../libs/PoliTeKDSP/libs/libDaisy/src/hid/disp/display.h ****     }
 1815              		.loc 9 174 46 view .LVU387
 1816              	.LBE1037:
 1817              	.LBE1036:
 1818              	.LBB1041:
 1819              	.LBB1042:
 443:../../libs/PoliTeKDSP/libs/libDaisy/src/hid/disp/display.h ****         {
 1820              		.loc 9 443 9 view .LVU388
 1821 00ce 009B     		ldr	r3, [sp]
 1822              	.LBE1042:
 1823              	.LBE1041:
 1824              	.LBB1090:
 1825              	.LBB1038:
 174:../../libs/PoliTeKDSP/libs/libDaisy/src/hid/disp/display.h ****     }
 1826              		.loc 9 174 19 view .LVU389
 1827 00d0 A8F80640 		strh	r4, [r8, #6]	@ movhi
 1828              	.LVL124:
 174:../../libs/PoliTeKDSP/libs/libDaisy/src/hid/disp/display.h ****     }
 1829              		.loc 9 174 19 view .LVU390
 1830              	.LBE1038:
 1831              	.LBE1090:
 1832              	.LBB1091:
 1833              	.LBB1087:
 443:../../libs/PoliTeKDSP/libs/libDaisy/src/hid/disp/display.h ****         {
 1834              		.loc 9 443 9 view .LVU391
 1835 00d4 93F800B0 		ldrb	fp, [r3]	@ zero_extendqisi2
 1836 00d8 6B78     		ldrb	r3, [r5, #1]	@ zero_extendqisi2
 1837              	.LVL125:
 443:../../libs/PoliTeKDSP/libs/libDaisy/src/hid/disp/display.h ****         {
 1838              		.loc 9 443 9 view .LVU392
 1839 00da 2C78     		ldrb	r4, [r5]	@ zero_extendqisi2
 1840              	.LVL126:
 443:../../libs/PoliTeKDSP/libs/libDaisy/src/hid/disp/display.h ****         {
 1841              		.loc 9 443 9 view .LVU393
 1842 00dc 0493     		str	r3, [sp, #16]
 1843              	.LVL127:
 443:../../libs/PoliTeKDSP/libs/libDaisy/src/hid/disp/display.h ****         {
 1844              		.loc 9 443 9 view .LVU394
 1845 00de 6B68     		ldr	r3, [r5, #4]
 1846 00e0 0793     		str	r3, [sp, #28]
 1847              	.LVL128:
 443:../../libs/PoliTeKDSP/libs/libDaisy/src/hid/disp/display.h ****         {
 1848              		.loc 9 443 9 view .LVU395
 1849              	.LBE1087:
 1850              	.LBI1041:
 440:../../libs/PoliTeKDSP/libs/libDaisy/src/hid/disp/display.h ****     {
 1851              		.loc 9 440 10 is_stmt 1 view .LVU396
ARM GAS  C:\Users\matte\AppData\Local\Temp\ccrMwnXK.s 			page 67


 1852              	.LBB1088:
 443:../../libs/PoliTeKDSP/libs/libDaisy/src/hid/disp/display.h ****         {
 1853              		.loc 9 443 9 view .LVU397
 1854 00e2 BBF1000F 		cmp	fp, #0
 1855 00e6 00F0AC80 		beq	.L118
 1856              	.LVL129:
 1857              	.L148:
 1858              	.LBB1043:
 1859              	.LBI1043:
 396:../../libs/PoliTeKDSP/libs/libDaisy/src/hid/disp/display.h ****     {
 1860              		.loc 9 396 10 view .LVU398
 1861              	.LBB1044:
 401:../../libs/PoliTeKDSP/libs/libDaisy/src/hid/disp/display.h ****             return 0;
 1862              		.loc 9 401 20 is_stmt 0 view .LVU399
 1863 00ea ABF12005 		sub	r5, fp, #32
 401:../../libs/PoliTeKDSP/libs/libDaisy/src/hid/disp/display.h ****             return 0;
 1864              		.loc 9 401 9 view .LVU400
 1865 00ee EBB2     		uxtb	r3, r5
 1866 00f0 5E2B     		cmp	r3, #94
 1867 00f2 00F22E81 		bhi	.L152
 405:../../libs/PoliTeKDSP/libs/libDaisy/src/hid/disp/display.h ****            || Height() < (currentY_ + font.FontHeight))
 1868              		.loc 9 405 17 view .LVU401
 1869 00f6 D8F80030 		ldr	r3, [r8]
 1870 00fa 019A     		ldr	r2, [sp, #4]
 1871 00fc DB68     		ldr	r3, [r3, #12]
 1872 00fe 9342     		cmp	r3, r2
 1873 0100 40F02A81 		bne	.L197
 1874 0104 8020     		movs	r0, #128
 1875              	.L151:
 405:../../libs/PoliTeKDSP/libs/libDaisy/src/hid/disp/display.h ****            || Height() < (currentY_ + font.FontHeight))
 1876              		.loc 9 405 23 view .LVU402
 1877 0106 B8F80430 		ldrh	r3, [r8, #4]
 405:../../libs/PoliTeKDSP/libs/libDaisy/src/hid/disp/display.h ****            || Height() < (currentY_ + font.FontHeight))
 1878              		.loc 9 405 33 view .LVU403
 1879 010a 2344     		add	r3, r3, r4
 406:../../libs/PoliTeKDSP/libs/libDaisy/src/hid/disp/display.h ****         {
 1880              		.loc 9 406 12 view .LVU404
 1881 010c 9842     		cmp	r0, r3
 1882 010e C0F22081 		blt	.L152
 406:../../libs/PoliTeKDSP/libs/libDaisy/src/hid/disp/display.h ****         {
 1883              		.loc 9 406 21 view .LVU405
 1884 0112 D8F80030 		ldr	r3, [r8]
 1885 0116 039A     		ldr	r2, [sp, #12]
 1886 0118 9B68     		ldr	r3, [r3, #8]
 1887 011a 9342     		cmp	r3, r2
 1888 011c 40F01F81 		bne	.L198
 1889 0120 4020     		movs	r0, #64
 1890              	.L153:
 406:../../libs/PoliTeKDSP/libs/libDaisy/src/hid/disp/display.h ****         {
 1891              		.loc 9 406 27 view .LVU406
 1892 0122 B8F80610 		ldrh	r1, [r8, #6]
 406:../../libs/PoliTeKDSP/libs/libDaisy/src/hid/disp/display.h ****         {
 1893              		.loc 9 406 37 view .LVU407
 1894 0126 049A     		ldr	r2, [sp, #16]
 406:../../libs/PoliTeKDSP/libs/libDaisy/src/hid/disp/display.h ****         {
 1895              		.loc 9 406 27 view .LVU408
 1896 0128 0291     		str	r1, [sp, #8]
ARM GAS  C:\Users\matte\AppData\Local\Temp\ccrMwnXK.s 			page 68


 406:../../libs/PoliTeKDSP/libs/libDaisy/src/hid/disp/display.h ****         {
 1897              		.loc 9 406 37 view .LVU409
 1898 012a 8B18     		adds	r3, r1, r2
 406:../../libs/PoliTeKDSP/libs/libDaisy/src/hid/disp/display.h ****         {
 1899              		.loc 9 406 12 view .LVU410
 1900 012c 9842     		cmp	r0, r3
 1901 012e C0F21081 		blt	.L152
 1902              	.LVL130:
 413:../../libs/PoliTeKDSP/libs/libDaisy/src/hid/disp/display.h ****         {
 1903              		.loc 9 413 22 is_stmt 1 view .LVU411
 1904 0132 002A     		cmp	r2, #0
 1905 0134 00F01E81 		beq	.L154
 415:../../libs/PoliTeKDSP/libs/libDaisy/src/hid/disp/display.h ****             for(j = 0; j < font.FontWidth; j++)
 1906              		.loc 9 415 37 is_stmt 0 view .LVU412
 1907 0138 02FB05F5 		mul	r5, r2, r5
 1908 013c 6FF0004E 		mvn	lr, #-2147483648
 1909 0140 079B     		ldr	r3, [sp, #28]
 1910 0142 AE44     		add	lr, lr, r5
 1911 0144 1544     		add	r5, r5, r2
 1912 0146 CDF814B0 		str	fp, [sp, #20]
 1913 014a 03EB4E0E 		add	lr, r3, lr, lsl #1
 1914 014e 023B     		subs	r3, r3, #2
 434:../../libs/PoliTeKDSP/libs/libDaisy/src/hid/disp/display.h **** 
 1915              		.loc 9 434 19 view .LVU413
 1916 0150 B8F804A0 		ldrh	r10, [r8, #4]
 1917 0154 03EB4503 		add	r3, r3, r5, lsl #1
 1918 0158 0D46     		mov	r5, r1
 1919 015a 9B46     		mov	fp, r3
 1920              	.LVL131:
 1921              	.L157:
 415:../../libs/PoliTeKDSP/libs/libDaisy/src/hid/disp/display.h ****             for(j = 0; j < font.FontWidth; j++)
 1922              		.loc 9 415 15 view .LVU414
 1923 015c 3EF8027F 		ldrh	r7, [lr, #2]!
 1924              	.LVL132:
 416:../../libs/PoliTeKDSP/libs/libDaisy/src/hid/disp/display.h ****             {
 1925              		.loc 9 416 26 is_stmt 1 view .LVU415
 1926 0160 A4B3     		cbz	r4, .L162
 1927              	.LBB1045:
 1928              	.LBB1046:
 1929              	.LBB1047:
 1930              	.LBB1048:
 1931              	.LBB1049:
 347:../../libs/PoliTeKDSP/libs/libDaisy/src/dev/oled_ssd130x.h ****     }
 1932              		.loc 10 347 55 is_stmt 0 view .LVU416
 1933 0162 05F00703 		and	r3, r5, #7
 347:../../libs/PoliTeKDSP/libs/libDaisy/src/dev/oled_ssd130x.h ****     }
 1934              		.loc 10 347 49 view .LVU417
 1935 0166 4FF0010C 		mov	ip, #1
 347:../../libs/PoliTeKDSP/libs/libDaisy/src/dev/oled_ssd130x.h ****     }
 1936              		.loc 10 347 28 view .LVU418
 1937 016a EA08     		lsrs	r2, r5, #3
 1938 016c 5146     		mov	r1, r10
 347:../../libs/PoliTeKDSP/libs/libDaisy/src/dev/oled_ssd130x.h ****     }
 1939              		.loc 10 347 49 view .LVU419
 1940 016e 0CFA03FC 		lsl	ip, ip, r3
 1941 0172 0AF11003 		add	r3, r10, #16
 347:../../libs/PoliTeKDSP/libs/libDaisy/src/dev/oled_ssd130x.h ****     }
ARM GAS  C:\Users\matte\AppData\Local\Temp\ccrMwnXK.s 			page 69


 1942              		.loc 10 347 42 view .LVU420
 1943 0176 4FFA8CFC 		sxtb	ip, ip
 1944 017a 03EBC212 		add	r2, r3, r2, lsl #7
 1945              	.LBE1049:
 1946              	.LBE1048:
 1947              	.LBE1047:
 1948              	.LBE1046:
 1949              	.LBE1045:
 416:../../libs/PoliTeKDSP/libs/libDaisy/src/hid/disp/display.h ****             {
 1950              		.loc 9 416 19 view .LVU421
 1951 017e 0023     		movs	r3, #0
 1952              	.LBB1067:
 1953              	.LBB1062:
 1954              	.LBB1057:
 1955              	.LBB1053:
 1956              	.LBB1050:
 347:../../libs/PoliTeKDSP/libs/libDaisy/src/dev/oled_ssd130x.h ****     }
 1957              		.loc 10 347 42 view .LVU422
 1958 0180 6FEA0C09 		mvn	r9, ip
 1959 0184 4244     		add	r2, r2, r8
 1960 0186 0DE0     		b	.L163
 1961              	.LVL133:
 1962              	.L199:
 347:../../libs/PoliTeKDSP/libs/libDaisy/src/dev/oled_ssd130x.h ****     }
 1963              		.loc 10 347 42 view .LVU423
 1964              	.LBE1050:
 1965              	.LBE1053:
 1966              	.LBE1057:
 1967              	.LBE1062:
 1968              	.LBE1067:
 1969              	.LBB1068:
 1970              	.LBI1068:
  42:../../libs/PoliTeKDSP/libs/libDaisy/src/hid/disp/oled_display.h ****     {
 1971              		.loc 8 42 10 is_stmt 1 view .LVU424
 1972              	.LBB1069:
 1973              	.LBI1069:
 340:../../libs/PoliTeKDSP/libs/libDaisy/src/dev/oled_ssd130x.h ****     {
 1974              		.loc 10 340 10 view .LVU425
 1975              	.LBB1070:
 342:../../libs/PoliTeKDSP/libs/libDaisy/src/dev/oled_ssd130x.h ****             return;
 1976              		.loc 10 342 9 is_stmt 0 view .LVU426
 1977 0188 7F29     		cmp	r1, #127
 1978 018a 06D8     		bhi	.L159
 1979 018c 3F2D     		cmp	r5, #63
 1980 018e 04D8     		bhi	.L159
 345:../../libs/PoliTeKDSP/libs/libDaisy/src/dev/oled_ssd130x.h ****         else
 1981              		.loc 10 345 42 view .LVU427
 1982 0190 1078     		ldrb	r0, [r2]	@ zero_extendqisi2
 344:../../libs/PoliTeKDSP/libs/libDaisy/src/dev/oled_ssd130x.h ****             buffer_[x + (y / 8) * width] |= (1 << (y % 8));
 1983              		.loc 10 344 9 view .LVU428
 1984 0192 96B1     		cbz	r6, .L161
 1985              	.L193:
 344:../../libs/PoliTeKDSP/libs/libDaisy/src/dev/oled_ssd130x.h ****             buffer_[x + (y / 8) * width] |= (1 << (y % 8));
 1986              		.loc 10 344 9 view .LVU429
 1987              	.LBE1070:
 1988              	.LBE1069:
 1989              	.LBE1068:
ARM GAS  C:\Users\matte\AppData\Local\Temp\ccrMwnXK.s 			page 70


 1990              	.LBB1071:
 1991              	.LBB1063:
 1992              	.LBB1058:
 345:../../libs/PoliTeKDSP/libs/libDaisy/src/dev/oled_ssd130x.h ****         else
 1993              		.loc 10 345 42 view .LVU430
 1994 0194 4CEA0000 		orr	r0, ip, r0
 1995 0198 1070     		strb	r0, [r2]
 1996              	.L159:
 1997              	.LBE1058:
 1998              	.LBE1063:
 1999              	.LBE1071:
 416:../../libs/PoliTeKDSP/libs/libDaisy/src/hid/disp/display.h ****             {
 2000              		.loc 9 416 13 is_stmt 1 view .LVU431
 2001 019a 0133     		adds	r3, r3, #1
 2002              	.LVL134:
 416:../../libs/PoliTeKDSP/libs/libDaisy/src/hid/disp/display.h ****             {
 2003              		.loc 9 416 26 view .LVU432
 2004 019c 0132     		adds	r2, r2, #1
 2005 019e 0131     		adds	r1, r1, #1
 2006 01a0 9C42     		cmp	r4, r3
 2007 01a2 13D0     		beq	.L162
 2008              	.LVL135:
 2009              	.L163:
 418:../../libs/PoliTeKDSP/libs/libDaisy/src/hid/disp/display.h ****                 {
 2010              		.loc 9 418 23 is_stmt 0 view .LVU433
 2011 01a4 07FA03F0 		lsl	r0, r7, r3
 418:../../libs/PoliTeKDSP/libs/libDaisy/src/hid/disp/display.h ****                 {
 2012              		.loc 9 418 17 view .LVU434
 2013 01a8 0004     		lsls	r0, r0, #16
 2014 01aa EDD4     		bmi	.L199
 2015              	.LVL136:
 2016              	.LBB1072:
 2017              	.LBI1045:
  42:../../libs/PoliTeKDSP/libs/libDaisy/src/hid/disp/oled_display.h ****     {
 2018              		.loc 8 42 10 is_stmt 1 view .LVU435
 2019              	.LBB1064:
 2020              	.LBI1046:
 340:../../libs/PoliTeKDSP/libs/libDaisy/src/dev/oled_ssd130x.h ****     {
 2021              		.loc 10 340 10 view .LVU436
 2022              	.LBB1059:
 342:../../libs/PoliTeKDSP/libs/libDaisy/src/dev/oled_ssd130x.h ****             return;
 2023              		.loc 10 342 9 is_stmt 0 view .LVU437
 2024 01ac 7F29     		cmp	r1, #127
 2025 01ae F4D8     		bhi	.L159
 2026 01b0 3F2D     		cmp	r5, #63
 2027 01b2 F2D8     		bhi	.L159
 345:../../libs/PoliTeKDSP/libs/libDaisy/src/dev/oled_ssd130x.h ****         else
 2028              		.loc 10 345 42 view .LVU438
 2029 01b4 1078     		ldrb	r0, [r2]	@ zero_extendqisi2
 344:../../libs/PoliTeKDSP/libs/libDaisy/src/dev/oled_ssd130x.h ****             buffer_[x + (y / 8) * width] |= (1 << (y % 8));
 2030              		.loc 10 344 9 view .LVU439
 2031 01b6 002E     		cmp	r6, #0
 2032 01b8 ECD0     		beq	.L193
 2033              	.L161:
 2034              	.LVL137:
 2035              	.LBB1054:
 2036              	.LBI1048:
ARM GAS  C:\Users\matte\AppData\Local\Temp\ccrMwnXK.s 			page 71


 340:../../libs/PoliTeKDSP/libs/libDaisy/src/dev/oled_ssd130x.h ****     {
 2037              		.loc 10 340 10 is_stmt 1 view .LVU440
 340:../../libs/PoliTeKDSP/libs/libDaisy/src/dev/oled_ssd130x.h ****     {
 2038              		.loc 10 340 10 is_stmt 0 view .LVU441
 2039              	.LBE1054:
 2040              	.LBE1059:
 2041              	.LBE1064:
 2042              	.LBE1072:
 416:../../libs/PoliTeKDSP/libs/libDaisy/src/hid/disp/display.h ****             {
 2043              		.loc 9 416 13 view .LVU442
 2044 01ba 0133     		adds	r3, r3, #1
 2045              	.LVL138:
 2046              	.LBB1073:
 2047              	.LBB1065:
 2048              	.LBB1060:
 2049              	.LBB1055:
 2050              	.LBB1051:
 347:../../libs/PoliTeKDSP/libs/libDaisy/src/dev/oled_ssd130x.h ****     }
 2051              		.loc 10 347 42 view .LVU443
 2052 01bc 09EA0000 		and	r0, r9, r0
 2053              	.LBE1051:
 2054              	.LBE1055:
 2055              	.LBE1060:
 2056              	.LBE1065:
 2057              	.LBE1073:
 416:../../libs/PoliTeKDSP/libs/libDaisy/src/hid/disp/display.h ****             {
 2058              		.loc 9 416 26 view .LVU444
 2059 01c0 0132     		adds	r2, r2, #1
 2060 01c2 0131     		adds	r1, r1, #1
 2061 01c4 9C42     		cmp	r4, r3
 2062              	.LBB1074:
 2063              	.LBB1066:
 2064              	.LBB1061:
 2065              	.LBB1056:
 2066              	.LBB1052:
 347:../../libs/PoliTeKDSP/libs/libDaisy/src/dev/oled_ssd130x.h ****     }
 2067              		.loc 10 347 42 view .LVU445
 2068 01c6 02F8010C 		strb	r0, [r2, #-1]
 347:../../libs/PoliTeKDSP/libs/libDaisy/src/dev/oled_ssd130x.h ****     }
 2069              		.loc 10 347 42 view .LVU446
 2070              	.LBE1052:
 2071              	.LBE1056:
 2072              	.LBE1061:
 2073              	.LBE1066:
 2074              	.LBE1074:
 416:../../libs/PoliTeKDSP/libs/libDaisy/src/hid/disp/display.h ****             {
 2075              		.loc 9 416 13 is_stmt 1 view .LVU447
 2076              	.LVL139:
 416:../../libs/PoliTeKDSP/libs/libDaisy/src/hid/disp/display.h ****             {
 2077              		.loc 9 416 26 view .LVU448
 2078 01ca EBD1     		bne	.L163
 2079              	.LVL140:
 2080              	.L162:
 413:../../libs/PoliTeKDSP/libs/libDaisy/src/hid/disp/display.h ****         {
 2081              		.loc 9 413 9 view .LVU449
 413:../../libs/PoliTeKDSP/libs/libDaisy/src/hid/disp/display.h ****         {
 2082              		.loc 9 413 22 view .LVU450
ARM GAS  C:\Users\matte\AppData\Local\Temp\ccrMwnXK.s 			page 72


 2083 01cc F345     		cmp	fp, lr
 2084 01ce 05F10105 		add	r5, r5, #1
 2085 01d2 C3D1     		bne	.L157
 2086 01d4 DDF814B0 		ldr	fp, [sp, #20]
 2087              	.LVL141:
 2088              	.L156:
 2089              	.LBB1075:
 2090              	.LBB1076:
 173:../../libs/PoliTeKDSP/libs/libDaisy/src/hid/disp/display.h ****         currentY_ = (y >= Height()) ? Height() - 1 : y;
 2091              		.loc 9 173 33 is_stmt 0 view .LVU451
 2092 01d8 D8F80020 		ldr	r2, [r8]
 2093              	.LBE1076:
 2094              	.LBE1075:
 434:../../libs/PoliTeKDSP/libs/libDaisy/src/hid/disp/display.h **** 
 2095              		.loc 9 434 18 view .LVU452
 2096 01dc 0AEB0405 		add	r5, r10, r4
 2097 01e0 0199     		ldr	r1, [sp, #4]
 2098              	.LBB1081:
 2099              	.LBB1077:
 173:../../libs/PoliTeKDSP/libs/libDaisy/src/hid/disp/display.h ****         currentY_ = (y >= Height()) ? Height() - 1 : y;
 2100              		.loc 9 173 33 view .LVU453
 2101 01e2 D368     		ldr	r3, [r2, #12]
 2102              	.LBE1077:
 2103              	.LBE1081:
 434:../../libs/PoliTeKDSP/libs/libDaisy/src/hid/disp/display.h **** 
 2104              		.loc 9 434 18 view .LVU454
 2105 01e4 ADB2     		uxth	r5, r5
 2106              	.LVL142:
 2107              	.LBB1082:
 2108              	.LBI1075:
 171:../../libs/PoliTeKDSP/libs/libDaisy/src/hid/disp/display.h ****     {
 2109              		.loc 9 171 10 is_stmt 1 view .LVU455
 2110              	.LBB1078:
 173:../../libs/PoliTeKDSP/libs/libDaisy/src/hid/disp/display.h ****         currentY_ = (y >= Height()) ? Height() - 1 : y;
 2111              		.loc 9 173 9 view .LVU456
 2112 01e6 8B42     		cmp	r3, r1
 2113 01e8 40F0BF80 		bne	.L200
 173:../../libs/PoliTeKDSP/libs/libDaisy/src/hid/disp/display.h ****         currentY_ = (y >= Height()) ? Height() - 1 : y;
 2114              		.loc 9 173 33 is_stmt 0 view .LVU457
 2115 01ec 8020     		movs	r0, #128
 2116              	.L164:
 173:../../libs/PoliTeKDSP/libs/libDaisy/src/hid/disp/display.h ****         currentY_ = (y >= Height()) ? Height() - 1 : y;
 2117              		.loc 9 173 19 view .LVU458
 2118 01ee 8542     		cmp	r5, r0
 2119 01f0 05D3     		bcc	.L165
 173:../../libs/PoliTeKDSP/libs/libDaisy/src/hid/disp/display.h ****         currentY_ = (y >= Height()) ? Height() - 1 : y;
 2120              		.loc 9 173 44 view .LVU459
 2121 01f2 D368     		ldr	r3, [r2, #12]
 2122 01f4 0199     		ldr	r1, [sp, #4]
 2123 01f6 8B42     		cmp	r3, r1
 2124 01f8 40F0C580 		bne	.L201
 2125 01fc 7F25     		movs	r5, #127
 2126              	.LVL143:
 2127              	.L165:
 174:../../libs/PoliTeKDSP/libs/libDaisy/src/hid/disp/display.h ****     }
 2128              		.loc 9 174 34 view .LVU460
 2129 01fe 9368     		ldr	r3, [r2, #8]
ARM GAS  C:\Users\matte\AppData\Local\Temp\ccrMwnXK.s 			page 73


 2130 0200 039A     		ldr	r2, [sp, #12]
 173:../../libs/PoliTeKDSP/libs/libDaisy/src/hid/disp/display.h ****         currentY_ = (y >= Height()) ? Height() - 1 : y;
 2131              		.loc 9 173 19 view .LVU461
 2132 0202 A8F80450 		strh	r5, [r8, #4]	@ movhi
 174:../../libs/PoliTeKDSP/libs/libDaisy/src/hid/disp/display.h ****     }
 2133              		.loc 9 174 9 is_stmt 1 view .LVU462
 2134 0206 9342     		cmp	r3, r2
 2135 0208 40F0AC80 		bne	.L202
 174:../../libs/PoliTeKDSP/libs/libDaisy/src/hid/disp/display.h ****     }
 2136              		.loc 9 174 34 is_stmt 0 view .LVU463
 2137 020c 4020     		movs	r0, #64
 2138              	.L167:
 174:../../libs/PoliTeKDSP/libs/libDaisy/src/hid/disp/display.h ****     }
 2139              		.loc 9 174 19 view .LVU464
 2140 020e 029B     		ldr	r3, [sp, #8]
 2141 0210 8342     		cmp	r3, r0
 2142 0212 08D3     		bcc	.L168
 174:../../libs/PoliTeKDSP/libs/libDaisy/src/hid/disp/display.h ****     }
 2143              		.loc 9 174 46 view .LVU465
 2144 0214 D8F80030 		ldr	r3, [r8]
 2145 0218 039A     		ldr	r2, [sp, #12]
 2146 021a 9B68     		ldr	r3, [r3, #8]
 2147 021c 9342     		cmp	r3, r2
 2148 021e 40F0AC80 		bne	.L203
 2149 0222 3F23     		movs	r3, #63
 2150 0224 0293     		str	r3, [sp, #8]
 2151              	.LVL144:
 2152              	.L168:
 174:../../libs/PoliTeKDSP/libs/libDaisy/src/hid/disp/display.h ****     }
 2153              		.loc 9 174 19 view .LVU466
 2154 0226 029B     		ldr	r3, [sp, #8]
 2155 0228 A8F80630 		strh	r3, [r8, #6]	@ movhi
 2156              	.LVL145:
 2157              	.L150:
 174:../../libs/PoliTeKDSP/libs/libDaisy/src/hid/disp/display.h ****     }
 2158              		.loc 9 174 19 view .LVU467
 2159              	.LBE1078:
 2160              	.LBE1082:
 2161              	.LBE1044:
 2162              	.LBE1043:
 445:../../libs/PoliTeKDSP/libs/libDaisy/src/hid/disp/display.h ****                != *str)
 2163              		.loc 9 445 13 view .LVU468
 2164 022c 009A     		ldr	r2, [sp]
 2165 022e 1378     		ldrb	r3, [r2]	@ zero_extendqisi2
 2166 0230 5B45     		cmp	r3, fp
 2167 0232 06D1     		bne	.L118
 2168              	.LVL146:
 443:../../libs/PoliTeKDSP/libs/libDaisy/src/hid/disp/display.h ****         {
 2169              		.loc 9 443 9 is_stmt 1 view .LVU469
 2170 0234 12F801BF 		ldrb	fp, [r2, #1]!	@ zero_extendqisi2
 2171              	.LVL147:
 443:../../libs/PoliTeKDSP/libs/libDaisy/src/hid/disp/display.h ****         {
 2172              		.loc 9 443 9 is_stmt 0 view .LVU470
 2173 0238 0092     		str	r2, [sp]
 2174 023a BBF1000F 		cmp	fp, #0
 2175 023e 7FF454AF 		bne	.L148
 2176              	.LVL148:
ARM GAS  C:\Users\matte\AppData\Local\Temp\ccrMwnXK.s 			page 74


 2177              	.L118:
 443:../../libs/PoliTeKDSP/libs/libDaisy/src/hid/disp/display.h ****         {
 2178              		.loc 9 443 9 view .LVU471
 2179              	.LBE1088:
 2180              	.LBE1091:
 471:../../libs/PoliTeKDSP/libs/libDaisy/src/hid/disp/display.h **** 
 2181              		.loc 9 471 5 view .LVU472
 2182 0242 0698     		ldr	r0, [sp, #24]
 2183 0244 09B0     		add	sp, sp, #36
 2184              		.cfi_remember_state
 2185              		.cfi_def_cfa_offset 36
 2186              		@ sp needed
 2187 0246 BDE8F08F 		pop	{r4, r5, r6, r7, r8, r9, r10, fp, pc}
 2188              	.LVL149:
 2189              	.L131:
 2190              		.cfi_restore_state
 2191              	.LBB1092:
 2192              	.LBB1014:
 250:../../libs/PoliTeKDSP/libs/libDaisy/src/hid/disp/graphics_common.h ****                 return {int16_t(x_ + (other.GetCenterX() - GetCenterX())),
 2193              		.loc 12 250 13 is_stmt 1 view .LVU473
 251:../../libs/PoliTeKDSP/libs/libDaisy/src/hid/disp/graphics_common.h ****                         int16_t(y_ + (other.GetCenterY() - GetCenterY())),
 2194              		.loc 12 251 17 view .LVU474
 2195              	.LBB850:
 2196              	.LBI850:
  62:../../libs/PoliTeKDSP/libs/libDaisy/src/hid/disp/graphics_common.h ****     int16_t GetCenterY() const { return y_ + height_ / 2; }
 2197              		.loc 12 62 13 view .LVU475
 2198              	.LBB851:
  62:../../libs/PoliTeKDSP/libs/libDaisy/src/hid/disp/graphics_common.h ****     int16_t GetCenterY() const { return y_ + height_ / 2; }
 2199              		.loc 12 62 34 view .LVU476
  62:../../libs/PoliTeKDSP/libs/libDaisy/src/hid/disp/graphics_common.h ****     int16_t GetCenterY() const { return y_ + height_ / 2; }
 2200              		.loc 12 62 34 is_stmt 0 view .LVU477
 2201              	.LBE851:
 2202              	.LBE850:
 2203              	.LBB853:
 2204              	.LBI853:
  62:../../libs/PoliTeKDSP/libs/libDaisy/src/hid/disp/graphics_common.h ****     int16_t GetCenterY() const { return y_ + height_ / 2; }
 2205              		.loc 12 62 13 is_stmt 1 view .LVU478
 2206              	.LBB854:
  62:../../libs/PoliTeKDSP/libs/libDaisy/src/hid/disp/graphics_common.h ****     int16_t GetCenterY() const { return y_ + height_ / 2; }
 2207              		.loc 12 62 34 view .LVU479
  62:../../libs/PoliTeKDSP/libs/libDaisy/src/hid/disp/graphics_common.h ****     int16_t GetCenterY() const { return y_ + height_ / 2; }
 2208              		.loc 12 62 34 is_stmt 0 view .LVU480
 2209              	.LBE854:
 2210              	.LBE853:
 2211              	.LBB855:
 2212              	.LBB852:
  62:../../libs/PoliTeKDSP/libs/libDaisy/src/hid/disp/graphics_common.h ****     int16_t GetCenterY() const { return y_ + height_ / 2; }
 2213              		.loc 12 62 53 view .LVU481
 2214 024a B4F90410 		ldrsh	r1, [r4, #4]
 2215              	.LVL150:
  62:../../libs/PoliTeKDSP/libs/libDaisy/src/hid/disp/graphics_common.h ****     int16_t GetCenterY() const { return y_ + height_ / 2; }
 2216              		.loc 12 62 44 view .LVU482
 2217 024e 2788     		ldrh	r7, [r4]
  62:../../libs/PoliTeKDSP/libs/libDaisy/src/hid/disp/graphics_common.h ****     int16_t GetCenterY() const { return y_ + height_ / 2; }
 2218              		.loc 12 62 53 view .LVU483
 2219 0250 0029     		cmp	r1, #0
 2220 0252 B8BF     		it	lt
ARM GAS  C:\Users\matte\AppData\Local\Temp\ccrMwnXK.s 			page 75


 2221 0254 0131     		addlt	r1, r1, #1
  62:../../libs/PoliTeKDSP/libs/libDaisy/src/hid/disp/graphics_common.h ****     int16_t GetCenterY() const { return y_ + height_ / 2; }
 2222              		.loc 12 62 44 view .LVU484
 2223 0256 07EB6107 		add	r7, r7, r1, asr #1
 2224              	.LBE852:
 2225              	.LBE855:
 2226              	.LBB856:
 2227              	.LBB828:
  63:../../libs/PoliTeKDSP/libs/libDaisy/src/hid/disp/graphics_common.h **** 
 2228              		.loc 12 63 54 view .LVU485
 2229 025a B4F90610 		ldrsh	r1, [r4, #6]
 2230              	.LBE828:
 2231              	.LBE856:
 251:../../libs/PoliTeKDSP/libs/libDaisy/src/hid/disp/graphics_common.h ****                         int16_t(y_ + (other.GetCenterY() - GetCenterY())),
 2232              		.loc 12 251 58 view .LVU486
 2233 025e A7EB6307 		sub	r7, r7, r3, asr #1
 2234              	.LBB857:
 2235              	.LBB829:
  63:../../libs/PoliTeKDSP/libs/libDaisy/src/hid/disp/graphics_common.h **** 
 2236              		.loc 12 63 54 view .LVU487
 2237 0262 0029     		cmp	r1, #0
 2238              	.LBE829:
 2239              	.LBE857:
 251:../../libs/PoliTeKDSP/libs/libDaisy/src/hid/disp/graphics_common.h ****                         int16_t(y_ + (other.GetCenterY() - GetCenterY())),
 2240              		.loc 12 251 58 view .LVU488
 2241 0264 BFB2     		uxth	r7, r7
 2242              	.LVL151:
 2243              	.LBB858:
 2244              	.LBI825:
  63:../../libs/PoliTeKDSP/libs/libDaisy/src/hid/disp/graphics_common.h **** 
 2245              		.loc 12 63 13 is_stmt 1 view .LVU489
 2246              	.LBB830:
  63:../../libs/PoliTeKDSP/libs/libDaisy/src/hid/disp/graphics_common.h **** 
 2247              		.loc 12 63 34 view .LVU490
  63:../../libs/PoliTeKDSP/libs/libDaisy/src/hid/disp/graphics_common.h **** 
 2248              		.loc 12 63 34 is_stmt 0 view .LVU491
 2249              	.LBE830:
 2250              	.LBE858:
 2251              	.LBB859:
 2252              	.LBI859:
  63:../../libs/PoliTeKDSP/libs/libDaisy/src/hid/disp/graphics_common.h **** 
 2253              		.loc 12 63 13 is_stmt 1 view .LVU492
 2254              	.LBB860:
  63:../../libs/PoliTeKDSP/libs/libDaisy/src/hid/disp/graphics_common.h **** 
 2255              		.loc 12 63 34 view .LVU493
  63:../../libs/PoliTeKDSP/libs/libDaisy/src/hid/disp/graphics_common.h **** 
 2256              		.loc 12 63 34 is_stmt 0 view .LVU494
 2257              	.LBE860:
 2258              	.LBE859:
 2259              	.LBB861:
 2260              	.LBB831:
  63:../../libs/PoliTeKDSP/libs/libDaisy/src/hid/disp/graphics_common.h **** 
 2261              		.loc 12 63 54 view .LVU495
 2262 0266 BFF601AF 		bge	.L138
 2263              	.L194:
  63:../../libs/PoliTeKDSP/libs/libDaisy/src/hid/disp/graphics_common.h **** 
 2264              		.loc 12 63 54 view .LVU496
ARM GAS  C:\Users\matte\AppData\Local\Temp\ccrMwnXK.s 			page 76


 2265 026a 0131     		adds	r1, r1, #1
 2266 026c FEE6     		b	.L138
 2267              	.LVL152:
 2268              	.L130:
  63:../../libs/PoliTeKDSP/libs/libDaisy/src/hid/disp/graphics_common.h **** 
 2269              		.loc 12 63 54 view .LVU497
 2270              	.LBE831:
 2271              	.LBE861:
 213:../../libs/PoliTeKDSP/libs/libDaisy/src/hid/disp/graphics_common.h ****                 return {other.x_, other.y_, width_, height_};
 2272              		.loc 12 213 13 is_stmt 1 view .LVU498
 214:../../libs/PoliTeKDSP/libs/libDaisy/src/hid/disp/graphics_common.h ****             case Alignment::topRight:
 2273              		.loc 12 214 17 view .LVU499
 214:../../libs/PoliTeKDSP/libs/libDaisy/src/hid/disp/graphics_common.h ****             case Alignment::topRight:
 2274              		.loc 12 214 31 is_stmt 0 view .LVU500
 2275 026e B4F90070 		ldrsh	r7, [r4]
 2276              	.LBB862:
 2277              	.LBB863:
 2278              	.LBB864:
  32:../../libs/PoliTeKDSP/libs/libDaisy/src/hid/disp/graphics_common.h ****     {
 2279              		.loc 12 32 66 view .LVU501
 2280 0272 0699     		ldr	r1, [sp, #24]
 2281              	.LVL153:
  32:../../libs/PoliTeKDSP/libs/libDaisy/src/hid/disp/graphics_common.h ****     {
 2282              		.loc 12 32 66 view .LVU502
 2283              	.LBE864:
 2284              	.LBE863:
 2285              	.LBE862:
 214:../../libs/PoliTeKDSP/libs/libDaisy/src/hid/disp/graphics_common.h ****             case Alignment::topRight:
 2286              		.loc 12 214 41 view .LVU503
 2287 0274 B4F90240 		ldrsh	r4, [r4, #2]
 2288              	.LVL154:
 2289              	.LBB877:
 2290              	.LBI862:
  31:../../libs/PoliTeKDSP/libs/libDaisy/src/hid/disp/graphics_common.h ****     : x_(x), y_(y), width_(max(0, width)), height_(max(0, height))
 2291              		.loc 12 31 5 is_stmt 1 view .LVU504
 2292              	.LBB872:
 2293              	.LBB867:
  32:../../libs/PoliTeKDSP/libs/libDaisy/src/hid/disp/graphics_common.h ****     {
 2294              		.loc 12 32 66 is_stmt 0 view .LVU505
 2295 0278 0F80     		strh	r7, [r1]	@ movhi
 2296              	.LBE867:
 2297              	.LBE872:
 2298              	.LBE877:
 2299              	.LBE1014:
 2300              	.LBE1092:
 468:../../libs/PoliTeKDSP/libs/libDaisy/src/hid/disp/display.h ****         ((ChildType*)(this))->ChildType::WriteString(str, font, on);
 2301              		.loc 9 468 18 view .LVU506
 2302 027a BFB2     		uxth	r7, r7
 2303              	.LVL155:
 2304              	.LBB1093:
 2305              	.LBB1015:
 2306              	.LBB878:
 2307              	.LBB873:
 2308              	.LBB868:
  32:../../libs/PoliTeKDSP/libs/libDaisy/src/hid/disp/graphics_common.h ****     {
 2309              		.loc 12 32 66 view .LVU507
 2310 027c 4C80     		strh	r4, [r1, #2]	@ movhi
ARM GAS  C:\Users\matte\AppData\Local\Temp\ccrMwnXK.s 			page 77


 2311              	.LBE868:
 2312              	.LBE873:
 2313              	.LBE878:
 2314              	.LBE1015:
 2315              	.LBE1093:
 468:../../libs/PoliTeKDSP/libs/libDaisy/src/hid/disp/display.h ****         ((ChildType*)(this))->ChildType::WriteString(str, font, on);
 2316              		.loc 9 468 18 view .LVU508
 2317 027e A4B2     		uxth	r4, r4
 2318              	.LVL156:
 2319              	.LBB1094:
 2320              	.LBB1016:
 2321              	.LBB879:
 2322              	.LBB874:
 2323              	.LBB869:
  32:../../libs/PoliTeKDSP/libs/libDaisy/src/hid/disp/graphics_common.h ****     {
 2324              		.loc 12 32 66 view .LVU509
 2325 0280 8B80     		strh	r3, [r1, #4]	@ movhi
 2326              	.LVL157:
 2327              	.LBB865:
 2328              	.LBI865:
 2329              		.loc 12 261 13 is_stmt 1 view .LVU510
 2330              	.LBE865:
 2331              	.LBE869:
 2332              	.LBE874:
 2333              	.LBE879:
 2334              	.LBE1016:
 2335              	.LBE1094:
 2336              		.loc 12 261 41 view .LVU511
 2337              	.LBB1095:
 2338              	.LBB1017:
 2339              	.LBB880:
 2340              	.LBB875:
 2341              	.LBB870:
 2342              	.LBB866:
 2343              	.LBI866:
 2344              		.loc 12 261 13 view .LVU512
 2345              	.LBE866:
 2346              	.LBE870:
 2347              	.LBE875:
 2348              	.LBE880:
 2349              	.LBE1017:
 2350              	.LBE1095:
 2351              		.loc 12 261 41 view .LVU513
 2352              	.LBB1096:
 2353              	.LBB1018:
 2354              	.LBB881:
 2355              	.LBB876:
 2356              	.LBB871:
  32:../../libs/PoliTeKDSP/libs/libDaisy/src/hid/disp/graphics_common.h ****     {
 2357              		.loc 12 32 66 is_stmt 0 view .LVU514
 2358 0282 CA80     		strh	r2, [r1, #6]	@ movhi
 2359              	.LBE871:
  34:../../libs/PoliTeKDSP/libs/libDaisy/src/hid/disp/graphics_common.h **** 
 2360              		.loc 12 34 5 view .LVU515
 2361 0284 FEE6     		b	.L132
 2362              	.LVL158:
 2363              	.L129:
ARM GAS  C:\Users\matte\AppData\Local\Temp\ccrMwnXK.s 			page 78


  34:../../libs/PoliTeKDSP/libs/libDaisy/src/hid/disp/graphics_common.h **** 
 2364              		.loc 12 34 5 view .LVU516
 2365              	.LBE876:
 2366              	.LBE881:
 220:../../libs/PoliTeKDSP/libs/libDaisy/src/hid/disp/graphics_common.h ****                 return {int16_t(x_ + (other.GetCenterX() - GetCenterX())),
 2367              		.loc 12 220 13 is_stmt 1 view .LVU517
 221:../../libs/PoliTeKDSP/libs/libDaisy/src/hid/disp/graphics_common.h ****                         other.y_,
 2368              		.loc 12 221 17 view .LVU518
 2369              	.LBB882:
 2370              	.LBI882:
  62:../../libs/PoliTeKDSP/libs/libDaisy/src/hid/disp/graphics_common.h ****     int16_t GetCenterY() const { return y_ + height_ / 2; }
 2371              		.loc 12 62 13 view .LVU519
 2372              	.LBB883:
  62:../../libs/PoliTeKDSP/libs/libDaisy/src/hid/disp/graphics_common.h ****     int16_t GetCenterY() const { return y_ + height_ / 2; }
 2373              		.loc 12 62 34 view .LVU520
  62:../../libs/PoliTeKDSP/libs/libDaisy/src/hid/disp/graphics_common.h ****     int16_t GetCenterY() const { return y_ + height_ / 2; }
 2374              		.loc 12 62 34 is_stmt 0 view .LVU521
 2375              	.LBE883:
 2376              	.LBE882:
 2377              	.LBB886:
 2378              	.LBI886:
  62:../../libs/PoliTeKDSP/libs/libDaisy/src/hid/disp/graphics_common.h ****     int16_t GetCenterY() const { return y_ + height_ / 2; }
 2379              		.loc 12 62 13 is_stmt 1 view .LVU522
 2380              	.LBB887:
  62:../../libs/PoliTeKDSP/libs/libDaisy/src/hid/disp/graphics_common.h ****     int16_t GetCenterY() const { return y_ + height_ / 2; }
 2381              		.loc 12 62 34 view .LVU523
  62:../../libs/PoliTeKDSP/libs/libDaisy/src/hid/disp/graphics_common.h ****     int16_t GetCenterY() const { return y_ + height_ / 2; }
 2382              		.loc 12 62 34 is_stmt 0 view .LVU524
 2383              	.LBE887:
 2384              	.LBE886:
 2385              	.LBB888:
 2386              	.LBB884:
  62:../../libs/PoliTeKDSP/libs/libDaisy/src/hid/disp/graphics_common.h ****     int16_t GetCenterY() const { return y_ + height_ / 2; }
 2387              		.loc 12 62 53 view .LVU525
 2388 0286 B4F90410 		ldrsh	r1, [r4, #4]
 2389              	.LVL159:
  62:../../libs/PoliTeKDSP/libs/libDaisy/src/hid/disp/graphics_common.h ****     int16_t GetCenterY() const { return y_ + height_ / 2; }
 2390              		.loc 12 62 44 view .LVU526
 2391 028a 2788     		ldrh	r7, [r4]
  62:../../libs/PoliTeKDSP/libs/libDaisy/src/hid/disp/graphics_common.h ****     int16_t GetCenterY() const { return y_ + height_ / 2; }
 2392              		.loc 12 62 53 view .LVU527
 2393 028c 0029     		cmp	r1, #0
 2394              	.LBE884:
 2395              	.LBE888:
 222:../../libs/PoliTeKDSP/libs/libDaisy/src/hid/disp/graphics_common.h ****                         width_,
 2396              		.loc 12 222 31 view .LVU528
 2397 028e B4F90240 		ldrsh	r4, [r4, #2]
 2398              	.LVL160:
 2399              	.LBB889:
 2400              	.LBB885:
  62:../../libs/PoliTeKDSP/libs/libDaisy/src/hid/disp/graphics_common.h ****     int16_t GetCenterY() const { return y_ + height_ / 2; }
 2401              		.loc 12 62 53 view .LVU529
 2402 0292 B8BF     		it	lt
 2403 0294 0131     		addlt	r1, r1, #1
  62:../../libs/PoliTeKDSP/libs/libDaisy/src/hid/disp/graphics_common.h ****     int16_t GetCenterY() const { return y_ + height_ / 2; }
 2404              		.loc 12 62 44 view .LVU530
 2405 0296 07EB6107 		add	r7, r7, r1, asr #1
ARM GAS  C:\Users\matte\AppData\Local\Temp\ccrMwnXK.s 			page 79


 2406              	.LBE885:
 2407              	.LBE889:
 2408              	.LBB890:
 2409              	.LBB891:
 2410              	.LBB892:
  32:../../libs/PoliTeKDSP/libs/libDaisy/src/hid/disp/graphics_common.h ****     {
 2411              		.loc 12 32 66 view .LVU531
 2412 029a 0699     		ldr	r1, [sp, #24]
 2413 029c 8B80     		strh	r3, [r1, #4]	@ movhi
 2414              	.LBE892:
 2415              	.LBE891:
 2416              	.LBE890:
 221:../../libs/PoliTeKDSP/libs/libDaisy/src/hid/disp/graphics_common.h ****                         other.y_,
 2417              		.loc 12 221 58 view .LVU532
 2418 029e A7EB6303 		sub	r3, r7, r3, asr #1
 2419              	.LBB903:
 2420              	.LBB899:
 2421              	.LBB895:
  32:../../libs/PoliTeKDSP/libs/libDaisy/src/hid/disp/graphics_common.h ****     {
 2422              		.loc 12 32 66 view .LVU533
 2423 02a2 4C80     		strh	r4, [r1, #2]	@ movhi
 2424              	.LBE895:
 2425              	.LBE899:
 2426              	.LBE903:
 2427              	.LBE1018:
 2428              	.LBE1096:
 468:../../libs/PoliTeKDSP/libs/libDaisy/src/hid/disp/display.h ****         ((ChildType*)(this))->ChildType::WriteString(str, font, on);
 2429              		.loc 9 468 18 view .LVU534
 2430 02a4 A4B2     		uxth	r4, r4
 2431              	.LBB1097:
 2432              	.LBB1019:
 221:../../libs/PoliTeKDSP/libs/libDaisy/src/hid/disp/graphics_common.h ****                         other.y_,
 2433              		.loc 12 221 58 view .LVU535
 2434 02a6 9FB2     		uxth	r7, r3
 2435              	.LVL161:
 2436              	.LBB904:
 2437              	.LBI890:
  31:../../libs/PoliTeKDSP/libs/libDaisy/src/hid/disp/graphics_common.h ****     : x_(x), y_(y), width_(max(0, width)), height_(max(0, height))
 2438              		.loc 12 31 5 is_stmt 1 view .LVU536
 2439              	.LBB900:
 2440              	.LBB896:
 2441              	.LBB893:
 2442              	.LBI893:
 2443              		.loc 12 261 13 view .LVU537
 2444              	.LBE893:
 2445              	.LBE896:
 2446              	.LBE900:
 2447              	.LBE904:
 2448              	.LBE1019:
 2449              	.LBE1097:
 2450              		.loc 12 261 41 view .LVU538
 2451              	.LBB1098:
 2452              	.LBB1020:
 2453              	.LBB905:
 2454              	.LBB901:
 2455              	.LBB897:
 2456              	.LBB894:
ARM GAS  C:\Users\matte\AppData\Local\Temp\ccrMwnXK.s 			page 80


 2457              	.LBI894:
 2458              		.loc 12 261 13 view .LVU539
 2459              	.LBE894:
 2460              	.LBE897:
 2461              	.LBE901:
 2462              	.LBE905:
 2463              	.LBE1020:
 2464              	.LBE1098:
 2465              		.loc 12 261 41 view .LVU540
 2466              	.LBB1099:
 2467              	.LBB1021:
 2468              	.LBB906:
 2469              	.LBB902:
 2470              	.LBB898:
  32:../../libs/PoliTeKDSP/libs/libDaisy/src/hid/disp/graphics_common.h ****     {
 2471              		.loc 12 32 66 is_stmt 0 view .LVU541
 2472 02a8 CA80     		strh	r2, [r1, #6]	@ movhi
 2473 02aa 0F80     		strh	r7, [r1]	@ movhi
 2474              	.LBE898:
  34:../../libs/PoliTeKDSP/libs/libDaisy/src/hid/disp/graphics_common.h **** 
 2475              		.loc 12 34 5 view .LVU542
 2476 02ac EAE6     		b	.L132
 2477              	.LVL162:
 2478              	.L128:
  34:../../libs/PoliTeKDSP/libs/libDaisy/src/hid/disp/graphics_common.h **** 
 2479              		.loc 12 34 5 view .LVU543
 2480              	.LBE902:
 2481              	.LBE906:
 215:../../libs/PoliTeKDSP/libs/libDaisy/src/hid/disp/graphics_common.h ****                 return {int16_t(other.GetRight() - width_),
 2482              		.loc 12 215 13 is_stmt 1 view .LVU544
 216:../../libs/PoliTeKDSP/libs/libDaisy/src/hid/disp/graphics_common.h ****                         other.y_,
 2483              		.loc 12 216 17 view .LVU545
 2484              	.LBB907:
 2485              	.LBI907:
  60:../../libs/PoliTeKDSP/libs/libDaisy/src/hid/disp/graphics_common.h ****     int16_t GetBottom() const { return y_ + height_; }
 2486              		.loc 12 60 13 view .LVU546
 2487              	.LBB908:
  60:../../libs/PoliTeKDSP/libs/libDaisy/src/hid/disp/graphics_common.h ****     int16_t GetBottom() const { return y_ + height_; }
 2488              		.loc 12 60 32 view .LVU547
  60:../../libs/PoliTeKDSP/libs/libDaisy/src/hid/disp/graphics_common.h ****     int16_t GetBottom() const { return y_ + height_; }
 2489              		.loc 12 60 42 is_stmt 0 view .LVU548
 2490 02ae A188     		ldrh	r1, [r4, #4]
 2491              	.LVL163:
  60:../../libs/PoliTeKDSP/libs/libDaisy/src/hid/disp/graphics_common.h ****     int16_t GetBottom() const { return y_ + height_; }
 2492              		.loc 12 60 42 view .LVU549
 2493 02b0 2788     		ldrh	r7, [r4]
 2494              	.LBE908:
 2495              	.LBE907:
 217:../../libs/PoliTeKDSP/libs/libDaisy/src/hid/disp/graphics_common.h ****                         width_,
 2496              		.loc 12 217 31 view .LVU550
 2497 02b2 B4F90240 		ldrsh	r4, [r4, #2]
 2498              	.LVL164:
 2499              	.LBB910:
 2500              	.LBB909:
  60:../../libs/PoliTeKDSP/libs/libDaisy/src/hid/disp/graphics_common.h ****     int16_t GetBottom() const { return y_ + height_; }
 2501              		.loc 12 60 42 view .LVU551
 2502 02b6 0F44     		add	r7, r7, r1
ARM GAS  C:\Users\matte\AppData\Local\Temp\ccrMwnXK.s 			page 81


 2503              	.LBE909:
 2504              	.LBE910:
 2505              	.LBB911:
 2506              	.LBB912:
 2507              	.LBB913:
  32:../../libs/PoliTeKDSP/libs/libDaisy/src/hid/disp/graphics_common.h ****     {
 2508              		.loc 12 32 66 view .LVU552
 2509 02b8 0699     		ldr	r1, [sp, #24]
 2510 02ba 8B80     		strh	r3, [r1, #4]	@ movhi
 2511              	.LBE913:
 2512              	.LBE912:
 2513              	.LBE911:
 216:../../libs/PoliTeKDSP/libs/libDaisy/src/hid/disp/graphics_common.h ****                         other.y_,
 2514              		.loc 12 216 50 view .LVU553
 2515 02bc FB1A     		subs	r3, r7, r3
 2516              	.LBB924:
 2517              	.LBB920:
 2518              	.LBB916:
  32:../../libs/PoliTeKDSP/libs/libDaisy/src/hid/disp/graphics_common.h ****     {
 2519              		.loc 12 32 66 view .LVU554
 2520 02be 4C80     		strh	r4, [r1, #2]	@ movhi
 2521              	.LBE916:
 2522              	.LBE920:
 2523              	.LBE924:
 2524              	.LBE1021:
 2525              	.LBE1099:
 468:../../libs/PoliTeKDSP/libs/libDaisy/src/hid/disp/display.h ****         ((ChildType*)(this))->ChildType::WriteString(str, font, on);
 2526              		.loc 9 468 18 view .LVU555
 2527 02c0 A4B2     		uxth	r4, r4
 2528              	.LBB1100:
 2529              	.LBB1022:
 216:../../libs/PoliTeKDSP/libs/libDaisy/src/hid/disp/graphics_common.h ****                         other.y_,
 2530              		.loc 12 216 50 view .LVU556
 2531 02c2 9FB2     		uxth	r7, r3
 2532              	.LVL165:
 2533              	.LBB925:
 2534              	.LBI911:
  31:../../libs/PoliTeKDSP/libs/libDaisy/src/hid/disp/graphics_common.h ****     : x_(x), y_(y), width_(max(0, width)), height_(max(0, height))
 2535              		.loc 12 31 5 is_stmt 1 view .LVU557
 2536              	.LBB921:
 2537              	.LBB917:
 2538              	.LBB914:
 2539              	.LBI914:
 2540              		.loc 12 261 13 view .LVU558
 2541              	.LBE914:
 2542              	.LBE917:
 2543              	.LBE921:
 2544              	.LBE925:
 2545              	.LBE1022:
 2546              	.LBE1100:
 2547              		.loc 12 261 41 view .LVU559
 2548              	.LBB1101:
 2549              	.LBB1023:
 2550              	.LBB926:
 2551              	.LBB922:
 2552              	.LBB918:
 2553              	.LBB915:
ARM GAS  C:\Users\matte\AppData\Local\Temp\ccrMwnXK.s 			page 82


 2554              	.LBI915:
 2555              		.loc 12 261 13 view .LVU560
 2556              	.LBE915:
 2557              	.LBE918:
 2558              	.LBE922:
 2559              	.LBE926:
 2560              	.LBE1023:
 2561              	.LBE1101:
 2562              		.loc 12 261 41 view .LVU561
 2563              	.LBB1102:
 2564              	.LBB1024:
 2565              	.LBB927:
 2566              	.LBB923:
 2567              	.LBB919:
  32:../../libs/PoliTeKDSP/libs/libDaisy/src/hid/disp/graphics_common.h ****     {
 2568              		.loc 12 32 66 is_stmt 0 view .LVU562
 2569 02c4 CA80     		strh	r2, [r1, #6]	@ movhi
 2570 02c6 0F80     		strh	r7, [r1]	@ movhi
 2571              	.LBE919:
  34:../../libs/PoliTeKDSP/libs/libDaisy/src/hid/disp/graphics_common.h **** 
 2572              		.loc 12 34 5 view .LVU563
 2573 02c8 DCE6     		b	.L132
 2574              	.LVL166:
 2575              	.L127:
  34:../../libs/PoliTeKDSP/libs/libDaisy/src/hid/disp/graphics_common.h **** 
 2576              		.loc 12 34 5 view .LVU564
 2577              	.LBE923:
 2578              	.LBE927:
 225:../../libs/PoliTeKDSP/libs/libDaisy/src/hid/disp/graphics_common.h ****                 return {other.x_,
 2579              		.loc 12 225 13 is_stmt 1 view .LVU565
 226:../../libs/PoliTeKDSP/libs/libDaisy/src/hid/disp/graphics_common.h ****                         int16_t(other.GetBottom() - height_),
 2580              		.loc 12 226 17 view .LVU566
 2581              	.LBB928:
 2582              	.LBB929:
  61:../../libs/PoliTeKDSP/libs/libDaisy/src/hid/disp/graphics_common.h ****     int16_t GetCenterX() const { return x_ + width_ / 2; }
 2583              		.loc 12 61 43 is_stmt 0 view .LVU567
 2584 02ca E788     		ldrh	r7, [r4, #6]
 2585 02cc 6188     		ldrh	r1, [r4, #2]
 2586              	.LVL167:
  61:../../libs/PoliTeKDSP/libs/libDaisy/src/hid/disp/graphics_common.h ****     int16_t GetCenterX() const { return x_ + width_ / 2; }
 2587              		.loc 12 61 43 view .LVU568
 2588 02ce 3944     		add	r1, r1, r7
 2589              	.LBE929:
 2590              	.LBE928:
 226:../../libs/PoliTeKDSP/libs/libDaisy/src/hid/disp/graphics_common.h ****                         int16_t(other.GetBottom() - height_),
 2591              		.loc 12 226 31 view .LVU569
 2592 02d0 B4F90070 		ldrsh	r7, [r4]
 227:../../libs/PoliTeKDSP/libs/libDaisy/src/hid/disp/graphics_common.h ****                         width_,
 2593              		.loc 12 227 51 view .LVU570
 2594 02d4 081A     		subs	r0, r1, r0
 2595              	.LVL168:
 2596              	.LBB931:
 2597              	.LBI928:
  61:../../libs/PoliTeKDSP/libs/libDaisy/src/hid/disp/graphics_common.h ****     int16_t GetCenterX() const { return x_ + width_ / 2; }
 2598              		.loc 12 61 13 is_stmt 1 view .LVU571
 2599              	.LBB930:
  61:../../libs/PoliTeKDSP/libs/libDaisy/src/hid/disp/graphics_common.h ****     int16_t GetCenterX() const { return x_ + width_ / 2; }
ARM GAS  C:\Users\matte\AppData\Local\Temp\ccrMwnXK.s 			page 83


 2600              		.loc 12 61 33 view .LVU572
  61:../../libs/PoliTeKDSP/libs/libDaisy/src/hid/disp/graphics_common.h ****     int16_t GetCenterX() const { return x_ + width_ / 2; }
 2601              		.loc 12 61 33 is_stmt 0 view .LVU573
 2602              	.LBE930:
 2603              	.LBE931:
 2604              	.LBB932:
 2605              	.LBB933:
 2606              	.LBB934:
  32:../../libs/PoliTeKDSP/libs/libDaisy/src/hid/disp/graphics_common.h ****     {
 2607              		.loc 12 32 66 view .LVU574
 2608 02d6 0699     		ldr	r1, [sp, #24]
 2609              	.LBE934:
 2610              	.LBE933:
 2611              	.LBE932:
 227:../../libs/PoliTeKDSP/libs/libDaisy/src/hid/disp/graphics_common.h ****                         width_,
 2612              		.loc 12 227 51 view .LVU575
 2613 02d8 84B2     		uxth	r4, r0
 2614              	.LVL169:
 2615              	.LBB944:
 2616              	.LBB940:
 2617              	.LBB937:
  32:../../libs/PoliTeKDSP/libs/libDaisy/src/hid/disp/graphics_common.h ****     {
 2618              		.loc 12 32 66 view .LVU576
 2619 02da 0F80     		strh	r7, [r1]	@ movhi
 2620 02dc 8B80     		strh	r3, [r1, #4]	@ movhi
 2621              	.LVL170:
  32:../../libs/PoliTeKDSP/libs/libDaisy/src/hid/disp/graphics_common.h ****     {
 2622              		.loc 12 32 66 view .LVU577
 2623              	.LBE937:
 2624              	.LBE940:
 2625              	.LBI932:
  31:../../libs/PoliTeKDSP/libs/libDaisy/src/hid/disp/graphics_common.h ****     : x_(x), y_(y), width_(max(0, width)), height_(max(0, height))
 2626              		.loc 12 31 5 is_stmt 1 view .LVU578
 2627              	.LBE944:
 2628              	.LBE1024:
 2629              	.LBE1102:
 468:../../libs/PoliTeKDSP/libs/libDaisy/src/hid/disp/display.h ****         ((ChildType*)(this))->ChildType::WriteString(str, font, on);
 2630              		.loc 9 468 18 is_stmt 0 view .LVU579
 2631 02de BFB2     		uxth	r7, r7
 2632              	.LVL171:
 2633              	.LBB1103:
 2634              	.LBB1025:
 2635              	.LBB945:
 2636              	.LBB941:
 2637              	.LBB938:
  32:../../libs/PoliTeKDSP/libs/libDaisy/src/hid/disp/graphics_common.h ****     {
 2638              		.loc 12 32 66 view .LVU580
 2639 02e0 CA80     		strh	r2, [r1, #6]	@ movhi
 2640 02e2 4C80     		strh	r4, [r1, #2]	@ movhi
 2641              	.LVL172:
 2642              	.LBB935:
 2643              	.LBI935:
 2644              		.loc 12 261 13 is_stmt 1 view .LVU581
 2645              	.LBE935:
 2646              	.LBE938:
 2647              	.LBE941:
 2648              	.LBE945:
ARM GAS  C:\Users\matte\AppData\Local\Temp\ccrMwnXK.s 			page 84


 2649              	.LBE1025:
 2650              	.LBE1103:
 2651              		.loc 12 261 41 view .LVU582
 2652              	.LBB1104:
 2653              	.LBB1026:
 2654              	.LBB946:
 2655              	.LBB942:
 2656              	.LBB939:
 2657              	.LBB936:
 2658              	.LBI936:
 2659              		.loc 12 261 13 view .LVU583
 2660              	.LBE936:
 2661              	.LBE939:
 2662              	.LBE942:
 2663              	.LBE946:
 2664              	.LBE1026:
 2665              	.LBE1104:
 2666              		.loc 12 261 41 view .LVU584
 2667              	.LBB1105:
 2668              	.LBB1027:
 2669              	.LBB947:
 2670              	.LBB943:
  34:../../libs/PoliTeKDSP/libs/libDaisy/src/hid/disp/graphics_common.h **** 
 2671              		.loc 12 34 5 is_stmt 0 view .LVU585
 2672 02e4 CEE6     		b	.L132
 2673              	.LVL173:
 2674              	.L126:
  34:../../libs/PoliTeKDSP/libs/libDaisy/src/hid/disp/graphics_common.h **** 
 2675              		.loc 12 34 5 view .LVU586
 2676              	.LBE943:
 2677              	.LBE947:
 235:../../libs/PoliTeKDSP/libs/libDaisy/src/hid/disp/graphics_common.h ****                 return {int16_t(x_ + (other.GetCenterX() - GetCenterX())),
 2678              		.loc 12 235 13 is_stmt 1 view .LVU587
 236:../../libs/PoliTeKDSP/libs/libDaisy/src/hid/disp/graphics_common.h ****                         int16_t(other.GetBottom() - height_),
 2679              		.loc 12 236 17 view .LVU588
 2680              	.LBB948:
 2681              	.LBI948:
  62:../../libs/PoliTeKDSP/libs/libDaisy/src/hid/disp/graphics_common.h ****     int16_t GetCenterY() const { return y_ + height_ / 2; }
 2682              		.loc 12 62 13 view .LVU589
 2683              	.LBB949:
  62:../../libs/PoliTeKDSP/libs/libDaisy/src/hid/disp/graphics_common.h ****     int16_t GetCenterY() const { return y_ + height_ / 2; }
 2684              		.loc 12 62 34 view .LVU590
  62:../../libs/PoliTeKDSP/libs/libDaisy/src/hid/disp/graphics_common.h ****     int16_t GetCenterY() const { return y_ + height_ / 2; }
 2685              		.loc 12 62 34 is_stmt 0 view .LVU591
 2686              	.LBE949:
 2687              	.LBE948:
 2688              	.LBB951:
 2689              	.LBI951:
  62:../../libs/PoliTeKDSP/libs/libDaisy/src/hid/disp/graphics_common.h ****     int16_t GetCenterY() const { return y_ + height_ / 2; }
 2690              		.loc 12 62 13 is_stmt 1 view .LVU592
 2691              	.LBB952:
  62:../../libs/PoliTeKDSP/libs/libDaisy/src/hid/disp/graphics_common.h ****     int16_t GetCenterY() const { return y_ + height_ / 2; }
 2692              		.loc 12 62 34 view .LVU593
  62:../../libs/PoliTeKDSP/libs/libDaisy/src/hid/disp/graphics_common.h ****     int16_t GetCenterY() const { return y_ + height_ / 2; }
 2693              		.loc 12 62 34 is_stmt 0 view .LVU594
 2694              	.LBE952:
 2695              	.LBE951:
ARM GAS  C:\Users\matte\AppData\Local\Temp\ccrMwnXK.s 			page 85


 2696              	.LBB953:
 2697              	.LBB950:
  62:../../libs/PoliTeKDSP/libs/libDaisy/src/hid/disp/graphics_common.h ****     int16_t GetCenterY() const { return y_ + height_ / 2; }
 2698              		.loc 12 62 53 view .LVU595
 2699 02e6 B4F90410 		ldrsh	r1, [r4, #4]
 2700              	.LVL174:
  62:../../libs/PoliTeKDSP/libs/libDaisy/src/hid/disp/graphics_common.h ****     int16_t GetCenterY() const { return y_ + height_ / 2; }
 2701              		.loc 12 62 44 view .LVU596
 2702 02ea 2788     		ldrh	r7, [r4]
  62:../../libs/PoliTeKDSP/libs/libDaisy/src/hid/disp/graphics_common.h ****     int16_t GetCenterY() const { return y_ + height_ / 2; }
 2703              		.loc 12 62 53 view .LVU597
 2704 02ec 0029     		cmp	r1, #0
 2705 02ee B8BF     		it	lt
 2706 02f0 0131     		addlt	r1, r1, #1
  62:../../libs/PoliTeKDSP/libs/libDaisy/src/hid/disp/graphics_common.h ****     int16_t GetCenterY() const { return y_ + height_ / 2; }
 2707              		.loc 12 62 44 view .LVU598
 2708 02f2 07EB6107 		add	r7, r7, r1, asr #1
 2709              	.LBE950:
 2710              	.LBE953:
 236:../../libs/PoliTeKDSP/libs/libDaisy/src/hid/disp/graphics_common.h ****                         int16_t(other.GetBottom() - height_),
 2711              		.loc 12 236 58 view .LVU599
 2712 02f6 A7EB6307 		sub	r7, r7, r3, asr #1
 2713              	.L192:
 2714              	.LBB954:
 2715              	.LBB955:
  61:../../libs/PoliTeKDSP/libs/libDaisy/src/hid/disp/graphics_common.h ****     int16_t GetCenterX() const { return x_ + width_ / 2; }
 2716              		.loc 12 61 43 view .LVU600
 2717 02fa B4F802C0 		ldrh	ip, [r4, #2]
 2718              	.LBE955:
 2719              	.LBE954:
 236:../../libs/PoliTeKDSP/libs/libDaisy/src/hid/disp/graphics_common.h ****                         int16_t(other.GetBottom() - height_),
 2720              		.loc 12 236 58 view .LVU601
 2721 02fe BFB2     		uxth	r7, r7
 2722              	.LVL175:
 2723              	.LBB958:
 2724              	.LBI954:
  61:../../libs/PoliTeKDSP/libs/libDaisy/src/hid/disp/graphics_common.h ****     int16_t GetCenterX() const { return x_ + width_ / 2; }
 2725              		.loc 12 61 13 is_stmt 1 view .LVU602
 2726              	.LBB956:
  61:../../libs/PoliTeKDSP/libs/libDaisy/src/hid/disp/graphics_common.h ****     int16_t GetCenterX() const { return x_ + width_ / 2; }
 2727              		.loc 12 61 33 view .LVU603
  61:../../libs/PoliTeKDSP/libs/libDaisy/src/hid/disp/graphics_common.h ****     int16_t GetCenterX() const { return x_ + width_ / 2; }
 2728              		.loc 12 61 43 is_stmt 0 view .LVU604
 2729 0300 E488     		ldrh	r4, [r4, #6]
 2730              	.LVL176:
  61:../../libs/PoliTeKDSP/libs/libDaisy/src/hid/disp/graphics_common.h ****     int16_t GetCenterX() const { return x_ + width_ / 2; }
 2731              		.loc 12 61 43 view .LVU605
 2732              	.LBE956:
 2733              	.LBE958:
 2734              	.LBB959:
 2735              	.LBB960:
 2736              	.LBB961:
  32:../../libs/PoliTeKDSP/libs/libDaisy/src/hid/disp/graphics_common.h ****     {
 2737              		.loc 12 32 66 view .LVU606
 2738 0302 0699     		ldr	r1, [sp, #24]
 2739              	.LBE961:
 2740              	.LBE960:
ARM GAS  C:\Users\matte\AppData\Local\Temp\ccrMwnXK.s 			page 86


 2741              	.LBE959:
 2742              	.LBB973:
 2743              	.LBB957:
  61:../../libs/PoliTeKDSP/libs/libDaisy/src/hid/disp/graphics_common.h ****     int16_t GetCenterX() const { return x_ + width_ / 2; }
 2744              		.loc 12 61 43 view .LVU607
 2745 0304 6444     		add	r4, r4, ip
 2746              	.LBE957:
 2747              	.LBE973:
 2748              	.LBB974:
 2749              	.LBB968:
 2750              	.LBB964:
  32:../../libs/PoliTeKDSP/libs/libDaisy/src/hid/disp/graphics_common.h ****     {
 2751              		.loc 12 32 66 view .LVU608
 2752 0306 8B80     		strh	r3, [r1, #4]	@ movhi
 2753              	.LBE964:
 2754              	.LBE968:
 2755              	.LBE974:
 237:../../libs/PoliTeKDSP/libs/libDaisy/src/hid/disp/graphics_common.h ****                         width_,
 2756              		.loc 12 237 51 view .LVU609
 2757 0308 201A     		subs	r0, r4, r0
 2758              	.LBB975:
 2759              	.LBB969:
 2760              	.LBB965:
  32:../../libs/PoliTeKDSP/libs/libDaisy/src/hid/disp/graphics_common.h ****     {
 2761              		.loc 12 32 66 view .LVU610
 2762 030a CA80     		strh	r2, [r1, #6]	@ movhi
 2763 030c 0F80     		strh	r7, [r1]	@ movhi
 2764              	.LBE965:
 2765              	.LBE969:
 2766              	.LBE975:
 237:../../libs/PoliTeKDSP/libs/libDaisy/src/hid/disp/graphics_common.h ****                         width_,
 2767              		.loc 12 237 51 view .LVU611
 2768 030e 84B2     		uxth	r4, r0
 2769              	.LVL177:
 2770              	.LBB976:
 2771              	.LBI959:
  31:../../libs/PoliTeKDSP/libs/libDaisy/src/hid/disp/graphics_common.h ****     : x_(x), y_(y), width_(max(0, width)), height_(max(0, height))
 2772              		.loc 12 31 5 is_stmt 1 view .LVU612
 2773              	.LBB970:
 2774              	.LBB966:
  32:../../libs/PoliTeKDSP/libs/libDaisy/src/hid/disp/graphics_common.h ****     {
 2775              		.loc 12 32 66 is_stmt 0 view .LVU613
 2776 0310 4C80     		strh	r4, [r1, #2]	@ movhi
 2777              	.LVL178:
 2778              	.LBB962:
 2779              	.LBI962:
 2780              		.loc 12 261 13 is_stmt 1 view .LVU614
 2781              	.LBE962:
 2782              	.LBE966:
 2783              	.LBE970:
 2784              	.LBE976:
 2785              	.LBE1027:
 2786              	.LBE1105:
 2787              		.loc 12 261 41 view .LVU615
 2788              	.LBB1106:
 2789              	.LBB1028:
 2790              	.LBB977:
ARM GAS  C:\Users\matte\AppData\Local\Temp\ccrMwnXK.s 			page 87


 2791              	.LBB971:
 2792              	.LBB967:
 2793              	.LBB963:
 2794              	.LBI963:
 2795              		.loc 12 261 13 view .LVU616
 2796              	.LBE963:
 2797              	.LBE967:
 2798              	.LBE971:
 2799              	.LBE977:
 2800              	.LBE1028:
 2801              	.LBE1106:
 2802              		.loc 12 261 41 view .LVU617
 2803              	.LBB1107:
 2804              	.LBB1029:
 2805              	.LBB978:
 2806              	.LBB972:
  34:../../libs/PoliTeKDSP/libs/libDaisy/src/hid/disp/graphics_common.h **** 
 2807              		.loc 12 34 5 is_stmt 0 view .LVU618
 2808 0312 B7E6     		b	.L132
 2809              	.LVL179:
 2810              	.L125:
  34:../../libs/PoliTeKDSP/libs/libDaisy/src/hid/disp/graphics_common.h **** 
 2811              		.loc 12 34 5 view .LVU619
 2812              	.LBE972:
 2813              	.LBE978:
 230:../../libs/PoliTeKDSP/libs/libDaisy/src/hid/disp/graphics_common.h ****                 return {int16_t(other.GetRight() - width_),
 2814              		.loc 12 230 13 is_stmt 1 view .LVU620
 231:../../libs/PoliTeKDSP/libs/libDaisy/src/hid/disp/graphics_common.h ****                         int16_t(other.GetBottom() - height_),
 2815              		.loc 12 231 17 view .LVU621
 2816              	.LBB979:
 2817              	.LBI979:
  60:../../libs/PoliTeKDSP/libs/libDaisy/src/hid/disp/graphics_common.h ****     int16_t GetBottom() const { return y_ + height_; }
 2818              		.loc 12 60 13 view .LVU622
 2819              	.LBB980:
  60:../../libs/PoliTeKDSP/libs/libDaisy/src/hid/disp/graphics_common.h ****     int16_t GetBottom() const { return y_ + height_; }
 2820              		.loc 12 60 32 view .LVU623
  60:../../libs/PoliTeKDSP/libs/libDaisy/src/hid/disp/graphics_common.h ****     int16_t GetBottom() const { return y_ + height_; }
 2821              		.loc 12 60 42 is_stmt 0 view .LVU624
 2822 0314 2788     		ldrh	r7, [r4]
 2823 0316 A188     		ldrh	r1, [r4, #4]
 2824              	.LVL180:
  60:../../libs/PoliTeKDSP/libs/libDaisy/src/hid/disp/graphics_common.h ****     int16_t GetBottom() const { return y_ + height_; }
 2825              		.loc 12 60 42 view .LVU625
 2826 0318 0F44     		add	r7, r7, r1
 2827              	.LBE980:
 2828              	.LBE979:
 231:../../libs/PoliTeKDSP/libs/libDaisy/src/hid/disp/graphics_common.h ****                         int16_t(other.GetBottom() - height_),
 2829              		.loc 12 231 50 view .LVU626
 2830 031a FF1A     		subs	r7, r7, r3
 2831 031c EDE7     		b	.L192
 2832              	.L205:
 2833 031e 00BF     		.align	2
 2834              	.L204:
 2835 0320 00000000 		.word	_ZNK5daisy11OledDisplayINS_13SSD130xDriverILj128ELj64ENS_19SSD130xI2CTransportEEEE5WidthEv
 2836 0324 00000000 		.word	_ZNK5daisy11OledDisplayINS_13SSD130xDriverILj128ELj64ENS_19SSD130xI2CTransportEEEE6HeightEv
 2837              	.LVL181:
 2838              	.L124:
ARM GAS  C:\Users\matte\AppData\Local\Temp\ccrMwnXK.s 			page 88


 240:../../libs/PoliTeKDSP/libs/libDaisy/src/hid/disp/graphics_common.h ****                 return {other.x_,
 2839              		.loc 12 240 13 is_stmt 1 view .LVU627
 241:../../libs/PoliTeKDSP/libs/libDaisy/src/hid/disp/graphics_common.h ****                         int16_t(y_ + (other.GetCenterY() - GetCenterY())),
 2840              		.loc 12 241 17 view .LVU628
 2841              	.LBB981:
 2842              	.LBB982:
  63:../../libs/PoliTeKDSP/libs/libDaisy/src/hid/disp/graphics_common.h **** 
 2843              		.loc 12 63 54 is_stmt 0 view .LVU629
 2844 0328 B4F90610 		ldrsh	r1, [r4, #6]
 2845              	.LVL182:
  63:../../libs/PoliTeKDSP/libs/libDaisy/src/hid/disp/graphics_common.h **** 
 2846              		.loc 12 63 44 view .LVU630
 2847 032c B4F802C0 		ldrh	ip, [r4, #2]
  63:../../libs/PoliTeKDSP/libs/libDaisy/src/hid/disp/graphics_common.h **** 
 2848              		.loc 12 63 54 view .LVU631
 2849 0330 0029     		cmp	r1, #0
 2850              	.LBE982:
 2851              	.LBE981:
 241:../../libs/PoliTeKDSP/libs/libDaisy/src/hid/disp/graphics_common.h ****                         int16_t(y_ + (other.GetCenterY() - GetCenterY())),
 2852              		.loc 12 241 31 view .LVU632
 2853 0332 B4F90070 		ldrsh	r7, [r4]
 2854              	.LVL183:
 2855              	.LBB986:
 2856              	.LBI981:
  63:../../libs/PoliTeKDSP/libs/libDaisy/src/hid/disp/graphics_common.h **** 
 2857              		.loc 12 63 13 is_stmt 1 view .LVU633
 2858              	.LBB983:
  63:../../libs/PoliTeKDSP/libs/libDaisy/src/hid/disp/graphics_common.h **** 
 2859              		.loc 12 63 34 view .LVU634
  63:../../libs/PoliTeKDSP/libs/libDaisy/src/hid/disp/graphics_common.h **** 
 2860              		.loc 12 63 34 is_stmt 0 view .LVU635
 2861              	.LBE983:
 2862              	.LBE986:
 2863              	.LBB987:
 2864              	.LBI987:
  63:../../libs/PoliTeKDSP/libs/libDaisy/src/hid/disp/graphics_common.h **** 
 2865              		.loc 12 63 13 is_stmt 1 view .LVU636
 2866              	.LBB988:
  63:../../libs/PoliTeKDSP/libs/libDaisy/src/hid/disp/graphics_common.h **** 
 2867              		.loc 12 63 34 view .LVU637
  63:../../libs/PoliTeKDSP/libs/libDaisy/src/hid/disp/graphics_common.h **** 
 2868              		.loc 12 63 34 is_stmt 0 view .LVU638
 2869              	.LBE988:
 2870              	.LBE987:
 2871              	.LBB989:
 2872              	.LBB990:
 2873              	.LBB991:
  32:../../libs/PoliTeKDSP/libs/libDaisy/src/hid/disp/graphics_common.h ****     {
 2874              		.loc 12 32 66 view .LVU639
 2875 0336 0698     		ldr	r0, [sp, #24]
 2876              	.LBE991:
 2877              	.LBE990:
 2878              	.LBE989:
 2879              	.LBB1003:
 2880              	.LBB984:
  63:../../libs/PoliTeKDSP/libs/libDaisy/src/hid/disp/graphics_common.h **** 
 2881              		.loc 12 63 54 view .LVU640
ARM GAS  C:\Users\matte\AppData\Local\Temp\ccrMwnXK.s 			page 89


 2882 0338 B8BF     		it	lt
 2883 033a 0131     		addlt	r1, r1, #1
 2884              	.LBE984:
 2885              	.LBE1003:
 2886              	.LBB1004:
 2887              	.LBB998:
 2888              	.LBB994:
  32:../../libs/PoliTeKDSP/libs/libDaisy/src/hid/disp/graphics_common.h ****     {
 2889              		.loc 12 32 66 view .LVU641
 2890 033c C280     		strh	r2, [r0, #6]	@ movhi
 2891              	.LBE994:
 2892              	.LBE998:
 2893              	.LBE1004:
 2894              	.LBB1005:
 2895              	.LBB985:
  63:../../libs/PoliTeKDSP/libs/libDaisy/src/hid/disp/graphics_common.h **** 
 2896              		.loc 12 63 44 view .LVU642
 2897 033e 0CEB6104 		add	r4, ip, r1, asr #1
 2898              	.LVL184:
  63:../../libs/PoliTeKDSP/libs/libDaisy/src/hid/disp/graphics_common.h **** 
 2899              		.loc 12 63 44 view .LVU643
 2900              	.LBE985:
 2901              	.LBE1005:
 2902              	.LBB1006:
 2903              	.LBB999:
 2904              	.LBB995:
  32:../../libs/PoliTeKDSP/libs/libDaisy/src/hid/disp/graphics_common.h ****     {
 2905              		.loc 12 32 66 view .LVU644
 2906 0342 0780     		strh	r7, [r0]	@ movhi
 2907 0344 8380     		strh	r3, [r0, #4]	@ movhi
 2908              	.LBE995:
 2909              	.LBE999:
 2910              	.LBE1006:
 2911              	.LBE1029:
 2912              	.LBE1107:
 468:../../libs/PoliTeKDSP/libs/libDaisy/src/hid/disp/display.h ****         ((ChildType*)(this))->ChildType::WriteString(str, font, on);
 2913              		.loc 9 468 18 view .LVU645
 2914 0346 BFB2     		uxth	r7, r7
 2915              	.LBB1108:
 2916              	.LBB1030:
 242:../../libs/PoliTeKDSP/libs/libDaisy/src/hid/disp/graphics_common.h ****                         width_,
 2917              		.loc 12 242 58 view .LVU646
 2918 0348 A4EB5202 		sub	r2, r4, r2, lsr #1
 2919 034c 94B2     		uxth	r4, r2
 2920              	.LVL185:
 2921              	.LBB1007:
 2922              	.LBI989:
  31:../../libs/PoliTeKDSP/libs/libDaisy/src/hid/disp/graphics_common.h ****     : x_(x), y_(y), width_(max(0, width)), height_(max(0, height))
 2923              		.loc 12 31 5 is_stmt 1 view .LVU647
 2924              	.LBB1000:
 2925              	.LBB996:
  32:../../libs/PoliTeKDSP/libs/libDaisy/src/hid/disp/graphics_common.h ****     {
 2926              		.loc 12 32 66 is_stmt 0 view .LVU648
 2927 034e 4480     		strh	r4, [r0, #2]	@ movhi
 2928              	.LVL186:
 2929              	.LBB992:
 2930              	.LBI992:
ARM GAS  C:\Users\matte\AppData\Local\Temp\ccrMwnXK.s 			page 90


 2931              		.loc 12 261 13 is_stmt 1 view .LVU649
 2932              	.LBE992:
 2933              	.LBE996:
 2934              	.LBE1000:
 2935              	.LBE1007:
 2936              	.LBE1030:
 2937              	.LBE1108:
 2938              		.loc 12 261 41 view .LVU650
 2939              	.LBB1109:
 2940              	.LBB1031:
 2941              	.LBB1008:
 2942              	.LBB1001:
 2943              	.LBB997:
 2944              	.LBB993:
 2945              	.LBI993:
 2946              		.loc 12 261 13 view .LVU651
 2947              	.LBE993:
 2948              	.LBE997:
 2949              	.LBE1001:
 2950              	.LBE1008:
 2951              	.LBE1031:
 2952              	.LBE1109:
 2953              		.loc 12 261 41 view .LVU652
 2954              	.LBB1110:
 2955              	.LBB1032:
 2956              	.LBB1009:
 2957              	.LBB1002:
  34:../../libs/PoliTeKDSP/libs/libDaisy/src/hid/disp/graphics_common.h **** 
 2958              		.loc 12 34 5 is_stmt 0 view .LVU653
 2959 0350 98E6     		b	.L132
 2960              	.LVL187:
 2961              	.L152:
  34:../../libs/PoliTeKDSP/libs/libDaisy/src/hid/disp/graphics_common.h **** 
 2962              		.loc 12 34 5 view .LVU654
 2963              	.LBE1002:
 2964              	.LBE1009:
 2965              	.LBE1032:
 2966              	.LBE1110:
 2967              	.LBB1111:
 2968              	.LBB1089:
 2969              	.LBB1086:
 2970              	.LBB1085:
 402:../../libs/PoliTeKDSP/libs/libDaisy/src/hid/disp/display.h **** 
 2971              		.loc 9 402 20 view .LVU655
 2972 0352 4FF0000B 		mov	fp, #0
 2973              	.LVL188:
 402:../../libs/PoliTeKDSP/libs/libDaisy/src/hid/disp/display.h **** 
 2974              		.loc 9 402 20 view .LVU656
 2975 0356 69E7     		b	.L150
 2976              	.LVL189:
 2977              	.L197:
 405:../../libs/PoliTeKDSP/libs/libDaisy/src/hid/disp/display.h ****            || Height() < (currentY_ + font.FontHeight))
 2978              		.loc 9 405 17 view .LVU657
 2979 0358 4046     		mov	r0, r8
 2980 035a 9847     		blx	r3
 2981              	.LVL190:
 2982 035c D3E6     		b	.L151
ARM GAS  C:\Users\matte\AppData\Local\Temp\ccrMwnXK.s 			page 91


 2983              	.L198:
 406:../../libs/PoliTeKDSP/libs/libDaisy/src/hid/disp/display.h ****         {
 2984              		.loc 9 406 21 view .LVU658
 2985 035e 4046     		mov	r0, r8
 2986 0360 9847     		blx	r3
 2987              	.LVL191:
 2988 0362 DEE6     		b	.L153
 2989              	.LVL192:
 2990              	.L202:
 2991              	.LBB1083:
 2992              	.LBB1079:
 174:../../libs/PoliTeKDSP/libs/libDaisy/src/hid/disp/display.h ****     }
 2993              		.loc 9 174 33 view .LVU659
 2994 0364 4046     		mov	r0, r8
 2995 0366 9847     		blx	r3
 2996              	.LVL193:
 2997 0368 51E7     		b	.L167
 2998              	.LVL194:
 2999              	.L200:
 173:../../libs/PoliTeKDSP/libs/libDaisy/src/hid/disp/display.h ****         currentY_ = (y >= Height()) ? Height() - 1 : y;
 3000              		.loc 9 173 32 view .LVU660
 3001 036a 4046     		mov	r0, r8
 3002 036c 9847     		blx	r3
 3003              	.LVL195:
 173:../../libs/PoliTeKDSP/libs/libDaisy/src/hid/disp/display.h ****         currentY_ = (y >= Height()) ? Height() - 1 : y;
 3004              		.loc 9 173 44 view .LVU661
 3005 036e D8F80020 		ldr	r2, [r8]
 3006 0372 3CE7     		b	.L164
 3007              	.LVL196:
 3008              	.L154:
 173:../../libs/PoliTeKDSP/libs/libDaisy/src/hid/disp/display.h ****         currentY_ = (y >= Height()) ? Height() - 1 : y;
 3009              		.loc 9 173 44 view .LVU662
 3010              	.LBE1079:
 3011              	.LBE1083:
 434:../../libs/PoliTeKDSP/libs/libDaisy/src/hid/disp/display.h **** 
 3012              		.loc 9 434 19 view .LVU663
 3013 0374 B8F804A0 		ldrh	r10, [r8, #4]
 3014 0378 2EE7     		b	.L156
 3015              	.LVL197:
 3016              	.L203:
 3017              	.LBB1084:
 3018              	.LBB1080:
 174:../../libs/PoliTeKDSP/libs/libDaisy/src/hid/disp/display.h ****     }
 3019              		.loc 9 174 45 view .LVU664
 3020 037a 4046     		mov	r0, r8
 3021 037c 9847     		blx	r3
 3022              	.LVL198:
 174:../../libs/PoliTeKDSP/libs/libDaisy/src/hid/disp/display.h ****     }
 3023              		.loc 9 174 19 view .LVU665
 3024 037e 0138     		subs	r0, r0, #1
 3025 0380 83B2     		uxth	r3, r0
 3026 0382 0293     		str	r3, [sp, #8]
 3027              	.LVL199:
 174:../../libs/PoliTeKDSP/libs/libDaisy/src/hid/disp/display.h ****     }
 3028              		.loc 9 174 19 view .LVU666
 3029 0384 4FE7     		b	.L168
 3030              	.LVL200:
ARM GAS  C:\Users\matte\AppData\Local\Temp\ccrMwnXK.s 			page 92


 3031              	.L201:
 173:../../libs/PoliTeKDSP/libs/libDaisy/src/hid/disp/display.h ****         currentY_ = (y >= Height()) ? Height() - 1 : y;
 3032              		.loc 9 173 43 view .LVU667
 3033 0386 4046     		mov	r0, r8
 3034 0388 9847     		blx	r3
 3035              	.LVL201:
 173:../../libs/PoliTeKDSP/libs/libDaisy/src/hid/disp/display.h ****         currentY_ = (y >= Height()) ? Height() - 1 : y;
 3036              		.loc 9 173 19 view .LVU668
 3037 038a 0138     		subs	r0, r0, #1
 174:../../libs/PoliTeKDSP/libs/libDaisy/src/hid/disp/display.h ****     }
 3038              		.loc 9 174 34 view .LVU669
 3039 038c D8F80020 		ldr	r2, [r8]
 173:../../libs/PoliTeKDSP/libs/libDaisy/src/hid/disp/display.h ****         currentY_ = (y >= Height()) ? Height() - 1 : y;
 3040              		.loc 9 173 19 view .LVU670
 3041 0390 85B2     		uxth	r5, r0
 3042              	.LVL202:
 173:../../libs/PoliTeKDSP/libs/libDaisy/src/hid/disp/display.h ****         currentY_ = (y >= Height()) ? Height() - 1 : y;
 3043              		.loc 9 173 19 view .LVU671
 3044 0392 34E7     		b	.L165
 3045              	.LVL203:
 3046              	.L121:
 173:../../libs/PoliTeKDSP/libs/libDaisy/src/hid/disp/display.h ****         currentY_ = (y >= Height()) ? Height() - 1 : y;
 3047              		.loc 9 173 19 view .LVU672
 3048              	.LBE1080:
 3049              	.LBE1084:
 3050              	.LBE1085:
 3051              	.LBE1086:
 3052              	.LBE1089:
 3053              	.LBE1111:
 3054              	.LBB1112:
 3055              	.LBB1033:
 255:../../libs/PoliTeKDSP/libs/libDaisy/src/hid/disp/graphics_common.h ****         }
 3056              		.loc 12 255 13 is_stmt 1 view .LVU673
 255:../../libs/PoliTeKDSP/libs/libDaisy/src/hid/disp/graphics_common.h ****         }
 3057              		.loc 12 255 22 view .LVU674
 3058              	.LBB1010:
 3059              	.LBI1010:
  24:../../libs/PoliTeKDSP/libs/libDaisy/src/hid/disp/graphics_common.h **** 
 3060              		.loc 12 24 5 view .LVU675
 3061              	.LBE1010:
 3062              	.LBE1033:
 3063              	.LBE1112:
 3064              	.LBB1113:
 3065              	.LBB1039:
 173:../../libs/PoliTeKDSP/libs/libDaisy/src/hid/disp/display.h ****         currentY_ = (y >= Height()) ? Height() - 1 : y;
 3066              		.loc 9 173 33 is_stmt 0 view .LVU676
 3067 0394 D8F80030 		ldr	r3, [r8]
 3068              	.LBE1039:
 3069              	.LBE1113:
 3070              	.LBB1114:
 3071              	.LBB1034:
 3072              	.LBB1012:
 3073              	.LBB1011:
  24:../../libs/PoliTeKDSP/libs/libDaisy/src/hid/disp/graphics_common.h **** 
 3074              		.loc 12 24 53 view .LVU677
 3075 0398 0024     		movs	r4, #0
 3076              	.LVL204:
ARM GAS  C:\Users\matte\AppData\Local\Temp\ccrMwnXK.s 			page 93


  24:../../libs/PoliTeKDSP/libs/libDaisy/src/hid/disp/graphics_common.h **** 
 3077              		.loc 12 24 53 view .LVU678
 3078 039a 069A     		ldr	r2, [sp, #24]
 3079 039c 1249     		ldr	r1, .L206
 3080              	.LVL205:
  24:../../libs/PoliTeKDSP/libs/libDaisy/src/hid/disp/graphics_common.h **** 
 3081              		.loc 12 24 53 view .LVU679
 3082 039e 1480     		strh	r4, [r2]	@ movhi
 3083 03a0 5480     		strh	r4, [r2, #2]	@ movhi
 3084 03a2 9480     		strh	r4, [r2, #4]	@ movhi
 3085 03a4 D480     		strh	r4, [r2, #6]	@ movhi
 3086              	.LVL206:
  24:../../libs/PoliTeKDSP/libs/libDaisy/src/hid/disp/graphics_common.h **** 
 3087              		.loc 12 24 53 view .LVU680
 3088              	.LBE1011:
 3089              	.LBE1012:
 3090              	.LBE1034:
 3091              	.LBE1114:
  56:../../libs/PoliTeKDSP/libs/libDaisy/src/hid/disp/graphics_common.h ****     int16_t GetY() const { return y_; }
 3092              		.loc 12 56 28 is_stmt 1 view .LVU681
  57:../../libs/PoliTeKDSP/libs/libDaisy/src/hid/disp/graphics_common.h ****     int16_t GetWidth() const { return width_; }
 3093              		.loc 12 57 28 view .LVU682
 3094              	.LBB1115:
 171:../../libs/PoliTeKDSP/libs/libDaisy/src/hid/disp/display.h ****     {
 3095              		.loc 9 171 10 view .LVU683
 3096              	.LBB1040:
 173:../../libs/PoliTeKDSP/libs/libDaisy/src/hid/disp/display.h ****         currentY_ = (y >= Height()) ? Height() - 1 : y;
 3097              		.loc 9 173 9 view .LVU684
 173:../../libs/PoliTeKDSP/libs/libDaisy/src/hid/disp/display.h ****         currentY_ = (y >= Height()) ? Height() - 1 : y;
 3098              		.loc 9 173 33 is_stmt 0 view .LVU685
 3099 03a6 DA68     		ldr	r2, [r3, #12]
 3100 03a8 0191     		str	r1, [sp, #4]
 3101 03aa 8A42     		cmp	r2, r1
 3102 03ac 05D0     		beq	.L139
 3103 03ae 2746     		mov	r7, r4
 3104              	.LVL207:
 3105              	.L140:
 173:../../libs/PoliTeKDSP/libs/libDaisy/src/hid/disp/display.h ****         currentY_ = (y >= Height()) ? Height() - 1 : y;
 3106              		.loc 9 173 32 view .LVU686
 3107 03b0 4046     		mov	r0, r8
 3108 03b2 9047     		blx	r2
 3109              	.LVL208:
 173:../../libs/PoliTeKDSP/libs/libDaisy/src/hid/disp/display.h ****         currentY_ = (y >= Height()) ? Height() - 1 : y;
 3110              		.loc 9 173 44 view .LVU687
 3111 03b4 D8F80030 		ldr	r3, [r8]
 3112 03b8 6EE6     		b	.L141
 3113              	.LVL209:
 3114              	.L139:
 174:../../libs/PoliTeKDSP/libs/libDaisy/src/hid/disp/display.h ****     }
 3115              		.loc 9 174 34 view .LVU688
 3116 03ba 9B68     		ldr	r3, [r3, #8]
 3117 03bc 0B4A     		ldr	r2, .L206+4
 173:../../libs/PoliTeKDSP/libs/libDaisy/src/hid/disp/display.h ****         currentY_ = (y >= Height()) ? Height() - 1 : y;
 3118              		.loc 9 173 19 view .LVU689
 3119 03be A8F80440 		strh	r4, [r8, #4]	@ movhi
 174:../../libs/PoliTeKDSP/libs/libDaisy/src/hid/disp/display.h ****     }
 3120              		.loc 9 174 9 is_stmt 1 view .LVU690
ARM GAS  C:\Users\matte\AppData\Local\Temp\ccrMwnXK.s 			page 94


 3121 03c2 9342     		cmp	r3, r2
 3122 03c4 0392     		str	r2, [sp, #12]
 3123 03c6 3FF482AE 		beq	.L146
 3124              	.LVL210:
 3125              	.L172:
 174:../../libs/PoliTeKDSP/libs/libDaisy/src/hid/disp/display.h ****     }
 3126              		.loc 9 174 33 is_stmt 0 view .LVU691
 3127 03ca 4046     		mov	r0, r8
 3128 03cc 9847     		blx	r3
 3129              	.LVL211:
 3130 03ce 74E6     		b	.L144
 3131              	.L196:
 174:../../libs/PoliTeKDSP/libs/libDaisy/src/hid/disp/display.h ****     }
 3132              		.loc 9 174 45 view .LVU692
 3133 03d0 4046     		mov	r0, r8
 3134 03d2 9847     		blx	r3
 3135              	.LVL212:
 174:../../libs/PoliTeKDSP/libs/libDaisy/src/hid/disp/display.h ****     }
 3136              		.loc 9 174 19 view .LVU693
 3137 03d4 0138     		subs	r0, r0, #1
 3138 03d6 84B2     		uxth	r4, r0
 3139 03d8 79E6     		b	.L146
 3140              	.L195:
 173:../../libs/PoliTeKDSP/libs/libDaisy/src/hid/disp/display.h ****         currentY_ = (y >= Height()) ? Height() - 1 : y;
 3141              		.loc 9 173 43 view .LVU694
 3142 03da 4046     		mov	r0, r8
 3143 03dc 9047     		blx	r2
 3144              	.LVL213:
 173:../../libs/PoliTeKDSP/libs/libDaisy/src/hid/disp/display.h ****         currentY_ = (y >= Height()) ? Height() - 1 : y;
 3145              		.loc 9 173 19 view .LVU695
 3146 03de 0138     		subs	r0, r0, #1
 174:../../libs/PoliTeKDSP/libs/libDaisy/src/hid/disp/display.h ****     }
 3147              		.loc 9 174 34 view .LVU696
 3148 03e0 D8F80030 		ldr	r3, [r8]
 173:../../libs/PoliTeKDSP/libs/libDaisy/src/hid/disp/display.h ****         currentY_ = (y >= Height()) ? Height() - 1 : y;
 3149              		.loc 9 173 19 view .LVU697
 3150 03e4 87B2     		uxth	r7, r0
 3151 03e6 5FE6     		b	.L142
 3152              	.L207:
 3153              		.align	2
 3154              	.L206:
 3155 03e8 00000000 		.word	_ZNK5daisy11OledDisplayINS_13SSD130xDriverILj128ELj64ENS_19SSD130xI2CTransportEEEE5WidthEv
 3156 03ec 00000000 		.word	_ZNK5daisy11OledDisplayINS_13SSD130xDriverILj128ELj64ENS_19SSD130xI2CTransportEEEE6HeightEv
 3157              	.LBE1040:
 3158              	.LBE1115:
 3159              		.cfi_endproc
 3160              	.LFE5455:
 3162              		.section	.text._ZN5daisy11OledDisplayINS_13SSD130xDriverILj128ELj64ENS_19SSD130xI2CTransportEEEE9D
 3163              		.align	1
 3164              		.p2align 2,,3
 3165              		.weak	_ZN5daisy11OledDisplayINS_13SSD130xDriverILj128ELj64ENS_19SSD130xI2CTransportEEEE9DrawPixelE
 3166              		.syntax unified
 3167              		.thumb
 3168              		.thumb_func
 3169              		.fpu fpv5-d16
 3171              	_ZN5daisy11OledDisplayINS_13SSD130xDriverILj128ELj64ENS_19SSD130xI2CTransportEEEE9DrawPixelEjjb:
 3172              	.LVL214:
ARM GAS  C:\Users\matte\AppData\Local\Temp\ccrMwnXK.s 			page 95


 3173              	.LFB5449:
  42:../../libs/PoliTeKDSP/libs/libDaisy/src/hid/disp/oled_display.h ****     {
 3174              		.loc 8 42 10 is_stmt 1 view -0
 3175              		.cfi_startproc
 3176              		@ args = 0, pretend = 0, frame = 0
 3177              		@ frame_needed = 0, uses_anonymous_args = 0
 3178              		@ link register save eliminated.
 3179              	.LBB1120:
 3180              	.LBI1120:
 340:../../libs/PoliTeKDSP/libs/libDaisy/src/dev/oled_ssd130x.h ****     {
 3181              		.loc 10 340 10 view .LVU699
 3182              	.LBB1121:
 342:../../libs/PoliTeKDSP/libs/libDaisy/src/dev/oled_ssd130x.h ****             return;
 3183              		.loc 10 342 9 is_stmt 0 view .LVU700
 3184 0000 7F29     		cmp	r1, #127
 3185 0002 1ED8     		bhi	.L208
 3186 0004 3F2A     		cmp	r2, #63
 3187 0006 1CD8     		bhi	.L208
 344:../../libs/PoliTeKDSP/libs/libDaisy/src/dev/oled_ssd130x.h ****             buffer_[x + (y / 8) * width] |= (1 << (y % 8));
 3188              		.loc 10 344 9 view .LVU701
 3189 0008 6BB1     		cbz	r3, .L210
 345:../../libs/PoliTeKDSP/libs/libDaisy/src/dev/oled_ssd130x.h ****         else
 3190              		.loc 10 345 28 view .LVU702
 3191 000a D308     		lsrs	r3, r2, #3
 3192              	.LVL215:
 345:../../libs/PoliTeKDSP/libs/libDaisy/src/dev/oled_ssd130x.h ****         else
 3193              		.loc 10 345 48 view .LVU703
 3194 000c 4FF0010C 		mov	ip, #1
 345:../../libs/PoliTeKDSP/libs/libDaisy/src/dev/oled_ssd130x.h ****         else
 3195              		.loc 10 345 54 view .LVU704
 3196 0010 02F00702 		and	r2, r2, #7
 3197              	.LVL216:
 345:../../libs/PoliTeKDSP/libs/libDaisy/src/dev/oled_ssd130x.h ****         else
 3198              		.loc 10 345 42 view .LVU705
 3199 0014 01EBC313 		add	r3, r1, r3, lsl #7
 345:../../libs/PoliTeKDSP/libs/libDaisy/src/dev/oled_ssd130x.h ****         else
 3200              		.loc 10 345 48 view .LVU706
 3201 0018 0CFA02F2 		lsl	r2, ip, r2
 345:../../libs/PoliTeKDSP/libs/libDaisy/src/dev/oled_ssd130x.h ****         else
 3202              		.loc 10 345 42 view .LVU707
 3203 001c C118     		adds	r1, r0, r3
 3204              	.LVL217:
 345:../../libs/PoliTeKDSP/libs/libDaisy/src/dev/oled_ssd130x.h ****         else
 3205              		.loc 10 345 42 view .LVU708
 3206 001e 0B7C     		ldrb	r3, [r1, #16]	@ zero_extendqisi2
 3207 0020 1A43     		orrs	r2, r2, r3
 3208 0022 0A74     		strb	r2, [r1, #16]
 3209 0024 7047     		bx	lr
 3210              	.LVL218:
 3211              	.L210:
 3212              	.LBB1122:
 3213              	.LBI1122:
 340:../../libs/PoliTeKDSP/libs/libDaisy/src/dev/oled_ssd130x.h ****     {
 3214              		.loc 10 340 10 is_stmt 1 view .LVU709
 3215              	.LBB1123:
 347:../../libs/PoliTeKDSP/libs/libDaisy/src/dev/oled_ssd130x.h ****     }
 3216              		.loc 10 347 28 is_stmt 0 view .LVU710
ARM GAS  C:\Users\matte\AppData\Local\Temp\ccrMwnXK.s 			page 96


 3217 0026 D308     		lsrs	r3, r2, #3
 3218              	.LVL219:
 347:../../libs/PoliTeKDSP/libs/libDaisy/src/dev/oled_ssd130x.h ****     }
 3219              		.loc 10 347 49 view .LVU711
 3220 0028 4FF0010C 		mov	ip, #1
 347:../../libs/PoliTeKDSP/libs/libDaisy/src/dev/oled_ssd130x.h ****     }
 3221              		.loc 10 347 55 view .LVU712
 3222 002c 02F00702 		and	r2, r2, #7
 3223              	.LVL220:
 347:../../libs/PoliTeKDSP/libs/libDaisy/src/dev/oled_ssd130x.h ****     }
 3224              		.loc 10 347 42 view .LVU713
 3225 0030 01EBC313 		add	r3, r1, r3, lsl #7
 347:../../libs/PoliTeKDSP/libs/libDaisy/src/dev/oled_ssd130x.h ****     }
 3226              		.loc 10 347 49 view .LVU714
 3227 0034 0CFA02FC 		lsl	ip, ip, r2
 347:../../libs/PoliTeKDSP/libs/libDaisy/src/dev/oled_ssd130x.h ****     }
 3228              		.loc 10 347 42 view .LVU715
 3229 0038 C118     		adds	r1, r0, r3
 3230              	.LVL221:
 347:../../libs/PoliTeKDSP/libs/libDaisy/src/dev/oled_ssd130x.h ****     }
 3231              		.loc 10 347 42 view .LVU716
 3232 003a 0A7C     		ldrb	r2, [r1, #16]	@ zero_extendqisi2
 3233 003c 22EA0C02 		bic	r2, r2, ip
 3234 0040 0A74     		strb	r2, [r1, #16]
 3235              	.LVL222:
 3236              	.L208:
 347:../../libs/PoliTeKDSP/libs/libDaisy/src/dev/oled_ssd130x.h ****     }
 3237              		.loc 10 347 42 view .LVU717
 3238              	.LBE1123:
 3239              	.LBE1122:
 3240              	.LBE1121:
 3241              	.LBE1120:
  45:../../libs/PoliTeKDSP/libs/libDaisy/src/hid/disp/oled_display.h **** 
 3242              		.loc 8 45 5 view .LVU718
 3243 0042 7047     		bx	lr
 3244              		.cfi_endproc
 3245              	.LFE5449:
 3247              		.section	.text._ZN5daisy25OneBitGraphicsDisplayImplINS_11OledDisplayINS_13SSD130xDriverILj128ELj64
 3248              		.align	1
 3249              		.p2align 2,,3
 3250              		.weak	_ZN5daisy25OneBitGraphicsDisplayImplINS_11OledDisplayINS_13SSD130xDriverILj128ELj64ENS_19SSD
 3251              		.syntax unified
 3252              		.thumb
 3253              		.thumb_func
 3254              		.fpu fpv5-d16
 3256              	_ZN5daisy25OneBitGraphicsDisplayImplINS_11OledDisplayINS_13SSD130xDriverILj128ELj64ENS_19SSD130xI2C
 3257              	.LVL223:
 3258              	.LFB5450:
 221:../../libs/PoliTeKDSP/libs/libDaisy/src/hid/disp/display.h ****                   uint_fast8_t y1,
 3259              		.loc 9 221 10 is_stmt 1 view -0
 3260              		.cfi_startproc
 3261              		@ args = 8, pretend = 0, frame = 8
 3262              		@ frame_needed = 0, uses_anonymous_args = 0
 221:../../libs/PoliTeKDSP/libs/libDaisy/src/hid/disp/display.h ****                   uint_fast8_t y1,
 3263              		.loc 9 221 10 is_stmt 0 view .LVU720
 3264 0000 2DE9F04F 		push	{r4, r5, r6, r7, r8, r9, r10, fp, lr}
 3265              		.cfi_def_cfa_offset 36
ARM GAS  C:\Users\matte\AppData\Local\Temp\ccrMwnXK.s 			page 97


 3266              		.cfi_offset 4, -36
 3267              		.cfi_offset 5, -32
 3268              		.cfi_offset 6, -28
 3269              		.cfi_offset 7, -24
 3270              		.cfi_offset 8, -20
 3271              		.cfi_offset 9, -16
 3272              		.cfi_offset 10, -12
 3273              		.cfi_offset 11, -8
 3274              		.cfi_offset 14, -4
 3275 0004 83B0     		sub	sp, sp, #12
 3276              		.cfi_def_cfa_offset 48
 227:../../libs/PoliTeKDSP/libs/libDaisy/src/hid/disp/display.h ****         int_fast16_t deltaY = abs((int_fast16_t)y2 - (int_fast16_t)y1);
 3277              		.loc 9 227 52 view .LVU721
 3278 0006 5C1A     		subs	r4, r3, r1
 221:../../libs/PoliTeKDSP/libs/libDaisy/src/hid/disp/display.h ****                   uint_fast8_t y1,
 3279              		.loc 9 221 10 view .LVU722
 3280 0008 0C9E     		ldr	r6, [sp, #48]
 227:../../libs/PoliTeKDSP/libs/libDaisy/src/hid/disp/display.h ****         int_fast16_t deltaY = abs((int_fast16_t)y2 - (int_fast16_t)y1);
 3281              		.loc 9 227 22 view .LVU723
 3282 000a 002C     		cmp	r4, #0
 221:../../libs/PoliTeKDSP/libs/libDaisy/src/hid/disp/display.h ****                   uint_fast8_t y1,
 3283              		.loc 9 221 10 view .LVU724
 3284 000c 9DF83490 		ldrb	r9, [sp, #52]	@ zero_extendqisi2
 228:../../libs/PoliTeKDSP/libs/libDaisy/src/hid/disp/display.h ****         int_fast16_t signX  = ((x1 < x2) ? 1 : -1);
 3285              		.loc 9 228 52 view .LVU725
 3286 0010 A6EB0208 		sub	r8, r6, r2
 227:../../libs/PoliTeKDSP/libs/libDaisy/src/hid/disp/display.h ****         int_fast16_t deltaY = abs((int_fast16_t)y2 - (int_fast16_t)y1);
 3287              		.loc 9 227 22 view .LVU726
 3288 0014 B8BF     		it	lt
 3289 0016 6442     		rsblt	r4, r4, #0
 3290              	.LVL224:
 228:../../libs/PoliTeKDSP/libs/libDaisy/src/hid/disp/display.h ****         int_fast16_t signX  = ((x1 < x2) ? 1 : -1);
 3291              		.loc 9 228 22 view .LVU727
 3292 0018 B8F1000F 		cmp	r8, #0
 3293 001c B8BF     		it	lt
 3294 001e C8F10008 		rsblt	r8, r8, #0
 3295              	.LVL225:
 229:../../libs/PoliTeKDSP/libs/libDaisy/src/hid/disp/display.h ****         int_fast16_t signY  = ((y1 < y2) ? 1 : -1);
 3296              		.loc 9 229 42 view .LVU728
 3297 0022 8B42     		cmp	r3, r1
 3298 0024 8CBF     		ite	hi
 3299 0026 4FF0010A 		movhi	r10, #1
 3300 002a 4FF0FF3A 		movls	r10, #-1
 3301              	.LVL226:
 230:../../libs/PoliTeKDSP/libs/libDaisy/src/hid/disp/display.h ****         int_fast16_t error  = deltaX - deltaY;
 3302              		.loc 9 230 42 view .LVU729
 3303 002e 9642     		cmp	r6, r2
 231:../../libs/PoliTeKDSP/libs/libDaisy/src/hid/disp/display.h ****         int_fast16_t error2;
 3304              		.loc 9 231 22 view .LVU730
 3305 0030 A4EB080C 		sub	ip, r4, r8
 230:../../libs/PoliTeKDSP/libs/libDaisy/src/hid/disp/display.h ****         int_fast16_t error  = deltaX - deltaY;
 3306              		.loc 9 230 42 view .LVU731
 3307 0034 51D8     		bhi	.L213
 3308              	.LVL227:
 3309              	.LBB1140:
 3310              	.LBI1140:
  42:../../libs/PoliTeKDSP/libs/libDaisy/src/hid/disp/oled_display.h ****     {
ARM GAS  C:\Users\matte\AppData\Local\Temp\ccrMwnXK.s 			page 98


 3311              		.loc 8 42 10 is_stmt 1 discriminator 4 view .LVU732
 3312              	.LBB1141:
 3313              	.LBI1141:
 340:../../libs/PoliTeKDSP/libs/libDaisy/src/dev/oled_ssd130x.h ****     {
 3314              		.loc 10 340 10 discriminator 4 view .LVU733
 3315              	.LBE1141:
 3316              	.LBE1140:
 230:../../libs/PoliTeKDSP/libs/libDaisy/src/hid/disp/display.h ****         int_fast16_t error  = deltaX - deltaY;
 3317              		.loc 9 230 42 is_stmt 0 discriminator 4 view .LVU734
 3318 0036 4FF0FF35 		mov	r5, #-1
 3319              	.LBB1157:
 3320              	.LBB1151:
 3321              	.LBB1142:
 342:../../libs/PoliTeKDSP/libs/libDaisy/src/dev/oled_ssd130x.h ****             return;
 3322              		.loc 10 342 9 discriminator 4 view .LVU735
 3323 003a 7F2B     		cmp	r3, #127
 3324              	.LBE1142:
 3325              	.LBE1151:
 3326              	.LBE1157:
 230:../../libs/PoliTeKDSP/libs/libDaisy/src/hid/disp/display.h ****         int_fast16_t error  = deltaX - deltaY;
 3327              		.loc 9 230 42 discriminator 4 view .LVU736
 3328 003c 0195     		str	r5, [sp, #4]
 3329              	.LBB1158:
 3330              	.LBB1152:
 3331              	.LBB1147:
 342:../../libs/PoliTeKDSP/libs/libDaisy/src/dev/oled_ssd130x.h ****             return;
 3332              		.loc 10 342 9 discriminator 4 view .LVU737
 3333 003e 12D8     		bhi	.L214
 3334 0040 3F2E     		cmp	r6, #63
 3335 0042 10D8     		bhi	.L214
 3336              	.LVL228:
 3337              	.L225:
 345:../../libs/PoliTeKDSP/libs/libDaisy/src/dev/oled_ssd130x.h ****         else
 3338              		.loc 10 345 28 view .LVU738
 3339 0044 F508     		lsrs	r5, r6, #3
 345:../../libs/PoliTeKDSP/libs/libDaisy/src/dev/oled_ssd130x.h ****         else
 3340              		.loc 10 345 54 view .LVU739
 3341 0046 06F0070E 		and	lr, r6, #7
 345:../../libs/PoliTeKDSP/libs/libDaisy/src/dev/oled_ssd130x.h ****         else
 3342              		.loc 10 345 48 view .LVU740
 3343 004a 0127     		movs	r7, #1
 345:../../libs/PoliTeKDSP/libs/libDaisy/src/dev/oled_ssd130x.h ****         else
 3344              		.loc 10 345 42 view .LVU741
 3345 004c 03EBC515 		add	r5, r3, r5, lsl #7
 3346 0050 0544     		add	r5, r5, r0
 344:../../libs/PoliTeKDSP/libs/libDaisy/src/dev/oled_ssd130x.h ****             buffer_[x + (y / 8) * width] |= (1 << (y % 8));
 3347              		.loc 10 344 9 view .LVU742
 3348 0052 B9F1000F 		cmp	r9, #0
 3349 0056 47D0     		beq	.L215
 345:../../libs/PoliTeKDSP/libs/libDaisy/src/dev/oled_ssd130x.h ****         else
 3350              		.loc 10 345 48 view .LVU743
 3351 0058 07FA0EF7 		lsl	r7, r7, lr
 345:../../libs/PoliTeKDSP/libs/libDaisy/src/dev/oled_ssd130x.h ****         else
 3352              		.loc 10 345 42 view .LVU744
 3353 005c 95F810E0 		ldrb	lr, [r5, #16]	@ zero_extendqisi2
 3354 0060 47EA0E07 		orr	r7, r7, lr
 3355 0064 2F74     		strb	r7, [r5, #16]
ARM GAS  C:\Users\matte\AppData\Local\Temp\ccrMwnXK.s 			page 99


 3356              	.LVL229:
 3357              	.L214:
 345:../../libs/PoliTeKDSP/libs/libDaisy/src/dev/oled_ssd130x.h ****         else
 3358              		.loc 10 345 42 view .LVU745
 3359              	.LBE1147:
 3360              	.LBE1152:
 3361              	.LBE1158:
 239:../../libs/PoliTeKDSP/libs/libDaisy/src/hid/disp/display.h ****         {
 3362              		.loc 9 239 26 is_stmt 1 view .LVU746
 3363 0066 9642     		cmp	r6, r2
 3364 0068 01D1     		bne	.L218
 3365              	.L237:
 239:../../libs/PoliTeKDSP/libs/libDaisy/src/hid/disp/display.h ****         {
 3366              		.loc 9 239 26 is_stmt 0 view .LVU747
 3367 006a 8B42     		cmp	r3, r1
 3368 006c 29D0     		beq	.L211
 3369              	.L218:
 3370              	.LVL230:
 243:../../libs/PoliTeKDSP/libs/libDaisy/src/hid/disp/display.h ****             {
 3371              		.loc 9 243 23 view .LVU748
 3372 006e C8F10007 		rsb	r7, r8, #0
 3373              	.L220:
 3374              	.LVL231:
 3375              	.LBB1159:
 3376              	.LBI1159:
  42:../../libs/PoliTeKDSP/libs/libDaisy/src/hid/disp/oled_display.h ****     {
 3377              		.loc 8 42 10 is_stmt 1 view .LVU749
 3378              	.LBB1160:
 3379              	.LBI1160:
 340:../../libs/PoliTeKDSP/libs/libDaisy/src/dev/oled_ssd130x.h ****     {
 3380              		.loc 10 340 10 view .LVU750
 3381              	.LBB1161:
 342:../../libs/PoliTeKDSP/libs/libDaisy/src/dev/oled_ssd130x.h ****             return;
 3382              		.loc 10 342 9 is_stmt 0 view .LVU751
 3383 0072 7F29     		cmp	r1, #127
 3384 0074 14D8     		bhi	.L221
 3385 0076 3F2A     		cmp	r2, #63
 3386 0078 12D8     		bhi	.L221
 345:../../libs/PoliTeKDSP/libs/libDaisy/src/dev/oled_ssd130x.h ****         else
 3387              		.loc 10 345 28 view .LVU752
 3388 007a D508     		lsrs	r5, r2, #3
 345:../../libs/PoliTeKDSP/libs/libDaisy/src/dev/oled_ssd130x.h ****         else
 3389              		.loc 10 345 54 view .LVU753
 3390 007c 02F0070B 		and	fp, r2, #7
 345:../../libs/PoliTeKDSP/libs/libDaisy/src/dev/oled_ssd130x.h ****         else
 3391              		.loc 10 345 48 view .LVU754
 3392 0080 4FF0010E 		mov	lr, #1
 345:../../libs/PoliTeKDSP/libs/libDaisy/src/dev/oled_ssd130x.h ****         else
 3393              		.loc 10 345 42 view .LVU755
 3394 0084 01EBC515 		add	r5, r1, r5, lsl #7
 3395 0088 0544     		add	r5, r5, r0
 344:../../libs/PoliTeKDSP/libs/libDaisy/src/dev/oled_ssd130x.h ****             buffer_[x + (y / 8) * width] |= (1 << (y % 8));
 3396              		.loc 10 344 9 view .LVU756
 3397 008a B9F1000F 		cmp	r9, #0
 3398 008e 1BD0     		beq	.L222
 345:../../libs/PoliTeKDSP/libs/libDaisy/src/dev/oled_ssd130x.h ****         else
 3399              		.loc 10 345 48 view .LVU757
ARM GAS  C:\Users\matte\AppData\Local\Temp\ccrMwnXK.s 			page 100


 3400 0090 0EFA0BFE 		lsl	lr, lr, fp
 345:../../libs/PoliTeKDSP/libs/libDaisy/src/dev/oled_ssd130x.h ****         else
 3401              		.loc 10 345 42 view .LVU758
 3402 0094 95F810B0 		ldrb	fp, [r5, #16]	@ zero_extendqisi2
 3403 0098 4EEA0B0E 		orr	lr, lr, fp
 3404 009c 85F810E0 		strb	lr, [r5, #16]
 3405              	.L221:
 3406              	.LVL232:
 345:../../libs/PoliTeKDSP/libs/libDaisy/src/dev/oled_ssd130x.h ****         else
 3407              		.loc 10 345 42 view .LVU759
 3408              	.LBE1161:
 3409              	.LBE1160:
 3410              	.LBE1159:
 243:../../libs/PoliTeKDSP/libs/libDaisy/src/hid/disp/display.h ****             {
 3411              		.loc 9 243 13 view .LVU760
 3412 00a0 B7EB4C0F 		cmp	r7, ip, lsl #1
 242:../../libs/PoliTeKDSP/libs/libDaisy/src/hid/disp/display.h ****             if(error2 > -deltaY)
 3413              		.loc 9 242 20 view .LVU761
 3414 00a4 4FEA4C05 		lsl	r5, ip, #1
 3415              	.LVL233:
 243:../../libs/PoliTeKDSP/libs/libDaisy/src/hid/disp/display.h ****             {
 3416              		.loc 9 243 13 view .LVU762
 3417 00a8 02DA     		bge	.L223
 245:../../libs/PoliTeKDSP/libs/libDaisy/src/hid/disp/display.h ****                 x1 += signX;
 3418              		.loc 9 245 23 view .LVU763
 3419 00aa ACEB080C 		sub	ip, ip, r8
 3420              	.LVL234:
 246:../../libs/PoliTeKDSP/libs/libDaisy/src/hid/disp/display.h ****             }
 3421              		.loc 9 246 20 view .LVU764
 3422 00ae 5144     		add	r1, r1, r10
 3423              	.LVL235:
 3424              	.L223:
 249:../../libs/PoliTeKDSP/libs/libDaisy/src/hid/disp/display.h ****             {
 3425              		.loc 9 249 13 view .LVU765
 3426 00b0 AC42     		cmp	r4, r5
 3427 00b2 02DD     		ble	.L224
 252:../../libs/PoliTeKDSP/libs/libDaisy/src/hid/disp/display.h ****             }
 3428              		.loc 9 252 20 view .LVU766
 3429 00b4 019D     		ldr	r5, [sp, #4]
 3430              	.LVL236:
 251:../../libs/PoliTeKDSP/libs/libDaisy/src/hid/disp/display.h ****                 y1 += signY;
 3431              		.loc 9 251 23 view .LVU767
 3432 00b6 A444     		add	ip, ip, r4
 3433              	.LVL237:
 252:../../libs/PoliTeKDSP/libs/libDaisy/src/hid/disp/display.h ****             }
 3434              		.loc 9 252 20 view .LVU768
 3435 00b8 2A44     		add	r2, r2, r5
 3436              	.LVL238:
 3437              	.L224:
 239:../../libs/PoliTeKDSP/libs/libDaisy/src/hid/disp/display.h ****         {
 3438              		.loc 9 239 26 is_stmt 1 view .LVU769
 3439 00ba 9942     		cmp	r1, r3
 3440 00bc D9D1     		bne	.L220
 239:../../libs/PoliTeKDSP/libs/libDaisy/src/hid/disp/display.h ****         {
 3441              		.loc 9 239 26 is_stmt 0 view .LVU770
 3442 00be 9642     		cmp	r6, r2
 3443 00c0 D7D1     		bne	.L220
ARM GAS  C:\Users\matte\AppData\Local\Temp\ccrMwnXK.s 			page 101


 3444              	.L211:
 255:../../libs/PoliTeKDSP/libs/libDaisy/src/hid/disp/display.h **** 
 3445              		.loc 9 255 5 view .LVU771
 3446 00c2 03B0     		add	sp, sp, #12
 3447              		.cfi_remember_state
 3448              		.cfi_def_cfa_offset 36
 3449              		@ sp needed
 3450 00c4 BDE8F08F 		pop	{r4, r5, r6, r7, r8, r9, r10, fp, pc}
 3451              	.LVL239:
 3452              	.L222:
 3453              		.cfi_restore_state
 3454              	.LBB1166:
 3455              	.LBB1165:
 3456              	.LBB1164:
 3457              	.LBB1162:
 3458              	.LBI1162:
 340:../../libs/PoliTeKDSP/libs/libDaisy/src/dev/oled_ssd130x.h ****     {
 3459              		.loc 10 340 10 is_stmt 1 view .LVU772
 3460              	.LBB1163:
 347:../../libs/PoliTeKDSP/libs/libDaisy/src/dev/oled_ssd130x.h ****     }
 3461              		.loc 10 347 49 is_stmt 0 view .LVU773
 3462 00c8 0EFA0BFB 		lsl	fp, lr, fp
 347:../../libs/PoliTeKDSP/libs/libDaisy/src/dev/oled_ssd130x.h ****     }
 3463              		.loc 10 347 42 view .LVU774
 3464 00cc 95F810E0 		ldrb	lr, [r5, #16]	@ zero_extendqisi2
 3465 00d0 2EEA0B0E 		bic	lr, lr, fp
 3466 00d4 85F810E0 		strb	lr, [r5, #16]
 3467 00d8 E2E7     		b	.L221
 3468              	.LVL240:
 3469              	.L213:
 347:../../libs/PoliTeKDSP/libs/libDaisy/src/dev/oled_ssd130x.h ****     }
 3470              		.loc 10 347 42 view .LVU775
 3471              	.LBE1163:
 3472              	.LBE1162:
 3473              	.LBE1164:
 3474              	.LBE1165:
 3475              	.LBE1166:
 3476              	.LBB1167:
  42:../../libs/PoliTeKDSP/libs/libDaisy/src/hid/disp/oled_display.h ****     {
 3477              		.loc 8 42 10 is_stmt 1 view .LVU776
 3478              	.LBB1153:
 340:../../libs/PoliTeKDSP/libs/libDaisy/src/dev/oled_ssd130x.h ****     {
 3479              		.loc 10 340 10 view .LVU777
 3480              	.LBE1153:
 3481              	.LBE1167:
 230:../../libs/PoliTeKDSP/libs/libDaisy/src/hid/disp/display.h ****         int_fast16_t error  = deltaX - deltaY;
 3482              		.loc 9 230 42 is_stmt 0 view .LVU778
 3483 00da 0125     		movs	r5, #1
 3484              	.LBB1168:
 3485              	.LBB1154:
 3486              	.LBB1148:
 342:../../libs/PoliTeKDSP/libs/libDaisy/src/dev/oled_ssd130x.h ****             return;
 3487              		.loc 10 342 9 view .LVU779
 3488 00dc 7F2B     		cmp	r3, #127
 3489              	.LBE1148:
 3490              	.LBE1154:
 3491              	.LBE1168:
ARM GAS  C:\Users\matte\AppData\Local\Temp\ccrMwnXK.s 			page 102


 230:../../libs/PoliTeKDSP/libs/libDaisy/src/hid/disp/display.h ****         int_fast16_t error  = deltaX - deltaY;
 3492              		.loc 9 230 42 view .LVU780
 3493 00de 0195     		str	r5, [sp, #4]
 3494              	.LBB1169:
 3495              	.LBB1155:
 3496              	.LBB1149:
 342:../../libs/PoliTeKDSP/libs/libDaisy/src/dev/oled_ssd130x.h ****             return;
 3497              		.loc 10 342 9 view .LVU781
 3498 00e0 C5D8     		bhi	.L218
 3499 00e2 3F2E     		cmp	r6, #63
 3500 00e4 AED9     		bls	.L225
 3501 00e6 C2E7     		b	.L218
 3502              	.LVL241:
 3503              	.L215:
 3504              	.LBB1143:
 3505              	.LBI1143:
 340:../../libs/PoliTeKDSP/libs/libDaisy/src/dev/oled_ssd130x.h ****     {
 3506              		.loc 10 340 10 is_stmt 1 view .LVU782
 3507              	.LBB1144:
 347:../../libs/PoliTeKDSP/libs/libDaisy/src/dev/oled_ssd130x.h ****     }
 3508              		.loc 10 347 49 is_stmt 0 view .LVU783
 3509 00e8 07FA0EFE 		lsl	lr, r7, lr
 347:../../libs/PoliTeKDSP/libs/libDaisy/src/dev/oled_ssd130x.h ****     }
 3510              		.loc 10 347 42 view .LVU784
 3511 00ec 2F7C     		ldrb	r7, [r5, #16]	@ zero_extendqisi2
 3512              	.LBE1144:
 3513              	.LBE1143:
 3514              	.LBE1149:
 3515              	.LBE1155:
 3516              	.LBE1169:
 239:../../libs/PoliTeKDSP/libs/libDaisy/src/hid/disp/display.h ****         {
 3517              		.loc 9 239 26 view .LVU785
 3518 00ee 9642     		cmp	r6, r2
 3519              	.LBB1170:
 3520              	.LBB1156:
 3521              	.LBB1150:
 3522              	.LBB1146:
 3523              	.LBB1145:
 347:../../libs/PoliTeKDSP/libs/libDaisy/src/dev/oled_ssd130x.h ****     }
 3524              		.loc 10 347 42 view .LVU786
 3525 00f0 27EA0E07 		bic	r7, r7, lr
 3526 00f4 2F74     		strb	r7, [r5, #16]
 3527              	.LVL242:
 347:../../libs/PoliTeKDSP/libs/libDaisy/src/dev/oled_ssd130x.h ****     }
 3528              		.loc 10 347 42 view .LVU787
 3529              	.LBE1145:
 3530              	.LBE1146:
 3531              	.LBE1150:
 3532              	.LBE1156:
 3533              	.LBE1170:
 239:../../libs/PoliTeKDSP/libs/libDaisy/src/hid/disp/display.h ****         {
 3534              		.loc 9 239 26 is_stmt 1 view .LVU788
 3535 00f6 B8D0     		beq	.L237
 3536 00f8 B9E7     		b	.L218
 3537              		.cfi_endproc
 3538              	.LFE5450:
 3540 00fa 00BF     		.section	.text._ZN5daisy25OneBitGraphicsDisplayImplINS_11OledDisplayINS_13SSD130xDriverILj128ELj64
ARM GAS  C:\Users\matte\AppData\Local\Temp\ccrMwnXK.s 			page 103


 3541              		.align	1
 3542              		.p2align 2,,3
 3543              		.weak	_ZN5daisy25OneBitGraphicsDisplayImplINS_11OledDisplayINS_13SSD130xDriverILj128ELj64ENS_19SSD
 3544              		.syntax unified
 3545              		.thumb
 3546              		.thumb_func
 3547              		.fpu fpv5-d16
 3549              	_ZN5daisy25OneBitGraphicsDisplayImplINS_11OledDisplayINS_13SSD130xDriverILj128ELj64ENS_19SSD130xI2C
 3550              	.LVL243:
 3551              	.LFB5452:
 283:../../libs/PoliTeKDSP/libs/libDaisy/src/hid/disp/display.h ****                  uint_fast8_t y,
 3552              		.loc 9 283 10 view -0
 3553              		.cfi_startproc
 3554              		@ args = 12, pretend = 0, frame = 8
 3555              		@ frame_needed = 0, uses_anonymous_args = 0
 283:../../libs/PoliTeKDSP/libs/libDaisy/src/hid/disp/display.h ****                  uint_fast8_t y,
 3556              		.loc 9 283 10 is_stmt 0 view .LVU790
 3557 0000 2DE9F04F 		push	{r4, r5, r6, r7, r8, r9, r10, fp, lr}
 3558              		.cfi_def_cfa_offset 36
 3559              		.cfi_offset 4, -36
 3560              		.cfi_offset 5, -32
 3561              		.cfi_offset 6, -28
 3562              		.cfi_offset 7, -24
 3563              		.cfi_offset 8, -20
 3564              		.cfi_offset 9, -16
 3565              		.cfi_offset 10, -12
 3566              		.cfi_offset 11, -8
 3567              		.cfi_offset 14, -4
 3568 0004 2DED068B 		vpush.64	{d8, d9, d10}
 3569              		.cfi_def_cfa_offset 60
 3570              		.cfi_offset 80, -60
 3571              		.cfi_offset 81, -56
 3572              		.cfi_offset 82, -52
 3573              		.cfi_offset 83, -48
 3574              		.cfi_offset 84, -44
 3575              		.cfi_offset 85, -40
 3576 0008 83B0     		sub	sp, sp, #12
 3577              		.cfi_def_cfa_offset 72
 283:../../libs/PoliTeKDSP/libs/libDaisy/src/hid/disp/display.h ****                  uint_fast8_t y,
 3578              		.loc 9 283 10 view .LVU791
 3579 000a 1F46     		mov	r7, r3
 3580 000c 8046     		mov	r8, r0
 3581 000e 0D46     		mov	r5, r1
 3582 0010 9DF85030 		ldrb	r3, [sp, #80]	@ zero_extendqisi2
 3583              	.LVL244:
 283:../../libs/PoliTeKDSP/libs/libDaisy/src/hid/disp/display.h ****                  uint_fast8_t y,
 3584              		.loc 9 283 10 view .LVU792
 3585 0014 1646     		mov	r6, r2
 3586 0016 0193     		str	r3, [sp, #4]
 306:../../libs/PoliTeKDSP/libs/libDaisy/src/hid/disp/display.h ****         {
 3587              		.loc 9 306 9 view .LVU793
 3588 0018 139B     		ldr	r3, [sp, #76]
 3589 001a 002B     		cmp	r3, #0
 3590 001c C0F22182 		blt	.L239
 313:../../libs/PoliTeKDSP/libs/libDaisy/src/hid/disp/display.h **** 
 3591              		.loc 9 313 27 view .LVU794
 3592 0020 129A     		ldr	r2, [sp, #72]
ARM GAS  C:\Users\matte\AppData\Local\Temp\ccrMwnXK.s 			page 104


 3593              	.LVL245:
 313:../../libs/PoliTeKDSP/libs/libDaisy/src/hid/disp/display.h **** 
 3594              		.loc 9 313 27 view .LVU795
 3595 0022 1344     		add	r3, r3, r2
 3596 0024 06EE103A 		vmov	s12, r3	@ int
 3597              	.LVL246:
 3598              	.L240:
 312:../../libs/PoliTeKDSP/libs/libDaisy/src/hid/disp/display.h ****         end_angle_rad   = deg2rad(start_angle + sweep);
 3599              		.loc 9 312 27 view .LVU796
 3600 0028 DDED127A 		vldr.32	s15, [sp, #72]	@ int
 313:../../libs/PoliTeKDSP/libs/libDaisy/src/hid/disp/display.h **** 
 3601              		.loc 9 313 27 view .LVU797
 3602 002c B8EEC66B 		vcvt.f64.s32	d6, s12
 312:../../libs/PoliTeKDSP/libs/libDaisy/src/hid/disp/display.h ****         end_angle_rad   = deg2rad(start_angle + sweep);
 3603              		.loc 9 312 27 view .LVU798
 3604 0030 9FEDCD4B 		vldr.64	d4, .L315
 3605 0034 B8EEE77B 		vcvt.f64.s32	d7, s15
 3606 0038 9FEDCD5B 		vldr.64	d5, .L315+8
 3607 003c 27EE047B 		vmul.f64	d7, d7, d4
 313:../../libs/PoliTeKDSP/libs/libDaisy/src/hid/disp/display.h **** 
 3608              		.loc 9 313 27 view .LVU799
 3609 0040 26EE046B 		vmul.f64	d6, d6, d4
 312:../../libs/PoliTeKDSP/libs/libDaisy/src/hid/disp/display.h ****         end_angle_rad   = deg2rad(start_angle + sweep);
 3610              		.loc 9 312 27 view .LVU800
 3611 0044 87EE050B 		vdiv.f64	d0, d7, d5
 313:../../libs/PoliTeKDSP/libs/libDaisy/src/hid/disp/display.h **** 
 3612              		.loc 9 313 27 view .LVU801
 3613 0048 86EE05AB 		vdiv.f64	d10, d6, d5
 312:../../libs/PoliTeKDSP/libs/libDaisy/src/hid/disp/display.h ****         end_angle_rad   = deg2rad(start_angle + sweep);
 3614              		.loc 9 312 25 view .LVU802
 3615 004c F7EEC08B 		vcvt.f32.f64	s17, d0
 3616              	.LVL247:
 3617              	.LBB1203:
 3618              	.LBB1204:
 3619              		.file 13 "c:\\program files\\daisytoolchain\\arm-none-eabi\\include\\c++\\10.2.1\\cmath"
   1:c:\program files\daisytoolchain\arm-none-eabi\include\c++\10.2.1\cmath **** // -*- C++ -*- C forwarding header.
   2:c:\program files\daisytoolchain\arm-none-eabi\include\c++\10.2.1\cmath **** 
   3:c:\program files\daisytoolchain\arm-none-eabi\include\c++\10.2.1\cmath **** // Copyright (C) 1997-2020 Free Software Foundation, Inc.
   4:c:\program files\daisytoolchain\arm-none-eabi\include\c++\10.2.1\cmath **** //
   5:c:\program files\daisytoolchain\arm-none-eabi\include\c++\10.2.1\cmath **** // This file is part of the GNU ISO C++ Library.  This library is free
   6:c:\program files\daisytoolchain\arm-none-eabi\include\c++\10.2.1\cmath **** // software; you can redistribute it and/or modify it under the
   7:c:\program files\daisytoolchain\arm-none-eabi\include\c++\10.2.1\cmath **** // terms of the GNU General Public License as published by the
   8:c:\program files\daisytoolchain\arm-none-eabi\include\c++\10.2.1\cmath **** // Free Software Foundation; either version 3, or (at your option)
   9:c:\program files\daisytoolchain\arm-none-eabi\include\c++\10.2.1\cmath **** // any later version.
  10:c:\program files\daisytoolchain\arm-none-eabi\include\c++\10.2.1\cmath **** 
  11:c:\program files\daisytoolchain\arm-none-eabi\include\c++\10.2.1\cmath **** // This library is distributed in the hope that it will be useful,
  12:c:\program files\daisytoolchain\arm-none-eabi\include\c++\10.2.1\cmath **** // but WITHOUT ANY WARRANTY; without even the implied warranty of
  13:c:\program files\daisytoolchain\arm-none-eabi\include\c++\10.2.1\cmath **** // MERCHANTABILITY or FITNESS FOR A PARTICULAR PURPOSE.  See the
  14:c:\program files\daisytoolchain\arm-none-eabi\include\c++\10.2.1\cmath **** // GNU General Public License for more details.
  15:c:\program files\daisytoolchain\arm-none-eabi\include\c++\10.2.1\cmath **** 
  16:c:\program files\daisytoolchain\arm-none-eabi\include\c++\10.2.1\cmath **** // Under Section 7 of GPL version 3, you are granted additional
  17:c:\program files\daisytoolchain\arm-none-eabi\include\c++\10.2.1\cmath **** // permissions described in the GCC Runtime Library Exception, version
  18:c:\program files\daisytoolchain\arm-none-eabi\include\c++\10.2.1\cmath **** // 3.1, as published by the Free Software Foundation.
  19:c:\program files\daisytoolchain\arm-none-eabi\include\c++\10.2.1\cmath **** 
  20:c:\program files\daisytoolchain\arm-none-eabi\include\c++\10.2.1\cmath **** // You should have received a copy of the GNU General Public License and
  21:c:\program files\daisytoolchain\arm-none-eabi\include\c++\10.2.1\cmath **** // a copy of the GCC Runtime Library Exception along with this program;
  22:c:\program files\daisytoolchain\arm-none-eabi\include\c++\10.2.1\cmath **** // see the files COPYING3 and COPYING.RUNTIME respectively.  If not, see
ARM GAS  C:\Users\matte\AppData\Local\Temp\ccrMwnXK.s 			page 105


  23:c:\program files\daisytoolchain\arm-none-eabi\include\c++\10.2.1\cmath **** // <http://www.gnu.org/licenses/>.
  24:c:\program files\daisytoolchain\arm-none-eabi\include\c++\10.2.1\cmath **** 
  25:c:\program files\daisytoolchain\arm-none-eabi\include\c++\10.2.1\cmath **** /** @file include/cmath
  26:c:\program files\daisytoolchain\arm-none-eabi\include\c++\10.2.1\cmath ****  *  This is a Standard C++ Library file.  You should @c \#include this file
  27:c:\program files\daisytoolchain\arm-none-eabi\include\c++\10.2.1\cmath ****  *  in your programs, rather than any of the @a *.h implementation files.
  28:c:\program files\daisytoolchain\arm-none-eabi\include\c++\10.2.1\cmath ****  *
  29:c:\program files\daisytoolchain\arm-none-eabi\include\c++\10.2.1\cmath ****  *  This is the C++ version of the Standard C Library header @c math.h,
  30:c:\program files\daisytoolchain\arm-none-eabi\include\c++\10.2.1\cmath ****  *  and its contents are (mostly) the same as that header, but are all
  31:c:\program files\daisytoolchain\arm-none-eabi\include\c++\10.2.1\cmath ****  *  contained in the namespace @c std (except for names which are defined
  32:c:\program files\daisytoolchain\arm-none-eabi\include\c++\10.2.1\cmath ****  *  as macros in C).
  33:c:\program files\daisytoolchain\arm-none-eabi\include\c++\10.2.1\cmath ****  */
  34:c:\program files\daisytoolchain\arm-none-eabi\include\c++\10.2.1\cmath **** 
  35:c:\program files\daisytoolchain\arm-none-eabi\include\c++\10.2.1\cmath **** //
  36:c:\program files\daisytoolchain\arm-none-eabi\include\c++\10.2.1\cmath **** // ISO C++ 14882: 26.5  C library
  37:c:\program files\daisytoolchain\arm-none-eabi\include\c++\10.2.1\cmath **** //
  38:c:\program files\daisytoolchain\arm-none-eabi\include\c++\10.2.1\cmath **** 
  39:c:\program files\daisytoolchain\arm-none-eabi\include\c++\10.2.1\cmath **** #pragma GCC system_header
  40:c:\program files\daisytoolchain\arm-none-eabi\include\c++\10.2.1\cmath **** 
  41:c:\program files\daisytoolchain\arm-none-eabi\include\c++\10.2.1\cmath **** #include <bits/c++config.h>
  42:c:\program files\daisytoolchain\arm-none-eabi\include\c++\10.2.1\cmath **** #include <bits/cpp_type_traits.h>
  43:c:\program files\daisytoolchain\arm-none-eabi\include\c++\10.2.1\cmath **** #include <ext/type_traits.h>
  44:c:\program files\daisytoolchain\arm-none-eabi\include\c++\10.2.1\cmath **** #define _GLIBCXX_INCLUDE_NEXT_C_HEADERS
  45:c:\program files\daisytoolchain\arm-none-eabi\include\c++\10.2.1\cmath **** #include_next <math.h>
  46:c:\program files\daisytoolchain\arm-none-eabi\include\c++\10.2.1\cmath **** #undef _GLIBCXX_INCLUDE_NEXT_C_HEADERS
  47:c:\program files\daisytoolchain\arm-none-eabi\include\c++\10.2.1\cmath **** #include <bits/std_abs.h>
  48:c:\program files\daisytoolchain\arm-none-eabi\include\c++\10.2.1\cmath **** 
  49:c:\program files\daisytoolchain\arm-none-eabi\include\c++\10.2.1\cmath **** #ifndef _GLIBCXX_CMATH
  50:c:\program files\daisytoolchain\arm-none-eabi\include\c++\10.2.1\cmath **** #define _GLIBCXX_CMATH 1
  51:c:\program files\daisytoolchain\arm-none-eabi\include\c++\10.2.1\cmath **** 
  52:c:\program files\daisytoolchain\arm-none-eabi\include\c++\10.2.1\cmath **** // Get rid of those macros defined in <math.h> in lieu of real functions.
  53:c:\program files\daisytoolchain\arm-none-eabi\include\c++\10.2.1\cmath **** #undef div
  54:c:\program files\daisytoolchain\arm-none-eabi\include\c++\10.2.1\cmath **** #undef acos
  55:c:\program files\daisytoolchain\arm-none-eabi\include\c++\10.2.1\cmath **** #undef asin
  56:c:\program files\daisytoolchain\arm-none-eabi\include\c++\10.2.1\cmath **** #undef atan
  57:c:\program files\daisytoolchain\arm-none-eabi\include\c++\10.2.1\cmath **** #undef atan2
  58:c:\program files\daisytoolchain\arm-none-eabi\include\c++\10.2.1\cmath **** #undef ceil
  59:c:\program files\daisytoolchain\arm-none-eabi\include\c++\10.2.1\cmath **** #undef cos
  60:c:\program files\daisytoolchain\arm-none-eabi\include\c++\10.2.1\cmath **** #undef cosh
  61:c:\program files\daisytoolchain\arm-none-eabi\include\c++\10.2.1\cmath **** #undef exp
  62:c:\program files\daisytoolchain\arm-none-eabi\include\c++\10.2.1\cmath **** #undef fabs
  63:c:\program files\daisytoolchain\arm-none-eabi\include\c++\10.2.1\cmath **** #undef floor
  64:c:\program files\daisytoolchain\arm-none-eabi\include\c++\10.2.1\cmath **** #undef fmod
  65:c:\program files\daisytoolchain\arm-none-eabi\include\c++\10.2.1\cmath **** #undef frexp
  66:c:\program files\daisytoolchain\arm-none-eabi\include\c++\10.2.1\cmath **** #undef ldexp
  67:c:\program files\daisytoolchain\arm-none-eabi\include\c++\10.2.1\cmath **** #undef log
  68:c:\program files\daisytoolchain\arm-none-eabi\include\c++\10.2.1\cmath **** #undef log10
  69:c:\program files\daisytoolchain\arm-none-eabi\include\c++\10.2.1\cmath **** #undef modf
  70:c:\program files\daisytoolchain\arm-none-eabi\include\c++\10.2.1\cmath **** #undef pow
  71:c:\program files\daisytoolchain\arm-none-eabi\include\c++\10.2.1\cmath **** #undef sin
  72:c:\program files\daisytoolchain\arm-none-eabi\include\c++\10.2.1\cmath **** #undef sinh
  73:c:\program files\daisytoolchain\arm-none-eabi\include\c++\10.2.1\cmath **** #undef sqrt
  74:c:\program files\daisytoolchain\arm-none-eabi\include\c++\10.2.1\cmath **** #undef tan
  75:c:\program files\daisytoolchain\arm-none-eabi\include\c++\10.2.1\cmath **** #undef tanh
  76:c:\program files\daisytoolchain\arm-none-eabi\include\c++\10.2.1\cmath **** 
  77:c:\program files\daisytoolchain\arm-none-eabi\include\c++\10.2.1\cmath **** extern "C++"
  78:c:\program files\daisytoolchain\arm-none-eabi\include\c++\10.2.1\cmath **** {
  79:c:\program files\daisytoolchain\arm-none-eabi\include\c++\10.2.1\cmath **** namespace std _GLIBCXX_VISIBILITY(default)
ARM GAS  C:\Users\matte\AppData\Local\Temp\ccrMwnXK.s 			page 106


  80:c:\program files\daisytoolchain\arm-none-eabi\include\c++\10.2.1\cmath **** {
  81:c:\program files\daisytoolchain\arm-none-eabi\include\c++\10.2.1\cmath **** _GLIBCXX_BEGIN_NAMESPACE_VERSION
  82:c:\program files\daisytoolchain\arm-none-eabi\include\c++\10.2.1\cmath **** 
  83:c:\program files\daisytoolchain\arm-none-eabi\include\c++\10.2.1\cmath ****   using ::acos;
  84:c:\program files\daisytoolchain\arm-none-eabi\include\c++\10.2.1\cmath **** 
  85:c:\program files\daisytoolchain\arm-none-eabi\include\c++\10.2.1\cmath **** #ifndef __CORRECT_ISO_CPP_MATH_H_PROTO
  86:c:\program files\daisytoolchain\arm-none-eabi\include\c++\10.2.1\cmath ****   inline _GLIBCXX_CONSTEXPR float
  87:c:\program files\daisytoolchain\arm-none-eabi\include\c++\10.2.1\cmath ****   acos(float __x)
  88:c:\program files\daisytoolchain\arm-none-eabi\include\c++\10.2.1\cmath ****   { return __builtin_acosf(__x); }
  89:c:\program files\daisytoolchain\arm-none-eabi\include\c++\10.2.1\cmath **** 
  90:c:\program files\daisytoolchain\arm-none-eabi\include\c++\10.2.1\cmath ****   inline _GLIBCXX_CONSTEXPR long double
  91:c:\program files\daisytoolchain\arm-none-eabi\include\c++\10.2.1\cmath ****   acos(long double __x)
  92:c:\program files\daisytoolchain\arm-none-eabi\include\c++\10.2.1\cmath ****   { return __builtin_acosl(__x); }
  93:c:\program files\daisytoolchain\arm-none-eabi\include\c++\10.2.1\cmath **** #endif
  94:c:\program files\daisytoolchain\arm-none-eabi\include\c++\10.2.1\cmath **** 
  95:c:\program files\daisytoolchain\arm-none-eabi\include\c++\10.2.1\cmath ****   template<typename _Tp>
  96:c:\program files\daisytoolchain\arm-none-eabi\include\c++\10.2.1\cmath ****     inline _GLIBCXX_CONSTEXPR
  97:c:\program files\daisytoolchain\arm-none-eabi\include\c++\10.2.1\cmath ****     typename __gnu_cxx::__enable_if<__is_integer<_Tp>::__value, 
  98:c:\program files\daisytoolchain\arm-none-eabi\include\c++\10.2.1\cmath ****                                     double>::__type
  99:c:\program files\daisytoolchain\arm-none-eabi\include\c++\10.2.1\cmath ****     acos(_Tp __x)
 100:c:\program files\daisytoolchain\arm-none-eabi\include\c++\10.2.1\cmath ****     { return __builtin_acos(__x); }
 101:c:\program files\daisytoolchain\arm-none-eabi\include\c++\10.2.1\cmath **** 
 102:c:\program files\daisytoolchain\arm-none-eabi\include\c++\10.2.1\cmath ****   using ::asin;
 103:c:\program files\daisytoolchain\arm-none-eabi\include\c++\10.2.1\cmath **** 
 104:c:\program files\daisytoolchain\arm-none-eabi\include\c++\10.2.1\cmath **** #ifndef __CORRECT_ISO_CPP_MATH_H_PROTO
 105:c:\program files\daisytoolchain\arm-none-eabi\include\c++\10.2.1\cmath ****   inline _GLIBCXX_CONSTEXPR float
 106:c:\program files\daisytoolchain\arm-none-eabi\include\c++\10.2.1\cmath ****   asin(float __x)
 107:c:\program files\daisytoolchain\arm-none-eabi\include\c++\10.2.1\cmath ****   { return __builtin_asinf(__x); }
 108:c:\program files\daisytoolchain\arm-none-eabi\include\c++\10.2.1\cmath **** 
 109:c:\program files\daisytoolchain\arm-none-eabi\include\c++\10.2.1\cmath ****   inline _GLIBCXX_CONSTEXPR long double
 110:c:\program files\daisytoolchain\arm-none-eabi\include\c++\10.2.1\cmath ****   asin(long double __x)
 111:c:\program files\daisytoolchain\arm-none-eabi\include\c++\10.2.1\cmath ****   { return __builtin_asinl(__x); }
 112:c:\program files\daisytoolchain\arm-none-eabi\include\c++\10.2.1\cmath **** #endif
 113:c:\program files\daisytoolchain\arm-none-eabi\include\c++\10.2.1\cmath **** 
 114:c:\program files\daisytoolchain\arm-none-eabi\include\c++\10.2.1\cmath ****   template<typename _Tp>
 115:c:\program files\daisytoolchain\arm-none-eabi\include\c++\10.2.1\cmath ****     inline _GLIBCXX_CONSTEXPR
 116:c:\program files\daisytoolchain\arm-none-eabi\include\c++\10.2.1\cmath ****     typename __gnu_cxx::__enable_if<__is_integer<_Tp>::__value,
 117:c:\program files\daisytoolchain\arm-none-eabi\include\c++\10.2.1\cmath ****                                     double>::__type
 118:c:\program files\daisytoolchain\arm-none-eabi\include\c++\10.2.1\cmath ****     asin(_Tp __x)
 119:c:\program files\daisytoolchain\arm-none-eabi\include\c++\10.2.1\cmath ****     { return __builtin_asin(__x); }
 120:c:\program files\daisytoolchain\arm-none-eabi\include\c++\10.2.1\cmath **** 
 121:c:\program files\daisytoolchain\arm-none-eabi\include\c++\10.2.1\cmath ****   using ::atan;
 122:c:\program files\daisytoolchain\arm-none-eabi\include\c++\10.2.1\cmath **** 
 123:c:\program files\daisytoolchain\arm-none-eabi\include\c++\10.2.1\cmath **** #ifndef __CORRECT_ISO_CPP_MATH_H_PROTO
 124:c:\program files\daisytoolchain\arm-none-eabi\include\c++\10.2.1\cmath ****   inline _GLIBCXX_CONSTEXPR float
 125:c:\program files\daisytoolchain\arm-none-eabi\include\c++\10.2.1\cmath ****   atan(float __x)
 126:c:\program files\daisytoolchain\arm-none-eabi\include\c++\10.2.1\cmath ****   { return __builtin_atanf(__x); }
 127:c:\program files\daisytoolchain\arm-none-eabi\include\c++\10.2.1\cmath **** 
 128:c:\program files\daisytoolchain\arm-none-eabi\include\c++\10.2.1\cmath ****   inline _GLIBCXX_CONSTEXPR long double
 129:c:\program files\daisytoolchain\arm-none-eabi\include\c++\10.2.1\cmath ****   atan(long double __x)
 130:c:\program files\daisytoolchain\arm-none-eabi\include\c++\10.2.1\cmath ****   { return __builtin_atanl(__x); }
 131:c:\program files\daisytoolchain\arm-none-eabi\include\c++\10.2.1\cmath **** #endif
 132:c:\program files\daisytoolchain\arm-none-eabi\include\c++\10.2.1\cmath **** 
 133:c:\program files\daisytoolchain\arm-none-eabi\include\c++\10.2.1\cmath ****   template<typename _Tp>
 134:c:\program files\daisytoolchain\arm-none-eabi\include\c++\10.2.1\cmath ****     inline _GLIBCXX_CONSTEXPR
 135:c:\program files\daisytoolchain\arm-none-eabi\include\c++\10.2.1\cmath ****     typename __gnu_cxx::__enable_if<__is_integer<_Tp>::__value,
 136:c:\program files\daisytoolchain\arm-none-eabi\include\c++\10.2.1\cmath ****                                     double>::__type
ARM GAS  C:\Users\matte\AppData\Local\Temp\ccrMwnXK.s 			page 107


 137:c:\program files\daisytoolchain\arm-none-eabi\include\c++\10.2.1\cmath ****     atan(_Tp __x)
 138:c:\program files\daisytoolchain\arm-none-eabi\include\c++\10.2.1\cmath ****     { return __builtin_atan(__x); }
 139:c:\program files\daisytoolchain\arm-none-eabi\include\c++\10.2.1\cmath **** 
 140:c:\program files\daisytoolchain\arm-none-eabi\include\c++\10.2.1\cmath ****   using ::atan2;
 141:c:\program files\daisytoolchain\arm-none-eabi\include\c++\10.2.1\cmath **** 
 142:c:\program files\daisytoolchain\arm-none-eabi\include\c++\10.2.1\cmath **** #ifndef __CORRECT_ISO_CPP_MATH_H_PROTO
 143:c:\program files\daisytoolchain\arm-none-eabi\include\c++\10.2.1\cmath ****   inline _GLIBCXX_CONSTEXPR float
 144:c:\program files\daisytoolchain\arm-none-eabi\include\c++\10.2.1\cmath ****   atan2(float __y, float __x)
 145:c:\program files\daisytoolchain\arm-none-eabi\include\c++\10.2.1\cmath ****   { return __builtin_atan2f(__y, __x); }
 146:c:\program files\daisytoolchain\arm-none-eabi\include\c++\10.2.1\cmath **** 
 147:c:\program files\daisytoolchain\arm-none-eabi\include\c++\10.2.1\cmath ****   inline _GLIBCXX_CONSTEXPR long double
 148:c:\program files\daisytoolchain\arm-none-eabi\include\c++\10.2.1\cmath ****   atan2(long double __y, long double __x)
 149:c:\program files\daisytoolchain\arm-none-eabi\include\c++\10.2.1\cmath ****   { return __builtin_atan2l(__y, __x); }
 150:c:\program files\daisytoolchain\arm-none-eabi\include\c++\10.2.1\cmath **** #endif
 151:c:\program files\daisytoolchain\arm-none-eabi\include\c++\10.2.1\cmath **** 
 152:c:\program files\daisytoolchain\arm-none-eabi\include\c++\10.2.1\cmath ****   template<typename _Tp, typename _Up>
 153:c:\program files\daisytoolchain\arm-none-eabi\include\c++\10.2.1\cmath ****     inline _GLIBCXX_CONSTEXPR
 154:c:\program files\daisytoolchain\arm-none-eabi\include\c++\10.2.1\cmath ****     typename __gnu_cxx::__promote_2<_Tp, _Up>::__type
 155:c:\program files\daisytoolchain\arm-none-eabi\include\c++\10.2.1\cmath ****     atan2(_Tp __y, _Up __x)
 156:c:\program files\daisytoolchain\arm-none-eabi\include\c++\10.2.1\cmath ****     {
 157:c:\program files\daisytoolchain\arm-none-eabi\include\c++\10.2.1\cmath ****       typedef typename __gnu_cxx::__promote_2<_Tp, _Up>::__type __type;
 158:c:\program files\daisytoolchain\arm-none-eabi\include\c++\10.2.1\cmath ****       return atan2(__type(__y), __type(__x));
 159:c:\program files\daisytoolchain\arm-none-eabi\include\c++\10.2.1\cmath ****     }
 160:c:\program files\daisytoolchain\arm-none-eabi\include\c++\10.2.1\cmath **** 
 161:c:\program files\daisytoolchain\arm-none-eabi\include\c++\10.2.1\cmath ****   using ::ceil;
 162:c:\program files\daisytoolchain\arm-none-eabi\include\c++\10.2.1\cmath **** 
 163:c:\program files\daisytoolchain\arm-none-eabi\include\c++\10.2.1\cmath **** #ifndef __CORRECT_ISO_CPP_MATH_H_PROTO
 164:c:\program files\daisytoolchain\arm-none-eabi\include\c++\10.2.1\cmath ****   inline _GLIBCXX_CONSTEXPR float
 165:c:\program files\daisytoolchain\arm-none-eabi\include\c++\10.2.1\cmath ****   ceil(float __x)
 166:c:\program files\daisytoolchain\arm-none-eabi\include\c++\10.2.1\cmath ****   { return __builtin_ceilf(__x); }
 167:c:\program files\daisytoolchain\arm-none-eabi\include\c++\10.2.1\cmath **** 
 168:c:\program files\daisytoolchain\arm-none-eabi\include\c++\10.2.1\cmath ****   inline _GLIBCXX_CONSTEXPR long double
 169:c:\program files\daisytoolchain\arm-none-eabi\include\c++\10.2.1\cmath ****   ceil(long double __x)
 170:c:\program files\daisytoolchain\arm-none-eabi\include\c++\10.2.1\cmath ****   { return __builtin_ceill(__x); }
 171:c:\program files\daisytoolchain\arm-none-eabi\include\c++\10.2.1\cmath **** #endif
 172:c:\program files\daisytoolchain\arm-none-eabi\include\c++\10.2.1\cmath **** 
 173:c:\program files\daisytoolchain\arm-none-eabi\include\c++\10.2.1\cmath ****   template<typename _Tp>
 174:c:\program files\daisytoolchain\arm-none-eabi\include\c++\10.2.1\cmath ****     inline _GLIBCXX_CONSTEXPR
 175:c:\program files\daisytoolchain\arm-none-eabi\include\c++\10.2.1\cmath ****     typename __gnu_cxx::__enable_if<__is_integer<_Tp>::__value, 
 176:c:\program files\daisytoolchain\arm-none-eabi\include\c++\10.2.1\cmath ****                                     double>::__type
 177:c:\program files\daisytoolchain\arm-none-eabi\include\c++\10.2.1\cmath ****     ceil(_Tp __x)
 178:c:\program files\daisytoolchain\arm-none-eabi\include\c++\10.2.1\cmath ****     { return __builtin_ceil(__x); }
 179:c:\program files\daisytoolchain\arm-none-eabi\include\c++\10.2.1\cmath **** 
 180:c:\program files\daisytoolchain\arm-none-eabi\include\c++\10.2.1\cmath ****   using ::cos;
 181:c:\program files\daisytoolchain\arm-none-eabi\include\c++\10.2.1\cmath **** 
 182:c:\program files\daisytoolchain\arm-none-eabi\include\c++\10.2.1\cmath **** #ifndef __CORRECT_ISO_CPP_MATH_H_PROTO
 183:c:\program files\daisytoolchain\arm-none-eabi\include\c++\10.2.1\cmath ****   inline _GLIBCXX_CONSTEXPR float
 184:c:\program files\daisytoolchain\arm-none-eabi\include\c++\10.2.1\cmath ****   cos(float __x)
 185:c:\program files\daisytoolchain\arm-none-eabi\include\c++\10.2.1\cmath ****   { return __builtin_cosf(__x); }
 3620              		.loc 13 185 26 view .LVU803
 3621 0050 B0EE680A 		vmov.f32	s0, s17
 3622 0054 FFF7FEFF 		bl	cosf
 3623              	.LVL248:
 3624              		.loc 13 185 26 view .LVU804
 3625              	.LBE1204:
 3626              	.LBE1203:
 315:../../libs/PoliTeKDSP/libs/libDaisy/src/hid/disp/display.h ****         start_y = -sin(start_angle_rad) * radius;
ARM GAS  C:\Users\matte\AppData\Local\Temp\ccrMwnXK.s 			page 108


 3627              		.loc 9 315 17 view .LVU805
 3628 0058 07EE907A 		vmov	s15, r7	@ int
 313:../../libs/PoliTeKDSP/libs/libDaisy/src/hid/disp/display.h **** 
 3629              		.loc 9 313 25 view .LVU806
 3630 005c B7EECAAB 		vcvt.f32.f64	s20, d10
 3631              	.LVL249:
 3632              	.LBB1207:
 3633              	.LBI1203:
 184:c:\program files\daisytoolchain\arm-none-eabi\include\c++\10.2.1\cmath ****   { return __builtin_cosf(__x); }
 3634              		.loc 13 184 3 is_stmt 1 view .LVU807
 3635              	.LBB1205:
 3636              		.loc 13 185 5 view .LVU808
 3637              		.loc 13 185 5 is_stmt 0 view .LVU809
 3638              	.LBE1205:
 3639              	.LBE1207:
 315:../../libs/PoliTeKDSP/libs/libDaisy/src/hid/disp/display.h ****         start_y = -sin(start_angle_rad) * radius;
 3640              		.loc 9 315 17 view .LVU810
 3641 0060 F8EE679A 		vcvt.f32.u32	s19, s15
 3642              	.LBB1208:
 3643              	.LBB1206:
 3644              		.loc 13 185 26 view .LVU811
 3645 0064 B0EE408A 		vmov.f32	s16, s0
 3646              	.LBE1206:
 3647              	.LBE1208:
 3648              	.LBB1209:
 3649              	.LBB1210:
 186:c:\program files\daisytoolchain\arm-none-eabi\include\c++\10.2.1\cmath **** 
 187:c:\program files\daisytoolchain\arm-none-eabi\include\c++\10.2.1\cmath ****   inline _GLIBCXX_CONSTEXPR long double
 188:c:\program files\daisytoolchain\arm-none-eabi\include\c++\10.2.1\cmath ****   cos(long double __x)
 189:c:\program files\daisytoolchain\arm-none-eabi\include\c++\10.2.1\cmath ****   { return __builtin_cosl(__x); }
 190:c:\program files\daisytoolchain\arm-none-eabi\include\c++\10.2.1\cmath **** #endif
 191:c:\program files\daisytoolchain\arm-none-eabi\include\c++\10.2.1\cmath **** 
 192:c:\program files\daisytoolchain\arm-none-eabi\include\c++\10.2.1\cmath ****   template<typename _Tp>
 193:c:\program files\daisytoolchain\arm-none-eabi\include\c++\10.2.1\cmath ****     inline _GLIBCXX_CONSTEXPR
 194:c:\program files\daisytoolchain\arm-none-eabi\include\c++\10.2.1\cmath ****     typename __gnu_cxx::__enable_if<__is_integer<_Tp>::__value,
 195:c:\program files\daisytoolchain\arm-none-eabi\include\c++\10.2.1\cmath ****                                     double>::__type
 196:c:\program files\daisytoolchain\arm-none-eabi\include\c++\10.2.1\cmath ****     cos(_Tp __x)
 197:c:\program files\daisytoolchain\arm-none-eabi\include\c++\10.2.1\cmath ****     { return __builtin_cos(__x); }
 198:c:\program files\daisytoolchain\arm-none-eabi\include\c++\10.2.1\cmath **** 
 199:c:\program files\daisytoolchain\arm-none-eabi\include\c++\10.2.1\cmath ****   using ::cosh;
 200:c:\program files\daisytoolchain\arm-none-eabi\include\c++\10.2.1\cmath **** 
 201:c:\program files\daisytoolchain\arm-none-eabi\include\c++\10.2.1\cmath **** #ifndef __CORRECT_ISO_CPP_MATH_H_PROTO
 202:c:\program files\daisytoolchain\arm-none-eabi\include\c++\10.2.1\cmath ****   inline _GLIBCXX_CONSTEXPR float
 203:c:\program files\daisytoolchain\arm-none-eabi\include\c++\10.2.1\cmath ****   cosh(float __x)
 204:c:\program files\daisytoolchain\arm-none-eabi\include\c++\10.2.1\cmath ****   { return __builtin_coshf(__x); }
 205:c:\program files\daisytoolchain\arm-none-eabi\include\c++\10.2.1\cmath **** 
 206:c:\program files\daisytoolchain\arm-none-eabi\include\c++\10.2.1\cmath ****   inline _GLIBCXX_CONSTEXPR long double
 207:c:\program files\daisytoolchain\arm-none-eabi\include\c++\10.2.1\cmath ****   cosh(long double __x)
 208:c:\program files\daisytoolchain\arm-none-eabi\include\c++\10.2.1\cmath ****   { return __builtin_coshl(__x); }
 209:c:\program files\daisytoolchain\arm-none-eabi\include\c++\10.2.1\cmath **** #endif
 210:c:\program files\daisytoolchain\arm-none-eabi\include\c++\10.2.1\cmath **** 
 211:c:\program files\daisytoolchain\arm-none-eabi\include\c++\10.2.1\cmath ****   template<typename _Tp>
 212:c:\program files\daisytoolchain\arm-none-eabi\include\c++\10.2.1\cmath ****     inline _GLIBCXX_CONSTEXPR
 213:c:\program files\daisytoolchain\arm-none-eabi\include\c++\10.2.1\cmath ****     typename __gnu_cxx::__enable_if<__is_integer<_Tp>::__value,
 214:c:\program files\daisytoolchain\arm-none-eabi\include\c++\10.2.1\cmath ****                                     double>::__type
 215:c:\program files\daisytoolchain\arm-none-eabi\include\c++\10.2.1\cmath ****     cosh(_Tp __x)
 216:c:\program files\daisytoolchain\arm-none-eabi\include\c++\10.2.1\cmath ****     { return __builtin_cosh(__x); }
ARM GAS  C:\Users\matte\AppData\Local\Temp\ccrMwnXK.s 			page 109


 217:c:\program files\daisytoolchain\arm-none-eabi\include\c++\10.2.1\cmath **** 
 218:c:\program files\daisytoolchain\arm-none-eabi\include\c++\10.2.1\cmath ****   using ::exp;
 219:c:\program files\daisytoolchain\arm-none-eabi\include\c++\10.2.1\cmath **** 
 220:c:\program files\daisytoolchain\arm-none-eabi\include\c++\10.2.1\cmath **** #ifndef __CORRECT_ISO_CPP_MATH_H_PROTO
 221:c:\program files\daisytoolchain\arm-none-eabi\include\c++\10.2.1\cmath ****   inline _GLIBCXX_CONSTEXPR float
 222:c:\program files\daisytoolchain\arm-none-eabi\include\c++\10.2.1\cmath ****   exp(float __x)
 223:c:\program files\daisytoolchain\arm-none-eabi\include\c++\10.2.1\cmath ****   { return __builtin_expf(__x); }
 224:c:\program files\daisytoolchain\arm-none-eabi\include\c++\10.2.1\cmath **** 
 225:c:\program files\daisytoolchain\arm-none-eabi\include\c++\10.2.1\cmath ****   inline _GLIBCXX_CONSTEXPR long double
 226:c:\program files\daisytoolchain\arm-none-eabi\include\c++\10.2.1\cmath ****   exp(long double __x)
 227:c:\program files\daisytoolchain\arm-none-eabi\include\c++\10.2.1\cmath ****   { return __builtin_expl(__x); }
 228:c:\program files\daisytoolchain\arm-none-eabi\include\c++\10.2.1\cmath **** #endif
 229:c:\program files\daisytoolchain\arm-none-eabi\include\c++\10.2.1\cmath **** 
 230:c:\program files\daisytoolchain\arm-none-eabi\include\c++\10.2.1\cmath ****   template<typename _Tp>
 231:c:\program files\daisytoolchain\arm-none-eabi\include\c++\10.2.1\cmath ****     inline _GLIBCXX_CONSTEXPR
 232:c:\program files\daisytoolchain\arm-none-eabi\include\c++\10.2.1\cmath ****     typename __gnu_cxx::__enable_if<__is_integer<_Tp>::__value,
 233:c:\program files\daisytoolchain\arm-none-eabi\include\c++\10.2.1\cmath ****                                     double>::__type
 234:c:\program files\daisytoolchain\arm-none-eabi\include\c++\10.2.1\cmath ****     exp(_Tp __x)
 235:c:\program files\daisytoolchain\arm-none-eabi\include\c++\10.2.1\cmath ****     { return __builtin_exp(__x); }
 236:c:\program files\daisytoolchain\arm-none-eabi\include\c++\10.2.1\cmath **** 
 237:c:\program files\daisytoolchain\arm-none-eabi\include\c++\10.2.1\cmath ****   using ::fabs;
 238:c:\program files\daisytoolchain\arm-none-eabi\include\c++\10.2.1\cmath **** 
 239:c:\program files\daisytoolchain\arm-none-eabi\include\c++\10.2.1\cmath **** #ifndef __CORRECT_ISO_CPP_MATH_H_PROTO
 240:c:\program files\daisytoolchain\arm-none-eabi\include\c++\10.2.1\cmath ****   inline _GLIBCXX_CONSTEXPR float
 241:c:\program files\daisytoolchain\arm-none-eabi\include\c++\10.2.1\cmath ****   fabs(float __x)
 242:c:\program files\daisytoolchain\arm-none-eabi\include\c++\10.2.1\cmath ****   { return __builtin_fabsf(__x); }
 243:c:\program files\daisytoolchain\arm-none-eabi\include\c++\10.2.1\cmath **** 
 244:c:\program files\daisytoolchain\arm-none-eabi\include\c++\10.2.1\cmath ****   inline _GLIBCXX_CONSTEXPR long double
 245:c:\program files\daisytoolchain\arm-none-eabi\include\c++\10.2.1\cmath ****   fabs(long double __x)
 246:c:\program files\daisytoolchain\arm-none-eabi\include\c++\10.2.1\cmath ****   { return __builtin_fabsl(__x); }
 247:c:\program files\daisytoolchain\arm-none-eabi\include\c++\10.2.1\cmath **** #endif
 248:c:\program files\daisytoolchain\arm-none-eabi\include\c++\10.2.1\cmath **** 
 249:c:\program files\daisytoolchain\arm-none-eabi\include\c++\10.2.1\cmath ****   template<typename _Tp>
 250:c:\program files\daisytoolchain\arm-none-eabi\include\c++\10.2.1\cmath ****     inline _GLIBCXX_CONSTEXPR
 251:c:\program files\daisytoolchain\arm-none-eabi\include\c++\10.2.1\cmath ****     typename __gnu_cxx::__enable_if<__is_integer<_Tp>::__value,
 252:c:\program files\daisytoolchain\arm-none-eabi\include\c++\10.2.1\cmath ****                                     double>::__type
 253:c:\program files\daisytoolchain\arm-none-eabi\include\c++\10.2.1\cmath ****     fabs(_Tp __x)
 254:c:\program files\daisytoolchain\arm-none-eabi\include\c++\10.2.1\cmath ****     { return __builtin_fabs(__x); }
 255:c:\program files\daisytoolchain\arm-none-eabi\include\c++\10.2.1\cmath **** 
 256:c:\program files\daisytoolchain\arm-none-eabi\include\c++\10.2.1\cmath ****   using ::floor;
 257:c:\program files\daisytoolchain\arm-none-eabi\include\c++\10.2.1\cmath **** 
 258:c:\program files\daisytoolchain\arm-none-eabi\include\c++\10.2.1\cmath **** #ifndef __CORRECT_ISO_CPP_MATH_H_PROTO
 259:c:\program files\daisytoolchain\arm-none-eabi\include\c++\10.2.1\cmath ****   inline _GLIBCXX_CONSTEXPR float
 260:c:\program files\daisytoolchain\arm-none-eabi\include\c++\10.2.1\cmath ****   floor(float __x)
 261:c:\program files\daisytoolchain\arm-none-eabi\include\c++\10.2.1\cmath ****   { return __builtin_floorf(__x); }
 262:c:\program files\daisytoolchain\arm-none-eabi\include\c++\10.2.1\cmath **** 
 263:c:\program files\daisytoolchain\arm-none-eabi\include\c++\10.2.1\cmath ****   inline _GLIBCXX_CONSTEXPR long double
 264:c:\program files\daisytoolchain\arm-none-eabi\include\c++\10.2.1\cmath ****   floor(long double __x)
 265:c:\program files\daisytoolchain\arm-none-eabi\include\c++\10.2.1\cmath ****   { return __builtin_floorl(__x); }
 266:c:\program files\daisytoolchain\arm-none-eabi\include\c++\10.2.1\cmath **** #endif
 267:c:\program files\daisytoolchain\arm-none-eabi\include\c++\10.2.1\cmath **** 
 268:c:\program files\daisytoolchain\arm-none-eabi\include\c++\10.2.1\cmath ****   template<typename _Tp>
 269:c:\program files\daisytoolchain\arm-none-eabi\include\c++\10.2.1\cmath ****     inline _GLIBCXX_CONSTEXPR
 270:c:\program files\daisytoolchain\arm-none-eabi\include\c++\10.2.1\cmath ****     typename __gnu_cxx::__enable_if<__is_integer<_Tp>::__value,
 271:c:\program files\daisytoolchain\arm-none-eabi\include\c++\10.2.1\cmath ****                                     double>::__type
 272:c:\program files\daisytoolchain\arm-none-eabi\include\c++\10.2.1\cmath ****     floor(_Tp __x)
 273:c:\program files\daisytoolchain\arm-none-eabi\include\c++\10.2.1\cmath ****     { return __builtin_floor(__x); }
ARM GAS  C:\Users\matte\AppData\Local\Temp\ccrMwnXK.s 			page 110


 274:c:\program files\daisytoolchain\arm-none-eabi\include\c++\10.2.1\cmath **** 
 275:c:\program files\daisytoolchain\arm-none-eabi\include\c++\10.2.1\cmath ****   using ::fmod;
 276:c:\program files\daisytoolchain\arm-none-eabi\include\c++\10.2.1\cmath **** 
 277:c:\program files\daisytoolchain\arm-none-eabi\include\c++\10.2.1\cmath **** #ifndef __CORRECT_ISO_CPP_MATH_H_PROTO
 278:c:\program files\daisytoolchain\arm-none-eabi\include\c++\10.2.1\cmath ****   inline _GLIBCXX_CONSTEXPR float
 279:c:\program files\daisytoolchain\arm-none-eabi\include\c++\10.2.1\cmath ****   fmod(float __x, float __y)
 280:c:\program files\daisytoolchain\arm-none-eabi\include\c++\10.2.1\cmath ****   { return __builtin_fmodf(__x, __y); }
 281:c:\program files\daisytoolchain\arm-none-eabi\include\c++\10.2.1\cmath **** 
 282:c:\program files\daisytoolchain\arm-none-eabi\include\c++\10.2.1\cmath ****   inline _GLIBCXX_CONSTEXPR long double
 283:c:\program files\daisytoolchain\arm-none-eabi\include\c++\10.2.1\cmath ****   fmod(long double __x, long double __y)
 284:c:\program files\daisytoolchain\arm-none-eabi\include\c++\10.2.1\cmath ****   { return __builtin_fmodl(__x, __y); }
 285:c:\program files\daisytoolchain\arm-none-eabi\include\c++\10.2.1\cmath **** #endif
 286:c:\program files\daisytoolchain\arm-none-eabi\include\c++\10.2.1\cmath **** 
 287:c:\program files\daisytoolchain\arm-none-eabi\include\c++\10.2.1\cmath ****   template<typename _Tp, typename _Up>
 288:c:\program files\daisytoolchain\arm-none-eabi\include\c++\10.2.1\cmath ****     inline _GLIBCXX_CONSTEXPR
 289:c:\program files\daisytoolchain\arm-none-eabi\include\c++\10.2.1\cmath ****     typename __gnu_cxx::__promote_2<_Tp, _Up>::__type
 290:c:\program files\daisytoolchain\arm-none-eabi\include\c++\10.2.1\cmath ****     fmod(_Tp __x, _Up __y)
 291:c:\program files\daisytoolchain\arm-none-eabi\include\c++\10.2.1\cmath ****     {
 292:c:\program files\daisytoolchain\arm-none-eabi\include\c++\10.2.1\cmath ****       typedef typename __gnu_cxx::__promote_2<_Tp, _Up>::__type __type;
 293:c:\program files\daisytoolchain\arm-none-eabi\include\c++\10.2.1\cmath ****       return fmod(__type(__x), __type(__y));
 294:c:\program files\daisytoolchain\arm-none-eabi\include\c++\10.2.1\cmath ****     }
 295:c:\program files\daisytoolchain\arm-none-eabi\include\c++\10.2.1\cmath **** 
 296:c:\program files\daisytoolchain\arm-none-eabi\include\c++\10.2.1\cmath ****   using ::frexp;
 297:c:\program files\daisytoolchain\arm-none-eabi\include\c++\10.2.1\cmath **** 
 298:c:\program files\daisytoolchain\arm-none-eabi\include\c++\10.2.1\cmath **** #ifndef __CORRECT_ISO_CPP_MATH_H_PROTO
 299:c:\program files\daisytoolchain\arm-none-eabi\include\c++\10.2.1\cmath ****   inline float
 300:c:\program files\daisytoolchain\arm-none-eabi\include\c++\10.2.1\cmath ****   frexp(float __x, int* __exp)
 301:c:\program files\daisytoolchain\arm-none-eabi\include\c++\10.2.1\cmath ****   { return __builtin_frexpf(__x, __exp); }
 302:c:\program files\daisytoolchain\arm-none-eabi\include\c++\10.2.1\cmath **** 
 303:c:\program files\daisytoolchain\arm-none-eabi\include\c++\10.2.1\cmath ****   inline long double
 304:c:\program files\daisytoolchain\arm-none-eabi\include\c++\10.2.1\cmath ****   frexp(long double __x, int* __exp)
 305:c:\program files\daisytoolchain\arm-none-eabi\include\c++\10.2.1\cmath ****   { return __builtin_frexpl(__x, __exp); }
 306:c:\program files\daisytoolchain\arm-none-eabi\include\c++\10.2.1\cmath **** #endif
 307:c:\program files\daisytoolchain\arm-none-eabi\include\c++\10.2.1\cmath **** 
 308:c:\program files\daisytoolchain\arm-none-eabi\include\c++\10.2.1\cmath ****   template<typename _Tp>
 309:c:\program files\daisytoolchain\arm-none-eabi\include\c++\10.2.1\cmath ****     inline _GLIBCXX_CONSTEXPR
 310:c:\program files\daisytoolchain\arm-none-eabi\include\c++\10.2.1\cmath ****     typename __gnu_cxx::__enable_if<__is_integer<_Tp>::__value, 
 311:c:\program files\daisytoolchain\arm-none-eabi\include\c++\10.2.1\cmath ****                                     double>::__type
 312:c:\program files\daisytoolchain\arm-none-eabi\include\c++\10.2.1\cmath ****     frexp(_Tp __x, int* __exp)
 313:c:\program files\daisytoolchain\arm-none-eabi\include\c++\10.2.1\cmath ****     { return __builtin_frexp(__x, __exp); }
 314:c:\program files\daisytoolchain\arm-none-eabi\include\c++\10.2.1\cmath **** 
 315:c:\program files\daisytoolchain\arm-none-eabi\include\c++\10.2.1\cmath ****   using ::ldexp;
 316:c:\program files\daisytoolchain\arm-none-eabi\include\c++\10.2.1\cmath **** 
 317:c:\program files\daisytoolchain\arm-none-eabi\include\c++\10.2.1\cmath **** #ifndef __CORRECT_ISO_CPP_MATH_H_PROTO
 318:c:\program files\daisytoolchain\arm-none-eabi\include\c++\10.2.1\cmath ****   inline _GLIBCXX_CONSTEXPR float
 319:c:\program files\daisytoolchain\arm-none-eabi\include\c++\10.2.1\cmath ****   ldexp(float __x, int __exp)
 320:c:\program files\daisytoolchain\arm-none-eabi\include\c++\10.2.1\cmath ****   { return __builtin_ldexpf(__x, __exp); }
 321:c:\program files\daisytoolchain\arm-none-eabi\include\c++\10.2.1\cmath **** 
 322:c:\program files\daisytoolchain\arm-none-eabi\include\c++\10.2.1\cmath ****   inline _GLIBCXX_CONSTEXPR long double
 323:c:\program files\daisytoolchain\arm-none-eabi\include\c++\10.2.1\cmath ****   ldexp(long double __x, int __exp)
 324:c:\program files\daisytoolchain\arm-none-eabi\include\c++\10.2.1\cmath ****   { return __builtin_ldexpl(__x, __exp); }
 325:c:\program files\daisytoolchain\arm-none-eabi\include\c++\10.2.1\cmath **** #endif
 326:c:\program files\daisytoolchain\arm-none-eabi\include\c++\10.2.1\cmath **** 
 327:c:\program files\daisytoolchain\arm-none-eabi\include\c++\10.2.1\cmath ****   template<typename _Tp>
 328:c:\program files\daisytoolchain\arm-none-eabi\include\c++\10.2.1\cmath ****     inline _GLIBCXX_CONSTEXPR
 329:c:\program files\daisytoolchain\arm-none-eabi\include\c++\10.2.1\cmath ****     typename __gnu_cxx::__enable_if<__is_integer<_Tp>::__value, 
 330:c:\program files\daisytoolchain\arm-none-eabi\include\c++\10.2.1\cmath ****                                     double>::__type
ARM GAS  C:\Users\matte\AppData\Local\Temp\ccrMwnXK.s 			page 111


 331:c:\program files\daisytoolchain\arm-none-eabi\include\c++\10.2.1\cmath ****     ldexp(_Tp __x, int __exp)
 332:c:\program files\daisytoolchain\arm-none-eabi\include\c++\10.2.1\cmath ****     { return __builtin_ldexp(__x, __exp); }
 333:c:\program files\daisytoolchain\arm-none-eabi\include\c++\10.2.1\cmath **** 
 334:c:\program files\daisytoolchain\arm-none-eabi\include\c++\10.2.1\cmath ****   using ::log;
 335:c:\program files\daisytoolchain\arm-none-eabi\include\c++\10.2.1\cmath **** 
 336:c:\program files\daisytoolchain\arm-none-eabi\include\c++\10.2.1\cmath **** #ifndef __CORRECT_ISO_CPP_MATH_H_PROTO
 337:c:\program files\daisytoolchain\arm-none-eabi\include\c++\10.2.1\cmath ****   inline _GLIBCXX_CONSTEXPR float
 338:c:\program files\daisytoolchain\arm-none-eabi\include\c++\10.2.1\cmath ****   log(float __x)
 339:c:\program files\daisytoolchain\arm-none-eabi\include\c++\10.2.1\cmath ****   { return __builtin_logf(__x); }
 340:c:\program files\daisytoolchain\arm-none-eabi\include\c++\10.2.1\cmath **** 
 341:c:\program files\daisytoolchain\arm-none-eabi\include\c++\10.2.1\cmath ****   inline _GLIBCXX_CONSTEXPR long double
 342:c:\program files\daisytoolchain\arm-none-eabi\include\c++\10.2.1\cmath ****   log(long double __x)
 343:c:\program files\daisytoolchain\arm-none-eabi\include\c++\10.2.1\cmath ****   { return __builtin_logl(__x); }
 344:c:\program files\daisytoolchain\arm-none-eabi\include\c++\10.2.1\cmath **** #endif
 345:c:\program files\daisytoolchain\arm-none-eabi\include\c++\10.2.1\cmath **** 
 346:c:\program files\daisytoolchain\arm-none-eabi\include\c++\10.2.1\cmath ****   template<typename _Tp>
 347:c:\program files\daisytoolchain\arm-none-eabi\include\c++\10.2.1\cmath ****     inline _GLIBCXX_CONSTEXPR
 348:c:\program files\daisytoolchain\arm-none-eabi\include\c++\10.2.1\cmath ****     typename __gnu_cxx::__enable_if<__is_integer<_Tp>::__value, 
 349:c:\program files\daisytoolchain\arm-none-eabi\include\c++\10.2.1\cmath ****                                     double>::__type
 350:c:\program files\daisytoolchain\arm-none-eabi\include\c++\10.2.1\cmath ****     log(_Tp __x)
 351:c:\program files\daisytoolchain\arm-none-eabi\include\c++\10.2.1\cmath ****     { return __builtin_log(__x); }
 352:c:\program files\daisytoolchain\arm-none-eabi\include\c++\10.2.1\cmath **** 
 353:c:\program files\daisytoolchain\arm-none-eabi\include\c++\10.2.1\cmath ****   using ::log10;
 354:c:\program files\daisytoolchain\arm-none-eabi\include\c++\10.2.1\cmath **** 
 355:c:\program files\daisytoolchain\arm-none-eabi\include\c++\10.2.1\cmath **** #ifndef __CORRECT_ISO_CPP_MATH_H_PROTO
 356:c:\program files\daisytoolchain\arm-none-eabi\include\c++\10.2.1\cmath ****   inline _GLIBCXX_CONSTEXPR float
 357:c:\program files\daisytoolchain\arm-none-eabi\include\c++\10.2.1\cmath ****   log10(float __x)
 358:c:\program files\daisytoolchain\arm-none-eabi\include\c++\10.2.1\cmath ****   { return __builtin_log10f(__x); }
 359:c:\program files\daisytoolchain\arm-none-eabi\include\c++\10.2.1\cmath **** 
 360:c:\program files\daisytoolchain\arm-none-eabi\include\c++\10.2.1\cmath ****   inline _GLIBCXX_CONSTEXPR long double
 361:c:\program files\daisytoolchain\arm-none-eabi\include\c++\10.2.1\cmath ****   log10(long double __x)
 362:c:\program files\daisytoolchain\arm-none-eabi\include\c++\10.2.1\cmath ****   { return __builtin_log10l(__x); }
 363:c:\program files\daisytoolchain\arm-none-eabi\include\c++\10.2.1\cmath **** #endif
 364:c:\program files\daisytoolchain\arm-none-eabi\include\c++\10.2.1\cmath **** 
 365:c:\program files\daisytoolchain\arm-none-eabi\include\c++\10.2.1\cmath ****   template<typename _Tp>
 366:c:\program files\daisytoolchain\arm-none-eabi\include\c++\10.2.1\cmath ****     inline _GLIBCXX_CONSTEXPR
 367:c:\program files\daisytoolchain\arm-none-eabi\include\c++\10.2.1\cmath ****     typename __gnu_cxx::__enable_if<__is_integer<_Tp>::__value,
 368:c:\program files\daisytoolchain\arm-none-eabi\include\c++\10.2.1\cmath ****                                     double>::__type
 369:c:\program files\daisytoolchain\arm-none-eabi\include\c++\10.2.1\cmath ****     log10(_Tp __x)
 370:c:\program files\daisytoolchain\arm-none-eabi\include\c++\10.2.1\cmath ****     { return __builtin_log10(__x); }
 371:c:\program files\daisytoolchain\arm-none-eabi\include\c++\10.2.1\cmath **** 
 372:c:\program files\daisytoolchain\arm-none-eabi\include\c++\10.2.1\cmath ****   using ::modf;
 373:c:\program files\daisytoolchain\arm-none-eabi\include\c++\10.2.1\cmath **** 
 374:c:\program files\daisytoolchain\arm-none-eabi\include\c++\10.2.1\cmath **** #ifndef __CORRECT_ISO_CPP_MATH_H_PROTO
 375:c:\program files\daisytoolchain\arm-none-eabi\include\c++\10.2.1\cmath ****   inline float
 376:c:\program files\daisytoolchain\arm-none-eabi\include\c++\10.2.1\cmath ****   modf(float __x, float* __iptr)
 377:c:\program files\daisytoolchain\arm-none-eabi\include\c++\10.2.1\cmath ****   { return __builtin_modff(__x, __iptr); }
 378:c:\program files\daisytoolchain\arm-none-eabi\include\c++\10.2.1\cmath **** 
 379:c:\program files\daisytoolchain\arm-none-eabi\include\c++\10.2.1\cmath ****   inline long double
 380:c:\program files\daisytoolchain\arm-none-eabi\include\c++\10.2.1\cmath ****   modf(long double __x, long double* __iptr)
 381:c:\program files\daisytoolchain\arm-none-eabi\include\c++\10.2.1\cmath ****   { return __builtin_modfl(__x, __iptr); }
 382:c:\program files\daisytoolchain\arm-none-eabi\include\c++\10.2.1\cmath **** #endif
 383:c:\program files\daisytoolchain\arm-none-eabi\include\c++\10.2.1\cmath **** 
 384:c:\program files\daisytoolchain\arm-none-eabi\include\c++\10.2.1\cmath ****   using ::pow;
 385:c:\program files\daisytoolchain\arm-none-eabi\include\c++\10.2.1\cmath **** 
 386:c:\program files\daisytoolchain\arm-none-eabi\include\c++\10.2.1\cmath **** #ifndef __CORRECT_ISO_CPP_MATH_H_PROTO
 387:c:\program files\daisytoolchain\arm-none-eabi\include\c++\10.2.1\cmath ****   inline _GLIBCXX_CONSTEXPR float
ARM GAS  C:\Users\matte\AppData\Local\Temp\ccrMwnXK.s 			page 112


 388:c:\program files\daisytoolchain\arm-none-eabi\include\c++\10.2.1\cmath ****   pow(float __x, float __y)
 389:c:\program files\daisytoolchain\arm-none-eabi\include\c++\10.2.1\cmath ****   { return __builtin_powf(__x, __y); }
 390:c:\program files\daisytoolchain\arm-none-eabi\include\c++\10.2.1\cmath **** 
 391:c:\program files\daisytoolchain\arm-none-eabi\include\c++\10.2.1\cmath ****   inline _GLIBCXX_CONSTEXPR long double
 392:c:\program files\daisytoolchain\arm-none-eabi\include\c++\10.2.1\cmath ****   pow(long double __x, long double __y)
 393:c:\program files\daisytoolchain\arm-none-eabi\include\c++\10.2.1\cmath ****   { return __builtin_powl(__x, __y); }
 394:c:\program files\daisytoolchain\arm-none-eabi\include\c++\10.2.1\cmath **** 
 395:c:\program files\daisytoolchain\arm-none-eabi\include\c++\10.2.1\cmath **** #if __cplusplus < 201103L
 396:c:\program files\daisytoolchain\arm-none-eabi\include\c++\10.2.1\cmath ****   // _GLIBCXX_RESOLVE_LIB_DEFECTS
 397:c:\program files\daisytoolchain\arm-none-eabi\include\c++\10.2.1\cmath ****   // DR 550. What should the return type of pow(float,int) be?
 398:c:\program files\daisytoolchain\arm-none-eabi\include\c++\10.2.1\cmath ****   inline double
 399:c:\program files\daisytoolchain\arm-none-eabi\include\c++\10.2.1\cmath ****   pow(double __x, int __i)
 400:c:\program files\daisytoolchain\arm-none-eabi\include\c++\10.2.1\cmath ****   { return __builtin_powi(__x, __i); }
 401:c:\program files\daisytoolchain\arm-none-eabi\include\c++\10.2.1\cmath **** 
 402:c:\program files\daisytoolchain\arm-none-eabi\include\c++\10.2.1\cmath ****   inline float
 403:c:\program files\daisytoolchain\arm-none-eabi\include\c++\10.2.1\cmath ****   pow(float __x, int __n)
 404:c:\program files\daisytoolchain\arm-none-eabi\include\c++\10.2.1\cmath ****   { return __builtin_powif(__x, __n); }
 405:c:\program files\daisytoolchain\arm-none-eabi\include\c++\10.2.1\cmath **** 
 406:c:\program files\daisytoolchain\arm-none-eabi\include\c++\10.2.1\cmath ****   inline long double
 407:c:\program files\daisytoolchain\arm-none-eabi\include\c++\10.2.1\cmath ****   pow(long double __x, int __n)
 408:c:\program files\daisytoolchain\arm-none-eabi\include\c++\10.2.1\cmath ****   { return __builtin_powil(__x, __n); }
 409:c:\program files\daisytoolchain\arm-none-eabi\include\c++\10.2.1\cmath **** #endif
 410:c:\program files\daisytoolchain\arm-none-eabi\include\c++\10.2.1\cmath **** #endif
 411:c:\program files\daisytoolchain\arm-none-eabi\include\c++\10.2.1\cmath **** 
 412:c:\program files\daisytoolchain\arm-none-eabi\include\c++\10.2.1\cmath ****   template<typename _Tp, typename _Up>
 413:c:\program files\daisytoolchain\arm-none-eabi\include\c++\10.2.1\cmath ****     inline _GLIBCXX_CONSTEXPR
 414:c:\program files\daisytoolchain\arm-none-eabi\include\c++\10.2.1\cmath ****     typename __gnu_cxx::__promote_2<_Tp, _Up>::__type
 415:c:\program files\daisytoolchain\arm-none-eabi\include\c++\10.2.1\cmath ****     pow(_Tp __x, _Up __y)
 416:c:\program files\daisytoolchain\arm-none-eabi\include\c++\10.2.1\cmath ****     {
 417:c:\program files\daisytoolchain\arm-none-eabi\include\c++\10.2.1\cmath ****       typedef typename __gnu_cxx::__promote_2<_Tp, _Up>::__type __type;
 418:c:\program files\daisytoolchain\arm-none-eabi\include\c++\10.2.1\cmath ****       return pow(__type(__x), __type(__y));
 419:c:\program files\daisytoolchain\arm-none-eabi\include\c++\10.2.1\cmath ****     }
 420:c:\program files\daisytoolchain\arm-none-eabi\include\c++\10.2.1\cmath **** 
 421:c:\program files\daisytoolchain\arm-none-eabi\include\c++\10.2.1\cmath ****   using ::sin;
 422:c:\program files\daisytoolchain\arm-none-eabi\include\c++\10.2.1\cmath **** 
 423:c:\program files\daisytoolchain\arm-none-eabi\include\c++\10.2.1\cmath **** #ifndef __CORRECT_ISO_CPP_MATH_H_PROTO
 424:c:\program files\daisytoolchain\arm-none-eabi\include\c++\10.2.1\cmath ****   inline _GLIBCXX_CONSTEXPR float
 425:c:\program files\daisytoolchain\arm-none-eabi\include\c++\10.2.1\cmath ****   sin(float __x)
 426:c:\program files\daisytoolchain\arm-none-eabi\include\c++\10.2.1\cmath ****   { return __builtin_sinf(__x); }
 3650              		.loc 13 426 26 view .LVU812
 3651 0068 B0EE680A 		vmov.f32	s0, s17
 3652 006c FFF7FEFF 		bl	sinf
 3653              	.LVL250:
 3654              	.LBE1210:
 3655              	.LBE1209:
 316:../../libs/PoliTeKDSP/libs/libDaisy/src/hid/disp/display.h ****         end_x   = cos(end_angle_rad) * radius;
 3656              		.loc 9 316 17 view .LVU813
 3657 0070 60EE698A 		vnmul.f32	s17, s0, s19
 3658              	.LVL251:
 3659              	.LBB1212:
 3660              	.LBB1213:
 185:c:\program files\daisytoolchain\arm-none-eabi\include\c++\10.2.1\cmath **** 
 3661              		.loc 13 185 26 view .LVU814
 3662 0074 B0EE4A0A 		vmov.f32	s0, s20
 3663 0078 FFF7FEFF 		bl	cosf
 3664              	.LVL252:
 3665 007c B0EE409A 		vmov.f32	s18, s0
ARM GAS  C:\Users\matte\AppData\Local\Temp\ccrMwnXK.s 			page 113


 3666              	.LBE1213:
 3667              	.LBE1212:
 3668              	.LBB1215:
 3669              	.LBB1216:
 3670              		.loc 13 426 26 view .LVU815
 3671 0080 B0EE4A0A 		vmov.f32	s0, s20
 3672 0084 FFF7FEFF 		bl	sinf
 3673              	.LVL253:
 3674              	.LBE1216:
 3675              	.LBE1215:
 318:../../libs/PoliTeKDSP/libs/libDaisy/src/hid/disp/display.h **** 
 3676              		.loc 9 318 17 view .LVU816
 3677 0088 20EE690A 		vnmul.f32	s0, s0, s19
 315:../../libs/PoliTeKDSP/libs/libDaisy/src/hid/disp/display.h ****         start_y = -sin(start_angle_rad) * radius;
 3678              		.loc 9 315 17 view .LVU817
 3679 008c 29EE888A 		vmul.f32	s16, s19, s16
 3680              	.LVL254:
 3681              	.LBB1218:
 3682              	.LBI1209:
 425:c:\program files\daisytoolchain\arm-none-eabi\include\c++\10.2.1\cmath ****   { return __builtin_sinf(__x); }
 3683              		.loc 13 425 3 is_stmt 1 view .LVU818
 3684              	.LBB1211:
 3685              		.loc 13 426 5 view .LVU819
 3686              		.loc 13 426 5 is_stmt 0 view .LVU820
 3687              	.LBE1211:
 3688              	.LBE1218:
 3689              	.LBB1219:
 3690              	.LBI1212:
 184:c:\program files\daisytoolchain\arm-none-eabi\include\c++\10.2.1\cmath ****   { return __builtin_cosf(__x); }
 3691              		.loc 13 184 3 is_stmt 1 view .LVU821
 3692              	.LBB1214:
 185:c:\program files\daisytoolchain\arm-none-eabi\include\c++\10.2.1\cmath **** 
 3693              		.loc 13 185 5 view .LVU822
 185:c:\program files\daisytoolchain\arm-none-eabi\include\c++\10.2.1\cmath **** 
 3694              		.loc 13 185 5 is_stmt 0 view .LVU823
 3695              	.LBE1214:
 3696              	.LBE1219:
 317:../../libs/PoliTeKDSP/libs/libDaisy/src/hid/disp/display.h ****         end_y   = -sin(end_angle_rad) * radius;
 3697              		.loc 9 317 17 view .LVU824
 3698 0090 29EE899A 		vmul.f32	s18, s19, s18
 3699              	.LVL255:
 3700              	.LBB1220:
 3701              	.LBI1215:
 425:c:\program files\daisytoolchain\arm-none-eabi\include\c++\10.2.1\cmath ****   { return __builtin_sinf(__x); }
 3702              		.loc 13 425 3 is_stmt 1 view .LVU825
 3703              	.LBB1217:
 3704              		.loc 13 426 5 view .LVU826
 3705              		.loc 13 426 5 is_stmt 0 view .LVU827
 3706              	.LBE1217:
 3707              	.LBE1220:
 322:../../libs/PoliTeKDSP/libs/libDaisy/src/hid/disp/display.h ****            < 2.0f)
 3708              		.loc 9 322 25 view .LVU828
 3709 0094 70EE687A 		vsub.f32	s15, s0, s17
 321:../../libs/PoliTeKDSP/libs/libDaisy/src/hid/disp/display.h ****                + (end_y - start_y) * (end_y - start_y)
 3710              		.loc 9 321 9 view .LVU829
 3711 0098 F0EE006A 		vmov.f32	s13, #2.0e+0
 321:../../libs/PoliTeKDSP/libs/libDaisy/src/hid/disp/display.h ****                + (end_y - start_y) * (end_y - start_y)
ARM GAS  C:\Users\matte\AppData\Local\Temp\ccrMwnXK.s 			page 114


 3712              		.loc 9 321 19 view .LVU830
 3713 009c 39EE487A 		vsub.f32	s14, s18, s16
 322:../../libs/PoliTeKDSP/libs/libDaisy/src/hid/disp/display.h ****            < 2.0f)
 3714              		.loc 9 322 36 view .LVU831
 3715 00a0 67EEA77A 		vmul.f32	s15, s15, s15
 322:../../libs/PoliTeKDSP/libs/libDaisy/src/hid/disp/display.h ****            < 2.0f)
 3716              		.loc 9 322 16 view .LVU832
 3717 00a4 E7EE077A 		vfma.f32	s15, s14, s14
 321:../../libs/PoliTeKDSP/libs/libDaisy/src/hid/disp/display.h ****                + (end_y - start_y) * (end_y - start_y)
 3718              		.loc 9 321 9 view .LVU833
 3719 00a8 F4EEE67A 		vcmpe.f32	s15, s13
 3720 00ac F1EE10FA 		vmrs	APSR_nzcv, FPSCR
 3721 00b0 06D5     		bpl	.L297
 325:../../libs/PoliTeKDSP/libs/libDaisy/src/hid/disp/display.h ****                 circle = true;
 3722              		.loc 9 325 13 view .LVU834
 3723 00b2 139B     		ldr	r3, [sp, #76]
 3724 00b4 B42B     		cmp	r3, #180
 3725 00b6 40F39680 		ble	.L238
 326:../../libs/PoliTeKDSP/libs/libDaisy/src/hid/disp/display.h ****             else
 3726              		.loc 9 326 24 view .LVU835
 3727 00ba 4FF00109 		mov	r9, #1
 3728 00be 01E0     		b	.L241
 3729              	.L297:
 304:../../libs/PoliTeKDSP/libs/libDaisy/src/hid/disp/display.h **** 
 3730              		.loc 9 304 14 view .LVU836
 3731 00c0 4FF00009 		mov	r9, #0
 3732              	.L241:
 3733              	.LVL256:
 302:../../libs/PoliTeKDSP/libs/libDaisy/src/hid/disp/display.h **** 
 3734              		.loc 9 302 27 view .LVU837
 3735 00c4 0124     		movs	r4, #1
 332:../../libs/PoliTeKDSP/libs/libDaisy/src/hid/disp/display.h ****         t_y = 0;
 3736              		.loc 9 332 13 view .LVU838
 3737 00c6 7842     		rsbs	r0, r7, #0
 3738              	.LVL257:
 333:../../libs/PoliTeKDSP/libs/libDaisy/src/hid/disp/display.h ****         err = 2 - 2 * radius;
 3739              		.loc 9 333 13 view .LVU839
 3740 00c8 4FF0000C 		mov	ip, #0
 3741 00cc 0095     		str	r5, [sp]
 334:../../libs/PoliTeKDSP/libs/libDaisy/src/hid/disp/display.h **** 
 3742              		.loc 9 334 17 view .LVU840
 3743 00ce E31B     		subs	r3, r4, r7
 302:../../libs/PoliTeKDSP/libs/libDaisy/src/hid/disp/display.h **** 
 3744              		.loc 9 302 17 view .LVU841
 3745 00d0 2146     		mov	r1, r4
 302:../../libs/PoliTeKDSP/libs/libDaisy/src/hid/disp/display.h **** 
 3746              		.loc 9 302 22 view .LVU842
 3747 00d2 2746     		mov	r7, r4
 3748              	.LVL258:
 302:../../libs/PoliTeKDSP/libs/libDaisy/src/hid/disp/display.h **** 
 3749              		.loc 9 302 12 view .LVU843
 3750 00d4 2246     		mov	r2, r4
 334:../../libs/PoliTeKDSP/libs/libDaisy/src/hid/disp/display.h **** 
 3751              		.loc 9 334 17 view .LVU844
 3752 00d6 A340     		lsls	r3, r3, r4
 3753              	.LVL259:
 3754              	.L267:
ARM GAS  C:\Users\matte\AppData\Local\Temp\ccrMwnXK.s 			page 115


 338:../../libs/PoliTeKDSP/libs/libDaisy/src/hid/disp/display.h ****             {
 3755              		.loc 9 338 13 view .LVU845
 3756 00d8 B9F1000F 		cmp	r9, #0
 3757 00dc 6AD1     		bne	.L243
 343:../../libs/PoliTeKDSP/libs/libDaisy/src/hid/disp/display.h ****                 t_exy  = end_x * t_y;
 3758              		.loc 9 343 34 view .LVU846
 3759 00de 4242     		rsbs	r2, r0, #0
 3760              	.LVL260:
 340:../../libs/PoliTeKDSP/libs/libDaisy/src/hid/disp/display.h ****                 t_syx  = start_y * t_x;
 3761              		.loc 9 340 24 view .LVU847
 3762 00e0 06EE90CA 		vmov	s13, ip	@ int
 342:../../libs/PoliTeKDSP/libs/libDaisy/src/hid/disp/display.h ****                 t_synx = start_y * -t_x;
 3763              		.loc 9 342 34 view .LVU848
 3764 00e4 CCF10001 		rsb	r1, ip, #0
 3765              	.LVL261:
 343:../../libs/PoliTeKDSP/libs/libDaisy/src/hid/disp/display.h ****                 t_exy  = end_x * t_y;
 3766              		.loc 9 343 34 view .LVU849
 3767 00e8 07EE102A 		vmov	s14, r2	@ int
 340:../../libs/PoliTeKDSP/libs/libDaisy/src/hid/disp/display.h ****                 t_syx  = start_y * t_x;
 3768              		.loc 9 340 24 view .LVU850
 3769 00ec B8EEE66A 		vcvt.f32.s32	s12, s13
 342:../../libs/PoliTeKDSP/libs/libDaisy/src/hid/disp/display.h ****                 t_synx = start_y * -t_x;
 3770              		.loc 9 342 34 view .LVU851
 3771 00f0 07EE901A 		vmov	s15, r1	@ int
 341:../../libs/PoliTeKDSP/libs/libDaisy/src/hid/disp/display.h ****                 t_sxny = start_x * -t_y;
 3772              		.loc 9 341 24 view .LVU852
 3773 00f4 06EE900A 		vmov	s13, r0	@ int
 343:../../libs/PoliTeKDSP/libs/libDaisy/src/hid/disp/display.h ****                 t_exy  = end_x * t_y;
 3774              		.loc 9 343 34 view .LVU853
 3775 00f8 B8EEC77A 		vcvt.f32.s32	s14, s14
 349:../../libs/PoliTeKDSP/libs/libDaisy/src/hid/disp/display.h ****                 {
 3776              		.loc 9 349 17 view .LVU854
 3777 00fc 139A     		ldr	r2, [sp, #76]
 340:../../libs/PoliTeKDSP/libs/libDaisy/src/hid/disp/display.h ****                 t_syx  = start_y * t_x;
 3778              		.loc 9 340 24 view .LVU855
 3779 00fe 66EE084A 		vmul.f32	s9, s12, s16
 3780              	.LVL262:
 342:../../libs/PoliTeKDSP/libs/libDaisy/src/hid/disp/display.h ****                 t_synx = start_y * -t_x;
 3781              		.loc 9 342 34 view .LVU856
 3782 0102 F8EEE77A 		vcvt.f32.s32	s15, s15
 349:../../libs/PoliTeKDSP/libs/libDaisy/src/hid/disp/display.h ****                 {
 3783              		.loc 9 349 17 view .LVU857
 3784 0106 B42A     		cmp	r2, #180
 343:../../libs/PoliTeKDSP/libs/libDaisy/src/hid/disp/display.h ****                 t_exy  = end_x * t_y;
 3785              		.loc 9 343 24 view .LVU858
 3786 0108 27EE284A 		vmul.f32	s8, s14, s17
 341:../../libs/PoliTeKDSP/libs/libDaisy/src/hid/disp/display.h ****                 t_sxny = start_x * -t_y;
 3787              		.loc 9 341 24 view .LVU859
 3788 010c F8EEE66A 		vcvt.f32.s32	s13, s13
 342:../../libs/PoliTeKDSP/libs/libDaisy/src/hid/disp/display.h ****                 t_synx = start_y * -t_x;
 3789              		.loc 9 342 24 view .LVU860
 3790 0110 67EE885A 		vmul.f32	s11, s15, s16
 351:../../libs/PoliTeKDSP/libs/libDaisy/src/hid/disp/display.h ****                     d2 = (t_sxy - t_syx < 0 || t_exy - t_eyx > 0);
 3791              		.loc 9 351 33 view .LVU861
 3792 0114 74EEC43A 		vsub.f32	s7, s9, s8
 341:../../libs/PoliTeKDSP/libs/libDaisy/src/hid/disp/display.h ****                 t_sxny = start_x * -t_y;
 3793              		.loc 9 341 24 view .LVU862
ARM GAS  C:\Users\matte\AppData\Local\Temp\ccrMwnXK.s 			page 116


 3794 0118 26EEA85A 		vmul.f32	s10, s13, s17
 3795              	.LVL263:
 344:../../libs/PoliTeKDSP/libs/libDaisy/src/hid/disp/display.h ****                 t_eyx  = end_y * t_x;
 3796              		.loc 9 344 24 view .LVU863
 3797 011c 26EE096A 		vmul.f32	s12, s12, s18
 3798              	.LVL264:
 345:../../libs/PoliTeKDSP/libs/libDaisy/src/hid/disp/display.h ****                 t_exny = end_x * -t_y;
 3799              		.loc 9 345 24 view .LVU864
 3800 0120 66EE806A 		vmul.f32	s13, s13, s0
 3801              	.LVL265:
 346:../../libs/PoliTeKDSP/libs/libDaisy/src/hid/disp/display.h ****                 t_eynx = end_y * -t_x;
 3802              		.loc 9 346 24 view .LVU865
 3803 0124 67EE897A 		vmul.f32	s15, s15, s18
 3804              	.LVL266:
 347:../../libs/PoliTeKDSP/libs/libDaisy/src/hid/disp/display.h **** 
 3805              		.loc 9 347 24 view .LVU866
 3806 0128 27EE007A 		vmul.f32	s14, s14, s0
 3807              	.LVL267:
 351:../../libs/PoliTeKDSP/libs/libDaisy/src/hid/disp/display.h ****                     d2 = (t_sxy - t_syx < 0 || t_exy - t_eyx > 0);
 3808              		.loc 9 351 46 view .LVU867
 3809 012c F5EEC03A 		vcmpe.f32	s7, #0
 349:../../libs/PoliTeKDSP/libs/libDaisy/src/hid/disp/display.h ****                 {
 3810              		.loc 9 349 17 view .LVU868
 3811 0130 40F3F280 		ble	.L244
 351:../../libs/PoliTeKDSP/libs/libDaisy/src/hid/disp/display.h ****                     d2 = (t_sxy - t_syx < 0 || t_exy - t_eyx > 0);
 3812              		.loc 9 351 46 view .LVU869
 3813 0134 F1EE10FA 		vmrs	APSR_nzcv, FPSCR
 3814 0138 00F17F81 		bmi	.L270
 351:../../libs/PoliTeKDSP/libs/libDaisy/src/hid/disp/display.h ****                     d2 = (t_sxy - t_syx < 0 || t_exy - t_eyx > 0);
 3815              		.loc 9 351 55 discriminator 2 view .LVU870
 3816 013c 76EE473A 		vsub.f32	s7, s12, s14
 352:../../libs/PoliTeKDSP/libs/libDaisy/src/hid/disp/display.h ****                     d3 = (t_sxny - t_syx < 0 || t_exny - t_eyx > 0);
 3817              		.loc 9 352 33 discriminator 2 view .LVU871
 3818 0140 74EEC54A 		vsub.f32	s9, s9, s10
 3819              	.LVL268:
 351:../../libs/PoliTeKDSP/libs/libDaisy/src/hid/disp/display.h ****                     d2 = (t_sxy - t_syx < 0 || t_exy - t_eyx > 0);
 3820              		.loc 9 351 46 discriminator 2 view .LVU872
 3821 0144 F5EEC03A 		vcmpe.f32	s7, #0
 3822 0148 F1EE10FA 		vmrs	APSR_nzcv, FPSCR
 352:../../libs/PoliTeKDSP/libs/libDaisy/src/hid/disp/display.h ****                     d3 = (t_sxny - t_syx < 0 || t_exny - t_eyx > 0);
 3823              		.loc 9 352 45 discriminator 2 view .LVU873
 3824 014c F5EEC04A 		vcmpe.f32	s9, #0
 351:../../libs/PoliTeKDSP/libs/libDaisy/src/hid/disp/display.h ****                     d2 = (t_sxy - t_syx < 0 || t_exy - t_eyx > 0);
 3825              		.loc 9 351 46 discriminator 2 view .LVU874
 3826 0150 CCBF     		ite	gt
 3827 0152 0122     		movgt	r2, #1
 3828 0154 0022     		movle	r2, #0
 3829              	.LVL269:
 352:../../libs/PoliTeKDSP/libs/libDaisy/src/hid/disp/display.h ****                     d3 = (t_sxny - t_syx < 0 || t_exny - t_eyx > 0);
 3830              		.loc 9 352 45 discriminator 2 view .LVU875
 3831 0156 F1EE10FA 		vmrs	APSR_nzcv, FPSCR
 3832 015a 00F17781 		bmi	.L271
 3833              	.L313:
 352:../../libs/PoliTeKDSP/libs/libDaisy/src/hid/disp/display.h ****                     d3 = (t_sxny - t_syx < 0 || t_exny - t_eyx > 0);
 3834              		.loc 9 352 54 discriminator 2 view .LVU876
 3835 015e 36EE666A 		vsub.f32	s12, s12, s13
 3836              	.LVL270:
ARM GAS  C:\Users\matte\AppData\Local\Temp\ccrMwnXK.s 			page 117


 353:../../libs/PoliTeKDSP/libs/libDaisy/src/hid/disp/display.h ****                     d4 = (t_sxny - t_synx < 0 || t_exny - t_eynx > 0);
 3837              		.loc 9 353 34 discriminator 2 view .LVU877
 3838 0162 35EEC55A 		vsub.f32	s10, s11, s10
 3839              	.LVL271:
 352:../../libs/PoliTeKDSP/libs/libDaisy/src/hid/disp/display.h ****                     d3 = (t_sxny - t_syx < 0 || t_exny - t_eyx > 0);
 3840              		.loc 9 352 45 discriminator 2 view .LVU878
 3841 0166 B5EEC06A 		vcmpe.f32	s12, #0
 3842 016a F1EE10FA 		vmrs	APSR_nzcv, FPSCR
 353:../../libs/PoliTeKDSP/libs/libDaisy/src/hid/disp/display.h ****                     d4 = (t_sxny - t_synx < 0 || t_exny - t_eynx > 0);
 3843              		.loc 9 353 46 discriminator 2 view .LVU879
 3844 016e B5EEC05A 		vcmpe.f32	s10, #0
 352:../../libs/PoliTeKDSP/libs/libDaisy/src/hid/disp/display.h ****                     d3 = (t_sxny - t_syx < 0 || t_exny - t_eyx > 0);
 3845              		.loc 9 352 45 discriminator 2 view .LVU880
 3846 0172 CCBF     		ite	gt
 3847 0174 0121     		movgt	r1, #1
 3848 0176 0021     		movle	r1, #0
 3849              	.LVL272:
 353:../../libs/PoliTeKDSP/libs/libDaisy/src/hid/disp/display.h ****                     d4 = (t_sxny - t_synx < 0 || t_exny - t_eynx > 0);
 3850              		.loc 9 353 46 discriminator 2 view .LVU881
 3851 0178 F1EE10FA 		vmrs	APSR_nzcv, FPSCR
 3852 017c 00F16F81 		bmi	.L272
 3853              	.L314:
 353:../../libs/PoliTeKDSP/libs/libDaisy/src/hid/disp/display.h ****                     d4 = (t_sxny - t_synx < 0 || t_exny - t_eynx > 0);
 3854              		.loc 9 353 56 discriminator 2 view .LVU882
 3855 0180 77EEE66A 		vsub.f32	s13, s15, s13
 3856              	.LVL273:
 353:../../libs/PoliTeKDSP/libs/libDaisy/src/hid/disp/display.h ****                     d4 = (t_sxny - t_synx < 0 || t_exny - t_eynx > 0);
 3857              		.loc 9 353 46 discriminator 2 view .LVU883
 3858 0184 F5EEC06A 		vcmpe.f32	s13, #0
 3859 0188 F1EE10FA 		vmrs	APSR_nzcv, FPSCR
 3860 018c CCBF     		ite	gt
 3861 018e 0127     		movgt	r7, #1
 3862              	.LVL274:
 353:../../libs/PoliTeKDSP/libs/libDaisy/src/hid/disp/display.h ****                     d4 = (t_sxny - t_synx < 0 || t_exny - t_eynx > 0);
 3863              		.loc 9 353 46 discriminator 2 view .LVU884
 3864 0190 0027     		movle	r7, #0
 3865              	.L247:
 3866              	.LVL275:
 354:../../libs/PoliTeKDSP/libs/libDaisy/src/hid/disp/display.h ****                 }
 3867              		.loc 9 354 34 discriminator 6 view .LVU885
 3868 0192 75EEC45A 		vsub.f32	s11, s11, s8
 3869              	.LVL276:
 354:../../libs/PoliTeKDSP/libs/libDaisy/src/hid/disp/display.h ****                 }
 3870              		.loc 9 354 47 discriminator 6 view .LVU886
 3871 0196 F5EEC05A 		vcmpe.f32	s11, #0
 3872 019a F1EE10FA 		vmrs	APSR_nzcv, FPSCR
 3873 019e 00F14781 		bmi	.L273
 3874              	.L303:
 361:../../libs/PoliTeKDSP/libs/libDaisy/src/hid/disp/display.h ****                 }
 3875              		.loc 9 361 57 discriminator 1 view .LVU887
 3876 01a2 77EEC77A 		vsub.f32	s15, s15, s14
 3877              	.LVL277:
 361:../../libs/PoliTeKDSP/libs/libDaisy/src/hid/disp/display.h ****                 }
 3878              		.loc 9 361 47 discriminator 1 view .LVU888
 3879 01a6 F5EEC07A 		vcmpe.f32	s15, #0
 3880 01aa F1EE10FA 		vmrs	APSR_nzcv, FPSCR
 3881 01ae CCBF     		ite	gt
ARM GAS  C:\Users\matte\AppData\Local\Temp\ccrMwnXK.s 			page 118


 3882 01b0 0124     		movgt	r4, #1
 3883              	.LVL278:
 361:../../libs/PoliTeKDSP/libs/libDaisy/src/hid/disp/display.h ****                 }
 3884              		.loc 9 361 47 discriminator 1 view .LVU889
 3885 01b2 0024     		movle	r4, #0
 3886              	.LVL279:
 3887              	.L243:
 365:../../libs/PoliTeKDSP/libs/libDaisy/src/hid/disp/display.h ****                 ((ChildType*)(this))
 3888              		.loc 9 365 13 view .LVU890
 3889 01b4 002A     		cmp	r2, #0
 3890 01b6 40F08A80 		bne	.L304
 3891              	.L255:
 368:../../libs/PoliTeKDSP/libs/libDaisy/src/hid/disp/display.h ****                 ((ChildType*)(this))
 3892              		.loc 9 368 13 view .LVU891
 3893 01ba 0029     		cmp	r1, #0
 3894 01bc 64D1     		bne	.L305
 3895              	.L257:
 371:../../libs/PoliTeKDSP/libs/libDaisy/src/hid/disp/display.h ****                 ((ChildType*)(this))
 3896              		.loc 9 371 13 view .LVU892
 3897 01be BFB9     		cbnz	r7, .L306
 3898              	.L259:
 374:../../libs/PoliTeKDSP/libs/libDaisy/src/hid/disp/display.h ****                 ((ChildType*)(this))
 3899              		.loc 9 374 13 view .LVU893
 3900 01c0 C4BB     		cbnz	r4, .L307
 3901              	.L261:
 3902              	.LVL280:
 379:../../libs/PoliTeKDSP/libs/libDaisy/src/hid/disp/display.h ****             {
 3903              		.loc 9 379 13 view .LVU894
 3904 01c2 9C45     		cmp	ip, r3
 3905 01c4 58DB     		blt	.L278
 3906              	.L309:
 381:../../libs/PoliTeKDSP/libs/libDaisy/src/hid/disp/display.h ****                 err = err + (t_y * 2 + 1);
 3907              		.loc 9 381 17 view .LVU895
 3908 01c6 0CF1010C 		add	ip, ip, #1
 3909              	.LVL281:
 382:../../libs/PoliTeKDSP/libs/libDaisy/src/hid/disp/display.h ****                 if(-t_x == t_y && e2 <= t_x)
 3910              		.loc 9 382 38 view .LVU896
 3911 01ca 03EB4C0E 		add	lr, r3, ip, lsl #1
 383:../../libs/PoliTeKDSP/libs/libDaisy/src/hid/disp/display.h ****                 {
 3912              		.loc 9 383 17 view .LVU897
 3913 01ce 1CEB000F 		cmn	ip, r0
 382:../../libs/PoliTeKDSP/libs/libDaisy/src/hid/disp/display.h ****                 if(-t_x == t_y && e2 <= t_x)
 3914              		.loc 9 382 21 view .LVU898
 3915 01d2 0EF1010E 		add	lr, lr, #1
 3916              	.LVL282:
 383:../../libs/PoliTeKDSP/libs/libDaisy/src/hid/disp/display.h ****                 {
 3917              		.loc 9 383 17 view .LVU899
 3918 01d6 00F0C080 		beq	.L308
 3919              	.LVL283:
 3920              	.L263:
 388:../../libs/PoliTeKDSP/libs/libDaisy/src/hid/disp/display.h ****             {
 3921              		.loc 9 388 13 view .LVU900
 3922 01da 9842     		cmp	r0, r3
 3923 01dc 4FDB     		blt	.L264
 3924              	.L279:
 388:../../libs/PoliTeKDSP/libs/libDaisy/src/hid/disp/display.h ****             {
 3925              		.loc 9 388 13 view .LVU901
ARM GAS  C:\Users\matte\AppData\Local\Temp\ccrMwnXK.s 			page 119


 3926 01de 7346     		mov	r3, lr
 3927              	.LVL284:
 3928              	.L265:
 393:../../libs/PoliTeKDSP/libs/libDaisy/src/hid/disp/display.h ****     }
 3929              		.loc 9 393 21 is_stmt 1 view .LVU902
 3930 01e0 0028     		cmp	r0, #0
 3931 01e2 7FF779AF 		ble	.L267
 3932              	.LVL285:
 3933              	.L238:
 394:../../libs/PoliTeKDSP/libs/libDaisy/src/hid/disp/display.h **** 
 3934              		.loc 9 394 5 is_stmt 0 view .LVU903
 3935 01e6 03B0     		add	sp, sp, #12
 3936              		.cfi_remember_state
 3937              		.cfi_def_cfa_offset 60
 3938              		@ sp needed
 3939 01e8 BDEC068B 		vldm	sp!, {d8-d10}
 3940              		.cfi_restore 84
 3941              		.cfi_restore 85
 3942              		.cfi_restore 82
 3943              		.cfi_restore 83
 3944              		.cfi_restore 80
 3945              		.cfi_restore 81
 3946              		.cfi_def_cfa_offset 36
 3947              	.LVL286:
 394:../../libs/PoliTeKDSP/libs/libDaisy/src/hid/disp/display.h **** 
 3948              		.loc 9 394 5 view .LVU904
 3949 01ec BDE8F08F 		pop	{r4, r5, r6, r7, r8, r9, r10, fp, pc}
 3950              	.LVL287:
 3951              	.L306:
 3952              		.cfi_restore_state
 373:../../libs/PoliTeKDSP/libs/libDaisy/src/hid/disp/display.h ****             if(d4)
 3953              		.loc 9 373 43 view .LVU905
 3954 01f0 009D     		ldr	r5, [sp]
 3955 01f2 A6EB0C0E 		sub	lr, r6, ip
 3956 01f6 00EB050A 		add	r10, r0, r5
 3957              	.LVL288:
 3958              	.LBB1221:
 3959              	.LBI1221:
  42:../../libs/PoliTeKDSP/libs/libDaisy/src/hid/disp/oled_display.h ****     {
 3960              		.loc 8 42 10 is_stmt 1 view .LVU906
 3961              	.LBB1222:
 3962              	.LBI1222:
 340:../../libs/PoliTeKDSP/libs/libDaisy/src/dev/oled_ssd130x.h ****     {
 3963              		.loc 10 340 10 view .LVU907
 3964              	.LBB1223:
 342:../../libs/PoliTeKDSP/libs/libDaisy/src/dev/oled_ssd130x.h ****             return;
 3965              		.loc 10 342 9 is_stmt 0 view .LVU908
 3966 01fa BAF17F0F 		cmp	r10, #127
 3967 01fe DFD8     		bhi	.L259
 3968 0200 BEF13F0F 		cmp	lr, #63
 3969 0204 DCD8     		bhi	.L259
 345:../../libs/PoliTeKDSP/libs/libDaisy/src/dev/oled_ssd130x.h ****         else
 3970              		.loc 10 345 28 view .LVU909
 3971 0206 4FEADE0B 		lsr	fp, lr, #3
 344:../../libs/PoliTeKDSP/libs/libDaisy/src/dev/oled_ssd130x.h ****             buffer_[x + (y / 8) * width] |= (1 << (y % 8));
 3972              		.loc 10 344 9 view .LVU910
 3973 020a 019D     		ldr	r5, [sp, #4]
ARM GAS  C:\Users\matte\AppData\Local\Temp\ccrMwnXK.s 			page 120


 345:../../libs/PoliTeKDSP/libs/libDaisy/src/dev/oled_ssd130x.h ****         else
 3974              		.loc 10 345 42 view .LVU911
 3975 020c 0AEBCB1A 		add	r10, r10, fp, lsl #7
 3976              	.LVL289:
 344:../../libs/PoliTeKDSP/libs/libDaisy/src/dev/oled_ssd130x.h ****             buffer_[x + (y / 8) * width] |= (1 << (y % 8));
 3977              		.loc 10 344 9 view .LVU912
 3978 0210 002D     		cmp	r5, #0
 3979 0212 00F0B180 		beq	.L260
 345:../../libs/PoliTeKDSP/libs/libDaisy/src/dev/oled_ssd130x.h ****         else
 3980              		.loc 10 345 54 view .LVU913
 3981 0216 0EF0070B 		and	fp, lr, #7
 345:../../libs/PoliTeKDSP/libs/libDaisy/src/dev/oled_ssd130x.h ****         else
 3982              		.loc 10 345 42 view .LVU914
 3983 021a C244     		add	r10, r10, r8
 345:../../libs/PoliTeKDSP/libs/libDaisy/src/dev/oled_ssd130x.h ****         else
 3984              		.loc 10 345 48 view .LVU915
 3985 021c 4FF0010E 		mov	lr, #1
 3986              	.LVL290:
 345:../../libs/PoliTeKDSP/libs/libDaisy/src/dev/oled_ssd130x.h ****         else
 3987              		.loc 10 345 48 view .LVU916
 3988 0220 0EFA0BFE 		lsl	lr, lr, fp
 345:../../libs/PoliTeKDSP/libs/libDaisy/src/dev/oled_ssd130x.h ****         else
 3989              		.loc 10 345 42 view .LVU917
 3990 0224 9AF810B0 		ldrb	fp, [r10, #16]	@ zero_extendqisi2
 3991 0228 4EEA0B0E 		orr	lr, lr, fp
 3992 022c 8AF810E0 		strb	lr, [r10, #16]
 3993              	.LVL291:
 345:../../libs/PoliTeKDSP/libs/libDaisy/src/dev/oled_ssd130x.h ****         else
 3994              		.loc 10 345 42 view .LVU918
 3995              	.LBE1223:
 3996              	.LBE1222:
 3997              	.LBE1221:
 374:../../libs/PoliTeKDSP/libs/libDaisy/src/hid/disp/display.h ****                 ((ChildType*)(this))
 3998              		.loc 9 374 13 view .LVU919
 3999 0230 002C     		cmp	r4, #0
 4000 0232 C6D0     		beq	.L261
 4001              	.L307:
 376:../../libs/PoliTeKDSP/libs/libDaisy/src/hid/disp/display.h **** 
 4002              		.loc 9 376 43 view .LVU920
 4003 0234 009D     		ldr	r5, [sp]
 4004 0236 A6EB0C0E 		sub	lr, r6, ip
 4005 023a A5EB000A 		sub	r10, r5, r0
 4006              	.LVL292:
 4007              	.LBB1228:
 4008              	.LBI1228:
  42:../../libs/PoliTeKDSP/libs/libDaisy/src/hid/disp/oled_display.h ****     {
 4009              		.loc 8 42 10 is_stmt 1 view .LVU921
 4010              	.LBB1229:
 4011              	.LBI1229:
 340:../../libs/PoliTeKDSP/libs/libDaisy/src/dev/oled_ssd130x.h ****     {
 4012              		.loc 10 340 10 view .LVU922
 4013              	.LBB1230:
 342:../../libs/PoliTeKDSP/libs/libDaisy/src/dev/oled_ssd130x.h ****             return;
 4014              		.loc 10 342 9 is_stmt 0 view .LVU923
 4015 023e BAF17F0F 		cmp	r10, #127
 4016 0242 BED8     		bhi	.L261
 4017 0244 BEF13F0F 		cmp	lr, #63
ARM GAS  C:\Users\matte\AppData\Local\Temp\ccrMwnXK.s 			page 121


 4018 0248 BBD8     		bhi	.L261
 345:../../libs/PoliTeKDSP/libs/libDaisy/src/dev/oled_ssd130x.h ****         else
 4019              		.loc 10 345 28 view .LVU924
 4020 024a 4FEADE0B 		lsr	fp, lr, #3
 344:../../libs/PoliTeKDSP/libs/libDaisy/src/dev/oled_ssd130x.h ****             buffer_[x + (y / 8) * width] |= (1 << (y % 8));
 4021              		.loc 10 344 9 view .LVU925
 4022 024e 019D     		ldr	r5, [sp, #4]
 345:../../libs/PoliTeKDSP/libs/libDaisy/src/dev/oled_ssd130x.h ****         else
 4023              		.loc 10 345 42 view .LVU926
 4024 0250 0AEBCB1A 		add	r10, r10, fp, lsl #7
 4025              	.LVL293:
 344:../../libs/PoliTeKDSP/libs/libDaisy/src/dev/oled_ssd130x.h ****             buffer_[x + (y / 8) * width] |= (1 << (y % 8));
 4026              		.loc 10 344 9 view .LVU927
 4027 0254 002D     		cmp	r5, #0
 4028 0256 00F0AE80 		beq	.L262
 345:../../libs/PoliTeKDSP/libs/libDaisy/src/dev/oled_ssd130x.h ****         else
 4029              		.loc 10 345 54 view .LVU928
 4030 025a 0EF0070B 		and	fp, lr, #7
 345:../../libs/PoliTeKDSP/libs/libDaisy/src/dev/oled_ssd130x.h ****         else
 4031              		.loc 10 345 42 view .LVU929
 4032 025e C244     		add	r10, r10, r8
 345:../../libs/PoliTeKDSP/libs/libDaisy/src/dev/oled_ssd130x.h ****         else
 4033              		.loc 10 345 48 view .LVU930
 4034 0260 4FF0010E 		mov	lr, #1
 4035              	.LVL294:
 345:../../libs/PoliTeKDSP/libs/libDaisy/src/dev/oled_ssd130x.h ****         else
 4036              		.loc 10 345 48 view .LVU931
 4037              	.LBE1230:
 4038              	.LBE1229:
 4039              	.LBE1228:
 379:../../libs/PoliTeKDSP/libs/libDaisy/src/hid/disp/display.h ****             {
 4040              		.loc 9 379 13 view .LVU932
 4041 0264 9C45     		cmp	ip, r3
 4042              	.LBB1237:
 4043              	.LBB1235:
 4044              	.LBB1233:
 345:../../libs/PoliTeKDSP/libs/libDaisy/src/dev/oled_ssd130x.h ****         else
 4045              		.loc 10 345 48 view .LVU933
 4046 0266 0EFA0BFE 		lsl	lr, lr, fp
 345:../../libs/PoliTeKDSP/libs/libDaisy/src/dev/oled_ssd130x.h ****         else
 4047              		.loc 10 345 42 view .LVU934
 4048 026a 9AF810B0 		ldrb	fp, [r10, #16]	@ zero_extendqisi2
 4049 026e 4EEA0B0E 		orr	lr, lr, fp
 4050 0272 8AF810E0 		strb	lr, [r10, #16]
 4051              	.LVL295:
 345:../../libs/PoliTeKDSP/libs/libDaisy/src/dev/oled_ssd130x.h ****         else
 4052              		.loc 10 345 42 view .LVU935
 4053              	.LBE1233:
 4054              	.LBE1235:
 4055              	.LBE1237:
 379:../../libs/PoliTeKDSP/libs/libDaisy/src/hid/disp/display.h ****             {
 4056              		.loc 9 379 13 view .LVU936
 4057 0276 A6DA     		bge	.L309
 4058              	.L278:
 388:../../libs/PoliTeKDSP/libs/libDaisy/src/hid/disp/display.h ****             {
 4059              		.loc 9 388 13 view .LVU937
 4060 0278 9842     		cmp	r0, r3
ARM GAS  C:\Users\matte\AppData\Local\Temp\ccrMwnXK.s 			page 122


 4061 027a 9E46     		mov	lr, r3
 4062              	.LVL296:
 388:../../libs/PoliTeKDSP/libs/libDaisy/src/hid/disp/display.h ****             {
 4063              		.loc 9 388 13 view .LVU938
 4064 027c AFDA     		bge	.L279
 4065              	.LVL297:
 4066              	.L264:
 390:../../libs/PoliTeKDSP/libs/libDaisy/src/hid/disp/display.h ****                 err = err + (t_x * 2 + 1);
 4067              		.loc 9 390 17 view .LVU939
 4068 027e 0130     		adds	r0, r0, #1
 4069              	.LVL298:
 391:../../libs/PoliTeKDSP/libs/libDaisy/src/hid/disp/display.h ****             }
 4070              		.loc 9 391 38 view .LVU940
 4071 0280 0EEB4003 		add	r3, lr, r0, lsl #1
 391:../../libs/PoliTeKDSP/libs/libDaisy/src/hid/disp/display.h ****             }
 4072              		.loc 9 391 21 view .LVU941
 4073 0284 0133     		adds	r3, r3, #1
 4074              	.LVL299:
 391:../../libs/PoliTeKDSP/libs/libDaisy/src/hid/disp/display.h ****             }
 4075              		.loc 9 391 21 view .LVU942
 4076 0286 ABE7     		b	.L265
 4077              	.L305:
 370:../../libs/PoliTeKDSP/libs/libDaisy/src/hid/disp/display.h ****             if(d3)
 4078              		.loc 9 370 43 view .LVU943
 4079 0288 009D     		ldr	r5, [sp]
 4080 028a 0CEB060E 		add	lr, ip, r6
 4081 028e 00EB050A 		add	r10, r0, r5
 4082              	.LVL300:
 4083              	.LBB1238:
 4084              	.LBI1238:
  42:../../libs/PoliTeKDSP/libs/libDaisy/src/hid/disp/oled_display.h ****     {
 4085              		.loc 8 42 10 is_stmt 1 view .LVU944
 4086              	.LBB1239:
 4087              	.LBI1239:
 340:../../libs/PoliTeKDSP/libs/libDaisy/src/dev/oled_ssd130x.h ****     {
 4088              		.loc 10 340 10 view .LVU945
 4089              	.LBB1240:
 342:../../libs/PoliTeKDSP/libs/libDaisy/src/dev/oled_ssd130x.h ****             return;
 4090              		.loc 10 342 9 is_stmt 0 view .LVU946
 4091 0292 BAF17F0F 		cmp	r10, #127
 4092 0296 92D8     		bhi	.L257
 4093 0298 BEF13F0F 		cmp	lr, #63
 4094 029c 8FD8     		bhi	.L257
 345:../../libs/PoliTeKDSP/libs/libDaisy/src/dev/oled_ssd130x.h ****         else
 4095              		.loc 10 345 28 view .LVU947
 4096 029e 4FEADE0B 		lsr	fp, lr, #3
 344:../../libs/PoliTeKDSP/libs/libDaisy/src/dev/oled_ssd130x.h ****             buffer_[x + (y / 8) * width] |= (1 << (y % 8));
 4097              		.loc 10 344 9 view .LVU948
 4098 02a2 019D     		ldr	r5, [sp, #4]
 345:../../libs/PoliTeKDSP/libs/libDaisy/src/dev/oled_ssd130x.h ****         else
 4099              		.loc 10 345 42 view .LVU949
 4100 02a4 0AEBCB1A 		add	r10, r10, fp, lsl #7
 4101              	.LVL301:
 344:../../libs/PoliTeKDSP/libs/libDaisy/src/dev/oled_ssd130x.h ****             buffer_[x + (y / 8) * width] |= (1 << (y % 8));
 4102              		.loc 10 344 9 view .LVU950
 4103 02a8 002D     		cmp	r5, #0
 4104 02aa 73D0     		beq	.L258
ARM GAS  C:\Users\matte\AppData\Local\Temp\ccrMwnXK.s 			page 123


 345:../../libs/PoliTeKDSP/libs/libDaisy/src/dev/oled_ssd130x.h ****         else
 4105              		.loc 10 345 54 view .LVU951
 4106 02ac 0EF0070B 		and	fp, lr, #7
 345:../../libs/PoliTeKDSP/libs/libDaisy/src/dev/oled_ssd130x.h ****         else
 4107              		.loc 10 345 42 view .LVU952
 4108 02b0 C244     		add	r10, r10, r8
 345:../../libs/PoliTeKDSP/libs/libDaisy/src/dev/oled_ssd130x.h ****         else
 4109              		.loc 10 345 48 view .LVU953
 4110 02b2 4FF0010E 		mov	lr, #1
 4111              	.LVL302:
 345:../../libs/PoliTeKDSP/libs/libDaisy/src/dev/oled_ssd130x.h ****         else
 4112              		.loc 10 345 48 view .LVU954
 4113 02b6 0EFA0BFE 		lsl	lr, lr, fp
 345:../../libs/PoliTeKDSP/libs/libDaisy/src/dev/oled_ssd130x.h ****         else
 4114              		.loc 10 345 42 view .LVU955
 4115 02ba 9AF810B0 		ldrb	fp, [r10, #16]	@ zero_extendqisi2
 4116 02be 4EEA0B0E 		orr	lr, lr, fp
 4117 02c2 8AF810E0 		strb	lr, [r10, #16]
 4118              	.LVL303:
 345:../../libs/PoliTeKDSP/libs/libDaisy/src/dev/oled_ssd130x.h ****         else
 4119              		.loc 10 345 42 view .LVU956
 4120              	.LBE1240:
 4121              	.LBE1239:
 4122              	.LBE1238:
 371:../../libs/PoliTeKDSP/libs/libDaisy/src/hid/disp/display.h ****                 ((ChildType*)(this))
 4123              		.loc 9 371 13 view .LVU957
 4124 02c6 002F     		cmp	r7, #0
 4125 02c8 3FF47AAF 		beq	.L259
 4126 02cc 90E7     		b	.L306
 4127              	.L304:
 367:../../libs/PoliTeKDSP/libs/libDaisy/src/hid/disp/display.h ****             if(d2)
 4128              		.loc 9 367 43 view .LVU958
 4129 02ce 009D     		ldr	r5, [sp]
 4130 02d0 0CEB060E 		add	lr, ip, r6
 4131 02d4 A5EB000A 		sub	r10, r5, r0
 4132              	.LVL304:
 4133              	.LBB1245:
 4134              	.LBI1245:
  42:../../libs/PoliTeKDSP/libs/libDaisy/src/hid/disp/oled_display.h ****     {
 4135              		.loc 8 42 10 is_stmt 1 view .LVU959
 4136              	.LBB1246:
 4137              	.LBI1246:
 340:../../libs/PoliTeKDSP/libs/libDaisy/src/dev/oled_ssd130x.h ****     {
 4138              		.loc 10 340 10 view .LVU960
 4139              	.LBB1247:
 342:../../libs/PoliTeKDSP/libs/libDaisy/src/dev/oled_ssd130x.h ****             return;
 4140              		.loc 10 342 9 is_stmt 0 view .LVU961
 4141 02d8 BAF17F0F 		cmp	r10, #127
 4142 02dc 3FF66DAF 		bhi	.L255
 4143 02e0 BEF13F0F 		cmp	lr, #63
 4144 02e4 3FF669AF 		bhi	.L255
 345:../../libs/PoliTeKDSP/libs/libDaisy/src/dev/oled_ssd130x.h ****         else
 4145              		.loc 10 345 28 view .LVU962
 4146 02e8 4FEADE0B 		lsr	fp, lr, #3
 344:../../libs/PoliTeKDSP/libs/libDaisy/src/dev/oled_ssd130x.h ****             buffer_[x + (y / 8) * width] |= (1 << (y % 8));
 4147              		.loc 10 344 9 view .LVU963
 4148 02ec 019D     		ldr	r5, [sp, #4]
ARM GAS  C:\Users\matte\AppData\Local\Temp\ccrMwnXK.s 			page 124


 345:../../libs/PoliTeKDSP/libs/libDaisy/src/dev/oled_ssd130x.h ****         else
 4149              		.loc 10 345 42 view .LVU964
 4150 02ee 0AEBCB1A 		add	r10, r10, fp, lsl #7
 4151              	.LVL305:
 344:../../libs/PoliTeKDSP/libs/libDaisy/src/dev/oled_ssd130x.h ****             buffer_[x + (y / 8) * width] |= (1 << (y % 8));
 4152              		.loc 10 344 9 view .LVU965
 4153 02f2 002D     		cmp	r5, #0
 4154 02f4 6DD0     		beq	.L256
 345:../../libs/PoliTeKDSP/libs/libDaisy/src/dev/oled_ssd130x.h ****         else
 4155              		.loc 10 345 54 view .LVU966
 4156 02f6 0EF0070B 		and	fp, lr, #7
 345:../../libs/PoliTeKDSP/libs/libDaisy/src/dev/oled_ssd130x.h ****         else
 4157              		.loc 10 345 42 view .LVU967
 4158 02fa C244     		add	r10, r10, r8
 345:../../libs/PoliTeKDSP/libs/libDaisy/src/dev/oled_ssd130x.h ****         else
 4159              		.loc 10 345 48 view .LVU968
 4160 02fc 4FF0010E 		mov	lr, #1
 4161              	.LVL306:
 345:../../libs/PoliTeKDSP/libs/libDaisy/src/dev/oled_ssd130x.h ****         else
 4162              		.loc 10 345 48 view .LVU969
 4163 0300 0EFA0BFE 		lsl	lr, lr, fp
 345:../../libs/PoliTeKDSP/libs/libDaisy/src/dev/oled_ssd130x.h ****         else
 4164              		.loc 10 345 42 view .LVU970
 4165 0304 9AF810B0 		ldrb	fp, [r10, #16]	@ zero_extendqisi2
 4166 0308 4EEA0B0E 		orr	lr, lr, fp
 4167 030c 8AF810E0 		strb	lr, [r10, #16]
 4168              	.LVL307:
 345:../../libs/PoliTeKDSP/libs/libDaisy/src/dev/oled_ssd130x.h ****         else
 4169              		.loc 10 345 42 view .LVU971
 4170              	.LBE1247:
 4171              	.LBE1246:
 4172              	.LBE1245:
 368:../../libs/PoliTeKDSP/libs/libDaisy/src/hid/disp/display.h ****                 ((ChildType*)(this))
 4173              		.loc 9 368 13 view .LVU972
 4174 0310 0029     		cmp	r1, #0
 4175 0312 3FF454AF 		beq	.L257
 4176 0316 B7E7     		b	.L305
 4177              	.LVL308:
 4178              	.L244:
 358:../../libs/PoliTeKDSP/libs/libDaisy/src/hid/disp/display.h ****                     d2 = (t_sxy - t_syx < 0 && t_exy - t_eyx > 0);
 4179              		.loc 9 358 46 view .LVU973
 4180 0318 F1EE10FA 		vmrs	APSR_nzcv, FPSCR
 4181 031c 7ED4     		bmi	.L310
 4182 031e 4A46     		mov	r2, r9
 4183              	.L248:
 4184              	.LVL309:
 359:../../libs/PoliTeKDSP/libs/libDaisy/src/hid/disp/display.h ****                     d3 = (t_sxny - t_syx < 0 && t_exny - t_eyx > 0);
 4185              		.loc 9 359 33 discriminator 6 view .LVU974
 4186 0320 74EEC54A 		vsub.f32	s9, s9, s10
 4187              	.LVL310:
 359:../../libs/PoliTeKDSP/libs/libDaisy/src/hid/disp/display.h ****                     d3 = (t_sxny - t_syx < 0 && t_exny - t_eyx > 0);
 4188              		.loc 9 359 45 discriminator 6 view .LVU975
 4189 0324 F5EEC04A 		vcmpe.f32	s9, #0
 4190 0328 F1EE10FA 		vmrs	APSR_nzcv, FPSCR
 4191 032c 6CD4     		bmi	.L311
 359:../../libs/PoliTeKDSP/libs/libDaisy/src/hid/disp/display.h ****                     d3 = (t_sxny - t_syx < 0 && t_exny - t_eyx > 0);
 4192              		.loc 9 359 45 view .LVU976
ARM GAS  C:\Users\matte\AppData\Local\Temp\ccrMwnXK.s 			page 125


 4193 032e 0021     		movs	r1, #0
 4194              	.LVL311:
 4195              	.L250:
 360:../../libs/PoliTeKDSP/libs/libDaisy/src/hid/disp/display.h ****                     d4 = (t_sxny - t_synx < 0 && t_exny - t_eynx > 0);
 4196              		.loc 9 360 34 discriminator 6 view .LVU977
 4197 0330 35EEC55A 		vsub.f32	s10, s11, s10
 4198              	.LVL312:
 360:../../libs/PoliTeKDSP/libs/libDaisy/src/hid/disp/display.h ****                     d4 = (t_sxny - t_synx < 0 && t_exny - t_eynx > 0);
 4199              		.loc 9 360 46 discriminator 6 view .LVU978
 4200 0334 B5EEC05A 		vcmpe.f32	s10, #0
 4201 0338 F1EE10FA 		vmrs	APSR_nzcv, FPSCR
 4202 033c 5AD4     		bmi	.L312
 360:../../libs/PoliTeKDSP/libs/libDaisy/src/hid/disp/display.h ****                     d4 = (t_sxny - t_synx < 0 && t_exny - t_eynx > 0);
 4203              		.loc 9 360 46 view .LVU979
 4204 033e 0027     		movs	r7, #0
 4205              	.LVL313:
 4206              	.L252:
 361:../../libs/PoliTeKDSP/libs/libDaisy/src/hid/disp/display.h ****                 }
 4207              		.loc 9 361 34 discriminator 6 view .LVU980
 4208 0340 75EEC45A 		vsub.f32	s11, s11, s8
 4209              	.LVL314:
 361:../../libs/PoliTeKDSP/libs/libDaisy/src/hid/disp/display.h ****                 }
 4210              		.loc 9 361 47 discriminator 6 view .LVU981
 4211 0344 F5EEC05A 		vcmpe.f32	s11, #0
 4212 0348 F1EE10FA 		vmrs	APSR_nzcv, FPSCR
 4213 034c 3FF529AF 		bmi	.L303
 361:../../libs/PoliTeKDSP/libs/libDaisy/src/hid/disp/display.h ****                 }
 4214              		.loc 9 361 47 view .LVU982
 4215 0350 0024     		movs	r4, #0
 4216              	.LVL315:
 365:../../libs/PoliTeKDSP/libs/libDaisy/src/hid/disp/display.h ****                 ((ChildType*)(this))
 4217              		.loc 9 365 13 view .LVU983
 4218 0352 002A     		cmp	r2, #0
 4219 0354 3FF431AF 		beq	.L255
 4220 0358 B9E7     		b	.L304
 4221              	.LVL316:
 4222              	.L308:
 383:../../libs/PoliTeKDSP/libs/libDaisy/src/hid/disp/display.h ****                 {
 4223              		.loc 9 383 32 discriminator 1 view .LVU984
 4224 035a 9842     		cmp	r0, r3
 4225 035c 8FDB     		blt	.L264
 385:../../libs/PoliTeKDSP/libs/libDaisy/src/hid/disp/display.h ****                 }
 4226              		.loc 9 385 24 view .LVU985
 4227 035e 0023     		movs	r3, #0
 4228              	.LVL317:
 385:../../libs/PoliTeKDSP/libs/libDaisy/src/hid/disp/display.h ****                 }
 4229              		.loc 9 385 24 view .LVU986
 4230 0360 3BE7     		b	.L263
 4231              	.L316:
 4232 0362 00BFAFF3 		.align	3
 4232      0080
 4233              	.L315:
 4234 0368 7A008BFC 		.word	-57999238
 4235 036c FA210940 		.word	1074340346
 4236 0370 00000000 		.word	0
 4237 0374 00806640 		.word	1080459264
 4238              	.LVL318:
ARM GAS  C:\Users\matte\AppData\Local\Temp\ccrMwnXK.s 			page 126


 4239              	.L260:
 4240              	.LBB1252:
 4241              	.LBB1227:
 4242              	.LBB1226:
 4243              	.LBB1224:
 4244              	.LBI1224:
 340:../../libs/PoliTeKDSP/libs/libDaisy/src/dev/oled_ssd130x.h ****     {
 4245              		.loc 10 340 10 is_stmt 1 view .LVU987
 4246              	.LBB1225:
 347:../../libs/PoliTeKDSP/libs/libDaisy/src/dev/oled_ssd130x.h ****     }
 4247              		.loc 10 347 42 is_stmt 0 view .LVU988
 4248 0378 C244     		add	r10, r10, r8
 4249              	.LVL319:
 347:../../libs/PoliTeKDSP/libs/libDaisy/src/dev/oled_ssd130x.h ****     }
 4250              		.loc 10 347 49 view .LVU989
 4251 037a 4FF0010B 		mov	fp, #1
 4252              	.LVL320:
 347:../../libs/PoliTeKDSP/libs/libDaisy/src/dev/oled_ssd130x.h ****     }
 4253              		.loc 10 347 55 view .LVU990
 4254 037e 0EF0070E 		and	lr, lr, #7
 4255              	.LVL321:
 347:../../libs/PoliTeKDSP/libs/libDaisy/src/dev/oled_ssd130x.h ****     }
 4256              		.loc 10 347 49 view .LVU991
 4257 0382 0BFA0EFE 		lsl	lr, fp, lr
 347:../../libs/PoliTeKDSP/libs/libDaisy/src/dev/oled_ssd130x.h ****     }
 4258              		.loc 10 347 42 view .LVU992
 4259 0386 9AF810B0 		ldrb	fp, [r10, #16]	@ zero_extendqisi2
 4260 038a 2BEA0E0E 		bic	lr, fp, lr
 4261 038e 8AF810E0 		strb	lr, [r10, #16]
 4262              	.LVL322:
 347:../../libs/PoliTeKDSP/libs/libDaisy/src/dev/oled_ssd130x.h ****     }
 4263              		.loc 10 347 42 view .LVU993
 4264 0392 15E7     		b	.L259
 4265              	.LVL323:
 4266              	.L258:
 347:../../libs/PoliTeKDSP/libs/libDaisy/src/dev/oled_ssd130x.h ****     }
 4267              		.loc 10 347 42 view .LVU994
 4268              	.LBE1225:
 4269              	.LBE1224:
 4270              	.LBE1226:
 4271              	.LBE1227:
 4272              	.LBE1252:
 4273              	.LBB1253:
 4274              	.LBB1244:
 4275              	.LBB1243:
 4276              	.LBB1241:
 4277              	.LBI1241:
 340:../../libs/PoliTeKDSP/libs/libDaisy/src/dev/oled_ssd130x.h ****     {
 4278              		.loc 10 340 10 is_stmt 1 view .LVU995
 4279              	.LBB1242:
 347:../../libs/PoliTeKDSP/libs/libDaisy/src/dev/oled_ssd130x.h ****     }
 4280              		.loc 10 347 42 is_stmt 0 view .LVU996
 4281 0394 C244     		add	r10, r10, r8
 4282              	.LVL324:
 347:../../libs/PoliTeKDSP/libs/libDaisy/src/dev/oled_ssd130x.h ****     }
 4283              		.loc 10 347 49 view .LVU997
 4284 0396 4FF0010B 		mov	fp, #1
ARM GAS  C:\Users\matte\AppData\Local\Temp\ccrMwnXK.s 			page 127


 4285              	.LVL325:
 347:../../libs/PoliTeKDSP/libs/libDaisy/src/dev/oled_ssd130x.h ****     }
 4286              		.loc 10 347 55 view .LVU998
 4287 039a 0EF0070E 		and	lr, lr, #7
 4288              	.LVL326:
 347:../../libs/PoliTeKDSP/libs/libDaisy/src/dev/oled_ssd130x.h ****     }
 4289              		.loc 10 347 49 view .LVU999
 4290 039e 0BFA0EFE 		lsl	lr, fp, lr
 347:../../libs/PoliTeKDSP/libs/libDaisy/src/dev/oled_ssd130x.h ****     }
 4291              		.loc 10 347 42 view .LVU1000
 4292 03a2 9AF810B0 		ldrb	fp, [r10, #16]	@ zero_extendqisi2
 4293 03a6 2BEA0E0E 		bic	lr, fp, lr
 4294 03aa 8AF810E0 		strb	lr, [r10, #16]
 4295              	.LVL327:
 347:../../libs/PoliTeKDSP/libs/libDaisy/src/dev/oled_ssd130x.h ****     }
 4296              		.loc 10 347 42 view .LVU1001
 4297              	.LBE1242:
 4298              	.LBE1241:
 4299              	.LBE1243:
 4300              	.LBE1244:
 4301              	.LBE1253:
 371:../../libs/PoliTeKDSP/libs/libDaisy/src/hid/disp/display.h ****                 ((ChildType*)(this))
 4302              		.loc 9 371 13 view .LVU1002
 4303 03ae 002F     		cmp	r7, #0
 4304 03b0 3FF406AF 		beq	.L259
 4305 03b4 1CE7     		b	.L306
 4306              	.LVL328:
 4307              	.L262:
 4308              	.LBB1254:
 4309              	.LBB1236:
 4310              	.LBB1234:
 4311              	.LBB1231:
 4312              	.LBI1231:
 340:../../libs/PoliTeKDSP/libs/libDaisy/src/dev/oled_ssd130x.h ****     {
 4313              		.loc 10 340 10 is_stmt 1 view .LVU1003
 4314              	.LBB1232:
 347:../../libs/PoliTeKDSP/libs/libDaisy/src/dev/oled_ssd130x.h ****     }
 4315              		.loc 10 347 42 is_stmt 0 view .LVU1004
 4316 03b6 C244     		add	r10, r10, r8
 4317              	.LVL329:
 347:../../libs/PoliTeKDSP/libs/libDaisy/src/dev/oled_ssd130x.h ****     }
 4318              		.loc 10 347 49 view .LVU1005
 4319 03b8 4FF0010B 		mov	fp, #1
 4320              	.LVL330:
 347:../../libs/PoliTeKDSP/libs/libDaisy/src/dev/oled_ssd130x.h ****     }
 4321              		.loc 10 347 55 view .LVU1006
 4322 03bc 0EF0070E 		and	lr, lr, #7
 4323              	.LVL331:
 347:../../libs/PoliTeKDSP/libs/libDaisy/src/dev/oled_ssd130x.h ****     }
 4324              		.loc 10 347 49 view .LVU1007
 4325 03c0 0BFA0EFE 		lsl	lr, fp, lr
 347:../../libs/PoliTeKDSP/libs/libDaisy/src/dev/oled_ssd130x.h ****     }
 4326              		.loc 10 347 42 view .LVU1008
 4327 03c4 9AF810B0 		ldrb	fp, [r10, #16]	@ zero_extendqisi2
 4328 03c8 2BEA0E0E 		bic	lr, fp, lr
 4329 03cc 8AF810E0 		strb	lr, [r10, #16]
 4330              	.LVL332:
ARM GAS  C:\Users\matte\AppData\Local\Temp\ccrMwnXK.s 			page 128


 347:../../libs/PoliTeKDSP/libs/libDaisy/src/dev/oled_ssd130x.h ****     }
 4331              		.loc 10 347 42 view .LVU1009
 4332 03d0 F7E6     		b	.L261
 4333              	.LVL333:
 4334              	.L256:
 347:../../libs/PoliTeKDSP/libs/libDaisy/src/dev/oled_ssd130x.h ****     }
 4335              		.loc 10 347 42 view .LVU1010
 4336              	.LBE1232:
 4337              	.LBE1231:
 4338              	.LBE1234:
 4339              	.LBE1236:
 4340              	.LBE1254:
 4341              	.LBB1255:
 4342              	.LBB1251:
 4343              	.LBB1250:
 4344              	.LBB1248:
 4345              	.LBI1248:
 340:../../libs/PoliTeKDSP/libs/libDaisy/src/dev/oled_ssd130x.h ****     {
 4346              		.loc 10 340 10 is_stmt 1 view .LVU1011
 4347              	.LBB1249:
 347:../../libs/PoliTeKDSP/libs/libDaisy/src/dev/oled_ssd130x.h ****     }
 4348              		.loc 10 347 42 is_stmt 0 view .LVU1012
 4349 03d2 C244     		add	r10, r10, r8
 4350              	.LVL334:
 347:../../libs/PoliTeKDSP/libs/libDaisy/src/dev/oled_ssd130x.h ****     }
 4351              		.loc 10 347 49 view .LVU1013
 4352 03d4 4FF0010B 		mov	fp, #1
 4353              	.LVL335:
 347:../../libs/PoliTeKDSP/libs/libDaisy/src/dev/oled_ssd130x.h ****     }
 4354              		.loc 10 347 55 view .LVU1014
 4355 03d8 0EF0070E 		and	lr, lr, #7
 4356              	.LVL336:
 347:../../libs/PoliTeKDSP/libs/libDaisy/src/dev/oled_ssd130x.h ****     }
 4357              		.loc 10 347 49 view .LVU1015
 4358 03dc 0BFA0EFE 		lsl	lr, fp, lr
 347:../../libs/PoliTeKDSP/libs/libDaisy/src/dev/oled_ssd130x.h ****     }
 4359              		.loc 10 347 42 view .LVU1016
 4360 03e0 9AF810B0 		ldrb	fp, [r10, #16]	@ zero_extendqisi2
 4361 03e4 2BEA0E0E 		bic	lr, fp, lr
 4362 03e8 8AF810E0 		strb	lr, [r10, #16]
 4363              	.LVL337:
 347:../../libs/PoliTeKDSP/libs/libDaisy/src/dev/oled_ssd130x.h ****     }
 4364              		.loc 10 347 42 view .LVU1017
 4365              	.LBE1249:
 4366              	.LBE1248:
 4367              	.LBE1250:
 4368              	.LBE1251:
 4369              	.LBE1255:
 368:../../libs/PoliTeKDSP/libs/libDaisy/src/hid/disp/display.h ****                 ((ChildType*)(this))
 4370              		.loc 9 368 13 view .LVU1018
 4371 03ec 0029     		cmp	r1, #0
 4372 03ee 3FF4E6AE 		beq	.L257
 4373 03f2 49E7     		b	.L305
 4374              	.LVL338:
 4375              	.L312:
 360:../../libs/PoliTeKDSP/libs/libDaisy/src/hid/disp/display.h ****                     d4 = (t_sxny - t_synx < 0 && t_exny - t_eynx > 0);
 4376              		.loc 9 360 56 discriminator 1 view .LVU1019
ARM GAS  C:\Users\matte\AppData\Local\Temp\ccrMwnXK.s 			page 129


 4377 03f4 77EEE66A 		vsub.f32	s13, s15, s13
 4378              	.LVL339:
 360:../../libs/PoliTeKDSP/libs/libDaisy/src/hid/disp/display.h ****                     d4 = (t_sxny - t_synx < 0 && t_exny - t_eynx > 0);
 4379              		.loc 9 360 46 discriminator 1 view .LVU1020
 4380 03f8 F5EEC06A 		vcmpe.f32	s13, #0
 4381 03fc F1EE10FA 		vmrs	APSR_nzcv, FPSCR
 4382 0400 CCBF     		ite	gt
 4383 0402 0127     		movgt	r7, #1
 4384              	.LVL340:
 360:../../libs/PoliTeKDSP/libs/libDaisy/src/hid/disp/display.h ****                     d4 = (t_sxny - t_synx < 0 && t_exny - t_eynx > 0);
 4385              		.loc 9 360 46 discriminator 1 view .LVU1021
 4386 0404 0027     		movle	r7, #0
 4387 0406 9BE7     		b	.L252
 4388              	.LVL341:
 4389              	.L311:
 359:../../libs/PoliTeKDSP/libs/libDaisy/src/hid/disp/display.h ****                     d3 = (t_sxny - t_syx < 0 && t_exny - t_eyx > 0);
 4390              		.loc 9 359 54 discriminator 1 view .LVU1022
 4391 0408 36EE666A 		vsub.f32	s12, s12, s13
 4392              	.LVL342:
 359:../../libs/PoliTeKDSP/libs/libDaisy/src/hid/disp/display.h ****                     d3 = (t_sxny - t_syx < 0 && t_exny - t_eyx > 0);
 4393              		.loc 9 359 45 discriminator 1 view .LVU1023
 4394 040c B5EEC06A 		vcmpe.f32	s12, #0
 4395 0410 F1EE10FA 		vmrs	APSR_nzcv, FPSCR
 4396 0414 CCBF     		ite	gt
 4397 0416 0121     		movgt	r1, #1
 4398 0418 0021     		movle	r1, #0
 4399 041a 89E7     		b	.L250
 4400              	.LVL343:
 4401              	.L310:
 358:../../libs/PoliTeKDSP/libs/libDaisy/src/hid/disp/display.h ****                     d2 = (t_sxy - t_syx < 0 && t_exy - t_eyx > 0);
 4402              		.loc 9 358 55 discriminator 1 view .LVU1024
 4403 041c 76EE473A 		vsub.f32	s7, s12, s14
 358:../../libs/PoliTeKDSP/libs/libDaisy/src/hid/disp/display.h ****                     d2 = (t_sxy - t_syx < 0 && t_exy - t_eyx > 0);
 4404              		.loc 9 358 46 discriminator 1 view .LVU1025
 4405 0420 F5EEC03A 		vcmpe.f32	s7, #0
 4406 0424 F1EE10FA 		vmrs	APSR_nzcv, FPSCR
 4407 0428 CCBF     		ite	gt
 4408 042a 0122     		movgt	r2, #1
 4409 042c 0022     		movle	r2, #0
 4410 042e 77E7     		b	.L248
 4411              	.LVL344:
 4412              	.L273:
 354:../../libs/PoliTeKDSP/libs/libDaisy/src/hid/disp/display.h ****                 }
 4413              		.loc 9 354 47 view .LVU1026
 4414 0430 0124     		movs	r4, #1
 4415              	.LVL345:
 365:../../libs/PoliTeKDSP/libs/libDaisy/src/hid/disp/display.h ****                 ((ChildType*)(this))
 4416              		.loc 9 365 13 view .LVU1027
 4417 0432 002A     		cmp	r2, #0
 4418 0434 3FF4C1AE 		beq	.L255
 365:../../libs/PoliTeKDSP/libs/libDaisy/src/hid/disp/display.h ****                 ((ChildType*)(this))
 4419              		.loc 9 365 13 view .LVU1028
 4420 0438 49E7     		b	.L304
 4421              	.LVL346:
 4422              	.L270:
 352:../../libs/PoliTeKDSP/libs/libDaisy/src/hid/disp/display.h ****                     d3 = (t_sxny - t_syx < 0 || t_exny - t_eyx > 0);
 4423              		.loc 9 352 33 view .LVU1029
ARM GAS  C:\Users\matte\AppData\Local\Temp\ccrMwnXK.s 			page 130


 4424 043a 74EEC54A 		vsub.f32	s9, s9, s10
 4425              	.LVL347:
 351:../../libs/PoliTeKDSP/libs/libDaisy/src/hid/disp/display.h ****                     d2 = (t_sxy - t_syx < 0 || t_exy - t_eyx > 0);
 4426              		.loc 9 351 46 view .LVU1030
 4427 043e 0122     		movs	r2, #1
 4428              	.LVL348:
 352:../../libs/PoliTeKDSP/libs/libDaisy/src/hid/disp/display.h ****                     d3 = (t_sxny - t_syx < 0 || t_exny - t_eyx > 0);
 4429              		.loc 9 352 45 view .LVU1031
 4430 0440 F5EEC04A 		vcmpe.f32	s9, #0
 4431 0444 F1EE10FA 		vmrs	APSR_nzcv, FPSCR
 4432 0448 7FF589AE 		bpl	.L313
 4433              	.L271:
 353:../../libs/PoliTeKDSP/libs/libDaisy/src/hid/disp/display.h ****                     d4 = (t_sxny - t_synx < 0 || t_exny - t_eynx > 0);
 4434              		.loc 9 353 34 view .LVU1032
 4435 044c 35EEC55A 		vsub.f32	s10, s11, s10
 4436              	.LVL349:
 352:../../libs/PoliTeKDSP/libs/libDaisy/src/hid/disp/display.h ****                     d3 = (t_sxny - t_syx < 0 || t_exny - t_eyx > 0);
 4437              		.loc 9 352 45 view .LVU1033
 4438 0450 0121     		movs	r1, #1
 4439              	.LVL350:
 353:../../libs/PoliTeKDSP/libs/libDaisy/src/hid/disp/display.h ****                     d4 = (t_sxny - t_synx < 0 || t_exny - t_eynx > 0);
 4440              		.loc 9 353 46 view .LVU1034
 4441 0452 B5EEC05A 		vcmpe.f32	s10, #0
 4442 0456 F1EE10FA 		vmrs	APSR_nzcv, FPSCR
 4443 045a 7FF591AE 		bpl	.L314
 4444              	.LVL351:
 4445              	.L272:
 353:../../libs/PoliTeKDSP/libs/libDaisy/src/hid/disp/display.h ****                     d4 = (t_sxny - t_synx < 0 || t_exny - t_eynx > 0);
 4446              		.loc 9 353 46 view .LVU1035
 4447 045e 0127     		movs	r7, #1
 4448              	.LVL352:
 353:../../libs/PoliTeKDSP/libs/libDaisy/src/hid/disp/display.h ****                     d4 = (t_sxny - t_synx < 0 || t_exny - t_eynx > 0);
 4449              		.loc 9 353 46 view .LVU1036
 4450 0460 97E6     		b	.L247
 4451              	.LVL353:
 4452              	.L239:
 308:../../libs/PoliTeKDSP/libs/libDaisy/src/hid/disp/display.h ****             sweep = -sweep;
 4453              		.loc 9 308 25 view .LVU1037
 4454 0462 DDE91223 		ldrd	r2, r3, [sp, #72]
 4455              	.LVL354:
 308:../../libs/PoliTeKDSP/libs/libDaisy/src/hid/disp/display.h ****             sweep = -sweep;
 4456              		.loc 9 308 25 view .LVU1038
 4457 0466 1344     		add	r3, r3, r2
 4458              	.LVL355:
 308:../../libs/PoliTeKDSP/libs/libDaisy/src/hid/disp/display.h ****             sweep = -sweep;
 4459              		.loc 9 308 25 view .LVU1039
 4460 0468 06EE102A 		vmov	s12, r2	@ int
 4461 046c 1293     		str	r3, [sp, #72]
 4462 046e 139B     		ldr	r3, [sp, #76]
 4463              	.LVL356:
 308:../../libs/PoliTeKDSP/libs/libDaisy/src/hid/disp/display.h ****             sweep = -sweep;
 4464              		.loc 9 308 25 view .LVU1040
 4465 0470 5B42     		rsbs	r3, r3, #0
 4466 0472 1393     		str	r3, [sp, #76]
 4467              	.LVL357:
 308:../../libs/PoliTeKDSP/libs/libDaisy/src/hid/disp/display.h ****             sweep = -sweep;
 4468              		.loc 9 308 25 view .LVU1041
ARM GAS  C:\Users\matte\AppData\Local\Temp\ccrMwnXK.s 			page 131


 4469 0474 D8E5     		b	.L240
 4470              		.cfi_endproc
 4471              	.LFE5452:
 4473 0476 00BF     		.section	.text._ZN5daisy25OneBitGraphicsDisplayImplINS_11OledDisplayINS_13SSD130xDriverILj128ELj64
 4474              		.align	1
 4475              		.p2align 2,,3
 4476              		.weak	_ZN5daisy25OneBitGraphicsDisplayImplINS_11OledDisplayINS_13SSD130xDriverILj128ELj64ENS_19SSD
 4477              		.syntax unified
 4478              		.thumb
 4479              		.thumb_func
 4480              		.fpu fpv5-d16
 4482              	_ZN5daisy25OneBitGraphicsDisplayImplINS_11OledDisplayINS_13SSD130xDriverILj128ELj64ENS_19SSD130xI2C
 4483              	.LVL358:
 4484              	.LFB5451:
 257:../../libs/PoliTeKDSP/libs/libDaisy/src/hid/disp/display.h ****                   uint_fast8_t y1,
 4485              		.loc 9 257 10 is_stmt 1 view -0
 4486              		.cfi_startproc
 4487              		@ args = 12, pretend = 0, frame = 24
 4488              		@ frame_needed = 0, uses_anonymous_args = 0
 257:../../libs/PoliTeKDSP/libs/libDaisy/src/hid/disp/display.h ****                   uint_fast8_t y1,
 4489              		.loc 9 257 10 is_stmt 0 view .LVU1043
 4490 0000 2DE9F04F 		push	{r4, r5, r6, r7, r8, r9, r10, fp, lr}
 4491              		.cfi_def_cfa_offset 36
 4492              		.cfi_offset 4, -36
 4493              		.cfi_offset 5, -32
 4494              		.cfi_offset 6, -28
 4495              		.cfi_offset 7, -24
 4496              		.cfi_offset 8, -20
 4497              		.cfi_offset 9, -16
 4498              		.cfi_offset 10, -12
 4499              		.cfi_offset 11, -8
 4500              		.cfi_offset 14, -4
 4501 0004 87B0     		sub	sp, sp, #28
 4502              		.cfi_def_cfa_offset 64
 257:../../libs/PoliTeKDSP/libs/libDaisy/src/hid/disp/display.h ****                   uint_fast8_t y1,
 4503              		.loc 9 257 10 view .LVU1044
 4504 0006 9DF84850 		ldrb	r5, [sp, #72]	@ zero_extendqisi2
 4505 000a 109C     		ldr	r4, [sp, #64]
 4506 000c 2E46     		mov	r6, r5
 4507 000e 0195     		str	r5, [sp, #4]
 4508 0010 9DF84450 		ldrb	r5, [sp, #68]	@ zero_extendqisi2
 4509              	.LBB1325:
 264:../../libs/PoliTeKDSP/libs/libDaisy/src/hid/disp/display.h ****         {
 4510              		.loc 9 264 9 view .LVU1045
 4511 0014 9EB3     		cbz	r6, .L318
 4512              	.LVL359:
 264:../../libs/PoliTeKDSP/libs/libDaisy/src/hid/disp/display.h ****         {
 4513              		.loc 9 264 9 view .LVU1046
 4514              	.LBE1325:
 4515              	.LBB1447:
 4516              	.LBB1448:
 266:../../libs/PoliTeKDSP/libs/libDaisy/src/hid/disp/display.h ****             {
 4517              		.loc 9 266 40 is_stmt 1 view .LVU1047
 4518 0016 9942     		cmp	r1, r3
 4519 0018 2ED8     		bhi	.L317
 4520 001a 9946     		mov	r9, r3
 4521              	.LVL360:
ARM GAS  C:\Users\matte\AppData\Local\Temp\ccrMwnXK.s 			page 132


 4522              	.L321:
 4523              	.LBB1449:
 268:../../libs/PoliTeKDSP/libs/libDaisy/src/hid/disp/display.h ****                 {
 4524              		.loc 9 268 44 view .LVU1048
 4525 001c A242     		cmp	r2, r4
 4526 001e 28D8     		bhi	.L324
 4527              	.LBB1450:
 4528              	.LBB1451:
 4529              	.LBB1452:
 342:../../libs/PoliTeKDSP/libs/libDaisy/src/dev/oled_ssd130x.h ****             return;
 4530              		.loc 10 342 14 is_stmt 0 view .LVU1049
 4531 0020 7F29     		cmp	r1, #127
 4532 0022 1646     		mov	r6, r2
 4533 0024 94BF     		ite	ls
 4534 0026 0023     		movls	r3, #0
 4535 0028 0123     		movhi	r3, #1
 4536 002a 08E0     		b	.L325
 4537              	.LVL361:
 4538              	.L408:
 345:../../libs/PoliTeKDSP/libs/libDaisy/src/dev/oled_ssd130x.h ****         else
 4539              		.loc 10 345 42 view .LVU1050
 4540 002c 9CF81080 		ldrb	r8, [ip, #16]	@ zero_extendqisi2
 4541 0030 4EEA080E 		orr	lr, lr, r8
 4542 0034 8CF810E0 		strb	lr, [ip, #16]
 4543              	.LVL362:
 4544              	.L322:
 345:../../libs/PoliTeKDSP/libs/libDaisy/src/dev/oled_ssd130x.h ****         else
 4545              		.loc 10 345 42 view .LVU1051
 4546              	.LBE1452:
 4547              	.LBE1451:
 4548              	.LBE1450:
 268:../../libs/PoliTeKDSP/libs/libDaisy/src/hid/disp/display.h ****                 {
 4549              		.loc 9 268 17 is_stmt 1 view .LVU1052
 4550 0038 0136     		adds	r6, r6, #1
 4551              	.LVL363:
 268:../../libs/PoliTeKDSP/libs/libDaisy/src/hid/disp/display.h ****                 {
 4552              		.loc 9 268 44 view .LVU1053
 4553 003a B442     		cmp	r4, r6
 4554 003c 19D3     		bcc	.L324
 4555              	.L325:
 4556              	.LVL364:
 4557              	.LBB1466:
 4558              	.LBI1450:
  42:../../libs/PoliTeKDSP/libs/libDaisy/src/hid/disp/oled_display.h ****     {
 4559              		.loc 8 42 10 view .LVU1054
 4560              	.LBB1463:
 4561              	.LBI1451:
 340:../../libs/PoliTeKDSP/libs/libDaisy/src/dev/oled_ssd130x.h ****     {
 4562              		.loc 10 340 10 view .LVU1055
 4563              	.LBB1460:
 342:../../libs/PoliTeKDSP/libs/libDaisy/src/dev/oled_ssd130x.h ****             return;
 4564              		.loc 10 342 9 is_stmt 0 view .LVU1056
 4565 003e 3F2E     		cmp	r6, #63
 4566 0040 FAD8     		bhi	.L322
 342:../../libs/PoliTeKDSP/libs/libDaisy/src/dev/oled_ssd130x.h ****             return;
 4567              		.loc 10 342 9 view .LVU1057
 4568 0042 002B     		cmp	r3, #0
ARM GAS  C:\Users\matte\AppData\Local\Temp\ccrMwnXK.s 			page 133


 4569 0044 F8D1     		bne	.L322
 4570              	.LVL365:
 4571              	.LBB1453:
 4572              	.LBI1453:
 340:../../libs/PoliTeKDSP/libs/libDaisy/src/dev/oled_ssd130x.h ****     {
 4573              		.loc 10 340 10 is_stmt 1 view .LVU1058
 340:../../libs/PoliTeKDSP/libs/libDaisy/src/dev/oled_ssd130x.h ****     {
 4574              		.loc 10 340 10 is_stmt 0 view .LVU1059
 4575              	.LBE1453:
 345:../../libs/PoliTeKDSP/libs/libDaisy/src/dev/oled_ssd130x.h ****         else
 4576              		.loc 10 345 28 view .LVU1060
 4577 0046 4FEAD60C 		lsr	ip, r6, #3
 345:../../libs/PoliTeKDSP/libs/libDaisy/src/dev/oled_ssd130x.h ****         else
 4578              		.loc 10 345 54 view .LVU1061
 4579 004a 06F0070E 		and	lr, r6, #7
 345:../../libs/PoliTeKDSP/libs/libDaisy/src/dev/oled_ssd130x.h ****         else
 4580              		.loc 10 345 48 view .LVU1062
 4581 004e 4FF00108 		mov	r8, #1
 345:../../libs/PoliTeKDSP/libs/libDaisy/src/dev/oled_ssd130x.h ****         else
 4582              		.loc 10 345 42 view .LVU1063
 4583 0052 01EBCC1C 		add	ip, r1, ip, lsl #7
 345:../../libs/PoliTeKDSP/libs/libDaisy/src/dev/oled_ssd130x.h ****         else
 4584              		.loc 10 345 48 view .LVU1064
 4585 0056 08FA0EFE 		lsl	lr, r8, lr
 345:../../libs/PoliTeKDSP/libs/libDaisy/src/dev/oled_ssd130x.h ****         else
 4586              		.loc 10 345 42 view .LVU1065
 4587 005a 8444     		add	ip, ip, r0
 344:../../libs/PoliTeKDSP/libs/libDaisy/src/dev/oled_ssd130x.h ****             buffer_[x + (y / 8) * width] |= (1 << (y % 8));
 4588              		.loc 10 344 9 view .LVU1066
 4589 005c 002D     		cmp	r5, #0
 4590 005e E5D1     		bne	.L408
 4591              	.LBB1457:
 4592              	.LBB1454:
 347:../../libs/PoliTeKDSP/libs/libDaisy/src/dev/oled_ssd130x.h ****     }
 4593              		.loc 10 347 42 view .LVU1067
 4594 0060 9CF810B0 		ldrb	fp, [ip, #16]	@ zero_extendqisi2
 4595              	.LBE1454:
 4596              	.LBE1457:
 4597              	.LBE1460:
 4598              	.LBE1463:
 4599              	.LBE1466:
 268:../../libs/PoliTeKDSP/libs/libDaisy/src/hid/disp/display.h ****                 {
 4600              		.loc 9 268 17 view .LVU1068
 4601 0064 0136     		adds	r6, r6, #1
 4602              	.LVL366:
 4603              	.LBB1467:
 4604              	.LBB1464:
 4605              	.LBB1461:
 4606              	.LBB1458:
 4607              	.LBB1455:
 347:../../libs/PoliTeKDSP/libs/libDaisy/src/dev/oled_ssd130x.h ****     }
 4608              		.loc 10 347 42 view .LVU1069
 4609 0066 2BEA0E0A 		bic	r10, fp, lr
 4610              	.LBE1455:
 4611              	.LBE1458:
 4612              	.LBE1461:
 4613              	.LBE1464:
ARM GAS  C:\Users\matte\AppData\Local\Temp\ccrMwnXK.s 			page 134


 4614              	.LBE1467:
 268:../../libs/PoliTeKDSP/libs/libDaisy/src/hid/disp/display.h ****                 {
 4615              		.loc 9 268 44 view .LVU1070
 4616 006a B442     		cmp	r4, r6
 4617              	.LBB1468:
 4618              	.LBB1465:
 4619              	.LBB1462:
 4620              	.LBB1459:
 4621              	.LBB1456:
 347:../../libs/PoliTeKDSP/libs/libDaisy/src/dev/oled_ssd130x.h ****     }
 4622              		.loc 10 347 42 view .LVU1071
 4623 006c 8CF810A0 		strb	r10, [ip, #16]
 4624              	.LVL367:
 347:../../libs/PoliTeKDSP/libs/libDaisy/src/dev/oled_ssd130x.h ****     }
 4625              		.loc 10 347 42 view .LVU1072
 4626              	.LBE1456:
 4627              	.LBE1459:
 4628              	.LBE1462:
 4629              	.LBE1465:
 4630              	.LBE1468:
 268:../../libs/PoliTeKDSP/libs/libDaisy/src/hid/disp/display.h ****                 {
 4631              		.loc 9 268 17 is_stmt 1 view .LVU1073
 268:../../libs/PoliTeKDSP/libs/libDaisy/src/hid/disp/display.h ****                 {
 4632              		.loc 9 268 44 view .LVU1074
 4633 0070 E5D2     		bcs	.L325
 4634              	.LVL368:
 4635              	.L324:
 268:../../libs/PoliTeKDSP/libs/libDaisy/src/hid/disp/display.h ****                 {
 4636              		.loc 9 268 44 is_stmt 0 view .LVU1075
 4637              	.LBE1449:
 266:../../libs/PoliTeKDSP/libs/libDaisy/src/hid/disp/display.h ****             {
 4638              		.loc 9 266 13 is_stmt 1 view .LVU1076
 4639 0072 0131     		adds	r1, r1, #1
 4640              	.LVL369:
 266:../../libs/PoliTeKDSP/libs/libDaisy/src/hid/disp/display.h ****             {
 4641              		.loc 9 266 40 view .LVU1077
 4642 0074 8945     		cmp	r9, r1
 4643 0076 D1D2     		bcs	.L321
 4644              	.LVL370:
 4645              	.L317:
 266:../../libs/PoliTeKDSP/libs/libDaisy/src/hid/disp/display.h ****             {
 4646              		.loc 9 266 40 is_stmt 0 view .LVU1078
 4647              	.LBE1448:
 4648              	.LBE1447:
 281:../../libs/PoliTeKDSP/libs/libDaisy/src/hid/disp/display.h **** 
 4649              		.loc 9 281 5 view .LVU1079
 4650 0078 07B0     		add	sp, sp, #28
 4651              		.cfi_remember_state
 4652              		.cfi_def_cfa_offset 36
 4653              		@ sp needed
 4654 007a BDE8F08F 		pop	{r4, r5, r6, r7, r8, r9, r10, fp, pc}
 4655              	.LVL371:
 4656              	.L318:
 4657              		.cfi_restore_state
 4658              	.LBB1469:
 4659              	.LBB1326:
 4660              	.LBI1326:
ARM GAS  C:\Users\matte\AppData\Local\Temp\ccrMwnXK.s 			page 135


 221:../../libs/PoliTeKDSP/libs/libDaisy/src/hid/disp/display.h ****                   uint_fast8_t y1,
 4661              		.loc 9 221 10 is_stmt 1 view .LVU1080
 4662              	.LBB1327:
 227:../../libs/PoliTeKDSP/libs/libDaisy/src/hid/disp/display.h ****         int_fast16_t deltaY = abs((int_fast16_t)y2 - (int_fast16_t)y1);
 4663              		.loc 9 227 52 is_stmt 0 view .LVU1081
 4664 007e A3EB0108 		sub	r8, r3, r1
 227:../../libs/PoliTeKDSP/libs/libDaisy/src/hid/disp/display.h ****         int_fast16_t deltaY = abs((int_fast16_t)y2 - (int_fast16_t)y1);
 4665              		.loc 9 227 22 view .LVU1082
 4666 0082 B8F1000F 		cmp	r8, #0
 4667 0086 B8BF     		it	lt
 4668 0088 C8F10008 		rsblt	r8, r8, #0
 4669              	.LVL372:
 229:../../libs/PoliTeKDSP/libs/libDaisy/src/hid/disp/display.h ****         int_fast16_t signY  = ((y1 < y2) ? 1 : -1);
 4670              		.loc 9 229 42 view .LVU1083
 4671 008c 9942     		cmp	r1, r3
 4672 008e C0F04E81 		bcc	.L326
 4673              	.LVL373:
 4674              	.LBB1328:
 4675              	.LBI1328:
  42:../../libs/PoliTeKDSP/libs/libDaisy/src/hid/disp/oled_display.h ****     {
 4676              		.loc 8 42 10 is_stmt 1 view .LVU1084
 4677              	.LBB1329:
 4678              	.LBI1329:
 340:../../libs/PoliTeKDSP/libs/libDaisy/src/dev/oled_ssd130x.h ****     {
 4679              		.loc 10 340 10 view .LVU1085
 4680              	.LBB1330:
 342:../../libs/PoliTeKDSP/libs/libDaisy/src/dev/oled_ssd130x.h ****             return;
 4681              		.loc 10 342 14 is_stmt 0 view .LVU1086
 4682 0092 7F2B     		cmp	r3, #127
 4683              	.LBE1330:
 4684              	.LBE1329:
 4685              	.LBE1328:
 229:../../libs/PoliTeKDSP/libs/libDaisy/src/hid/disp/display.h ****         int_fast16_t signY  = ((y1 < y2) ? 1 : -1);
 4686              		.loc 9 229 42 view .LVU1087
 4687 0094 4FF0FF3A 		mov	r10, #-1
 4688              	.LBB1341:
 4689              	.LBB1337:
 4690              	.LBB1333:
 342:../../libs/PoliTeKDSP/libs/libDaisy/src/dev/oled_ssd130x.h ****             return;
 4691              		.loc 10 342 14 view .LVU1088
 4692 0098 94BF     		ite	ls
 4693 009a 0026     		movls	r6, #0
 4694 009c 0126     		movhi	r6, #1
 342:../../libs/PoliTeKDSP/libs/libDaisy/src/dev/oled_ssd130x.h ****             return;
 4695              		.loc 10 342 28 view .LVU1089
 4696 009e 3F2A     		cmp	r2, #63
 342:../../libs/PoliTeKDSP/libs/libDaisy/src/dev/oled_ssd130x.h ****             return;
 4697              		.loc 10 342 14 view .LVU1090
 4698 00a0 0096     		str	r6, [sp]
 342:../../libs/PoliTeKDSP/libs/libDaisy/src/dev/oled_ssd130x.h ****             return;
 4699              		.loc 10 342 28 view .LVU1091
 4700 00a2 94BF     		ite	ls
 4701 00a4 0027     		movls	r7, #0
 4702 00a6 0127     		movhi	r7, #1
 4703 00a8 0297     		str	r7, [sp, #8]
 342:../../libs/PoliTeKDSP/libs/libDaisy/src/dev/oled_ssd130x.h ****             return;
 4704              		.loc 10 342 9 view .LVU1092
ARM GAS  C:\Users\matte\AppData\Local\Temp\ccrMwnXK.s 			page 136


 4705 00aa A6B9     		cbnz	r6, .L327
 4706 00ac 9FB9     		cbnz	r7, .L327
 4707              	.LVL374:
 4708              	.L368:
 345:../../libs/PoliTeKDSP/libs/libDaisy/src/dev/oled_ssd130x.h ****         else
 4709              		.loc 10 345 28 view .LVU1093
 4710 00ae D608     		lsrs	r6, r2, #3
 345:../../libs/PoliTeKDSP/libs/libDaisy/src/dev/oled_ssd130x.h ****         else
 4711              		.loc 10 345 54 view .LVU1094
 4712 00b0 02F0070C 		and	ip, r2, #7
 345:../../libs/PoliTeKDSP/libs/libDaisy/src/dev/oled_ssd130x.h ****         else
 4713              		.loc 10 345 48 view .LVU1095
 4714 00b4 0127     		movs	r7, #1
 345:../../libs/PoliTeKDSP/libs/libDaisy/src/dev/oled_ssd130x.h ****         else
 4715              		.loc 10 345 42 view .LVU1096
 4716 00b6 03EBC616 		add	r6, r3, r6, lsl #7
 4717 00ba 0644     		add	r6, r6, r0
 344:../../libs/PoliTeKDSP/libs/libDaisy/src/dev/oled_ssd130x.h ****             buffer_[x + (y / 8) * width] |= (1 << (y % 8));
 4718              		.loc 10 344 9 view .LVU1097
 4719 00bc 002D     		cmp	r5, #0
 4720 00be 00F09481 		beq	.L328
 345:../../libs/PoliTeKDSP/libs/libDaisy/src/dev/oled_ssd130x.h ****         else
 4721              		.loc 10 345 48 view .LVU1098
 4722 00c2 07FA0CF7 		lsl	r7, r7, ip
 345:../../libs/PoliTeKDSP/libs/libDaisy/src/dev/oled_ssd130x.h ****         else
 4723              		.loc 10 345 42 view .LVU1099
 4724 00c6 96F810C0 		ldrb	ip, [r6, #16]	@ zero_extendqisi2
 4725 00ca 47EA0C07 		orr	r7, r7, ip
 4726 00ce 3774     		strb	r7, [r6, #16]
 4727 00d0 0026     		movs	r6, #0
 4728 00d2 0296     		str	r6, [sp, #8]
 4729 00d4 0096     		str	r6, [sp]
 4730              	.L327:
 4731              	.LVL375:
 345:../../libs/PoliTeKDSP/libs/libDaisy/src/dev/oled_ssd130x.h ****         else
 4732              		.loc 10 345 42 view .LVU1100
 4733              	.LBE1333:
 4734              	.LBE1337:
 4735              	.LBE1341:
 239:../../libs/PoliTeKDSP/libs/libDaisy/src/hid/disp/display.h ****         {
 4736              		.loc 9 239 26 is_stmt 1 view .LVU1101
 4737 00d6 9942     		cmp	r1, r3
 4738 00d8 00F09781 		beq	.L409
 4739              	.L330:
 4740              	.LVL376:
 227:../../libs/PoliTeKDSP/libs/libDaisy/src/hid/disp/display.h ****         int_fast16_t deltaY = abs((int_fast16_t)y2 - (int_fast16_t)y1);
 4741              		.loc 9 227 22 is_stmt 0 view .LVU1102
 4742 00dc 4646     		mov	r6, r8
 4743 00de 9446     		mov	ip, r2
 4744 00e0 8E46     		mov	lr, r1
 4745              	.LVL377:
 4746              	.L332:
 4747              	.LBB1342:
 4748              	.LBI1342:
  42:../../libs/PoliTeKDSP/libs/libDaisy/src/hid/disp/oled_display.h ****     {
 4749              		.loc 8 42 10 is_stmt 1 view .LVU1103
 4750              	.LBB1343:
ARM GAS  C:\Users\matte\AppData\Local\Temp\ccrMwnXK.s 			page 137


 4751              	.LBI1343:
 340:../../libs/PoliTeKDSP/libs/libDaisy/src/dev/oled_ssd130x.h ****     {
 4752              		.loc 10 340 10 view .LVU1104
 4753              	.LBB1344:
 342:../../libs/PoliTeKDSP/libs/libDaisy/src/dev/oled_ssd130x.h ****             return;
 4754              		.loc 10 342 9 is_stmt 0 view .LVU1105
 4755 00e2 BEF17F0F 		cmp	lr, #127
 4756 00e6 16D8     		bhi	.L333
 4757 00e8 BCF13F0F 		cmp	ip, #63
 4758 00ec 13D8     		bhi	.L333
 345:../../libs/PoliTeKDSP/libs/libDaisy/src/dev/oled_ssd130x.h ****         else
 4759              		.loc 10 345 28 view .LVU1106
 4760 00ee 4FEADC07 		lsr	r7, ip, #3
 345:../../libs/PoliTeKDSP/libs/libDaisy/src/dev/oled_ssd130x.h ****         else
 4761              		.loc 10 345 54 view .LVU1107
 4762 00f2 0CF0070B 		and	fp, ip, #7
 345:../../libs/PoliTeKDSP/libs/libDaisy/src/dev/oled_ssd130x.h ****         else
 4763              		.loc 10 345 48 view .LVU1108
 4764 00f6 4FF00109 		mov	r9, #1
 345:../../libs/PoliTeKDSP/libs/libDaisy/src/dev/oled_ssd130x.h ****         else
 4765              		.loc 10 345 42 view .LVU1109
 4766 00fa 0EEBC717 		add	r7, lr, r7, lsl #7
 4767 00fe 0744     		add	r7, r7, r0
 344:../../libs/PoliTeKDSP/libs/libDaisy/src/dev/oled_ssd130x.h ****             buffer_[x + (y / 8) * width] |= (1 << (y % 8));
 4768              		.loc 10 344 9 view .LVU1110
 4769 0100 002D     		cmp	r5, #0
 4770 0102 00F03981 		beq	.L334
 345:../../libs/PoliTeKDSP/libs/libDaisy/src/dev/oled_ssd130x.h ****         else
 4771              		.loc 10 345 48 view .LVU1111
 4772 0106 09FA0BF9 		lsl	r9, r9, fp
 345:../../libs/PoliTeKDSP/libs/libDaisy/src/dev/oled_ssd130x.h ****         else
 4773              		.loc 10 345 42 view .LVU1112
 4774 010a 97F810B0 		ldrb	fp, [r7, #16]	@ zero_extendqisi2
 4775 010e 49EA0B09 		orr	r9, r9, fp
 4776 0112 87F81090 		strb	r9, [r7, #16]
 4777              	.L333:
 4778              	.LVL378:
 345:../../libs/PoliTeKDSP/libs/libDaisy/src/dev/oled_ssd130x.h ****         else
 4779              		.loc 10 345 42 view .LVU1113
 4780              	.LBE1344:
 4781              	.LBE1343:
 4782              	.LBE1342:
 243:../../libs/PoliTeKDSP/libs/libDaisy/src/hid/disp/display.h ****             {
 4783              		.loc 9 243 13 view .LVU1114
 4784 0116 7700     		lsls	r7, r6, #1
 4785              	.LVL379:
 246:../../libs/PoliTeKDSP/libs/libDaisy/src/hid/disp/display.h ****             }
 4786              		.loc 9 246 20 view .LVU1115
 4787 0118 18BF     		it	ne
 4788 011a D644     		addne	lr, lr, r10
 4789              	.LVL380:
 249:../../libs/PoliTeKDSP/libs/libDaisy/src/hid/disp/display.h ****             {
 4790              		.loc 9 249 13 view .LVU1116
 4791 011c B845     		cmp	r8, r7
 4792 011e 02DD     		ble	.L336
 251:../../libs/PoliTeKDSP/libs/libDaisy/src/hid/disp/display.h ****                 y1 += signY;
 4793              		.loc 9 251 23 view .LVU1117
ARM GAS  C:\Users\matte\AppData\Local\Temp\ccrMwnXK.s 			page 138


 4794 0120 4644     		add	r6, r6, r8
 4795              	.LVL381:
 252:../../libs/PoliTeKDSP/libs/libDaisy/src/hid/disp/display.h ****             }
 4796              		.loc 9 252 20 view .LVU1118
 4797 0122 0CF1FF3C 		add	ip, ip, #-1
 4798              	.LVL382:
 4799              	.L336:
 239:../../libs/PoliTeKDSP/libs/libDaisy/src/hid/disp/display.h ****         {
 4800              		.loc 9 239 26 is_stmt 1 view .LVU1119
 4801 0126 7345     		cmp	r3, lr
 4802 0128 DBD1     		bne	.L332
 239:../../libs/PoliTeKDSP/libs/libDaisy/src/hid/disp/display.h ****         {
 4803              		.loc 9 239 26 is_stmt 0 view .LVU1120
 4804 012a 6245     		cmp	r2, ip
 4805 012c D9D1     		bne	.L332
 4806 012e 0026     		movs	r6, #0
 4807              	.LVL383:
 239:../../libs/PoliTeKDSP/libs/libDaisy/src/hid/disp/display.h ****         {
 4808              		.loc 9 239 26 view .LVU1121
 4809 0130 0496     		str	r6, [sp, #16]
 4810              	.LVL384:
 4811              	.L329:
 239:../../libs/PoliTeKDSP/libs/libDaisy/src/hid/disp/display.h ****         {
 4812              		.loc 9 239 26 view .LVU1122
 4813              	.LBE1327:
 4814              	.LBE1326:
 4815              	.LBB1357:
 4816              	.LBI1357:
 221:../../libs/PoliTeKDSP/libs/libDaisy/src/hid/disp/display.h ****                   uint_fast8_t y1,
 4817              		.loc 9 221 10 is_stmt 1 view .LVU1123
 4818              	.LBB1358:
 228:../../libs/PoliTeKDSP/libs/libDaisy/src/hid/disp/display.h ****         int_fast16_t signX  = ((x1 < x2) ? 1 : -1);
 4819              		.loc 9 228 52 is_stmt 0 view .LVU1124
 4820 0132 A4EB0209 		sub	r9, r4, r2
 4821              	.LBB1359:
 4822              	.LBB1360:
 4823              	.LBB1361:
 342:../../libs/PoliTeKDSP/libs/libDaisy/src/dev/oled_ssd130x.h ****             return;
 4824              		.loc 10 342 9 view .LVU1125
 4825 0136 009F     		ldr	r7, [sp]
 4826              	.LBE1361:
 4827              	.LBE1360:
 4828              	.LBE1359:
 228:../../libs/PoliTeKDSP/libs/libDaisy/src/hid/disp/display.h ****         int_fast16_t signX  = ((x1 < x2) ? 1 : -1);
 4829              		.loc 9 228 22 view .LVU1126
 4830 0138 B9F1000F 		cmp	r9, #0
 4831 013c B8BF     		it	lt
 4832 013e C9F10009 		rsblt	r9, r9, #0
 4833              	.LVL385:
 4834              	.LBB1376:
 4835              	.LBB1370:
 4836              	.LBB1364:
 342:../../libs/PoliTeKDSP/libs/libDaisy/src/dev/oled_ssd130x.h ****             return;
 4837              		.loc 10 342 28 view .LVU1127
 4838 0142 3F2C     		cmp	r4, #63
 4839 0144 94BF     		ite	ls
 4840 0146 0026     		movls	r6, #0
ARM GAS  C:\Users\matte\AppData\Local\Temp\ccrMwnXK.s 			page 139


 4841 0148 0126     		movhi	r6, #1
 4842              	.LBE1364:
 4843              	.LBE1370:
 4844              	.LBE1376:
 230:../../libs/PoliTeKDSP/libs/libDaisy/src/hid/disp/display.h ****         int_fast16_t error  = deltaX - deltaY;
 4845              		.loc 9 230 42 view .LVU1128
 4846 014a A242     		cmp	r2, r4
 231:../../libs/PoliTeKDSP/libs/libDaisy/src/hid/disp/display.h ****         int_fast16_t error2;
 4847              		.loc 9 231 22 view .LVU1129
 4848 014c C9F10008 		rsb	r8, r9, #0
 4849              	.LVL386:
 4850              	.LBB1377:
 4851              	.LBI1359:
  42:../../libs/PoliTeKDSP/libs/libDaisy/src/hid/disp/oled_display.h ****     {
 4852              		.loc 8 42 10 is_stmt 1 view .LVU1130
 4853              	.LBB1371:
 4854              	.LBI1360:
 340:../../libs/PoliTeKDSP/libs/libDaisy/src/dev/oled_ssd130x.h ****     {
 4855              		.loc 10 340 10 view .LVU1131
 4856              	.LBB1365:
 342:../../libs/PoliTeKDSP/libs/libDaisy/src/dev/oled_ssd130x.h ****             return;
 4857              		.loc 10 342 28 is_stmt 0 view .LVU1132
 4858 0150 0396     		str	r6, [sp, #12]
 4859              	.LBE1365:
 4860              	.LBE1371:
 4861              	.LBE1377:
 230:../../libs/PoliTeKDSP/libs/libDaisy/src/hid/disp/display.h ****         int_fast16_t error  = deltaX - deltaY;
 4862              		.loc 9 230 42 view .LVU1133
 4863 0152 C0F02381 		bcc	.L337
 4864              	.LVL387:
 4865              	.LBB1378:
 4866              	.LBB1372:
 4867              	.LBB1366:
 342:../../libs/PoliTeKDSP/libs/libDaisy/src/dev/oled_ssd130x.h ****             return;
 4868              		.loc 10 342 9 view .LVU1134
 4869 0156 002F     		cmp	r7, #0
 4870 0158 40F05081 		bne	.L372
 4871 015c 002E     		cmp	r6, #0
 4872 015e 40F04D81 		bne	.L372
 4873              	.LBE1366:
 4874              	.LBE1372:
 4875              	.LBE1378:
 230:../../libs/PoliTeKDSP/libs/libDaisy/src/hid/disp/display.h ****         int_fast16_t error  = deltaX - deltaY;
 4876              		.loc 9 230 42 view .LVU1135
 4877 0162 4FF0FF36 		mov	r6, #-1
 4878 0166 0096     		str	r6, [sp]
 4879              	.LBB1379:
 4880              	.LBB1373:
 4881              	.LBB1367:
 345:../../libs/PoliTeKDSP/libs/libDaisy/src/dev/oled_ssd130x.h ****         else
 4882              		.loc 10 345 28 view .LVU1136
 4883 0168 E608     		lsrs	r6, r4, #3
 345:../../libs/PoliTeKDSP/libs/libDaisy/src/dev/oled_ssd130x.h ****         else
 4884              		.loc 10 345 42 view .LVU1137
 4885 016a 03EBC616 		add	r6, r3, r6, lsl #7
 4886 016e 0644     		add	r6, r6, r0
 344:../../libs/PoliTeKDSP/libs/libDaisy/src/dev/oled_ssd130x.h ****             buffer_[x + (y / 8) * width] |= (1 << (y % 8));
ARM GAS  C:\Users\matte\AppData\Local\Temp\ccrMwnXK.s 			page 140


 4887              		.loc 10 344 9 view .LVU1138
 4888 0170 002D     		cmp	r5, #0
 4889 0172 00F01E81 		beq	.L339
 4890              	.LVL388:
 4891              	.L411:
 345:../../libs/PoliTeKDSP/libs/libDaisy/src/dev/oled_ssd130x.h ****         else
 4892              		.loc 10 345 48 view .LVU1139
 4893 0176 4FF0010C 		mov	ip, #1
 345:../../libs/PoliTeKDSP/libs/libDaisy/src/dev/oled_ssd130x.h ****         else
 4894              		.loc 10 345 54 view .LVU1140
 4895 017a 04F00707 		and	r7, r4, #7
 345:../../libs/PoliTeKDSP/libs/libDaisy/src/dev/oled_ssd130x.h ****         else
 4896              		.loc 10 345 48 view .LVU1141
 4897 017e 0CFA07F7 		lsl	r7, ip, r7
 345:../../libs/PoliTeKDSP/libs/libDaisy/src/dev/oled_ssd130x.h ****         else
 4898              		.loc 10 345 42 view .LVU1142
 4899 0182 96F810C0 		ldrb	ip, [r6, #16]	@ zero_extendqisi2
 4900 0186 47EA0C07 		orr	r7, r7, ip
 4901 018a 3774     		strb	r7, [r6, #16]
 4902 018c 0026     		movs	r6, #0
 4903 018e 0396     		str	r6, [sp, #12]
 4904              	.L338:
 4905              	.LVL389:
 345:../../libs/PoliTeKDSP/libs/libDaisy/src/dev/oled_ssd130x.h ****         else
 4906              		.loc 10 345 42 view .LVU1143
 4907              	.LBE1367:
 4908              	.LBE1373:
 4909              	.LBE1379:
 239:../../libs/PoliTeKDSP/libs/libDaisy/src/hid/disp/display.h ****         {
 4910              		.loc 9 239 26 is_stmt 1 view .LVU1144
 4911 0190 A242     		cmp	r2, r4
 4912 0192 00F03D81 		beq	.L410
 4913              	.L341:
 4914              	.LVL390:
 230:../../libs/PoliTeKDSP/libs/libDaisy/src/hid/disp/display.h ****         int_fast16_t error  = deltaX - deltaY;
 4915              		.loc 9 230 42 is_stmt 0 view .LVU1145
 4916 0196 C446     		mov	ip, r8
 4917 0198 1646     		mov	r6, r2
 4918 019a 1F46     		mov	r7, r3
 4919 019c 0592     		str	r2, [sp, #20]
 4920              	.LVL391:
 4921              	.L343:
 4922              	.LBB1380:
 4923              	.LBI1380:
  42:../../libs/PoliTeKDSP/libs/libDaisy/src/hid/disp/oled_display.h ****     {
 4924              		.loc 8 42 10 is_stmt 1 view .LVU1146
 4925              	.LBB1381:
 4926              	.LBI1381:
 340:../../libs/PoliTeKDSP/libs/libDaisy/src/dev/oled_ssd130x.h ****     {
 4927              		.loc 10 340 10 view .LVU1147
 4928              	.LBB1382:
 342:../../libs/PoliTeKDSP/libs/libDaisy/src/dev/oled_ssd130x.h ****             return;
 4929              		.loc 10 342 9 is_stmt 0 view .LVU1148
 4930 019e 7F2F     		cmp	r7, #127
 4931 01a0 15D8     		bhi	.L344
 4932 01a2 3F2E     		cmp	r6, #63
 4933 01a4 13D8     		bhi	.L344
ARM GAS  C:\Users\matte\AppData\Local\Temp\ccrMwnXK.s 			page 141


 345:../../libs/PoliTeKDSP/libs/libDaisy/src/dev/oled_ssd130x.h ****         else
 4934              		.loc 10 345 28 view .LVU1149
 4935 01a6 4FEAD60E 		lsr	lr, r6, #3
 345:../../libs/PoliTeKDSP/libs/libDaisy/src/dev/oled_ssd130x.h ****         else
 4936              		.loc 10 345 54 view .LVU1150
 4937 01aa 06F0070B 		and	fp, r6, #7
 345:../../libs/PoliTeKDSP/libs/libDaisy/src/dev/oled_ssd130x.h ****         else
 4938              		.loc 10 345 48 view .LVU1151
 4939 01ae 4FF0010A 		mov	r10, #1
 345:../../libs/PoliTeKDSP/libs/libDaisy/src/dev/oled_ssd130x.h ****         else
 4940              		.loc 10 345 42 view .LVU1152
 4941 01b2 07EBCE1E 		add	lr, r7, lr, lsl #7
 4942 01b6 8644     		add	lr, lr, r0
 344:../../libs/PoliTeKDSP/libs/libDaisy/src/dev/oled_ssd130x.h ****             buffer_[x + (y / 8) * width] |= (1 << (y % 8));
 4943              		.loc 10 344 9 view .LVU1153
 4944 01b8 002D     		cmp	r5, #0
 4945 01ba 00F0E680 		beq	.L345
 345:../../libs/PoliTeKDSP/libs/libDaisy/src/dev/oled_ssd130x.h ****         else
 4946              		.loc 10 345 48 view .LVU1154
 4947 01be 0AFA0BFA 		lsl	r10, r10, fp
 345:../../libs/PoliTeKDSP/libs/libDaisy/src/dev/oled_ssd130x.h ****         else
 4948              		.loc 10 345 42 view .LVU1155
 4949 01c2 9EF810B0 		ldrb	fp, [lr, #16]	@ zero_extendqisi2
 4950 01c6 4AEA0B0A 		orr	r10, r10, fp
 4951 01ca 8EF810A0 		strb	r10, [lr, #16]
 4952              	.L344:
 4953              	.LVL392:
 345:../../libs/PoliTeKDSP/libs/libDaisy/src/dev/oled_ssd130x.h ****         else
 4954              		.loc 10 345 42 view .LVU1156
 4955              	.LBE1382:
 4956              	.LBE1381:
 4957              	.LBE1380:
 243:../../libs/PoliTeKDSP/libs/libDaisy/src/hid/disp/display.h ****             {
 4958              		.loc 9 243 13 view .LVU1157
 4959 01ce B8EB4C0F 		cmp	r8, ip, lsl #1
 242:../../libs/PoliTeKDSP/libs/libDaisy/src/hid/disp/display.h ****             if(error2 > -deltaY)
 4960              		.loc 9 242 20 view .LVU1158
 4961 01d2 4FEA4C0E 		lsl	lr, ip, #1
 4962              	.LVL393:
 243:../../libs/PoliTeKDSP/libs/libDaisy/src/hid/disp/display.h ****             {
 4963              		.loc 9 243 13 view .LVU1159
 4964 01d6 02DA     		bge	.L346
 245:../../libs/PoliTeKDSP/libs/libDaisy/src/hid/disp/display.h ****                 x1 += signX;
 4965              		.loc 9 245 23 view .LVU1160
 4966 01d8 ACEB090C 		sub	ip, ip, r9
 4967              	.LVL394:
 246:../../libs/PoliTeKDSP/libs/libDaisy/src/hid/disp/display.h ****             }
 4968              		.loc 9 246 20 view .LVU1161
 4969 01dc 013F     		subs	r7, r7, #1
 4970              	.LVL395:
 4971              	.L346:
 249:../../libs/PoliTeKDSP/libs/libDaisy/src/hid/disp/display.h ****             {
 4972              		.loc 9 249 13 view .LVU1162
 4973 01de BEF1000F 		cmp	lr, #0
 4974 01e2 01D0     		beq	.L347
 252:../../libs/PoliTeKDSP/libs/libDaisy/src/hid/disp/display.h ****             }
 4975              		.loc 9 252 20 view .LVU1163
ARM GAS  C:\Users\matte\AppData\Local\Temp\ccrMwnXK.s 			page 142


 4976 01e4 009A     		ldr	r2, [sp]
 4977 01e6 1644     		add	r6, r6, r2
 4978              	.LVL396:
 4979              	.L347:
 239:../../libs/PoliTeKDSP/libs/libDaisy/src/hid/disp/display.h ****         {
 4980              		.loc 9 239 26 is_stmt 1 view .LVU1164
 4981 01e8 BB42     		cmp	r3, r7
 4982 01ea D8D1     		bne	.L343
 239:../../libs/PoliTeKDSP/libs/libDaisy/src/hid/disp/display.h ****         {
 4983              		.loc 9 239 26 is_stmt 0 view .LVU1165
 4984 01ec B442     		cmp	r4, r6
 4985 01ee D6D1     		bne	.L343
 4986 01f0 059A     		ldr	r2, [sp, #20]
 4987              	.LVL397:
 4988              	.L340:
 239:../../libs/PoliTeKDSP/libs/libDaisy/src/hid/disp/display.h ****         {
 4989              		.loc 9 239 26 view .LVU1166
 4990              	.LBE1358:
 4991              	.LBE1357:
 4992              	.LBB1393:
 4993              	.LBI1393:
 221:../../libs/PoliTeKDSP/libs/libDaisy/src/hid/disp/display.h ****                   uint_fast8_t y1,
 4994              		.loc 9 221 10 is_stmt 1 view .LVU1167
 4995              	.LBB1394:
 227:../../libs/PoliTeKDSP/libs/libDaisy/src/hid/disp/display.h ****         int_fast16_t deltaY = abs((int_fast16_t)y2 - (int_fast16_t)y1);
 4996              		.loc 9 227 52 is_stmt 0 view .LVU1168
 4997 01f2 A1EB030E 		sub	lr, r1, r3
 227:../../libs/PoliTeKDSP/libs/libDaisy/src/hid/disp/display.h ****         int_fast16_t deltaY = abs((int_fast16_t)y2 - (int_fast16_t)y1);
 4998              		.loc 9 227 22 view .LVU1169
 4999 01f6 BEF1000F 		cmp	lr, #0
 5000 01fa B8BF     		it	lt
 5001 01fc CEF1000E 		rsblt	lr, lr, #0
 5002              	.LVL398:
 5003              	.LBB1395:
 5004              	.LBB1396:
 5005              	.LBB1397:
 342:../../libs/PoliTeKDSP/libs/libDaisy/src/dev/oled_ssd130x.h ****             return;
 5006              		.loc 10 342 14 view .LVU1170
 5007 0200 7F29     		cmp	r1, #127
 5008 0202 94BF     		ite	ls
 5009 0204 4FF0000A 		movls	r10, #0
 5010 0208 4FF0010A 		movhi	r10, #1
 5011              	.LBE1397:
 5012              	.LBE1396:
 5013              	.LBE1395:
 229:../../libs/PoliTeKDSP/libs/libDaisy/src/hid/disp/display.h ****         int_fast16_t signY  = ((y1 < y2) ? 1 : -1);
 5014              		.loc 9 229 42 view .LVU1171
 5015 020c 9942     		cmp	r1, r3
 5016 020e 8CBF     		ite	hi
 5017 0210 4FF00109 		movhi	r9, #1
 5018 0214 4FF0FF39 		movls	r9, #-1
 5019              	.LVL399:
 5020              	.LBB1404:
 5021              	.LBI1395:
  42:../../libs/PoliTeKDSP/libs/libDaisy/src/hid/disp/oled_display.h ****     {
 5022              		.loc 8 42 10 is_stmt 1 view .LVU1172
 5023              	.LBB1402:
ARM GAS  C:\Users\matte\AppData\Local\Temp\ccrMwnXK.s 			page 143


 5024              	.LBI1396:
 340:../../libs/PoliTeKDSP/libs/libDaisy/src/dev/oled_ssd130x.h ****     {
 5025              		.loc 10 340 10 view .LVU1173
 5026              	.LBB1400:
 342:../../libs/PoliTeKDSP/libs/libDaisy/src/dev/oled_ssd130x.h ****             return;
 5027              		.loc 10 342 9 is_stmt 0 view .LVU1174
 5028 0218 BAF1000F 		cmp	r10, #0
 5029 021c 13D1     		bne	.L349
 5030 021e 039E     		ldr	r6, [sp, #12]
 5031 0220 8EB9     		cbnz	r6, .L349
 345:../../libs/PoliTeKDSP/libs/libDaisy/src/dev/oled_ssd130x.h ****         else
 5032              		.loc 10 345 28 view .LVU1175
 5033 0222 E608     		lsrs	r6, r4, #3
 345:../../libs/PoliTeKDSP/libs/libDaisy/src/dev/oled_ssd130x.h ****         else
 5034              		.loc 10 345 42 view .LVU1176
 5035 0224 01EBC616 		add	r6, r1, r6, lsl #7
 5036 0228 0644     		add	r6, r6, r0
 344:../../libs/PoliTeKDSP/libs/libDaisy/src/dev/oled_ssd130x.h ****             buffer_[x + (y / 8) * width] |= (1 << (y % 8));
 5037              		.loc 10 344 9 view .LVU1177
 5038 022a 002D     		cmp	r5, #0
 5039 022c 00F0D380 		beq	.L350
 345:../../libs/PoliTeKDSP/libs/libDaisy/src/dev/oled_ssd130x.h ****         else
 5040              		.loc 10 345 48 view .LVU1178
 5041 0230 4FF0010C 		mov	ip, #1
 345:../../libs/PoliTeKDSP/libs/libDaisy/src/dev/oled_ssd130x.h ****         else
 5042              		.loc 10 345 54 view .LVU1179
 5043 0234 04F00707 		and	r7, r4, #7
 345:../../libs/PoliTeKDSP/libs/libDaisy/src/dev/oled_ssd130x.h ****         else
 5044              		.loc 10 345 48 view .LVU1180
 5045 0238 0CFA07F7 		lsl	r7, ip, r7
 345:../../libs/PoliTeKDSP/libs/libDaisy/src/dev/oled_ssd130x.h ****         else
 5046              		.loc 10 345 42 view .LVU1181
 5047 023c 96F810C0 		ldrb	ip, [r6, #16]	@ zero_extendqisi2
 5048 0240 47EA0C07 		orr	r7, r7, ip
 5049 0244 3774     		strb	r7, [r6, #16]
 5050              	.L349:
 5051              	.LVL400:
 345:../../libs/PoliTeKDSP/libs/libDaisy/src/dev/oled_ssd130x.h ****         else
 5052              		.loc 10 345 42 view .LVU1182
 5053              	.LBE1400:
 5054              	.LBE1402:
 5055              	.LBE1404:
 239:../../libs/PoliTeKDSP/libs/libDaisy/src/hid/disp/display.h ****         {
 5056              		.loc 9 239 26 is_stmt 1 view .LVU1183
 5057 0246 049E     		ldr	r6, [sp, #16]
 5058 0248 26BB     		cbnz	r6, .L351
 227:../../libs/PoliTeKDSP/libs/libDaisy/src/hid/disp/display.h ****         int_fast16_t deltaY = abs((int_fast16_t)y2 - (int_fast16_t)y1);
 5059              		.loc 9 227 22 is_stmt 0 view .LVU1184
 5060 024a 7746     		mov	r7, lr
 239:../../libs/PoliTeKDSP/libs/libDaisy/src/hid/disp/display.h ****         {
 5061              		.loc 9 239 26 view .LVU1185
 5062 024c 2646     		mov	r6, r4
 5063              	.LVL401:
 5064              	.L352:
 5065              	.LBB1405:
 5066              	.LBI1405:
  42:../../libs/PoliTeKDSP/libs/libDaisy/src/hid/disp/oled_display.h ****     {
ARM GAS  C:\Users\matte\AppData\Local\Temp\ccrMwnXK.s 			page 144


 5067              		.loc 8 42 10 is_stmt 1 view .LVU1186
 5068              	.LBB1406:
 5069              	.LBI1406:
 340:../../libs/PoliTeKDSP/libs/libDaisy/src/dev/oled_ssd130x.h ****     {
 5070              		.loc 10 340 10 view .LVU1187
 5071              	.LBB1407:
 342:../../libs/PoliTeKDSP/libs/libDaisy/src/dev/oled_ssd130x.h ****             return;
 5072              		.loc 10 342 9 is_stmt 0 view .LVU1188
 5073 024e 7F2B     		cmp	r3, #127
 5074 0250 14D8     		bhi	.L354
 342:../../libs/PoliTeKDSP/libs/libDaisy/src/dev/oled_ssd130x.h ****             return;
 5075              		.loc 10 342 9 view .LVU1189
 5076 0252 3F2E     		cmp	r6, #63
 5077 0254 12D8     		bhi	.L354
 345:../../libs/PoliTeKDSP/libs/libDaisy/src/dev/oled_ssd130x.h ****         else
 5078              		.loc 10 345 28 view .LVU1190
 5079 0256 4FEAD60C 		lsr	ip, r6, #3
 345:../../libs/PoliTeKDSP/libs/libDaisy/src/dev/oled_ssd130x.h ****         else
 5080              		.loc 10 345 54 view .LVU1191
 5081 025a 06F0070B 		and	fp, r6, #7
 345:../../libs/PoliTeKDSP/libs/libDaisy/src/dev/oled_ssd130x.h ****         else
 5082              		.loc 10 345 48 view .LVU1192
 5083 025e 4FF00108 		mov	r8, #1
 345:../../libs/PoliTeKDSP/libs/libDaisy/src/dev/oled_ssd130x.h ****         else
 5084              		.loc 10 345 42 view .LVU1193
 5085 0262 03EBCC1C 		add	ip, r3, ip, lsl #7
 5086 0266 8444     		add	ip, ip, r0
 344:../../libs/PoliTeKDSP/libs/libDaisy/src/dev/oled_ssd130x.h ****             buffer_[x + (y / 8) * width] |= (1 << (y % 8));
 5087              		.loc 10 344 9 view .LVU1194
 5088 0268 002D     		cmp	r5, #0
 5089 026a 73D0     		beq	.L355
 345:../../libs/PoliTeKDSP/libs/libDaisy/src/dev/oled_ssd130x.h ****         else
 5090              		.loc 10 345 48 view .LVU1195
 5091 026c 08FA0BF8 		lsl	r8, r8, fp
 345:../../libs/PoliTeKDSP/libs/libDaisy/src/dev/oled_ssd130x.h ****         else
 5092              		.loc 10 345 42 view .LVU1196
 5093 0270 9CF810B0 		ldrb	fp, [ip, #16]	@ zero_extendqisi2
 5094 0274 48EA0B08 		orr	r8, r8, fp
 5095 0278 8CF81080 		strb	r8, [ip, #16]
 5096              	.L354:
 5097              	.LVL402:
 345:../../libs/PoliTeKDSP/libs/libDaisy/src/dev/oled_ssd130x.h ****         else
 5098              		.loc 10 345 42 view .LVU1197
 5099              	.LBE1407:
 5100              	.LBE1406:
 5101              	.LBE1405:
 243:../../libs/PoliTeKDSP/libs/libDaisy/src/hid/disp/display.h ****             {
 5102              		.loc 9 243 13 view .LVU1198
 5103 027c 5FEA470C 		lsls	ip, r7, #1
 5104              	.LVL403:
 246:../../libs/PoliTeKDSP/libs/libDaisy/src/hid/disp/display.h ****             }
 5105              		.loc 9 246 20 view .LVU1199
 5106 0280 18BF     		it	ne
 5107 0282 4B44     		addne	r3, r3, r9
 5108              	.LVL404:
 249:../../libs/PoliTeKDSP/libs/libDaisy/src/hid/disp/display.h ****             {
 5109              		.loc 9 249 13 view .LVU1200
ARM GAS  C:\Users\matte\AppData\Local\Temp\ccrMwnXK.s 			page 145


 5110 0284 E645     		cmp	lr, ip
 5111 0286 01DD     		ble	.L357
 251:../../libs/PoliTeKDSP/libs/libDaisy/src/hid/disp/display.h ****                 y1 += signY;
 5112              		.loc 9 251 23 view .LVU1201
 5113 0288 7744     		add	r7, r7, lr
 5114              	.LVL405:
 252:../../libs/PoliTeKDSP/libs/libDaisy/src/hid/disp/display.h ****             }
 5115              		.loc 9 252 20 view .LVU1202
 5116 028a 013E     		subs	r6, r6, #1
 5117              	.LVL406:
 5118              	.L357:
 239:../../libs/PoliTeKDSP/libs/libDaisy/src/hid/disp/display.h ****         {
 5119              		.loc 9 239 26 is_stmt 1 view .LVU1203
 5120 028c 9942     		cmp	r1, r3
 5121 028e DED1     		bne	.L352
 239:../../libs/PoliTeKDSP/libs/libDaisy/src/hid/disp/display.h ****         {
 5122              		.loc 9 239 26 is_stmt 0 view .LVU1204
 5123 0290 B442     		cmp	r4, r6
 5124 0292 DCD1     		bne	.L352
 5125              	.LVL407:
 5126              	.L351:
 239:../../libs/PoliTeKDSP/libs/libDaisy/src/hid/disp/display.h ****         {
 5127              		.loc 9 239 26 view .LVU1205
 5128              	.LBE1394:
 5129              	.LBE1393:
 5130              	.LBB1416:
 5131              	.LBI1416:
 221:../../libs/PoliTeKDSP/libs/libDaisy/src/hid/disp/display.h ****                   uint_fast8_t y1,
 5132              		.loc 9 221 10 is_stmt 1 view .LVU1206
 5133              	.LBB1417:
 228:../../libs/PoliTeKDSP/libs/libDaisy/src/hid/disp/display.h ****         int_fast16_t signX  = ((x1 < x2) ? 1 : -1);
 5134              		.loc 9 228 52 is_stmt 0 view .LVU1207
 5135 0294 A2EB040E 		sub	lr, r2, r4
 228:../../libs/PoliTeKDSP/libs/libDaisy/src/hid/disp/display.h ****         int_fast16_t signX  = ((x1 < x2) ? 1 : -1);
 5136              		.loc 9 228 22 view .LVU1208
 5137 0298 BEF1000F 		cmp	lr, #0
 5138 029c B8BF     		it	lt
 5139 029e CEF1000E 		rsblt	lr, lr, #0
 5140              	.LVL408:
 230:../../libs/PoliTeKDSP/libs/libDaisy/src/hid/disp/display.h ****         int_fast16_t error  = deltaX - deltaY;
 5141              		.loc 9 230 42 view .LVU1209
 5142 02a2 A242     		cmp	r2, r4
 5143 02a4 8CBF     		ite	hi
 5144 02a6 4FF00108 		movhi	r8, #1
 5145 02aa 4FF0FF38 		movls	r8, #-1
 5146              	.LVL409:
 231:../../libs/PoliTeKDSP/libs/libDaisy/src/hid/disp/display.h ****         int_fast16_t error2;
 5147              		.loc 9 231 22 view .LVU1210
 5148 02ae CEF1000C 		rsb	ip, lr, #0
 5149              	.LVL410:
 5150              	.LBB1418:
 5151              	.LBI1418:
  42:../../libs/PoliTeKDSP/libs/libDaisy/src/hid/disp/oled_display.h ****     {
 5152              		.loc 8 42 10 is_stmt 1 view .LVU1211
 5153              	.LBB1419:
 5154              	.LBI1419:
 340:../../libs/PoliTeKDSP/libs/libDaisy/src/dev/oled_ssd130x.h ****     {
ARM GAS  C:\Users\matte\AppData\Local\Temp\ccrMwnXK.s 			page 146


 5155              		.loc 10 340 10 view .LVU1212
 5156              	.LBB1420:
 342:../../libs/PoliTeKDSP/libs/libDaisy/src/dev/oled_ssd130x.h ****             return;
 5157              		.loc 10 342 9 is_stmt 0 view .LVU1213
 5158 02b2 BAF1000F 		cmp	r10, #0
 5159 02b6 0ED1     		bne	.L359
 5160 02b8 029B     		ldr	r3, [sp, #8]
 5161 02ba 63B9     		cbnz	r3, .L359
 345:../../libs/PoliTeKDSP/libs/libDaisy/src/dev/oled_ssd130x.h ****         else
 5162              		.loc 10 345 28 view .LVU1214
 5163 02bc D308     		lsrs	r3, r2, #3
 345:../../libs/PoliTeKDSP/libs/libDaisy/src/dev/oled_ssd130x.h ****         else
 5164              		.loc 10 345 54 view .LVU1215
 5165 02be 02F00707 		and	r7, r2, #7
 345:../../libs/PoliTeKDSP/libs/libDaisy/src/dev/oled_ssd130x.h ****         else
 5166              		.loc 10 345 48 view .LVU1216
 5167 02c2 0126     		movs	r6, #1
 345:../../libs/PoliTeKDSP/libs/libDaisy/src/dev/oled_ssd130x.h ****         else
 5168              		.loc 10 345 42 view .LVU1217
 5169 02c4 01EBC313 		add	r3, r1, r3, lsl #7
 5170 02c8 0344     		add	r3, r3, r0
 344:../../libs/PoliTeKDSP/libs/libDaisy/src/dev/oled_ssd130x.h ****             buffer_[x + (y / 8) * width] |= (1 << (y % 8));
 5171              		.loc 10 344 9 view .LVU1218
 5172 02ca 002D     		cmp	r5, #0
 5173 02cc 7CD0     		beq	.L360
 345:../../libs/PoliTeKDSP/libs/libDaisy/src/dev/oled_ssd130x.h ****         else
 5174              		.loc 10 345 48 view .LVU1219
 5175 02ce BE40     		lsls	r6, r6, r7
 345:../../libs/PoliTeKDSP/libs/libDaisy/src/dev/oled_ssd130x.h ****         else
 5176              		.loc 10 345 42 view .LVU1220
 5177 02d0 1F7C     		ldrb	r7, [r3, #16]	@ zero_extendqisi2
 5178 02d2 3E43     		orrs	r6, r6, r7
 5179 02d4 1E74     		strb	r6, [r3, #16]
 5180              	.L359:
 5181              	.LVL411:
 345:../../libs/PoliTeKDSP/libs/libDaisy/src/dev/oled_ssd130x.h ****         else
 5182              		.loc 10 345 42 view .LVU1221
 5183              	.LBE1420:
 5184              	.LBE1419:
 5185              	.LBE1418:
 239:../../libs/PoliTeKDSP/libs/libDaisy/src/hid/disp/display.h ****         {
 5186              		.loc 9 239 26 is_stmt 1 view .LVU1222
 5187 02d6 019B     		ldr	r3, [sp, #4]
 5188 02d8 002B     		cmp	r3, #0
 5189 02da 7FF4CDAE 		bne	.L317
 5190 02de 6646     		mov	r6, ip
 5191 02e0 0B46     		mov	r3, r1
 5192              	.LVL412:
 5193              	.L361:
 5194              	.LBB1425:
 5195              	.LBI1425:
  42:../../libs/PoliTeKDSP/libs/libDaisy/src/hid/disp/oled_display.h ****     {
 5196              		.loc 8 42 10 view .LVU1223
 5197              	.LBB1426:
 5198              	.LBI1426:
 340:../../libs/PoliTeKDSP/libs/libDaisy/src/dev/oled_ssd130x.h ****     {
 5199              		.loc 10 340 10 view .LVU1224
ARM GAS  C:\Users\matte\AppData\Local\Temp\ccrMwnXK.s 			page 147


 5200              	.LBB1427:
 342:../../libs/PoliTeKDSP/libs/libDaisy/src/dev/oled_ssd130x.h ****             return;
 5201              		.loc 10 342 9 is_stmt 0 view .LVU1225
 5202 02e2 7F2B     		cmp	r3, #127
 5203 02e4 12D8     		bhi	.L363
 342:../../libs/PoliTeKDSP/libs/libDaisy/src/dev/oled_ssd130x.h ****             return;
 5204              		.loc 10 342 9 view .LVU1226
 5205 02e6 3F2C     		cmp	r4, #63
 5206 02e8 10D8     		bhi	.L363
 345:../../libs/PoliTeKDSP/libs/libDaisy/src/dev/oled_ssd130x.h ****         else
 5207              		.loc 10 345 28 view .LVU1227
 5208 02ea E708     		lsrs	r7, r4, #3
 345:../../libs/PoliTeKDSP/libs/libDaisy/src/dev/oled_ssd130x.h ****         else
 5209              		.loc 10 345 54 view .LVU1228
 5210 02ec 04F0070A 		and	r10, r4, #7
 345:../../libs/PoliTeKDSP/libs/libDaisy/src/dev/oled_ssd130x.h ****         else
 5211              		.loc 10 345 48 view .LVU1229
 5212 02f0 4FF00109 		mov	r9, #1
 345:../../libs/PoliTeKDSP/libs/libDaisy/src/dev/oled_ssd130x.h ****         else
 5213              		.loc 10 345 42 view .LVU1230
 5214 02f4 03EBC717 		add	r7, r3, r7, lsl #7
 5215 02f8 0744     		add	r7, r7, r0
 344:../../libs/PoliTeKDSP/libs/libDaisy/src/dev/oled_ssd130x.h ****             buffer_[x + (y / 8) * width] |= (1 << (y % 8));
 5216              		.loc 10 344 9 view .LVU1231
 5217 02fa A5B3     		cbz	r5, .L364
 345:../../libs/PoliTeKDSP/libs/libDaisy/src/dev/oled_ssd130x.h ****         else
 5218              		.loc 10 345 48 view .LVU1232
 5219 02fc 09FA0AF9 		lsl	r9, r9, r10
 345:../../libs/PoliTeKDSP/libs/libDaisy/src/dev/oled_ssd130x.h ****         else
 5220              		.loc 10 345 42 view .LVU1233
 5221 0300 97F810A0 		ldrb	r10, [r7, #16]	@ zero_extendqisi2
 5222 0304 49EA0A09 		orr	r9, r9, r10
 5223 0308 87F81090 		strb	r9, [r7, #16]
 5224              	.L363:
 5225              	.LVL413:
 345:../../libs/PoliTeKDSP/libs/libDaisy/src/dev/oled_ssd130x.h ****         else
 5226              		.loc 10 345 42 view .LVU1234
 5227              	.LBE1427:
 5228              	.LBE1426:
 5229              	.LBE1425:
 243:../../libs/PoliTeKDSP/libs/libDaisy/src/hid/disp/display.h ****             {
 5230              		.loc 9 243 13 view .LVU1235
 5231 030c BCEB460F 		cmp	ip, r6, lsl #1
 242:../../libs/PoliTeKDSP/libs/libDaisy/src/hid/disp/display.h ****             if(error2 > -deltaY)
 5232              		.loc 9 242 20 view .LVU1236
 5233 0310 4FEA4607 		lsl	r7, r6, #1
 5234              	.LVL414:
 243:../../libs/PoliTeKDSP/libs/libDaisy/src/hid/disp/display.h ****             {
 5235              		.loc 9 243 13 view .LVU1237
 5236 0314 02DA     		bge	.L365
 245:../../libs/PoliTeKDSP/libs/libDaisy/src/hid/disp/display.h ****                 x1 += signX;
 5237              		.loc 9 245 23 view .LVU1238
 5238 0316 A6EB0E06 		sub	r6, r6, lr
 5239              	.LVL415:
 246:../../libs/PoliTeKDSP/libs/libDaisy/src/hid/disp/display.h ****             }
 5240              		.loc 9 246 20 view .LVU1239
 5241 031a 013B     		subs	r3, r3, #1
ARM GAS  C:\Users\matte\AppData\Local\Temp\ccrMwnXK.s 			page 148


 5242              	.LVL416:
 5243              	.L365:
 249:../../libs/PoliTeKDSP/libs/libDaisy/src/hid/disp/display.h ****             {
 5244              		.loc 9 249 13 view .LVU1240
 5245 031c 07B1     		cbz	r7, .L366
 252:../../libs/PoliTeKDSP/libs/libDaisy/src/hid/disp/display.h ****             }
 5246              		.loc 9 252 20 view .LVU1241
 5247 031e 4444     		add	r4, r4, r8
 5248              	.LVL417:
 5249              	.L366:
 239:../../libs/PoliTeKDSP/libs/libDaisy/src/hid/disp/display.h ****         {
 5250              		.loc 9 239 26 is_stmt 1 view .LVU1242
 5251 0320 9942     		cmp	r1, r3
 5252 0322 DED1     		bne	.L361
 239:../../libs/PoliTeKDSP/libs/libDaisy/src/hid/disp/display.h ****         {
 5253              		.loc 9 239 26 is_stmt 0 view .LVU1243
 5254 0324 A242     		cmp	r2, r4
 5255 0326 DCD1     		bne	.L361
 5256              	.LBE1417:
 5257              	.LBE1416:
 5258              	.LBE1469:
 281:../../libs/PoliTeKDSP/libs/libDaisy/src/hid/disp/display.h **** 
 5259              		.loc 9 281 5 view .LVU1244
 5260 0328 07B0     		add	sp, sp, #28
 5261              		.cfi_remember_state
 5262              		.cfi_def_cfa_offset 36
 5263              		@ sp needed
 5264 032a BDE8F08F 		pop	{r4, r5, r6, r7, r8, r9, r10, fp, pc}
 5265              	.LVL418:
 5266              	.L326:
 5267              		.cfi_restore_state
 5268              	.LBB1470:
 5269              	.LBB1436:
 5270              	.LBB1353:
 5271              	.LBB1349:
  42:../../libs/PoliTeKDSP/libs/libDaisy/src/hid/disp/oled_display.h ****     {
 5272              		.loc 8 42 10 is_stmt 1 view .LVU1245
 5273              	.LBB1338:
 340:../../libs/PoliTeKDSP/libs/libDaisy/src/dev/oled_ssd130x.h ****     {
 5274              		.loc 10 340 10 view .LVU1246
 5275              	.LBB1334:
 342:../../libs/PoliTeKDSP/libs/libDaisy/src/dev/oled_ssd130x.h ****             return;
 5276              		.loc 10 342 28 is_stmt 0 view .LVU1247
 5277 032e 3F2A     		cmp	r2, #63
 5278              	.LBE1334:
 5279              	.LBE1338:
 5280              	.LBE1349:
 229:../../libs/PoliTeKDSP/libs/libDaisy/src/hid/disp/display.h ****         int_fast16_t signY  = ((y1 < y2) ? 1 : -1);
 5281              		.loc 9 229 42 view .LVU1248
 5282 0330 4FF0010A 		mov	r10, #1
 5283              	.LBB1350:
 5284              	.LBB1339:
 5285              	.LBB1335:
 342:../../libs/PoliTeKDSP/libs/libDaisy/src/dev/oled_ssd130x.h ****             return;
 5286              		.loc 10 342 28 view .LVU1249
 5287 0334 94BF     		ite	ls
 5288 0336 0026     		movls	r6, #0
ARM GAS  C:\Users\matte\AppData\Local\Temp\ccrMwnXK.s 			page 149


 5289 0338 0126     		movhi	r6, #1
 342:../../libs/PoliTeKDSP/libs/libDaisy/src/dev/oled_ssd130x.h ****             return;
 5290              		.loc 10 342 14 view .LVU1250
 5291 033a 7F2B     		cmp	r3, #127
 342:../../libs/PoliTeKDSP/libs/libDaisy/src/dev/oled_ssd130x.h ****             return;
 5292              		.loc 10 342 28 view .LVU1251
 5293 033c 0296     		str	r6, [sp, #8]
 342:../../libs/PoliTeKDSP/libs/libDaisy/src/dev/oled_ssd130x.h ****             return;
 5294              		.loc 10 342 14 view .LVU1252
 5295 033e 94BF     		ite	ls
 5296 0340 0027     		movls	r7, #0
 5297 0342 0127     		movhi	r7, #1
 5298 0344 0097     		str	r7, [sp]
 342:../../libs/PoliTeKDSP/libs/libDaisy/src/dev/oled_ssd130x.h ****             return;
 5299              		.loc 10 342 9 view .LVU1253
 5300 0346 002E     		cmp	r6, #0
 5301 0348 7FF4C8AE 		bne	.L330
 5302 034c 002F     		cmp	r7, #0
 5303 034e 3FF4AEAE 		beq	.L368
 5304 0352 C3E6     		b	.L330
 5305              	.LVL419:
 5306              	.L355:
 342:../../libs/PoliTeKDSP/libs/libDaisy/src/dev/oled_ssd130x.h ****             return;
 5307              		.loc 10 342 9 view .LVU1254
 5308              	.LBE1335:
 5309              	.LBE1339:
 5310              	.LBE1350:
 5311              	.LBE1353:
 5312              	.LBE1436:
 5313              	.LBB1437:
 5314              	.LBB1414:
 5315              	.LBB1412:
 5316              	.LBB1411:
 5317              	.LBB1410:
 5318              	.LBB1408:
 5319              	.LBI1408:
 340:../../libs/PoliTeKDSP/libs/libDaisy/src/dev/oled_ssd130x.h ****     {
 5320              		.loc 10 340 10 is_stmt 1 view .LVU1255
 5321              	.LBB1409:
 347:../../libs/PoliTeKDSP/libs/libDaisy/src/dev/oled_ssd130x.h ****     }
 5322              		.loc 10 347 49 is_stmt 0 view .LVU1256
 5323 0354 08FA0BFB 		lsl	fp, r8, fp
 347:../../libs/PoliTeKDSP/libs/libDaisy/src/dev/oled_ssd130x.h ****     }
 5324              		.loc 10 347 42 view .LVU1257
 5325 0358 9CF81080 		ldrb	r8, [ip, #16]	@ zero_extendqisi2
 5326 035c 28EA0B08 		bic	r8, r8, fp
 5327 0360 8CF81080 		strb	r8, [ip, #16]
 5328 0364 8AE7     		b	.L354
 5329              	.LVL420:
 5330              	.L364:
 347:../../libs/PoliTeKDSP/libs/libDaisy/src/dev/oled_ssd130x.h ****     }
 5331              		.loc 10 347 42 view .LVU1258
 5332              	.LBE1409:
 5333              	.LBE1408:
 5334              	.LBE1410:
 5335              	.LBE1411:
 5336              	.LBE1412:
ARM GAS  C:\Users\matte\AppData\Local\Temp\ccrMwnXK.s 			page 150


 5337              	.LBE1414:
 5338              	.LBE1437:
 5339              	.LBB1438:
 5340              	.LBB1434:
 5341              	.LBB1432:
 5342              	.LBB1431:
 5343              	.LBB1430:
 5344              	.LBB1428:
 5345              	.LBI1428:
 340:../../libs/PoliTeKDSP/libs/libDaisy/src/dev/oled_ssd130x.h ****     {
 5346              		.loc 10 340 10 is_stmt 1 view .LVU1259
 5347              	.LBB1429:
 347:../../libs/PoliTeKDSP/libs/libDaisy/src/dev/oled_ssd130x.h ****     }
 5348              		.loc 10 347 49 is_stmt 0 view .LVU1260
 5349 0366 09FA0AFA 		lsl	r10, r9, r10
 347:../../libs/PoliTeKDSP/libs/libDaisy/src/dev/oled_ssd130x.h ****     }
 5350              		.loc 10 347 42 view .LVU1261
 5351 036a 97F81090 		ldrb	r9, [r7, #16]	@ zero_extendqisi2
 5352 036e 29EA0A09 		bic	r9, r9, r10
 5353 0372 87F81090 		strb	r9, [r7, #16]
 5354 0376 C9E7     		b	.L363
 5355              	.LVL421:
 5356              	.L334:
 347:../../libs/PoliTeKDSP/libs/libDaisy/src/dev/oled_ssd130x.h ****     }
 5357              		.loc 10 347 42 view .LVU1262
 5358              	.LBE1429:
 5359              	.LBE1428:
 5360              	.LBE1430:
 5361              	.LBE1431:
 5362              	.LBE1432:
 5363              	.LBE1434:
 5364              	.LBE1438:
 5365              	.LBB1439:
 5366              	.LBB1354:
 5367              	.LBB1351:
 5368              	.LBB1348:
 5369              	.LBB1347:
 5370              	.LBB1345:
 5371              	.LBI1345:
 340:../../libs/PoliTeKDSP/libs/libDaisy/src/dev/oled_ssd130x.h ****     {
 5372              		.loc 10 340 10 is_stmt 1 view .LVU1263
 5373              	.LBB1346:
 347:../../libs/PoliTeKDSP/libs/libDaisy/src/dev/oled_ssd130x.h ****     }
 5374              		.loc 10 347 49 is_stmt 0 view .LVU1264
 5375 0378 09FA0BFB 		lsl	fp, r9, fp
 347:../../libs/PoliTeKDSP/libs/libDaisy/src/dev/oled_ssd130x.h ****     }
 5376              		.loc 10 347 42 view .LVU1265
 5377 037c 97F81090 		ldrb	r9, [r7, #16]	@ zero_extendqisi2
 5378 0380 29EA0B09 		bic	r9, r9, fp
 5379 0384 87F81090 		strb	r9, [r7, #16]
 5380 0388 C5E6     		b	.L333
 5381              	.LVL422:
 5382              	.L345:
 347:../../libs/PoliTeKDSP/libs/libDaisy/src/dev/oled_ssd130x.h ****     }
 5383              		.loc 10 347 42 view .LVU1266
 5384              	.LBE1346:
 5385              	.LBE1345:
ARM GAS  C:\Users\matte\AppData\Local\Temp\ccrMwnXK.s 			page 151


 5386              	.LBE1347:
 5387              	.LBE1348:
 5388              	.LBE1351:
 5389              	.LBE1354:
 5390              	.LBE1439:
 5391              	.LBB1440:
 5392              	.LBB1390:
 5393              	.LBB1387:
 5394              	.LBB1386:
 5395              	.LBB1385:
 5396              	.LBB1383:
 5397              	.LBI1383:
 340:../../libs/PoliTeKDSP/libs/libDaisy/src/dev/oled_ssd130x.h ****     {
 5398              		.loc 10 340 10 is_stmt 1 view .LVU1267
 5399              	.LBB1384:
 347:../../libs/PoliTeKDSP/libs/libDaisy/src/dev/oled_ssd130x.h ****     }
 5400              		.loc 10 347 49 is_stmt 0 view .LVU1268
 5401 038a 0AFA0BFB 		lsl	fp, r10, fp
 347:../../libs/PoliTeKDSP/libs/libDaisy/src/dev/oled_ssd130x.h ****     }
 5402              		.loc 10 347 42 view .LVU1269
 5403 038e 9EF810A0 		ldrb	r10, [lr, #16]	@ zero_extendqisi2
 5404 0392 2AEA0B0A 		bic	r10, r10, fp
 5405 0396 8EF810A0 		strb	r10, [lr, #16]
 5406 039a 18E7     		b	.L344
 5407              	.LVL423:
 5408              	.L337:
 347:../../libs/PoliTeKDSP/libs/libDaisy/src/dev/oled_ssd130x.h ****     }
 5409              		.loc 10 347 42 view .LVU1270
 5410              	.LBE1384:
 5411              	.LBE1383:
 5412              	.LBE1385:
 5413              	.LBE1386:
 5414              	.LBE1387:
 5415              	.LBB1388:
 5416              	.LBB1374:
 5417              	.LBB1368:
 342:../../libs/PoliTeKDSP/libs/libDaisy/src/dev/oled_ssd130x.h ****             return;
 5418              		.loc 10 342 9 view .LVU1271
 5419 039c 97BB     		cbnz	r7, .L376
 5420 039e 8EBB     		cbnz	r6, .L376
 5421              	.LBE1368:
 5422              	.LBE1374:
 5423              	.LBE1388:
 230:../../libs/PoliTeKDSP/libs/libDaisy/src/hid/disp/display.h ****         int_fast16_t error  = deltaX - deltaY;
 5424              		.loc 9 230 42 view .LVU1272
 5425 03a0 0126     		movs	r6, #1
 5426 03a2 0096     		str	r6, [sp]
 5427              	.LBB1389:
 5428              	.LBB1375:
 5429              	.LBB1369:
 345:../../libs/PoliTeKDSP/libs/libDaisy/src/dev/oled_ssd130x.h ****         else
 5430              		.loc 10 345 28 view .LVU1273
 5431 03a4 E608     		lsrs	r6, r4, #3
 345:../../libs/PoliTeKDSP/libs/libDaisy/src/dev/oled_ssd130x.h ****         else
 5432              		.loc 10 345 42 view .LVU1274
 5433 03a6 03EBC616 		add	r6, r3, r6, lsl #7
 5434 03aa 0644     		add	r6, r6, r0
ARM GAS  C:\Users\matte\AppData\Local\Temp\ccrMwnXK.s 			page 152


 344:../../libs/PoliTeKDSP/libs/libDaisy/src/dev/oled_ssd130x.h ****             buffer_[x + (y / 8) * width] |= (1 << (y % 8));
 5435              		.loc 10 344 9 view .LVU1275
 5436 03ac 002D     		cmp	r5, #0
 5437 03ae 7FF4E2AE 		bne	.L411
 5438              	.LVL424:
 5439              	.L339:
 5440              	.LBB1362:
 5441              	.LBI1362:
 340:../../libs/PoliTeKDSP/libs/libDaisy/src/dev/oled_ssd130x.h ****     {
 5442              		.loc 10 340 10 is_stmt 1 view .LVU1276
 5443              	.LBB1363:
 347:../../libs/PoliTeKDSP/libs/libDaisy/src/dev/oled_ssd130x.h ****     }
 5444              		.loc 10 347 49 is_stmt 0 view .LVU1277
 5445 03b2 0127     		movs	r7, #1
 347:../../libs/PoliTeKDSP/libs/libDaisy/src/dev/oled_ssd130x.h ****     }
 5446              		.loc 10 347 55 view .LVU1278
 5447 03b4 04F0070C 		and	ip, r4, #7
 347:../../libs/PoliTeKDSP/libs/libDaisy/src/dev/oled_ssd130x.h ****     }
 5448              		.loc 10 347 42 view .LVU1279
 5449 03b8 0395     		str	r5, [sp, #12]
 347:../../libs/PoliTeKDSP/libs/libDaisy/src/dev/oled_ssd130x.h ****     }
 5450              		.loc 10 347 49 view .LVU1280
 5451 03ba 07FA0CFC 		lsl	ip, r7, ip
 347:../../libs/PoliTeKDSP/libs/libDaisy/src/dev/oled_ssd130x.h ****     }
 5452              		.loc 10 347 42 view .LVU1281
 5453 03be 377C     		ldrb	r7, [r6, #16]	@ zero_extendqisi2
 5454 03c0 27EA0C07 		bic	r7, r7, ip
 5455 03c4 3774     		strb	r7, [r6, #16]
 5456 03c6 E3E6     		b	.L338
 5457              	.LVL425:
 5458              	.L360:
 347:../../libs/PoliTeKDSP/libs/libDaisy/src/dev/oled_ssd130x.h ****     }
 5459              		.loc 10 347 42 view .LVU1282
 5460              	.LBE1363:
 5461              	.LBE1362:
 5462              	.LBE1369:
 5463              	.LBE1375:
 5464              	.LBE1389:
 5465              	.LBE1390:
 5466              	.LBE1440:
 5467              	.LBB1441:
 5468              	.LBB1435:
 5469              	.LBB1433:
 5470              	.LBB1424:
 5471              	.LBB1423:
 5472              	.LBB1421:
 5473              	.LBI1421:
 340:../../libs/PoliTeKDSP/libs/libDaisy/src/dev/oled_ssd130x.h ****     {
 5474              		.loc 10 340 10 is_stmt 1 view .LVU1283
 5475              	.LBB1422:
 347:../../libs/PoliTeKDSP/libs/libDaisy/src/dev/oled_ssd130x.h ****     }
 5476              		.loc 10 347 49 is_stmt 0 view .LVU1284
 5477 03c8 06FA07F7 		lsl	r7, r6, r7
 347:../../libs/PoliTeKDSP/libs/libDaisy/src/dev/oled_ssd130x.h ****     }
 5478              		.loc 10 347 42 view .LVU1285
 5479 03cc 1E7C     		ldrb	r6, [r3, #16]	@ zero_extendqisi2
 5480 03ce 26EA0706 		bic	r6, r6, r7
ARM GAS  C:\Users\matte\AppData\Local\Temp\ccrMwnXK.s 			page 153


 5481 03d2 1E74     		strb	r6, [r3, #16]
 5482 03d4 7FE7     		b	.L359
 5483              	.LVL426:
 5484              	.L350:
 347:../../libs/PoliTeKDSP/libs/libDaisy/src/dev/oled_ssd130x.h ****     }
 5485              		.loc 10 347 42 view .LVU1286
 5486              	.LBE1422:
 5487              	.LBE1421:
 5488              	.LBE1423:
 5489              	.LBE1424:
 5490              	.LBE1433:
 5491              	.LBE1435:
 5492              	.LBE1441:
 5493              	.LBB1442:
 5494              	.LBB1415:
 5495              	.LBB1413:
 5496              	.LBB1403:
 5497              	.LBB1401:
 5498              	.LBB1398:
 5499              	.LBI1398:
 340:../../libs/PoliTeKDSP/libs/libDaisy/src/dev/oled_ssd130x.h ****     {
 5500              		.loc 10 340 10 is_stmt 1 view .LVU1287
 5501              	.LBB1399:
 347:../../libs/PoliTeKDSP/libs/libDaisy/src/dev/oled_ssd130x.h ****     }
 5502              		.loc 10 347 49 is_stmt 0 view .LVU1288
 5503 03d6 0127     		movs	r7, #1
 347:../../libs/PoliTeKDSP/libs/libDaisy/src/dev/oled_ssd130x.h ****     }
 5504              		.loc 10 347 55 view .LVU1289
 5505 03d8 04F0070C 		and	ip, r4, #7
 347:../../libs/PoliTeKDSP/libs/libDaisy/src/dev/oled_ssd130x.h ****     }
 5506              		.loc 10 347 49 view .LVU1290
 5507 03dc 07FA0CFC 		lsl	ip, r7, ip
 347:../../libs/PoliTeKDSP/libs/libDaisy/src/dev/oled_ssd130x.h ****     }
 5508              		.loc 10 347 42 view .LVU1291
 5509 03e0 377C     		ldrb	r7, [r6, #16]	@ zero_extendqisi2
 5510 03e2 27EA0C07 		bic	r7, r7, ip
 5511 03e6 3774     		strb	r7, [r6, #16]
 5512 03e8 2DE7     		b	.L349
 5513              	.LVL427:
 5514              	.L328:
 347:../../libs/PoliTeKDSP/libs/libDaisy/src/dev/oled_ssd130x.h ****     }
 5515              		.loc 10 347 42 view .LVU1292
 5516              	.LBE1399:
 5517              	.LBE1398:
 5518              	.LBE1401:
 5519              	.LBE1403:
 5520              	.LBE1413:
 5521              	.LBE1415:
 5522              	.LBE1442:
 5523              	.LBB1443:
 5524              	.LBB1355:
 5525              	.LBB1352:
 5526              	.LBB1340:
 5527              	.LBB1336:
 5528              	.LBB1331:
 5529              	.LBI1331:
 340:../../libs/PoliTeKDSP/libs/libDaisy/src/dev/oled_ssd130x.h ****     {
ARM GAS  C:\Users\matte\AppData\Local\Temp\ccrMwnXK.s 			page 154


 5530              		.loc 10 340 10 is_stmt 1 view .LVU1293
 5531              	.LBB1332:
 347:../../libs/PoliTeKDSP/libs/libDaisy/src/dev/oled_ssd130x.h ****     }
 5532              		.loc 10 347 49 is_stmt 0 view .LVU1294
 5533 03ea 07FA0CFC 		lsl	ip, r7, ip
 347:../../libs/PoliTeKDSP/libs/libDaisy/src/dev/oled_ssd130x.h ****     }
 5534              		.loc 10 347 42 view .LVU1295
 5535 03ee 377C     		ldrb	r7, [r6, #16]	@ zero_extendqisi2
 5536 03f0 0295     		str	r5, [sp, #8]
 5537 03f2 27EA0C07 		bic	r7, r7, ip
 5538 03f6 0095     		str	r5, [sp]
 5539 03f8 3774     		strb	r7, [r6, #16]
 5540 03fa 6CE6     		b	.L327
 5541              	.LVL428:
 5542              	.L372:
 347:../../libs/PoliTeKDSP/libs/libDaisy/src/dev/oled_ssd130x.h ****     }
 5543              		.loc 10 347 42 view .LVU1296
 5544              	.LBE1332:
 5545              	.LBE1331:
 5546              	.LBE1336:
 5547              	.LBE1340:
 5548              	.LBE1352:
 5549              	.LBE1355:
 5550              	.LBE1443:
 5551              	.LBB1444:
 5552              	.LBB1391:
 230:../../libs/PoliTeKDSP/libs/libDaisy/src/hid/disp/display.h ****         int_fast16_t error  = deltaX - deltaY;
 5553              		.loc 9 230 42 view .LVU1297
 5554 03fc 4FF0FF36 		mov	r6, #-1
 5555 0400 0096     		str	r6, [sp]
 5556 0402 C5E6     		b	.L338
 5557              	.LVL429:
 5558              	.L376:
 230:../../libs/PoliTeKDSP/libs/libDaisy/src/hid/disp/display.h ****         int_fast16_t error  = deltaX - deltaY;
 5559              		.loc 9 230 42 view .LVU1298
 5560 0404 0126     		movs	r6, #1
 5561 0406 0096     		str	r6, [sp]
 5562 0408 C5E6     		b	.L341
 5563              	.LVL430:
 5564              	.L409:
 230:../../libs/PoliTeKDSP/libs/libDaisy/src/hid/disp/display.h ****         int_fast16_t error  = deltaX - deltaY;
 5565              		.loc 9 230 42 view .LVU1299
 5566              	.LBE1391:
 5567              	.LBE1444:
 5568              	.LBB1445:
 5569              	.LBB1356:
 239:../../libs/PoliTeKDSP/libs/libDaisy/src/hid/disp/display.h ****         {
 5570              		.loc 9 239 19 view .LVU1300
 5571 040a 0126     		movs	r6, #1
 5572 040c 0496     		str	r6, [sp, #16]
 5573 040e 90E6     		b	.L329
 5574              	.LVL431:
 5575              	.L410:
 239:../../libs/PoliTeKDSP/libs/libDaisy/src/hid/disp/display.h ****         {
 5576              		.loc 9 239 19 view .LVU1301
 5577              	.LBE1356:
 5578              	.LBE1445:
ARM GAS  C:\Users\matte\AppData\Local\Temp\ccrMwnXK.s 			page 155


 5579              	.LBB1446:
 5580              	.LBB1392:
 239:../../libs/PoliTeKDSP/libs/libDaisy/src/hid/disp/display.h ****         {
 5581              		.loc 9 239 33 view .LVU1302
 5582 0410 0126     		movs	r6, #1
 5583 0412 0196     		str	r6, [sp, #4]
 5584 0414 EDE6     		b	.L340
 5585              	.LBE1392:
 5586              	.LBE1446:
 5587              	.LBE1470:
 5588              		.cfi_endproc
 5589              	.LFE5451:
 5591 0416 00BF     		.section	.text._ZN5daisy13SSD130xDriverILj128ELj64ENS_19SSD130xI2CTransportEE4InitENS2_6ConfigE,"a
 5592              		.align	1
 5593              		.p2align 2,,3
 5594              		.weak	_ZN5daisy13SSD130xDriverILj128ELj64ENS_19SSD130xI2CTransportEE4InitENS2_6ConfigE
 5595              		.syntax unified
 5596              		.thumb
 5597              		.thumb_func
 5598              		.fpu fpv5-d16
 5600              	_ZN5daisy13SSD130xDriverILj128ELj64ENS_19SSD130xI2CTransportEE4InitENS2_6ConfigE:
 5601              	.LVL432:
 5602              	.LFB5301:
 241:../../libs/PoliTeKDSP/libs/libDaisy/src/dev/oled_ssd130x.h ****     {
 5603              		.loc 10 241 10 is_stmt 1 view -0
 5604              		.cfi_startproc
 5605              		@ args = 28, pretend = 16, frame = 8
 5606              		@ frame_needed = 0, uses_anonymous_args = 0
 241:../../libs/PoliTeKDSP/libs/libDaisy/src/dev/oled_ssd130x.h ****     {
 5607              		.loc 10 241 10 is_stmt 0 view .LVU1304
 5608 0000 84B0     		sub	sp, sp, #16
 5609              		.cfi_def_cfa_offset 16
 5610 0002 70B5     		push	{r4, r5, r6, lr}
 5611              		.cfi_def_cfa_offset 32
 5612              		.cfi_offset 4, -32
 5613              		.cfi_offset 5, -28
 5614              		.cfi_offset 6, -24
 5615              		.cfi_offset 14, -20
 5616 0004 84B0     		sub	sp, sp, #16
 5617              		.cfi_def_cfa_offset 48
 241:../../libs/PoliTeKDSP/libs/libDaisy/src/dev/oled_ssd130x.h ****     {
 5618              		.loc 10 241 10 view .LVU1305
 5619 0006 0446     		mov	r4, r0
 5620              	.LVL433:
 5621              	.LBB1519:
 5622              	.LBI1519:
  37:../../libs/PoliTeKDSP/libs/libDaisy/src/dev/oled_ssd130x.h ****     {
 5623              		.loc 10 37 10 is_stmt 1 view .LVU1306
 5624              	.LBB1520:
  39:../../libs/PoliTeKDSP/libs/libDaisy/src/dev/oled_ssd130x.h ****         i2c_.Init(config.i2c_config);
 5625              		.loc 10 39 9 view .LVU1307
 5626              	.LBE1520:
 5627              	.LBE1519:
 5628              	.LBB1523:
 5629              	.LBB1524:
  45:../../libs/PoliTeKDSP/libs/libDaisy/src/dev/oled_ssd130x.h ****     };
 5630              		.loc 10 45 30 is_stmt 0 view .LVU1308
ARM GAS  C:\Users\matte\AppData\Local\Temp\ccrMwnXK.s 			page 156


 5631 0008 4FF47A76 		mov	r6, #1000
 5632              	.LBE1524:
 5633              	.LBE1523:
 241:../../libs/PoliTeKDSP/libs/libDaisy/src/dev/oled_ssd130x.h ****     {
 5634              		.loc 10 241 10 view .LVU1309
 5635 000c 09AD     		add	r5, sp, #36
 5636 000e 85E80E00 		stm	r5, {r1, r2, r3}
 5637              	.LBB1527:
 5638              	.LBB1521:
  39:../../libs/PoliTeKDSP/libs/libDaisy/src/dev/oled_ssd130x.h ****         i2c_.Init(config.i2c_config);
 5639              		.loc 10 39 22 view .LVU1310
 5640 0012 9DF83830 		ldrb	r3, [sp, #56]	@ zero_extendqisi2
  40:../../libs/PoliTeKDSP/libs/libDaisy/src/dev/oled_ssd130x.h ****     };
 5641              		.loc 10 40 18 view .LVU1311
 5642 0016 2946     		mov	r1, r5
 5643              	.LBE1521:
 5644              	.LBE1527:
 5645              	.LBB1528:
 5646              	.LBB1525:
  44:../../libs/PoliTeKDSP/libs/libDaisy/src/dev/oled_ssd130x.h ****         i2c_.TransmitBlocking(i2c_address_, buf, 2, 1000);
 5647              		.loc 10 44 17 view .LVU1312
 5648 0018 0025     		movs	r5, #0
 5649              	.LBE1525:
 5650              	.LBE1528:
 5651              	.LBB1529:
 5652              	.LBB1522:
  39:../../libs/PoliTeKDSP/libs/libDaisy/src/dev/oled_ssd130x.h ****         i2c_.Init(config.i2c_config);
 5653              		.loc 10 39 22 view .LVU1313
 5654 001a 0371     		strb	r3, [r0, #4]
  40:../../libs/PoliTeKDSP/libs/libDaisy/src/dev/oled_ssd130x.h ****     };
 5655              		.loc 10 40 9 is_stmt 1 view .LVU1314
  40:../../libs/PoliTeKDSP/libs/libDaisy/src/dev/oled_ssd130x.h ****     };
 5656              		.loc 10 40 18 is_stmt 0 view .LVU1315
 5657 001c FFF7FEFF 		bl	_ZN5daisy9I2CHandle4InitERKNS0_6ConfigE
 5658              	.LVL434:
  40:../../libs/PoliTeKDSP/libs/libDaisy/src/dev/oled_ssd130x.h ****     };
 5659              		.loc 10 40 18 view .LVU1316
 5660              	.LBE1522:
 5661              	.LBE1529:
 5662              	.LBB1530:
 5663              	.LBI1523:
  42:../../libs/PoliTeKDSP/libs/libDaisy/src/dev/oled_ssd130x.h ****     {
 5664              		.loc 10 42 10 is_stmt 1 view .LVU1317
 5665              	.LBB1526:
  44:../../libs/PoliTeKDSP/libs/libDaisy/src/dev/oled_ssd130x.h ****         i2c_.TransmitBlocking(i2c_address_, buf, 2, 1000);
 5666              		.loc 10 44 9 view .LVU1318
  44:../../libs/PoliTeKDSP/libs/libDaisy/src/dev/oled_ssd130x.h ****         i2c_.TransmitBlocking(i2c_address_, buf, 2, 1000);
 5667              		.loc 10 44 36 is_stmt 0 view .LVU1319
 5668 0020 AE23     		movs	r3, #174
  45:../../libs/PoliTeKDSP/libs/libDaisy/src/dev/oled_ssd130x.h ****     };
 5669              		.loc 10 45 30 view .LVU1320
 5670 0022 03AA     		add	r2, sp, #12
 5671 0024 0096     		str	r6, [sp]
  44:../../libs/PoliTeKDSP/libs/libDaisy/src/dev/oled_ssd130x.h ****         i2c_.TransmitBlocking(i2c_address_, buf, 2, 1000);
 5672              		.loc 10 44 36 view .LVU1321
 5673 0026 8DF80D30 		strb	r3, [sp, #13]
  45:../../libs/PoliTeKDSP/libs/libDaisy/src/dev/oled_ssd130x.h ****     };
ARM GAS  C:\Users\matte\AppData\Local\Temp\ccrMwnXK.s 			page 157


 5674              		.loc 10 45 9 is_stmt 1 view .LVU1322
  45:../../libs/PoliTeKDSP/libs/libDaisy/src/dev/oled_ssd130x.h ****     };
 5675              		.loc 10 45 30 is_stmt 0 view .LVU1323
 5676 002a 2046     		mov	r0, r4
 5677 002c 2179     		ldrb	r1, [r4, #4]	@ zero_extendqisi2
 5678 002e 0223     		movs	r3, #2
  44:../../libs/PoliTeKDSP/libs/libDaisy/src/dev/oled_ssd130x.h ****         i2c_.TransmitBlocking(i2c_address_, buf, 2, 1000);
 5679              		.loc 10 44 17 view .LVU1324
 5680 0030 8DF80C50 		strb	r5, [sp, #12]
  45:../../libs/PoliTeKDSP/libs/libDaisy/src/dev/oled_ssd130x.h ****     };
 5681              		.loc 10 45 30 view .LVU1325
 5682 0034 FFF7FEFF 		bl	_ZN5daisy9I2CHandle16TransmitBlockingEtPhtm
 5683              	.LVL435:
  45:../../libs/PoliTeKDSP/libs/libDaisy/src/dev/oled_ssd130x.h ****     };
 5684              		.loc 10 45 30 view .LVU1326
 5685              	.LBE1526:
 5686              	.LBE1530:
 5687              	.LBB1531:
 5688              	.LBI1531:
  42:../../libs/PoliTeKDSP/libs/libDaisy/src/dev/oled_ssd130x.h ****     {
 5689              		.loc 10 42 10 is_stmt 1 view .LVU1327
 5690              	.LBB1532:
  44:../../libs/PoliTeKDSP/libs/libDaisy/src/dev/oled_ssd130x.h ****         i2c_.TransmitBlocking(i2c_address_, buf, 2, 1000);
 5691              		.loc 10 44 9 view .LVU1328
  44:../../libs/PoliTeKDSP/libs/libDaisy/src/dev/oled_ssd130x.h ****         i2c_.TransmitBlocking(i2c_address_, buf, 2, 1000);
 5692              		.loc 10 44 36 is_stmt 0 view .LVU1329
 5693 0038 D523     		movs	r3, #213
  45:../../libs/PoliTeKDSP/libs/libDaisy/src/dev/oled_ssd130x.h ****     };
 5694              		.loc 10 45 30 view .LVU1330
 5695 003a 03AA     		add	r2, sp, #12
 5696 003c 0096     		str	r6, [sp]
 5697 003e 2046     		mov	r0, r4
 5698 0040 2179     		ldrb	r1, [r4, #4]	@ zero_extendqisi2
  44:../../libs/PoliTeKDSP/libs/libDaisy/src/dev/oled_ssd130x.h ****         i2c_.TransmitBlocking(i2c_address_, buf, 2, 1000);
 5699              		.loc 10 44 36 view .LVU1331
 5700 0042 8DF80D30 		strb	r3, [sp, #13]
  45:../../libs/PoliTeKDSP/libs/libDaisy/src/dev/oled_ssd130x.h ****     };
 5701              		.loc 10 45 9 is_stmt 1 view .LVU1332
  45:../../libs/PoliTeKDSP/libs/libDaisy/src/dev/oled_ssd130x.h ****     };
 5702              		.loc 10 45 30 is_stmt 0 view .LVU1333
 5703 0046 0223     		movs	r3, #2
  44:../../libs/PoliTeKDSP/libs/libDaisy/src/dev/oled_ssd130x.h ****         i2c_.TransmitBlocking(i2c_address_, buf, 2, 1000);
 5704              		.loc 10 44 17 view .LVU1334
 5705 0048 8DF80C50 		strb	r5, [sp, #12]
  45:../../libs/PoliTeKDSP/libs/libDaisy/src/dev/oled_ssd130x.h ****     };
 5706              		.loc 10 45 30 view .LVU1335
 5707 004c FFF7FEFF 		bl	_ZN5daisy9I2CHandle16TransmitBlockingEtPhtm
 5708              	.LVL436:
  45:../../libs/PoliTeKDSP/libs/libDaisy/src/dev/oled_ssd130x.h ****     };
 5709              		.loc 10 45 30 view .LVU1336
 5710              	.LBE1532:
 5711              	.LBE1531:
 5712              	.LBB1533:
 5713              	.LBI1533:
  42:../../libs/PoliTeKDSP/libs/libDaisy/src/dev/oled_ssd130x.h ****     {
 5714              		.loc 10 42 10 is_stmt 1 view .LVU1337
 5715              	.LBB1534:
ARM GAS  C:\Users\matte\AppData\Local\Temp\ccrMwnXK.s 			page 158


  44:../../libs/PoliTeKDSP/libs/libDaisy/src/dev/oled_ssd130x.h ****         i2c_.TransmitBlocking(i2c_address_, buf, 2, 1000);
 5716              		.loc 10 44 9 view .LVU1338
  44:../../libs/PoliTeKDSP/libs/libDaisy/src/dev/oled_ssd130x.h ****         i2c_.TransmitBlocking(i2c_address_, buf, 2, 1000);
 5717              		.loc 10 44 36 is_stmt 0 view .LVU1339
 5718 0050 8023     		movs	r3, #128
  45:../../libs/PoliTeKDSP/libs/libDaisy/src/dev/oled_ssd130x.h ****     };
 5719              		.loc 10 45 30 view .LVU1340
 5720 0052 03AA     		add	r2, sp, #12
 5721 0054 0096     		str	r6, [sp]
 5722 0056 2046     		mov	r0, r4
 5723 0058 2179     		ldrb	r1, [r4, #4]	@ zero_extendqisi2
  44:../../libs/PoliTeKDSP/libs/libDaisy/src/dev/oled_ssd130x.h ****         i2c_.TransmitBlocking(i2c_address_, buf, 2, 1000);
 5724              		.loc 10 44 36 view .LVU1341
 5725 005a 8DF80D30 		strb	r3, [sp, #13]
  45:../../libs/PoliTeKDSP/libs/libDaisy/src/dev/oled_ssd130x.h ****     };
 5726              		.loc 10 45 9 is_stmt 1 view .LVU1342
  45:../../libs/PoliTeKDSP/libs/libDaisy/src/dev/oled_ssd130x.h ****     };
 5727              		.loc 10 45 30 is_stmt 0 view .LVU1343
 5728 005e 0223     		movs	r3, #2
  44:../../libs/PoliTeKDSP/libs/libDaisy/src/dev/oled_ssd130x.h ****         i2c_.TransmitBlocking(i2c_address_, buf, 2, 1000);
 5729              		.loc 10 44 17 view .LVU1344
 5730 0060 8DF80C50 		strb	r5, [sp, #12]
  45:../../libs/PoliTeKDSP/libs/libDaisy/src/dev/oled_ssd130x.h ****     };
 5731              		.loc 10 45 30 view .LVU1345
 5732 0064 FFF7FEFF 		bl	_ZN5daisy9I2CHandle16TransmitBlockingEtPhtm
 5733              	.LVL437:
  45:../../libs/PoliTeKDSP/libs/libDaisy/src/dev/oled_ssd130x.h ****     };
 5734              		.loc 10 45 30 view .LVU1346
 5735              	.LBE1534:
 5736              	.LBE1533:
 5737              	.LBB1535:
 5738              	.LBI1535:
  42:../../libs/PoliTeKDSP/libs/libDaisy/src/dev/oled_ssd130x.h ****     {
 5739              		.loc 10 42 10 is_stmt 1 view .LVU1347
 5740              	.LBB1536:
  44:../../libs/PoliTeKDSP/libs/libDaisy/src/dev/oled_ssd130x.h ****         i2c_.TransmitBlocking(i2c_address_, buf, 2, 1000);
 5741              		.loc 10 44 9 view .LVU1348
  44:../../libs/PoliTeKDSP/libs/libDaisy/src/dev/oled_ssd130x.h ****         i2c_.TransmitBlocking(i2c_address_, buf, 2, 1000);
 5742              		.loc 10 44 36 is_stmt 0 view .LVU1349
 5743 0068 A823     		movs	r3, #168
  45:../../libs/PoliTeKDSP/libs/libDaisy/src/dev/oled_ssd130x.h ****     };
 5744              		.loc 10 45 30 view .LVU1350
 5745 006a 03AA     		add	r2, sp, #12
 5746 006c 0096     		str	r6, [sp]
 5747 006e 2046     		mov	r0, r4
 5748 0070 2179     		ldrb	r1, [r4, #4]	@ zero_extendqisi2
  44:../../libs/PoliTeKDSP/libs/libDaisy/src/dev/oled_ssd130x.h ****         i2c_.TransmitBlocking(i2c_address_, buf, 2, 1000);
 5749              		.loc 10 44 36 view .LVU1351
 5750 0072 8DF80D30 		strb	r3, [sp, #13]
  45:../../libs/PoliTeKDSP/libs/libDaisy/src/dev/oled_ssd130x.h ****     };
 5751              		.loc 10 45 9 is_stmt 1 view .LVU1352
  45:../../libs/PoliTeKDSP/libs/libDaisy/src/dev/oled_ssd130x.h ****     };
 5752              		.loc 10 45 30 is_stmt 0 view .LVU1353
 5753 0076 0223     		movs	r3, #2
  44:../../libs/PoliTeKDSP/libs/libDaisy/src/dev/oled_ssd130x.h ****         i2c_.TransmitBlocking(i2c_address_, buf, 2, 1000);
 5754              		.loc 10 44 17 view .LVU1354
 5755 0078 8DF80C50 		strb	r5, [sp, #12]
ARM GAS  C:\Users\matte\AppData\Local\Temp\ccrMwnXK.s 			page 159


  45:../../libs/PoliTeKDSP/libs/libDaisy/src/dev/oled_ssd130x.h ****     };
 5756              		.loc 10 45 30 view .LVU1355
 5757 007c FFF7FEFF 		bl	_ZN5daisy9I2CHandle16TransmitBlockingEtPhtm
 5758              	.LVL438:
  45:../../libs/PoliTeKDSP/libs/libDaisy/src/dev/oled_ssd130x.h ****     };
 5759              		.loc 10 45 30 view .LVU1356
 5760              	.LBE1536:
 5761              	.LBE1535:
 5762              	.LBB1537:
 5763              	.LBI1537:
  42:../../libs/PoliTeKDSP/libs/libDaisy/src/dev/oled_ssd130x.h ****     {
 5764              		.loc 10 42 10 is_stmt 1 view .LVU1357
 5765              	.LBB1538:
  44:../../libs/PoliTeKDSP/libs/libDaisy/src/dev/oled_ssd130x.h ****         i2c_.TransmitBlocking(i2c_address_, buf, 2, 1000);
 5766              		.loc 10 44 9 view .LVU1358
  44:../../libs/PoliTeKDSP/libs/libDaisy/src/dev/oled_ssd130x.h ****         i2c_.TransmitBlocking(i2c_address_, buf, 2, 1000);
 5767              		.loc 10 44 36 is_stmt 0 view .LVU1359
 5768 0080 3F23     		movs	r3, #63
  45:../../libs/PoliTeKDSP/libs/libDaisy/src/dev/oled_ssd130x.h ****     };
 5769              		.loc 10 45 30 view .LVU1360
 5770 0082 03AA     		add	r2, sp, #12
 5771 0084 0096     		str	r6, [sp]
 5772 0086 2046     		mov	r0, r4
 5773 0088 2179     		ldrb	r1, [r4, #4]	@ zero_extendqisi2
  44:../../libs/PoliTeKDSP/libs/libDaisy/src/dev/oled_ssd130x.h ****         i2c_.TransmitBlocking(i2c_address_, buf, 2, 1000);
 5774              		.loc 10 44 36 view .LVU1361
 5775 008a 8DF80D30 		strb	r3, [sp, #13]
  45:../../libs/PoliTeKDSP/libs/libDaisy/src/dev/oled_ssd130x.h ****     };
 5776              		.loc 10 45 9 is_stmt 1 view .LVU1362
  45:../../libs/PoliTeKDSP/libs/libDaisy/src/dev/oled_ssd130x.h ****     };
 5777              		.loc 10 45 30 is_stmt 0 view .LVU1363
 5778 008e 0223     		movs	r3, #2
  44:../../libs/PoliTeKDSP/libs/libDaisy/src/dev/oled_ssd130x.h ****         i2c_.TransmitBlocking(i2c_address_, buf, 2, 1000);
 5779              		.loc 10 44 17 view .LVU1364
 5780 0090 8DF80C50 		strb	r5, [sp, #12]
  45:../../libs/PoliTeKDSP/libs/libDaisy/src/dev/oled_ssd130x.h ****     };
 5781              		.loc 10 45 30 view .LVU1365
 5782 0094 FFF7FEFF 		bl	_ZN5daisy9I2CHandle16TransmitBlockingEtPhtm
 5783              	.LVL439:
  45:../../libs/PoliTeKDSP/libs/libDaisy/src/dev/oled_ssd130x.h ****     };
 5784              		.loc 10 45 30 view .LVU1366
 5785              	.LBE1538:
 5786              	.LBE1537:
 5787              	.LBB1539:
 5788              	.LBI1539:
  42:../../libs/PoliTeKDSP/libs/libDaisy/src/dev/oled_ssd130x.h ****     {
 5789              		.loc 10 42 10 is_stmt 1 view .LVU1367
 5790              	.LBB1540:
  44:../../libs/PoliTeKDSP/libs/libDaisy/src/dev/oled_ssd130x.h ****         i2c_.TransmitBlocking(i2c_address_, buf, 2, 1000);
 5791              		.loc 10 44 9 view .LVU1368
  44:../../libs/PoliTeKDSP/libs/libDaisy/src/dev/oled_ssd130x.h ****         i2c_.TransmitBlocking(i2c_address_, buf, 2, 1000);
 5792              		.loc 10 44 36 is_stmt 0 view .LVU1369
 5793 0098 DA23     		movs	r3, #218
  45:../../libs/PoliTeKDSP/libs/libDaisy/src/dev/oled_ssd130x.h ****     };
 5794              		.loc 10 45 30 view .LVU1370
 5795 009a 03AA     		add	r2, sp, #12
 5796 009c 0096     		str	r6, [sp]
ARM GAS  C:\Users\matte\AppData\Local\Temp\ccrMwnXK.s 			page 160


 5797 009e 2046     		mov	r0, r4
 5798 00a0 2179     		ldrb	r1, [r4, #4]	@ zero_extendqisi2
  44:../../libs/PoliTeKDSP/libs/libDaisy/src/dev/oled_ssd130x.h ****         i2c_.TransmitBlocking(i2c_address_, buf, 2, 1000);
 5799              		.loc 10 44 36 view .LVU1371
 5800 00a2 8DF80D30 		strb	r3, [sp, #13]
  45:../../libs/PoliTeKDSP/libs/libDaisy/src/dev/oled_ssd130x.h ****     };
 5801              		.loc 10 45 9 is_stmt 1 view .LVU1372
  45:../../libs/PoliTeKDSP/libs/libDaisy/src/dev/oled_ssd130x.h ****     };
 5802              		.loc 10 45 30 is_stmt 0 view .LVU1373
 5803 00a6 0223     		movs	r3, #2
  44:../../libs/PoliTeKDSP/libs/libDaisy/src/dev/oled_ssd130x.h ****         i2c_.TransmitBlocking(i2c_address_, buf, 2, 1000);
 5804              		.loc 10 44 17 view .LVU1374
 5805 00a8 8DF80C50 		strb	r5, [sp, #12]
  45:../../libs/PoliTeKDSP/libs/libDaisy/src/dev/oled_ssd130x.h ****     };
 5806              		.loc 10 45 30 view .LVU1375
 5807 00ac FFF7FEFF 		bl	_ZN5daisy9I2CHandle16TransmitBlockingEtPhtm
 5808              	.LVL440:
  45:../../libs/PoliTeKDSP/libs/libDaisy/src/dev/oled_ssd130x.h ****     };
 5809              		.loc 10 45 30 view .LVU1376
 5810              	.LBE1540:
 5811              	.LBE1539:
 5812              	.LBB1541:
 5813              	.LBI1541:
  42:../../libs/PoliTeKDSP/libs/libDaisy/src/dev/oled_ssd130x.h ****     {
 5814              		.loc 10 42 10 is_stmt 1 view .LVU1377
 5815              	.LBB1542:
  44:../../libs/PoliTeKDSP/libs/libDaisy/src/dev/oled_ssd130x.h ****         i2c_.TransmitBlocking(i2c_address_, buf, 2, 1000);
 5816              		.loc 10 44 9 view .LVU1378
  44:../../libs/PoliTeKDSP/libs/libDaisy/src/dev/oled_ssd130x.h ****         i2c_.TransmitBlocking(i2c_address_, buf, 2, 1000);
 5817              		.loc 10 44 36 is_stmt 0 view .LVU1379
 5818 00b0 1223     		movs	r3, #18
  45:../../libs/PoliTeKDSP/libs/libDaisy/src/dev/oled_ssd130x.h ****     };
 5819              		.loc 10 45 30 view .LVU1380
 5820 00b2 03AA     		add	r2, sp, #12
 5821 00b4 0096     		str	r6, [sp]
 5822 00b6 2046     		mov	r0, r4
 5823 00b8 2179     		ldrb	r1, [r4, #4]	@ zero_extendqisi2
  44:../../libs/PoliTeKDSP/libs/libDaisy/src/dev/oled_ssd130x.h ****         i2c_.TransmitBlocking(i2c_address_, buf, 2, 1000);
 5824              		.loc 10 44 36 view .LVU1381
 5825 00ba 8DF80D30 		strb	r3, [sp, #13]
  45:../../libs/PoliTeKDSP/libs/libDaisy/src/dev/oled_ssd130x.h ****     };
 5826              		.loc 10 45 9 is_stmt 1 view .LVU1382
  45:../../libs/PoliTeKDSP/libs/libDaisy/src/dev/oled_ssd130x.h ****     };
 5827              		.loc 10 45 30 is_stmt 0 view .LVU1383
 5828 00be 0223     		movs	r3, #2
  44:../../libs/PoliTeKDSP/libs/libDaisy/src/dev/oled_ssd130x.h ****         i2c_.TransmitBlocking(i2c_address_, buf, 2, 1000);
 5829              		.loc 10 44 17 view .LVU1384
 5830 00c0 8DF80C50 		strb	r5, [sp, #12]
  45:../../libs/PoliTeKDSP/libs/libDaisy/src/dev/oled_ssd130x.h ****     };
 5831              		.loc 10 45 30 view .LVU1385
 5832 00c4 FFF7FEFF 		bl	_ZN5daisy9I2CHandle16TransmitBlockingEtPhtm
 5833              	.LVL441:
  45:../../libs/PoliTeKDSP/libs/libDaisy/src/dev/oled_ssd130x.h ****     };
 5834              		.loc 10 45 30 view .LVU1386
 5835              	.LBE1542:
 5836              	.LBE1541:
 5837              	.LBB1543:
ARM GAS  C:\Users\matte\AppData\Local\Temp\ccrMwnXK.s 			page 161


 5838              	.LBI1543:
  42:../../libs/PoliTeKDSP/libs/libDaisy/src/dev/oled_ssd130x.h ****     {
 5839              		.loc 10 42 10 is_stmt 1 view .LVU1387
 5840              	.LBB1544:
  44:../../libs/PoliTeKDSP/libs/libDaisy/src/dev/oled_ssd130x.h ****         i2c_.TransmitBlocking(i2c_address_, buf, 2, 1000);
 5841              		.loc 10 44 9 view .LVU1388
  44:../../libs/PoliTeKDSP/libs/libDaisy/src/dev/oled_ssd130x.h ****         i2c_.TransmitBlocking(i2c_address_, buf, 2, 1000);
 5842              		.loc 10 44 36 is_stmt 0 view .LVU1389
 5843 00c8 D323     		movs	r3, #211
  45:../../libs/PoliTeKDSP/libs/libDaisy/src/dev/oled_ssd130x.h ****     };
 5844              		.loc 10 45 30 view .LVU1390
 5845 00ca 03AA     		add	r2, sp, #12
 5846 00cc 0096     		str	r6, [sp]
 5847 00ce 2046     		mov	r0, r4
 5848 00d0 2179     		ldrb	r1, [r4, #4]	@ zero_extendqisi2
  44:../../libs/PoliTeKDSP/libs/libDaisy/src/dev/oled_ssd130x.h ****         i2c_.TransmitBlocking(i2c_address_, buf, 2, 1000);
 5849              		.loc 10 44 36 view .LVU1391
 5850 00d2 8DF80D30 		strb	r3, [sp, #13]
  45:../../libs/PoliTeKDSP/libs/libDaisy/src/dev/oled_ssd130x.h ****     };
 5851              		.loc 10 45 9 is_stmt 1 view .LVU1392
  45:../../libs/PoliTeKDSP/libs/libDaisy/src/dev/oled_ssd130x.h ****     };
 5852              		.loc 10 45 30 is_stmt 0 view .LVU1393
 5853 00d6 0223     		movs	r3, #2
  44:../../libs/PoliTeKDSP/libs/libDaisy/src/dev/oled_ssd130x.h ****         i2c_.TransmitBlocking(i2c_address_, buf, 2, 1000);
 5854              		.loc 10 44 17 view .LVU1394
 5855 00d8 8DF80C50 		strb	r5, [sp, #12]
  45:../../libs/PoliTeKDSP/libs/libDaisy/src/dev/oled_ssd130x.h ****     };
 5856              		.loc 10 45 30 view .LVU1395
 5857 00dc FFF7FEFF 		bl	_ZN5daisy9I2CHandle16TransmitBlockingEtPhtm
 5858              	.LVL442:
  45:../../libs/PoliTeKDSP/libs/libDaisy/src/dev/oled_ssd130x.h ****     };
 5859              		.loc 10 45 30 view .LVU1396
 5860              	.LBE1544:
 5861              	.LBE1543:
 5862              	.LBB1545:
 5863              	.LBI1545:
  42:../../libs/PoliTeKDSP/libs/libDaisy/src/dev/oled_ssd130x.h ****     {
 5864              		.loc 10 42 10 is_stmt 1 view .LVU1397
 5865              	.LBB1546:
  44:../../libs/PoliTeKDSP/libs/libDaisy/src/dev/oled_ssd130x.h ****         i2c_.TransmitBlocking(i2c_address_, buf, 2, 1000);
 5866              		.loc 10 44 9 view .LVU1398
  45:../../libs/PoliTeKDSP/libs/libDaisy/src/dev/oled_ssd130x.h ****     };
 5867              		.loc 10 45 30 is_stmt 0 view .LVU1399
 5868 00e0 03AA     		add	r2, sp, #12
 5869 00e2 0096     		str	r6, [sp]
 5870 00e4 0223     		movs	r3, #2
 5871 00e6 2179     		ldrb	r1, [r4, #4]	@ zero_extendqisi2
 5872 00e8 2046     		mov	r0, r4
  44:../../libs/PoliTeKDSP/libs/libDaisy/src/dev/oled_ssd130x.h ****         i2c_.TransmitBlocking(i2c_address_, buf, 2, 1000);
 5873              		.loc 10 44 17 view .LVU1400
 5874 00ea 8DF80C50 		strb	r5, [sp, #12]
  44:../../libs/PoliTeKDSP/libs/libDaisy/src/dev/oled_ssd130x.h ****         i2c_.TransmitBlocking(i2c_address_, buf, 2, 1000);
 5875              		.loc 10 44 36 view .LVU1401
 5876 00ee 8DF80D50 		strb	r5, [sp, #13]
  45:../../libs/PoliTeKDSP/libs/libDaisy/src/dev/oled_ssd130x.h ****     };
 5877              		.loc 10 45 9 is_stmt 1 view .LVU1402
  45:../../libs/PoliTeKDSP/libs/libDaisy/src/dev/oled_ssd130x.h ****     };
ARM GAS  C:\Users\matte\AppData\Local\Temp\ccrMwnXK.s 			page 162


 5878              		.loc 10 45 30 is_stmt 0 view .LVU1403
 5879 00f2 FFF7FEFF 		bl	_ZN5daisy9I2CHandle16TransmitBlockingEtPhtm
 5880              	.LVL443:
  45:../../libs/PoliTeKDSP/libs/libDaisy/src/dev/oled_ssd130x.h ****     };
 5881              		.loc 10 45 30 view .LVU1404
 5882              	.LBE1546:
 5883              	.LBE1545:
 5884              	.LBB1547:
 5885              	.LBI1547:
  42:../../libs/PoliTeKDSP/libs/libDaisy/src/dev/oled_ssd130x.h ****     {
 5886              		.loc 10 42 10 is_stmt 1 view .LVU1405
 5887              	.LBB1548:
  44:../../libs/PoliTeKDSP/libs/libDaisy/src/dev/oled_ssd130x.h ****         i2c_.TransmitBlocking(i2c_address_, buf, 2, 1000);
 5888              		.loc 10 44 9 view .LVU1406
  44:../../libs/PoliTeKDSP/libs/libDaisy/src/dev/oled_ssd130x.h ****         i2c_.TransmitBlocking(i2c_address_, buf, 2, 1000);
 5889              		.loc 10 44 36 is_stmt 0 view .LVU1407
 5890 00f6 4023     		movs	r3, #64
  45:../../libs/PoliTeKDSP/libs/libDaisy/src/dev/oled_ssd130x.h ****     };
 5891              		.loc 10 45 30 view .LVU1408
 5892 00f8 03AA     		add	r2, sp, #12
 5893 00fa 0096     		str	r6, [sp]
 5894 00fc 2046     		mov	r0, r4
 5895 00fe 2179     		ldrb	r1, [r4, #4]	@ zero_extendqisi2
  44:../../libs/PoliTeKDSP/libs/libDaisy/src/dev/oled_ssd130x.h ****         i2c_.TransmitBlocking(i2c_address_, buf, 2, 1000);
 5896              		.loc 10 44 36 view .LVU1409
 5897 0100 8DF80D30 		strb	r3, [sp, #13]
  45:../../libs/PoliTeKDSP/libs/libDaisy/src/dev/oled_ssd130x.h ****     };
 5898              		.loc 10 45 9 is_stmt 1 view .LVU1410
  45:../../libs/PoliTeKDSP/libs/libDaisy/src/dev/oled_ssd130x.h ****     };
 5899              		.loc 10 45 30 is_stmt 0 view .LVU1411
 5900 0104 0223     		movs	r3, #2
  44:../../libs/PoliTeKDSP/libs/libDaisy/src/dev/oled_ssd130x.h ****         i2c_.TransmitBlocking(i2c_address_, buf, 2, 1000);
 5901              		.loc 10 44 17 view .LVU1412
 5902 0106 8DF80C50 		strb	r5, [sp, #12]
  45:../../libs/PoliTeKDSP/libs/libDaisy/src/dev/oled_ssd130x.h ****     };
 5903              		.loc 10 45 30 view .LVU1413
 5904 010a FFF7FEFF 		bl	_ZN5daisy9I2CHandle16TransmitBlockingEtPhtm
 5905              	.LVL444:
  45:../../libs/PoliTeKDSP/libs/libDaisy/src/dev/oled_ssd130x.h ****     };
 5906              		.loc 10 45 30 view .LVU1414
 5907              	.LBE1548:
 5908              	.LBE1547:
 5909              	.LBB1549:
 5910              	.LBI1549:
  42:../../libs/PoliTeKDSP/libs/libDaisy/src/dev/oled_ssd130x.h ****     {
 5911              		.loc 10 42 10 is_stmt 1 view .LVU1415
 5912              	.LBB1550:
  44:../../libs/PoliTeKDSP/libs/libDaisy/src/dev/oled_ssd130x.h ****         i2c_.TransmitBlocking(i2c_address_, buf, 2, 1000);
 5913              		.loc 10 44 9 view .LVU1416
  44:../../libs/PoliTeKDSP/libs/libDaisy/src/dev/oled_ssd130x.h ****         i2c_.TransmitBlocking(i2c_address_, buf, 2, 1000);
 5914              		.loc 10 44 36 is_stmt 0 view .LVU1417
 5915 010e A623     		movs	r3, #166
  45:../../libs/PoliTeKDSP/libs/libDaisy/src/dev/oled_ssd130x.h ****     };
 5916              		.loc 10 45 30 view .LVU1418
 5917 0110 03AA     		add	r2, sp, #12
 5918 0112 0096     		str	r6, [sp]
 5919 0114 2046     		mov	r0, r4
ARM GAS  C:\Users\matte\AppData\Local\Temp\ccrMwnXK.s 			page 163


 5920 0116 2179     		ldrb	r1, [r4, #4]	@ zero_extendqisi2
  44:../../libs/PoliTeKDSP/libs/libDaisy/src/dev/oled_ssd130x.h ****         i2c_.TransmitBlocking(i2c_address_, buf, 2, 1000);
 5921              		.loc 10 44 36 view .LVU1419
 5922 0118 8DF80D30 		strb	r3, [sp, #13]
  45:../../libs/PoliTeKDSP/libs/libDaisy/src/dev/oled_ssd130x.h ****     };
 5923              		.loc 10 45 9 is_stmt 1 view .LVU1420
  45:../../libs/PoliTeKDSP/libs/libDaisy/src/dev/oled_ssd130x.h ****     };
 5924              		.loc 10 45 30 is_stmt 0 view .LVU1421
 5925 011c 0223     		movs	r3, #2
  44:../../libs/PoliTeKDSP/libs/libDaisy/src/dev/oled_ssd130x.h ****         i2c_.TransmitBlocking(i2c_address_, buf, 2, 1000);
 5926              		.loc 10 44 17 view .LVU1422
 5927 011e 8DF80C50 		strb	r5, [sp, #12]
  45:../../libs/PoliTeKDSP/libs/libDaisy/src/dev/oled_ssd130x.h ****     };
 5928              		.loc 10 45 30 view .LVU1423
 5929 0122 FFF7FEFF 		bl	_ZN5daisy9I2CHandle16TransmitBlockingEtPhtm
 5930              	.LVL445:
  45:../../libs/PoliTeKDSP/libs/libDaisy/src/dev/oled_ssd130x.h ****     };
 5931              		.loc 10 45 30 view .LVU1424
 5932              	.LBE1550:
 5933              	.LBE1549:
 5934              	.LBB1551:
 5935              	.LBI1551:
  42:../../libs/PoliTeKDSP/libs/libDaisy/src/dev/oled_ssd130x.h ****     {
 5936              		.loc 10 42 10 is_stmt 1 view .LVU1425
 5937              	.LBB1552:
  44:../../libs/PoliTeKDSP/libs/libDaisy/src/dev/oled_ssd130x.h ****         i2c_.TransmitBlocking(i2c_address_, buf, 2, 1000);
 5938              		.loc 10 44 9 view .LVU1426
  44:../../libs/PoliTeKDSP/libs/libDaisy/src/dev/oled_ssd130x.h ****         i2c_.TransmitBlocking(i2c_address_, buf, 2, 1000);
 5939              		.loc 10 44 36 is_stmt 0 view .LVU1427
 5940 0126 A423     		movs	r3, #164
  45:../../libs/PoliTeKDSP/libs/libDaisy/src/dev/oled_ssd130x.h ****     };
 5941              		.loc 10 45 30 view .LVU1428
 5942 0128 03AA     		add	r2, sp, #12
 5943 012a 0096     		str	r6, [sp]
 5944 012c 2046     		mov	r0, r4
 5945 012e 2179     		ldrb	r1, [r4, #4]	@ zero_extendqisi2
  44:../../libs/PoliTeKDSP/libs/libDaisy/src/dev/oled_ssd130x.h ****         i2c_.TransmitBlocking(i2c_address_, buf, 2, 1000);
 5946              		.loc 10 44 36 view .LVU1429
 5947 0130 8DF80D30 		strb	r3, [sp, #13]
  45:../../libs/PoliTeKDSP/libs/libDaisy/src/dev/oled_ssd130x.h ****     };
 5948              		.loc 10 45 9 is_stmt 1 view .LVU1430
  45:../../libs/PoliTeKDSP/libs/libDaisy/src/dev/oled_ssd130x.h ****     };
 5949              		.loc 10 45 30 is_stmt 0 view .LVU1431
 5950 0134 0223     		movs	r3, #2
  44:../../libs/PoliTeKDSP/libs/libDaisy/src/dev/oled_ssd130x.h ****         i2c_.TransmitBlocking(i2c_address_, buf, 2, 1000);
 5951              		.loc 10 44 17 view .LVU1432
 5952 0136 8DF80C50 		strb	r5, [sp, #12]
  45:../../libs/PoliTeKDSP/libs/libDaisy/src/dev/oled_ssd130x.h ****     };
 5953              		.loc 10 45 30 view .LVU1433
 5954 013a FFF7FEFF 		bl	_ZN5daisy9I2CHandle16TransmitBlockingEtPhtm
 5955              	.LVL446:
  45:../../libs/PoliTeKDSP/libs/libDaisy/src/dev/oled_ssd130x.h ****     };
 5956              		.loc 10 45 30 view .LVU1434
 5957              	.LBE1552:
 5958              	.LBE1551:
 5959              	.LBB1553:
 5960              	.LBI1553:
ARM GAS  C:\Users\matte\AppData\Local\Temp\ccrMwnXK.s 			page 164


  42:../../libs/PoliTeKDSP/libs/libDaisy/src/dev/oled_ssd130x.h ****     {
 5961              		.loc 10 42 10 is_stmt 1 view .LVU1435
 5962              	.LBB1554:
  44:../../libs/PoliTeKDSP/libs/libDaisy/src/dev/oled_ssd130x.h ****         i2c_.TransmitBlocking(i2c_address_, buf, 2, 1000);
 5963              		.loc 10 44 9 view .LVU1436
  44:../../libs/PoliTeKDSP/libs/libDaisy/src/dev/oled_ssd130x.h ****         i2c_.TransmitBlocking(i2c_address_, buf, 2, 1000);
 5964              		.loc 10 44 36 is_stmt 0 view .LVU1437
 5965 013e 8D23     		movs	r3, #141
  45:../../libs/PoliTeKDSP/libs/libDaisy/src/dev/oled_ssd130x.h ****     };
 5966              		.loc 10 45 30 view .LVU1438
 5967 0140 03AA     		add	r2, sp, #12
 5968 0142 0096     		str	r6, [sp]
 5969 0144 2046     		mov	r0, r4
 5970 0146 2179     		ldrb	r1, [r4, #4]	@ zero_extendqisi2
  44:../../libs/PoliTeKDSP/libs/libDaisy/src/dev/oled_ssd130x.h ****         i2c_.TransmitBlocking(i2c_address_, buf, 2, 1000);
 5971              		.loc 10 44 36 view .LVU1439
 5972 0148 8DF80D30 		strb	r3, [sp, #13]
  45:../../libs/PoliTeKDSP/libs/libDaisy/src/dev/oled_ssd130x.h ****     };
 5973              		.loc 10 45 9 is_stmt 1 view .LVU1440
  45:../../libs/PoliTeKDSP/libs/libDaisy/src/dev/oled_ssd130x.h ****     };
 5974              		.loc 10 45 30 is_stmt 0 view .LVU1441
 5975 014c 0223     		movs	r3, #2
  44:../../libs/PoliTeKDSP/libs/libDaisy/src/dev/oled_ssd130x.h ****         i2c_.TransmitBlocking(i2c_address_, buf, 2, 1000);
 5976              		.loc 10 44 17 view .LVU1442
 5977 014e 8DF80C50 		strb	r5, [sp, #12]
  45:../../libs/PoliTeKDSP/libs/libDaisy/src/dev/oled_ssd130x.h ****     };
 5978              		.loc 10 45 30 view .LVU1443
 5979 0152 FFF7FEFF 		bl	_ZN5daisy9I2CHandle16TransmitBlockingEtPhtm
 5980              	.LVL447:
  45:../../libs/PoliTeKDSP/libs/libDaisy/src/dev/oled_ssd130x.h ****     };
 5981              		.loc 10 45 30 view .LVU1444
 5982              	.LBE1554:
 5983              	.LBE1553:
 5984              	.LBB1555:
 5985              	.LBI1555:
  42:../../libs/PoliTeKDSP/libs/libDaisy/src/dev/oled_ssd130x.h ****     {
 5986              		.loc 10 42 10 is_stmt 1 view .LVU1445
 5987              	.LBB1556:
  44:../../libs/PoliTeKDSP/libs/libDaisy/src/dev/oled_ssd130x.h ****         i2c_.TransmitBlocking(i2c_address_, buf, 2, 1000);
 5988              		.loc 10 44 9 view .LVU1446
  44:../../libs/PoliTeKDSP/libs/libDaisy/src/dev/oled_ssd130x.h ****         i2c_.TransmitBlocking(i2c_address_, buf, 2, 1000);
 5989              		.loc 10 44 36 is_stmt 0 view .LVU1447
 5990 0156 1423     		movs	r3, #20
  45:../../libs/PoliTeKDSP/libs/libDaisy/src/dev/oled_ssd130x.h ****     };
 5991              		.loc 10 45 30 view .LVU1448
 5992 0158 03AA     		add	r2, sp, #12
 5993 015a 0096     		str	r6, [sp]
 5994 015c 2046     		mov	r0, r4
 5995 015e 2179     		ldrb	r1, [r4, #4]	@ zero_extendqisi2
  44:../../libs/PoliTeKDSP/libs/libDaisy/src/dev/oled_ssd130x.h ****         i2c_.TransmitBlocking(i2c_address_, buf, 2, 1000);
 5996              		.loc 10 44 36 view .LVU1449
 5997 0160 8DF80D30 		strb	r3, [sp, #13]
  45:../../libs/PoliTeKDSP/libs/libDaisy/src/dev/oled_ssd130x.h ****     };
 5998              		.loc 10 45 9 is_stmt 1 view .LVU1450
  45:../../libs/PoliTeKDSP/libs/libDaisy/src/dev/oled_ssd130x.h ****     };
 5999              		.loc 10 45 30 is_stmt 0 view .LVU1451
 6000 0164 0223     		movs	r3, #2
ARM GAS  C:\Users\matte\AppData\Local\Temp\ccrMwnXK.s 			page 165


  44:../../libs/PoliTeKDSP/libs/libDaisy/src/dev/oled_ssd130x.h ****         i2c_.TransmitBlocking(i2c_address_, buf, 2, 1000);
 6001              		.loc 10 44 17 view .LVU1452
 6002 0166 8DF80C50 		strb	r5, [sp, #12]
  45:../../libs/PoliTeKDSP/libs/libDaisy/src/dev/oled_ssd130x.h ****     };
 6003              		.loc 10 45 30 view .LVU1453
 6004 016a FFF7FEFF 		bl	_ZN5daisy9I2CHandle16TransmitBlockingEtPhtm
 6005              	.LVL448:
  45:../../libs/PoliTeKDSP/libs/libDaisy/src/dev/oled_ssd130x.h ****     };
 6006              		.loc 10 45 30 view .LVU1454
 6007              	.LBE1556:
 6008              	.LBE1555:
 6009              	.LBB1557:
 6010              	.LBI1557:
  42:../../libs/PoliTeKDSP/libs/libDaisy/src/dev/oled_ssd130x.h ****     {
 6011              		.loc 10 42 10 is_stmt 1 view .LVU1455
 6012              	.LBB1558:
  44:../../libs/PoliTeKDSP/libs/libDaisy/src/dev/oled_ssd130x.h ****         i2c_.TransmitBlocking(i2c_address_, buf, 2, 1000);
 6013              		.loc 10 44 9 view .LVU1456
  44:../../libs/PoliTeKDSP/libs/libDaisy/src/dev/oled_ssd130x.h ****         i2c_.TransmitBlocking(i2c_address_, buf, 2, 1000);
 6014              		.loc 10 44 36 is_stmt 0 view .LVU1457
 6015 016e A123     		movs	r3, #161
  45:../../libs/PoliTeKDSP/libs/libDaisy/src/dev/oled_ssd130x.h ****     };
 6016              		.loc 10 45 30 view .LVU1458
 6017 0170 03AA     		add	r2, sp, #12
 6018 0172 0096     		str	r6, [sp]
 6019 0174 2046     		mov	r0, r4
 6020 0176 2179     		ldrb	r1, [r4, #4]	@ zero_extendqisi2
  44:../../libs/PoliTeKDSP/libs/libDaisy/src/dev/oled_ssd130x.h ****         i2c_.TransmitBlocking(i2c_address_, buf, 2, 1000);
 6021              		.loc 10 44 36 view .LVU1459
 6022 0178 8DF80D30 		strb	r3, [sp, #13]
  45:../../libs/PoliTeKDSP/libs/libDaisy/src/dev/oled_ssd130x.h ****     };
 6023              		.loc 10 45 9 is_stmt 1 view .LVU1460
  45:../../libs/PoliTeKDSP/libs/libDaisy/src/dev/oled_ssd130x.h ****     };
 6024              		.loc 10 45 30 is_stmt 0 view .LVU1461
 6025 017c 0223     		movs	r3, #2
  44:../../libs/PoliTeKDSP/libs/libDaisy/src/dev/oled_ssd130x.h ****         i2c_.TransmitBlocking(i2c_address_, buf, 2, 1000);
 6026              		.loc 10 44 17 view .LVU1462
 6027 017e 8DF80C50 		strb	r5, [sp, #12]
  45:../../libs/PoliTeKDSP/libs/libDaisy/src/dev/oled_ssd130x.h ****     };
 6028              		.loc 10 45 30 view .LVU1463
 6029 0182 FFF7FEFF 		bl	_ZN5daisy9I2CHandle16TransmitBlockingEtPhtm
 6030              	.LVL449:
  45:../../libs/PoliTeKDSP/libs/libDaisy/src/dev/oled_ssd130x.h ****     };
 6031              		.loc 10 45 30 view .LVU1464
 6032              	.LBE1558:
 6033              	.LBE1557:
 6034              	.LBB1559:
 6035              	.LBI1559:
  42:../../libs/PoliTeKDSP/libs/libDaisy/src/dev/oled_ssd130x.h ****     {
 6036              		.loc 10 42 10 is_stmt 1 view .LVU1465
 6037              	.LBB1560:
  44:../../libs/PoliTeKDSP/libs/libDaisy/src/dev/oled_ssd130x.h ****         i2c_.TransmitBlocking(i2c_address_, buf, 2, 1000);
 6038              		.loc 10 44 9 view .LVU1466
  44:../../libs/PoliTeKDSP/libs/libDaisy/src/dev/oled_ssd130x.h ****         i2c_.TransmitBlocking(i2c_address_, buf, 2, 1000);
 6039              		.loc 10 44 36 is_stmt 0 view .LVU1467
 6040 0186 C823     		movs	r3, #200
  45:../../libs/PoliTeKDSP/libs/libDaisy/src/dev/oled_ssd130x.h ****     };
ARM GAS  C:\Users\matte\AppData\Local\Temp\ccrMwnXK.s 			page 166


 6041              		.loc 10 45 30 view .LVU1468
 6042 0188 03AA     		add	r2, sp, #12
 6043 018a 0096     		str	r6, [sp]
 6044 018c 2046     		mov	r0, r4
 6045 018e 2179     		ldrb	r1, [r4, #4]	@ zero_extendqisi2
  44:../../libs/PoliTeKDSP/libs/libDaisy/src/dev/oled_ssd130x.h ****         i2c_.TransmitBlocking(i2c_address_, buf, 2, 1000);
 6046              		.loc 10 44 36 view .LVU1469
 6047 0190 8DF80D30 		strb	r3, [sp, #13]
  45:../../libs/PoliTeKDSP/libs/libDaisy/src/dev/oled_ssd130x.h ****     };
 6048              		.loc 10 45 9 is_stmt 1 view .LVU1470
  45:../../libs/PoliTeKDSP/libs/libDaisy/src/dev/oled_ssd130x.h ****     };
 6049              		.loc 10 45 30 is_stmt 0 view .LVU1471
 6050 0194 0223     		movs	r3, #2
  44:../../libs/PoliTeKDSP/libs/libDaisy/src/dev/oled_ssd130x.h ****         i2c_.TransmitBlocking(i2c_address_, buf, 2, 1000);
 6051              		.loc 10 44 17 view .LVU1472
 6052 0196 8DF80C50 		strb	r5, [sp, #12]
  45:../../libs/PoliTeKDSP/libs/libDaisy/src/dev/oled_ssd130x.h ****     };
 6053              		.loc 10 45 30 view .LVU1473
 6054 019a FFF7FEFF 		bl	_ZN5daisy9I2CHandle16TransmitBlockingEtPhtm
 6055              	.LVL450:
  45:../../libs/PoliTeKDSP/libs/libDaisy/src/dev/oled_ssd130x.h ****     };
 6056              		.loc 10 45 30 view .LVU1474
 6057              	.LBE1560:
 6058              	.LBE1559:
 6059              	.LBB1561:
 6060              	.LBI1561:
  42:../../libs/PoliTeKDSP/libs/libDaisy/src/dev/oled_ssd130x.h ****     {
 6061              		.loc 10 42 10 is_stmt 1 view .LVU1475
 6062              	.LBB1562:
  44:../../libs/PoliTeKDSP/libs/libDaisy/src/dev/oled_ssd130x.h ****         i2c_.TransmitBlocking(i2c_address_, buf, 2, 1000);
 6063              		.loc 10 44 9 view .LVU1476
  44:../../libs/PoliTeKDSP/libs/libDaisy/src/dev/oled_ssd130x.h ****         i2c_.TransmitBlocking(i2c_address_, buf, 2, 1000);
 6064              		.loc 10 44 36 is_stmt 0 view .LVU1477
 6065 019e 8123     		movs	r3, #129
  45:../../libs/PoliTeKDSP/libs/libDaisy/src/dev/oled_ssd130x.h ****     };
 6066              		.loc 10 45 30 view .LVU1478
 6067 01a0 03AA     		add	r2, sp, #12
 6068 01a2 0096     		str	r6, [sp]
 6069 01a4 2046     		mov	r0, r4
 6070 01a6 2179     		ldrb	r1, [r4, #4]	@ zero_extendqisi2
  44:../../libs/PoliTeKDSP/libs/libDaisy/src/dev/oled_ssd130x.h ****         i2c_.TransmitBlocking(i2c_address_, buf, 2, 1000);
 6071              		.loc 10 44 36 view .LVU1479
 6072 01a8 8DF80D30 		strb	r3, [sp, #13]
  45:../../libs/PoliTeKDSP/libs/libDaisy/src/dev/oled_ssd130x.h ****     };
 6073              		.loc 10 45 9 is_stmt 1 view .LVU1480
  45:../../libs/PoliTeKDSP/libs/libDaisy/src/dev/oled_ssd130x.h ****     };
 6074              		.loc 10 45 30 is_stmt 0 view .LVU1481
 6075 01ac 0223     		movs	r3, #2
  44:../../libs/PoliTeKDSP/libs/libDaisy/src/dev/oled_ssd130x.h ****         i2c_.TransmitBlocking(i2c_address_, buf, 2, 1000);
 6076              		.loc 10 44 17 view .LVU1482
 6077 01ae 8DF80C50 		strb	r5, [sp, #12]
  45:../../libs/PoliTeKDSP/libs/libDaisy/src/dev/oled_ssd130x.h ****     };
 6078              		.loc 10 45 30 view .LVU1483
 6079 01b2 FFF7FEFF 		bl	_ZN5daisy9I2CHandle16TransmitBlockingEtPhtm
 6080              	.LVL451:
  45:../../libs/PoliTeKDSP/libs/libDaisy/src/dev/oled_ssd130x.h ****     };
 6081              		.loc 10 45 30 view .LVU1484
ARM GAS  C:\Users\matte\AppData\Local\Temp\ccrMwnXK.s 			page 167


 6082              	.LBE1562:
 6083              	.LBE1561:
 6084              	.LBB1563:
 6085              	.LBI1563:
  42:../../libs/PoliTeKDSP/libs/libDaisy/src/dev/oled_ssd130x.h ****     {
 6086              		.loc 10 42 10 is_stmt 1 view .LVU1485
 6087              	.LBB1564:
  44:../../libs/PoliTeKDSP/libs/libDaisy/src/dev/oled_ssd130x.h ****         i2c_.TransmitBlocking(i2c_address_, buf, 2, 1000);
 6088              		.loc 10 44 9 view .LVU1486
  44:../../libs/PoliTeKDSP/libs/libDaisy/src/dev/oled_ssd130x.h ****         i2c_.TransmitBlocking(i2c_address_, buf, 2, 1000);
 6089              		.loc 10 44 36 is_stmt 0 view .LVU1487
 6090 01b6 8F23     		movs	r3, #143
  45:../../libs/PoliTeKDSP/libs/libDaisy/src/dev/oled_ssd130x.h ****     };
 6091              		.loc 10 45 30 view .LVU1488
 6092 01b8 03AA     		add	r2, sp, #12
 6093 01ba 0096     		str	r6, [sp]
 6094 01bc 2046     		mov	r0, r4
 6095 01be 2179     		ldrb	r1, [r4, #4]	@ zero_extendqisi2
  44:../../libs/PoliTeKDSP/libs/libDaisy/src/dev/oled_ssd130x.h ****         i2c_.TransmitBlocking(i2c_address_, buf, 2, 1000);
 6096              		.loc 10 44 36 view .LVU1489
 6097 01c0 8DF80D30 		strb	r3, [sp, #13]
  45:../../libs/PoliTeKDSP/libs/libDaisy/src/dev/oled_ssd130x.h ****     };
 6098              		.loc 10 45 9 is_stmt 1 view .LVU1490
  45:../../libs/PoliTeKDSP/libs/libDaisy/src/dev/oled_ssd130x.h ****     };
 6099              		.loc 10 45 30 is_stmt 0 view .LVU1491
 6100 01c4 0223     		movs	r3, #2
  44:../../libs/PoliTeKDSP/libs/libDaisy/src/dev/oled_ssd130x.h ****         i2c_.TransmitBlocking(i2c_address_, buf, 2, 1000);
 6101              		.loc 10 44 17 view .LVU1492
 6102 01c6 8DF80C50 		strb	r5, [sp, #12]
  45:../../libs/PoliTeKDSP/libs/libDaisy/src/dev/oled_ssd130x.h ****     };
 6103              		.loc 10 45 30 view .LVU1493
 6104 01ca FFF7FEFF 		bl	_ZN5daisy9I2CHandle16TransmitBlockingEtPhtm
 6105              	.LVL452:
  45:../../libs/PoliTeKDSP/libs/libDaisy/src/dev/oled_ssd130x.h ****     };
 6106              		.loc 10 45 30 view .LVU1494
 6107              	.LBE1564:
 6108              	.LBE1563:
 6109              	.LBB1565:
 6110              	.LBI1565:
  42:../../libs/PoliTeKDSP/libs/libDaisy/src/dev/oled_ssd130x.h ****     {
 6111              		.loc 10 42 10 is_stmt 1 view .LVU1495
 6112              	.LBB1566:
  44:../../libs/PoliTeKDSP/libs/libDaisy/src/dev/oled_ssd130x.h ****         i2c_.TransmitBlocking(i2c_address_, buf, 2, 1000);
 6113              		.loc 10 44 9 view .LVU1496
  44:../../libs/PoliTeKDSP/libs/libDaisy/src/dev/oled_ssd130x.h ****         i2c_.TransmitBlocking(i2c_address_, buf, 2, 1000);
 6114              		.loc 10 44 36 is_stmt 0 view .LVU1497
 6115 01ce D923     		movs	r3, #217
  45:../../libs/PoliTeKDSP/libs/libDaisy/src/dev/oled_ssd130x.h ****     };
 6116              		.loc 10 45 30 view .LVU1498
 6117 01d0 03AA     		add	r2, sp, #12
 6118 01d2 0096     		str	r6, [sp]
 6119 01d4 2046     		mov	r0, r4
 6120 01d6 2179     		ldrb	r1, [r4, #4]	@ zero_extendqisi2
  44:../../libs/PoliTeKDSP/libs/libDaisy/src/dev/oled_ssd130x.h ****         i2c_.TransmitBlocking(i2c_address_, buf, 2, 1000);
 6121              		.loc 10 44 36 view .LVU1499
 6122 01d8 8DF80D30 		strb	r3, [sp, #13]
  45:../../libs/PoliTeKDSP/libs/libDaisy/src/dev/oled_ssd130x.h ****     };
ARM GAS  C:\Users\matte\AppData\Local\Temp\ccrMwnXK.s 			page 168


 6123              		.loc 10 45 9 is_stmt 1 view .LVU1500
  45:../../libs/PoliTeKDSP/libs/libDaisy/src/dev/oled_ssd130x.h ****     };
 6124              		.loc 10 45 30 is_stmt 0 view .LVU1501
 6125 01dc 0223     		movs	r3, #2
  44:../../libs/PoliTeKDSP/libs/libDaisy/src/dev/oled_ssd130x.h ****         i2c_.TransmitBlocking(i2c_address_, buf, 2, 1000);
 6126              		.loc 10 44 17 view .LVU1502
 6127 01de 8DF80C50 		strb	r5, [sp, #12]
  45:../../libs/PoliTeKDSP/libs/libDaisy/src/dev/oled_ssd130x.h ****     };
 6128              		.loc 10 45 30 view .LVU1503
 6129 01e2 FFF7FEFF 		bl	_ZN5daisy9I2CHandle16TransmitBlockingEtPhtm
 6130              	.LVL453:
  45:../../libs/PoliTeKDSP/libs/libDaisy/src/dev/oled_ssd130x.h ****     };
 6131              		.loc 10 45 30 view .LVU1504
 6132              	.LBE1566:
 6133              	.LBE1565:
 6134              	.LBB1567:
 6135              	.LBI1567:
  42:../../libs/PoliTeKDSP/libs/libDaisy/src/dev/oled_ssd130x.h ****     {
 6136              		.loc 10 42 10 is_stmt 1 view .LVU1505
 6137              	.LBB1568:
  44:../../libs/PoliTeKDSP/libs/libDaisy/src/dev/oled_ssd130x.h ****         i2c_.TransmitBlocking(i2c_address_, buf, 2, 1000);
 6138              		.loc 10 44 9 view .LVU1506
  44:../../libs/PoliTeKDSP/libs/libDaisy/src/dev/oled_ssd130x.h ****         i2c_.TransmitBlocking(i2c_address_, buf, 2, 1000);
 6139              		.loc 10 44 36 is_stmt 0 view .LVU1507
 6140 01e6 2523     		movs	r3, #37
  45:../../libs/PoliTeKDSP/libs/libDaisy/src/dev/oled_ssd130x.h ****     };
 6141              		.loc 10 45 30 view .LVU1508
 6142 01e8 03AA     		add	r2, sp, #12
 6143 01ea 0096     		str	r6, [sp]
 6144 01ec 2046     		mov	r0, r4
 6145 01ee 2179     		ldrb	r1, [r4, #4]	@ zero_extendqisi2
  44:../../libs/PoliTeKDSP/libs/libDaisy/src/dev/oled_ssd130x.h ****         i2c_.TransmitBlocking(i2c_address_, buf, 2, 1000);
 6146              		.loc 10 44 36 view .LVU1509
 6147 01f0 8DF80D30 		strb	r3, [sp, #13]
  45:../../libs/PoliTeKDSP/libs/libDaisy/src/dev/oled_ssd130x.h ****     };
 6148              		.loc 10 45 9 is_stmt 1 view .LVU1510
  45:../../libs/PoliTeKDSP/libs/libDaisy/src/dev/oled_ssd130x.h ****     };
 6149              		.loc 10 45 30 is_stmt 0 view .LVU1511
 6150 01f4 0223     		movs	r3, #2
  44:../../libs/PoliTeKDSP/libs/libDaisy/src/dev/oled_ssd130x.h ****         i2c_.TransmitBlocking(i2c_address_, buf, 2, 1000);
 6151              		.loc 10 44 17 view .LVU1512
 6152 01f6 8DF80C50 		strb	r5, [sp, #12]
  45:../../libs/PoliTeKDSP/libs/libDaisy/src/dev/oled_ssd130x.h ****     };
 6153              		.loc 10 45 30 view .LVU1513
 6154 01fa FFF7FEFF 		bl	_ZN5daisy9I2CHandle16TransmitBlockingEtPhtm
 6155              	.LVL454:
  45:../../libs/PoliTeKDSP/libs/libDaisy/src/dev/oled_ssd130x.h ****     };
 6156              		.loc 10 45 30 view .LVU1514
 6157              	.LBE1568:
 6158              	.LBE1567:
 6159              	.LBB1569:
 6160              	.LBI1569:
  42:../../libs/PoliTeKDSP/libs/libDaisy/src/dev/oled_ssd130x.h ****     {
 6161              		.loc 10 42 10 is_stmt 1 view .LVU1515
 6162              	.LBB1570:
  44:../../libs/PoliTeKDSP/libs/libDaisy/src/dev/oled_ssd130x.h ****         i2c_.TransmitBlocking(i2c_address_, buf, 2, 1000);
 6163              		.loc 10 44 9 view .LVU1516
ARM GAS  C:\Users\matte\AppData\Local\Temp\ccrMwnXK.s 			page 169


  44:../../libs/PoliTeKDSP/libs/libDaisy/src/dev/oled_ssd130x.h ****         i2c_.TransmitBlocking(i2c_address_, buf, 2, 1000);
 6164              		.loc 10 44 36 is_stmt 0 view .LVU1517
 6165 01fe DB23     		movs	r3, #219
  45:../../libs/PoliTeKDSP/libs/libDaisy/src/dev/oled_ssd130x.h ****     };
 6166              		.loc 10 45 30 view .LVU1518
 6167 0200 03AA     		add	r2, sp, #12
 6168 0202 0096     		str	r6, [sp]
 6169 0204 2046     		mov	r0, r4
 6170 0206 2179     		ldrb	r1, [r4, #4]	@ zero_extendqisi2
  44:../../libs/PoliTeKDSP/libs/libDaisy/src/dev/oled_ssd130x.h ****         i2c_.TransmitBlocking(i2c_address_, buf, 2, 1000);
 6171              		.loc 10 44 36 view .LVU1519
 6172 0208 8DF80D30 		strb	r3, [sp, #13]
  45:../../libs/PoliTeKDSP/libs/libDaisy/src/dev/oled_ssd130x.h ****     };
 6173              		.loc 10 45 9 is_stmt 1 view .LVU1520
  45:../../libs/PoliTeKDSP/libs/libDaisy/src/dev/oled_ssd130x.h ****     };
 6174              		.loc 10 45 30 is_stmt 0 view .LVU1521
 6175 020c 0223     		movs	r3, #2
  44:../../libs/PoliTeKDSP/libs/libDaisy/src/dev/oled_ssd130x.h ****         i2c_.TransmitBlocking(i2c_address_, buf, 2, 1000);
 6176              		.loc 10 44 17 view .LVU1522
 6177 020e 8DF80C50 		strb	r5, [sp, #12]
  45:../../libs/PoliTeKDSP/libs/libDaisy/src/dev/oled_ssd130x.h ****     };
 6178              		.loc 10 45 30 view .LVU1523
 6179 0212 FFF7FEFF 		bl	_ZN5daisy9I2CHandle16TransmitBlockingEtPhtm
 6180              	.LVL455:
  45:../../libs/PoliTeKDSP/libs/libDaisy/src/dev/oled_ssd130x.h ****     };
 6181              		.loc 10 45 30 view .LVU1524
 6182              	.LBE1570:
 6183              	.LBE1569:
 6184              	.LBB1571:
 6185              	.LBI1571:
  42:../../libs/PoliTeKDSP/libs/libDaisy/src/dev/oled_ssd130x.h ****     {
 6186              		.loc 10 42 10 is_stmt 1 view .LVU1525
 6187              	.LBB1572:
  44:../../libs/PoliTeKDSP/libs/libDaisy/src/dev/oled_ssd130x.h ****         i2c_.TransmitBlocking(i2c_address_, buf, 2, 1000);
 6188              		.loc 10 44 9 view .LVU1526
  44:../../libs/PoliTeKDSP/libs/libDaisy/src/dev/oled_ssd130x.h ****         i2c_.TransmitBlocking(i2c_address_, buf, 2, 1000);
 6189              		.loc 10 44 36 is_stmt 0 view .LVU1527
 6190 0216 3423     		movs	r3, #52
  45:../../libs/PoliTeKDSP/libs/libDaisy/src/dev/oled_ssd130x.h ****     };
 6191              		.loc 10 45 30 view .LVU1528
 6192 0218 03AA     		add	r2, sp, #12
 6193 021a 0096     		str	r6, [sp]
 6194 021c 2046     		mov	r0, r4
 6195 021e 2179     		ldrb	r1, [r4, #4]	@ zero_extendqisi2
  44:../../libs/PoliTeKDSP/libs/libDaisy/src/dev/oled_ssd130x.h ****         i2c_.TransmitBlocking(i2c_address_, buf, 2, 1000);
 6196              		.loc 10 44 36 view .LVU1529
 6197 0220 8DF80D30 		strb	r3, [sp, #13]
  45:../../libs/PoliTeKDSP/libs/libDaisy/src/dev/oled_ssd130x.h ****     };
 6198              		.loc 10 45 9 is_stmt 1 view .LVU1530
  45:../../libs/PoliTeKDSP/libs/libDaisy/src/dev/oled_ssd130x.h ****     };
 6199              		.loc 10 45 30 is_stmt 0 view .LVU1531
 6200 0224 0223     		movs	r3, #2
  44:../../libs/PoliTeKDSP/libs/libDaisy/src/dev/oled_ssd130x.h ****         i2c_.TransmitBlocking(i2c_address_, buf, 2, 1000);
 6201              		.loc 10 44 17 view .LVU1532
 6202 0226 8DF80C50 		strb	r5, [sp, #12]
  45:../../libs/PoliTeKDSP/libs/libDaisy/src/dev/oled_ssd130x.h ****     };
 6203              		.loc 10 45 30 view .LVU1533
ARM GAS  C:\Users\matte\AppData\Local\Temp\ccrMwnXK.s 			page 170


 6204 022a FFF7FEFF 		bl	_ZN5daisy9I2CHandle16TransmitBlockingEtPhtm
 6205              	.LVL456:
  45:../../libs/PoliTeKDSP/libs/libDaisy/src/dev/oled_ssd130x.h ****     };
 6206              		.loc 10 45 30 view .LVU1534
 6207              	.LBE1572:
 6208              	.LBE1571:
 6209              	.LBB1573:
 6210              	.LBI1573:
  42:../../libs/PoliTeKDSP/libs/libDaisy/src/dev/oled_ssd130x.h ****     {
 6211              		.loc 10 42 10 is_stmt 1 view .LVU1535
 6212              	.LBB1574:
  44:../../libs/PoliTeKDSP/libs/libDaisy/src/dev/oled_ssd130x.h ****         i2c_.TransmitBlocking(i2c_address_, buf, 2, 1000);
 6213              		.loc 10 44 9 view .LVU1536
  44:../../libs/PoliTeKDSP/libs/libDaisy/src/dev/oled_ssd130x.h ****         i2c_.TransmitBlocking(i2c_address_, buf, 2, 1000);
 6214              		.loc 10 44 36 is_stmt 0 view .LVU1537
 6215 022e AF21     		movs	r1, #175
  45:../../libs/PoliTeKDSP/libs/libDaisy/src/dev/oled_ssd130x.h ****     };
 6216              		.loc 10 45 30 view .LVU1538
 6217 0230 0096     		str	r6, [sp]
 6218 0232 03AA     		add	r2, sp, #12
 6219 0234 0223     		movs	r3, #2
  44:../../libs/PoliTeKDSP/libs/libDaisy/src/dev/oled_ssd130x.h ****         i2c_.TransmitBlocking(i2c_address_, buf, 2, 1000);
 6220              		.loc 10 44 36 view .LVU1539
 6221 0236 8DF80D10 		strb	r1, [sp, #13]
  45:../../libs/PoliTeKDSP/libs/libDaisy/src/dev/oled_ssd130x.h ****     };
 6222              		.loc 10 45 9 is_stmt 1 view .LVU1540
  45:../../libs/PoliTeKDSP/libs/libDaisy/src/dev/oled_ssd130x.h ****     };
 6223              		.loc 10 45 30 is_stmt 0 view .LVU1541
 6224 023a 2046     		mov	r0, r4
 6225 023c 2179     		ldrb	r1, [r4, #4]	@ zero_extendqisi2
  44:../../libs/PoliTeKDSP/libs/libDaisy/src/dev/oled_ssd130x.h ****         i2c_.TransmitBlocking(i2c_address_, buf, 2, 1000);
 6226              		.loc 10 44 17 view .LVU1542
 6227 023e 8DF80C50 		strb	r5, [sp, #12]
  45:../../libs/PoliTeKDSP/libs/libDaisy/src/dev/oled_ssd130x.h ****     };
 6228              		.loc 10 45 30 view .LVU1543
 6229 0242 FFF7FEFF 		bl	_ZN5daisy9I2CHandle16TransmitBlockingEtPhtm
 6230              	.LVL457:
  45:../../libs/PoliTeKDSP/libs/libDaisy/src/dev/oled_ssd130x.h ****     };
 6231              		.loc 10 45 30 view .LVU1544
 6232              	.LBE1574:
 6233              	.LBE1573:
 335:../../libs/PoliTeKDSP/libs/libDaisy/src/dev/oled_ssd130x.h **** 
 6234              		.loc 10 335 5 view .LVU1545
 6235 0246 04B0     		add	sp, sp, #16
 6236              		.cfi_def_cfa_offset 32
 6237              		@ sp needed
 6238 0248 BDE87040 		pop	{r4, r5, r6, lr}
 6239              		.cfi_restore 14
 6240              		.cfi_restore 6
 6241              		.cfi_restore 5
 6242              		.cfi_restore 4
 6243              		.cfi_def_cfa_offset 16
 6244              	.LVL458:
 335:../../libs/PoliTeKDSP/libs/libDaisy/src/dev/oled_ssd130x.h **** 
 6245              		.loc 10 335 5 view .LVU1546
 6246 024c 04B0     		add	sp, sp, #16
 6247              		.cfi_def_cfa_offset 0
ARM GAS  C:\Users\matte\AppData\Local\Temp\ccrMwnXK.s 			page 171


 6248 024e 7047     		bx	lr
 6249              		.cfi_endproc
 6250              	.LFE5301:
 6252              		.section	.text.startup.main,"ax",%progbits
 6253              		.align	1
 6254              		.p2align 2,,3
 6255              		.global	main
 6256              		.syntax unified
 6257              		.thumb
 6258              		.thumb_func
 6259              		.fpu fpv5-d16
 6261              	main:
 6262              	.LFB4855:
  49:main.cpp      **** 
  50:main.cpp      **** int main (){
 6263              		.loc 11 50 12 is_stmt 1 view -0
 6264              		.cfi_startproc
 6265              		@ args = 0, pretend = 0, frame = 24
 6266              		@ frame_needed = 0, uses_anonymous_args = 0
  51:main.cpp      **** 
  52:main.cpp      ****     hw.Init();    
 6267              		.loc 11 52 5 view .LVU1548
  50:main.cpp      **** 
 6268              		.loc 11 50 12 is_stmt 0 view .LVU1549
 6269 0000 30B5     		push	{r4, r5, lr}
 6270              		.cfi_def_cfa_offset 12
 6271              		.cfi_offset 4, -12
 6272              		.cfi_offset 5, -8
 6273              		.cfi_offset 14, -4
 6274              		.loc 11 52 12 view .LVU1550
 6275 0002 0021     		movs	r1, #0
  50:main.cpp      **** 
 6276              		.loc 11 50 12 view .LVU1551
 6277 0004 8BB0     		sub	sp, sp, #44
 6278              		.cfi_def_cfa_offset 56
 6279              		.loc 11 52 12 view .LVU1552
 6280 0006 3448     		ldr	r0, .L417
 6281              	.LBB1595:
 6282              	.LBB1596:
  25:../../libs/DaisySP/Source/Synthesis/oscillator.h ****     /** Choices for output waveforms, POLYBLEP are appropriately labeled. Others are naive forms.
  26:../../libs/DaisySP/Source/Synthesis/oscillator.h ****     */
  27:../../libs/DaisySP/Source/Synthesis/oscillator.h ****     enum
  28:../../libs/DaisySP/Source/Synthesis/oscillator.h ****     {
  29:../../libs/DaisySP/Source/Synthesis/oscillator.h ****         WAVE_SIN,
  30:../../libs/DaisySP/Source/Synthesis/oscillator.h ****         WAVE_TRI,
  31:../../libs/DaisySP/Source/Synthesis/oscillator.h ****         WAVE_SAW,
  32:../../libs/DaisySP/Source/Synthesis/oscillator.h ****         WAVE_RAMP,
  33:../../libs/DaisySP/Source/Synthesis/oscillator.h ****         WAVE_SQUARE,
  34:../../libs/DaisySP/Source/Synthesis/oscillator.h ****         WAVE_POLYBLEP_TRI,
  35:../../libs/DaisySP/Source/Synthesis/oscillator.h ****         WAVE_POLYBLEP_SAW,
  36:../../libs/DaisySP/Source/Synthesis/oscillator.h ****         WAVE_POLYBLEP_SQUARE,
  37:../../libs/DaisySP/Source/Synthesis/oscillator.h ****         WAVE_LAST,
  38:../../libs/DaisySP/Source/Synthesis/oscillator.h ****     };
  39:../../libs/DaisySP/Source/Synthesis/oscillator.h **** 
  40:../../libs/DaisySP/Source/Synthesis/oscillator.h **** 
  41:../../libs/DaisySP/Source/Synthesis/oscillator.h ****     /** Initializes the Oscillator
  42:../../libs/DaisySP/Source/Synthesis/oscillator.h **** 
ARM GAS  C:\Users\matte\AppData\Local\Temp\ccrMwnXK.s 			page 172


  43:../../libs/DaisySP/Source/Synthesis/oscillator.h ****         \param sample_rate - sample rate of the audio engine being run, and the frequency that the 
  44:../../libs/DaisySP/Source/Synthesis/oscillator.h **** 
  45:../../libs/DaisySP/Source/Synthesis/oscillator.h ****         Defaults:
  46:../../libs/DaisySP/Source/Synthesis/oscillator.h ****         - freq_ = 100 Hz
  47:../../libs/DaisySP/Source/Synthesis/oscillator.h ****         - amp_ = 0.5
  48:../../libs/DaisySP/Source/Synthesis/oscillator.h ****         - waveform_ = sine wave.
  49:../../libs/DaisySP/Source/Synthesis/oscillator.h ****     */
  50:../../libs/DaisySP/Source/Synthesis/oscillator.h ****     void Init(float sample_rate)
  51:../../libs/DaisySP/Source/Synthesis/oscillator.h ****     {
  52:../../libs/DaisySP/Source/Synthesis/oscillator.h ****         sr_        = sample_rate;
  53:../../libs/DaisySP/Source/Synthesis/oscillator.h ****         sr_recip_  = 1.0f / sample_rate;
  54:../../libs/DaisySP/Source/Synthesis/oscillator.h ****         freq_      = 100.0f;
  55:../../libs/DaisySP/Source/Synthesis/oscillator.h ****         amp_       = 0.5f;
  56:../../libs/DaisySP/Source/Synthesis/oscillator.h ****         pw_        = 0.5f;
  57:../../libs/DaisySP/Source/Synthesis/oscillator.h ****         phase_     = 0.0f;
  58:../../libs/DaisySP/Source/Synthesis/oscillator.h ****         phase_inc_ = CalcPhaseInc(freq_);
  59:../../libs/DaisySP/Source/Synthesis/oscillator.h ****         waveform_  = WAVE_SIN;
 6283              		.loc 7 59 20 view .LVU1553
 6284 0008 0024     		movs	r4, #0
 6285              	.LBE1596:
 6286              	.LBE1595:
 6287              		.loc 11 52 12 view .LVU1554
 6288 000a FFF7FEFF 		bl	_ZN5daisy9DaisySeed4InitEb
 6289              	.LVL459:
  53:main.cpp      ****     hw.SetAudioBlockSize(16);
 6290              		.loc 11 53 5 is_stmt 1 view .LVU1555
 6291              		.loc 11 53 25 is_stmt 0 view .LVU1556
 6292 000e 1021     		movs	r1, #16
 6293 0010 3148     		ldr	r0, .L417
 6294              	.LBB1600:
 6295              	.LBB1597:
  52:../../libs/DaisySP/Source/Synthesis/oscillator.h ****         sr_recip_  = 1.0f / sample_rate;
 6296              		.loc 7 52 20 view .LVU1557
 6297 0012 324D     		ldr	r5, .L417+4
 6298              	.LBE1597:
 6299              	.LBE1600:
 6300              		.loc 11 53 25 view .LVU1558
 6301 0014 FFF7FEFF 		bl	_ZN5daisy9DaisySeed17SetAudioBlockSizeEj
 6302              	.LVL460:
  54:main.cpp      ****     osc.Init(48000);
 6303              		.loc 11 54 5 is_stmt 1 view .LVU1559
 6304              	.LBB1601:
 6305              	.LBI1595:
  50:../../libs/DaisySP/Source/Synthesis/oscillator.h ****     {
 6306              		.loc 7 50 10 view .LVU1560
 6307              	.LBB1598:
  52:../../libs/DaisySP/Source/Synthesis/oscillator.h ****         sr_recip_  = 1.0f / sample_rate;
 6308              		.loc 7 52 9 view .LVU1561
  52:../../libs/DaisySP/Source/Synthesis/oscillator.h ****         sr_recip_  = 1.0f / sample_rate;
 6309              		.loc 7 52 20 is_stmt 0 view .LVU1562
 6310 0018 3148     		ldr	r0, .L417+8
  55:../../libs/DaisySP/Source/Synthesis/oscillator.h ****         pw_        = 0.5f;
 6311              		.loc 7 55 20 view .LVU1563
 6312 001a 4FF07C53 		mov	r3, #1056964608
  53:../../libs/DaisySP/Source/Synthesis/oscillator.h ****         freq_      = 100.0f;
 6313              		.loc 7 53 20 view .LVU1564
 6314 001e 3149     		ldr	r1, .L417+12
ARM GAS  C:\Users\matte\AppData\Local\Temp\ccrMwnXK.s 			page 173


  57:../../libs/DaisySP/Source/Synthesis/oscillator.h ****         phase_inc_ = CalcPhaseInc(freq_);
 6315              		.loc 7 57 20 view .LVU1565
 6316 0020 0022     		movs	r2, #0
  54:../../libs/DaisySP/Source/Synthesis/oscillator.h ****         amp_       = 0.5f;
 6317              		.loc 7 54 20 view .LVU1566
 6318 0022 9FED310A 		vldr.32	s0, .L417+16
  52:../../libs/DaisySP/Source/Synthesis/oscillator.h ****         sr_recip_  = 1.0f / sample_rate;
 6319              		.loc 7 52 20 view .LVU1567
 6320 0026 2861     		str	r0, [r5, #16]	@ float
  53:../../libs/DaisySP/Source/Synthesis/oscillator.h ****         freq_      = 100.0f;
 6321              		.loc 7 53 9 is_stmt 1 view .LVU1568
  58:../../libs/DaisySP/Source/Synthesis/oscillator.h ****         waveform_  = WAVE_SIN;
 6322              		.loc 7 58 34 is_stmt 0 view .LVU1569
 6323 0028 2846     		mov	r0, r5
  53:../../libs/DaisySP/Source/Synthesis/oscillator.h ****         freq_      = 100.0f;
 6324              		.loc 7 53 20 view .LVU1570
 6325 002a 6961     		str	r1, [r5, #20]	@ float
  54:../../libs/DaisySP/Source/Synthesis/oscillator.h ****         amp_       = 0.5f;
 6326              		.loc 7 54 9 is_stmt 1 view .LVU1571
  57:../../libs/DaisySP/Source/Synthesis/oscillator.h ****         phase_inc_ = CalcPhaseInc(freq_);
 6327              		.loc 7 57 20 is_stmt 0 view .LVU1572
 6328 002c AA61     		str	r2, [r5, #24]	@ float
  55:../../libs/DaisySP/Source/Synthesis/oscillator.h ****         pw_        = 0.5f;
 6329              		.loc 7 55 20 view .LVU1573
 6330 002e 6B60     		str	r3, [r5, #4]	@ float
  56:../../libs/DaisySP/Source/Synthesis/oscillator.h ****         phase_     = 0.0f;
 6331              		.loc 7 56 20 view .LVU1574
 6332 0030 EB60     		str	r3, [r5, #12]	@ float
  54:../../libs/DaisySP/Source/Synthesis/oscillator.h ****         amp_       = 0.5f;
 6333              		.loc 7 54 20 view .LVU1575
 6334 0032 85ED020A 		vstr.32	s0, [r5, #8]
  55:../../libs/DaisySP/Source/Synthesis/oscillator.h ****         pw_        = 0.5f;
 6335              		.loc 7 55 9 is_stmt 1 view .LVU1576
  56:../../libs/DaisySP/Source/Synthesis/oscillator.h ****         phase_     = 0.0f;
 6336              		.loc 7 56 9 view .LVU1577
  57:../../libs/DaisySP/Source/Synthesis/oscillator.h ****         phase_inc_ = CalcPhaseInc(freq_);
 6337              		.loc 7 57 9 view .LVU1578
  58:../../libs/DaisySP/Source/Synthesis/oscillator.h ****         waveform_  = WAVE_SIN;
 6338              		.loc 7 58 9 view .LVU1579
  58:../../libs/DaisySP/Source/Synthesis/oscillator.h ****         waveform_  = WAVE_SIN;
 6339              		.loc 7 58 34 is_stmt 0 view .LVU1580
 6340 0036 FFF7FEFF 		bl	_ZN7daisysp10Oscillator12CalcPhaseIncEf
 6341              	.LVL461:
 6342 003a F0EE407A 		vmov.f32	s15, s0
  60:../../libs/DaisySP/Source/Synthesis/oscillator.h ****         eoc_       = true;
  61:../../libs/DaisySP/Source/Synthesis/oscillator.h ****         eor_       = true;
 6343              		.loc 7 61 20 view .LVU1581
 6344 003e 40F20113 		movw	r3, #257
 6345              	.LBE1598:
 6346              	.LBE1601:
 6347              	.LBB1602:
 6348              	.LBB1603:
  62:../../libs/DaisySP/Source/Synthesis/oscillator.h ****     }
  63:../../libs/DaisySP/Source/Synthesis/oscillator.h **** 
  64:../../libs/DaisySP/Source/Synthesis/oscillator.h **** 
  65:../../libs/DaisySP/Source/Synthesis/oscillator.h ****     /** Changes the frequency of the Oscillator, and recalculates phase increment.
  66:../../libs/DaisySP/Source/Synthesis/oscillator.h ****     */
ARM GAS  C:\Users\matte\AppData\Local\Temp\ccrMwnXK.s 			page 174


  67:../../libs/DaisySP/Source/Synthesis/oscillator.h ****     inline void SetFreq(const float f)
  68:../../libs/DaisySP/Source/Synthesis/oscillator.h ****     {
  69:../../libs/DaisySP/Source/Synthesis/oscillator.h ****         freq_      = f;
 6349              		.loc 7 69 20 view .LVU1582
 6350 0042 9FED2A0A 		vldr.32	s0, .L417+20
  70:../../libs/DaisySP/Source/Synthesis/oscillator.h ****         phase_inc_ = CalcPhaseInc(f);
 6351              		.loc 7 70 34 view .LVU1583
 6352 0046 2846     		mov	r0, r5
 6353              	.LBE1603:
 6354              	.LBE1602:
 6355              	.LBB1606:
 6356              	.LBB1599:
  59:../../libs/DaisySP/Source/Synthesis/oscillator.h ****         eoc_       = true;
 6357              		.loc 7 59 20 view .LVU1584
 6358 0048 2C70     		strb	r4, [r5]
  58:../../libs/DaisySP/Source/Synthesis/oscillator.h ****         waveform_  = WAVE_SIN;
 6359              		.loc 7 58 20 view .LVU1585
 6360 004a C5ED077A 		vstr.32	s15, [r5, #28]
  59:../../libs/DaisySP/Source/Synthesis/oscillator.h ****         eoc_       = true;
 6361              		.loc 7 59 9 is_stmt 1 view .LVU1586
  60:../../libs/DaisySP/Source/Synthesis/oscillator.h ****         eor_       = true;
 6362              		.loc 7 60 9 view .LVU1587
  61:../../libs/DaisySP/Source/Synthesis/oscillator.h ****     }
 6363              		.loc 7 61 9 view .LVU1588
  61:../../libs/DaisySP/Source/Synthesis/oscillator.h ****     }
 6364              		.loc 7 61 20 is_stmt 0 view .LVU1589
 6365 004e 2B85     		strh	r3, [r5, #40]	@ movhi
 6366              	.LVL462:
  61:../../libs/DaisySP/Source/Synthesis/oscillator.h ****     }
 6367              		.loc 7 61 20 view .LVU1590
 6368              	.LBE1599:
 6369              	.LBE1606:
  55:main.cpp      ****     int oscFreq = 440;
 6370              		.loc 11 55 5 is_stmt 1 view .LVU1591
  56:main.cpp      ****     osc.SetFreq(oscFreq);
 6371              		.loc 11 56 5 view .LVU1592
 6372              	.LBB1607:
 6373              	.LBI1602:
  67:../../libs/DaisySP/Source/Synthesis/oscillator.h ****     {
 6374              		.loc 7 67 17 view .LVU1593
 6375              	.LBB1604:
  69:../../libs/DaisySP/Source/Synthesis/oscillator.h ****         phase_inc_ = CalcPhaseInc(f);
 6376              		.loc 7 69 9 view .LVU1594
  69:../../libs/DaisySP/Source/Synthesis/oscillator.h ****         phase_inc_ = CalcPhaseInc(f);
 6377              		.loc 7 69 20 is_stmt 0 view .LVU1595
 6378 0050 85ED020A 		vstr.32	s0, [r5, #8]
 6379              		.loc 7 70 9 is_stmt 1 view .LVU1596
 6380              		.loc 7 70 34 is_stmt 0 view .LVU1597
 6381 0054 FFF7FEFF 		bl	_ZN7daisysp10Oscillator12CalcPhaseIncEf
 6382              	.LVL463:
 6383 0058 3C23     		movs	r3, #60
 6384 005a 1022     		movs	r2, #16
 6385 005c 2449     		ldr	r1, .L417+24
 6386 005e 8DF82430 		strb	r3, [sp, #36]
 6387              	.LBE1604:
 6388              	.LBE1607:
 6389              	.LBB1608:
ARM GAS  C:\Users\matte\AppData\Local\Temp\ccrMwnXK.s 			page 175


 6390              	.LBB1609:
  71:../../libs/DaisySP/Source/Synthesis/oscillator.h ****     }
  72:../../libs/DaisySP/Source/Synthesis/oscillator.h **** 
  73:../../libs/DaisySP/Source/Synthesis/oscillator.h **** 
  74:../../libs/DaisySP/Source/Synthesis/oscillator.h ****     /** Sets the amplitude of the waveform.
  75:../../libs/DaisySP/Source/Synthesis/oscillator.h ****     */
  76:../../libs/DaisySP/Source/Synthesis/oscillator.h ****     inline void SetAmp(const float a) { amp_ = a; }
 6391              		.loc 7 76 46 view .LVU1598
 6392 0062 244B     		ldr	r3, .L417+28
 6393 0064 8DF82020 		strb	r2, [sp, #32]
 6394 0068 0222     		movs	r2, #2
 6395 006a 6B60     		str	r3, [r5, #4]	@ float
 6396              	.LBE1609:
 6397              	.LBE1608:
 6398              	.LBB1611:
 6399              	.LBB1612:
  25:../../libs/PoliTeKDSP/libs/libDaisy/src/hid/disp/oled_display.h **** 
 6400              		.loc 8 25 44 view .LVU1599
 6401 006c 0AAB     		add	r3, sp, #40
 6402 006e 0794     		str	r4, [sp, #28]
 6403 0070 0591     		str	r1, [sp, #20]
 6404 0072 0692     		str	r2, [sp, #24]
 6405 0074 0494     		str	r4, [sp, #16]
 6406              	.LBE1612:
 6407              	.LBE1611:
  55:main.cpp      ****     osc.SetFreq(oscFreq);
 6408              		.loc 11 55 9 view .LVU1600
 6409 0076 4FF4DC74 		mov	r4, #440
 6410              	.LBB1614:
 6411              	.LBB1605:
  70:../../libs/DaisySP/Source/Synthesis/oscillator.h ****     }
 6412              		.loc 7 70 20 view .LVU1601
 6413 007a 85ED070A 		vstr.32	s0, [r5, #28]
 6414              	.LVL464:
  70:../../libs/DaisySP/Source/Synthesis/oscillator.h ****     }
 6415              		.loc 7 70 20 view .LVU1602
 6416              	.LBE1605:
 6417              	.LBE1614:
  57:main.cpp      ****     osc.SetAmp(0.05f);
 6418              		.loc 11 57 5 is_stmt 1 view .LVU1603
 6419              	.LBB1615:
 6420              	.LBI1608:
 6421              		.loc 7 76 17 view .LVU1604
 6422              	.LBB1610:
 6423              		.loc 7 76 41 view .LVU1605
 6424              		.loc 7 76 41 is_stmt 0 view .LVU1606
 6425              	.LBE1610:
 6426              	.LBE1615:
  58:main.cpp      ****     MyOledDisplay::Config disp_cfg;
 6427              		.loc 11 58 5 is_stmt 1 view .LVU1607
 6428              	.LBB1616:
 6429              	.LBI1616:
  20:../../libs/PoliTeKDSP/libs/libDaisy/src/hid/disp/oled_display.h ****     {
 6430              		.loc 8 20 12 view .LVU1608
 6431              	.LBB1617:
 6432              	.LBI1617:
 236:../../libs/PoliTeKDSP/libs/libDaisy/src/dev/oled_ssd130x.h ****     {
ARM GAS  C:\Users\matte\AppData\Local\Temp\ccrMwnXK.s 			page 176


 6433              		.loc 10 236 12 view .LVU1609
 6434              	.LBB1618:
 6435              	.LBI1618:
  20:../../libs/PoliTeKDSP/libs/libDaisy/src/dev/oled_ssd130x.h ****         {
 6436              		.loc 10 20 9 view .LVU1610
 6437              	.LBB1619:
 6438              	.LBI1619:
 6439              		.file 14 "../../libs/libDaisy/src/per/i2c.h"
   1:../../libs/libDaisy/src/per/i2c.h **** #pragma once
   2:../../libs/libDaisy/src/per/i2c.h **** #include "util/hal_map.h"
   3:../../libs/libDaisy/src/per/i2c.h **** #include "daisy_core.h"
   4:../../libs/libDaisy/src/per/i2c.h **** 
   5:../../libs/libDaisy/src/per/i2c.h **** namespace daisy
   6:../../libs/libDaisy/src/per/i2c.h **** {
   7:../../libs/libDaisy/src/per/i2c.h **** /** A handle for interacting with an I2C peripheral. This is a dumb
   8:../../libs/libDaisy/src/per/i2c.h ****  *  gateway that internally points to one of the four I2C peripherals
   9:../../libs/libDaisy/src/per/i2c.h ****  *  after it was initialised. It can then be copied and passed around.
  10:../../libs/libDaisy/src/per/i2c.h ****  *  Use an I2CHandle like this:
  11:../../libs/libDaisy/src/per/i2c.h ****  *  
  12:../../libs/libDaisy/src/per/i2c.h ****  *      // setup the configuration
  13:../../libs/libDaisy/src/per/i2c.h ****  *      I2CHandle::Config i2c_conf;
  14:../../libs/libDaisy/src/per/i2c.h ****  *      i2c_conf.periph = I2CHandle::Config::Peripheral::I2C_1;
  15:../../libs/libDaisy/src/per/i2c.h ****  *      i2c_conf.speed  = I2CHandle::Config::Speed::I2C_400KHZ;
  16:../../libs/libDaisy/src/per/i2c.h ****  *      i2c_conf.mode   = I2CHandle::Config::Mode::Master;
  17:../../libs/libDaisy/src/per/i2c.h ****  *      i2c_conf.pin_config.scl  = {DSY_GPIOB, 8};
  18:../../libs/libDaisy/src/per/i2c.h ****  *      i2c_conf.pin_config.sda  = {DSY_GPIOB, 9};
  19:../../libs/libDaisy/src/per/i2c.h ****  *      // initialise the peripheral
  20:../../libs/libDaisy/src/per/i2c.h ****  *      I2CHandle i2c;
  21:../../libs/libDaisy/src/per/i2c.h ****  *      i2c.Init(i2c_conf);
  22:../../libs/libDaisy/src/per/i2c.h ****  *      // now i2c points to the corresponding peripheral and can be used.
  23:../../libs/libDaisy/src/per/i2c.h ****  *      i2c.TransmitBlocking( ... );
  24:../../libs/libDaisy/src/per/i2c.h ****  */
  25:../../libs/libDaisy/src/per/i2c.h **** class I2CHandle
  26:../../libs/libDaisy/src/per/i2c.h **** {
  27:../../libs/libDaisy/src/per/i2c.h ****   public:
  28:../../libs/libDaisy/src/per/i2c.h ****     /** Contains settings for initialising an I2C interface. */
  29:../../libs/libDaisy/src/per/i2c.h ****     struct Config
 6440              		.loc 14 29 12 view .LVU1611
 6441              	.LBB1620:
 6442              	.LBI1620:
  30:../../libs/libDaisy/src/per/i2c.h ****     {
  31:../../libs/libDaisy/src/per/i2c.h ****         /** Specifies whether the interface will operate in master or slave mode. */
  32:../../libs/libDaisy/src/per/i2c.h ****         enum class Mode
  33:../../libs/libDaisy/src/per/i2c.h ****         {
  34:../../libs/libDaisy/src/per/i2c.h ****             I2C_MASTER,
  35:../../libs/libDaisy/src/per/i2c.h ****             I2C_SLAVE,
  36:../../libs/libDaisy/src/per/i2c.h ****         };
  37:../../libs/libDaisy/src/per/i2c.h **** 
  38:../../libs/libDaisy/src/per/i2c.h ****         /** Specifices the internal peripheral to use (these are mapped to different pins on the ha
  39:../../libs/libDaisy/src/per/i2c.h ****         enum class Peripheral
  40:../../libs/libDaisy/src/per/i2c.h ****         {
  41:../../libs/libDaisy/src/per/i2c.h ****             I2C_1 = 0, /**< & */
  42:../../libs/libDaisy/src/per/i2c.h ****             I2C_2,     /**< & */
  43:../../libs/libDaisy/src/per/i2c.h ****             I2C_3,     /**< & */
  44:../../libs/libDaisy/src/per/i2c.h ****             I2C_4,     /**< & */
  45:../../libs/libDaisy/src/per/i2c.h ****         };
  46:../../libs/libDaisy/src/per/i2c.h **** 
ARM GAS  C:\Users\matte\AppData\Local\Temp\ccrMwnXK.s 			page 177


  47:../../libs/libDaisy/src/per/i2c.h ****         /** Rate at which the clock/data will be sent/received. The device being used will have max
  48:../../libs/libDaisy/src/per/i2c.h ****          *  1MHZ Mode is currently 886kHz
  49:../../libs/libDaisy/src/per/i2c.h ****          */
  50:../../libs/libDaisy/src/per/i2c.h ****         enum class Speed
  51:../../libs/libDaisy/src/per/i2c.h ****         {
  52:../../libs/libDaisy/src/per/i2c.h ****             I2C_100KHZ, /**< & */
  53:../../libs/libDaisy/src/per/i2c.h ****             I2C_400KHZ, /**< & */
  54:../../libs/libDaisy/src/per/i2c.h ****             I2C_1MHZ,   /**< & */
  55:../../libs/libDaisy/src/per/i2c.h ****         };
  56:../../libs/libDaisy/src/per/i2c.h **** 
  57:../../libs/libDaisy/src/per/i2c.h ****         Peripheral periph; /**< & */
  58:../../libs/libDaisy/src/per/i2c.h ****         struct
  59:../../libs/libDaisy/src/per/i2c.h ****         {
 6443              		.loc 14 59 9 view .LVU1612
 6444              	.LBB1621:
 6445              	.LBI1621:
 6446              		.file 15 "../../libs/libDaisy/src/daisy_core.h"
   1:../../libs/libDaisy/src/daisy_core.h **** #pragma once
   2:../../libs/libDaisy/src/daisy_core.h **** #ifndef DSY_CORE_HW_H
   3:../../libs/libDaisy/src/daisy_core.h **** #define DSY_CORE_HW_H /**< & */
   4:../../libs/libDaisy/src/daisy_core.h **** #include <stdint.h>
   5:../../libs/libDaisy/src/daisy_core.h **** #include <stdlib.h>
   6:../../libs/libDaisy/src/daisy_core.h **** 
   7:../../libs/libDaisy/src/daisy_core.h **** #if defined(_MSC_VER)
   8:../../libs/libDaisy/src/daisy_core.h **** #define FORCE_INLINE __forceinline /**< & */
   9:../../libs/libDaisy/src/daisy_core.h **** #elif defined(__clang__)
  10:../../libs/libDaisy/src/daisy_core.h **** #define FORCE_INLINE inline __attribute__((always_inline)) /**< & */
  11:../../libs/libDaisy/src/daisy_core.h **** #pragma clang diagnostic ignored "-Wduplicate-decl-specifier"
  12:../../libs/libDaisy/src/daisy_core.h **** #elif defined(__GNUC__)
  13:../../libs/libDaisy/src/daisy_core.h **** #define FORCE_INLINE inline __attribute__((always_inline)) /**< & */
  14:../../libs/libDaisy/src/daisy_core.h **** #else
  15:../../libs/libDaisy/src/daisy_core.h **** #error unknown compiler
  16:../../libs/libDaisy/src/daisy_core.h **** #endif
  17:../../libs/libDaisy/src/daisy_core.h **** 
  18:../../libs/libDaisy/src/daisy_core.h **** /** @addtogroup utility
  19:../../libs/libDaisy/src/daisy_core.h ****     @{
  20:../../libs/libDaisy/src/daisy_core.h **** */
  21:../../libs/libDaisy/src/daisy_core.h **** 
  22:../../libs/libDaisy/src/daisy_core.h **** /** Macro for area of memory that is configured as cacheless
  23:../../libs/libDaisy/src/daisy_core.h **** This should be used primarily for DMA buffers, and the like.
  24:../../libs/libDaisy/src/daisy_core.h **** */
  25:../../libs/libDaisy/src/daisy_core.h **** #define DMA_BUFFER_MEM_SECTION __attribute__((section(".sram1_bss")))
  26:../../libs/libDaisy/src/daisy_core.h **** /** 
  27:../../libs/libDaisy/src/daisy_core.h **** THE DTCM RAM section is also non-cached. However, is not suitable 
  28:../../libs/libDaisy/src/daisy_core.h **** for DMA transfers. Performance is on par with internal SRAM w/ 
  29:../../libs/libDaisy/src/daisy_core.h **** cache enabled.
  30:../../libs/libDaisy/src/daisy_core.h **** */
  31:../../libs/libDaisy/src/daisy_core.h **** #define DTCM_MEM_SECTION __attribute__((section(".dtcmram_bss")))
  32:../../libs/libDaisy/src/daisy_core.h **** 
  33:../../libs/libDaisy/src/daisy_core.h **** #define FBIPMAX 0.999985f             /**< close to 1.0f-LSB at 16 bit */
  34:../../libs/libDaisy/src/daisy_core.h **** #define FBIPMIN (-FBIPMAX)            /**< - (1 - LSB) */
  35:../../libs/libDaisy/src/daisy_core.h **** #define U82F_SCALE 0.0078740f         /**< 1 / 127 */
  36:../../libs/libDaisy/src/daisy_core.h **** #define F2U8_SCALE 127.0f             /**< 128 - 1 */
  37:../../libs/libDaisy/src/daisy_core.h **** #define S82F_SCALE 0.0078125f         /**< 1 / (2**7) */
  38:../../libs/libDaisy/src/daisy_core.h **** #define F2S8_SCALE 127.0f             /**< (2 ** 7) - 1 */
  39:../../libs/libDaisy/src/daisy_core.h **** #define S162F_SCALE 3.0517578125e-05f /**< 1 / (2** 15) */
  40:../../libs/libDaisy/src/daisy_core.h **** #define F2S16_SCALE 32767.0f          /**< (2 ** 15) - 1 */
ARM GAS  C:\Users\matte\AppData\Local\Temp\ccrMwnXK.s 			page 178


  41:../../libs/libDaisy/src/daisy_core.h **** #define F2S24_SCALE 8388608.0f        /**< 2 ** 23 */
  42:../../libs/libDaisy/src/daisy_core.h **** #define S242F_SCALE 1.192092896e-07f  /**< 1 / (2 ** 23) */
  43:../../libs/libDaisy/src/daisy_core.h **** #define S24SIGN 0x800000              /**< 2 ** 23 */
  44:../../libs/libDaisy/src/daisy_core.h **** #define S322F_SCALE 4.6566129e-10f    /**< 1 / (2** 31) */
  45:../../libs/libDaisy/src/daisy_core.h **** #define F2S32_SCALE 2147483647.f      /**< (2 ** 31) - 1 */
  46:../../libs/libDaisy/src/daisy_core.h **** 
  47:../../libs/libDaisy/src/daisy_core.h **** 
  48:../../libs/libDaisy/src/daisy_core.h **** /** shorthand macro for simplifying the reading of the left 
  49:../../libs/libDaisy/src/daisy_core.h ****  *  channel of a non-interleaved output buffer named out */
  50:../../libs/libDaisy/src/daisy_core.h **** #define OUT_L out[0]
  51:../../libs/libDaisy/src/daisy_core.h **** 
  52:../../libs/libDaisy/src/daisy_core.h **** /** shorthand macro for simplifying the reading of the right 
  53:../../libs/libDaisy/src/daisy_core.h ****  *  channel of a non-interleaved output buffer named out */
  54:../../libs/libDaisy/src/daisy_core.h **** #define OUT_R out[1]
  55:../../libs/libDaisy/src/daisy_core.h **** 
  56:../../libs/libDaisy/src/daisy_core.h **** /** shorthand macro for simplifying the reading of the left 
  57:../../libs/libDaisy/src/daisy_core.h ****  *  channel of a non-interleaved input buffer named in */
  58:../../libs/libDaisy/src/daisy_core.h **** #define IN_L in[0]
  59:../../libs/libDaisy/src/daisy_core.h **** 
  60:../../libs/libDaisy/src/daisy_core.h **** /** shorthand macro for simplifying the reading of the right 
  61:../../libs/libDaisy/src/daisy_core.h ****  *  channel of a non-interleaved input buffer named in */
  62:../../libs/libDaisy/src/daisy_core.h **** #define IN_R in[1]
  63:../../libs/libDaisy/src/daisy_core.h **** 
  64:../../libs/libDaisy/src/daisy_core.h **** /** 
  65:../../libs/libDaisy/src/daisy_core.h ****     Computes cube.
  66:../../libs/libDaisy/src/daisy_core.h ****     \param x Number to be cubed
  67:../../libs/libDaisy/src/daisy_core.h ****     \return x ^ 3
  68:../../libs/libDaisy/src/daisy_core.h **** */
  69:../../libs/libDaisy/src/daisy_core.h **** FORCE_INLINE float cube(float x)
  70:../../libs/libDaisy/src/daisy_core.h **** {
  71:../../libs/libDaisy/src/daisy_core.h ****     return (x * x) * x;
  72:../../libs/libDaisy/src/daisy_core.h **** }
  73:../../libs/libDaisy/src/daisy_core.h **** 
  74:../../libs/libDaisy/src/daisy_core.h **** /** 
  75:../../libs/libDaisy/src/daisy_core.h ****     Converts unsigned 8-bit to float
  76:../../libs/libDaisy/src/daisy_core.h ****     \param x Number to be scaled.
  77:../../libs/libDaisy/src/daisy_core.h ****     \return Scaled number.
  78:../../libs/libDaisy/src/daisy_core.h **** */
  79:../../libs/libDaisy/src/daisy_core.h **** FORCE_INLINE float u82f(uint8_t x)
  80:../../libs/libDaisy/src/daisy_core.h **** {
  81:../../libs/libDaisy/src/daisy_core.h ****     return ((float)x - 127.f) * U82F_SCALE;
  82:../../libs/libDaisy/src/daisy_core.h **** }
  83:../../libs/libDaisy/src/daisy_core.h **** 
  84:../../libs/libDaisy/src/daisy_core.h **** /**
  85:../../libs/libDaisy/src/daisy_core.h ****     Converts float to unsigned 8-bit
  86:../../libs/libDaisy/src/daisy_core.h **** */
  87:../../libs/libDaisy/src/daisy_core.h **** FORCE_INLINE uint8_t f2u8(float x)
  88:../../libs/libDaisy/src/daisy_core.h **** {
  89:../../libs/libDaisy/src/daisy_core.h ****     x = x <= FBIPMIN ? FBIPMIN : x;
  90:../../libs/libDaisy/src/daisy_core.h ****     x = x >= FBIPMAX ? FBIPMAX : x;
  91:../../libs/libDaisy/src/daisy_core.h ****     return (uint8_t)((x * F2U8_SCALE) + F2U8_SCALE);
  92:../../libs/libDaisy/src/daisy_core.h **** }
  93:../../libs/libDaisy/src/daisy_core.h **** 
  94:../../libs/libDaisy/src/daisy_core.h **** 
  95:../../libs/libDaisy/src/daisy_core.h **** /** 
  96:../../libs/libDaisy/src/daisy_core.h ****     Converts Signed 8-bit to float
  97:../../libs/libDaisy/src/daisy_core.h ****     \param x Number to be scaled.
ARM GAS  C:\Users\matte\AppData\Local\Temp\ccrMwnXK.s 			page 179


  98:../../libs/libDaisy/src/daisy_core.h ****     \return Scaled number.
  99:../../libs/libDaisy/src/daisy_core.h **** */
 100:../../libs/libDaisy/src/daisy_core.h **** FORCE_INLINE float s82f(int8_t x)
 101:../../libs/libDaisy/src/daisy_core.h **** {
 102:../../libs/libDaisy/src/daisy_core.h ****     return (float)x * S82F_SCALE;
 103:../../libs/libDaisy/src/daisy_core.h **** }
 104:../../libs/libDaisy/src/daisy_core.h **** 
 105:../../libs/libDaisy/src/daisy_core.h **** /**
 106:../../libs/libDaisy/src/daisy_core.h ****     Converts float to Signed 8-bit
 107:../../libs/libDaisy/src/daisy_core.h **** */
 108:../../libs/libDaisy/src/daisy_core.h **** FORCE_INLINE int8_t f2s8(float x)
 109:../../libs/libDaisy/src/daisy_core.h **** {
 110:../../libs/libDaisy/src/daisy_core.h ****     x = x <= FBIPMIN ? FBIPMIN : x;
 111:../../libs/libDaisy/src/daisy_core.h ****     x = x >= FBIPMAX ? FBIPMAX : x;
 112:../../libs/libDaisy/src/daisy_core.h ****     return (int32_t)(x * F2S8_SCALE);
 113:../../libs/libDaisy/src/daisy_core.h **** }
 114:../../libs/libDaisy/src/daisy_core.h **** 
 115:../../libs/libDaisy/src/daisy_core.h **** /** 
 116:../../libs/libDaisy/src/daisy_core.h ****     Converts Signed 16-bit to float
 117:../../libs/libDaisy/src/daisy_core.h ****     \param x Number to be scaled.
 118:../../libs/libDaisy/src/daisy_core.h ****     \return Scaled number.
 119:../../libs/libDaisy/src/daisy_core.h **** */
 120:../../libs/libDaisy/src/daisy_core.h **** FORCE_INLINE float s162f(int16_t x)
 121:../../libs/libDaisy/src/daisy_core.h **** {
 122:../../libs/libDaisy/src/daisy_core.h ****     return (float)x * S162F_SCALE;
 123:../../libs/libDaisy/src/daisy_core.h **** }
 124:../../libs/libDaisy/src/daisy_core.h **** 
 125:../../libs/libDaisy/src/daisy_core.h **** /**
 126:../../libs/libDaisy/src/daisy_core.h ****     Converts float to Signed 16-bit
 127:../../libs/libDaisy/src/daisy_core.h **** */
 128:../../libs/libDaisy/src/daisy_core.h **** FORCE_INLINE int16_t f2s16(float x)
 129:../../libs/libDaisy/src/daisy_core.h **** {
 130:../../libs/libDaisy/src/daisy_core.h ****     x = x <= FBIPMIN ? FBIPMIN : x;
 131:../../libs/libDaisy/src/daisy_core.h ****     x = x >= FBIPMAX ? FBIPMAX : x;
 132:../../libs/libDaisy/src/daisy_core.h ****     return (int32_t)(x * F2S16_SCALE);
 133:../../libs/libDaisy/src/daisy_core.h **** }
 134:../../libs/libDaisy/src/daisy_core.h **** 
 135:../../libs/libDaisy/src/daisy_core.h **** /**
 136:../../libs/libDaisy/src/daisy_core.h ****     Converts Signed 24-bit to float
 137:../../libs/libDaisy/src/daisy_core.h ****  */
 138:../../libs/libDaisy/src/daisy_core.h **** FORCE_INLINE float s242f(int32_t x)
 139:../../libs/libDaisy/src/daisy_core.h **** {
 140:../../libs/libDaisy/src/daisy_core.h ****     x = (x ^ S24SIGN) - S24SIGN; //sign extend aka ((x<<8)>>8)
 141:../../libs/libDaisy/src/daisy_core.h ****     return (float)x * S242F_SCALE;
 142:../../libs/libDaisy/src/daisy_core.h **** }
 143:../../libs/libDaisy/src/daisy_core.h **** /**
 144:../../libs/libDaisy/src/daisy_core.h ****     Converts float to Signed 24-bit
 145:../../libs/libDaisy/src/daisy_core.h ****  */
 146:../../libs/libDaisy/src/daisy_core.h **** FORCE_INLINE int32_t f2s24(float x)
 147:../../libs/libDaisy/src/daisy_core.h **** {
 148:../../libs/libDaisy/src/daisy_core.h ****     x = x <= FBIPMIN ? FBIPMIN : x;
 149:../../libs/libDaisy/src/daisy_core.h ****     x = x >= FBIPMAX ? FBIPMAX : x;
 150:../../libs/libDaisy/src/daisy_core.h ****     return (int32_t)(x * F2S24_SCALE);
 151:../../libs/libDaisy/src/daisy_core.h **** }
 152:../../libs/libDaisy/src/daisy_core.h **** 
 153:../../libs/libDaisy/src/daisy_core.h **** /**
 154:../../libs/libDaisy/src/daisy_core.h ****     Converts Signed 32-bit to float
ARM GAS  C:\Users\matte\AppData\Local\Temp\ccrMwnXK.s 			page 180


 155:../../libs/libDaisy/src/daisy_core.h ****  */
 156:../../libs/libDaisy/src/daisy_core.h **** FORCE_INLINE float s322f(int32_t x)
 157:../../libs/libDaisy/src/daisy_core.h **** {
 158:../../libs/libDaisy/src/daisy_core.h ****     return (float)x * S322F_SCALE;
 159:../../libs/libDaisy/src/daisy_core.h **** }
 160:../../libs/libDaisy/src/daisy_core.h **** /**
 161:../../libs/libDaisy/src/daisy_core.h ****     Converts float to Signed 24-bit
 162:../../libs/libDaisy/src/daisy_core.h ****  */
 163:../../libs/libDaisy/src/daisy_core.h **** FORCE_INLINE int32_t f2s32(float x)
 164:../../libs/libDaisy/src/daisy_core.h **** {
 165:../../libs/libDaisy/src/daisy_core.h ****     x = x <= FBIPMIN ? FBIPMIN : x;
 166:../../libs/libDaisy/src/daisy_core.h ****     x = x >= FBIPMAX ? FBIPMAX : x;
 167:../../libs/libDaisy/src/daisy_core.h ****     return (int32_t)(x * F2S32_SCALE);
 168:../../libs/libDaisy/src/daisy_core.h **** }
 169:../../libs/libDaisy/src/daisy_core.h **** 
 170:../../libs/libDaisy/src/daisy_core.h **** #ifdef __cplusplus
 171:../../libs/libDaisy/src/daisy_core.h **** 
 172:../../libs/libDaisy/src/daisy_core.h **** namespace daisy
 173:../../libs/libDaisy/src/daisy_core.h **** {
 174:../../libs/libDaisy/src/daisy_core.h **** /** @brief GPIO Port names */
 175:../../libs/libDaisy/src/daisy_core.h **** enum GPIOPort
 176:../../libs/libDaisy/src/daisy_core.h **** {
 177:../../libs/libDaisy/src/daisy_core.h ****     PORTA, /**< Port A */
 178:../../libs/libDaisy/src/daisy_core.h ****     PORTB, /**< Port B */
 179:../../libs/libDaisy/src/daisy_core.h ****     PORTC, /**< Port C */
 180:../../libs/libDaisy/src/daisy_core.h ****     PORTD, /**< Port D */
 181:../../libs/libDaisy/src/daisy_core.h ****     PORTE, /**< Port E */
 182:../../libs/libDaisy/src/daisy_core.h ****     PORTF, /**< Port F */
 183:../../libs/libDaisy/src/daisy_core.h ****     PORTG, /**< Port G */
 184:../../libs/libDaisy/src/daisy_core.h ****     PORTH, /**< Port H */
 185:../../libs/libDaisy/src/daisy_core.h ****     PORTI, /**< Port I */
 186:../../libs/libDaisy/src/daisy_core.h ****     PORTJ, /**< Port J */
 187:../../libs/libDaisy/src/daisy_core.h ****     PORTK, /**< Port K */
 188:../../libs/libDaisy/src/daisy_core.h ****     PORTX, /**< Used as a dummy port to signal an invalid pin. */
 189:../../libs/libDaisy/src/daisy_core.h **** };
 190:../../libs/libDaisy/src/daisy_core.h **** 
 191:../../libs/libDaisy/src/daisy_core.h **** /** @brief representation of hardware port/pin combination */
 192:../../libs/libDaisy/src/daisy_core.h **** struct Pin
 193:../../libs/libDaisy/src/daisy_core.h **** {
 194:../../libs/libDaisy/src/daisy_core.h ****     GPIOPort port;
 195:../../libs/libDaisy/src/daisy_core.h ****     uint8_t  pin;
 196:../../libs/libDaisy/src/daisy_core.h **** 
 197:../../libs/libDaisy/src/daisy_core.h ****     /** @brief Constructor creates a valid pin. 
 198:../../libs/libDaisy/src/daisy_core.h ****      *  @param pt GPIOPort between PA, and PK corresponding to STM32 Port.
 199:../../libs/libDaisy/src/daisy_core.h ****      *  @param pn pin number in range of 0-15
 200:../../libs/libDaisy/src/daisy_core.h ****     */
 201:../../libs/libDaisy/src/daisy_core.h ****     constexpr Pin(const GPIOPort pt, const uint8_t pn) : port(pt), pin(pn) {}
 202:../../libs/libDaisy/src/daisy_core.h **** 
 203:../../libs/libDaisy/src/daisy_core.h ****     /** @brief Basic Constructor creates an invalid Pin object */
 204:../../libs/libDaisy/src/daisy_core.h ****     constexpr Pin() : port(PORTX), pin(255) {}
 6447              		.loc 15 204 15 view .LVU1613
 6448              		.loc 15 204 15 is_stmt 0 view .LVU1614
 6449              	.LBE1621:
 6450              	.LBB1622:
 6451              	.LBI1622:
 6452              		.loc 15 204 15 is_stmt 1 view .LVU1615
 6453              		.loc 15 204 15 is_stmt 0 view .LVU1616
ARM GAS  C:\Users\matte\AppData\Local\Temp\ccrMwnXK.s 			page 181


 6454              	.LBE1622:
 6455              	.LBE1620:
 6456              	.LBE1619:
 6457              	.LBE1618:
 6458              	.LBE1617:
 6459              	.LBE1616:
  23:../../libs/PoliTeKDSP/libs/libDaisy/src/dev/oled_ssd130x.h ****         }
 6460              		.loc 10 23 13 is_stmt 1 view .LVU1617
 6461              	.LBB1634:
 6462              	.LBB1631:
 6463              	.LBB1628:
 6464              	.LBB1623:
 6465              	.LBI1623:
  27:../../libs/PoliTeKDSP/libs/libDaisy/src/dev/oled_ssd130x.h ****         {
 6466              		.loc 10 27 27 view .LVU1618
 6467              	.LBE1623:
 6468              	.LBE1628:
 6469              	.LBE1631:
 6470              	.LBE1634:
  29:../../libs/PoliTeKDSP/libs/libDaisy/src/dev/oled_ssd130x.h ****             i2c_config.speed          = I2CHandle::Config::Speed::I2C_1MHZ;
 6471              		.loc 10 29 13 view .LVU1619
  30:../../libs/PoliTeKDSP/libs/libDaisy/src/dev/oled_ssd130x.h ****             i2c_config.mode           = I2CHandle::Config::Mode::I2C_MASTER;
 6472              		.loc 10 30 13 view .LVU1620
  31:../../libs/PoliTeKDSP/libs/libDaisy/src/dev/oled_ssd130x.h ****             i2c_config.pin_config.scl = Pin(PORTB, 8);
 6473              		.loc 10 31 13 view .LVU1621
  32:../../libs/PoliTeKDSP/libs/libDaisy/src/dev/oled_ssd130x.h ****             i2c_config.pin_config.sda = Pin(PORTB, 9);
 6474              		.loc 10 32 13 view .LVU1622
 6475              	.LBB1635:
 6476              	.LBB1632:
 6477              	.LBB1629:
 6478              	.LBB1626:
 6479              	.LBB1624:
 6480              	.LBI1624:
 201:../../libs/libDaisy/src/daisy_core.h **** 
 6481              		.loc 15 201 15 view .LVU1623
 201:../../libs/libDaisy/src/daisy_core.h **** 
 6482              		.loc 15 201 15 is_stmt 0 view .LVU1624
 6483              	.LBE1624:
 6484              	.LBE1626:
 6485              	.LBE1629:
 6486              	.LBE1632:
 6487              	.LBE1635:
  33:../../libs/PoliTeKDSP/libs/libDaisy/src/dev/oled_ssd130x.h ****             i2c_address               = 0x3C;
 6488              		.loc 10 33 13 is_stmt 1 view .LVU1625
 6489              	.LBB1636:
 6490              	.LBB1633:
 6491              	.LBB1630:
 6492              	.LBB1627:
 6493              	.LBB1625:
 6494              	.LBI1625:
 201:../../libs/libDaisy/src/daisy_core.h **** 
 6495              		.loc 15 201 15 view .LVU1626
 201:../../libs/libDaisy/src/daisy_core.h **** 
 6496              		.loc 15 201 15 is_stmt 0 view .LVU1627
 6497              	.LBE1625:
 6498              	.LBE1627:
 6499              	.LBE1630:
ARM GAS  C:\Users\matte\AppData\Local\Temp\ccrMwnXK.s 			page 182


 6500              	.LBE1633:
 6501              	.LBE1636:
  34:../../libs/PoliTeKDSP/libs/libDaisy/src/dev/oled_ssd130x.h ****         }
 6502              		.loc 10 34 13 is_stmt 1 view .LVU1628
  59:main.cpp      ****     disp.Init(disp_cfg);
 6503              		.loc 11 59 5 view .LVU1629
 6504              	.LBB1637:
 6505              	.LBI1611:
  25:../../libs/PoliTeKDSP/libs/libDaisy/src/hid/disp/oled_display.h **** 
 6506              		.loc 8 25 10 view .LVU1630
 6507              	.LBB1613:
  25:../../libs/PoliTeKDSP/libs/libDaisy/src/hid/disp/oled_display.h **** 
 6508              		.loc 8 25 44 is_stmt 0 view .LVU1631
 6509 007e 13E90700 		ldmdb	r3, {r0, r1, r2}
 6510 0082 04AB     		add	r3, sp, #16
 6511 0084 8DE80700 		stm	sp, {r0, r1, r2}
 6512 0088 1B48     		ldr	r0, .L417+32
 6513 008a 0ECB     		ldm	r3, {r1, r2, r3}
 6514 008c FFF7FEFF 		bl	_ZN5daisy13SSD130xDriverILj128ELj64ENS_19SSD130xI2CTransportEE4InitENS2_6ConfigE
 6515              	.LVL465:
  25:../../libs/PoliTeKDSP/libs/libDaisy/src/hid/disp/oled_display.h **** 
 6516              		.loc 8 25 44 view .LVU1632
 6517              	.LBE1613:
 6518              	.LBE1637:
  60:main.cpp      ****     disp_handle.SetState(DisplayState::WAVEFORM_VIEWER); 
 6519              		.loc 11 60 5 is_stmt 1 view .LVU1633
 6520              		.loc 11 60 25 is_stmt 0 view .LVU1634
 6521 0090 0121     		movs	r1, #1
 6522 0092 1A48     		ldr	r0, .L417+36
 6523 0094 FFF7FEFF 		bl	_ZN14DisplayHandler8SetStateE12DisplayState
 6524              	.LVL466:
  61:main.cpp      ****     hw.StartAudio(AudioCallback);
 6525              		.loc 11 61 5 is_stmt 1 view .LVU1635
 6526              		.loc 11 61 18 is_stmt 0 view .LVU1636
 6527 0098 1949     		ldr	r1, .L417+40
 6528 009a 0F48     		ldr	r0, .L417
 6529 009c FFF7FEFF 		bl	_ZN5daisy9DaisySeed10StartAudioEPFvPKfPfjE
 6530              	.LVL467:
  62:main.cpp      ****     int i = 440;
 6531              		.loc 11 62 5 is_stmt 1 view .LVU1637
 6532              	.L415:
  63:main.cpp      ****     while (1){
 6533              		.loc 11 63 5 discriminator 1 view .LVU1638
  64:main.cpp      ****         i = (i + 1) % 440;
 6534              		.loc 11 64 9 discriminator 1 view .LVU1639
 6535              		.loc 11 64 16 is_stmt 0 discriminator 1 view .LVU1640
 6536 00a0 631C     		adds	r3, r4, #1
 6537              		.loc 11 64 11 discriminator 1 view .LVU1641
 6538 00a2 184A     		ldr	r2, .L417+44
 6539 00a4 4FF4DC71 		mov	r1, #440
 6540              	.LBB1638:
 6541              	.LBB1639:
  70:../../libs/DaisySP/Source/Synthesis/oscillator.h ****     }
 6542              		.loc 7 70 34 discriminator 1 view .LVU1642
 6543 00a8 0C48     		ldr	r0, .L417+4
 6544              	.LBE1639:
 6545              	.LBE1638:
ARM GAS  C:\Users\matte\AppData\Local\Temp\ccrMwnXK.s 			page 183


 6546              		.loc 11 64 11 discriminator 1 view .LVU1643
 6547 00aa 82FB0342 		smull	r4, r2, r2, r3
 6548              	.LVL468:
 6549              		.loc 11 64 11 discriminator 1 view .LVU1644
 6550 00ae DC17     		asrs	r4, r3, #31
 6551 00b0 C4EB2214 		rsb	r4, r4, r2, asr #4
 6552 00b4 01FB1434 		mls	r4, r1, r4, r3
 6553              	.LVL469:
  65:main.cpp      ****         oscFreq = (oscFreq +  1) % 440;
 6554              		.loc 11 65 9 is_stmt 1 discriminator 1 view .LVU1645
  66:main.cpp      ****         osc.SetFreq(oscFreq + 440);
 6555              		.loc 11 66 9 discriminator 1 view .LVU1646
 6556              		.loc 11 66 29 is_stmt 0 discriminator 1 view .LVU1647
 6557 00b8 6318     		adds	r3, r4, r1
 6558 00ba 00EE103A 		vmov	s0, r3	@ int
 6559              		.loc 11 66 20 discriminator 1 view .LVU1648
 6560 00be B8EEC00A 		vcvt.f32.s32	s0, s0
 6561              	.LVL470:
 6562              	.LBB1642:
 6563              	.LBI1638:
  67:../../libs/DaisySP/Source/Synthesis/oscillator.h ****     {
 6564              		.loc 7 67 17 is_stmt 1 discriminator 1 view .LVU1649
 6565              	.LBB1640:
  69:../../libs/DaisySP/Source/Synthesis/oscillator.h ****         phase_inc_ = CalcPhaseInc(f);
 6566              		.loc 7 69 9 discriminator 1 view .LVU1650
  69:../../libs/DaisySP/Source/Synthesis/oscillator.h ****         phase_inc_ = CalcPhaseInc(f);
 6567              		.loc 7 69 20 is_stmt 0 discriminator 1 view .LVU1651
 6568 00c2 85ED020A 		vstr.32	s0, [r5, #8]
  70:../../libs/DaisySP/Source/Synthesis/oscillator.h ****     }
 6569              		.loc 7 70 9 is_stmt 1 discriminator 1 view .LVU1652
  70:../../libs/DaisySP/Source/Synthesis/oscillator.h ****     }
 6570              		.loc 7 70 34 is_stmt 0 discriminator 1 view .LVU1653
 6571 00c6 FFF7FEFF 		bl	_ZN7daisysp10Oscillator12CalcPhaseIncEf
 6572              	.LVL471:
  70:../../libs/DaisySP/Source/Synthesis/oscillator.h ****     }
 6573              		.loc 7 70 34 discriminator 1 view .LVU1654
 6574              	.LBE1640:
 6575              	.LBE1642:
  67:main.cpp      ****         disp_handle.Update();
 6576              		.loc 11 67 27 discriminator 1 view .LVU1655
 6577 00ca 0C48     		ldr	r0, .L417+36
 6578              	.LBB1643:
 6579              	.LBB1641:
  70:../../libs/DaisySP/Source/Synthesis/oscillator.h ****     }
 6580              		.loc 7 70 20 discriminator 1 view .LVU1656
 6581 00cc 85ED070A 		vstr.32	s0, [r5, #28]
 6582              	.LVL472:
  70:../../libs/DaisySP/Source/Synthesis/oscillator.h ****     }
 6583              		.loc 7 70 20 discriminator 1 view .LVU1657
 6584              	.LBE1641:
 6585              	.LBE1643:
 6586              		.loc 11 67 9 is_stmt 1 discriminator 1 view .LVU1658
 6587              		.loc 11 67 27 is_stmt 0 discriminator 1 view .LVU1659
 6588 00d0 FFF7FEFF 		bl	_ZN14DisplayHandler6UpdateEv
 6589              	.LVL473:
  63:main.cpp      ****         i = (i + 1) % 440;
 6590              		.loc 11 63 5 is_stmt 1 discriminator 1 view .LVU1660
ARM GAS  C:\Users\matte\AppData\Local\Temp\ccrMwnXK.s 			page 184


 6591 00d4 E4E7     		b	.L415
 6592              	.L418:
 6593 00d6 00BF     		.align	2
 6594              	.L417:
 6595 00d8 00000000 		.word	.LANCHOR2
 6596 00dc 00000000 		.word	.LANCHOR0
 6597 00e0 00803B47 		.word	1195081728
 6598 00e4 3EC3AE37 		.word	934200126
 6599 00e8 0000C842 		.word	1120403456
 6600 00ec 0000DC43 		.word	1138491392
 6601 00f0 01080109 		.word	151062529
 6602 00f4 CDCC4C3D 		.word	1028443341
 6603 00f8 08000000 		.word	.LANCHOR3+8
 6604 00fc 00000000 		.word	.LANCHOR1
 6605 0100 00000000 		.word	_ZL13AudioCallbackPKfPfj
 6606 0104 95204F09 		.word	156180629
 6607              		.cfi_endproc
 6608              	.LFE4855:
 6610              		.section	.text.startup._GLOBAL__sub_I_hw,"ax",%progbits
 6611              		.align	1
 6612              		.p2align 2,,3
 6613              		.syntax unified
 6614              		.thumb
 6615              		.thumb_func
 6616              		.fpu fpv5-d16
 6618              	_GLOBAL__sub_I_hw:
 6619              	.LFB5464:
  68:main.cpp      ****         // hw.DelayMs(10); --> NO! this function creates noise
  69:main.cpp      ****     }
  70:main.cpp      ****     
  71:main.cpp      ****     return 0;
  72:main.cpp      **** 
  73:main.cpp      ****  }...
 6620              		.loc 11 73 2 view -0
 6621              		.cfi_startproc
 6622              		@ args = 0, pretend = 0, frame = 0
 6623              		@ frame_needed = 0, uses_anonymous_args = 0
 6624              	.LBB1723:
 6625              	.LBI1723:
 6626              		.loc 11 73 2 view .LVU1662
 6627              	.LVL474:
 6628              	.LBB1724:
 6629              	.LBB1725:
 6630              	.LBI1725:
  21:../../libs/PoliTeKDSP/libs/libDaisy/src/daisy_seed.h ****     ~DaisySeed() {}
 6631              		.loc 1 21 5 view .LVU1663
 6632              	.LBB1726:
 6633              	.LBB1727:
 6634              	.LBI1727:
 6635              		.file 16 "../../libs/PoliTeKDSP/libs/libDaisy/src/per/qspi.h"
   1:../../libs/PoliTeKDSP/libs/libDaisy/src/per/qspi.h **** #ifndef DSY_QSPI
   2:../../libs/PoliTeKDSP/libs/libDaisy/src/per/qspi.h **** #define DSY_QSPI /**< Macro */
   3:../../libs/PoliTeKDSP/libs/libDaisy/src/per/qspi.h **** 
   4:../../libs/PoliTeKDSP/libs/libDaisy/src/per/qspi.h **** #ifndef UNIT_TEST // for unit tests, a dummy implementation
   5:../../libs/PoliTeKDSP/libs/libDaisy/src/per/qspi.h **** 
   6:../../libs/PoliTeKDSP/libs/libDaisy/src/per/qspi.h **** #include <cstdint>
   7:../../libs/PoliTeKDSP/libs/libDaisy/src/per/qspi.h **** #include "daisy_core.h"
ARM GAS  C:\Users\matte\AppData\Local\Temp\ccrMwnXK.s 			page 185


   8:../../libs/PoliTeKDSP/libs/libDaisy/src/per/qspi.h **** #include "util/hal_map.h"
   9:../../libs/PoliTeKDSP/libs/libDaisy/src/per/qspi.h **** 
  10:../../libs/PoliTeKDSP/libs/libDaisy/src/per/qspi.h **** #define DSY_QSPI_TEXT       \
  11:../../libs/PoliTeKDSP/libs/libDaisy/src/per/qspi.h ****     __attribute__((section( \
  12:../../libs/PoliTeKDSP/libs/libDaisy/src/per/qspi.h ****         ".qspiflash_text"))) /**< used for reading memory in memory_mapped mode. */
  13:../../libs/PoliTeKDSP/libs/libDaisy/src/per/qspi.h **** #define DSY_QSPI_DATA       \
  14:../../libs/PoliTeKDSP/libs/libDaisy/src/per/qspi.h ****     __attribute__((section( \
  15:../../libs/PoliTeKDSP/libs/libDaisy/src/per/qspi.h ****         ".qspiflash_data"))) /**< used for reading memory in memory_mapped mode. */
  16:../../libs/PoliTeKDSP/libs/libDaisy/src/per/qspi.h **** #define DSY_QSPI_BSS        \
  17:../../libs/PoliTeKDSP/libs/libDaisy/src/per/qspi.h ****     __attribute__((section( \
  18:../../libs/PoliTeKDSP/libs/libDaisy/src/per/qspi.h ****         ".qspiflash_bss"))) /**< used for reading memory in memory_mapped mode. */
  19:../../libs/PoliTeKDSP/libs/libDaisy/src/per/qspi.h **** 
  20:../../libs/PoliTeKDSP/libs/libDaisy/src/per/qspi.h **** namespace daisy
  21:../../libs/PoliTeKDSP/libs/libDaisy/src/per/qspi.h **** {
  22:../../libs/PoliTeKDSP/libs/libDaisy/src/per/qspi.h **** /** @addtogroup serial
  23:../../libs/PoliTeKDSP/libs/libDaisy/src/per/qspi.h **** @{
  24:../../libs/PoliTeKDSP/libs/libDaisy/src/per/qspi.h **** */
  25:../../libs/PoliTeKDSP/libs/libDaisy/src/per/qspi.h **** 
  26:../../libs/PoliTeKDSP/libs/libDaisy/src/per/qspi.h **** /** 
  27:../../libs/PoliTeKDSP/libs/libDaisy/src/per/qspi.h ****  Driver for QSPI peripheral to interface with external flash memory. \n 
  28:../../libs/PoliTeKDSP/libs/libDaisy/src/per/qspi.h ****     Currently supported QSPI Devices: \n 
  29:../../libs/PoliTeKDSP/libs/libDaisy/src/per/qspi.h ****     * IS25LP080D
  30:../../libs/PoliTeKDSP/libs/libDaisy/src/per/qspi.h **** */
  31:../../libs/PoliTeKDSP/libs/libDaisy/src/per/qspi.h **** class QSPIHandle
  32:../../libs/PoliTeKDSP/libs/libDaisy/src/per/qspi.h **** {
  33:../../libs/PoliTeKDSP/libs/libDaisy/src/per/qspi.h ****   public:
  34:../../libs/PoliTeKDSP/libs/libDaisy/src/per/qspi.h ****     enum Result
  35:../../libs/PoliTeKDSP/libs/libDaisy/src/per/qspi.h ****     {
  36:../../libs/PoliTeKDSP/libs/libDaisy/src/per/qspi.h ****         OK = 0,
  37:../../libs/PoliTeKDSP/libs/libDaisy/src/per/qspi.h ****         ERR
  38:../../libs/PoliTeKDSP/libs/libDaisy/src/per/qspi.h ****     };
  39:../../libs/PoliTeKDSP/libs/libDaisy/src/per/qspi.h **** 
  40:../../libs/PoliTeKDSP/libs/libDaisy/src/per/qspi.h ****     /** Indicates the current status of the module. 
  41:../../libs/PoliTeKDSP/libs/libDaisy/src/per/qspi.h ****          *  Warnings are indicated by a leading W.
  42:../../libs/PoliTeKDSP/libs/libDaisy/src/per/qspi.h ****          *  Errors are indicated by a leading E and cause an immediate exit.
  43:../../libs/PoliTeKDSP/libs/libDaisy/src/per/qspi.h ****          * 
  44:../../libs/PoliTeKDSP/libs/libDaisy/src/per/qspi.h ****          *  \param GOOD - No errors have been reported.
  45:../../libs/PoliTeKDSP/libs/libDaisy/src/per/qspi.h ****          *  \param E_HAL_ERROR - HAL code did not return HAL_OK.
  46:../../libs/PoliTeKDSP/libs/libDaisy/src/per/qspi.h ****          *  \param E_SWITCHING_MODES - An error was encountered while switching QSPI peripheral mod
  47:../../libs/PoliTeKDSP/libs/libDaisy/src/per/qspi.h ****          *  \param E_INVALID_MODE - QSPI should not be written to while the program is executing fr
  48:../../libs/PoliTeKDSP/libs/libDaisy/src/per/qspi.h ****          */
  49:../../libs/PoliTeKDSP/libs/libDaisy/src/per/qspi.h ****     enum Status
  50:../../libs/PoliTeKDSP/libs/libDaisy/src/per/qspi.h ****     {
  51:../../libs/PoliTeKDSP/libs/libDaisy/src/per/qspi.h ****         GOOD = 0,
  52:../../libs/PoliTeKDSP/libs/libDaisy/src/per/qspi.h ****         E_HAL_ERROR,
  53:../../libs/PoliTeKDSP/libs/libDaisy/src/per/qspi.h ****         E_SWITCHING_MODES,
  54:../../libs/PoliTeKDSP/libs/libDaisy/src/per/qspi.h ****         E_INVALID_MODE,
  55:../../libs/PoliTeKDSP/libs/libDaisy/src/per/qspi.h ****     };
  56:../../libs/PoliTeKDSP/libs/libDaisy/src/per/qspi.h **** 
  57:../../libs/PoliTeKDSP/libs/libDaisy/src/per/qspi.h ****     /** Configuration structure for interfacing with QSPI Driver */
  58:../../libs/PoliTeKDSP/libs/libDaisy/src/per/qspi.h ****     struct Config
  59:../../libs/PoliTeKDSP/libs/libDaisy/src/per/qspi.h ****     {
  60:../../libs/PoliTeKDSP/libs/libDaisy/src/per/qspi.h ****         /** Flash Devices supported. (Both of these are more-or-less the same, just different sizes
  61:../../libs/PoliTeKDSP/libs/libDaisy/src/per/qspi.h ****         enum Device
  62:../../libs/PoliTeKDSP/libs/libDaisy/src/per/qspi.h ****         {
  63:../../libs/PoliTeKDSP/libs/libDaisy/src/per/qspi.h ****             IS25LP080D,  /**< & */
  64:../../libs/PoliTeKDSP/libs/libDaisy/src/per/qspi.h ****             IS25LP064A,  /**< & */
ARM GAS  C:\Users\matte\AppData\Local\Temp\ccrMwnXK.s 			page 186


  65:../../libs/PoliTeKDSP/libs/libDaisy/src/per/qspi.h ****             DEVICE_LAST, /**< & */
  66:../../libs/PoliTeKDSP/libs/libDaisy/src/per/qspi.h ****         };
  67:../../libs/PoliTeKDSP/libs/libDaisy/src/per/qspi.h **** 
  68:../../libs/PoliTeKDSP/libs/libDaisy/src/per/qspi.h ****         /** 
  69:../../libs/PoliTeKDSP/libs/libDaisy/src/per/qspi.h ****         Modes of operation.
  70:../../libs/PoliTeKDSP/libs/libDaisy/src/per/qspi.h ****         Memory Mapped mode: QSPI configured so that the QSPI can be
  71:../../libs/PoliTeKDSP/libs/libDaisy/src/per/qspi.h ****         read from starting address 0x90000000. Writing is not
  72:../../libs/PoliTeKDSP/libs/libDaisy/src/per/qspi.h ****         possible in this mode. \n 
  73:../../libs/PoliTeKDSP/libs/libDaisy/src/per/qspi.h ****         Indirect Polling mode: Device driver enabled. 
  74:../../libs/PoliTeKDSP/libs/libDaisy/src/per/qspi.h ****         */
  75:../../libs/PoliTeKDSP/libs/libDaisy/src/per/qspi.h ****         enum Mode
  76:../../libs/PoliTeKDSP/libs/libDaisy/src/per/qspi.h ****         {
  77:../../libs/PoliTeKDSP/libs/libDaisy/src/per/qspi.h ****             MEMORY_MAPPED,    /**< & */
  78:../../libs/PoliTeKDSP/libs/libDaisy/src/per/qspi.h ****             INDIRECT_POLLING, /**< & */
  79:../../libs/PoliTeKDSP/libs/libDaisy/src/per/qspi.h ****             MODE_LAST,
  80:../../libs/PoliTeKDSP/libs/libDaisy/src/per/qspi.h ****         };
  81:../../libs/PoliTeKDSP/libs/libDaisy/src/per/qspi.h **** 
  82:../../libs/PoliTeKDSP/libs/libDaisy/src/per/qspi.h ****         //SCK,  CE# (active low)
  83:../../libs/PoliTeKDSP/libs/libDaisy/src/per/qspi.h ****         struct
  84:../../libs/PoliTeKDSP/libs/libDaisy/src/per/qspi.h ****         {
  85:../../libs/PoliTeKDSP/libs/libDaisy/src/per/qspi.h ****             Pin io0; /**< & */
  86:../../libs/PoliTeKDSP/libs/libDaisy/src/per/qspi.h ****             Pin io1; /**< & */
  87:../../libs/PoliTeKDSP/libs/libDaisy/src/per/qspi.h ****             Pin io2; /**< & */
  88:../../libs/PoliTeKDSP/libs/libDaisy/src/per/qspi.h ****             Pin io3; /**< & */
  89:../../libs/PoliTeKDSP/libs/libDaisy/src/per/qspi.h ****             Pin clk; /**< & */
  90:../../libs/PoliTeKDSP/libs/libDaisy/src/per/qspi.h ****             Pin ncs; /**< & */
  91:../../libs/PoliTeKDSP/libs/libDaisy/src/per/qspi.h ****         } pin_config;
  92:../../libs/PoliTeKDSP/libs/libDaisy/src/per/qspi.h **** 
  93:../../libs/PoliTeKDSP/libs/libDaisy/src/per/qspi.h ****         Device device;
  94:../../libs/PoliTeKDSP/libs/libDaisy/src/per/qspi.h ****         Mode   mode;
  95:../../libs/PoliTeKDSP/libs/libDaisy/src/per/qspi.h ****     };
  96:../../libs/PoliTeKDSP/libs/libDaisy/src/per/qspi.h **** 
  97:../../libs/PoliTeKDSP/libs/libDaisy/src/per/qspi.h ****     /** 
  98:../../libs/PoliTeKDSP/libs/libDaisy/src/per/qspi.h ****         Initializes QSPI peripheral, and Resets, and prepares memory for access.
  99:../../libs/PoliTeKDSP/libs/libDaisy/src/per/qspi.h ****         \param config should be populated with the mode, device and pin_config before calling this 
 100:../../libs/PoliTeKDSP/libs/libDaisy/src/per/qspi.h ****         \return Result::OK or Result::ERR
 101:../../libs/PoliTeKDSP/libs/libDaisy/src/per/qspi.h ****         */
 102:../../libs/PoliTeKDSP/libs/libDaisy/src/per/qspi.h ****     Result Init(const Config& config);
 103:../../libs/PoliTeKDSP/libs/libDaisy/src/per/qspi.h **** 
 104:../../libs/PoliTeKDSP/libs/libDaisy/src/per/qspi.h ****     /** Returns the current config. */
 105:../../libs/PoliTeKDSP/libs/libDaisy/src/per/qspi.h ****     const Config& GetConfig() const;
 106:../../libs/PoliTeKDSP/libs/libDaisy/src/per/qspi.h **** 
 107:../../libs/PoliTeKDSP/libs/libDaisy/src/per/qspi.h ****     // Couldn't this just be called before anything else in init? That
 108:../../libs/PoliTeKDSP/libs/libDaisy/src/per/qspi.h ****     // would make manually calling it unnecessary.
 109:../../libs/PoliTeKDSP/libs/libDaisy/src/per/qspi.h ****     /** 
 110:../../libs/PoliTeKDSP/libs/libDaisy/src/per/qspi.h ****         Deinitializes the peripheral
 111:../../libs/PoliTeKDSP/libs/libDaisy/src/per/qspi.h ****         This should be called before reinitializing QSPI in a different mode.
 112:../../libs/PoliTeKDSP/libs/libDaisy/src/per/qspi.h ****         \return Result::OK or Result::ERR
 113:../../libs/PoliTeKDSP/libs/libDaisy/src/per/qspi.h ****         */
 114:../../libs/PoliTeKDSP/libs/libDaisy/src/per/qspi.h ****     Result DeInit();
 115:../../libs/PoliTeKDSP/libs/libDaisy/src/per/qspi.h **** 
 116:../../libs/PoliTeKDSP/libs/libDaisy/src/per/qspi.h ****     /** 
 117:../../libs/PoliTeKDSP/libs/libDaisy/src/per/qspi.h ****         Writes a single page to to the specified address on the QSPI chip.
 118:../../libs/PoliTeKDSP/libs/libDaisy/src/per/qspi.h ****         For IS25LP*, page size is 256 bytes.
 119:../../libs/PoliTeKDSP/libs/libDaisy/src/per/qspi.h ****         \param address Address to write to
 120:../../libs/PoliTeKDSP/libs/libDaisy/src/per/qspi.h ****         \param size Buffer size
 121:../../libs/PoliTeKDSP/libs/libDaisy/src/per/qspi.h ****         \param buffer Buffer to write
ARM GAS  C:\Users\matte\AppData\Local\Temp\ccrMwnXK.s 			page 187


 122:../../libs/PoliTeKDSP/libs/libDaisy/src/per/qspi.h ****         \return Result::OK or Result::ERR
 123:../../libs/PoliTeKDSP/libs/libDaisy/src/per/qspi.h ****         */
 124:../../libs/PoliTeKDSP/libs/libDaisy/src/per/qspi.h ****     Result WritePage(uint32_t address, uint32_t size, uint8_t* buffer);
 125:../../libs/PoliTeKDSP/libs/libDaisy/src/per/qspi.h **** 
 126:../../libs/PoliTeKDSP/libs/libDaisy/src/per/qspi.h ****     /** 
 127:../../libs/PoliTeKDSP/libs/libDaisy/src/per/qspi.h ****         Writes data in buffer to to the QSPI. Starting at address to address+size 
 128:../../libs/PoliTeKDSP/libs/libDaisy/src/per/qspi.h ****         \param address Address to write to
 129:../../libs/PoliTeKDSP/libs/libDaisy/src/per/qspi.h ****         \param size Buffer size
 130:../../libs/PoliTeKDSP/libs/libDaisy/src/per/qspi.h ****         \param buffer Buffer to write
 131:../../libs/PoliTeKDSP/libs/libDaisy/src/per/qspi.h ****         \return Result::OK or Result::ERR
 132:../../libs/PoliTeKDSP/libs/libDaisy/src/per/qspi.h ****         */
 133:../../libs/PoliTeKDSP/libs/libDaisy/src/per/qspi.h ****     Result Write(uint32_t address, uint32_t size, uint8_t* buffer);
 134:../../libs/PoliTeKDSP/libs/libDaisy/src/per/qspi.h **** 
 135:../../libs/PoliTeKDSP/libs/libDaisy/src/per/qspi.h ****     /** 
 136:../../libs/PoliTeKDSP/libs/libDaisy/src/per/qspi.h ****         Erases the area specified on the chip.
 137:../../libs/PoliTeKDSP/libs/libDaisy/src/per/qspi.h ****         Erasures will happen by 4K, 32K or 64K increments.
 138:../../libs/PoliTeKDSP/libs/libDaisy/src/per/qspi.h ****         Smallest erase possible is 4kB at a time. (on IS25LP*)
 139:../../libs/PoliTeKDSP/libs/libDaisy/src/per/qspi.h ****         \param start_addr Address to begin erasing from
 140:../../libs/PoliTeKDSP/libs/libDaisy/src/per/qspi.h ****         \param end_addr  Address to stop erasing at
 141:../../libs/PoliTeKDSP/libs/libDaisy/src/per/qspi.h ****         \return Result::OK or Result::ERR
 142:../../libs/PoliTeKDSP/libs/libDaisy/src/per/qspi.h ****         */
 143:../../libs/PoliTeKDSP/libs/libDaisy/src/per/qspi.h ****     Result Erase(uint32_t start_addr, uint32_t end_addr);
 144:../../libs/PoliTeKDSP/libs/libDaisy/src/per/qspi.h **** 
 145:../../libs/PoliTeKDSP/libs/libDaisy/src/per/qspi.h ****     /**  
 146:../../libs/PoliTeKDSP/libs/libDaisy/src/per/qspi.h ****          Erases a single sector of the chip.  
 147:../../libs/PoliTeKDSP/libs/libDaisy/src/per/qspi.h ****         TODO: Document the size of this function. 
 148:../../libs/PoliTeKDSP/libs/libDaisy/src/per/qspi.h ****         \param address Address of sector to erase
 149:../../libs/PoliTeKDSP/libs/libDaisy/src/per/qspi.h ****         \return Result::OK or Result::ERR
 150:../../libs/PoliTeKDSP/libs/libDaisy/src/per/qspi.h ****         */
 151:../../libs/PoliTeKDSP/libs/libDaisy/src/per/qspi.h ****     Result EraseSector(uint32_t address);
 152:../../libs/PoliTeKDSP/libs/libDaisy/src/per/qspi.h **** 
 153:../../libs/PoliTeKDSP/libs/libDaisy/src/per/qspi.h ****     /** Returns the current class status. Useful for debugging.
 154:../../libs/PoliTeKDSP/libs/libDaisy/src/per/qspi.h ****      *  \returns Status
 155:../../libs/PoliTeKDSP/libs/libDaisy/src/per/qspi.h ****      */
 156:../../libs/PoliTeKDSP/libs/libDaisy/src/per/qspi.h ****     Status GetStatus();
 157:../../libs/PoliTeKDSP/libs/libDaisy/src/per/qspi.h **** 
 158:../../libs/PoliTeKDSP/libs/libDaisy/src/per/qspi.h ****     /** Returns a pointer to the actual memory used 
 159:../../libs/PoliTeKDSP/libs/libDaisy/src/per/qspi.h ****      *  The memory at this address is read-only
 160:../../libs/PoliTeKDSP/libs/libDaisy/src/per/qspi.h ****      *  to write to it use the Write function.
 161:../../libs/PoliTeKDSP/libs/libDaisy/src/per/qspi.h ****      * 
 162:../../libs/PoliTeKDSP/libs/libDaisy/src/per/qspi.h ****      *  \param offset returns the pointer starting this 
 163:../../libs/PoliTeKDSP/libs/libDaisy/src/per/qspi.h ****      *                many bytes into the memory
 164:../../libs/PoliTeKDSP/libs/libDaisy/src/per/qspi.h ****     */
 165:../../libs/PoliTeKDSP/libs/libDaisy/src/per/qspi.h ****     void* GetData(uint32_t offset = 0);
 166:../../libs/PoliTeKDSP/libs/libDaisy/src/per/qspi.h **** 
 167:../../libs/PoliTeKDSP/libs/libDaisy/src/per/qspi.h ****     QSPIHandle() : pimpl_(nullptr) {}
 6636              		.loc 16 167 5 view .LVU1664
 6637              		.loc 16 167 5 is_stmt 0 view .LVU1665
 6638              	.LBE1727:
 6639              	.LBB1730:
 6640              	.LBI1730:
  58:../../libs/PoliTeKDSP/libs/libDaisy/src/per/qspi.h ****     {
 6641              		.loc 16 58 12 is_stmt 1 view .LVU1666
 6642              	.LBB1731:
 6643              	.LBI1731:
  84:../../libs/PoliTeKDSP/libs/libDaisy/src/per/qspi.h ****             Pin io0; /**< & */
 6644              		.loc 16 84 9 view .LVU1667
ARM GAS  C:\Users\matte\AppData\Local\Temp\ccrMwnXK.s 			page 188


 6645              	.LBB1732:
 6646              	.LBI1732:
 6647              		.loc 15 204 15 view .LVU1668
 6648              		.loc 15 204 15 is_stmt 0 view .LVU1669
 6649              	.LBE1732:
 6650              	.LBB1733:
 6651              	.LBI1733:
 6652              		.loc 15 204 15 is_stmt 1 view .LVU1670
 6653              		.loc 15 204 15 is_stmt 0 view .LVU1671
 6654              	.LBE1733:
 6655              	.LBB1734:
 6656              	.LBI1734:
 6657              		.loc 15 204 15 is_stmt 1 view .LVU1672
 6658              		.loc 15 204 15 is_stmt 0 view .LVU1673
 6659              	.LBE1734:
 6660              	.LBB1735:
 6661              	.LBI1735:
 6662              		.loc 15 204 15 is_stmt 1 view .LVU1674
 6663              		.loc 15 204 15 is_stmt 0 view .LVU1675
 6664              	.LBE1735:
 6665              	.LBB1736:
 6666              	.LBI1736:
 6667              		.loc 15 204 15 is_stmt 1 view .LVU1676
 6668              		.loc 15 204 15 is_stmt 0 view .LVU1677
 6669              	.LBE1736:
 6670              	.LBB1737:
 6671              	.LBI1737:
 6672              		.loc 15 204 15 is_stmt 1 view .LVU1678
 6673              		.loc 15 204 15 is_stmt 0 view .LVU1679
 6674              	.LBE1737:
 6675              	.LBE1731:
 6676              	.LBE1730:
 6677              	.LBB1738:
 6678              	.LBI1738:
  87:../../libs/PoliTeKDSP/libs/libDaisy/src/hid/audio.h ****     ~AudioHandle() {}
 6679              		.loc 6 87 5 is_stmt 1 view .LVU1680
  87:../../libs/PoliTeKDSP/libs/libDaisy/src/hid/audio.h ****     ~AudioHandle() {}
 6680              		.loc 6 87 5 is_stmt 0 view .LVU1681
 6681              	.LBE1738:
 6682              	.LBB1741:
 6683              	.LBI1741:
 109:../../libs/PoliTeKDSP/libs/libDaisy/src/per/adc.h ****     ~AdcHandle() {}
 6684              		.loc 5 109 5 is_stmt 1 view .LVU1682
 109:../../libs/PoliTeKDSP/libs/libDaisy/src/per/adc.h ****     ~AdcHandle() {}
 6685              		.loc 5 109 5 is_stmt 0 view .LVU1683
 6686              	.LBE1741:
 6687              	.LBB1742:
 6688              	.LBI1742:
 6689              		.file 17 "../../libs/PoliTeKDSP/libs/libDaisy/src/per/dac.h"
   1:../../libs/PoliTeKDSP/libs/libDaisy/src/per/dac.h **** #pragma once
   2:../../libs/PoliTeKDSP/libs/libDaisy/src/per/dac.h **** #ifndef DSY_DAC_H
   3:../../libs/PoliTeKDSP/libs/libDaisy/src/per/dac.h **** #define DSY_DAC_H
   4:../../libs/PoliTeKDSP/libs/libDaisy/src/per/dac.h **** #include "stm32h7xx_hal.h"
   5:../../libs/PoliTeKDSP/libs/libDaisy/src/per/dac.h **** #include "daisy_core.h"
   6:../../libs/PoliTeKDSP/libs/libDaisy/src/per/dac.h **** 
   7:../../libs/PoliTeKDSP/libs/libDaisy/src/per/dac.h **** namespace daisy
   8:../../libs/PoliTeKDSP/libs/libDaisy/src/per/dac.h **** {
ARM GAS  C:\Users\matte\AppData\Local\Temp\ccrMwnXK.s 			page 189


   9:../../libs/PoliTeKDSP/libs/libDaisy/src/per/dac.h **** /** @brief DAC handle for Built-in DAC Peripheral 
  10:../../libs/PoliTeKDSP/libs/libDaisy/src/per/dac.h ****  *  @ingroup per_analog
  11:../../libs/PoliTeKDSP/libs/libDaisy/src/per/dac.h ****  ** 
  12:../../libs/PoliTeKDSP/libs/libDaisy/src/per/dac.h ****  ** For now only Normal Mode is supported,
  13:../../libs/PoliTeKDSP/libs/libDaisy/src/per/dac.h ****  ** Sample and hold mode provides reduced power consumption, but requires a bit more setup.
  14:../../libs/PoliTeKDSP/libs/libDaisy/src/per/dac.h ****  **
  15:../../libs/PoliTeKDSP/libs/libDaisy/src/per/dac.h ****  ** For now connecting the DAC through other internal peripherals is also not supported.
  16:../../libs/PoliTeKDSP/libs/libDaisy/src/per/dac.h ****  **
  17:../../libs/PoliTeKDSP/libs/libDaisy/src/per/dac.h ****  ** Since the DAC channels have dedicated pins we don't need to pass in a pin config like with
  18:../../libs/PoliTeKDSP/libs/libDaisy/src/per/dac.h ****  ** other modules. However, it is still important to not try to use the DAC pins for anything else.
  19:../../libs/PoliTeKDSP/libs/libDaisy/src/per/dac.h ****  ** DAC Channel 1 is on PA4, and DAC Channel 2 is on PA5
  20:../../libs/PoliTeKDSP/libs/libDaisy/src/per/dac.h ****  ***/
  21:../../libs/PoliTeKDSP/libs/libDaisy/src/per/dac.h **** class DacHandle
  22:../../libs/PoliTeKDSP/libs/libDaisy/src/per/dac.h **** {
  23:../../libs/PoliTeKDSP/libs/libDaisy/src/per/dac.h ****   public:
  24:../../libs/PoliTeKDSP/libs/libDaisy/src/per/dac.h ****     /** Return Values for the DacHandle class */
  25:../../libs/PoliTeKDSP/libs/libDaisy/src/per/dac.h ****     enum class Result
  26:../../libs/PoliTeKDSP/libs/libDaisy/src/per/dac.h ****     {
  27:../../libs/PoliTeKDSP/libs/libDaisy/src/per/dac.h ****         OK,
  28:../../libs/PoliTeKDSP/libs/libDaisy/src/per/dac.h ****         ERR,
  29:../../libs/PoliTeKDSP/libs/libDaisy/src/per/dac.h ****     };
  30:../../libs/PoliTeKDSP/libs/libDaisy/src/per/dac.h **** 
  31:../../libs/PoliTeKDSP/libs/libDaisy/src/per/dac.h ****     /** Selects which channel(s) will be configured for use. */
  32:../../libs/PoliTeKDSP/libs/libDaisy/src/per/dac.h ****     enum class Channel
  33:../../libs/PoliTeKDSP/libs/libDaisy/src/per/dac.h ****     {
  34:../../libs/PoliTeKDSP/libs/libDaisy/src/per/dac.h ****         ONE,
  35:../../libs/PoliTeKDSP/libs/libDaisy/src/per/dac.h ****         TWO,
  36:../../libs/PoliTeKDSP/libs/libDaisy/src/per/dac.h ****         BOTH,
  37:../../libs/PoliTeKDSP/libs/libDaisy/src/per/dac.h ****     };
  38:../../libs/PoliTeKDSP/libs/libDaisy/src/per/dac.h **** 
  39:../../libs/PoliTeKDSP/libs/libDaisy/src/per/dac.h ****     /** Sets the Mode for the DAC channels.
  40:../../libs/PoliTeKDSP/libs/libDaisy/src/per/dac.h ****      **
  41:../../libs/PoliTeKDSP/libs/libDaisy/src/per/dac.h ****      ** Polling mode uses the blocking mode to transmit a single value at a time.
  42:../../libs/PoliTeKDSP/libs/libDaisy/src/per/dac.h ****      **
  43:../../libs/PoliTeKDSP/libs/libDaisy/src/per/dac.h ****      ** DMA mode uses a buffer, and periodically transmits it triggering a 
  44:../../libs/PoliTeKDSP/libs/libDaisy/src/per/dac.h ****      ** callback to fill the buffer when it is ready for more samples.
  45:../../libs/PoliTeKDSP/libs/libDaisy/src/per/dac.h ****      ***/
  46:../../libs/PoliTeKDSP/libs/libDaisy/src/per/dac.h ****     enum class Mode
  47:../../libs/PoliTeKDSP/libs/libDaisy/src/per/dac.h ****     {
  48:../../libs/PoliTeKDSP/libs/libDaisy/src/per/dac.h ****         POLLING,
  49:../../libs/PoliTeKDSP/libs/libDaisy/src/per/dac.h ****         DMA,
  50:../../libs/PoliTeKDSP/libs/libDaisy/src/per/dac.h ****     };
  51:../../libs/PoliTeKDSP/libs/libDaisy/src/per/dac.h **** 
  52:../../libs/PoliTeKDSP/libs/libDaisy/src/per/dac.h ****     /** Sets the number of bits per sample transmitted out of the DAC.
  53:../../libs/PoliTeKDSP/libs/libDaisy/src/per/dac.h ****      ** The output range will be: 0V - VDDA
  54:../../libs/PoliTeKDSP/libs/libDaisy/src/per/dac.h ****      ** The resolution will be roughly: bitdepth / (VDDA - 0V) 
  55:../../libs/PoliTeKDSP/libs/libDaisy/src/per/dac.h ****      ***/
  56:../../libs/PoliTeKDSP/libs/libDaisy/src/per/dac.h ****     enum class BitDepth
  57:../../libs/PoliTeKDSP/libs/libDaisy/src/per/dac.h ****     {
  58:../../libs/PoliTeKDSP/libs/libDaisy/src/per/dac.h ****         BITS_8,
  59:../../libs/PoliTeKDSP/libs/libDaisy/src/per/dac.h ****         BITS_12
  60:../../libs/PoliTeKDSP/libs/libDaisy/src/per/dac.h ****     };
  61:../../libs/PoliTeKDSP/libs/libDaisy/src/per/dac.h **** 
  62:../../libs/PoliTeKDSP/libs/libDaisy/src/per/dac.h ****     /** Sets whether the DAC output is buffered for higher drive ability. */
  63:../../libs/PoliTeKDSP/libs/libDaisy/src/per/dac.h ****     enum class BufferState
  64:../../libs/PoliTeKDSP/libs/libDaisy/src/per/dac.h ****     {
  65:../../libs/PoliTeKDSP/libs/libDaisy/src/per/dac.h ****         ENABLED,
ARM GAS  C:\Users\matte\AppData\Local\Temp\ccrMwnXK.s 			page 190


  66:../../libs/PoliTeKDSP/libs/libDaisy/src/per/dac.h ****         DISABLED,
  67:../../libs/PoliTeKDSP/libs/libDaisy/src/per/dac.h ****     };
  68:../../libs/PoliTeKDSP/libs/libDaisy/src/per/dac.h **** 
  69:../../libs/PoliTeKDSP/libs/libDaisy/src/per/dac.h ****     /** Configuration structure for initializing the DAC structure. */
  70:../../libs/PoliTeKDSP/libs/libDaisy/src/per/dac.h ****     struct Config
  71:../../libs/PoliTeKDSP/libs/libDaisy/src/per/dac.h ****     {
  72:../../libs/PoliTeKDSP/libs/libDaisy/src/per/dac.h ****         /** Target Samplerate in Hz used to configure the internal 
  73:../../libs/PoliTeKDSP/libs/libDaisy/src/per/dac.h ****          ** timebase for DMA mode. Does nothing in POLLING mode.
  74:../../libs/PoliTeKDSP/libs/libDaisy/src/per/dac.h ****          ** If the value is 0 at Init time this will default to 48000Hz 
  75:../../libs/PoliTeKDSP/libs/libDaisy/src/per/dac.h ****          ** otherwise the driver will attempt meet the target.*/
  76:../../libs/PoliTeKDSP/libs/libDaisy/src/per/dac.h ****         uint32_t target_samplerate;
  77:../../libs/PoliTeKDSP/libs/libDaisy/src/per/dac.h **** 
  78:../../libs/PoliTeKDSP/libs/libDaisy/src/per/dac.h ****         Channel     chn;
  79:../../libs/PoliTeKDSP/libs/libDaisy/src/per/dac.h ****         Mode        mode;
  80:../../libs/PoliTeKDSP/libs/libDaisy/src/per/dac.h ****         BitDepth    bitdepth;
  81:../../libs/PoliTeKDSP/libs/libDaisy/src/per/dac.h ****         BufferState buff_state;
  82:../../libs/PoliTeKDSP/libs/libDaisy/src/per/dac.h ****     };
  83:../../libs/PoliTeKDSP/libs/libDaisy/src/per/dac.h **** 
  84:../../libs/PoliTeKDSP/libs/libDaisy/src/per/dac.h ****     DacHandle() : pimpl_(nullptr) {}
 6690              		.loc 17 84 5 is_stmt 1 view .LVU1684
 6691              		.loc 17 84 5 is_stmt 0 view .LVU1685
 6692              	.LBE1742:
 6693              	.LBB1745:
 6694              	.LBI1745:
  40:../../libs/libDaisy/src/hid/usb.h **** 
 6695              		.loc 4 40 5 is_stmt 1 view .LVU1686
  40:../../libs/libDaisy/src/hid/usb.h **** 
 6696              		.loc 4 40 5 is_stmt 0 view .LVU1687
 6697              	.LBE1745:
 6698              	.LBB1746:
 6699              	.LBI1746:
 6700              		.file 18 "../../libs/libDaisy/src/per/gpio.h"
   1:../../libs/libDaisy/src/per/gpio.h **** #pragma once
   2:../../libs/libDaisy/src/per/gpio.h **** #ifndef DSY_GPIO_H
   3:../../libs/libDaisy/src/per/gpio.h **** #define DSY_GPIO_H
   4:../../libs/libDaisy/src/per/gpio.h **** #include "daisy_core.h"
   5:../../libs/libDaisy/src/per/gpio.h **** 
   6:../../libs/libDaisy/src/per/gpio.h **** #ifdef __cplusplus
   7:../../libs/libDaisy/src/per/gpio.h **** 
   8:../../libs/libDaisy/src/per/gpio.h **** namespace daisy
   9:../../libs/libDaisy/src/per/gpio.h **** {
  10:../../libs/libDaisy/src/per/gpio.h **** /** @brief General Purpose I/O control 
  11:../../libs/libDaisy/src/per/gpio.h ****  *  @details peripheral control over a single GPIO
  12:../../libs/libDaisy/src/per/gpio.h ****  *  @ingroup peripheral
  13:../../libs/libDaisy/src/per/gpio.h ****  *   
  14:../../libs/libDaisy/src/per/gpio.h ****  *  Button Input (with internal Pullup resistor)
  15:../../libs/libDaisy/src/per/gpio.h ****  *  @include GPIO_Input.cpp 
  16:../../libs/libDaisy/src/per/gpio.h ****  * 
  17:../../libs/libDaisy/src/per/gpio.h ****  *  Output Example (perfect for blinking an LED)
  18:../../libs/libDaisy/src/per/gpio.h ****  *  @include GPIO_Output.cpp
  19:../../libs/libDaisy/src/per/gpio.h ****  * 
  20:../../libs/libDaisy/src/per/gpio.h **** */
  21:../../libs/libDaisy/src/per/gpio.h **** class GPIO
  22:../../libs/libDaisy/src/per/gpio.h **** {
  23:../../libs/libDaisy/src/per/gpio.h ****   public:
  24:../../libs/libDaisy/src/per/gpio.h ****     /** @brief Mode of operation for the specified GPIO */
  25:../../libs/libDaisy/src/per/gpio.h ****     enum class Mode
ARM GAS  C:\Users\matte\AppData\Local\Temp\ccrMwnXK.s 			page 191


  26:../../libs/libDaisy/src/per/gpio.h ****     {
  27:../../libs/libDaisy/src/per/gpio.h ****         INPUT,      /**< Input for reading state of pin */
  28:../../libs/libDaisy/src/per/gpio.h ****         OUTPUT,     /**< Output w/ push-pull configuration */
  29:../../libs/libDaisy/src/per/gpio.h ****         OPEN_DRAIN, /**< Output w/ open-drain configuration */
  30:../../libs/libDaisy/src/per/gpio.h ****         ANALOG,     /**< Analog for connection to ADC or DAC peripheral */
  31:../../libs/libDaisy/src/per/gpio.h ****     };
  32:../../libs/libDaisy/src/per/gpio.h **** 
  33:../../libs/libDaisy/src/per/gpio.h ****     /** @brief Configures whether an internal Pull up or Pull down resistor is used. 
  34:../../libs/libDaisy/src/per/gpio.h ****      *  
  35:../../libs/libDaisy/src/per/gpio.h ****      * Internal Pull up/down resistors are typically 40k ohms, and will be between
  36:../../libs/libDaisy/src/per/gpio.h ****      * 30k and 50k
  37:../../libs/libDaisy/src/per/gpio.h ****      * 
  38:../../libs/libDaisy/src/per/gpio.h ****      * When the Pin is configured in Analog mode, the pull up/down resistors are
  39:../../libs/libDaisy/src/per/gpio.h ****      * disabled by hardware. 
  40:../../libs/libDaisy/src/per/gpio.h ****      */
  41:../../libs/libDaisy/src/per/gpio.h ****     enum class Pull
  42:../../libs/libDaisy/src/per/gpio.h ****     {
  43:../../libs/libDaisy/src/per/gpio.h ****         NOPULL,   /**< No pull up resistor */
  44:../../libs/libDaisy/src/per/gpio.h ****         PULLUP,   /**< Internal pull up enabled */
  45:../../libs/libDaisy/src/per/gpio.h ****         PULLDOWN, /**< Internal pull down enabled*/
  46:../../libs/libDaisy/src/per/gpio.h ****     };
  47:../../libs/libDaisy/src/per/gpio.h **** 
  48:../../libs/libDaisy/src/per/gpio.h ****     /** @brief Output speed controls the drive strength, and slew rate of the pin */
  49:../../libs/libDaisy/src/per/gpio.h ****     enum class Speed
  50:../../libs/libDaisy/src/per/gpio.h ****     {
  51:../../libs/libDaisy/src/per/gpio.h ****         LOW,
  52:../../libs/libDaisy/src/per/gpio.h ****         MEDIUM,
  53:../../libs/libDaisy/src/per/gpio.h ****         HIGH,
  54:../../libs/libDaisy/src/per/gpio.h ****         VERY_HIGH,
  55:../../libs/libDaisy/src/per/gpio.h ****     };
  56:../../libs/libDaisy/src/per/gpio.h **** 
  57:../../libs/libDaisy/src/per/gpio.h ****     /** @brief Configuration for a given GPIO */
  58:../../libs/libDaisy/src/per/gpio.h ****     struct Config
  59:../../libs/libDaisy/src/per/gpio.h ****     {
  60:../../libs/libDaisy/src/per/gpio.h ****         Pin   pin;
  61:../../libs/libDaisy/src/per/gpio.h ****         Mode  mode;
  62:../../libs/libDaisy/src/per/gpio.h ****         Pull  pull;
  63:../../libs/libDaisy/src/per/gpio.h ****         Speed speed;
  64:../../libs/libDaisy/src/per/gpio.h **** 
  65:../../libs/libDaisy/src/per/gpio.h ****         /** Constructor with no arguments will prepare an invalid GPIO set as
  66:../../libs/libDaisy/src/per/gpio.h ****          *  an input, with no pullup. 
  67:../../libs/libDaisy/src/per/gpio.h ****          */
  68:../../libs/libDaisy/src/per/gpio.h ****         Config()
  69:../../libs/libDaisy/src/per/gpio.h ****         : pin(), mode(Mode::INPUT), pull(Pull::NOPULL), speed(Speed::LOW)
  70:../../libs/libDaisy/src/per/gpio.h ****         {
  71:../../libs/libDaisy/src/per/gpio.h ****         }
  72:../../libs/libDaisy/src/per/gpio.h ****     };
  73:../../libs/libDaisy/src/per/gpio.h **** 
  74:../../libs/libDaisy/src/per/gpio.h ****     GPIO() {}
 6701              		.loc 18 74 5 is_stmt 1 view .LVU1688
 6702              	.LBB1747:
 6703              	.LBB1748:
 6704              	.LBI1748:
  68:../../libs/libDaisy/src/per/gpio.h ****         : pin(), mode(Mode::INPUT), pull(Pull::NOPULL), speed(Speed::LOW)
 6705              		.loc 18 68 9 view .LVU1689
 6706              	.LBB1749:
 6707              	.LBB1750:
ARM GAS  C:\Users\matte\AppData\Local\Temp\ccrMwnXK.s 			page 192


 6708              	.LBB1751:
 6709              	.LBI1751:
 6710              		.loc 15 204 15 view .LVU1690
 6711              		.loc 15 204 15 is_stmt 0 view .LVU1691
 6712              	.LBE1751:
 6713              	.LBE1750:
 6714              	.LBE1749:
 6715              	.LBE1748:
 6716              	.LBE1747:
 6717              	.LBE1746:
 6718              	.LBB1760:
 6719              	.LBI1760:
 6720              		.loc 18 74 5 is_stmt 1 view .LVU1692
 6721              	.LBB1761:
 6722              	.LBB1762:
 6723              	.LBI1762:
  68:../../libs/libDaisy/src/per/gpio.h ****         : pin(), mode(Mode::INPUT), pull(Pull::NOPULL), speed(Speed::LOW)
 6724              		.loc 18 68 9 view .LVU1693
 6725              	.LBB1763:
 6726              	.LBB1764:
 6727              	.LBB1765:
 6728              	.LBI1765:
 6729              		.loc 15 204 15 view .LVU1694
 6730              		.loc 15 204 15 is_stmt 0 view .LVU1695
 6731              	.LBE1765:
 6732              	.LBE1764:
 6733              	.LBE1763:
 6734              	.LBE1762:
 6735              	.LBE1761:
 6736              	.LBE1760:
 6737              	.LBB1774:
 6738              	.LBI1774:
  96:../../libs/libDaisy/src/sys/system.h ****     ~System() {}
 6739              		.loc 3 96 5 is_stmt 1 view .LVU1696
  96:../../libs/libDaisy/src/sys/system.h ****     ~System() {}
 6740              		.loc 3 96 5 is_stmt 0 view .LVU1697
 6741              	.LBE1774:
 6742              	.LBB1775:
 6743              	.LBI1775:
  20:../../libs/PoliTeKDSP/libs/libDaisy/src/dev/codec_ak4556.h ****     ~Ak4556() {}
 6744              		.loc 2 20 5 is_stmt 1 view .LVU1698
 6745              	.LBB1776:
 6746              	.LBI1776:
 6747              		.loc 18 74 5 view .LVU1699
 6748              	.LBB1777:
 6749              	.LBB1778:
 6750              	.LBI1778:
  68:../../libs/libDaisy/src/per/gpio.h ****         : pin(), mode(Mode::INPUT), pull(Pull::NOPULL), speed(Speed::LOW)
 6751              		.loc 18 68 9 view .LVU1700
 6752              	.LBB1779:
 6753              	.LBB1780:
 6754              	.LBB1781:
 6755              	.LBI1781:
 6756              		.loc 15 204 15 view .LVU1701
 6757              		.loc 15 204 15 is_stmt 0 view .LVU1702
 6758              	.LBE1781:
 6759              	.LBE1780:
ARM GAS  C:\Users\matte\AppData\Local\Temp\ccrMwnXK.s 			page 193


 6760              	.LBE1779:
 6761              	.LBE1778:
 6762              	.LBE1777:
 6763              	.LBE1776:
 6764              	.LBE1775:
 6765              	.LBB1792:
 6766              	.LBI1792:
 6767              		.file 19 "../../libs/libDaisy/src/per/sai.h"
   1:../../libs/libDaisy/src/per/sai.h **** #pragma once
   2:../../libs/libDaisy/src/per/sai.h **** #ifndef DSY_SAI_H
   3:../../libs/libDaisy/src/per/sai.h **** #define DSY_SAI_H
   4:../../libs/libDaisy/src/per/sai.h **** 
   5:../../libs/libDaisy/src/per/sai.h **** #include "util/hal_map.h"
   6:../../libs/libDaisy/src/per/sai.h **** #include "daisy_core.h"
   7:../../libs/libDaisy/src/per/sai.h **** 
   8:../../libs/libDaisy/src/per/sai.h **** namespace daisy
   9:../../libs/libDaisy/src/per/sai.h **** {
  10:../../libs/libDaisy/src/per/sai.h **** /** 
  11:../../libs/libDaisy/src/per/sai.h ****  * Support for I2S Audio Protocol with different bit-depth, samplerate options
  12:../../libs/libDaisy/src/per/sai.h ****  * Allows for master or slave, as well as freedom of selecting direction, 
  13:../../libs/libDaisy/src/per/sai.h ****  * and other behavior for each peripheral, and block.
  14:../../libs/libDaisy/src/per/sai.h ****  * 
  15:../../libs/libDaisy/src/per/sai.h ****  * DMA Transfer commands must use buffers located within non-cached memory or use cache maintenance
  16:../../libs/libDaisy/src/per/sai.h ****  * To declare an unitialized global element in the DMA memory section:
  17:../../libs/libDaisy/src/per/sai.h ****  *    int32_t DSY_DMA_BUFFER_SECTOR my_buffer[96];
  18:../../libs/libDaisy/src/per/sai.h ****  *
  19:../../libs/libDaisy/src/per/sai.h ****  * Callback functions will be called once per half of the buffer. In the above example, 
  20:../../libs/libDaisy/src/per/sai.h ****  * the callback function would be called once for every 48 samples.
  21:../../libs/libDaisy/src/per/sai.h ****  * 
  22:../../libs/libDaisy/src/per/sai.h ****  * Use SAI Handle like this:
  23:../../libs/libDaisy/src/per/sai.h ****  * 
  24:../../libs/libDaisy/src/per/sai.h ****  *  SaiHandle::Config sai_config;
  25:../../libs/libDaisy/src/per/sai.h ****  *  sai_config.periph          = SaiHandle::Config::Peripheral::SAI_1;
  26:../../libs/libDaisy/src/per/sai.h ****  *  sai_config.sr              = SaiHandle::Config::SampleRate::SAI_48KHZ;
  27:../../libs/libDaisy/src/per/sai.h ****  *  sai_config.bit_depth       = SaiHandle::Config::BitDepth::SAI_24BIT;
  28:../../libs/libDaisy/src/per/sai.h ****  *  sai_config.a_sync          = SaiHandle::Config::Sync::MASTER;
  29:../../libs/libDaisy/src/per/sai.h ****  *  sai_config.b_sync          = SaiHandle::Config::Sync::SLAVE;
  30:../../libs/libDaisy/src/per/sai.h ****  *  sai_config.a_dir           = SaiHandle::Config::Direction::RECEIVE;
  31:../../libs/libDaisy/src/per/sai.h ****  *  sai_config.b_dir           = SaiHandle::Config::Direction::TRANSMIT;
  32:../../libs/libDaisy/src/per/sai.h ****  *  sai_config.pin_config.fs   = {DSY_GPIOE, 4};
  33:../../libs/libDaisy/src/per/sai.h ****  *  sai_config.pin_config.mclk = {DSY_GPIOE, 2};
  34:../../libs/libDaisy/src/per/sai.h ****  *  sai_config.pin_config.sck  = {DSY_GPIOE, 5};
  35:../../libs/libDaisy/src/per/sai.h ****  *  sai_config.pin_config.sa   = {DSY_GPIOE, 6};
  36:../../libs/libDaisy/src/per/sai.h ****  *  sai_config.pin_config.sb   = {DSY_GPIOE, 3};
  37:../../libs/libDaisy/src/per/sai.h ****  *  // Then Initialize
  38:../../libs/libDaisy/src/per/sai.h ****  *  SaiHandle sai;
  39:../../libs/libDaisy/src/per/sai.h ****  *  sai.Init(sai_config);
  40:../../libs/libDaisy/src/per/sai.h ****  *  // Now you can use it:
  41:../../libs/libDaisy/src/per/sai.h ****  *  sai.StartDma(. . .);
  42:../../libs/libDaisy/src/per/sai.h ****  */
  43:../../libs/libDaisy/src/per/sai.h **** class SaiHandle
  44:../../libs/libDaisy/src/per/sai.h **** {
  45:../../libs/libDaisy/src/per/sai.h ****   public:
  46:../../libs/libDaisy/src/per/sai.h ****     /** Contains settings for initialising an SAI Interface */
  47:../../libs/libDaisy/src/per/sai.h ****     struct Config
  48:../../libs/libDaisy/src/per/sai.h ****     {
  49:../../libs/libDaisy/src/per/sai.h ****         /** Specifies the internal peripheral to use (mapped to different hardware pins) */
ARM GAS  C:\Users\matte\AppData\Local\Temp\ccrMwnXK.s 			page 194


  50:../../libs/libDaisy/src/per/sai.h ****         enum class Peripheral
  51:../../libs/libDaisy/src/per/sai.h ****         {
  52:../../libs/libDaisy/src/per/sai.h ****             SAI_1,
  53:../../libs/libDaisy/src/per/sai.h ****             SAI_2,
  54:../../libs/libDaisy/src/per/sai.h ****         };
  55:../../libs/libDaisy/src/per/sai.h **** 
  56:../../libs/libDaisy/src/per/sai.h ****         /** Rate at which samples will be streaming to/from the device. */
  57:../../libs/libDaisy/src/per/sai.h ****         enum class SampleRate
  58:../../libs/libDaisy/src/per/sai.h ****         {
  59:../../libs/libDaisy/src/per/sai.h ****             SAI_8KHZ,
  60:../../libs/libDaisy/src/per/sai.h ****             SAI_16KHZ,
  61:../../libs/libDaisy/src/per/sai.h ****             SAI_32KHZ,
  62:../../libs/libDaisy/src/per/sai.h ****             SAI_48KHZ,
  63:../../libs/libDaisy/src/per/sai.h ****             SAI_96KHZ,
  64:../../libs/libDaisy/src/per/sai.h ****         };
  65:../../libs/libDaisy/src/per/sai.h **** 
  66:../../libs/libDaisy/src/per/sai.h ****         /** Bit Depth that the hardware expects to be transferred to/from the device. */
  67:../../libs/libDaisy/src/per/sai.h ****         enum class BitDepth
  68:../../libs/libDaisy/src/per/sai.h ****         {
  69:../../libs/libDaisy/src/per/sai.h ****             SAI_16BIT,
  70:../../libs/libDaisy/src/per/sai.h ****             SAI_24BIT,
  71:../../libs/libDaisy/src/per/sai.h ****             SAI_32BIT,
  72:../../libs/libDaisy/src/per/sai.h ****         };
  73:../../libs/libDaisy/src/per/sai.h **** 
  74:../../libs/libDaisy/src/per/sai.h ****         /** Specifies whether a particular block is the master or the slave 
  75:../../libs/libDaisy/src/per/sai.h ****          ** If both are set to slave, no MCLK signal will be used, and it is
  76:../../libs/libDaisy/src/per/sai.h ****          ** expected that the codec will have its own xtal.
  77:../../libs/libDaisy/src/per/sai.h ****          */
  78:../../libs/libDaisy/src/per/sai.h ****         enum class Sync
  79:../../libs/libDaisy/src/per/sai.h ****         {
  80:../../libs/libDaisy/src/per/sai.h ****             MASTER,
  81:../../libs/libDaisy/src/per/sai.h ****             SLAVE,
  82:../../libs/libDaisy/src/per/sai.h ****         };
  83:../../libs/libDaisy/src/per/sai.h **** 
  84:../../libs/libDaisy/src/per/sai.h ****         /** Specifies the direction for each peripheral block. */
  85:../../libs/libDaisy/src/per/sai.h ****         enum class Direction
  86:../../libs/libDaisy/src/per/sai.h ****         {
  87:../../libs/libDaisy/src/per/sai.h ****             TRANSMIT,
  88:../../libs/libDaisy/src/per/sai.h ****             RECEIVE,
  89:../../libs/libDaisy/src/per/sai.h ****         };
  90:../../libs/libDaisy/src/per/sai.h **** 
  91:../../libs/libDaisy/src/per/sai.h ****         Peripheral periph;
  92:../../libs/libDaisy/src/per/sai.h ****         struct
  93:../../libs/libDaisy/src/per/sai.h ****         {
  94:../../libs/libDaisy/src/per/sai.h ****             Pin mclk, fs, sck, sa, sb;
  95:../../libs/libDaisy/src/per/sai.h ****         } pin_config;
  96:../../libs/libDaisy/src/per/sai.h ****         SampleRate sr;
  97:../../libs/libDaisy/src/per/sai.h ****         BitDepth   bit_depth;
  98:../../libs/libDaisy/src/per/sai.h ****         Sync       a_sync, b_sync;
  99:../../libs/libDaisy/src/per/sai.h ****         Direction  a_dir, b_dir;
 100:../../libs/libDaisy/src/per/sai.h ****     };
 101:../../libs/libDaisy/src/per/sai.h **** 
 102:../../libs/libDaisy/src/per/sai.h ****     /** Return values for SAI functions */
 103:../../libs/libDaisy/src/per/sai.h ****     enum class Result
 104:../../libs/libDaisy/src/per/sai.h ****     {
 105:../../libs/libDaisy/src/per/sai.h ****         OK,
 106:../../libs/libDaisy/src/per/sai.h ****         ERR,
ARM GAS  C:\Users\matte\AppData\Local\Temp\ccrMwnXK.s 			page 195


 107:../../libs/libDaisy/src/per/sai.h ****     };
 108:../../libs/libDaisy/src/per/sai.h **** 
 109:../../libs/libDaisy/src/per/sai.h ****     SaiHandle() : pimpl_(nullptr) {}
 6768              		.loc 19 109 5 is_stmt 1 view .LVU1703
 6769              	.LBE1792:
 6770              	.LBE1726:
 6771              	.LBE1725:
 6772              	.LBE1724:
 6773              	.LBE1723:
 6774              		.loc 11 73 2 is_stmt 0 view .LVU1704
 6775 0000 38B5     		push	{r3, r4, r5, lr}
 6776              		.cfi_def_cfa_offset 16
 6777              		.cfi_offset 3, -16
 6778              		.cfi_offset 4, -12
 6779              		.cfi_offset 5, -8
 6780              		.cfi_offset 14, -4
 6781              	.LBB1835:
 6782              	.LBB1833:
 6783              	.LBB1809:
 6784              	.LBB1805:
 6785              	.LBB1795:
 6786              	.LBB1728:
 6787              	.LBB1729:
 6788              		.loc 16 167 34 view .LVU1705
 6789 0002 1948     		ldr	r0, .L421
 6790 0004 0024     		movs	r4, #0
 6791              	.LBE1729:
 6792              	.LBE1728:
 6793              	.LBE1795:
  21:../../libs/PoliTeKDSP/libs/libDaisy/src/daisy_seed.h ****     ~DaisySeed() {}
 6794              		.loc 1 21 17 view .LVU1706
 6795 0006 4FF60B73 		movw	r3, #65291
 6796 000a 6FF0F411 		mvn	r1, #15991028
 6797              	.LBE1805:
 6798              	.LBE1809:
  18:main.cpp      **** DaisySeed hw;
 6799              		.loc 11 18 11 view .LVU1707
 6800 000e 174A     		ldr	r2, .L421+4
 6801              	.LBB1810:
 6802              	.LBB1806:
  21:../../libs/PoliTeKDSP/libs/libDaisy/src/daisy_seed.h ****     ~DaisySeed() {}
 6803              		.loc 1 21 17 view .LVU1708
 6804 0010 8365     		str	r3, [r0, #88]
 6805              	.LBB1796:
 6806              	.LBB1739:
 6807              	.LBB1740:
  87:../../libs/PoliTeKDSP/libs/libDaisy/src/hid/audio.h ****     ~AudioHandle() {}
 6808              		.loc 6 87 35 view .LVU1709
 6809 0012 4461     		str	r4, [r0, #20]
 6810              	.LBE1740:
 6811              	.LBE1739:
 6812              	.LBE1796:
 6813              	.LBB1797:
 6814              	.LBB1743:
 6815              	.LBB1744:
 6816              		.loc 17 84 33 view .LVU1710
 6817 0014 0462     		str	r4, [r0, #32]
ARM GAS  C:\Users\matte\AppData\Local\Temp\ccrMwnXK.s 			page 196


 6818              	.LBE1744:
 6819              	.LBE1743:
 6820              	.LBE1797:
 6821              	.LBB1798:
 6822              	.LBB1790:
 6823              	.LBB1788:
 6824              	.LBB1786:
 6825              	.LBB1784:
 6826              	.LBB1782:
  69:../../libs/libDaisy/src/per/gpio.h ****         {
 6827              		.loc 18 69 73 view .LVU1711
 6828 0016 4466     		str	r4, [r0, #100]
 6829              	.LBE1782:
 6830              	.LBE1784:
 6831              	.LBE1786:
 6832              	.LBE1788:
 6833              	.LBE1790:
 6834              	.LBE1798:
 6835              	.LBB1799:
 6836              	.LBB1793:
 6837              	.LBB1794:
 6838              		.loc 19 109 33 view .LVU1712
 6839 0018 0467     		str	r4, [r0, #112]
 6840              	.LVL475:
 6841              		.loc 19 109 33 view .LVU1713
 6842              	.LBE1794:
 6843              	.LBE1793:
 6844              	.LBE1799:
 6845              	.LBE1806:
 6846              	.LBE1810:
 6847              	.LBB1811:
 6848              	.LBB1812:
 6849              	.LBB1813:
  17:../../libs/PoliTeKDSP/libs/libDaisy/src/hid/disp/oled_display.h ****     virtual ~OledDisplay() {}
 6850              		.loc 8 17 19 view .LVU1714
 6851 001a 154D     		ldr	r5, .L421+8
 6852              	.LBE1813:
 6853              	.LBE1812:
 6854              	.LBE1811:
 6855              	.LBB1828:
 6856              	.LBB1807:
 6857              	.LBB1800:
 6858              	.LBB1758:
 6859              	.LBB1756:
 6860              	.LBB1754:
 6861              	.LBB1752:
  69:../../libs/libDaisy/src/per/gpio.h ****         {
 6862              		.loc 18 69 73 view .LVU1715
 6863 001c C0E90A34 		strd	r3, r4, [r0, #40]
 6864              	.LBE1752:
 6865              	.LBE1754:
 6866              	.LBE1756:
 6867              	.LBE1758:
 6868              	.LBE1800:
 6869              	.LBB1801:
 6870              	.LBB1772:
 6871              	.LBB1770:
ARM GAS  C:\Users\matte\AppData\Local\Temp\ccrMwnXK.s 			page 197


 6872              	.LBB1768:
 6873              	.LBB1766:
 6874 0020 C0E90F34 		strd	r3, r4, [r0, #60]
 6875              	.LBE1766:
 6876              	.LBE1768:
 6877              	.LBE1770:
 6878              	.LBE1772:
 6879              	.LBE1801:
  21:../../libs/PoliTeKDSP/libs/libDaisy/src/daisy_seed.h ****     ~DaisySeed() {}
 6880              		.loc 1 21 17 view .LVU1716
 6881 0024 C0E90041 		strd	r4, r1, [r0]
 6882 0028 C0E90211 		strd	r1, r1, [r0, #8]
 6883              	.LBB1802:
 6884              	.LBB1759:
 6885              	.LBB1757:
 6886              	.LBB1755:
 6887              	.LBB1753:
  69:../../libs/libDaisy/src/per/gpio.h ****         {
 6888              		.loc 18 69 73 view .LVU1717
 6889 002c C0E90C44 		strd	r4, r4, [r0, #48]
 6890              	.LBE1753:
 6891              	.LBE1755:
 6892              	.LBE1757:
 6893              	.LBE1759:
 6894              	.LBE1802:
 6895              	.LBE1807:
 6896              	.LBE1828:
  18:main.cpp      **** DaisySeed hw;
 6897              		.loc 11 18 11 view .LVU1718
 6898 0030 1049     		ldr	r1, .L421+12
 6899              	.LBB1829:
 6900              	.LBB1808:
 6901              	.LBB1803:
 6902              	.LBB1773:
 6903              	.LBB1771:
 6904              	.LBB1769:
 6905              	.LBB1767:
  69:../../libs/libDaisy/src/per/gpio.h ****         {
 6906              		.loc 18 69 73 view .LVU1719
 6907 0032 C0E91144 		strd	r4, r4, [r0, #68]
 6908              	.LBE1767:
 6909              	.LBE1769:
 6910              	.LBE1771:
 6911              	.LBE1773:
 6912              	.LBE1803:
 6913              	.LBB1804:
 6914              	.LBB1791:
 6915              	.LBB1789:
 6916              	.LBB1787:
 6917              	.LBB1785:
 6918              	.LBB1783:
 6919 0036 C0E91744 		strd	r4, r4, [r0, #92]
 6920              	.LBE1783:
 6921              	.LBE1785:
 6922              	.LBE1787:
 6923              	.LBE1789:
 6924              	.LBE1791:
ARM GAS  C:\Users\matte\AppData\Local\Temp\ccrMwnXK.s 			page 198


 6925              	.LBE1804:
 6926              	.LBE1808:
 6927              	.LBE1829:
  18:main.cpp      **** DaisySeed hw;
 6928              		.loc 11 18 11 view .LVU1720
 6929 003a FFF7FEFF 		bl	__aeabi_atexit
 6930              	.LVL476:
 6931              	.LBB1830:
 6932              	.LBI1830:
  23:../../libs/DaisySP/Source/Synthesis/oscillator.h ****     ~Oscillator() {}
 6933              		.loc 7 23 5 is_stmt 1 view .LVU1721
  23:../../libs/DaisySP/Source/Synthesis/oscillator.h ****     ~Oscillator() {}
 6934              		.loc 7 23 5 is_stmt 0 view .LVU1722
 6935              	.LBE1830:
  21:main.cpp      **** static Oscillator osc;
 6936              		.loc 11 21 19 view .LVU1723
 6937 003e 0B4A     		ldr	r2, .L421+4
 6938 0040 0D49     		ldr	r1, .L421+16
 6939 0042 0E48     		ldr	r0, .L421+20
 6940 0044 FFF7FEFF 		bl	__aeabi_atexit
 6941              	.LVL477:
 6942              	.LBB1831:
 6943              	.LBI1811:
  17:../../libs/PoliTeKDSP/libs/libDaisy/src/hid/disp/oled_display.h ****     virtual ~OledDisplay() {}
 6944              		.loc 8 17 5 is_stmt 1 view .LVU1724
 6945              	.LBB1826:
 6946              	.LBB1824:
 6947              	.LBB1814:
 6948              	.LBI1814:
 218:../../libs/PoliTeKDSP/libs/libDaisy/src/hid/disp/display.h ****     virtual ~OneBitGraphicsDisplayImpl() {}
 6949              		.loc 9 218 5 view .LVU1725
 6950              	.LBB1815:
 6951              	.LBI1815:
  22:../../libs/PoliTeKDSP/libs/libDaisy/src/hid/disp/display.h ****     virtual ~OneBitGraphicsDisplay() {}
 6952              		.loc 9 22 5 view .LVU1726
  22:../../libs/PoliTeKDSP/libs/libDaisy/src/hid/disp/display.h ****     virtual ~OneBitGraphicsDisplay() {}
 6953              		.loc 9 22 5 is_stmt 0 view .LVU1727
 6954              	.LBE1815:
 6955              	.LBE1814:
  17:../../libs/PoliTeKDSP/libs/libDaisy/src/hid/disp/oled_display.h ****     virtual ~OledDisplay() {}
 6956              		.loc 8 17 19 view .LVU1728
 6957 0048 0D4B     		ldr	r3, .L421+24
 6958              	.LBE1824:
 6959              	.LBE1826:
 6960              	.LBE1831:
  24:main.cpp      **** MyOledDisplay disp;
 6961              		.loc 11 24 15 view .LVU1729
 6962 004a 084A     		ldr	r2, .L421+4
 6963 004c 2846     		mov	r0, r5
 6964 004e 0D49     		ldr	r1, .L421+28
 6965              	.LBB1832:
 6966              	.LBB1827:
 6967              	.LBB1825:
 6968              	.LBB1816:
 6969              	.LBB1817:
 6970              	.LBB1818:
 6971              	.LBB1819:
ARM GAS  C:\Users\matte\AppData\Local\Temp\ccrMwnXK.s 			page 199


 6972              	.LBB1820:
  60:../../libs/libDaisy/src/per/i2c.h ****             Pin scl;  /**< & */
  61:../../libs/libDaisy/src/per/i2c.h ****             Pin sda;  /**< & */
  62:../../libs/libDaisy/src/per/i2c.h ****         } pin_config; /**< & */
  63:../../libs/libDaisy/src/per/i2c.h **** 
  64:../../libs/libDaisy/src/per/i2c.h ****         Speed speed; /**< & */
  65:../../libs/libDaisy/src/per/i2c.h ****         Mode  mode;  /**< & */
  66:../../libs/libDaisy/src/per/i2c.h ****         // 0x10 is chosen as a default to avoid conflicts with reserved addresses
  67:../../libs/libDaisy/src/per/i2c.h ****         uint8_t address = 0x10; /**< & */
  68:../../libs/libDaisy/src/per/i2c.h ****     };
  69:../../libs/libDaisy/src/per/i2c.h **** 
  70:../../libs/libDaisy/src/per/i2c.h ****     /** Return values for I2C functions. */
  71:../../libs/libDaisy/src/per/i2c.h ****     enum class Result
  72:../../libs/libDaisy/src/per/i2c.h ****     {
  73:../../libs/libDaisy/src/per/i2c.h ****         OK, /**< & */
  74:../../libs/libDaisy/src/per/i2c.h ****         ERR /**< & */
  75:../../libs/libDaisy/src/per/i2c.h ****     };
  76:../../libs/libDaisy/src/per/i2c.h **** 
  77:../../libs/libDaisy/src/per/i2c.h ****     enum class Direction
  78:../../libs/libDaisy/src/per/i2c.h ****     {
  79:../../libs/libDaisy/src/per/i2c.h ****         TRANSMIT, /**< & */
  80:../../libs/libDaisy/src/per/i2c.h ****         RECEIVE,  /**< & */
  81:../../libs/libDaisy/src/per/i2c.h ****     };
  82:../../libs/libDaisy/src/per/i2c.h **** 
  83:../../libs/libDaisy/src/per/i2c.h ****     I2CHandle() : pimpl_(nullptr) {}
 6973              		.loc 14 83 33 view .LVU1730
 6974 0050 AC60     		str	r4, [r5, #8]
 6975              	.LBE1820:
 6976              	.LBE1819:
 6977              	.LBE1818:
 6978              	.LBE1817:
 6979              	.LBE1816:
  17:../../libs/PoliTeKDSP/libs/libDaisy/src/hid/disp/oled_display.h ****     virtual ~OledDisplay() {}
 6980              		.loc 8 17 19 view .LVU1731
 6981 0052 2B60     		str	r3, [r5]
 6982              	.LVL478:
 6983              	.LBB1823:
 6984              	.LBI1816:
 233:../../libs/PoliTeKDSP/libs/libDaisy/src/dev/oled_ssd130x.h **** {
 6985              		.loc 10 233 7 is_stmt 1 view .LVU1732
 6986              	.LBB1822:
 6987              	.LBI1817:
  15:../../libs/PoliTeKDSP/libs/libDaisy/src/dev/oled_ssd130x.h **** {
 6988              		.loc 10 15 7 view .LVU1733
 6989              	.LBB1821:
 6990              	.LBI1818:
 6991              		.loc 14 83 5 view .LVU1734
 6992              		.loc 14 83 5 is_stmt 0 view .LVU1735
 6993              	.LBE1821:
 6994              	.LBE1822:
 6995              	.LBE1823:
 6996              	.LBE1825:
 6997              	.LBE1827:
 6998              	.LBE1832:
  24:main.cpp      **** MyOledDisplay disp;
 6999              		.loc 11 24 15 view .LVU1736
 7000 0054 FFF7FEFF 		bl	__aeabi_atexit
ARM GAS  C:\Users\matte\AppData\Local\Temp\ccrMwnXK.s 			page 200


 7001              	.LVL479:
  26:main.cpp      **** DisplayHandler disp_handle (&disp);
 7002              		.loc 11 26 34 view .LVU1737
 7003 0058 2946     		mov	r1, r5
 7004 005a 0122     		movs	r2, #1
 7005 005c 0A48     		ldr	r0, .L421+32
 7006              	.LBE1833:
 7007              	.LBE1835:
 7008              		.loc 11 73 2 view .LVU1738
 7009 005e BDE83840 		pop	{r3, r4, r5, lr}
 7010              		.cfi_restore 14
 7011              		.cfi_restore 5
 7012              		.cfi_restore 4
 7013              		.cfi_restore 3
 7014              		.cfi_def_cfa_offset 0
 7015              	.LBB1836:
 7016              	.LBB1834:
  26:main.cpp      **** DisplayHandler disp_handle (&disp);
 7017              		.loc 11 26 34 view .LVU1739
 7018 0062 FFF7FEBF 		b	_ZN14DisplayHandlerC1EPN5daisy11OledDisplayINS0_13SSD130xDriverILj128ELj64ENS0_19SSD130xI2CTrans
 7019              	.LVL480:
 7020              	.L422:
 7021 0066 00BF     		.align	2
 7022              	.L421:
 7023 0068 00000000 		.word	.LANCHOR2
 7024 006c 00000000 		.word	__dso_handle
 7025 0070 00000000 		.word	.LANCHOR3
 7026 0074 00000000 		.word	_ZN5daisy9DaisySeedD1Ev
 7027 0078 00000000 		.word	_ZN7daisysp10OscillatorD1Ev
 7028 007c 00000000 		.word	.LANCHOR0
 7029 0080 08000000 		.word	_ZTVN5daisy11OledDisplayINS_13SSD130xDriverILj128ELj64ENS_19SSD130xI2CTransportEEEEE+8
 7030 0084 00000000 		.word	_ZN5daisy11OledDisplayINS_13SSD130xDriverILj128ELj64ENS_19SSD130xI2CTransportEEEED1Ev
 7031 0088 00000000 		.word	.LANCHOR1
 7032              	.LBE1834:
 7033              	.LBE1836:
 7034              		.cfi_endproc
 7035              	.LFE5464:
 7037              		.section	.init_array,"aw",%init_array
 7038              		.align	2
 7039 0000 00000000 		.word	_GLOBAL__sub_I_hw(target1)
 7040              		.weak	_ZTVN5daisy11OledDisplayINS_13SSD130xDriverILj128ELj64ENS_19SSD130xI2CTransportEEEEE
 7041              		.section	.rodata._ZTVN5daisy11OledDisplayINS_13SSD130xDriverILj128ELj64ENS_19SSD130xI2CTransportEE
 7042              		.align	2
 7045              	_ZTVN5daisy11OledDisplayINS_13SSD130xDriverILj128ELj64ENS_19SSD130xI2CTransportEEEEE:
 7046 0000 00000000 		.word	0
 7047 0004 00000000 		.word	0
 7048 0008 00000000 		.word	_ZN5daisy11OledDisplayINS_13SSD130xDriverILj128ELj64ENS_19SSD130xI2CTransportEEEED1Ev
 7049 000c 00000000 		.word	_ZN5daisy11OledDisplayINS_13SSD130xDriverILj128ELj64ENS_19SSD130xI2CTransportEEEED0Ev
 7050 0010 00000000 		.word	_ZNK5daisy11OledDisplayINS_13SSD130xDriverILj128ELj64ENS_19SSD130xI2CTransportEEEE6HeightEv
 7051 0014 00000000 		.word	_ZNK5daisy11OledDisplayINS_13SSD130xDriverILj128ELj64ENS_19SSD130xI2CTransportEEEE5WidthEv
 7052 0018 00000000 		.word	_ZN5daisy11OledDisplayINS_13SSD130xDriverILj128ELj64ENS_19SSD130xI2CTransportEEEE4FillEb
 7053 001c 00000000 		.word	_ZN5daisy11OledDisplayINS_13SSD130xDriverILj128ELj64ENS_19SSD130xI2CTransportEEEE9DrawPixelE
 7054 0020 00000000 		.word	_ZN5daisy25OneBitGraphicsDisplayImplINS_11OledDisplayINS_13SSD130xDriverILj128ELj64ENS_19SSD
 7055 0024 00000000 		.word	_ZN5daisy25OneBitGraphicsDisplayImplINS_11OledDisplayINS_13SSD130xDriverILj128ELj64ENS_19SSD
 7056 0028 00000000 		.word	_ZN5daisy25OneBitGraphicsDisplayImplINS_11OledDisplayINS_13SSD130xDriverILj128ELj64ENS_19SSD
 7057 002c 00000000 		.word	_ZN5daisy25OneBitGraphicsDisplayImplINS_11OledDisplayINS_13SSD130xDriverILj128ELj64ENS_19SSD
 7058 0030 00000000 		.word	_ZN5daisy25OneBitGraphicsDisplayImplINS_11OledDisplayINS_13SSD130xDriverILj128ELj64ENS_19SSD
ARM GAS  C:\Users\matte\AppData\Local\Temp\ccrMwnXK.s 			page 201


 7059 0034 00000000 		.word	_ZN5daisy25OneBitGraphicsDisplayImplINS_11OledDisplayINS_13SSD130xDriverILj128ELj64ENS_19SSD
 7060 0038 00000000 		.word	_ZN5daisy11OledDisplayINS_13SSD130xDriverILj128ELj64ENS_19SSD130xI2CTransportEEEE6UpdateEv
 7061              		.global	disp_handle
 7062              		.global	disp
 7063              		.global	hw
 7064              		.section	.bss._ZL3osc,"aw",%nobits
 7065              		.align	2
 7066              		.set	.LANCHOR0,. + 0
 7069              	_ZL3osc:
 7070 0000 00000000 		.space	44
 7070      00000000 
 7070      00000000 
 7070      00000000 
 7070      00000000 
 7071              		.section	.bss.disp,"aw",%nobits
 7072              		.align	2
 7073              		.set	.LANCHOR3,. + 0
 7076              	disp:
 7077 0000 00000000 		.space	1040
 7077      00000000 
 7077      00000000 
 7077      00000000 
 7077      00000000 
 7078              		.section	.bss.disp_handle,"aw",%nobits
 7079              		.align	2
 7080              		.set	.LANCHOR1,. + 0
 7083              	disp_handle:
 7084 0000 00000000 		.space	2076
 7084      00000000 
 7084      00000000 
 7084      00000000 
 7084      00000000 
 7085              		.section	.bss.hw,"aw",%nobits
 7086              		.align	2
 7087              		.set	.LANCHOR2,. + 0
 7090              	hw:
 7091 0000 00000000 		.space	116
 7091      00000000 
 7091      00000000 
 7091      00000000 
 7091      00000000 
 7092              		.text
 7093              	.Letext0:
 7094              		.file 20 "c:\\program files\\daisytoolchain\\arm-none-eabi\\include\\machine\\_default_types.h"
 7095              		.file 21 "c:\\program files\\daisytoolchain\\arm-none-eabi\\include\\sys\\_stdint.h"
 7096              		.file 22 "c:\\program files\\daisytoolchain\\arm-none-eabi\\include\\stdint.h"
 7097              		.file 23 "c:\\program files\\daisytoolchain\\lib\\gcc\\arm-none-eabi\\10.2.1\\include\\stddef.h"
 7098              		.file 24 "c:\\program files\\daisytoolchain\\arm-none-eabi\\include\\c++\\10.2.1\\bits\\std_abs.h"
 7099              		.file 25 "c:\\program files\\daisytoolchain\\arm-none-eabi\\include\\c++\\10.2.1\\cstdlib"
 7100              		.file 26 "c:\\program files\\daisytoolchain\\arm-none-eabi\\include\\c++\\10.2.1\\cstdint"
 7101              		.file 27 "c:\\program files\\daisytoolchain\\arm-none-eabi\\include\\c++\\10.2.1\\type_traits"
 7102              		.file 28 "c:\\program files\\daisytoolchain\\arm-none-eabi\\include\\c++\\10.2.1\\debug\\debug.h"
 7103              		.file 29 "c:\\program files\\daisytoolchain\\arm-none-eabi\\include\\c++\\10.2.1\\arm-none-eabi\\t
 7104              		.file 30 "c:\\program files\\daisytoolchain\\arm-none-eabi\\include\\c++\\10.2.1\\bits\\algorithmf
 7105              		.file 31 "c:\\program files\\daisytoolchain\\arm-none-eabi\\include\\c++\\10.2.1\\bits\\stl_pair.h
 7106              		.file 32 "c:\\program files\\daisytoolchain\\arm-none-eabi\\include\\c++\\10.2.1\\bits\\exception_
 7107              		.file 33 "c:\\program files\\daisytoolchain\\arm-none-eabi\\include\\c++\\10.2.1\\cstdarg"
ARM GAS  C:\Users\matte\AppData\Local\Temp\ccrMwnXK.s 			page 202


 7108              		.file 34 "c:\\program files\\daisytoolchain\\arm-none-eabi\\include\\c++\\10.2.1\\cstdio"
 7109              		.file 35 "c:\\program files\\daisytoolchain\\arm-none-eabi\\include\\c++\\10.2.1\\cstring"
 7110              		.file 36 "c:\\program files\\daisytoolchain\\arm-none-eabi\\include\\c++\\10.2.1\\cwchar"
 7111              		.file 37 "c:\\program files\\daisytoolchain\\arm-none-eabi\\include\\c++\\10.2.1\\clocale"
 7112              		.file 38 "c:\\program files\\daisytoolchain\\arm-none-eabi\\include\\c++\\10.2.1\\bits\\basic_stri
 7113              		.file 39 "c:\\program files\\daisytoolchain\\arm-none-eabi\\include\\c++\\10.2.1\\bits\\stl_tempbu
 7114              		.file 40 "c:\\program files\\daisytoolchain\\arm-none-eabi\\include\\c++\\10.2.1\\bits\\predefined
 7115              		.file 41 "c:\\program files\\daisytoolchain\\arm-none-eabi\\include\\sys\\_types.h"
 7116              		.file 42 "c:\\program files\\daisytoolchain\\arm-none-eabi\\include\\sys\\reent.h"
 7117              		.file 43 "c:\\program files\\daisytoolchain\\arm-none-eabi\\include\\sys\\lock.h"
 7118              		.file 44 "c:\\program files\\daisytoolchain\\arm-none-eabi\\include\\math.h"
 7119              		.file 45 "c:\\program files\\daisytoolchain\\arm-none-eabi\\include\\stdlib.h"
 7120              		.file 46 "c:\\program files\\daisytoolchain\\arm-none-eabi\\include\\c++\\10.2.1\\math.h"
 7121              		.file 47 "c:\\program files\\daisytoolchain\\arm-none-eabi\\include\\c++\\10.2.1\\stdlib.h"
 7122              		.file 48 "../../libs/libDaisy/src/per/tim.h"
 7123              		.file 49 "../../libs/libDaisy/src/util/wav_format.h"
 7124              		.file 50 "../../libs/PoliTeKDSP/libs/libDaisy/src/dev/sr_595.h"
 7125              		.file 51 "../../libs/PoliTeKDSP/libs/libDaisy/src/dev/max11300.h"
 7126              		.file 52 "../../libs/PoliTeKDSP/libs/libDaisy/src/dev/sdram.h"
 7127              		.file 53 "c:\\program files\\daisytoolchain\\lib\\gcc\\arm-none-eabi\\10.2.1\\include\\stdarg.h"
 7128              		.file 54 "c:\\program files\\daisytoolchain\\arm-none-eabi\\include\\stdio.h"
 7129              		.file 55 "../../libs/libDaisy/src/util/oled_fonts.h"
 7130              		.file 56 "c:\\program files\\daisytoolchain\\arm-none-eabi\\include\\string.h"
 7131              		.file 57 "displayHandler.h"
 7132              		.file 58 "../../libs/DaisySP/Source/Control/adenv.h"
 7133              		.file 59 "../../libs/DaisySP/Source/Utility/dsp.h"
 7134              		.file 60 "c:\\program files\\daisytoolchain\\arm-none-eabi\\include\\wchar.h"
 7135              		.file 61 "c:\\program files\\daisytoolchain\\arm-none-eabi\\include\\locale.h"
 7136              		.file 62 "<built-in>"
 7137              		.file 63 "c:\\program files\\daisytoolchain\\arm-none-eabi\\include\\c++\\10.2.1\\new"
ARM GAS  C:\Users\matte\AppData\Local\Temp\ccrMwnXK.s 			page 203


DEFINED SYMBOLS
                            *ABS*:00000000 main.cpp
C:\Users\matte\AppData\Local\Temp\ccrMwnXK.s:17     .text._ZN5daisy9DaisySeedD2Ev:00000000 $t
C:\Users\matte\AppData\Local\Temp\ccrMwnXK.s:26     .text._ZN5daisy9DaisySeedD2Ev:00000000 _ZN5daisy9DaisySeedD2Ev
C:\Users\matte\AppData\Local\Temp\ccrMwnXK.s:26     .text._ZN5daisy9DaisySeedD2Ev:00000000 _ZN5daisy9DaisySeedD1Ev
C:\Users\matte\AppData\Local\Temp\ccrMwnXK.s:73     .text._ZN7daisysp10OscillatorD2Ev:00000000 $t
C:\Users\matte\AppData\Local\Temp\ccrMwnXK.s:81     .text._ZN7daisysp10OscillatorD2Ev:00000000 _ZN7daisysp10OscillatorD2Ev
C:\Users\matte\AppData\Local\Temp\ccrMwnXK.s:81     .text._ZN7daisysp10OscillatorD2Ev:00000000 _ZN7daisysp10OscillatorD1Ev
C:\Users\matte\AppData\Local\Temp\ccrMwnXK.s:98     .text._ZN5daisy11OledDisplayINS_13SSD130xDriverILj128ELj64ENS_19SSD130xI2CTransportEEEED2Ev:00000000 $t
C:\Users\matte\AppData\Local\Temp\ccrMwnXK.s:106    .text._ZN5daisy11OledDisplayINS_13SSD130xDriverILj128ELj64ENS_19SSD130xI2CTransportEEEED2Ev:00000000 _ZN5daisy11OledDisplayINS_13SSD130xDriverILj128ELj64ENS_19SSD130xI2CTransportEEEED2Ev
C:\Users\matte\AppData\Local\Temp\ccrMwnXK.s:106    .text._ZN5daisy11OledDisplayINS_13SSD130xDriverILj128ELj64ENS_19SSD130xI2CTransportEEEED2Ev:00000000 _ZN5daisy11OledDisplayINS_13SSD130xDriverILj128ELj64ENS_19SSD130xI2CTransportEEEED1Ev
C:\Users\matte\AppData\Local\Temp\ccrMwnXK.s:133    .text._ZNK5daisy11OledDisplayINS_13SSD130xDriverILj128ELj64ENS_19SSD130xI2CTransportEEEE6HeightEv:00000000 $t
C:\Users\matte\AppData\Local\Temp\ccrMwnXK.s:141    .text._ZNK5daisy11OledDisplayINS_13SSD130xDriverILj128ELj64ENS_19SSD130xI2CTransportEEEE6HeightEv:00000000 _ZNK5daisy11OledDisplayINS_13SSD130xDriverILj128ELj64ENS_19SSD130xI2CTransportEEEE6HeightEv
C:\Users\matte\AppData\Local\Temp\ccrMwnXK.s:158    .text._ZNK5daisy11OledDisplayINS_13SSD130xDriverILj128ELj64ENS_19SSD130xI2CTransportEEEE5WidthEv:00000000 $t
C:\Users\matte\AppData\Local\Temp\ccrMwnXK.s:166    .text._ZNK5daisy11OledDisplayINS_13SSD130xDriverILj128ELj64ENS_19SSD130xI2CTransportEEEE5WidthEv:00000000 _ZNK5daisy11OledDisplayINS_13SSD130xDriverILj128ELj64ENS_19SSD130xI2CTransportEEEE5WidthEv
C:\Users\matte\AppData\Local\Temp\ccrMwnXK.s:183    .text._ZN5daisy11OledDisplayINS_13SSD130xDriverILj128ELj64ENS_19SSD130xI2CTransportEEEE4FillEb:00000000 $t
C:\Users\matte\AppData\Local\Temp\ccrMwnXK.s:191    .text._ZN5daisy11OledDisplayINS_13SSD130xDriverILj128ELj64ENS_19SSD130xI2CTransportEEEE4FillEb:00000000 _ZN5daisy11OledDisplayINS_13SSD130xDriverILj128ELj64ENS_19SSD130xI2CTransportEEEE4FillEb
C:\Users\matte\AppData\Local\Temp\ccrMwnXK.s:223    .text._ZL13AudioCallbackPKfPfj:00000000 $t
C:\Users\matte\AppData\Local\Temp\ccrMwnXK.s:230    .text._ZL13AudioCallbackPKfPfj:00000000 _ZL13AudioCallbackPKfPfj
C:\Users\matte\AppData\Local\Temp\ccrMwnXK.s:309    .text._ZL13AudioCallbackPKfPfj:0000003c $d
C:\Users\matte\AppData\Local\Temp\ccrMwnXK.s:315    .text._ZN5daisy11OledDisplayINS_13SSD130xDriverILj128ELj64ENS_19SSD130xI2CTransportEEEED0Ev:00000000 $t
C:\Users\matte\AppData\Local\Temp\ccrMwnXK.s:323    .text._ZN5daisy11OledDisplayINS_13SSD130xDriverILj128ELj64ENS_19SSD130xI2CTransportEEEED0Ev:00000000 _ZN5daisy11OledDisplayINS_13SSD130xDriverILj128ELj64ENS_19SSD130xI2CTransportEEEED0Ev
C:\Users\matte\AppData\Local\Temp\ccrMwnXK.s:363    .text._ZN5daisy11OledDisplayINS_13SSD130xDriverILj128ELj64ENS_19SSD130xI2CTransportEEEE6UpdateEv:00000000 $t
C:\Users\matte\AppData\Local\Temp\ccrMwnXK.s:371    .text._ZN5daisy11OledDisplayINS_13SSD130xDriverILj128ELj64ENS_19SSD130xI2CTransportEEEE6UpdateEv:00000000 _ZN5daisy11OledDisplayINS_13SSD130xDriverILj128ELj64ENS_19SSD130xI2CTransportEEEE6UpdateEv
C:\Users\matte\AppData\Local\Temp\ccrMwnXK.s:554    .text._ZN5daisy25OneBitGraphicsDisplayImplINS_11OledDisplayINS_13SSD130xDriverILj128ELj64ENS_19SSD130xI2CTransportEEEEEE11WriteStringEPKc7FontDefb:00000000 $t
C:\Users\matte\AppData\Local\Temp\ccrMwnXK.s:562    .text._ZN5daisy25OneBitGraphicsDisplayImplINS_11OledDisplayINS_13SSD130xDriverILj128ELj64ENS_19SSD130xI2CTransportEEEEEE11WriteStringEPKc7FontDefb:00000000 _ZN5daisy25OneBitGraphicsDisplayImplINS_11OledDisplayINS_13SSD130xDriverILj128ELj64ENS_19SSD130xI2CTransportEEEEEE11WriteStringEPKc7FontDefb
C:\Users\matte\AppData\Local\Temp\ccrMwnXK.s:1019   .text._ZN5daisy25OneBitGraphicsDisplayImplINS_11OledDisplayINS_13SSD130xDriverILj128ELj64ENS_19SSD130xI2CTransportEEEEEE11WriteStringEPKc7FontDefb:000001b8 $d
C:\Users\matte\AppData\Local\Temp\ccrMwnXK.s:1029   .text._ZN5daisy25OneBitGraphicsDisplayImplINS_11OledDisplayINS_13SSD130xDriverILj128ELj64ENS_19SSD130xI2CTransportEEEEEE9WriteCharEc7FontDefb:00000000 $t
C:\Users\matte\AppData\Local\Temp\ccrMwnXK.s:1037   .text._ZN5daisy25OneBitGraphicsDisplayImplINS_11OledDisplayINS_13SSD130xDriverILj128ELj64ENS_19SSD130xI2CTransportEEEEEE9WriteCharEc7FontDefb:00000000 _ZN5daisy25OneBitGraphicsDisplayImplINS_11OledDisplayINS_13SSD130xDriverILj128ELj64ENS_19SSD130xI2CTransportEEEEEE9WriteCharEc7FontDefb
C:\Users\matte\AppData\Local\Temp\ccrMwnXK.s:1463   .text._ZN5daisy25OneBitGraphicsDisplayImplINS_11OledDisplayINS_13SSD130xDriverILj128ELj64ENS_19SSD130xI2CTransportEEEEEE9WriteCharEc7FontDefb:00000198 $d
C:\Users\matte\AppData\Local\Temp\ccrMwnXK.s:1471   .text._ZN5daisy25OneBitGraphicsDisplayImplINS_11OledDisplayINS_13SSD130xDriverILj128ELj64ENS_19SSD130xI2CTransportEEEEEE18WriteStringAlignedEPKcRK7FontDefNS_9RectangleENS_9AlignmentEb:00000000 $t
C:\Users\matte\AppData\Local\Temp\ccrMwnXK.s:1479   .text._ZN5daisy25OneBitGraphicsDisplayImplINS_11OledDisplayINS_13SSD130xDriverILj128ELj64ENS_19SSD130xI2CTransportEEEEEE18WriteStringAlignedEPKcRK7FontDefNS_9RectangleENS_9AlignmentEb:00000000 _ZN5daisy25OneBitGraphicsDisplayImplINS_11OledDisplayINS_13SSD130xDriverILj128ELj64ENS_19SSD130xI2CTransportEEEEEE18WriteStringAlignedEPKcRK7FontDefNS_9RectangleENS_9AlignmentEb
C:\Users\matte\AppData\Local\Temp\ccrMwnXK.s:1618   .text._ZN5daisy25OneBitGraphicsDisplayImplINS_11OledDisplayINS_13SSD130xDriverILj128ELj64ENS_19SSD130xI2CTransportEEEEEE18WriteStringAlignedEPKcRK7FontDefNS_9RectangleENS_9AlignmentEb:00000046 $d
C:\Users\matte\AppData\Local\Temp\ccrMwnXK.s:1627   .text._ZN5daisy25OneBitGraphicsDisplayImplINS_11OledDisplayINS_13SSD130xDriverILj128ELj64ENS_19SSD130xI2CTransportEEEEEE18WriteStringAlignedEPKcRK7FontDefNS_9RectangleENS_9AlignmentEb:00000058 $t
C:\Users\matte\AppData\Local\Temp\ccrMwnXK.s:2835   .text._ZN5daisy25OneBitGraphicsDisplayImplINS_11OledDisplayINS_13SSD130xDriverILj128ELj64ENS_19SSD130xI2CTransportEEEEEE18WriteStringAlignedEPKcRK7FontDefNS_9RectangleENS_9AlignmentEb:00000320 $d
C:\Users\matte\AppData\Local\Temp\ccrMwnXK.s:2844   .text._ZN5daisy25OneBitGraphicsDisplayImplINS_11OledDisplayINS_13SSD130xDriverILj128ELj64ENS_19SSD130xI2CTransportEEEEEE18WriteStringAlignedEPKcRK7FontDefNS_9RectangleENS_9AlignmentEb:00000328 $t
C:\Users\matte\AppData\Local\Temp\ccrMwnXK.s:3155   .text._ZN5daisy25OneBitGraphicsDisplayImplINS_11OledDisplayINS_13SSD130xDriverILj128ELj64ENS_19SSD130xI2CTransportEEEEEE18WriteStringAlignedEPKcRK7FontDefNS_9RectangleENS_9AlignmentEb:000003e8 $d
C:\Users\matte\AppData\Local\Temp\ccrMwnXK.s:3163   .text._ZN5daisy11OledDisplayINS_13SSD130xDriverILj128ELj64ENS_19SSD130xI2CTransportEEEE9DrawPixelEjjb:00000000 $t
C:\Users\matte\AppData\Local\Temp\ccrMwnXK.s:3171   .text._ZN5daisy11OledDisplayINS_13SSD130xDriverILj128ELj64ENS_19SSD130xI2CTransportEEEE9DrawPixelEjjb:00000000 _ZN5daisy11OledDisplayINS_13SSD130xDriverILj128ELj64ENS_19SSD130xI2CTransportEEEE9DrawPixelEjjb
C:\Users\matte\AppData\Local\Temp\ccrMwnXK.s:3248   .text._ZN5daisy25OneBitGraphicsDisplayImplINS_11OledDisplayINS_13SSD130xDriverILj128ELj64ENS_19SSD130xI2CTransportEEEEEE8DrawLineEjjjjb:00000000 $t
C:\Users\matte\AppData\Local\Temp\ccrMwnXK.s:3256   .text._ZN5daisy25OneBitGraphicsDisplayImplINS_11OledDisplayINS_13SSD130xDriverILj128ELj64ENS_19SSD130xI2CTransportEEEEEE8DrawLineEjjjjb:00000000 _ZN5daisy25OneBitGraphicsDisplayImplINS_11OledDisplayINS_13SSD130xDriverILj128ELj64ENS_19SSD130xI2CTransportEEEEEE8DrawLineEjjjjb
C:\Users\matte\AppData\Local\Temp\ccrMwnXK.s:3541   .text._ZN5daisy25OneBitGraphicsDisplayImplINS_11OledDisplayINS_13SSD130xDriverILj128ELj64ENS_19SSD130xI2CTransportEEEEEE7DrawArcEjjjiib:00000000 $t
C:\Users\matte\AppData\Local\Temp\ccrMwnXK.s:3549   .text._ZN5daisy25OneBitGraphicsDisplayImplINS_11OledDisplayINS_13SSD130xDriverILj128ELj64ENS_19SSD130xI2CTransportEEEEEE7DrawArcEjjjiib:00000000 _ZN5daisy25OneBitGraphicsDisplayImplINS_11OledDisplayINS_13SSD130xDriverILj128ELj64ENS_19SSD130xI2CTransportEEEEEE7DrawArcEjjjiib
C:\Users\matte\AppData\Local\Temp\ccrMwnXK.s:4234   .text._ZN5daisy25OneBitGraphicsDisplayImplINS_11OledDisplayINS_13SSD130xDriverILj128ELj64ENS_19SSD130xI2CTransportEEEEEE7DrawArcEjjjiib:00000368 $d
C:\Users\matte\AppData\Local\Temp\ccrMwnXK.s:4248   .text._ZN5daisy25OneBitGraphicsDisplayImplINS_11OledDisplayINS_13SSD130xDriverILj128ELj64ENS_19SSD130xI2CTransportEEEEEE7DrawArcEjjjiib:00000378 $t
C:\Users\matte\AppData\Local\Temp\ccrMwnXK.s:4474   .text._ZN5daisy25OneBitGraphicsDisplayImplINS_11OledDisplayINS_13SSD130xDriverILj128ELj64ENS_19SSD130xI2CTransportEEEEEE8DrawRectEjjjjbb:00000000 $t
C:\Users\matte\AppData\Local\Temp\ccrMwnXK.s:4482   .text._ZN5daisy25OneBitGraphicsDisplayImplINS_11OledDisplayINS_13SSD130xDriverILj128ELj64ENS_19SSD130xI2CTransportEEEEEE8DrawRectEjjjjbb:00000000 _ZN5daisy25OneBitGraphicsDisplayImplINS_11OledDisplayINS_13SSD130xDriverILj128ELj64ENS_19SSD130xI2CTransportEEEEEE8DrawRectEjjjjbb
C:\Users\matte\AppData\Local\Temp\ccrMwnXK.s:5592   .text._ZN5daisy13SSD130xDriverILj128ELj64ENS_19SSD130xI2CTransportEE4InitENS2_6ConfigE:00000000 $t
C:\Users\matte\AppData\Local\Temp\ccrMwnXK.s:5600   .text._ZN5daisy13SSD130xDriverILj128ELj64ENS_19SSD130xI2CTransportEE4InitENS2_6ConfigE:00000000 _ZN5daisy13SSD130xDriverILj128ELj64ENS_19SSD130xI2CTransportEE4InitENS2_6ConfigE
C:\Users\matte\AppData\Local\Temp\ccrMwnXK.s:6253   .text.startup.main:00000000 $t
C:\Users\matte\AppData\Local\Temp\ccrMwnXK.s:6261   .text.startup.main:00000000 main
C:\Users\matte\AppData\Local\Temp\ccrMwnXK.s:6595   .text.startup.main:000000d8 $d
C:\Users\matte\AppData\Local\Temp\ccrMwnXK.s:6611   .text.startup._GLOBAL__sub_I_hw:00000000 $t
C:\Users\matte\AppData\Local\Temp\ccrMwnXK.s:6618   .text.startup._GLOBAL__sub_I_hw:00000000 _GLOBAL__sub_I_hw
C:\Users\matte\AppData\Local\Temp\ccrMwnXK.s:7023   .text.startup._GLOBAL__sub_I_hw:00000068 $d
C:\Users\matte\AppData\Local\Temp\ccrMwnXK.s:7045   .rodata._ZTVN5daisy11OledDisplayINS_13SSD130xDriverILj128ELj64ENS_19SSD130xI2CTransportEEEEE:00000000 _ZTVN5daisy11OledDisplayINS_13SSD130xDriverILj128ELj64ENS_19SSD130xI2CTransportEEEEE
C:\Users\matte\AppData\Local\Temp\ccrMwnXK.s:7038   .init_array:00000000 $d
ARM GAS  C:\Users\matte\AppData\Local\Temp\ccrMwnXK.s 			page 204


C:\Users\matte\AppData\Local\Temp\ccrMwnXK.s:7042   .rodata._ZTVN5daisy11OledDisplayINS_13SSD130xDriverILj128ELj64ENS_19SSD130xI2CTransportEEEEE:00000000 $d
C:\Users\matte\AppData\Local\Temp\ccrMwnXK.s:7083   .bss.disp_handle:00000000 disp_handle
C:\Users\matte\AppData\Local\Temp\ccrMwnXK.s:7076   .bss.disp:00000000 disp
C:\Users\matte\AppData\Local\Temp\ccrMwnXK.s:7090   .bss.hw:00000000 hw
C:\Users\matte\AppData\Local\Temp\ccrMwnXK.s:7065   .bss._ZL3osc:00000000 $d
C:\Users\matte\AppData\Local\Temp\ccrMwnXK.s:7069   .bss._ZL3osc:00000000 _ZL3osc
C:\Users\matte\AppData\Local\Temp\ccrMwnXK.s:7072   .bss.disp:00000000 $d
C:\Users\matte\AppData\Local\Temp\ccrMwnXK.s:7079   .bss.disp_handle:00000000 $d
C:\Users\matte\AppData\Local\Temp\ccrMwnXK.s:7086   .bss.hw:00000000 $d
                           .group:00000000 _ZN5daisy9DaisySeedD5Ev
                           .group:00000000 _ZN7daisysp10OscillatorD5Ev
                           .group:00000000 _ZN5daisy11OledDisplayINS_13SSD130xDriverILj128ELj64ENS_19SSD130xI2CTransportEEEED5Ev

UNDEFINED SYMBOLS
memset
_ZN7daisysp10Oscillator7ProcessEv
_ZN14DisplayHandler15pushAudioSampleEff
_ZdlPvj
_ZN5daisy9I2CHandle16TransmitBlockingEtPhtm
cosf
sinf
_ZN5daisy9I2CHandle4InitERKNS0_6ConfigE
_ZN5daisy9DaisySeed4InitEb
_ZN5daisy9DaisySeed17SetAudioBlockSizeEj
_ZN7daisysp10Oscillator12CalcPhaseIncEf
_ZN14DisplayHandler8SetStateE12DisplayState
_ZN5daisy9DaisySeed10StartAudioEPFvPKfPfjE
_ZN14DisplayHandler6UpdateEv
__aeabi_atexit
_ZN14DisplayHandlerC1EPN5daisy11OledDisplayINS0_13SSD130xDriverILj128ELj64ENS0_19SSD130xI2CTransportEEEEEb
__dso_handle
