ARM GAS  C:\Users\skipi\AppData\Local\Temp\ccgtPcFN.s 			page 1


   1              		.cpu cortex-m7
   2              		.eabi_attribute 28, 1
   3              		.eabi_attribute 20, 1
   4              		.eabi_attribute 21, 1
   5              		.eabi_attribute 23, 3
   6              		.eabi_attribute 24, 1
   7              		.eabi_attribute 25, 1
   8              		.eabi_attribute 26, 1
   9              		.eabi_attribute 30, 2
  10              		.eabi_attribute 34, 1
  11              		.eabi_attribute 18, 4
  12              		.file	"AnalogDelay.cpp"
  13              		.text
  14              	.Ltext0:
  15              		.cfi_sections	.debug_frame
  16              		.section	.text._ZN7daisysp12PitchShifter7ProcessERf,"axG",%progbits,_ZN7daisysp12PitchShifter7Proc
  17              		.align	1
  18              		.p2align 2,,3
  19              		.weak	_ZN7daisysp12PitchShifter7ProcessERf
  20              		.arch armv7e-m
  21              		.syntax unified
  22              		.thumb
  23              		.thumb_func
  24              		.fpu fpv5-d16
  26              	_ZN7daisysp12PitchShifter7ProcessERf:
  27              	.LVL0:
  28              	.LFB4495:
  29              		.file 1 "../../libs/DaisySP/Source/Effects/pitchshifter.h"
   1:../../libs/DaisySP/Source/Effects/pitchshifter.h **** /*
   2:../../libs/DaisySP/Source/Effects/pitchshifter.h **** Copyright (c) 2020 Electrosmith, Corp
   3:../../libs/DaisySP/Source/Effects/pitchshifter.h **** 
   4:../../libs/DaisySP/Source/Effects/pitchshifter.h **** Use of this source code is governed by an MIT-style
   5:../../libs/DaisySP/Source/Effects/pitchshifter.h **** license that can be found in the LICENSE file or at
   6:../../libs/DaisySP/Source/Effects/pitchshifter.h **** https://opensource.org/licenses/MIT.
   7:../../libs/DaisySP/Source/Effects/pitchshifter.h **** */
   8:../../libs/DaisySP/Source/Effects/pitchshifter.h **** 
   9:../../libs/DaisySP/Source/Effects/pitchshifter.h **** #pragma once
  10:../../libs/DaisySP/Source/Effects/pitchshifter.h **** #ifndef DSY_PITCHSHIFTER_H
  11:../../libs/DaisySP/Source/Effects/pitchshifter.h **** #define DSY_PITCHSHIFTER_H
  12:../../libs/DaisySP/Source/Effects/pitchshifter.h **** #include <stdint.h>
  13:../../libs/DaisySP/Source/Effects/pitchshifter.h **** #include <cmath>
  14:../../libs/DaisySP/Source/Effects/pitchshifter.h **** #ifdef USE_ARM_DSP
  15:../../libs/DaisySP/Source/Effects/pitchshifter.h **** #include "arm_math.h"
  16:../../libs/DaisySP/Source/Effects/pitchshifter.h **** #endif
  17:../../libs/DaisySP/Source/Effects/pitchshifter.h **** #include "Utility/dsp.h"
  18:../../libs/DaisySP/Source/Effects/pitchshifter.h **** #include "Utility/delayline.h"
  19:../../libs/DaisySP/Source/Effects/pitchshifter.h **** #include "Control/phasor.h"
  20:../../libs/DaisySP/Source/Effects/pitchshifter.h **** 
  21:../../libs/DaisySP/Source/Effects/pitchshifter.h **** /** Shift can be 30-100 ms lets just start with 50 for now.
  22:../../libs/DaisySP/Source/Effects/pitchshifter.h **** 0.050 * SR = 2400 samples (at 48kHz)
  23:../../libs/DaisySP/Source/Effects/pitchshifter.h **** */
  24:../../libs/DaisySP/Source/Effects/pitchshifter.h **** #define SHIFT_BUFFER_SIZE 16384
  25:../../libs/DaisySP/Source/Effects/pitchshifter.h **** //#define SHIFT_BUFFER_SIZE 4800
  26:../../libs/DaisySP/Source/Effects/pitchshifter.h **** //#define SHIFT_BUFFER_SIZE 8192
  27:../../libs/DaisySP/Source/Effects/pitchshifter.h **** //#define SHIFT_BUFFER_SIZE 1024
  28:../../libs/DaisySP/Source/Effects/pitchshifter.h **** 
  29:../../libs/DaisySP/Source/Effects/pitchshifter.h **** namespace daisysp
ARM GAS  C:\Users\skipi\AppData\Local\Temp\ccgtPcFN.s 			page 2


  30:../../libs/DaisySP/Source/Effects/pitchshifter.h **** {
  31:../../libs/DaisySP/Source/Effects/pitchshifter.h **** static inline uint32_t hash_xs32(uint32_t x)
  32:../../libs/DaisySP/Source/Effects/pitchshifter.h **** {
  33:../../libs/DaisySP/Source/Effects/pitchshifter.h ****     x ^= x << 13;
  34:../../libs/DaisySP/Source/Effects/pitchshifter.h ****     x ^= x >> 17;
  35:../../libs/DaisySP/Source/Effects/pitchshifter.h ****     x ^= x << 5;
  36:../../libs/DaisySP/Source/Effects/pitchshifter.h ****     return x;
  37:../../libs/DaisySP/Source/Effects/pitchshifter.h **** }
  38:../../libs/DaisySP/Source/Effects/pitchshifter.h **** 
  39:../../libs/DaisySP/Source/Effects/pitchshifter.h **** inline uint32_t myrand()
  40:../../libs/DaisySP/Source/Effects/pitchshifter.h **** {
  41:../../libs/DaisySP/Source/Effects/pitchshifter.h ****     static uint32_t seed = 1;
  42:../../libs/DaisySP/Source/Effects/pitchshifter.h ****     seed                 = hash_xs32(seed);
  43:../../libs/DaisySP/Source/Effects/pitchshifter.h ****     return seed;
  44:../../libs/DaisySP/Source/Effects/pitchshifter.h **** }
  45:../../libs/DaisySP/Source/Effects/pitchshifter.h **** 
  46:../../libs/DaisySP/Source/Effects/pitchshifter.h **** /**  time-domain pitchshifter
  47:../../libs/DaisySP/Source/Effects/pitchshifter.h **** 
  48:../../libs/DaisySP/Source/Effects/pitchshifter.h **** Author: shensley
  49:../../libs/DaisySP/Source/Effects/pitchshifter.h **** 
  50:../../libs/DaisySP/Source/Effects/pitchshifter.h **** Based on "Pitch Shifting" from ucsd.edu 
  51:../../libs/DaisySP/Source/Effects/pitchshifter.h **** 
  52:../../libs/DaisySP/Source/Effects/pitchshifter.h **** t = 1 - ((s *f) / R)
  53:../../libs/DaisySP/Source/Effects/pitchshifter.h **** 
  54:../../libs/DaisySP/Source/Effects/pitchshifter.h **** where:
  55:../../libs/DaisySP/Source/Effects/pitchshifter.h ****     s is the size of the delay
  56:../../libs/DaisySP/Source/Effects/pitchshifter.h ****     f is the frequency of the lfo
  57:../../libs/DaisySP/Source/Effects/pitchshifter.h ****     r is the sample_rate
  58:../../libs/DaisySP/Source/Effects/pitchshifter.h **** 
  59:../../libs/DaisySP/Source/Effects/pitchshifter.h **** solving for t = 12.0
  60:../../libs/DaisySP/Source/Effects/pitchshifter.h **** f = (12 - 1) * 48000 / SHIFT_BUFFER_SIZE;
  61:../../libs/DaisySP/Source/Effects/pitchshifter.h **** 
  62:../../libs/DaisySP/Source/Effects/pitchshifter.h **** \todo - move hash_xs32 and myrand to dsp.h and give appropriate names
  63:../../libs/DaisySP/Source/Effects/pitchshifter.h **** */
  64:../../libs/DaisySP/Source/Effects/pitchshifter.h **** class PitchShifter
  65:../../libs/DaisySP/Source/Effects/pitchshifter.h **** {
  66:../../libs/DaisySP/Source/Effects/pitchshifter.h ****   public:
  67:../../libs/DaisySP/Source/Effects/pitchshifter.h ****     PitchShifter() {}
  68:../../libs/DaisySP/Source/Effects/pitchshifter.h ****     ~PitchShifter() {}
  69:../../libs/DaisySP/Source/Effects/pitchshifter.h ****     /** Initialize pitch shifter
  70:../../libs/DaisySP/Source/Effects/pitchshifter.h ****     */
  71:../../libs/DaisySP/Source/Effects/pitchshifter.h ****     void Init(float sr)
  72:../../libs/DaisySP/Source/Effects/pitchshifter.h ****     {
  73:../../libs/DaisySP/Source/Effects/pitchshifter.h ****         force_recalc_ = false;
  74:../../libs/DaisySP/Source/Effects/pitchshifter.h ****         sr_           = sr;
  75:../../libs/DaisySP/Source/Effects/pitchshifter.h ****         mod_freq_     = 5.0f;
  76:../../libs/DaisySP/Source/Effects/pitchshifter.h ****         SetSemitones();
  77:../../libs/DaisySP/Source/Effects/pitchshifter.h ****         for(uint8_t i = 0; i < 2; i++)
  78:../../libs/DaisySP/Source/Effects/pitchshifter.h ****         {
  79:../../libs/DaisySP/Source/Effects/pitchshifter.h ****             gain_[i] = 0.0f;
  80:../../libs/DaisySP/Source/Effects/pitchshifter.h ****             d_[i].Init();
  81:../../libs/DaisySP/Source/Effects/pitchshifter.h ****             phs_[i].Init(sr, 50, i == 0 ? 0 : PI_F);
  82:../../libs/DaisySP/Source/Effects/pitchshifter.h ****         }
  83:../../libs/DaisySP/Source/Effects/pitchshifter.h ****         shift_up_ = true;
  84:../../libs/DaisySP/Source/Effects/pitchshifter.h ****         del_size_ = SHIFT_BUFFER_SIZE;
  85:../../libs/DaisySP/Source/Effects/pitchshifter.h ****         SetDelSize(del_size_);
  86:../../libs/DaisySP/Source/Effects/pitchshifter.h ****         fun_ = 0.0f;
ARM GAS  C:\Users\skipi\AppData\Local\Temp\ccgtPcFN.s 			page 3


  87:../../libs/DaisySP/Source/Effects/pitchshifter.h ****     }
  88:../../libs/DaisySP/Source/Effects/pitchshifter.h **** 
  89:../../libs/DaisySP/Source/Effects/pitchshifter.h ****     /** process pitch shifter
  90:../../libs/DaisySP/Source/Effects/pitchshifter.h ****     */
  91:../../libs/DaisySP/Source/Effects/pitchshifter.h ****     float Process(float &in)
  30              		.loc 1 91 11 view -0
  31              		.cfi_startproc
  32              		@ args = 0, pretend = 0, frame = 0
  33              		@ frame_needed = 0, uses_anonymous_args = 0
  92:../../libs/DaisySP/Source/Effects/pitchshifter.h ****     {
  93:../../libs/DaisySP/Source/Effects/pitchshifter.h ****         float val, fade1, fade2;
  34              		.loc 1 93 9 view .LVU1
  94:../../libs/DaisySP/Source/Effects/pitchshifter.h ****         // First Process delay mod/crossfade
  95:../../libs/DaisySP/Source/Effects/pitchshifter.h ****         fade1 = phs_[0].Process();
  35              		.loc 1 95 9 view .LVU2
  91:../../libs/DaisySP/Source/Effects/pitchshifter.h ****     {
  36              		.loc 1 91 11 is_stmt 0 view .LVU3
  37 0000 F8B5     		push	{r3, r4, r5, r6, r7, lr}
  38              		.cfi_def_cfa_offset 24
  39              		.cfi_offset 3, -24
  40              		.cfi_offset 4, -20
  41              		.cfi_offset 5, -16
  42              		.cfi_offset 6, -12
  43              		.cfi_offset 7, -8
  44              		.cfi_offset 14, -4
  45 0002 0546     		mov	r5, r0
  46              		.loc 1 95 32 view .LVU4
  47 0004 A748     		ldr	r0, .L12
  48              	.LVL1:
  91:../../libs/DaisySP/Source/Effects/pitchshifter.h ****     {
  49              		.loc 1 91 11 view .LVU5
  50 0006 0E46     		mov	r6, r1
  51              		.loc 1 95 32 view .LVU6
  52 0008 2844     		add	r0, r0, r5
  96:../../libs/DaisySP/Source/Effects/pitchshifter.h ****         fade2 = phs_[1].Process();
  97:../../libs/DaisySP/Source/Effects/pitchshifter.h ****         if(prev_phs_a_ > fade1)
  53              		.loc 1 97 12 view .LVU7
  54 000a 05F50034 		add	r4, r5, #131072
  91:../../libs/DaisySP/Source/Effects/pitchshifter.h ****     {
  55              		.loc 1 91 11 view .LVU8
  56 000e 2DED088B 		vpush.64	{d8, d9, d10, d11}
  57              		.cfi_def_cfa_offset 56
  58              		.cfi_offset 80, -56
  59              		.cfi_offset 81, -52
  60              		.cfi_offset 82, -48
  61              		.cfi_offset 83, -44
  62              		.cfi_offset 84, -40
  63              		.cfi_offset 85, -36
  64              		.cfi_offset 86, -32
  65              		.cfi_offset 87, -28
  95:../../libs/DaisySP/Source/Effects/pitchshifter.h ****         fade2 = phs_[1].Process();
  66              		.loc 1 95 32 view .LVU9
  67 0012 FFF7FEFF 		bl	_ZN7daisysp6Phasor7ProcessEv
  68              	.LVL2:
  96:../../libs/DaisySP/Source/Effects/pitchshifter.h ****         fade2 = phs_[1].Process();
  69              		.loc 1 96 32 view .LVU10
  70 0016 A448     		ldr	r0, .L12+4
ARM GAS  C:\Users\skipi\AppData\Local\Temp\ccgtPcFN.s 			page 4


  95:../../libs/DaisySP/Source/Effects/pitchshifter.h ****         fade2 = phs_[1].Process();
  71              		.loc 1 95 32 view .LVU11
  72 0018 F0EE409A 		vmov.f32	s19, s0
  73              	.LVL3:
  96:../../libs/DaisySP/Source/Effects/pitchshifter.h ****         fade2 = phs_[1].Process();
  74              		.loc 1 96 9 is_stmt 1 view .LVU12
  96:../../libs/DaisySP/Source/Effects/pitchshifter.h ****         fade2 = phs_[1].Process();
  75              		.loc 1 96 32 is_stmt 0 view .LVU13
  76 001c 2844     		add	r0, r0, r5
  77 001e FFF7FEFF 		bl	_ZN7daisysp6Phasor7ProcessEv
  78              	.LVL4:
  79              		.loc 1 97 9 view .LVU14
  80 0022 D4ED1C7A 		vldr.32	s15, [r4, #112]
  96:../../libs/DaisySP/Source/Effects/pitchshifter.h ****         fade2 = phs_[1].Process();
  81              		.loc 1 96 32 view .LVU15
  82 0026 F0EE40AA 		vmov.f32	s21, s0
  83              	.LVL5:
  84              		.loc 1 97 9 is_stmt 1 view .LVU16
  85 002a F4EEE97A 		vcmpe.f32	s15, s19
  86 002e F1EE10FA 		vmrs	APSR_nzcv, FPSCR
  87 0032 00F3F580 		bgt	.L2
  98:../../libs/DaisySP/Source/Effects/pitchshifter.h ****         {
  99:../../libs/DaisySP/Source/Effects/pitchshifter.h ****             mod_a_amt_ = fun_ * ((float)(myrand() % 255) / 255.0f)
 100:../../libs/DaisySP/Source/Effects/pitchshifter.h ****                          * (del_size_ * 0.5f);
  88              		.loc 1 100 29 is_stmt 0 view .LVU17
  89 0036 236A     		ldr	r3, [r4, #32]
 101:../../libs/DaisySP/Source/Effects/pitchshifter.h ****             mod_coeff_[0]
 102:../../libs/DaisySP/Source/Effects/pitchshifter.h ****                 = 0.0002f + (((float)(myrand() % 255) / 255.0f) * 0.001f);
 103:../../libs/DaisySP/Source/Effects/pitchshifter.h ****         }
 104:../../libs/DaisySP/Source/Effects/pitchshifter.h ****         if(prev_phs_b_ > fade2)
 105:../../libs/DaisySP/Source/Effects/pitchshifter.h ****         {
 106:../../libs/DaisySP/Source/Effects/pitchshifter.h ****             mod_b_amt_ = fun_ * ((float)(myrand() % 255) / 255.0f)
 107:../../libs/DaisySP/Source/Effects/pitchshifter.h ****                          * (del_size_ * 0.5f);
 108:../../libs/DaisySP/Source/Effects/pitchshifter.h ****             mod_coeff_[1]
 109:../../libs/DaisySP/Source/Effects/pitchshifter.h ****                 = 0.0002f + (((float)(myrand() % 255) / 255.0f) * 0.001f);
 110:../../libs/DaisySP/Source/Effects/pitchshifter.h ****         }
 111:../../libs/DaisySP/Source/Effects/pitchshifter.h ****         slewed_mod_[0] += mod_coeff_[0] * (mod_a_amt_ - slewed_mod_[0]);
  90              		.loc 1 111 39 view .LVU18
  91 0038 D4ED205A 		vldr.32	s11, [r4, #128]
  92              		.loc 1 111 44 view .LVU19
  93 003c 94ED1A7A 		vldr.32	s14, [r4, #104]
  94              	.L3:
 104:../../libs/DaisySP/Source/Effects/pitchshifter.h ****         {
  95              		.loc 1 104 9 is_stmt 1 view .LVU20
  96 0040 D4ED1D7A 		vldr.32	s15, [r4, #116]
  97 0044 F4EEEA7A 		vcmpe.f32	s15, s21
  98 0048 F1EE10FA 		vmrs	APSR_nzcv, FPSCR
  99 004c 00F3A580 		bgt	.L4
 112:../../libs/DaisySP/Source/Effects/pitchshifter.h ****         slewed_mod_[1] += mod_coeff_[1] * (mod_b_amt_ - slewed_mod_[1]);
 100              		.loc 1 112 39 is_stmt 0 view .LVU21
 101 0050 D4ED216A 		vldr.32	s13, [r4, #132]
 102              		.loc 1 112 44 view .LVU22
 103 0054 D4ED1B7A 		vldr.32	s15, [r4, #108]
 104              	.L5:
 111:../../libs/DaisySP/Source/Effects/pitchshifter.h ****         slewed_mod_[1] += mod_coeff_[1] * (mod_b_amt_ - slewed_mod_[1]);
 105              		.loc 1 111 9 is_stmt 1 view .LVU23
 111:../../libs/DaisySP/Source/Effects/pitchshifter.h ****         slewed_mod_[1] += mod_coeff_[1] * (mod_b_amt_ - slewed_mod_[1]);
ARM GAS  C:\Users\skipi\AppData\Local\Temp\ccgtPcFN.s 			page 5


 106              		.loc 1 111 24 is_stmt 0 view .LVU24
 107 0058 D4ED1E8A 		vldr.32	s17, [r4, #120]
 108              		.loc 1 112 24 view .LVU25
 109 005c 94ED1F8A 		vldr.32	s16, [r4, #124]
 111:../../libs/DaisySP/Source/Effects/pitchshifter.h ****         slewed_mod_[1] += mod_coeff_[1] * (mod_b_amt_ - slewed_mod_[1]);
 110              		.loc 1 111 55 view .LVU26
 111 0060 37EE687A 		vsub.f32	s14, s14, s17
 113:../../libs/DaisySP/Source/Effects/pitchshifter.h ****         prev_phs_a_ = fade1;
 114:../../libs/DaisySP/Source/Effects/pitchshifter.h ****         prev_phs_b_ = fade2;
 115:../../libs/DaisySP/Source/Effects/pitchshifter.h ****         if(shift_up_)
 112              		.loc 1 115 9 view .LVU27
 113 0064 94F82C20 		ldrb	r2, [r4, #44]	@ zero_extendqisi2
 112:../../libs/DaisySP/Source/Effects/pitchshifter.h ****         prev_phs_a_ = fade1;
 114              		.loc 1 112 55 view .LVU28
 115 0068 77EEC87A 		vsub.f32	s15, s15, s16
 113:../../libs/DaisySP/Source/Effects/pitchshifter.h ****         prev_phs_a_ = fade1;
 116              		.loc 1 113 21 view .LVU29
 117 006c C4ED1C9A 		vstr.32	s19, [r4, #112]
 114:../../libs/DaisySP/Source/Effects/pitchshifter.h ****         if(shift_up_)
 118              		.loc 1 114 21 view .LVU30
 119 0070 C4ED1DAA 		vstr.32	s21, [r4, #116]
 111:../../libs/DaisySP/Source/Effects/pitchshifter.h ****         slewed_mod_[1] += mod_coeff_[1] * (mod_b_amt_ - slewed_mod_[1]);
 120              		.loc 1 111 24 view .LVU31
 121 0074 E7EE258A 		vfma.f32	s17, s14, s11
 112:../../libs/DaisySP/Source/Effects/pitchshifter.h ****         prev_phs_a_ = fade1;
 122              		.loc 1 112 24 view .LVU32
 123 0078 A7EEA68A 		vfma.f32	s16, s15, s13
 111:../../libs/DaisySP/Source/Effects/pitchshifter.h ****         slewed_mod_[1] += mod_coeff_[1] * (mod_b_amt_ - slewed_mod_[1]);
 124              		.loc 1 111 24 view .LVU33
 125 007c C4ED1E8A 		vstr.32	s17, [r4, #120]
 112:../../libs/DaisySP/Source/Effects/pitchshifter.h ****         prev_phs_a_ = fade1;
 126              		.loc 1 112 9 is_stmt 1 view .LVU34
 112:../../libs/DaisySP/Source/Effects/pitchshifter.h ****         prev_phs_a_ = fade1;
 127              		.loc 1 112 24 is_stmt 0 view .LVU35
 128 0080 84ED1F8A 		vstr.32	s16, [r4, #124]
 113:../../libs/DaisySP/Source/Effects/pitchshifter.h ****         prev_phs_b_ = fade2;
 129              		.loc 1 113 9 is_stmt 1 view .LVU36
 114:../../libs/DaisySP/Source/Effects/pitchshifter.h ****         if(shift_up_)
 130              		.loc 1 114 9 view .LVU37
 131              		.loc 1 115 9 view .LVU38
 132 0084 2AB1     		cbz	r2, .L6
 116:../../libs/DaisySP/Source/Effects/pitchshifter.h ****         {
 117:../../libs/DaisySP/Source/Effects/pitchshifter.h ****             fade1 = 1.0f - fade1;
 133              		.loc 1 117 13 view .LVU39
 134              		.loc 1 117 19 is_stmt 0 view .LVU40
 135 0086 F7EE007A 		vmov.f32	s15, #1.0e+0
 136 008a 77EEE99A 		vsub.f32	s19, s15, s19
 137              	.LVL6:
 118:../../libs/DaisySP/Source/Effects/pitchshifter.h ****             fade2 = 1.0f - fade2;
 138              		.loc 1 118 13 is_stmt 1 view .LVU41
 139              		.loc 1 118 19 is_stmt 0 view .LVU42
 140 008e 77EEEAAA 		vsub.f32	s21, s15, s21
 141              	.LVL7:
 142              	.L6:
 119:../../libs/DaisySP/Source/Effects/pitchshifter.h ****         }
 120:../../libs/DaisySP/Source/Effects/pitchshifter.h ****         mod_[0] = fade1 * (del_size_ - 1);
 143              		.loc 1 120 9 is_stmt 1 view .LVU43
ARM GAS  C:\Users\skipi\AppData\Local\Temp\ccgtPcFN.s 			page 6


 144              		.loc 1 120 38 is_stmt 0 view .LVU44
 145 0092 013B     		subs	r3, r3, #1
 121:../../libs/DaisySP/Source/Effects/pitchshifter.h ****         mod_[1] = fade2 * (del_size_ - 1);
 122:../../libs/DaisySP/Source/Effects/pitchshifter.h **** #ifdef USE_ARM_DSP
 123:../../libs/DaisySP/Source/Effects/pitchshifter.h ****         gain_[0] = arm_sin_f32(fade1 * (float)M_PI);
 124:../../libs/DaisySP/Source/Effects/pitchshifter.h ****         gain_[1] = arm_sin_f32(fade2 * (float)M_PI);
 125:../../libs/DaisySP/Source/Effects/pitchshifter.h **** #else
 126:../../libs/DaisySP/Source/Effects/pitchshifter.h ****         gain_[0] = sinf(fade1 * PI_F);
 146              		.loc 1 126 24 view .LVU45
 147 0094 9FED85BA 		vldr.32	s22, .L12+8
 120:../../libs/DaisySP/Source/Effects/pitchshifter.h ****         mod_[1] = fade2 * (del_size_ - 1);
 148              		.loc 1 120 38 view .LVU46
 149 0098 09EE103A 		vmov	s18, r3	@ int
 150              		.loc 1 126 24 view .LVU47
 151 009c 29EE8B0A 		vmul.f32	s0, s19, s22
 120:../../libs/DaisySP/Source/Effects/pitchshifter.h ****         mod_[1] = fade2 * (del_size_ - 1);
 152              		.loc 1 120 25 view .LVU48
 153 00a0 B8EE499A 		vcvt.f32.u32	s18, s18
 154 00a4 69EE299A 		vmul.f32	s19, s18, s19
 155              	.LVL8:
 121:../../libs/DaisySP/Source/Effects/pitchshifter.h ****         mod_[1] = fade2 * (del_size_ - 1);
 156              		.loc 1 121 25 view .LVU49
 157 00a8 29EE2A9A 		vmul.f32	s18, s18, s21
 120:../../libs/DaisySP/Source/Effects/pitchshifter.h ****         mod_[1] = fade2 * (del_size_ - 1);
 158              		.loc 1 120 17 view .LVU50
 159 00ac C4ED169A 		vstr.32	s19, [r4, #88]
 121:../../libs/DaisySP/Source/Effects/pitchshifter.h ****         mod_[1] = fade2 * (del_size_ - 1);
 160              		.loc 1 121 9 is_stmt 1 view .LVU51
 127:../../libs/DaisySP/Source/Effects/pitchshifter.h ****         gain_[1] = sinf(fade2 * PI_F);
 128:../../libs/DaisySP/Source/Effects/pitchshifter.h **** #endif
 129:../../libs/DaisySP/Source/Effects/pitchshifter.h **** 
 130:../../libs/DaisySP/Source/Effects/pitchshifter.h ****         // Handle Delay Writing
 131:../../libs/DaisySP/Source/Effects/pitchshifter.h ****         d_[0].Write(in);
 132:../../libs/DaisySP/Source/Effects/pitchshifter.h ****         d_[1].Write(in);
 133:../../libs/DaisySP/Source/Effects/pitchshifter.h ****         // Modulate Delay Lines
 134:../../libs/DaisySP/Source/Effects/pitchshifter.h ****         //mod_a_amt = mod_b_amt = 0.0f;
 135:../../libs/DaisySP/Source/Effects/pitchshifter.h ****         d_[0].SetDelay(mod_[0] + mod_a_amt_);
 136:../../libs/DaisySP/Source/Effects/pitchshifter.h ****         d_[1].SetDelay(mod_[1] + mod_b_amt_);
 137:../../libs/DaisySP/Source/Effects/pitchshifter.h ****         d_[0].SetDelay(mod_[0] + slewed_mod_[0]);
 161              		.loc 1 137 23 is_stmt 0 view .LVU52
 162 00b0 78EEA98A 		vadd.f32	s17, s17, s19
 121:../../libs/DaisySP/Source/Effects/pitchshifter.h **** #ifdef USE_ARM_DSP
 163              		.loc 1 121 17 view .LVU53
 164 00b4 84ED179A 		vstr.32	s18, [r4, #92]
 126:../../libs/DaisySP/Source/Effects/pitchshifter.h ****         gain_[1] = sinf(fade2 * PI_F);
 165              		.loc 1 126 9 is_stmt 1 view .LVU54
 138:../../libs/DaisySP/Source/Effects/pitchshifter.h ****         d_[1].SetDelay(mod_[1] + slewed_mod_[1]);
 166              		.loc 1 138 23 is_stmt 0 view .LVU55
 167 00b8 38EE098A 		vadd.f32	s16, s16, s18
 126:../../libs/DaisySP/Source/Effects/pitchshifter.h ****         gain_[1] = sinf(fade2 * PI_F);
 168              		.loc 1 126 24 view .LVU56
 169 00bc FFF7FEFF 		bl	sinf
 170              	.LVL9:
 171 00c0 B0EE40AA 		vmov.f32	s20, s0
 127:../../libs/DaisySP/Source/Effects/pitchshifter.h **** #endif
 172              		.loc 1 127 24 view .LVU57
 173 00c4 2AEE8B0A 		vmul.f32	s0, s21, s22
ARM GAS  C:\Users\skipi\AppData\Local\Temp\ccgtPcFN.s 			page 7


 126:../../libs/DaisySP/Source/Effects/pitchshifter.h ****         gain_[1] = sinf(fade2 * PI_F);
 174              		.loc 1 126 18 view .LVU58
 175 00c8 84ED14AA 		vstr.32	s20, [r4, #80]
 127:../../libs/DaisySP/Source/Effects/pitchshifter.h **** #endif
 176              		.loc 1 127 9 is_stmt 1 view .LVU59
 127:../../libs/DaisySP/Source/Effects/pitchshifter.h **** #endif
 177              		.loc 1 127 24 is_stmt 0 view .LVU60
 178 00cc FFF7FEFF 		bl	sinf
 179              	.LVL10:
 180              	.LBB204:
 181              	.LBB205:
 182              		.file 2 "../../libs/DaisySP/Source/Utility/delayline.h"
   1:../../libs/DaisySP/Source/Utility/delayline.h **** /*
   2:../../libs/DaisySP/Source/Utility/delayline.h **** Copyright (c) 2020 Electrosmith, Corp
   3:../../libs/DaisySP/Source/Utility/delayline.h **** 
   4:../../libs/DaisySP/Source/Utility/delayline.h **** Use of this source code is governed by an MIT-style
   5:../../libs/DaisySP/Source/Utility/delayline.h **** license that can be found in the LICENSE file or at
   6:../../libs/DaisySP/Source/Utility/delayline.h **** https://opensource.org/licenses/MIT.
   7:../../libs/DaisySP/Source/Utility/delayline.h **** */
   8:../../libs/DaisySP/Source/Utility/delayline.h **** 
   9:../../libs/DaisySP/Source/Utility/delayline.h **** #pragma once
  10:../../libs/DaisySP/Source/Utility/delayline.h **** #ifndef DSY_DELAY_H
  11:../../libs/DaisySP/Source/Utility/delayline.h **** #define DSY_DELAY_H
  12:../../libs/DaisySP/Source/Utility/delayline.h **** #include <stdlib.h>
  13:../../libs/DaisySP/Source/Utility/delayline.h **** #include <stdint.h>
  14:../../libs/DaisySP/Source/Utility/delayline.h **** namespace daisysp
  15:../../libs/DaisySP/Source/Utility/delayline.h **** {
  16:../../libs/DaisySP/Source/Utility/delayline.h **** /** Simple Delay line.
  17:../../libs/DaisySP/Source/Utility/delayline.h **** November 2019
  18:../../libs/DaisySP/Source/Utility/delayline.h **** 
  19:../../libs/DaisySP/Source/Utility/delayline.h **** Converted to Template December 2019
  20:../../libs/DaisySP/Source/Utility/delayline.h **** 
  21:../../libs/DaisySP/Source/Utility/delayline.h **** declaration example: (1 second of floats)
  22:../../libs/DaisySP/Source/Utility/delayline.h **** 
  23:../../libs/DaisySP/Source/Utility/delayline.h **** DelayLine<float, SAMPLE_RATE> del;
  24:../../libs/DaisySP/Source/Utility/delayline.h **** 
  25:../../libs/DaisySP/Source/Utility/delayline.h **** By: shensley
  26:../../libs/DaisySP/Source/Utility/delayline.h **** */
  27:../../libs/DaisySP/Source/Utility/delayline.h **** template <typename T, size_t max_size>
  28:../../libs/DaisySP/Source/Utility/delayline.h **** class DelayLine
  29:../../libs/DaisySP/Source/Utility/delayline.h **** {
  30:../../libs/DaisySP/Source/Utility/delayline.h ****   public:
  31:../../libs/DaisySP/Source/Utility/delayline.h ****     DelayLine() {}
  32:../../libs/DaisySP/Source/Utility/delayline.h ****     ~DelayLine() {}
  33:../../libs/DaisySP/Source/Utility/delayline.h ****     /** initializes the delay line by clearing the values within, and setting delay to 1 sample.
  34:../../libs/DaisySP/Source/Utility/delayline.h ****     */
  35:../../libs/DaisySP/Source/Utility/delayline.h ****     void Init() { Reset(); }
  36:../../libs/DaisySP/Source/Utility/delayline.h ****     /** clears buffer, sets write ptr to 0, and delay to 1 sample.
  37:../../libs/DaisySP/Source/Utility/delayline.h ****     */
  38:../../libs/DaisySP/Source/Utility/delayline.h ****     void Reset()
  39:../../libs/DaisySP/Source/Utility/delayline.h ****     {
  40:../../libs/DaisySP/Source/Utility/delayline.h ****         for(size_t i = 0; i < max_size; i++)
  41:../../libs/DaisySP/Source/Utility/delayline.h ****         {
  42:../../libs/DaisySP/Source/Utility/delayline.h ****             line_[i] = T(0);
  43:../../libs/DaisySP/Source/Utility/delayline.h ****         }
  44:../../libs/DaisySP/Source/Utility/delayline.h ****         write_ptr_ = 0;
  45:../../libs/DaisySP/Source/Utility/delayline.h ****         delay_     = 1;
ARM GAS  C:\Users\skipi\AppData\Local\Temp\ccgtPcFN.s 			page 8


  46:../../libs/DaisySP/Source/Utility/delayline.h ****     }
  47:../../libs/DaisySP/Source/Utility/delayline.h **** 
  48:../../libs/DaisySP/Source/Utility/delayline.h ****     /** sets the delay time in samples
  49:../../libs/DaisySP/Source/Utility/delayline.h ****         If a float is passed in, a fractional component will be calculated for interpolating the de
  50:../../libs/DaisySP/Source/Utility/delayline.h ****     */
  51:../../libs/DaisySP/Source/Utility/delayline.h ****     inline void SetDelay(size_t delay)
  52:../../libs/DaisySP/Source/Utility/delayline.h ****     {
  53:../../libs/DaisySP/Source/Utility/delayline.h ****         frac_  = 0.0f;
  54:../../libs/DaisySP/Source/Utility/delayline.h ****         delay_ = delay < max_size ? delay : max_size - 1;
  55:../../libs/DaisySP/Source/Utility/delayline.h ****     }
  56:../../libs/DaisySP/Source/Utility/delayline.h **** 
  57:../../libs/DaisySP/Source/Utility/delayline.h ****     /** sets the delay time in samples
  58:../../libs/DaisySP/Source/Utility/delayline.h ****         If a float is passed in, a fractional component will be calculated for interpolating the de
  59:../../libs/DaisySP/Source/Utility/delayline.h ****     */
  60:../../libs/DaisySP/Source/Utility/delayline.h ****     inline void SetDelay(float delay)
  61:../../libs/DaisySP/Source/Utility/delayline.h ****     {
  62:../../libs/DaisySP/Source/Utility/delayline.h ****         int32_t int_delay = static_cast<int32_t>(delay);
 183              		.loc 2 62 17 view .LVU61
 184 00d0 BDEEE87A 		vcvt.s32.f32	s14, s17
 185              	.LBE205:
 186              	.LBE204:
 187              	.LBB211:
 188              	.LBB212:
  63:../../libs/DaisySP/Source/Utility/delayline.h ****         frac_             = delay - static_cast<float>(int_delay);
  64:../../libs/DaisySP/Source/Utility/delayline.h ****         delay_ = static_cast<size_t>(int_delay) < max_size ? int_delay
  65:../../libs/DaisySP/Source/Utility/delayline.h ****                                                            : max_size - 1;
  66:../../libs/DaisySP/Source/Utility/delayline.h ****     }
  67:../../libs/DaisySP/Source/Utility/delayline.h **** 
  68:../../libs/DaisySP/Source/Utility/delayline.h ****     /** writes the sample of type T to the delay line, and advances the write ptr
  69:../../libs/DaisySP/Source/Utility/delayline.h ****     */
  70:../../libs/DaisySP/Source/Utility/delayline.h ****     inline void Write(const T sample)
  71:../../libs/DaisySP/Source/Utility/delayline.h ****     {
  72:../../libs/DaisySP/Source/Utility/delayline.h ****         line_[write_ptr_] = sample;
 189              		.loc 2 72 15 view .LVU62
 190 00d4 6A68     		ldr	r2, [r5, #4]
  73:../../libs/DaisySP/Source/Utility/delayline.h ****         write_ptr_        = (write_ptr_ - 1 + max_size) % max_size;
 191              		.loc 2 73 45 view .LVU63
 192 00d6 43F6FF73 		movw	r3, #16383
 193              	.LBE212:
 194              	.LBE211:
 195              	.LBB217:
 196              	.LBB218:
  62:../../libs/DaisySP/Source/Utility/delayline.h ****         frac_             = delay - static_cast<float>(int_delay);
 197              		.loc 2 62 17 view .LVU64
 198 00da FDEEC87A 		vcvt.s32.f32	s15, s16
 199              	.LBE218:
 200              	.LBE217:
 127:../../libs/DaisySP/Source/Effects/pitchshifter.h **** #endif
 201              		.loc 1 127 18 view .LVU65
 202 00de 84ED150A 		vstr.32	s0, [r4, #84]
 131:../../libs/DaisySP/Source/Effects/pitchshifter.h ****         d_[1].Write(in);
 203              		.loc 1 131 9 is_stmt 1 view .LVU66
 204              	.LBB226:
 205              	.LBB213:
  72:../../libs/DaisySP/Source/Utility/delayline.h ****         write_ptr_        = (write_ptr_ - 1 + max_size) % max_size;
 206              		.loc 2 72 27 is_stmt 0 view .LVU67
 207 00e2 05EB8201 		add	r1, r5, r2, lsl #2
ARM GAS  C:\Users\skipi\AppData\Local\Temp\ccgtPcFN.s 			page 9


 208              	.LBE213:
 209              	.LBE226:
 131:../../libs/DaisySP/Source/Effects/pitchshifter.h ****         d_[1].Write(in);
 210              		.loc 1 131 20 view .LVU68
 211 00e6 D6F800C0 		ldr	ip, [r6]	@ float
 212              	.LVL11:
 213              	.LBB227:
 214              	.LBI211:
  70:../../libs/DaisySP/Source/Utility/delayline.h ****     {
 215              		.loc 2 70 17 is_stmt 1 view .LVU69
 216              	.LBE227:
 217              	.LBB228:
 218              	.LBB206:
  64:../../libs/DaisySP/Source/Utility/delayline.h ****                                                            : max_size - 1;
 219              		.loc 2 64 60 is_stmt 0 view .LVU70
 220 00ea 17EE104A 		vmov	r4, s14	@ int
 221              	.LBE206:
 222              	.LBE228:
 223              	.LBB229:
 224              	.LBB214:
 225              		.loc 2 73 45 view .LVU71
 226 00ee 1A44     		add	r2, r2, r3
  72:../../libs/DaisySP/Source/Utility/delayline.h ****         write_ptr_        = (write_ptr_ - 1 + max_size) % max_size;
 227              		.loc 2 72 27 view .LVU72
 228 00f0 C1F80CC0 		str	ip, [r1, #12]	@ float
 229              	.LBE214:
 230              	.LBE229:
 231              	.LBB230:
 232              	.LBB219:
  64:../../libs/DaisySP/Source/Utility/delayline.h ****                                                            : max_size - 1;
 233              		.loc 2 64 60 view .LVU73
 234 00f4 17EE900A 		vmov	r0, s15	@ int
 235              	.LBE219:
 236              	.LBE230:
 237              	.LBB231:
 238              	.LBB232:
  72:../../libs/DaisySP/Source/Utility/delayline.h ****         write_ptr_        = (write_ptr_ - 1 + max_size) % max_size;
 239              		.loc 2 72 15 view .LVU74
 240 00f8 05F58031 		add	r1, r5, #65536
 241              	.LBE232:
 242              	.LBE231:
 243              	.LBB237:
 244              	.LBB207:
  64:../../libs/DaisySP/Source/Utility/delayline.h ****                                                            : max_size - 1;
 245              		.loc 2 64 60 view .LVU75
 246 00fc 9C42     		cmp	r4, r3
 247              	.LBE207:
 248              	.LBE237:
 249              	.LBB238:
 250              	.LBB215:
 251              		.loc 2 73 57 view .LVU76
 252 00fe C2F30D02 		ubfx	r2, r2, #0, #14
 253              	.LBE215:
 254              	.LBE238:
 255              	.LBB239:
 256              	.LBB208:
  63:../../libs/DaisySP/Source/Utility/delayline.h ****         delay_ = static_cast<size_t>(int_delay) < max_size ? int_delay
ARM GAS  C:\Users\skipi\AppData\Local\Temp\ccgtPcFN.s 			page 10


 257              		.loc 2 63 37 view .LVU77
 258 0102 F8EEC75A 		vcvt.f32.s32	s11, s14
  64:../../libs/DaisySP/Source/Utility/delayline.h ****                                                            : max_size - 1;
 259              		.loc 2 64 60 view .LVU78
 260 0106 28BF     		it	cs
 261 0108 1C46     		movcs	r4, r3
 262              	.LBE208:
 263              	.LBE239:
 264              	.LBB240:
 265              	.LBB220:
 266 010a 9842     		cmp	r0, r3
 267              	.LBE220:
 268              	.LBE240:
 269              	.LBB241:
 270              	.LBB216:
 271              		.loc 2 73 27 view .LVU79
 272 010c 6A60     		str	r2, [r5, #4]
 273              	.LVL12:
 274              		.loc 2 73 27 view .LVU80
 275              	.LBE216:
 276              	.LBE241:
 132:../../libs/DaisySP/Source/Effects/pitchshifter.h ****         // Modulate Delay Lines
 277              		.loc 1 132 9 is_stmt 1 view .LVU81
 278              	.LBB242:
 279              	.LBI231:
  70:../../libs/DaisySP/Source/Utility/delayline.h ****     {
 280              		.loc 2 70 17 view .LVU82
 281              	.LBE242:
 282              	.LBB243:
 283              	.LBB221:
  63:../../libs/DaisySP/Source/Utility/delayline.h ****         delay_ = static_cast<size_t>(int_delay) < max_size ? int_delay
 284              		.loc 2 63 37 is_stmt 0 view .LVU83
 285 010e B8EEE76A 		vcvt.f32.s32	s12, s15
 286              	.LBE221:
 287              	.LBE243:
 288              	.LBB244:
 289              	.LBB233:
  72:../../libs/DaisySP/Source/Utility/delayline.h ****         write_ptr_        = (write_ptr_ - 1 + max_size) % max_size;
 290              		.loc 2 72 15 view .LVU84
 291 0112 0E69     		ldr	r6, [r1, #16]
 292              	.LVL13:
  72:../../libs/DaisySP/Source/Utility/delayline.h ****         write_ptr_        = (write_ptr_ - 1 + max_size) % max_size;
 293              		.loc 2 72 15 view .LVU85
 294              	.LBE233:
 295              	.LBE244:
 296              	.LBB245:
 297              	.LBB222:
  64:../../libs/DaisySP/Source/Utility/delayline.h ****                                                            : max_size - 1;
 298              		.loc 2 64 60 view .LVU86
 299 0114 28BF     		it	cs
 300 0116 1846     		movcs	r0, r3
 301              	.LBE222:
 302              	.LBE245:
 303              	.LBB246:
 304              	.LBB209:
  63:../../libs/DaisySP/Source/Utility/delayline.h ****         delay_ = static_cast<size_t>(int_delay) < max_size ? int_delay
 305              		.loc 2 63 35 view .LVU87
ARM GAS  C:\Users\skipi\AppData\Local\Temp\ccgtPcFN.s 			page 11


 306 0118 78EEE58A 		vsub.f32	s17, s17, s11
 307              	.LBE209:
 308              	.LBE246:
 309              	.LBB247:
 310              	.LBB248:
  74:../../libs/DaisySP/Source/Utility/delayline.h ****     }
  75:../../libs/DaisySP/Source/Utility/delayline.h **** 
  76:../../libs/DaisySP/Source/Utility/delayline.h ****     /** returns the next sample of type T in the delay line, interpolated if necessary.
  77:../../libs/DaisySP/Source/Utility/delayline.h ****     */
  78:../../libs/DaisySP/Source/Utility/delayline.h ****     inline const T Read() const
  79:../../libs/DaisySP/Source/Utility/delayline.h ****     {
  80:../../libs/DaisySP/Source/Utility/delayline.h ****         T a = line_[(write_ptr_ + delay_) % max_size];
 311              		.loc 2 80 33 view .LVU88
 312 011c 2244     		add	r2, r2, r4
 313              	.LBE248:
 314              	.LBE247:
 315              	.LBB255:
 316              	.LBB234:
  73:../../libs/DaisySP/Source/Utility/delayline.h ****     }
 317              		.loc 2 73 45 view .LVU89
 318 011e 3344     		add	r3, r3, r6
  72:../../libs/DaisySP/Source/Utility/delayline.h ****         write_ptr_        = (write_ptr_ - 1 + max_size) % max_size;
 319              		.loc 2 72 27 view .LVU90
 320 0120 01EB8606 		add	r6, r1, r6, lsl #2
 321              	.LBE234:
 322              	.LBE255:
 323              	.LBB256:
 324              	.LBB223:
  63:../../libs/DaisySP/Source/Utility/delayline.h ****         delay_ = static_cast<size_t>(int_delay) < max_size ? int_delay
 325              		.loc 2 63 35 view .LVU91
 326 0124 38EE468A 		vsub.f32	s16, s16, s12
 327              	.LBE223:
 328              	.LBE256:
 329              	.LBB257:
 330              	.LBB235:
  73:../../libs/DaisySP/Source/Utility/delayline.h ****     }
 331              		.loc 2 73 57 view .LVU92
 332 0128 C3F30D03 		ubfx	r3, r3, #0, #14
  72:../../libs/DaisySP/Source/Utility/delayline.h ****         write_ptr_        = (write_ptr_ - 1 + max_size) % max_size;
 333              		.loc 2 72 27 view .LVU93
 334 012c C6F818C0 		str	ip, [r6, #24]	@ float
 335              	.LBE235:
 336              	.LBE257:
 127:../../libs/DaisySP/Source/Effects/pitchshifter.h **** #endif
 337              		.loc 1 127 24 view .LVU94
 338 0130 F0EE406A 		vmov.f32	s13, s0
 139:../../libs/DaisySP/Source/Effects/pitchshifter.h ****         val = 0.0f;
 140:../../libs/DaisySP/Source/Effects/pitchshifter.h ****         val += (d_[0].Read() * gain_[0]);
 339              		.loc 1 140 13 view .LVU95
 340 0134 9FED5E0A 		vldr.32	s0, .L12+12
 341              	.LBB258:
 342              	.LBB236:
  73:../../libs/DaisySP/Source/Utility/delayline.h ****     }
 343              		.loc 2 73 27 view .LVU96
 344 0138 0B61     		str	r3, [r1, #16]
 345              	.LVL14:
  73:../../libs/DaisySP/Source/Utility/delayline.h ****     }
ARM GAS  C:\Users\skipi\AppData\Local\Temp\ccgtPcFN.s 			page 12


 346              		.loc 2 73 27 view .LVU97
 347              	.LBE236:
 348              	.LBE258:
 135:../../libs/DaisySP/Source/Effects/pitchshifter.h ****         d_[1].SetDelay(mod_[1] + mod_b_amt_);
 349              		.loc 1 135 9 is_stmt 1 view .LVU98
 136:../../libs/DaisySP/Source/Effects/pitchshifter.h ****         d_[0].SetDelay(mod_[0] + slewed_mod_[0]);
 350              		.loc 1 136 9 view .LVU99
 137:../../libs/DaisySP/Source/Effects/pitchshifter.h ****         d_[1].SetDelay(mod_[1] + slewed_mod_[1]);
 351              		.loc 1 137 9 view .LVU100
 352              	.LBB259:
 353              	.LBI204:
  60:../../libs/DaisySP/Source/Utility/delayline.h ****     {
 354              		.loc 2 60 17 view .LVU101
  60:../../libs/DaisySP/Source/Utility/delayline.h ****     {
 355              		.loc 2 60 17 is_stmt 0 view .LVU102
 356              	.LBE259:
 357              	.LBB260:
 358              	.LBB261:
 359              		.loc 2 80 33 view .LVU103
 360 013a 0344     		add	r3, r3, r0
 361              	.LBE261:
 362              	.LBE260:
 363              	.LBB267:
 364              	.LBB210:
  63:../../libs/DaisySP/Source/Utility/delayline.h ****         delay_ = static_cast<size_t>(int_delay) < max_size ? int_delay
 365              		.loc 2 63 27 view .LVU104
 366 013c C5ED008A 		vstr.32	s17, [r5]
  64:../../libs/DaisySP/Source/Utility/delayline.h ****                                                            : max_size - 1;
 367              		.loc 2 64 16 view .LVU105
 368 0140 AC60     		str	r4, [r5, #8]
 369              	.LVL15:
  64:../../libs/DaisySP/Source/Utility/delayline.h ****                                                            : max_size - 1;
 370              		.loc 2 64 16 view .LVU106
 371              	.LBE210:
 372              	.LBE267:
 138:../../libs/DaisySP/Source/Effects/pitchshifter.h ****         val = 0.0f;
 373              		.loc 1 138 9 is_stmt 1 view .LVU107
 374              	.LBB268:
 375              	.LBI217:
  60:../../libs/DaisySP/Source/Utility/delayline.h ****     {
 376              		.loc 2 60 17 view .LVU108
 377              	.LBB224:
  64:../../libs/DaisySP/Source/Utility/delayline.h ****                                                            : max_size - 1;
 378              		.loc 2 64 16 is_stmt 0 view .LVU109
 379 0142 4861     		str	r0, [r1, #20]
 380              	.LVL16:
  64:../../libs/DaisySP/Source/Utility/delayline.h ****                                                            : max_size - 1;
 381              		.loc 2 64 16 view .LVU110
 382              	.LBE224:
 383              	.LBE268:
 139:../../libs/DaisySP/Source/Effects/pitchshifter.h ****         val += (d_[0].Read() * gain_[0]);
 384              		.loc 1 139 9 is_stmt 1 view .LVU111
 385              		.loc 1 140 9 view .LVU112
 386              	.LBB269:
 387              	.LBI247:
  78:../../libs/DaisySP/Source/Utility/delayline.h ****     {
 388              		.loc 2 78 20 view .LVU113
ARM GAS  C:\Users\skipi\AppData\Local\Temp\ccgtPcFN.s 			page 13


 389              	.LBB249:
 390              		.loc 2 80 43 is_stmt 0 view .LVU114
 391 0144 C2F30D00 		ubfx	r0, r2, #0, #14
  81:../../libs/DaisySP/Source/Utility/delayline.h ****         T b = line_[(write_ptr_ + delay_ + 1) % max_size];
 392              		.loc 2 81 42 view .LVU115
 393 0148 0132     		adds	r2, r2, #1
 394              	.LBE249:
 395              	.LBE269:
 396              	.LBB270:
 397              	.LBB225:
  63:../../libs/DaisySP/Source/Utility/delayline.h ****         delay_ = static_cast<size_t>(int_delay) < max_size ? int_delay
 398              		.loc 2 63 27 view .LVU116
 399 014a 81ED038A 		vstr.32	s16, [r1, #12]
 400              	.LBE225:
 401              	.LBE270:
 402              	.LBB271:
 403              	.LBB250:
  80:../../libs/DaisySP/Source/Utility/delayline.h ****         T b = line_[(write_ptr_ + delay_ + 1) % max_size];
 404              		.loc 2 80 11 view .LVU117
 405 014e 05EB8000 		add	r0, r5, r0, lsl #2
 406              		.loc 2 81 47 view .LVU118
 407 0152 C2F30D02 		ubfx	r2, r2, #0, #14
  80:../../libs/DaisySP/Source/Utility/delayline.h ****         T b = line_[(write_ptr_ + delay_ + 1) % max_size];
 408              		.loc 2 80 11 view .LVU119
 409 0156 90ED037A 		vldr.32	s14, [r0, #12]
 410              	.LVL17:
  80:../../libs/DaisySP/Source/Utility/delayline.h ****         T b = line_[(write_ptr_ + delay_ + 1) % max_size];
 411              		.loc 2 80 11 view .LVU120
 412              	.LBE250:
 413              	.LBE271:
 414              	.LBB272:
 415              	.LBB262:
 416              		.loc 2 81 42 view .LVU121
 417 015a 581C     		adds	r0, r3, #1
 418              	.LBE262:
 419              	.LBE272:
 420              	.LBB273:
 421              	.LBB251:
 422              		.loc 2 81 11 view .LVU122
 423 015c 05EB8202 		add	r2, r5, r2, lsl #2
 424              	.LBE251:
 425              	.LBE273:
 426              	.LBB274:
 427              	.LBB263:
  80:../../libs/DaisySP/Source/Utility/delayline.h ****         T b = line_[(write_ptr_ + delay_ + 1) % max_size];
 428              		.loc 2 80 43 view .LVU123
 429 0160 C3F30D03 		ubfx	r3, r3, #0, #14
 430              	.LBE263:
 431              	.LBE274:
 432              	.LBB275:
 433              	.LBB252:
  82:../../libs/DaisySP/Source/Utility/delayline.h ****         return a + (b - a) * frac_;
 434              		.loc 2 82 23 view .LVU124
 435 0164 92ED036A 		vldr.32	s12, [r2, #12]
 436              	.LBE252:
 437              	.LBE275:
 438              	.LBB276:
ARM GAS  C:\Users\skipi\AppData\Local\Temp\ccgtPcFN.s 			page 14


 439              	.LBB264:
  81:../../libs/DaisySP/Source/Utility/delayline.h ****         return a + (b - a) * frac_;
 440              		.loc 2 81 47 view .LVU125
 441 0168 C0F30D02 		ubfx	r2, r0, #0, #14
  80:../../libs/DaisySP/Source/Utility/delayline.h ****         T b = line_[(write_ptr_ + delay_ + 1) % max_size];
 442              		.loc 2 80 11 view .LVU126
 443 016c 01EB8303 		add	r3, r1, r3, lsl #2
 444              	.LBE264:
 445              	.LBE276:
 446              	.LBB277:
 447              	.LBB253:
 448              		.loc 2 82 23 view .LVU127
 449 0170 36EE476A 		vsub.f32	s12, s12, s14
 450              	.LBE253:
 451              	.LBE277:
 452              	.LBB278:
 453              	.LBB265:
  81:../../libs/DaisySP/Source/Utility/delayline.h ****         return a + (b - a) * frac_;
 454              		.loc 2 81 11 view .LVU128
 455 0174 01EB8202 		add	r2, r1, r2, lsl #2
  80:../../libs/DaisySP/Source/Utility/delayline.h ****         T b = line_[(write_ptr_ + delay_ + 1) % max_size];
 456              		.loc 2 80 11 view .LVU129
 457 0178 D3ED067A 		vldr.32	s15, [r3, #24]
 458              	.LBE265:
 459              	.LBE278:
 460              	.LBB279:
 461              	.LBB254:
 462              		.loc 2 82 30 view .LVU130
 463 017c A8EE867A 		vfma.f32	s14, s17, s12
 464              	.LVL18:
 465              		.loc 2 82 30 view .LVU131
 466              	.LBE254:
 467              	.LBE279:
 468              	.LBB280:
 469              	.LBB266:
 470              		.loc 2 82 23 view .LVU132
 471 0180 92ED066A 		vldr.32	s12, [r2, #24]
 472 0184 36EE676A 		vsub.f32	s12, s12, s15
 473              		.loc 2 82 30 view .LVU133
 474 0188 E8EE067A 		vfma.f32	s15, s16, s12
 475              	.LBE266:
 476              	.LBE280:
 477              		.loc 1 140 13 view .LVU134
 478 018c AAEE070A 		vfma.f32	s0, s20, s14
 479              	.LVL19:
 141:../../libs/DaisySP/Source/Effects/pitchshifter.h ****         val += (d_[1].Read() * gain_[1]);
 480              		.loc 1 141 9 is_stmt 1 view .LVU135
 481              	.LBB281:
 482              	.LBI260:
  78:../../libs/DaisySP/Source/Utility/delayline.h ****     {
 483              		.loc 2 78 20 view .LVU136
  78:../../libs/DaisySP/Source/Utility/delayline.h ****     {
 484              		.loc 2 78 20 is_stmt 0 view .LVU137
 485              	.LBE281:
 142:../../libs/DaisySP/Source/Effects/pitchshifter.h ****         return val;
 486              		.loc 1 142 9 is_stmt 1 view .LVU138
 143:../../libs/DaisySP/Source/Effects/pitchshifter.h ****     }
ARM GAS  C:\Users\skipi\AppData\Local\Temp\ccgtPcFN.s 			page 15


 487              		.loc 1 143 5 is_stmt 0 view .LVU139
 488 0190 BDEC088B 		vldm	sp!, {d8-d11}
 489              		.cfi_remember_state
 490              		.cfi_restore 86
 491              		.cfi_restore 87
 492              		.cfi_restore 84
 493              		.cfi_restore 85
 494              		.cfi_restore 82
 495              		.cfi_restore 83
 496              		.cfi_restore 80
 497              		.cfi_restore 81
 498              		.cfi_def_cfa_offset 24
 499 0194 A6EEA70A 		vfma.f32	s0, s13, s15
 500              	.LVL20:
 501              		.loc 1 143 5 view .LVU140
 502 0198 F8BD     		pop	{r3, r4, r5, r6, r7, pc}
 503              	.LVL21:
 504              	.L4:
 505              		.cfi_restore_state
 106:../../libs/DaisySP/Source/Effects/pitchshifter.h ****                          * (del_size_ * 0.5f);
 506              		.loc 1 106 13 is_stmt 1 view .LVU141
 507              	.LBB282:
 508              	.LBI282:
  39:../../libs/DaisySP/Source/Effects/pitchshifter.h **** {
 509              		.loc 1 39 17 view .LVU142
 510              	.LBB283:
  41:../../libs/DaisySP/Source/Effects/pitchshifter.h ****     seed                 = hash_xs32(seed);
 511              		.loc 1 41 5 view .LVU143
  42:../../libs/DaisySP/Source/Effects/pitchshifter.h ****     return seed;
 512              		.loc 1 42 5 view .LVU144
  42:../../libs/DaisySP/Source/Effects/pitchshifter.h ****     return seed;
 513              		.loc 1 42 37 is_stmt 0 view .LVU145
 514 019a 464F     		ldr	r7, .L12+16
 515              	.LBE283:
 516              	.LBE282:
 106:../../libs/DaisySP/Source/Effects/pitchshifter.h ****                          * (del_size_ * 0.5f);
 517              		.loc 1 106 51 view .LVU146
 518 019c 4649     		ldr	r1, .L12+20
 519              	.LBB296:
 520              	.LBB292:
  42:../../libs/DaisySP/Source/Effects/pitchshifter.h ****     return seed;
 521              		.loc 1 42 37 view .LVU147
 522 019e 3A68     		ldr	r2, [r7]
 523              	.LVL22:
 524              	.LBB284:
 525              	.LBI284:
  31:../../libs/DaisySP/Source/Effects/pitchshifter.h **** {
 526              		.loc 1 31 24 is_stmt 1 view .LVU148
 527              	.LBB285:
  33:../../libs/DaisySP/Source/Effects/pitchshifter.h ****     x ^= x >> 17;
 528              		.loc 1 33 5 view .LVU149
 529              	.LBE285:
 530              	.LBE284:
 531              	.LBE292:
 532              	.LBE296:
 106:../../libs/DaisySP/Source/Effects/pitchshifter.h ****                          * (del_size_ * 0.5f);
 533              		.loc 1 106 58 is_stmt 0 view .LVU150
ARM GAS  C:\Users\skipi\AppData\Local\Temp\ccgtPcFN.s 			page 16


 534 01a0 9FED465A 		vldr.32	s10, .L12+24
 535              	.LBB297:
 536              	.LBB293:
 537              	.LBB289:
 538              	.LBB286:
  33:../../libs/DaisySP/Source/Effects/pitchshifter.h ****     x ^= x >> 17;
 539              		.loc 1 33 7 view .LVU151
 540 01a4 82EA4232 		eor	r2, r2, r2, lsl #13
 541              	.LVL23:
  34:../../libs/DaisySP/Source/Effects/pitchshifter.h ****     x ^= x << 5;
 542              		.loc 1 34 5 is_stmt 1 view .LVU152
 543              	.LBE286:
 544              	.LBE289:
 545              	.LBE293:
 546              	.LBE297:
 106:../../libs/DaisySP/Source/Effects/pitchshifter.h ****                          * (del_size_ * 0.5f);
 547              		.loc 1 106 31 is_stmt 0 view .LVU153
 548 01a8 D4ED193A 		vldr.32	s7, [r4, #100]
 109:../../libs/DaisySP/Source/Effects/pitchshifter.h ****         }
 549              		.loc 1 109 27 view .LVU154
 550 01ac 9FED446A 		vldr.32	s12, .L12+28
 551              	.LBB298:
 552              	.LBB294:
 553              	.LBB290:
 554              	.LBB287:
  34:../../libs/DaisySP/Source/Effects/pitchshifter.h ****     x ^= x << 5;
 555              		.loc 1 34 7 view .LVU155
 556 01b0 82EA5242 		eor	r2, r2, r2, lsr #17
 557              	.LVL24:
  35:../../libs/DaisySP/Source/Effects/pitchshifter.h ****     return x;
 558              		.loc 1 35 5 is_stmt 1 view .LVU156
 559              	.LBE287:
 560              	.LBE290:
 561              	.LBE294:
 562              	.LBE298:
 109:../../libs/DaisySP/Source/Effects/pitchshifter.h ****         }
 563              		.loc 1 109 27 is_stmt 0 view .LVU157
 564 01b4 DFED434A 		vldr.32	s9, .L12+32
 565              	.LBB299:
 566              	.LBB295:
 567              	.LBB291:
 568              	.LBB288:
  35:../../libs/DaisySP/Source/Effects/pitchshifter.h ****     return x;
 569              		.loc 1 35 7 view .LVU158
 570 01b8 82EA4212 		eor	r2, r2, r2, lsl #5
 571              	.LVL25:
  36:../../libs/DaisySP/Source/Effects/pitchshifter.h **** }
 572              		.loc 1 36 5 is_stmt 1 view .LVU159
  36:../../libs/DaisySP/Source/Effects/pitchshifter.h **** }
 573              		.loc 1 36 5 is_stmt 0 view .LVU160
 574              	.LBE288:
 575              	.LBE291:
  43:../../libs/DaisySP/Source/Effects/pitchshifter.h **** }
 576              		.loc 1 43 5 is_stmt 1 view .LVU161
 577              	.LBE295:
 578              	.LBE299:
 579              	.LBB300:
ARM GAS  C:\Users\skipi\AppData\Local\Temp\ccgtPcFN.s 			page 17


 580              	.LBB301:
 581              	.LBB302:
 582              	.LBB303:
  33:../../libs/DaisySP/Source/Effects/pitchshifter.h ****     x ^= x >> 17;
 583              		.loc 1 33 7 is_stmt 0 view .LVU162
 584 01bc 82EA4230 		eor	r0, r2, r2, lsl #13
  34:../../libs/DaisySP/Source/Effects/pitchshifter.h ****     x ^= x << 5;
 585              		.loc 1 34 7 view .LVU163
 586 01c0 80EA5040 		eor	r0, r0, r0, lsr #17
  35:../../libs/DaisySP/Source/Effects/pitchshifter.h ****     return x;
 587              		.loc 1 35 7 view .LVU164
 588 01c4 80EA4010 		eor	r0, r0, r0, lsl #5
 589              	.LBE303:
 590              	.LBE302:
  42:../../libs/DaisySP/Source/Effects/pitchshifter.h ****     return seed;
 591              		.loc 1 42 26 view .LVU165
 592 01c8 3860     		str	r0, [r7]
 593              	.LBE301:
 594              	.LBE300:
 106:../../libs/DaisySP/Source/Effects/pitchshifter.h ****                          * (del_size_ * 0.5f);
 595              		.loc 1 106 51 view .LVU166
 596 01ca A1FB027C 		umull	r7, ip, r1, r2
 109:../../libs/DaisySP/Source/Effects/pitchshifter.h ****         }
 597              		.loc 1 109 48 view .LVU167
 598 01ce A1FB0071 		umull	r7, r1, r1, r0
 106:../../libs/DaisySP/Source/Effects/pitchshifter.h ****                          * (del_size_ * 0.5f);
 599              		.loc 1 106 51 view .LVU168
 600 01d2 4FEADC1C 		lsr	ip, ip, #7
 109:../../libs/DaisySP/Source/Effects/pitchshifter.h ****         }
 601              		.loc 1 109 48 view .LVU169
 602 01d6 C909     		lsrs	r1, r1, #7
 106:../../libs/DaisySP/Source/Effects/pitchshifter.h ****                          * (del_size_ * 0.5f);
 603              		.loc 1 106 51 view .LVU170
 604 01d8 CCEB0C2C 		rsb	ip, ip, ip, lsl #8
 109:../../libs/DaisySP/Source/Effects/pitchshifter.h ****         }
 605              		.loc 1 109 48 view .LVU171
 606 01dc C1EB0121 		rsb	r1, r1, r1, lsl #8
 106:../../libs/DaisySP/Source/Effects/pitchshifter.h ****                          * (del_size_ * 0.5f);
 607              		.loc 1 106 51 view .LVU172
 608 01e0 A2EB0C02 		sub	r2, r2, ip
 109:../../libs/DaisySP/Source/Effects/pitchshifter.h ****         }
 609              		.loc 1 109 48 view .LVU173
 610 01e4 411A     		subs	r1, r0, r1
 106:../../libs/DaisySP/Source/Effects/pitchshifter.h ****                          * (del_size_ * 0.5f);
 611              		.loc 1 106 34 view .LVU174
 612 01e6 07EE902A 		vmov	s15, r2	@ int
 613 01ea F8EEE76A 		vcvt.f32.s32	s13, s15
 106:../../libs/DaisySP/Source/Effects/pitchshifter.h ****                          * (del_size_ * 0.5f);
 614              		.loc 1 106 58 view .LVU175
 615 01ee C6EE857A 		vdiv.f32	s15, s13, s10
 109:../../libs/DaisySP/Source/Effects/pitchshifter.h ****         }
 616              		.loc 1 109 31 view .LVU176
 617 01f2 06EE901A 		vmov	s13, r1	@ int
 618 01f6 F8EEE66A 		vcvt.f32.s32	s13, s13
 109:../../libs/DaisySP/Source/Effects/pitchshifter.h ****         }
 619              		.loc 1 109 55 view .LVU177
 620 01fa 86EE854A 		vdiv.f32	s8, s13, s10
ARM GAS  C:\Users\skipi\AppData\Local\Temp\ccgtPcFN.s 			page 18


 107:../../libs/DaisySP/Source/Effects/pitchshifter.h ****             mod_coeff_[1]
 621              		.loc 1 107 26 view .LVU178
 622 01fe 06EE903A 		vmov	s13, r3	@ int
 623 0202 FBEEEF6A 		vcvt.f32.u32	s13, s13, #1
 106:../../libs/DaisySP/Source/Effects/pitchshifter.h ****                          * (del_size_ * 0.5f);
 624              		.loc 1 106 31 view .LVU179
 625 0206 67EEA37A 		vmul.f32	s15, s15, s7
 107:../../libs/DaisySP/Source/Effects/pitchshifter.h ****             mod_coeff_[1]
 626              		.loc 1 107 26 view .LVU180
 627 020a 67EEA67A 		vmul.f32	s15, s15, s13
 109:../../libs/DaisySP/Source/Effects/pitchshifter.h ****         }
 628              		.loc 1 109 27 view .LVU181
 629 020e F0EE466A 		vmov.f32	s13, s12
 106:../../libs/DaisySP/Source/Effects/pitchshifter.h ****                          * (del_size_ * 0.5f);
 630              		.loc 1 106 24 view .LVU182
 631 0212 C4ED1B7A 		vstr.32	s15, [r4, #108]
 108:../../libs/DaisySP/Source/Effects/pitchshifter.h ****                 = 0.0002f + (((float)(myrand() % 255) / 255.0f) * 0.001f);
 632              		.loc 1 108 13 is_stmt 1 view .LVU183
 633              	.LBB307:
 634              	.LBI300:
  39:../../libs/DaisySP/Source/Effects/pitchshifter.h **** {
 635              		.loc 1 39 17 view .LVU184
 636              	.LBB306:
  41:../../libs/DaisySP/Source/Effects/pitchshifter.h ****     seed                 = hash_xs32(seed);
 637              		.loc 1 41 5 view .LVU185
  42:../../libs/DaisySP/Source/Effects/pitchshifter.h ****     return seed;
 638              		.loc 1 42 5 view .LVU186
 639              	.LVL26:
 640              	.LBB305:
 641              	.LBI302:
  31:../../libs/DaisySP/Source/Effects/pitchshifter.h **** {
 642              		.loc 1 31 24 view .LVU187
 643              	.LBB304:
  33:../../libs/DaisySP/Source/Effects/pitchshifter.h ****     x ^= x >> 17;
 644              		.loc 1 33 5 view .LVU188
  34:../../libs/DaisySP/Source/Effects/pitchshifter.h ****     x ^= x << 5;
 645              		.loc 1 34 5 view .LVU189
  35:../../libs/DaisySP/Source/Effects/pitchshifter.h ****     return x;
 646              		.loc 1 35 5 view .LVU190
  36:../../libs/DaisySP/Source/Effects/pitchshifter.h **** }
 647              		.loc 1 36 5 view .LVU191
  36:../../libs/DaisySP/Source/Effects/pitchshifter.h **** }
 648              		.loc 1 36 5 is_stmt 0 view .LVU192
 649              	.LBE304:
 650              	.LBE305:
  43:../../libs/DaisySP/Source/Effects/pitchshifter.h **** }
 651              		.loc 1 43 5 is_stmt 1 view .LVU193
 652              	.LBE306:
 653              	.LBE307:
 109:../../libs/DaisySP/Source/Effects/pitchshifter.h ****         }
 654              		.loc 1 109 27 is_stmt 0 view .LVU194
 655 0216 E4EE246A 		vfma.f32	s13, s8, s9
 109:../../libs/DaisySP/Source/Effects/pitchshifter.h ****         }
 656              		.loc 1 109 17 view .LVU195
 657 021a C4ED216A 		vstr.32	s13, [r4, #132]
 658 021e 1BE7     		b	.L5
 659              	.L2:
ARM GAS  C:\Users\skipi\AppData\Local\Temp\ccgtPcFN.s 			page 19


  99:../../libs/DaisySP/Source/Effects/pitchshifter.h ****                          * (del_size_ * 0.5f);
 660              		.loc 1 99 13 is_stmt 1 view .LVU196
 661              	.LBB308:
 662              	.LBI308:
  39:../../libs/DaisySP/Source/Effects/pitchshifter.h **** {
 663              		.loc 1 39 17 view .LVU197
 664              	.LBB309:
  41:../../libs/DaisySP/Source/Effects/pitchshifter.h ****     seed                 = hash_xs32(seed);
 665              		.loc 1 41 5 view .LVU198
  42:../../libs/DaisySP/Source/Effects/pitchshifter.h ****     return seed;
 666              		.loc 1 42 5 view .LVU199
  42:../../libs/DaisySP/Source/Effects/pitchshifter.h ****     return seed;
 667              		.loc 1 42 37 is_stmt 0 view .LVU200
 668 0220 244F     		ldr	r7, .L12+16
 669              	.LBE309:
 670              	.LBE308:
  99:../../libs/DaisySP/Source/Effects/pitchshifter.h ****                          * (del_size_ * 0.5f);
 671              		.loc 1 99 51 view .LVU201
 672 0222 2548     		ldr	r0, .L12+20
 673              	.LBB322:
 674              	.LBB318:
  42:../../libs/DaisySP/Source/Effects/pitchshifter.h ****     return seed;
 675              		.loc 1 42 37 view .LVU202
 676 0224 3A68     		ldr	r2, [r7]
 677              	.LVL27:
 678              	.LBB310:
 679              	.LBI310:
  31:../../libs/DaisySP/Source/Effects/pitchshifter.h **** {
 680              		.loc 1 31 24 is_stmt 1 view .LVU203
 681              	.LBB311:
  33:../../libs/DaisySP/Source/Effects/pitchshifter.h ****     x ^= x >> 17;
 682              		.loc 1 33 5 view .LVU204
 683              	.LBE311:
 684              	.LBE310:
 685              	.LBE318:
 686              	.LBE322:
  99:../../libs/DaisySP/Source/Effects/pitchshifter.h ****                          * (del_size_ * 0.5f);
 687              		.loc 1 99 58 is_stmt 0 view .LVU205
 688 0226 DFED256A 		vldr.32	s13, .L12+24
 689              	.LBB323:
 690              	.LBB319:
 691              	.LBB315:
 692              	.LBB312:
  33:../../libs/DaisySP/Source/Effects/pitchshifter.h ****     x ^= x >> 17;
 693              		.loc 1 33 7 view .LVU206
 694 022a 82EA4232 		eor	r2, r2, r2, lsl #13
 695              	.LVL28:
  34:../../libs/DaisySP/Source/Effects/pitchshifter.h ****     x ^= x << 5;
 696              		.loc 1 34 5 is_stmt 1 view .LVU207
 697              	.LBE312:
 698              	.LBE315:
 699              	.LBE319:
 700              	.LBE323:
 100:../../libs/DaisySP/Source/Effects/pitchshifter.h ****             mod_coeff_[0]
 701              		.loc 1 100 29 is_stmt 0 view .LVU208
 702 022e 236A     		ldr	r3, [r4, #32]
  99:../../libs/DaisySP/Source/Effects/pitchshifter.h ****                          * (del_size_ * 0.5f);
ARM GAS  C:\Users\skipi\AppData\Local\Temp\ccgtPcFN.s 			page 20


 703              		.loc 1 99 31 view .LVU209
 704 0230 94ED194A 		vldr.32	s8, [r4, #100]
 705              	.LBB324:
 706              	.LBB320:
 707              	.LBB316:
 708              	.LBB313:
  34:../../libs/DaisySP/Source/Effects/pitchshifter.h ****     x ^= x << 5;
 709              		.loc 1 34 7 view .LVU210
 710 0234 82EA5242 		eor	r2, r2, r2, lsr #17
 711              	.LVL29:
  35:../../libs/DaisySP/Source/Effects/pitchshifter.h ****     return x;
 712              		.loc 1 35 5 is_stmt 1 view .LVU211
 713              	.LBE313:
 714              	.LBE316:
 715              	.LBE320:
 716              	.LBE324:
 102:../../libs/DaisySP/Source/Effects/pitchshifter.h ****         }
 717              		.loc 1 102 27 is_stmt 0 view .LVU212
 718 0238 9FED226A 		vldr.32	s12, .L12+32
 719 023c DFED205A 		vldr.32	s11, .L12+28
 100:../../libs/DaisySP/Source/Effects/pitchshifter.h ****             mod_coeff_[0]
 720              		.loc 1 100 39 view .LVU213
 721 0240 04EE903A 		vmov	s9, r3	@ int
 722              	.LBB325:
 723              	.LBB321:
 724              	.LBB317:
 725              	.LBB314:
  35:../../libs/DaisySP/Source/Effects/pitchshifter.h ****     return x;
 726              		.loc 1 35 7 view .LVU214
 727 0244 82EA4212 		eor	r2, r2, r2, lsl #5
 728              	.LVL30:
  36:../../libs/DaisySP/Source/Effects/pitchshifter.h **** }
 729              		.loc 1 36 5 is_stmt 1 view .LVU215
  36:../../libs/DaisySP/Source/Effects/pitchshifter.h **** }
 730              		.loc 1 36 5 is_stmt 0 view .LVU216
 731              	.LBE314:
 732              	.LBE317:
  43:../../libs/DaisySP/Source/Effects/pitchshifter.h **** }
 733              		.loc 1 43 5 is_stmt 1 view .LVU217
 734              	.LBE321:
 735              	.LBE325:
 100:../../libs/DaisySP/Source/Effects/pitchshifter.h ****             mod_coeff_[0]
 736              		.loc 1 100 39 is_stmt 0 view .LVU218
 737 0248 FBEEEF4A 		vcvt.f32.u32	s9, s9, #1
 738              	.LBB326:
 739              	.LBB327:
 740              	.LBB328:
 741              	.LBB329:
  33:../../libs/DaisySP/Source/Effects/pitchshifter.h ****     x ^= x >> 17;
 742              		.loc 1 33 7 view .LVU219
 743 024c 82EA4231 		eor	r1, r2, r2, lsl #13
  34:../../libs/DaisySP/Source/Effects/pitchshifter.h ****     x ^= x << 5;
 744              		.loc 1 34 7 view .LVU220
 745 0250 81EA5141 		eor	r1, r1, r1, lsr #17
  35:../../libs/DaisySP/Source/Effects/pitchshifter.h ****     return x;
 746              		.loc 1 35 7 view .LVU221
 747 0254 81EA4111 		eor	r1, r1, r1, lsl #5
ARM GAS  C:\Users\skipi\AppData\Local\Temp\ccgtPcFN.s 			page 21


 748              	.LBE329:
 749              	.LBE328:
  42:../../libs/DaisySP/Source/Effects/pitchshifter.h ****     return seed;
 750              		.loc 1 42 26 view .LVU222
 751 0258 3960     		str	r1, [r7]
 752              	.LBE327:
 753              	.LBE326:
  99:../../libs/DaisySP/Source/Effects/pitchshifter.h ****                          * (del_size_ * 0.5f);
 754              		.loc 1 99 51 view .LVU223
 755 025a A0FB027C 		umull	r7, ip, r0, r2
 102:../../libs/DaisySP/Source/Effects/pitchshifter.h ****         }
 756              		.loc 1 102 48 view .LVU224
 757 025e A0FB0170 		umull	r7, r0, r0, r1
  99:../../libs/DaisySP/Source/Effects/pitchshifter.h ****                          * (del_size_ * 0.5f);
 758              		.loc 1 99 51 view .LVU225
 759 0262 4FEADC1C 		lsr	ip, ip, #7
 102:../../libs/DaisySP/Source/Effects/pitchshifter.h ****         }
 760              		.loc 1 102 48 view .LVU226
 761 0266 C009     		lsrs	r0, r0, #7
  99:../../libs/DaisySP/Source/Effects/pitchshifter.h ****                          * (del_size_ * 0.5f);
 762              		.loc 1 99 51 view .LVU227
 763 0268 CCEB0C2C 		rsb	ip, ip, ip, lsl #8
 102:../../libs/DaisySP/Source/Effects/pitchshifter.h ****         }
 764              		.loc 1 102 48 view .LVU228
 765 026c C0EB0020 		rsb	r0, r0, r0, lsl #8
  99:../../libs/DaisySP/Source/Effects/pitchshifter.h ****                          * (del_size_ * 0.5f);
 766              		.loc 1 99 51 view .LVU229
 767 0270 A2EB0C02 		sub	r2, r2, ip
 102:../../libs/DaisySP/Source/Effects/pitchshifter.h ****         }
 768              		.loc 1 102 48 view .LVU230
 769 0274 081A     		subs	r0, r1, r0
  99:../../libs/DaisySP/Source/Effects/pitchshifter.h ****                          * (del_size_ * 0.5f);
 770              		.loc 1 99 34 view .LVU231
 771 0276 07EE902A 		vmov	s15, r2	@ int
 772 027a F8EEE77A 		vcvt.f32.s32	s15, s15
  99:../../libs/DaisySP/Source/Effects/pitchshifter.h ****                          * (del_size_ * 0.5f);
 773              		.loc 1 99 58 view .LVU232
 774 027e 87EEA67A 		vdiv.f32	s14, s15, s13
 102:../../libs/DaisySP/Source/Effects/pitchshifter.h ****         }
 775              		.loc 1 102 31 view .LVU233
 776 0282 07EE900A 		vmov	s15, r0	@ int
 777 0286 F8EEE77A 		vcvt.f32.s32	s15, s15
 102:../../libs/DaisySP/Source/Effects/pitchshifter.h ****         }
 778              		.loc 1 102 55 view .LVU234
 779 028a 87EEA65A 		vdiv.f32	s10, s15, s13
  99:../../libs/DaisySP/Source/Effects/pitchshifter.h ****                          * (del_size_ * 0.5f);
 780              		.loc 1 99 31 view .LVU235
 781 028e 27EE047A 		vmul.f32	s14, s14, s8
 100:../../libs/DaisySP/Source/Effects/pitchshifter.h ****             mod_coeff_[0]
 782              		.loc 1 100 26 view .LVU236
 783 0292 27EE247A 		vmul.f32	s14, s14, s9
  99:../../libs/DaisySP/Source/Effects/pitchshifter.h ****                          * (del_size_ * 0.5f);
 784              		.loc 1 99 24 view .LVU237
 785 0296 84ED1A7A 		vstr.32	s14, [r4, #104]
 101:../../libs/DaisySP/Source/Effects/pitchshifter.h ****                 = 0.0002f + (((float)(myrand() % 255) / 255.0f) * 0.001f);
 786              		.loc 1 101 13 is_stmt 1 view .LVU238
 787              	.LBB333:
ARM GAS  C:\Users\skipi\AppData\Local\Temp\ccgtPcFN.s 			page 22


 788              	.LBI326:
  39:../../libs/DaisySP/Source/Effects/pitchshifter.h **** {
 789              		.loc 1 39 17 view .LVU239
 790              	.LBB332:
  41:../../libs/DaisySP/Source/Effects/pitchshifter.h ****     seed                 = hash_xs32(seed);
 791              		.loc 1 41 5 view .LVU240
  42:../../libs/DaisySP/Source/Effects/pitchshifter.h ****     return seed;
 792              		.loc 1 42 5 view .LVU241
 793              	.LVL31:
 794              	.LBB331:
 795              	.LBI328:
  31:../../libs/DaisySP/Source/Effects/pitchshifter.h **** {
 796              		.loc 1 31 24 view .LVU242
 797              	.LBB330:
  33:../../libs/DaisySP/Source/Effects/pitchshifter.h ****     x ^= x >> 17;
 798              		.loc 1 33 5 view .LVU243
  34:../../libs/DaisySP/Source/Effects/pitchshifter.h ****     x ^= x << 5;
 799              		.loc 1 34 5 view .LVU244
  35:../../libs/DaisySP/Source/Effects/pitchshifter.h ****     return x;
 800              		.loc 1 35 5 view .LVU245
  36:../../libs/DaisySP/Source/Effects/pitchshifter.h **** }
 801              		.loc 1 36 5 view .LVU246
  36:../../libs/DaisySP/Source/Effects/pitchshifter.h **** }
 802              		.loc 1 36 5 is_stmt 0 view .LVU247
 803              	.LBE330:
 804              	.LBE331:
  43:../../libs/DaisySP/Source/Effects/pitchshifter.h **** }
 805              		.loc 1 43 5 is_stmt 1 view .LVU248
 806              	.LBE332:
 807              	.LBE333:
 102:../../libs/DaisySP/Source/Effects/pitchshifter.h ****         }
 808              		.loc 1 102 27 is_stmt 0 view .LVU249
 809 029a E5EE065A 		vfma.f32	s11, s10, s12
 102:../../libs/DaisySP/Source/Effects/pitchshifter.h ****         }
 810              		.loc 1 102 17 view .LVU250
 811 029e C4ED205A 		vstr.32	s11, [r4, #128]
 812 02a2 CDE6     		b	.L3
 813              	.L13:
 814              		.align	2
 815              	.L12:
 816 02a4 30000200 		.word	131120
 817 02a8 40000200 		.word	131136
 818 02ac DB0F4940 		.word	1078530011
 819 02b0 00000000 		.word	0
 820 02b4 00000000 		.word	_ZZN7daisysp6myrandEvE4seed
 821 02b8 81808080 		.word	-2139062143
 822 02bc 00007F43 		.word	1132396544
 823 02c0 17B75139 		.word	961656599
 824 02c4 6F12833A 		.word	981668463
 825              		.cfi_endproc
 826              	.LFE4495:
 828              		.section	.text._ZN11AnalogDelayC2Ev,"ax",%progbits
 829              		.align	1
 830              		.p2align 2,,3
 831              		.global	_ZN11AnalogDelayC2Ev
 832              		.syntax unified
 833              		.thumb
ARM GAS  C:\Users\skipi\AppData\Local\Temp\ccgtPcFN.s 			page 23


 834              		.thumb_func
 835              		.fpu fpv5-d16
 837              	_ZN11AnalogDelayC2Ev:
 838              	.LVL32:
 839              	.LFB4815:
 840              		.file 3 "AnalogDelay.cpp"
   1:AnalogDelay.cpp **** #include "AnalogDelay.h" // Include l'header file della classe AnalogDelay
   2:AnalogDelay.cpp **** 
   3:AnalogDelay.cpp **** // Variabile globale per il tempo di delay corrente
   4:AnalogDelay.cpp **** static float currentDelayTime = 0.0f;
   5:AnalogDelay.cpp **** 
   6:AnalogDelay.cpp **** // Alloca il buffer nella SDRAM
   7:AnalogDelay.cpp **** static float DSY_SDRAM_BSS delayBufferStorage[48000 * MAX_DELAY_TIME];
   8:AnalogDelay.cpp **** 
   9:AnalogDelay.cpp **** // Costruttore: inizializza tutti i parametri dell'effetto delay con valori predefiniti
  10:AnalogDelay.cpp **** AnalogDelay::AnalogDelay() : 
 841              		.loc 3 10 1 is_stmt 1 view -0
 842              		.cfi_startproc
 843              		@ args = 0, pretend = 0, frame = 0
 844              		@ frame_needed = 0, uses_anonymous_args = 0
 845              	.LBB334:
  11:AnalogDelay.cpp ****     _sampleRate(48000.0f),     // Frequenza di campionamento standard (48kHz)
  12:AnalogDelay.cpp ****     _delayTime(0.5f),          // Tempo di delay iniziale (500ms)
  13:AnalogDelay.cpp ****     _feedback(0.4f),           // Quantit di feedback iniziale (40%)
  14:AnalogDelay.cpp ****     _mix(0.5f),                // Mix tra segnale dry/wet (50%)
  15:AnalogDelay.cpp ****     _depth(0.0f),              // Profondit del pitch shifter (50%)
  16:AnalogDelay.cpp ****     _smooth_factor(0.00008f),  // Fattore di smoothing iniziale (0)
  17:AnalogDelay.cpp ****     _writePos(0),              // Posizione di scrittura nel buffer
  18:AnalogDelay.cpp ****     _readPos(0.0f),            // Posizione di lettura nel buffer
  19:AnalogDelay.cpp ****     _delayBuffer(delayBufferStorage) // Buffer di delay
 846              		.loc 3 19 36 is_stmt 0 view .LVU252
 847 0000 4FF07C51 		mov	r1, #1056964608
 848 0004 0022     		movs	r2, #0
 849 0006 DFF830C0 		ldr	ip, .L16+4
 850 000a 4160     		str	r1, [r0, #4]	@ float
 851 000c C0F800C0 		str	ip, [r0]	@ float
 852 0010 C160     		str	r1, [r0, #12]	@ float
 853 0012 DFF828C0 		ldr	ip, .L16+8
 854 0016 0749     		ldr	r1, .L16
 855 0018 0261     		str	r2, [r0, #16]	@ float
 856 001a C261     		str	r2, [r0, #28]	@ float
 857 001c 0022     		movs	r2, #0
 858 001e C0F814C0 		str	ip, [r0, #20]	@ float
 859 0022 0162     		str	r1, [r0, #32]
 860              	.LVL33:
 861              	.LBB335:
 862              	.LBI335:
 863              		.file 4 "../../libs/DaisySP/Source/Dynamics/crossfade.h"
   1:../../libs/DaisySP/Source/Dynamics/crossfade.h **** /*
   2:../../libs/DaisySP/Source/Dynamics/crossfade.h **** Copyright (c) 2020 Electrosmith, Corp, Paul Batchelor
   3:../../libs/DaisySP/Source/Dynamics/crossfade.h **** 
   4:../../libs/DaisySP/Source/Dynamics/crossfade.h **** Use of this source code is governed by an MIT-style
   5:../../libs/DaisySP/Source/Dynamics/crossfade.h **** license that can be found in the LICENSE file or at
   6:../../libs/DaisySP/Source/Dynamics/crossfade.h **** https://opensource.org/licenses/MIT.
   7:../../libs/DaisySP/Source/Dynamics/crossfade.h **** */
   8:../../libs/DaisySP/Source/Dynamics/crossfade.h **** 
   9:../../libs/DaisySP/Source/Dynamics/crossfade.h **** #pragma once
ARM GAS  C:\Users\skipi\AppData\Local\Temp\ccgtPcFN.s 			page 24


  10:../../libs/DaisySP/Source/Dynamics/crossfade.h **** #ifndef DSY_CROSSFADE_H
  11:../../libs/DaisySP/Source/Dynamics/crossfade.h **** #define DSY_CROSSFADE_H
  12:../../libs/DaisySP/Source/Dynamics/crossfade.h **** #include <stdint.h>
  13:../../libs/DaisySP/Source/Dynamics/crossfade.h **** #ifdef __cplusplus
  14:../../libs/DaisySP/Source/Dynamics/crossfade.h **** 
  15:../../libs/DaisySP/Source/Dynamics/crossfade.h **** namespace daisysp
  16:../../libs/DaisySP/Source/Dynamics/crossfade.h **** {
  17:../../libs/DaisySP/Source/Dynamics/crossfade.h **** /** Curve applied to the CrossFade
  18:../../libs/DaisySP/Source/Dynamics/crossfade.h **** - LIN = linear
  19:../../libs/DaisySP/Source/Dynamics/crossfade.h **** - CPOW = constant power
  20:../../libs/DaisySP/Source/Dynamics/crossfade.h **** - LOG = logarithmic
  21:../../libs/DaisySP/Source/Dynamics/crossfade.h **** - EXP  exponential
  22:../../libs/DaisySP/Source/Dynamics/crossfade.h **** - LAST = end of enum (used for array indexing)
  23:../../libs/DaisySP/Source/Dynamics/crossfade.h **** */
  24:../../libs/DaisySP/Source/Dynamics/crossfade.h **** enum
  25:../../libs/DaisySP/Source/Dynamics/crossfade.h **** {
  26:../../libs/DaisySP/Source/Dynamics/crossfade.h ****     CROSSFADE_LIN,
  27:../../libs/DaisySP/Source/Dynamics/crossfade.h ****     CROSSFADE_CPOW,
  28:../../libs/DaisySP/Source/Dynamics/crossfade.h ****     CROSSFADE_LOG,
  29:../../libs/DaisySP/Source/Dynamics/crossfade.h ****     CROSSFADE_EXP,
  30:../../libs/DaisySP/Source/Dynamics/crossfade.h ****     CROSSFADE_LAST,
  31:../../libs/DaisySP/Source/Dynamics/crossfade.h **** };
  32:../../libs/DaisySP/Source/Dynamics/crossfade.h **** 
  33:../../libs/DaisySP/Source/Dynamics/crossfade.h **** /** Performs a CrossFade between two signals
  34:../../libs/DaisySP/Source/Dynamics/crossfade.h **** 
  35:../../libs/DaisySP/Source/Dynamics/crossfade.h ****     Original author: Paul Batchelor
  36:../../libs/DaisySP/Source/Dynamics/crossfade.h **** 
  37:../../libs/DaisySP/Source/Dynamics/crossfade.h ****     Ported from Soundpipe by Andrew Ikenberry
  38:../../libs/DaisySP/Source/Dynamics/crossfade.h **** 
  39:../../libs/DaisySP/Source/Dynamics/crossfade.h ****     added curve option for constant power, etc.
  40:../../libs/DaisySP/Source/Dynamics/crossfade.h **** */
  41:../../libs/DaisySP/Source/Dynamics/crossfade.h **** class CrossFade
  42:../../libs/DaisySP/Source/Dynamics/crossfade.h **** {
  43:../../libs/DaisySP/Source/Dynamics/crossfade.h ****   public:
  44:../../libs/DaisySP/Source/Dynamics/crossfade.h ****     CrossFade() {}
 864              		.loc 4 44 5 is_stmt 1 view .LVU253
 865              		.loc 4 44 5 is_stmt 0 view .LVU254
 866              	.LBE335:
 867              	.LBB336:
 868              	.LBI336:
  67:../../libs/DaisySP/Source/Effects/pitchshifter.h ****     ~PitchShifter() {}
 869              		.loc 1 67 5 is_stmt 1 view .LVU255
 870              	.LBE336:
 871              	.LBE334:
  67:../../libs/DaisySP/Source/Effects/pitchshifter.h ****     ~PitchShifter() {}
 872              		.loc 1 67 20 view .LVU256
  67:../../libs/DaisySP/Source/Effects/pitchshifter.h ****     ~PitchShifter() {}
 873              		.loc 1 67 20 view .LVU257
 874              	.LBB338:
 875              	.LBB337:
 876              	.LBI337:
 877              		.file 5 "../../libs/DaisySP/Source/Synthesis/oscillator.h"
   1:../../libs/DaisySP/Source/Synthesis/oscillator.h **** /*
   2:../../libs/DaisySP/Source/Synthesis/oscillator.h **** Copyright (c) 2020 Electrosmith, Corp
   3:../../libs/DaisySP/Source/Synthesis/oscillator.h **** 
   4:../../libs/DaisySP/Source/Synthesis/oscillator.h **** Use of this source code is governed by an MIT-style
   5:../../libs/DaisySP/Source/Synthesis/oscillator.h **** license that can be found in the LICENSE file or at
ARM GAS  C:\Users\skipi\AppData\Local\Temp\ccgtPcFN.s 			page 25


   6:../../libs/DaisySP/Source/Synthesis/oscillator.h **** https://opensource.org/licenses/MIT.
   7:../../libs/DaisySP/Source/Synthesis/oscillator.h **** */
   8:../../libs/DaisySP/Source/Synthesis/oscillator.h **** 
   9:../../libs/DaisySP/Source/Synthesis/oscillator.h **** #pragma once
  10:../../libs/DaisySP/Source/Synthesis/oscillator.h **** #ifndef DSY_OSCILLATOR_H
  11:../../libs/DaisySP/Source/Synthesis/oscillator.h **** #define DSY_OSCILLATOR_H
  12:../../libs/DaisySP/Source/Synthesis/oscillator.h **** #include <stdint.h>
  13:../../libs/DaisySP/Source/Synthesis/oscillator.h **** #include "Utility/dsp.h"
  14:../../libs/DaisySP/Source/Synthesis/oscillator.h **** #ifdef __cplusplus
  15:../../libs/DaisySP/Source/Synthesis/oscillator.h **** 
  16:../../libs/DaisySP/Source/Synthesis/oscillator.h **** namespace daisysp
  17:../../libs/DaisySP/Source/Synthesis/oscillator.h **** {
  18:../../libs/DaisySP/Source/Synthesis/oscillator.h **** /** Synthesis of several waveforms, including polyBLEP bandlimited waveforms.
  19:../../libs/DaisySP/Source/Synthesis/oscillator.h **** */
  20:../../libs/DaisySP/Source/Synthesis/oscillator.h **** class Oscillator
  21:../../libs/DaisySP/Source/Synthesis/oscillator.h **** {
  22:../../libs/DaisySP/Source/Synthesis/oscillator.h ****   public:
  23:../../libs/DaisySP/Source/Synthesis/oscillator.h ****     Oscillator() {}
 878              		.loc 5 23 5 view .LVU258
 879              		.loc 5 23 5 is_stmt 0 view .LVU259
 880              	.LBE337:
 881              		.loc 3 19 36 view .LVU260
 882 0024 8261     		str	r2, [r0, #24]
 883              	.LBE338:
  10:AnalogDelay.cpp ****     _sampleRate(48000.0f),     // Frequenza di campionamento standard (48kHz)
 884              		.loc 3 10 1 view .LVU261
 885 0026 00B5     		push	{lr}
 886              		.cfi_def_cfa_offset 4
 887              		.cfi_offset 14, -4
 888              	.LBB339:
 889              		.loc 3 19 36 view .LVU262
 890 0028 DFF814E0 		ldr	lr, .L16+12
 891 002c C0F808E0 		str	lr, [r0, #8]	@ float
 892              	.LBE339:
  20:AnalogDelay.cpp **** {}
 893              		.loc 3 20 2 view .LVU263
 894 0030 5DF804FB 		ldr	pc, [sp], #4
 895              	.L17:
 896              		.align	2
 897              	.L16:
 898 0034 00000000 		.word	_ZL18delayBufferStorage
 899 0038 00803B47 		.word	1195081728
 900 003c ACC5A738 		.word	950519212
 901 0040 CDCCCC3E 		.word	1053609165
 902              		.cfi_endproc
 903              	.LFE4815:
 905              		.global	_ZN11AnalogDelayC1Ev
 906              		.thumb_set _ZN11AnalogDelayC1Ev,_ZN11AnalogDelayC2Ev
 907              		.section	.text._ZN11AnalogDelayD2Ev,"ax",%progbits
 908              		.align	1
 909              		.p2align 2,,3
 910              		.global	_ZN11AnalogDelayD2Ev
 911              		.syntax unified
 912              		.thumb
 913              		.thumb_func
 914              		.fpu fpv5-d16
 916              	_ZN11AnalogDelayD2Ev:
ARM GAS  C:\Users\skipi\AppData\Local\Temp\ccgtPcFN.s 			page 26


 917              	.LVL34:
 918              	.LFB4818:
  21:AnalogDelay.cpp **** 
  22:AnalogDelay.cpp **** AnalogDelay::~AnalogDelay() {} // Distruttore (vuoto)
 919              		.loc 3 22 1 is_stmt 1 view -0
 920              		.cfi_startproc
 921              		@ args = 0, pretend = 0, frame = 0
 922              		@ frame_needed = 0, uses_anonymous_args = 0
 923              		@ link register save eliminated.
 924              	.LBB340:
 925              	.LBI340:
  24:../../libs/DaisySP/Source/Synthesis/oscillator.h ****     ~Oscillator() {}
 926              		.loc 5 24 5 view .LVU265
 927              		.loc 5 24 5 is_stmt 0 view .LVU266
 928              	.LBE340:
 929              	.LBB341:
 930              	.LBI341:
  68:../../libs/DaisySP/Source/Effects/pitchshifter.h ****     /** Initialize pitch shifter
 931              		.loc 1 68 5 is_stmt 1 view .LVU267
  68:../../libs/DaisySP/Source/Effects/pitchshifter.h ****     /** Initialize pitch shifter
 932              		.loc 1 68 5 is_stmt 0 view .LVU268
 933              	.LBE341:
 934              	.LBB342:
 935              	.LBI342:
  45:../../libs/DaisySP/Source/Dynamics/crossfade.h ****     ~CrossFade() {}
 936              		.loc 4 45 5 is_stmt 1 view .LVU269
 937              		.loc 4 45 5 is_stmt 0 view .LVU270
 938              	.LBE342:
 939              		.loc 3 22 30 view .LVU271
 940 0000 7047     		bx	lr
 941              		.cfi_endproc
 942              	.LFE4818:
 944              		.global	_ZN11AnalogDelayD1Ev
 945              		.thumb_set _ZN11AnalogDelayD1Ev,_ZN11AnalogDelayD2Ev
 946 0002 00BF     		.section	.text._ZN11AnalogDelay4InitEf,"ax",%progbits
 947              		.align	1
 948              		.p2align 2,,3
 949              		.global	_ZN11AnalogDelay4InitEf
 950              		.syntax unified
 951              		.thumb
 952              		.thumb_func
 953              		.fpu fpv5-d16
 955              	_ZN11AnalogDelay4InitEf:
 956              	.LVL35:
 957              	.LFB4820:
  23:AnalogDelay.cpp **** 
  24:AnalogDelay.cpp **** // Inizializza l'effetto con la frequenza di campionamento specificata
  25:AnalogDelay.cpp **** void AnalogDelay::Init(float sampleRate) {
 958              		.loc 3 25 42 is_stmt 1 view -0
 959              		.cfi_startproc
 960              		@ args = 0, pretend = 0, frame = 8
 961              		@ frame_needed = 0, uses_anonymous_args = 0
  26:AnalogDelay.cpp ****     _sampleRate = sampleRate;    // Imposta la frequenza di campionamento
 962              		.loc 3 26 5 view .LVU273
  25:AnalogDelay.cpp ****     _sampleRate = sampleRate;    // Imposta la frequenza di campionamento
 963              		.loc 3 25 42 is_stmt 0 view .LVU274
 964 0000 2DE9F043 		push	{r4, r5, r6, r7, r8, r9, lr}
ARM GAS  C:\Users\skipi\AppData\Local\Temp\ccgtPcFN.s 			page 27


 965              		.cfi_def_cfa_offset 28
 966              		.cfi_offset 4, -28
 967              		.cfi_offset 5, -24
 968              		.cfi_offset 6, -20
 969              		.cfi_offset 7, -16
 970              		.cfi_offset 8, -12
 971              		.cfi_offset 9, -8
 972              		.cfi_offset 14, -4
 973 0004 7B4E     		ldr	r6, .L32
 974              	.LBB369:
 975              	.LBB370:
  73:../../libs/DaisySP/Source/Effects/pitchshifter.h ****         sr_           = sr;
 976              		.loc 1 73 23 view .LVU275
 977 0006 00F50035 		add	r5, r0, #131072
 978              	.LBE370:
 979              	.LBE369:
 980              	.LBB442:
 981              	.LBB443:
 982              	.LBB444:
  46:../../libs/DaisySP/Source/Dynamics/crossfade.h ****     /** Initializes CrossFade module
  47:../../libs/DaisySP/Source/Dynamics/crossfade.h ****         Defaults
  48:../../libs/DaisySP/Source/Dynamics/crossfade.h ****         - current position = .5
  49:../../libs/DaisySP/Source/Dynamics/crossfade.h ****         - curve = linear
  50:../../libs/DaisySP/Source/Dynamics/crossfade.h ****     */
  51:../../libs/DaisySP/Source/Dynamics/crossfade.h ****     inline void Init(int curve)
  52:../../libs/DaisySP/Source/Dynamics/crossfade.h ****     {
  53:../../libs/DaisySP/Source/Dynamics/crossfade.h ****         pos_   = 0.5f;
  54:../../libs/DaisySP/Source/Dynamics/crossfade.h ****         curve_ = curve < CROSSFADE_LAST ? curve : CROSSFADE_LIN;
 983              		.loc 4 54 16 view .LVU276
 984 000a 0024     		movs	r4, #0
  53:../../libs/DaisySP/Source/Dynamics/crossfade.h ****         curve_ = curve < CROSSFADE_LAST ? curve : CROSSFADE_LIN;
 985              		.loc 4 53 16 view .LVU277
 986 000c 4FF07C52 		mov	r2, #1056964608
 987              	.LBE444:
 988              	.LBE443:
 989              	.LBE442:
 990              	.LBB449:
 991              	.LBB437:
  75:../../libs/DaisySP/Source/Effects/pitchshifter.h ****         SetSemitones();
 992              		.loc 1 75 23 view .LVU278
 993 0010 794B     		ldr	r3, .L32+4
 994              	.LBE437:
 995              	.LBE449:
  25:AnalogDelay.cpp ****     _sampleRate = sampleRate;    // Imposta la frequenza di campionamento
 996              		.loc 3 25 42 view .LVU279
 997 0012 0746     		mov	r7, r0
 998 0014 0644     		add	r6, r6, r0
 999 0016 2DED028B 		vpush.64	{d8}
 1000              		.cfi_def_cfa_offset 36
 1001              		.cfi_offset 80, -36
 1002              		.cfi_offset 81, -32
 1003 001a B0EE408A 		vmov.f32	s16, s0
 1004 001e 83B0     		sub	sp, sp, #12
 1005              		.cfi_def_cfa_offset 48
 1006              	.LBB450:
 1007              	.LBB447:
 1008              	.LBB445:
ARM GAS  C:\Users\skipi\AppData\Local\Temp\ccgtPcFN.s 			page 28


  53:../../libs/DaisySP/Source/Dynamics/crossfade.h ****         curve_ = curve < CROSSFADE_LAST ? curve : CROSSFADE_LIN;
 1009              		.loc 4 53 16 view .LVU280
 1010 0020 4262     		str	r2, [r0, #36]	@ float
 1011              	.LBE445:
 1012              	.LBE447:
 1013              	.LBE450:
 1014              		.loc 3 26 17 view .LVU281
 1015 0022 80ED000A 		vstr.32	s0, [r0]
  27:AnalogDelay.cpp ****     _crossfade.Init();           // Inizializza il modulo di crossfade
 1016              		.loc 3 27 5 is_stmt 1 view .LVU282
 1017              	.LVL36:
 1018              	.LBB451:
 1019              	.LBI442:
  55:../../libs/DaisySP/Source/Dynamics/crossfade.h ****     }
  56:../../libs/DaisySP/Source/Dynamics/crossfade.h **** 
  57:../../libs/DaisySP/Source/Dynamics/crossfade.h ****     /** Initialize with default linear curve 
  58:../../libs/DaisySP/Source/Dynamics/crossfade.h ****     */
  59:../../libs/DaisySP/Source/Dynamics/crossfade.h ****     inline void Init() { Init(CROSSFADE_LIN); }
 1020              		.loc 4 59 17 view .LVU283
 1021              	.LBE451:
 1022              		.loc 4 59 26 view .LVU284
 1023              	.LBB452:
 1024              	.LBB448:
 1025              	.LBI443:
  51:../../libs/DaisySP/Source/Dynamics/crossfade.h ****     {
 1026              		.loc 4 51 17 view .LVU285
 1027              	.LBB446:
  53:../../libs/DaisySP/Source/Dynamics/crossfade.h ****         curve_ = curve < CROSSFADE_LAST ? curve : CROSSFADE_LIN;
 1028              		.loc 4 53 9 view .LVU286
  54:../../libs/DaisySP/Source/Dynamics/crossfade.h ****     }
 1029              		.loc 4 54 9 view .LVU287
  54:../../libs/DaisySP/Source/Dynamics/crossfade.h ****     }
 1030              		.loc 4 54 16 is_stmt 0 view .LVU288
 1031 0026 80F82840 		strb	r4, [r0, #40]
 1032              	.LVL37:
  54:../../libs/DaisySP/Source/Dynamics/crossfade.h ****     }
 1033              		.loc 4 54 16 view .LVU289
 1034              	.LBE446:
 1035              	.LBE448:
 1036              	.LBE452:
  28:AnalogDelay.cpp ****     _ps.Init(sampleRate);        // Inizializza il pitch shifter
 1037              		.loc 3 28 5 is_stmt 1 view .LVU290
 1038              	.LBB453:
 1039              	.LBI369:
  71:../../libs/DaisySP/Source/Effects/pitchshifter.h ****     {
 1040              		.loc 1 71 10 view .LVU291
 1041              	.LBB438:
  73:../../libs/DaisySP/Source/Effects/pitchshifter.h ****         sr_           = sr;
 1042              		.loc 1 73 9 view .LVU292
  73:../../libs/DaisySP/Source/Effects/pitchshifter.h ****         sr_           = sr;
 1043              		.loc 1 73 23 is_stmt 0 view .LVU293
 1044 002a 85F85040 		strb	r4, [r5, #80]
  74:../../libs/DaisySP/Source/Effects/pitchshifter.h ****         mod_freq_     = 5.0f;
 1045              		.loc 1 74 9 is_stmt 1 view .LVU294
  74:../../libs/DaisySP/Source/Effects/pitchshifter.h ****         mod_freq_     = 5.0f;
 1046              		.loc 1 74 23 is_stmt 0 view .LVU295
 1047 002e 85ED150A 		vstr.32	s0, [r5, #84]
ARM GAS  C:\Users\skipi\AppData\Local\Temp\ccgtPcFN.s 			page 29


  75:../../libs/DaisySP/Source/Effects/pitchshifter.h ****         SetSemitones();
 1048              		.loc 1 75 9 is_stmt 1 view .LVU296
  75:../../libs/DaisySP/Source/Effects/pitchshifter.h ****         SetSemitones();
 1049              		.loc 1 75 23 is_stmt 0 view .LVU297
 1050 0032 AB64     		str	r3, [r5, #72]	@ float
  76:../../libs/DaisySP/Source/Effects/pitchshifter.h ****         for(uint8_t i = 0; i < 2; i++)
 1051              		.loc 1 76 9 is_stmt 1 view .LVU298
 1052              	.LVL38:
 1053              	.LBB371:
 1054              	.LBI371:
 144:../../libs/DaisySP/Source/Effects/pitchshifter.h **** 
 145:../../libs/DaisySP/Source/Effects/pitchshifter.h ****     /** sets transposition in semitones
 146:../../libs/DaisySP/Source/Effects/pitchshifter.h ****     */
 147:../../libs/DaisySP/Source/Effects/pitchshifter.h ****     void SetTransposition(const float &transpose)
 148:../../libs/DaisySP/Source/Effects/pitchshifter.h ****     {
 149:../../libs/DaisySP/Source/Effects/pitchshifter.h ****         float   ratio;
 150:../../libs/DaisySP/Source/Effects/pitchshifter.h ****         uint8_t idx;
 151:../../libs/DaisySP/Source/Effects/pitchshifter.h ****         if(transpose_ != transpose || force_recalc_)
 152:../../libs/DaisySP/Source/Effects/pitchshifter.h ****         {
 153:../../libs/DaisySP/Source/Effects/pitchshifter.h ****             transpose_ = transpose;
 154:../../libs/DaisySP/Source/Effects/pitchshifter.h ****             idx        = (uint8_t)fabsf(transpose);
 155:../../libs/DaisySP/Source/Effects/pitchshifter.h ****             ratio      = semitone_ratios_[idx % 12];
 156:../../libs/DaisySP/Source/Effects/pitchshifter.h ****             ratio *= (uint8_t)(fabsf(transpose) / 12) + 1;
 157:../../libs/DaisySP/Source/Effects/pitchshifter.h ****             if(transpose > 0.0f)
 158:../../libs/DaisySP/Source/Effects/pitchshifter.h ****             {
 159:../../libs/DaisySP/Source/Effects/pitchshifter.h ****                 shift_up_ = true;
 160:../../libs/DaisySP/Source/Effects/pitchshifter.h ****             }
 161:../../libs/DaisySP/Source/Effects/pitchshifter.h ****             else
 162:../../libs/DaisySP/Source/Effects/pitchshifter.h ****             {
 163:../../libs/DaisySP/Source/Effects/pitchshifter.h ****                 shift_up_ = false;
 164:../../libs/DaisySP/Source/Effects/pitchshifter.h ****             }
 165:../../libs/DaisySP/Source/Effects/pitchshifter.h ****             mod_freq_ = ((ratio - 1.0f) * sr_) / del_size_;
 166:../../libs/DaisySP/Source/Effects/pitchshifter.h ****             if(mod_freq_ < 0.0f)
 167:../../libs/DaisySP/Source/Effects/pitchshifter.h ****             {
 168:../../libs/DaisySP/Source/Effects/pitchshifter.h ****                 mod_freq_ = 0.0f;
 169:../../libs/DaisySP/Source/Effects/pitchshifter.h ****             }
 170:../../libs/DaisySP/Source/Effects/pitchshifter.h ****             phs_[0].SetFreq(mod_freq_);
 171:../../libs/DaisySP/Source/Effects/pitchshifter.h ****             phs_[1].SetFreq(mod_freq_);
 172:../../libs/DaisySP/Source/Effects/pitchshifter.h ****             if(force_recalc_)
 173:../../libs/DaisySP/Source/Effects/pitchshifter.h ****             {
 174:../../libs/DaisySP/Source/Effects/pitchshifter.h ****                 force_recalc_ = false;
 175:../../libs/DaisySP/Source/Effects/pitchshifter.h ****             }
 176:../../libs/DaisySP/Source/Effects/pitchshifter.h ****         }
 177:../../libs/DaisySP/Source/Effects/pitchshifter.h ****     }
 178:../../libs/DaisySP/Source/Effects/pitchshifter.h **** 
 179:../../libs/DaisySP/Source/Effects/pitchshifter.h ****     /** sets delay size changing the timbre of the pitchshifting 
 180:../../libs/DaisySP/Source/Effects/pitchshifter.h ****     */
 181:../../libs/DaisySP/Source/Effects/pitchshifter.h ****     void SetDelSize(uint32_t size)
 182:../../libs/DaisySP/Source/Effects/pitchshifter.h ****     {
 183:../../libs/DaisySP/Source/Effects/pitchshifter.h ****         del_size_     = size < SHIFT_BUFFER_SIZE ? size : SHIFT_BUFFER_SIZE;
 184:../../libs/DaisySP/Source/Effects/pitchshifter.h ****         force_recalc_ = true;
 185:../../libs/DaisySP/Source/Effects/pitchshifter.h ****         SetTransposition(transpose_);
 186:../../libs/DaisySP/Source/Effects/pitchshifter.h ****     }
 187:../../libs/DaisySP/Source/Effects/pitchshifter.h **** 
 188:../../libs/DaisySP/Source/Effects/pitchshifter.h ****     /** sets an amount of internal random modulation, kind of sounds like tape-flutter
 189:../../libs/DaisySP/Source/Effects/pitchshifter.h ****     */
 190:../../libs/DaisySP/Source/Effects/pitchshifter.h ****     inline void SetFun(float f) { fun_ = f; }
ARM GAS  C:\Users\skipi\AppData\Local\Temp\ccgtPcFN.s 			page 30


 191:../../libs/DaisySP/Source/Effects/pitchshifter.h **** 
 192:../../libs/DaisySP/Source/Effects/pitchshifter.h ****   private:
 193:../../libs/DaisySP/Source/Effects/pitchshifter.h ****     inline void SetSemitones()
 1055              		.loc 1 193 17 view .LVU299
 1056              	.LBB372:
 194:../../libs/DaisySP/Source/Effects/pitchshifter.h ****     {
 195:../../libs/DaisySP/Source/Effects/pitchshifter.h ****         for(size_t i = 0; i < 12; i++)
 1057              		.loc 1 195 29 view .LVU300
 1058              	.L20:
 196:../../libs/DaisySP/Source/Effects/pitchshifter.h ****         {
 197:../../libs/DaisySP/Source/Effects/pitchshifter.h ****             semitone_ratios_[i] = powf(2.0f, (float)i / 12);
 1059              		.loc 1 197 13 view .LVU301
 1060              		.loc 1 197 46 is_stmt 0 view .LVU302
 1061 0034 07EE904A 		vmov	s15, r4	@ int
 195:../../libs/DaisySP/Source/Effects/pitchshifter.h ****         {
 1062              		.loc 1 195 9 view .LVU303
 1063 0038 0134     		adds	r4, r4, #1
 1064              	.LVL39:
 1065              		.loc 1 197 39 view .LVU304
 1066 003a B0EE000A 		vmov.f32	s0, #2.0e+0
 1067              		.loc 1 197 46 view .LVU305
 1068 003e F8EEE70A 		vcvt.f32.s32	s1, s15
 1069              		.loc 1 197 39 view .LVU306
 1070 0042 F2EE087A 		vmov.f32	s15, #1.2e+1
 1071              	.LVL40:
 1072              		.loc 1 197 39 view .LVU307
 1073 0046 C0EEA70A 		vdiv.f32	s1, s1, s15
 1074 004a FFF7FEFF 		bl	powf
 1075              	.LVL41:
 195:../../libs/DaisySP/Source/Effects/pitchshifter.h ****         {
 1076              		.loc 1 195 29 view .LVU308
 1077 004e 0C2C     		cmp	r4, #12
 1078              		.loc 1 197 33 view .LVU309
 1079 0050 A6EC010A 		vstmia.32	r6!, {s0}
 195:../../libs/DaisySP/Source/Effects/pitchshifter.h ****         {
 1080              		.loc 1 195 9 is_stmt 1 view .LVU310
 1081              	.LVL42:
 195:../../libs/DaisySP/Source/Effects/pitchshifter.h ****         {
 1082              		.loc 1 195 29 view .LVU311
 1083 0054 EED1     		bne	.L20
 1084              	.LVL43:
 195:../../libs/DaisySP/Source/Effects/pitchshifter.h ****         {
 1085              		.loc 1 195 29 is_stmt 0 view .LVU312
 1086              	.LBE372:
 1087              	.LBE371:
 1088              	.LBB373:
  77:../../libs/DaisySP/Source/Effects/pitchshifter.h ****         {
 1089              		.loc 1 77 30 is_stmt 1 view .LVU313
  79:../../libs/DaisySP/Source/Effects/pitchshifter.h ****             d_[i].Init();
 1090              		.loc 1 79 13 view .LVU314
 1091              	.LBB374:
 1092              	.LBB375:
 1093              	.LBB376:
 1094              	.LBB377:
  42:../../libs/DaisySP/Source/Utility/delayline.h ****         }
 1095              		.loc 2 42 22 is_stmt 0 view .LVU315
 1096 0056 0021     		movs	r1, #0
ARM GAS  C:\Users\skipi\AppData\Local\Temp\ccgtPcFN.s 			page 31


 1097              	.LBE377:
 1098              	.LBE376:
 1099              	.LBE375:
 1100              	.LBE374:
  81:../../libs/DaisySP/Source/Effects/pitchshifter.h ****         }
 1101              		.loc 1 81 25 view .LVU316
 1102 0058 DFF8CC81 		ldr	r8, .L32+52
  79:../../libs/DaisySP/Source/Effects/pitchshifter.h ****             d_[i].Init();
 1103              		.loc 1 79 22 view .LVU317
 1104 005c 0024     		movs	r4, #0
 1105              	.LBB402:
 1106              	.LBB393:
 1107              	.LBB384:
  45:../../libs/DaisySP/Source/Utility/delayline.h ****     }
 1108              		.loc 2 45 20 view .LVU318
 1109 005e 4FF00109 		mov	r9, #1
  44:../../libs/DaisySP/Source/Utility/delayline.h ****         delay_     = 1;
 1110              		.loc 2 44 20 view .LVU319
 1111 0062 0E46     		mov	r6, r1
 1112              	.LBE384:
 1113              	.LBE393:
 1114              	.LBE402:
  81:../../libs/DaisySP/Source/Effects/pitchshifter.h ****         }
 1115              		.loc 1 81 25 view .LVU320
 1116 0064 B844     		add	r8, r8, r7
 1117              	.LBB403:
 1118              	.LBB394:
 1119              	.LBB385:
 1120              	.LBB378:
  42:../../libs/DaisySP/Source/Utility/delayline.h ****         }
 1121              		.loc 2 42 22 view .LVU321
 1122 0066 4FF48032 		mov	r2, #65536
 1123              	.LBE378:
 1124              	.LBE385:
 1125              	.LBE394:
 1126              	.LBE403:
  79:../../libs/DaisySP/Source/Effects/pitchshifter.h ****             d_[i].Init();
 1127              		.loc 1 79 22 view .LVU322
 1128 006a EC67     		str	r4, [r5, #124]	@ float
  80:../../libs/DaisySP/Source/Effects/pitchshifter.h ****             phs_[i].Init(sr, 50, i == 0 ? 0 : PI_F);
 1129              		.loc 1 80 13 is_stmt 1 view .LVU323
 1130              	.LVL44:
 1131              	.LBB404:
 1132              	.LBI374:
  35:../../libs/DaisySP/Source/Utility/delayline.h ****     /** clears buffer, sets write ptr to 0, and delay to 1 sample.
 1133              		.loc 2 35 10 view .LVU324
 1134              	.LBB395:
 1135              	.LBI375:
  38:../../libs/DaisySP/Source/Utility/delayline.h ****     {
 1136              		.loc 2 38 10 view .LVU325
 1137              	.LBB386:
 1138              	.LBB379:
  40:../../libs/DaisySP/Source/Utility/delayline.h ****         {
 1139              		.loc 2 40 29 view .LVU326
  42:../../libs/DaisySP/Source/Utility/delayline.h ****         }
 1140              		.loc 2 42 22 is_stmt 0 view .LVU327
 1141 006c 07F13800 		add	r0, r7, #56
ARM GAS  C:\Users\skipi\AppData\Local\Temp\ccgtPcFN.s 			page 32


 1142 0070 FFF7FEFF 		bl	memset
 1143              	.LVL45:
  42:../../libs/DaisySP/Source/Utility/delayline.h ****         }
 1144              		.loc 2 42 22 view .LVU328
 1145              	.LBE379:
 1146              	.LBE386:
 1147              	.LBE395:
 1148              	.LBE404:
 1149              	.LBB405:
 1150              	.LBB406:
 1151              		.file 6 "../../libs/DaisySP/Source/Control/phasor.h"
   1:../../libs/DaisySP/Source/Control/phasor.h **** /*
   2:../../libs/DaisySP/Source/Control/phasor.h **** Copyright (c) 2020 Electrosmith, Corp
   3:../../libs/DaisySP/Source/Control/phasor.h **** 
   4:../../libs/DaisySP/Source/Control/phasor.h **** Use of this source code is governed by an MIT-style
   5:../../libs/DaisySP/Source/Control/phasor.h **** license that can be found in the LICENSE file or at
   6:../../libs/DaisySP/Source/Control/phasor.h **** https://opensource.org/licenses/MIT.
   7:../../libs/DaisySP/Source/Control/phasor.h **** */
   8:../../libs/DaisySP/Source/Control/phasor.h **** 
   9:../../libs/DaisySP/Source/Control/phasor.h **** #pragma once
  10:../../libs/DaisySP/Source/Control/phasor.h **** #ifndef DSY_PHASOR_H
  11:../../libs/DaisySP/Source/Control/phasor.h **** #define DSY_PHASOR_H
  12:../../libs/DaisySP/Source/Control/phasor.h **** #ifdef __cplusplus
  13:../../libs/DaisySP/Source/Control/phasor.h **** 
  14:../../libs/DaisySP/Source/Control/phasor.h **** namespace daisysp
  15:../../libs/DaisySP/Source/Control/phasor.h **** {
  16:../../libs/DaisySP/Source/Control/phasor.h **** /** Generates a normalized signal moving from 0-1 at the specified frequency.
  17:../../libs/DaisySP/Source/Control/phasor.h **** 
  18:../../libs/DaisySP/Source/Control/phasor.h **** \todo Selecting which channels should be initialized/included in the sequence conversion.
  19:../../libs/DaisySP/Source/Control/phasor.h **** \todo Setup a similar start function for an external mux, but that seems outside the scope of this 
  20:../../libs/DaisySP/Source/Control/phasor.h **** 
  21:../../libs/DaisySP/Source/Control/phasor.h **** */
  22:../../libs/DaisySP/Source/Control/phasor.h **** class Phasor
  23:../../libs/DaisySP/Source/Control/phasor.h **** {
  24:../../libs/DaisySP/Source/Control/phasor.h ****   public:
  25:../../libs/DaisySP/Source/Control/phasor.h ****     Phasor() {}
  26:../../libs/DaisySP/Source/Control/phasor.h ****     ~Phasor() {}
  27:../../libs/DaisySP/Source/Control/phasor.h ****     /** Initializes the Phasor module
  28:../../libs/DaisySP/Source/Control/phasor.h ****     sample rate, and freq are in Hz
  29:../../libs/DaisySP/Source/Control/phasor.h ****     initial phase is in radians
  30:../../libs/DaisySP/Source/Control/phasor.h ****     Additional Init functions have defaults when arg is not specified:
  31:../../libs/DaisySP/Source/Control/phasor.h ****     - phs = 0.0f
  32:../../libs/DaisySP/Source/Control/phasor.h ****     - freq = 1.0f
  33:../../libs/DaisySP/Source/Control/phasor.h ****     */
  34:../../libs/DaisySP/Source/Control/phasor.h ****     inline void Init(float sample_rate, float freq, float initial_phase)
  35:../../libs/DaisySP/Source/Control/phasor.h ****     {
  36:../../libs/DaisySP/Source/Control/phasor.h ****         sample_rate_ = sample_rate;
  37:../../libs/DaisySP/Source/Control/phasor.h ****         phs_         = initial_phase;
  38:../../libs/DaisySP/Source/Control/phasor.h ****         SetFreq(freq);
 1152              		.loc 6 38 16 view .LVU329
 1153 0074 9FED610A 		vldr.32	s0, .L32+8
 1154 0078 4046     		mov	r0, r8
 1155              	.LBE406:
 1156              	.LBE405:
 1157              	.LBB410:
 1158              	.LBB396:
 1159              	.LBB387:
ARM GAS  C:\Users\skipi\AppData\Local\Temp\ccgtPcFN.s 			page 33


  45:../../libs/DaisySP/Source/Utility/delayline.h ****     }
 1160              		.loc 2 45 20 view .LVU330
 1161 007a C7E90C69 		strd	r6, r9, [r7, #48]
 1162              	.LVL46:
  45:../../libs/DaisySP/Source/Utility/delayline.h ****     }
 1163              		.loc 2 45 20 view .LVU331
 1164              	.LBE387:
 1165              	.LBE396:
 1166              	.LBE410:
  81:../../libs/DaisySP/Source/Effects/pitchshifter.h ****         }
 1167              		.loc 1 81 13 is_stmt 1 view .LVU332
 1168              	.LBB411:
 1169              	.LBI405:
  34:../../libs/DaisySP/Source/Control/phasor.h ****     {
 1170              		.loc 6 34 17 view .LVU333
 1171              	.LBB407:
  36:../../libs/DaisySP/Source/Control/phasor.h ****         phs_         = initial_phase;
 1172              		.loc 6 36 9 view .LVU334
  37:../../libs/DaisySP/Source/Control/phasor.h ****         SetFreq(freq);
 1173              		.loc 6 37 22 is_stmt 0 view .LVU335
 1174 007e AC66     		str	r4, [r5, #104]	@ float
  36:../../libs/DaisySP/Source/Control/phasor.h ****         phs_         = initial_phase;
 1175              		.loc 6 36 22 view .LVU336
 1176 0080 85ED188A 		vstr.32	s16, [r5, #96]
  37:../../libs/DaisySP/Source/Control/phasor.h ****         SetFreq(freq);
 1177              		.loc 6 37 9 is_stmt 1 view .LVU337
 1178              		.loc 6 38 9 view .LVU338
 1179              		.loc 6 38 16 is_stmt 0 view .LVU339
 1180 0084 FFF7FEFF 		bl	_ZN7daisysp6Phasor7SetFreqEf
 1181              	.LVL47:
 1182              		.loc 6 38 16 view .LVU340
 1183              	.LBE407:
 1184              	.LBE411:
  77:../../libs/DaisySP/Source/Effects/pitchshifter.h ****         {
 1185              		.loc 1 77 9 is_stmt 1 view .LVU341
  77:../../libs/DaisySP/Source/Effects/pitchshifter.h ****         {
 1186              		.loc 1 77 30 view .LVU342
  79:../../libs/DaisySP/Source/Effects/pitchshifter.h ****             d_[i].Init();
 1187              		.loc 1 79 13 view .LVU343
 1188              	.LBB412:
 1189              	.LBB397:
 1190              	.LBB388:
 1191              	.LBB380:
  42:../../libs/DaisySP/Source/Utility/delayline.h ****         }
 1192              		.loc 2 42 22 is_stmt 0 view .LVU344
 1193 0088 5D48     		ldr	r0, .L32+12
 1194              	.LBE380:
 1195              	.LBE388:
 1196              	.LBE397:
 1197              	.LBE412:
  81:../../libs/DaisySP/Source/Effects/pitchshifter.h ****         }
 1198              		.loc 1 81 25 view .LVU345
 1199 008a 07F12C03 		add	r3, r7, #44
  79:../../libs/DaisySP/Source/Effects/pitchshifter.h ****             d_[i].Init();
 1200              		.loc 1 79 22 view .LVU346
 1201 008e C5F88040 		str	r4, [r5, #128]	@ float
  80:../../libs/DaisySP/Source/Effects/pitchshifter.h ****             phs_[i].Init(sr, 50, i == 0 ? 0 : PI_F);
ARM GAS  C:\Users\skipi\AppData\Local\Temp\ccgtPcFN.s 			page 34


 1202              		.loc 1 80 13 is_stmt 1 view .LVU347
 1203              	.LVL48:
 1204              	.LBB413:
  35:../../libs/DaisySP/Source/Utility/delayline.h ****     /** clears buffer, sets write ptr to 0, and delay to 1 sample.
 1205              		.loc 2 35 10 view .LVU348
 1206              	.LBB398:
  38:../../libs/DaisySP/Source/Utility/delayline.h ****     {
 1207              		.loc 2 38 10 view .LVU349
 1208              	.LBB389:
 1209              	.LBB381:
  40:../../libs/DaisySP/Source/Utility/delayline.h ****         {
 1210              		.loc 2 40 29 view .LVU350
 1211              	.LBE381:
 1212              	.LBE389:
 1213              	.LBE398:
 1214              	.LBE413:
  81:../../libs/DaisySP/Source/Effects/pitchshifter.h ****         }
 1215              		.loc 1 81 25 is_stmt 0 view .LVU351
 1216 0092 5C4C     		ldr	r4, .L32+16
 1217              	.LBB414:
 1218              	.LBB399:
 1219              	.LBB390:
 1220              	.LBB382:
  42:../../libs/DaisySP/Source/Utility/delayline.h ****         }
 1221              		.loc 2 42 22 view .LVU352
 1222 0094 4FF48032 		mov	r2, #65536
 1223 0098 3146     		mov	r1, r6
 1224 009a 3844     		add	r0, r0, r7
 1225              	.LBE382:
 1226              	.LBE390:
 1227              	.LBE399:
 1228              	.LBE414:
  81:../../libs/DaisySP/Source/Effects/pitchshifter.h ****         }
 1229              		.loc 1 81 25 view .LVU353
 1230 009c 1C44     		add	r4, r4, r3
 1231              	.LBB415:
 1232              	.LBB400:
 1233              	.LBB391:
 1234              	.LBB383:
  42:../../libs/DaisySP/Source/Utility/delayline.h ****         }
 1235              		.loc 2 42 22 view .LVU354
 1236 009e FFF7FEFF 		bl	memset
 1237              	.LVL49:
  42:../../libs/DaisySP/Source/Utility/delayline.h ****         }
 1238              		.loc 2 42 22 view .LVU355
 1239              	.LBE383:
  44:../../libs/DaisySP/Source/Utility/delayline.h ****         delay_     = 1;
 1240              		.loc 2 44 20 view .LVU356
 1241 00a2 07F58033 		add	r3, r7, #65536
 1242              	.LBE391:
 1243              	.LBE400:
 1244              	.LBE415:
 1245              	.LBB416:
 1246              	.LBB408:
 1247              		.loc 6 38 16 view .LVU357
 1248 00a6 9FED550A 		vldr.32	s0, .L32+8
 1249 00aa 2046     		mov	r0, r4
ARM GAS  C:\Users\skipi\AppData\Local\Temp\ccgtPcFN.s 			page 35


 1250              	.LBE408:
 1251              	.LBE416:
 1252              	.LBB417:
 1253              	.LBB401:
 1254              	.LBB392:
  45:../../libs/DaisySP/Source/Utility/delayline.h ****     }
 1255              		.loc 2 45 20 view .LVU358
 1256 00ac C3E90F69 		strd	r6, r9, [r3, #60]
 1257              	.LVL50:
  45:../../libs/DaisySP/Source/Utility/delayline.h ****     }
 1258              		.loc 2 45 20 view .LVU359
 1259              	.LBE392:
 1260              	.LBE401:
 1261              	.LBE417:
  81:../../libs/DaisySP/Source/Effects/pitchshifter.h ****         }
 1262              		.loc 1 81 13 is_stmt 1 view .LVU360
 1263              	.LBB418:
  34:../../libs/DaisySP/Source/Control/phasor.h ****     {
 1264              		.loc 6 34 17 view .LVU361
 1265              	.LBB409:
  36:../../libs/DaisySP/Source/Control/phasor.h ****         phs_         = initial_phase;
 1266              		.loc 6 36 9 view .LVU362
  37:../../libs/DaisySP/Source/Control/phasor.h ****         SetFreq(freq);
 1267              		.loc 6 37 22 is_stmt 0 view .LVU363
 1268 00b0 554B     		ldr	r3, .L32+20
  36:../../libs/DaisySP/Source/Control/phasor.h ****         phs_         = initial_phase;
 1269              		.loc 6 36 22 view .LVU364
 1270 00b2 85ED1C8A 		vstr.32	s16, [r5, #112]
  37:../../libs/DaisySP/Source/Control/phasor.h ****         SetFreq(freq);
 1271              		.loc 6 37 9 is_stmt 1 view .LVU365
  37:../../libs/DaisySP/Source/Control/phasor.h ****         SetFreq(freq);
 1272              		.loc 6 37 22 is_stmt 0 view .LVU366
 1273 00b6 AB67     		str	r3, [r5, #120]	@ float
 1274              		.loc 6 38 9 is_stmt 1 view .LVU367
 1275              		.loc 6 38 16 is_stmt 0 view .LVU368
 1276 00b8 FFF7FEFF 		bl	_ZN7daisysp6Phasor7SetFreqEf
 1277              	.LVL51:
 1278              		.loc 6 38 16 view .LVU369
 1279              	.LBE409:
 1280              	.LBE418:
  77:../../libs/DaisySP/Source/Effects/pitchshifter.h ****         {
 1281              		.loc 1 77 9 is_stmt 1 view .LVU370
  77:../../libs/DaisySP/Source/Effects/pitchshifter.h ****         {
 1282              		.loc 1 77 30 view .LVU371
 1283              	.LBE373:
  83:../../libs/DaisySP/Source/Effects/pitchshifter.h ****         del_size_ = SHIFT_BUFFER_SIZE;
 1284              		.loc 1 83 9 view .LVU372
 1285 00bc D5ED237A 		vldr.32	s15, [r5, #140]
  84:../../libs/DaisySP/Source/Effects/pitchshifter.h ****         SetDelSize(del_size_);
 1286              		.loc 1 84 19 is_stmt 0 view .LVU373
 1287 00c0 4FF48043 		mov	r3, #16384
 1288              	.LBB419:
 1289              	.LBB420:
 1290              	.LBB421:
 1291              	.LBB422:
 155:../../libs/DaisySP/Source/Effects/pitchshifter.h ****             ratio *= (uint8_t)(fabsf(transpose) / 12) + 1;
 1292              		.loc 1 155 47 view .LVU374
ARM GAS  C:\Users\skipi\AppData\Local\Temp\ccgtPcFN.s 			page 36


 1293 00c4 514A     		ldr	r2, .L32+24
 154:../../libs/DaisySP/Source/Effects/pitchshifter.h ****             ratio      = semitone_ratios_[idx % 12];
 1294              		.loc 1 154 40 view .LVU375
 1295 00c6 B0EEE77A 		vabs.f32	s14, s15
 155:../../libs/DaisySP/Source/Effects/pitchshifter.h ****             ratio *= (uint8_t)(fabsf(transpose) / 12) + 1;
 1296              		.loc 1 155 24 view .LVU376
 1297 00ca 48F22201 		movw	r1, #32802
 1298              	.LBE422:
 1299              	.LBE421:
 1300              	.LBE420:
 1301              	.LBE419:
  84:../../libs/DaisySP/Source/Effects/pitchshifter.h ****         SetDelSize(del_size_);
 1302              		.loc 1 84 19 view .LVU377
 1303 00ce EB64     		str	r3, [r5, #76]
 1304              	.LBB434:
 1305              	.LBB431:
 1306              	.LBB427:
 1307              	.LBB423:
 157:../../libs/DaisySP/Source/Effects/pitchshifter.h ****             {
 1308              		.loc 1 157 13 view .LVU378
 1309 00d0 F5EEC07A 		vcmpe.f32	s15, #0
 1310              	.LBE423:
 1311              	.LBE427:
 1312              	.LBE431:
 1313              	.LBE434:
  83:../../libs/DaisySP/Source/Effects/pitchshifter.h ****         del_size_ = SHIFT_BUFFER_SIZE;
 1314              		.loc 1 83 19 view .LVU379
 1315 00d4 85F85890 		strb	r9, [r5, #88]
  84:../../libs/DaisySP/Source/Effects/pitchshifter.h ****         SetDelSize(del_size_);
 1316              		.loc 1 84 9 is_stmt 1 view .LVU380
  85:../../libs/DaisySP/Source/Effects/pitchshifter.h ****         fun_ = 0.0f;
 1317              		.loc 1 85 9 view .LVU381
 1318              	.LVL52:
 1319              	.LBB435:
 1320              	.LBI419:
 181:../../libs/DaisySP/Source/Effects/pitchshifter.h ****     {
 1321              		.loc 1 181 10 view .LVU382
 1322              	.LBB432:
 183:../../libs/DaisySP/Source/Effects/pitchshifter.h ****         force_recalc_ = true;
 1323              		.loc 1 183 9 view .LVU383
 184:../../libs/DaisySP/Source/Effects/pitchshifter.h ****         SetTransposition(transpose_);
 1324              		.loc 1 184 9 view .LVU384
 185:../../libs/DaisySP/Source/Effects/pitchshifter.h ****     }
 1325              		.loc 1 185 9 view .LVU385
 1326              	.LBB428:
 1327              	.LBI421:
 147:../../libs/DaisySP/Source/Effects/pitchshifter.h ****     {
 1328              		.loc 1 147 10 view .LVU386
 1329              	.LBB424:
 149:../../libs/DaisySP/Source/Effects/pitchshifter.h ****         uint8_t idx;
 1330              		.loc 1 149 9 view .LVU387
 150:../../libs/DaisySP/Source/Effects/pitchshifter.h ****         if(transpose_ != transpose || force_recalc_)
 1331              		.loc 1 150 9 view .LVU388
 151:../../libs/DaisySP/Source/Effects/pitchshifter.h ****         {
 1332              		.loc 1 151 9 view .LVU389
 153:../../libs/DaisySP/Source/Effects/pitchshifter.h ****             idx        = (uint8_t)fabsf(transpose);
 1333              		.loc 1 153 13 view .LVU390
ARM GAS  C:\Users\skipi\AppData\Local\Temp\ccgtPcFN.s 			page 37


 154:../../libs/DaisySP/Source/Effects/pitchshifter.h ****             ratio      = semitone_ratios_[idx % 12];
 1334              		.loc 1 154 13 view .LVU391
 155:../../libs/DaisySP/Source/Effects/pitchshifter.h ****             ratio *= (uint8_t)(fabsf(transpose) / 12) + 1;
 1335              		.loc 1 155 13 view .LVU392
 154:../../libs/DaisySP/Source/Effects/pitchshifter.h ****             ratio      = semitone_ratios_[idx % 12];
 1336              		.loc 1 154 24 is_stmt 0 view .LVU393
 1337 00d8 FCEEC76A 		vcvt.u32.f32	s13, s14
 1338              	.LBE424:
 1339              	.LBE428:
 184:../../libs/DaisySP/Source/Effects/pitchshifter.h ****         SetTransposition(transpose_);
 1340              		.loc 1 184 23 view .LVU394
 1341 00dc 85F85090 		strb	r9, [r5, #80]
 1342              	.LBB429:
 1343              	.LBB425:
 157:../../libs/DaisySP/Source/Effects/pitchshifter.h ****             {
 1344              		.loc 1 157 13 view .LVU395
 1345 00e0 F1EE10FA 		vmrs	APSR_nzcv, FPSCR
 154:../../libs/DaisySP/Source/Effects/pitchshifter.h ****             ratio      = semitone_ratios_[idx % 12];
 1346              		.loc 1 154 24 view .LVU396
 1347 00e4 CDED016A 		vstr.32	s13, [sp, #4]	@ int
 155:../../libs/DaisySP/Source/Effects/pitchshifter.h ****             ratio *= (uint8_t)(fabsf(transpose) / 12) + 1;
 1348              		.loc 1 155 47 view .LVU397
 1349 00e8 9DF80430 		ldrb	r3, [sp, #4]	@ zero_extendqisi2
 1350 00ec A2FB0302 		umull	r0, r2, r2, r3
 1351 00f0 4FEAD202 		lsr	r2, r2, #3
 1352 00f4 02EB4202 		add	r2, r2, r2, lsl #1
 1353 00f8 A3EB8203 		sub	r3, r3, r2, lsl #2
 155:../../libs/DaisySP/Source/Effects/pitchshifter.h ****             ratio *= (uint8_t)(fabsf(transpose) / 12) + 1;
 1354              		.loc 1 155 24 view .LVU398
 1355 00fc 51FA83F3 		uxtab	r3, r1, r3
 1356 0100 07EB8303 		add	r3, r7, r3, lsl #2
 1357 0104 D3ED0B6A 		vldr.32	s13, [r3, #44]
 1358              	.LVL53:
 156:../../libs/DaisySP/Source/Effects/pitchshifter.h ****             if(transpose > 0.0f)
 1359              		.loc 1 156 13 is_stmt 1 view .LVU399
 157:../../libs/DaisySP/Source/Effects/pitchshifter.h ****             {
 1360              		.loc 1 157 13 view .LVU400
 1361 0108 01DC     		bgt	.L21
 163:../../libs/DaisySP/Source/Effects/pitchshifter.h ****             }
 1362              		.loc 1 163 17 view .LVU401
 163:../../libs/DaisySP/Source/Effects/pitchshifter.h ****             }
 1363              		.loc 1 163 27 is_stmt 0 view .LVU402
 1364 010a 85F85860 		strb	r6, [r5, #88]
 1365              	.L21:
 165:../../libs/DaisySP/Source/Effects/pitchshifter.h ****             if(mod_freq_ < 0.0f)
 1366              		.loc 1 165 13 is_stmt 1 view .LVU403
 156:../../libs/DaisySP/Source/Effects/pitchshifter.h ****             if(transpose > 0.0f)
 1367              		.loc 1 156 49 is_stmt 0 view .LVU404
 1368 010e B2EE085A 		vmov.f32	s10, #1.2e+1
 165:../../libs/DaisySP/Source/Effects/pitchshifter.h ****             if(mod_freq_ < 0.0f)
 1369              		.loc 1 165 41 view .LVU405
 1370 0112 D5ED155A 		vldr.32	s11, [r5, #84]
 165:../../libs/DaisySP/Source/Effects/pitchshifter.h ****             if(mod_freq_ < 0.0f)
 1371              		.loc 1 165 33 view .LVU406
 1372 0116 BFEE000A 		vmov.f32	s0, #-1.0e+0
 165:../../libs/DaisySP/Source/Effects/pitchshifter.h ****             if(mod_freq_ < 0.0f)
 1373              		.loc 1 165 48 view .LVU407
ARM GAS  C:\Users\skipi\AppData\Local\Temp\ccgtPcFN.s 			page 38


 1374 011a 9FED3D6A 		vldr.32	s12, .L32+28
 166:../../libs/DaisySP/Source/Effects/pitchshifter.h ****             {
 1375              		.loc 1 166 13 view .LVU408
 1376 011e DFED3D4A 		vldr.32	s9, .L32+32
 156:../../libs/DaisySP/Source/Effects/pitchshifter.h ****             if(transpose > 0.0f)
 1377              		.loc 1 156 49 view .LVU409
 1378 0122 C7EE057A 		vdiv.f32	s15, s14, s10
 156:../../libs/DaisySP/Source/Effects/pitchshifter.h ****             if(transpose > 0.0f)
 1379              		.loc 1 156 22 view .LVU410
 1380 0126 FCEEE77A 		vcvt.u32.f32	s15, s15
 1381 012a CDED017A 		vstr.32	s15, [sp, #4]	@ int
 1382 012e 9DF80430 		ldrb	r3, [sp, #4]	@ zero_extendqisi2
 156:../../libs/DaisySP/Source/Effects/pitchshifter.h ****             if(transpose > 0.0f)
 1383              		.loc 1 156 55 view .LVU411
 1384 0132 0133     		adds	r3, r3, #1
 156:../../libs/DaisySP/Source/Effects/pitchshifter.h ****             if(transpose > 0.0f)
 1385              		.loc 1 156 19 view .LVU412
 1386 0134 07EE903A 		vmov	s15, r3	@ int
 1387 0138 F8EEE77A 		vcvt.f32.s32	s15, s15
 165:../../libs/DaisySP/Source/Effects/pitchshifter.h ****             if(mod_freq_ < 0.0f)
 1388              		.loc 1 165 33 view .LVU413
 1389 013c A6EEA70A 		vfma.f32	s0, s13, s15
 165:../../libs/DaisySP/Source/Effects/pitchshifter.h ****             if(mod_freq_ < 0.0f)
 1390              		.loc 1 165 41 view .LVU414
 1391 0140 20EE250A 		vmul.f32	s0, s0, s11
 165:../../libs/DaisySP/Source/Effects/pitchshifter.h ****             if(mod_freq_ < 0.0f)
 1392              		.loc 1 165 48 view .LVU415
 1393 0144 20EE060A 		vmul.f32	s0, s0, s12
 166:../../libs/DaisySP/Source/Effects/pitchshifter.h ****             {
 1394              		.loc 1 166 13 is_stmt 1 view .LVU416
 1395 0148 B4EEE40A 		vcmpe.f32	s0, s9
 1396 014c F1EE10FA 		vmrs	APSR_nzcv, FPSCR
 1397 0150 4BD4     		bmi	.L24
 165:../../libs/DaisySP/Source/Effects/pitchshifter.h ****             if(mod_freq_ < 0.0f)
 1398              		.loc 1 165 23 is_stmt 0 view .LVU417
 1399 0152 85ED120A 		vstr.32	s0, [r5, #72]
 1400              	.L25:
 170:../../libs/DaisySP/Source/Effects/pitchshifter.h ****             phs_[1].SetFreq(mod_freq_);
 1401              		.loc 1 170 13 is_stmt 1 view .LVU418
 170:../../libs/DaisySP/Source/Effects/pitchshifter.h ****             phs_[1].SetFreq(mod_freq_);
 1402              		.loc 1 170 28 is_stmt 0 view .LVU419
 1403 0156 4046     		mov	r0, r8
 1404 0158 FFF7FEFF 		bl	_ZN7daisysp6Phasor7SetFreqEf
 1405              	.LVL54:
 171:../../libs/DaisySP/Source/Effects/pitchshifter.h ****             if(force_recalc_)
 1406              		.loc 1 171 13 is_stmt 1 view .LVU420
 171:../../libs/DaisySP/Source/Effects/pitchshifter.h ****             if(force_recalc_)
 1407              		.loc 1 171 28 is_stmt 0 view .LVU421
 1408 015c 95ED120A 		vldr.32	s0, [r5, #72]
 1409 0160 2046     		mov	r0, r4
 1410 0162 FFF7FEFF 		bl	_ZN7daisysp6Phasor7SetFreqEf
 1411              	.LVL55:
 172:../../libs/DaisySP/Source/Effects/pitchshifter.h ****             {
 1412              		.loc 1 172 13 is_stmt 1 view .LVU422
 1413 0166 95F85030 		ldrb	r3, [r5, #80]	@ zero_extendqisi2
 1414 016a 13B1     		cbz	r3, .L26
 174:../../libs/DaisySP/Source/Effects/pitchshifter.h ****             }
ARM GAS  C:\Users\skipi\AppData\Local\Temp\ccgtPcFN.s 			page 39


 1415              		.loc 1 174 17 view .LVU423
 174:../../libs/DaisySP/Source/Effects/pitchshifter.h ****             }
 1416              		.loc 1 174 31 is_stmt 0 view .LVU424
 1417 016c 0023     		movs	r3, #0
 1418 016e 85F85030 		strb	r3, [r5, #80]
 1419              	.L26:
 1420              	.LVL56:
 174:../../libs/DaisySP/Source/Effects/pitchshifter.h ****             }
 1421              		.loc 1 174 31 view .LVU425
 1422              	.LBE425:
 1423              	.LBE429:
 1424              	.LBE432:
 1425              	.LBE435:
  86:../../libs/DaisySP/Source/Effects/pitchshifter.h ****     }
 1426              		.loc 1 86 9 is_stmt 1 view .LVU426
 1427              	.LBE438:
 1428              	.LBE453:
 1429              	.LBB454:
 1430              	.LBB455:
  25:../../libs/DaisySP/Source/Synthesis/oscillator.h ****     /** Choices for output waveforms, POLYBLEP are appropriately labeled. Others are naive forms.
  26:../../libs/DaisySP/Source/Synthesis/oscillator.h ****     */
  27:../../libs/DaisySP/Source/Synthesis/oscillator.h ****     enum
  28:../../libs/DaisySP/Source/Synthesis/oscillator.h ****     {
  29:../../libs/DaisySP/Source/Synthesis/oscillator.h ****         WAVE_SIN,
  30:../../libs/DaisySP/Source/Synthesis/oscillator.h ****         WAVE_TRI,
  31:../../libs/DaisySP/Source/Synthesis/oscillator.h ****         WAVE_SAW,
  32:../../libs/DaisySP/Source/Synthesis/oscillator.h ****         WAVE_RAMP,
  33:../../libs/DaisySP/Source/Synthesis/oscillator.h ****         WAVE_SQUARE,
  34:../../libs/DaisySP/Source/Synthesis/oscillator.h ****         WAVE_POLYBLEP_TRI,
  35:../../libs/DaisySP/Source/Synthesis/oscillator.h ****         WAVE_POLYBLEP_SAW,
  36:../../libs/DaisySP/Source/Synthesis/oscillator.h ****         WAVE_POLYBLEP_SQUARE,
  37:../../libs/DaisySP/Source/Synthesis/oscillator.h ****         WAVE_LAST,
  38:../../libs/DaisySP/Source/Synthesis/oscillator.h ****     };
  39:../../libs/DaisySP/Source/Synthesis/oscillator.h **** 
  40:../../libs/DaisySP/Source/Synthesis/oscillator.h **** 
  41:../../libs/DaisySP/Source/Synthesis/oscillator.h ****     /** Initializes the Oscillator
  42:../../libs/DaisySP/Source/Synthesis/oscillator.h **** 
  43:../../libs/DaisySP/Source/Synthesis/oscillator.h ****         \param sample_rate - sample rate of the audio engine being run, and the frequency that the 
  44:../../libs/DaisySP/Source/Synthesis/oscillator.h **** 
  45:../../libs/DaisySP/Source/Synthesis/oscillator.h ****         Defaults:
  46:../../libs/DaisySP/Source/Synthesis/oscillator.h ****         - freq_ = 100 Hz
  47:../../libs/DaisySP/Source/Synthesis/oscillator.h ****         - amp_ = 0.5
  48:../../libs/DaisySP/Source/Synthesis/oscillator.h ****         - waveform_ = sine wave.
  49:../../libs/DaisySP/Source/Synthesis/oscillator.h ****     */
  50:../../libs/DaisySP/Source/Synthesis/oscillator.h ****     void Init(float sample_rate)
  51:../../libs/DaisySP/Source/Synthesis/oscillator.h ****     {
  52:../../libs/DaisySP/Source/Synthesis/oscillator.h ****         sr_        = sample_rate;
  53:../../libs/DaisySP/Source/Synthesis/oscillator.h ****         sr_recip_  = 1.0f / sample_rate;
 1431              		.loc 5 53 27 is_stmt 0 view .LVU427
 1432 0172 B7EE007A 		vmov.f32	s14, #1.0e+0
 1433              	.LBE455:
 1434              	.LBE454:
  29:AnalogDelay.cpp ****     _lfo.Init(sampleRate);       // Inizializza l'LFO
 1435              		.loc 3 29 14 view .LVU428
 1436 0176 284C     		ldr	r4, .L32+36
 1437              	.LBB463:
 1438              	.LBB456:
ARM GAS  C:\Users\skipi\AppData\Local\Temp\ccgtPcFN.s 			page 40


  54:../../libs/DaisySP/Source/Synthesis/oscillator.h ****         freq_      = 100.0f;
  55:../../libs/DaisySP/Source/Synthesis/oscillator.h ****         amp_       = 0.5f;
 1439              		.loc 5 55 20 view .LVU429
 1440 0178 4FF07C52 		mov	r2, #1056964608
 1441              	.LBE456:
 1442              	.LBE463:
 1443              	.LBB464:
 1444              	.LBB439:
  86:../../libs/DaisySP/Source/Effects/pitchshifter.h ****     }
 1445              		.loc 1 86 14 view .LVU430
 1446 017c 0023     		movs	r3, #0
 1447              	.LBE439:
 1448              	.LBE464:
 1449              		.loc 3 29 14 view .LVU431
 1450 017e 3C44     		add	r4, r4, r7
 1451              	.LBB465:
 1452              	.LBB457:
  54:../../libs/DaisySP/Source/Synthesis/oscillator.h ****         freq_      = 100.0f;
 1453              		.loc 5 54 20 view .LVU432
 1454 0180 9FED260A 		vldr.32	s0, .L32+40
  53:../../libs/DaisySP/Source/Synthesis/oscillator.h ****         freq_      = 100.0f;
 1455              		.loc 5 53 27 view .LVU433
 1456 0184 C7EE087A 		vdiv.f32	s15, s14, s16
 1457              		.loc 5 55 20 view .LVU434
 1458 0188 C5F8E820 		str	r2, [r5, #232]	@ float
  56:../../libs/DaisySP/Source/Synthesis/oscillator.h ****         pw_        = 0.5f;
 1459              		.loc 5 56 20 view .LVU435
 1460 018c C5F8F020 		str	r2, [r5, #240]	@ float
  57:../../libs/DaisySP/Source/Synthesis/oscillator.h ****         phase_     = 0.0f;
  58:../../libs/DaisySP/Source/Synthesis/oscillator.h ****         phase_inc_ = CalcPhaseInc(freq_);
 1461              		.loc 5 58 34 view .LVU436
 1462 0190 2046     		mov	r0, r4
 1463              	.LBE457:
 1464              	.LBE465:
 1465              	.LBB466:
 1466              	.LBB440:
  86:../../libs/DaisySP/Source/Effects/pitchshifter.h ****     }
 1467              		.loc 1 86 14 view .LVU437
 1468 0192 C5F89030 		str	r3, [r5, #144]	@ float
 1469              	.LVL57:
  86:../../libs/DaisySP/Source/Effects/pitchshifter.h ****     }
 1470              		.loc 1 86 14 view .LVU438
 1471              	.LBE440:
 1472              	.LBE466:
 1473              		.loc 3 29 5 is_stmt 1 view .LVU439
 1474              	.LBB467:
 1475              	.LBI454:
  50:../../libs/DaisySP/Source/Synthesis/oscillator.h ****     {
 1476              		.loc 5 50 10 view .LVU440
 1477              	.LBB458:
  52:../../libs/DaisySP/Source/Synthesis/oscillator.h ****         sr_recip_  = 1.0f / sample_rate;
 1478              		.loc 5 52 9 view .LVU441
  59:../../libs/DaisySP/Source/Synthesis/oscillator.h ****         waveform_  = WAVE_SIN;
 1479              		.loc 5 59 20 is_stmt 0 view .LVU442
 1480 0196 0026     		movs	r6, #0
  57:../../libs/DaisySP/Source/Synthesis/oscillator.h ****         phase_inc_ = CalcPhaseInc(freq_);
 1481              		.loc 5 57 20 view .LVU443
ARM GAS  C:\Users\skipi\AppData\Local\Temp\ccgtPcFN.s 			page 41


 1482 0198 C5F8FC30 		str	r3, [r5, #252]	@ float
  52:../../libs/DaisySP/Source/Synthesis/oscillator.h ****         sr_recip_  = 1.0f / sample_rate;
 1483              		.loc 5 52 20 view .LVU444
 1484 019c 85ED3D8A 		vstr.32	s16, [r5, #244]
  53:../../libs/DaisySP/Source/Synthesis/oscillator.h ****         freq_      = 100.0f;
 1485              		.loc 5 53 9 is_stmt 1 view .LVU445
  54:../../libs/DaisySP/Source/Synthesis/oscillator.h ****         amp_       = 0.5f;
 1486              		.loc 5 54 20 is_stmt 0 view .LVU446
 1487 01a0 85ED3B0A 		vstr.32	s0, [r5, #236]
  53:../../libs/DaisySP/Source/Synthesis/oscillator.h ****         freq_      = 100.0f;
 1488              		.loc 5 53 20 view .LVU447
 1489 01a4 C5ED3E7A 		vstr.32	s15, [r5, #248]
  54:../../libs/DaisySP/Source/Synthesis/oscillator.h ****         amp_       = 0.5f;
 1490              		.loc 5 54 9 is_stmt 1 view .LVU448
  55:../../libs/DaisySP/Source/Synthesis/oscillator.h ****         pw_        = 0.5f;
 1491              		.loc 5 55 9 view .LVU449
  56:../../libs/DaisySP/Source/Synthesis/oscillator.h ****         phase_     = 0.0f;
 1492              		.loc 5 56 9 view .LVU450
  57:../../libs/DaisySP/Source/Synthesis/oscillator.h ****         phase_inc_ = CalcPhaseInc(freq_);
 1493              		.loc 5 57 9 view .LVU451
  58:../../libs/DaisySP/Source/Synthesis/oscillator.h ****         waveform_  = WAVE_SIN;
 1494              		.loc 5 58 9 view .LVU452
  58:../../libs/DaisySP/Source/Synthesis/oscillator.h ****         waveform_  = WAVE_SIN;
 1495              		.loc 5 58 34 is_stmt 0 view .LVU453
 1496 01a8 FFF7FEFF 		bl	_ZN7daisysp10Oscillator12CalcPhaseIncEf
 1497              	.LVL58:
  58:../../libs/DaisySP/Source/Synthesis/oscillator.h ****         waveform_  = WAVE_SIN;
 1498              		.loc 5 58 34 view .LVU454
 1499              	.LBE458:
 1500              	.LBE467:
 1501              	.LBB468:
 1502              	.LBB469:
  60:../../libs/DaisySP/Source/Synthesis/oscillator.h ****         eoc_       = true;
  61:../../libs/DaisySP/Source/Synthesis/oscillator.h ****         eor_       = true;
  62:../../libs/DaisySP/Source/Synthesis/oscillator.h ****     }
  63:../../libs/DaisySP/Source/Synthesis/oscillator.h **** 
  64:../../libs/DaisySP/Source/Synthesis/oscillator.h **** 
  65:../../libs/DaisySP/Source/Synthesis/oscillator.h ****     /** Changes the frequency of the Oscillator, and recalculates phase increment.
  66:../../libs/DaisySP/Source/Synthesis/oscillator.h ****     */
  67:../../libs/DaisySP/Source/Synthesis/oscillator.h ****     inline void SetFreq(const float f)
  68:../../libs/DaisySP/Source/Synthesis/oscillator.h ****     {
  69:../../libs/DaisySP/Source/Synthesis/oscillator.h ****         freq_      = f;
 1503              		.loc 5 69 20 view .LVU455
 1504 01ac DFED1C7A 		vldr.32	s15, .L32+44
 1505              	.LBE469:
 1506              	.LBE468:
 1507              	.LBB475:
 1508              	.LBB459:
  61:../../libs/DaisySP/Source/Synthesis/oscillator.h ****     }
 1509              		.loc 5 61 20 view .LVU456
 1510 01b0 40F20113 		movw	r3, #257
 1511              	.LBE459:
 1512              	.LBE475:
 1513              	.LBB476:
 1514              	.LBB470:
  70:../../libs/DaisySP/Source/Synthesis/oscillator.h ****         phase_inc_ = CalcPhaseInc(f);
 1515              		.loc 5 70 34 view .LVU457
ARM GAS  C:\Users\skipi\AppData\Local\Temp\ccgtPcFN.s 			page 42


 1516 01b4 2046     		mov	r0, r4
 1517              	.LBE470:
 1518              	.LBE476:
 1519              	.LBB477:
 1520              	.LBB460:
  58:../../libs/DaisySP/Source/Synthesis/oscillator.h ****         waveform_  = WAVE_SIN;
 1521              		.loc 5 58 20 view .LVU458
 1522 01b6 85ED400A 		vstr.32	s0, [r5, #256]
  59:../../libs/DaisySP/Source/Synthesis/oscillator.h ****         eoc_       = true;
 1523              		.loc 5 59 9 is_stmt 1 view .LVU459
 1524              	.LBE460:
 1525              	.LBE477:
 1526              	.LBB478:
 1527              	.LBB471:
 1528              		.loc 5 70 34 is_stmt 0 view .LVU460
 1529 01ba B0EE670A 		vmov.f32	s0, s15
 1530              	.LBE471:
 1531              	.LBE478:
 1532              	.LBB479:
 1533              	.LBB461:
  59:../../libs/DaisySP/Source/Synthesis/oscillator.h ****         eoc_       = true;
 1534              		.loc 5 59 20 view .LVU461
 1535 01be 85F8E460 		strb	r6, [r5, #228]
  60:../../libs/DaisySP/Source/Synthesis/oscillator.h ****         eor_       = true;
 1536              		.loc 5 60 9 is_stmt 1 view .LVU462
  61:../../libs/DaisySP/Source/Synthesis/oscillator.h ****     }
 1537              		.loc 5 61 9 view .LVU463
 1538              	.LBE461:
 1539              	.LBE479:
 1540              	.LBB480:
 1541              	.LBB472:
  69:../../libs/DaisySP/Source/Synthesis/oscillator.h ****         phase_inc_ = CalcPhaseInc(f);
 1542              		.loc 5 69 20 is_stmt 0 view .LVU464
 1543 01c2 C5ED3B7A 		vstr.32	s15, [r5, #236]
 1544              	.LBE472:
 1545              	.LBE480:
 1546              	.LBB481:
 1547              	.LBB462:
  61:../../libs/DaisySP/Source/Synthesis/oscillator.h ****     }
 1548              		.loc 5 61 20 view .LVU465
 1549 01c6 A5F80C31 		strh	r3, [r5, #268]	@ movhi
 1550              	.LVL59:
  61:../../libs/DaisySP/Source/Synthesis/oscillator.h ****     }
 1551              		.loc 5 61 20 view .LVU466
 1552              	.LBE462:
 1553              	.LBE481:
  30:AnalogDelay.cpp ****     _lfo.SetFreq(0.2f);          // Imposta la frequenza dell'LFO a 0.5 Hz
 1554              		.loc 3 30 5 is_stmt 1 view .LVU467
 1555              	.LBB482:
 1556              	.LBI468:
  67:../../libs/DaisySP/Source/Synthesis/oscillator.h ****     {
 1557              		.loc 5 67 17 view .LVU468
 1558              	.LBB473:
  69:../../libs/DaisySP/Source/Synthesis/oscillator.h ****         phase_inc_ = CalcPhaseInc(f);
 1559              		.loc 5 69 9 view .LVU469
 1560              		.loc 5 70 9 view .LVU470
 1561              		.loc 5 70 34 is_stmt 0 view .LVU471
ARM GAS  C:\Users\skipi\AppData\Local\Temp\ccgtPcFN.s 			page 43


 1562 01ca FFF7FEFF 		bl	_ZN7daisysp10Oscillator12CalcPhaseIncEf
 1563              	.LVL60:
 1564              	.LBE473:
 1565              	.LBE482:
 1566              	.LBB483:
 1567              	.LBB484:
  71:../../libs/DaisySP/Source/Synthesis/oscillator.h ****     }
  72:../../libs/DaisySP/Source/Synthesis/oscillator.h **** 
  73:../../libs/DaisySP/Source/Synthesis/oscillator.h **** 
  74:../../libs/DaisySP/Source/Synthesis/oscillator.h ****     /** Sets the amplitude of the waveform.
  75:../../libs/DaisySP/Source/Synthesis/oscillator.h ****     */
  76:../../libs/DaisySP/Source/Synthesis/oscillator.h ****     inline void SetAmp(const float a) { amp_ = a; }
  77:../../libs/DaisySP/Source/Synthesis/oscillator.h ****     /** Sets the waveform to be synthesized by the Process() function.
  78:../../libs/DaisySP/Source/Synthesis/oscillator.h ****     */
  79:../../libs/DaisySP/Source/Synthesis/oscillator.h ****     inline void SetWaveform(const uint8_t wf)
  80:../../libs/DaisySP/Source/Synthesis/oscillator.h ****     {
  81:../../libs/DaisySP/Source/Synthesis/oscillator.h ****         waveform_ = wf < WAVE_LAST ? wf : WAVE_SIN;
 1568              		.loc 5 81 19 view .LVU472
 1569 01ce 85F8E460 		strb	r6, [r5, #228]
 1570              	.LBE484:
 1571              	.LBE483:
 1572              	.LBB486:
  31:AnalogDelay.cpp ****     _lfo.SetWaveform(Oscillator::WAVE_SIN); // Imposta l'LFO come onda sinusoidale
  32:AnalogDelay.cpp ****     
  33:AnalogDelay.cpp ****     // Azzera il buffer
  34:AnalogDelay.cpp ****     for(size_t i = 0; i < _delayBufferSize; i++) {
  35:AnalogDelay.cpp ****         _delayBuffer[i] = 0.0f;
 1573              		.loc 3 35 25 view .LVU473
 1574 01d2 386A     		ldr	r0, [r7, #32]
 1575 01d4 3146     		mov	r1, r6
 1576 01d6 134A     		ldr	r2, .L32+48
 1577              	.LBE486:
 1578              	.LBB487:
 1579              	.LBB474:
  70:../../libs/DaisySP/Source/Synthesis/oscillator.h ****     }
 1580              		.loc 5 70 20 view .LVU474
 1581 01d8 85ED400A 		vstr.32	s0, [r5, #256]
 1582              	.LVL61:
  70:../../libs/DaisySP/Source/Synthesis/oscillator.h ****     }
 1583              		.loc 5 70 20 view .LVU475
 1584              	.LBE474:
 1585              	.LBE487:
  31:AnalogDelay.cpp ****     _lfo.SetWaveform(Oscillator::WAVE_SIN); // Imposta l'LFO come onda sinusoidale
 1586              		.loc 3 31 5 is_stmt 1 view .LVU476
 1587              	.LBB488:
 1588              	.LBI483:
  79:../../libs/DaisySP/Source/Synthesis/oscillator.h ****     {
 1589              		.loc 5 79 17 view .LVU477
 1590              	.LBB485:
 1591              		.loc 5 81 9 view .LVU478
 1592              		.loc 5 81 9 is_stmt 0 view .LVU479
 1593              	.LBE485:
 1594              	.LBE488:
  34:AnalogDelay.cpp ****         _delayBuffer[i] = 0.0f;
 1595              		.loc 3 34 5 is_stmt 1 view .LVU480
 1596              	.LBB489:
  34:AnalogDelay.cpp ****         _delayBuffer[i] = 0.0f;
ARM GAS  C:\Users\skipi\AppData\Local\Temp\ccgtPcFN.s 			page 44


 1597              		.loc 3 34 25 view .LVU481
 1598              	.LBE489:
  36:AnalogDelay.cpp ****     }
  37:AnalogDelay.cpp **** }
 1599              		.loc 3 37 1 is_stmt 0 view .LVU482
 1600 01dc 03B0     		add	sp, sp, #12
 1601              		.cfi_remember_state
 1602              		.cfi_def_cfa_offset 36
 1603              		@ sp needed
 1604 01de BDEC028B 		vldm	sp!, {d8}
 1605              		.cfi_restore 80
 1606              		.cfi_restore 81
 1607              		.cfi_def_cfa_offset 28
 1608              	.LVL62:
 1609              		.loc 3 37 1 view .LVU483
 1610 01e2 BDE8F043 		pop	{r4, r5, r6, r7, r8, r9, lr}
 1611              		.cfi_restore 14
 1612              		.cfi_restore 9
 1613              		.cfi_restore 8
 1614              		.cfi_restore 7
 1615              		.cfi_restore 6
 1616              		.cfi_restore 5
 1617              		.cfi_restore 4
 1618              		.cfi_def_cfa_offset 0
 1619              	.LVL63:
 1620              	.LBB490:
  35:AnalogDelay.cpp ****     }
 1621              		.loc 3 35 25 view .LVU484
 1622 01e6 FFF7FEBF 		b	memset
 1623              	.LVL64:
 1624              	.L24:
 1625              		.cfi_restore_state
  35:AnalogDelay.cpp ****     }
 1626              		.loc 3 35 25 view .LVU485
 1627              	.LBE490:
 1628              	.LBB491:
 1629              	.LBB441:
 1630              	.LBB436:
 1631              	.LBB433:
 1632              	.LBB430:
 1633              	.LBB426:
 168:../../libs/DaisySP/Source/Effects/pitchshifter.h ****             }
 1634              		.loc 1 168 17 is_stmt 1 view .LVU486
 1635 01ea B0EE640A 		vmov.f32	s0, s9
 168:../../libs/DaisySP/Source/Effects/pitchshifter.h ****             }
 1636              		.loc 1 168 27 is_stmt 0 view .LVU487
 1637 01ee C5ED124A 		vstr.32	s9, [r5, #72]
 1638 01f2 B0E7     		b	.L25
 1639              	.L33:
 1640              		.align	2
 1641              	.L32:
 1642 01f4 B4000200 		.word	131252
 1643 01f8 0000A040 		.word	1084227584
 1644 01fc 00004842 		.word	1112014848
 1645 0200 44000100 		.word	65604
 1646 0204 40000200 		.word	131136
 1647 0208 DB0F4940 		.word	1078530011
ARM GAS  C:\Users\skipi\AppData\Local\Temp\ccgtPcFN.s 			page 45


 1648 020c ABAAAAAA 		.word	-1431655765
 1649 0210 00008038 		.word	947912704
 1650 0214 00000000 		.word	0
 1651 0218 E4000200 		.word	131300
 1652 021c 0000C842 		.word	1120403456
 1653 0220 CDCC4C3E 		.word	1045220557
 1654 0224 00EE0200 		.word	192000
 1655 0228 5C000200 		.word	131164
 1656              	.LBE426:
 1657              	.LBE430:
 1658              	.LBE433:
 1659              	.LBE436:
 1660              	.LBE441:
 1661              	.LBE491:
 1662              		.cfi_endproc
 1663              	.LFE4820:
 1665              		.section	.text._ZN11AnalogDelay11setFeedbackEf,"ax",%progbits
 1666              		.align	1
 1667              		.p2align 2,,3
 1668              		.global	_ZN11AnalogDelay11setFeedbackEf
 1669              		.syntax unified
 1670              		.thumb
 1671              		.thumb_func
 1672              		.fpu fpv5-d16
 1674              	_ZN11AnalogDelay11setFeedbackEf:
 1675              	.LVL65:
 1676              	.LFB4821:
  38:AnalogDelay.cpp **** 
  39:AnalogDelay.cpp **** // Imposta il livello di feedback con limit tra 0 e 0.99
  40:AnalogDelay.cpp **** void AnalogDelay::setFeedback(float feedback) {
 1677              		.loc 3 40 47 is_stmt 1 view -0
 1678              		.cfi_startproc
 1679              		@ args = 0, pretend = 0, frame = 0
 1680              		@ frame_needed = 0, uses_anonymous_args = 0
 1681              		@ link register save eliminated.
  41:AnalogDelay.cpp ****     _feedback = fclamp(feedback, 0.0f, 0.99f); // Limita il feedback per evitare auto-oscillazioni
 1682              		.loc 3 41 5 view .LVU489
 1683              	.LBB492:
 1684              	.LBI492:
 1685              		.file 7 "../../libs/DaisySP/Source/Utility/dsp.h"
   1:../../libs/DaisySP/Source/Utility/dsp.h **** /*
   2:../../libs/DaisySP/Source/Utility/dsp.h **** Copyright (c) 2020 Electrosmith, Corp, Emilie Gillet
   3:../../libs/DaisySP/Source/Utility/dsp.h **** 
   4:../../libs/DaisySP/Source/Utility/dsp.h **** Use of this source code is governed by an MIT-style
   5:../../libs/DaisySP/Source/Utility/dsp.h **** license that can be found in the LICENSE file or at
   6:../../libs/DaisySP/Source/Utility/dsp.h **** https://opensource.org/licenses/MIT.
   7:../../libs/DaisySP/Source/Utility/dsp.h **** */
   8:../../libs/DaisySP/Source/Utility/dsp.h **** 
   9:../../libs/DaisySP/Source/Utility/dsp.h **** /** Helpful defines, functions, and other utilities for use in/with daisysp modules.
  10:../../libs/DaisySP/Source/Utility/dsp.h **** */
  11:../../libs/DaisySP/Source/Utility/dsp.h **** #pragma once
  12:../../libs/DaisySP/Source/Utility/dsp.h **** #ifndef DSY_CORE_DSP
  13:../../libs/DaisySP/Source/Utility/dsp.h **** #define DSY_CORE_DSP
  14:../../libs/DaisySP/Source/Utility/dsp.h **** #include <cassert>
  15:../../libs/DaisySP/Source/Utility/dsp.h **** #include <cstdint>
  16:../../libs/DaisySP/Source/Utility/dsp.h **** #include <random>
  17:../../libs/DaisySP/Source/Utility/dsp.h **** #include <cmath>
ARM GAS  C:\Users\skipi\AppData\Local\Temp\ccgtPcFN.s 			page 46


  18:../../libs/DaisySP/Source/Utility/dsp.h **** 
  19:../../libs/DaisySP/Source/Utility/dsp.h **** /** PIs
  20:../../libs/DaisySP/Source/Utility/dsp.h **** */
  21:../../libs/DaisySP/Source/Utility/dsp.h **** #define PI_F 3.1415927410125732421875f
  22:../../libs/DaisySP/Source/Utility/dsp.h **** #define TWOPI_F (2.0f * PI_F)
  23:../../libs/DaisySP/Source/Utility/dsp.h **** #define HALFPI_F (PI_F * 0.5f)
  24:../../libs/DaisySP/Source/Utility/dsp.h **** #define DSY_MIN(in, mn) (in < mn ? in : mn)
  25:../../libs/DaisySP/Source/Utility/dsp.h **** #define DSY_MAX(in, mx) (in > mx ? in : mx)
  26:../../libs/DaisySP/Source/Utility/dsp.h **** #define DSY_CLAMP(in, mn, mx) (DSY_MIN(DSY_MAX(in, mn), mx))
  27:../../libs/DaisySP/Source/Utility/dsp.h **** #define DSY_COUNTOF(_arr) (sizeof(_arr) / sizeof(_arr[0]))
  28:../../libs/DaisySP/Source/Utility/dsp.h **** 
  29:../../libs/DaisySP/Source/Utility/dsp.h **** namespace daisysp
  30:../../libs/DaisySP/Source/Utility/dsp.h **** {
  31:../../libs/DaisySP/Source/Utility/dsp.h **** //Avoids division for random floats. e.g. rand() * kRandFrac
  32:../../libs/DaisySP/Source/Utility/dsp.h **** static constexpr float kRandFrac = 1.f / (float)RAND_MAX;
  33:../../libs/DaisySP/Source/Utility/dsp.h **** 
  34:../../libs/DaisySP/Source/Utility/dsp.h **** //Convert from semitones to other units. e.g. 2 ^ (kOneTwelfth * x)
  35:../../libs/DaisySP/Source/Utility/dsp.h **** static constexpr float kOneTwelfth = 1.f / 12.f;
  36:../../libs/DaisySP/Source/Utility/dsp.h **** 
  37:../../libs/DaisySP/Source/Utility/dsp.h **** /** efficient floating point min/max
  38:../../libs/DaisySP/Source/Utility/dsp.h **** c/o stephen mccaul
  39:../../libs/DaisySP/Source/Utility/dsp.h **** */
  40:../../libs/DaisySP/Source/Utility/dsp.h **** inline float fmax(float a, float b)
  41:../../libs/DaisySP/Source/Utility/dsp.h **** {
  42:../../libs/DaisySP/Source/Utility/dsp.h ****     float r;
  43:../../libs/DaisySP/Source/Utility/dsp.h **** #ifdef __arm__
  44:../../libs/DaisySP/Source/Utility/dsp.h ****     asm("vmaxnm.f32 %[d], %[n], %[m]" : [d] "=t"(r) : [n] "t"(a), [m] "t"(b) :);
  45:../../libs/DaisySP/Source/Utility/dsp.h **** #else
  46:../../libs/DaisySP/Source/Utility/dsp.h ****     r = (a > b) ? a : b;
  47:../../libs/DaisySP/Source/Utility/dsp.h **** #endif // __arm__
  48:../../libs/DaisySP/Source/Utility/dsp.h ****     return r;
  49:../../libs/DaisySP/Source/Utility/dsp.h **** }
  50:../../libs/DaisySP/Source/Utility/dsp.h **** 
  51:../../libs/DaisySP/Source/Utility/dsp.h **** inline float fmin(float a, float b)
  52:../../libs/DaisySP/Source/Utility/dsp.h **** {
  53:../../libs/DaisySP/Source/Utility/dsp.h ****     float r;
  54:../../libs/DaisySP/Source/Utility/dsp.h **** #ifdef __arm__
  55:../../libs/DaisySP/Source/Utility/dsp.h ****     asm("vminnm.f32 %[d], %[n], %[m]" : [d] "=t"(r) : [n] "t"(a), [m] "t"(b) :);
  56:../../libs/DaisySP/Source/Utility/dsp.h **** #else
  57:../../libs/DaisySP/Source/Utility/dsp.h ****     r = (a < b) ? a : b;
  58:../../libs/DaisySP/Source/Utility/dsp.h **** #endif // __arm__
  59:../../libs/DaisySP/Source/Utility/dsp.h ****     return r;
  60:../../libs/DaisySP/Source/Utility/dsp.h **** }
  61:../../libs/DaisySP/Source/Utility/dsp.h **** 
  62:../../libs/DaisySP/Source/Utility/dsp.h **** /** quick fp clamp
  63:../../libs/DaisySP/Source/Utility/dsp.h **** */
  64:../../libs/DaisySP/Source/Utility/dsp.h **** inline float fclamp(float in, float min, float max)
 1686              		.loc 7 64 14 view .LVU490
 1687              	.LBE492:
  65:../../libs/DaisySP/Source/Utility/dsp.h **** {
  66:../../libs/DaisySP/Source/Utility/dsp.h ****     return fmin(fmax(in, min), max);
 1688              		.loc 7 66 5 view .LVU491
 1689              	.LBB501:
 1690              	.LBB493:
 1691              	.LBI493:
  40:../../libs/DaisySP/Source/Utility/dsp.h **** {
 1692              		.loc 7 40 14 view .LVU492
ARM GAS  C:\Users\skipi\AppData\Local\Temp\ccgtPcFN.s 			page 47


 1693              	.LBB494:
  42:../../libs/DaisySP/Source/Utility/dsp.h **** #ifdef __arm__
 1694              		.loc 7 42 5 view .LVU493
  44:../../libs/DaisySP/Source/Utility/dsp.h **** #else
 1695              		.loc 7 44 5 view .LVU494
 1696 0000 9FED057A 		vldr.32	s14, .L35
 1697              	.LBE494:
 1698              	.LBE493:
 1699              	.LBB496:
 1700              	.LBB497:
  55:../../libs/DaisySP/Source/Utility/dsp.h **** #else
 1701              		.loc 7 55 5 is_stmt 0 view .LVU495
 1702 0004 DFED057A 		vldr.32	s15, .L35+4
 1703              	.LBE497:
 1704              	.LBE496:
 1705              	.LBB499:
 1706              	.LBB495:
  44:../../libs/DaisySP/Source/Utility/dsp.h **** #else
 1707              		.loc 7 44 5 view .LVU496
 1708              		.syntax unified
 1709              	@ 44 "../../libs/DaisySP/Source/Utility/dsp.h" 1
 1710 0008 80FE070A 		vmaxnm.f32 s0, s0, s14
 1711              	@ 0 "" 2
 1712              	.LVL66:
  48:../../libs/DaisySP/Source/Utility/dsp.h **** }
 1713              		.loc 7 48 5 is_stmt 1 view .LVU497
  48:../../libs/DaisySP/Source/Utility/dsp.h **** }
 1714              		.loc 7 48 5 is_stmt 0 view .LVU498
 1715              		.thumb
 1716              		.syntax unified
 1717              	.LBE495:
 1718              	.LBE499:
 1719              	.LBB500:
 1720              	.LBI496:
  51:../../libs/DaisySP/Source/Utility/dsp.h **** {
 1721              		.loc 7 51 14 is_stmt 1 view .LVU499
 1722              	.LBB498:
  53:../../libs/DaisySP/Source/Utility/dsp.h **** #ifdef __arm__
 1723              		.loc 7 53 5 view .LVU500
  55:../../libs/DaisySP/Source/Utility/dsp.h **** #else
 1724              		.loc 7 55 5 view .LVU501
 1725              		.syntax unified
 1726              	@ 55 "../../libs/DaisySP/Source/Utility/dsp.h" 1
 1727 000c 80FE670A 		vminnm.f32 s0, s0, s15
 1728              	@ 0 "" 2
 1729              	.LVL67:
  59:../../libs/DaisySP/Source/Utility/dsp.h **** }
 1730              		.loc 7 59 5 view .LVU502
  59:../../libs/DaisySP/Source/Utility/dsp.h **** }
 1731              		.loc 7 59 5 is_stmt 0 view .LVU503
 1732              		.thumb
 1733              		.syntax unified
 1734              	.LBE498:
 1735              	.LBE500:
 1736              	.LBE501:
 1737              		.loc 3 41 15 view .LVU504
 1738 0010 80ED020A 		vstr.32	s0, [r0, #8]
ARM GAS  C:\Users\skipi\AppData\Local\Temp\ccgtPcFN.s 			page 48


  42:AnalogDelay.cpp **** }
 1739              		.loc 3 42 1 view .LVU505
 1740 0014 7047     		bx	lr
 1741              	.L36:
 1742 0016 00BF     		.align	2
 1743              	.L35:
 1744 0018 00000000 		.word	0
 1745 001c A4707D3F 		.word	1065185444
 1746              		.cfi_endproc
 1747              	.LFE4821:
 1749              		.section	.text._ZN11AnalogDelay6setMixEf,"ax",%progbits
 1750              		.align	1
 1751              		.p2align 2,,3
 1752              		.global	_ZN11AnalogDelay6setMixEf
 1753              		.syntax unified
 1754              		.thumb
 1755              		.thumb_func
 1756              		.fpu fpv5-d16
 1758              	_ZN11AnalogDelay6setMixEf:
 1759              	.LVL68:
 1760              	.LFB4822:
  43:AnalogDelay.cpp **** 
  44:AnalogDelay.cpp **** // Imposta il mix tra segnale dry e wet (0 = solo dry, 1 = solo wet)
  45:AnalogDelay.cpp **** void AnalogDelay::setMix(float mix) {
 1761              		.loc 3 45 37 is_stmt 1 view -0
 1762              		.cfi_startproc
 1763              		@ args = 0, pretend = 0, frame = 0
 1764              		@ frame_needed = 0, uses_anonymous_args = 0
 1765              		@ link register save eliminated.
  46:AnalogDelay.cpp ****     _mix = fclamp(mix, 0.0f, 1.0f);  // Limita il mix tra 0 e 1
 1766              		.loc 3 46 5 view .LVU507
 1767              	.LBB502:
 1768              	.LBI502:
  64:../../libs/DaisySP/Source/Utility/dsp.h **** {
 1769              		.loc 7 64 14 view .LVU508
 1770              	.LBE502:
 1771              		.loc 7 66 5 view .LVU509
 1772              	.LBB511:
 1773              	.LBB503:
 1774              	.LBI503:
  40:../../libs/DaisySP/Source/Utility/dsp.h **** {
 1775              		.loc 7 40 14 view .LVU510
 1776              	.LBB504:
  42:../../libs/DaisySP/Source/Utility/dsp.h **** #ifdef __arm__
 1777              		.loc 7 42 5 view .LVU511
  44:../../libs/DaisySP/Source/Utility/dsp.h **** #else
 1778              		.loc 7 44 5 view .LVU512
 1779              	.LBE504:
 1780              	.LBE503:
 1781              	.LBB506:
 1782              	.LBB507:
  55:../../libs/DaisySP/Source/Utility/dsp.h **** #else
 1783              		.loc 7 55 5 is_stmt 0 view .LVU513
 1784 0000 F7EE007A 		vmov.f32	s15, #1.0e+0
 1785              	.LBE507:
 1786              	.LBE506:
 1787              	.LBB509:
ARM GAS  C:\Users\skipi\AppData\Local\Temp\ccgtPcFN.s 			page 49


 1788              	.LBB505:
  44:../../libs/DaisySP/Source/Utility/dsp.h **** #else
 1789              		.loc 7 44 5 view .LVU514
 1790 0004 9FED057A 		vldr.32	s14, .L38
 1791              		.syntax unified
 1792              	@ 44 "../../libs/DaisySP/Source/Utility/dsp.h" 1
 1793 0008 80FE070A 		vmaxnm.f32 s0, s0, s14
 1794              	@ 0 "" 2
 1795              	.LVL69:
  48:../../libs/DaisySP/Source/Utility/dsp.h **** }
 1796              		.loc 7 48 5 is_stmt 1 view .LVU515
  48:../../libs/DaisySP/Source/Utility/dsp.h **** }
 1797              		.loc 7 48 5 is_stmt 0 view .LVU516
 1798              		.thumb
 1799              		.syntax unified
 1800              	.LBE505:
 1801              	.LBE509:
 1802              	.LBB510:
 1803              	.LBI506:
  51:../../libs/DaisySP/Source/Utility/dsp.h **** {
 1804              		.loc 7 51 14 is_stmt 1 view .LVU517
 1805              	.LBB508:
  53:../../libs/DaisySP/Source/Utility/dsp.h **** #ifdef __arm__
 1806              		.loc 7 53 5 view .LVU518
  55:../../libs/DaisySP/Source/Utility/dsp.h **** #else
 1807              		.loc 7 55 5 view .LVU519
 1808              		.syntax unified
 1809              	@ 55 "../../libs/DaisySP/Source/Utility/dsp.h" 1
 1810 000c 80FE670A 		vminnm.f32 s0, s0, s15
 1811              	@ 0 "" 2
 1812              	.LVL70:
  59:../../libs/DaisySP/Source/Utility/dsp.h **** }
 1813              		.loc 7 59 5 view .LVU520
  59:../../libs/DaisySP/Source/Utility/dsp.h **** }
 1814              		.loc 7 59 5 is_stmt 0 view .LVU521
 1815              		.thumb
 1816              		.syntax unified
 1817              	.LBE508:
 1818              	.LBE510:
 1819              	.LBE511:
 1820              		.loc 3 46 10 view .LVU522
 1821 0010 80ED030A 		vstr.32	s0, [r0, #12]
  47:AnalogDelay.cpp ****     _crossfade.SetPos(_mix);          // Aggiorna la posizione del crossfader
 1822              		.loc 3 47 5 is_stmt 1 view .LVU523
 1823              	.LVL71:
 1824              	.LBB512:
 1825              	.LBI512:
  60:../../libs/DaisySP/Source/Dynamics/crossfade.h ****     /** processes CrossFade and returns single sample
  61:../../libs/DaisySP/Source/Dynamics/crossfade.h ****     */
  62:../../libs/DaisySP/Source/Dynamics/crossfade.h ****     float Process(float &in1, float &in2);
  63:../../libs/DaisySP/Source/Dynamics/crossfade.h **** 
  64:../../libs/DaisySP/Source/Dynamics/crossfade.h **** 
  65:../../libs/DaisySP/Source/Dynamics/crossfade.h ****     /** Sets position of CrossFade between two input signals
  66:../../libs/DaisySP/Source/Dynamics/crossfade.h ****         Input range: 0 to 1
  67:../../libs/DaisySP/Source/Dynamics/crossfade.h ****     */
  68:../../libs/DaisySP/Source/Dynamics/crossfade.h ****     inline void SetPos(float pos) { pos_ = pos; }
 1826              		.loc 4 68 17 view .LVU524
ARM GAS  C:\Users\skipi\AppData\Local\Temp\ccgtPcFN.s 			page 50


 1827              	.LBB513:
 1828              		.loc 4 68 37 view .LVU525
 1829              		.loc 4 68 42 is_stmt 0 view .LVU526
 1830 0014 80ED090A 		vstr.32	s0, [r0, #36]
 1831              	.LVL72:
 1832              		.loc 4 68 42 view .LVU527
 1833              	.LBE513:
 1834              	.LBE512:
  48:AnalogDelay.cpp **** }
 1835              		.loc 3 48 1 view .LVU528
 1836 0018 7047     		bx	lr
 1837              	.L39:
 1838 001a 00BF     		.align	2
 1839              	.L38:
 1840 001c 00000000 		.word	0
 1841              		.cfi_endproc
 1842              	.LFE4822:
 1844              		.section	.text._ZN11AnalogDelay12setDelayTimeEf,"ax",%progbits
 1845              		.align	1
 1846              		.p2align 2,,3
 1847              		.global	_ZN11AnalogDelay12setDelayTimeEf
 1848              		.syntax unified
 1849              		.thumb
 1850              		.thumb_func
 1851              		.fpu fpv5-d16
 1853              	_ZN11AnalogDelay12setDelayTimeEf:
 1854              	.LVL73:
 1855              	.LFB4823:
  49:AnalogDelay.cpp **** 
  50:AnalogDelay.cpp **** // Imposta il tempo di delay in secondi
  51:AnalogDelay.cpp **** void AnalogDelay::setDelayTime(float delayTime) {
 1856              		.loc 3 51 49 is_stmt 1 view -0
 1857              		.cfi_startproc
 1858              		@ args = 0, pretend = 0, frame = 0
 1859              		@ frame_needed = 0, uses_anonymous_args = 0
 1860              		@ link register save eliminated.
  52:AnalogDelay.cpp ****     _delayTime = fclamp(delayTime, 0.02f, (float)MAX_DELAY_TIME); // Limita il tempo di delay
 1861              		.loc 3 52 5 view .LVU530
 1862              	.LBB514:
 1863              	.LBI514:
  64:../../libs/DaisySP/Source/Utility/dsp.h **** {
 1864              		.loc 7 64 14 view .LVU531
 1865              	.LBE514:
 1866              		.loc 7 66 5 view .LVU532
 1867              	.LBB523:
 1868              	.LBB515:
 1869              	.LBI515:
  40:../../libs/DaisySP/Source/Utility/dsp.h **** {
 1870              		.loc 7 40 14 view .LVU533
 1871              	.LBB516:
  42:../../libs/DaisySP/Source/Utility/dsp.h **** #ifdef __arm__
 1872              		.loc 7 42 5 view .LVU534
  44:../../libs/DaisySP/Source/Utility/dsp.h **** #else
 1873              		.loc 7 44 5 view .LVU535
 1874              	.LBE516:
 1875              	.LBE515:
 1876              	.LBB518:
ARM GAS  C:\Users\skipi\AppData\Local\Temp\ccgtPcFN.s 			page 51


 1877              	.LBB519:
  55:../../libs/DaisySP/Source/Utility/dsp.h **** #else
 1878              		.loc 7 55 5 is_stmt 0 view .LVU536
 1879 0000 F7EE007A 		vmov.f32	s15, #1.0e+0
 1880              	.LBE519:
 1881              	.LBE518:
 1882              	.LBB521:
 1883              	.LBB517:
  44:../../libs/DaisySP/Source/Utility/dsp.h **** #else
 1884              		.loc 7 44 5 view .LVU537
 1885 0004 9FED047A 		vldr.32	s14, .L41
 1886              		.syntax unified
 1887              	@ 44 "../../libs/DaisySP/Source/Utility/dsp.h" 1
 1888 0008 80FE070A 		vmaxnm.f32 s0, s0, s14
 1889              	@ 0 "" 2
 1890              	.LVL74:
  48:../../libs/DaisySP/Source/Utility/dsp.h **** }
 1891              		.loc 7 48 5 is_stmt 1 view .LVU538
  48:../../libs/DaisySP/Source/Utility/dsp.h **** }
 1892              		.loc 7 48 5 is_stmt 0 view .LVU539
 1893              		.thumb
 1894              		.syntax unified
 1895              	.LBE517:
 1896              	.LBE521:
 1897              	.LBB522:
 1898              	.LBI518:
  51:../../libs/DaisySP/Source/Utility/dsp.h **** {
 1899              		.loc 7 51 14 is_stmt 1 view .LVU540
 1900              	.LBB520:
  53:../../libs/DaisySP/Source/Utility/dsp.h **** #ifdef __arm__
 1901              		.loc 7 53 5 view .LVU541
  55:../../libs/DaisySP/Source/Utility/dsp.h **** #else
 1902              		.loc 7 55 5 view .LVU542
 1903              		.syntax unified
 1904              	@ 55 "../../libs/DaisySP/Source/Utility/dsp.h" 1
 1905 000c 80FE670A 		vminnm.f32 s0, s0, s15
 1906              	@ 0 "" 2
 1907              	.LVL75:
  59:../../libs/DaisySP/Source/Utility/dsp.h **** }
 1908              		.loc 7 59 5 view .LVU543
  59:../../libs/DaisySP/Source/Utility/dsp.h **** }
 1909              		.loc 7 59 5 is_stmt 0 view .LVU544
 1910              		.thumb
 1911              		.syntax unified
 1912              	.LBE520:
 1913              	.LBE522:
 1914              	.LBE523:
 1915              		.loc 3 52 16 view .LVU545
 1916 0010 80ED010A 		vstr.32	s0, [r0, #4]
  53:AnalogDelay.cpp **** }
 1917              		.loc 3 53 1 view .LVU546
 1918 0014 7047     		bx	lr
 1919              	.L42:
 1920 0016 00BF     		.align	2
 1921              	.L41:
 1922 0018 0AD7A33C 		.word	1017370378
 1923              		.cfi_endproc
ARM GAS  C:\Users\skipi\AppData\Local\Temp\ccgtPcFN.s 			page 52


 1924              	.LFE4823:
 1926              		.section	.text._ZN11AnalogDelay8setDepthEf,"ax",%progbits
 1927              		.align	1
 1928              		.p2align 2,,3
 1929              		.global	_ZN11AnalogDelay8setDepthEf
 1930              		.syntax unified
 1931              		.thumb
 1932              		.thumb_func
 1933              		.fpu fpv5-d16
 1935              	_ZN11AnalogDelay8setDepthEf:
 1936              	.LVL76:
 1937              	.LFB4824:
  54:AnalogDelay.cpp **** 
  55:AnalogDelay.cpp **** // Imposta la profondit del pitch shifter
  56:AnalogDelay.cpp **** void AnalogDelay::setDepth(float depth) {
 1938              		.loc 3 56 41 is_stmt 1 view -0
 1939              		.cfi_startproc
 1940              		@ args = 0, pretend = 0, frame = 0
 1941              		@ frame_needed = 0, uses_anonymous_args = 0
 1942              		@ link register save eliminated.
  57:AnalogDelay.cpp ****     _depth = fclamp(depth, 0.0f, 1.0f); // Limita la profondit tra 0 e 1
 1943              		.loc 3 57 5 view .LVU548
 1944              	.LBB524:
 1945              	.LBI524:
  64:../../libs/DaisySP/Source/Utility/dsp.h **** {
 1946              		.loc 7 64 14 view .LVU549
 1947              	.LBE524:
 1948              		.loc 7 66 5 view .LVU550
 1949              	.LBB533:
 1950              	.LBB525:
 1951              	.LBI525:
  40:../../libs/DaisySP/Source/Utility/dsp.h **** {
 1952              		.loc 7 40 14 view .LVU551
 1953              	.LBB526:
  42:../../libs/DaisySP/Source/Utility/dsp.h **** #ifdef __arm__
 1954              		.loc 7 42 5 view .LVU552
  44:../../libs/DaisySP/Source/Utility/dsp.h **** #else
 1955              		.loc 7 44 5 view .LVU553
 1956              	.LBE526:
 1957              	.LBE525:
 1958              	.LBB528:
 1959              	.LBB529:
  55:../../libs/DaisySP/Source/Utility/dsp.h **** #else
 1960              		.loc 7 55 5 is_stmt 0 view .LVU554
 1961 0000 F7EE007A 		vmov.f32	s15, #1.0e+0
 1962              	.LBE529:
 1963              	.LBE528:
 1964              	.LBB531:
 1965              	.LBB527:
  44:../../libs/DaisySP/Source/Utility/dsp.h **** #else
 1966              		.loc 7 44 5 view .LVU555
 1967 0004 9FED047A 		vldr.32	s14, .L44
 1968              		.syntax unified
 1969              	@ 44 "../../libs/DaisySP/Source/Utility/dsp.h" 1
 1970 0008 80FE070A 		vmaxnm.f32 s0, s0, s14
 1971              	@ 0 "" 2
 1972              	.LVL77:
ARM GAS  C:\Users\skipi\AppData\Local\Temp\ccgtPcFN.s 			page 53


  48:../../libs/DaisySP/Source/Utility/dsp.h **** }
 1973              		.loc 7 48 5 is_stmt 1 view .LVU556
  48:../../libs/DaisySP/Source/Utility/dsp.h **** }
 1974              		.loc 7 48 5 is_stmt 0 view .LVU557
 1975              		.thumb
 1976              		.syntax unified
 1977              	.LBE527:
 1978              	.LBE531:
 1979              	.LBB532:
 1980              	.LBI528:
  51:../../libs/DaisySP/Source/Utility/dsp.h **** {
 1981              		.loc 7 51 14 is_stmt 1 view .LVU558
 1982              	.LBB530:
  53:../../libs/DaisySP/Source/Utility/dsp.h **** #ifdef __arm__
 1983              		.loc 7 53 5 view .LVU559
  55:../../libs/DaisySP/Source/Utility/dsp.h **** #else
 1984              		.loc 7 55 5 view .LVU560
 1985              		.syntax unified
 1986              	@ 55 "../../libs/DaisySP/Source/Utility/dsp.h" 1
 1987 000c 80FE670A 		vminnm.f32 s0, s0, s15
 1988              	@ 0 "" 2
 1989              	.LVL78:
  59:../../libs/DaisySP/Source/Utility/dsp.h **** }
 1990              		.loc 7 59 5 view .LVU561
  59:../../libs/DaisySP/Source/Utility/dsp.h **** }
 1991              		.loc 7 59 5 is_stmt 0 view .LVU562
 1992              		.thumb
 1993              		.syntax unified
 1994              	.LBE530:
 1995              	.LBE532:
 1996              	.LBE533:
 1997              		.loc 3 57 12 view .LVU563
 1998 0010 80ED040A 		vstr.32	s0, [r0, #16]
  58:AnalogDelay.cpp **** }
 1999              		.loc 3 58 1 view .LVU564
 2000 0014 7047     		bx	lr
 2001              	.L45:
 2002 0016 00BF     		.align	2
 2003              	.L44:
 2004 0018 00000000 		.word	0
 2005              		.cfi_endproc
 2006              	.LFE4824:
 2008              		.section	.text._ZN11AnalogDelay15setSmoothFactorEf,"ax",%progbits
 2009              		.align	1
 2010              		.p2align 2,,3
 2011              		.global	_ZN11AnalogDelay15setSmoothFactorEf
 2012              		.syntax unified
 2013              		.thumb
 2014              		.thumb_func
 2015              		.fpu fpv5-d16
 2017              	_ZN11AnalogDelay15setSmoothFactorEf:
 2018              	.LVL79:
 2019              	.LFB4825:
  59:AnalogDelay.cpp **** 
  60:AnalogDelay.cpp **** // Imposta il fattore di smoothing per il tempo di delay
  61:AnalogDelay.cpp **** void AnalogDelay::setSmoothFactor(float smooth_factor) {
 2020              		.loc 3 61 56 is_stmt 1 view -0
ARM GAS  C:\Users\skipi\AppData\Local\Temp\ccgtPcFN.s 			page 54


 2021              		.cfi_startproc
 2022              		@ args = 0, pretend = 0, frame = 0
 2023              		@ frame_needed = 0, uses_anonymous_args = 0
 2024              		@ link register save eliminated.
  62:AnalogDelay.cpp ****     _smooth_factor = fmap(smooth_factor, 0.00001f, 0.0001f, Mapping::LINEAR); // Limita il fattore 
 2025              		.loc 3 62 5 view .LVU566
 2026              	.LBB534:
 2027              	.LBB535:
  67:../../libs/DaisySP/Source/Utility/dsp.h **** }
  68:../../libs/DaisySP/Source/Utility/dsp.h **** 
  69:../../libs/DaisySP/Source/Utility/dsp.h **** /** From Musicdsp.org "Fast power and root estimates for 32bit floats)
  70:../../libs/DaisySP/Source/Utility/dsp.h **** Original code by Stefan Stenzel
  71:../../libs/DaisySP/Source/Utility/dsp.h **** These are approximations
  72:../../libs/DaisySP/Source/Utility/dsp.h **** */
  73:../../libs/DaisySP/Source/Utility/dsp.h **** inline float fastpower(float f, int n)
  74:../../libs/DaisySP/Source/Utility/dsp.h **** {
  75:../../libs/DaisySP/Source/Utility/dsp.h ****     long *lp, l;
  76:../../libs/DaisySP/Source/Utility/dsp.h ****     lp = (long *)(&f);
  77:../../libs/DaisySP/Source/Utility/dsp.h ****     l  = *lp;
  78:../../libs/DaisySP/Source/Utility/dsp.h ****     l -= 0x3F800000;
  79:../../libs/DaisySP/Source/Utility/dsp.h ****     l <<= (n - 1);
  80:../../libs/DaisySP/Source/Utility/dsp.h ****     l += 0x3F800000;
  81:../../libs/DaisySP/Source/Utility/dsp.h ****     *lp = l;
  82:../../libs/DaisySP/Source/Utility/dsp.h ****     return f;
  83:../../libs/DaisySP/Source/Utility/dsp.h **** }
  84:../../libs/DaisySP/Source/Utility/dsp.h **** 
  85:../../libs/DaisySP/Source/Utility/dsp.h **** inline float fastroot(float f, int n)
  86:../../libs/DaisySP/Source/Utility/dsp.h **** {
  87:../../libs/DaisySP/Source/Utility/dsp.h ****     long *lp, l;
  88:../../libs/DaisySP/Source/Utility/dsp.h ****     lp = (long *)(&f);
  89:../../libs/DaisySP/Source/Utility/dsp.h ****     l  = *lp;
  90:../../libs/DaisySP/Source/Utility/dsp.h ****     l -= 0x3F800000;
  91:../../libs/DaisySP/Source/Utility/dsp.h ****     l >>= (n - 1);
  92:../../libs/DaisySP/Source/Utility/dsp.h ****     l += 0x3F800000;
  93:../../libs/DaisySP/Source/Utility/dsp.h ****     *lp = l;
  94:../../libs/DaisySP/Source/Utility/dsp.h ****     return f;
  95:../../libs/DaisySP/Source/Utility/dsp.h **** }
  96:../../libs/DaisySP/Source/Utility/dsp.h **** 
  97:../../libs/DaisySP/Source/Utility/dsp.h **** /** Significantly more efficient than fmodf(x, 1.0f) for calculating
  98:../../libs/DaisySP/Source/Utility/dsp.h ****  *  the decimal part of a floating point value.
  99:../../libs/DaisySP/Source/Utility/dsp.h ****  */
 100:../../libs/DaisySP/Source/Utility/dsp.h **** inline float fastmod1f(float x)
 101:../../libs/DaisySP/Source/Utility/dsp.h **** {
 102:../../libs/DaisySP/Source/Utility/dsp.h ****     return x - floorf(x);
 103:../../libs/DaisySP/Source/Utility/dsp.h **** }
 104:../../libs/DaisySP/Source/Utility/dsp.h **** 
 105:../../libs/DaisySP/Source/Utility/dsp.h **** /** From http://openaudio.blogspot.com/2017/02/faster-log10-and-pow.html
 106:../../libs/DaisySP/Source/Utility/dsp.h **** No approximation, pow10f(x) gives a 90% speed increase over powf(10.f, x)
 107:../../libs/DaisySP/Source/Utility/dsp.h **** */
 108:../../libs/DaisySP/Source/Utility/dsp.h **** inline float pow10f(float f)
 109:../../libs/DaisySP/Source/Utility/dsp.h **** {
 110:../../libs/DaisySP/Source/Utility/dsp.h ****     return expf(2.302585092994046f * f);
 111:../../libs/DaisySP/Source/Utility/dsp.h **** }
 112:../../libs/DaisySP/Source/Utility/dsp.h **** 
 113:../../libs/DaisySP/Source/Utility/dsp.h **** /* Original code for fastlog2f by Dr. Paul Beckmann from the ARM community forum, adapted from the 
 114:../../libs/DaisySP/Source/Utility/dsp.h **** About 25% performance increase over std::log10f
 115:../../libs/DaisySP/Source/Utility/dsp.h **** */
ARM GAS  C:\Users\skipi\AppData\Local\Temp\ccgtPcFN.s 			page 55


 116:../../libs/DaisySP/Source/Utility/dsp.h **** inline float fastlog2f(float f)
 117:../../libs/DaisySP/Source/Utility/dsp.h **** {
 118:../../libs/DaisySP/Source/Utility/dsp.h ****     float frac;
 119:../../libs/DaisySP/Source/Utility/dsp.h ****     int   exp;
 120:../../libs/DaisySP/Source/Utility/dsp.h ****     frac = frexpf(fabsf(f), &exp);
 121:../../libs/DaisySP/Source/Utility/dsp.h ****     f    = 1.23149591368684f;
 122:../../libs/DaisySP/Source/Utility/dsp.h ****     f *= frac;
 123:../../libs/DaisySP/Source/Utility/dsp.h ****     f += -4.11852516267426f;
 124:../../libs/DaisySP/Source/Utility/dsp.h ****     f *= frac;
 125:../../libs/DaisySP/Source/Utility/dsp.h ****     f += 6.02197014179219f;
 126:../../libs/DaisySP/Source/Utility/dsp.h ****     f *= frac;
 127:../../libs/DaisySP/Source/Utility/dsp.h ****     f += -3.13396450166353f;
 128:../../libs/DaisySP/Source/Utility/dsp.h ****     f += exp;
 129:../../libs/DaisySP/Source/Utility/dsp.h ****     return (f);
 130:../../libs/DaisySP/Source/Utility/dsp.h **** }
 131:../../libs/DaisySP/Source/Utility/dsp.h **** 
 132:../../libs/DaisySP/Source/Utility/dsp.h **** inline float fastlog10f(float f)
 133:../../libs/DaisySP/Source/Utility/dsp.h **** {
 134:../../libs/DaisySP/Source/Utility/dsp.h ****     return fastlog2f(f) * 0.3010299956639812f;
 135:../../libs/DaisySP/Source/Utility/dsp.h **** }
 136:../../libs/DaisySP/Source/Utility/dsp.h **** 
 137:../../libs/DaisySP/Source/Utility/dsp.h **** /** Midi to frequency helper
 138:../../libs/DaisySP/Source/Utility/dsp.h **** */
 139:../../libs/DaisySP/Source/Utility/dsp.h **** inline float mtof(float m)
 140:../../libs/DaisySP/Source/Utility/dsp.h **** {
 141:../../libs/DaisySP/Source/Utility/dsp.h ****     return powf(2, (m - 69.0f) / 12.0f) * 440.0f;
 142:../../libs/DaisySP/Source/Utility/dsp.h **** }
 143:../../libs/DaisySP/Source/Utility/dsp.h **** 
 144:../../libs/DaisySP/Source/Utility/dsp.h **** 
 145:../../libs/DaisySP/Source/Utility/dsp.h **** /** one pole lpf
 146:../../libs/DaisySP/Source/Utility/dsp.h **** out is passed by reference, and must be retained between
 147:../../libs/DaisySP/Source/Utility/dsp.h **** calls to properly filter the signal
 148:../../libs/DaisySP/Source/Utility/dsp.h **** coeff can be calculated:
 149:../../libs/DaisySP/Source/Utility/dsp.h **** coeff = 1.0 / (time * sample_rate) ; where time is in seconds
 150:../../libs/DaisySP/Source/Utility/dsp.h **** */
 151:../../libs/DaisySP/Source/Utility/dsp.h **** inline void fonepole(float &out, float in, float coeff)
 152:../../libs/DaisySP/Source/Utility/dsp.h **** {
 153:../../libs/DaisySP/Source/Utility/dsp.h ****     out += coeff * (in - out);
 154:../../libs/DaisySP/Source/Utility/dsp.h **** }
 155:../../libs/DaisySP/Source/Utility/dsp.h **** 
 156:../../libs/DaisySP/Source/Utility/dsp.h **** /** Curves to use with the fmap function */
 157:../../libs/DaisySP/Source/Utility/dsp.h **** enum class Mapping
 158:../../libs/DaisySP/Source/Utility/dsp.h **** {
 159:../../libs/DaisySP/Source/Utility/dsp.h ****     LINEAR,
 160:../../libs/DaisySP/Source/Utility/dsp.h ****     EXP,
 161:../../libs/DaisySP/Source/Utility/dsp.h ****     LOG,
 162:../../libs/DaisySP/Source/Utility/dsp.h **** };
 163:../../libs/DaisySP/Source/Utility/dsp.h **** 
 164:../../libs/DaisySP/Source/Utility/dsp.h **** /** Maps a float between a specified range, using a specified curve.
 165:../../libs/DaisySP/Source/Utility/dsp.h ****  *
 166:../../libs/DaisySP/Source/Utility/dsp.h ****  *  \param in a value between 0 to 1 that will be mapped to the new range.
 167:../../libs/DaisySP/Source/Utility/dsp.h ****  *  \param min the new minimum value
 168:../../libs/DaisySP/Source/Utility/dsp.h ****  *  \param max the new maxmimum value
 169:../../libs/DaisySP/Source/Utility/dsp.h ****  *  \param curve a Mapping Value to adjust the response curve of the transformation
 170:../../libs/DaisySP/Source/Utility/dsp.h ****  *               defaults to Linear. @see Mapping
 171:../../libs/DaisySP/Source/Utility/dsp.h ****  *
 172:../../libs/DaisySP/Source/Utility/dsp.h ****  *  When using the log curve min and max, must be greater than zero.
ARM GAS  C:\Users\skipi\AppData\Local\Temp\ccgtPcFN.s 			page 56


 173:../../libs/DaisySP/Source/Utility/dsp.h ****  *
 174:../../libs/DaisySP/Source/Utility/dsp.h ****  *  \retval returns the transformed float within the new range.
 175:../../libs/DaisySP/Source/Utility/dsp.h **** */
 176:../../libs/DaisySP/Source/Utility/dsp.h **** inline float
 177:../../libs/DaisySP/Source/Utility/dsp.h **** fmap(float in, float min, float max, Mapping curve = Mapping::LINEAR)
 178:../../libs/DaisySP/Source/Utility/dsp.h **** {
 179:../../libs/DaisySP/Source/Utility/dsp.h ****     switch(curve)
 180:../../libs/DaisySP/Source/Utility/dsp.h ****     {
 181:../../libs/DaisySP/Source/Utility/dsp.h ****         case Mapping::EXP:
 182:../../libs/DaisySP/Source/Utility/dsp.h ****             return fclamp(min + (in * in) * (max - min), min, max);
 183:../../libs/DaisySP/Source/Utility/dsp.h ****         case Mapping::LOG:
 184:../../libs/DaisySP/Source/Utility/dsp.h ****         {
 185:../../libs/DaisySP/Source/Utility/dsp.h ****             const float a = 1.f / log10f(max / min);
 186:../../libs/DaisySP/Source/Utility/dsp.h ****             return fclamp(min * powf(10, in / a), min, max);
 187:../../libs/DaisySP/Source/Utility/dsp.h ****         }
 188:../../libs/DaisySP/Source/Utility/dsp.h ****         case Mapping::LINEAR:
 189:../../libs/DaisySP/Source/Utility/dsp.h ****         default: return fclamp(min + in * (max - min), min, max);
 2028              		.loc 7 189 31 is_stmt 0 view .LVU567
 2029 0000 9FED087A 		vldr.32	s14, .L47
 2030              	.LVL80:
 2031              		.loc 7 189 31 view .LVU568
 2032              	.LBE535:
 2033              	.LBI534:
 177:../../libs/DaisySP/Source/Utility/dsp.h **** {
 2034              		.loc 7 177 1 is_stmt 1 view .LVU569
 2035              	.LBE534:
 179:../../libs/DaisySP/Source/Utility/dsp.h ****     {
 2036              		.loc 7 179 5 view .LVU570
 2037              	.LBB547:
 2038              	.LBB545:
 188:../../libs/DaisySP/Source/Utility/dsp.h ****         default: return fclamp(min + in * (max - min), min, max);
 2039              		.loc 7 188 9 view .LVU571
 2040              		.loc 7 189 9 view .LVU572
 2041              		.loc 7 189 18 view .LVU573
 2042              		.loc 7 189 31 is_stmt 0 view .LVU574
 2043 0004 9FED086A 		vldr.32	s12, .L47+4
 2044 0008 F0EE477A 		vmov.f32	s15, s14
 2045              	.LBB536:
 2046              	.LBB537:
 2047              	.LBB538:
  55:../../libs/DaisySP/Source/Utility/dsp.h **** #else
 2048              		.loc 7 55 5 view .LVU575
 2049 000c DFED076A 		vldr.32	s13, .L47+8
 2050              	.LBE538:
 2051              	.LBE537:
 2052              	.LBE536:
 2053              		.loc 7 189 31 view .LVU576
 2054 0010 E0EE067A 		vfma.f32	s15, s0, s12
 2055              	.LVL81:
 2056              	.LBB543:
 2057              	.LBI536:
  64:../../libs/DaisySP/Source/Utility/dsp.h **** {
 2058              		.loc 7 64 14 is_stmt 1 view .LVU577
 2059              	.LBE543:
 2060              	.LBE545:
 2061              	.LBE547:
  66:../../libs/DaisySP/Source/Utility/dsp.h **** }
ARM GAS  C:\Users\skipi\AppData\Local\Temp\ccgtPcFN.s 			page 57


 2062              		.loc 7 66 5 view .LVU578
 2063              	.LBB548:
 2064              	.LBB546:
 2065              	.LBB544:
 2066              	.LBB540:
 2067              	.LBI540:
  40:../../libs/DaisySP/Source/Utility/dsp.h **** {
 2068              		.loc 7 40 14 view .LVU579
 2069              	.LBB541:
  42:../../libs/DaisySP/Source/Utility/dsp.h **** #ifdef __arm__
 2070              		.loc 7 42 5 view .LVU580
  44:../../libs/DaisySP/Source/Utility/dsp.h **** #else
 2071              		.loc 7 44 5 view .LVU581
 2072              		.syntax unified
 2073              	@ 44 "../../libs/DaisySP/Source/Utility/dsp.h" 1
 2074 0014 C7FE877A 		vmaxnm.f32 s15, s15, s14
 2075              	@ 0 "" 2
 2076              	.LVL82:
  48:../../libs/DaisySP/Source/Utility/dsp.h **** }
 2077              		.loc 7 48 5 view .LVU582
  48:../../libs/DaisySP/Source/Utility/dsp.h **** }
 2078              		.loc 7 48 5 is_stmt 0 view .LVU583
 2079              		.thumb
 2080              		.syntax unified
 2081              	.LBE541:
 2082              	.LBE540:
 2083              	.LBB542:
 2084              	.LBI537:
  51:../../libs/DaisySP/Source/Utility/dsp.h **** {
 2085              		.loc 7 51 14 is_stmt 1 view .LVU584
 2086              	.LBB539:
  53:../../libs/DaisySP/Source/Utility/dsp.h **** #ifdef __arm__
 2087              		.loc 7 53 5 view .LVU585
  55:../../libs/DaisySP/Source/Utility/dsp.h **** #else
 2088              		.loc 7 55 5 view .LVU586
 2089              		.syntax unified
 2090              	@ 55 "../../libs/DaisySP/Source/Utility/dsp.h" 1
 2091 0018 C7FEE67A 		vminnm.f32 s15, s15, s13
 2092              	@ 0 "" 2
 2093              	.LVL83:
  59:../../libs/DaisySP/Source/Utility/dsp.h **** }
 2094              		.loc 7 59 5 view .LVU587
  59:../../libs/DaisySP/Source/Utility/dsp.h **** }
 2095              		.loc 7 59 5 is_stmt 0 view .LVU588
 2096              		.thumb
 2097              		.syntax unified
 2098              	.LBE539:
 2099              	.LBE542:
 2100              	.LBE544:
 2101              	.LBE546:
 2102              	.LBE548:
 2103              		.loc 3 62 20 view .LVU589
 2104 001c C0ED057A 		vstr.32	s15, [r0, #20]
  63:AnalogDelay.cpp **** }
 2105              		.loc 3 63 1 view .LVU590
 2106 0020 7047     		bx	lr
 2107              	.L48:
ARM GAS  C:\Users\skipi\AppData\Local\Temp\ccgtPcFN.s 			page 58


 2108 0022 00BF     		.align	2
 2109              	.L47:
 2110 0024 ACC52737 		.word	925353388
 2111 0028 62BEBC38 		.word	951893602
 2112 002c 17B7D138 		.word	953267991
 2113              		.cfi_endproc
 2114              	.LFE4825:
 2116              		.section	.text._ZN11AnalogDelay7ProcessEf,"ax",%progbits
 2117              		.align	1
 2118              		.p2align 2,,3
 2119              		.global	_ZN11AnalogDelay7ProcessEf
 2120              		.syntax unified
 2121              		.thumb
 2122              		.thumb_func
 2123              		.fpu fpv5-d16
 2125              	_ZN11AnalogDelay7ProcessEf:
 2126              	.LVL84:
 2127              	.LFB4826:
  64:AnalogDelay.cpp **** 
  65:AnalogDelay.cpp **** // Processa un singolo campione audio
  66:AnalogDelay.cpp **** float AnalogDelay::Process(float buffer_in) {
 2128              		.loc 3 66 45 is_stmt 1 view -0
 2129              		.cfi_startproc
 2130              		@ args = 0, pretend = 0, frame = 24
 2131              		@ frame_needed = 0, uses_anonymous_args = 0
  67:AnalogDelay.cpp ****     // Applica smoothing al tempo di delay
  68:AnalogDelay.cpp ****     fonepole(currentDelayTime, _delayTime, _smooth_factor);
 2132              		.loc 3 68 5 view .LVU592
 2133              	.LBB555:
 2134              	.LBB556:
 153:../../libs/DaisySP/Source/Utility/dsp.h **** }
 2135              		.loc 7 153 9 is_stmt 0 view .LVU593
 2136 0000 934B     		ldr	r3, .L65
 2137              	.LBE556:
 2138              	.LBE555:
 2139              		.loc 3 68 13 view .LVU594
 2140 0002 D0ED016A 		vldr.32	s13, [r0, #4]
 2141              	.LVL85:
 2142              	.LBB560:
 2143              	.LBI555:
 151:../../libs/DaisySP/Source/Utility/dsp.h **** {
 2144              		.loc 7 151 13 is_stmt 1 view .LVU595
 2145              	.LBB557:
 153:../../libs/DaisySP/Source/Utility/dsp.h **** }
 2146              		.loc 7 153 5 view .LVU596
 153:../../libs/DaisySP/Source/Utility/dsp.h **** }
 2147              		.loc 7 153 9 is_stmt 0 view .LVU597
 2148 0006 93ED007A 		vldr.32	s14, [r3]
 2149 000a 90ED055A 		vldr.32	s10, [r0, #20]
 153:../../libs/DaisySP/Source/Utility/dsp.h **** }
 2150              		.loc 7 153 24 view .LVU598
 2151 000e 76EEC75A 		vsub.f32	s11, s13, s14
 2152              	.LBE557:
 2153              	.LBE560:
  69:AnalogDelay.cpp ****     
  70:AnalogDelay.cpp ****     // Calcola la posizione di lettura
  71:AnalogDelay.cpp ****     float delaySamples = _sampleRate * currentDelayTime;
ARM GAS  C:\Users\skipi\AppData\Local\Temp\ccgtPcFN.s 			page 59


  72:AnalogDelay.cpp ****     _readPos = _writePos - delaySamples;
 2154              		.loc 3 72 26 view .LVU599
 2155 0012 D0ED067A 		vldr.32	s15, [r0, #24]	@ int
 2156 0016 90ED006A 		vldr.32	s12, [r0]
 2157 001a F8EE677A 		vcvt.f32.u32	s15, s15
 2158              	.LBB561:
 2159              	.LBB558:
 153:../../libs/DaisySP/Source/Utility/dsp.h **** }
 2160              		.loc 7 153 9 view .LVU600
 2161 001e A5EE257A 		vfma.f32	s14, s10, s11
 2162              	.LBE558:
 2163              	.LBE561:
  66:AnalogDelay.cpp ****     // Applica smoothing al tempo di delay
 2164              		.loc 3 66 45 view .LVU601
 2165 0022 F0B5     		push	{r4, r5, r6, r7, lr}
 2166              		.cfi_def_cfa_offset 20
 2167              		.cfi_offset 4, -20
 2168              		.cfi_offset 5, -16
 2169              		.cfi_offset 6, -12
 2170              		.cfi_offset 7, -8
 2171              		.cfi_offset 14, -4
 2172 0024 87B0     		sub	sp, sp, #28
 2173              		.cfi_def_cfa_offset 48
  66:AnalogDelay.cpp ****     // Applica smoothing al tempo di delay
 2174              		.loc 3 66 45 view .LVU602
 2175 0026 0446     		mov	r4, r0
 2176              		.loc 3 72 26 view .LVU603
 2177 0028 E6EE477A 		vfms.f32	s15, s12, s14
  66:AnalogDelay.cpp ****     // Applica smoothing al tempo di delay
 2178              		.loc 3 66 45 view .LVU604
 2179 002c 8DED030A 		vstr.32	s0, [sp, #12]
 2180              	.LBB562:
 2181              	.LBB559:
 153:../../libs/DaisySP/Source/Utility/dsp.h **** }
 2182              		.loc 7 153 9 view .LVU605
 2183 0030 83ED007A 		vstr.32	s14, [r3]
 2184              	.LVL86:
 153:../../libs/DaisySP/Source/Utility/dsp.h **** }
 2185              		.loc 7 153 9 view .LVU606
 2186              	.LBE559:
 2187              	.LBE562:
  71:AnalogDelay.cpp ****     _readPos = _writePos - delaySamples;
 2188              		.loc 3 71 5 is_stmt 1 view .LVU607
 2189              		.loc 3 72 5 view .LVU608
  73:AnalogDelay.cpp ****     while(_readPos < 0) _readPos += _delayBufferSize;
 2190              		.loc 3 73 20 is_stmt 0 view .LVU609
 2191 0034 F5EEC07A 		vcmpe.f32	s15, #0
  72:AnalogDelay.cpp ****     while(_readPos < 0) _readPos += _delayBufferSize;
 2192              		.loc 3 72 14 view .LVU610
 2193 0038 C0ED077A 		vstr.32	s15, [r0, #28]
 2194              		.loc 3 73 5 is_stmt 1 view .LVU611
 2195              		.loc 3 73 20 view .LVU612
 2196 003c F1EE10FA 		vmrs	APSR_nzcv, FPSCR
 2197 0040 0AD5     		bpl	.L50
 2198              	.LVL87:
 2199              	.L52:
 2200              		.loc 3 73 25 discriminator 1 view .LVU613
ARM GAS  C:\Users\skipi\AppData\Local\Temp\ccgtPcFN.s 			page 60


 2201              		.loc 3 73 34 is_stmt 0 discriminator 1 view .LVU614
 2202 0042 9FED847A 		vldr.32	s14, .L65+4
 2203 0046 77EE877A 		vadd.f32	s15, s15, s14
 2204              		.loc 3 73 5 is_stmt 1 discriminator 1 view .LVU615
 2205              		.loc 3 73 20 discriminator 1 view .LVU616
 2206 004a F5EEC07A 		vcmpe.f32	s15, #0
 2207 004e F1EE10FA 		vmrs	APSR_nzcv, FPSCR
 2208 0052 F6D4     		bmi	.L52
 2209 0054 C4ED077A 		vstr.32	s15, [r4, #28]
 2210              	.L50:
  74:AnalogDelay.cpp ****     
  75:AnalogDelay.cpp ****     // Interpolazione cubica di Hermite
  76:AnalogDelay.cpp ****     int readPos_i = (int)_readPos;
 2211              		.loc 3 76 5 view .LVU617
 2212              		.loc 3 76 9 is_stmt 0 view .LVU618
 2213 0058 BDEEE77A 		vcvt.s32.f32	s14, s15
 2214 005c 17EE103A 		vmov	r3, s14	@ int
 2215              	.LVL88:
  77:AnalogDelay.cpp ****     float frac = _readPos - readPos_i;
 2216              		.loc 3 77 5 is_stmt 1 view .LVU619
 2217              		.loc 3 77 27 is_stmt 0 view .LVU620
 2218 0060 B8EEC77A 		vcvt.f32.s32	s14, s14
  78:AnalogDelay.cpp ****     
  79:AnalogDelay.cpp ****     // Calcola gli indici per l'interpolazione
  80:AnalogDelay.cpp ****     int im1 = readPos_i - 1;
  81:AnalogDelay.cpp ****     int ip1 = readPos_i + 1;
  82:AnalogDelay.cpp ****     int ip2 = readPos_i + 2;
  83:AnalogDelay.cpp ****     
  84:AnalogDelay.cpp ****     // Wrap degli indici
  85:AnalogDelay.cpp ****     if (im1 < 0) im1 += _delayBufferSize;
 2219              		.loc 3 85 5 view .LVU621
 2220 0064 5D1E     		subs	r5, r3, #1
  81:AnalogDelay.cpp ****     int ip2 = readPos_i + 2;
 2221              		.loc 3 81 9 view .LVU622
 2222 0066 03F10100 		add	r0, r3, #1
 2223              	.LVL89:
  77:AnalogDelay.cpp ****     float frac = _readPos - readPos_i;
 2224              		.loc 3 77 11 view .LVU623
 2225 006a 77EEC77A 		vsub.f32	s15, s15, s14
 2226              	.LVL90:
  80:AnalogDelay.cpp ****     int ip1 = readPos_i + 1;
 2227              		.loc 3 80 5 is_stmt 1 view .LVU624
  81:AnalogDelay.cpp ****     int ip2 = readPos_i + 2;
 2228              		.loc 3 81 5 view .LVU625
  82:AnalogDelay.cpp ****     
 2229              		.loc 3 82 5 view .LVU626
  82:AnalogDelay.cpp ****     
 2230              		.loc 3 82 9 is_stmt 0 view .LVU627
 2231 006e 03F10206 		add	r6, r3, #2
 2232              	.LVL91:
 2233              		.loc 3 85 5 is_stmt 1 view .LVU628
 2234 0072 02D5     		bpl	.L54
 2235              		.loc 3 85 18 discriminator 1 view .LVU629
 2236              		.loc 3 85 22 is_stmt 0 discriminator 1 view .LVU630
 2237 0074 4BF67F35 		movw	r5, #47999
 2238              	.LVL92:
 2239              		.loc 3 85 22 discriminator 1 view .LVU631
ARM GAS  C:\Users\skipi\AppData\Local\Temp\ccgtPcFN.s 			page 61


 2240 0078 1D44     		add	r5, r5, r3
 2241              	.LVL93:
 2242              	.L54:
  86:AnalogDelay.cpp ****     readPos_i %= _delayBufferSize;
 2243              		.loc 3 86 5 is_stmt 1 view .LVU632
  87:AnalogDelay.cpp ****     ip1 %= _delayBufferSize;
 2244              		.loc 3 87 5 view .LVU633
  88:AnalogDelay.cpp ****     ip2 %= _delayBufferSize;
 2245              		.loc 3 88 5 view .LVU634
  89:AnalogDelay.cpp ****     
  90:AnalogDelay.cpp ****     // Leggi i campioni per l'interpolazione
  91:AnalogDelay.cpp ****     float xm1 = _delayBuffer[im1];
 2246              		.loc 3 91 5 view .LVU635
 2247              		.loc 3 91 17 is_stmt 0 view .LVU636
 2248 007a 216A     		ldr	r1, [r4, #32]
 2249              	.LVL94:
  92:AnalogDelay.cpp ****     float x0 = _delayBuffer[readPos_i];
 2250              		.loc 3 92 5 is_stmt 1 view .LVU637
  86:AnalogDelay.cpp ****     ip1 %= _delayBufferSize;
 2251              		.loc 3 86 15 is_stmt 0 view .LVU638
 2252 007c 4BF68037 		movw	r7, #48000
 2253 0080 754A     		ldr	r2, .L65+8
  93:AnalogDelay.cpp ****     float x1 = _delayBuffer[ip1];
  94:AnalogDelay.cpp ****     float x2 = _delayBuffer[ip2];
  95:AnalogDelay.cpp ****     
  96:AnalogDelay.cpp ****     // Interpolazione di Hermite
  97:AnalogDelay.cpp ****     float c = (x1 - xm1) * 0.5f;
  98:AnalogDelay.cpp ****     float v = x0 - x1;
  99:AnalogDelay.cpp ****     float w = c + v;
 100:AnalogDelay.cpp ****     float a = w + v + (x2 - x0) * 0.5f;
 101:AnalogDelay.cpp ****     float b = w + a;
 102:AnalogDelay.cpp ****     float delayed = ((((a * frac) - b) * frac + c) * frac + x0);
 103:AnalogDelay.cpp ****     
 104:AnalogDelay.cpp ****     _lfo.SetFreq(1 - _delayTime);
 2254              		.loc 3 104 17 view .LVU639
 2255 0082 B7EE000A 		vmov.f32	s0, #1.0e+0
 2256              	.LVL95:
  91:AnalogDelay.cpp ****     float x0 = _delayBuffer[readPos_i];
 2257              		.loc 3 91 11 view .LVU640
 2258 0086 01EB8505 		add	r5, r1, r5, lsl #2
 2259              	.LVL96:
  99:AnalogDelay.cpp ****     float a = w + v + (x2 - x0) * 0.5f;
 2260              		.loc 3 99 11 view .LVU641
 2261 008a B6EE005A 		vmov.f32	s10, #5.0e-1
  97:AnalogDelay.cpp ****     float v = x0 - x1;
 2262              		.loc 3 97 19 view .LVU642
 2263 008e D5ED005A 		vldr.32	s11, [r5]
  86:AnalogDelay.cpp ****     ip1 %= _delayBufferSize;
 2264              		.loc 3 86 15 view .LVU643
 2265 0092 A2FB03C5 		umull	ip, r5, r2, r3
 2266              	.LVL97:
 2267              		.loc 3 104 17 view .LVU644
 2268 0096 30EE660A 		vsub.f32	s0, s0, s13
  86:AnalogDelay.cpp ****     ip1 %= _delayBufferSize;
 2269              		.loc 3 86 15 view .LVU645
 2270 009a AD0A     		lsrs	r5, r5, #10
 2271 009c 07FB1533 		mls	r3, r7, r5, r3
ARM GAS  C:\Users\skipi\AppData\Local\Temp\ccgtPcFN.s 			page 62


 2272              	.LVL98:
  92:AnalogDelay.cpp ****     float x1 = _delayBuffer[ip1];
 2273              		.loc 3 92 11 view .LVU646
 2274 00a0 01EB8303 		add	r3, r1, r3, lsl #2
 2275 00a4 93ED006A 		vldr.32	s12, [r3]
 2276              	.LVL99:
  93:AnalogDelay.cpp ****     float x2 = _delayBuffer[ip2];
 2277              		.loc 3 93 5 is_stmt 1 view .LVU647
  87:AnalogDelay.cpp ****     ip2 %= _delayBufferSize;
 2278              		.loc 3 87 9 is_stmt 0 view .LVU648
 2279 00a8 A2FB0053 		umull	r5, r3, r2, r0
  88:AnalogDelay.cpp ****     
 2280              		.loc 3 88 9 view .LVU649
 2281 00ac A2FB0652 		umull	r5, r2, r2, r6
 2282              	.LBB563:
 2283              	.LBB564:
  69:../../libs/DaisySP/Source/Synthesis/oscillator.h ****         phase_inc_ = CalcPhaseInc(f);
 2284              		.loc 5 69 20 view .LVU650
 2285 00b0 04F50035 		add	r5, r4, #131072
 2286              	.LBE564:
 2287              	.LBE563:
  87:AnalogDelay.cpp ****     ip2 %= _delayBufferSize;
 2288              		.loc 3 87 9 view .LVU651
 2289 00b4 9B0A     		lsrs	r3, r3, #10
  88:AnalogDelay.cpp ****     
 2290              		.loc 3 88 9 view .LVU652
 2291 00b6 920A     		lsrs	r2, r2, #10
  87:AnalogDelay.cpp ****     ip2 %= _delayBufferSize;
 2292              		.loc 3 87 9 view .LVU653
 2293 00b8 07FB1300 		mls	r0, r7, r3, r0
 2294              	.LVL100:
  88:AnalogDelay.cpp ****     
 2295              		.loc 3 88 9 view .LVU654
 2296 00bc 07FB1262 		mls	r2, r7, r2, r6
 2297              		.loc 3 104 17 view .LVU655
 2298 00c0 664F     		ldr	r7, .L65+12
  93:AnalogDelay.cpp ****     float x2 = _delayBuffer[ip2];
 2299              		.loc 3 93 11 view .LVU656
 2300 00c2 01EB8000 		add	r0, r1, r0, lsl #2
 105:AnalogDelay.cpp ****     float lfo = _lfo.Process() * _depth;
 106:AnalogDelay.cpp ****     _ps.SetTransposition(lfo * 2.0f);
 2301              		.loc 3 106 25 view .LVU657
 2302 00c6 04F12C06 		add	r6, r4, #44
 2303              	.LVL101:
  94:AnalogDelay.cpp ****     
 2304              		.loc 3 94 11 view .LVU658
 2305 00ca 01EB8201 		add	r1, r1, r2, lsl #2
 104:AnalogDelay.cpp ****     float lfo = _lfo.Process() * _depth;
 2306              		.loc 3 104 17 view .LVU659
 2307 00ce 2744     		add	r7, r7, r4
  93:AnalogDelay.cpp ****     float x2 = _delayBuffer[ip2];
 2308              		.loc 3 93 11 view .LVU660
 2309 00d0 D0ED006A 		vldr.32	s13, [r0]
 2310              	.LVL102:
  94:AnalogDelay.cpp ****     
 2311              		.loc 3 94 5 is_stmt 1 view .LVU661
  97:AnalogDelay.cpp ****     float v = x0 - x1;
ARM GAS  C:\Users\skipi\AppData\Local\Temp\ccgtPcFN.s 			page 63


 2312              		.loc 3 97 5 view .LVU662
 100:AnalogDelay.cpp ****     float b = w + a;
 2313              		.loc 3 100 27 is_stmt 0 view .LVU663
 2314 00d4 D1ED004A 		vldr.32	s9, [r1]
 2315              	.LBB569:
 2316              	.LBB565:
  70:../../libs/DaisySP/Source/Synthesis/oscillator.h ****     }
 2317              		.loc 5 70 34 view .LVU664
 2318 00d8 3846     		mov	r0, r7
 2319              	.LBE565:
 2320              	.LBE569:
  97:AnalogDelay.cpp ****     float v = x0 - x1;
 2321              		.loc 3 97 19 view .LVU665
 2322 00da 76EEE55A 		vsub.f32	s11, s13, s11
 2323              	.LVL103:
  98:AnalogDelay.cpp ****     float w = c + v;
 2324              		.loc 3 98 5 is_stmt 1 view .LVU666
 2325              	.LBB570:
 2326              	.LBB566:
  69:../../libs/DaisySP/Source/Synthesis/oscillator.h ****         phase_inc_ = CalcPhaseInc(f);
 2327              		.loc 5 69 20 is_stmt 0 view .LVU667
 2328 00de 85ED3B0A 		vstr.32	s0, [r5, #236]
  69:../../libs/DaisySP/Source/Synthesis/oscillator.h ****         phase_inc_ = CalcPhaseInc(f);
 2329              		.loc 5 69 20 view .LVU668
 2330              	.LBE566:
 2331              	.LBE570:
  98:AnalogDelay.cpp ****     float w = c + v;
 2332              		.loc 3 98 11 view .LVU669
 2333 00e2 76EE666A 		vsub.f32	s13, s12, s13
 2334              	.LVL104:
  99:AnalogDelay.cpp ****     float a = w + v + (x2 - x0) * 0.5f;
 2335              		.loc 3 99 5 is_stmt 1 view .LVU670
 100:AnalogDelay.cpp ****     float b = w + a;
 2336              		.loc 3 100 27 is_stmt 0 view .LVU671
 2337 00e6 74EEC64A 		vsub.f32	s9, s9, s12
  99:AnalogDelay.cpp ****     float a = w + v + (x2 - x0) * 0.5f;
 2338              		.loc 3 99 11 view .LVU672
 2339 00ea B0EE667A 		vmov.f32	s14, s13
 2340 00ee A5EE857A 		vfma.f32	s14, s11, s10
 2341              	.LVL105:
 100:AnalogDelay.cpp ****     float b = w + a;
 2342              		.loc 3 100 5 is_stmt 1 view .LVU673
 100:AnalogDelay.cpp ****     float b = w + a;
 2343              		.loc 3 100 17 is_stmt 0 view .LVU674
 2344 00f2 76EE876A 		vadd.f32	s13, s13, s14
 2345              	.LVL106:
 100:AnalogDelay.cpp ****     float b = w + a;
 2346              		.loc 3 100 11 view .LVU675
 2347 00f6 E4EE856A 		vfma.f32	s13, s9, s10
 2348              	.LVL107:
 101:AnalogDelay.cpp ****     float delayed = ((((a * frac) - b) * frac + c) * frac + x0);
 2349              		.loc 3 101 5 is_stmt 1 view .LVU676
 102:AnalogDelay.cpp ****     
 2350              		.loc 3 102 5 view .LVU677
 101:AnalogDelay.cpp ****     float delayed = ((((a * frac) - b) * frac + c) * frac + x0);
 2351              		.loc 3 101 11 is_stmt 0 view .LVU678
 2352 00fa 37EE267A 		vadd.f32	s14, s14, s13
ARM GAS  C:\Users\skipi\AppData\Local\Temp\ccgtPcFN.s 			page 64


 2353              	.LVL108:
 102:AnalogDelay.cpp ****     
 2354              		.loc 3 102 35 view .LVU679
 2355 00fe 97EEA67A 		vfnms.f32	s14, s15, s13
 2356              	.LVL109:
 102:AnalogDelay.cpp ****     
 2357              		.loc 3 102 40 view .LVU680
 2358 0102 27EE277A 		vmul.f32	s14, s14, s15
 102:AnalogDelay.cpp ****     
 2359              		.loc 3 102 47 view .LVU681
 2360 0106 A5EE857A 		vfma.f32	s14, s11, s10
 102:AnalogDelay.cpp ****     
 2361              		.loc 3 102 59 view .LVU682
 2362 010a A7EE276A 		vfma.f32	s12, s14, s15
 2363              	.LVL110:
 102:AnalogDelay.cpp ****     
 2364              		.loc 3 102 11 view .LVU683
 2365 010e 8DED046A 		vstr.32	s12, [sp, #16]
 104:AnalogDelay.cpp ****     float lfo = _lfo.Process() * _depth;
 2366              		.loc 3 104 5 is_stmt 1 view .LVU684
 2367              	.LVL111:
 2368              	.LBB571:
 2369              	.LBI563:
  67:../../libs/DaisySP/Source/Synthesis/oscillator.h ****     {
 2370              		.loc 5 67 17 view .LVU685
 2371              	.LBB567:
  69:../../libs/DaisySP/Source/Synthesis/oscillator.h ****         phase_inc_ = CalcPhaseInc(f);
 2372              		.loc 5 69 9 view .LVU686
  70:../../libs/DaisySP/Source/Synthesis/oscillator.h ****     }
 2373              		.loc 5 70 9 view .LVU687
  70:../../libs/DaisySP/Source/Synthesis/oscillator.h ****     }
 2374              		.loc 5 70 34 is_stmt 0 view .LVU688
 2375 0112 FFF7FEFF 		bl	_ZN7daisysp10Oscillator12CalcPhaseIncEf
 2376              	.LVL112:
  70:../../libs/DaisySP/Source/Synthesis/oscillator.h ****     }
 2377              		.loc 5 70 34 view .LVU689
 2378              	.LBE567:
 2379              	.LBE571:
 105:AnalogDelay.cpp ****     _ps.SetTransposition(lfo * 2.0f);
 2380              		.loc 3 105 29 view .LVU690
 2381 0116 3846     		mov	r0, r7
 2382              	.LBB572:
 2383              	.LBB568:
  70:../../libs/DaisySP/Source/Synthesis/oscillator.h ****     }
 2384              		.loc 5 70 20 view .LVU691
 2385 0118 85ED400A 		vstr.32	s0, [r5, #256]
 2386              	.LVL113:
  70:../../libs/DaisySP/Source/Synthesis/oscillator.h ****     }
 2387              		.loc 5 70 20 view .LVU692
 2388              	.LBE568:
 2389              	.LBE572:
 105:AnalogDelay.cpp ****     _ps.SetTransposition(lfo * 2.0f);
 2390              		.loc 3 105 5 is_stmt 1 view .LVU693
 105:AnalogDelay.cpp ****     _ps.SetTransposition(lfo * 2.0f);
 2391              		.loc 3 105 29 is_stmt 0 view .LVU694
 2392 011c FFF7FEFF 		bl	_ZN7daisysp10Oscillator7ProcessEv
 2393              	.LVL114:
ARM GAS  C:\Users\skipi\AppData\Local\Temp\ccgtPcFN.s 			page 65


 2394              		.loc 3 106 5 is_stmt 1 view .LVU695
 105:AnalogDelay.cpp ****     _ps.SetTransposition(lfo * 2.0f);
 2395              		.loc 3 105 34 is_stmt 0 view .LVU696
 2396 0120 94ED047A 		vldr.32	s14, [r4, #16]
 2397              	.LBB573:
 2398              	.LBB574:
 151:../../libs/DaisySP/Source/Effects/pitchshifter.h ****         {
 2399              		.loc 1 151 9 view .LVU697
 2400 0124 D5ED237A 		vldr.32	s15, [r5, #140]
 2401              	.LBE574:
 2402              	.LBE573:
 105:AnalogDelay.cpp ****     _ps.SetTransposition(lfo * 2.0f);
 2403              		.loc 3 105 34 view .LVU698
 2404 0128 20EE070A 		vmul.f32	s0, s0, s14
 2405              	.LVL115:
 2406              		.loc 3 106 30 view .LVU699
 2407 012c 30EE000A 		vadd.f32	s0, s0, s0
 2408              	.LVL116:
 2409              	.LBB577:
 2410              	.LBI573:
 147:../../libs/DaisySP/Source/Effects/pitchshifter.h ****     {
 2411              		.loc 1 147 10 is_stmt 1 view .LVU700
 2412              	.LBB575:
 149:../../libs/DaisySP/Source/Effects/pitchshifter.h ****         uint8_t idx;
 2413              		.loc 1 149 9 view .LVU701
 150:../../libs/DaisySP/Source/Effects/pitchshifter.h ****         if(transpose_ != transpose || force_recalc_)
 2414              		.loc 1 150 9 view .LVU702
 151:../../libs/DaisySP/Source/Effects/pitchshifter.h ****         {
 2415              		.loc 1 151 9 view .LVU703
 2416 0130 B4EE670A 		vcmp.f32	s0, s15
 2417 0134 F1EE10FA 		vmrs	APSR_nzcv, FPSCR
 2418 0138 03D1     		bne	.L55
 151:../../libs/DaisySP/Source/Effects/pitchshifter.h ****         {
 2419              		.loc 1 151 36 is_stmt 0 view .LVU704
 2420 013a 95F85030 		ldrb	r3, [r5, #80]	@ zero_extendqisi2
 2421 013e 002B     		cmp	r3, #0
 2422 0140 5AD0     		beq	.L56
 2423              	.L55:
 153:../../libs/DaisySP/Source/Effects/pitchshifter.h ****             idx        = (uint8_t)fabsf(transpose);
 2424              		.loc 1 153 13 is_stmt 1 view .LVU705
 154:../../libs/DaisySP/Source/Effects/pitchshifter.h ****             ratio      = semitone_ratios_[idx % 12];
 2425              		.loc 1 154 40 is_stmt 0 view .LVU706
 2426 0142 F0EEC06A 		vabs.f32	s13, s0
 155:../../libs/DaisySP/Source/Effects/pitchshifter.h ****             ratio *= (uint8_t)(fabsf(transpose) / 12) + 1;
 2427              		.loc 1 155 47 view .LVU707
 2428 0146 464A     		ldr	r2, .L65+16
 156:../../libs/DaisySP/Source/Effects/pitchshifter.h ****             if(transpose > 0.0f)
 2429              		.loc 1 156 49 view .LVU708
 2430 0148 F2EE085A 		vmov.f32	s11, #1.2e+1
 155:../../libs/DaisySP/Source/Effects/pitchshifter.h ****             ratio *= (uint8_t)(fabsf(transpose) / 12) + 1;
 2431              		.loc 1 155 24 view .LVU709
 2432 014c 48F22201 		movw	r1, #32802
 165:../../libs/DaisySP/Source/Effects/pitchshifter.h ****             if(mod_freq_ < 0.0f)
 2433              		.loc 1 165 33 view .LVU710
 2434 0150 BFEE007A 		vmov.f32	s14, #-1.0e+0
 165:../../libs/DaisySP/Source/Effects/pitchshifter.h ****             if(mod_freq_ < 0.0f)
 2435              		.loc 1 165 41 view .LVU711
ARM GAS  C:\Users\skipi\AppData\Local\Temp\ccgtPcFN.s 			page 66


 2436 0154 95ED156A 		vldr.32	s12, [r5, #84]
 157:../../libs/DaisySP/Source/Effects/pitchshifter.h ****             {
 2437              		.loc 1 157 13 view .LVU712
 2438 0158 B5EEC00A 		vcmpe.f32	s0, #0
 153:../../libs/DaisySP/Source/Effects/pitchshifter.h ****             idx        = (uint8_t)fabsf(transpose);
 2439              		.loc 1 153 24 view .LVU713
 2440 015c 85ED230A 		vstr.32	s0, [r5, #140]
 156:../../libs/DaisySP/Source/Effects/pitchshifter.h ****             if(transpose > 0.0f)
 2441              		.loc 1 156 49 view .LVU714
 2442 0160 C6EEA57A 		vdiv.f32	s15, s13, s11
 154:../../libs/DaisySP/Source/Effects/pitchshifter.h ****             ratio      = semitone_ratios_[idx % 12];
 2443              		.loc 1 154 13 is_stmt 1 view .LVU715
 2444              	.LVL117:
 155:../../libs/DaisySP/Source/Effects/pitchshifter.h ****             ratio *= (uint8_t)(fabsf(transpose) / 12) + 1;
 2445              		.loc 1 155 13 view .LVU716
 166:../../libs/DaisySP/Source/Effects/pitchshifter.h ****             {
 2446              		.loc 1 166 13 is_stmt 0 view .LVU717
 2447 0164 DFED3F5A 		vldr.32	s11, .L65+20
 154:../../libs/DaisySP/Source/Effects/pitchshifter.h ****             ratio      = semitone_ratios_[idx % 12];
 2448              		.loc 1 154 24 view .LVU718
 2449 0168 FCEEE66A 		vcvt.u32.f32	s13, s13
 2450              	.LVL118:
 157:../../libs/DaisySP/Source/Effects/pitchshifter.h ****             {
 2451              		.loc 1 157 13 view .LVU719
 2452 016c F1EE10FA 		vmrs	APSR_nzcv, FPSCR
 154:../../libs/DaisySP/Source/Effects/pitchshifter.h ****             ratio      = semitone_ratios_[idx % 12];
 2453              		.loc 1 154 24 view .LVU720
 2454 0170 CDED016A 		vstr.32	s13, [sp, #4]	@ int
 155:../../libs/DaisySP/Source/Effects/pitchshifter.h ****             ratio *= (uint8_t)(fabsf(transpose) / 12) + 1;
 2455              		.loc 1 155 47 view .LVU721
 2456 0174 9DF80430 		ldrb	r3, [sp, #4]	@ zero_extendqisi2
 2457 0178 A2FB0302 		umull	r0, r2, r2, r3
 2458 017c 4FEAD202 		lsr	r2, r2, #3
 2459 0180 02EB4202 		add	r2, r2, r2, lsl #1
 156:../../libs/DaisySP/Source/Effects/pitchshifter.h ****             if(transpose > 0.0f)
 2460              		.loc 1 156 22 view .LVU722
 2461 0184 FCEEE77A 		vcvt.u32.f32	s15, s15
 155:../../libs/DaisySP/Source/Effects/pitchshifter.h ****             ratio *= (uint8_t)(fabsf(transpose) / 12) + 1;
 2462              		.loc 1 155 47 view .LVU723
 2463 0188 A3EB8203 		sub	r3, r3, r2, lsl #2
 156:../../libs/DaisySP/Source/Effects/pitchshifter.h ****             if(transpose > 0.0f)
 2464              		.loc 1 156 22 view .LVU724
 2465 018c CDED027A 		vstr.32	s15, [sp, #8]	@ int
 155:../../libs/DaisySP/Source/Effects/pitchshifter.h ****             ratio *= (uint8_t)(fabsf(transpose) / 12) + 1;
 2466              		.loc 1 155 24 view .LVU725
 2467 0190 51FA83F3 		uxtab	r3, r1, r3
 156:../../libs/DaisySP/Source/Effects/pitchshifter.h ****             if(transpose > 0.0f)
 2468              		.loc 1 156 22 view .LVU726
 2469 0194 9DF80820 		ldrb	r2, [sp, #8]	@ zero_extendqisi2
 157:../../libs/DaisySP/Source/Effects/pitchshifter.h ****             {
 2470              		.loc 1 157 13 view .LVU727
 2471 0198 C8BF     		it	gt
 2472 019a 0121     		movgt	r1, #1
 155:../../libs/DaisySP/Source/Effects/pitchshifter.h ****             ratio *= (uint8_t)(fabsf(transpose) / 12) + 1;
 2473              		.loc 1 155 24 view .LVU728
 2474 019c 04EB8303 		add	r3, r4, r3, lsl #2
 157:../../libs/DaisySP/Source/Effects/pitchshifter.h ****             {
ARM GAS  C:\Users\skipi\AppData\Local\Temp\ccgtPcFN.s 			page 67


 2475              		.loc 1 157 13 view .LVU729
 2476 01a0 D8BF     		it	le
 2477 01a2 0021     		movle	r1, #0
 156:../../libs/DaisySP/Source/Effects/pitchshifter.h ****             if(transpose > 0.0f)
 2478              		.loc 1 156 55 view .LVU730
 2479 01a4 0132     		adds	r2, r2, #1
 155:../../libs/DaisySP/Source/Effects/pitchshifter.h ****             ratio *= (uint8_t)(fabsf(transpose) / 12) + 1;
 2480              		.loc 1 155 24 view .LVU731
 2481 01a6 D3ED0B6A 		vldr.32	s13, [r3, #44]
 2482              	.LVL119:
 156:../../libs/DaisySP/Source/Effects/pitchshifter.h ****             if(transpose > 0.0f)
 2483              		.loc 1 156 13 is_stmt 1 view .LVU732
 157:../../libs/DaisySP/Source/Effects/pitchshifter.h ****             {
 2484              		.loc 1 157 13 view .LVU733
 156:../../libs/DaisySP/Source/Effects/pitchshifter.h ****             if(transpose > 0.0f)
 2485              		.loc 1 156 19 is_stmt 0 view .LVU734
 2486 01aa 07EE902A 		vmov	s15, r2	@ int
 157:../../libs/DaisySP/Source/Effects/pitchshifter.h ****             {
 2487              		.loc 1 157 13 view .LVU735
 2488 01ae 85F85810 		strb	r1, [r5, #88]
 165:../../libs/DaisySP/Source/Effects/pitchshifter.h ****             if(mod_freq_ < 0.0f)
 2489              		.loc 1 165 13 is_stmt 1 view .LVU736
 156:../../libs/DaisySP/Source/Effects/pitchshifter.h ****             if(transpose > 0.0f)
 2490              		.loc 1 156 19 is_stmt 0 view .LVU737
 2491 01b2 F8EEE77A 		vcvt.f32.s32	s15, s15
 165:../../libs/DaisySP/Source/Effects/pitchshifter.h ****             if(mod_freq_ < 0.0f)
 2492              		.loc 1 165 33 view .LVU738
 2493 01b6 A6EEA77A 		vfma.f32	s14, s13, s15
 165:../../libs/DaisySP/Source/Effects/pitchshifter.h ****             if(mod_freq_ < 0.0f)
 2494              		.loc 1 165 48 view .LVU739
 2495 01ba D5ED137A 		vldr.32	s15, [r5, #76]	@ int
 2496 01be F8EE676A 		vcvt.f32.u32	s13, s15
 2497              	.LVL120:
 165:../../libs/DaisySP/Source/Effects/pitchshifter.h ****             if(mod_freq_ < 0.0f)
 2498              		.loc 1 165 41 view .LVU740
 2499 01c2 67EE067A 		vmul.f32	s15, s14, s12
 165:../../libs/DaisySP/Source/Effects/pitchshifter.h ****             if(mod_freq_ < 0.0f)
 2500              		.loc 1 165 48 view .LVU741
 2501 01c6 87EEA60A 		vdiv.f32	s0, s15, s13
 166:../../libs/DaisySP/Source/Effects/pitchshifter.h ****             {
 2502              		.loc 1 166 13 is_stmt 1 view .LVU742
 2503 01ca B4EEE50A 		vcmpe.f32	s0, s11
 2504 01ce F1EE10FA 		vmrs	APSR_nzcv, FPSCR
 2505 01d2 37D4     		bmi	.L57
 165:../../libs/DaisySP/Source/Effects/pitchshifter.h ****             if(mod_freq_ < 0.0f)
 2506              		.loc 1 165 23 is_stmt 0 view .LVU743
 2507 01d4 85ED120A 		vstr.32	s0, [r5, #72]
 2508              	.L58:
 170:../../libs/DaisySP/Source/Effects/pitchshifter.h ****             phs_[1].SetFreq(mod_freq_);
 2509              		.loc 1 170 13 is_stmt 1 view .LVU744
 170:../../libs/DaisySP/Source/Effects/pitchshifter.h ****             phs_[1].SetFreq(mod_freq_);
 2510              		.loc 1 170 28 is_stmt 0 view .LVU745
 2511 01d8 2348     		ldr	r0, .L65+24
 2512 01da 3044     		add	r0, r0, r6
 2513 01dc FFF7FEFF 		bl	_ZN7daisysp6Phasor7SetFreqEf
 2514              	.LVL121:
 171:../../libs/DaisySP/Source/Effects/pitchshifter.h ****             if(force_recalc_)
ARM GAS  C:\Users\skipi\AppData\Local\Temp\ccgtPcFN.s 			page 68


 2515              		.loc 1 171 13 is_stmt 1 view .LVU746
 171:../../libs/DaisySP/Source/Effects/pitchshifter.h ****             if(force_recalc_)
 2516              		.loc 1 171 28 is_stmt 0 view .LVU747
 2517 01e0 2248     		ldr	r0, .L65+28
 2518 01e2 95ED120A 		vldr.32	s0, [r5, #72]
 2519 01e6 3044     		add	r0, r0, r6
 2520 01e8 FFF7FEFF 		bl	_ZN7daisysp6Phasor7SetFreqEf
 2521              	.LVL122:
 172:../../libs/DaisySP/Source/Effects/pitchshifter.h ****             {
 2522              		.loc 1 172 13 is_stmt 1 view .LVU748
 2523 01ec 95F85030 		ldrb	r3, [r5, #80]	@ zero_extendqisi2
 2524 01f0 13B1     		cbz	r3, .L56
 174:../../libs/DaisySP/Source/Effects/pitchshifter.h ****             }
 2525              		.loc 1 174 17 view .LVU749
 174:../../libs/DaisySP/Source/Effects/pitchshifter.h ****             }
 2526              		.loc 1 174 31 is_stmt 0 view .LVU750
 2527 01f2 0023     		movs	r3, #0
 2528 01f4 85F85030 		strb	r3, [r5, #80]
 2529              	.L56:
 2530              	.LVL123:
 174:../../libs/DaisySP/Source/Effects/pitchshifter.h ****             }
 2531              		.loc 1 174 31 view .LVU751
 2532              	.LBE575:
 2533              	.LBE577:
 107:AnalogDelay.cpp ****     float delayed_shifted = _ps.Process(delayed);
 2534              		.loc 3 107 5 is_stmt 1 view .LVU752
 2535              		.loc 3 107 40 is_stmt 0 view .LVU753
 2536 01f8 04A9     		add	r1, sp, #16
 2537 01fa 3046     		mov	r0, r6
 2538 01fc FFF7FEFF 		bl	_ZN7daisysp12PitchShifter7ProcessERf
 2539              	.LVL124:
 108:AnalogDelay.cpp ****     
 109:AnalogDelay.cpp ****     float buffer_out = _crossfade.Process(buffer_in, delayed_shifted);
 2540              		.loc 3 109 42 view .LVU754
 2541 0200 05AA     		add	r2, sp, #20
 2542 0202 03A9     		add	r1, sp, #12
 2543 0204 04F12400 		add	r0, r4, #36
 107:AnalogDelay.cpp ****     float delayed_shifted = _ps.Process(delayed);
 2544              		.loc 3 107 48 view .LVU755
 2545 0208 8DED050A 		vstr.32	s0, [sp, #20]
 2546              		.loc 3 109 5 is_stmt 1 view .LVU756
 2547              		.loc 3 109 42 is_stmt 0 view .LVU757
 2548 020c FFF7FEFF 		bl	_ZN7daisysp9CrossFade7ProcessERfS1_
 2549              	.LVL125:
 110:AnalogDelay.cpp ****     
 111:AnalogDelay.cpp ****     _delayBuffer[_writePos] = buffer_in + delayed_shifted * _feedback;
 2550              		.loc 3 111 5 is_stmt 1 view .LVU758
 2551              		.loc 3 111 18 is_stmt 0 view .LVU759
 2552 0210 A069     		ldr	r0, [r4, #24]
 2553              		.loc 3 111 41 view .LVU760
 2554 0212 D4ED026A 		vldr.32	s13, [r4, #8]
 112:AnalogDelay.cpp ****     _writePos = (_writePos + 1) % _delayBufferSize;
 2555              		.loc 3 112 28 view .LVU761
 2556 0216 421C     		adds	r2, r0, #1
 111:AnalogDelay.cpp ****     _writePos = (_writePos + 1) % _delayBufferSize;
 2557              		.loc 3 111 41 view .LVU762
 2558 0218 9DED057A 		vldr.32	s14, [sp, #20]
ARM GAS  C:\Users\skipi\AppData\Local\Temp\ccgtPcFN.s 			page 69


 2559 021c DDED037A 		vldr.32	s15, [sp, #12]
 2560              		.loc 3 112 33 view .LVU763
 2561 0220 0D4B     		ldr	r3, .L65+8
 111:AnalogDelay.cpp ****     _writePos = (_writePos + 1) % _delayBufferSize;
 2562              		.loc 3 111 27 view .LVU764
 2563 0222 216A     		ldr	r1, [r4, #32]
 111:AnalogDelay.cpp ****     _writePos = (_writePos + 1) % _delayBufferSize;
 2564              		.loc 3 111 41 view .LVU765
 2565 0224 E6EE877A 		vfma.f32	s15, s13, s14
 2566              		.loc 3 112 33 view .LVU766
 2567 0228 A3FB0253 		umull	r5, r3, r3, r2
 111:AnalogDelay.cpp ****     _writePos = (_writePos + 1) % _delayBufferSize;
 2568              		.loc 3 111 27 view .LVU767
 2569 022c 01EB8001 		add	r1, r1, r0, lsl #2
 2570              		.loc 3 112 33 view .LVU768
 2571 0230 4BF68030 		movw	r0, #48000
 2572 0234 9B0A     		lsrs	r3, r3, #10
 2573 0236 00FB1323 		mls	r3, r0, r3, r2
 111:AnalogDelay.cpp ****     _writePos = (_writePos + 1) % _delayBufferSize;
 2574              		.loc 3 111 29 view .LVU769
 2575 023a C1ED007A 		vstr.32	s15, [r1]
 2576              		.loc 3 112 5 is_stmt 1 view .LVU770
 2577              		.loc 3 112 15 is_stmt 0 view .LVU771
 2578 023e A361     		str	r3, [r4, #24]
 113:AnalogDelay.cpp ****     
 114:AnalogDelay.cpp ****     return buffer_out;
 2579              		.loc 3 114 5 is_stmt 1 view .LVU772
 115:AnalogDelay.cpp **** }
 2580              		.loc 3 115 1 is_stmt 0 view .LVU773
 2581 0240 07B0     		add	sp, sp, #28
 2582              		.cfi_remember_state
 2583              		.cfi_def_cfa_offset 20
 2584              		@ sp needed
 2585 0242 F0BD     		pop	{r4, r5, r6, r7, pc}
 2586              	.LVL126:
 2587              	.L57:
 2588              		.cfi_restore_state
 2589              	.LBB578:
 2590              	.LBB576:
 168:../../libs/DaisySP/Source/Effects/pitchshifter.h ****             }
 2591              		.loc 1 168 17 is_stmt 1 view .LVU774
 2592 0244 B0EE650A 		vmov.f32	s0, s11
 168:../../libs/DaisySP/Source/Effects/pitchshifter.h ****             }
 2593              		.loc 1 168 27 is_stmt 0 view .LVU775
 2594 0248 C5ED125A 		vstr.32	s11, [r5, #72]
 2595 024c C4E7     		b	.L58
 2596              	.L66:
 2597 024e 00BF     		.align	2
 2598              	.L65:
 2599 0250 00000000 		.word	.LANCHOR0
 2600 0254 00803B47 		.word	1195081728
 2601 0258 F1197605 		.word	91625969
 2602 025c E4000200 		.word	131300
 2603 0260 ABAAAAAA 		.word	-1431655765
 2604 0264 00000000 		.word	0
 2605 0268 30000200 		.word	131120
 2606 026c 40000200 		.word	131136
ARM GAS  C:\Users\skipi\AppData\Local\Temp\ccgtPcFN.s 			page 70


 2607              	.LBE576:
 2608              	.LBE578:
 2609              		.cfi_endproc
 2610              	.LFE4826:
 2612              		.weak	_ZZN7daisysp6myrandEvE4seed
 2613              		.section	.data._ZZN7daisysp6myrandEvE4seed,"awG",%progbits,_ZZN7daisysp6myrandEvE4seed,comdat
 2614              		.align	2
 2617              	_ZZN7daisysp6myrandEvE4seed:
 2618 0000 01000000 		.word	1
 2619              		.section	.bss._ZL16currentDelayTime,"aw",%nobits
 2620              		.align	2
 2621              		.set	.LANCHOR0,. + 0
 2624              	_ZL16currentDelayTime:
 2625 0000 00000000 		.space	4
 2626              		.section	.sdram_bss,"aw"
 2627              		.align	2
 2630              	_ZL18delayBufferStorage:
 2631 0000 00000000 		.space	192000
 2631      00000000 
 2631      00000000 
 2631      00000000 
 2631      00000000 
 2632              		.text
 2633              	.Letext0:
 2634              		.file 8 "c:\\program files\\daisytoolchain\\arm-none-eabi\\include\\machine\\_default_types.h"
 2635              		.file 9 "c:\\program files\\daisytoolchain\\arm-none-eabi\\include\\sys\\_stdint.h"
 2636              		.file 10 "c:\\program files\\daisytoolchain\\arm-none-eabi\\include\\stdint.h"
 2637              		.file 11 "c:\\program files\\daisytoolchain\\lib\\gcc\\arm-none-eabi\\10.2.1\\include\\stddef.h"
 2638              		.file 12 "c:\\program files\\daisytoolchain\\arm-none-eabi\\include\\c++\\10.2.1\\cmath"
 2639              		.file 13 "c:\\program files\\daisytoolchain\\arm-none-eabi\\include\\c++\\10.2.1\\bits\\std_abs.h"
 2640              		.file 14 "c:\\program files\\daisytoolchain\\arm-none-eabi\\include\\c++\\10.2.1\\cstdlib"
 2641              		.file 15 "c:\\program files\\daisytoolchain\\arm-none-eabi\\include\\c++\\10.2.1\\cstdint"
 2642              		.file 16 "c:\\program files\\daisytoolchain\\arm-none-eabi\\include\\c++\\10.2.1\\type_traits"
 2643              		.file 17 "c:\\program files\\daisytoolchain\\arm-none-eabi\\include\\c++\\10.2.1\\debug\\debug.h"
 2644              		.file 18 "c:\\program files\\daisytoolchain\\arm-none-eabi\\include\\c++\\10.2.1\\arm-none-eabi\\t
 2645              		.file 19 "c:\\program files\\daisytoolchain\\arm-none-eabi\\include\\c++\\10.2.1\\bits\\algorithmf
 2646              		.file 20 "c:\\program files\\daisytoolchain\\arm-none-eabi\\include\\c++\\10.2.1\\bits\\stl_pair.h
 2647              		.file 21 "c:\\program files\\daisytoolchain\\arm-none-eabi\\include\\c++\\10.2.1\\bits\\exception_
 2648              		.file 22 "c:\\program files\\daisytoolchain\\arm-none-eabi\\include\\c++\\10.2.1\\cstdarg"
 2649              		.file 23 "c:\\program files\\daisytoolchain\\arm-none-eabi\\include\\c++\\10.2.1\\cstdio"
 2650              		.file 24 "c:\\program files\\daisytoolchain\\arm-none-eabi\\include\\c++\\10.2.1\\cstring"
 2651              		.file 25 "c:\\program files\\daisytoolchain\\arm-none-eabi\\include\\c++\\10.2.1\\cwchar"
 2652              		.file 26 "c:\\program files\\daisytoolchain\\arm-none-eabi\\include\\c++\\10.2.1\\clocale"
 2653              		.file 27 "c:\\program files\\daisytoolchain\\arm-none-eabi\\include\\c++\\10.2.1\\bits\\basic_stri
 2654              		.file 28 "c:\\program files\\daisytoolchain\\arm-none-eabi\\include\\c++\\10.2.1\\bits\\stl_tempbu
 2655              		.file 29 "c:\\program files\\daisytoolchain\\arm-none-eabi\\include\\c++\\10.2.1\\bits\\predefined
 2656              		.file 30 "c:\\program files\\daisytoolchain\\arm-none-eabi\\include\\sys\\_types.h"
 2657              		.file 31 "c:\\program files\\daisytoolchain\\arm-none-eabi\\include\\sys\\reent.h"
 2658              		.file 32 "c:\\program files\\daisytoolchain\\arm-none-eabi\\include\\sys\\lock.h"
 2659              		.file 33 "c:\\program files\\daisytoolchain\\arm-none-eabi\\include\\math.h"
 2660              		.file 34 "c:\\program files\\daisytoolchain\\arm-none-eabi\\include\\stdlib.h"
 2661              		.file 35 "c:\\program files\\daisytoolchain\\arm-none-eabi\\include\\c++\\10.2.1\\math.h"
 2662              		.file 36 "c:\\program files\\daisytoolchain\\arm-none-eabi\\include\\c++\\10.2.1\\stdlib.h"
 2663              		.file 37 "../../libs/libDaisy/src/daisy_core.h"
 2664              		.file 38 "../../libs/libDaisy/src/util/wav_format.h"
 2665              		.file 39 "../../libs/libDaisy/src/dev/sr_595.h"
 2666              		.file 40 "../../libs/libDaisy/src/dev/max11300.h"
ARM GAS  C:\Users\skipi\AppData\Local\Temp\ccgtPcFN.s 			page 71


 2667              		.file 41 "../../libs/libDaisy/src/daisy_seed.h"
 2668              		.file 42 "c:\\program files\\daisytoolchain\\lib\\gcc\\arm-none-eabi\\10.2.1\\include\\stdarg.h"
 2669              		.file 43 "c:\\program files\\daisytoolchain\\arm-none-eabi\\include\\stdio.h"
 2670              		.file 44 "c:\\program files\\daisytoolchain\\arm-none-eabi\\include\\string.h"
 2671              		.file 45 "../../libs/DaisySP/Source/Control/adenv.h"
 2672              		.file 46 "c:\\program files\\daisytoolchain\\arm-none-eabi\\include\\wchar.h"
 2673              		.file 47 "c:\\program files\\daisytoolchain\\arm-none-eabi\\include\\locale.h"
 2674              		.file 48 "AnalogDelay.h"
 2675              		.file 49 "<built-in>"
ARM GAS  C:\Users\skipi\AppData\Local\Temp\ccgtPcFN.s 			page 72

