ARM GAS  C:\Users\matte\AppData\Local\Temp\ccIv7HUw.s 			page 1


   1              		.cpu cortex-m7
   2              		.eabi_attribute 28, 1
   3              		.eabi_attribute 20, 1
   4              		.eabi_attribute 21, 1
   5              		.eabi_attribute 23, 3
   6              		.eabi_attribute 24, 1
   7              		.eabi_attribute 25, 1
   8              		.eabi_attribute 26, 1
   9              		.eabi_attribute 30, 2
  10              		.eabi_attribute 34, 1
  11              		.eabi_attribute 18, 4
  12              		.file	"main.cpp"
  13              		.text
  14              	.Ltext0:
  15              		.cfi_sections	.debug_frame
  16              		.section	.text._ZN5daisy9DaisySeedD2Ev,"axG",%progbits,_ZN5daisy9DaisySeedD5Ev,comdat
  17              		.align	1
  18              		.p2align 2,,3
  19              		.weak	_ZN5daisy9DaisySeedD2Ev
  20              		.arch armv7e-m
  21              		.syntax unified
  22              		.thumb
  23              		.thumb_func
  24              		.fpu fpv5-d16
  26              	_ZN5daisy9DaisySeedD2Ev:
  27              	.LVL0:
  28              	.LFB2646:
  29              		.file 1 "../../libs/libDaisy/src/daisy_seed.h"
   1:../../libs/libDaisy/src/daisy_seed.h **** #pragma once
   2:../../libs/libDaisy/src/daisy_seed.h **** #ifndef DSY_SEED_H
   3:../../libs/libDaisy/src/daisy_seed.h **** #define DSY_SEED_H
   4:../../libs/libDaisy/src/daisy_seed.h **** 
   5:../../libs/libDaisy/src/daisy_seed.h **** #include "daisy.h"
   6:../../libs/libDaisy/src/daisy_seed.h **** 
   7:../../libs/libDaisy/src/daisy_seed.h **** //Uncomment this out if you're still using the rev2 hardware
   8:../../libs/libDaisy/src/daisy_seed.h **** //#define SEED_REV2
   9:../../libs/libDaisy/src/daisy_seed.h **** 
  10:../../libs/libDaisy/src/daisy_seed.h **** namespace daisy
  11:../../libs/libDaisy/src/daisy_seed.h **** {
  12:../../libs/libDaisy/src/daisy_seed.h **** /**
  13:../../libs/libDaisy/src/daisy_seed.h ****    @brief This is the higher-level interface for the Daisy board. \n 
  14:../../libs/libDaisy/src/daisy_seed.h ****     All basic peripheral configuration/initialization is setup here. \n
  15:../../libs/libDaisy/src/daisy_seed.h **** 
  16:../../libs/libDaisy/src/daisy_seed.h ****    @ingroup boards
  17:../../libs/libDaisy/src/daisy_seed.h **** */
  18:../../libs/libDaisy/src/daisy_seed.h **** class DaisySeed
  19:../../libs/libDaisy/src/daisy_seed.h **** {
  20:../../libs/libDaisy/src/daisy_seed.h ****   public:
  21:../../libs/libDaisy/src/daisy_seed.h ****     DaisySeed() {}
  22:../../libs/libDaisy/src/daisy_seed.h ****     ~DaisySeed() {}
  30              		.loc 1 22 5 view -0
  31              		.cfi_startproc
  32              		@ args = 0, pretend = 0, frame = 0
  33              		@ frame_needed = 0, uses_anonymous_args = 0
  34              		@ link register save eliminated.
  35              	.LBB344:
  36              	.LBI344:
ARM GAS  C:\Users\matte\AppData\Local\Temp\ccIv7HUw.s 			page 2


  37              		.file 2 "../../libs/libDaisy/src/dev/codec_ak4556.h"
   1:../../libs/libDaisy/src/dev/codec_ak4556.h **** #pragma once
   2:../../libs/libDaisy/src/dev/codec_ak4556.h **** #ifndef DSY_CODEC_AK4556_H
   3:../../libs/libDaisy/src/dev/codec_ak4556.h **** #define DSY_CODEC_AK4556_H
   4:../../libs/libDaisy/src/dev/codec_ak4556.h **** 
   5:../../libs/libDaisy/src/dev/codec_ak4556.h **** #include "daisy_core.h"
   6:../../libs/libDaisy/src/dev/codec_ak4556.h **** #include "per/gpio.h"
   7:../../libs/libDaisy/src/dev/codec_ak4556.h **** 
   8:../../libs/libDaisy/src/dev/codec_ak4556.h **** namespace daisy
   9:../../libs/libDaisy/src/dev/codec_ak4556.h **** {
  10:../../libs/libDaisy/src/dev/codec_ak4556.h **** /** @brief Ak4556 Codec support 
  11:../../libs/libDaisy/src/dev/codec_ak4556.h ****  ** @author shensley
  12:../../libs/libDaisy/src/dev/codec_ak4556.h ****  ** @addtogroup codec
  13:../../libs/libDaisy/src/dev/codec_ak4556.h ****  ** 
  14:../../libs/libDaisy/src/dev/codec_ak4556.h ****  ** I don't see any real reason to have this be more than a function, but in case we want
  15:../../libs/libDaisy/src/dev/codec_ak4556.h ****  ** to add other functions down the road I wrapped the function in a class.
  16:../../libs/libDaisy/src/dev/codec_ak4556.h ****  ***/
  17:../../libs/libDaisy/src/dev/codec_ak4556.h **** class Ak4556
  18:../../libs/libDaisy/src/dev/codec_ak4556.h **** {
  19:../../libs/libDaisy/src/dev/codec_ak4556.h ****   public:
  20:../../libs/libDaisy/src/dev/codec_ak4556.h ****     Ak4556() {}
  21:../../libs/libDaisy/src/dev/codec_ak4556.h ****     ~Ak4556() {}
  38              		.loc 2 21 5 view .LVU1
  39              		.loc 2 21 5 is_stmt 0 view .LVU2
  40              	.LBE344:
  41              	.LBB345:
  42              	.LBI345:
  43              		.file 3 "../../libs/libDaisy/src/sys/system.h"
   1:../../libs/libDaisy/src/sys/system.h **** #ifndef DSY_SYSTEM_H
   2:../../libs/libDaisy/src/sys/system.h **** #define DSY_SYSTEM_H
   3:../../libs/libDaisy/src/sys/system.h **** 
   4:../../libs/libDaisy/src/sys/system.h **** #ifndef UNIT_TEST // for unit tests, a dummy implementation is provided below
   5:../../libs/libDaisy/src/sys/system.h **** 
   6:../../libs/libDaisy/src/sys/system.h **** #include <cstdint>
   7:../../libs/libDaisy/src/sys/system.h **** #include "per/tim.h"
   8:../../libs/libDaisy/src/sys/system.h **** 
   9:../../libs/libDaisy/src/sys/system.h **** namespace daisy
  10:../../libs/libDaisy/src/sys/system.h **** {
  11:../../libs/libDaisy/src/sys/system.h **** /** A handle for interacting with the Core System.
  12:../../libs/libDaisy/src/sys/system.h ****  ** This includes the Clock tree, MPU, global DMA initialization,
  13:../../libs/libDaisy/src/sys/system.h ****  ** cache handling, and any other necessary global initiailzation
  14:../../libs/libDaisy/src/sys/system.h ****  **
  15:../../libs/libDaisy/src/sys/system.h ****  ** @author shensley
  16:../../libs/libDaisy/src/sys/system.h ****  ** @ingroup system
  17:../../libs/libDaisy/src/sys/system.h ****  */
  18:../../libs/libDaisy/src/sys/system.h **** class System
  19:../../libs/libDaisy/src/sys/system.h **** {
  20:../../libs/libDaisy/src/sys/system.h ****   public:
  21:../../libs/libDaisy/src/sys/system.h ****     /** Contains settings for initializing the System */
  22:../../libs/libDaisy/src/sys/system.h ****     struct Config
  23:../../libs/libDaisy/src/sys/system.h ****     {
  24:../../libs/libDaisy/src/sys/system.h ****         /** Specifies the system clock frequency that feeds APB/AHB clocks, etc. */
  25:../../libs/libDaisy/src/sys/system.h ****         enum class SysClkFreq
  26:../../libs/libDaisy/src/sys/system.h ****         {
  27:../../libs/libDaisy/src/sys/system.h ****             FREQ_400MHZ,
  28:../../libs/libDaisy/src/sys/system.h ****             FREQ_480MHZ,
  29:../../libs/libDaisy/src/sys/system.h ****         };
ARM GAS  C:\Users\matte\AppData\Local\Temp\ccIv7HUw.s 			page 3


  30:../../libs/libDaisy/src/sys/system.h **** 
  31:../../libs/libDaisy/src/sys/system.h ****         /** Method to call on the struct to set to defaults
  32:../../libs/libDaisy/src/sys/system.h ****          ** CPU Freq set to 400MHz
  33:../../libs/libDaisy/src/sys/system.h ****          ** Cache Enabled
  34:../../libs/libDaisy/src/sys/system.h ****          ** */
  35:../../libs/libDaisy/src/sys/system.h ****         void Defaults()
  36:../../libs/libDaisy/src/sys/system.h ****         {
  37:../../libs/libDaisy/src/sys/system.h ****             cpu_freq    = SysClkFreq::FREQ_400MHZ;
  38:../../libs/libDaisy/src/sys/system.h ****             use_dcache  = true;
  39:../../libs/libDaisy/src/sys/system.h ****             use_icache  = true;
  40:../../libs/libDaisy/src/sys/system.h ****             skip_clocks = false;
  41:../../libs/libDaisy/src/sys/system.h ****         }
  42:../../libs/libDaisy/src/sys/system.h **** 
  43:../../libs/libDaisy/src/sys/system.h ****         /** Method to call on the struct to set to boost mode:
  44:../../libs/libDaisy/src/sys/system.h ****          ** CPU Freq set to 480MHz
  45:../../libs/libDaisy/src/sys/system.h ****          ** Cache Enabled
  46:../../libs/libDaisy/src/sys/system.h ****          ** */
  47:../../libs/libDaisy/src/sys/system.h ****         void Boost()
  48:../../libs/libDaisy/src/sys/system.h ****         {
  49:../../libs/libDaisy/src/sys/system.h ****             cpu_freq    = SysClkFreq::FREQ_480MHZ;
  50:../../libs/libDaisy/src/sys/system.h ****             use_dcache  = true;
  51:../../libs/libDaisy/src/sys/system.h ****             use_icache  = true;
  52:../../libs/libDaisy/src/sys/system.h ****             skip_clocks = false;
  53:../../libs/libDaisy/src/sys/system.h ****         }
  54:../../libs/libDaisy/src/sys/system.h **** 
  55:../../libs/libDaisy/src/sys/system.h ****         SysClkFreq cpu_freq;
  56:../../libs/libDaisy/src/sys/system.h ****         bool       use_dcache;
  57:../../libs/libDaisy/src/sys/system.h ****         bool       use_icache;
  58:../../libs/libDaisy/src/sys/system.h ****         bool       skip_clocks;
  59:../../libs/libDaisy/src/sys/system.h ****     };
  60:../../libs/libDaisy/src/sys/system.h **** 
  61:../../libs/libDaisy/src/sys/system.h ****     /** Describes the different regions of memory available to the Daisy */
  62:../../libs/libDaisy/src/sys/system.h ****     enum MemoryRegion
  63:../../libs/libDaisy/src/sys/system.h ****     {
  64:../../libs/libDaisy/src/sys/system.h ****         INTERNAL_FLASH = 0,
  65:../../libs/libDaisy/src/sys/system.h ****         ITCMRAM,
  66:../../libs/libDaisy/src/sys/system.h ****         DTCMRAM,
  67:../../libs/libDaisy/src/sys/system.h ****         SRAM_D1,
  68:../../libs/libDaisy/src/sys/system.h ****         SRAM_D2,
  69:../../libs/libDaisy/src/sys/system.h ****         SRAM_D3,
  70:../../libs/libDaisy/src/sys/system.h ****         SDRAM,
  71:../../libs/libDaisy/src/sys/system.h ****         QSPI,
  72:../../libs/libDaisy/src/sys/system.h ****         INVALID_ADDRESS,
  73:../../libs/libDaisy/src/sys/system.h ****     };
  74:../../libs/libDaisy/src/sys/system.h **** 
  75:../../libs/libDaisy/src/sys/system.h ****     /** Bootloader struct for controlling bootloading parameters */
  76:../../libs/libDaisy/src/sys/system.h ****     struct BootInfo
  77:../../libs/libDaisy/src/sys/system.h ****     {
  78:../../libs/libDaisy/src/sys/system.h ****         enum class Type : uint32_t
  79:../../libs/libDaisy/src/sys/system.h ****         {
  80:../../libs/libDaisy/src/sys/system.h ****             INVALID      = 0x00000000,
  81:../../libs/libDaisy/src/sys/system.h ****             JUMP         = 0xDEADBEEF,
  82:../../libs/libDaisy/src/sys/system.h ****             SKIP_TIMEOUT = 0x5AFEB007,
  83:../../libs/libDaisy/src/sys/system.h ****             INF_TIMEOUT  = 0xB0074EFA,
  84:../../libs/libDaisy/src/sys/system.h ****         } status;
  85:../../libs/libDaisy/src/sys/system.h ****         uint32_t data;
  86:../../libs/libDaisy/src/sys/system.h ****         enum class Version : uint32_t
ARM GAS  C:\Users\matte\AppData\Local\Temp\ccIv7HUw.s 			page 4


  87:../../libs/libDaisy/src/sys/system.h ****         {
  88:../../libs/libDaisy/src/sys/system.h ****             LT_v6_0 = 0, // Less than v6.0
  89:../../libs/libDaisy/src/sys/system.h ****             NONE,        // No bootloader present
  90:../../libs/libDaisy/src/sys/system.h ****             v6_0,        // v6.0
  91:../../libs/libDaisy/src/sys/system.h ****             v6_1,        // v6.1 or greater
  92:../../libs/libDaisy/src/sys/system.h ****             LAST
  93:../../libs/libDaisy/src/sys/system.h ****         } version;
  94:../../libs/libDaisy/src/sys/system.h ****     };
  95:../../libs/libDaisy/src/sys/system.h **** 
  96:../../libs/libDaisy/src/sys/system.h ****     System() {}
  97:../../libs/libDaisy/src/sys/system.h ****     ~System() {}
  44              		.loc 3 97 5 is_stmt 1 view .LVU3
  45              		.loc 3 97 5 is_stmt 0 view .LVU4
  46              	.LBE345:
  47              	.LBB346:
  48              	.LBI346:
  49              		.file 4 "../../libs/libDaisy//src/hid/usb.h"
   1:../../libs/libDaisy//src/hid/usb.h **** #pragma once
   2:../../libs/libDaisy//src/hid/usb.h **** #ifndef DSY_HID_USB_H
   3:../../libs/libDaisy//src/hid/usb.h **** #define DSY_HID_USB_H
   4:../../libs/libDaisy//src/hid/usb.h **** #include <stdint.h>
   5:../../libs/libDaisy//src/hid/usb.h **** #include <stdlib.h>
   6:../../libs/libDaisy//src/hid/usb.h **** 
   7:../../libs/libDaisy//src/hid/usb.h **** namespace daisy
   8:../../libs/libDaisy//src/hid/usb.h **** /** @addtogroup human_interface
   9:../../libs/libDaisy//src/hid/usb.h ****     @{
  10:../../libs/libDaisy//src/hid/usb.h **** */
  11:../../libs/libDaisy//src/hid/usb.h **** 
  12:../../libs/libDaisy//src/hid/usb.h **** {
  13:../../libs/libDaisy//src/hid/usb.h **** /** 
  14:../../libs/libDaisy//src/hid/usb.h ****     @brief Interface for initializing and using the USB Peripherals on the daisy
  15:../../libs/libDaisy//src/hid/usb.h ****     @author Stephen Hensley
  16:../../libs/libDaisy//src/hid/usb.h ****     @date December 2019
  17:../../libs/libDaisy//src/hid/usb.h **** */
  18:../../libs/libDaisy//src/hid/usb.h **** class UsbHandle
  19:../../libs/libDaisy//src/hid/usb.h **** {
  20:../../libs/libDaisy//src/hid/usb.h ****   public:
  21:../../libs/libDaisy//src/hid/usb.h ****     /** Return values for USBHandle Functions */
  22:../../libs/libDaisy//src/hid/usb.h ****     enum class Result
  23:../../libs/libDaisy//src/hid/usb.h ****     {
  24:../../libs/libDaisy//src/hid/usb.h ****         OK,
  25:../../libs/libDaisy//src/hid/usb.h ****         ERR,
  26:../../libs/libDaisy//src/hid/usb.h ****     };
  27:../../libs/libDaisy//src/hid/usb.h **** 
  28:../../libs/libDaisy//src/hid/usb.h ****     /** Specified which of the two USB Peripherals to initialize. */
  29:../../libs/libDaisy//src/hid/usb.h ****     enum UsbPeriph
  30:../../libs/libDaisy//src/hid/usb.h ****     {
  31:../../libs/libDaisy//src/hid/usb.h ****         FS_INTERNAL, /**< Internal pin */
  32:../../libs/libDaisy//src/hid/usb.h ****         FS_EXTERNAL, /**< FS External D+ pin is Pin 38 (GPIO32). FS External D- pin is Pin 37 (GPIO
  33:../../libs/libDaisy//src/hid/usb.h ****         FS_BOTH,     /**< Both */
  34:../../libs/libDaisy//src/hid/usb.h ****     };
  35:../../libs/libDaisy//src/hid/usb.h **** 
  36:../../libs/libDaisy//src/hid/usb.h **** 
  37:../../libs/libDaisy//src/hid/usb.h ****     /** Function called upon reception of a buffer */
  38:../../libs/libDaisy//src/hid/usb.h ****     typedef void (*ReceiveCallback)(uint8_t* buff, uint32_t* len);
  39:../../libs/libDaisy//src/hid/usb.h **** 
  40:../../libs/libDaisy//src/hid/usb.h ****     UsbHandle() {}
ARM GAS  C:\Users\matte\AppData\Local\Temp\ccIv7HUw.s 			page 5


  41:../../libs/libDaisy//src/hid/usb.h **** 
  42:../../libs/libDaisy//src/hid/usb.h ****     ~UsbHandle() {}
  50              		.loc 4 42 5 is_stmt 1 view .LVU5
  51              		.loc 4 42 5 is_stmt 0 view .LVU6
  52              	.LBE346:
  53              	.LBB347:
  54              	.LBI347:
  55              		.file 5 "../../libs/libDaisy/src/per/adc.h"
   1:../../libs/libDaisy/src/per/adc.h **** #pragma once
   2:../../libs/libDaisy/src/per/adc.h **** #ifndef DSY_ADC_H
   3:../../libs/libDaisy/src/per/adc.h **** #define DSY_ADC_H /**< Macro */
   4:../../libs/libDaisy/src/per/adc.h **** #include <stdint.h>
   5:../../libs/libDaisy/src/per/adc.h **** #include <stdlib.h>
   6:../../libs/libDaisy/src/per/adc.h **** #include "daisy_core.h"
   7:../../libs/libDaisy/src/per/adc.h **** #include "per/gpio.h"
   8:../../libs/libDaisy/src/per/adc.h **** 
   9:../../libs/libDaisy/src/per/adc.h **** #define DSY_ADC_MAX_CHANNELS 16 /**< Maximum number of ADC channels */
  10:../../libs/libDaisy/src/per/adc.h **** 
  11:../../libs/libDaisy/src/per/adc.h **** namespace daisy
  12:../../libs/libDaisy/src/per/adc.h **** {
  13:../../libs/libDaisy/src/per/adc.h **** /** @addtogroup per_analog
  14:../../libs/libDaisy/src/per/adc.h ****     @{
  15:../../libs/libDaisy/src/per/adc.h **** */
  16:../../libs/libDaisy/src/per/adc.h **** 
  17:../../libs/libDaisy/src/per/adc.h **** /* While there may not be many configuration options here,
  18:../../libs/libDaisy/src/per/adc.h **** using a struct like this allows us to add more configuration
  19:../../libs/libDaisy/src/per/adc.h **** later without breaking existing functionality.
  20:../../libs/libDaisy/src/per/adc.h **** */
  21:../../libs/libDaisy/src/per/adc.h **** 
  22:../../libs/libDaisy/src/per/adc.h **** /** @brief   Configuration Structure for an ADC Channel 
  23:../../libs/libDaisy/src/per/adc.h ****  *  @details This can be used to configure a a single input, 
  24:../../libs/libDaisy/src/per/adc.h ****  *           or a multiplexed input, allowing up to 8 inputs on 
  25:../../libs/libDaisy/src/per/adc.h ****  *           one channel.
  26:../../libs/libDaisy/src/per/adc.h ****  *  @note    Sharing data lines to multiple muxes _is_ possible, but
  27:../../libs/libDaisy/src/per/adc.h ****  *           each channel sharing data lines must be set to the maximum
  28:../../libs/libDaisy/src/per/adc.h ****  *           number of channels, even if some multiplexers have fewer
  29:../../libs/libDaisy/src/per/adc.h ****  *           inputs connected.
  30:../../libs/libDaisy/src/per/adc.h **** */
  31:../../libs/libDaisy/src/per/adc.h **** struct AdcChannelConfig
  32:../../libs/libDaisy/src/per/adc.h **** {
  33:../../libs/libDaisy/src/per/adc.h ****     /** Which pin to use for multiplexing */
  34:../../libs/libDaisy/src/per/adc.h ****     enum MuxPin
  35:../../libs/libDaisy/src/per/adc.h ****     {
  36:../../libs/libDaisy/src/per/adc.h ****         MUX_SEL_0,    /**< & */
  37:../../libs/libDaisy/src/per/adc.h ****         MUX_SEL_1,    /**< & */
  38:../../libs/libDaisy/src/per/adc.h ****         MUX_SEL_2,    /**< & */
  39:../../libs/libDaisy/src/per/adc.h ****         MUX_SEL_LAST, /**< & */
  40:../../libs/libDaisy/src/per/adc.h ****     };
  41:../../libs/libDaisy/src/per/adc.h **** 
  42:../../libs/libDaisy/src/per/adc.h ****     /** \brief per channel conversion speed added to fixed time based on bitdepth, etc. */
  43:../../libs/libDaisy/src/per/adc.h ****     enum ConversionSpeed
  44:../../libs/libDaisy/src/per/adc.h ****     {
  45:../../libs/libDaisy/src/per/adc.h ****         SPEED_1CYCLES_5,
  46:../../libs/libDaisy/src/per/adc.h ****         SPEED_2CYCLES_5,
  47:../../libs/libDaisy/src/per/adc.h ****         SPEED_8CYCLES_5,
  48:../../libs/libDaisy/src/per/adc.h ****         SPEED_16CYCLES_5,
  49:../../libs/libDaisy/src/per/adc.h ****         SPEED_32CYCLES_5,
ARM GAS  C:\Users\matte\AppData\Local\Temp\ccIv7HUw.s 			page 6


  50:../../libs/libDaisy/src/per/adc.h ****         SPEED_64CYCLES_5,
  51:../../libs/libDaisy/src/per/adc.h ****         SPEED_387CYCLES_5,
  52:../../libs/libDaisy/src/per/adc.h ****         SPEED_810CYCLES_5,
  53:../../libs/libDaisy/src/per/adc.h ****     };
  54:../../libs/libDaisy/src/per/adc.h **** 
  55:../../libs/libDaisy/src/per/adc.h ****     /** Initializes a single ADC pin as an ADC. 
  56:../../libs/libDaisy/src/per/adc.h ****     \param pin Pin to init.
  57:../../libs/libDaisy/src/per/adc.h ****     \param speed conversion speed for this pin defaults to 8.5 cycles
  58:../../libs/libDaisy/src/per/adc.h ****      */
  59:../../libs/libDaisy/src/per/adc.h ****     void InitSingle(Pin pin, ConversionSpeed speed = SPEED_8CYCLES_5);
  60:../../libs/libDaisy/src/per/adc.h **** 
  61:../../libs/libDaisy/src/per/adc.h ****     /** 
  62:../../libs/libDaisy/src/per/adc.h ****     Initializes a single ADC pin as a Multiplexed ADC.
  63:../../libs/libDaisy/src/per/adc.h ****     Requires a CD405X Multiplexer connected to the pin.
  64:../../libs/libDaisy/src/per/adc.h ****     You only need to supply the mux pins that are required,
  65:../../libs/libDaisy/src/per/adc.h ****     e.g. a 4052 mux would only require mux_0 and mux_1.
  66:../../libs/libDaisy/src/per/adc.h ****     Internal Callbacks handle the pin addressing.
  67:../../libs/libDaisy/src/per/adc.h ****     \param adc_pin &
  68:../../libs/libDaisy/src/per/adc.h ****     \param mux_channels must be 1-8
  69:../../libs/libDaisy/src/per/adc.h ****     \param mux_0 First mux pin
  70:../../libs/libDaisy/src/per/adc.h ****     \param mux_1 Second mux pin
  71:../../libs/libDaisy/src/per/adc.h ****     \param mux_2 Third mux pin
  72:../../libs/libDaisy/src/per/adc.h ****     \param speed conversion speed for this pin defaults to 8.5 cycles
  73:../../libs/libDaisy/src/per/adc.h ****     */
  74:../../libs/libDaisy/src/per/adc.h ****     void InitMux(Pin             adc_pin,
  75:../../libs/libDaisy/src/per/adc.h ****                  size_t          mux_channels,
  76:../../libs/libDaisy/src/per/adc.h ****                  Pin             mux_0,
  77:../../libs/libDaisy/src/per/adc.h ****                  Pin             mux_1 = Pin(PORTX, 0),
  78:../../libs/libDaisy/src/per/adc.h ****                  Pin             mux_2 = Pin(PORTX, 0),
  79:../../libs/libDaisy/src/per/adc.h ****                  ConversionSpeed speed = SPEED_8CYCLES_5);
  80:../../libs/libDaisy/src/per/adc.h **** 
  81:../../libs/libDaisy/src/per/adc.h ****     GPIO            pin_;                   /**< & */
  82:../../libs/libDaisy/src/per/adc.h ****     GPIO            mux_pin_[MUX_SEL_LAST]; /**< & */
  83:../../libs/libDaisy/src/per/adc.h ****     uint8_t         mux_channels_;          /**< & */
  84:../../libs/libDaisy/src/per/adc.h ****     ConversionSpeed speed_;
  85:../../libs/libDaisy/src/per/adc.h **** };
  86:../../libs/libDaisy/src/per/adc.h **** 
  87:../../libs/libDaisy/src/per/adc.h **** /**
  88:../../libs/libDaisy/src/per/adc.h ****    @brief Handler for analog to digital conversion
  89:../../libs/libDaisy/src/per/adc.h **** */
  90:../../libs/libDaisy/src/per/adc.h **** class AdcHandle
  91:../../libs/libDaisy/src/per/adc.h **** {
  92:../../libs/libDaisy/src/per/adc.h ****   public:
  93:../../libs/libDaisy/src/per/adc.h ****     /** Supported oversampling amounts */
  94:../../libs/libDaisy/src/per/adc.h ****     enum OverSampling
  95:../../libs/libDaisy/src/per/adc.h ****     {
  96:../../libs/libDaisy/src/per/adc.h ****         OVS_NONE, /**< & */
  97:../../libs/libDaisy/src/per/adc.h ****         OVS_4,    /**< & */
  98:../../libs/libDaisy/src/per/adc.h ****         OVS_8,    /**< & */
  99:../../libs/libDaisy/src/per/adc.h ****         OVS_16,   /**< & */
 100:../../libs/libDaisy/src/per/adc.h ****         OVS_32,   /**< & */
 101:../../libs/libDaisy/src/per/adc.h ****         OVS_64,   /**< & */
 102:../../libs/libDaisy/src/per/adc.h ****         OVS_128,  /**< & */
 103:../../libs/libDaisy/src/per/adc.h ****         OVS_256,  /**< & */
 104:../../libs/libDaisy/src/per/adc.h ****         OVS_512,  /**< & */
 105:../../libs/libDaisy/src/per/adc.h ****         OVS_1024, /**< & */
 106:../../libs/libDaisy/src/per/adc.h ****         OVS_LAST, /**< & */
ARM GAS  C:\Users\matte\AppData\Local\Temp\ccIv7HUw.s 			page 7


 107:../../libs/libDaisy/src/per/adc.h ****     };
 108:../../libs/libDaisy/src/per/adc.h **** 
 109:../../libs/libDaisy/src/per/adc.h ****     AdcHandle() {}
 110:../../libs/libDaisy/src/per/adc.h ****     ~AdcHandle() {}
  56              		.loc 5 110 5 is_stmt 1 view .LVU7
  57              		.loc 5 110 5 is_stmt 0 view .LVU8
  58              	.LBE347:
  59              	.LBB348:
  60              	.LBI348:
  61              		.file 6 "../../libs/libDaisy/src/hid/audio.h"
   1:../../libs/libDaisy/src/hid/audio.h **** #ifndef DSY_AUDIO_H
   2:../../libs/libDaisy/src/hid/audio.h **** #define DSY_AUDIO_H /**< & */
   3:../../libs/libDaisy/src/hid/audio.h **** 
   4:../../libs/libDaisy/src/hid/audio.h **** #include "per/sai.h"
   5:../../libs/libDaisy/src/hid/audio.h **** 
   6:../../libs/libDaisy/src/hid/audio.h **** namespace daisy
   7:../../libs/libDaisy/src/hid/audio.h **** {
   8:../../libs/libDaisy/src/hid/audio.h **** /** @brief Audio Engine Handle
   9:../../libs/libDaisy/src/hid/audio.h ****  *  @ingroup audio 
  10:../../libs/libDaisy/src/hid/audio.h ****  *  @details This class allows for higher level access to an audio engine.
  11:../../libs/libDaisy/src/hid/audio.h ****  *           If you're using a SOM like the DaisySeed or DaisyPatchSM (or any 
  12:../../libs/libDaisy/src/hid/audio.h ****  *            board that includes one of those objects) then the intialization
  13:../../libs/libDaisy/src/hid/audio.h ****  *            is already taken  care of.
  14:../../libs/libDaisy/src/hid/audio.h ****  *           If you're setting up your own custom hardware, or need to make changes
  15:../../libs/libDaisy/src/hid/audio.h ****  *           you will have to take the following steps:
  16:../../libs/libDaisy/src/hid/audio.h ****  *             1. Create and Initialize an SaiHandle or two depending on your requirements
  17:../../libs/libDaisy/src/hid/audio.h ****  *             2. Initialize the Audio Handle with the desired settings and the Initialized SaiHand
  18:../../libs/libDaisy/src/hid/audio.h ****  *             3. If the connected codec requires special configuration or initialization, do so
  19:../../libs/libDaisy/src/hid/audio.h ****  *             4. Write a callback method using either the AudioCallback or the InterleavingAudioCa
  20:../../libs/libDaisy/src/hid/audio.h ****  *             5. Start the Audio using one of the StartAudio function
  21:../../libs/libDaisy/src/hid/audio.h ****  */
  22:../../libs/libDaisy/src/hid/audio.h **** class AudioHandle
  23:../../libs/libDaisy/src/hid/audio.h **** {
  24:../../libs/libDaisy/src/hid/audio.h ****   public:
  25:../../libs/libDaisy/src/hid/audio.h ****     /** Manually configurable details about the Audio Engine */
  26:../../libs/libDaisy/src/hid/audio.h ****     /** TODO: Figure out how to get samplerate in here. */
  27:../../libs/libDaisy/src/hid/audio.h ****     struct Config
  28:../../libs/libDaisy/src/hid/audio.h ****     {
  29:../../libs/libDaisy/src/hid/audio.h ****         /** number of samples to process per callback */
  30:../../libs/libDaisy/src/hid/audio.h ****         size_t blocksize = 48;
  31:../../libs/libDaisy/src/hid/audio.h **** 
  32:../../libs/libDaisy/src/hid/audio.h ****         /**< Sample rate of audio */
  33:../../libs/libDaisy/src/hid/audio.h ****         SaiHandle::Config::SampleRate samplerate
  34:../../libs/libDaisy/src/hid/audio.h ****             = SaiHandle::Config::SampleRate::SAI_48KHZ;
  35:../../libs/libDaisy/src/hid/audio.h **** 
  36:../../libs/libDaisy/src/hid/audio.h ****         /** factor for adjustment before and after callback for hardware that may have extra headro
  37:../../libs/libDaisy/src/hid/audio.h ****         float postgain = 1.f;
  38:../../libs/libDaisy/src/hid/audio.h **** 
  39:../../libs/libDaisy/src/hid/audio.h ****         /** factor for additional one-sided compensation to audio path for hardware that may
  40:../../libs/libDaisy/src/hid/audio.h ****          *  have unequal input/output ranges
  41:../../libs/libDaisy/src/hid/audio.h ****          */
  42:../../libs/libDaisy/src/hid/audio.h ****         float output_compensation = 1.f;
  43:../../libs/libDaisy/src/hid/audio.h ****     };
  44:../../libs/libDaisy/src/hid/audio.h **** 
  45:../../libs/libDaisy/src/hid/audio.h ****     enum class Result
  46:../../libs/libDaisy/src/hid/audio.h ****     {
  47:../../libs/libDaisy/src/hid/audio.h ****         OK,
ARM GAS  C:\Users\matte\AppData\Local\Temp\ccIv7HUw.s 			page 8


  48:../../libs/libDaisy/src/hid/audio.h ****         ERR,
  49:../../libs/libDaisy/src/hid/audio.h ****     };
  50:../../libs/libDaisy/src/hid/audio.h **** 
  51:../../libs/libDaisy/src/hid/audio.h ****     /** Non-Interleaving input buffer
  52:../../libs/libDaisy/src/hid/audio.h ****      * Buffer arranged by float[chn][sample] 
  53:../../libs/libDaisy/src/hid/audio.h ****      * const so that the user can't modify the input
  54:../../libs/libDaisy/src/hid/audio.h ****      */
  55:../../libs/libDaisy/src/hid/audio.h ****     typedef const float* const* InputBuffer;
  56:../../libs/libDaisy/src/hid/audio.h **** 
  57:../../libs/libDaisy/src/hid/audio.h ****     /** Non-Interleaving output buffer
  58:../../libs/libDaisy/src/hid/audio.h ****      * Arranged by float[chn][sample] 
  59:../../libs/libDaisy/src/hid/audio.h ****      */
  60:../../libs/libDaisy/src/hid/audio.h ****     typedef float** OutputBuffer;
  61:../../libs/libDaisy/src/hid/audio.h **** 
  62:../../libs/libDaisy/src/hid/audio.h ****     /** Type for a Non-Interleaving audio callback 
  63:../../libs/libDaisy/src/hid/audio.h ****      * Non-Interleaving audio callbacks in daisy will be of this type
  64:../../libs/libDaisy/src/hid/audio.h ****      */
  65:../../libs/libDaisy/src/hid/audio.h ****     typedef void (*AudioCallback)(InputBuffer  in,
  66:../../libs/libDaisy/src/hid/audio.h ****                                   OutputBuffer out,
  67:../../libs/libDaisy/src/hid/audio.h ****                                   size_t       size);
  68:../../libs/libDaisy/src/hid/audio.h **** 
  69:../../libs/libDaisy/src/hid/audio.h ****     /** Interleaving Input buffer
  70:../../libs/libDaisy/src/hid/audio.h ****      ** audio is prepared as { L0, R0, L1, R1, . . . LN, RN }]
  71:../../libs/libDaisy/src/hid/audio.h ****      ** this is const, as the user shouldn't modify it
  72:../../libs/libDaisy/src/hid/audio.h ****     */
  73:../../libs/libDaisy/src/hid/audio.h ****     typedef const float* InterleavingInputBuffer;
  74:../../libs/libDaisy/src/hid/audio.h **** 
  75:../../libs/libDaisy/src/hid/audio.h ****     /** Interleaving Output buffer 
  76:../../libs/libDaisy/src/hid/audio.h ****      ** audio is prepared as { L0, R0, L1, R1, . . . LN, RN }
  77:../../libs/libDaisy/src/hid/audio.h ****     */
  78:../../libs/libDaisy/src/hid/audio.h ****     typedef float* InterleavingOutputBuffer;
  79:../../libs/libDaisy/src/hid/audio.h **** 
  80:../../libs/libDaisy/src/hid/audio.h ****     /** Interleaving Audio Callback 
  81:../../libs/libDaisy/src/hid/audio.h ****      * Interleaving audio callbacks in daisy must be of this type
  82:../../libs/libDaisy/src/hid/audio.h ****      */
  83:../../libs/libDaisy/src/hid/audio.h ****     typedef void (*InterleavingAudioCallback)(InterleavingInputBuffer  in,
  84:../../libs/libDaisy/src/hid/audio.h ****                                               InterleavingOutputBuffer out,
  85:../../libs/libDaisy/src/hid/audio.h ****                                               size_t                   size);
  86:../../libs/libDaisy/src/hid/audio.h **** 
  87:../../libs/libDaisy/src/hid/audio.h ****     AudioHandle() : pimpl_(nullptr) {}
  88:../../libs/libDaisy/src/hid/audio.h ****     ~AudioHandle() {}
  62              		.loc 6 88 5 is_stmt 1 view .LVU9
  63              		.loc 6 88 5 is_stmt 0 view .LVU10
  64              	.LBE348:
  65              		.loc 1 22 19 view .LVU11
  66 0000 7047     		bx	lr
  67              		.cfi_endproc
  68              	.LFE2646:
  70              		.weak	_ZN5daisy9DaisySeedD1Ev
  71              		.thumb_set _ZN5daisy9DaisySeedD1Ev,_ZN5daisy9DaisySeedD2Ev
  72 0002 00BF     		.section	.text._ZN7daisysp4AdsrD2Ev,"axG",%progbits,_ZN7daisysp4AdsrD5Ev,comdat
  73              		.align	1
  74              		.p2align 2,,3
  75              		.weak	_ZN7daisysp4AdsrD2Ev
  76              		.syntax unified
  77              		.thumb
  78              		.thumb_func
ARM GAS  C:\Users\matte\AppData\Local\Temp\ccIv7HUw.s 			page 9


  79              		.fpu fpv5-d16
  81              	_ZN7daisysp4AdsrD2Ev:
  82              	.LVL1:
  83              	.LFB2669:
  84              		.file 7 "../../libs/DaisySP/Source/Control/adsr.h"
   1:../../libs/DaisySP/Source/Control/adsr.h **** /*
   2:../../libs/DaisySP/Source/Control/adsr.h **** Copyright (c) 2020 Electrosmith, Corp, Paul Batchelor
   3:../../libs/DaisySP/Source/Control/adsr.h **** 
   4:../../libs/DaisySP/Source/Control/adsr.h **** Use of this source code is governed by an MIT-style
   5:../../libs/DaisySP/Source/Control/adsr.h **** license that can be found in the LICENSE file or at
   6:../../libs/DaisySP/Source/Control/adsr.h **** https://opensource.org/licenses/MIT.
   7:../../libs/DaisySP/Source/Control/adsr.h **** */
   8:../../libs/DaisySP/Source/Control/adsr.h **** 
   9:../../libs/DaisySP/Source/Control/adsr.h **** #pragma once
  10:../../libs/DaisySP/Source/Control/adsr.h **** #ifndef DSY_ADSR_H
  11:../../libs/DaisySP/Source/Control/adsr.h **** #define DSY_ADSR_H
  12:../../libs/DaisySP/Source/Control/adsr.h **** 
  13:../../libs/DaisySP/Source/Control/adsr.h **** #include <stdint.h>
  14:../../libs/DaisySP/Source/Control/adsr.h **** #ifdef __cplusplus
  15:../../libs/DaisySP/Source/Control/adsr.h **** 
  16:../../libs/DaisySP/Source/Control/adsr.h **** namespace daisysp
  17:../../libs/DaisySP/Source/Control/adsr.h **** {
  18:../../libs/DaisySP/Source/Control/adsr.h **** /** Distinct stages that the phase of the envelope can be located in.
  19:../../libs/DaisySP/Source/Control/adsr.h **** - IDLE   = located at phase location 0, and not currently running
  20:../../libs/DaisySP/Source/Control/adsr.h **** - ATTACK  = First segment of envelope where phase moves from 0 to 1
  21:../../libs/DaisySP/Source/Control/adsr.h **** - DECAY   = Second segment of envelope where phase moves from 1 to SUSTAIN value
  22:../../libs/DaisySP/Source/Control/adsr.h **** - RELEASE =     Fourth segment of envelop where phase moves from SUSTAIN to 0
  23:../../libs/DaisySP/Source/Control/adsr.h **** */
  24:../../libs/DaisySP/Source/Control/adsr.h **** enum
  25:../../libs/DaisySP/Source/Control/adsr.h **** {
  26:../../libs/DaisySP/Source/Control/adsr.h ****     ADSR_SEG_IDLE    = 0,
  27:../../libs/DaisySP/Source/Control/adsr.h ****     ADSR_SEG_ATTACK  = 1,
  28:../../libs/DaisySP/Source/Control/adsr.h ****     ADSR_SEG_DECAY   = 2,
  29:../../libs/DaisySP/Source/Control/adsr.h ****     ADSR_SEG_RELEASE = 4
  30:../../libs/DaisySP/Source/Control/adsr.h **** };
  31:../../libs/DaisySP/Source/Control/adsr.h **** 
  32:../../libs/DaisySP/Source/Control/adsr.h **** 
  33:../../libs/DaisySP/Source/Control/adsr.h **** /** adsr envelope module
  34:../../libs/DaisySP/Source/Control/adsr.h **** 
  35:../../libs/DaisySP/Source/Control/adsr.h **** Original author(s) : Paul Batchelor
  36:../../libs/DaisySP/Source/Control/adsr.h **** 
  37:../../libs/DaisySP/Source/Control/adsr.h **** Ported from Soundpipe by Ben Sergentanis, May 2020
  38:../../libs/DaisySP/Source/Control/adsr.h ****  
  39:../../libs/DaisySP/Source/Control/adsr.h **** Remake by Steffan DIedrichsen, May 2021
  40:../../libs/DaisySP/Source/Control/adsr.h **** */
  41:../../libs/DaisySP/Source/Control/adsr.h **** class Adsr
  42:../../libs/DaisySP/Source/Control/adsr.h **** {
  43:../../libs/DaisySP/Source/Control/adsr.h ****   public:
  44:../../libs/DaisySP/Source/Control/adsr.h ****     Adsr() {}
  45:../../libs/DaisySP/Source/Control/adsr.h ****     ~Adsr() {}
  85              		.loc 7 45 5 is_stmt 1 view -0
  86              		.cfi_startproc
  87              		@ args = 0, pretend = 0, frame = 0
  88              		@ frame_needed = 0, uses_anonymous_args = 0
  89              		@ link register save eliminated.
  90              		.loc 7 45 14 is_stmt 0 view .LVU13
  91 0000 7047     		bx	lr
ARM GAS  C:\Users\matte\AppData\Local\Temp\ccIv7HUw.s 			page 10


  92              		.cfi_endproc
  93              	.LFE2669:
  95              		.weak	_ZN7daisysp4AdsrD1Ev
  96              		.thumb_set _ZN7daisysp4AdsrD1Ev,_ZN7daisysp4AdsrD2Ev
  97              		.section	.text._ZN7daisysp10OscillatorD2Ev,"axG",%progbits,_ZN7daisysp10OscillatorD5Ev,comdat
  98              		.align	1
  99              		.p2align 2,,3
 100              		.weak	_ZN7daisysp10OscillatorD2Ev
 101              		.syntax unified
 102              		.thumb
 103              		.thumb_func
 104              		.fpu fpv5-d16
 106              	_ZN7daisysp10OscillatorD2Ev:
 107              	.LVL2:
 108              	.LFB4331:
 109              		.file 8 "../../libs/DaisySP//Source/Synthesis/oscillator.h"
   1:../../libs/DaisySP//Source/Synthesis/oscillator.h **** /*
   2:../../libs/DaisySP//Source/Synthesis/oscillator.h **** Copyright (c) 2020 Electrosmith, Corp
   3:../../libs/DaisySP//Source/Synthesis/oscillator.h **** 
   4:../../libs/DaisySP//Source/Synthesis/oscillator.h **** Use of this source code is governed by an MIT-style
   5:../../libs/DaisySP//Source/Synthesis/oscillator.h **** license that can be found in the LICENSE file or at
   6:../../libs/DaisySP//Source/Synthesis/oscillator.h **** https://opensource.org/licenses/MIT.
   7:../../libs/DaisySP//Source/Synthesis/oscillator.h **** */
   8:../../libs/DaisySP//Source/Synthesis/oscillator.h **** 
   9:../../libs/DaisySP//Source/Synthesis/oscillator.h **** #pragma once
  10:../../libs/DaisySP//Source/Synthesis/oscillator.h **** #ifndef DSY_OSCILLATOR_H
  11:../../libs/DaisySP//Source/Synthesis/oscillator.h **** #define DSY_OSCILLATOR_H
  12:../../libs/DaisySP//Source/Synthesis/oscillator.h **** #include <stdint.h>
  13:../../libs/DaisySP//Source/Synthesis/oscillator.h **** #include "Utility/dsp.h"
  14:../../libs/DaisySP//Source/Synthesis/oscillator.h **** #ifdef __cplusplus
  15:../../libs/DaisySP//Source/Synthesis/oscillator.h **** 
  16:../../libs/DaisySP//Source/Synthesis/oscillator.h **** namespace daisysp
  17:../../libs/DaisySP//Source/Synthesis/oscillator.h **** {
  18:../../libs/DaisySP//Source/Synthesis/oscillator.h **** /** Synthesis of several waveforms, including polyBLEP bandlimited waveforms.
  19:../../libs/DaisySP//Source/Synthesis/oscillator.h **** */
  20:../../libs/DaisySP//Source/Synthesis/oscillator.h **** class Oscillator
  21:../../libs/DaisySP//Source/Synthesis/oscillator.h **** {
  22:../../libs/DaisySP//Source/Synthesis/oscillator.h ****   public:
  23:../../libs/DaisySP//Source/Synthesis/oscillator.h ****     Oscillator() {}
  24:../../libs/DaisySP//Source/Synthesis/oscillator.h ****     ~Oscillator() {}
 110              		.loc 8 24 5 is_stmt 1 view -0
 111              		.cfi_startproc
 112              		@ args = 0, pretend = 0, frame = 0
 113              		@ frame_needed = 0, uses_anonymous_args = 0
 114              		@ link register save eliminated.
 115              		.loc 8 24 20 is_stmt 0 view .LVU15
 116 0000 7047     		bx	lr
 117              		.cfi_endproc
 118              	.LFE4331:
 120              		.weak	_ZN7daisysp10OscillatorD1Ev
 121              		.thumb_set _ZN7daisysp10OscillatorD1Ev,_ZN7daisysp10OscillatorD2Ev
 122              		.section	.text._ZN5daisy6Mpr121INS_18Mpr121I2CTransportEED2Ev,"axG",%progbits,_ZN5daisy6Mpr121INS_
 123              		.align	1
 124              		.p2align 2,,3
 125              		.weak	_ZN5daisy6Mpr121INS_18Mpr121I2CTransportEED2Ev
 126              		.syntax unified
 127              		.thumb
ARM GAS  C:\Users\matte\AppData\Local\Temp\ccIv7HUw.s 			page 11


 128              		.thumb_func
 129              		.fpu fpv5-d16
 131              	_ZN5daisy6Mpr121INS_18Mpr121I2CTransportEED2Ev:
 132              	.LVL3:
 133              	.LFB5395:
 134              		.file 9 "../../libs/libDaisy/src/dev/mpr121.h"
   1:../../libs/libDaisy/src/dev/mpr121.h **** #pragma once
   2:../../libs/libDaisy/src/dev/mpr121.h **** #ifndef DSY_MPR121_H
   3:../../libs/libDaisy/src/dev/mpr121.h **** #define DSY_MPR121_H
   4:../../libs/libDaisy/src/dev/mpr121.h **** 
   5:../../libs/libDaisy/src/dev/mpr121.h **** // The default I2C address
   6:../../libs/libDaisy/src/dev/mpr121.h **** #define MPR121_I2CADDR_DEFAULT 0x5A        ///< default I2C address
   7:../../libs/libDaisy/src/dev/mpr121.h **** #define MPR121_TOUCH_THRESHOLD_DEFAULT 12  ///< default touch threshold value
   8:../../libs/libDaisy/src/dev/mpr121.h **** #define MPR121_RELEASE_THRESHOLD_DEFAULT 6 ///< default relese threshold value
   9:../../libs/libDaisy/src/dev/mpr121.h **** 
  10:../../libs/libDaisy/src/dev/mpr121.h **** namespace daisy
  11:../../libs/libDaisy/src/dev/mpr121.h **** {
  12:../../libs/libDaisy/src/dev/mpr121.h **** /** @addtogroup external 
  13:../../libs/libDaisy/src/dev/mpr121.h ****     @{ 
  14:../../libs/libDaisy/src/dev/mpr121.h **** */
  15:../../libs/libDaisy/src/dev/mpr121.h **** 
  16:../../libs/libDaisy/src/dev/mpr121.h **** /** I2C Transport for MPR121 */
  17:../../libs/libDaisy/src/dev/mpr121.h **** class Mpr121I2CTransport
  18:../../libs/libDaisy/src/dev/mpr121.h **** {
  19:../../libs/libDaisy/src/dev/mpr121.h ****   public:
  20:../../libs/libDaisy/src/dev/mpr121.h ****     Mpr121I2CTransport() {}
  21:../../libs/libDaisy/src/dev/mpr121.h ****     ~Mpr121I2CTransport() {}
  22:../../libs/libDaisy/src/dev/mpr121.h **** 
  23:../../libs/libDaisy/src/dev/mpr121.h ****     struct Config
  24:../../libs/libDaisy/src/dev/mpr121.h ****     {
  25:../../libs/libDaisy/src/dev/mpr121.h ****         I2CHandle::Config::Peripheral periph;
  26:../../libs/libDaisy/src/dev/mpr121.h ****         I2CHandle::Config::Speed      speed;
  27:../../libs/libDaisy/src/dev/mpr121.h ****         Pin                           scl;
  28:../../libs/libDaisy/src/dev/mpr121.h ****         Pin                           sda;
  29:../../libs/libDaisy/src/dev/mpr121.h **** 
  30:../../libs/libDaisy/src/dev/mpr121.h ****         I2CHandle::Config::Mode mode;
  31:../../libs/libDaisy/src/dev/mpr121.h **** 
  32:../../libs/libDaisy/src/dev/mpr121.h ****         uint8_t dev_addr;
  33:../../libs/libDaisy/src/dev/mpr121.h **** 
  34:../../libs/libDaisy/src/dev/mpr121.h ****         Config()
  35:../../libs/libDaisy/src/dev/mpr121.h ****         {
  36:../../libs/libDaisy/src/dev/mpr121.h ****             periph = I2CHandle::Config::Peripheral::I2C_1;
  37:../../libs/libDaisy/src/dev/mpr121.h ****             speed  = I2CHandle::Config::Speed::I2C_400KHZ;
  38:../../libs/libDaisy/src/dev/mpr121.h **** 
  39:../../libs/libDaisy/src/dev/mpr121.h ****             scl = Pin(PORTB, 8);
  40:../../libs/libDaisy/src/dev/mpr121.h ****             sda = Pin(PORTB, 9);
  41:../../libs/libDaisy/src/dev/mpr121.h **** 
  42:../../libs/libDaisy/src/dev/mpr121.h ****             dev_addr = MPR121_I2CADDR_DEFAULT;
  43:../../libs/libDaisy/src/dev/mpr121.h ****         }
  44:../../libs/libDaisy/src/dev/mpr121.h ****     };
  45:../../libs/libDaisy/src/dev/mpr121.h **** 
  46:../../libs/libDaisy/src/dev/mpr121.h ****     /** \return Did the transaction error? i.e. Return true if error, false if ok */
  47:../../libs/libDaisy/src/dev/mpr121.h ****     inline bool Init(Config config)
  48:../../libs/libDaisy/src/dev/mpr121.h ****     {
  49:../../libs/libDaisy/src/dev/mpr121.h ****         config_ = config;
  50:../../libs/libDaisy/src/dev/mpr121.h **** 
  51:../../libs/libDaisy/src/dev/mpr121.h ****         I2CHandle::Config i2c_conf;
ARM GAS  C:\Users\matte\AppData\Local\Temp\ccIv7HUw.s 			page 12


  52:../../libs/libDaisy/src/dev/mpr121.h ****         i2c_conf.mode   = I2CHandle::Config::Mode::I2C_MASTER;
  53:../../libs/libDaisy/src/dev/mpr121.h ****         i2c_conf.periph = config.periph;
  54:../../libs/libDaisy/src/dev/mpr121.h ****         i2c_conf.speed  = config.speed;
  55:../../libs/libDaisy/src/dev/mpr121.h **** 
  56:../../libs/libDaisy/src/dev/mpr121.h ****         i2c_conf.pin_config.scl = config.scl;
  57:../../libs/libDaisy/src/dev/mpr121.h ****         i2c_conf.pin_config.sda = config.sda;
  58:../../libs/libDaisy/src/dev/mpr121.h **** 
  59:../../libs/libDaisy/src/dev/mpr121.h ****         return I2CHandle::Result::OK != i2c_.Init(i2c_conf);
  60:../../libs/libDaisy/src/dev/mpr121.h ****     }
  61:../../libs/libDaisy/src/dev/mpr121.h **** 
  62:../../libs/libDaisy/src/dev/mpr121.h ****     /** \return Did the transaction error? i.e. Return true if error, false if ok */
  63:../../libs/libDaisy/src/dev/mpr121.h ****     bool Write(uint8_t *data, uint16_t size)
  64:../../libs/libDaisy/src/dev/mpr121.h ****     {
  65:../../libs/libDaisy/src/dev/mpr121.h ****         return I2CHandle::Result::OK
  66:../../libs/libDaisy/src/dev/mpr121.h ****                != i2c_.TransmitBlocking(config_.dev_addr, data, size, 10);
  67:../../libs/libDaisy/src/dev/mpr121.h ****     }
  68:../../libs/libDaisy/src/dev/mpr121.h **** 
  69:../../libs/libDaisy/src/dev/mpr121.h ****     /** \return Did the transaction error? i.e. Return true if error, false if ok */
  70:../../libs/libDaisy/src/dev/mpr121.h ****     bool Read(uint8_t *data, uint16_t size)
  71:../../libs/libDaisy/src/dev/mpr121.h ****     {
  72:../../libs/libDaisy/src/dev/mpr121.h ****         return I2CHandle::Result::OK
  73:../../libs/libDaisy/src/dev/mpr121.h ****                != i2c_.ReceiveBlocking(config_.dev_addr, data, size, 10);
  74:../../libs/libDaisy/src/dev/mpr121.h ****     }
  75:../../libs/libDaisy/src/dev/mpr121.h ****     bool ReadMem(uint8_t *data, uint8_t memAddress, uint16_t memSize)
  76:../../libs/libDaisy/src/dev/mpr121.h ****     {
  77:../../libs/libDaisy/src/dev/mpr121.h ****        return I2CHandle::Result::OK
  78:../../libs/libDaisy/src/dev/mpr121.h ****               != i2c_.Mem_read(
  79:../../libs/libDaisy/src/dev/mpr121.h ****                    config_.dev_addr, 
  80:../../libs/libDaisy/src/dev/mpr121.h ****                    memAddress,
  81:../../libs/libDaisy/src/dev/mpr121.h ****                    1,
  82:../../libs/libDaisy/src/dev/mpr121.h ****                    data,
  83:../../libs/libDaisy/src/dev/mpr121.h ****                    memSize,
  84:../../libs/libDaisy/src/dev/mpr121.h ****                    10);
  85:../../libs/libDaisy/src/dev/mpr121.h ****    }
  86:../../libs/libDaisy/src/dev/mpr121.h ****   private:
  87:../../libs/libDaisy/src/dev/mpr121.h ****     I2CHandle i2c_;
  88:../../libs/libDaisy/src/dev/mpr121.h ****     Config    config_;
  89:../../libs/libDaisy/src/dev/mpr121.h **** };
  90:../../libs/libDaisy/src/dev/mpr121.h **** 
  91:../../libs/libDaisy/src/dev/mpr121.h **** 
  92:../../libs/libDaisy/src/dev/mpr121.h **** /** @brief Device support for MPR121 12x Capacitive Touch Sensor
  93:../../libs/libDaisy/src/dev/mpr121.h ****     @author beserge
  94:../../libs/libDaisy/src/dev/mpr121.h ****     @date December 2021
  95:../../libs/libDaisy/src/dev/mpr121.h **** */
  96:../../libs/libDaisy/src/dev/mpr121.h **** template <typename Transport>
  97:../../libs/libDaisy/src/dev/mpr121.h **** class Mpr121
  98:../../libs/libDaisy/src/dev/mpr121.h **** {
  99:../../libs/libDaisy/src/dev/mpr121.h ****   public:
 100:../../libs/libDaisy/src/dev/mpr121.h ****     Mpr121() {}
 101:../../libs/libDaisy/src/dev/mpr121.h ****     ~Mpr121() {}
 135              		.loc 9 101 5 is_stmt 1 view -0
 136              		.cfi_startproc
 137              		@ args = 0, pretend = 0, frame = 0
 138              		@ frame_needed = 0, uses_anonymous_args = 0
 139              		@ link register save eliminated.
 140              	.LBB349:
 141              	.LBI349:
ARM GAS  C:\Users\matte\AppData\Local\Temp\ccIv7HUw.s 			page 13


  21:../../libs/libDaisy/src/dev/mpr121.h **** 
 142              		.loc 9 21 5 view .LVU17
  21:../../libs/libDaisy/src/dev/mpr121.h **** 
 143              		.loc 9 21 5 is_stmt 0 view .LVU18
 144              	.LBE349:
 145              		.loc 9 101 16 view .LVU19
 146 0000 7047     		bx	lr
 147              		.cfi_endproc
 148              	.LFE5395:
 150              		.weak	_ZN5daisy6Mpr121INS_18Mpr121I2CTransportEED1Ev
 151              		.thumb_set _ZN5daisy6Mpr121INS_18Mpr121I2CTransportEED1Ev,_ZN5daisy6Mpr121INS_18Mpr121I2CTransport
 152 0002 00BF     		.section	.text._ZL13AudioCallbackPKfPfj,"ax",%progbits
 153              		.align	1
 154              		.p2align 2,,3
 155              		.syntax unified
 156              		.thumb
 157              		.thumb_func
 158              		.fpu fpv5-d16
 160              	_ZL13AudioCallbackPKfPfj:
 161              	.LVL4:
 162              	.LFB4818:
 163              		.file 10 "main.cpp"
   1:main.cpp      **** #include "../../libs/libDaisy/src/daisy_seed.h"  
   2:main.cpp      **** #include "../../libs/DaisySP/Source/daisysp.h"
   3:main.cpp      **** #include "pentaPianta.h"
   4:main.cpp      **** #include "AnalogDelay.h"
   5:main.cpp      **** #include "config.h"
   6:main.cpp      **** 
   7:main.cpp      **** #ifndef _BV  //used to mask registers' bits related to the channel
   8:main.cpp      **** #define _BV(bit) (1 << (bit)) 
   9:main.cpp      **** #endif
  10:main.cpp      **** using namespace daisy;
  11:main.cpp      **** using namespace daisysp;
  12:main.cpp      **** //--OLD ARDUINO: Adafruit_MPR121 cap = Adafruit_MPR121();
  13:main.cpp      **** // creates object for mpr121
  14:main.cpp      **** daisy::Mpr121I2C cap;
  15:main.cpp      **** 
  16:main.cpp      **** int soglie[8] = {2,0,65, 70, 80, 90,100, 105};
  17:main.cpp      **** pentaPianta p_pluck(soglie,f_pluck), p_pad(soglie,f_pad), p_bass(soglie,f_bass);
  18:main.cpp      **** 
  19:main.cpp      **** // DaisyHardware hw;
  20:main.cpp      **** DaisySeed hw;
  21:main.cpp      **** //Pluck
  22:main.cpp      **** Oscillator pluck, pad, bass;
  23:main.cpp      **** Oscillator pluck_modulator;
  24:main.cpp      **** Adsr amp_eg_pluck, amp_eg_pad, amp_eg_bass;
  25:main.cpp      **** Adsr filt_eg_pluck, filt_eg_pad, filt_eg_bass;
  26:main.cpp      **** // MoogLadder VCF_pluck, VCF_pad, VCF_bass; HOPE LADDER IS THE SAME AS MOOGLADDER
  27:main.cpp      **** LadderFilter VCF_pluck, VCF_pad, VCF_bass;
  28:main.cpp      **** 
  29:main.cpp      **** uint16_t value_pluck, value_pad, value_bass;
  30:main.cpp      **** float now_f_pluck, now_f_pad, now_f_bass;
  31:main.cpp      **** bool Gate_pluck, Gate_pad, Gate_bass;
  32:main.cpp      **** 
  33:main.cpp      **** AnalogDelay Delay;
  34:main.cpp      **** 
  35:main.cpp      **** float out_mix;
ARM GAS  C:\Users\matte\AppData\Local\Temp\ccIv7HUw.s 			page 14


  36:main.cpp      **** 
  37:main.cpp      **** static void AudioCallback(AudioHandle::InterleavingInputBuffer  in,
  38:main.cpp      ****                           AudioHandle::InterleavingOutputBuffer out,
  39:main.cpp      ****                           size_t                                size)
  40:main.cpp      **** {
 164              		.loc 10 40 1 is_stmt 1 view -0
 165              		.cfi_startproc
 166              		@ args = 0, pretend = 0, frame = 16
 167              		@ frame_needed = 0, uses_anonymous_args = 0
  41:main.cpp      ****   pluck_modulator.SetFreq(now_f_pluck * ratio);
 168              		.loc 10 41 3 view .LVU21
 169              		.loc 10 41 26 is_stmt 0 view .LVU22
 170 0000 6048     		ldr	r0, .L14
 171              	.LVL5:
 172              		.loc 10 41 26 view .LVU23
 173 0002 614B     		ldr	r3, .L14+4
 174 0004 90ED000A 		vldr.32	s0, [r0]
 175 0008 D3ED007A 		vldr.32	s15, [r3]
  40:main.cpp      ****   pluck_modulator.SetFreq(now_f_pluck * ratio);
 176              		.loc 10 40 1 view .LVU24
 177 000c 2DE9F04F 		push	{r4, r5, r6, r7, r8, r9, r10, fp, lr}
 178              		.cfi_def_cfa_offset 36
 179              		.cfi_offset 4, -36
 180              		.cfi_offset 5, -32
 181              		.cfi_offset 6, -28
 182              		.cfi_offset 7, -24
 183              		.cfi_offset 8, -20
 184              		.cfi_offset 9, -16
 185              		.cfi_offset 10, -12
 186              		.cfi_offset 11, -8
 187              		.cfi_offset 14, -4
 188              		.loc 10 41 26 view .LVU25
 189 0010 20EE270A 		vmul.f32	s0, s0, s15
 190              	.LVL6:
 191              	.LBB350:
 192              	.LBI350:
  25:../../libs/DaisySP//Source/Synthesis/oscillator.h ****     /** Choices for output waveforms, POLYBLEP are appropriately labeled. Others are naive forms.
  26:../../libs/DaisySP//Source/Synthesis/oscillator.h ****     */
  27:../../libs/DaisySP//Source/Synthesis/oscillator.h ****     enum
  28:../../libs/DaisySP//Source/Synthesis/oscillator.h ****     {
  29:../../libs/DaisySP//Source/Synthesis/oscillator.h ****         WAVE_SIN,
  30:../../libs/DaisySP//Source/Synthesis/oscillator.h ****         WAVE_TRI,
  31:../../libs/DaisySP//Source/Synthesis/oscillator.h ****         WAVE_SAW,
  32:../../libs/DaisySP//Source/Synthesis/oscillator.h ****         WAVE_RAMP,
  33:../../libs/DaisySP//Source/Synthesis/oscillator.h ****         WAVE_SQUARE,
  34:../../libs/DaisySP//Source/Synthesis/oscillator.h ****         WAVE_POLYBLEP_TRI,
  35:../../libs/DaisySP//Source/Synthesis/oscillator.h ****         WAVE_POLYBLEP_SAW,
  36:../../libs/DaisySP//Source/Synthesis/oscillator.h ****         WAVE_POLYBLEP_SQUARE,
  37:../../libs/DaisySP//Source/Synthesis/oscillator.h ****         WAVE_LAST,
  38:../../libs/DaisySP//Source/Synthesis/oscillator.h ****     };
  39:../../libs/DaisySP//Source/Synthesis/oscillator.h **** 
  40:../../libs/DaisySP//Source/Synthesis/oscillator.h **** 
  41:../../libs/DaisySP//Source/Synthesis/oscillator.h ****     /** Initializes the Oscillator
  42:../../libs/DaisySP//Source/Synthesis/oscillator.h **** 
  43:../../libs/DaisySP//Source/Synthesis/oscillator.h ****         \param sample_rate - sample rate of the audio engine being run, and the frequency that the 
  44:../../libs/DaisySP//Source/Synthesis/oscillator.h **** 
  45:../../libs/DaisySP//Source/Synthesis/oscillator.h ****         Defaults:
ARM GAS  C:\Users\matte\AppData\Local\Temp\ccIv7HUw.s 			page 15


  46:../../libs/DaisySP//Source/Synthesis/oscillator.h ****         - freq_ = 100 Hz
  47:../../libs/DaisySP//Source/Synthesis/oscillator.h ****         - amp_ = 0.5
  48:../../libs/DaisySP//Source/Synthesis/oscillator.h ****         - waveform_ = sine wave.
  49:../../libs/DaisySP//Source/Synthesis/oscillator.h ****     */
  50:../../libs/DaisySP//Source/Synthesis/oscillator.h ****     void Init(float sample_rate)
  51:../../libs/DaisySP//Source/Synthesis/oscillator.h ****     {
  52:../../libs/DaisySP//Source/Synthesis/oscillator.h ****         sr_        = sample_rate;
  53:../../libs/DaisySP//Source/Synthesis/oscillator.h ****         sr_recip_  = 1.0f / sample_rate;
  54:../../libs/DaisySP//Source/Synthesis/oscillator.h ****         freq_      = 100.0f;
  55:../../libs/DaisySP//Source/Synthesis/oscillator.h ****         amp_       = 0.5f;
  56:../../libs/DaisySP//Source/Synthesis/oscillator.h ****         pw_        = 0.5f;
  57:../../libs/DaisySP//Source/Synthesis/oscillator.h ****         phase_     = 0.0f;
  58:../../libs/DaisySP//Source/Synthesis/oscillator.h ****         phase_inc_ = CalcPhaseInc(freq_);
  59:../../libs/DaisySP//Source/Synthesis/oscillator.h ****         waveform_  = WAVE_SIN;
  60:../../libs/DaisySP//Source/Synthesis/oscillator.h ****         eoc_       = true;
  61:../../libs/DaisySP//Source/Synthesis/oscillator.h ****         eor_       = true;
  62:../../libs/DaisySP//Source/Synthesis/oscillator.h ****     }
  63:../../libs/DaisySP//Source/Synthesis/oscillator.h **** 
  64:../../libs/DaisySP//Source/Synthesis/oscillator.h **** 
  65:../../libs/DaisySP//Source/Synthesis/oscillator.h ****     /** Changes the frequency of the Oscillator, and recalculates phase increment.
  66:../../libs/DaisySP//Source/Synthesis/oscillator.h ****     */
  67:../../libs/DaisySP//Source/Synthesis/oscillator.h ****     inline void SetFreq(const float f)
 193              		.loc 8 67 17 is_stmt 1 view .LVU26
 194              	.LBB351:
  68:../../libs/DaisySP//Source/Synthesis/oscillator.h ****     {
  69:../../libs/DaisySP//Source/Synthesis/oscillator.h ****         freq_      = f;
 195              		.loc 8 69 9 view .LVU27
 196              		.loc 8 69 20 is_stmt 0 view .LVU28
 197 0014 5D4D     		ldr	r5, .L14+8
 198              	.LBE351:
 199              	.LBE350:
  40:main.cpp      ****   pluck_modulator.SetFreq(now_f_pluck * ratio);
 200              		.loc 10 40 1 view .LVU29
 201 0016 1446     		mov	r4, r2
 202 0018 0E46     		mov	r6, r1
 203              	.LBB354:
 204              	.LBB352:
  70:../../libs/DaisySP//Source/Synthesis/oscillator.h ****         phase_inc_ = CalcPhaseInc(f);
 205              		.loc 8 70 34 view .LVU30
 206 001a 2846     		mov	r0, r5
 207              	.LBE352:
 208              	.LBE354:
  40:main.cpp      ****   pluck_modulator.SetFreq(now_f_pluck * ratio);
 209              		.loc 10 40 1 view .LVU31
 210 001c 2DED0A8B 		vpush.64	{d8, d9, d10, d11, d12}
 211              		.cfi_def_cfa_offset 76
 212              		.cfi_offset 80, -76
 213              		.cfi_offset 81, -72
 214              		.cfi_offset 82, -68
 215              		.cfi_offset 83, -64
 216              		.cfi_offset 84, -60
 217              		.cfi_offset 85, -56
 218              		.cfi_offset 86, -52
 219              		.cfi_offset 87, -48
 220              		.cfi_offset 88, -44
 221              		.cfi_offset 89, -40
 222 0020 85B0     		sub	sp, sp, #20
ARM GAS  C:\Users\matte\AppData\Local\Temp\ccIv7HUw.s 			page 16


 223              		.cfi_def_cfa_offset 96
 224              	.LBB355:
 225              	.LBB353:
  69:../../libs/DaisySP//Source/Synthesis/oscillator.h ****         phase_inc_ = CalcPhaseInc(f);
 226              		.loc 8 69 20 view .LVU32
 227 0022 85ED020A 		vstr.32	s0, [r5, #8]
 228              		.loc 8 70 9 is_stmt 1 view .LVU33
 229              		.loc 8 70 34 is_stmt 0 view .LVU34
 230 0026 FFF7FEFF 		bl	_ZN7daisysp10Oscillator12CalcPhaseIncEf
 231              	.LVL7:
 232              		.loc 8 70 20 view .LVU35
 233 002a 85ED070A 		vstr.32	s0, [r5, #28]
 234              	.LVL8:
 235              		.loc 8 70 20 view .LVU36
 236              	.LBE353:
 237              	.LBE355:
  42:main.cpp      ****     
  43:main.cpp      ****   for (size_t i = 0; i < size; i+=2) {
 238              		.loc 10 43 3 is_stmt 1 view .LVU37
 239              	.LBB356:
 240              		.loc 10 43 24 view .LVU38
 241 002e 002C     		cmp	r4, #0
 242 0030 00F0A280 		beq	.L6
 243 0034 013C     		subs	r4, r4, #1
 244              	.LVL9:
 245              		.loc 10 43 24 is_stmt 0 view .LVU39
 246 0036 3346     		mov	r3, r6
 247 0038 0022     		movs	r2, #0
 248 003a 554E     		ldr	r6, .L14+12
 249              	.LVL10:
 250              		.loc 10 43 24 view .LVU40
 251 003c 6108     		lsrs	r1, r4, #1
 252 003e 554D     		ldr	r5, .L14+16
 253 0040 554C     		ldr	r4, .L14+20
 254              	.LVL11:
 255              		.loc 10 43 24 view .LVU41
 256 0042 DFF898B1 		ldr	fp, .L14+88
 257 0046 DFF898A1 		ldr	r10, .L14+92
 258 004a DFF89891 		ldr	r9, .L14+96
 259 004e DFF89881 		ldr	r8, .L14+100
 260 0052 524F     		ldr	r7, .L14+24
 261 0054 0391     		str	r1, [sp, #12]
 262              	.LVL12:
 263              	.L8:
 264              	.LBB357:
  44:main.cpp      **** 
  45:main.cpp      ****     float amp_env_pluck = amp_eg_pluck.Process(Gate_pluck);                 //crea inviluppo ampiez
 265              		.loc 10 45 5 is_stmt 1 discriminator 2 view .LVU42
 266              		.loc 10 45 47 is_stmt 0 discriminator 2 view .LVU43
 267 0056 3178     		ldrb	r1, [r6]	@ zero_extendqisi2
 268 0058 5148     		ldr	r0, .L14+28
 269 005a CDE90132 		strd	r3, r2, [sp, #4]
 270              	.LVL13:
 271              		.loc 10 45 47 discriminator 2 view .LVU44
 272 005e FFF7FEFF 		bl	_ZN7daisysp4Adsr7ProcessEb
 273              	.LVL14:
  46:main.cpp      ****     float amp_env_pad = amp_eg_pad.Process(Gate_pad);
ARM GAS  C:\Users\matte\AppData\Local\Temp\ccIv7HUw.s 			page 17


 274              		.loc 10 46 43 discriminator 2 view .LVU45
 275 0062 2978     		ldrb	r1, [r5]	@ zero_extendqisi2
 276 0064 4F48     		ldr	r0, .L14+32
  45:main.cpp      ****     float amp_env_pad = amp_eg_pad.Process(Gate_pad);
 277              		.loc 10 45 47 discriminator 2 view .LVU46
 278 0066 F0EE409A 		vmov.f32	s19, s0
 279              	.LVL15:
 280              		.loc 10 46 5 is_stmt 1 discriminator 2 view .LVU47
 281              		.loc 10 46 43 is_stmt 0 discriminator 2 view .LVU48
 282 006a FFF7FEFF 		bl	_ZN7daisysp4Adsr7ProcessEb
 283              	.LVL16:
  47:main.cpp      ****     float amp_env_bass = amp_eg_bass.Process(Gate_bass); // Process amplitude envelope for bass
 284              		.loc 10 47 45 discriminator 2 view .LVU49
 285 006e 2178     		ldrb	r1, [r4]	@ zero_extendqisi2
 286 0070 4D48     		ldr	r0, .L14+36
  46:main.cpp      ****     float amp_env_pad = amp_eg_pad.Process(Gate_pad);
 287              		.loc 10 46 43 discriminator 2 view .LVU50
 288 0072 B0EE409A 		vmov.f32	s18, s0
 289              	.LVL17:
 290              		.loc 10 47 5 is_stmt 1 discriminator 2 view .LVU51
 291              		.loc 10 47 45 is_stmt 0 discriminator 2 view .LVU52
 292 0076 FFF7FEFF 		bl	_ZN7daisysp4Adsr7ProcessEb
 293              	.LVL18:
  48:main.cpp      **** 
  49:main.cpp      ****     float filt_env_pluck = filt_eg_pluck.Process(Gate_pluck);
 294              		.loc 10 49 49 discriminator 2 view .LVU53
 295 007a 3178     		ldrb	r1, [r6]	@ zero_extendqisi2
 296 007c 4B48     		ldr	r0, .L14+40
  47:main.cpp      ****     float amp_env_bass = amp_eg_bass.Process(Gate_bass); // Process amplitude envelope for bass
 297              		.loc 10 47 45 discriminator 2 view .LVU54
 298 007e F0EE408A 		vmov.f32	s17, s0
 299              	.LVL19:
 300              		.loc 10 49 5 is_stmt 1 discriminator 2 view .LVU55
 301              		.loc 10 49 49 is_stmt 0 discriminator 2 view .LVU56
 302 0082 FFF7FEFF 		bl	_ZN7daisysp4Adsr7ProcessEb
 303              	.LVL20:
  50:main.cpp      ****     float filt_env_pad = filt_eg_pad.Process(Gate_pad);                     //crea inviluppo ampiez
 304              		.loc 10 50 45 discriminator 2 view .LVU57
 305 0086 2978     		ldrb	r1, [r5]	@ zero_extendqisi2
 306 0088 4948     		ldr	r0, .L14+44
  49:main.cpp      ****     float filt_env_pad = filt_eg_pad.Process(Gate_pad);                     //crea inviluppo ampiez
 307              		.loc 10 49 49 discriminator 2 view .LVU58
 308 008a F0EE40CA 		vmov.f32	s25, s0
 309              	.LVL21:
 310              		.loc 10 50 5 is_stmt 1 discriminator 2 view .LVU59
 311              		.loc 10 50 45 is_stmt 0 discriminator 2 view .LVU60
 312 008e FFF7FEFF 		bl	_ZN7daisysp4Adsr7ProcessEb
 313              	.LVL22:
  51:main.cpp      ****     float filt_env_bass = filt_eg_bass.Process(Gate_bass); // Process filter envelope for bass
 314              		.loc 10 51 47 discriminator 2 view .LVU61
 315 0092 2178     		ldrb	r1, [r4]	@ zero_extendqisi2
 316 0094 4748     		ldr	r0, .L14+48
  50:main.cpp      ****     float filt_env_pad = filt_eg_pad.Process(Gate_pad);                     //crea inviluppo ampiez
 317              		.loc 10 50 45 discriminator 2 view .LVU62
 318 0096 B0EE40CA 		vmov.f32	s24, s0
 319              	.LVL23:
 320              		.loc 10 51 5 is_stmt 1 discriminator 2 view .LVU63
ARM GAS  C:\Users\matte\AppData\Local\Temp\ccIv7HUw.s 			page 18


 321              		.loc 10 51 47 is_stmt 0 discriminator 2 view .LVU64
 322 009a FFF7FEFF 		bl	_ZN7daisysp4Adsr7ProcessEb
 323              	.LVL24:
  52:main.cpp      **** 
  53:main.cpp      ****                       
  54:main.cpp      ****     float raw_pluck = pluck.Process()*pluck_modulator.Process()*5;                                 
 324              		.loc 10 54 36 discriminator 2 view .LVU65
 325 009e 4648     		ldr	r0, .L14+52
  51:main.cpp      ****     float filt_env_bass = filt_eg_bass.Process(Gate_bass); // Process filter envelope for bass
 326              		.loc 10 51 47 discriminator 2 view .LVU66
 327 00a0 F0EE40BA 		vmov.f32	s23, s0
 328              	.LVL25:
 329              		.loc 10 54 5 is_stmt 1 discriminator 2 view .LVU67
 330              		.loc 10 54 36 is_stmt 0 discriminator 2 view .LVU68
 331 00a4 FFF7FEFF 		bl	_ZN7daisysp10Oscillator7ProcessEv
 332              	.LVL26:
 333              		.loc 10 54 62 discriminator 2 view .LVU69
 334 00a8 3848     		ldr	r0, .L14+8
 335              		.loc 10 54 36 discriminator 2 view .LVU70
 336 00aa B0EE408A 		vmov.f32	s16, s0
 337              		.loc 10 54 62 discriminator 2 view .LVU71
 338 00ae FFF7FEFF 		bl	_ZN7daisysp10Oscillator7ProcessEv
 339              	.LVL27:
  55:main.cpp      ****     float raw_pad = pad.Process();                                        // ho il suono del pad
 340              		.loc 10 55 32 discriminator 2 view .LVU72
 341 00b2 4248     		ldr	r0, .L14+56
  54:main.cpp      ****     float raw_pad = pad.Process();                                        // ho il suono del pad
 342              		.loc 10 54 62 discriminator 2 view .LVU73
 343 00b4 B0EE40AA 		vmov.f32	s20, s0
 344              	.LVL28:
 345              		.loc 10 55 5 is_stmt 1 discriminator 2 view .LVU74
 346              		.loc 10 55 32 is_stmt 0 discriminator 2 view .LVU75
 347 00b8 FFF7FEFF 		bl	_ZN7daisysp10Oscillator7ProcessEv
 348              	.LVL29:
  56:main.cpp      ****     float raw_bass = bass.Process(); // Process raw sound for bass
 349              		.loc 10 56 34 discriminator 2 view .LVU76
 350 00bc 4048     		ldr	r0, .L14+60
  55:main.cpp      ****     float raw_pad = pad.Process();                                        // ho il suono del pad
 351              		.loc 10 55 32 discriminator 2 view .LVU77
 352 00be B0EE40BA 		vmov.f32	s22, s0
 353              	.LVL30:
 354              		.loc 10 56 5 is_stmt 1 discriminator 2 view .LVU78
 355              		.loc 10 56 34 is_stmt 0 discriminator 2 view .LVU79
 356 00c2 FFF7FEFF 		bl	_ZN7daisysp10Oscillator7ProcessEv
 357              	.LVL31:
  57:main.cpp      **** 
  58:main.cpp      ****     VCF_pluck.SetFreq(ft_pluck - filt_env_pluck*f_EG_pluck);       //applico l'inviluppo al filtro 
 358              		.loc 10 58 22 discriminator 2 view .LVU80
 359 00c6 DBED007A 		vldr.32	s15, [fp]
 360 00ca 9AED007A 		vldr.32	s14, [r10]
  56:main.cpp      ****     float raw_bass = bass.Process(); // Process raw sound for bass
 361              		.loc 10 56 34 discriminator 2 view .LVU81
 362 00ce F0EE40AA 		vmov.f32	s21, s0
 363              	.LVL32:
 364              		.loc 10 58 5 is_stmt 1 discriminator 2 view .LVU82
 365              		.loc 10 58 22 is_stmt 0 discriminator 2 view .LVU83
 366 00d2 3C48     		ldr	r0, .L14+64
ARM GAS  C:\Users\matte\AppData\Local\Temp\ccIv7HUw.s 			page 19


 367 00d4 A7EEEC7A 		vfms.f32	s14, s15, s25
 368 00d8 B0EE470A 		vmov.f32	s0, s14
 369              	.LVL33:
 370              		.loc 10 58 22 discriminator 2 view .LVU84
 371 00dc FFF7FEFF 		bl	_ZN7daisysp12LadderFilter7SetFreqEf
 372              	.LVL34:
  59:main.cpp      ****     VCF_pad.SetFreq(ft_pad + filt_env_pad*f_EG_pad);               //applico l'inviluppo al filtro 
 373              		.loc 10 59 5 is_stmt 1 discriminator 2 view .LVU85
 374              		.loc 10 59 20 is_stmt 0 discriminator 2 view .LVU86
 375 00e0 D9ED007A 		vldr.32	s15, [r9]
 376 00e4 98ED000A 		vldr.32	s0, [r8]
 377 00e8 3748     		ldr	r0, .L14+68
 378 00ea A7EE8C0A 		vfma.f32	s0, s15, s24
 379 00ee FFF7FEFF 		bl	_ZN7daisysp12LadderFilter7SetFreqEf
 380              	.LVL35:
  60:main.cpp      ****     VCF_bass.SetFreq(ft_bass + filt_env_bass * f_EG_bass); // Apply filter envelope to bass
 381              		.loc 10 60 5 is_stmt 1 discriminator 2 view .LVU87
 382              		.loc 10 60 21 is_stmt 0 discriminator 2 view .LVU88
 383 00f2 364B     		ldr	r3, .L14+72
 384 00f4 D7ED007A 		vldr.32	s15, [r7]
 385 00f8 93ED000A 		vldr.32	s0, [r3]
 386 00fc 3448     		ldr	r0, .L14+76
 387 00fe A7EEAB0A 		vfma.f32	s0, s15, s23
 388 0102 FFF7FEFF 		bl	_ZN7daisysp12LadderFilter7SetFreqEf
 389              	.LVL36:
  61:main.cpp      **** 
  62:main.cpp      ****     float filt_pluck =VCF_pluck.Process(raw_pluck)* amp_env_pluck;       //filtro e applico invilup
 390              		.loc 10 62 5 is_stmt 1 discriminator 2 view .LVU89
  54:main.cpp      ****     float raw_pad = pad.Process();                                        // ho il suono del pad
 391              		.loc 10 54 38 is_stmt 0 discriminator 2 view .LVU90
 392 0106 28EE0A8A 		vmul.f32	s16, s16, s20
 393              	.LVL37:
  54:main.cpp      ****     float raw_pad = pad.Process();                                        // ho il suono del pad
 394              		.loc 10 54 65 discriminator 2 view .LVU91
 395 010a B1EE040A 		vmov.f32	s0, #5.0e+0
 396              		.loc 10 62 40 discriminator 2 view .LVU92
 397 010e 2D48     		ldr	r0, .L14+64
 398 0110 28EE000A 		vmul.f32	s0, s16, s0
 399              	.LVL38:
 400              		.loc 10 62 40 discriminator 2 view .LVU93
 401 0114 FFF7FEFF 		bl	_ZN7daisysp12LadderFilter7ProcessEf
 402              	.LVL39:
 403              		.loc 10 62 40 discriminator 2 view .LVU94
 404 0118 B0EE40AA 		vmov.f32	s20, s0
  63:main.cpp      ****     float filt_pad =VCF_pad.Process(raw_pad)* amp_env_pad;               //filtro e applico invilup
 405              		.loc 10 63 36 discriminator 2 view .LVU95
 406 011c 2A48     		ldr	r0, .L14+68
 407 011e B0EE4B0A 		vmov.f32	s0, s22
 408 0122 FFF7FEFF 		bl	_ZN7daisysp12LadderFilter7ProcessEf
 409              	.LVL40:
  64:main.cpp      ****     float filt_bass = VCF_bass.Process(raw_bass) * amp_env_bass; // Filter and apply amplitude enve
 410              		.loc 10 64 39 discriminator 2 view .LVU96
 411 0126 2A48     		ldr	r0, .L14+76
  62:main.cpp      ****     float filt_pad =VCF_pad.Process(raw_pad)* amp_env_pad;               //filtro e applico invilup
 412              		.loc 10 62 53 discriminator 2 view .LVU97
 413 0128 2AEE29AA 		vmul.f32	s20, s20, s19
 414              	.LVL41:
ARM GAS  C:\Users\matte\AppData\Local\Temp\ccIv7HUw.s 			page 20


  63:main.cpp      ****     float filt_pad =VCF_pad.Process(raw_pad)* amp_env_pad;               //filtro e applico invilup
 415              		.loc 10 63 5 is_stmt 1 discriminator 2 view .LVU98
  63:main.cpp      ****     float filt_pad =VCF_pad.Process(raw_pad)* amp_env_pad;               //filtro e applico invilup
 416              		.loc 10 63 36 is_stmt 0 discriminator 2 view .LVU99
 417 012c F0EE409A 		vmov.f32	s19, s0
 418              	.LVL42:
 419              		.loc 10 64 39 discriminator 2 view .LVU100
 420 0130 B0EE6A0A 		vmov.f32	s0, s21
 421              	.LVL43:
 422              		.loc 10 64 5 is_stmt 1 discriminator 2 view .LVU101
 423              		.loc 10 64 39 is_stmt 0 discriminator 2 view .LVU102
 424 0134 FFF7FEFF 		bl	_ZN7daisysp12LadderFilter7ProcessEf
 425              	.LVL44:
  65:main.cpp      **** 
  66:main.cpp      ****     raw_pluck *= amp_env_pluck;                      //non filtro e applico inviluppo
  67:main.cpp      ****     raw_pad *= amp_env_pad;                      //non filtro e applico inviluppo
  68:main.cpp      **** 
  69:main.cpp      **** 
  70:main.cpp      ****     float delay_pluck = Delay.Process(filt_pluck);
 426              		.loc 10 70 38 discriminator 2 view .LVU103
 427 0138 2648     		ldr	r0, .L14+80
  64:main.cpp      **** 
 428              		.loc 10 64 39 discriminator 2 view .LVU104
 429 013a B0EE408A 		vmov.f32	s16, s0
 430              		.loc 10 70 38 discriminator 2 view .LVU105
 431 013e B0EE4A0A 		vmov.f32	s0, s20
 432              	.LVL45:
  66:main.cpp      ****     raw_pad *= amp_env_pad;                      //non filtro e applico inviluppo
 433              		.loc 10 66 5 is_stmt 1 discriminator 2 view .LVU106
  67:main.cpp      **** 
 434              		.loc 10 67 5 discriminator 2 view .LVU107
 435              		.loc 10 70 5 discriminator 2 view .LVU108
 436              		.loc 10 70 38 is_stmt 0 discriminator 2 view .LVU109
 437 0142 FFF7FEFF 		bl	_ZN11AnalogDelay7ProcessEf
 438              	.LVL46:
  71:main.cpp      ****     float out_mix = (delay_pluck + filt_pad + filt_bass) * master; ;
 439              		.loc 10 71 5 is_stmt 1 discriminator 2 view .LVU110
 440              		.loc 10 71 34 is_stmt 0 discriminator 2 view .LVU111
 441 0146 F0EE407A 		vmov.f32	s15, s0
 442              		.loc 10 71 11 discriminator 2 view .LVU112
 443 014a 234B     		ldr	r3, .L14+84
 444              	.LBE357:
  43:main.cpp      **** 
 445              		.loc 10 43 24 discriminator 2 view .LVU113
 446 014c 0398     		ldr	r0, [sp, #12]
 447              	.LBB358:
 448              		.loc 10 71 34 discriminator 2 view .LVU114
 449 014e E9EE897A 		vfma.f32	s15, s19, s18
 450              		.loc 10 71 11 discriminator 2 view .LVU115
 451 0152 93ED000A 		vldr.32	s0, [r3]
 452              	.LVL47:
  72:main.cpp      ****     
  73:main.cpp      ****     
  74:main.cpp      ****     out[i] = out[i + 1] = out_mix;
 453              		.loc 10 74 25 discriminator 2 view .LVU116
 454 0156 019B     		ldr	r3, [sp, #4]
 455              		.loc 10 74 12 discriminator 2 view .LVU117
ARM GAS  C:\Users\matte\AppData\Local\Temp\ccIv7HUw.s 			page 21


 456 0158 1A46     		mov	r2, r3
 457 015a 0833     		adds	r3, r3, #8
  71:main.cpp      ****     
 458              		.loc 10 71 45 discriminator 2 view .LVU118
 459 015c E8EE287A 		vfma.f32	s15, s16, s17
  71:main.cpp      ****     
 460              		.loc 10 71 11 discriminator 2 view .LVU119
 461 0160 27EE800A 		vmul.f32	s0, s15, s0
 462              	.LVL48:
  71:main.cpp      ****     
 463              		.loc 10 71 68 is_stmt 1 discriminator 2 view .LVU120
 464              		.loc 10 74 5 discriminator 2 view .LVU121
 465              		.loc 10 74 25 is_stmt 0 discriminator 2 view .LVU122
 466 0164 03ED010A 		vstr.32	s0, [r3, #-4]
 467              		.loc 10 74 12 discriminator 2 view .LVU123
 468 0168 82ED000A 		vstr.32	s0, [r2]
 469              	.LBE358:
  43:main.cpp      **** 
 470              		.loc 10 43 3 is_stmt 1 discriminator 2 view .LVU124
 471              	.LVL49:
  43:main.cpp      **** 
 472              		.loc 10 43 24 discriminator 2 view .LVU125
 473 016c 029A     		ldr	r2, [sp, #8]
 474 016e 9042     		cmp	r0, r2
 475 0170 02F10102 		add	r2, r2, #1
 476 0174 7FF46FAF 		bne	.L8
 477              	.LVL50:
 478              	.L6:
  43:main.cpp      **** 
 479              		.loc 10 43 24 is_stmt 0 discriminator 2 view .LVU126
 480              	.LBE356:
  75:main.cpp      ****   }
  76:main.cpp      **** }
 481              		.loc 10 76 1 view .LVU127
 482 0178 05B0     		add	sp, sp, #20
 483              		.cfi_def_cfa_offset 76
 484              		@ sp needed
 485 017a BDEC0A8B 		vldm	sp!, {d8-d12}
 486              		.cfi_restore 88
 487              		.cfi_restore 89
 488              		.cfi_restore 86
 489              		.cfi_restore 87
 490              		.cfi_restore 84
 491              		.cfi_restore 85
 492              		.cfi_restore 82
 493              		.cfi_restore 83
 494              		.cfi_restore 80
 495              		.cfi_restore 81
 496              		.cfi_def_cfa_offset 36
 497 017e BDE8F08F 		pop	{r4, r5, r6, r7, r8, r9, r10, fp, pc}
 498              	.L15:
 499 0182 00BF     		.align	2
 500              	.L14:
 501 0184 00000000 		.word	.LANCHOR0
 502 0188 00000000 		.word	.LANCHOR1
 503 018c 00000000 		.word	.LANCHOR2
 504 0190 00000000 		.word	.LANCHOR3
ARM GAS  C:\Users\matte\AppData\Local\Temp\ccIv7HUw.s 			page 22


 505 0194 00000000 		.word	.LANCHOR5
 506 0198 00000000 		.word	.LANCHOR7
 507 019c 00000000 		.word	.LANCHOR21
 508 01a0 00000000 		.word	.LANCHOR4
 509 01a4 00000000 		.word	.LANCHOR6
 510 01a8 00000000 		.word	.LANCHOR8
 511 01ac 00000000 		.word	.LANCHOR9
 512 01b0 00000000 		.word	.LANCHOR10
 513 01b4 00000000 		.word	.LANCHOR11
 514 01b8 00000000 		.word	.LANCHOR12
 515 01bc 00000000 		.word	.LANCHOR13
 516 01c0 00000000 		.word	.LANCHOR14
 517 01c4 00000000 		.word	.LANCHOR17
 518 01c8 00000000 		.word	.LANCHOR20
 519 01cc 00000000 		.word	.LANCHOR22
 520 01d0 00000000 		.word	.LANCHOR23
 521 01d4 00000000 		.word	Delay
 522 01d8 00000000 		.word	.LANCHOR24
 523 01dc 00000000 		.word	.LANCHOR15
 524 01e0 00000000 		.word	.LANCHOR16
 525 01e4 00000000 		.word	.LANCHOR18
 526 01e8 00000000 		.word	.LANCHOR19
 527              		.cfi_endproc
 528              	.LFE4818:
 530              		.section	.text._ZN7daisysp10Oscillator4InitEf,"axG",%progbits,_ZN7daisysp10Oscillator4InitEf,comda
 531              		.align	1
 532              		.p2align 2,,3
 533              		.weak	_ZN7daisysp10Oscillator4InitEf
 534              		.syntax unified
 535              		.thumb
 536              		.thumb_func
 537              		.fpu fpv5-d16
 539              	_ZN7daisysp10Oscillator4InitEf:
 540              	.LVL51:
 541              	.LFB4333:
  50:../../libs/DaisySP//Source/Synthesis/oscillator.h ****     {
 542              		.loc 8 50 10 is_stmt 1 view -0
 543              		.cfi_startproc
 544              		@ args = 0, pretend = 0, frame = 0
 545              		@ frame_needed = 0, uses_anonymous_args = 0
  52:../../libs/DaisySP//Source/Synthesis/oscillator.h ****         sr_recip_  = 1.0f / sample_rate;
 546              		.loc 8 52 9 view .LVU129
  50:../../libs/DaisySP//Source/Synthesis/oscillator.h ****     {
 547              		.loc 8 50 10 is_stmt 0 view .LVU130
 548 0000 F0EE407A 		vmov.f32	s15, s0
  55:../../libs/DaisySP//Source/Synthesis/oscillator.h ****         pw_        = 0.5f;
 549              		.loc 8 55 20 view .LVU131
 550 0004 4FF07C53 		mov	r3, #1056964608
  53:../../libs/DaisySP//Source/Synthesis/oscillator.h ****         freq_      = 100.0f;
 551              		.loc 8 53 27 view .LVU132
 552 0008 F7EE006A 		vmov.f32	s13, #1.0e+0
  57:../../libs/DaisySP//Source/Synthesis/oscillator.h ****         phase_inc_ = CalcPhaseInc(freq_);
 553              		.loc 8 57 20 view .LVU133
 554 000c 0022     		movs	r2, #0
  54:../../libs/DaisySP//Source/Synthesis/oscillator.h ****         amp_       = 0.5f;
 555              		.loc 8 54 20 view .LVU134
 556 000e 9FED0C0A 		vldr.32	s0, .L18
ARM GAS  C:\Users\matte\AppData\Local\Temp\ccIv7HUw.s 			page 23


 557              	.LVL52:
  55:../../libs/DaisySP//Source/Synthesis/oscillator.h ****         pw_        = 0.5f;
 558              		.loc 8 55 20 view .LVU135
 559 0012 4360     		str	r3, [r0, #4]	@ float
  53:../../libs/DaisySP//Source/Synthesis/oscillator.h ****         freq_      = 100.0f;
 560              		.loc 8 53 27 view .LVU136
 561 0014 86EEA77A 		vdiv.f32	s14, s13, s15
  56:../../libs/DaisySP//Source/Synthesis/oscillator.h ****         phase_     = 0.0f;
 562              		.loc 8 56 20 view .LVU137
 563 0018 C360     		str	r3, [r0, #12]	@ float
  57:../../libs/DaisySP//Source/Synthesis/oscillator.h ****         phase_inc_ = CalcPhaseInc(freq_);
 564              		.loc 8 57 20 view .LVU138
 565 001a 8261     		str	r2, [r0, #24]	@ float
  52:../../libs/DaisySP//Source/Synthesis/oscillator.h ****         sr_recip_  = 1.0f / sample_rate;
 566              		.loc 8 52 20 view .LVU139
 567 001c C0ED047A 		vstr.32	s15, [r0, #16]
  53:../../libs/DaisySP//Source/Synthesis/oscillator.h ****         freq_      = 100.0f;
 568              		.loc 8 53 9 is_stmt 1 view .LVU140
  54:../../libs/DaisySP//Source/Synthesis/oscillator.h ****         amp_       = 0.5f;
 569              		.loc 8 54 20 is_stmt 0 view .LVU141
 570 0020 80ED020A 		vstr.32	s0, [r0, #8]
  50:../../libs/DaisySP//Source/Synthesis/oscillator.h ****     {
 571              		.loc 8 50 10 view .LVU142
 572 0024 10B5     		push	{r4, lr}
 573              		.cfi_def_cfa_offset 8
 574              		.cfi_offset 4, -8
 575              		.cfi_offset 14, -4
  50:../../libs/DaisySP//Source/Synthesis/oscillator.h ****     {
 576              		.loc 8 50 10 view .LVU143
 577 0026 0446     		mov	r4, r0
  53:../../libs/DaisySP//Source/Synthesis/oscillator.h ****         freq_      = 100.0f;
 578              		.loc 8 53 20 view .LVU144
 579 0028 80ED057A 		vstr.32	s14, [r0, #20]
  54:../../libs/DaisySP//Source/Synthesis/oscillator.h ****         amp_       = 0.5f;
 580              		.loc 8 54 9 is_stmt 1 view .LVU145
  55:../../libs/DaisySP//Source/Synthesis/oscillator.h ****         pw_        = 0.5f;
 581              		.loc 8 55 9 view .LVU146
  56:../../libs/DaisySP//Source/Synthesis/oscillator.h ****         phase_     = 0.0f;
 582              		.loc 8 56 9 view .LVU147
  57:../../libs/DaisySP//Source/Synthesis/oscillator.h ****         phase_inc_ = CalcPhaseInc(freq_);
 583              		.loc 8 57 9 view .LVU148
  58:../../libs/DaisySP//Source/Synthesis/oscillator.h ****         waveform_  = WAVE_SIN;
 584              		.loc 8 58 9 view .LVU149
  58:../../libs/DaisySP//Source/Synthesis/oscillator.h ****         waveform_  = WAVE_SIN;
 585              		.loc 8 58 34 is_stmt 0 view .LVU150
 586 002c FFF7FEFF 		bl	_ZN7daisysp10Oscillator12CalcPhaseIncEf
 587              	.LVL53:
  59:../../libs/DaisySP//Source/Synthesis/oscillator.h ****         eoc_       = true;
 588              		.loc 8 59 20 view .LVU151
 589 0030 0022     		movs	r2, #0
  61:../../libs/DaisySP//Source/Synthesis/oscillator.h ****     }
 590              		.loc 8 61 20 view .LVU152
 591 0032 40F20113 		movw	r3, #257
  58:../../libs/DaisySP//Source/Synthesis/oscillator.h ****         waveform_  = WAVE_SIN;
 592              		.loc 8 58 20 view .LVU153
 593 0036 84ED070A 		vstr.32	s0, [r4, #28]
  59:../../libs/DaisySP//Source/Synthesis/oscillator.h ****         eoc_       = true;
ARM GAS  C:\Users\matte\AppData\Local\Temp\ccIv7HUw.s 			page 24


 594              		.loc 8 59 9 is_stmt 1 view .LVU154
  59:../../libs/DaisySP//Source/Synthesis/oscillator.h ****         eoc_       = true;
 595              		.loc 8 59 20 is_stmt 0 view .LVU155
 596 003a 2270     		strb	r2, [r4]
  60:../../libs/DaisySP//Source/Synthesis/oscillator.h ****         eor_       = true;
 597              		.loc 8 60 9 is_stmt 1 view .LVU156
  61:../../libs/DaisySP//Source/Synthesis/oscillator.h ****     }
 598              		.loc 8 61 9 view .LVU157
  61:../../libs/DaisySP//Source/Synthesis/oscillator.h ****     }
 599              		.loc 8 61 20 is_stmt 0 view .LVU158
 600 003c 2385     		strh	r3, [r4, #40]	@ movhi
  62:../../libs/DaisySP//Source/Synthesis/oscillator.h **** 
 601              		.loc 8 62 5 view .LVU159
 602 003e 10BD     		pop	{r4, pc}
 603              	.LVL54:
 604              	.L19:
  62:../../libs/DaisySP//Source/Synthesis/oscillator.h **** 
 605              		.loc 8 62 5 view .LVU160
 606              		.align	2
 607              	.L18:
 608 0040 0000C842 		.word	1120403456
 609              		.cfi_endproc
 610              	.LFE4333:
 612              		.section	.text._ZN7daisysp12LadderFilterC2Ev,"axG",%progbits,_ZN7daisysp12LadderFilterC5Ev,comdat
 613              		.align	1
 614              		.p2align 2,,3
 615              		.weak	_ZN7daisysp12LadderFilterC2Ev
 616              		.syntax unified
 617              		.thumb
 618              		.thumb_func
 619              		.fpu fpv5-d16
 621              	_ZN7daisysp12LadderFilterC2Ev:
 622              	.LVL55:
 623              	.LFB4816:
 624              		.file 11 "../../libs/DaisySP/Source/Filters/ladder.h"
   1:../../libs/DaisySP/Source/Filters/ladder.h **** /* Ported from Audio Library for Teensy, Ladder Filter
   2:../../libs/DaisySP/Source/Filters/ladder.h ****  * Copyright (c) 2021, Richard van Hoesel
   3:../../libs/DaisySP/Source/Filters/ladder.h ****  * Copyright (c) 2024, Infrasonic Audio LLC
   4:../../libs/DaisySP/Source/Filters/ladder.h ****  *
   5:../../libs/DaisySP/Source/Filters/ladder.h ****  * Permission is hereby granted, free of charge, to any person obtaining a copy
   6:../../libs/DaisySP/Source/Filters/ladder.h ****  * of this software and associated documentation files (the "Software"), to deal
   7:../../libs/DaisySP/Source/Filters/ladder.h ****  * in the Software without restriction, including without limitation the rights
   8:../../libs/DaisySP/Source/Filters/ladder.h ****  * to use, copy, modify, merge, publish, distribute, sublicense, and/or sell
   9:../../libs/DaisySP/Source/Filters/ladder.h ****  * copies of the Software, and to permit persons to whom the Software is
  10:../../libs/DaisySP/Source/Filters/ladder.h ****  * furnished to do so, subject to the following conditions:
  11:../../libs/DaisySP/Source/Filters/ladder.h ****  *
  12:../../libs/DaisySP/Source/Filters/ladder.h ****  * The above copyright notice, development funding notice, and this permission
  13:../../libs/DaisySP/Source/Filters/ladder.h ****  * notice shall be included in all copies or substantial portions of the Software.
  14:../../libs/DaisySP/Source/Filters/ladder.h ****  *
  15:../../libs/DaisySP/Source/Filters/ladder.h ****  * THE SOFTWARE IS PROVIDED "AS IS", WITHOUT WARRANTY OF ANY KIND, EXPRESS OR
  16:../../libs/DaisySP/Source/Filters/ladder.h ****  * IMPLIED, INCLUDING BUT NOT LIMITED TO THE WARRANTIES OF MERCHANTABILITY,
  17:../../libs/DaisySP/Source/Filters/ladder.h ****  * FITNESS FOR A PARTICULAR PURPOSE AND NONINFRINGEMENT. IN NO EVENT SHALL THE
  18:../../libs/DaisySP/Source/Filters/ladder.h ****  * AUTHORS OR COPYRIGHT HOLDERS BE LIABLE FOR ANY CLAIM, DAMAGES OR OTHER
  19:../../libs/DaisySP/Source/Filters/ladder.h ****  * LIABILITY, WHETHER IN AN ACTION OF CONTRACT, TORT OR OTHERWISE, ARISING FROM,
  20:../../libs/DaisySP/Source/Filters/ladder.h ****  * OUT OF OR IN CONNECTION WITH THE SOFTWARE OR THE USE OR OTHER DEALINGS IN
  21:../../libs/DaisySP/Source/Filters/ladder.h ****  * THE SOFTWARE.
  22:../../libs/DaisySP/Source/Filters/ladder.h ****  */
ARM GAS  C:\Users\matte\AppData\Local\Temp\ccIv7HUw.s 			page 25


  23:../../libs/DaisySP/Source/Filters/ladder.h **** 
  24:../../libs/DaisySP/Source/Filters/ladder.h **** //-----------------------------------------------------------
  25:../../libs/DaisySP/Source/Filters/ladder.h **** // Huovilainen New Moog (HNM) model as per CMJ jun 2006
  26:../../libs/DaisySP/Source/Filters/ladder.h **** // Richard van Hoesel, v. 1.03, Feb. 14 2021
  27:../../libs/DaisySP/Source/Filters/ladder.h **** // v1.7 (Infrasonic/Daisy) add configurable filter mode
  28:../../libs/DaisySP/Source/Filters/ladder.h **** // v1.6 (Infrasonic/Daisy) removes polyphase FIR, uses 4x linear
  29:../../libs/DaisySP/Source/Filters/ladder.h **** //      oversampling for performance reasons
  30:../../libs/DaisySP/Source/Filters/ladder.h **** // v1.5 adds polyphase FIR or Linear interpolation
  31:../../libs/DaisySP/Source/Filters/ladder.h **** // v1.4 FC extended to 18.7kHz, max res to 1.8, 4x oversampling,
  32:../../libs/DaisySP/Source/Filters/ladder.h **** //      and a minor Q-tuning adjustment
  33:../../libs/DaisySP/Source/Filters/ladder.h **** // v.1.03 adds oversampling, extended resonance,
  34:../../libs/DaisySP/Source/Filters/ladder.h **** // and exposes parameters input_drive and passband_gain
  35:../../libs/DaisySP/Source/Filters/ladder.h **** // v.1.02 now includes both cutoff and resonance "CV" modulation inputs
  36:../../libs/DaisySP/Source/Filters/ladder.h **** // please retain this header if you use this code.
  37:../../libs/DaisySP/Source/Filters/ladder.h **** //-----------------------------------------------------------
  38:../../libs/DaisySP/Source/Filters/ladder.h **** 
  39:../../libs/DaisySP/Source/Filters/ladder.h **** #pragma once
  40:../../libs/DaisySP/Source/Filters/ladder.h **** #ifndef DSY_LADDER_H
  41:../../libs/DaisySP/Source/Filters/ladder.h **** #define DSY_LADDER_H
  42:../../libs/DaisySP/Source/Filters/ladder.h **** 
  43:../../libs/DaisySP/Source/Filters/ladder.h **** #include <stdlib.h>
  44:../../libs/DaisySP/Source/Filters/ladder.h **** #include <stdint.h>
  45:../../libs/DaisySP/Source/Filters/ladder.h **** #include <array>
  46:../../libs/DaisySP/Source/Filters/ladder.h **** #ifdef __cplusplus
  47:../../libs/DaisySP/Source/Filters/ladder.h **** 
  48:../../libs/DaisySP/Source/Filters/ladder.h **** namespace daisysp
  49:../../libs/DaisySP/Source/Filters/ladder.h **** {
  50:../../libs/DaisySP/Source/Filters/ladder.h **** /**
  51:../../libs/DaisySP/Source/Filters/ladder.h ****  * 4-pole ladder filter model with selectable filter type (LP/BP/HP 12 or 24 dB/oct),
  52:../../libs/DaisySP/Source/Filters/ladder.h ****  * drive, passband gain compensation, and stable self-oscillation.
  53:../../libs/DaisySP/Source/Filters/ladder.h ****  *
  54:../../libs/DaisySP/Source/Filters/ladder.h ****  *
  55:../../libs/DaisySP/Source/Filters/ladder.h ****  */
  56:../../libs/DaisySP/Source/Filters/ladder.h **** class LadderFilter
  57:../../libs/DaisySP/Source/Filters/ladder.h **** {
  58:../../libs/DaisySP/Source/Filters/ladder.h ****   public:
  59:../../libs/DaisySP/Source/Filters/ladder.h ****     enum class FilterMode
  60:../../libs/DaisySP/Source/Filters/ladder.h ****     {
  61:../../libs/DaisySP/Source/Filters/ladder.h ****         LP24,
  62:../../libs/DaisySP/Source/Filters/ladder.h ****         LP12,
  63:../../libs/DaisySP/Source/Filters/ladder.h ****         BP24,
  64:../../libs/DaisySP/Source/Filters/ladder.h ****         BP12,
  65:../../libs/DaisySP/Source/Filters/ladder.h ****         HP24,
  66:../../libs/DaisySP/Source/Filters/ladder.h ****         HP12
  67:../../libs/DaisySP/Source/Filters/ladder.h ****     };
  68:../../libs/DaisySP/Source/Filters/ladder.h **** 
  69:../../libs/DaisySP/Source/Filters/ladder.h ****     LadderFilter()  = default;
 625              		.loc 11 69 5 is_stmt 1 view -0
 626              		.cfi_startproc
 627              		@ args = 0, pretend = 0, frame = 0
 628              		@ frame_needed = 0, uses_anonymous_args = 0
 629              		@ link register save eliminated.
 630              	.LBB359:
 631              		.loc 11 69 5 is_stmt 0 view .LVU162
 632 0000 0023     		movs	r3, #0
 633 0002 C0E90333 		strd	r3, r3, [r0, #12]
 634 0006 C0E90533 		strd	r3, r3, [r0, #20]
ARM GAS  C:\Users\matte\AppData\Local\Temp\ccIv7HUw.s 			page 26


 635 000a C0E90733 		strd	r3, r3, [r0, #28]
 636 000e C0E90933 		strd	r3, r3, [r0, #36]
 637 0012 C0E90B33 		strd	r3, r3, [r0, #44]
 638 0016 C0E90D33 		strd	r3, r3, [r0, #52]
 639              	.LBE359:
 640 001a 7047     		bx	lr
 641              		.cfi_endproc
 642              	.LFE4816:
 644              		.weak	_ZN7daisysp12LadderFilterC1Ev
 645              		.thumb_set _ZN7daisysp12LadderFilterC1Ev,_ZN7daisysp12LadderFilterC2Ev
 646              		.section	.rodata.main.str1.4,"aMS",%progbits,1
 647              		.align	2
 648              	.LC0:
 649 0000 48616920 		.ascii	"Hai premuto il gate pluck (0) \000"
 649      7072656D 
 649      75746F20 
 649      696C2067 
 649      61746520 
 650 001f 00       		.align	2
 651              	.LC1:
 652 0020 20656420 		.ascii	" ed il suo valore \303\250 : \000"
 652      696C2073 
 652      756F2076 
 652      616C6F72 
 652      6520C3A8 
 653              		.align	2
 654              	.LC2:
 655 0038 256400   		.ascii	"%d\000"
 656 003b 00       		.align	2
 657              	.LC3:
 658 003c 46726571 		.ascii	"Frequenza: \000"
 658      75656E7A 
 658      613A2000 
 659              		.align	2
 660              	.LC4:
 661 0048 48616920 		.ascii	"Hai premuto il gate pad (1) \000"
 661      7072656D 
 661      75746F20 
 661      696C2067 
 661      61746520 
 662 0065 000000   		.align	2
 663              	.LC5:
 664 0068 48616920 		.ascii	"Hai premuto il gate bass (2) \000"
 664      7072656D 
 664      75746F20 
 664      696C2067 
 664      61746520 
 665              		.section	.text.startup.main,"ax",%progbits
 666              		.align	1
 667              		.p2align 2,,3
 668              		.global	main
 669              		.syntax unified
 670              		.thumb
 671              		.thumb_func
 672              		.fpu fpv5-d16
 674              	main:
 675              	.LFB4819:
ARM GAS  C:\Users\matte\AppData\Local\Temp\ccIv7HUw.s 			page 27


  77:main.cpp      **** 
  78:main.cpp      **** 
  79:main.cpp      **** int main () {
 676              		.loc 10 79 13 is_stmt 1 view -0
 677              		.cfi_startproc
 678              		@ args = 0, pretend = 0, frame = 8
 679              		@ frame_needed = 0, uses_anonymous_args = 0
  80:main.cpp      **** 
  81:main.cpp      ****   // hw = DAISY.init(DAISY_SEED, AUDIO_SR_48K);
  82:main.cpp      ****    float sample_rate;
 680              		.loc 10 82 4 view .LVU164
  83:main.cpp      ****     hw.Configure();
 681              		.loc 10 83 5 view .LVU165
  79:main.cpp      **** 
 682              		.loc 10 79 13 is_stmt 0 view .LVU166
 683 0000 2DE9F04F 		push	{r4, r5, r6, r7, r8, r9, r10, fp, lr}
 684              		.cfi_def_cfa_offset 36
 685              		.cfi_offset 4, -36
 686              		.cfi_offset 5, -32
 687              		.cfi_offset 6, -28
 688              		.cfi_offset 7, -24
 689              		.cfi_offset 8, -20
 690              		.cfi_offset 9, -16
 691              		.cfi_offset 10, -12
 692              		.cfi_offset 11, -8
 693              		.cfi_offset 14, -4
 694              		.loc 10 83 17 view .LVU167
 695 0004 D548     		ldr	r0, .L53
 696              	.LBB478:
 697              	.LBB479:
  71:../../libs/DaisySP//Source/Synthesis/oscillator.h ****     }
  72:../../libs/DaisySP//Source/Synthesis/oscillator.h **** 
  73:../../libs/DaisySP//Source/Synthesis/oscillator.h **** 
  74:../../libs/DaisySP//Source/Synthesis/oscillator.h ****     /** Sets the amplitude of the waveform.
  75:../../libs/DaisySP//Source/Synthesis/oscillator.h ****     */
  76:../../libs/DaisySP//Source/Synthesis/oscillator.h ****     inline void SetAmp(const float a) { amp_ = a; }
  77:../../libs/DaisySP//Source/Synthesis/oscillator.h ****     /** Sets the waveform to be synthesized by the Process() function.
  78:../../libs/DaisySP//Source/Synthesis/oscillator.h ****     */
  79:../../libs/DaisySP//Source/Synthesis/oscillator.h ****     inline void SetWaveform(const uint8_t wf)
  80:../../libs/DaisySP//Source/Synthesis/oscillator.h ****     {
  81:../../libs/DaisySP//Source/Synthesis/oscillator.h ****         waveform_ = wf < WAVE_LAST ? wf : WAVE_SIN;
 698              		.loc 8 81 19 view .LVU168
 699 0006 0125     		movs	r5, #1
 700              	.LBE479:
 701              	.LBE478:
  79:main.cpp      **** 
 702              		.loc 10 79 13 view .LVU169
 703 0008 2DED028B 		vpush.64	{d8}
 704              		.cfi_def_cfa_offset 44
 705              		.cfi_offset 80, -44
 706              		.cfi_offset 81, -40
 707 000c 87B0     		sub	sp, sp, #28
 708              		.cfi_def_cfa_offset 72
 709              		.loc 10 83 17 view .LVU170
 710 000e FFF7FEFF 		bl	_ZN5daisy9DaisySeed9ConfigureEv
 711              	.LVL56:
  84:main.cpp      ****     hw.Init();
ARM GAS  C:\Users\matte\AppData\Local\Temp\ccIv7HUw.s 			page 28


 712              		.loc 10 84 5 is_stmt 1 view .LVU171
 713              		.loc 10 84 12 is_stmt 0 view .LVU172
 714 0012 0021     		movs	r1, #0
 715 0014 D148     		ldr	r0, .L53
 716 0016 FFF7FEFF 		bl	_ZN5daisy9DaisySeed4InitEb
 717              	.LVL57:
  85:main.cpp      ****     hw.SetAudioBlockSize(4);
 718              		.loc 10 85 5 is_stmt 1 view .LVU173
 719              		.loc 10 85 25 is_stmt 0 view .LVU174
 720 001a 0421     		movs	r1, #4
 721 001c CF48     		ldr	r0, .L53
 722 001e FFF7FEFF 		bl	_ZN5daisy9DaisySeed17SetAudioBlockSizeEj
 723              	.LVL58:
  86:main.cpp      ****     sample_rate = hw.AudioSampleRate();
 724              		.loc 10 86 5 is_stmt 1 view .LVU175
 725              		.loc 10 86 37 is_stmt 0 view .LVU176
 726 0022 CE48     		ldr	r0, .L53
 727 0024 FFF7FEFF 		bl	_ZN5daisy9DaisySeed15AudioSampleRateEv
 728              	.LVL59:
  87:main.cpp      **** //-----------------------------------------------------------PLUCK
  88:main.cpp      **** //OSC
  89:main.cpp      ****   pluck.Init(sample_rate);
 729              		.loc 10 89 13 view .LVU177
 730 0028 CD48     		ldr	r0, .L53+4
  86:main.cpp      ****     sample_rate = hw.AudioSampleRate();
 731              		.loc 10 86 37 view .LVU178
 732 002a B0EE408A 		vmov.f32	s16, s0
 733              	.LVL60:
 734              		.loc 10 89 3 is_stmt 1 view .LVU179
 735              		.loc 10 89 13 is_stmt 0 view .LVU180
 736 002e FFF7FEFF 		bl	_ZN7daisysp10Oscillator4InitEf
 737              	.LVL61:
  90:main.cpp      ****   pluck.SetWaveform(pluck.WAVE_TRI);
 738              		.loc 10 90 3 is_stmt 1 view .LVU181
 739              	.LBB482:
 740              	.LBI478:
  79:../../libs/DaisySP//Source/Synthesis/oscillator.h ****     {
 741              		.loc 8 79 17 view .LVU182
 742              	.LBB480:
 743              		.loc 8 81 9 view .LVU183
 744              	.LBE480:
 745              	.LBE482:
  91:main.cpp      ****   pluck.SetFreq(f_pluck);
 746              		.loc 10 91 16 is_stmt 0 view .LVU184
 747 0032 CC4B     		ldr	r3, .L53+8
 748              	.LBB483:
 749              	.LBB484:
  70:../../libs/DaisySP//Source/Synthesis/oscillator.h ****     }
 750              		.loc 8 70 34 view .LVU185
 751 0034 CA48     		ldr	r0, .L53+4
 752              	.LBE484:
 753              	.LBE483:
 754              		.loc 10 91 16 view .LVU186
 755 0036 93ED000A 		vldr.32	s0, [r3]
 756              	.LBB488:
 757              	.LBB481:
 758              		.loc 8 81 19 view .LVU187
ARM GAS  C:\Users\matte\AppData\Local\Temp\ccIv7HUw.s 			page 29


 759 003a 0446     		mov	r4, r0
 760 003c 0570     		strb	r5, [r0]
 761              	.LVL62:
 762              		.loc 8 81 19 view .LVU188
 763              	.LBE481:
 764              	.LBE488:
 765              		.loc 10 91 3 is_stmt 1 view .LVU189
 766              	.LBB489:
 767              	.LBI483:
  67:../../libs/DaisySP//Source/Synthesis/oscillator.h ****     {
 768              		.loc 8 67 17 view .LVU190
 769              	.LBB485:
  69:../../libs/DaisySP//Source/Synthesis/oscillator.h ****         phase_inc_ = CalcPhaseInc(f);
 770              		.loc 8 69 9 view .LVU191
  69:../../libs/DaisySP//Source/Synthesis/oscillator.h ****         phase_inc_ = CalcPhaseInc(f);
 771              		.loc 8 69 20 is_stmt 0 view .LVU192
 772 003e 80ED020A 		vstr.32	s0, [r0, #8]
  70:../../libs/DaisySP//Source/Synthesis/oscillator.h ****     }
 773              		.loc 8 70 9 is_stmt 1 view .LVU193
  70:../../libs/DaisySP//Source/Synthesis/oscillator.h ****     }
 774              		.loc 8 70 34 is_stmt 0 view .LVU194
 775 0042 FFF7FEFF 		bl	_ZN7daisysp10Oscillator12CalcPhaseIncEf
 776              	.LVL63:
  70:../../libs/DaisySP//Source/Synthesis/oscillator.h ****     }
 777              		.loc 8 70 34 view .LVU195
 778              	.LBE485:
 779              	.LBE489:
  92:main.cpp      ****   pluck.SetAmp(mix_amp_pluck);
 780              		.loc 10 92 15 view .LVU196
 781 0046 C84B     		ldr	r3, .L53+12
 782              	.LBB490:
 783              	.LBB486:
  70:../../libs/DaisySP//Source/Synthesis/oscillator.h ****     }
 784              		.loc 8 70 34 view .LVU197
 785 0048 F0EE407A 		vmov.f32	s15, s0
 786              	.LBE486:
 787              	.LBE490:
  93:main.cpp      **** 
  94:main.cpp      **** //amp_envelope
  95:main.cpp      ****   amp_eg_pluck.Init(sample_rate);
 788              		.loc 10 95 20 view .LVU198
 789 004c 2946     		mov	r1, r5
 790 004e B0EE480A 		vmov.f32	s0, s16
 791              	.LBB491:
 792              	.LBB492:
  76:../../libs/DaisySP//Source/Synthesis/oscillator.h ****     /** Sets the waveform to be synthesized by the Process() function.
 793              		.loc 8 76 46 view .LVU199
 794 0052 1B68     		ldr	r3, [r3]	@ float
 795              	.LBE492:
 796              	.LBE491:
 797              	.LBB494:
 798              	.LBB487:
  70:../../libs/DaisySP//Source/Synthesis/oscillator.h ****     }
 799              		.loc 8 70 20 view .LVU200
 800 0054 C4ED077A 		vstr.32	s15, [r4, #28]
 801              	.LVL64:
  70:../../libs/DaisySP//Source/Synthesis/oscillator.h ****     }
ARM GAS  C:\Users\matte\AppData\Local\Temp\ccIv7HUw.s 			page 30


 802              		.loc 8 70 20 view .LVU201
 803              	.LBE487:
 804              	.LBE494:
  92:main.cpp      **** 
 805              		.loc 10 92 3 is_stmt 1 view .LVU202
 806              	.LBB495:
 807              	.LBI491:
  76:../../libs/DaisySP//Source/Synthesis/oscillator.h ****     /** Sets the waveform to be synthesized by the Process() function.
 808              		.loc 8 76 17 view .LVU203
 809              	.LBB493:
  76:../../libs/DaisySP//Source/Synthesis/oscillator.h ****     /** Sets the waveform to be synthesized by the Process() function.
 810              		.loc 8 76 41 view .LVU204
  76:../../libs/DaisySP//Source/Synthesis/oscillator.h ****     /** Sets the waveform to be synthesized by the Process() function.
 811              		.loc 8 76 46 is_stmt 0 view .LVU205
 812 0058 6360     		str	r3, [r4, #4]	@ float
 813              	.LVL65:
  76:../../libs/DaisySP//Source/Synthesis/oscillator.h ****     /** Sets the waveform to be synthesized by the Process() function.
 814              		.loc 8 76 46 view .LVU206
 815              	.LBE493:
 816              	.LBE495:
 817              		.loc 10 95 3 is_stmt 1 view .LVU207
  96:main.cpp      **** 
  97:main.cpp      ****   amp_eg_pluck.SetTime(ADSR_SEG_ATTACK, pluck_Amp_ADSR[0]);
 818              		.loc 10 97 23 is_stmt 0 view .LVU208
 819 005a C44C     		ldr	r4, .L53+16
  95:main.cpp      **** 
 820              		.loc 10 95 20 view .LVU209
 821 005c C448     		ldr	r0, .L53+20
 822 005e FFF7FEFF 		bl	_ZN7daisysp4Adsr4InitEfi
 823              	.LVL66:
 824              		.loc 10 97 3 is_stmt 1 view .LVU210
 825              		.loc 10 97 23 is_stmt 0 view .LVU211
 826 0062 94ED000A 		vldr.32	s0, [r4]
 827 0066 2946     		mov	r1, r5
 828 0068 C148     		ldr	r0, .L53+20
 829 006a FFF7FEFF 		bl	_ZN7daisysp4Adsr7SetTimeEif
 830              	.LVL67:
  98:main.cpp      ****   amp_eg_pluck.SetTime(ADSR_SEG_DECAY, pluck_Amp_ADSR[1]);  
 831              		.loc 10 98 3 is_stmt 1 view .LVU212
 832              		.loc 10 98 23 is_stmt 0 view .LVU213
 833 006e 94ED010A 		vldr.32	s0, [r4, #4]
 834 0072 0221     		movs	r1, #2
 835 0074 BE48     		ldr	r0, .L53+20
 836 0076 FFF7FEFF 		bl	_ZN7daisysp4Adsr7SetTimeEif
 837              	.LVL68:
  99:main.cpp      ****   amp_eg_pluck.SetSustainLevel(pluck_Amp_ADSR[2]);
 838              		.loc 10 99 3 is_stmt 1 view .LVU214
 839              		.loc 10 99 31 is_stmt 0 view .LVU215
 840 007a D4ED027A 		vldr.32	s15, [r4, #8]
 841              	.LVL69:
 842              	.LBB496:
 843              	.LBI496:
  46:../../libs/DaisySP/Source/Control/adsr.h ****     /** Initializes the Adsr module.
  47:../../libs/DaisySP/Source/Control/adsr.h ****         \param sample_rate - The sample rate of the audio engine being run. 
  48:../../libs/DaisySP/Source/Control/adsr.h ****     */
  49:../../libs/DaisySP/Source/Control/adsr.h ****     void Init(float sample_rate, int blockSize = 1);
  50:../../libs/DaisySP/Source/Control/adsr.h ****     /**
ARM GAS  C:\Users\matte\AppData\Local\Temp\ccIv7HUw.s 			page 31


  51:../../libs/DaisySP/Source/Control/adsr.h ****      \function Retrigger forces the envelope back to attack phase
  52:../../libs/DaisySP/Source/Control/adsr.h ****      \param hard  resets the history to zero, results in a click.
  53:../../libs/DaisySP/Source/Control/adsr.h ****      */
  54:../../libs/DaisySP/Source/Control/adsr.h ****     void Retrigger(bool hard);
  55:../../libs/DaisySP/Source/Control/adsr.h ****     /** Processes one sample through the filter and returns one sample.
  56:../../libs/DaisySP/Source/Control/adsr.h ****         \param gate - trigger the envelope, hold it to sustain 
  57:../../libs/DaisySP/Source/Control/adsr.h ****     */
  58:../../libs/DaisySP/Source/Control/adsr.h ****     float Process(bool gate);
  59:../../libs/DaisySP/Source/Control/adsr.h ****     /** Sets time
  60:../../libs/DaisySP/Source/Control/adsr.h ****         Set time per segment in seconds
  61:../../libs/DaisySP/Source/Control/adsr.h ****     */
  62:../../libs/DaisySP/Source/Control/adsr.h ****     void SetTime(int seg, float time);
  63:../../libs/DaisySP/Source/Control/adsr.h ****     void SetAttackTime(float timeInS, float shape = 0.0f);
  64:../../libs/DaisySP/Source/Control/adsr.h ****     void SetDecayTime(float timeInS);
  65:../../libs/DaisySP/Source/Control/adsr.h ****     void SetReleaseTime(float timeInS);
  66:../../libs/DaisySP/Source/Control/adsr.h **** 
  67:../../libs/DaisySP/Source/Control/adsr.h ****   private:
  68:../../libs/DaisySP/Source/Control/adsr.h ****     void SetTimeConstant(float timeInS, float& time, float& coeff);
  69:../../libs/DaisySP/Source/Control/adsr.h **** 
  70:../../libs/DaisySP/Source/Control/adsr.h ****   public:
  71:../../libs/DaisySP/Source/Control/adsr.h ****     /** Sustain level
  72:../../libs/DaisySP/Source/Control/adsr.h ****         \param sus_level - sets sustain level, 0...1.0
  73:../../libs/DaisySP/Source/Control/adsr.h ****     */
  74:../../libs/DaisySP/Source/Control/adsr.h ****     inline void SetSustainLevel(float sus_level)
 844              		.loc 7 74 17 is_stmt 1 view .LVU216
 845              	.LBB497:
  75:../../libs/DaisySP/Source/Control/adsr.h ****     {
  76:../../libs/DaisySP/Source/Control/adsr.h ****         sus_level = (sus_level <= 0.f) ? -0.01f // forces envelope into idle
 846              		.loc 7 76 9 view .LVU217
 847              		.loc 7 76 40 is_stmt 0 view .LVU218
 848 007e F5EEC07A 		vcmpe.f32	s15, #0
 849 0082 F1EE10FA 		vmrs	APSR_nzcv, FPSCR
 850 0086 40F2D282 		bls	.L38
  77:../../libs/DaisySP/Source/Control/adsr.h ****                                        : (sus_level > 1.f) ? 1.f : sus_level;
 851              		.loc 7 77 60 view .LVU219
 852 008a B7EE007A 		vmov.f32	s14, #1.0e+0
 853 008e F4EE477A 		vcmp.f32	s15, s14
 854 0092 F1EE10FA 		vmrs	APSR_nzcv, FPSCR
 855 0096 77FE277A 		vselgt.f32	s15, s14, s15
 856              	.LVL70:
 857              	.L22:
  78:../../libs/DaisySP/Source/Control/adsr.h ****         sus_level_ = sus_level;
 858              		.loc 7 78 9 is_stmt 1 view .LVU220
 859              		.loc 7 78 20 is_stmt 0 view .LVU221
 860 009a B548     		ldr	r0, .L53+20
 861              	.LBE497:
 862              	.LBE496:
 100:main.cpp      ****   amp_eg_pluck.SetTime(ADSR_SEG_RELEASE, pluck_Amp_ADSR[3]); 
 863              		.loc 10 100 23 view .LVU222
 864 009c 0421     		movs	r1, #4
 865 009e 94ED030A 		vldr.32	s0, [r4, #12]
 101:main.cpp      **** 
 102:main.cpp      **** 
 103:main.cpp      **** //filter_envelope
 104:main.cpp      ****   filt_eg_pluck.Init(sample_rate);
 105:main.cpp      **** 
 106:main.cpp      ****   filt_eg_pluck.SetTime(ADSR_SEG_ATTACK, pluck_Filter_ADSR[0]);
ARM GAS  C:\Users\matte\AppData\Local\Temp\ccIv7HUw.s 			page 32


 866              		.loc 10 106 24 view .LVU223
 867 00a2 B44C     		ldr	r4, .L53+24
 868              	.LBB500:
 869              	.LBB498:
 870              		.loc 7 78 20 view .LVU224
 871 00a4 C0ED007A 		vstr.32	s15, [r0]
 872              	.LVL71:
 873              		.loc 7 78 20 view .LVU225
 874              	.LBE498:
 875              	.LBE500:
 100:main.cpp      ****   amp_eg_pluck.SetTime(ADSR_SEG_RELEASE, pluck_Amp_ADSR[3]); 
 876              		.loc 10 100 3 is_stmt 1 view .LVU226
 100:main.cpp      ****   amp_eg_pluck.SetTime(ADSR_SEG_RELEASE, pluck_Amp_ADSR[3]); 
 877              		.loc 10 100 23 is_stmt 0 view .LVU227
 878 00a8 FFF7FEFF 		bl	_ZN7daisysp4Adsr7SetTimeEif
 879              	.LVL72:
 104:main.cpp      **** 
 880              		.loc 10 104 3 is_stmt 1 view .LVU228
 104:main.cpp      **** 
 881              		.loc 10 104 21 is_stmt 0 view .LVU229
 882 00ac B0EE480A 		vmov.f32	s0, s16
 883 00b0 0121     		movs	r1, #1
 884 00b2 B148     		ldr	r0, .L53+28
 885 00b4 FFF7FEFF 		bl	_ZN7daisysp4Adsr4InitEfi
 886              	.LVL73:
 887              		.loc 10 106 3 is_stmt 1 view .LVU230
 888              		.loc 10 106 24 is_stmt 0 view .LVU231
 889 00b8 94ED000A 		vldr.32	s0, [r4]
 890 00bc 0121     		movs	r1, #1
 891 00be AE48     		ldr	r0, .L53+28
 892 00c0 FFF7FEFF 		bl	_ZN7daisysp4Adsr7SetTimeEif
 893              	.LVL74:
 107:main.cpp      ****   filt_eg_pluck.SetTime(ADSR_SEG_DECAY, pluck_Filter_ADSR[1]);  
 894              		.loc 10 107 3 is_stmt 1 view .LVU232
 895              		.loc 10 107 24 is_stmt 0 view .LVU233
 896 00c4 94ED010A 		vldr.32	s0, [r4, #4]
 897 00c8 0221     		movs	r1, #2
 898 00ca AB48     		ldr	r0, .L53+28
 899 00cc FFF7FEFF 		bl	_ZN7daisysp4Adsr7SetTimeEif
 900              	.LVL75:
 108:main.cpp      ****   filt_eg_pluck.SetSustainLevel(pluck_Filter_ADSR[2]);
 901              		.loc 10 108 3 is_stmt 1 view .LVU234
 902              		.loc 10 108 32 is_stmt 0 view .LVU235
 903 00d0 D4ED027A 		vldr.32	s15, [r4, #8]
 904              	.LVL76:
 905              	.LBB501:
 906              	.LBI501:
  74:../../libs/DaisySP/Source/Control/adsr.h ****     {
 907              		.loc 7 74 17 is_stmt 1 view .LVU236
 908              	.LBB502:
  76:../../libs/DaisySP/Source/Control/adsr.h ****                                        : (sus_level > 1.f) ? 1.f : sus_level;
 909              		.loc 7 76 9 view .LVU237
  76:../../libs/DaisySP/Source/Control/adsr.h ****                                        : (sus_level > 1.f) ? 1.f : sus_level;
 910              		.loc 7 76 40 is_stmt 0 view .LVU238
 911 00d4 F5EEC07A 		vcmpe.f32	s15, #0
 912 00d8 F1EE10FA 		vmrs	APSR_nzcv, FPSCR
 913 00dc 40F2B682 		bls	.L40
ARM GAS  C:\Users\matte\AppData\Local\Temp\ccIv7HUw.s 			page 33


  77:../../libs/DaisySP/Source/Control/adsr.h ****         sus_level_ = sus_level;
 914              		.loc 7 77 60 view .LVU239
 915 00e0 B7EE007A 		vmov.f32	s14, #1.0e+0
 916 00e4 F4EE477A 		vcmp.f32	s15, s14
 917 00e8 F1EE10FA 		vmrs	APSR_nzcv, FPSCR
 918 00ec 77FE277A 		vselgt.f32	s15, s14, s15
 919              	.LVL77:
 920              	.L23:
 921              		.loc 7 78 9 is_stmt 1 view .LVU240
 922              		.loc 7 78 20 is_stmt 0 view .LVU241
 923 00f0 A148     		ldr	r0, .L53+28
 924              	.LBE502:
 925              	.LBE501:
 109:main.cpp      ****   filt_eg_pluck.SetTime(ADSR_SEG_RELEASE, pluck_Filter_ADSR[3]); 
 926              		.loc 10 109 24 view .LVU242
 927 00f2 0421     		movs	r1, #4
 928 00f4 94ED030A 		vldr.32	s0, [r4, #12]
 929              	.LBB505:
 930              	.LBB506:
 931              		.loc 8 81 19 view .LVU243
 932 00f8 0225     		movs	r5, #2
 933              	.LBE506:
 934              	.LBE505:
 935              	.LBB509:
 936              	.LBB503:
 937              		.loc 7 78 20 view .LVU244
 938 00fa C0ED007A 		vstr.32	s15, [r0]
 939              	.LVL78:
 940              		.loc 7 78 20 view .LVU245
 941              	.LBE503:
 942              	.LBE509:
 943              		.loc 10 109 3 is_stmt 1 view .LVU246
 944              		.loc 10 109 24 is_stmt 0 view .LVU247
 945 00fe FFF7FEFF 		bl	_ZN7daisysp4Adsr7SetTimeEif
 946              	.LVL79:
 110:main.cpp      **** 
 111:main.cpp      **** 
 112:main.cpp      **** //VCF
 113:main.cpp      ****   VCF_pluck.Init(sample_rate);
 947              		.loc 10 113 3 is_stmt 1 view .LVU248
 948              		.loc 10 113 17 is_stmt 0 view .LVU249
 949 0102 B0EE480A 		vmov.f32	s0, s16
 950 0106 9D48     		ldr	r0, .L53+32
 951 0108 FFF7FEFF 		bl	_ZN7daisysp12LadderFilter4InitEf
 952              	.LVL80:
 114:main.cpp      ****   VCF_pluck.SetFreq(ft_pluck); 
 953              		.loc 10 114 3 is_stmt 1 view .LVU250
 954              		.loc 10 114 20 is_stmt 0 view .LVU251
 955 010c 9C4B     		ldr	r3, .L53+36
 956 010e 9B48     		ldr	r0, .L53+32
 957 0110 93ED000A 		vldr.32	s0, [r3]
 958 0114 FFF7FEFF 		bl	_ZN7daisysp12LadderFilter7SetFreqEf
 959              	.LVL81:
 115:main.cpp      ****   VCF_pluck.SetRes(res_pluck); 
 960              		.loc 10 115 3 is_stmt 1 view .LVU252
 961              		.loc 10 115 19 is_stmt 0 view .LVU253
 962 0118 9A4B     		ldr	r3, .L53+40
ARM GAS  C:\Users\matte\AppData\Local\Temp\ccIv7HUw.s 			page 34


 116:main.cpp      ****   
 117:main.cpp      ****   pluck_modulator.Init(sample_rate);
 963              		.loc 10 117 23 view .LVU254
 964 011a 9B4C     		ldr	r4, .L53+44
 115:main.cpp      ****   VCF_pluck.SetRes(res_pluck); 
 965              		.loc 10 115 19 view .LVU255
 966 011c 93ED000A 		vldr.32	s0, [r3]
 967 0120 9648     		ldr	r0, .L53+32
 968 0122 FFF7FEFF 		bl	_ZN7daisysp12LadderFilter6SetResEf
 969              	.LVL82:
 970              		.loc 10 117 3 is_stmt 1 view .LVU256
 971              		.loc 10 117 23 is_stmt 0 view .LVU257
 972 0126 2046     		mov	r0, r4
 973 0128 B0EE480A 		vmov.f32	s0, s16
 974 012c FFF7FEFF 		bl	_ZN7daisysp10Oscillator4InitEf
 975              	.LVL83:
 118:main.cpp      ****   pluck_modulator.SetWaveform(pluck_modulator.WAVE_SIN);
 976              		.loc 10 118 3 is_stmt 1 view .LVU258
 977              	.LBB510:
 978              	.LBI510:
  79:../../libs/DaisySP//Source/Synthesis/oscillator.h ****     {
 979              		.loc 8 79 17 view .LVU259
 980              	.LBB511:
 981              		.loc 8 81 9 view .LVU260
 982              		.loc 8 81 19 is_stmt 0 view .LVU261
 983 0130 0023     		movs	r3, #0
 984              	.LBE511:
 985              	.LBE510:
 986              	.LBB513:
 987              	.LBB514:
  76:../../libs/DaisySP//Source/Synthesis/oscillator.h ****     /** Sets the waveform to be synthesized by the Process() function.
 988              		.loc 8 76 46 view .LVU262
 989 0132 8B4A     		ldr	r2, .L53+4
 990              	.LBE514:
 991              	.LBE513:
 119:main.cpp      ****   
 120:main.cpp      ****   pluck.SetAmp(mix_amp_pluck_modulator);
 121:main.cpp      **** 
 122:main.cpp      **** 
 123:main.cpp      **** //-----------------------------------------------------------PAD 
 124:main.cpp      **** 
 125:main.cpp      **** //OSC
 126:main.cpp      **** 
 127:main.cpp      ****   pad.Init(sample_rate);
 992              		.loc 10 127 11 view .LVU263
 993 0134 B0EE480A 		vmov.f32	s0, s16
 994              	.LBB517:
 995              	.LBB512:
 996              		.loc 8 81 19 view .LVU264
 997 0138 2370     		strb	r3, [r4]
 998              	.LVL84:
 999              		.loc 8 81 19 view .LVU265
 1000              	.LBE512:
 1001              	.LBE517:
 120:main.cpp      **** 
 1002              		.loc 10 120 3 is_stmt 1 view .LVU266
 1003              	.LBB518:
ARM GAS  C:\Users\matte\AppData\Local\Temp\ccIv7HUw.s 			page 35


 1004              	.LBI513:
  76:../../libs/DaisySP//Source/Synthesis/oscillator.h ****     /** Sets the waveform to be synthesized by the Process() function.
 1005              		.loc 8 76 17 view .LVU267
 1006              	.LBB515:
  76:../../libs/DaisySP//Source/Synthesis/oscillator.h ****     /** Sets the waveform to be synthesized by the Process() function.
 1007              		.loc 8 76 41 view .LVU268
 1008              	.LBE515:
 1009              	.LBE518:
 120:main.cpp      **** 
 1010              		.loc 10 120 15 is_stmt 0 view .LVU269
 1011 013a 944B     		ldr	r3, .L53+48
 1012              		.loc 10 127 11 view .LVU270
 1013 013c 9448     		ldr	r0, .L53+52
 1014              	.LBB519:
 1015              	.LBB516:
  76:../../libs/DaisySP//Source/Synthesis/oscillator.h ****     /** Sets the waveform to be synthesized by the Process() function.
 1016              		.loc 8 76 46 view .LVU271
 1017 013e 1B68     		ldr	r3, [r3]	@ float
 1018 0140 5360     		str	r3, [r2, #4]	@ float
 1019              	.LVL85:
  76:../../libs/DaisySP//Source/Synthesis/oscillator.h ****     /** Sets the waveform to be synthesized by the Process() function.
 1020              		.loc 8 76 46 view .LVU272
 1021              	.LBE516:
 1022              	.LBE519:
 1023              		.loc 10 127 3 is_stmt 1 view .LVU273
 1024              		.loc 10 127 11 is_stmt 0 view .LVU274
 1025 0142 FFF7FEFF 		bl	_ZN7daisysp10Oscillator4InitEf
 1026              	.LVL86:
 128:main.cpp      ****   pad.SetWaveform(pad.WAVE_SAW);
 1027              		.loc 10 128 3 is_stmt 1 view .LVU275
 1028              	.LBB520:
 1029              	.LBI505:
  79:../../libs/DaisySP//Source/Synthesis/oscillator.h ****     {
 1030              		.loc 8 79 17 view .LVU276
 1031              	.LBB507:
 1032              		.loc 8 81 9 view .LVU277
 1033              	.LBE507:
 1034              	.LBE520:
 129:main.cpp      ****   pad.SetFreq(f_pad);
 1035              		.loc 10 129 14 is_stmt 0 view .LVU278
 1036 0146 934B     		ldr	r3, .L53+56
 1037              	.LBB521:
 1038              	.LBB522:
  70:../../libs/DaisySP//Source/Synthesis/oscillator.h ****     }
 1039              		.loc 8 70 34 view .LVU279
 1040 0148 9148     		ldr	r0, .L53+52
 1041              	.LBE522:
 1042              	.LBE521:
 1043              		.loc 10 129 14 view .LVU280
 1044 014a 93ED000A 		vldr.32	s0, [r3]
 1045              	.LBB526:
 1046              	.LBB508:
 1047              		.loc 8 81 19 view .LVU281
 1048 014e 0446     		mov	r4, r0
 1049 0150 0570     		strb	r5, [r0]
 1050              	.LVL87:
 1051              		.loc 8 81 19 view .LVU282
ARM GAS  C:\Users\matte\AppData\Local\Temp\ccIv7HUw.s 			page 36


 1052              	.LBE508:
 1053              	.LBE526:
 1054              		.loc 10 129 3 is_stmt 1 view .LVU283
 1055              	.LBB527:
 1056              	.LBI521:
  67:../../libs/DaisySP//Source/Synthesis/oscillator.h ****     {
 1057              		.loc 8 67 17 view .LVU284
 1058              	.LBB523:
  69:../../libs/DaisySP//Source/Synthesis/oscillator.h ****         phase_inc_ = CalcPhaseInc(f);
 1059              		.loc 8 69 9 view .LVU285
  69:../../libs/DaisySP//Source/Synthesis/oscillator.h ****         phase_inc_ = CalcPhaseInc(f);
 1060              		.loc 8 69 20 is_stmt 0 view .LVU286
 1061 0152 80ED020A 		vstr.32	s0, [r0, #8]
  70:../../libs/DaisySP//Source/Synthesis/oscillator.h ****     }
 1062              		.loc 8 70 9 is_stmt 1 view .LVU287
  70:../../libs/DaisySP//Source/Synthesis/oscillator.h ****     }
 1063              		.loc 8 70 34 is_stmt 0 view .LVU288
 1064 0156 FFF7FEFF 		bl	_ZN7daisysp10Oscillator12CalcPhaseIncEf
 1065              	.LVL88:
  70:../../libs/DaisySP//Source/Synthesis/oscillator.h ****     }
 1066              		.loc 8 70 34 view .LVU289
 1067              	.LBE523:
 1068              	.LBE527:
 130:main.cpp      ****   pad.SetAmp(mix_amp_pad);
 1069              		.loc 10 130 13 view .LVU290
 1070 015a 8F4B     		ldr	r3, .L53+60
 1071              	.LBB528:
 1072              	.LBB524:
  70:../../libs/DaisySP//Source/Synthesis/oscillator.h ****     }
 1073              		.loc 8 70 34 view .LVU291
 1074 015c F0EE407A 		vmov.f32	s15, s0
 1075              	.LBE524:
 1076              	.LBE528:
 131:main.cpp      **** 
 132:main.cpp      **** //amp_envelope
 133:main.cpp      ****   amp_eg_pad.Init(sample_rate);
 1077              		.loc 10 133 18 view .LVU292
 1078 0160 0121     		movs	r1, #1
 1079 0162 B0EE480A 		vmov.f32	s0, s16
 1080              	.LBB529:
 1081              	.LBB530:
  76:../../libs/DaisySP//Source/Synthesis/oscillator.h ****     /** Sets the waveform to be synthesized by the Process() function.
 1082              		.loc 8 76 46 view .LVU293
 1083 0166 1B68     		ldr	r3, [r3]	@ float
 1084              	.LBE530:
 1085              	.LBE529:
 1086              	.LBB532:
 1087              	.LBB525:
  70:../../libs/DaisySP//Source/Synthesis/oscillator.h ****     }
 1088              		.loc 8 70 20 view .LVU294
 1089 0168 C4ED077A 		vstr.32	s15, [r4, #28]
 1090              	.LVL89:
  70:../../libs/DaisySP//Source/Synthesis/oscillator.h ****     }
 1091              		.loc 8 70 20 view .LVU295
 1092              	.LBE525:
 1093              	.LBE532:
 130:main.cpp      **** 
ARM GAS  C:\Users\matte\AppData\Local\Temp\ccIv7HUw.s 			page 37


 1094              		.loc 10 130 3 is_stmt 1 view .LVU296
 1095              	.LBB533:
 1096              	.LBI529:
  76:../../libs/DaisySP//Source/Synthesis/oscillator.h ****     /** Sets the waveform to be synthesized by the Process() function.
 1097              		.loc 8 76 17 view .LVU297
 1098              	.LBB531:
  76:../../libs/DaisySP//Source/Synthesis/oscillator.h ****     /** Sets the waveform to be synthesized by the Process() function.
 1099              		.loc 8 76 41 view .LVU298
  76:../../libs/DaisySP//Source/Synthesis/oscillator.h ****     /** Sets the waveform to be synthesized by the Process() function.
 1100              		.loc 8 76 46 is_stmt 0 view .LVU299
 1101 016c 6360     		str	r3, [r4, #4]	@ float
 1102              	.LVL90:
  76:../../libs/DaisySP//Source/Synthesis/oscillator.h ****     /** Sets the waveform to be synthesized by the Process() function.
 1103              		.loc 8 76 46 view .LVU300
 1104              	.LBE531:
 1105              	.LBE533:
 1106              		.loc 10 133 3 is_stmt 1 view .LVU301
 134:main.cpp      **** 
 135:main.cpp      ****   amp_eg_pad.SetTime(ADSR_SEG_ATTACK, pad_Amp_ADSR[0]);
 1107              		.loc 10 135 21 is_stmt 0 view .LVU302
 1108 016e 8B4C     		ldr	r4, .L53+64
 133:main.cpp      **** 
 1109              		.loc 10 133 18 view .LVU303
 1110 0170 8B48     		ldr	r0, .L53+68
 1111 0172 FFF7FEFF 		bl	_ZN7daisysp4Adsr4InitEfi
 1112              	.LVL91:
 1113              		.loc 10 135 3 is_stmt 1 view .LVU304
 1114              		.loc 10 135 21 is_stmt 0 view .LVU305
 1115 0176 94ED000A 		vldr.32	s0, [r4]
 1116 017a 0121     		movs	r1, #1
 1117 017c 8848     		ldr	r0, .L53+68
 1118 017e FFF7FEFF 		bl	_ZN7daisysp4Adsr7SetTimeEif
 1119              	.LVL92:
 136:main.cpp      ****   amp_eg_pad.SetTime(ADSR_SEG_DECAY, pad_Amp_ADSR[1]);  
 1120              		.loc 10 136 3 is_stmt 1 view .LVU306
 1121              		.loc 10 136 21 is_stmt 0 view .LVU307
 1122 0182 94ED010A 		vldr.32	s0, [r4, #4]
 1123 0186 2946     		mov	r1, r5
 1124 0188 8548     		ldr	r0, .L53+68
 1125 018a FFF7FEFF 		bl	_ZN7daisysp4Adsr7SetTimeEif
 1126              	.LVL93:
 137:main.cpp      ****   amp_eg_pad.SetSustainLevel(pad_Amp_ADSR[2]);
 1127              		.loc 10 137 3 is_stmt 1 view .LVU308
 1128              		.loc 10 137 29 is_stmt 0 view .LVU309
 1129 018e D4ED027A 		vldr.32	s15, [r4, #8]
 1130              	.LVL94:
 1131              	.LBB534:
 1132              	.LBI534:
  74:../../libs/DaisySP/Source/Control/adsr.h ****     {
 1133              		.loc 7 74 17 is_stmt 1 view .LVU310
 1134              	.LBB535:
  76:../../libs/DaisySP/Source/Control/adsr.h ****                                        : (sus_level > 1.f) ? 1.f : sus_level;
 1135              		.loc 7 76 9 view .LVU311
  76:../../libs/DaisySP/Source/Control/adsr.h ****                                        : (sus_level > 1.f) ? 1.f : sus_level;
 1136              		.loc 7 76 40 is_stmt 0 view .LVU312
 1137 0192 F5EEC07A 		vcmpe.f32	s15, #0
 1138 0196 F1EE10FA 		vmrs	APSR_nzcv, FPSCR
ARM GAS  C:\Users\matte\AppData\Local\Temp\ccIv7HUw.s 			page 38


 1139 019a 40F25482 		bls	.L42
  77:../../libs/DaisySP/Source/Control/adsr.h ****         sus_level_ = sus_level;
 1140              		.loc 7 77 60 view .LVU313
 1141 019e B7EE007A 		vmov.f32	s14, #1.0e+0
 1142 01a2 F4EE477A 		vcmp.f32	s15, s14
 1143 01a6 F1EE10FA 		vmrs	APSR_nzcv, FPSCR
 1144 01aa 77FE277A 		vselgt.f32	s15, s14, s15
 1145              	.LVL95:
 1146              	.L24:
 1147              		.loc 7 78 9 is_stmt 1 view .LVU314
 1148              		.loc 7 78 20 is_stmt 0 view .LVU315
 1149 01ae 7C48     		ldr	r0, .L53+68
 1150              	.LBE535:
 1151              	.LBE534:
 138:main.cpp      ****   amp_eg_pad.SetTime(ADSR_SEG_RELEASE, pad_Amp_ADSR[3]); 
 1152              		.loc 10 138 21 view .LVU316
 1153 01b0 0421     		movs	r1, #4
 1154 01b2 94ED030A 		vldr.32	s0, [r4, #12]
 139:main.cpp      **** 
 140:main.cpp      **** //filter_envelope
 141:main.cpp      ****   filt_eg_pad.Init(sample_rate);
 142:main.cpp      **** 
 143:main.cpp      ****   filt_eg_pad.SetTime(ADSR_SEG_ATTACK, pad_Filter_ADSR[0]);
 1155              		.loc 10 143 22 view .LVU317
 1156 01b6 7B4C     		ldr	r4, .L53+72
 1157              	.LBB538:
 1158              	.LBB536:
 1159              		.loc 7 78 20 view .LVU318
 1160 01b8 C0ED007A 		vstr.32	s15, [r0]
 1161              	.LVL96:
 1162              		.loc 7 78 20 view .LVU319
 1163              	.LBE536:
 1164              	.LBE538:
 138:main.cpp      ****   amp_eg_pad.SetTime(ADSR_SEG_RELEASE, pad_Amp_ADSR[3]); 
 1165              		.loc 10 138 3 is_stmt 1 view .LVU320
 138:main.cpp      ****   amp_eg_pad.SetTime(ADSR_SEG_RELEASE, pad_Amp_ADSR[3]); 
 1166              		.loc 10 138 21 is_stmt 0 view .LVU321
 1167 01bc FFF7FEFF 		bl	_ZN7daisysp4Adsr7SetTimeEif
 1168              	.LVL97:
 141:main.cpp      **** 
 1169              		.loc 10 141 3 is_stmt 1 view .LVU322
 141:main.cpp      **** 
 1170              		.loc 10 141 19 is_stmt 0 view .LVU323
 1171 01c0 B0EE480A 		vmov.f32	s0, s16
 1172 01c4 0121     		movs	r1, #1
 1173 01c6 7848     		ldr	r0, .L53+76
 1174 01c8 FFF7FEFF 		bl	_ZN7daisysp4Adsr4InitEfi
 1175              	.LVL98:
 1176              		.loc 10 143 3 is_stmt 1 view .LVU324
 1177              		.loc 10 143 22 is_stmt 0 view .LVU325
 1178 01cc 0121     		movs	r1, #1
 1179 01ce 94ED000A 		vldr.32	s0, [r4]
 1180 01d2 7548     		ldr	r0, .L53+76
 1181 01d4 FFF7FEFF 		bl	_ZN7daisysp4Adsr7SetTimeEif
 1182              	.LVL99:
 144:main.cpp      ****   filt_eg_pad.SetTime(ADSR_SEG_DECAY, pad_Filter_ADSR[1]);  
 1183              		.loc 10 144 3 is_stmt 1 view .LVU326
ARM GAS  C:\Users\matte\AppData\Local\Temp\ccIv7HUw.s 			page 39


 1184              		.loc 10 144 22 is_stmt 0 view .LVU327
 1185 01d8 94ED010A 		vldr.32	s0, [r4, #4]
 1186 01dc 0221     		movs	r1, #2
 1187 01de 7248     		ldr	r0, .L53+76
 1188 01e0 FFF7FEFF 		bl	_ZN7daisysp4Adsr7SetTimeEif
 1189              	.LVL100:
 145:main.cpp      ****   filt_eg_pad.SetSustainLevel(pad_Filter_ADSR[2]);
 1190              		.loc 10 145 3 is_stmt 1 view .LVU328
 1191              		.loc 10 145 30 is_stmt 0 view .LVU329
 1192 01e4 D4ED027A 		vldr.32	s15, [r4, #8]
 1193              	.LVL101:
 1194              	.LBB539:
 1195              	.LBI539:
  74:../../libs/DaisySP/Source/Control/adsr.h ****     {
 1196              		.loc 7 74 17 is_stmt 1 view .LVU330
 1197              	.LBB540:
  76:../../libs/DaisySP/Source/Control/adsr.h ****                                        : (sus_level > 1.f) ? 1.f : sus_level;
 1198              		.loc 7 76 9 view .LVU331
  76:../../libs/DaisySP/Source/Control/adsr.h ****                                        : (sus_level > 1.f) ? 1.f : sus_level;
 1199              		.loc 7 76 40 is_stmt 0 view .LVU332
 1200 01e8 F5EEC07A 		vcmpe.f32	s15, #0
 1201 01ec F1EE10FA 		vmrs	APSR_nzcv, FPSCR
 1202 01f0 40F22682 		bls	.L44
  77:../../libs/DaisySP/Source/Control/adsr.h ****         sus_level_ = sus_level;
 1203              		.loc 7 77 60 view .LVU333
 1204 01f4 B7EE007A 		vmov.f32	s14, #1.0e+0
 1205 01f8 F4EE477A 		vcmp.f32	s15, s14
 1206 01fc F1EE10FA 		vmrs	APSR_nzcv, FPSCR
 1207 0200 77FE277A 		vselgt.f32	s15, s14, s15
 1208              	.LVL102:
 1209              	.L25:
 1210              		.loc 7 78 9 is_stmt 1 view .LVU334
 1211              		.loc 7 78 20 is_stmt 0 view .LVU335
 1212 0204 6848     		ldr	r0, .L53+76
 1213              	.LBE540:
 1214              	.LBE539:
 146:main.cpp      ****   filt_eg_pad.SetTime(ADSR_SEG_RELEASE, pad_Filter_ADSR[3]); 
 1215              		.loc 10 146 22 view .LVU336
 1216 0206 0421     		movs	r1, #4
 1217 0208 94ED030A 		vldr.32	s0, [r4, #12]
 1218              	.LBB543:
 1219              	.LBB541:
 1220              		.loc 7 78 20 view .LVU337
 1221 020c C0ED007A 		vstr.32	s15, [r0]
 1222              	.LVL103:
 1223              		.loc 7 78 20 view .LVU338
 1224              	.LBE541:
 1225              	.LBE543:
 1226              		.loc 10 146 3 is_stmt 1 view .LVU339
 1227              		.loc 10 146 22 is_stmt 0 view .LVU340
 1228 0210 FFF7FEFF 		bl	_ZN7daisysp4Adsr7SetTimeEif
 1229              	.LVL104:
 147:main.cpp      **** 
 148:main.cpp      **** 
 149:main.cpp      **** //VCF
 150:main.cpp      ****   VCF_pad.Init(sample_rate);
 1230              		.loc 10 150 3 is_stmt 1 view .LVU341
ARM GAS  C:\Users\matte\AppData\Local\Temp\ccIv7HUw.s 			page 40


 1231              		.loc 10 150 15 is_stmt 0 view .LVU342
 1232 0214 B0EE480A 		vmov.f32	s0, s16
 1233 0218 6448     		ldr	r0, .L53+80
 1234 021a FFF7FEFF 		bl	_ZN7daisysp12LadderFilter4InitEf
 1235              	.LVL105:
 151:main.cpp      ****   VCF_pad.SetFreq(ft_pad); 
 1236              		.loc 10 151 3 is_stmt 1 view .LVU343
 1237              		.loc 10 151 18 is_stmt 0 view .LVU344
 1238 021e 644B     		ldr	r3, .L53+84
 1239 0220 6248     		ldr	r0, .L53+80
 1240 0222 93ED000A 		vldr.32	s0, [r3]
 1241 0226 FFF7FEFF 		bl	_ZN7daisysp12LadderFilter7SetFreqEf
 1242              	.LVL106:
 152:main.cpp      ****   VCF_pad.SetRes(res_pad); 
 1243              		.loc 10 152 3 is_stmt 1 view .LVU345
 1244              		.loc 10 152 17 is_stmt 0 view .LVU346
 1245 022a 624B     		ldr	r3, .L53+88
 153:main.cpp      **** 
 154:main.cpp      **** //-----------------------------------------------------------BASS
 155:main.cpp      ****   // OSC
 156:main.cpp      ****   bass.Init(sample_rate);
 1246              		.loc 10 156 12 view .LVU347
 1247 022c DFF8B891 		ldr	r9, .L53+140
 152:main.cpp      ****   VCF_pad.SetRes(res_pad); 
 1248              		.loc 10 152 17 view .LVU348
 1249 0230 93ED000A 		vldr.32	s0, [r3]
 1250 0234 5D48     		ldr	r0, .L53+80
 1251 0236 FFF7FEFF 		bl	_ZN7daisysp12LadderFilter6SetResEf
 1252              	.LVL107:
 1253              		.loc 10 156 3 is_stmt 1 view .LVU349
 1254              		.loc 10 156 12 is_stmt 0 view .LVU350
 1255 023a B0EE480A 		vmov.f32	s0, s16
 1256 023e 4846     		mov	r0, r9
 157:main.cpp      ****   bass.SetWaveform(bass.WAVE_SQUARE);
 158:main.cpp      ****   bass.SetFreq(f_bass);
 159:main.cpp      ****   bass.SetAmp(mix_amp_bass);
 160:main.cpp      **** 
 161:main.cpp      ****   // amp_envelope
 162:main.cpp      ****   amp_eg_bass.Init(sample_rate);
 163:main.cpp      ****   amp_eg_bass.SetTime(ADSR_SEG_ATTACK, bass_Amp_ADSR[0]);
 1257              		.loc 10 163 22 view .LVU351
 1258 0240 5D4C     		ldr	r4, .L53+92
 156:main.cpp      ****   bass.SetWaveform(bass.WAVE_SQUARE);
 1259              		.loc 10 156 12 view .LVU352
 1260 0242 FFF7FEFF 		bl	_ZN7daisysp10Oscillator4InitEf
 1261              	.LVL108:
 157:main.cpp      ****   bass.SetWaveform(bass.WAVE_SQUARE);
 1262              		.loc 10 157 3 is_stmt 1 view .LVU353
 1263              	.LBB544:
 1264              	.LBI544:
  79:../../libs/DaisySP//Source/Synthesis/oscillator.h ****     {
 1265              		.loc 8 79 17 view .LVU354
 1266              	.LBB545:
 1267              		.loc 8 81 9 view .LVU355
 1268              		.loc 8 81 19 is_stmt 0 view .LVU356
 1269 0246 0423     		movs	r3, #4
 1270              	.LBE545:
ARM GAS  C:\Users\matte\AppData\Local\Temp\ccIv7HUw.s 			page 41


 1271              	.LBE544:
 1272              	.LBB547:
 1273              	.LBB548:
  70:../../libs/DaisySP//Source/Synthesis/oscillator.h ****     }
 1274              		.loc 8 70 34 view .LVU357
 1275 0248 4846     		mov	r0, r9
 1276              	.LBE548:
 1277              	.LBE547:
 1278              	.LBB552:
 1279              	.LBB546:
 1280              		.loc 8 81 19 view .LVU358
 1281 024a 89F80030 		strb	r3, [r9]
 1282              	.LVL109:
 1283              		.loc 8 81 19 view .LVU359
 1284              	.LBE546:
 1285              	.LBE552:
 158:main.cpp      ****   bass.SetAmp(mix_amp_bass);
 1286              		.loc 10 158 3 is_stmt 1 view .LVU360
 158:main.cpp      ****   bass.SetAmp(mix_amp_bass);
 1287              		.loc 10 158 15 is_stmt 0 view .LVU361
 1288 024e 5B4B     		ldr	r3, .L53+96
 1289 0250 93ED000A 		vldr.32	s0, [r3]
 1290              	.LVL110:
 1291              	.LBB553:
 1292              	.LBI547:
  67:../../libs/DaisySP//Source/Synthesis/oscillator.h ****     {
 1293              		.loc 8 67 17 is_stmt 1 view .LVU362
 1294              	.LBB549:
  69:../../libs/DaisySP//Source/Synthesis/oscillator.h ****         phase_inc_ = CalcPhaseInc(f);
 1295              		.loc 8 69 9 view .LVU363
  69:../../libs/DaisySP//Source/Synthesis/oscillator.h ****         phase_inc_ = CalcPhaseInc(f);
 1296              		.loc 8 69 20 is_stmt 0 view .LVU364
 1297 0254 89ED020A 		vstr.32	s0, [r9, #8]
  70:../../libs/DaisySP//Source/Synthesis/oscillator.h ****     }
 1298              		.loc 8 70 9 is_stmt 1 view .LVU365
  70:../../libs/DaisySP//Source/Synthesis/oscillator.h ****     }
 1299              		.loc 8 70 34 is_stmt 0 view .LVU366
 1300 0258 FFF7FEFF 		bl	_ZN7daisysp10Oscillator12CalcPhaseIncEf
 1301              	.LVL111:
  70:../../libs/DaisySP//Source/Synthesis/oscillator.h ****     }
 1302              		.loc 8 70 34 view .LVU367
 1303              	.LBE549:
 1304              	.LBE553:
 159:main.cpp      **** 
 1305              		.loc 10 159 14 view .LVU368
 1306 025c 584B     		ldr	r3, .L53+100
 1307              	.LBB554:
 1308              	.LBB550:
  70:../../libs/DaisySP//Source/Synthesis/oscillator.h ****     }
 1309              		.loc 8 70 34 view .LVU369
 1310 025e F0EE407A 		vmov.f32	s15, s0
 1311              	.LBE550:
 1312              	.LBE554:
 162:main.cpp      ****   amp_eg_bass.SetTime(ADSR_SEG_ATTACK, bass_Amp_ADSR[0]);
 1313              		.loc 10 162 19 view .LVU370
 1314 0262 0121     		movs	r1, #1
 1315 0264 B0EE480A 		vmov.f32	s0, s16
ARM GAS  C:\Users\matte\AppData\Local\Temp\ccIv7HUw.s 			page 42


 1316              	.LBB555:
 1317              	.LBB556:
  76:../../libs/DaisySP//Source/Synthesis/oscillator.h ****     /** Sets the waveform to be synthesized by the Process() function.
 1318              		.loc 8 76 46 view .LVU371
 1319 0268 1B68     		ldr	r3, [r3]	@ float
 1320              	.LBE556:
 1321              	.LBE555:
 162:main.cpp      ****   amp_eg_bass.SetTime(ADSR_SEG_ATTACK, bass_Amp_ADSR[0]);
 1322              		.loc 10 162 19 view .LVU372
 1323 026a 5648     		ldr	r0, .L53+104
 1324              	.LBB558:
 1325              	.LBB551:
  70:../../libs/DaisySP//Source/Synthesis/oscillator.h ****     }
 1326              		.loc 8 70 20 view .LVU373
 1327 026c C9ED077A 		vstr.32	s15, [r9, #28]
 1328              	.LVL112:
  70:../../libs/DaisySP//Source/Synthesis/oscillator.h ****     }
 1329              		.loc 8 70 20 view .LVU374
 1330              	.LBE551:
 1331              	.LBE558:
 159:main.cpp      **** 
 1332              		.loc 10 159 3 is_stmt 1 view .LVU375
 1333              	.LBB559:
 1334              	.LBI555:
  76:../../libs/DaisySP//Source/Synthesis/oscillator.h ****     /** Sets the waveform to be synthesized by the Process() function.
 1335              		.loc 8 76 17 view .LVU376
 1336              	.LBB557:
  76:../../libs/DaisySP//Source/Synthesis/oscillator.h ****     /** Sets the waveform to be synthesized by the Process() function.
 1337              		.loc 8 76 41 view .LVU377
  76:../../libs/DaisySP//Source/Synthesis/oscillator.h ****     /** Sets the waveform to be synthesized by the Process() function.
 1338              		.loc 8 76 46 is_stmt 0 view .LVU378
 1339 0270 C9F80430 		str	r3, [r9, #4]	@ float
 1340              	.LVL113:
  76:../../libs/DaisySP//Source/Synthesis/oscillator.h ****     /** Sets the waveform to be synthesized by the Process() function.
 1341              		.loc 8 76 46 view .LVU379
 1342              	.LBE557:
 1343              	.LBE559:
 162:main.cpp      ****   amp_eg_bass.SetTime(ADSR_SEG_ATTACK, bass_Amp_ADSR[0]);
 1344              		.loc 10 162 3 is_stmt 1 view .LVU380
 162:main.cpp      ****   amp_eg_bass.SetTime(ADSR_SEG_ATTACK, bass_Amp_ADSR[0]);
 1345              		.loc 10 162 19 is_stmt 0 view .LVU381
 1346 0274 FFF7FEFF 		bl	_ZN7daisysp4Adsr4InitEfi
 1347              	.LVL114:
 1348              		.loc 10 163 3 is_stmt 1 view .LVU382
 1349              		.loc 10 163 22 is_stmt 0 view .LVU383
 1350 0278 94ED000A 		vldr.32	s0, [r4]
 1351 027c 0121     		movs	r1, #1
 1352 027e 5148     		ldr	r0, .L53+104
 1353 0280 FFF7FEFF 		bl	_ZN7daisysp4Adsr7SetTimeEif
 1354              	.LVL115:
 164:main.cpp      ****   amp_eg_bass.SetTime(ADSR_SEG_DECAY, bass_Amp_ADSR[1]);
 1355              		.loc 10 164 3 is_stmt 1 view .LVU384
 1356              		.loc 10 164 22 is_stmt 0 view .LVU385
 1357 0284 94ED010A 		vldr.32	s0, [r4, #4]
 1358 0288 0221     		movs	r1, #2
 1359 028a 4E48     		ldr	r0, .L53+104
 1360 028c FFF7FEFF 		bl	_ZN7daisysp4Adsr7SetTimeEif
ARM GAS  C:\Users\matte\AppData\Local\Temp\ccIv7HUw.s 			page 43


 1361              	.LVL116:
 165:main.cpp      ****   amp_eg_bass.SetSustainLevel(bass_Amp_ADSR[2]);
 1362              		.loc 10 165 3 is_stmt 1 view .LVU386
 1363              		.loc 10 165 30 is_stmt 0 view .LVU387
 1364 0290 D4ED027A 		vldr.32	s15, [r4, #8]
 1365              	.LVL117:
 1366              	.LBB560:
 1367              	.LBI560:
  74:../../libs/DaisySP/Source/Control/adsr.h ****     {
 1368              		.loc 7 74 17 is_stmt 1 view .LVU388
 1369              	.LBB561:
  76:../../libs/DaisySP/Source/Control/adsr.h ****                                        : (sus_level > 1.f) ? 1.f : sus_level;
 1370              		.loc 7 76 9 view .LVU389
  76:../../libs/DaisySP/Source/Control/adsr.h ****                                        : (sus_level > 1.f) ? 1.f : sus_level;
 1371              		.loc 7 76 40 is_stmt 0 view .LVU390
 1372 0294 F5EEC07A 		vcmpe.f32	s15, #0
 1373 0298 F1EE10FA 		vmrs	APSR_nzcv, FPSCR
 1374 029c 40F2CD81 		bls	.L46
  77:../../libs/DaisySP/Source/Control/adsr.h ****         sus_level_ = sus_level;
 1375              		.loc 7 77 60 view .LVU391
 1376 02a0 B7EE007A 		vmov.f32	s14, #1.0e+0
 1377 02a4 F4EE477A 		vcmp.f32	s15, s14
 1378 02a8 F1EE10FA 		vmrs	APSR_nzcv, FPSCR
 1379 02ac 77FE277A 		vselgt.f32	s15, s14, s15
 1380              	.LVL118:
 1381              	.L26:
 1382              		.loc 7 78 9 is_stmt 1 view .LVU392
 1383              		.loc 7 78 20 is_stmt 0 view .LVU393
 1384 02b0 4448     		ldr	r0, .L53+104
 1385              	.LBE561:
 1386              	.LBE560:
 166:main.cpp      ****   amp_eg_bass.SetTime(ADSR_SEG_RELEASE, bass_Amp_ADSR[3]);
 1387              		.loc 10 166 22 view .LVU394
 1388 02b2 0421     		movs	r1, #4
 1389 02b4 94ED030A 		vldr.32	s0, [r4, #12]
 167:main.cpp      **** 
 168:main.cpp      ****   // filter_envelope
 169:main.cpp      ****   filt_eg_bass.Init(sample_rate);
 170:main.cpp      ****   filt_eg_bass.SetTime(ADSR_SEG_ATTACK, bass_Filter_ADSR[0]);
 1390              		.loc 10 170 23 view .LVU395
 1391 02b8 434C     		ldr	r4, .L53+108
 1392              	.LBB564:
 1393              	.LBB562:
 1394              		.loc 7 78 20 view .LVU396
 1395 02ba C0ED007A 		vstr.32	s15, [r0]
 1396              	.LVL119:
 1397              		.loc 7 78 20 view .LVU397
 1398              	.LBE562:
 1399              	.LBE564:
 166:main.cpp      ****   amp_eg_bass.SetTime(ADSR_SEG_RELEASE, bass_Amp_ADSR[3]);
 1400              		.loc 10 166 3 is_stmt 1 view .LVU398
 166:main.cpp      ****   amp_eg_bass.SetTime(ADSR_SEG_RELEASE, bass_Amp_ADSR[3]);
 1401              		.loc 10 166 22 is_stmt 0 view .LVU399
 1402 02be FFF7FEFF 		bl	_ZN7daisysp4Adsr7SetTimeEif
 1403              	.LVL120:
 169:main.cpp      ****   filt_eg_bass.SetTime(ADSR_SEG_ATTACK, bass_Filter_ADSR[0]);
 1404              		.loc 10 169 3 is_stmt 1 view .LVU400
ARM GAS  C:\Users\matte\AppData\Local\Temp\ccIv7HUw.s 			page 44


 169:main.cpp      ****   filt_eg_bass.SetTime(ADSR_SEG_ATTACK, bass_Filter_ADSR[0]);
 1405              		.loc 10 169 20 is_stmt 0 view .LVU401
 1406 02c2 B0EE480A 		vmov.f32	s0, s16
 1407 02c6 0121     		movs	r1, #1
 1408 02c8 4048     		ldr	r0, .L53+112
 1409 02ca FFF7FEFF 		bl	_ZN7daisysp4Adsr4InitEfi
 1410              	.LVL121:
 1411              		.loc 10 170 3 is_stmt 1 view .LVU402
 1412              		.loc 10 170 23 is_stmt 0 view .LVU403
 1413 02ce 94ED000A 		vldr.32	s0, [r4]
 1414 02d2 0121     		movs	r1, #1
 1415 02d4 3D48     		ldr	r0, .L53+112
 1416 02d6 FFF7FEFF 		bl	_ZN7daisysp4Adsr7SetTimeEif
 1417              	.LVL122:
 171:main.cpp      ****   filt_eg_bass.SetTime(ADSR_SEG_DECAY, bass_Filter_ADSR[1]);
 1418              		.loc 10 171 3 is_stmt 1 view .LVU404
 1419              		.loc 10 171 23 is_stmt 0 view .LVU405
 1420 02da 94ED010A 		vldr.32	s0, [r4, #4]
 1421 02de 0221     		movs	r1, #2
 1422 02e0 3A48     		ldr	r0, .L53+112
 1423 02e2 FFF7FEFF 		bl	_ZN7daisysp4Adsr7SetTimeEif
 1424              	.LVL123:
 172:main.cpp      ****   filt_eg_bass.SetSustainLevel(bass_Filter_ADSR[2]);
 1425              		.loc 10 172 3 is_stmt 1 view .LVU406
 1426              		.loc 10 172 31 is_stmt 0 view .LVU407
 1427 02e6 D4ED027A 		vldr.32	s15, [r4, #8]
 1428              	.LVL124:
 1429              	.LBB565:
 1430              	.LBI565:
  74:../../libs/DaisySP/Source/Control/adsr.h ****     {
 1431              		.loc 7 74 17 is_stmt 1 view .LVU408
 1432              	.LBB566:
  76:../../libs/DaisySP/Source/Control/adsr.h ****                                        : (sus_level > 1.f) ? 1.f : sus_level;
 1433              		.loc 7 76 9 view .LVU409
  76:../../libs/DaisySP/Source/Control/adsr.h ****                                        : (sus_level > 1.f) ? 1.f : sus_level;
 1434              		.loc 7 76 40 is_stmt 0 view .LVU410
 1435 02ea F5EEC07A 		vcmpe.f32	s15, #0
 1436 02ee F1EE10FA 		vmrs	APSR_nzcv, FPSCR
 1437 02f2 40F29F81 		bls	.L48
  77:../../libs/DaisySP/Source/Control/adsr.h ****         sus_level_ = sus_level;
 1438              		.loc 7 77 60 view .LVU411
 1439 02f6 B7EE007A 		vmov.f32	s14, #1.0e+0
 1440 02fa F4EE477A 		vcmp.f32	s15, s14
 1441 02fe F1EE10FA 		vmrs	APSR_nzcv, FPSCR
 1442 0302 77FE277A 		vselgt.f32	s15, s14, s15
 1443              	.LVL125:
 1444              	.L27:
 1445              		.loc 7 78 9 is_stmt 1 view .LVU412
 1446              		.loc 7 78 20 is_stmt 0 view .LVU413
 1447 0306 3148     		ldr	r0, .L53+112
 1448              	.LBE566:
 1449              	.LBE565:
 173:main.cpp      ****   filt_eg_bass.SetTime(ADSR_SEG_RELEASE, bass_Filter_ADSR[3]);
 1450              		.loc 10 173 23 view .LVU414
 1451 0308 0421     		movs	r1, #4
 1452 030a 94ED030A 		vldr.32	s0, [r4, #12]
 1453 030e 0DF11605 		add	r5, sp, #22
ARM GAS  C:\Users\matte\AppData\Local\Temp\ccIv7HUw.s 			page 45


 1454              	.LBB569:
 1455              	.LBB567:
 1456              		.loc 7 78 20 view .LVU415
 1457 0312 C0ED007A 		vstr.32	s15, [r0]
 1458              	.LVL126:
 1459              		.loc 7 78 20 view .LVU416
 1460              	.LBE567:
 1461              	.LBE569:
 1462              		.loc 10 173 3 is_stmt 1 view .LVU417
 1463              		.loc 10 173 23 is_stmt 0 view .LVU418
 1464 0316 FFF7FEFF 		bl	_ZN7daisysp4Adsr7SetTimeEif
 1465              	.LVL127:
 174:main.cpp      **** 
 175:main.cpp      ****   // VCF
 176:main.cpp      ****   VCF_bass.Init(sample_rate);
 1466              		.loc 10 176 3 is_stmt 1 view .LVU419
 1467              		.loc 10 176 16 is_stmt 0 view .LVU420
 1468 031a B0EE480A 		vmov.f32	s0, s16
 1469 031e 2C48     		ldr	r0, .L53+116
 1470 0320 FFF7FEFF 		bl	_ZN7daisysp12LadderFilter4InitEf
 1471              	.LVL128:
 177:main.cpp      ****   VCF_bass.SetFreq(ft_bass);
 1472              		.loc 10 177 3 is_stmt 1 view .LVU421
 1473              		.loc 10 177 19 is_stmt 0 view .LVU422
 1474 0324 2B4B     		ldr	r3, .L53+120
 1475 0326 2A48     		ldr	r0, .L53+116
 1476 0328 93ED000A 		vldr.32	s0, [r3]
 1477 032c FFF7FEFF 		bl	_ZN7daisysp12LadderFilter7SetFreqEf
 1478              	.LVL129:
 178:main.cpp      ****   VCF_bass.SetRes(res_bass);
 1479              		.loc 10 178 3 is_stmt 1 view .LVU423
 1480              		.loc 10 178 18 is_stmt 0 view .LVU424
 1481 0330 294B     		ldr	r3, .L53+124
 1482 0332 2748     		ldr	r0, .L53+116
 1483 0334 93ED000A 		vldr.32	s0, [r3]
 1484 0338 FFF7FEFF 		bl	_ZN7daisysp12LadderFilter6SetResEf
 1485              	.LVL130:
 179:main.cpp      **** 
 180:main.cpp      ****   // DELAY
 181:main.cpp      ****   Delay.Init(sample_rate);
 1486              		.loc 10 181 3 is_stmt 1 view .LVU425
 1487              		.loc 10 181 13 is_stmt 0 view .LVU426
 1488 033c B0EE480A 		vmov.f32	s0, s16
 1489 0340 2648     		ldr	r0, .L53+128
 1490 0342 FFF7FEFF 		bl	_ZN11AnalogDelay4InitEf
 1491              	.LVL131:
 182:main.cpp      ****   Delay.setDelayTime(delay_time);
 1492              		.loc 10 182 3 is_stmt 1 view .LVU427
 1493              		.loc 10 182 21 is_stmt 0 view .LVU428
 1494 0346 264B     		ldr	r3, .L53+132
 1495 0348 2448     		ldr	r0, .L53+128
 1496 034a 93ED000A 		vldr.32	s0, [r3]
 1497 034e FFF7FEFF 		bl	_ZN11AnalogDelay12setDelayTimeEf
 1498              	.LVL132:
 183:main.cpp      ****   Delay.setFeedback(delay_fb);
 1499              		.loc 10 183 3 is_stmt 1 view .LVU429
 1500              		.loc 10 183 20 is_stmt 0 view .LVU430
ARM GAS  C:\Users\matte\AppData\Local\Temp\ccIv7HUw.s 			page 46


 1501 0352 244B     		ldr	r3, .L53+136
 1502 0354 2148     		ldr	r0, .L53+128
 1503 0356 93ED000A 		vldr.32	s0, [r3]
 1504 035a 47E0     		b	.L54
 1505              	.L55:
 1506              		.align	2
 1507              	.L53:
 1508 035c 00000000 		.word	.LANCHOR25
 1509 0360 00000000 		.word	.LANCHOR12
 1510 0364 00000000 		.word	.LANCHOR26
 1511 0368 00000000 		.word	.LANCHOR27
 1512 036c 00000000 		.word	.LANCHOR28
 1513 0370 00000000 		.word	.LANCHOR4
 1514 0374 00000000 		.word	.LANCHOR29
 1515 0378 00000000 		.word	.LANCHOR9
 1516 037c 00000000 		.word	.LANCHOR17
 1517 0380 00000000 		.word	.LANCHOR16
 1518 0384 00000000 		.word	.LANCHOR30
 1519 0388 00000000 		.word	.LANCHOR2
 1520 038c 00000000 		.word	.LANCHOR31
 1521 0390 00000000 		.word	.LANCHOR13
 1522 0394 00000000 		.word	.LANCHOR32
 1523 0398 00000000 		.word	.LANCHOR33
 1524 039c 00000000 		.word	.LANCHOR34
 1525 03a0 00000000 		.word	.LANCHOR6
 1526 03a4 00000000 		.word	.LANCHOR35
 1527 03a8 00000000 		.word	.LANCHOR10
 1528 03ac 00000000 		.word	.LANCHOR20
 1529 03b0 00000000 		.word	.LANCHOR19
 1530 03b4 00000000 		.word	.LANCHOR36
 1531 03b8 00000000 		.word	.LANCHOR39
 1532 03bc 00000000 		.word	.LANCHOR37
 1533 03c0 00000000 		.word	.LANCHOR38
 1534 03c4 00000000 		.word	.LANCHOR8
 1535 03c8 00000000 		.word	.LANCHOR40
 1536 03cc 00000000 		.word	.LANCHOR11
 1537 03d0 00000000 		.word	.LANCHOR23
 1538 03d4 00000000 		.word	.LANCHOR22
 1539 03d8 00000000 		.word	.LANCHOR41
 1540 03dc 00000000 		.word	Delay
 1541 03e0 00000000 		.word	.LANCHOR42
 1542 03e4 00000000 		.word	.LANCHOR43
 1543 03e8 00000000 		.word	.LANCHOR14
 1544              	.L54:
 1545 03ec FFF7FEFF 		bl	_ZN11AnalogDelay11setFeedbackEf
 1546              	.LVL133:
 184:main.cpp      ****   Delay.setMix(delay_mix);
 1547              		.loc 10 184 3 is_stmt 1 view .LVU431
 1548              		.loc 10 184 15 is_stmt 0 view .LVU432
 1549 03f0 984B     		ldr	r3, .L56
 1550 03f2 9948     		ldr	r0, .L56+4
 1551 03f4 93ED000A 		vldr.32	s0, [r3]
 1552 03f8 FFF7FEFF 		bl	_ZN11AnalogDelay6setMixEf
 1553              	.LVL134:
 185:main.cpp      **** 
 186:main.cpp      ****   
 187:main.cpp      **** 
ARM GAS  C:\Users\matte\AppData\Local\Temp\ccIv7HUw.s 			page 47


 188:main.cpp      ****   hw.StartAudio(AudioCallback);
 1554              		.loc 10 188 3 is_stmt 1 view .LVU433
 1555              		.loc 10 188 16 is_stmt 0 view .LVU434
 1556 03fc 9749     		ldr	r1, .L56+8
 1557 03fe 9848     		ldr	r0, .L56+12
 1558 0400 984C     		ldr	r4, .L56+16
 1559 0402 FFF7FEFF 		bl	_ZN5daisy9DaisySeed10StartAudioEPFvPKfPfjE
 1560              	.LVL135:
 1561 0406 DFF8B0B2 		ldr	fp, .L56+100
 1562 040a DFF8B082 		ldr	r8, .L56+104
 1563 040e DFF8B0A2 		ldr	r10, .L56+108
 1564 0412 3BE0     		b	.L37
 1565              	.L28:
 189:main.cpp      ****   // put your setup code here, to run once:
 190:main.cpp      ****   // Serial.begin(9600);
 191:main.cpp      **** 
 192:main.cpp      ****   //while (!Serial) { // needed to keep micro from starting too fast!
 193:main.cpp      ****   //  delay(10);
 194:main.cpp      ****   //}
 195:main.cpp      ****   // Default address is 0x5A, if tied to 3.3V its 0x5B
 196:main.cpp      ****   // If tied to SDA its 0x5C and if SCL then 0x5D
 197:main.cpp      ****   //if (!cap.begin(0x5A)) {
 198:main.cpp      ****   //  Serial.println("MPR121 not found, check wiring?");
 199:main.cpp      ****   //  while (1);
 200:main.cpp      ****   //}
 201:main.cpp      ****   //Serial.println("MPR121 found!");  
 202:main.cpp      ****   //cap.setThresholds(2, 0);
 203:main.cpp      **** 
 204:main.cpp      **** while (1){
 205:main.cpp      **** 
 206:main.cpp      **** //Pluck
 207:main.cpp      ****   if(cap.Touched() & _BV(0)){
 208:main.cpp      ****     Gate_pluck = true;
 209:main.cpp      ****     value_pluck =cap.FilteredData(0);
 210:main.cpp      ****     now_f_pluck = p_pluck.discFreq(value_pluck);
 211:main.cpp      ****     pluck.SetFreq(now_f_pluck);                                       //setto frequenza pluck
 212:main.cpp      ****   }
 213:main.cpp      ****   else {
 214:main.cpp      ****     Gate_pluck = false;
 1566              		.loc 10 214 5 is_stmt 1 view .LVU435
 1567              		.loc 10 214 16 is_stmt 0 view .LVU436
 1568 0414 8BF80030 		strb	r3, [fp]
 215:main.cpp      ****   }
 216:main.cpp      **** 
 217:main.cpp      ****   if(Gate_pluck){
 1569              		.loc 10 217 3 is_stmt 1 view .LVU437
 1570              	.L30:
 218:main.cpp      ****     hw.PrintLine("Hai premuto il gate pluck (0) ");
 219:main.cpp      ****     hw.PrintLine(" ed il suo valore  : ");
 220:main.cpp      ****     hw.PrintLine("%d", (int)value_pluck);
 221:main.cpp      ****     hw.PrintLine("Frequenza: ");
 222:main.cpp      ****     // hw.PrintLine("%f", now_f_pluck); // DA AGGIUNGERE FLAG NEL MAKEFILE
 223:main.cpp      **** 
 224:main.cpp      ****   }
 225:main.cpp      **** //Pad
 226:main.cpp      ****   if(cap.Touched() & _BV(1)){
 1571              		.loc 10 226 3 view .LVU438
ARM GAS  C:\Users\matte\AppData\Local\Temp\ccIv7HUw.s 			page 48


 1572              	.LVL136:
 1573              	.LBB570:
 1574              	.LBI570:
 102:../../libs/libDaisy/src/dev/mpr121.h **** 
 103:../../libs/libDaisy/src/dev/mpr121.h ****     struct Config
 104:../../libs/libDaisy/src/dev/mpr121.h ****     {
 105:../../libs/libDaisy/src/dev/mpr121.h ****         typename Transport::Config transport_config;
 106:../../libs/libDaisy/src/dev/mpr121.h ****         uint8_t                    touch_threshold;
 107:../../libs/libDaisy/src/dev/mpr121.h ****         uint8_t                    release_threshold;
 108:../../libs/libDaisy/src/dev/mpr121.h **** 
 109:../../libs/libDaisy/src/dev/mpr121.h ****         Config()
 110:../../libs/libDaisy/src/dev/mpr121.h ****         {
 111:../../libs/libDaisy/src/dev/mpr121.h ****             touch_threshold   = MPR121_TOUCH_THRESHOLD_DEFAULT;
 112:../../libs/libDaisy/src/dev/mpr121.h ****             release_threshold = MPR121_RELEASE_THRESHOLD_DEFAULT;
 113:../../libs/libDaisy/src/dev/mpr121.h ****         }
 114:../../libs/libDaisy/src/dev/mpr121.h ****     };
 115:../../libs/libDaisy/src/dev/mpr121.h **** 
 116:../../libs/libDaisy/src/dev/mpr121.h ****     enum Result
 117:../../libs/libDaisy/src/dev/mpr121.h ****     {
 118:../../libs/libDaisy/src/dev/mpr121.h ****         OK = 0,
 119:../../libs/libDaisy/src/dev/mpr121.h ****         ERR
 120:../../libs/libDaisy/src/dev/mpr121.h ****     };
 121:../../libs/libDaisy/src/dev/mpr121.h **** 
 122:../../libs/libDaisy/src/dev/mpr121.h ****     /** Initialize the MPR121 device
 123:../../libs/libDaisy/src/dev/mpr121.h ****         \param config Configuration settings
 124:../../libs/libDaisy/src/dev/mpr121.h ****     */
 125:../../libs/libDaisy/src/dev/mpr121.h ****     Result Init(Config config)
 126:../../libs/libDaisy/src/dev/mpr121.h ****     {
 127:../../libs/libDaisy/src/dev/mpr121.h ****         config_ = config;
 128:../../libs/libDaisy/src/dev/mpr121.h **** 
 129:../../libs/libDaisy/src/dev/mpr121.h ****         SetTransportErr(transport_.Init(config_.transport_config));
 130:../../libs/libDaisy/src/dev/mpr121.h **** 
 131:../../libs/libDaisy/src/dev/mpr121.h ****         // soft reset
 132:../../libs/libDaisy/src/dev/mpr121.h ****         WriteRegister(MPR121_SOFTRESET, 0x63);
 133:../../libs/libDaisy/src/dev/mpr121.h ****         System::Delay(1);
 134:../../libs/libDaisy/src/dev/mpr121.h **** 
 135:../../libs/libDaisy/src/dev/mpr121.h ****         WriteRegister(MPR121_ECR, 0x0);
 136:../../libs/libDaisy/src/dev/mpr121.h **** 
 137:../../libs/libDaisy/src/dev/mpr121.h ****         // this doesn't work for some reason...
 138:../../libs/libDaisy/src/dev/mpr121.h ****         // uint8_t c = ReadRegister8(MPR121_CONFIG2);
 139:../../libs/libDaisy/src/dev/mpr121.h **** 
 140:../../libs/libDaisy/src/dev/mpr121.h ****         // if(c != 0x24)
 141:../../libs/libDaisy/src/dev/mpr121.h ****         //     return ERR;
 142:../../libs/libDaisy/src/dev/mpr121.h **** 
 143:../../libs/libDaisy/src/dev/mpr121.h ****         SetThresholds(config_.touch_threshold, config_.release_threshold);
 144:../../libs/libDaisy/src/dev/mpr121.h ****         WriteRegister(MPR121_MHDR, 0x01);
 145:../../libs/libDaisy/src/dev/mpr121.h ****         WriteRegister(MPR121_NHDR, 0x01);
 146:../../libs/libDaisy/src/dev/mpr121.h ****         WriteRegister(MPR121_NCLR, 0x0E);
 147:../../libs/libDaisy/src/dev/mpr121.h ****         WriteRegister(MPR121_FDLR, 0x00);
 148:../../libs/libDaisy/src/dev/mpr121.h **** 
 149:../../libs/libDaisy/src/dev/mpr121.h ****         WriteRegister(MPR121_MHDF, 0x01);
 150:../../libs/libDaisy/src/dev/mpr121.h ****         WriteRegister(MPR121_NHDF, 0x05);
 151:../../libs/libDaisy/src/dev/mpr121.h ****         WriteRegister(MPR121_NCLF, 0x01);
 152:../../libs/libDaisy/src/dev/mpr121.h ****         WriteRegister(MPR121_FDLF, 0x00);
 153:../../libs/libDaisy/src/dev/mpr121.h **** 
 154:../../libs/libDaisy/src/dev/mpr121.h ****         WriteRegister(MPR121_NHDT, 0x00);
 155:../../libs/libDaisy/src/dev/mpr121.h ****         WriteRegister(MPR121_NCLT, 0x00);
ARM GAS  C:\Users\matte\AppData\Local\Temp\ccIv7HUw.s 			page 49


 156:../../libs/libDaisy/src/dev/mpr121.h ****         WriteRegister(MPR121_FDLT, 0x00);
 157:../../libs/libDaisy/src/dev/mpr121.h **** 
 158:../../libs/libDaisy/src/dev/mpr121.h ****         WriteRegister(MPR121_DEBOUNCE, 0);
 159:../../libs/libDaisy/src/dev/mpr121.h ****         WriteRegister(MPR121_CONFIG1, 0x10); // default, 16uA charge current
 160:../../libs/libDaisy/src/dev/mpr121.h ****         WriteRegister(MPR121_CONFIG2, 0x20); // 0.5uS encoding, 1ms period
 161:../../libs/libDaisy/src/dev/mpr121.h **** 
 162:../../libs/libDaisy/src/dev/mpr121.h ****         // autoconfig
 163:../../libs/libDaisy/src/dev/mpr121.h ****         // WriteRegister(MPR121_AUTOCONFIG0, 0x0B);
 164:../../libs/libDaisy/src/dev/mpr121.h **** 
 165:../../libs/libDaisy/src/dev/mpr121.h ****         // correct values for Vdd = 3.3V
 166:../../libs/libDaisy/src/dev/mpr121.h ****         // WriteRegister(MPR121_UPLIMIT, 200);     // ((Vdd - 0.7)/Vdd) * 256
 167:../../libs/libDaisy/src/dev/mpr121.h ****         // WriteRegister(MPR121_TARGETLIMIT, 180); // UPLIMIT * 0.9
 168:../../libs/libDaisy/src/dev/mpr121.h ****         // WriteRegister(MPR121_LOWLIMIT, 130);    // UPLIMIT * 0.65
 169:../../libs/libDaisy/src/dev/mpr121.h ****         // autoconfig
 170:../../libs/libDaisy/src/dev/mpr121.h **** 
 171:../../libs/libDaisy/src/dev/mpr121.h ****         // enable X electrodes and start MPR121
 172:../../libs/libDaisy/src/dev/mpr121.h ****         uint8_t ECR_SETTING
 173:../../libs/libDaisy/src/dev/mpr121.h ****             = 0x80
 174:../../libs/libDaisy/src/dev/mpr121.h ****               + 12; // 5 bits for baseline tracking & proximity disabled + X
 175:../../libs/libDaisy/src/dev/mpr121.h ****                     // amount of electrodes running (12)
 176:../../libs/libDaisy/src/dev/mpr121.h ****         WriteRegister(MPR121_ECR,
 177:../../libs/libDaisy/src/dev/mpr121.h ****                       ECR_SETTING); // start with above ECR setting
 178:../../libs/libDaisy/src/dev/mpr121.h **** 
 179:../../libs/libDaisy/src/dev/mpr121.h ****         return GetTransportErr();
 180:../../libs/libDaisy/src/dev/mpr121.h ****     }
 181:../../libs/libDaisy/src/dev/mpr121.h **** 
 182:../../libs/libDaisy/src/dev/mpr121.h ****     /** Set the touch and release thresholds for all 13 channels on the
 183:../../libs/libDaisy/src/dev/mpr121.h ****         device to the passed values.
 184:../../libs/libDaisy/src/dev/mpr121.h ****         \param      touch The touch threshold value from 0 to 255.
 185:../../libs/libDaisy/src/dev/mpr121.h ****         \param      release The release threshold from 0 to 255.
 186:../../libs/libDaisy/src/dev/mpr121.h ****     */
 187:../../libs/libDaisy/src/dev/mpr121.h ****     void SetThresholds(uint8_t touch, uint8_t release)
 188:../../libs/libDaisy/src/dev/mpr121.h ****     {
 189:../../libs/libDaisy/src/dev/mpr121.h ****         // set all thresholds (the same)
 190:../../libs/libDaisy/src/dev/mpr121.h ****         for(uint8_t i = 0; i < 12; i++)
 191:../../libs/libDaisy/src/dev/mpr121.h ****         {
 192:../../libs/libDaisy/src/dev/mpr121.h ****             WriteRegister(MPR121_TOUCHTH_0 + 2 * i, touch);
 193:../../libs/libDaisy/src/dev/mpr121.h ****             WriteRegister(MPR121_RELEASETH_0 + 2 * i, release);
 194:../../libs/libDaisy/src/dev/mpr121.h ****         }
 195:../../libs/libDaisy/src/dev/mpr121.h ****     }
 196:../../libs/libDaisy/src/dev/mpr121.h **** 
 197:../../libs/libDaisy/src/dev/mpr121.h **** 
 198:../../libs/libDaisy/src/dev/mpr121.h ****     /** Read the filtered data from channel t. The ADC raw data outputs
 199:../../libs/libDaisy/src/dev/mpr121.h ****         run through 3 levels of digital filtering to filter out the high
 200:../../libs/libDaisy/src/dev/mpr121.h ****         frequency and low frequency noise encountered. For detailed information on
 201:../../libs/libDaisy/src/dev/mpr121.h ****         this filtering see page 6 of the device datasheet.
 202:../../libs/libDaisy/src/dev/mpr121.h ****         \param      t the channel to read
 203:../../libs/libDaisy/src/dev/mpr121.h ****         \returns    the filtered reading as a 10 bit unsigned value
 204:../../libs/libDaisy/src/dev/mpr121.h ****     */
 205:../../libs/libDaisy/src/dev/mpr121.h ****     uint16_t FilteredData(uint8_t t)
 206:../../libs/libDaisy/src/dev/mpr121.h ****     {
 207:../../libs/libDaisy/src/dev/mpr121.h ****         if(t > 12)
 208:../../libs/libDaisy/src/dev/mpr121.h ****             return 0;
 209:../../libs/libDaisy/src/dev/mpr121.h ****         return ReadRegister16(MPR121_FILTDATA_0L + t * 2);
 210:../../libs/libDaisy/src/dev/mpr121.h ****     }
 211:../../libs/libDaisy/src/dev/mpr121.h **** 
 212:../../libs/libDaisy/src/dev/mpr121.h ****     /** Read the baseline value for the channel. The 3rd level filtered
ARM GAS  C:\Users\matte\AppData\Local\Temp\ccIv7HUw.s 			page 50


 213:../../libs/libDaisy/src/dev/mpr121.h ****         result is internally 10bit but only high 8 bits are readable
 214:../../libs/libDaisy/src/dev/mpr121.h ****         from registers 0x1E~0x2A as the baseline value output for each channel.
 215:../../libs/libDaisy/src/dev/mpr121.h ****         \param      t the channel to read.
 216:../../libs/libDaisy/src/dev/mpr121.h ****         \returns    the baseline data that was read
 217:../../libs/libDaisy/src/dev/mpr121.h ****     */
 218:../../libs/libDaisy/src/dev/mpr121.h ****     uint16_t BaselineData(uint8_t t)
 219:../../libs/libDaisy/src/dev/mpr121.h ****     {
 220:../../libs/libDaisy/src/dev/mpr121.h ****         if(t > 12)
 221:../../libs/libDaisy/src/dev/mpr121.h ****             return 0;
 222:../../libs/libDaisy/src/dev/mpr121.h ****         uint16_t bl = ReadRegister8(MPR121_BASELINE_0 + t);
 223:../../libs/libDaisy/src/dev/mpr121.h ****         return (bl << 2);
 224:../../libs/libDaisy/src/dev/mpr121.h ****     }
 225:../../libs/libDaisy/src/dev/mpr121.h **** 
 226:../../libs/libDaisy/src/dev/mpr121.h ****     /** Read the touch status of all 13 channels as bit values in a 12 bit integer.
 227:../../libs/libDaisy/src/dev/mpr121.h ****         \returns    a 12 bit integer with each bit corresponding to the touch status
 228:../../libs/libDaisy/src/dev/mpr121.h ****         of a sensor. For example, if bit 0 is set then channel 0 of the
 229:../../libs/libDaisy/src/dev/mpr121.h ****         device is currently deemed to be touched.
 230:../../libs/libDaisy/src/dev/mpr121.h ****     */
 231:../../libs/libDaisy/src/dev/mpr121.h ****     uint16_t Touched()
 1575              		.loc 9 231 14 view .LVU439
 1576              	.LBB571:
 1577              	.LBB572:
 1578              	.LBI572:
 232:../../libs/libDaisy/src/dev/mpr121.h ****     {
 233:../../libs/libDaisy/src/dev/mpr121.h ****         uint16_t t = ReadRegister16(MPR121_TOUCHSTATUS_L);
 234:../../libs/libDaisy/src/dev/mpr121.h ****         return t & 0x0FFF;
 235:../../libs/libDaisy/src/dev/mpr121.h ****     }
 236:../../libs/libDaisy/src/dev/mpr121.h **** 
 237:../../libs/libDaisy/src/dev/mpr121.h ****     /** Read the contents of an 8 bit device register.
 238:../../libs/libDaisy/src/dev/mpr121.h ****         \param      reg the register address to read from
 239:../../libs/libDaisy/src/dev/mpr121.h ****         \returns    the 8 bit value that was read.
 240:../../libs/libDaisy/src/dev/mpr121.h ****     */
 241:../../libs/libDaisy/src/dev/mpr121.h ****    uint8_t ReadRegister8(uint8_t reg)
 242:../../libs/libDaisy/src/dev/mpr121.h ****     {
 243:../../libs/libDaisy/src/dev/mpr121.h ****         uint8_t buff;
 244:../../libs/libDaisy/src/dev/mpr121.h ****         SetTransportErr (transport_.ReadMem (&buff, reg, 1));
 245:../../libs/libDaisy/src/dev/mpr121.h ****         return buff;
 246:../../libs/libDaisy/src/dev/mpr121.h ****     }
 247:../../libs/libDaisy/src/dev/mpr121.h **** 
 248:../../libs/libDaisy/src/dev/mpr121.h ****     uint16_t ReadRegister16(uint8_t reg)
 1579              		.loc 9 248 14 view .LVU440
 1580              	.LBB573:
 1581              	.LBB574:
 1582              	.LBI574:
  75:../../libs/libDaisy/src/dev/mpr121.h ****     {
 1583              		.loc 9 75 10 view .LVU441
 1584              	.LBB575:
  77:../../libs/libDaisy/src/dev/mpr121.h ****               != i2c_.Mem_read(
 1585              		.loc 9 77 8 view .LVU442
  78:../../libs/libDaisy/src/dev/mpr121.h ****                    config_.dev_addr, 
 1586              		.loc 9 78 31 is_stmt 0 view .LVU443
 1587 0418 0226     		movs	r6, #2
 1588 041a 0A27     		movs	r7, #10
 1589 041c 0123     		movs	r3, #1
 1590 041e 0095     		str	r5, [sp]
 1591 0420 0022     		movs	r2, #0
 1592 0422 9148     		ldr	r0, .L56+20
ARM GAS  C:\Users\matte\AppData\Local\Temp\ccIv7HUw.s 			page 51


 1593 0424 CDE90167 		strd	r6, r7, [sp, #4]
 1594 0428 94F82C10 		ldrb	r1, [r4, #44]	@ zero_extendqisi2
 1595 042c FFF7FEFF 		bl	_ZN5daisy9I2CHandle8Mem_readEtttPhtm
 1596              	.LVL137:
  78:../../libs/libDaisy/src/dev/mpr121.h ****                    config_.dev_addr, 
 1597              		.loc 9 78 31 view .LVU444
 1598              	.LBE575:
 1599              	.LBE574:
 1600              	.LBB576:
 1601              	.LBI576:
 249:../../libs/libDaisy/src/dev/mpr121.h ****     {
 250:../../libs/libDaisy/src/dev/mpr121.h ****         uint16_t buff;
 251:../../libs/libDaisy/src/dev/mpr121.h ****         SetTransportErr (transport_.ReadMem ((uint8_t*)&buff, reg, 2));
 252:../../libs/libDaisy/src/dev/mpr121.h **** 
 253:../../libs/libDaisy/src/dev/mpr121.h **** 
 254:../../libs/libDaisy/src/dev/mpr121.h ****         return buff;
 255:../../libs/libDaisy/src/dev/mpr121.h ****     }
 256:../../libs/libDaisy/src/dev/mpr121.h **** 
 257:../../libs/libDaisy/src/dev/mpr121.h ****     /** Writes 8-bits to the specified destination register
 258:../../libs/libDaisy/src/dev/mpr121.h ****         \param  reg the register address to write to
 259:../../libs/libDaisy/src/dev/mpr121.h ****         \param  value the value to write
 260:../../libs/libDaisy/src/dev/mpr121.h ****     */
 261:../../libs/libDaisy/src/dev/mpr121.h ****     void WriteRegister(uint8_t reg, uint8_t value)
 262:../../libs/libDaisy/src/dev/mpr121.h ****     {
 263:../../libs/libDaisy/src/dev/mpr121.h ****         // MPR121 must be put in Stop Mode to write to most registers
 264:../../libs/libDaisy/src/dev/mpr121.h ****         bool stop_required = true;
 265:../../libs/libDaisy/src/dev/mpr121.h **** 
 266:../../libs/libDaisy/src/dev/mpr121.h ****         // first get the current set value of the MPR121_ECR register
 267:../../libs/libDaisy/src/dev/mpr121.h ****         uint8_t ecr_reg = MPR121_ECR;
 268:../../libs/libDaisy/src/dev/mpr121.h ****         uint8_t buff[2] = {ecr_reg, 0x00};
 269:../../libs/libDaisy/src/dev/mpr121.h **** 
 270:../../libs/libDaisy/src/dev/mpr121.h ****         SetTransportErr(transport_.Write(buff, 1));
 271:../../libs/libDaisy/src/dev/mpr121.h **** 
 272:../../libs/libDaisy/src/dev/mpr121.h ****         uint8_t ecr_backup;
 273:../../libs/libDaisy/src/dev/mpr121.h ****         SetTransportErr(transport_.Read(&ecr_backup, 1));
 274:../../libs/libDaisy/src/dev/mpr121.h ****         if((reg == MPR121_ECR) || ((0x73 <= reg) && (reg <= 0x7A)))
 275:../../libs/libDaisy/src/dev/mpr121.h ****         {
 276:../../libs/libDaisy/src/dev/mpr121.h ****             stop_required = false;
 277:../../libs/libDaisy/src/dev/mpr121.h ****         }
 278:../../libs/libDaisy/src/dev/mpr121.h **** 
 279:../../libs/libDaisy/src/dev/mpr121.h ****         if(stop_required)
 280:../../libs/libDaisy/src/dev/mpr121.h ****         {
 281:../../libs/libDaisy/src/dev/mpr121.h ****             // clear this register to set stop mode
 282:../../libs/libDaisy/src/dev/mpr121.h ****             SetTransportErr(transport_.Write(buff, 2));
 283:../../libs/libDaisy/src/dev/mpr121.h ****         }
 284:../../libs/libDaisy/src/dev/mpr121.h **** 
 285:../../libs/libDaisy/src/dev/mpr121.h ****         buff[0] = reg;
 286:../../libs/libDaisy/src/dev/mpr121.h ****         buff[1] = value;
 287:../../libs/libDaisy/src/dev/mpr121.h ****         SetTransportErr(transport_.Write(buff, 2));
 288:../../libs/libDaisy/src/dev/mpr121.h **** 
 289:../../libs/libDaisy/src/dev/mpr121.h ****         if(stop_required)
 290:../../libs/libDaisy/src/dev/mpr121.h ****         {
 291:../../libs/libDaisy/src/dev/mpr121.h ****             // write back the previous set ECR settings
 292:../../libs/libDaisy/src/dev/mpr121.h ****             buff[0] = ecr_reg;
 293:../../libs/libDaisy/src/dev/mpr121.h ****             buff[1] = ecr_backup;
 294:../../libs/libDaisy/src/dev/mpr121.h ****             SetTransportErr(transport_.Write(buff, 2));
 295:../../libs/libDaisy/src/dev/mpr121.h ****         }
ARM GAS  C:\Users\matte\AppData\Local\Temp\ccIv7HUw.s 			page 52


 296:../../libs/libDaisy/src/dev/mpr121.h ****     }
 297:../../libs/libDaisy/src/dev/mpr121.h **** 
 298:../../libs/libDaisy/src/dev/mpr121.h ****     /** Device register map */
 299:../../libs/libDaisy/src/dev/mpr121.h ****     enum RegMap
 300:../../libs/libDaisy/src/dev/mpr121.h ****     {
 301:../../libs/libDaisy/src/dev/mpr121.h ****         MPR121_TOUCHSTATUS_L = 0x00,
 302:../../libs/libDaisy/src/dev/mpr121.h ****         MPR121_TOUCHSTATUS_H = 0x01,
 303:../../libs/libDaisy/src/dev/mpr121.h ****         MPR121_FILTDATA_0L   = 0x04,
 304:../../libs/libDaisy/src/dev/mpr121.h ****         MPR121_FILTDATA_0H   = 0x05,
 305:../../libs/libDaisy/src/dev/mpr121.h ****         MPR121_BASELINE_0    = 0x1E,
 306:../../libs/libDaisy/src/dev/mpr121.h ****         MPR121_MHDR          = 0x2B,
 307:../../libs/libDaisy/src/dev/mpr121.h ****         MPR121_NHDR          = 0x2C,
 308:../../libs/libDaisy/src/dev/mpr121.h ****         MPR121_NCLR          = 0x2D,
 309:../../libs/libDaisy/src/dev/mpr121.h ****         MPR121_FDLR          = 0x2E,
 310:../../libs/libDaisy/src/dev/mpr121.h ****         MPR121_MHDF          = 0x2F,
 311:../../libs/libDaisy/src/dev/mpr121.h ****         MPR121_NHDF          = 0x30,
 312:../../libs/libDaisy/src/dev/mpr121.h ****         MPR121_NCLF          = 0x31,
 313:../../libs/libDaisy/src/dev/mpr121.h ****         MPR121_FDLF          = 0x32,
 314:../../libs/libDaisy/src/dev/mpr121.h ****         MPR121_NHDT          = 0x33,
 315:../../libs/libDaisy/src/dev/mpr121.h ****         MPR121_NCLT          = 0x34,
 316:../../libs/libDaisy/src/dev/mpr121.h ****         MPR121_FDLT          = 0x35,
 317:../../libs/libDaisy/src/dev/mpr121.h **** 
 318:../../libs/libDaisy/src/dev/mpr121.h ****         MPR121_TOUCHTH_0    = 0x41,
 319:../../libs/libDaisy/src/dev/mpr121.h ****         MPR121_RELEASETH_0  = 0x42,
 320:../../libs/libDaisy/src/dev/mpr121.h ****         MPR121_DEBOUNCE     = 0x5B,
 321:../../libs/libDaisy/src/dev/mpr121.h ****         MPR121_CONFIG1      = 0x5C,
 322:../../libs/libDaisy/src/dev/mpr121.h ****         MPR121_CONFIG2      = 0x5D,
 323:../../libs/libDaisy/src/dev/mpr121.h ****         MPR121_CHARGECURR_0 = 0x5F,
 324:../../libs/libDaisy/src/dev/mpr121.h ****         MPR121_CHARGETIME_1 = 0x6C,
 325:../../libs/libDaisy/src/dev/mpr121.h ****         MPR121_ECR          = 0x5E,
 326:../../libs/libDaisy/src/dev/mpr121.h ****         MPR121_AUTOCONFIG0  = 0x7B,
 327:../../libs/libDaisy/src/dev/mpr121.h ****         MPR121_AUTOCONFIG1  = 0x7C,
 328:../../libs/libDaisy/src/dev/mpr121.h ****         MPR121_UPLIMIT      = 0x7D,
 329:../../libs/libDaisy/src/dev/mpr121.h ****         MPR121_LOWLIMIT     = 0x7E,
 330:../../libs/libDaisy/src/dev/mpr121.h ****         MPR121_TARGETLIMIT  = 0x7F,
 331:../../libs/libDaisy/src/dev/mpr121.h **** 
 332:../../libs/libDaisy/src/dev/mpr121.h ****         MPR121_GPIODIR    = 0x76,
 333:../../libs/libDaisy/src/dev/mpr121.h ****         MPR121_GPIOEN     = 0x77,
 334:../../libs/libDaisy/src/dev/mpr121.h ****         MPR121_GPIOSET    = 0x78,
 335:../../libs/libDaisy/src/dev/mpr121.h ****         MPR121_GPIOCLR    = 0x79,
 336:../../libs/libDaisy/src/dev/mpr121.h ****         MPR121_GPIOTOGGLE = 0x7A,
 337:../../libs/libDaisy/src/dev/mpr121.h **** 
 338:../../libs/libDaisy/src/dev/mpr121.h ****         MPR121_SOFTRESET = 0x80,
 339:../../libs/libDaisy/src/dev/mpr121.h ****     };
 340:../../libs/libDaisy/src/dev/mpr121.h **** 
 341:../../libs/libDaisy/src/dev/mpr121.h ****   private:
 342:../../libs/libDaisy/src/dev/mpr121.h ****     Config    config_;
 343:../../libs/libDaisy/src/dev/mpr121.h ****     Transport transport_;
 344:../../libs/libDaisy/src/dev/mpr121.h ****     bool      transport_error_;
 345:../../libs/libDaisy/src/dev/mpr121.h **** 
 346:../../libs/libDaisy/src/dev/mpr121.h ****     /** Set the global transport_error_ bool */
 347:../../libs/libDaisy/src/dev/mpr121.h ****     void SetTransportErr(bool err) { transport_error_ |= err; }
 1602              		.loc 9 347 10 is_stmt 1 view .LVU445
 1603              	.LBB577:
 1604              		.loc 9 347 55 is_stmt 0 view .LVU446
 1605 0430 94F83030 		ldrb	r3, [r4, #48]	@ zero_extendqisi2
 1606 0434 0028     		cmp	r0, #0
ARM GAS  C:\Users\matte\AppData\Local\Temp\ccIv7HUw.s 			page 53


 1607 0436 18BF     		it	ne
 1608 0438 43F00103 		orrne	r3, r3, #1
 1609 043c 84F83030 		strb	r3, [r4, #48]
 1610              	.LVL138:
 1611              		.loc 9 347 55 view .LVU447
 1612              	.LBE577:
 1613              	.LBE576:
 254:../../libs/libDaisy/src/dev/mpr121.h ****     }
 1614              		.loc 9 254 16 view .LVU448
 1615 0440 BDF81630 		ldrh	r3, [sp, #22]
 1616              	.LVL139:
 254:../../libs/libDaisy/src/dev/mpr121.h ****     }
 1617              		.loc 9 254 16 view .LVU449
 1618              	.LBE573:
 1619              	.LBE572:
 1620              	.LBE571:
 1621              	.LBE570:
 1622              		.loc 10 226 3 view .LVU450
 1623 0444 3340     		ands	r3, r3, r6
 1624 0446 40F0B580 		bne	.L51
 227:main.cpp      ****     Gate_pad = true;
 228:main.cpp      ****     value_pad =cap.FilteredData(1);
 229:main.cpp      ****     now_f_pad = p_pad.discFreq(value_pad);
 230:main.cpp      ****     pad.SetFreq(now_f_pad); 
 231:main.cpp      ****   }
 232:main.cpp      ****   else {
 233:main.cpp      ****     Gate_pad = false;
 1625              		.loc 10 233 5 is_stmt 1 view .LVU451
 1626              		.loc 10 233 14 is_stmt 0 view .LVU452
 1627 044a 884A     		ldr	r2, .L56+24
 1628 044c 1370     		strb	r3, [r2]
 234:main.cpp      ****   }
 235:main.cpp      **** 
 236:main.cpp      ****   if(Gate_pad){
 1629              		.loc 10 236 3 is_stmt 1 view .LVU453
 1630              	.L33:
 237:main.cpp      ****     hw.PrintLine("Hai premuto il gate pad (1) ");
 238:main.cpp      ****     hw.PrintLine(" ed il suo valore  : ");
 239:main.cpp      ****     hw.PrintLine("%d", (int)value_pad);
 240:main.cpp      ****     hw.PrintLine("Frequenza: ");
 241:main.cpp      ****     // hw.PrintLine("%f", now_f_pad); // DA AGGIUNGERE FLAG NEL MAKEFILE
 242:main.cpp      ****   }
 243:main.cpp      **** 
 244:main.cpp      ****   // Pluck 3
 245:main.cpp      ****   if (cap.Touched() & _BV(2)) {
 1631              		.loc 10 245 3 view .LVU454
 1632              	.LVL140:
 1633              	.LBB578:
 1634              	.LBI578:
 231:../../libs/libDaisy/src/dev/mpr121.h ****     {
 1635              		.loc 9 231 14 view .LVU455
 1636              	.LBB579:
 1637              	.LBB580:
 1638              	.LBI580:
 248:../../libs/libDaisy/src/dev/mpr121.h ****     {
 1639              		.loc 9 248 14 view .LVU456
 1640              	.LBB581:
ARM GAS  C:\Users\matte\AppData\Local\Temp\ccIv7HUw.s 			page 54


 1641              	.LBB582:
 1642              	.LBI582:
  75:../../libs/libDaisy/src/dev/mpr121.h ****     {
 1643              		.loc 9 75 10 view .LVU457
 1644              	.LBB583:
  77:../../libs/libDaisy/src/dev/mpr121.h ****               != i2c_.Mem_read(
 1645              		.loc 9 77 8 view .LVU458
  78:../../libs/libDaisy/src/dev/mpr121.h ****                    config_.dev_addr, 
 1646              		.loc 9 78 31 is_stmt 0 view .LVU459
 1647 044e 0226     		movs	r6, #2
 1648 0450 0A27     		movs	r7, #10
 1649 0452 0123     		movs	r3, #1
 1650 0454 0095     		str	r5, [sp]
 1651 0456 0022     		movs	r2, #0
 1652 0458 8348     		ldr	r0, .L56+20
 1653 045a CDE90167 		strd	r6, r7, [sp, #4]
 1654 045e 94F82C10 		ldrb	r1, [r4, #44]	@ zero_extendqisi2
 1655 0462 FFF7FEFF 		bl	_ZN5daisy9I2CHandle8Mem_readEtttPhtm
 1656              	.LVL141:
  78:../../libs/libDaisy/src/dev/mpr121.h ****                    config_.dev_addr, 
 1657              		.loc 9 78 31 view .LVU460
 1658              	.LBE583:
 1659              	.LBE582:
 1660              	.LBB584:
 1661              	.LBI584:
 1662              		.loc 9 347 10 is_stmt 1 view .LVU461
 1663              	.LBB585:
 1664              		.loc 9 347 55 is_stmt 0 view .LVU462
 1665 0466 94F83030 		ldrb	r3, [r4, #48]	@ zero_extendqisi2
 1666 046a 0028     		cmp	r0, #0
 1667 046c 18BF     		it	ne
 1668 046e 43F00103 		orrne	r3, r3, #1
 1669 0472 84F83030 		strb	r3, [r4, #48]
 1670              	.LVL142:
 1671              		.loc 9 347 55 view .LVU463
 1672              	.LBE585:
 1673              	.LBE584:
 254:../../libs/libDaisy/src/dev/mpr121.h ****     }
 1674              		.loc 9 254 16 view .LVU464
 1675 0476 BDF81630 		ldrh	r3, [sp, #22]
 1676              	.LVL143:
 254:../../libs/libDaisy/src/dev/mpr121.h ****     }
 1677              		.loc 9 254 16 view .LVU465
 1678              	.LBE581:
 1679              	.LBE580:
 1680              	.LBE579:
 1681              	.LBE578:
 1682              		.loc 10 245 3 view .LVU466
 1683 047a 13F00403 		ands	r3, r3, #4
 1684 047e 5CD1     		bne	.L52
 246:main.cpp      ****     Gate_bass = true;
 247:main.cpp      ****     value_bass = cap.FilteredData(2);
 248:main.cpp      ****     now_f_bass = p_bass.discFreq(value_bass);
 249:main.cpp      ****     bass.SetFreq(now_f_bass); // Set frequency for bass
 250:main.cpp      ****   } else {
 251:main.cpp      ****     Gate_bass = false;
 1685              		.loc 10 251 5 is_stmt 1 view .LVU467
ARM GAS  C:\Users\matte\AppData\Local\Temp\ccIv7HUw.s 			page 55


 1686              		.loc 10 251 15 is_stmt 0 view .LVU468
 1687 0480 88F80030 		strb	r3, [r8]
 252:main.cpp      ****   }
 253:main.cpp      **** 
 254:main.cpp      ****  
 255:main.cpp      **** 
 256:main.cpp      ****   if (Gate_bass) {
 1688              		.loc 10 256 3 is_stmt 1 view .LVU469
 1689              	.L36:
 257:main.cpp      ****     hw.PrintLine("Hai premuto il gate bass (2) ");
 258:main.cpp      ****     hw.PrintLine(" ed il suo valore  : ");
 259:main.cpp      ****     hw.PrintLine("%d", (int)value_bass);
 260:main.cpp      ****     hw.PrintLine("Frequenza: ");
 261:main.cpp      ****     // hw.PrintLine("%f", now_f_bass); // DA AGGIUNGERE FLAG NEL MAKEFILE
 262:main.cpp      ****   }
 263:main.cpp      **** 
 264:main.cpp      ****    
 265:main.cpp      ****   hw.DelayMs(100);
 1690              		.loc 10 265 3 view .LVU470
 1691              		.loc 10 265 13 is_stmt 0 view .LVU471
 1692 0484 6421     		movs	r1, #100
 1693 0486 7648     		ldr	r0, .L56+12
 1694 0488 FFF7FEFF 		bl	_ZN5daisy9DaisySeed7DelayMsEj
 1695              	.LVL144:
 204:main.cpp      **** 
 1696              		.loc 10 204 1 is_stmt 1 view .LVU472
 1697              	.L37:
 204:main.cpp      **** 
 1698              		.loc 10 204 1 view .LVU473
 207:main.cpp      ****     Gate_pluck = true;
 1699              		.loc 10 207 3 view .LVU474
 1700              	.LBB586:
 1701              	.LBI586:
 231:../../libs/libDaisy/src/dev/mpr121.h ****     {
 1702              		.loc 9 231 14 view .LVU475
 1703              	.LBB587:
 1704              	.LBB588:
 1705              	.LBI588:
 248:../../libs/libDaisy/src/dev/mpr121.h ****     {
 1706              		.loc 9 248 14 view .LVU476
 1707              	.LBB589:
 1708              	.LBB590:
 1709              	.LBI590:
  75:../../libs/libDaisy/src/dev/mpr121.h ****     {
 1710              		.loc 9 75 10 view .LVU477
 1711              	.LBB591:
  77:../../libs/libDaisy/src/dev/mpr121.h ****               != i2c_.Mem_read(
 1712              		.loc 9 77 8 view .LVU478
  78:../../libs/libDaisy/src/dev/mpr121.h ****                    config_.dev_addr, 
 1713              		.loc 9 78 31 is_stmt 0 view .LVU479
 1714 048c 0226     		movs	r6, #2
 1715 048e 0A27     		movs	r7, #10
 1716 0490 0123     		movs	r3, #1
 1717 0492 0095     		str	r5, [sp]
 1718 0494 0022     		movs	r2, #0
 1719 0496 7448     		ldr	r0, .L56+20
 1720 0498 CDE90167 		strd	r6, r7, [sp, #4]
ARM GAS  C:\Users\matte\AppData\Local\Temp\ccIv7HUw.s 			page 56


 1721 049c 94F82C10 		ldrb	r1, [r4, #44]	@ zero_extendqisi2
 1722 04a0 FFF7FEFF 		bl	_ZN5daisy9I2CHandle8Mem_readEtttPhtm
 1723              	.LVL145:
  78:../../libs/libDaisy/src/dev/mpr121.h ****                    config_.dev_addr, 
 1724              		.loc 9 78 31 view .LVU480
 1725              	.LBE591:
 1726              	.LBE590:
 1727              	.LBB592:
 1728              	.LBI592:
 1729              		.loc 9 347 10 is_stmt 1 view .LVU481
 1730              	.LBB593:
 1731              		.loc 9 347 55 is_stmt 0 view .LVU482
 1732 04a4 94F83030 		ldrb	r3, [r4, #48]	@ zero_extendqisi2
 1733 04a8 0028     		cmp	r0, #0
 1734 04aa 18BF     		it	ne
 1735 04ac 43F00103 		orrne	r3, r3, #1
 1736 04b0 84F83030 		strb	r3, [r4, #48]
 1737              	.LVL146:
 1738              		.loc 9 347 55 view .LVU483
 1739              	.LBE593:
 1740              	.LBE592:
 254:../../libs/libDaisy/src/dev/mpr121.h ****     }
 1741              		.loc 9 254 16 view .LVU484
 1742 04b4 BDF81630 		ldrh	r3, [sp, #22]
 1743              	.LVL147:
 254:../../libs/libDaisy/src/dev/mpr121.h ****     }
 1744              		.loc 9 254 16 view .LVU485
 1745              	.LBE589:
 1746              	.LBE588:
 1747              	.LBE587:
 1748              	.LBE586:
 207:main.cpp      ****     Gate_pluck = true;
 1749              		.loc 10 207 3 view .LVU486
 1750 04b8 13F00103 		ands	r3, r3, #1
 1751 04bc AAD0     		beq	.L28
 208:main.cpp      ****     value_pluck =cap.FilteredData(0);
 1752              		.loc 10 208 5 is_stmt 1 view .LVU487
 208:main.cpp      ****     value_pluck =cap.FilteredData(0);
 1753              		.loc 10 208 16 is_stmt 0 view .LVU488
 1754 04be 0123     		movs	r3, #1
 1755              	.LBB594:
 1756              	.LBB595:
 1757              	.LBB596:
 1758              	.LBB597:
 1759              	.LBB598:
 1760              	.LBB599:
  78:../../libs/libDaisy/src/dev/mpr121.h ****                    config_.dev_addr, 
 1761              		.loc 9 78 31 view .LVU489
 1762 04c0 0422     		movs	r2, #4
 1763 04c2 0095     		str	r5, [sp]
 1764 04c4 6848     		ldr	r0, .L56+20
 1765              	.LBE599:
 1766              	.LBE598:
 1767              	.LBE597:
 1768              	.LBE596:
 1769              	.LBE595:
 1770              	.LBE594:
ARM GAS  C:\Users\matte\AppData\Local\Temp\ccIv7HUw.s 			page 57


 208:main.cpp      ****     value_pluck =cap.FilteredData(0);
 1771              		.loc 10 208 16 view .LVU490
 1772 04c6 8BF80030 		strb	r3, [fp]
 209:main.cpp      ****     now_f_pluck = p_pluck.discFreq(value_pluck);
 1773              		.loc 10 209 5 is_stmt 1 view .LVU491
 1774              	.LVL148:
 1775              	.LBB614:
 1776              	.LBI594:
 205:../../libs/libDaisy/src/dev/mpr121.h ****     {
 1777              		.loc 9 205 14 view .LVU492
 1778              	.LBB612:
 1779              	.LBI595:
 205:../../libs/libDaisy/src/dev/mpr121.h ****     {
 1780              		.loc 9 205 14 view .LVU493
 1781              	.LBB610:
 1782              	.LBI596:
 248:../../libs/libDaisy/src/dev/mpr121.h ****     {
 1783              		.loc 9 248 14 view .LVU494
 1784              	.LBB608:
 1785              	.LBB601:
 1786              	.LBI598:
  75:../../libs/libDaisy/src/dev/mpr121.h ****     {
 1787              		.loc 9 75 10 view .LVU495
 1788              	.LBB600:
  77:../../libs/libDaisy/src/dev/mpr121.h ****               != i2c_.Mem_read(
 1789              		.loc 9 77 8 view .LVU496
  78:../../libs/libDaisy/src/dev/mpr121.h ****                    config_.dev_addr, 
 1790              		.loc 9 78 31 is_stmt 0 view .LVU497
 1791 04ca CDE90167 		strd	r6, r7, [sp, #4]
 1792 04ce 94F82C10 		ldrb	r1, [r4, #44]	@ zero_extendqisi2
 1793 04d2 FFF7FEFF 		bl	_ZN5daisy9I2CHandle8Mem_readEtttPhtm
 1794              	.LVL149:
  78:../../libs/libDaisy/src/dev/mpr121.h ****                    config_.dev_addr, 
 1795              		.loc 9 78 31 view .LVU498
 1796              	.LBE600:
 1797              	.LBE601:
 1798              	.LBB602:
 1799              	.LBI602:
 1800              		.loc 9 347 10 is_stmt 1 view .LVU499
 1801              	.LBB603:
 1802              		.loc 9 347 55 is_stmt 0 view .LVU500
 1803 04d6 94F83030 		ldrb	r3, [r4, #48]	@ zero_extendqisi2
 1804              	.LBE603:
 1805              	.LBE602:
 254:../../libs/libDaisy/src/dev/mpr121.h ****     }
 1806              		.loc 9 254 16 view .LVU501
 1807 04da BDF81610 		ldrh	r1, [sp, #22]
 1808              	.LBB606:
 1809              	.LBB604:
 1810              		.loc 9 347 55 view .LVU502
 1811 04de 0028     		cmp	r0, #0
 1812 04e0 18BF     		it	ne
 1813 04e2 43F00103 		orrne	r3, r3, #1
 1814              	.LBE604:
 1815              	.LBE606:
 1816              	.LBE608:
 1817              	.LBE610:
ARM GAS  C:\Users\matte\AppData\Local\Temp\ccIv7HUw.s 			page 58


 1818              	.LBE612:
 1819              	.LBE614:
 210:main.cpp      ****     pluck.SetFreq(now_f_pluck);                                       //setto frequenza pluck
 1820              		.loc 10 210 35 view .LVU503
 1821 04e6 6248     		ldr	r0, .L56+28
 1822              	.LVL150:
 1823              	.LBB615:
 1824              	.LBB616:
  69:../../libs/DaisySP//Source/Synthesis/oscillator.h ****         phase_inc_ = CalcPhaseInc(f);
 1825              		.loc 8 69 20 view .LVU504
 1826 04e8 624E     		ldr	r6, .L56+32
 1827              	.LBE616:
 1828              	.LBE615:
 1829              	.LBB620:
 1830              	.LBB613:
 1831              	.LBB611:
 1832              	.LBB609:
 1833              	.LBB607:
 1834              	.LBB605:
 1835              		.loc 9 347 55 view .LVU505
 1836 04ea 84F83030 		strb	r3, [r4, #48]
 1837              	.LVL151:
 1838              		.loc 9 347 55 view .LVU506
 1839              	.LBE605:
 1840              	.LBE607:
 1841              	.LBE609:
 1842              	.LBE611:
 1843              	.LBE613:
 1844              	.LBE620:
 209:main.cpp      ****     now_f_pluck = p_pluck.discFreq(value_pluck);
 1845              		.loc 10 209 17 view .LVU507
 1846 04ee 624B     		ldr	r3, .L56+36
 1847 04f0 1980     		strh	r1, [r3]	@ movhi
 210:main.cpp      ****     pluck.SetFreq(now_f_pluck);                                       //setto frequenza pluck
 1848              		.loc 10 210 5 is_stmt 1 view .LVU508
 210:main.cpp      ****     pluck.SetFreq(now_f_pluck);                                       //setto frequenza pluck
 1849              		.loc 10 210 35 is_stmt 0 view .LVU509
 1850 04f2 FFF7FEFF 		bl	_ZN11pentaPianta8discFreqEt
 1851              	.LVL152:
 210:main.cpp      ****     pluck.SetFreq(now_f_pluck);                                       //setto frequenza pluck
 1852              		.loc 10 210 17 view .LVU510
 1853 04f6 07EE900A 		vmov	s15, r0	@ int
 1854 04fa 604B     		ldr	r3, .L56+40
 1855              	.LBB621:
 1856              	.LBB617:
  70:../../libs/DaisySP//Source/Synthesis/oscillator.h ****     }
 1857              		.loc 8 70 34 view .LVU511
 1858 04fc 3046     		mov	r0, r6
 1859              	.LBE617:
 1860              	.LBE621:
 210:main.cpp      ****     pluck.SetFreq(now_f_pluck);                                       //setto frequenza pluck
 1861              		.loc 10 210 17 view .LVU512
 1862 04fe B8EE670A 		vcvt.f32.u32	s0, s15
 1863 0502 83ED000A 		vstr.32	s0, [r3]
 211:main.cpp      ****   }
 1864              		.loc 10 211 5 is_stmt 1 view .LVU513
 1865              	.LVL153:
ARM GAS  C:\Users\matte\AppData\Local\Temp\ccIv7HUw.s 			page 59


 1866              	.LBB622:
 1867              	.LBI615:
  67:../../libs/DaisySP//Source/Synthesis/oscillator.h ****     {
 1868              		.loc 8 67 17 view .LVU514
 1869              	.LBB618:
  69:../../libs/DaisySP//Source/Synthesis/oscillator.h ****         phase_inc_ = CalcPhaseInc(f);
 1870              		.loc 8 69 9 view .LVU515
  69:../../libs/DaisySP//Source/Synthesis/oscillator.h ****         phase_inc_ = CalcPhaseInc(f);
 1871              		.loc 8 69 20 is_stmt 0 view .LVU516
 1872 0506 86ED020A 		vstr.32	s0, [r6, #8]
  70:../../libs/DaisySP//Source/Synthesis/oscillator.h ****     }
 1873              		.loc 8 70 9 is_stmt 1 view .LVU517
  70:../../libs/DaisySP//Source/Synthesis/oscillator.h ****     }
 1874              		.loc 8 70 34 is_stmt 0 view .LVU518
 1875 050a FFF7FEFF 		bl	_ZN7daisysp10Oscillator12CalcPhaseIncEf
 1876              	.LVL154:
  70:../../libs/DaisySP//Source/Synthesis/oscillator.h ****     }
 1877              		.loc 8 70 34 view .LVU519
 1878              	.LBE618:
 1879              	.LBE622:
 217:main.cpp      ****     hw.PrintLine("Hai premuto il gate pluck (0) ");
 1880              		.loc 10 217 3 view .LVU520
 1881 050e 9BF80030 		ldrb	r3, [fp]	@ zero_extendqisi2
 1882              	.LBB623:
 1883              	.LBB619:
  70:../../libs/DaisySP//Source/Synthesis/oscillator.h ****     }
 1884              		.loc 8 70 20 view .LVU521
 1885 0512 86ED070A 		vstr.32	s0, [r6, #28]
 1886              	.LVL155:
  70:../../libs/DaisySP//Source/Synthesis/oscillator.h ****     }
 1887              		.loc 8 70 20 view .LVU522
 1888              	.LBE619:
 1889              	.LBE623:
 217:main.cpp      ****     hw.PrintLine("Hai premuto il gate pluck (0) ");
 1890              		.loc 10 217 3 is_stmt 1 view .LVU523
 1891 0516 002B     		cmp	r3, #0
 1892 0518 3FF47EAF 		beq	.L30
 218:main.cpp      ****     hw.PrintLine(" ed il suo valore  : ");
 1893              		.loc 10 218 5 view .LVU524
 1894              	.LVL156:
 1895              	.LBB624:
 1896              	.LBI624:
  23:../../libs/libDaisy/src/daisy_seed.h **** 
  24:../../libs/libDaisy/src/daisy_seed.h ****     /** This function used to provide a pre-initialization configuraiton 
  25:../../libs/libDaisy/src/daisy_seed.h ****      *  it has since been deprecated, and does nothing.
  26:../../libs/libDaisy/src/daisy_seed.h ****      */
  27:../../libs/libDaisy/src/daisy_seed.h ****     void Configure();
  28:../../libs/libDaisy/src/daisy_seed.h **** 
  29:../../libs/libDaisy/src/daisy_seed.h ****     /** 
  30:../../libs/libDaisy/src/daisy_seed.h ****     Initializes the Daisy Seed and the following peripherals:
  31:../../libs/libDaisy/src/daisy_seed.h ****     SDRAM, QSPI, 24-bit 48kHz Audio via AK4556, Internal USB,
  32:../../libs/libDaisy/src/daisy_seed.h ****     as well as the built-in LED and Testpoint.
  33:../../libs/libDaisy/src/daisy_seed.h **** 
  34:../../libs/libDaisy/src/daisy_seed.h ****     ADCs, DACs, and other special peripherals (such as I2C, SPI, etc.)
  35:../../libs/libDaisy/src/daisy_seed.h ****     can be initialized using their specific initializers within libdaisy
  36:../../libs/libDaisy/src/daisy_seed.h ****     for a specific application.
  37:../../libs/libDaisy/src/daisy_seed.h ****     */
ARM GAS  C:\Users\matte\AppData\Local\Temp\ccIv7HUw.s 			page 60


  38:../../libs/libDaisy/src/daisy_seed.h ****     void Init(bool boost = false);
  39:../../libs/libDaisy/src/daisy_seed.h **** 
  40:../../libs/libDaisy/src/daisy_seed.h ****     /** 
  41:../../libs/libDaisy/src/daisy_seed.h ****     Deinitializes all peripherals automatically handled by `Init`.
  42:../../libs/libDaisy/src/daisy_seed.h ****     */
  43:../../libs/libDaisy/src/daisy_seed.h ****     void DeInit();
  44:../../libs/libDaisy/src/daisy_seed.h **** 
  45:../../libs/libDaisy/src/daisy_seed.h ****     /** 
  46:../../libs/libDaisy/src/daisy_seed.h ****     Wait some ms before going on.
  47:../../libs/libDaisy/src/daisy_seed.h ****     \param del Delay time in ms.
  48:../../libs/libDaisy/src/daisy_seed.h ****     */
  49:../../libs/libDaisy/src/daisy_seed.h ****     void DelayMs(size_t del);
  50:../../libs/libDaisy/src/daisy_seed.h **** 
  51:../../libs/libDaisy/src/daisy_seed.h ****     /** 
  52:../../libs/libDaisy/src/daisy_seed.h ****     Returns the gpio_pin corresponding to the index 0-31.
  53:../../libs/libDaisy/src/daisy_seed.h ****     For the given GPIO on the Daisy Seed (labeled 1-32 in docs).
  54:../../libs/libDaisy/src/daisy_seed.h ****     */
  55:../../libs/libDaisy/src/daisy_seed.h ****     static Pin GetPin(uint8_t pin_idx);
  56:../../libs/libDaisy/src/daisy_seed.h **** 
  57:../../libs/libDaisy/src/daisy_seed.h ****     /** Begins the audio for the seeds builtin audio.
  58:../../libs/libDaisy/src/daisy_seed.h ****     the specified callback will get called whenever
  59:../../libs/libDaisy/src/daisy_seed.h ****     new data is ready to be prepared.
  60:../../libs/libDaisy/src/daisy_seed.h ****     */
  61:../../libs/libDaisy/src/daisy_seed.h ****     void StartAudio(AudioHandle::InterleavingAudioCallback cb);
  62:../../libs/libDaisy/src/daisy_seed.h **** 
  63:../../libs/libDaisy/src/daisy_seed.h ****     /** Begins the audio for the seeds builtin audio.
  64:../../libs/libDaisy/src/daisy_seed.h ****     the specified callback will get called whenever
  65:../../libs/libDaisy/src/daisy_seed.h ****     new data is ready to be prepared.
  66:../../libs/libDaisy/src/daisy_seed.h ****     This will use the newer non-interleaved callback.
  67:../../libs/libDaisy/src/daisy_seed.h ****     */
  68:../../libs/libDaisy/src/daisy_seed.h ****     void StartAudio(AudioHandle::AudioCallback cb);
  69:../../libs/libDaisy/src/daisy_seed.h **** 
  70:../../libs/libDaisy/src/daisy_seed.h ****     /** Changes to a new interleaved callback
  71:../../libs/libDaisy/src/daisy_seed.h ****      */
  72:../../libs/libDaisy/src/daisy_seed.h ****     void ChangeAudioCallback(AudioHandle::InterleavingAudioCallback cb);
  73:../../libs/libDaisy/src/daisy_seed.h **** 
  74:../../libs/libDaisy/src/daisy_seed.h ****     /** Changes to a new multichannel callback
  75:../../libs/libDaisy/src/daisy_seed.h ****      */
  76:../../libs/libDaisy/src/daisy_seed.h ****     void ChangeAudioCallback(AudioHandle::AudioCallback cb);
  77:../../libs/libDaisy/src/daisy_seed.h **** 
  78:../../libs/libDaisy/src/daisy_seed.h ****     /** Stops the audio if it is running. */
  79:../../libs/libDaisy/src/daisy_seed.h ****     void StopAudio();
  80:../../libs/libDaisy/src/daisy_seed.h **** 
  81:../../libs/libDaisy/src/daisy_seed.h ****     /** Updates the Audio Sample Rate, and reinitializes.
  82:../../libs/libDaisy/src/daisy_seed.h ****      ** Audio must be stopped for this to work.
  83:../../libs/libDaisy/src/daisy_seed.h ****      */
  84:../../libs/libDaisy/src/daisy_seed.h ****     void SetAudioSampleRate(SaiHandle::Config::SampleRate samplerate);
  85:../../libs/libDaisy/src/daisy_seed.h **** 
  86:../../libs/libDaisy/src/daisy_seed.h ****     /** Returns the audio sample rate in Hz as a floating point number.
  87:../../libs/libDaisy/src/daisy_seed.h ****      */
  88:../../libs/libDaisy/src/daisy_seed.h ****     float AudioSampleRate();
  89:../../libs/libDaisy/src/daisy_seed.h **** 
  90:../../libs/libDaisy/src/daisy_seed.h ****     /** Sets the number of samples processed per channel by the audio callback.
  91:../../libs/libDaisy/src/daisy_seed.h ****      */
  92:../../libs/libDaisy/src/daisy_seed.h ****     void SetAudioBlockSize(size_t blocksize);
  93:../../libs/libDaisy/src/daisy_seed.h **** 
  94:../../libs/libDaisy/src/daisy_seed.h ****     /** Returns the number of samples per channel in a block of audio. */
ARM GAS  C:\Users\matte\AppData\Local\Temp\ccIv7HUw.s 			page 61


  95:../../libs/libDaisy/src/daisy_seed.h ****     size_t AudioBlockSize();
  96:../../libs/libDaisy/src/daisy_seed.h **** 
  97:../../libs/libDaisy/src/daisy_seed.h ****     /** Returns the rate in Hz that the Audio callback is called */
  98:../../libs/libDaisy/src/daisy_seed.h ****     float AudioCallbackRate() const;
  99:../../libs/libDaisy/src/daisy_seed.h **** 
 100:../../libs/libDaisy/src/daisy_seed.h ****     /** Returns the SAI Handle for the Daisy Seed 
 101:../../libs/libDaisy/src/daisy_seed.h ****      *  This can be useful when adding a secondary codec,
 102:../../libs/libDaisy/src/daisy_seed.h ****      *  the result of this function can be passed to the audio reinit 
 103:../../libs/libDaisy/src/daisy_seed.h ****      *  with an SAI2 configuration
 104:../../libs/libDaisy/src/daisy_seed.h ****      */
 105:../../libs/libDaisy/src/daisy_seed.h ****     const SaiHandle& AudioSaiHandle() const;
 106:../../libs/libDaisy/src/daisy_seed.h **** 
 107:../../libs/libDaisy/src/daisy_seed.h ****     /** Sets the state of the built in LED
 108:../../libs/libDaisy/src/daisy_seed.h ****      */
 109:../../libs/libDaisy/src/daisy_seed.h ****     void SetLed(bool state);
 110:../../libs/libDaisy/src/daisy_seed.h **** 
 111:../../libs/libDaisy/src/daisy_seed.h ****     /** Sets the state of the test point near pin 10
 112:../../libs/libDaisy/src/daisy_seed.h ****      */
 113:../../libs/libDaisy/src/daisy_seed.h ****     void SetTestPoint(bool state);
 114:../../libs/libDaisy/src/daisy_seed.h **** 
 115:../../libs/libDaisy/src/daisy_seed.h ****     /** Print formatted debug log message
 116:../../libs/libDaisy/src/daisy_seed.h ****      */
 117:../../libs/libDaisy/src/daisy_seed.h ****     template <typename... VA>
 118:../../libs/libDaisy/src/daisy_seed.h ****     static void Print(const char* format, VA... va)
 119:../../libs/libDaisy/src/daisy_seed.h ****     {
 120:../../libs/libDaisy/src/daisy_seed.h ****         Log::Print(format, va...);
 121:../../libs/libDaisy/src/daisy_seed.h ****     }
 122:../../libs/libDaisy/src/daisy_seed.h **** 
 123:../../libs/libDaisy/src/daisy_seed.h ****     /** Print formatted debug log message with automatic line termination
 124:../../libs/libDaisy/src/daisy_seed.h ****     */
 125:../../libs/libDaisy/src/daisy_seed.h ****     template <typename... VA>
 126:../../libs/libDaisy/src/daisy_seed.h ****     static void PrintLine(const char* format, VA... va)
 1897              		.loc 1 126 17 view .LVU525
 1898              	.LBB625:
 127:../../libs/libDaisy/src/daisy_seed.h ****     {
 128:../../libs/libDaisy/src/daisy_seed.h ****         Log::PrintLine(format, va...);
 1899              		.loc 1 128 23 is_stmt 0 view .LVU526
 1900 051c 5848     		ldr	r0, .L56+44
 1901 051e FFF7FEFF 		bl	_ZN5daisy6LoggerILNS_17LoggerDestinationE1EE9PrintLineEPKcz
 1902              	.LVL157:
 1903              		.loc 1 128 23 view .LVU527
 1904              	.LBE625:
 1905              	.LBE624:
 219:main.cpp      ****     hw.PrintLine("%d", (int)value_pluck);
 1906              		.loc 10 219 5 is_stmt 1 view .LVU528
 1907              	.LBB626:
 1908              	.LBI626:
 126:../../libs/libDaisy/src/daisy_seed.h ****     {
 1909              		.loc 1 126 17 view .LVU529
 1910              	.LBB627:
 1911              		.loc 1 128 23 is_stmt 0 view .LVU530
 1912 0522 5848     		ldr	r0, .L56+48
 1913 0524 FFF7FEFF 		bl	_ZN5daisy6LoggerILNS_17LoggerDestinationE1EE9PrintLineEPKcz
 1914              	.LVL158:
 1915              		.loc 1 128 23 view .LVU531
 1916              	.LBE627:
 1917              	.LBE626:
ARM GAS  C:\Users\matte\AppData\Local\Temp\ccIv7HUw.s 			page 62


 220:main.cpp      ****     hw.PrintLine("Frequenza: ");
 1918              		.loc 10 220 5 is_stmt 1 view .LVU532
 1919              	.LBB628:
 1920              	.LBI628:
 126:../../libs/libDaisy/src/daisy_seed.h ****     {
 1921              		.loc 1 126 17 view .LVU533
 1922              	.LBB629:
 1923              		.loc 1 128 23 is_stmt 0 view .LVU534
 1924 0528 534B     		ldr	r3, .L56+36
 1925 052a 5748     		ldr	r0, .L56+52
 1926 052c 1988     		ldrh	r1, [r3]
 1927              	.LVL159:
 1928              		.loc 1 128 23 view .LVU535
 1929 052e FFF7FEFF 		bl	_ZN5daisy6LoggerILNS_17LoggerDestinationE1EE9PrintLineEPKcz
 1930              	.LVL160:
 1931              		.loc 1 128 23 view .LVU536
 1932              	.LBE629:
 1933              	.LBE628:
 221:main.cpp      ****     // hw.PrintLine("%f", now_f_pluck); // DA AGGIUNGERE FLAG NEL MAKEFILE
 1934              		.loc 10 221 5 is_stmt 1 view .LVU537
 1935              	.LBB630:
 1936              	.LBI630:
 126:../../libs/libDaisy/src/daisy_seed.h ****     {
 1937              		.loc 1 126 17 view .LVU538
 1938              	.LBB631:
 1939              		.loc 1 128 23 is_stmt 0 view .LVU539
 1940 0532 5648     		ldr	r0, .L56+56
 1941 0534 FFF7FEFF 		bl	_ZN5daisy6LoggerILNS_17LoggerDestinationE1EE9PrintLineEPKcz
 1942              	.LVL161:
 129:../../libs/libDaisy/src/daisy_seed.h ****     }
 1943              		.loc 1 129 5 view .LVU540
 1944 0538 6EE7     		b	.L30
 1945              	.LVL162:
 1946              	.L52:
 1947              		.loc 1 129 5 view .LVU541
 1948              	.LBE631:
 1949              	.LBE630:
 246:main.cpp      ****     value_bass = cap.FilteredData(2);
 1950              		.loc 10 246 5 is_stmt 1 view .LVU542
 246:main.cpp      ****     value_bass = cap.FilteredData(2);
 1951              		.loc 10 246 15 is_stmt 0 view .LVU543
 1952 053a 0123     		movs	r3, #1
 1953              	.LBB632:
 1954              	.LBB633:
 1955              	.LBB634:
 1956              	.LBB635:
 1957              	.LBB636:
 1958              	.LBB637:
  78:../../libs/libDaisy/src/dev/mpr121.h ****                    config_.dev_addr, 
 1959              		.loc 9 78 31 view .LVU544
 1960 053c 0822     		movs	r2, #8
 1961 053e 0095     		str	r5, [sp]
 1962 0540 4948     		ldr	r0, .L56+20
 1963              	.LBE637:
 1964              	.LBE636:
 1965              	.LBE635:
 1966              	.LBE634:
ARM GAS  C:\Users\matte\AppData\Local\Temp\ccIv7HUw.s 			page 63


 1967              	.LBE633:
 1968              	.LBE632:
 246:main.cpp      ****     value_bass = cap.FilteredData(2);
 1969              		.loc 10 246 15 view .LVU545
 1970 0542 88F80030 		strb	r3, [r8]
 247:main.cpp      ****     now_f_bass = p_bass.discFreq(value_bass);
 1971              		.loc 10 247 5 is_stmt 1 view .LVU546
 1972              	.LVL163:
 1973              	.LBB652:
 1974              	.LBI632:
 205:../../libs/libDaisy/src/dev/mpr121.h ****     {
 1975              		.loc 9 205 14 view .LVU547
 1976              	.LBB650:
 1977              	.LBI633:
 205:../../libs/libDaisy/src/dev/mpr121.h ****     {
 1978              		.loc 9 205 14 view .LVU548
 1979              	.LBB648:
 1980              	.LBI634:
 248:../../libs/libDaisy/src/dev/mpr121.h ****     {
 1981              		.loc 9 248 14 view .LVU549
 1982              	.LBB646:
 1983              	.LBB639:
 1984              	.LBI636:
  75:../../libs/libDaisy/src/dev/mpr121.h ****     {
 1985              		.loc 9 75 10 view .LVU550
 1986              	.LBB638:
  77:../../libs/libDaisy/src/dev/mpr121.h ****               != i2c_.Mem_read(
 1987              		.loc 9 77 8 view .LVU551
  78:../../libs/libDaisy/src/dev/mpr121.h ****                    config_.dev_addr, 
 1988              		.loc 9 78 31 is_stmt 0 view .LVU552
 1989 0546 CDE90167 		strd	r6, r7, [sp, #4]
 1990 054a 94F82C10 		ldrb	r1, [r4, #44]	@ zero_extendqisi2
 1991 054e FFF7FEFF 		bl	_ZN5daisy9I2CHandle8Mem_readEtttPhtm
 1992              	.LVL164:
  78:../../libs/libDaisy/src/dev/mpr121.h ****                    config_.dev_addr, 
 1993              		.loc 9 78 31 view .LVU553
 1994              	.LBE638:
 1995              	.LBE639:
 1996              	.LBB640:
 1997              	.LBI640:
 1998              		.loc 9 347 10 is_stmt 1 view .LVU554
 1999              	.LBB641:
 2000              		.loc 9 347 55 is_stmt 0 view .LVU555
 2001 0552 94F83030 		ldrb	r3, [r4, #48]	@ zero_extendqisi2
 2002              	.LBE641:
 2003              	.LBE640:
 254:../../libs/libDaisy/src/dev/mpr121.h ****     }
 2004              		.loc 9 254 16 view .LVU556
 2005 0556 BDF81610 		ldrh	r1, [sp, #22]
 2006              	.LBB644:
 2007              	.LBB642:
 2008              		.loc 9 347 55 view .LVU557
 2009 055a 0028     		cmp	r0, #0
 2010 055c 18BF     		it	ne
 2011 055e 43F00103 		orrne	r3, r3, #1
 2012              	.LBE642:
 2013              	.LBE644:
ARM GAS  C:\Users\matte\AppData\Local\Temp\ccIv7HUw.s 			page 64


 2014              	.LBE646:
 2015              	.LBE648:
 2016              	.LBE650:
 2017              	.LBE652:
 248:main.cpp      ****     bass.SetFreq(now_f_bass); // Set frequency for bass
 2018              		.loc 10 248 33 view .LVU558
 2019 0562 4B48     		ldr	r0, .L56+60
 2020              	.LVL165:
 247:main.cpp      ****     now_f_bass = p_bass.discFreq(value_bass);
 2021              		.loc 10 247 16 view .LVU559
 2022 0564 AAF80010 		strh	r1, [r10]	@ movhi
 2023              	.LBB653:
 2024              	.LBB651:
 2025              	.LBB649:
 2026              	.LBB647:
 2027              	.LBB645:
 2028              	.LBB643:
 2029              		.loc 9 347 55 view .LVU560
 2030 0568 84F83030 		strb	r3, [r4, #48]
 2031              	.LVL166:
 2032              		.loc 9 347 55 view .LVU561
 2033              	.LBE643:
 2034              	.LBE645:
 2035              	.LBE647:
 2036              	.LBE649:
 2037              	.LBE651:
 2038              	.LBE653:
 248:main.cpp      ****     bass.SetFreq(now_f_bass); // Set frequency for bass
 2039              		.loc 10 248 5 is_stmt 1 view .LVU562
 248:main.cpp      ****     bass.SetFreq(now_f_bass); // Set frequency for bass
 2040              		.loc 10 248 33 is_stmt 0 view .LVU563
 2041 056c FFF7FEFF 		bl	_ZN11pentaPianta8discFreqEt
 2042              	.LVL167:
 248:main.cpp      ****     bass.SetFreq(now_f_bass); // Set frequency for bass
 2043              		.loc 10 248 16 view .LVU564
 2044 0570 07EE900A 		vmov	s15, r0	@ int
 2045 0574 474B     		ldr	r3, .L56+64
 2046              	.LBB654:
 2047              	.LBB655:
  70:../../libs/DaisySP//Source/Synthesis/oscillator.h ****     }
 2048              		.loc 8 70 34 view .LVU565
 2049 0576 4848     		ldr	r0, .L56+68
 2050              	.LBE655:
 2051              	.LBE654:
 248:main.cpp      ****     bass.SetFreq(now_f_bass); // Set frequency for bass
 2052              		.loc 10 248 16 view .LVU566
 2053 0578 B8EE670A 		vcvt.f32.u32	s0, s15
 2054 057c 83ED000A 		vstr.32	s0, [r3]
 249:main.cpp      ****   } else {
 2055              		.loc 10 249 5 is_stmt 1 view .LVU567
 2056              	.LVL168:
 2057              	.LBB658:
 2058              	.LBI654:
  67:../../libs/DaisySP//Source/Synthesis/oscillator.h ****     {
 2059              		.loc 8 67 17 view .LVU568
 2060              	.LBB656:
  69:../../libs/DaisySP//Source/Synthesis/oscillator.h ****         phase_inc_ = CalcPhaseInc(f);
ARM GAS  C:\Users\matte\AppData\Local\Temp\ccIv7HUw.s 			page 65


 2061              		.loc 8 69 9 view .LVU569
  69:../../libs/DaisySP//Source/Synthesis/oscillator.h ****         phase_inc_ = CalcPhaseInc(f);
 2062              		.loc 8 69 20 is_stmt 0 view .LVU570
 2063 0580 89ED020A 		vstr.32	s0, [r9, #8]
  70:../../libs/DaisySP//Source/Synthesis/oscillator.h ****     }
 2064              		.loc 8 70 9 is_stmt 1 view .LVU571
  70:../../libs/DaisySP//Source/Synthesis/oscillator.h ****     }
 2065              		.loc 8 70 34 is_stmt 0 view .LVU572
 2066 0584 FFF7FEFF 		bl	_ZN7daisysp10Oscillator12CalcPhaseIncEf
 2067              	.LVL169:
  70:../../libs/DaisySP//Source/Synthesis/oscillator.h ****     }
 2068              		.loc 8 70 34 view .LVU573
 2069              	.LBE656:
 2070              	.LBE658:
 256:main.cpp      ****     hw.PrintLine("Hai premuto il gate bass (2) ");
 2071              		.loc 10 256 3 view .LVU574
 2072 0588 98F80030 		ldrb	r3, [r8]	@ zero_extendqisi2
 2073              	.LBB659:
 2074              	.LBB657:
  70:../../libs/DaisySP//Source/Synthesis/oscillator.h ****     }
 2075              		.loc 8 70 20 view .LVU575
 2076 058c 89ED070A 		vstr.32	s0, [r9, #28]
 2077              	.LVL170:
  70:../../libs/DaisySP//Source/Synthesis/oscillator.h ****     }
 2078              		.loc 8 70 20 view .LVU576
 2079              	.LBE657:
 2080              	.LBE659:
 256:main.cpp      ****     hw.PrintLine("Hai premuto il gate bass (2) ");
 2081              		.loc 10 256 3 is_stmt 1 view .LVU577
 2082 0590 002B     		cmp	r3, #0
 2083 0592 3FF477AF 		beq	.L36
 257:main.cpp      ****     hw.PrintLine(" ed il suo valore  : ");
 2084              		.loc 10 257 5 view .LVU578
 2085              	.LVL171:
 2086              	.LBB660:
 2087              	.LBI660:
 126:../../libs/libDaisy/src/daisy_seed.h ****     {
 2088              		.loc 1 126 17 view .LVU579
 2089              	.LBB661:
 128:../../libs/libDaisy/src/daisy_seed.h ****     }
 2090              		.loc 1 128 23 is_stmt 0 view .LVU580
 2091 0596 4148     		ldr	r0, .L56+72
 2092 0598 FFF7FEFF 		bl	_ZN5daisy6LoggerILNS_17LoggerDestinationE1EE9PrintLineEPKcz
 2093              	.LVL172:
 128:../../libs/libDaisy/src/daisy_seed.h ****     }
 2094              		.loc 1 128 23 view .LVU581
 2095              	.LBE661:
 2096              	.LBE660:
 258:main.cpp      ****     hw.PrintLine("%d", (int)value_bass);
 2097              		.loc 10 258 5 is_stmt 1 view .LVU582
 2098              	.LBB662:
 2099              	.LBI662:
 126:../../libs/libDaisy/src/daisy_seed.h ****     {
 2100              		.loc 1 126 17 view .LVU583
 2101              	.LBB663:
 128:../../libs/libDaisy/src/daisy_seed.h ****     }
 2102              		.loc 1 128 23 is_stmt 0 view .LVU584
ARM GAS  C:\Users\matte\AppData\Local\Temp\ccIv7HUw.s 			page 66


 2103 059c 3948     		ldr	r0, .L56+48
 2104 059e FFF7FEFF 		bl	_ZN5daisy6LoggerILNS_17LoggerDestinationE1EE9PrintLineEPKcz
 2105              	.LVL173:
 128:../../libs/libDaisy/src/daisy_seed.h ****     }
 2106              		.loc 1 128 23 view .LVU585
 2107              	.LBE663:
 2108              	.LBE662:
 259:main.cpp      ****     hw.PrintLine("Frequenza: ");
 2109              		.loc 10 259 5 is_stmt 1 view .LVU586
 2110              	.LBB664:
 2111              	.LBI664:
 126:../../libs/libDaisy/src/daisy_seed.h ****     {
 2112              		.loc 1 126 17 view .LVU587
 2113              	.LBB665:
 128:../../libs/libDaisy/src/daisy_seed.h ****     }
 2114              		.loc 1 128 23 is_stmt 0 view .LVU588
 2115 05a2 3948     		ldr	r0, .L56+52
 2116 05a4 BAF80010 		ldrh	r1, [r10]
 2117              	.LVL174:
 128:../../libs/libDaisy/src/daisy_seed.h ****     }
 2118              		.loc 1 128 23 view .LVU589
 2119 05a8 FFF7FEFF 		bl	_ZN5daisy6LoggerILNS_17LoggerDestinationE1EE9PrintLineEPKcz
 2120              	.LVL175:
 128:../../libs/libDaisy/src/daisy_seed.h ****     }
 2121              		.loc 1 128 23 view .LVU590
 2122              	.LBE665:
 2123              	.LBE664:
 260:main.cpp      ****     // hw.PrintLine("%f", now_f_bass); // DA AGGIUNGERE FLAG NEL MAKEFILE
 2124              		.loc 10 260 5 is_stmt 1 view .LVU591
 2125              	.LBB666:
 2126              	.LBI666:
 126:../../libs/libDaisy/src/daisy_seed.h ****     {
 2127              		.loc 1 126 17 view .LVU592
 2128              	.LBB667:
 128:../../libs/libDaisy/src/daisy_seed.h ****     }
 2129              		.loc 1 128 23 is_stmt 0 view .LVU593
 2130 05ac 3748     		ldr	r0, .L56+56
 2131 05ae FFF7FEFF 		bl	_ZN5daisy6LoggerILNS_17LoggerDestinationE1EE9PrintLineEPKcz
 2132              	.LVL176:
 2133              		.loc 1 129 5 view .LVU594
 2134 05b2 67E7     		b	.L36
 2135              	.LVL177:
 2136              	.L51:
 2137              		.loc 1 129 5 view .LVU595
 2138              	.LBE667:
 2139              	.LBE666:
 227:main.cpp      ****     value_pad =cap.FilteredData(1);
 2140              		.loc 10 227 5 is_stmt 1 view .LVU596
 2141              	.LBB668:
 2142              	.LBB669:
 2143              	.LBB670:
 2144              	.LBB671:
 2145              	.LBB672:
 2146              	.LBB673:
  78:../../libs/libDaisy/src/dev/mpr121.h ****                    config_.dev_addr, 
 2147              		.loc 9 78 31 is_stmt 0 view .LVU597
 2148 05b4 CDE90167 		strd	r6, r7, [sp, #4]
ARM GAS  C:\Users\matte\AppData\Local\Temp\ccIv7HUw.s 			page 67


 2149              	.LBE673:
 2150              	.LBE672:
 2151              	.LBE671:
 2152              	.LBE670:
 2153              	.LBE669:
 2154              	.LBE668:
 227:main.cpp      ****     value_pad =cap.FilteredData(1);
 2155              		.loc 10 227 14 view .LVU598
 2156 05b8 0123     		movs	r3, #1
 2157 05ba 2C4E     		ldr	r6, .L56+24
 2158              	.LBB693:
 2159              	.LBB690:
 2160              	.LBB687:
 2161              	.LBB684:
 2162              	.LBB676:
 2163              	.LBB674:
  78:../../libs/libDaisy/src/dev/mpr121.h ****                    config_.dev_addr, 
 2164              		.loc 9 78 31 view .LVU599
 2165 05bc 0622     		movs	r2, #6
 2166 05be 0095     		str	r5, [sp]
 2167 05c0 2948     		ldr	r0, .L56+20
 2168 05c2 94F82C10 		ldrb	r1, [r4, #44]	@ zero_extendqisi2
 2169              	.LBE674:
 2170              	.LBE676:
 2171              	.LBE684:
 2172              	.LBE687:
 2173              	.LBE690:
 2174              	.LBE693:
 227:main.cpp      ****     value_pad =cap.FilteredData(1);
 2175              		.loc 10 227 14 view .LVU600
 2176 05c6 3370     		strb	r3, [r6]
 228:main.cpp      ****     now_f_pad = p_pad.discFreq(value_pad);
 2177              		.loc 10 228 5 is_stmt 1 view .LVU601
 2178              	.LVL178:
 2179              	.LBB694:
 2180              	.LBI668:
 205:../../libs/libDaisy/src/dev/mpr121.h ****     {
 2181              		.loc 9 205 14 view .LVU602
 2182              	.LBB691:
 2183              	.LBI669:
 205:../../libs/libDaisy/src/dev/mpr121.h ****     {
 2184              		.loc 9 205 14 view .LVU603
 2185              	.LBB688:
 2186              	.LBI670:
 248:../../libs/libDaisy/src/dev/mpr121.h ****     {
 2187              		.loc 9 248 14 view .LVU604
 2188              	.LBB685:
 2189              	.LBB677:
 2190              	.LBI672:
  75:../../libs/libDaisy/src/dev/mpr121.h ****     {
 2191              		.loc 9 75 10 view .LVU605
 2192              	.LBB675:
  77:../../libs/libDaisy/src/dev/mpr121.h ****               != i2c_.Mem_read(
 2193              		.loc 9 77 8 view .LVU606
  78:../../libs/libDaisy/src/dev/mpr121.h ****                    config_.dev_addr, 
 2194              		.loc 9 78 31 is_stmt 0 view .LVU607
 2195 05c8 FFF7FEFF 		bl	_ZN5daisy9I2CHandle8Mem_readEtttPhtm
ARM GAS  C:\Users\matte\AppData\Local\Temp\ccIv7HUw.s 			page 68


 2196              	.LVL179:
  78:../../libs/libDaisy/src/dev/mpr121.h ****                    config_.dev_addr, 
 2197              		.loc 9 78 31 view .LVU608
 2198              	.LBE675:
 2199              	.LBE677:
 2200              	.LBB678:
 2201              	.LBI678:
 2202              		.loc 9 347 10 is_stmt 1 view .LVU609
 2203              	.LBB679:
 2204              		.loc 9 347 55 is_stmt 0 view .LVU610
 2205 05cc 94F83030 		ldrb	r3, [r4, #48]	@ zero_extendqisi2
 2206              	.LBE679:
 2207              	.LBE678:
 254:../../libs/libDaisy/src/dev/mpr121.h ****     }
 2208              		.loc 9 254 16 view .LVU611
 2209 05d0 BDF81610 		ldrh	r1, [sp, #22]
 2210              	.LBB682:
 2211              	.LBB680:
 2212              		.loc 9 347 55 view .LVU612
 2213 05d4 0028     		cmp	r0, #0
 2214 05d6 18BF     		it	ne
 2215 05d8 43F00103 		orrne	r3, r3, #1
 2216              	.LBE680:
 2217              	.LBE682:
 2218              	.LBE685:
 2219              	.LBE688:
 2220              	.LBE691:
 2221              	.LBE694:
 229:main.cpp      ****     pad.SetFreq(now_f_pad); 
 2222              		.loc 10 229 31 view .LVU613
 2223 05dc 3048     		ldr	r0, .L56+76
 2224              	.LVL180:
 2225              	.LBB695:
 2226              	.LBB696:
  69:../../libs/DaisySP//Source/Synthesis/oscillator.h ****         phase_inc_ = CalcPhaseInc(f);
 2227              		.loc 8 69 20 view .LVU614
 2228 05de 314F     		ldr	r7, .L56+80
 2229              	.LBE696:
 2230              	.LBE695:
 2231              	.LBB700:
 2232              	.LBB692:
 2233              	.LBB689:
 2234              	.LBB686:
 2235              	.LBB683:
 2236              	.LBB681:
 2237              		.loc 9 347 55 view .LVU615
 2238 05e0 84F83030 		strb	r3, [r4, #48]
 2239              	.LVL181:
 2240              		.loc 9 347 55 view .LVU616
 2241              	.LBE681:
 2242              	.LBE683:
 2243              	.LBE686:
 2244              	.LBE689:
 2245              	.LBE692:
 2246              	.LBE700:
 228:main.cpp      ****     now_f_pad = p_pad.discFreq(value_pad);
 2247              		.loc 10 228 15 view .LVU617
ARM GAS  C:\Users\matte\AppData\Local\Temp\ccIv7HUw.s 			page 69


 2248 05e4 304B     		ldr	r3, .L56+84
 2249 05e6 1980     		strh	r1, [r3]	@ movhi
 229:main.cpp      ****     pad.SetFreq(now_f_pad); 
 2250              		.loc 10 229 5 is_stmt 1 view .LVU618
 229:main.cpp      ****     pad.SetFreq(now_f_pad); 
 2251              		.loc 10 229 31 is_stmt 0 view .LVU619
 2252 05e8 FFF7FEFF 		bl	_ZN11pentaPianta8discFreqEt
 2253              	.LVL182:
 229:main.cpp      ****     pad.SetFreq(now_f_pad); 
 2254              		.loc 10 229 15 view .LVU620
 2255 05ec 07EE900A 		vmov	s15, r0	@ int
 2256 05f0 2E4B     		ldr	r3, .L56+88
 2257              	.LBB701:
 2258              	.LBB697:
  70:../../libs/DaisySP//Source/Synthesis/oscillator.h ****     }
 2259              		.loc 8 70 34 view .LVU621
 2260 05f2 3846     		mov	r0, r7
 2261              	.LBE697:
 2262              	.LBE701:
 229:main.cpp      ****     pad.SetFreq(now_f_pad); 
 2263              		.loc 10 229 15 view .LVU622
 2264 05f4 B8EE670A 		vcvt.f32.u32	s0, s15
 2265 05f8 83ED000A 		vstr.32	s0, [r3]
 230:main.cpp      ****   }
 2266              		.loc 10 230 5 is_stmt 1 view .LVU623
 2267              	.LVL183:
 2268              	.LBB702:
 2269              	.LBI695:
  67:../../libs/DaisySP//Source/Synthesis/oscillator.h ****     {
 2270              		.loc 8 67 17 view .LVU624
 2271              	.LBB698:
  69:../../libs/DaisySP//Source/Synthesis/oscillator.h ****         phase_inc_ = CalcPhaseInc(f);
 2272              		.loc 8 69 9 view .LVU625
  69:../../libs/DaisySP//Source/Synthesis/oscillator.h ****         phase_inc_ = CalcPhaseInc(f);
 2273              		.loc 8 69 20 is_stmt 0 view .LVU626
 2274 05fc 87ED020A 		vstr.32	s0, [r7, #8]
  70:../../libs/DaisySP//Source/Synthesis/oscillator.h ****     }
 2275              		.loc 8 70 9 is_stmt 1 view .LVU627
  70:../../libs/DaisySP//Source/Synthesis/oscillator.h ****     }
 2276              		.loc 8 70 34 is_stmt 0 view .LVU628
 2277 0600 FFF7FEFF 		bl	_ZN7daisysp10Oscillator12CalcPhaseIncEf
 2278              	.LVL184:
  70:../../libs/DaisySP//Source/Synthesis/oscillator.h ****     }
 2279              		.loc 8 70 34 view .LVU629
 2280              	.LBE698:
 2281              	.LBE702:
 236:main.cpp      ****     hw.PrintLine("Hai premuto il gate pad (1) ");
 2282              		.loc 10 236 3 view .LVU630
 2283 0604 3378     		ldrb	r3, [r6]	@ zero_extendqisi2
 2284              	.LBB703:
 2285              	.LBB699:
  70:../../libs/DaisySP//Source/Synthesis/oscillator.h ****     }
 2286              		.loc 8 70 20 view .LVU631
 2287 0606 87ED070A 		vstr.32	s0, [r7, #28]
 2288              	.LVL185:
  70:../../libs/DaisySP//Source/Synthesis/oscillator.h ****     }
 2289              		.loc 8 70 20 view .LVU632
ARM GAS  C:\Users\matte\AppData\Local\Temp\ccIv7HUw.s 			page 70


 2290              	.LBE699:
 2291              	.LBE703:
 236:main.cpp      ****     hw.PrintLine("Hai premuto il gate pad (1) ");
 2292              		.loc 10 236 3 is_stmt 1 view .LVU633
 2293 060a 002B     		cmp	r3, #0
 2294 060c 3FF41FAF 		beq	.L33
 237:main.cpp      ****     hw.PrintLine(" ed il suo valore  : ");
 2295              		.loc 10 237 5 view .LVU634
 2296              	.LVL186:
 2297              	.LBB704:
 2298              	.LBI704:
 126:../../libs/libDaisy/src/daisy_seed.h ****     {
 2299              		.loc 1 126 17 view .LVU635
 2300              	.LBB705:
 128:../../libs/libDaisy/src/daisy_seed.h ****     }
 2301              		.loc 1 128 23 is_stmt 0 view .LVU636
 2302 0610 2748     		ldr	r0, .L56+92
 2303 0612 FFF7FEFF 		bl	_ZN5daisy6LoggerILNS_17LoggerDestinationE1EE9PrintLineEPKcz
 2304              	.LVL187:
 128:../../libs/libDaisy/src/daisy_seed.h ****     }
 2305              		.loc 1 128 23 view .LVU637
 2306              	.LBE705:
 2307              	.LBE704:
 238:main.cpp      ****     hw.PrintLine("%d", (int)value_pad);
 2308              		.loc 10 238 5 is_stmt 1 view .LVU638
 2309              	.LBB706:
 2310              	.LBI706:
 126:../../libs/libDaisy/src/daisy_seed.h ****     {
 2311              		.loc 1 126 17 view .LVU639
 2312              	.LBB707:
 128:../../libs/libDaisy/src/daisy_seed.h ****     }
 2313              		.loc 1 128 23 is_stmt 0 view .LVU640
 2314 0616 1B48     		ldr	r0, .L56+48
 2315 0618 FFF7FEFF 		bl	_ZN5daisy6LoggerILNS_17LoggerDestinationE1EE9PrintLineEPKcz
 2316              	.LVL188:
 128:../../libs/libDaisy/src/daisy_seed.h ****     }
 2317              		.loc 1 128 23 view .LVU641
 2318              	.LBE707:
 2319              	.LBE706:
 239:main.cpp      ****     hw.PrintLine("Frequenza: ");
 2320              		.loc 10 239 5 is_stmt 1 view .LVU642
 2321              	.LBB708:
 2322              	.LBI708:
 126:../../libs/libDaisy/src/daisy_seed.h ****     {
 2323              		.loc 1 126 17 view .LVU643
 2324              	.LBB709:
 128:../../libs/libDaisy/src/daisy_seed.h ****     }
 2325              		.loc 1 128 23 is_stmt 0 view .LVU644
 2326 061c 224B     		ldr	r3, .L56+84
 2327 061e 1A48     		ldr	r0, .L56+52
 2328 0620 1988     		ldrh	r1, [r3]
 2329              	.LVL189:
 128:../../libs/libDaisy/src/daisy_seed.h ****     }
 2330              		.loc 1 128 23 view .LVU645
 2331 0622 FFF7FEFF 		bl	_ZN5daisy6LoggerILNS_17LoggerDestinationE1EE9PrintLineEPKcz
 2332              	.LVL190:
 128:../../libs/libDaisy/src/daisy_seed.h ****     }
ARM GAS  C:\Users\matte\AppData\Local\Temp\ccIv7HUw.s 			page 71


 2333              		.loc 1 128 23 view .LVU646
 2334              	.LBE709:
 2335              	.LBE708:
 240:main.cpp      ****     // hw.PrintLine("%f", now_f_pad); // DA AGGIUNGERE FLAG NEL MAKEFILE
 2336              		.loc 10 240 5 is_stmt 1 view .LVU647
 2337              	.LBB710:
 2338              	.LBI710:
 126:../../libs/libDaisy/src/daisy_seed.h ****     {
 2339              		.loc 1 126 17 view .LVU648
 2340              	.LBB711:
 128:../../libs/libDaisy/src/daisy_seed.h ****     }
 2341              		.loc 1 128 23 is_stmt 0 view .LVU649
 2342 0626 1948     		ldr	r0, .L56+56
 2343 0628 FFF7FEFF 		bl	_ZN5daisy6LoggerILNS_17LoggerDestinationE1EE9PrintLineEPKcz
 2344              	.LVL191:
 2345              		.loc 1 129 5 view .LVU650
 2346 062c 0FE7     		b	.L33
 2347              	.LVL192:
 2348              	.L38:
 2349              		.loc 1 129 5 view .LVU651
 2350              	.LBE711:
 2351              	.LBE710:
 2352              	.LBB712:
 2353              	.LBB499:
  76:../../libs/DaisySP/Source/Control/adsr.h ****                                        : (sus_level > 1.f) ? 1.f : sus_level;
 2354              		.loc 7 76 40 view .LVU652
 2355 062e DFED217A 		vldr.32	s15, .L56+96
 2356              	.LVL193:
  76:../../libs/DaisySP/Source/Control/adsr.h ****                                        : (sus_level > 1.f) ? 1.f : sus_level;
 2357              		.loc 7 76 40 view .LVU653
 2358 0632 32E5     		b	.L22
 2359              	.LVL194:
 2360              	.L48:
  76:../../libs/DaisySP/Source/Control/adsr.h ****                                        : (sus_level > 1.f) ? 1.f : sus_level;
 2361              		.loc 7 76 40 view .LVU654
 2362              	.LBE499:
 2363              	.LBE712:
 2364              	.LBB713:
 2365              	.LBB568:
 2366 0634 DFED1F7A 		vldr.32	s15, .L56+96
 2367              	.LVL195:
  76:../../libs/DaisySP/Source/Control/adsr.h ****                                        : (sus_level > 1.f) ? 1.f : sus_level;
 2368              		.loc 7 76 40 view .LVU655
 2369 0638 65E6     		b	.L27
 2370              	.LVL196:
 2371              	.L46:
  76:../../libs/DaisySP/Source/Control/adsr.h ****                                        : (sus_level > 1.f) ? 1.f : sus_level;
 2372              		.loc 7 76 40 view .LVU656
 2373              	.LBE568:
 2374              	.LBE713:
 2375              	.LBB714:
 2376              	.LBB563:
 2377 063a DFED1E7A 		vldr.32	s15, .L56+96
 2378              	.LVL197:
  76:../../libs/DaisySP/Source/Control/adsr.h ****                                        : (sus_level > 1.f) ? 1.f : sus_level;
 2379              		.loc 7 76 40 view .LVU657
 2380 063e 37E6     		b	.L26
ARM GAS  C:\Users\matte\AppData\Local\Temp\ccIv7HUw.s 			page 72


 2381              	.LVL198:
 2382              	.L44:
  76:../../libs/DaisySP/Source/Control/adsr.h ****                                        : (sus_level > 1.f) ? 1.f : sus_level;
 2383              		.loc 7 76 40 view .LVU658
 2384              	.LBE563:
 2385              	.LBE714:
 2386              	.LBB715:
 2387              	.LBB542:
 2388 0640 DFED1C7A 		vldr.32	s15, .L56+96
 2389              	.LVL199:
  76:../../libs/DaisySP/Source/Control/adsr.h ****                                        : (sus_level > 1.f) ? 1.f : sus_level;
 2390              		.loc 7 76 40 view .LVU659
 2391 0644 DEE5     		b	.L25
 2392              	.LVL200:
 2393              	.L42:
  76:../../libs/DaisySP/Source/Control/adsr.h ****                                        : (sus_level > 1.f) ? 1.f : sus_level;
 2394              		.loc 7 76 40 view .LVU660
 2395              	.LBE542:
 2396              	.LBE715:
 2397              	.LBB716:
 2398              	.LBB537:
 2399 0646 DFED1B7A 		vldr.32	s15, .L56+96
 2400              	.LVL201:
  76:../../libs/DaisySP/Source/Control/adsr.h ****                                        : (sus_level > 1.f) ? 1.f : sus_level;
 2401              		.loc 7 76 40 view .LVU661
 2402 064a B0E5     		b	.L24
 2403              	.LVL202:
 2404              	.L40:
  76:../../libs/DaisySP/Source/Control/adsr.h ****                                        : (sus_level > 1.f) ? 1.f : sus_level;
 2405              		.loc 7 76 40 view .LVU662
 2406              	.LBE537:
 2407              	.LBE716:
 2408              	.LBB717:
 2409              	.LBB504:
 2410 064c DFED197A 		vldr.32	s15, .L56+96
 2411              	.LVL203:
  76:../../libs/DaisySP/Source/Control/adsr.h ****                                        : (sus_level > 1.f) ? 1.f : sus_level;
 2412              		.loc 7 76 40 view .LVU663
 2413 0650 4EE5     		b	.L23
 2414              	.L57:
 2415 0652 00BF     		.align	2
 2416              	.L56:
 2417 0654 00000000 		.word	.LANCHOR44
 2418 0658 00000000 		.word	Delay
 2419 065c 00000000 		.word	_ZL13AudioCallbackPKfPfj
 2420 0660 00000000 		.word	.LANCHOR25
 2421 0664 00000000 		.word	.LANCHOR45
 2422 0668 18000000 		.word	.LANCHOR45+24
 2423 066c 00000000 		.word	.LANCHOR5
 2424 0670 00000000 		.word	.LANCHOR47
 2425 0674 00000000 		.word	.LANCHOR12
 2426 0678 00000000 		.word	.LANCHOR46
 2427 067c 00000000 		.word	.LANCHOR0
 2428 0680 00000000 		.word	.LC0
 2429 0684 20000000 		.word	.LC1
 2430 0688 38000000 		.word	.LC2
 2431 068c 3C000000 		.word	.LC3
ARM GAS  C:\Users\matte\AppData\Local\Temp\ccIv7HUw.s 			page 73


 2432 0690 00000000 		.word	.LANCHOR52
 2433 0694 00000000 		.word	.LANCHOR53
 2434 0698 00000000 		.word	.LANCHOR14
 2435 069c 68000000 		.word	.LC5
 2436 06a0 00000000 		.word	.LANCHOR49
 2437 06a4 00000000 		.word	.LANCHOR13
 2438 06a8 00000000 		.word	.LANCHOR48
 2439 06ac 00000000 		.word	.LANCHOR50
 2440 06b0 48000000 		.word	.LC4
 2441 06b4 0AD723BC 		.word	-1138501878
 2442 06b8 00000000 		.word	.LANCHOR3
 2443 06bc 00000000 		.word	.LANCHOR7
 2444 06c0 00000000 		.word	.LANCHOR51
 2445              	.LBE504:
 2446              	.LBE717:
 2447              		.cfi_endproc
 2448              	.LFE4819:
 2450              		.section	.text.startup._GLOBAL__sub_I_f_pluck,"ax",%progbits
 2451              		.align	1
 2452              		.p2align 2,,3
 2453              		.syntax unified
 2454              		.thumb
 2455              		.thumb_func
 2456              		.fpu fpv5-d16
 2458              	_GLOBAL__sub_I_f_pluck:
 2459              	.LFB5397:
 266:main.cpp      ****   }
 267:main.cpp      **** }...
 2460              		.loc 10 267 1 is_stmt 1 view -0
 2461              		.cfi_startproc
 2462              		@ args = 0, pretend = 0, frame = 0
 2463              		@ frame_needed = 0, uses_anonymous_args = 0
 2464              	.LBB838:
 2465              	.LBI838:
 2466              		.loc 10 267 1 view .LVU665
 2467              	.LVL204:
 2468              	.LBB839:
 2469              	.LBB840:
 2470              	.LBI840:
 100:../../libs/libDaisy/src/dev/mpr121.h ****     ~Mpr121() {}
 2471              		.loc 9 100 5 view .LVU666
 2472              	.LBB841:
 2473              	.LBB842:
 2474              	.LBI842:
 109:../../libs/libDaisy/src/dev/mpr121.h ****         {
 2475              		.loc 9 109 9 view .LVU667
 2476              	.LBB843:
 2477              	.LBB844:
 2478              	.LBI844:
  34:../../libs/libDaisy/src/dev/mpr121.h ****         {
 2479              		.loc 9 34 9 view .LVU668
 2480              	.LBB845:
 2481              	.LBB846:
 2482              	.LBB847:
 2483              	.LBI847:
 2484              		.file 12 "../../libs/libDaisy/src/daisy_core.h"
   1:../../libs/libDaisy/src/daisy_core.h **** #pragma once
ARM GAS  C:\Users\matte\AppData\Local\Temp\ccIv7HUw.s 			page 74


   2:../../libs/libDaisy/src/daisy_core.h **** #ifndef DSY_CORE_HW_H
   3:../../libs/libDaisy/src/daisy_core.h **** #define DSY_CORE_HW_H /**< & */
   4:../../libs/libDaisy/src/daisy_core.h **** #include <stdint.h>
   5:../../libs/libDaisy/src/daisy_core.h **** #include <stdlib.h>
   6:../../libs/libDaisy/src/daisy_core.h **** 
   7:../../libs/libDaisy/src/daisy_core.h **** #if defined(_MSC_VER)
   8:../../libs/libDaisy/src/daisy_core.h **** #define FORCE_INLINE __forceinline /**< & */
   9:../../libs/libDaisy/src/daisy_core.h **** #elif defined(__clang__)
  10:../../libs/libDaisy/src/daisy_core.h **** #define FORCE_INLINE inline __attribute__((always_inline)) /**< & */
  11:../../libs/libDaisy/src/daisy_core.h **** #pragma clang diagnostic ignored "-Wduplicate-decl-specifier"
  12:../../libs/libDaisy/src/daisy_core.h **** #elif defined(__GNUC__)
  13:../../libs/libDaisy/src/daisy_core.h **** #define FORCE_INLINE inline __attribute__((always_inline)) /**< & */
  14:../../libs/libDaisy/src/daisy_core.h **** #else
  15:../../libs/libDaisy/src/daisy_core.h **** #error unknown compiler
  16:../../libs/libDaisy/src/daisy_core.h **** #endif
  17:../../libs/libDaisy/src/daisy_core.h **** 
  18:../../libs/libDaisy/src/daisy_core.h **** /** @addtogroup utility
  19:../../libs/libDaisy/src/daisy_core.h ****     @{
  20:../../libs/libDaisy/src/daisy_core.h **** */
  21:../../libs/libDaisy/src/daisy_core.h **** 
  22:../../libs/libDaisy/src/daisy_core.h **** /** Macro for area of memory that is configured as cacheless
  23:../../libs/libDaisy/src/daisy_core.h **** This should be used primarily for DMA buffers, and the like.
  24:../../libs/libDaisy/src/daisy_core.h **** */
  25:../../libs/libDaisy/src/daisy_core.h **** #define DMA_BUFFER_MEM_SECTION __attribute__((section(".sram1_bss")))
  26:../../libs/libDaisy/src/daisy_core.h **** /** 
  27:../../libs/libDaisy/src/daisy_core.h **** THE DTCM RAM section is also non-cached. However, is not suitable 
  28:../../libs/libDaisy/src/daisy_core.h **** for DMA transfers. Performance is on par with internal SRAM w/ 
  29:../../libs/libDaisy/src/daisy_core.h **** cache enabled.
  30:../../libs/libDaisy/src/daisy_core.h **** */
  31:../../libs/libDaisy/src/daisy_core.h **** #define DTCM_MEM_SECTION __attribute__((section(".dtcmram_bss")))
  32:../../libs/libDaisy/src/daisy_core.h **** 
  33:../../libs/libDaisy/src/daisy_core.h **** #define FBIPMAX 0.999985f             /**< close to 1.0f-LSB at 16 bit */
  34:../../libs/libDaisy/src/daisy_core.h **** #define FBIPMIN (-FBIPMAX)            /**< - (1 - LSB) */
  35:../../libs/libDaisy/src/daisy_core.h **** #define U82F_SCALE 0.0078740f         /**< 1 / 127 */
  36:../../libs/libDaisy/src/daisy_core.h **** #define F2U8_SCALE 127.0f             /**< 128 - 1 */
  37:../../libs/libDaisy/src/daisy_core.h **** #define S82F_SCALE 0.0078125f         /**< 1 / (2**7) */
  38:../../libs/libDaisy/src/daisy_core.h **** #define F2S8_SCALE 127.0f             /**< (2 ** 7) - 1 */
  39:../../libs/libDaisy/src/daisy_core.h **** #define S162F_SCALE 3.0517578125e-05f /**< 1 / (2** 15) */
  40:../../libs/libDaisy/src/daisy_core.h **** #define F2S16_SCALE 32767.0f          /**< (2 ** 15) - 1 */
  41:../../libs/libDaisy/src/daisy_core.h **** #define F2S24_SCALE 8388608.0f        /**< 2 ** 23 */
  42:../../libs/libDaisy/src/daisy_core.h **** #define S242F_SCALE 1.192092896e-07f  /**< 1 / (2 ** 23) */
  43:../../libs/libDaisy/src/daisy_core.h **** #define S24SIGN 0x800000              /**< 2 ** 23 */
  44:../../libs/libDaisy/src/daisy_core.h **** #define S322F_SCALE 4.6566129e-10f    /**< 1 / (2** 31) */
  45:../../libs/libDaisy/src/daisy_core.h **** #define F2S32_SCALE 2147483647.f      /**< (2 ** 31) - 1 */
  46:../../libs/libDaisy/src/daisy_core.h **** 
  47:../../libs/libDaisy/src/daisy_core.h **** 
  48:../../libs/libDaisy/src/daisy_core.h **** /** shorthand macro for simplifying the reading of the left 
  49:../../libs/libDaisy/src/daisy_core.h ****  *  channel of a non-interleaved output buffer named out */
  50:../../libs/libDaisy/src/daisy_core.h **** #define OUT_L out[0]
  51:../../libs/libDaisy/src/daisy_core.h **** 
  52:../../libs/libDaisy/src/daisy_core.h **** /** shorthand macro for simplifying the reading of the right 
  53:../../libs/libDaisy/src/daisy_core.h ****  *  channel of a non-interleaved output buffer named out */
  54:../../libs/libDaisy/src/daisy_core.h **** #define OUT_R out[1]
  55:../../libs/libDaisy/src/daisy_core.h **** 
  56:../../libs/libDaisy/src/daisy_core.h **** /** shorthand macro for simplifying the reading of the left 
  57:../../libs/libDaisy/src/daisy_core.h ****  *  channel of a non-interleaved input buffer named in */
  58:../../libs/libDaisy/src/daisy_core.h **** #define IN_L in[0]
ARM GAS  C:\Users\matte\AppData\Local\Temp\ccIv7HUw.s 			page 75


  59:../../libs/libDaisy/src/daisy_core.h **** 
  60:../../libs/libDaisy/src/daisy_core.h **** /** shorthand macro for simplifying the reading of the right 
  61:../../libs/libDaisy/src/daisy_core.h ****  *  channel of a non-interleaved input buffer named in */
  62:../../libs/libDaisy/src/daisy_core.h **** #define IN_R in[1]
  63:../../libs/libDaisy/src/daisy_core.h **** 
  64:../../libs/libDaisy/src/daisy_core.h **** /** 
  65:../../libs/libDaisy/src/daisy_core.h ****     Computes cube.
  66:../../libs/libDaisy/src/daisy_core.h ****     \param x Number to be cubed
  67:../../libs/libDaisy/src/daisy_core.h ****     \return x ^ 3
  68:../../libs/libDaisy/src/daisy_core.h **** */
  69:../../libs/libDaisy/src/daisy_core.h **** FORCE_INLINE float cube(float x)
  70:../../libs/libDaisy/src/daisy_core.h **** {
  71:../../libs/libDaisy/src/daisy_core.h ****     return (x * x) * x;
  72:../../libs/libDaisy/src/daisy_core.h **** }
  73:../../libs/libDaisy/src/daisy_core.h **** 
  74:../../libs/libDaisy/src/daisy_core.h **** /** 
  75:../../libs/libDaisy/src/daisy_core.h ****     Converts unsigned 8-bit to float
  76:../../libs/libDaisy/src/daisy_core.h ****     \param x Number to be scaled.
  77:../../libs/libDaisy/src/daisy_core.h ****     \return Scaled number.
  78:../../libs/libDaisy/src/daisy_core.h **** */
  79:../../libs/libDaisy/src/daisy_core.h **** FORCE_INLINE float u82f(uint8_t x)
  80:../../libs/libDaisy/src/daisy_core.h **** {
  81:../../libs/libDaisy/src/daisy_core.h ****     return ((float)x - 127.f) * U82F_SCALE;
  82:../../libs/libDaisy/src/daisy_core.h **** }
  83:../../libs/libDaisy/src/daisy_core.h **** 
  84:../../libs/libDaisy/src/daisy_core.h **** /**
  85:../../libs/libDaisy/src/daisy_core.h ****     Converts float to unsigned 8-bit
  86:../../libs/libDaisy/src/daisy_core.h **** */
  87:../../libs/libDaisy/src/daisy_core.h **** FORCE_INLINE uint8_t f2u8(float x)
  88:../../libs/libDaisy/src/daisy_core.h **** {
  89:../../libs/libDaisy/src/daisy_core.h ****     x = x <= FBIPMIN ? FBIPMIN : x;
  90:../../libs/libDaisy/src/daisy_core.h ****     x = x >= FBIPMAX ? FBIPMAX : x;
  91:../../libs/libDaisy/src/daisy_core.h ****     return (uint8_t)((x * F2U8_SCALE) + F2U8_SCALE);
  92:../../libs/libDaisy/src/daisy_core.h **** }
  93:../../libs/libDaisy/src/daisy_core.h **** 
  94:../../libs/libDaisy/src/daisy_core.h **** 
  95:../../libs/libDaisy/src/daisy_core.h **** /** 
  96:../../libs/libDaisy/src/daisy_core.h ****     Converts Signed 8-bit to float
  97:../../libs/libDaisy/src/daisy_core.h ****     \param x Number to be scaled.
  98:../../libs/libDaisy/src/daisy_core.h ****     \return Scaled number.
  99:../../libs/libDaisy/src/daisy_core.h **** */
 100:../../libs/libDaisy/src/daisy_core.h **** FORCE_INLINE float s82f(int8_t x)
 101:../../libs/libDaisy/src/daisy_core.h **** {
 102:../../libs/libDaisy/src/daisy_core.h ****     return (float)x * S82F_SCALE;
 103:../../libs/libDaisy/src/daisy_core.h **** }
 104:../../libs/libDaisy/src/daisy_core.h **** 
 105:../../libs/libDaisy/src/daisy_core.h **** /**
 106:../../libs/libDaisy/src/daisy_core.h ****     Converts float to Signed 8-bit
 107:../../libs/libDaisy/src/daisy_core.h **** */
 108:../../libs/libDaisy/src/daisy_core.h **** FORCE_INLINE int8_t f2s8(float x)
 109:../../libs/libDaisy/src/daisy_core.h **** {
 110:../../libs/libDaisy/src/daisy_core.h ****     x = x <= FBIPMIN ? FBIPMIN : x;
 111:../../libs/libDaisy/src/daisy_core.h ****     x = x >= FBIPMAX ? FBIPMAX : x;
 112:../../libs/libDaisy/src/daisy_core.h ****     return (int32_t)(x * F2S8_SCALE);
 113:../../libs/libDaisy/src/daisy_core.h **** }
 114:../../libs/libDaisy/src/daisy_core.h **** 
 115:../../libs/libDaisy/src/daisy_core.h **** /** 
ARM GAS  C:\Users\matte\AppData\Local\Temp\ccIv7HUw.s 			page 76


 116:../../libs/libDaisy/src/daisy_core.h ****     Converts Signed 16-bit to float
 117:../../libs/libDaisy/src/daisy_core.h ****     \param x Number to be scaled.
 118:../../libs/libDaisy/src/daisy_core.h ****     \return Scaled number.
 119:../../libs/libDaisy/src/daisy_core.h **** */
 120:../../libs/libDaisy/src/daisy_core.h **** FORCE_INLINE float s162f(int16_t x)
 121:../../libs/libDaisy/src/daisy_core.h **** {
 122:../../libs/libDaisy/src/daisy_core.h ****     return (float)x * S162F_SCALE;
 123:../../libs/libDaisy/src/daisy_core.h **** }
 124:../../libs/libDaisy/src/daisy_core.h **** 
 125:../../libs/libDaisy/src/daisy_core.h **** /**
 126:../../libs/libDaisy/src/daisy_core.h ****     Converts float to Signed 16-bit
 127:../../libs/libDaisy/src/daisy_core.h **** */
 128:../../libs/libDaisy/src/daisy_core.h **** FORCE_INLINE int16_t f2s16(float x)
 129:../../libs/libDaisy/src/daisy_core.h **** {
 130:../../libs/libDaisy/src/daisy_core.h ****     x = x <= FBIPMIN ? FBIPMIN : x;
 131:../../libs/libDaisy/src/daisy_core.h ****     x = x >= FBIPMAX ? FBIPMAX : x;
 132:../../libs/libDaisy/src/daisy_core.h ****     return (int32_t)(x * F2S16_SCALE);
 133:../../libs/libDaisy/src/daisy_core.h **** }
 134:../../libs/libDaisy/src/daisy_core.h **** 
 135:../../libs/libDaisy/src/daisy_core.h **** /**
 136:../../libs/libDaisy/src/daisy_core.h ****     Converts Signed 24-bit to float
 137:../../libs/libDaisy/src/daisy_core.h ****  */
 138:../../libs/libDaisy/src/daisy_core.h **** FORCE_INLINE float s242f(int32_t x)
 139:../../libs/libDaisy/src/daisy_core.h **** {
 140:../../libs/libDaisy/src/daisy_core.h ****     x = (x ^ S24SIGN) - S24SIGN; //sign extend aka ((x<<8)>>8)
 141:../../libs/libDaisy/src/daisy_core.h ****     return (float)x * S242F_SCALE;
 142:../../libs/libDaisy/src/daisy_core.h **** }
 143:../../libs/libDaisy/src/daisy_core.h **** /**
 144:../../libs/libDaisy/src/daisy_core.h ****     Converts float to Signed 24-bit
 145:../../libs/libDaisy/src/daisy_core.h ****  */
 146:../../libs/libDaisy/src/daisy_core.h **** FORCE_INLINE int32_t f2s24(float x)
 147:../../libs/libDaisy/src/daisy_core.h **** {
 148:../../libs/libDaisy/src/daisy_core.h ****     x = x <= FBIPMIN ? FBIPMIN : x;
 149:../../libs/libDaisy/src/daisy_core.h ****     x = x >= FBIPMAX ? FBIPMAX : x;
 150:../../libs/libDaisy/src/daisy_core.h ****     return (int32_t)(x * F2S24_SCALE);
 151:../../libs/libDaisy/src/daisy_core.h **** }
 152:../../libs/libDaisy/src/daisy_core.h **** 
 153:../../libs/libDaisy/src/daisy_core.h **** /**
 154:../../libs/libDaisy/src/daisy_core.h ****     Converts Signed 32-bit to float
 155:../../libs/libDaisy/src/daisy_core.h ****  */
 156:../../libs/libDaisy/src/daisy_core.h **** FORCE_INLINE float s322f(int32_t x)
 157:../../libs/libDaisy/src/daisy_core.h **** {
 158:../../libs/libDaisy/src/daisy_core.h ****     return (float)x * S322F_SCALE;
 159:../../libs/libDaisy/src/daisy_core.h **** }
 160:../../libs/libDaisy/src/daisy_core.h **** /**
 161:../../libs/libDaisy/src/daisy_core.h ****     Converts float to Signed 24-bit
 162:../../libs/libDaisy/src/daisy_core.h ****  */
 163:../../libs/libDaisy/src/daisy_core.h **** FORCE_INLINE int32_t f2s32(float x)
 164:../../libs/libDaisy/src/daisy_core.h **** {
 165:../../libs/libDaisy/src/daisy_core.h ****     x = x <= FBIPMIN ? FBIPMIN : x;
 166:../../libs/libDaisy/src/daisy_core.h ****     x = x >= FBIPMAX ? FBIPMAX : x;
 167:../../libs/libDaisy/src/daisy_core.h ****     return (int32_t)(x * F2S32_SCALE);
 168:../../libs/libDaisy/src/daisy_core.h **** }
 169:../../libs/libDaisy/src/daisy_core.h **** 
 170:../../libs/libDaisy/src/daisy_core.h **** #ifdef __cplusplus
 171:../../libs/libDaisy/src/daisy_core.h **** 
 172:../../libs/libDaisy/src/daisy_core.h **** namespace daisy
ARM GAS  C:\Users\matte\AppData\Local\Temp\ccIv7HUw.s 			page 77


 173:../../libs/libDaisy/src/daisy_core.h **** {
 174:../../libs/libDaisy/src/daisy_core.h **** /** @brief GPIO Port names */
 175:../../libs/libDaisy/src/daisy_core.h **** enum GPIOPort
 176:../../libs/libDaisy/src/daisy_core.h **** {
 177:../../libs/libDaisy/src/daisy_core.h ****     PORTA, /**< Port A */
 178:../../libs/libDaisy/src/daisy_core.h ****     PORTB, /**< Port B */
 179:../../libs/libDaisy/src/daisy_core.h ****     PORTC, /**< Port C */
 180:../../libs/libDaisy/src/daisy_core.h ****     PORTD, /**< Port D */
 181:../../libs/libDaisy/src/daisy_core.h ****     PORTE, /**< Port E */
 182:../../libs/libDaisy/src/daisy_core.h ****     PORTF, /**< Port F */
 183:../../libs/libDaisy/src/daisy_core.h ****     PORTG, /**< Port G */
 184:../../libs/libDaisy/src/daisy_core.h ****     PORTH, /**< Port H */
 185:../../libs/libDaisy/src/daisy_core.h ****     PORTI, /**< Port I */
 186:../../libs/libDaisy/src/daisy_core.h ****     PORTJ, /**< Port J */
 187:../../libs/libDaisy/src/daisy_core.h ****     PORTK, /**< Port K */
 188:../../libs/libDaisy/src/daisy_core.h ****     PORTX, /**< Used as a dummy port to signal an invalid pin. */
 189:../../libs/libDaisy/src/daisy_core.h **** };
 190:../../libs/libDaisy/src/daisy_core.h **** 
 191:../../libs/libDaisy/src/daisy_core.h **** /** @brief representation of hardware port/pin combination */
 192:../../libs/libDaisy/src/daisy_core.h **** struct Pin
 193:../../libs/libDaisy/src/daisy_core.h **** {
 194:../../libs/libDaisy/src/daisy_core.h ****     GPIOPort port;
 195:../../libs/libDaisy/src/daisy_core.h ****     uint8_t  pin;
 196:../../libs/libDaisy/src/daisy_core.h **** 
 197:../../libs/libDaisy/src/daisy_core.h ****     /** @brief Constructor creates a valid pin. 
 198:../../libs/libDaisy/src/daisy_core.h ****      *  @param pt GPIOPort between PA, and PK corresponding to STM32 Port.
 199:../../libs/libDaisy/src/daisy_core.h ****      *  @param pn pin number in range of 0-15
 200:../../libs/libDaisy/src/daisy_core.h ****     */
 201:../../libs/libDaisy/src/daisy_core.h ****     constexpr Pin(const GPIOPort pt, const uint8_t pn) : port(pt), pin(pn) {}
 202:../../libs/libDaisy/src/daisy_core.h **** 
 203:../../libs/libDaisy/src/daisy_core.h ****     /** @brief Basic Constructor creates an invalid Pin object */
 204:../../libs/libDaisy/src/daisy_core.h ****     constexpr Pin() : port(PORTX), pin(255) {}
 2485              		.loc 12 204 15 view .LVU669
 2486              		.loc 12 204 15 is_stmt 0 view .LVU670
 2487              	.LBE847:
 2488              	.LBB848:
 2489              	.LBI848:
 2490              		.loc 12 204 15 is_stmt 1 view .LVU671
 2491              		.loc 12 204 15 is_stmt 0 view .LVU672
 2492              	.LBE848:
  36:../../libs/libDaisy/src/dev/mpr121.h ****             speed  = I2CHandle::Config::Speed::I2C_400KHZ;
 2493              		.loc 9 36 13 is_stmt 1 view .LVU673
  37:../../libs/libDaisy/src/dev/mpr121.h **** 
 2494              		.loc 9 37 13 view .LVU674
  39:../../libs/libDaisy/src/dev/mpr121.h ****             sda = Pin(PORTB, 9);
 2495              		.loc 9 39 13 view .LVU675
 2496              	.LBB849:
 2497              	.LBI849:
 201:../../libs/libDaisy/src/daisy_core.h **** 
 2498              		.loc 12 201 15 view .LVU676
 201:../../libs/libDaisy/src/daisy_core.h **** 
 2499              		.loc 12 201 15 is_stmt 0 view .LVU677
 2500              	.LBE849:
  40:../../libs/libDaisy/src/dev/mpr121.h **** 
 2501              		.loc 9 40 13 is_stmt 1 view .LVU678
 2502              	.LBB850:
 2503              	.LBI850:
ARM GAS  C:\Users\matte\AppData\Local\Temp\ccIv7HUw.s 			page 78


 201:../../libs/libDaisy/src/daisy_core.h **** 
 2504              		.loc 12 201 15 view .LVU679
 201:../../libs/libDaisy/src/daisy_core.h **** 
 2505              		.loc 12 201 15 is_stmt 0 view .LVU680
 2506              	.LBE850:
  42:../../libs/libDaisy/src/dev/mpr121.h ****         }
 2507              		.loc 9 42 13 is_stmt 1 view .LVU681
  42:../../libs/libDaisy/src/dev/mpr121.h ****         }
 2508              		.loc 9 42 13 is_stmt 0 view .LVU682
 2509              	.LBE846:
 2510              	.LBE845:
 2511              	.LBE844:
 2512              	.LBE843:
 2513              	.LBE842:
 2514              	.LBB867:
 2515              	.LBI867:
  20:../../libs/libDaisy/src/dev/mpr121.h ****     ~Mpr121I2CTransport() {}
 2516              		.loc 9 20 5 is_stmt 1 view .LVU683
 2517              	.LBB868:
 2518              	.LBB869:
 2519              	.LBI869:
 2520              		.file 13 "../../libs/libDaisy//src/per/i2c.h"
   1:../../libs/libDaisy//src/per/i2c.h **** #pragma once
   2:../../libs/libDaisy//src/per/i2c.h **** #include "util/hal_map.h"
   3:../../libs/libDaisy//src/per/i2c.h **** #include "daisy_core.h"
   4:../../libs/libDaisy//src/per/i2c.h **** 
   5:../../libs/libDaisy//src/per/i2c.h **** namespace daisy
   6:../../libs/libDaisy//src/per/i2c.h **** {
   7:../../libs/libDaisy//src/per/i2c.h **** /** A handle for interacting with an I2C peripheral. This is a dumb
   8:../../libs/libDaisy//src/per/i2c.h ****  *  gateway that internally points to one of the four I2C peripherals
   9:../../libs/libDaisy//src/per/i2c.h ****  *  after it was initialised. It can then be copied and passed around.
  10:../../libs/libDaisy//src/per/i2c.h ****  *  Use an I2CHandle like this:
  11:../../libs/libDaisy//src/per/i2c.h ****  *  
  12:../../libs/libDaisy//src/per/i2c.h ****  *      // setup the configuration
  13:../../libs/libDaisy//src/per/i2c.h ****  *      I2CHandle::Config i2c_conf;
  14:../../libs/libDaisy//src/per/i2c.h ****  *      i2c_conf.periph = I2CHandle::Config::Peripheral::I2C_1;
  15:../../libs/libDaisy//src/per/i2c.h ****  *      i2c_conf.speed  = I2CHandle::Config::Speed::I2C_400KHZ;
  16:../../libs/libDaisy//src/per/i2c.h ****  *      i2c_conf.mode   = I2CHandle::Config::Mode::Master;
  17:../../libs/libDaisy//src/per/i2c.h ****  *      i2c_conf.pin_config.scl  = {DSY_GPIOB, 8};
  18:../../libs/libDaisy//src/per/i2c.h ****  *      i2c_conf.pin_config.sda  = {DSY_GPIOB, 9};
  19:../../libs/libDaisy//src/per/i2c.h ****  *      // initialise the peripheral
  20:../../libs/libDaisy//src/per/i2c.h ****  *      I2CHandle i2c;
  21:../../libs/libDaisy//src/per/i2c.h ****  *      i2c.Init(i2c_conf);
  22:../../libs/libDaisy//src/per/i2c.h ****  *      // now i2c points to the corresponding peripheral and can be used.
  23:../../libs/libDaisy//src/per/i2c.h ****  *      i2c.TransmitBlocking( ... );
  24:../../libs/libDaisy//src/per/i2c.h ****  */
  25:../../libs/libDaisy//src/per/i2c.h **** class I2CHandle
  26:../../libs/libDaisy//src/per/i2c.h **** {
  27:../../libs/libDaisy//src/per/i2c.h ****   public:
  28:../../libs/libDaisy//src/per/i2c.h ****     /** Contains settings for initialising an I2C interface. */
  29:../../libs/libDaisy//src/per/i2c.h ****     struct Config
  30:../../libs/libDaisy//src/per/i2c.h ****     {
  31:../../libs/libDaisy//src/per/i2c.h ****         /** Specifies whether the interface will operate in master or slave mode. */
  32:../../libs/libDaisy//src/per/i2c.h ****         enum class Mode
  33:../../libs/libDaisy//src/per/i2c.h ****         {
  34:../../libs/libDaisy//src/per/i2c.h ****             I2C_MASTER,
  35:../../libs/libDaisy//src/per/i2c.h ****             I2C_SLAVE,
ARM GAS  C:\Users\matte\AppData\Local\Temp\ccIv7HUw.s 			page 79


  36:../../libs/libDaisy//src/per/i2c.h ****         };
  37:../../libs/libDaisy//src/per/i2c.h **** 
  38:../../libs/libDaisy//src/per/i2c.h ****         /** Specifices the internal peripheral to use (these are mapped to different pins on the ha
  39:../../libs/libDaisy//src/per/i2c.h ****         enum class Peripheral
  40:../../libs/libDaisy//src/per/i2c.h ****         {
  41:../../libs/libDaisy//src/per/i2c.h ****             I2C_1 = 0, /**< & */
  42:../../libs/libDaisy//src/per/i2c.h ****             I2C_2,     /**< & */
  43:../../libs/libDaisy//src/per/i2c.h ****             I2C_3,     /**< & */
  44:../../libs/libDaisy//src/per/i2c.h ****             I2C_4,     /**< & */
  45:../../libs/libDaisy//src/per/i2c.h ****         };
  46:../../libs/libDaisy//src/per/i2c.h **** 
  47:../../libs/libDaisy//src/per/i2c.h ****         /** Rate at which the clock/data will be sent/received. The device being used will have max
  48:../../libs/libDaisy//src/per/i2c.h ****          *  1MHZ Mode is currently 886kHz
  49:../../libs/libDaisy//src/per/i2c.h ****          */
  50:../../libs/libDaisy//src/per/i2c.h ****         enum class Speed
  51:../../libs/libDaisy//src/per/i2c.h ****         {
  52:../../libs/libDaisy//src/per/i2c.h ****             I2C_100KHZ, /**< & */
  53:../../libs/libDaisy//src/per/i2c.h ****             I2C_400KHZ, /**< & */
  54:../../libs/libDaisy//src/per/i2c.h ****             I2C_1MHZ,   /**< & */
  55:../../libs/libDaisy//src/per/i2c.h ****         };
  56:../../libs/libDaisy//src/per/i2c.h **** 
  57:../../libs/libDaisy//src/per/i2c.h ****         Peripheral periph; /**< & */
  58:../../libs/libDaisy//src/per/i2c.h ****         struct
  59:../../libs/libDaisy//src/per/i2c.h ****         {
  60:../../libs/libDaisy//src/per/i2c.h ****             Pin scl;  /**< & */
  61:../../libs/libDaisy//src/per/i2c.h ****             Pin sda;  /**< & */
  62:../../libs/libDaisy//src/per/i2c.h ****         } pin_config; /**< & */
  63:../../libs/libDaisy//src/per/i2c.h **** 
  64:../../libs/libDaisy//src/per/i2c.h ****         Speed speed; /**< & */
  65:../../libs/libDaisy//src/per/i2c.h ****         Mode  mode;  /**< & */
  66:../../libs/libDaisy//src/per/i2c.h ****         // 0x10 is chosen as a default to avoid conflicts with reserved addresses
  67:../../libs/libDaisy//src/per/i2c.h ****         uint8_t address = 0x10; /**< & */
  68:../../libs/libDaisy//src/per/i2c.h ****     };
  69:../../libs/libDaisy//src/per/i2c.h **** 
  70:../../libs/libDaisy//src/per/i2c.h ****     /** Return values for I2C functions. */
  71:../../libs/libDaisy//src/per/i2c.h ****     enum class Result
  72:../../libs/libDaisy//src/per/i2c.h ****     {
  73:../../libs/libDaisy//src/per/i2c.h ****         OK, /**< & */
  74:../../libs/libDaisy//src/per/i2c.h ****         ERR /**< & */
  75:../../libs/libDaisy//src/per/i2c.h ****     };
  76:../../libs/libDaisy//src/per/i2c.h **** 
  77:../../libs/libDaisy//src/per/i2c.h ****     enum class Direction
  78:../../libs/libDaisy//src/per/i2c.h ****     {
  79:../../libs/libDaisy//src/per/i2c.h ****         TRANSMIT, /**< & */
  80:../../libs/libDaisy//src/per/i2c.h ****         RECEIVE,  /**< & */
  81:../../libs/libDaisy//src/per/i2c.h ****     };
  82:../../libs/libDaisy//src/per/i2c.h **** 
  83:../../libs/libDaisy//src/per/i2c.h ****     I2CHandle() : pimpl_(nullptr) {}
 2521              		.loc 13 83 5 view .LVU684
 2522              		.loc 13 83 5 is_stmt 0 view .LVU685
 2523              	.LBE869:
 2524              	.LBB870:
 2525              	.LBI870:
  34:../../libs/libDaisy/src/dev/mpr121.h ****         {
 2526              		.loc 9 34 9 is_stmt 1 view .LVU686
 2527              	.LBB871:
 2528              	.LBB872:
ARM GAS  C:\Users\matte\AppData\Local\Temp\ccIv7HUw.s 			page 80


 2529              	.LBB873:
 2530              	.LBI873:
 2531              		.loc 12 204 15 view .LVU687
 2532              		.loc 12 204 15 is_stmt 0 view .LVU688
 2533              	.LBE873:
 2534              	.LBB874:
 2535              	.LBI874:
 2536              		.loc 12 204 15 is_stmt 1 view .LVU689
 2537              		.loc 12 204 15 is_stmt 0 view .LVU690
 2538              	.LBE874:
  36:../../libs/libDaisy/src/dev/mpr121.h ****             speed  = I2CHandle::Config::Speed::I2C_400KHZ;
 2539              		.loc 9 36 13 is_stmt 1 view .LVU691
  37:../../libs/libDaisy/src/dev/mpr121.h **** 
 2540              		.loc 9 37 13 view .LVU692
  39:../../libs/libDaisy/src/dev/mpr121.h ****             sda = Pin(PORTB, 9);
 2541              		.loc 9 39 13 view .LVU693
 2542              	.LBB875:
 2543              	.LBI875:
 201:../../libs/libDaisy/src/daisy_core.h **** 
 2544              		.loc 12 201 15 view .LVU694
 201:../../libs/libDaisy/src/daisy_core.h **** 
 2545              		.loc 12 201 15 is_stmt 0 view .LVU695
 2546              	.LBE875:
  40:../../libs/libDaisy/src/dev/mpr121.h **** 
 2547              		.loc 9 40 13 is_stmt 1 view .LVU696
 2548              	.LBB876:
 2549              	.LBI876:
 201:../../libs/libDaisy/src/daisy_core.h **** 
 2550              		.loc 12 201 15 view .LVU697
 201:../../libs/libDaisy/src/daisy_core.h **** 
 2551              		.loc 12 201 15 is_stmt 0 view .LVU698
 2552              	.LBE876:
  42:../../libs/libDaisy/src/dev/mpr121.h ****         }
 2553              		.loc 9 42 13 is_stmt 1 view .LVU699
 2554              	.LBE872:
 2555              	.LBE871:
 2556              	.LBE870:
 2557              	.LBE868:
 2558              	.LBE867:
 2559              	.LBB885:
 2560              	.LBB863:
 2561              	.LBB859:
 2562              	.LBB855:
 2563              	.LBB851:
  36:../../libs/libDaisy/src/dev/mpr121.h ****             speed  = I2CHandle::Config::Speed::I2C_400KHZ;
 2564              		.loc 9 36 20 is_stmt 0 view .LVU700
 2565 0000 6F48     		ldr	r0, .L60
 2566              	.LBE851:
 2567              	.LBE855:
 2568              	.LBE859:
 2569              	.LBE863:
 2570              	.LBE885:
 100:../../libs/libDaisy/src/dev/mpr121.h ****     ~Mpr121() {}
 2571              		.loc 9 100 5 view .LVU701
 2572 0002 5A23     		movs	r3, #90
 2573              	.LBB886:
 2574              	.LBB864:
ARM GAS  C:\Users\matte\AppData\Local\Temp\ccIv7HUw.s 			page 81


 2575              	.LBB860:
 2576              	.LBB856:
 2577              	.LBB852:
  37:../../libs/libDaisy/src/dev/mpr121.h **** 
 2578              		.loc 9 37 20 view .LVU702
 2579 0004 0121     		movs	r1, #1
 2580              	.LBE852:
 2581              	.LBE856:
 2582              	.LBE860:
 2583              	.LBE864:
 2584              	.LBE886:
 100:../../libs/libDaisy/src/dev/mpr121.h ****     ~Mpr121() {}
 2585              		.loc 9 100 5 view .LVU703
 2586 0006 6F4A     		ldr	r2, .L60+4
 2587              	.LBE841:
 2588              	.LBE840:
 2589              	.LBE839:
 2590              	.LBE838:
 2591              		.loc 10 267 1 view .LVU704
 2592 0008 2DE9F041 		push	{r4, r5, r6, r7, r8, lr}
 2593              		.cfi_def_cfa_offset 24
 2594              		.cfi_offset 4, -24
 2595              		.cfi_offset 5, -20
 2596              		.cfi_offset 6, -16
 2597              		.cfi_offset 7, -12
 2598              		.cfi_offset 8, -8
 2599              		.cfi_offset 14, -4
 2600              	.LBB1036:
 2601              	.LBB1034:
 2602              	.LBB896:
 2603              	.LBB891:
 2604              	.LBB887:
 2605              	.LBB865:
 2606              	.LBB861:
 2607              	.LBB857:
 2608              	.LBB853:
  36:../../libs/libDaisy/src/dev/mpr121.h ****             speed  = I2CHandle::Config::Speed::I2C_400KHZ;
 2609              		.loc 9 36 20 view .LVU705
 2610 000c 0026     		movs	r6, #0
 2611              	.LBE853:
 2612              	.LBE857:
 2613              	.LBE861:
 2614              	.LBE865:
 2615              	.LBE887:
 2616              	.LBE891:
 2617              	.LBE896:
  14:main.cpp      **** daisy::Mpr121I2C cap;
 2618              		.loc 10 14 18 view .LVU706
 2619 000e 6E4F     		ldr	r7, .L60+8
 2620              	.LBB897:
 2621              	.LBB892:
 100:../../libs/libDaisy/src/dev/mpr121.h ****     ~Mpr121() {}
 2622              		.loc 9 100 5 view .LVU707
 2623 0010 0361     		str	r3, [r0, #16]
 2624              	.LBE892:
 2625              	.LBE897:
 2626              	.LBB898:
ARM GAS  C:\Users\matte\AppData\Local\Temp\ccIv7HUw.s 			page 82


 2627              	.LBB899:
 2628              	.LBB900:
  44:../../libs/DaisySP/Source/Control/adsr.h ****     ~Adsr() {}
 2629              		.loc 7 44 12 view .LVU708
 2630 0012 0024     		movs	r4, #0
 2631              	.LBE900:
 2632              	.LBE899:
 2633              	.LBE898:
 2634              	.LBB907:
 2635              	.LBB893:
 100:../../libs/libDaisy/src/dev/mpr121.h ****     ~Mpr121() {}
 2636              		.loc 9 100 5 view .LVU709
 2637 0014 C362     		str	r3, [r0, #44]
 2638              	.LVL205:
 100:../../libs/libDaisy/src/dev/mpr121.h ****     ~Mpr121() {}
 2639              		.loc 9 100 5 view .LVU710
 2640 0016 40F20C63 		movw	r3, #1548
 2641              	.LBB888:
 2642              	.LBB883:
 2643              	.LBB881:
 2644              	.LBB879:
 2645              	.LBB877:
  37:../../libs/libDaisy/src/dev/mpr121.h **** 
 2646              		.loc 9 37 20 view .LVU711
 2647 001a 0162     		str	r1, [r0, #32]
 2648              	.LBE877:
 2649              	.LBE879:
 2650              	.LBE881:
 2651              	.LBE883:
 2652              	.LBE888:
 100:../../libs/libDaisy/src/dev/mpr121.h ****     ~Mpr121() {}
 2653              		.loc 9 100 5 view .LVU712
 2654 001c 8260     		str	r2, [r0, #8]
 2655 001e 4262     		str	r2, [r0, #36]
 2656              	.LBE893:
 2657              	.LBE907:
  14:main.cpp      **** daisy::Mpr121I2C cap;
 2658              		.loc 10 14 18 view .LVU713
 2659 0020 3A46     		mov	r2, r7
 2660              	.LBB908:
 2661              	.LBB894:
 100:../../libs/libDaisy/src/dev/mpr121.h ****     ~Mpr121() {}
 2662              		.loc 9 100 5 view .LVU714
 2663 0022 4361     		str	r3, [r0, #20]
 2664              	.LBE894:
 2665              	.LBE908:
 2666              	.LBB909:
 2667              	.LBB904:
 2668              	.LBB901:
  44:../../libs/DaisySP/Source/Control/adsr.h ****     ~Adsr() {}
 2669              		.loc 7 44 12 view .LVU715
 2670 0024 694D     		ldr	r5, .L60+12
 2671              	.LBE901:
 2672              	.LBE904:
 2673              	.LBE909:
  33:main.cpp      **** AnalogDelay Delay;
 2674              		.loc 10 33 13 view .LVU716
ARM GAS  C:\Users\matte\AppData\Local\Temp\ccIv7HUw.s 			page 83


 2675 0026 DFF81082 		ldr	r8, .L60+120
 2676              	.LBB910:
 2677              	.LBB895:
 2678              	.LBB889:
 2679              	.LBB866:
 2680              	.LBB862:
 2681              	.LBB858:
 2682              	.LBB854:
  37:../../libs/libDaisy/src/dev/mpr121.h **** 
 2683              		.loc 9 37 20 view .LVU717
 2684 002a C0E90061 		strd	r6, r1, [r0]
 2685              	.LBE854:
 2686              	.LBE858:
 2687              	.LBE862:
 2688              	.LBE866:
 2689              	.LBE889:
 2690              	.LBB890:
 2691              	.LBB884:
 2692              	.LBB882:
 2693              	.LBB880:
 2694              	.LBB878:
  36:../../libs/libDaisy/src/dev/mpr121.h ****             speed  = I2CHandle::Config::Speed::I2C_400KHZ;
 2695              		.loc 9 36 20 view .LVU718
 2696 002e C0E90666 		strd	r6, r6, [r0, #24]
 2697              	.LBE878:
 2698              	.LBE880:
 2699              	.LBE882:
 2700              	.LBE884:
 2701              	.LBE890:
 2702              	.LBE895:
 2703              	.LBE910:
  14:main.cpp      **** daisy::Mpr121I2C cap;
 2704              		.loc 10 14 18 view .LVU719
 2705 0032 6749     		ldr	r1, .L60+16
 2706 0034 FFF7FEFF 		bl	__aeabi_atexit
 2707              	.LVL206:
  17:main.cpp      **** pentaPianta p_pluck(soglie,f_pluck), p_pad(soglie,f_pad), p_bass(soglie,f_bass);
 2708              		.loc 10 17 35 view .LVU720
 2709 0038 664B     		ldr	r3, .L60+20
 2710 003a 6749     		ldr	r1, .L60+24
 2711 003c D3ED007A 		vldr.32	s15, [r3]
 2712 0040 6648     		ldr	r0, .L60+28
 2713 0042 FDEEE77A 		vcvt.s32.f32	s15, s15
 2714 0046 17EE902A 		vmov	r2, s15	@ int
 2715 004a FFF7FEFF 		bl	_ZN11pentaPiantaC1EPii
 2716              	.LVL207:
  17:main.cpp      **** pentaPianta p_pluck(soglie,f_pluck), p_pad(soglie,f_pad), p_bass(soglie,f_bass);
 2717              		.loc 10 17 56 view .LVU721
 2718 004e 644B     		ldr	r3, .L60+32
 2719 0050 6149     		ldr	r1, .L60+24
 2720 0052 D3ED007A 		vldr.32	s15, [r3]
 2721 0056 6348     		ldr	r0, .L60+36
 2722 0058 FDEEE77A 		vcvt.s32.f32	s15, s15
 2723 005c 17EE902A 		vmov	r2, s15	@ int
 2724 0060 FFF7FEFF 		bl	_ZN11pentaPiantaC1EPii
 2725              	.LVL208:
  17:main.cpp      **** pentaPianta p_pluck(soglie,f_pluck), p_pad(soglie,f_pad), p_bass(soglie,f_bass);
ARM GAS  C:\Users\matte\AppData\Local\Temp\ccIv7HUw.s 			page 84


 2726              		.loc 10 17 79 view .LVU722
 2727 0064 604B     		ldr	r3, .L60+40
 2728 0066 5C49     		ldr	r1, .L60+24
 2729 0068 D3ED007A 		vldr.32	s15, [r3]
 2730 006c 5F48     		ldr	r0, .L60+44
 2731 006e FDEEE77A 		vcvt.s32.f32	s15, s15
 2732 0072 17EE902A 		vmov	r2, s15	@ int
 2733 0076 FFF7FEFF 		bl	_ZN11pentaPiantaC1EPii
 2734              	.LVL209:
 2735              	.LBB911:
 2736              	.LBI911:
  21:../../libs/libDaisy/src/daisy_seed.h ****     ~DaisySeed() {}
 2737              		.loc 1 21 5 is_stmt 1 view .LVU723
 2738              	.LBB912:
 2739              	.LBB913:
 2740              	.LBI913:
 2741              		.file 14 "../../libs/libDaisy/src/per/qspi.h"
   1:../../libs/libDaisy/src/per/qspi.h **** #ifndef DSY_QSPI
   2:../../libs/libDaisy/src/per/qspi.h **** #define DSY_QSPI /**< Macro */
   3:../../libs/libDaisy/src/per/qspi.h **** 
   4:../../libs/libDaisy/src/per/qspi.h **** #ifndef UNIT_TEST // for unit tests, a dummy implementation
   5:../../libs/libDaisy/src/per/qspi.h **** 
   6:../../libs/libDaisy/src/per/qspi.h **** #include <cstdint>
   7:../../libs/libDaisy/src/per/qspi.h **** #include "daisy_core.h"
   8:../../libs/libDaisy/src/per/qspi.h **** #include "util/hal_map.h"
   9:../../libs/libDaisy/src/per/qspi.h **** 
  10:../../libs/libDaisy/src/per/qspi.h **** #define DSY_QSPI_TEXT       \
  11:../../libs/libDaisy/src/per/qspi.h ****     __attribute__((section( \
  12:../../libs/libDaisy/src/per/qspi.h ****         ".qspiflash_text"))) /**< used for reading memory in memory_mapped mode. */
  13:../../libs/libDaisy/src/per/qspi.h **** #define DSY_QSPI_DATA       \
  14:../../libs/libDaisy/src/per/qspi.h ****     __attribute__((section( \
  15:../../libs/libDaisy/src/per/qspi.h ****         ".qspiflash_data"))) /**< used for reading memory in memory_mapped mode. */
  16:../../libs/libDaisy/src/per/qspi.h **** #define DSY_QSPI_BSS        \
  17:../../libs/libDaisy/src/per/qspi.h ****     __attribute__((section( \
  18:../../libs/libDaisy/src/per/qspi.h ****         ".qspiflash_bss"))) /**< used for reading memory in memory_mapped mode. */
  19:../../libs/libDaisy/src/per/qspi.h **** 
  20:../../libs/libDaisy/src/per/qspi.h **** namespace daisy
  21:../../libs/libDaisy/src/per/qspi.h **** {
  22:../../libs/libDaisy/src/per/qspi.h **** /** @addtogroup serial
  23:../../libs/libDaisy/src/per/qspi.h **** @{
  24:../../libs/libDaisy/src/per/qspi.h **** */
  25:../../libs/libDaisy/src/per/qspi.h **** 
  26:../../libs/libDaisy/src/per/qspi.h **** /** 
  27:../../libs/libDaisy/src/per/qspi.h ****  Driver for QSPI peripheral to interface with external flash memory. \n 
  28:../../libs/libDaisy/src/per/qspi.h ****     Currently supported QSPI Devices: \n 
  29:../../libs/libDaisy/src/per/qspi.h ****     * IS25LP080D
  30:../../libs/libDaisy/src/per/qspi.h **** */
  31:../../libs/libDaisy/src/per/qspi.h **** class QSPIHandle
  32:../../libs/libDaisy/src/per/qspi.h **** {
  33:../../libs/libDaisy/src/per/qspi.h ****   public:
  34:../../libs/libDaisy/src/per/qspi.h ****     enum Result
  35:../../libs/libDaisy/src/per/qspi.h ****     {
  36:../../libs/libDaisy/src/per/qspi.h ****         OK = 0,
  37:../../libs/libDaisy/src/per/qspi.h ****         ERR
  38:../../libs/libDaisy/src/per/qspi.h ****     };
  39:../../libs/libDaisy/src/per/qspi.h **** 
  40:../../libs/libDaisy/src/per/qspi.h ****     /** Indicates the current status of the module. 
ARM GAS  C:\Users\matte\AppData\Local\Temp\ccIv7HUw.s 			page 85


  41:../../libs/libDaisy/src/per/qspi.h ****          *  Warnings are indicated by a leading W.
  42:../../libs/libDaisy/src/per/qspi.h ****          *  Errors are indicated by a leading E and cause an immediate exit.
  43:../../libs/libDaisy/src/per/qspi.h ****          * 
  44:../../libs/libDaisy/src/per/qspi.h ****          *  \param GOOD - No errors have been reported.
  45:../../libs/libDaisy/src/per/qspi.h ****          *  \param E_HAL_ERROR - HAL code did not return HAL_OK.
  46:../../libs/libDaisy/src/per/qspi.h ****          *  \param E_SWITCHING_MODES - An error was encountered while switching QSPI peripheral mod
  47:../../libs/libDaisy/src/per/qspi.h ****          *  \param E_INVALID_MODE - QSPI should not be written to while the program is executing fr
  48:../../libs/libDaisy/src/per/qspi.h ****          */
  49:../../libs/libDaisy/src/per/qspi.h ****     enum Status
  50:../../libs/libDaisy/src/per/qspi.h ****     {
  51:../../libs/libDaisy/src/per/qspi.h ****         GOOD = 0,
  52:../../libs/libDaisy/src/per/qspi.h ****         E_HAL_ERROR,
  53:../../libs/libDaisy/src/per/qspi.h ****         E_SWITCHING_MODES,
  54:../../libs/libDaisy/src/per/qspi.h ****         E_INVALID_MODE,
  55:../../libs/libDaisy/src/per/qspi.h ****     };
  56:../../libs/libDaisy/src/per/qspi.h **** 
  57:../../libs/libDaisy/src/per/qspi.h ****     /** Configuration structure for interfacing with QSPI Driver */
  58:../../libs/libDaisy/src/per/qspi.h ****     struct Config
  59:../../libs/libDaisy/src/per/qspi.h ****     {
  60:../../libs/libDaisy/src/per/qspi.h ****         /** Flash Devices supported. (Both of these are more-or-less the same, just different sizes
  61:../../libs/libDaisy/src/per/qspi.h ****         enum Device
  62:../../libs/libDaisy/src/per/qspi.h ****         {
  63:../../libs/libDaisy/src/per/qspi.h ****             IS25LP080D,  /**< & */
  64:../../libs/libDaisy/src/per/qspi.h ****             IS25LP064A,  /**< & */
  65:../../libs/libDaisy/src/per/qspi.h ****             DEVICE_LAST, /**< & */
  66:../../libs/libDaisy/src/per/qspi.h ****         };
  67:../../libs/libDaisy/src/per/qspi.h **** 
  68:../../libs/libDaisy/src/per/qspi.h ****         /** 
  69:../../libs/libDaisy/src/per/qspi.h ****         Modes of operation.
  70:../../libs/libDaisy/src/per/qspi.h ****         Memory Mapped mode: QSPI configured so that the QSPI can be
  71:../../libs/libDaisy/src/per/qspi.h ****         read from starting address 0x90000000. Writing is not
  72:../../libs/libDaisy/src/per/qspi.h ****         possible in this mode. \n 
  73:../../libs/libDaisy/src/per/qspi.h ****         Indirect Polling mode: Device driver enabled. 
  74:../../libs/libDaisy/src/per/qspi.h ****         */
  75:../../libs/libDaisy/src/per/qspi.h ****         enum Mode
  76:../../libs/libDaisy/src/per/qspi.h ****         {
  77:../../libs/libDaisy/src/per/qspi.h ****             MEMORY_MAPPED,    /**< & */
  78:../../libs/libDaisy/src/per/qspi.h ****             INDIRECT_POLLING, /**< & */
  79:../../libs/libDaisy/src/per/qspi.h ****             MODE_LAST,
  80:../../libs/libDaisy/src/per/qspi.h ****         };
  81:../../libs/libDaisy/src/per/qspi.h **** 
  82:../../libs/libDaisy/src/per/qspi.h ****         //SCK,  CE# (active low)
  83:../../libs/libDaisy/src/per/qspi.h ****         struct
  84:../../libs/libDaisy/src/per/qspi.h ****         {
  85:../../libs/libDaisy/src/per/qspi.h ****             Pin io0; /**< & */
  86:../../libs/libDaisy/src/per/qspi.h ****             Pin io1; /**< & */
  87:../../libs/libDaisy/src/per/qspi.h ****             Pin io2; /**< & */
  88:../../libs/libDaisy/src/per/qspi.h ****             Pin io3; /**< & */
  89:../../libs/libDaisy/src/per/qspi.h ****             Pin clk; /**< & */
  90:../../libs/libDaisy/src/per/qspi.h ****             Pin ncs; /**< & */
  91:../../libs/libDaisy/src/per/qspi.h ****         } pin_config;
  92:../../libs/libDaisy/src/per/qspi.h **** 
  93:../../libs/libDaisy/src/per/qspi.h ****         Device device;
  94:../../libs/libDaisy/src/per/qspi.h ****         Mode   mode;
  95:../../libs/libDaisy/src/per/qspi.h ****     };
  96:../../libs/libDaisy/src/per/qspi.h **** 
  97:../../libs/libDaisy/src/per/qspi.h ****     /** 
ARM GAS  C:\Users\matte\AppData\Local\Temp\ccIv7HUw.s 			page 86


  98:../../libs/libDaisy/src/per/qspi.h ****         Initializes QSPI peripheral, and Resets, and prepares memory for access.
  99:../../libs/libDaisy/src/per/qspi.h ****         \param config should be populated with the mode, device and pin_config before calling this 
 100:../../libs/libDaisy/src/per/qspi.h ****         \return Result::OK or Result::ERR
 101:../../libs/libDaisy/src/per/qspi.h ****         */
 102:../../libs/libDaisy/src/per/qspi.h ****     Result Init(const Config& config);
 103:../../libs/libDaisy/src/per/qspi.h **** 
 104:../../libs/libDaisy/src/per/qspi.h ****     /** Returns the current config. */
 105:../../libs/libDaisy/src/per/qspi.h ****     const Config& GetConfig() const;
 106:../../libs/libDaisy/src/per/qspi.h **** 
 107:../../libs/libDaisy/src/per/qspi.h ****     // Couldn't this just be called before anything else in init? That
 108:../../libs/libDaisy/src/per/qspi.h ****     // would make manually calling it unnecessary.
 109:../../libs/libDaisy/src/per/qspi.h ****     /** 
 110:../../libs/libDaisy/src/per/qspi.h ****         Deinitializes the peripheral
 111:../../libs/libDaisy/src/per/qspi.h ****         This should be called before reinitializing QSPI in a different mode.
 112:../../libs/libDaisy/src/per/qspi.h ****         \return Result::OK or Result::ERR
 113:../../libs/libDaisy/src/per/qspi.h ****         */
 114:../../libs/libDaisy/src/per/qspi.h ****     Result DeInit();
 115:../../libs/libDaisy/src/per/qspi.h **** 
 116:../../libs/libDaisy/src/per/qspi.h ****     /** 
 117:../../libs/libDaisy/src/per/qspi.h ****         Writes a single page to to the specified address on the QSPI chip.
 118:../../libs/libDaisy/src/per/qspi.h ****         For IS25LP*, page size is 256 bytes.
 119:../../libs/libDaisy/src/per/qspi.h ****         \param address Address to write to
 120:../../libs/libDaisy/src/per/qspi.h ****         \param size Buffer size
 121:../../libs/libDaisy/src/per/qspi.h ****         \param buffer Buffer to write
 122:../../libs/libDaisy/src/per/qspi.h ****         \return Result::OK or Result::ERR
 123:../../libs/libDaisy/src/per/qspi.h ****         */
 124:../../libs/libDaisy/src/per/qspi.h ****     Result WritePage(uint32_t address, uint32_t size, uint8_t* buffer);
 125:../../libs/libDaisy/src/per/qspi.h **** 
 126:../../libs/libDaisy/src/per/qspi.h ****     /** 
 127:../../libs/libDaisy/src/per/qspi.h ****         Writes data in buffer to to the QSPI. Starting at address to address+size 
 128:../../libs/libDaisy/src/per/qspi.h ****         \param address Address to write to
 129:../../libs/libDaisy/src/per/qspi.h ****         \param size Buffer size
 130:../../libs/libDaisy/src/per/qspi.h ****         \param buffer Buffer to write
 131:../../libs/libDaisy/src/per/qspi.h ****         \return Result::OK or Result::ERR
 132:../../libs/libDaisy/src/per/qspi.h ****         */
 133:../../libs/libDaisy/src/per/qspi.h ****     Result Write(uint32_t address, uint32_t size, uint8_t* buffer);
 134:../../libs/libDaisy/src/per/qspi.h **** 
 135:../../libs/libDaisy/src/per/qspi.h ****     /** 
 136:../../libs/libDaisy/src/per/qspi.h ****         Erases the area specified on the chip.
 137:../../libs/libDaisy/src/per/qspi.h ****         Erasures will happen by 4K, 32K or 64K increments.
 138:../../libs/libDaisy/src/per/qspi.h ****         Smallest erase possible is 4kB at a time. (on IS25LP*)
 139:../../libs/libDaisy/src/per/qspi.h ****         \param start_addr Address to begin erasing from
 140:../../libs/libDaisy/src/per/qspi.h ****         \param end_addr  Address to stop erasing at
 141:../../libs/libDaisy/src/per/qspi.h ****         \return Result::OK or Result::ERR
 142:../../libs/libDaisy/src/per/qspi.h ****         */
 143:../../libs/libDaisy/src/per/qspi.h ****     Result Erase(uint32_t start_addr, uint32_t end_addr);
 144:../../libs/libDaisy/src/per/qspi.h **** 
 145:../../libs/libDaisy/src/per/qspi.h ****     /**  
 146:../../libs/libDaisy/src/per/qspi.h ****          Erases a single sector of the chip.  
 147:../../libs/libDaisy/src/per/qspi.h ****         TODO: Document the size of this function. 
 148:../../libs/libDaisy/src/per/qspi.h ****         \param address Address of sector to erase
 149:../../libs/libDaisy/src/per/qspi.h ****         \return Result::OK or Result::ERR
 150:../../libs/libDaisy/src/per/qspi.h ****         */
 151:../../libs/libDaisy/src/per/qspi.h ****     Result EraseSector(uint32_t address);
 152:../../libs/libDaisy/src/per/qspi.h **** 
 153:../../libs/libDaisy/src/per/qspi.h ****     /** Returns the current class status. Useful for debugging.
 154:../../libs/libDaisy/src/per/qspi.h ****      *  \returns Status
ARM GAS  C:\Users\matte\AppData\Local\Temp\ccIv7HUw.s 			page 87


 155:../../libs/libDaisy/src/per/qspi.h ****      */
 156:../../libs/libDaisy/src/per/qspi.h ****     Status GetStatus();
 157:../../libs/libDaisy/src/per/qspi.h **** 
 158:../../libs/libDaisy/src/per/qspi.h ****     /** Returns a pointer to the actual memory used 
 159:../../libs/libDaisy/src/per/qspi.h ****      *  The memory at this address is read-only
 160:../../libs/libDaisy/src/per/qspi.h ****      *  to write to it use the Write function.
 161:../../libs/libDaisy/src/per/qspi.h ****      * 
 162:../../libs/libDaisy/src/per/qspi.h ****      *  \param offset returns the pointer starting this 
 163:../../libs/libDaisy/src/per/qspi.h ****      *                many bytes into the memory
 164:../../libs/libDaisy/src/per/qspi.h ****     */
 165:../../libs/libDaisy/src/per/qspi.h ****     void* GetData(uint32_t offset = 0);
 166:../../libs/libDaisy/src/per/qspi.h **** 
 167:../../libs/libDaisy/src/per/qspi.h ****     QSPIHandle() : pimpl_(nullptr) {}
 2742              		.loc 14 167 5 view .LVU724
 2743              		.loc 14 167 5 is_stmt 0 view .LVU725
 2744              	.LBE913:
 2745              	.LBB918:
 2746              	.LBI918:
  58:../../libs/libDaisy/src/per/qspi.h ****     {
 2747              		.loc 14 58 12 is_stmt 1 view .LVU726
 2748              	.LBB919:
 2749              	.LBI919:
  84:../../libs/libDaisy/src/per/qspi.h ****             Pin io0; /**< & */
 2750              		.loc 14 84 9 view .LVU727
 2751              	.LBB920:
 2752              	.LBI920:
 2753              		.loc 12 204 15 view .LVU728
 2754              		.loc 12 204 15 is_stmt 0 view .LVU729
 2755              	.LBE920:
 2756              	.LBB921:
 2757              	.LBI921:
 2758              		.loc 12 204 15 is_stmt 1 view .LVU730
 2759              		.loc 12 204 15 is_stmt 0 view .LVU731
 2760              	.LBE921:
 2761              	.LBB922:
 2762              	.LBI922:
 2763              		.loc 12 204 15 is_stmt 1 view .LVU732
 2764              		.loc 12 204 15 is_stmt 0 view .LVU733
 2765              	.LBE922:
 2766              	.LBB923:
 2767              	.LBI923:
 2768              		.loc 12 204 15 is_stmt 1 view .LVU734
 2769              		.loc 12 204 15 is_stmt 0 view .LVU735
 2770              	.LBE923:
 2771              	.LBB924:
 2772              	.LBI924:
 2773              		.loc 12 204 15 is_stmt 1 view .LVU736
 2774              		.loc 12 204 15 is_stmt 0 view .LVU737
 2775              	.LBE924:
 2776              	.LBB925:
 2777              	.LBI925:
 2778              		.loc 12 204 15 is_stmt 1 view .LVU738
 2779              		.loc 12 204 15 is_stmt 0 view .LVU739
 2780              	.LBE925:
 2781              	.LBE919:
 2782              	.LBE918:
 2783              	.LBB926:
ARM GAS  C:\Users\matte\AppData\Local\Temp\ccIv7HUw.s 			page 88


 2784              	.LBI926:
  87:../../libs/libDaisy/src/hid/audio.h ****     ~AudioHandle() {}
 2785              		.loc 6 87 5 is_stmt 1 view .LVU740
  87:../../libs/libDaisy/src/hid/audio.h ****     ~AudioHandle() {}
 2786              		.loc 6 87 5 is_stmt 0 view .LVU741
 2787              	.LBE926:
 2788              	.LBB929:
 2789              	.LBI929:
 109:../../libs/libDaisy/src/per/adc.h ****     ~AdcHandle() {}
 2790              		.loc 5 109 5 is_stmt 1 view .LVU742
 109:../../libs/libDaisy/src/per/adc.h ****     ~AdcHandle() {}
 2791              		.loc 5 109 5 is_stmt 0 view .LVU743
 2792              	.LBE929:
 2793              	.LBB930:
 2794              	.LBI930:
 2795              		.file 15 "../../libs/libDaisy/src/per/dac.h"
   1:../../libs/libDaisy/src/per/dac.h **** #pragma once
   2:../../libs/libDaisy/src/per/dac.h **** #ifndef DSY_DAC_H
   3:../../libs/libDaisy/src/per/dac.h **** #define DSY_DAC_H
   4:../../libs/libDaisy/src/per/dac.h **** #include "stm32h7xx_hal.h"
   5:../../libs/libDaisy/src/per/dac.h **** #include "daisy_core.h"
   6:../../libs/libDaisy/src/per/dac.h **** 
   7:../../libs/libDaisy/src/per/dac.h **** namespace daisy
   8:../../libs/libDaisy/src/per/dac.h **** {
   9:../../libs/libDaisy/src/per/dac.h **** /** @brief DAC handle for Built-in DAC Peripheral 
  10:../../libs/libDaisy/src/per/dac.h ****  *  @ingroup per_analog
  11:../../libs/libDaisy/src/per/dac.h ****  ** 
  12:../../libs/libDaisy/src/per/dac.h ****  ** For now only Normal Mode is supported,
  13:../../libs/libDaisy/src/per/dac.h ****  ** Sample and hold mode provides reduced power consumption, but requires a bit more setup.
  14:../../libs/libDaisy/src/per/dac.h ****  **
  15:../../libs/libDaisy/src/per/dac.h ****  ** For now connecting the DAC through other internal peripherals is also not supported.
  16:../../libs/libDaisy/src/per/dac.h ****  **
  17:../../libs/libDaisy/src/per/dac.h ****  ** Since the DAC channels have dedicated pins we don't need to pass in a pin config like with
  18:../../libs/libDaisy/src/per/dac.h ****  ** other modules. However, it is still important to not try to use the DAC pins for anything else.
  19:../../libs/libDaisy/src/per/dac.h ****  ** DAC Channel 1 is on PA4, and DAC Channel 2 is on PA5
  20:../../libs/libDaisy/src/per/dac.h ****  ***/
  21:../../libs/libDaisy/src/per/dac.h **** class DacHandle
  22:../../libs/libDaisy/src/per/dac.h **** {
  23:../../libs/libDaisy/src/per/dac.h ****   public:
  24:../../libs/libDaisy/src/per/dac.h ****     /** Return Values for the DacHandle class */
  25:../../libs/libDaisy/src/per/dac.h ****     enum class Result
  26:../../libs/libDaisy/src/per/dac.h ****     {
  27:../../libs/libDaisy/src/per/dac.h ****         OK,
  28:../../libs/libDaisy/src/per/dac.h ****         ERR,
  29:../../libs/libDaisy/src/per/dac.h ****     };
  30:../../libs/libDaisy/src/per/dac.h **** 
  31:../../libs/libDaisy/src/per/dac.h ****     /** Selects which channel(s) will be configured for use. */
  32:../../libs/libDaisy/src/per/dac.h ****     enum class Channel
  33:../../libs/libDaisy/src/per/dac.h ****     {
  34:../../libs/libDaisy/src/per/dac.h ****         ONE,
  35:../../libs/libDaisy/src/per/dac.h ****         TWO,
  36:../../libs/libDaisy/src/per/dac.h ****         BOTH,
  37:../../libs/libDaisy/src/per/dac.h ****     };
  38:../../libs/libDaisy/src/per/dac.h **** 
  39:../../libs/libDaisy/src/per/dac.h ****     /** Sets the Mode for the DAC channels.
  40:../../libs/libDaisy/src/per/dac.h ****      **
  41:../../libs/libDaisy/src/per/dac.h ****      ** Polling mode uses the blocking mode to transmit a single value at a time.
ARM GAS  C:\Users\matte\AppData\Local\Temp\ccIv7HUw.s 			page 89


  42:../../libs/libDaisy/src/per/dac.h ****      **
  43:../../libs/libDaisy/src/per/dac.h ****      ** DMA mode uses a buffer, and periodically transmits it triggering a 
  44:../../libs/libDaisy/src/per/dac.h ****      ** callback to fill the buffer when it is ready for more samples.
  45:../../libs/libDaisy/src/per/dac.h ****      ***/
  46:../../libs/libDaisy/src/per/dac.h ****     enum class Mode
  47:../../libs/libDaisy/src/per/dac.h ****     {
  48:../../libs/libDaisy/src/per/dac.h ****         POLLING,
  49:../../libs/libDaisy/src/per/dac.h ****         DMA,
  50:../../libs/libDaisy/src/per/dac.h ****     };
  51:../../libs/libDaisy/src/per/dac.h **** 
  52:../../libs/libDaisy/src/per/dac.h ****     /** Sets the number of bits per sample transmitted out of the DAC.
  53:../../libs/libDaisy/src/per/dac.h ****      ** The output range will be: 0V - VDDA
  54:../../libs/libDaisy/src/per/dac.h ****      ** The resolution will be roughly: bitdepth / (VDDA - 0V) 
  55:../../libs/libDaisy/src/per/dac.h ****      ***/
  56:../../libs/libDaisy/src/per/dac.h ****     enum class BitDepth
  57:../../libs/libDaisy/src/per/dac.h ****     {
  58:../../libs/libDaisy/src/per/dac.h ****         BITS_8,
  59:../../libs/libDaisy/src/per/dac.h ****         BITS_12
  60:../../libs/libDaisy/src/per/dac.h ****     };
  61:../../libs/libDaisy/src/per/dac.h **** 
  62:../../libs/libDaisy/src/per/dac.h ****     /** Sets whether the DAC output is buffered for higher drive ability. */
  63:../../libs/libDaisy/src/per/dac.h ****     enum class BufferState
  64:../../libs/libDaisy/src/per/dac.h ****     {
  65:../../libs/libDaisy/src/per/dac.h ****         ENABLED,
  66:../../libs/libDaisy/src/per/dac.h ****         DISABLED,
  67:../../libs/libDaisy/src/per/dac.h ****     };
  68:../../libs/libDaisy/src/per/dac.h **** 
  69:../../libs/libDaisy/src/per/dac.h ****     /** Configuration structure for initializing the DAC structure. */
  70:../../libs/libDaisy/src/per/dac.h ****     struct Config
  71:../../libs/libDaisy/src/per/dac.h ****     {
  72:../../libs/libDaisy/src/per/dac.h ****         /** Target Samplerate in Hz used to configure the internal 
  73:../../libs/libDaisy/src/per/dac.h ****          ** timebase for DMA mode. Does nothing in POLLING mode.
  74:../../libs/libDaisy/src/per/dac.h ****          ** If the value is 0 at Init time this will default to 48000Hz 
  75:../../libs/libDaisy/src/per/dac.h ****          ** otherwise the driver will attempt meet the target.*/
  76:../../libs/libDaisy/src/per/dac.h ****         uint32_t target_samplerate;
  77:../../libs/libDaisy/src/per/dac.h **** 
  78:../../libs/libDaisy/src/per/dac.h ****         Channel     chn;
  79:../../libs/libDaisy/src/per/dac.h ****         Mode        mode;
  80:../../libs/libDaisy/src/per/dac.h ****         BitDepth    bitdepth;
  81:../../libs/libDaisy/src/per/dac.h ****         BufferState buff_state;
  82:../../libs/libDaisy/src/per/dac.h ****     };
  83:../../libs/libDaisy/src/per/dac.h **** 
  84:../../libs/libDaisy/src/per/dac.h ****     DacHandle() : pimpl_(nullptr) {}
 2796              		.loc 15 84 5 is_stmt 1 view .LVU744
 2797              		.loc 15 84 5 is_stmt 0 view .LVU745
 2798              	.LBE930:
 2799              	.LBB933:
 2800              	.LBI933:
  40:../../libs/libDaisy//src/hid/usb.h **** 
 2801              		.loc 4 40 5 is_stmt 1 view .LVU746
  40:../../libs/libDaisy//src/hid/usb.h **** 
 2802              		.loc 4 40 5 is_stmt 0 view .LVU747
 2803              	.LBE933:
 2804              	.LBB934:
 2805              	.LBI934:
 2806              		.file 16 "../../libs/libDaisy/src/per/gpio.h"
   1:../../libs/libDaisy/src/per/gpio.h **** #pragma once
ARM GAS  C:\Users\matte\AppData\Local\Temp\ccIv7HUw.s 			page 90


   2:../../libs/libDaisy/src/per/gpio.h **** #ifndef DSY_GPIO_H
   3:../../libs/libDaisy/src/per/gpio.h **** #define DSY_GPIO_H
   4:../../libs/libDaisy/src/per/gpio.h **** #include "daisy_core.h"
   5:../../libs/libDaisy/src/per/gpio.h **** 
   6:../../libs/libDaisy/src/per/gpio.h **** #ifdef __cplusplus
   7:../../libs/libDaisy/src/per/gpio.h **** 
   8:../../libs/libDaisy/src/per/gpio.h **** namespace daisy
   9:../../libs/libDaisy/src/per/gpio.h **** {
  10:../../libs/libDaisy/src/per/gpio.h **** /** @brief General Purpose I/O control 
  11:../../libs/libDaisy/src/per/gpio.h ****  *  @details peripheral control over a single GPIO
  12:../../libs/libDaisy/src/per/gpio.h ****  *  @ingroup peripheral
  13:../../libs/libDaisy/src/per/gpio.h ****  *   
  14:../../libs/libDaisy/src/per/gpio.h ****  *  Button Input (with internal Pullup resistor)
  15:../../libs/libDaisy/src/per/gpio.h ****  *  @include GPIO_Input.cpp 
  16:../../libs/libDaisy/src/per/gpio.h ****  * 
  17:../../libs/libDaisy/src/per/gpio.h ****  *  Output Example (perfect for blinking an LED)
  18:../../libs/libDaisy/src/per/gpio.h ****  *  @include GPIO_Output.cpp
  19:../../libs/libDaisy/src/per/gpio.h ****  * 
  20:../../libs/libDaisy/src/per/gpio.h **** */
  21:../../libs/libDaisy/src/per/gpio.h **** class GPIO
  22:../../libs/libDaisy/src/per/gpio.h **** {
  23:../../libs/libDaisy/src/per/gpio.h ****   public:
  24:../../libs/libDaisy/src/per/gpio.h ****     /** @brief Mode of operation for the specified GPIO */
  25:../../libs/libDaisy/src/per/gpio.h ****     enum class Mode
  26:../../libs/libDaisy/src/per/gpio.h ****     {
  27:../../libs/libDaisy/src/per/gpio.h ****         INPUT,      /**< Input for reading state of pin */
  28:../../libs/libDaisy/src/per/gpio.h ****         OUTPUT,     /**< Output w/ push-pull configuration */
  29:../../libs/libDaisy/src/per/gpio.h ****         OPEN_DRAIN, /**< Output w/ open-drain configuration */
  30:../../libs/libDaisy/src/per/gpio.h ****         ANALOG,     /**< Analog for connection to ADC or DAC peripheral */
  31:../../libs/libDaisy/src/per/gpio.h ****     };
  32:../../libs/libDaisy/src/per/gpio.h **** 
  33:../../libs/libDaisy/src/per/gpio.h ****     /** @brief Configures whether an internal Pull up or Pull down resistor is used. 
  34:../../libs/libDaisy/src/per/gpio.h ****      *  
  35:../../libs/libDaisy/src/per/gpio.h ****      * Internal Pull up/down resistors are typically 40k ohms, and will be between
  36:../../libs/libDaisy/src/per/gpio.h ****      * 30k and 50k
  37:../../libs/libDaisy/src/per/gpio.h ****      * 
  38:../../libs/libDaisy/src/per/gpio.h ****      * When the Pin is configured in Analog mode, the pull up/down resistors are
  39:../../libs/libDaisy/src/per/gpio.h ****      * disabled by hardware. 
  40:../../libs/libDaisy/src/per/gpio.h ****      */
  41:../../libs/libDaisy/src/per/gpio.h ****     enum class Pull
  42:../../libs/libDaisy/src/per/gpio.h ****     {
  43:../../libs/libDaisy/src/per/gpio.h ****         NOPULL,   /**< No pull up resistor */
  44:../../libs/libDaisy/src/per/gpio.h ****         PULLUP,   /**< Internal pull up enabled */
  45:../../libs/libDaisy/src/per/gpio.h ****         PULLDOWN, /**< Internal pull down enabled*/
  46:../../libs/libDaisy/src/per/gpio.h ****     };
  47:../../libs/libDaisy/src/per/gpio.h **** 
  48:../../libs/libDaisy/src/per/gpio.h ****     /** @brief Output speed controls the drive strength, and slew rate of the pin */
  49:../../libs/libDaisy/src/per/gpio.h ****     enum class Speed
  50:../../libs/libDaisy/src/per/gpio.h ****     {
  51:../../libs/libDaisy/src/per/gpio.h ****         LOW,
  52:../../libs/libDaisy/src/per/gpio.h ****         MEDIUM,
  53:../../libs/libDaisy/src/per/gpio.h ****         HIGH,
  54:../../libs/libDaisy/src/per/gpio.h ****         VERY_HIGH,
  55:../../libs/libDaisy/src/per/gpio.h ****     };
  56:../../libs/libDaisy/src/per/gpio.h **** 
  57:../../libs/libDaisy/src/per/gpio.h ****     /** @brief Configuration for a given GPIO */
  58:../../libs/libDaisy/src/per/gpio.h ****     struct Config
ARM GAS  C:\Users\matte\AppData\Local\Temp\ccIv7HUw.s 			page 91


  59:../../libs/libDaisy/src/per/gpio.h ****     {
  60:../../libs/libDaisy/src/per/gpio.h ****         Pin   pin;
  61:../../libs/libDaisy/src/per/gpio.h ****         Mode  mode;
  62:../../libs/libDaisy/src/per/gpio.h ****         Pull  pull;
  63:../../libs/libDaisy/src/per/gpio.h ****         Speed speed;
  64:../../libs/libDaisy/src/per/gpio.h **** 
  65:../../libs/libDaisy/src/per/gpio.h ****         /** Constructor with no arguments will prepare an invalid GPIO set as
  66:../../libs/libDaisy/src/per/gpio.h ****          *  an input, with no pullup. 
  67:../../libs/libDaisy/src/per/gpio.h ****          */
  68:../../libs/libDaisy/src/per/gpio.h ****         Config()
  69:../../libs/libDaisy/src/per/gpio.h ****         : pin(), mode(Mode::INPUT), pull(Pull::NOPULL), speed(Speed::LOW)
  70:../../libs/libDaisy/src/per/gpio.h ****         {
  71:../../libs/libDaisy/src/per/gpio.h ****         }
  72:../../libs/libDaisy/src/per/gpio.h ****     };
  73:../../libs/libDaisy/src/per/gpio.h **** 
  74:../../libs/libDaisy/src/per/gpio.h ****     GPIO() {}
 2807              		.loc 16 74 5 is_stmt 1 view .LVU748
 2808              	.LBB935:
 2809              	.LBB936:
 2810              	.LBI936:
  68:../../libs/libDaisy/src/per/gpio.h ****         : pin(), mode(Mode::INPUT), pull(Pull::NOPULL), speed(Speed::LOW)
 2811              		.loc 16 68 9 view .LVU749
 2812              	.LBB937:
 2813              	.LBB938:
 2814              	.LBB939:
 2815              	.LBI939:
 2816              		.loc 12 204 15 view .LVU750
 2817              		.loc 12 204 15 is_stmt 0 view .LVU751
 2818              	.LBE939:
 2819              	.LBE938:
 2820              	.LBE937:
 2821              	.LBE936:
 2822              	.LBE935:
 2823              	.LBE934:
 2824              	.LBB948:
 2825              	.LBI948:
 2826              		.loc 16 74 5 is_stmt 1 view .LVU752
 2827              	.LBB949:
 2828              	.LBB950:
 2829              	.LBI950:
  68:../../libs/libDaisy/src/per/gpio.h ****         : pin(), mode(Mode::INPUT), pull(Pull::NOPULL), speed(Speed::LOW)
 2830              		.loc 16 68 9 view .LVU753
 2831              	.LBB951:
 2832              	.LBB952:
 2833              	.LBB953:
 2834              	.LBI953:
 2835              		.loc 12 204 15 view .LVU754
 2836              		.loc 12 204 15 is_stmt 0 view .LVU755
 2837              	.LBE953:
 2838              	.LBE952:
 2839              	.LBE951:
 2840              	.LBE950:
 2841              	.LBE949:
 2842              	.LBE948:
 2843              	.LBB962:
 2844              	.LBI962:
  96:../../libs/libDaisy/src/sys/system.h ****     ~System() {}
ARM GAS  C:\Users\matte\AppData\Local\Temp\ccIv7HUw.s 			page 92


 2845              		.loc 3 96 5 is_stmt 1 view .LVU756
  96:../../libs/libDaisy/src/sys/system.h ****     ~System() {}
 2846              		.loc 3 96 5 is_stmt 0 view .LVU757
 2847              	.LBE962:
 2848              	.LBB963:
 2849              	.LBI963:
  20:../../libs/libDaisy/src/dev/codec_ak4556.h ****     ~Ak4556() {}
 2850              		.loc 2 20 5 is_stmt 1 view .LVU758
 2851              	.LBB964:
 2852              	.LBI964:
 2853              		.loc 16 74 5 view .LVU759
 2854              	.LBB965:
 2855              	.LBB966:
 2856              	.LBI966:
  68:../../libs/libDaisy/src/per/gpio.h ****         : pin(), mode(Mode::INPUT), pull(Pull::NOPULL), speed(Speed::LOW)
 2857              		.loc 16 68 9 view .LVU760
 2858              	.LBB967:
 2859              	.LBB968:
 2860              	.LBB969:
 2861              	.LBI969:
 2862              		.loc 12 204 15 view .LVU761
 2863              		.loc 12 204 15 is_stmt 0 view .LVU762
 2864              	.LBE969:
 2865              	.LBE968:
 2866              	.LBE967:
 2867              	.LBE966:
 2868              	.LBE965:
 2869              	.LBE964:
 2870              	.LBE963:
 2871              	.LBB980:
 2872              	.LBI980:
 2873              		.file 17 "../../libs/libDaisy//src/per/sai.h"
   1:../../libs/libDaisy//src/per/sai.h **** #pragma once
   2:../../libs/libDaisy//src/per/sai.h **** #ifndef DSY_SAI_H
   3:../../libs/libDaisy//src/per/sai.h **** #define DSY_SAI_H
   4:../../libs/libDaisy//src/per/sai.h **** 
   5:../../libs/libDaisy//src/per/sai.h **** #include "util/hal_map.h"
   6:../../libs/libDaisy//src/per/sai.h **** #include "daisy_core.h"
   7:../../libs/libDaisy//src/per/sai.h **** 
   8:../../libs/libDaisy//src/per/sai.h **** namespace daisy
   9:../../libs/libDaisy//src/per/sai.h **** {
  10:../../libs/libDaisy//src/per/sai.h **** /** 
  11:../../libs/libDaisy//src/per/sai.h ****  * Support for I2S Audio Protocol with different bit-depth, samplerate options
  12:../../libs/libDaisy//src/per/sai.h ****  * Allows for master or slave, as well as freedom of selecting direction, 
  13:../../libs/libDaisy//src/per/sai.h ****  * and other behavior for each peripheral, and block.
  14:../../libs/libDaisy//src/per/sai.h ****  * 
  15:../../libs/libDaisy//src/per/sai.h ****  * DMA Transfer commands must use buffers located within non-cached memory or use cache maintenance
  16:../../libs/libDaisy//src/per/sai.h ****  * To declare an unitialized global element in the DMA memory section:
  17:../../libs/libDaisy//src/per/sai.h ****  *    int32_t DSY_DMA_BUFFER_SECTOR my_buffer[96];
  18:../../libs/libDaisy//src/per/sai.h ****  *
  19:../../libs/libDaisy//src/per/sai.h ****  * Callback functions will be called once per half of the buffer. In the above example, 
  20:../../libs/libDaisy//src/per/sai.h ****  * the callback function would be called once for every 48 samples.
  21:../../libs/libDaisy//src/per/sai.h ****  * 
  22:../../libs/libDaisy//src/per/sai.h ****  * Use SAI Handle like this:
  23:../../libs/libDaisy//src/per/sai.h ****  * 
  24:../../libs/libDaisy//src/per/sai.h ****  *  SaiHandle::Config sai_config;
  25:../../libs/libDaisy//src/per/sai.h ****  *  sai_config.periph          = SaiHandle::Config::Peripheral::SAI_1;
ARM GAS  C:\Users\matte\AppData\Local\Temp\ccIv7HUw.s 			page 93


  26:../../libs/libDaisy//src/per/sai.h ****  *  sai_config.sr              = SaiHandle::Config::SampleRate::SAI_48KHZ;
  27:../../libs/libDaisy//src/per/sai.h ****  *  sai_config.bit_depth       = SaiHandle::Config::BitDepth::SAI_24BIT;
  28:../../libs/libDaisy//src/per/sai.h ****  *  sai_config.a_sync          = SaiHandle::Config::Sync::MASTER;
  29:../../libs/libDaisy//src/per/sai.h ****  *  sai_config.b_sync          = SaiHandle::Config::Sync::SLAVE;
  30:../../libs/libDaisy//src/per/sai.h ****  *  sai_config.a_dir           = SaiHandle::Config::Direction::RECEIVE;
  31:../../libs/libDaisy//src/per/sai.h ****  *  sai_config.b_dir           = SaiHandle::Config::Direction::TRANSMIT;
  32:../../libs/libDaisy//src/per/sai.h ****  *  sai_config.pin_config.fs   = {DSY_GPIOE, 4};
  33:../../libs/libDaisy//src/per/sai.h ****  *  sai_config.pin_config.mclk = {DSY_GPIOE, 2};
  34:../../libs/libDaisy//src/per/sai.h ****  *  sai_config.pin_config.sck  = {DSY_GPIOE, 5};
  35:../../libs/libDaisy//src/per/sai.h ****  *  sai_config.pin_config.sa   = {DSY_GPIOE, 6};
  36:../../libs/libDaisy//src/per/sai.h ****  *  sai_config.pin_config.sb   = {DSY_GPIOE, 3};
  37:../../libs/libDaisy//src/per/sai.h ****  *  // Then Initialize
  38:../../libs/libDaisy//src/per/sai.h ****  *  SaiHandle sai;
  39:../../libs/libDaisy//src/per/sai.h ****  *  sai.Init(sai_config);
  40:../../libs/libDaisy//src/per/sai.h ****  *  // Now you can use it:
  41:../../libs/libDaisy//src/per/sai.h ****  *  sai.StartDma(. . .);
  42:../../libs/libDaisy//src/per/sai.h ****  */
  43:../../libs/libDaisy//src/per/sai.h **** class SaiHandle
  44:../../libs/libDaisy//src/per/sai.h **** {
  45:../../libs/libDaisy//src/per/sai.h ****   public:
  46:../../libs/libDaisy//src/per/sai.h ****     /** Contains settings for initialising an SAI Interface */
  47:../../libs/libDaisy//src/per/sai.h ****     struct Config
  48:../../libs/libDaisy//src/per/sai.h ****     {
  49:../../libs/libDaisy//src/per/sai.h ****         /** Specifies the internal peripheral to use (mapped to different hardware pins) */
  50:../../libs/libDaisy//src/per/sai.h ****         enum class Peripheral
  51:../../libs/libDaisy//src/per/sai.h ****         {
  52:../../libs/libDaisy//src/per/sai.h ****             SAI_1,
  53:../../libs/libDaisy//src/per/sai.h ****             SAI_2,
  54:../../libs/libDaisy//src/per/sai.h ****         };
  55:../../libs/libDaisy//src/per/sai.h **** 
  56:../../libs/libDaisy//src/per/sai.h ****         /** Rate at which samples will be streaming to/from the device. */
  57:../../libs/libDaisy//src/per/sai.h ****         enum class SampleRate
  58:../../libs/libDaisy//src/per/sai.h ****         {
  59:../../libs/libDaisy//src/per/sai.h ****             SAI_8KHZ,
  60:../../libs/libDaisy//src/per/sai.h ****             SAI_16KHZ,
  61:../../libs/libDaisy//src/per/sai.h ****             SAI_32KHZ,
  62:../../libs/libDaisy//src/per/sai.h ****             SAI_48KHZ,
  63:../../libs/libDaisy//src/per/sai.h ****             SAI_96KHZ,
  64:../../libs/libDaisy//src/per/sai.h ****         };
  65:../../libs/libDaisy//src/per/sai.h **** 
  66:../../libs/libDaisy//src/per/sai.h ****         /** Bit Depth that the hardware expects to be transferred to/from the device. */
  67:../../libs/libDaisy//src/per/sai.h ****         enum class BitDepth
  68:../../libs/libDaisy//src/per/sai.h ****         {
  69:../../libs/libDaisy//src/per/sai.h ****             SAI_16BIT,
  70:../../libs/libDaisy//src/per/sai.h ****             SAI_24BIT,
  71:../../libs/libDaisy//src/per/sai.h ****             SAI_32BIT,
  72:../../libs/libDaisy//src/per/sai.h ****         };
  73:../../libs/libDaisy//src/per/sai.h **** 
  74:../../libs/libDaisy//src/per/sai.h ****         /** Specifies whether a particular block is the master or the slave 
  75:../../libs/libDaisy//src/per/sai.h ****          ** If both are set to slave, no MCLK signal will be used, and it is
  76:../../libs/libDaisy//src/per/sai.h ****          ** expected that the codec will have its own xtal.
  77:../../libs/libDaisy//src/per/sai.h ****          */
  78:../../libs/libDaisy//src/per/sai.h ****         enum class Sync
  79:../../libs/libDaisy//src/per/sai.h ****         {
  80:../../libs/libDaisy//src/per/sai.h ****             MASTER,
  81:../../libs/libDaisy//src/per/sai.h ****             SLAVE,
  82:../../libs/libDaisy//src/per/sai.h ****         };
ARM GAS  C:\Users\matte\AppData\Local\Temp\ccIv7HUw.s 			page 94


  83:../../libs/libDaisy//src/per/sai.h **** 
  84:../../libs/libDaisy//src/per/sai.h ****         /** Specifies the direction for each peripheral block. */
  85:../../libs/libDaisy//src/per/sai.h ****         enum class Direction
  86:../../libs/libDaisy//src/per/sai.h ****         {
  87:../../libs/libDaisy//src/per/sai.h ****             TRANSMIT,
  88:../../libs/libDaisy//src/per/sai.h ****             RECEIVE,
  89:../../libs/libDaisy//src/per/sai.h ****         };
  90:../../libs/libDaisy//src/per/sai.h **** 
  91:../../libs/libDaisy//src/per/sai.h ****         Peripheral periph;
  92:../../libs/libDaisy//src/per/sai.h ****         struct
  93:../../libs/libDaisy//src/per/sai.h ****         {
  94:../../libs/libDaisy//src/per/sai.h ****             Pin mclk, fs, sck, sa, sb;
  95:../../libs/libDaisy//src/per/sai.h ****         } pin_config;
  96:../../libs/libDaisy//src/per/sai.h ****         SampleRate sr;
  97:../../libs/libDaisy//src/per/sai.h ****         BitDepth   bit_depth;
  98:../../libs/libDaisy//src/per/sai.h ****         Sync       a_sync, b_sync;
  99:../../libs/libDaisy//src/per/sai.h ****         Direction  a_dir, b_dir;
 100:../../libs/libDaisy//src/per/sai.h ****     };
 101:../../libs/libDaisy//src/per/sai.h **** 
 102:../../libs/libDaisy//src/per/sai.h ****     /** Return values for SAI functions */
 103:../../libs/libDaisy//src/per/sai.h ****     enum class Result
 104:../../libs/libDaisy//src/per/sai.h ****     {
 105:../../libs/libDaisy//src/per/sai.h ****         OK,
 106:../../libs/libDaisy//src/per/sai.h ****         ERR,
 107:../../libs/libDaisy//src/per/sai.h ****     };
 108:../../libs/libDaisy//src/per/sai.h **** 
 109:../../libs/libDaisy//src/per/sai.h ****     SaiHandle() : pimpl_(nullptr) {}
 2874              		.loc 17 109 5 is_stmt 1 view .LVU763
 2875              	.LBE980:
  21:../../libs/libDaisy/src/daisy_seed.h ****     ~DaisySeed() {}
 2876              		.loc 1 21 17 is_stmt 0 view .LVU764
 2877 007a 4FF60B73 		movw	r3, #65291
 2878              	.LBB983:
 2879              	.LBB914:
 2880              	.LBB915:
 2881              		.loc 14 167 34 view .LVU765
 2882 007e 5C48     		ldr	r0, .L60+48
 2883              	.LBE915:
 2884              	.LBE914:
 2885              	.LBE983:
  21:../../libs/libDaisy/src/daisy_seed.h ****     ~DaisySeed() {}
 2886              		.loc 1 21 17 view .LVU766
 2887 0080 6FF0F412 		mvn	r2, #15991028
 2888              	.LBE912:
 2889              	.LBE911:
  20:main.cpp      **** DaisySeed hw;
 2890              		.loc 10 20 11 view .LVU767
 2891 0084 5B49     		ldr	r1, .L60+52
 2892              	.LBB996:
 2893              	.LBB994:
  21:../../libs/libDaisy/src/daisy_seed.h ****     ~DaisySeed() {}
 2894              		.loc 1 21 17 view .LVU768
 2895 0086 8365     		str	r3, [r0, #88]
 2896              	.LBB984:
 2897              	.LBB917:
 2898              	.LBB916:
 2899              		.loc 14 167 34 view .LVU769
ARM GAS  C:\Users\matte\AppData\Local\Temp\ccIv7HUw.s 			page 95


 2900 0088 0660     		str	r6, [r0]
 2901              	.LBE916:
 2902              	.LBE917:
 2903              	.LBE984:
 2904              	.LBB985:
 2905              	.LBB927:
 2906              	.LBB928:
  87:../../libs/libDaisy/src/hid/audio.h ****     ~AudioHandle() {}
 2907              		.loc 6 87 35 view .LVU770
 2908 008a 4661     		str	r6, [r0, #20]
 2909              	.LBE928:
 2910              	.LBE927:
 2911              	.LBE985:
  21:../../libs/libDaisy/src/daisy_seed.h ****     ~DaisySeed() {}
 2912              		.loc 1 21 17 view .LVU771
 2913 008c C260     		str	r2, [r0, #12]
 2914              	.LBB986:
 2915              	.LBB931:
 2916              	.LBB932:
 2917              		.loc 15 84 33 view .LVU772
 2918 008e 0662     		str	r6, [r0, #32]
 2919              	.LBE932:
 2920              	.LBE931:
 2921              	.LBE986:
 2922              	.LBB987:
 2923              	.LBB978:
 2924              	.LBB976:
 2925              	.LBB974:
 2926              	.LBB972:
 2927              	.LBB970:
  69:../../libs/libDaisy/src/per/gpio.h ****         {
 2928              		.loc 16 69 73 view .LVU773
 2929 0090 4666     		str	r6, [r0, #100]
 2930              	.LBE970:
 2931              	.LBE972:
 2932              	.LBE974:
 2933              	.LBE976:
 2934              	.LBE978:
 2935              	.LBE987:
 2936              	.LBB988:
 2937              	.LBB981:
 2938              	.LBB982:
 2939              		.loc 17 109 33 view .LVU774
 2940 0092 0667     		str	r6, [r0, #112]
 2941              	.LVL210:
 2942              		.loc 17 109 33 view .LVU775
 2943              	.LBE982:
 2944              	.LBE981:
 2945              	.LBE988:
 2946              	.LBB989:
 2947              	.LBB946:
 2948              	.LBB944:
 2949              	.LBB942:
 2950              	.LBB940:
  69:../../libs/libDaisy/src/per/gpio.h ****         {
 2951              		.loc 16 69 73 view .LVU776
 2952 0094 C0E90A36 		strd	r3, r6, [r0, #40]
ARM GAS  C:\Users\matte\AppData\Local\Temp\ccIv7HUw.s 			page 96


 2953              	.LBE940:
 2954              	.LBE942:
 2955              	.LBE944:
 2956              	.LBE946:
 2957              	.LBE989:
 2958              	.LBB990:
 2959              	.LBB960:
 2960              	.LBB958:
 2961              	.LBB956:
 2962              	.LBB954:
 2963 0098 C0E90F36 		strd	r3, r6, [r0, #60]
 2964              	.LBE954:
 2965              	.LBE956:
 2966              	.LBE958:
 2967              	.LBE960:
 2968              	.LBE990:
  21:../../libs/libDaisy/src/daisy_seed.h ****     ~DaisySeed() {}
 2969              		.loc 1 21 17 view .LVU777
 2970 009c C0E90122 		strd	r2, r2, [r0, #4]
 2971              	.LBB991:
 2972              	.LBB947:
 2973              	.LBB945:
 2974              	.LBB943:
 2975              	.LBB941:
  69:../../libs/libDaisy/src/per/gpio.h ****         {
 2976              		.loc 16 69 73 view .LVU778
 2977 00a0 C0E90C66 		strd	r6, r6, [r0, #48]
 2978              	.LBE941:
 2979              	.LBE943:
 2980              	.LBE945:
 2981              	.LBE947:
 2982              	.LBE991:
 2983              	.LBE994:
 2984              	.LBE996:
  20:main.cpp      **** DaisySeed hw;
 2985              		.loc 10 20 11 view .LVU779
 2986 00a4 3A46     		mov	r2, r7
 2987              	.LBB997:
 2988              	.LBB995:
 2989              	.LBB992:
 2990              	.LBB961:
 2991              	.LBB959:
 2992              	.LBB957:
 2993              	.LBB955:
  69:../../libs/libDaisy/src/per/gpio.h ****         {
 2994              		.loc 16 69 73 view .LVU780
 2995 00a6 C0E91166 		strd	r6, r6, [r0, #68]
 2996              	.LBE955:
 2997              	.LBE957:
 2998              	.LBE959:
 2999              	.LBE961:
 3000              	.LBE992:
 3001              	.LBB993:
 3002              	.LBB979:
 3003              	.LBB977:
 3004              	.LBB975:
 3005              	.LBB973:
ARM GAS  C:\Users\matte\AppData\Local\Temp\ccIv7HUw.s 			page 97


 3006              	.LBB971:
 3007 00aa C0E91766 		strd	r6, r6, [r0, #92]
 3008              	.LBE971:
 3009              	.LBE973:
 3010              	.LBE975:
 3011              	.LBE977:
 3012              	.LBE979:
 3013              	.LBE993:
 3014              	.LBE995:
 3015              	.LBE997:
  20:main.cpp      **** DaisySeed hw;
 3016              		.loc 10 20 11 view .LVU781
 3017 00ae FFF7FEFF 		bl	__aeabi_atexit
 3018              	.LVL211:
 3019              	.LBB998:
 3020              	.LBI998:
  23:../../libs/DaisySP//Source/Synthesis/oscillator.h ****     ~Oscillator() {}
 3021              		.loc 8 23 5 is_stmt 1 view .LVU782
  23:../../libs/DaisySP//Source/Synthesis/oscillator.h ****     ~Oscillator() {}
 3022              		.loc 8 23 5 is_stmt 0 view .LVU783
 3023              	.LBE998:
  22:main.cpp      **** Oscillator pluck, pad, bass;
 3024              		.loc 10 22 12 view .LVU784
 3025 00b2 3A46     		mov	r2, r7
 3026 00b4 5049     		ldr	r1, .L60+56
 3027 00b6 5148     		ldr	r0, .L60+60
 3028 00b8 FFF7FEFF 		bl	__aeabi_atexit
 3029              	.LVL212:
 3030              	.LBB999:
 3031              	.LBI999:
  23:../../libs/DaisySP//Source/Synthesis/oscillator.h ****     ~Oscillator() {}
 3032              		.loc 8 23 5 is_stmt 1 view .LVU785
  23:../../libs/DaisySP//Source/Synthesis/oscillator.h ****     ~Oscillator() {}
 3033              		.loc 8 23 5 is_stmt 0 view .LVU786
 3034              	.LBE999:
  22:main.cpp      **** Oscillator pluck, pad, bass;
 3035              		.loc 10 22 19 view .LVU787
 3036 00bc 3A46     		mov	r2, r7
 3037 00be 4E49     		ldr	r1, .L60+56
 3038 00c0 4F48     		ldr	r0, .L60+64
 3039 00c2 FFF7FEFF 		bl	__aeabi_atexit
 3040              	.LVL213:
 3041              	.LBB1000:
 3042              	.LBI1000:
  23:../../libs/DaisySP//Source/Synthesis/oscillator.h ****     ~Oscillator() {}
 3043              		.loc 8 23 5 is_stmt 1 view .LVU788
  23:../../libs/DaisySP//Source/Synthesis/oscillator.h ****     ~Oscillator() {}
 3044              		.loc 8 23 5 is_stmt 0 view .LVU789
 3045              	.LBE1000:
  22:main.cpp      **** Oscillator pluck, pad, bass;
 3046              		.loc 10 22 24 view .LVU790
 3047 00c6 3A46     		mov	r2, r7
 3048 00c8 4B49     		ldr	r1, .L60+56
 3049 00ca 4E48     		ldr	r0, .L60+68
 3050 00cc FFF7FEFF 		bl	__aeabi_atexit
 3051              	.LVL214:
 3052              	.LBB1001:
ARM GAS  C:\Users\matte\AppData\Local\Temp\ccIv7HUw.s 			page 98


 3053              	.LBI1001:
  23:../../libs/DaisySP//Source/Synthesis/oscillator.h ****     ~Oscillator() {}
 3054              		.loc 8 23 5 is_stmt 1 view .LVU791
  23:../../libs/DaisySP//Source/Synthesis/oscillator.h ****     ~Oscillator() {}
 3055              		.loc 8 23 5 is_stmt 0 view .LVU792
 3056              	.LBE1001:
  23:main.cpp      **** Oscillator pluck_modulator;
 3057              		.loc 10 23 12 view .LVU793
 3058 00d0 3A46     		mov	r2, r7
 3059 00d2 4949     		ldr	r1, .L60+56
 3060 00d4 4C48     		ldr	r0, .L60+72
 3061 00d6 FFF7FEFF 		bl	__aeabi_atexit
 3062              	.LVL215:
 3063              	.LBB1002:
 3064              	.LBI898:
  44:../../libs/DaisySP/Source/Control/adsr.h ****     ~Adsr() {}
 3065              		.loc 7 44 5 is_stmt 1 view .LVU794
 3066              	.LBB905:
 3067              	.LBB902:
  44:../../libs/DaisySP/Source/Control/adsr.h ****     ~Adsr() {}
 3068              		.loc 7 44 12 is_stmt 0 view .LVU795
 3069 00da 4C48     		ldr	r0, .L60+76
 3070              	.LBE902:
 3071              	.LBE905:
 3072              	.LBE1002:
  24:main.cpp      **** Adsr amp_eg_pluck, amp_eg_pad, amp_eg_bass;
 3073              		.loc 10 24 6 view .LVU796
 3074 00dc 3A46     		mov	r2, r7
 3075 00de 4C49     		ldr	r1, .L60+80
 3076              	.LBB1003:
 3077              	.LBB906:
 3078              	.LBB903:
  44:../../libs/DaisySP/Source/Control/adsr.h ****     ~Adsr() {}
 3079              		.loc 7 44 12 view .LVU797
 3080 00e0 8560     		str	r5, [r0, #8]	@ float
 3081 00e2 0460     		str	r4, [r0]	@ float
 3082 00e4 4460     		str	r4, [r0, #4]	@ float
 3083 00e6 C460     		str	r4, [r0, #12]	@ float
 3084 00e8 0561     		str	r5, [r0, #16]	@ float
 3085 00ea 4561     		str	r5, [r0, #20]	@ float
 3086 00ec 8561     		str	r5, [r0, #24]	@ float
 3087 00ee C461     		str	r4, [r0, #28]	@ float
 3088 00f0 0462     		str	r4, [r0, #32]	@ float
 3089 00f2 4462     		str	r4, [r0, #36]	@ float
 3090              	.LBE903:
 3091 00f4 8685     		strh	r6, [r0, #44]	@ movhi
 3092              	.LVL216:
  44:../../libs/DaisySP/Source/Control/adsr.h ****     ~Adsr() {}
 3093              		.loc 7 44 12 view .LVU798
 3094              	.LBE906:
 3095              	.LBE1003:
  24:main.cpp      **** Adsr amp_eg_pluck, amp_eg_pad, amp_eg_bass;
 3096              		.loc 10 24 6 view .LVU799
 3097 00f6 FFF7FEFF 		bl	__aeabi_atexit
 3098              	.LVL217:
 3099              	.LBB1004:
 3100              	.LBI1004:
ARM GAS  C:\Users\matte\AppData\Local\Temp\ccIv7HUw.s 			page 99


  44:../../libs/DaisySP/Source/Control/adsr.h ****     ~Adsr() {}
 3101              		.loc 7 44 5 is_stmt 1 view .LVU800
 3102              	.LBB1005:
 3103              	.LBB1006:
  44:../../libs/DaisySP/Source/Control/adsr.h ****     ~Adsr() {}
 3104              		.loc 7 44 12 is_stmt 0 view .LVU801
 3105 00fa 4648     		ldr	r0, .L60+84
 3106              	.LBE1006:
 3107              	.LBE1005:
 3108              	.LBE1004:
  24:main.cpp      **** Adsr amp_eg_pluck, amp_eg_pad, amp_eg_bass;
 3109              		.loc 10 24 20 view .LVU802
 3110 00fc 3A46     		mov	r2, r7
 3111 00fe 4449     		ldr	r1, .L60+80
 3112              	.LBB1009:
 3113              	.LBB1008:
 3114              	.LBB1007:
  44:../../libs/DaisySP/Source/Control/adsr.h ****     ~Adsr() {}
 3115              		.loc 7 44 12 view .LVU803
 3116 0100 0460     		str	r4, [r0]	@ float
 3117 0102 4460     		str	r4, [r0, #4]	@ float
 3118 0104 8560     		str	r5, [r0, #8]	@ float
 3119 0106 C460     		str	r4, [r0, #12]	@ float
 3120 0108 0561     		str	r5, [r0, #16]	@ float
 3121 010a 4561     		str	r5, [r0, #20]	@ float
 3122 010c 8561     		str	r5, [r0, #24]	@ float
 3123 010e C461     		str	r4, [r0, #28]	@ float
 3124 0110 0462     		str	r4, [r0, #32]	@ float
 3125 0112 4462     		str	r4, [r0, #36]	@ float
 3126              	.LBE1007:
 3127 0114 8685     		strh	r6, [r0, #44]	@ movhi
 3128              	.LVL218:
  44:../../libs/DaisySP/Source/Control/adsr.h ****     ~Adsr() {}
 3129              		.loc 7 44 12 view .LVU804
 3130              	.LBE1008:
 3131              	.LBE1009:
  24:main.cpp      **** Adsr amp_eg_pluck, amp_eg_pad, amp_eg_bass;
 3132              		.loc 10 24 20 view .LVU805
 3133 0116 FFF7FEFF 		bl	__aeabi_atexit
 3134              	.LVL219:
 3135              	.LBB1010:
 3136              	.LBI1010:
  44:../../libs/DaisySP/Source/Control/adsr.h ****     ~Adsr() {}
 3137              		.loc 7 44 5 is_stmt 1 view .LVU806
 3138              	.LBB1011:
 3139              	.LBB1012:
  44:../../libs/DaisySP/Source/Control/adsr.h ****     ~Adsr() {}
 3140              		.loc 7 44 12 is_stmt 0 view .LVU807
 3141 011a 3F48     		ldr	r0, .L60+88
 3142              	.LBE1012:
 3143              	.LBE1011:
 3144              	.LBE1010:
  24:main.cpp      **** Adsr amp_eg_pluck, amp_eg_pad, amp_eg_bass;
 3145              		.loc 10 24 32 view .LVU808
 3146 011c 3A46     		mov	r2, r7
 3147 011e 3C49     		ldr	r1, .L60+80
 3148              	.LBB1015:
ARM GAS  C:\Users\matte\AppData\Local\Temp\ccIv7HUw.s 			page 100


 3149              	.LBB1014:
 3150              	.LBB1013:
  44:../../libs/DaisySP/Source/Control/adsr.h ****     ~Adsr() {}
 3151              		.loc 7 44 12 view .LVU809
 3152 0120 0460     		str	r4, [r0]	@ float
 3153 0122 4460     		str	r4, [r0, #4]	@ float
 3154 0124 8560     		str	r5, [r0, #8]	@ float
 3155 0126 C460     		str	r4, [r0, #12]	@ float
 3156 0128 0561     		str	r5, [r0, #16]	@ float
 3157 012a 4561     		str	r5, [r0, #20]	@ float
 3158 012c 8561     		str	r5, [r0, #24]	@ float
 3159 012e C461     		str	r4, [r0, #28]	@ float
 3160 0130 0462     		str	r4, [r0, #32]	@ float
 3161 0132 4462     		str	r4, [r0, #36]	@ float
 3162              	.LBE1013:
 3163 0134 8685     		strh	r6, [r0, #44]	@ movhi
 3164              	.LVL220:
  44:../../libs/DaisySP/Source/Control/adsr.h ****     ~Adsr() {}
 3165              		.loc 7 44 12 view .LVU810
 3166              	.LBE1014:
 3167              	.LBE1015:
  24:main.cpp      **** Adsr amp_eg_pluck, amp_eg_pad, amp_eg_bass;
 3168              		.loc 10 24 32 view .LVU811
 3169 0136 FFF7FEFF 		bl	__aeabi_atexit
 3170              	.LVL221:
 3171              	.LBB1016:
 3172              	.LBI1016:
  44:../../libs/DaisySP/Source/Control/adsr.h ****     ~Adsr() {}
 3173              		.loc 7 44 5 is_stmt 1 view .LVU812
 3174              	.LBB1017:
 3175              	.LBB1018:
  44:../../libs/DaisySP/Source/Control/adsr.h ****     ~Adsr() {}
 3176              		.loc 7 44 12 is_stmt 0 view .LVU813
 3177 013a 3848     		ldr	r0, .L60+92
 3178              	.LBE1018:
 3179              	.LBE1017:
 3180              	.LBE1016:
  25:main.cpp      **** Adsr filt_eg_pluck, filt_eg_pad, filt_eg_bass;
 3181              		.loc 10 25 6 view .LVU814
 3182 013c 3A46     		mov	r2, r7
 3183 013e 3449     		ldr	r1, .L60+80
 3184              	.LBB1021:
 3185              	.LBB1020:
 3186              	.LBB1019:
  44:../../libs/DaisySP/Source/Control/adsr.h ****     ~Adsr() {}
 3187              		.loc 7 44 12 view .LVU815
 3188 0140 0460     		str	r4, [r0]	@ float
 3189 0142 4460     		str	r4, [r0, #4]	@ float
 3190 0144 8560     		str	r5, [r0, #8]	@ float
 3191 0146 C460     		str	r4, [r0, #12]	@ float
 3192 0148 0561     		str	r5, [r0, #16]	@ float
 3193 014a 4561     		str	r5, [r0, #20]	@ float
 3194 014c 8561     		str	r5, [r0, #24]	@ float
 3195 014e C461     		str	r4, [r0, #28]	@ float
 3196 0150 0462     		str	r4, [r0, #32]	@ float
 3197 0152 4462     		str	r4, [r0, #36]	@ float
 3198              	.LBE1019:
ARM GAS  C:\Users\matte\AppData\Local\Temp\ccIv7HUw.s 			page 101


 3199 0154 8685     		strh	r6, [r0, #44]	@ movhi
 3200              	.LVL222:
  44:../../libs/DaisySP/Source/Control/adsr.h ****     ~Adsr() {}
 3201              		.loc 7 44 12 view .LVU816
 3202              	.LBE1020:
 3203              	.LBE1021:
  25:main.cpp      **** Adsr filt_eg_pluck, filt_eg_pad, filt_eg_bass;
 3204              		.loc 10 25 6 view .LVU817
 3205 0156 FFF7FEFF 		bl	__aeabi_atexit
 3206              	.LVL223:
 3207              	.LBB1022:
 3208              	.LBI1022:
  44:../../libs/DaisySP/Source/Control/adsr.h ****     ~Adsr() {}
 3209              		.loc 7 44 5 is_stmt 1 view .LVU818
 3210              	.LBB1023:
 3211              	.LBB1024:
  44:../../libs/DaisySP/Source/Control/adsr.h ****     ~Adsr() {}
 3212              		.loc 7 44 12 is_stmt 0 view .LVU819
 3213 015a 3148     		ldr	r0, .L60+96
 3214              	.LBE1024:
 3215              	.LBE1023:
 3216              	.LBE1022:
  25:main.cpp      **** Adsr filt_eg_pluck, filt_eg_pad, filt_eg_bass;
 3217              		.loc 10 25 21 view .LVU820
 3218 015c 3A46     		mov	r2, r7
 3219 015e 2C49     		ldr	r1, .L60+80
 3220              	.LBB1027:
 3221              	.LBB1026:
 3222              	.LBB1025:
  44:../../libs/DaisySP/Source/Control/adsr.h ****     ~Adsr() {}
 3223              		.loc 7 44 12 view .LVU821
 3224 0160 0460     		str	r4, [r0]	@ float
 3225 0162 4460     		str	r4, [r0, #4]	@ float
 3226 0164 8560     		str	r5, [r0, #8]	@ float
 3227 0166 C460     		str	r4, [r0, #12]	@ float
 3228 0168 0561     		str	r5, [r0, #16]	@ float
 3229 016a 4561     		str	r5, [r0, #20]	@ float
 3230 016c 8561     		str	r5, [r0, #24]	@ float
 3231 016e C461     		str	r4, [r0, #28]	@ float
 3232 0170 0462     		str	r4, [r0, #32]	@ float
 3233 0172 4462     		str	r4, [r0, #36]	@ float
 3234              	.LBE1025:
 3235 0174 8685     		strh	r6, [r0, #44]	@ movhi
 3236              	.LVL224:
  44:../../libs/DaisySP/Source/Control/adsr.h ****     ~Adsr() {}
 3237              		.loc 7 44 12 view .LVU822
 3238              	.LBE1026:
 3239              	.LBE1027:
  25:main.cpp      **** Adsr filt_eg_pluck, filt_eg_pad, filt_eg_bass;
 3240              		.loc 10 25 21 view .LVU823
 3241 0176 FFF7FEFF 		bl	__aeabi_atexit
 3242              	.LVL225:
 3243              	.LBB1028:
 3244              	.LBI1028:
  44:../../libs/DaisySP/Source/Control/adsr.h ****     ~Adsr() {}
 3245              		.loc 7 44 5 is_stmt 1 view .LVU824
 3246              	.LBB1029:
ARM GAS  C:\Users\matte\AppData\Local\Temp\ccIv7HUw.s 			page 102


 3247              	.LBB1030:
  44:../../libs/DaisySP/Source/Control/adsr.h ****     ~Adsr() {}
 3248              		.loc 7 44 12 is_stmt 0 view .LVU825
 3249 017a 2A48     		ldr	r0, .L60+100
 3250              	.LBE1030:
 3251              	.LBE1029:
 3252              	.LBE1028:
  25:main.cpp      **** Adsr filt_eg_pluck, filt_eg_pad, filt_eg_bass;
 3253              		.loc 10 25 34 view .LVU826
 3254 017c 3A46     		mov	r2, r7
 3255 017e 2449     		ldr	r1, .L60+80
 3256              	.LBB1033:
 3257              	.LBB1032:
  44:../../libs/DaisySP/Source/Control/adsr.h ****     ~Adsr() {}
 3258              		.loc 7 44 12 view .LVU827
 3259 0180 8685     		strh	r6, [r0, #44]	@ movhi
 3260              	.LVL226:
 3261              	.LBB1031:
  44:../../libs/DaisySP/Source/Control/adsr.h ****     ~Adsr() {}
 3262              		.loc 7 44 12 view .LVU828
 3263 0182 0460     		str	r4, [r0]	@ float
 3264 0184 4460     		str	r4, [r0, #4]	@ float
 3265 0186 8560     		str	r5, [r0, #8]	@ float
 3266 0188 C460     		str	r4, [r0, #12]	@ float
 3267 018a 0561     		str	r5, [r0, #16]	@ float
 3268 018c 4561     		str	r5, [r0, #20]	@ float
 3269 018e 8561     		str	r5, [r0, #24]	@ float
 3270 0190 C461     		str	r4, [r0, #28]	@ float
 3271 0192 0462     		str	r4, [r0, #32]	@ float
 3272 0194 4462     		str	r4, [r0, #36]	@ float
 3273              	.LBE1031:
 3274              	.LBE1032:
 3275              	.LBE1033:
  25:main.cpp      **** Adsr filt_eg_pluck, filt_eg_pad, filt_eg_bass;
 3276              		.loc 10 25 34 view .LVU829
 3277 0196 FFF7FEFF 		bl	__aeabi_atexit
 3278              	.LVL227:
  27:main.cpp      **** LadderFilter VCF_pluck, VCF_pad, VCF_bass;
 3279              		.loc 10 27 14 view .LVU830
 3280 019a 2348     		ldr	r0, .L60+104
 3281 019c FFF7FEFF 		bl	_ZN7daisysp12LadderFilterC1Ev
 3282              	.LVL228:
  27:main.cpp      **** LadderFilter VCF_pluck, VCF_pad, VCF_bass;
 3283              		.loc 10 27 25 view .LVU831
 3284 01a0 2248     		ldr	r0, .L60+108
 3285 01a2 FFF7FEFF 		bl	_ZN7daisysp12LadderFilterC1Ev
 3286              	.LVL229:
  27:main.cpp      **** LadderFilter VCF_pluck, VCF_pad, VCF_bass;
 3287              		.loc 10 27 34 view .LVU832
 3288 01a6 2248     		ldr	r0, .L60+112
 3289 01a8 FFF7FEFF 		bl	_ZN7daisysp12LadderFilterC1Ev
 3290              	.LVL230:
  33:main.cpp      **** AnalogDelay Delay;
 3291              		.loc 10 33 13 view .LVU833
 3292 01ac 4046     		mov	r0, r8
 3293 01ae FFF7FEFF 		bl	_ZN11AnalogDelayC1Ev
 3294              	.LVL231:
ARM GAS  C:\Users\matte\AppData\Local\Temp\ccIv7HUw.s 			page 103


 3295 01b2 3A46     		mov	r2, r7
 3296 01b4 4046     		mov	r0, r8
 3297 01b6 1F49     		ldr	r1, .L60+116
 3298              	.LBE1034:
 3299              	.LBE1036:
 3300              		.loc 10 267 1 view .LVU834
 3301 01b8 BDE8F041 		pop	{r4, r5, r6, r7, r8, lr}
 3302              		.cfi_restore 14
 3303              		.cfi_restore 8
 3304              		.cfi_restore 7
 3305              		.cfi_restore 6
 3306              		.cfi_restore 5
 3307              		.cfi_restore 4
 3308              		.cfi_def_cfa_offset 0
 3309              	.LBB1037:
 3310              	.LBB1035:
  33:main.cpp      **** AnalogDelay Delay;
 3311              		.loc 10 33 13 view .LVU835
 3312 01bc FFF7FEBF 		b	__aeabi_atexit
 3313              	.LVL232:
 3314              	.L61:
 3315              		.align	2
 3316              	.L60:
 3317 01c0 00000000 		.word	.LANCHOR45
 3318 01c4 01080109 		.word	151062529
 3319 01c8 00000000 		.word	__dso_handle
 3320 01cc 000080BF 		.word	-1082130432
 3321 01d0 00000000 		.word	_ZN5daisy6Mpr121INS_18Mpr121I2CTransportEED1Ev
 3322 01d4 00000000 		.word	.LANCHOR26
 3323 01d8 00000000 		.word	.LANCHOR54
 3324 01dc 00000000 		.word	.LANCHOR47
 3325 01e0 00000000 		.word	.LANCHOR32
 3326 01e4 00000000 		.word	.LANCHOR49
 3327 01e8 00000000 		.word	.LANCHOR37
 3328 01ec 00000000 		.word	.LANCHOR52
 3329 01f0 00000000 		.word	.LANCHOR25
 3330 01f4 00000000 		.word	_ZN5daisy9DaisySeedD1Ev
 3331 01f8 00000000 		.word	_ZN7daisysp10OscillatorD1Ev
 3332 01fc 00000000 		.word	.LANCHOR12
 3333 0200 00000000 		.word	.LANCHOR13
 3334 0204 00000000 		.word	.LANCHOR14
 3335 0208 00000000 		.word	.LANCHOR2
 3336 020c 00000000 		.word	.LANCHOR4
 3337 0210 00000000 		.word	_ZN7daisysp4AdsrD1Ev
 3338 0214 00000000 		.word	.LANCHOR6
 3339 0218 00000000 		.word	.LANCHOR8
 3340 021c 00000000 		.word	.LANCHOR9
 3341 0220 00000000 		.word	.LANCHOR10
 3342 0224 00000000 		.word	.LANCHOR11
 3343 0228 00000000 		.word	.LANCHOR17
 3344 022c 00000000 		.word	.LANCHOR20
 3345 0230 00000000 		.word	.LANCHOR23
 3346 0234 00000000 		.word	_ZN11AnalogDelayD1Ev
 3347 0238 00000000 		.word	Delay
 3348              	.LBE1035:
 3349              	.LBE1037:
 3350              		.cfi_endproc
ARM GAS  C:\Users\matte\AppData\Local\Temp\ccIv7HUw.s 			page 104


 3351              	.LFE5397:
 3353              		.section	.init_array,"aw",%init_array
 3354              		.align	2
 3355 0000 00000000 		.word	_GLOBAL__sub_I_f_pluck(target1)
 3356              		.global	out_mix
 3357              		.global	Delay
 3358              		.global	Gate_bass
 3359              		.global	Gate_pad
 3360              		.global	Gate_pluck
 3361              		.global	now_f_bass
 3362              		.global	now_f_pad
 3363              		.global	now_f_pluck
 3364              		.global	value_bass
 3365              		.global	value_pad
 3366              		.global	value_pluck
 3367              		.global	VCF_bass
 3368              		.global	VCF_pad
 3369              		.global	VCF_pluck
 3370              		.global	filt_eg_bass
 3371              		.global	filt_eg_pad
 3372              		.global	filt_eg_pluck
 3373              		.global	amp_eg_bass
 3374              		.global	amp_eg_pad
 3375              		.global	amp_eg_pluck
 3376              		.global	pluck_modulator
 3377              		.global	bass
 3378              		.global	pad
 3379              		.global	pluck
 3380              		.global	hw
 3381              		.global	p_bass
 3382              		.global	p_pad
 3383              		.global	p_pluck
 3384              		.global	soglie
 3385              		.global	cap
 3386              		.global	delay_mix
 3387              		.global	delay_fb
 3388              		.global	delay_time
 3389              		.global	master
 3390              		.global	mix_amp_bass
 3391              		.global	bass_Filter_ADSR
 3392              		.global	bass_Amp_ADSR
 3393              		.global	f_EG_bass
 3394              		.global	drive_bass
 3395              		.global	res_bass
 3396              		.global	ft_bass
 3397              		.global	amp_lfo_bass
 3398              		.global	f_lfo_bass
 3399              		.global	f_bass
 3400              		.global	mix_amp_pad
 3401              		.global	pad_Filter_ADSR
 3402              		.global	pad_Amp_ADSR
 3403              		.global	f_EG_pad
 3404              		.global	drive_pad
 3405              		.global	res_pad
 3406              		.global	ft_pad
 3407              		.global	amp_lfo_pad
 3408              		.global	f_lfo_pad
ARM GAS  C:\Users\matte\AppData\Local\Temp\ccIv7HUw.s 			page 105


 3409              		.global	f_pad
 3410              		.global	mix_amp_pluck_modulator
 3411              		.global	mix_amp_pluck
 3412              		.global	pluck_Filter_ADSR
 3413              		.global	pluck_Amp_ADSR
 3414              		.global	f_EG_pluck
 3415              		.global	res_pluck
 3416              		.global	ft_pluck
 3417              		.global	ratio
 3418              		.global	f_pluck
 3419              		.section	.bss.Delay,"aw",%nobits
 3420              		.align	2
 3423              	Delay:
 3424 0000 00000000 		.space	131344
 3424      00000000 
 3424      00000000 
 3424      00000000 
 3424      00000000 
 3425              		.section	.bss.Gate_bass,"aw",%nobits
 3426              		.set	.LANCHOR7,. + 0
 3429              	Gate_bass:
 3430 0000 00       		.space	1
 3431              		.section	.bss.Gate_pad,"aw",%nobits
 3432              		.set	.LANCHOR5,. + 0
 3435              	Gate_pad:
 3436 0000 00       		.space	1
 3437              		.section	.bss.Gate_pluck,"aw",%nobits
 3438              		.set	.LANCHOR3,. + 0
 3441              	Gate_pluck:
 3442 0000 00       		.space	1
 3443              		.section	.bss.VCF_bass,"aw",%nobits
 3444              		.align	2
 3445              		.set	.LANCHOR23,. + 0
 3448              	VCF_bass:
 3449 0000 00000000 		.space	92
 3449      00000000 
 3449      00000000 
 3449      00000000 
 3449      00000000 
 3450              		.section	.bss.VCF_pad,"aw",%nobits
 3451              		.align	2
 3452              		.set	.LANCHOR20,. + 0
 3455              	VCF_pad:
 3456 0000 00000000 		.space	92
 3456      00000000 
 3456      00000000 
 3456      00000000 
 3456      00000000 
 3457              		.section	.bss.VCF_pluck,"aw",%nobits
 3458              		.align	2
 3459              		.set	.LANCHOR17,. + 0
 3462              	VCF_pluck:
 3463 0000 00000000 		.space	92
 3463      00000000 
 3463      00000000 
 3463      00000000 
 3463      00000000 
ARM GAS  C:\Users\matte\AppData\Local\Temp\ccIv7HUw.s 			page 106


 3464              		.section	.bss.amp_eg_bass,"aw",%nobits
 3465              		.align	2
 3466              		.set	.LANCHOR8,. + 0
 3469              	amp_eg_bass:
 3470 0000 00000000 		.space	48
 3470      00000000 
 3470      00000000 
 3470      00000000 
 3470      00000000 
 3471              		.section	.bss.amp_eg_pad,"aw",%nobits
 3472              		.align	2
 3473              		.set	.LANCHOR6,. + 0
 3476              	amp_eg_pad:
 3477 0000 00000000 		.space	48
 3477      00000000 
 3477      00000000 
 3477      00000000 
 3477      00000000 
 3478              		.section	.bss.amp_eg_pluck,"aw",%nobits
 3479              		.align	2
 3480              		.set	.LANCHOR4,. + 0
 3483              	amp_eg_pluck:
 3484 0000 00000000 		.space	48
 3484      00000000 
 3484      00000000 
 3484      00000000 
 3484      00000000 
 3485              		.section	.bss.bass,"aw",%nobits
 3486              		.align	2
 3487              		.set	.LANCHOR14,. + 0
 3490              	bass:
 3491 0000 00000000 		.space	44
 3491      00000000 
 3491      00000000 
 3491      00000000 
 3491      00000000 
 3492              		.section	.bss.cap,"aw",%nobits
 3493              		.align	2
 3494              		.set	.LANCHOR45,. + 0
 3497              	cap:
 3498 0000 00000000 		.space	52
 3498      00000000 
 3498      00000000 
 3498      00000000 
 3498      00000000 
 3499              		.section	.bss.filt_eg_bass,"aw",%nobits
 3500              		.align	2
 3501              		.set	.LANCHOR11,. + 0
 3504              	filt_eg_bass:
 3505 0000 00000000 		.space	48
 3505      00000000 
 3505      00000000 
 3505      00000000 
 3505      00000000 
 3506              		.section	.bss.filt_eg_pad,"aw",%nobits
 3507              		.align	2
 3508              		.set	.LANCHOR10,. + 0
ARM GAS  C:\Users\matte\AppData\Local\Temp\ccIv7HUw.s 			page 107


 3511              	filt_eg_pad:
 3512 0000 00000000 		.space	48
 3512      00000000 
 3512      00000000 
 3512      00000000 
 3512      00000000 
 3513              		.section	.bss.filt_eg_pluck,"aw",%nobits
 3514              		.align	2
 3515              		.set	.LANCHOR9,. + 0
 3518              	filt_eg_pluck:
 3519 0000 00000000 		.space	48
 3519      00000000 
 3519      00000000 
 3519      00000000 
 3519      00000000 
 3520              		.section	.bss.hw,"aw",%nobits
 3521              		.align	2
 3522              		.set	.LANCHOR25,. + 0
 3525              	hw:
 3526 0000 00000000 		.space	116
 3526      00000000 
 3526      00000000 
 3526      00000000 
 3526      00000000 
 3527              		.section	.bss.now_f_bass,"aw",%nobits
 3528              		.align	2
 3529              		.set	.LANCHOR53,. + 0
 3532              	now_f_bass:
 3533 0000 00000000 		.space	4
 3534              		.section	.bss.now_f_pad,"aw",%nobits
 3535              		.align	2
 3536              		.set	.LANCHOR50,. + 0
 3539              	now_f_pad:
 3540 0000 00000000 		.space	4
 3541              		.section	.bss.now_f_pluck,"aw",%nobits
 3542              		.align	2
 3543              		.set	.LANCHOR0,. + 0
 3546              	now_f_pluck:
 3547 0000 00000000 		.space	4
 3548              		.section	.bss.out_mix,"aw",%nobits
 3549              		.align	2
 3552              	out_mix:
 3553 0000 00000000 		.space	4
 3554              		.section	.bss.p_bass,"aw",%nobits
 3555              		.align	2
 3556              		.set	.LANCHOR52,. + 0
 3559              	p_bass:
 3560 0000 00000000 		.space	8
 3560      00000000 
 3561              		.section	.bss.p_pad,"aw",%nobits
 3562              		.align	2
 3563              		.set	.LANCHOR49,. + 0
 3566              	p_pad:
 3567 0000 00000000 		.space	8
 3567      00000000 
 3568              		.section	.bss.p_pluck,"aw",%nobits
 3569              		.align	2
ARM GAS  C:\Users\matte\AppData\Local\Temp\ccIv7HUw.s 			page 108


 3570              		.set	.LANCHOR47,. + 0
 3573              	p_pluck:
 3574 0000 00000000 		.space	8
 3574      00000000 
 3575              		.section	.bss.pad,"aw",%nobits
 3576              		.align	2
 3577              		.set	.LANCHOR13,. + 0
 3580              	pad:
 3581 0000 00000000 		.space	44
 3581      00000000 
 3581      00000000 
 3581      00000000 
 3581      00000000 
 3582              		.section	.bss.pluck,"aw",%nobits
 3583              		.align	2
 3584              		.set	.LANCHOR12,. + 0
 3587              	pluck:
 3588 0000 00000000 		.space	44
 3588      00000000 
 3588      00000000 
 3588      00000000 
 3588      00000000 
 3589              		.section	.bss.pluck_modulator,"aw",%nobits
 3590              		.align	2
 3591              		.set	.LANCHOR2,. + 0
 3594              	pluck_modulator:
 3595 0000 00000000 		.space	44
 3595      00000000 
 3595      00000000 
 3595      00000000 
 3595      00000000 
 3596              		.section	.bss.value_bass,"aw",%nobits
 3597              		.align	1
 3598              		.set	.LANCHOR51,. + 0
 3601              	value_bass:
 3602 0000 0000     		.space	2
 3603              		.section	.bss.value_pad,"aw",%nobits
 3604              		.align	1
 3605              		.set	.LANCHOR48,. + 0
 3608              	value_pad:
 3609 0000 0000     		.space	2
 3610              		.section	.bss.value_pluck,"aw",%nobits
 3611              		.align	1
 3612              		.set	.LANCHOR46,. + 0
 3615              	value_pluck:
 3616 0000 0000     		.space	2
 3617              		.section	.data.amp_lfo_bass,"aw"
 3618              		.align	2
 3621              	amp_lfo_bass:
 3622 0000 9A99993E 		.word	1050253722
 3623              		.section	.data.amp_lfo_pad,"aw"
 3624              		.align	2
 3627              	amp_lfo_pad:
 3628 0000 9A99993E 		.word	1050253722
 3629              		.section	.data.bass_Amp_ADSR,"aw"
 3630              		.align	2
 3631              		.set	.LANCHOR39,. + 0
ARM GAS  C:\Users\matte\AppData\Local\Temp\ccIv7HUw.s 			page 109


 3634              	bass_Amp_ADSR:
 3635 0000 9A99193E 		.word	1041865114
 3636 0004 0000003F 		.word	1056964608
 3637 0008 0000403F 		.word	1061158912
 3638 000c C3F5A83E 		.word	1051260355
 3639              		.section	.data.bass_Filter_ADSR,"aw"
 3640              		.align	2
 3641              		.set	.LANCHOR40,. + 0
 3644              	bass_Filter_ADSR:
 3645 0000 00002041 		.word	1092616192
 3646 0004 0000803F 		.word	1065353216
 3647 0008 9A99193F 		.word	1058642330
 3648 000c 0000003F 		.word	1056964608
 3649              		.section	.data.delay_fb,"aw"
 3650              		.align	2
 3651              		.set	.LANCHOR43,. + 0
 3654              	delay_fb:
 3655 0000 CDCC4C3E 		.word	1045220557
 3656              		.section	.data.delay_mix,"aw"
 3657              		.align	2
 3658              		.set	.LANCHOR44,. + 0
 3661              	delay_mix:
 3662 0000 9A99993E 		.word	1050253722
 3663              		.section	.data.delay_time,"aw"
 3664              		.align	2
 3665              		.set	.LANCHOR42,. + 0
 3668              	delay_time:
 3669 0000 0000003F 		.word	1056964608
 3670              		.section	.data.drive_bass,"aw"
 3671              		.align	2
 3674              	drive_bass:
 3675 0000 0000003F 		.word	1056964608
 3676              		.section	.data.drive_pad,"aw"
 3677              		.align	2
 3680              	drive_pad:
 3681 0000 0000003F 		.word	1056964608
 3682              		.section	.data.f_EG_bass,"aw"
 3683              		.align	2
 3684              		.set	.LANCHOR21,. + 0
 3687              	f_EG_bass:
 3688 0000 00409C45 		.word	1167867904
 3689              		.section	.data.f_EG_pad,"aw"
 3690              		.align	2
 3691              		.set	.LANCHOR18,. + 0
 3694              	f_EG_pad:
 3695 0000 0000FA45 		.word	1174011904
 3696              		.section	.data.f_EG_pluck,"aw"
 3697              		.align	2
 3698              		.set	.LANCHOR15,. + 0
 3701              	f_EG_pluck:
 3702 0000 00007A44 		.word	1148846080
 3703              		.section	.data.f_bass,"aw"
 3704              		.align	2
 3705              		.set	.LANCHOR37,. + 0
 3708              	f_bass:
 3709 0000 00005C42 		.word	1113325568
 3710              		.section	.data.f_lfo_bass,"aw"
ARM GAS  C:\Users\matte\AppData\Local\Temp\ccIv7HUw.s 			page 110


 3711              		.align	2
 3714              	f_lfo_bass:
 3715 0000 00002041 		.word	1092616192
 3716              		.section	.data.f_lfo_pad,"aw"
 3717              		.align	2
 3720              	f_lfo_pad:
 3721 0000 00002041 		.word	1092616192
 3722              		.section	.data.f_pad,"aw"
 3723              		.align	2
 3724              		.set	.LANCHOR32,. + 0
 3727              	f_pad:
 3728 0000 00005C43 		.word	1130102784
 3729              		.section	.data.f_pluck,"aw"
 3730              		.align	2
 3731              		.set	.LANCHOR26,. + 0
 3734              	f_pluck:
 3735 0000 0000DC43 		.word	1138491392
 3736              		.section	.data.ft_bass,"aw"
 3737              		.align	2
 3738              		.set	.LANCHOR22,. + 0
 3741              	ft_bass:
 3742 0000 00004843 		.word	1128792064
 3743              		.section	.data.ft_pad,"aw"
 3744              		.align	2
 3745              		.set	.LANCHOR19,. + 0
 3748              	ft_pad:
 3749 0000 0000FA43 		.word	1140457472
 3750              		.section	.data.ft_pluck,"aw"
 3751              		.align	2
 3752              		.set	.LANCHOR16,. + 0
 3755              	ft_pluck:
 3756 0000 00C05A45 		.word	1163575296
 3757              		.section	.data.master,"aw"
 3758              		.align	2
 3759              		.set	.LANCHOR24,. + 0
 3762              	master:
 3763 0000 0000003F 		.word	1056964608
 3764              		.section	.data.mix_amp_bass,"aw"
 3765              		.align	2
 3766              		.set	.LANCHOR38,. + 0
 3769              	mix_amp_bass:
 3770 0000 0000003F 		.word	1056964608
 3771              		.section	.data.mix_amp_pad,"aw"
 3772              		.align	2
 3773              		.set	.LANCHOR33,. + 0
 3776              	mix_amp_pad:
 3777 0000 0000003F 		.word	1056964608
 3778              		.section	.data.mix_amp_pluck,"aw"
 3779              		.align	2
 3780              		.set	.LANCHOR27,. + 0
 3783              	mix_amp_pluck:
 3784 0000 0000803F 		.word	1065353216
 3785              		.section	.data.mix_amp_pluck_modulator,"aw"
 3786              		.align	2
 3787              		.set	.LANCHOR31,. + 0
 3790              	mix_amp_pluck_modulator:
 3791 0000 0000003F 		.word	1056964608
ARM GAS  C:\Users\matte\AppData\Local\Temp\ccIv7HUw.s 			page 111


 3792              		.section	.data.pad_Amp_ADSR,"aw"
 3793              		.align	2
 3794              		.set	.LANCHOR34,. + 0
 3797              	pad_Amp_ADSR:
 3798 0000 CDCC4C3D 		.word	1028443341
 3799 0004 713D8A3E 		.word	1049247089
 3800 0008 CDCCCC3E 		.word	1053609165
 3801 000c 0000003F 		.word	1056964608
 3802              		.section	.data.pad_Filter_ADSR,"aw"
 3803              		.align	2
 3804              		.set	.LANCHOR35,. + 0
 3807              	pad_Filter_ADSR:
 3808 0000 CDCCCC3D 		.word	1036831949
 3809 0004 CDCCCC3D 		.word	1036831949
 3810 0008 CDCCCC3D 		.word	1036831949
 3811 000c 0000003F 		.word	1056964608
 3812              		.section	.data.pluck_Amp_ADSR,"aw"
 3813              		.align	2
 3814              		.set	.LANCHOR28,. + 0
 3817              	pluck_Amp_ADSR:
 3818 0000 0AD7A33B 		.word	1000593162
 3819 0004 CDCCCC3D 		.word	1036831949
 3820 0008 00000000 		.word	0
 3821 000c 0000003F 		.word	1056964608
 3822              		.section	.data.pluck_Filter_ADSR,"aw"
 3823              		.align	2
 3824              		.set	.LANCHOR29,. + 0
 3827              	pluck_Filter_ADSR:
 3828 0000 CDCC4C3D 		.word	1028443341
 3829 0004 8FC2F53C 		.word	1022739087
 3830 0008 00000000 		.word	0
 3831 000c 0000003F 		.word	1056964608
 3832              		.section	.data.ratio,"aw"
 3833              		.align	2
 3834              		.set	.LANCHOR1,. + 0
 3837              	ratio:
 3838 0000 713DAA3F 		.word	1068121457
 3839              		.section	.data.res_bass,"aw"
 3840              		.align	2
 3841              		.set	.LANCHOR41,. + 0
 3844              	res_bass:
 3845 0000 CDCCCC3D 		.word	1036831949
 3846              		.section	.data.res_pad,"aw"
 3847              		.align	2
 3848              		.set	.LANCHOR36,. + 0
 3851              	res_pad:
 3852 0000 CDCCCC3D 		.word	1036831949
 3853              		.section	.data.res_pluck,"aw"
 3854              		.align	2
 3855              		.set	.LANCHOR30,. + 0
 3858              	res_pluck:
 3859 0000 CDCCCC3D 		.word	1036831949
 3860              		.section	.data.soglie,"aw"
 3861              		.align	2
 3862              		.set	.LANCHOR54,. + 0
 3865              	soglie:
 3866 0000 02000000 		.word	2
ARM GAS  C:\Users\matte\AppData\Local\Temp\ccIv7HUw.s 			page 112


 3867 0004 00000000 		.word	0
 3868 0008 41000000 		.word	65
 3869 000c 46000000 		.word	70
 3870 0010 50000000 		.word	80
 3871 0014 5A000000 		.word	90
 3872 0018 64000000 		.word	100
 3873 001c 69000000 		.word	105
 3874              		.text
 3875              	.Letext0:
 3876              		.file 18 "c:\\program files\\daisytoolchain\\arm-none-eabi\\include\\machine\\_default_types.h"
 3877              		.file 19 "c:\\program files\\daisytoolchain\\arm-none-eabi\\include\\sys\\_stdint.h"
 3878              		.file 20 "c:\\program files\\daisytoolchain\\arm-none-eabi\\include\\stdint.h"
 3879              		.file 21 "c:\\program files\\daisytoolchain\\lib\\gcc\\arm-none-eabi\\10.2.1\\include\\stddef.h"
 3880              		.file 22 "c:\\program files\\daisytoolchain\\arm-none-eabi\\include\\c++\\10.2.1\\cmath"
 3881              		.file 23 "c:\\program files\\daisytoolchain\\arm-none-eabi\\include\\c++\\10.2.1\\bits\\std_abs.h"
 3882              		.file 24 "c:\\program files\\daisytoolchain\\arm-none-eabi\\include\\c++\\10.2.1\\cstdlib"
 3883              		.file 25 "c:\\program files\\daisytoolchain\\arm-none-eabi\\include\\c++\\10.2.1\\cstdint"
 3884              		.file 26 "c:\\program files\\daisytoolchain\\arm-none-eabi\\include\\c++\\10.2.1\\type_traits"
 3885              		.file 27 "c:\\program files\\daisytoolchain\\arm-none-eabi\\include\\c++\\10.2.1\\debug\\debug.h"
 3886              		.file 28 "c:\\program files\\daisytoolchain\\arm-none-eabi\\include\\c++\\10.2.1\\arm-none-eabi\\t
 3887              		.file 29 "c:\\program files\\daisytoolchain\\arm-none-eabi\\include\\c++\\10.2.1\\bits\\algorithmf
 3888              		.file 30 "c:\\program files\\daisytoolchain\\arm-none-eabi\\include\\c++\\10.2.1\\bits\\stl_pair.h
 3889              		.file 31 "c:\\program files\\daisytoolchain\\arm-none-eabi\\include\\c++\\10.2.1\\bits\\exception_
 3890              		.file 32 "c:\\program files\\daisytoolchain\\arm-none-eabi\\include\\c++\\10.2.1\\cstdarg"
 3891              		.file 33 "c:\\program files\\daisytoolchain\\arm-none-eabi\\include\\c++\\10.2.1\\cstdio"
 3892              		.file 34 "c:\\program files\\daisytoolchain\\arm-none-eabi\\include\\c++\\10.2.1\\cstring"
 3893              		.file 35 "c:\\program files\\daisytoolchain\\arm-none-eabi\\include\\c++\\10.2.1\\cwchar"
 3894              		.file 36 "c:\\program files\\daisytoolchain\\arm-none-eabi\\include\\c++\\10.2.1\\clocale"
 3895              		.file 37 "c:\\program files\\daisytoolchain\\arm-none-eabi\\include\\c++\\10.2.1\\bits\\basic_stri
 3896              		.file 38 "c:\\program files\\daisytoolchain\\arm-none-eabi\\include\\c++\\10.2.1\\bits\\stl_tempbu
 3897              		.file 39 "c:\\program files\\daisytoolchain\\arm-none-eabi\\include\\c++\\10.2.1\\bits\\predefined
 3898              		.file 40 "c:\\program files\\daisytoolchain\\arm-none-eabi\\include\\sys\\_types.h"
 3899              		.file 41 "c:\\program files\\daisytoolchain\\arm-none-eabi\\include\\sys\\reent.h"
 3900              		.file 42 "c:\\program files\\daisytoolchain\\arm-none-eabi\\include\\sys\\lock.h"
 3901              		.file 43 "c:\\program files\\daisytoolchain\\arm-none-eabi\\include\\math.h"
 3902              		.file 44 "c:\\program files\\daisytoolchain\\arm-none-eabi\\include\\stdlib.h"
 3903              		.file 45 "c:\\program files\\daisytoolchain\\arm-none-eabi\\include\\c++\\10.2.1\\math.h"
 3904              		.file 46 "c:\\program files\\daisytoolchain\\arm-none-eabi\\include\\c++\\10.2.1\\stdlib.h"
 3905              		.file 47 "../../libs/libDaisy//src/per/tim.h"
 3906              		.file 48 "../../libs/libDaisy/src/hid/logger_impl.h"
 3907              		.file 49 "../../libs/libDaisy//src/util/wav_format.h"
 3908              		.file 50 "../../libs/libDaisy/src/dev/sr_595.h"
 3909              		.file 51 "../../libs/libDaisy/src/dev/max11300.h"
 3910              		.file 52 "../../libs/libDaisy/src/hid/logger.h"
 3911              		.file 53 "../../libs/libDaisy/src/dev/sdram.h"
 3912              		.file 54 "c:\\program files\\daisytoolchain\\lib\\gcc\\arm-none-eabi\\10.2.1\\include\\stdarg.h"
 3913              		.file 55 "c:\\program files\\daisytoolchain\\arm-none-eabi\\include\\stdio.h"
 3914              		.file 56 "c:\\program files\\daisytoolchain\\arm-none-eabi\\include\\string.h"
 3915              		.file 57 "../../libs/DaisySP/Source/Control/adenv.h"
 3916              		.file 58 "../../libs/DaisySP/Source/Control/phasor.h"
 3917              		.file 59 "../../libs/DaisySP//Source/Utility/dsp.h"
 3918              		.file 60 "../../libs/DaisySP/Source/Dynamics/crossfade.h"
 3919              		.file 61 "../../libs/DaisySP//Source/Utility/delayline.h"
 3920              		.file 62 "../../libs/DaisySP/Source/Effects/pitchshifter.h"
 3921              		.file 63 "c:\\program files\\daisytoolchain\\arm-none-eabi\\include\\wchar.h"
 3922              		.file 64 "c:\\program files\\daisytoolchain\\arm-none-eabi\\include\\locale.h"
 3923              		.file 65 "pentaPianta.h"
ARM GAS  C:\Users\matte\AppData\Local\Temp\ccIv7HUw.s 			page 113


 3924              		.file 66 "AnalogDelay.h"
 3925              		.file 67 "config.h"
 3926              		.file 68 "<built-in>"
ARM GAS  C:\Users\matte\AppData\Local\Temp\ccIv7HUw.s 			page 114


DEFINED SYMBOLS
                            *ABS*:00000000 main.cpp
C:\Users\matte\AppData\Local\Temp\ccIv7HUw.s:17     .text._ZN5daisy9DaisySeedD2Ev:00000000 $t
C:\Users\matte\AppData\Local\Temp\ccIv7HUw.s:26     .text._ZN5daisy9DaisySeedD2Ev:00000000 _ZN5daisy9DaisySeedD2Ev
C:\Users\matte\AppData\Local\Temp\ccIv7HUw.s:26     .text._ZN5daisy9DaisySeedD2Ev:00000000 _ZN5daisy9DaisySeedD1Ev
C:\Users\matte\AppData\Local\Temp\ccIv7HUw.s:73     .text._ZN7daisysp4AdsrD2Ev:00000000 $t
C:\Users\matte\AppData\Local\Temp\ccIv7HUw.s:81     .text._ZN7daisysp4AdsrD2Ev:00000000 _ZN7daisysp4AdsrD2Ev
C:\Users\matte\AppData\Local\Temp\ccIv7HUw.s:81     .text._ZN7daisysp4AdsrD2Ev:00000000 _ZN7daisysp4AdsrD1Ev
C:\Users\matte\AppData\Local\Temp\ccIv7HUw.s:98     .text._ZN7daisysp10OscillatorD2Ev:00000000 $t
C:\Users\matte\AppData\Local\Temp\ccIv7HUw.s:106    .text._ZN7daisysp10OscillatorD2Ev:00000000 _ZN7daisysp10OscillatorD2Ev
C:\Users\matte\AppData\Local\Temp\ccIv7HUw.s:106    .text._ZN7daisysp10OscillatorD2Ev:00000000 _ZN7daisysp10OscillatorD1Ev
C:\Users\matte\AppData\Local\Temp\ccIv7HUw.s:123    .text._ZN5daisy6Mpr121INS_18Mpr121I2CTransportEED2Ev:00000000 $t
C:\Users\matte\AppData\Local\Temp\ccIv7HUw.s:131    .text._ZN5daisy6Mpr121INS_18Mpr121I2CTransportEED2Ev:00000000 _ZN5daisy6Mpr121INS_18Mpr121I2CTransportEED2Ev
C:\Users\matte\AppData\Local\Temp\ccIv7HUw.s:131    .text._ZN5daisy6Mpr121INS_18Mpr121I2CTransportEED2Ev:00000000 _ZN5daisy6Mpr121INS_18Mpr121I2CTransportEED1Ev
C:\Users\matte\AppData\Local\Temp\ccIv7HUw.s:153    .text._ZL13AudioCallbackPKfPfj:00000000 $t
C:\Users\matte\AppData\Local\Temp\ccIv7HUw.s:160    .text._ZL13AudioCallbackPKfPfj:00000000 _ZL13AudioCallbackPKfPfj
C:\Users\matte\AppData\Local\Temp\ccIv7HUw.s:501    .text._ZL13AudioCallbackPKfPfj:00000184 $d
C:\Users\matte\AppData\Local\Temp\ccIv7HUw.s:3423   .bss.Delay:00000000 Delay
C:\Users\matte\AppData\Local\Temp\ccIv7HUw.s:531    .text._ZN7daisysp10Oscillator4InitEf:00000000 $t
C:\Users\matte\AppData\Local\Temp\ccIv7HUw.s:539    .text._ZN7daisysp10Oscillator4InitEf:00000000 _ZN7daisysp10Oscillator4InitEf
C:\Users\matte\AppData\Local\Temp\ccIv7HUw.s:608    .text._ZN7daisysp10Oscillator4InitEf:00000040 $d
C:\Users\matte\AppData\Local\Temp\ccIv7HUw.s:613    .text._ZN7daisysp12LadderFilterC2Ev:00000000 $t
C:\Users\matte\AppData\Local\Temp\ccIv7HUw.s:621    .text._ZN7daisysp12LadderFilterC2Ev:00000000 _ZN7daisysp12LadderFilterC2Ev
C:\Users\matte\AppData\Local\Temp\ccIv7HUw.s:621    .text._ZN7daisysp12LadderFilterC2Ev:00000000 _ZN7daisysp12LadderFilterC1Ev
C:\Users\matte\AppData\Local\Temp\ccIv7HUw.s:647    .rodata.main.str1.4:00000000 $d
C:\Users\matte\AppData\Local\Temp\ccIv7HUw.s:666    .text.startup.main:00000000 $t
C:\Users\matte\AppData\Local\Temp\ccIv7HUw.s:674    .text.startup.main:00000000 main
C:\Users\matte\AppData\Local\Temp\ccIv7HUw.s:1508   .text.startup.main:0000035c $d
C:\Users\matte\AppData\Local\Temp\ccIv7HUw.s:1545   .text.startup.main:000003ec $t
C:\Users\matte\AppData\Local\Temp\ccIv7HUw.s:2417   .text.startup.main:00000654 $d
C:\Users\matte\AppData\Local\Temp\ccIv7HUw.s:2451   .text.startup._GLOBAL__sub_I_f_pluck:00000000 $t
C:\Users\matte\AppData\Local\Temp\ccIv7HUw.s:2458   .text.startup._GLOBAL__sub_I_f_pluck:00000000 _GLOBAL__sub_I_f_pluck
C:\Users\matte\AppData\Local\Temp\ccIv7HUw.s:3317   .text.startup._GLOBAL__sub_I_f_pluck:000001c0 $d
C:\Users\matte\AppData\Local\Temp\ccIv7HUw.s:3354   .init_array:00000000 $d
C:\Users\matte\AppData\Local\Temp\ccIv7HUw.s:3552   .bss.out_mix:00000000 out_mix
C:\Users\matte\AppData\Local\Temp\ccIv7HUw.s:3429   .bss.Gate_bass:00000000 Gate_bass
C:\Users\matte\AppData\Local\Temp\ccIv7HUw.s:3435   .bss.Gate_pad:00000000 Gate_pad
C:\Users\matte\AppData\Local\Temp\ccIv7HUw.s:3441   .bss.Gate_pluck:00000000 Gate_pluck
C:\Users\matte\AppData\Local\Temp\ccIv7HUw.s:3532   .bss.now_f_bass:00000000 now_f_bass
C:\Users\matte\AppData\Local\Temp\ccIv7HUw.s:3539   .bss.now_f_pad:00000000 now_f_pad
C:\Users\matte\AppData\Local\Temp\ccIv7HUw.s:3546   .bss.now_f_pluck:00000000 now_f_pluck
C:\Users\matte\AppData\Local\Temp\ccIv7HUw.s:3601   .bss.value_bass:00000000 value_bass
C:\Users\matte\AppData\Local\Temp\ccIv7HUw.s:3608   .bss.value_pad:00000000 value_pad
C:\Users\matte\AppData\Local\Temp\ccIv7HUw.s:3615   .bss.value_pluck:00000000 value_pluck
C:\Users\matte\AppData\Local\Temp\ccIv7HUw.s:3448   .bss.VCF_bass:00000000 VCF_bass
C:\Users\matte\AppData\Local\Temp\ccIv7HUw.s:3455   .bss.VCF_pad:00000000 VCF_pad
C:\Users\matte\AppData\Local\Temp\ccIv7HUw.s:3462   .bss.VCF_pluck:00000000 VCF_pluck
C:\Users\matte\AppData\Local\Temp\ccIv7HUw.s:3504   .bss.filt_eg_bass:00000000 filt_eg_bass
C:\Users\matte\AppData\Local\Temp\ccIv7HUw.s:3511   .bss.filt_eg_pad:00000000 filt_eg_pad
C:\Users\matte\AppData\Local\Temp\ccIv7HUw.s:3518   .bss.filt_eg_pluck:00000000 filt_eg_pluck
C:\Users\matte\AppData\Local\Temp\ccIv7HUw.s:3469   .bss.amp_eg_bass:00000000 amp_eg_bass
C:\Users\matte\AppData\Local\Temp\ccIv7HUw.s:3476   .bss.amp_eg_pad:00000000 amp_eg_pad
C:\Users\matte\AppData\Local\Temp\ccIv7HUw.s:3483   .bss.amp_eg_pluck:00000000 amp_eg_pluck
C:\Users\matte\AppData\Local\Temp\ccIv7HUw.s:3594   .bss.pluck_modulator:00000000 pluck_modulator
C:\Users\matte\AppData\Local\Temp\ccIv7HUw.s:3490   .bss.bass:00000000 bass
C:\Users\matte\AppData\Local\Temp\ccIv7HUw.s:3580   .bss.pad:00000000 pad
C:\Users\matte\AppData\Local\Temp\ccIv7HUw.s:3587   .bss.pluck:00000000 pluck
ARM GAS  C:\Users\matte\AppData\Local\Temp\ccIv7HUw.s 			page 115


C:\Users\matte\AppData\Local\Temp\ccIv7HUw.s:3525   .bss.hw:00000000 hw
C:\Users\matte\AppData\Local\Temp\ccIv7HUw.s:3559   .bss.p_bass:00000000 p_bass
C:\Users\matte\AppData\Local\Temp\ccIv7HUw.s:3566   .bss.p_pad:00000000 p_pad
C:\Users\matte\AppData\Local\Temp\ccIv7HUw.s:3573   .bss.p_pluck:00000000 p_pluck
C:\Users\matte\AppData\Local\Temp\ccIv7HUw.s:3865   .data.soglie:00000000 soglie
C:\Users\matte\AppData\Local\Temp\ccIv7HUw.s:3497   .bss.cap:00000000 cap
C:\Users\matte\AppData\Local\Temp\ccIv7HUw.s:3661   .data.delay_mix:00000000 delay_mix
C:\Users\matte\AppData\Local\Temp\ccIv7HUw.s:3654   .data.delay_fb:00000000 delay_fb
C:\Users\matte\AppData\Local\Temp\ccIv7HUw.s:3668   .data.delay_time:00000000 delay_time
C:\Users\matte\AppData\Local\Temp\ccIv7HUw.s:3762   .data.master:00000000 master
C:\Users\matte\AppData\Local\Temp\ccIv7HUw.s:3769   .data.mix_amp_bass:00000000 mix_amp_bass
C:\Users\matte\AppData\Local\Temp\ccIv7HUw.s:3644   .data.bass_Filter_ADSR:00000000 bass_Filter_ADSR
C:\Users\matte\AppData\Local\Temp\ccIv7HUw.s:3634   .data.bass_Amp_ADSR:00000000 bass_Amp_ADSR
C:\Users\matte\AppData\Local\Temp\ccIv7HUw.s:3687   .data.f_EG_bass:00000000 f_EG_bass
C:\Users\matte\AppData\Local\Temp\ccIv7HUw.s:3674   .data.drive_bass:00000000 drive_bass
C:\Users\matte\AppData\Local\Temp\ccIv7HUw.s:3844   .data.res_bass:00000000 res_bass
C:\Users\matte\AppData\Local\Temp\ccIv7HUw.s:3741   .data.ft_bass:00000000 ft_bass
C:\Users\matte\AppData\Local\Temp\ccIv7HUw.s:3621   .data.amp_lfo_bass:00000000 amp_lfo_bass
C:\Users\matte\AppData\Local\Temp\ccIv7HUw.s:3714   .data.f_lfo_bass:00000000 f_lfo_bass
C:\Users\matte\AppData\Local\Temp\ccIv7HUw.s:3708   .data.f_bass:00000000 f_bass
C:\Users\matte\AppData\Local\Temp\ccIv7HUw.s:3776   .data.mix_amp_pad:00000000 mix_amp_pad
C:\Users\matte\AppData\Local\Temp\ccIv7HUw.s:3807   .data.pad_Filter_ADSR:00000000 pad_Filter_ADSR
C:\Users\matte\AppData\Local\Temp\ccIv7HUw.s:3797   .data.pad_Amp_ADSR:00000000 pad_Amp_ADSR
C:\Users\matte\AppData\Local\Temp\ccIv7HUw.s:3694   .data.f_EG_pad:00000000 f_EG_pad
C:\Users\matte\AppData\Local\Temp\ccIv7HUw.s:3680   .data.drive_pad:00000000 drive_pad
C:\Users\matte\AppData\Local\Temp\ccIv7HUw.s:3851   .data.res_pad:00000000 res_pad
C:\Users\matte\AppData\Local\Temp\ccIv7HUw.s:3748   .data.ft_pad:00000000 ft_pad
C:\Users\matte\AppData\Local\Temp\ccIv7HUw.s:3627   .data.amp_lfo_pad:00000000 amp_lfo_pad
C:\Users\matte\AppData\Local\Temp\ccIv7HUw.s:3720   .data.f_lfo_pad:00000000 f_lfo_pad
C:\Users\matte\AppData\Local\Temp\ccIv7HUw.s:3727   .data.f_pad:00000000 f_pad
C:\Users\matte\AppData\Local\Temp\ccIv7HUw.s:3790   .data.mix_amp_pluck_modulator:00000000 mix_amp_pluck_modulator
C:\Users\matte\AppData\Local\Temp\ccIv7HUw.s:3783   .data.mix_amp_pluck:00000000 mix_amp_pluck
C:\Users\matte\AppData\Local\Temp\ccIv7HUw.s:3827   .data.pluck_Filter_ADSR:00000000 pluck_Filter_ADSR
C:\Users\matte\AppData\Local\Temp\ccIv7HUw.s:3817   .data.pluck_Amp_ADSR:00000000 pluck_Amp_ADSR
C:\Users\matte\AppData\Local\Temp\ccIv7HUw.s:3701   .data.f_EG_pluck:00000000 f_EG_pluck
C:\Users\matte\AppData\Local\Temp\ccIv7HUw.s:3858   .data.res_pluck:00000000 res_pluck
C:\Users\matte\AppData\Local\Temp\ccIv7HUw.s:3755   .data.ft_pluck:00000000 ft_pluck
C:\Users\matte\AppData\Local\Temp\ccIv7HUw.s:3837   .data.ratio:00000000 ratio
C:\Users\matte\AppData\Local\Temp\ccIv7HUw.s:3734   .data.f_pluck:00000000 f_pluck
C:\Users\matte\AppData\Local\Temp\ccIv7HUw.s:3420   .bss.Delay:00000000 $d
C:\Users\matte\AppData\Local\Temp\ccIv7HUw.s:3430   .bss.Gate_bass:00000000 $d
C:\Users\matte\AppData\Local\Temp\ccIv7HUw.s:3436   .bss.Gate_pad:00000000 $d
C:\Users\matte\AppData\Local\Temp\ccIv7HUw.s:3442   .bss.Gate_pluck:00000000 $d
C:\Users\matte\AppData\Local\Temp\ccIv7HUw.s:3444   .bss.VCF_bass:00000000 $d
C:\Users\matte\AppData\Local\Temp\ccIv7HUw.s:3451   .bss.VCF_pad:00000000 $d
C:\Users\matte\AppData\Local\Temp\ccIv7HUw.s:3458   .bss.VCF_pluck:00000000 $d
C:\Users\matte\AppData\Local\Temp\ccIv7HUw.s:3465   .bss.amp_eg_bass:00000000 $d
C:\Users\matte\AppData\Local\Temp\ccIv7HUw.s:3472   .bss.amp_eg_pad:00000000 $d
C:\Users\matte\AppData\Local\Temp\ccIv7HUw.s:3479   .bss.amp_eg_pluck:00000000 $d
C:\Users\matte\AppData\Local\Temp\ccIv7HUw.s:3486   .bss.bass:00000000 $d
C:\Users\matte\AppData\Local\Temp\ccIv7HUw.s:3493   .bss.cap:00000000 $d
C:\Users\matte\AppData\Local\Temp\ccIv7HUw.s:3500   .bss.filt_eg_bass:00000000 $d
C:\Users\matte\AppData\Local\Temp\ccIv7HUw.s:3507   .bss.filt_eg_pad:00000000 $d
C:\Users\matte\AppData\Local\Temp\ccIv7HUw.s:3514   .bss.filt_eg_pluck:00000000 $d
C:\Users\matte\AppData\Local\Temp\ccIv7HUw.s:3521   .bss.hw:00000000 $d
C:\Users\matte\AppData\Local\Temp\ccIv7HUw.s:3528   .bss.now_f_bass:00000000 $d
C:\Users\matte\AppData\Local\Temp\ccIv7HUw.s:3535   .bss.now_f_pad:00000000 $d
ARM GAS  C:\Users\matte\AppData\Local\Temp\ccIv7HUw.s 			page 116


C:\Users\matte\AppData\Local\Temp\ccIv7HUw.s:3542   .bss.now_f_pluck:00000000 $d
C:\Users\matte\AppData\Local\Temp\ccIv7HUw.s:3549   .bss.out_mix:00000000 $d
C:\Users\matte\AppData\Local\Temp\ccIv7HUw.s:3555   .bss.p_bass:00000000 $d
C:\Users\matte\AppData\Local\Temp\ccIv7HUw.s:3562   .bss.p_pad:00000000 $d
C:\Users\matte\AppData\Local\Temp\ccIv7HUw.s:3569   .bss.p_pluck:00000000 $d
C:\Users\matte\AppData\Local\Temp\ccIv7HUw.s:3576   .bss.pad:00000000 $d
C:\Users\matte\AppData\Local\Temp\ccIv7HUw.s:3583   .bss.pluck:00000000 $d
C:\Users\matte\AppData\Local\Temp\ccIv7HUw.s:3590   .bss.pluck_modulator:00000000 $d
C:\Users\matte\AppData\Local\Temp\ccIv7HUw.s:3597   .bss.value_bass:00000000 $d
C:\Users\matte\AppData\Local\Temp\ccIv7HUw.s:3604   .bss.value_pad:00000000 $d
C:\Users\matte\AppData\Local\Temp\ccIv7HUw.s:3611   .bss.value_pluck:00000000 $d
C:\Users\matte\AppData\Local\Temp\ccIv7HUw.s:3618   .data.amp_lfo_bass:00000000 $d
C:\Users\matte\AppData\Local\Temp\ccIv7HUw.s:3624   .data.amp_lfo_pad:00000000 $d
C:\Users\matte\AppData\Local\Temp\ccIv7HUw.s:3630   .data.bass_Amp_ADSR:00000000 $d
C:\Users\matte\AppData\Local\Temp\ccIv7HUw.s:3640   .data.bass_Filter_ADSR:00000000 $d
C:\Users\matte\AppData\Local\Temp\ccIv7HUw.s:3650   .data.delay_fb:00000000 $d
C:\Users\matte\AppData\Local\Temp\ccIv7HUw.s:3657   .data.delay_mix:00000000 $d
C:\Users\matte\AppData\Local\Temp\ccIv7HUw.s:3664   .data.delay_time:00000000 $d
C:\Users\matte\AppData\Local\Temp\ccIv7HUw.s:3671   .data.drive_bass:00000000 $d
C:\Users\matte\AppData\Local\Temp\ccIv7HUw.s:3677   .data.drive_pad:00000000 $d
C:\Users\matte\AppData\Local\Temp\ccIv7HUw.s:3683   .data.f_EG_bass:00000000 $d
C:\Users\matte\AppData\Local\Temp\ccIv7HUw.s:3690   .data.f_EG_pad:00000000 $d
C:\Users\matte\AppData\Local\Temp\ccIv7HUw.s:3697   .data.f_EG_pluck:00000000 $d
C:\Users\matte\AppData\Local\Temp\ccIv7HUw.s:3704   .data.f_bass:00000000 $d
C:\Users\matte\AppData\Local\Temp\ccIv7HUw.s:3711   .data.f_lfo_bass:00000000 $d
C:\Users\matte\AppData\Local\Temp\ccIv7HUw.s:3717   .data.f_lfo_pad:00000000 $d
C:\Users\matte\AppData\Local\Temp\ccIv7HUw.s:3723   .data.f_pad:00000000 $d
C:\Users\matte\AppData\Local\Temp\ccIv7HUw.s:3730   .data.f_pluck:00000000 $d
C:\Users\matte\AppData\Local\Temp\ccIv7HUw.s:3737   .data.ft_bass:00000000 $d
C:\Users\matte\AppData\Local\Temp\ccIv7HUw.s:3744   .data.ft_pad:00000000 $d
C:\Users\matte\AppData\Local\Temp\ccIv7HUw.s:3751   .data.ft_pluck:00000000 $d
C:\Users\matte\AppData\Local\Temp\ccIv7HUw.s:3758   .data.master:00000000 $d
C:\Users\matte\AppData\Local\Temp\ccIv7HUw.s:3765   .data.mix_amp_bass:00000000 $d
C:\Users\matte\AppData\Local\Temp\ccIv7HUw.s:3772   .data.mix_amp_pad:00000000 $d
C:\Users\matte\AppData\Local\Temp\ccIv7HUw.s:3779   .data.mix_amp_pluck:00000000 $d
C:\Users\matte\AppData\Local\Temp\ccIv7HUw.s:3786   .data.mix_amp_pluck_modulator:00000000 $d
C:\Users\matte\AppData\Local\Temp\ccIv7HUw.s:3793   .data.pad_Amp_ADSR:00000000 $d
C:\Users\matte\AppData\Local\Temp\ccIv7HUw.s:3803   .data.pad_Filter_ADSR:00000000 $d
C:\Users\matte\AppData\Local\Temp\ccIv7HUw.s:3813   .data.pluck_Amp_ADSR:00000000 $d
C:\Users\matte\AppData\Local\Temp\ccIv7HUw.s:3823   .data.pluck_Filter_ADSR:00000000 $d
C:\Users\matte\AppData\Local\Temp\ccIv7HUw.s:3833   .data.ratio:00000000 $d
C:\Users\matte\AppData\Local\Temp\ccIv7HUw.s:3840   .data.res_bass:00000000 $d
C:\Users\matte\AppData\Local\Temp\ccIv7HUw.s:3847   .data.res_pad:00000000 $d
C:\Users\matte\AppData\Local\Temp\ccIv7HUw.s:3854   .data.res_pluck:00000000 $d
C:\Users\matte\AppData\Local\Temp\ccIv7HUw.s:3861   .data.soglie:00000000 $d
                           .group:00000000 _ZN5daisy9DaisySeedD5Ev
                           .group:00000000 _ZN7daisysp4AdsrD5Ev
                           .group:00000000 _ZN7daisysp10OscillatorD5Ev
                           .group:00000000 _ZN5daisy6Mpr121INS_18Mpr121I2CTransportEED5Ev
                           .group:00000000 _ZN7daisysp12LadderFilterC5Ev

UNDEFINED SYMBOLS
_ZN7daisysp10Oscillator12CalcPhaseIncEf
_ZN7daisysp4Adsr7ProcessEb
_ZN7daisysp10Oscillator7ProcessEv
_ZN7daisysp12LadderFilter7SetFreqEf
_ZN7daisysp12LadderFilter7ProcessEf
ARM GAS  C:\Users\matte\AppData\Local\Temp\ccIv7HUw.s 			page 117


_ZN11AnalogDelay7ProcessEf
_ZN5daisy9DaisySeed9ConfigureEv
_ZN5daisy9DaisySeed4InitEb
_ZN5daisy9DaisySeed17SetAudioBlockSizeEj
_ZN5daisy9DaisySeed15AudioSampleRateEv
_ZN7daisysp4Adsr4InitEfi
_ZN7daisysp4Adsr7SetTimeEif
_ZN7daisysp12LadderFilter4InitEf
_ZN7daisysp12LadderFilter6SetResEf
_ZN11AnalogDelay4InitEf
_ZN11AnalogDelay12setDelayTimeEf
_ZN11AnalogDelay11setFeedbackEf
_ZN11AnalogDelay6setMixEf
_ZN5daisy9DaisySeed10StartAudioEPFvPKfPfjE
_ZN5daisy9I2CHandle8Mem_readEtttPhtm
_ZN5daisy9DaisySeed7DelayMsEj
_ZN11pentaPianta8discFreqEt
_ZN5daisy6LoggerILNS_17LoggerDestinationE1EE9PrintLineEPKcz
__aeabi_atexit
_ZN11pentaPiantaC1EPii
_ZN11AnalogDelayC1Ev
__dso_handle
_ZN11AnalogDelayD1Ev
