ARM GAS  C:\Users\skipi\AppData\Local\Temp\ccHKWaHh.s 			page 1


   1              		.cpu cortex-m7
   2              		.eabi_attribute 28, 1
   3              		.eabi_attribute 20, 1
   4              		.eabi_attribute 21, 1
   5              		.eabi_attribute 23, 3
   6              		.eabi_attribute 24, 1
   7              		.eabi_attribute 25, 1
   8              		.eabi_attribute 26, 1
   9              		.eabi_attribute 30, 2
  10              		.eabi_attribute 34, 1
  11              		.eabi_attribute 18, 4
  12              		.file	"main.cpp"
  13              		.text
  14              	.Ltext0:
  15              		.cfi_sections	.debug_frame
  16              		.section	.text._ZN5daisy9DaisySeedD2Ev,"axG",%progbits,_ZN5daisy9DaisySeedD5Ev,comdat
  17              		.align	1
  18              		.p2align 2,,3
  19              		.weak	_ZN5daisy9DaisySeedD2Ev
  20              		.arch armv7e-m
  21              		.syntax unified
  22              		.thumb
  23              		.thumb_func
  24              		.fpu fpv5-d16
  26              	_ZN5daisy9DaisySeedD2Ev:
  27              	.LVL0:
  28              	.LFB2671:
  29              		.file 1 "../../libs/libDaisy/src/daisy_seed.h"
   1:../../libs/libDaisy/src/daisy_seed.h **** #pragma once
   2:../../libs/libDaisy/src/daisy_seed.h **** #ifndef DSY_SEED_H
   3:../../libs/libDaisy/src/daisy_seed.h **** #define DSY_SEED_H
   4:../../libs/libDaisy/src/daisy_seed.h **** 
   5:../../libs/libDaisy/src/daisy_seed.h **** #include "daisy.h"
   6:../../libs/libDaisy/src/daisy_seed.h **** 
   7:../../libs/libDaisy/src/daisy_seed.h **** //Uncomment this out if you're still using the rev2 hardware
   8:../../libs/libDaisy/src/daisy_seed.h **** //#define SEED_REV2
   9:../../libs/libDaisy/src/daisy_seed.h **** 
  10:../../libs/libDaisy/src/daisy_seed.h **** namespace daisy
  11:../../libs/libDaisy/src/daisy_seed.h **** {
  12:../../libs/libDaisy/src/daisy_seed.h **** /**
  13:../../libs/libDaisy/src/daisy_seed.h ****    @brief This is the higher-level interface for the Daisy board. \n 
  14:../../libs/libDaisy/src/daisy_seed.h ****     All basic peripheral configuration/initialization is setup here. \n
  15:../../libs/libDaisy/src/daisy_seed.h **** 
  16:../../libs/libDaisy/src/daisy_seed.h ****    @ingroup boards
  17:../../libs/libDaisy/src/daisy_seed.h **** */
  18:../../libs/libDaisy/src/daisy_seed.h **** class DaisySeed
  19:../../libs/libDaisy/src/daisy_seed.h **** {
  20:../../libs/libDaisy/src/daisy_seed.h ****   public:
  21:../../libs/libDaisy/src/daisy_seed.h ****     DaisySeed() {}
  22:../../libs/libDaisy/src/daisy_seed.h ****     ~DaisySeed() {}
  30              		.loc 1 22 5 view -0
  31              		.cfi_startproc
  32              		@ args = 0, pretend = 0, frame = 0
  33              		@ frame_needed = 0, uses_anonymous_args = 0
  34              		@ link register save eliminated.
  35              	.LBB426:
  36              	.LBI426:
ARM GAS  C:\Users\skipi\AppData\Local\Temp\ccHKWaHh.s 			page 2


  37              		.file 2 "../../libs/libDaisy/src/dev/codec_ak4556.h"
   1:../../libs/libDaisy/src/dev/codec_ak4556.h **** #pragma once
   2:../../libs/libDaisy/src/dev/codec_ak4556.h **** #ifndef DSY_CODEC_AK4556_H
   3:../../libs/libDaisy/src/dev/codec_ak4556.h **** #define DSY_CODEC_AK4556_H
   4:../../libs/libDaisy/src/dev/codec_ak4556.h **** 
   5:../../libs/libDaisy/src/dev/codec_ak4556.h **** #include "daisy_core.h"
   6:../../libs/libDaisy/src/dev/codec_ak4556.h **** #include "per/gpio.h"
   7:../../libs/libDaisy/src/dev/codec_ak4556.h **** 
   8:../../libs/libDaisy/src/dev/codec_ak4556.h **** namespace daisy
   9:../../libs/libDaisy/src/dev/codec_ak4556.h **** {
  10:../../libs/libDaisy/src/dev/codec_ak4556.h **** /** @brief Ak4556 Codec support 
  11:../../libs/libDaisy/src/dev/codec_ak4556.h ****  ** @author shensley
  12:../../libs/libDaisy/src/dev/codec_ak4556.h ****  ** @addtogroup codec
  13:../../libs/libDaisy/src/dev/codec_ak4556.h ****  ** 
  14:../../libs/libDaisy/src/dev/codec_ak4556.h ****  ** I don't see any real reason to have this be more than a function, but in case we want
  15:../../libs/libDaisy/src/dev/codec_ak4556.h ****  ** to add other functions down the road I wrapped the function in a class.
  16:../../libs/libDaisy/src/dev/codec_ak4556.h ****  ***/
  17:../../libs/libDaisy/src/dev/codec_ak4556.h **** class Ak4556
  18:../../libs/libDaisy/src/dev/codec_ak4556.h **** {
  19:../../libs/libDaisy/src/dev/codec_ak4556.h ****   public:
  20:../../libs/libDaisy/src/dev/codec_ak4556.h ****     Ak4556() {}
  21:../../libs/libDaisy/src/dev/codec_ak4556.h ****     ~Ak4556() {}
  38              		.loc 2 21 5 view .LVU1
  39              		.loc 2 21 5 is_stmt 0 view .LVU2
  40              	.LBE426:
  41              	.LBB427:
  42              	.LBI427:
  43              		.file 3 "../../libs/libDaisy/src/sys/system.h"
   1:../../libs/libDaisy/src/sys/system.h **** #ifndef DSY_SYSTEM_H
   2:../../libs/libDaisy/src/sys/system.h **** #define DSY_SYSTEM_H
   3:../../libs/libDaisy/src/sys/system.h **** 
   4:../../libs/libDaisy/src/sys/system.h **** #ifndef UNIT_TEST // for unit tests, a dummy implementation is provided below
   5:../../libs/libDaisy/src/sys/system.h **** 
   6:../../libs/libDaisy/src/sys/system.h **** #include <cstdint>
   7:../../libs/libDaisy/src/sys/system.h **** #include "per/tim.h"
   8:../../libs/libDaisy/src/sys/system.h **** 
   9:../../libs/libDaisy/src/sys/system.h **** namespace daisy
  10:../../libs/libDaisy/src/sys/system.h **** {
  11:../../libs/libDaisy/src/sys/system.h **** /** A handle for interacting with the Core System.
  12:../../libs/libDaisy/src/sys/system.h ****  ** This includes the Clock tree, MPU, global DMA initialization,
  13:../../libs/libDaisy/src/sys/system.h ****  ** cache handling, and any other necessary global initiailzation
  14:../../libs/libDaisy/src/sys/system.h ****  **
  15:../../libs/libDaisy/src/sys/system.h ****  ** @author shensley
  16:../../libs/libDaisy/src/sys/system.h ****  ** @ingroup system
  17:../../libs/libDaisy/src/sys/system.h ****  */
  18:../../libs/libDaisy/src/sys/system.h **** class System
  19:../../libs/libDaisy/src/sys/system.h **** {
  20:../../libs/libDaisy/src/sys/system.h ****   public:
  21:../../libs/libDaisy/src/sys/system.h ****     /** Contains settings for initializing the System */
  22:../../libs/libDaisy/src/sys/system.h ****     struct Config
  23:../../libs/libDaisy/src/sys/system.h ****     {
  24:../../libs/libDaisy/src/sys/system.h ****         /** Specifies the system clock frequency that feeds APB/AHB clocks, etc. */
  25:../../libs/libDaisy/src/sys/system.h ****         enum class SysClkFreq
  26:../../libs/libDaisy/src/sys/system.h ****         {
  27:../../libs/libDaisy/src/sys/system.h ****             FREQ_400MHZ,
  28:../../libs/libDaisy/src/sys/system.h ****             FREQ_480MHZ,
  29:../../libs/libDaisy/src/sys/system.h ****         };
ARM GAS  C:\Users\skipi\AppData\Local\Temp\ccHKWaHh.s 			page 3


  30:../../libs/libDaisy/src/sys/system.h **** 
  31:../../libs/libDaisy/src/sys/system.h ****         /** Method to call on the struct to set to defaults
  32:../../libs/libDaisy/src/sys/system.h ****          ** CPU Freq set to 400MHz
  33:../../libs/libDaisy/src/sys/system.h ****          ** Cache Enabled
  34:../../libs/libDaisy/src/sys/system.h ****          ** */
  35:../../libs/libDaisy/src/sys/system.h ****         void Defaults()
  36:../../libs/libDaisy/src/sys/system.h ****         {
  37:../../libs/libDaisy/src/sys/system.h ****             cpu_freq    = SysClkFreq::FREQ_400MHZ;
  38:../../libs/libDaisy/src/sys/system.h ****             use_dcache  = true;
  39:../../libs/libDaisy/src/sys/system.h ****             use_icache  = true;
  40:../../libs/libDaisy/src/sys/system.h ****             skip_clocks = false;
  41:../../libs/libDaisy/src/sys/system.h ****         }
  42:../../libs/libDaisy/src/sys/system.h **** 
  43:../../libs/libDaisy/src/sys/system.h ****         /** Method to call on the struct to set to boost mode:
  44:../../libs/libDaisy/src/sys/system.h ****          ** CPU Freq set to 480MHz
  45:../../libs/libDaisy/src/sys/system.h ****          ** Cache Enabled
  46:../../libs/libDaisy/src/sys/system.h ****          ** */
  47:../../libs/libDaisy/src/sys/system.h ****         void Boost()
  48:../../libs/libDaisy/src/sys/system.h ****         {
  49:../../libs/libDaisy/src/sys/system.h ****             cpu_freq    = SysClkFreq::FREQ_480MHZ;
  50:../../libs/libDaisy/src/sys/system.h ****             use_dcache  = true;
  51:../../libs/libDaisy/src/sys/system.h ****             use_icache  = true;
  52:../../libs/libDaisy/src/sys/system.h ****             skip_clocks = false;
  53:../../libs/libDaisy/src/sys/system.h ****         }
  54:../../libs/libDaisy/src/sys/system.h **** 
  55:../../libs/libDaisy/src/sys/system.h ****         SysClkFreq cpu_freq;
  56:../../libs/libDaisy/src/sys/system.h ****         bool       use_dcache;
  57:../../libs/libDaisy/src/sys/system.h ****         bool       use_icache;
  58:../../libs/libDaisy/src/sys/system.h ****         bool       skip_clocks;
  59:../../libs/libDaisy/src/sys/system.h ****     };
  60:../../libs/libDaisy/src/sys/system.h **** 
  61:../../libs/libDaisy/src/sys/system.h ****     /** Describes the different regions of memory available to the Daisy */
  62:../../libs/libDaisy/src/sys/system.h ****     enum MemoryRegion
  63:../../libs/libDaisy/src/sys/system.h ****     {
  64:../../libs/libDaisy/src/sys/system.h ****         INTERNAL_FLASH = 0,
  65:../../libs/libDaisy/src/sys/system.h ****         ITCMRAM,
  66:../../libs/libDaisy/src/sys/system.h ****         DTCMRAM,
  67:../../libs/libDaisy/src/sys/system.h ****         SRAM_D1,
  68:../../libs/libDaisy/src/sys/system.h ****         SRAM_D2,
  69:../../libs/libDaisy/src/sys/system.h ****         SRAM_D3,
  70:../../libs/libDaisy/src/sys/system.h ****         SDRAM,
  71:../../libs/libDaisy/src/sys/system.h ****         QSPI,
  72:../../libs/libDaisy/src/sys/system.h ****         INVALID_ADDRESS,
  73:../../libs/libDaisy/src/sys/system.h ****     };
  74:../../libs/libDaisy/src/sys/system.h **** 
  75:../../libs/libDaisy/src/sys/system.h ****     /** Bootloader struct for controlling bootloading parameters */
  76:../../libs/libDaisy/src/sys/system.h ****     struct BootInfo
  77:../../libs/libDaisy/src/sys/system.h ****     {
  78:../../libs/libDaisy/src/sys/system.h ****         enum class Type : uint32_t
  79:../../libs/libDaisy/src/sys/system.h ****         {
  80:../../libs/libDaisy/src/sys/system.h ****             INVALID      = 0x00000000,
  81:../../libs/libDaisy/src/sys/system.h ****             JUMP         = 0xDEADBEEF,
  82:../../libs/libDaisy/src/sys/system.h ****             SKIP_TIMEOUT = 0x5AFEB007,
  83:../../libs/libDaisy/src/sys/system.h ****             INF_TIMEOUT  = 0xB0074EFA,
  84:../../libs/libDaisy/src/sys/system.h ****         } status;
  85:../../libs/libDaisy/src/sys/system.h ****         uint32_t data;
  86:../../libs/libDaisy/src/sys/system.h ****         enum class Version : uint32_t
ARM GAS  C:\Users\skipi\AppData\Local\Temp\ccHKWaHh.s 			page 4


  87:../../libs/libDaisy/src/sys/system.h ****         {
  88:../../libs/libDaisy/src/sys/system.h ****             LT_v6_0 = 0, // Less than v6.0
  89:../../libs/libDaisy/src/sys/system.h ****             NONE,        // No bootloader present
  90:../../libs/libDaisy/src/sys/system.h ****             v6_0,        // v6.0
  91:../../libs/libDaisy/src/sys/system.h ****             v6_1,        // v6.1 or greater
  92:../../libs/libDaisy/src/sys/system.h ****             LAST
  93:../../libs/libDaisy/src/sys/system.h ****         } version;
  94:../../libs/libDaisy/src/sys/system.h ****     };
  95:../../libs/libDaisy/src/sys/system.h **** 
  96:../../libs/libDaisy/src/sys/system.h ****     System() {}
  97:../../libs/libDaisy/src/sys/system.h ****     ~System() {}
  44              		.loc 3 97 5 is_stmt 1 view .LVU3
  45              		.loc 3 97 5 is_stmt 0 view .LVU4
  46              	.LBE427:
  47              	.LBB428:
  48              	.LBI428:
  49              		.file 4 "../../libs/libDaisy/src/hid/usb.h"
   1:../../libs/libDaisy/src/hid/usb.h **** #pragma once
   2:../../libs/libDaisy/src/hid/usb.h **** #ifndef DSY_HID_USB_H
   3:../../libs/libDaisy/src/hid/usb.h **** #define DSY_HID_USB_H
   4:../../libs/libDaisy/src/hid/usb.h **** #include <stdint.h>
   5:../../libs/libDaisy/src/hid/usb.h **** #include <stdlib.h>
   6:../../libs/libDaisy/src/hid/usb.h **** 
   7:../../libs/libDaisy/src/hid/usb.h **** namespace daisy
   8:../../libs/libDaisy/src/hid/usb.h **** /** @addtogroup human_interface
   9:../../libs/libDaisy/src/hid/usb.h ****     @{
  10:../../libs/libDaisy/src/hid/usb.h **** */
  11:../../libs/libDaisy/src/hid/usb.h **** 
  12:../../libs/libDaisy/src/hid/usb.h **** {
  13:../../libs/libDaisy/src/hid/usb.h **** /** 
  14:../../libs/libDaisy/src/hid/usb.h ****     @brief Interface for initializing and using the USB Peripherals on the daisy
  15:../../libs/libDaisy/src/hid/usb.h ****     @author Stephen Hensley
  16:../../libs/libDaisy/src/hid/usb.h ****     @date December 2019
  17:../../libs/libDaisy/src/hid/usb.h **** */
  18:../../libs/libDaisy/src/hid/usb.h **** class UsbHandle
  19:../../libs/libDaisy/src/hid/usb.h **** {
  20:../../libs/libDaisy/src/hid/usb.h ****   public:
  21:../../libs/libDaisy/src/hid/usb.h ****     /** Return values for USBHandle Functions */
  22:../../libs/libDaisy/src/hid/usb.h ****     enum class Result
  23:../../libs/libDaisy/src/hid/usb.h ****     {
  24:../../libs/libDaisy/src/hid/usb.h ****         OK,
  25:../../libs/libDaisy/src/hid/usb.h ****         ERR,
  26:../../libs/libDaisy/src/hid/usb.h ****     };
  27:../../libs/libDaisy/src/hid/usb.h **** 
  28:../../libs/libDaisy/src/hid/usb.h ****     /** Specified which of the two USB Peripherals to initialize. */
  29:../../libs/libDaisy/src/hid/usb.h ****     enum UsbPeriph
  30:../../libs/libDaisy/src/hid/usb.h ****     {
  31:../../libs/libDaisy/src/hid/usb.h ****         FS_INTERNAL, /**< Internal pin */
  32:../../libs/libDaisy/src/hid/usb.h ****         FS_EXTERNAL, /**< FS External D+ pin is Pin 38 (GPIO32). FS External D- pin is Pin 37 (GPIO
  33:../../libs/libDaisy/src/hid/usb.h ****         FS_BOTH,     /**< Both */
  34:../../libs/libDaisy/src/hid/usb.h ****     };
  35:../../libs/libDaisy/src/hid/usb.h **** 
  36:../../libs/libDaisy/src/hid/usb.h **** 
  37:../../libs/libDaisy/src/hid/usb.h ****     /** Function called upon reception of a buffer */
  38:../../libs/libDaisy/src/hid/usb.h ****     typedef void (*ReceiveCallback)(uint8_t* buff, uint32_t* len);
  39:../../libs/libDaisy/src/hid/usb.h **** 
  40:../../libs/libDaisy/src/hid/usb.h ****     UsbHandle() {}
ARM GAS  C:\Users\skipi\AppData\Local\Temp\ccHKWaHh.s 			page 5


  41:../../libs/libDaisy/src/hid/usb.h **** 
  42:../../libs/libDaisy/src/hid/usb.h ****     ~UsbHandle() {}
  50              		.loc 4 42 5 is_stmt 1 view .LVU5
  51              		.loc 4 42 5 is_stmt 0 view .LVU6
  52              	.LBE428:
  53              	.LBB429:
  54              	.LBI429:
  55              		.file 5 "../../libs/libDaisy/src/per/adc.h"
   1:../../libs/libDaisy/src/per/adc.h **** #pragma once
   2:../../libs/libDaisy/src/per/adc.h **** #ifndef DSY_ADC_H
   3:../../libs/libDaisy/src/per/adc.h **** #define DSY_ADC_H /**< Macro */
   4:../../libs/libDaisy/src/per/adc.h **** #include <stdint.h>
   5:../../libs/libDaisy/src/per/adc.h **** #include <stdlib.h>
   6:../../libs/libDaisy/src/per/adc.h **** #include "daisy_core.h"
   7:../../libs/libDaisy/src/per/adc.h **** #include "per/gpio.h"
   8:../../libs/libDaisy/src/per/adc.h **** 
   9:../../libs/libDaisy/src/per/adc.h **** #define DSY_ADC_MAX_CHANNELS 16 /**< Maximum number of ADC channels */
  10:../../libs/libDaisy/src/per/adc.h **** 
  11:../../libs/libDaisy/src/per/adc.h **** namespace daisy
  12:../../libs/libDaisy/src/per/adc.h **** {
  13:../../libs/libDaisy/src/per/adc.h **** /** @addtogroup per_analog
  14:../../libs/libDaisy/src/per/adc.h ****     @{
  15:../../libs/libDaisy/src/per/adc.h **** */
  16:../../libs/libDaisy/src/per/adc.h **** 
  17:../../libs/libDaisy/src/per/adc.h **** /* While there may not be many configuration options here,
  18:../../libs/libDaisy/src/per/adc.h **** using a struct like this allows us to add more configuration
  19:../../libs/libDaisy/src/per/adc.h **** later without breaking existing functionality.
  20:../../libs/libDaisy/src/per/adc.h **** */
  21:../../libs/libDaisy/src/per/adc.h **** 
  22:../../libs/libDaisy/src/per/adc.h **** /** @brief   Configuration Structure for an ADC Channel 
  23:../../libs/libDaisy/src/per/adc.h ****  *  @details This can be used to configure a a single input, 
  24:../../libs/libDaisy/src/per/adc.h ****  *           or a multiplexed input, allowing up to 8 inputs on 
  25:../../libs/libDaisy/src/per/adc.h ****  *           one channel.
  26:../../libs/libDaisy/src/per/adc.h ****  *  @note    Sharing data lines to multiple muxes _is_ possible, but
  27:../../libs/libDaisy/src/per/adc.h ****  *           each channel sharing data lines must be set to the maximum
  28:../../libs/libDaisy/src/per/adc.h ****  *           number of channels, even if some multiplexers have fewer
  29:../../libs/libDaisy/src/per/adc.h ****  *           inputs connected.
  30:../../libs/libDaisy/src/per/adc.h **** */
  31:../../libs/libDaisy/src/per/adc.h **** struct AdcChannelConfig
  32:../../libs/libDaisy/src/per/adc.h **** {
  33:../../libs/libDaisy/src/per/adc.h ****     /** Which pin to use for multiplexing */
  34:../../libs/libDaisy/src/per/adc.h ****     enum MuxPin
  35:../../libs/libDaisy/src/per/adc.h ****     {
  36:../../libs/libDaisy/src/per/adc.h ****         MUX_SEL_0,    /**< & */
  37:../../libs/libDaisy/src/per/adc.h ****         MUX_SEL_1,    /**< & */
  38:../../libs/libDaisy/src/per/adc.h ****         MUX_SEL_2,    /**< & */
  39:../../libs/libDaisy/src/per/adc.h ****         MUX_SEL_LAST, /**< & */
  40:../../libs/libDaisy/src/per/adc.h ****     };
  41:../../libs/libDaisy/src/per/adc.h **** 
  42:../../libs/libDaisy/src/per/adc.h ****     /** \brief per channel conversion speed added to fixed time based on bitdepth, etc. */
  43:../../libs/libDaisy/src/per/adc.h ****     enum ConversionSpeed
  44:../../libs/libDaisy/src/per/adc.h ****     {
  45:../../libs/libDaisy/src/per/adc.h ****         SPEED_1CYCLES_5,
  46:../../libs/libDaisy/src/per/adc.h ****         SPEED_2CYCLES_5,
  47:../../libs/libDaisy/src/per/adc.h ****         SPEED_8CYCLES_5,
  48:../../libs/libDaisy/src/per/adc.h ****         SPEED_16CYCLES_5,
  49:../../libs/libDaisy/src/per/adc.h ****         SPEED_32CYCLES_5,
ARM GAS  C:\Users\skipi\AppData\Local\Temp\ccHKWaHh.s 			page 6


  50:../../libs/libDaisy/src/per/adc.h ****         SPEED_64CYCLES_5,
  51:../../libs/libDaisy/src/per/adc.h ****         SPEED_387CYCLES_5,
  52:../../libs/libDaisy/src/per/adc.h ****         SPEED_810CYCLES_5,
  53:../../libs/libDaisy/src/per/adc.h ****     };
  54:../../libs/libDaisy/src/per/adc.h **** 
  55:../../libs/libDaisy/src/per/adc.h ****     /** Initializes a single ADC pin as an ADC. 
  56:../../libs/libDaisy/src/per/adc.h ****     \param pin Pin to init.
  57:../../libs/libDaisy/src/per/adc.h ****     \param speed conversion speed for this pin defaults to 8.5 cycles
  58:../../libs/libDaisy/src/per/adc.h ****      */
  59:../../libs/libDaisy/src/per/adc.h ****     void InitSingle(Pin pin, ConversionSpeed speed = SPEED_8CYCLES_5);
  60:../../libs/libDaisy/src/per/adc.h **** 
  61:../../libs/libDaisy/src/per/adc.h ****     /** 
  62:../../libs/libDaisy/src/per/adc.h ****     Initializes a single ADC pin as a Multiplexed ADC.
  63:../../libs/libDaisy/src/per/adc.h ****     Requires a CD405X Multiplexer connected to the pin.
  64:../../libs/libDaisy/src/per/adc.h ****     You only need to supply the mux pins that are required,
  65:../../libs/libDaisy/src/per/adc.h ****     e.g. a 4052 mux would only require mux_0 and mux_1.
  66:../../libs/libDaisy/src/per/adc.h ****     Internal Callbacks handle the pin addressing.
  67:../../libs/libDaisy/src/per/adc.h ****     \param adc_pin &
  68:../../libs/libDaisy/src/per/adc.h ****     \param mux_channels must be 1-8
  69:../../libs/libDaisy/src/per/adc.h ****     \param mux_0 First mux pin
  70:../../libs/libDaisy/src/per/adc.h ****     \param mux_1 Second mux pin
  71:../../libs/libDaisy/src/per/adc.h ****     \param mux_2 Third mux pin
  72:../../libs/libDaisy/src/per/adc.h ****     \param speed conversion speed for this pin defaults to 8.5 cycles
  73:../../libs/libDaisy/src/per/adc.h ****     */
  74:../../libs/libDaisy/src/per/adc.h ****     void InitMux(Pin             adc_pin,
  75:../../libs/libDaisy/src/per/adc.h ****                  size_t          mux_channels,
  76:../../libs/libDaisy/src/per/adc.h ****                  Pin             mux_0,
  77:../../libs/libDaisy/src/per/adc.h ****                  Pin             mux_1 = Pin(PORTX, 0),
  78:../../libs/libDaisy/src/per/adc.h ****                  Pin             mux_2 = Pin(PORTX, 0),
  79:../../libs/libDaisy/src/per/adc.h ****                  ConversionSpeed speed = SPEED_8CYCLES_5);
  80:../../libs/libDaisy/src/per/adc.h **** 
  81:../../libs/libDaisy/src/per/adc.h ****     GPIO            pin_;                   /**< & */
  82:../../libs/libDaisy/src/per/adc.h ****     GPIO            mux_pin_[MUX_SEL_LAST]; /**< & */
  83:../../libs/libDaisy/src/per/adc.h ****     uint8_t         mux_channels_;          /**< & */
  84:../../libs/libDaisy/src/per/adc.h ****     ConversionSpeed speed_;
  85:../../libs/libDaisy/src/per/adc.h **** };
  86:../../libs/libDaisy/src/per/adc.h **** 
  87:../../libs/libDaisy/src/per/adc.h **** /**
  88:../../libs/libDaisy/src/per/adc.h ****    @brief Handler for analog to digital conversion
  89:../../libs/libDaisy/src/per/adc.h **** */
  90:../../libs/libDaisy/src/per/adc.h **** class AdcHandle
  91:../../libs/libDaisy/src/per/adc.h **** {
  92:../../libs/libDaisy/src/per/adc.h ****   public:
  93:../../libs/libDaisy/src/per/adc.h ****     /** Supported oversampling amounts */
  94:../../libs/libDaisy/src/per/adc.h ****     enum OverSampling
  95:../../libs/libDaisy/src/per/adc.h ****     {
  96:../../libs/libDaisy/src/per/adc.h ****         OVS_NONE, /**< & */
  97:../../libs/libDaisy/src/per/adc.h ****         OVS_4,    /**< & */
  98:../../libs/libDaisy/src/per/adc.h ****         OVS_8,    /**< & */
  99:../../libs/libDaisy/src/per/adc.h ****         OVS_16,   /**< & */
 100:../../libs/libDaisy/src/per/adc.h ****         OVS_32,   /**< & */
 101:../../libs/libDaisy/src/per/adc.h ****         OVS_64,   /**< & */
 102:../../libs/libDaisy/src/per/adc.h ****         OVS_128,  /**< & */
 103:../../libs/libDaisy/src/per/adc.h ****         OVS_256,  /**< & */
 104:../../libs/libDaisy/src/per/adc.h ****         OVS_512,  /**< & */
 105:../../libs/libDaisy/src/per/adc.h ****         OVS_1024, /**< & */
 106:../../libs/libDaisy/src/per/adc.h ****         OVS_LAST, /**< & */
ARM GAS  C:\Users\skipi\AppData\Local\Temp\ccHKWaHh.s 			page 7


 107:../../libs/libDaisy/src/per/adc.h ****     };
 108:../../libs/libDaisy/src/per/adc.h **** 
 109:../../libs/libDaisy/src/per/adc.h ****     AdcHandle() {}
 110:../../libs/libDaisy/src/per/adc.h ****     ~AdcHandle() {}
  56              		.loc 5 110 5 is_stmt 1 view .LVU7
  57              		.loc 5 110 5 is_stmt 0 view .LVU8
  58              	.LBE429:
  59              	.LBB430:
  60              	.LBI430:
  61              		.file 6 "../../libs/libDaisy/src/hid/audio.h"
   1:../../libs/libDaisy/src/hid/audio.h **** #ifndef DSY_AUDIO_H
   2:../../libs/libDaisy/src/hid/audio.h **** #define DSY_AUDIO_H /**< & */
   3:../../libs/libDaisy/src/hid/audio.h **** 
   4:../../libs/libDaisy/src/hid/audio.h **** #include "per/sai.h"
   5:../../libs/libDaisy/src/hid/audio.h **** 
   6:../../libs/libDaisy/src/hid/audio.h **** namespace daisy
   7:../../libs/libDaisy/src/hid/audio.h **** {
   8:../../libs/libDaisy/src/hid/audio.h **** /** @brief Audio Engine Handle
   9:../../libs/libDaisy/src/hid/audio.h ****  *  @ingroup audio 
  10:../../libs/libDaisy/src/hid/audio.h ****  *  @details This class allows for higher level access to an audio engine.
  11:../../libs/libDaisy/src/hid/audio.h ****  *           If you're using a SOM like the DaisySeed or DaisyPatchSM (or any 
  12:../../libs/libDaisy/src/hid/audio.h ****  *            board that includes one of those objects) then the intialization
  13:../../libs/libDaisy/src/hid/audio.h ****  *            is already taken  care of.
  14:../../libs/libDaisy/src/hid/audio.h ****  *           If you're setting up your own custom hardware, or need to make changes
  15:../../libs/libDaisy/src/hid/audio.h ****  *           you will have to take the following steps:
  16:../../libs/libDaisy/src/hid/audio.h ****  *             1. Create and Initialize an SaiHandle or two depending on your requirements
  17:../../libs/libDaisy/src/hid/audio.h ****  *             2. Initialize the Audio Handle with the desired settings and the Initialized SaiHand
  18:../../libs/libDaisy/src/hid/audio.h ****  *             3. If the connected codec requires special configuration or initialization, do so
  19:../../libs/libDaisy/src/hid/audio.h ****  *             4. Write a callback method using either the AudioCallback or the InterleavingAudioCa
  20:../../libs/libDaisy/src/hid/audio.h ****  *             5. Start the Audio using one of the StartAudio function
  21:../../libs/libDaisy/src/hid/audio.h ****  */
  22:../../libs/libDaisy/src/hid/audio.h **** class AudioHandle
  23:../../libs/libDaisy/src/hid/audio.h **** {
  24:../../libs/libDaisy/src/hid/audio.h ****   public:
  25:../../libs/libDaisy/src/hid/audio.h ****     /** Manually configurable details about the Audio Engine */
  26:../../libs/libDaisy/src/hid/audio.h ****     /** TODO: Figure out how to get samplerate in here. */
  27:../../libs/libDaisy/src/hid/audio.h ****     struct Config
  28:../../libs/libDaisy/src/hid/audio.h ****     {
  29:../../libs/libDaisy/src/hid/audio.h ****         /** number of samples to process per callback */
  30:../../libs/libDaisy/src/hid/audio.h ****         size_t blocksize = 48;
  31:../../libs/libDaisy/src/hid/audio.h **** 
  32:../../libs/libDaisy/src/hid/audio.h ****         /**< Sample rate of audio */
  33:../../libs/libDaisy/src/hid/audio.h ****         SaiHandle::Config::SampleRate samplerate
  34:../../libs/libDaisy/src/hid/audio.h ****             = SaiHandle::Config::SampleRate::SAI_48KHZ;
  35:../../libs/libDaisy/src/hid/audio.h **** 
  36:../../libs/libDaisy/src/hid/audio.h ****         /** factor for adjustment before and after callback for hardware that may have extra headro
  37:../../libs/libDaisy/src/hid/audio.h ****         float postgain = 1.f;
  38:../../libs/libDaisy/src/hid/audio.h **** 
  39:../../libs/libDaisy/src/hid/audio.h ****         /** factor for additional one-sided compensation to audio path for hardware that may
  40:../../libs/libDaisy/src/hid/audio.h ****          *  have unequal input/output ranges
  41:../../libs/libDaisy/src/hid/audio.h ****          */
  42:../../libs/libDaisy/src/hid/audio.h ****         float output_compensation = 1.f;
  43:../../libs/libDaisy/src/hid/audio.h ****     };
  44:../../libs/libDaisy/src/hid/audio.h **** 
  45:../../libs/libDaisy/src/hid/audio.h ****     enum class Result
  46:../../libs/libDaisy/src/hid/audio.h ****     {
  47:../../libs/libDaisy/src/hid/audio.h ****         OK,
ARM GAS  C:\Users\skipi\AppData\Local\Temp\ccHKWaHh.s 			page 8


  48:../../libs/libDaisy/src/hid/audio.h ****         ERR,
  49:../../libs/libDaisy/src/hid/audio.h ****     };
  50:../../libs/libDaisy/src/hid/audio.h **** 
  51:../../libs/libDaisy/src/hid/audio.h ****     /** Non-Interleaving input buffer
  52:../../libs/libDaisy/src/hid/audio.h ****      * Buffer arranged by float[chn][sample] 
  53:../../libs/libDaisy/src/hid/audio.h ****      * const so that the user can't modify the input
  54:../../libs/libDaisy/src/hid/audio.h ****      */
  55:../../libs/libDaisy/src/hid/audio.h ****     typedef const float* const* InputBuffer;
  56:../../libs/libDaisy/src/hid/audio.h **** 
  57:../../libs/libDaisy/src/hid/audio.h ****     /** Non-Interleaving output buffer
  58:../../libs/libDaisy/src/hid/audio.h ****      * Arranged by float[chn][sample] 
  59:../../libs/libDaisy/src/hid/audio.h ****      */
  60:../../libs/libDaisy/src/hid/audio.h ****     typedef float** OutputBuffer;
  61:../../libs/libDaisy/src/hid/audio.h **** 
  62:../../libs/libDaisy/src/hid/audio.h ****     /** Type for a Non-Interleaving audio callback 
  63:../../libs/libDaisy/src/hid/audio.h ****      * Non-Interleaving audio callbacks in daisy will be of this type
  64:../../libs/libDaisy/src/hid/audio.h ****      */
  65:../../libs/libDaisy/src/hid/audio.h ****     typedef void (*AudioCallback)(InputBuffer  in,
  66:../../libs/libDaisy/src/hid/audio.h ****                                   OutputBuffer out,
  67:../../libs/libDaisy/src/hid/audio.h ****                                   size_t       size);
  68:../../libs/libDaisy/src/hid/audio.h **** 
  69:../../libs/libDaisy/src/hid/audio.h ****     /** Interleaving Input buffer
  70:../../libs/libDaisy/src/hid/audio.h ****      ** audio is prepared as { L0, R0, L1, R1, . . . LN, RN }]
  71:../../libs/libDaisy/src/hid/audio.h ****      ** this is const, as the user shouldn't modify it
  72:../../libs/libDaisy/src/hid/audio.h ****     */
  73:../../libs/libDaisy/src/hid/audio.h ****     typedef const float* InterleavingInputBuffer;
  74:../../libs/libDaisy/src/hid/audio.h **** 
  75:../../libs/libDaisy/src/hid/audio.h ****     /** Interleaving Output buffer 
  76:../../libs/libDaisy/src/hid/audio.h ****      ** audio is prepared as { L0, R0, L1, R1, . . . LN, RN }
  77:../../libs/libDaisy/src/hid/audio.h ****     */
  78:../../libs/libDaisy/src/hid/audio.h ****     typedef float* InterleavingOutputBuffer;
  79:../../libs/libDaisy/src/hid/audio.h **** 
  80:../../libs/libDaisy/src/hid/audio.h ****     /** Interleaving Audio Callback 
  81:../../libs/libDaisy/src/hid/audio.h ****      * Interleaving audio callbacks in daisy must be of this type
  82:../../libs/libDaisy/src/hid/audio.h ****      */
  83:../../libs/libDaisy/src/hid/audio.h ****     typedef void (*InterleavingAudioCallback)(InterleavingInputBuffer  in,
  84:../../libs/libDaisy/src/hid/audio.h ****                                               InterleavingOutputBuffer out,
  85:../../libs/libDaisy/src/hid/audio.h ****                                               size_t                   size);
  86:../../libs/libDaisy/src/hid/audio.h **** 
  87:../../libs/libDaisy/src/hid/audio.h ****     AudioHandle() : pimpl_(nullptr) {}
  88:../../libs/libDaisy/src/hid/audio.h ****     ~AudioHandle() {}
  62              		.loc 6 88 5 is_stmt 1 view .LVU9
  63              		.loc 6 88 5 is_stmt 0 view .LVU10
  64              	.LBE430:
  65              		.loc 1 22 19 view .LVU11
  66 0000 7047     		bx	lr
  67              		.cfi_endproc
  68              	.LFE2671:
  70              		.weak	_ZN5daisy9DaisySeedD1Ev
  71              		.thumb_set _ZN5daisy9DaisySeedD1Ev,_ZN5daisy9DaisySeedD2Ev
  72 0002 00BF     		.section	.text._ZN7daisysp4AdsrD2Ev,"axG",%progbits,_ZN7daisysp4AdsrD5Ev,comdat
  73              		.align	1
  74              		.p2align 2,,3
  75              		.weak	_ZN7daisysp4AdsrD2Ev
  76              		.syntax unified
  77              		.thumb
  78              		.thumb_func
ARM GAS  C:\Users\skipi\AppData\Local\Temp\ccHKWaHh.s 			page 9


  79              		.fpu fpv5-d16
  81              	_ZN7daisysp4AdsrD2Ev:
  82              	.LVL1:
  83              	.LFB2694:
  84              		.file 7 "../../libs/DaisySP/Source/Control/adsr.h"
   1:../../libs/DaisySP/Source/Control/adsr.h **** /*
   2:../../libs/DaisySP/Source/Control/adsr.h **** Copyright (c) 2020 Electrosmith, Corp, Paul Batchelor
   3:../../libs/DaisySP/Source/Control/adsr.h **** 
   4:../../libs/DaisySP/Source/Control/adsr.h **** Use of this source code is governed by an MIT-style
   5:../../libs/DaisySP/Source/Control/adsr.h **** license that can be found in the LICENSE file or at
   6:../../libs/DaisySP/Source/Control/adsr.h **** https://opensource.org/licenses/MIT.
   7:../../libs/DaisySP/Source/Control/adsr.h **** */
   8:../../libs/DaisySP/Source/Control/adsr.h **** 
   9:../../libs/DaisySP/Source/Control/adsr.h **** #pragma once
  10:../../libs/DaisySP/Source/Control/adsr.h **** #ifndef DSY_ADSR_H
  11:../../libs/DaisySP/Source/Control/adsr.h **** #define DSY_ADSR_H
  12:../../libs/DaisySP/Source/Control/adsr.h **** 
  13:../../libs/DaisySP/Source/Control/adsr.h **** #include <stdint.h>
  14:../../libs/DaisySP/Source/Control/adsr.h **** #ifdef __cplusplus
  15:../../libs/DaisySP/Source/Control/adsr.h **** 
  16:../../libs/DaisySP/Source/Control/adsr.h **** namespace daisysp
  17:../../libs/DaisySP/Source/Control/adsr.h **** {
  18:../../libs/DaisySP/Source/Control/adsr.h **** /** Distinct stages that the phase of the envelope can be located in.
  19:../../libs/DaisySP/Source/Control/adsr.h **** - IDLE   = located at phase location 0, and not currently running
  20:../../libs/DaisySP/Source/Control/adsr.h **** - ATTACK  = First segment of envelope where phase moves from 0 to 1
  21:../../libs/DaisySP/Source/Control/adsr.h **** - DECAY   = Second segment of envelope where phase moves from 1 to SUSTAIN value
  22:../../libs/DaisySP/Source/Control/adsr.h **** - RELEASE =     Fourth segment of envelop where phase moves from SUSTAIN to 0
  23:../../libs/DaisySP/Source/Control/adsr.h **** */
  24:../../libs/DaisySP/Source/Control/adsr.h **** enum
  25:../../libs/DaisySP/Source/Control/adsr.h **** {
  26:../../libs/DaisySP/Source/Control/adsr.h ****     ADSR_SEG_IDLE    = 0,
  27:../../libs/DaisySP/Source/Control/adsr.h ****     ADSR_SEG_ATTACK  = 1,
  28:../../libs/DaisySP/Source/Control/adsr.h ****     ADSR_SEG_DECAY   = 2,
  29:../../libs/DaisySP/Source/Control/adsr.h ****     ADSR_SEG_RELEASE = 4
  30:../../libs/DaisySP/Source/Control/adsr.h **** };
  31:../../libs/DaisySP/Source/Control/adsr.h **** 
  32:../../libs/DaisySP/Source/Control/adsr.h **** 
  33:../../libs/DaisySP/Source/Control/adsr.h **** /** adsr envelope module
  34:../../libs/DaisySP/Source/Control/adsr.h **** 
  35:../../libs/DaisySP/Source/Control/adsr.h **** Original author(s) : Paul Batchelor
  36:../../libs/DaisySP/Source/Control/adsr.h **** 
  37:../../libs/DaisySP/Source/Control/adsr.h **** Ported from Soundpipe by Ben Sergentanis, May 2020
  38:../../libs/DaisySP/Source/Control/adsr.h ****  
  39:../../libs/DaisySP/Source/Control/adsr.h **** Remake by Steffan DIedrichsen, May 2021
  40:../../libs/DaisySP/Source/Control/adsr.h **** */
  41:../../libs/DaisySP/Source/Control/adsr.h **** class Adsr
  42:../../libs/DaisySP/Source/Control/adsr.h **** {
  43:../../libs/DaisySP/Source/Control/adsr.h ****   public:
  44:../../libs/DaisySP/Source/Control/adsr.h ****     Adsr() {}
  45:../../libs/DaisySP/Source/Control/adsr.h ****     ~Adsr() {}
  85              		.loc 7 45 5 is_stmt 1 view -0
  86              		.cfi_startproc
  87              		@ args = 0, pretend = 0, frame = 0
  88              		@ frame_needed = 0, uses_anonymous_args = 0
  89              		@ link register save eliminated.
  90              		.loc 7 45 14 is_stmt 0 view .LVU13
  91 0000 7047     		bx	lr
ARM GAS  C:\Users\skipi\AppData\Local\Temp\ccHKWaHh.s 			page 10


  92              		.cfi_endproc
  93              	.LFE2694:
  95              		.weak	_ZN7daisysp4AdsrD1Ev
  96              		.thumb_set _ZN7daisysp4AdsrD1Ev,_ZN7daisysp4AdsrD2Ev
  97              		.section	.text._ZN7daisysp10OscillatorD2Ev,"axG",%progbits,_ZN7daisysp10OscillatorD5Ev,comdat
  98              		.align	1
  99              		.p2align 2,,3
 100              		.weak	_ZN7daisysp10OscillatorD2Ev
 101              		.syntax unified
 102              		.thumb
 103              		.thumb_func
 104              		.fpu fpv5-d16
 106              	_ZN7daisysp10OscillatorD2Ev:
 107              	.LVL2:
 108              	.LFB4356:
 109              		.file 8 "../../libs/DaisySP/Source/Synthesis/oscillator.h"
   1:../../libs/DaisySP/Source/Synthesis/oscillator.h **** /*
   2:../../libs/DaisySP/Source/Synthesis/oscillator.h **** Copyright (c) 2020 Electrosmith, Corp
   3:../../libs/DaisySP/Source/Synthesis/oscillator.h **** 
   4:../../libs/DaisySP/Source/Synthesis/oscillator.h **** Use of this source code is governed by an MIT-style
   5:../../libs/DaisySP/Source/Synthesis/oscillator.h **** license that can be found in the LICENSE file or at
   6:../../libs/DaisySP/Source/Synthesis/oscillator.h **** https://opensource.org/licenses/MIT.
   7:../../libs/DaisySP/Source/Synthesis/oscillator.h **** */
   8:../../libs/DaisySP/Source/Synthesis/oscillator.h **** 
   9:../../libs/DaisySP/Source/Synthesis/oscillator.h **** #pragma once
  10:../../libs/DaisySP/Source/Synthesis/oscillator.h **** #ifndef DSY_OSCILLATOR_H
  11:../../libs/DaisySP/Source/Synthesis/oscillator.h **** #define DSY_OSCILLATOR_H
  12:../../libs/DaisySP/Source/Synthesis/oscillator.h **** #include <stdint.h>
  13:../../libs/DaisySP/Source/Synthesis/oscillator.h **** #include "Utility/dsp.h"
  14:../../libs/DaisySP/Source/Synthesis/oscillator.h **** #ifdef __cplusplus
  15:../../libs/DaisySP/Source/Synthesis/oscillator.h **** 
  16:../../libs/DaisySP/Source/Synthesis/oscillator.h **** namespace daisysp
  17:../../libs/DaisySP/Source/Synthesis/oscillator.h **** {
  18:../../libs/DaisySP/Source/Synthesis/oscillator.h **** /** Synthesis of several waveforms, including polyBLEP bandlimited waveforms.
  19:../../libs/DaisySP/Source/Synthesis/oscillator.h **** */
  20:../../libs/DaisySP/Source/Synthesis/oscillator.h **** class Oscillator
  21:../../libs/DaisySP/Source/Synthesis/oscillator.h **** {
  22:../../libs/DaisySP/Source/Synthesis/oscillator.h ****   public:
  23:../../libs/DaisySP/Source/Synthesis/oscillator.h ****     Oscillator() {}
  24:../../libs/DaisySP/Source/Synthesis/oscillator.h ****     ~Oscillator() {}
 110              		.loc 8 24 5 is_stmt 1 view -0
 111              		.cfi_startproc
 112              		@ args = 0, pretend = 0, frame = 0
 113              		@ frame_needed = 0, uses_anonymous_args = 0
 114              		@ link register save eliminated.
 115              		.loc 8 24 20 is_stmt 0 view .LVU15
 116 0000 7047     		bx	lr
 117              		.cfi_endproc
 118              	.LFE4356:
 120              		.weak	_ZN7daisysp10OscillatorD1Ev
 121              		.thumb_set _ZN7daisysp10OscillatorD1Ev,_ZN7daisysp10OscillatorD2Ev
 122              		.section	.text._ZN5daisy6Mpr121INS_18Mpr121I2CTransportEED2Ev,"axG",%progbits,_ZN5daisy6Mpr121INS_
 123              		.align	1
 124              		.p2align 2,,3
 125              		.weak	_ZN5daisy6Mpr121INS_18Mpr121I2CTransportEED2Ev
 126              		.syntax unified
 127              		.thumb
ARM GAS  C:\Users\skipi\AppData\Local\Temp\ccHKWaHh.s 			page 11


 128              		.thumb_func
 129              		.fpu fpv5-d16
 131              	_ZN5daisy6Mpr121INS_18Mpr121I2CTransportEED2Ev:
 132              	.LVL3:
 133              	.LFB5424:
 134              		.file 9 "../../libs/libDaisy/src/dev/mpr121.h"
   1:../../libs/libDaisy/src/dev/mpr121.h **** #pragma once
   2:../../libs/libDaisy/src/dev/mpr121.h **** #ifndef DSY_MPR121_H
   3:../../libs/libDaisy/src/dev/mpr121.h **** #define DSY_MPR121_H
   4:../../libs/libDaisy/src/dev/mpr121.h **** 
   5:../../libs/libDaisy/src/dev/mpr121.h **** // The default I2C address
   6:../../libs/libDaisy/src/dev/mpr121.h **** #define MPR121_I2CADDR_DEFAULT 0x5A        ///< default I2C address
   7:../../libs/libDaisy/src/dev/mpr121.h **** #define MPR121_TOUCH_THRESHOLD_DEFAULT 1  ///< default touch threshold value
   8:../../libs/libDaisy/src/dev/mpr121.h **** #define MPR121_RELEASE_THRESHOLD_DEFAULT 0 ///< default relese threshold value
   9:../../libs/libDaisy/src/dev/mpr121.h **** 
  10:../../libs/libDaisy/src/dev/mpr121.h **** namespace daisy
  11:../../libs/libDaisy/src/dev/mpr121.h **** {
  12:../../libs/libDaisy/src/dev/mpr121.h **** /** @addtogroup external 
  13:../../libs/libDaisy/src/dev/mpr121.h ****     @{ 
  14:../../libs/libDaisy/src/dev/mpr121.h **** */
  15:../../libs/libDaisy/src/dev/mpr121.h **** 
  16:../../libs/libDaisy/src/dev/mpr121.h **** /** I2C Transport for MPR121 */
  17:../../libs/libDaisy/src/dev/mpr121.h **** class Mpr121I2CTransport
  18:../../libs/libDaisy/src/dev/mpr121.h **** {
  19:../../libs/libDaisy/src/dev/mpr121.h ****   public:
  20:../../libs/libDaisy/src/dev/mpr121.h ****     Mpr121I2CTransport() {}
  21:../../libs/libDaisy/src/dev/mpr121.h ****     ~Mpr121I2CTransport() {}
  22:../../libs/libDaisy/src/dev/mpr121.h **** 
  23:../../libs/libDaisy/src/dev/mpr121.h ****     struct Config
  24:../../libs/libDaisy/src/dev/mpr121.h ****     {
  25:../../libs/libDaisy/src/dev/mpr121.h ****         I2CHandle::Config::Peripheral periph;
  26:../../libs/libDaisy/src/dev/mpr121.h ****         I2CHandle::Config::Speed      speed;
  27:../../libs/libDaisy/src/dev/mpr121.h ****         Pin                           scl;
  28:../../libs/libDaisy/src/dev/mpr121.h ****         Pin                           sda;
  29:../../libs/libDaisy/src/dev/mpr121.h **** 
  30:../../libs/libDaisy/src/dev/mpr121.h ****         I2CHandle::Config::Mode mode;
  31:../../libs/libDaisy/src/dev/mpr121.h **** 
  32:../../libs/libDaisy/src/dev/mpr121.h ****         uint8_t dev_addr;
  33:../../libs/libDaisy/src/dev/mpr121.h **** 
  34:../../libs/libDaisy/src/dev/mpr121.h ****         Config()
  35:../../libs/libDaisy/src/dev/mpr121.h ****         {
  36:../../libs/libDaisy/src/dev/mpr121.h ****             periph = I2CHandle::Config::Peripheral::I2C_1;
  37:../../libs/libDaisy/src/dev/mpr121.h ****             speed  = I2CHandle::Config::Speed::I2C_400KHZ;
  38:../../libs/libDaisy/src/dev/mpr121.h **** 
  39:../../libs/libDaisy/src/dev/mpr121.h ****             scl = Pin(PORTB, 8);
  40:../../libs/libDaisy/src/dev/mpr121.h ****             sda = Pin(PORTB, 9);
  41:../../libs/libDaisy/src/dev/mpr121.h **** 
  42:../../libs/libDaisy/src/dev/mpr121.h ****             dev_addr = MPR121_I2CADDR_DEFAULT;
  43:../../libs/libDaisy/src/dev/mpr121.h ****         }
  44:../../libs/libDaisy/src/dev/mpr121.h ****     };
  45:../../libs/libDaisy/src/dev/mpr121.h **** 
  46:../../libs/libDaisy/src/dev/mpr121.h ****     /** \return Did the transaction error? i.e. Return true if error, false if ok */
  47:../../libs/libDaisy/src/dev/mpr121.h ****     inline bool Init(Config config)
  48:../../libs/libDaisy/src/dev/mpr121.h ****     {
  49:../../libs/libDaisy/src/dev/mpr121.h ****         config_ = config;
  50:../../libs/libDaisy/src/dev/mpr121.h **** 
  51:../../libs/libDaisy/src/dev/mpr121.h ****         I2CHandle::Config i2c_conf;
ARM GAS  C:\Users\skipi\AppData\Local\Temp\ccHKWaHh.s 			page 12


  52:../../libs/libDaisy/src/dev/mpr121.h ****         i2c_conf.mode   = I2CHandle::Config::Mode::I2C_MASTER;
  53:../../libs/libDaisy/src/dev/mpr121.h ****         i2c_conf.periph = config.periph;
  54:../../libs/libDaisy/src/dev/mpr121.h ****         i2c_conf.speed  = config.speed;
  55:../../libs/libDaisy/src/dev/mpr121.h **** 
  56:../../libs/libDaisy/src/dev/mpr121.h ****         i2c_conf.pin_config.scl = config.scl;
  57:../../libs/libDaisy/src/dev/mpr121.h ****         i2c_conf.pin_config.sda = config.sda;
  58:../../libs/libDaisy/src/dev/mpr121.h **** 
  59:../../libs/libDaisy/src/dev/mpr121.h ****         return I2CHandle::Result::OK != i2c_.Init(i2c_conf);
  60:../../libs/libDaisy/src/dev/mpr121.h ****     }
  61:../../libs/libDaisy/src/dev/mpr121.h **** 
  62:../../libs/libDaisy/src/dev/mpr121.h ****     /** \return Did the transaction error? i.e. Return true if error, false if ok */
  63:../../libs/libDaisy/src/dev/mpr121.h ****     bool Write(uint8_t *data, uint16_t size)
  64:../../libs/libDaisy/src/dev/mpr121.h ****     {
  65:../../libs/libDaisy/src/dev/mpr121.h ****         return I2CHandle::Result::OK
  66:../../libs/libDaisy/src/dev/mpr121.h ****                != i2c_.TransmitBlocking(config_.dev_addr, data, size, 10);
  67:../../libs/libDaisy/src/dev/mpr121.h ****     }
  68:../../libs/libDaisy/src/dev/mpr121.h **** 
  69:../../libs/libDaisy/src/dev/mpr121.h ****     /** \return Did the transaction error? i.e. Return true if error, false if ok */
  70:../../libs/libDaisy/src/dev/mpr121.h ****     bool Read(uint8_t *data, uint16_t size)
  71:../../libs/libDaisy/src/dev/mpr121.h ****     {
  72:../../libs/libDaisy/src/dev/mpr121.h ****         return I2CHandle::Result::OK
  73:../../libs/libDaisy/src/dev/mpr121.h ****                != i2c_.ReceiveBlocking(config_.dev_addr, data, size, 10);
  74:../../libs/libDaisy/src/dev/mpr121.h ****     }
  75:../../libs/libDaisy/src/dev/mpr121.h ****     bool ReadMem(uint8_t *data, uint8_t memAddress, uint16_t memSize)
  76:../../libs/libDaisy/src/dev/mpr121.h ****     {
  77:../../libs/libDaisy/src/dev/mpr121.h ****         return I2CHandle::Result::OK
  78:../../libs/libDaisy/src/dev/mpr121.h ****                != i2c_.Mem_read(
  79:../../libs/libDaisy/src/dev/mpr121.h ****                    config_.dev_addr, memAddress, 1, data, memSize, 10);
  80:../../libs/libDaisy/src/dev/mpr121.h ****     }
  81:../../libs/libDaisy/src/dev/mpr121.h **** 
  82:../../libs/libDaisy/src/dev/mpr121.h ****   private:
  83:../../libs/libDaisy/src/dev/mpr121.h ****     I2CHandle i2c_;
  84:../../libs/libDaisy/src/dev/mpr121.h ****     Config    config_;
  85:../../libs/libDaisy/src/dev/mpr121.h **** };
  86:../../libs/libDaisy/src/dev/mpr121.h **** 
  87:../../libs/libDaisy/src/dev/mpr121.h **** 
  88:../../libs/libDaisy/src/dev/mpr121.h **** /** @brief Device support for MPR121 12x Capacitive Touch Sensor
  89:../../libs/libDaisy/src/dev/mpr121.h ****     @author beserge
  90:../../libs/libDaisy/src/dev/mpr121.h ****     @date December 2021
  91:../../libs/libDaisy/src/dev/mpr121.h **** */
  92:../../libs/libDaisy/src/dev/mpr121.h **** template <typename Transport>
  93:../../libs/libDaisy/src/dev/mpr121.h **** class Mpr121
  94:../../libs/libDaisy/src/dev/mpr121.h **** {
  95:../../libs/libDaisy/src/dev/mpr121.h ****   public:
  96:../../libs/libDaisy/src/dev/mpr121.h ****     Mpr121() {}
  97:../../libs/libDaisy/src/dev/mpr121.h ****     ~Mpr121() {}
 135              		.loc 9 97 5 is_stmt 1 view -0
 136              		.cfi_startproc
 137              		@ args = 0, pretend = 0, frame = 0
 138              		@ frame_needed = 0, uses_anonymous_args = 0
 139              		@ link register save eliminated.
 140              	.LBB431:
 141              	.LBI431:
  21:../../libs/libDaisy/src/dev/mpr121.h **** 
 142              		.loc 9 21 5 view .LVU17
  21:../../libs/libDaisy/src/dev/mpr121.h **** 
 143              		.loc 9 21 5 is_stmt 0 view .LVU18
ARM GAS  C:\Users\skipi\AppData\Local\Temp\ccHKWaHh.s 			page 13


 144              	.LBE431:
 145              		.loc 9 97 16 view .LVU19
 146 0000 7047     		bx	lr
 147              		.cfi_endproc
 148              	.LFE5424:
 150              		.weak	_ZN5daisy6Mpr121INS_18Mpr121I2CTransportEED1Ev
 151              		.thumb_set _ZN5daisy6Mpr121INS_18Mpr121I2CTransportEED1Ev,_ZN5daisy6Mpr121INS_18Mpr121I2CTransport
 152 0002 00BF     		.section	.text._ZL13AudioCallbackPKfPfj,"ax",%progbits
 153              		.align	1
 154              		.p2align 2,,3
 155              		.syntax unified
 156              		.thumb
 157              		.thumb_func
 158              		.fpu fpv5-d16
 160              	_ZL13AudioCallbackPKfPfj:
 161              	.LVL4:
 162              	.LFB4843:
 163              		.file 10 "main.cpp"
   1:main.cpp      **** #include "../../libs/libDaisy/src/daisy_seed.h"
   2:main.cpp      **** #include "../../libs/DaisySP/Source/daisysp.h"
   3:main.cpp      **** #include "pentaPianta.h"
   4:main.cpp      **** #include "AnalogDelay.h"
   5:main.cpp      **** #include "config.h"
   6:main.cpp      **** #include "Ramo.h"
   7:main.cpp      **** 
   8:main.cpp      **** #define DEBUG
   9:main.cpp      **** 
  10:main.cpp      **** #ifndef _BV // used to mask registers' bits related to the channel
  11:main.cpp      **** #define _BV(bit) (1 << (bit))
  12:main.cpp      **** #endif
  13:main.cpp      **** using namespace daisy;
  14:main.cpp      **** using namespace daisysp;
  15:main.cpp      **** //--OLD ARDUINO: Adafruit_MPR121 cap = Adafruit_MPR121();
  16:main.cpp      **** // creates config for mpr121 (constructor sets all to deafult)
  17:main.cpp      **** daisy::Mpr121I2C::Config mpr121ObjConf;
  18:main.cpp      **** // creates object for mpr121
  19:main.cpp      **** daisy::Mpr121I2C cap;
  20:main.cpp      **** 
  21:main.cpp      **** int soglie[8] = {2, 0, 65, 70, 80, 90, 100, 105};
  22:main.cpp      **** pentaPianta p_pluck(soglie, f_pluck), p_pad(soglie, f_pad), p_bass(soglie, f_bass);
  23:main.cpp      **** 
  24:main.cpp      **** // DaisyHardware hw;
  25:main.cpp      **** DaisySeed hw;
  26:main.cpp      **** // Pluck
  27:main.cpp      **** Ramo pluck, pad, bass;
  28:main.cpp      **** 
  29:main.cpp      **** Oscillator lfo1, lfo2, lfo3;
  30:main.cpp      **** 
  31:main.cpp      **** Adsr amp_eg_pluck, amp_eg_pad, amp_eg_bass;
  32:main.cpp      **** Adsr filt_eg_pluck, filt_eg_pad, filt_eg_bass;
  33:main.cpp      **** // MoogLadder VCF_pluck, VCF_pad, VCF_bass; HOPE LADDER IS THE SAME AS MOOGLADDER
  34:main.cpp      **** static LadderFilter VCF_pluck, VCF_pad, VCF_bass;
  35:main.cpp      **** 
  36:main.cpp      **** uint16_t value_pluck, value_pad, value_bass;
  37:main.cpp      **** float now_f_pluck, now_f_pad, now_f_bass;
  38:main.cpp      **** bool Gate_pluck, Gate_pad, Gate_bass;
  39:main.cpp      **** 
ARM GAS  C:\Users\skipi\AppData\Local\Temp\ccHKWaHh.s 			page 14


  40:main.cpp      **** float filtered_pluck, filtered_pad, filtered_bass;
  41:main.cpp      **** 
  42:main.cpp      **** AnalogDelay Delay;
  43:main.cpp      **** 
  44:main.cpp      **** float out_mix;
  45:main.cpp      **** 
  46:main.cpp      **** uint16_t lasttouched = 0;
  47:main.cpp      **** uint16_t currtouched = 0;
  48:main.cpp      **** 
  49:main.cpp      **** static void AudioCallback(AudioHandle::InterleavingInputBuffer in,
  50:main.cpp      ****                           AudioHandle::InterleavingOutputBuffer out,
  51:main.cpp      ****                           size_t size)
  52:main.cpp      **** {
 164              		.loc 10 52 1 is_stmt 1 view -0
 165              		.cfi_startproc
 166              		@ args = 0, pretend = 0, frame = 8
 167              		@ frame_needed = 0, uses_anonymous_args = 0
  53:main.cpp      **** 
  54:main.cpp      ****   for (size_t i = 0; i < size; i += 2)
 168              		.loc 10 54 3 view .LVU21
 169              	.LBB432:
 170              		.loc 10 54 24 view .LVU22
 171 0000 002A     		cmp	r2, #0
 172 0002 00F0F680 		beq	.L14
 173 0006 013A     		subs	r2, r2, #1
 174              	.LVL5:
 175              		.loc 10 54 24 is_stmt 0 view .LVU23
 176              	.LBE432:
  52:main.cpp      **** 
 177              		.loc 10 52 1 view .LVU24
 178 0008 2DE9F04F 		push	{r4, r5, r6, r7, r8, r9, r10, fp, lr}
 179              		.cfi_def_cfa_offset 36
 180              		.cfi_offset 4, -36
 181              		.cfi_offset 5, -32
 182              		.cfi_offset 6, -28
 183              		.cfi_offset 7, -24
 184              		.cfi_offset 8, -20
 185              		.cfi_offset 9, -16
 186              		.cfi_offset 10, -12
 187              		.cfi_offset 11, -8
 188              		.cfi_offset 14, -4
 189 000c 5308     		lsrs	r3, r2, #1
 190 000e 0C46     		mov	r4, r1
 191              	.LBB436:
 192              		.loc 10 54 24 view .LVU25
 193 0010 0025     		movs	r5, #0
 194 0012 DFF868B2 		ldr	fp, .L17+136
 195 0016 DFF868A2 		ldr	r10, .L17+140
 196 001a 764F     		ldr	r7, .L17
 197 001c 764E     		ldr	r6, .L17+4
 198 001e DFF86492 		ldr	r9, .L17+144
 199 0022 DFF86482 		ldr	r8, .L17+148
 200              	.LBE436:
  52:main.cpp      **** 
 201              		.loc 10 52 1 view .LVU26
 202 0026 2DED068B 		vpush.64	{d8, d9, d10}
 203              		.cfi_def_cfa_offset 60
ARM GAS  C:\Users\skipi\AppData\Local\Temp\ccHKWaHh.s 			page 15


 204              		.cfi_offset 80, -60
 205              		.cfi_offset 81, -56
 206              		.cfi_offset 82, -52
 207              		.cfi_offset 83, -48
 208              		.cfi_offset 84, -44
 209              		.cfi_offset 85, -40
 210 002a 83B0     		sub	sp, sp, #12
 211              		.cfi_def_cfa_offset 72
 212 002c 0193     		str	r3, [sp, #4]
 213              	.LVL6:
 214              	.L8:
 215              	.LBB437:
 216              	.LBB433:
  55:main.cpp      ****   {
  56:main.cpp      ****     //\\\\\\\\\\\\\\\\\\\\\\\\\\\\\\\\\\\\\\\\\\\\\\\\\\\\\\\\\\\\\\\\\\\\\\\\\\\\\\\\\\\\\\\\\\\\\
  57:main.cpp      ****     shape_pluck = lfo1.Process();
 217              		.loc 10 57 5 is_stmt 1 discriminator 2 view .LVU27
 218              		.loc 10 57 31 is_stmt 0 discriminator 2 view .LVU28
 219 002e 7348     		ldr	r0, .L17+8
 220 0030 FFF7FEFF 		bl	_ZN7daisysp10Oscillator7ProcessEv
 221              	.LVL7:
 222              		.loc 10 57 17 discriminator 2 view .LVU29
 223 0034 724B     		ldr	r3, .L17+12
  58:main.cpp      ****     shape_bass = lfo2.Process();
 224              		.loc 10 58 30 discriminator 2 view .LVU30
 225 0036 7348     		ldr	r0, .L17+16
  57:main.cpp      ****     shape_bass = lfo2.Process();
 226              		.loc 10 57 17 discriminator 2 view .LVU31
 227 0038 83ED000A 		vstr.32	s0, [r3]
 228              		.loc 10 58 5 is_stmt 1 discriminator 2 view .LVU32
 229              		.loc 10 58 30 is_stmt 0 discriminator 2 view .LVU33
 230 003c FFF7FEFF 		bl	_ZN7daisysp10Oscillator7ProcessEv
 231              	.LVL8:
 232              		.loc 10 58 16 discriminator 2 view .LVU34
 233 0040 714A     		ldr	r2, .L17+20
  59:main.cpp      ****     shape_pad = lfo3.Process();
 234              		.loc 10 59 29 discriminator 2 view .LVU35
 235 0042 7248     		ldr	r0, .L17+24
  58:main.cpp      ****     shape_bass = lfo2.Process();
 236              		.loc 10 58 16 discriminator 2 view .LVU36
 237 0044 82ED000A 		vstr.32	s0, [r2]
 238              		.loc 10 59 5 is_stmt 1 discriminator 2 view .LVU37
 239              		.loc 10 59 29 is_stmt 0 discriminator 2 view .LVU38
 240 0048 FFF7FEFF 		bl	_ZN7daisysp10Oscillator7ProcessEv
 241              	.LVL9:
  60:main.cpp      **** 
  61:main.cpp      ****     pluck.SetShape(shape_pluck); // Set shape modulation for pluck
 242              		.loc 10 61 19 discriminator 2 view .LVU39
 243 004c 6C4B     		ldr	r3, .L17+12
  59:main.cpp      ****     shape_pad = lfo3.Process();
 244              		.loc 10 59 15 discriminator 2 view .LVU40
 245 004e 7049     		ldr	r1, .L17+28
 246              		.loc 10 61 19 discriminator 2 view .LVU41
 247 0050 7048     		ldr	r0, .L17+32
  59:main.cpp      ****     shape_pad = lfo3.Process();
 248              		.loc 10 59 15 discriminator 2 view .LVU42
 249 0052 81ED000A 		vstr.32	s0, [r1]
ARM GAS  C:\Users\skipi\AppData\Local\Temp\ccHKWaHh.s 			page 16


 250              		.loc 10 61 5 is_stmt 1 discriminator 2 view .LVU43
 251              		.loc 10 61 19 is_stmt 0 discriminator 2 view .LVU44
 252 0056 93ED000A 		vldr.32	s0, [r3]
 253 005a FFF7FEFF 		bl	_ZN4Ramo8SetShapeEf
 254              	.LVL10:
  62:main.cpp      ****     bass.SetShape(shape_bass);   // Set shape modulation for bass
 255              		.loc 10 62 5 is_stmt 1 discriminator 2 view .LVU45
 256              		.loc 10 62 18 is_stmt 0 discriminator 2 view .LVU46
 257 005e 6A4A     		ldr	r2, .L17+20
 258 0060 6D48     		ldr	r0, .L17+36
 259 0062 92ED000A 		vldr.32	s0, [r2]
 260 0066 FFF7FEFF 		bl	_ZN4Ramo8SetShapeEf
 261              	.LVL11:
  63:main.cpp      ****     pad.SetShape(shape_pad);     // Set shape modulation for pad
 262              		.loc 10 63 5 is_stmt 1 discriminator 2 view .LVU47
 263              		.loc 10 63 17 is_stmt 0 discriminator 2 view .LVU48
 264 006a 6949     		ldr	r1, .L17+28
 265 006c 6B48     		ldr	r0, .L17+40
 266 006e 91ED000A 		vldr.32	s0, [r1]
 267 0072 FFF7FEFF 		bl	_ZN4Ramo8SetShapeEf
 268              	.LVL12:
  64:main.cpp      ****                                  //\\\\\\\\\\\\\\\\\\\\\\\\\\\\\\\\\\\\\\\\\\\\\\\\\\\\\\\\\\\\\\\\
  65:main.cpp      ****     pluck.SetFreq(now_f_pluck);
 269              		.loc 10 65 5 is_stmt 1 discriminator 2 view .LVU49
 270              		.loc 10 65 18 is_stmt 0 discriminator 2 view .LVU50
 271 0076 6A4B     		ldr	r3, .L17+44
 272 0078 6648     		ldr	r0, .L17+32
 273 007a 93ED000A 		vldr.32	s0, [r3]
 274 007e FFF7FEFF 		bl	_ZN4Ramo7SetFreqEf
 275              	.LVL13:
  66:main.cpp      ****     bass.SetFreq(now_f_bass);
 276              		.loc 10 66 5 is_stmt 1 discriminator 2 view .LVU51
 277              		.loc 10 66 17 is_stmt 0 discriminator 2 view .LVU52
 278 0082 684B     		ldr	r3, .L17+48
 279 0084 6448     		ldr	r0, .L17+36
 280 0086 93ED000A 		vldr.32	s0, [r3]
 281 008a FFF7FEFF 		bl	_ZN4Ramo7SetFreqEf
 282              	.LVL14:
  67:main.cpp      ****     pad.SetFreq(now_f_pad);
 283              		.loc 10 67 5 is_stmt 1 discriminator 2 view .LVU53
 284              		.loc 10 67 16 is_stmt 0 discriminator 2 view .LVU54
 285 008e 664B     		ldr	r3, .L17+52
 286 0090 6248     		ldr	r0, .L17+40
 287 0092 93ED000A 		vldr.32	s0, [r3]
 288 0096 FFF7FEFF 		bl	_ZN4Ramo7SetFreqEf
 289              	.LVL15:
  68:main.cpp      **** 
  69:main.cpp      ****     //\\\\\\\\\\\\\\\\\\\\\\\\\\\\\\\\\\\\\\\\\\\\\\\\\\\\\\\\\\\\\\\\\\\\\\\\\\\\\\\\\\\\\\\\\\\\\
  70:main.cpp      ****     float amp_env_pluck = amp_eg_pluck.Process(Gate_pluck); // crea inviluppo ampiezza pluck
 290              		.loc 10 70 5 is_stmt 1 discriminator 2 view .LVU55
 291              		.loc 10 70 47 is_stmt 0 discriminator 2 view .LVU56
 292 009a 644B     		ldr	r3, .L17+56
 293 009c 6448     		ldr	r0, .L17+60
 294 009e 1978     		ldrb	r1, [r3]	@ zero_extendqisi2
 295 00a0 FFF7FEFF 		bl	_ZN7daisysp4Adsr7ProcessEb
 296              	.LVL16:
  71:main.cpp      ****     float amp_env_pad = amp_eg_pad.Process(Gate_pad);       // crea inviluppo ampiezza pad
ARM GAS  C:\Users\skipi\AppData\Local\Temp\ccHKWaHh.s 			page 17


 297              		.loc 10 71 43 discriminator 2 view .LVU57
 298 00a4 634A     		ldr	r2, .L17+64
 299 00a6 6448     		ldr	r0, .L17+68
  70:main.cpp      ****     float amp_env_pad = amp_eg_pad.Process(Gate_pad);       // crea inviluppo ampiezza pad
 300              		.loc 10 70 47 discriminator 2 view .LVU58
 301 00a8 B0EE409A 		vmov.f32	s18, s0
 302              	.LVL17:
 303              		.loc 10 71 5 is_stmt 1 discriminator 2 view .LVU59
 304              		.loc 10 71 43 is_stmt 0 discriminator 2 view .LVU60
 305 00ac 1178     		ldrb	r1, [r2]	@ zero_extendqisi2
 306 00ae FFF7FEFF 		bl	_ZN7daisysp4Adsr7ProcessEb
 307              	.LVL18:
  72:main.cpp      ****     float amp_env_bass = amp_eg_bass.Process(Gate_bass);    // crea inviluppo ampiezza bass
 308              		.loc 10 72 45 discriminator 2 view .LVU61
 309 00b2 6249     		ldr	r1, .L17+72
 310 00b4 6248     		ldr	r0, .L17+76
  71:main.cpp      ****     float amp_env_pad = amp_eg_pad.Process(Gate_pad);       // crea inviluppo ampiezza pad
 311              		.loc 10 71 43 discriminator 2 view .LVU62
 312 00b6 F0EE408A 		vmov.f32	s17, s0
 313              	.LVL19:
 314              		.loc 10 72 5 is_stmt 1 discriminator 2 view .LVU63
 315              		.loc 10 72 45 is_stmt 0 discriminator 2 view .LVU64
 316 00ba 0978     		ldrb	r1, [r1]	@ zero_extendqisi2
 317 00bc FFF7FEFF 		bl	_ZN7daisysp4Adsr7ProcessEb
 318              	.LVL20:
  73:main.cpp      ****     //\\\\\\\\\\\\\\\\\\\\\\\\\\\\\\\\\\\\\\\\\\\\\\\\\\\\\\\\\\\\\\\\\\\\\\\\\\\\\\\\\\\\\\\\\\\\\
  74:main.cpp      ****     float filt_env_pluck = filt_eg_pluck.Process(Gate_pluck); // crea inviluppo filtro pluck
 319              		.loc 10 74 49 discriminator 2 view .LVU65
 320 00c0 5A4B     		ldr	r3, .L17+56
 321 00c2 6048     		ldr	r0, .L17+80
  72:main.cpp      ****     float amp_env_bass = amp_eg_bass.Process(Gate_bass);    // crea inviluppo ampiezza bass
 322              		.loc 10 72 45 discriminator 2 view .LVU66
 323 00c4 B0EE408A 		vmov.f32	s16, s0
 324              	.LVL21:
 325              		.loc 10 74 5 is_stmt 1 discriminator 2 view .LVU67
 326              		.loc 10 74 49 is_stmt 0 discriminator 2 view .LVU68
 327 00c8 1978     		ldrb	r1, [r3]	@ zero_extendqisi2
 328 00ca FFF7FEFF 		bl	_ZN7daisysp4Adsr7ProcessEb
 329              	.LVL22:
  75:main.cpp      ****     float filt_env_pad = filt_eg_pad.Process(Gate_pad);       // crea inviluppo filtro pad
 330              		.loc 10 75 45 discriminator 2 view .LVU69
 331 00ce 594A     		ldr	r2, .L17+64
 332 00d0 5D48     		ldr	r0, .L17+84
  74:main.cpp      ****     float filt_env_pad = filt_eg_pad.Process(Gate_pad);       // crea inviluppo filtro pad
 333              		.loc 10 74 49 discriminator 2 view .LVU70
 334 00d2 F0EE40AA 		vmov.f32	s21, s0
 335              	.LVL23:
 336              		.loc 10 75 5 is_stmt 1 discriminator 2 view .LVU71
 337              		.loc 10 75 45 is_stmt 0 discriminator 2 view .LVU72
 338 00d6 1178     		ldrb	r1, [r2]	@ zero_extendqisi2
 339 00d8 FFF7FEFF 		bl	_ZN7daisysp4Adsr7ProcessEb
 340              	.LVL24:
  76:main.cpp      ****     float filt_env_bass = filt_eg_bass.Process(Gate_bass);    // crea inviluppo filtro bass
 341              		.loc 10 76 47 discriminator 2 view .LVU73
 342 00dc 5749     		ldr	r1, .L17+72
 343 00de 5B48     		ldr	r0, .L17+88
  75:main.cpp      ****     float filt_env_pad = filt_eg_pad.Process(Gate_pad);       // crea inviluppo filtro pad
ARM GAS  C:\Users\skipi\AppData\Local\Temp\ccHKWaHh.s 			page 18


 344              		.loc 10 75 45 discriminator 2 view .LVU74
 345 00e0 B0EE40AA 		vmov.f32	s20, s0
 346              	.LVL25:
 347              		.loc 10 76 5 is_stmt 1 discriminator 2 view .LVU75
 348              		.loc 10 76 47 is_stmt 0 discriminator 2 view .LVU76
 349 00e4 0978     		ldrb	r1, [r1]	@ zero_extendqisi2
 350 00e6 FFF7FEFF 		bl	_ZN7daisysp4Adsr7ProcessEb
 351              	.LVL26:
  77:main.cpp      **** 
  78:main.cpp      ****     //\\\\\\\\\\\\\\\\\\\\\\\\\\\\\\\\\\\\\\\\\\\\\\\\\\\\\\\\\\\\\\\\\\\\\\\\\\\\\\\\\\\\\\\\\\\\\
  79:main.cpp      ****     VCF_pluck.SetFreq(ft_pluck - filt_env_pluck * f_EG_pluck); // applico l'inviluppo al filtro del
 352              		.loc 10 79 22 discriminator 2 view .LVU77
 353 00ea 594B     		ldr	r3, .L17+92
  76:main.cpp      ****     float filt_env_bass = filt_eg_bass.Process(Gate_bass);    // crea inviluppo filtro bass
 354              		.loc 10 76 47 discriminator 2 view .LVU78
 355 00ec F0EE409A 		vmov.f32	s19, s0
 356              	.LVL27:
 357              		.loc 10 79 5 is_stmt 1 discriminator 2 view .LVU79
 358              		.loc 10 79 22 is_stmt 0 discriminator 2 view .LVU80
 359 00f0 5848     		ldr	r0, .L17+96
 360 00f2 D3ED007A 		vldr.32	s15, [r3]
 361 00f6 584B     		ldr	r3, .L17+100
 362 00f8 93ED000A 		vldr.32	s0, [r3]
 363              	.LVL28:
 364              		.loc 10 79 22 discriminator 2 view .LVU81
 365 00fc A7EEEA0A 		vfms.f32	s0, s15, s21
 366 0100 FFF7FEFF 		bl	_ZN7daisysp12LadderFilter7SetFreqEf
 367              	.LVL29:
  80:main.cpp      ****     VCF_pad.SetFreq(ft_pad + filt_env_pad * f_EG_pad);         // applico l'inviluppo al filtro del
 368              		.loc 10 80 5 is_stmt 1 discriminator 2 view .LVU82
 369              		.loc 10 80 20 is_stmt 0 discriminator 2 view .LVU83
 370 0104 554B     		ldr	r3, .L17+104
 371 0106 5648     		ldr	r0, .L17+108
 372 0108 D3ED007A 		vldr.32	s15, [r3]
 373 010c 554B     		ldr	r3, .L17+112
 374 010e 93ED000A 		vldr.32	s0, [r3]
 375 0112 A7EE8A0A 		vfma.f32	s0, s15, s20
 376 0116 FFF7FEFF 		bl	_ZN7daisysp12LadderFilter7SetFreqEf
 377              	.LVL30:
  81:main.cpp      ****     VCF_bass.SetFreq(ft_bass + filt_env_bass * f_EG_bass);     // applico l'inviluppo al filtro del
 378              		.loc 10 81 5 is_stmt 1 discriminator 2 view .LVU84
 379              		.loc 10 81 21 is_stmt 0 discriminator 2 view .LVU85
 380 011a DBED007A 		vldr.32	s15, [fp]
 381 011e 9AED000A 		vldr.32	s0, [r10]
 382 0122 5148     		ldr	r0, .L17+116
 383 0124 A7EEA90A 		vfma.f32	s0, s15, s19
 384 0128 FFF7FEFF 		bl	_ZN7daisysp12LadderFilter7SetFreqEf
 385              	.LVL31:
  82:main.cpp      ****     //\\\\\\\\\\\\\\\\\\\\\\\\\\\\\\\\\\\\\\\\\\\\\\\\\\\\\\\\\\\\\\\\\\\\\\\\\\\\\\\\\\\\\\\\\\\\\
  83:main.cpp      ****     pluck.SetGain(amp_env_pluck);
 386              		.loc 10 83 5 is_stmt 1 discriminator 2 view .LVU86
 387              		.loc 10 83 18 is_stmt 0 discriminator 2 view .LVU87
 388 012c B0EE490A 		vmov.f32	s0, s18
 389 0130 3848     		ldr	r0, .L17+32
 390 0132 FFF7FEFF 		bl	_ZN4Ramo7SetGainEf
 391              	.LVL32:
  84:main.cpp      ****     pad.SetGain(amp_env_pad);
ARM GAS  C:\Users\skipi\AppData\Local\Temp\ccHKWaHh.s 			page 19


 392              		.loc 10 84 5 is_stmt 1 discriminator 2 view .LVU88
 393              		.loc 10 84 16 is_stmt 0 discriminator 2 view .LVU89
 394 0136 B0EE680A 		vmov.f32	s0, s17
 395 013a 3848     		ldr	r0, .L17+40
 396 013c FFF7FEFF 		bl	_ZN4Ramo7SetGainEf
 397              	.LVL33:
  85:main.cpp      ****     bass.SetGain(amp_env_bass);
 398              		.loc 10 85 5 is_stmt 1 discriminator 2 view .LVU90
 399              		.loc 10 85 17 is_stmt 0 discriminator 2 view .LVU91
 400 0140 B0EE480A 		vmov.f32	s0, s16
 401 0144 3448     		ldr	r0, .L17+36
 402 0146 FFF7FEFF 		bl	_ZN4Ramo7SetGainEf
 403              	.LVL34:
  86:main.cpp      ****     //\\\\\\\\\\\\\\\\\\\\\\\\\\\\\\\\\\\\\\\\\\\\\\\\\\\\\\\\\\\\\\\\\\\\\\\\\\\\\\\\\\\\\\\\\\\\\
  87:main.cpp      ****     float raw_pluck = pluck.Process();
 404              		.loc 10 87 5 is_stmt 1 discriminator 2 view .LVU92
 405              		.loc 10 87 36 is_stmt 0 discriminator 2 view .LVU93
 406 014a 3248     		ldr	r0, .L17+32
 407 014c FFF7FEFF 		bl	_ZN4Ramo7ProcessEv
 408              	.LVL35:
 409 0150 B0EE409A 		vmov.f32	s18, s0
 410              	.LVL36:
  88:main.cpp      ****     float raw_pad = pad.Process();
 411              		.loc 10 88 5 is_stmt 1 discriminator 2 view .LVU94
 412              		.loc 10 88 32 is_stmt 0 discriminator 2 view .LVU95
 413 0154 3148     		ldr	r0, .L17+40
 414 0156 FFF7FEFF 		bl	_ZN4Ramo7ProcessEv
 415              	.LVL37:
  89:main.cpp      ****     float raw_bass = bass.Process();
 416              		.loc 10 89 34 discriminator 2 view .LVU96
 417 015a 2F48     		ldr	r0, .L17+36
  88:main.cpp      ****     float raw_pad = pad.Process();
 418              		.loc 10 88 32 discriminator 2 view .LVU97
 419 015c F0EE408A 		vmov.f32	s17, s0
 420              	.LVL38:
 421              		.loc 10 89 5 is_stmt 1 discriminator 2 view .LVU98
 422              		.loc 10 89 34 is_stmt 0 discriminator 2 view .LVU99
 423 0160 FFF7FEFF 		bl	_ZN4Ramo7ProcessEv
 424              	.LVL39:
  90:main.cpp      **** 
  91:main.cpp      ****     //\\\\\\\\\\\\\\\\\\\\\\\\\\\\\\\\\\\\\\\\\\\\\\\\\\\\\\\\\\\\\\\\\\\\\\\\\\\\\\\\\\\\\\\\\\\\\
  92:main.cpp      ****     filtered_pluck = VCF_pluck.Process(raw_pluck);
 425              		.loc 10 92 39 discriminator 2 view .LVU100
 426 0164 3B48     		ldr	r0, .L17+96
  89:main.cpp      ****     float raw_bass = bass.Process();
 427              		.loc 10 89 34 discriminator 2 view .LVU101
 428 0166 B0EE408A 		vmov.f32	s16, s0
 429              	.LVL40:
 430              		.loc 10 92 39 discriminator 2 view .LVU102
 431 016a B0EE490A 		vmov.f32	s0, s18
 432              	.LVL41:
 433              		.loc 10 92 5 is_stmt 1 discriminator 2 view .LVU103
 434              		.loc 10 92 39 is_stmt 0 discriminator 2 view .LVU104
 435 016e FFF7FEFF 		bl	_ZN7daisysp12LadderFilter7ProcessEf
 436              	.LVL42:
 437 0172 F0EE407A 		vmov.f32	s15, s0
  93:main.cpp      ****     filtered_pad = VCF_pad.Process(raw_pad);
ARM GAS  C:\Users\skipi\AppData\Local\Temp\ccHKWaHh.s 			page 20


 438              		.loc 10 93 35 discriminator 2 view .LVU105
 439 0176 3A48     		ldr	r0, .L17+108
 440 0178 B0EE680A 		vmov.f32	s0, s17
  92:main.cpp      ****     filtered_pad = VCF_pad.Process(raw_pad);
 441              		.loc 10 92 20 discriminator 2 view .LVU106
 442 017c C7ED007A 		vstr.32	s15, [r7]
 443              		.loc 10 93 5 is_stmt 1 discriminator 2 view .LVU107
 444              		.loc 10 93 35 is_stmt 0 discriminator 2 view .LVU108
 445 0180 FFF7FEFF 		bl	_ZN7daisysp12LadderFilter7ProcessEf
 446              	.LVL43:
 447 0184 F0EE407A 		vmov.f32	s15, s0
  94:main.cpp      ****     filtered_bass = VCF_bass.Process(raw_bass);
 448              		.loc 10 94 37 discriminator 2 view .LVU109
 449 0188 3748     		ldr	r0, .L17+116
 450 018a B0EE480A 		vmov.f32	s0, s16
  93:main.cpp      ****     filtered_pad = VCF_pad.Process(raw_pad);
 451              		.loc 10 93 18 discriminator 2 view .LVU110
 452 018e C6ED007A 		vstr.32	s15, [r6]
 453              		.loc 10 94 5 is_stmt 1 discriminator 2 view .LVU111
 454              		.loc 10 94 37 is_stmt 0 discriminator 2 view .LVU112
 455 0192 FFF7FEFF 		bl	_ZN7daisysp12LadderFilter7ProcessEf
 456              	.LVL44:
  95:main.cpp      ****     //\\\\\\\\\\\\\\\\\\\\\\\\\\\\\\\\\\\\\\\\\\\\\\\\\\\\\\\\\\\\\\\\\\\\\\\\\\\\\\\\\\\\\\\\\\\\\
  96:main.cpp      ****     /*
  97:main.cpp      ****         float delay_pluck = Delay.Process(filt_pluck);
  98:main.cpp      ****         // float out_mix = (delay_pluck + filt_pad + filt_bass) * master;
  99:main.cpp      ****         out_mix = (delay_pluck + filt_pad + filt_bass) * master;
 100:main.cpp      ****     */
 101:main.cpp      ****     //\\\\\\\\\\\\\\\\\\\\\\\\\\\\\\\\\\\\\\\\\\\\\\\\\\\\\\\\\\\\\\\\\\\\\\\\\\\\\\\\\\\\\\\\\\\\\
 102:main.cpp      **** 
 103:main.cpp      ****     out_mix = (filtered_pluck * gain_pluck + filtered_pad * gain_pad + filtered_bass * gain_bass) *
 457              		.loc 10 103 59 discriminator 2 view .LVU113
 458 0196 354B     		ldr	r3, .L17+120
 459 0198 D6ED007A 		vldr.32	s15, [r6]
 460 019c 93ED007A 		vldr.32	s14, [r3]
 461              		.loc 10 103 44 discriminator 2 view .LVU114
 462 01a0 334A     		ldr	r2, .L17+124
 463              		.loc 10 103 59 discriminator 2 view .LVU115
 464 01a2 67EE877A 		vmul.f32	s15, s15, s14
 465              		.loc 10 103 44 discriminator 2 view .LVU116
 466 01a6 D7ED005A 		vldr.32	s11, [r7]
 467 01aa 92ED006A 		vldr.32	s12, [r2]
 468              		.loc 10 103 70 discriminator 2 view .LVU117
 469 01ae D9ED006A 		vldr.32	s13, [r9]
 470              		.loc 10 103 44 discriminator 2 view .LVU118
 471 01b2 E5EE867A 		vfma.f32	s15, s11, s12
 472              		.loc 10 103 99 discriminator 2 view .LVU119
 473 01b6 98ED007A 		vldr.32	s14, [r8]
  94:main.cpp      ****     filtered_bass = VCF_bass.Process(raw_bass);
 474              		.loc 10 94 19 discriminator 2 view .LVU120
 475 01ba 2E49     		ldr	r1, .L17+128
 476              	.LBE433:
  54:main.cpp      ****   {
 477              		.loc 10 54 24 discriminator 2 view .LVU121
 478 01bc 0198     		ldr	r0, [sp, #4]
 479              	.LBB434:
  94:main.cpp      ****     filtered_bass = VCF_bass.Process(raw_bass);
ARM GAS  C:\Users\skipi\AppData\Local\Temp\ccHKWaHh.s 			page 21


 480              		.loc 10 94 19 discriminator 2 view .LVU122
 481 01be 81ED000A 		vstr.32	s0, [r1]
 482              		.loc 10 103 5 is_stmt 1 discriminator 2 view .LVU123
 483              		.loc 10 103 13 is_stmt 0 discriminator 2 view .LVU124
 484 01c2 2D49     		ldr	r1, .L17+132
 485              	.LBE434:
  54:main.cpp      ****   {
 486              		.loc 10 54 24 discriminator 2 view .LVU125
 487 01c4 A842     		cmp	r0, r5
 488 01c6 05F10105 		add	r5, r5, #1
 489              	.LVL45:
 490              	.LBB435:
 491              		.loc 10 103 70 discriminator 2 view .LVU126
 492 01ca E0EE267A 		vfma.f32	s15, s0, s13
 493              		.loc 10 103 99 discriminator 2 view .LVU127
 494 01ce 67EE877A 		vmul.f32	s15, s15, s14
 495              		.loc 10 103 13 discriminator 2 view .LVU128
 496 01d2 C1ED007A 		vstr.32	s15, [r1]
 104:main.cpp      **** 
 105:main.cpp      ****     out[i] = out[i + 1] = out_mix;
 497              		.loc 10 105 5 is_stmt 1 discriminator 2 view .LVU129
 498              		.loc 10 105 12 is_stmt 0 discriminator 2 view .LVU130
 499 01d6 2146     		mov	r1, r4
 500              		.loc 10 105 25 discriminator 2 view .LVU131
 501 01d8 C4ED017A 		vstr.32	s15, [r4, #4]
 502              		.loc 10 105 12 discriminator 2 view .LVU132
 503 01dc 04F10804 		add	r4, r4, #8
 504 01e0 C1ED007A 		vstr.32	s15, [r1]
 505              	.LBE435:
  54:main.cpp      ****   {
 506              		.loc 10 54 3 is_stmt 1 discriminator 2 view .LVU133
 507              	.LVL46:
  54:main.cpp      ****   {
 508              		.loc 10 54 24 discriminator 2 view .LVU134
 509 01e4 7FF423AF 		bne	.L8
 510              	.LBE437:
 106:main.cpp      ****   }
 107:main.cpp      **** }
 511              		.loc 10 107 1 is_stmt 0 view .LVU135
 512 01e8 03B0     		add	sp, sp, #12
 513              		.cfi_def_cfa_offset 60
 514              		@ sp needed
 515 01ea BDEC068B 		vldm	sp!, {d8-d10}
 516              		.cfi_restore 84
 517              		.cfi_restore 85
 518              		.cfi_restore 82
 519              		.cfi_restore 83
 520              		.cfi_restore 80
 521              		.cfi_restore 81
 522              		.cfi_def_cfa_offset 36
 523              	.LVL47:
 524              		.loc 10 107 1 view .LVU136
 525 01ee BDE8F08F 		pop	{r4, r5, r6, r7, r8, r9, r10, fp, pc}
 526              	.LVL48:
 527              	.L14:
 528              		.cfi_def_cfa_offset 0
 529              		.cfi_restore 4
ARM GAS  C:\Users\skipi\AppData\Local\Temp\ccHKWaHh.s 			page 22


 530              		.cfi_restore 5
 531              		.cfi_restore 6
 532              		.cfi_restore 7
 533              		.cfi_restore 8
 534              		.cfi_restore 9
 535              		.cfi_restore 10
 536              		.cfi_restore 11
 537              		.cfi_restore 14
 538              		.loc 10 107 1 view .LVU137
 539 01f2 7047     		bx	lr
 540              	.L18:
 541              		.align	2
 542              	.L17:
 543 01f4 00000000 		.word	.LANCHOR30
 544 01f8 00000000 		.word	.LANCHOR31
 545 01fc 00000000 		.word	.LANCHOR0
 546 0200 00000000 		.word	.LANCHOR1
 547 0204 00000000 		.word	.LANCHOR2
 548 0208 00000000 		.word	.LANCHOR3
 549 020c 00000000 		.word	.LANCHOR4
 550 0210 00000000 		.word	.LANCHOR5
 551 0214 00000000 		.word	.LANCHOR6
 552 0218 00000000 		.word	.LANCHOR7
 553 021c 00000000 		.word	.LANCHOR8
 554 0220 00000000 		.word	.LANCHOR9
 555 0224 00000000 		.word	.LANCHOR10
 556 0228 00000000 		.word	.LANCHOR11
 557 022c 00000000 		.word	.LANCHOR12
 558 0230 00000000 		.word	.LANCHOR13
 559 0234 00000000 		.word	.LANCHOR14
 560 0238 00000000 		.word	.LANCHOR15
 561 023c 00000000 		.word	.LANCHOR16
 562 0240 00000000 		.word	.LANCHOR17
 563 0244 00000000 		.word	.LANCHOR18
 564 0248 00000000 		.word	.LANCHOR19
 565 024c 00000000 		.word	.LANCHOR20
 566 0250 00000000 		.word	.LANCHOR21
 567 0254 00000000 		.word	.LANCHOR23
 568 0258 00000000 		.word	.LANCHOR22
 569 025c 00000000 		.word	.LANCHOR24
 570 0260 00000000 		.word	.LANCHOR26
 571 0264 00000000 		.word	.LANCHOR25
 572 0268 00000000 		.word	.LANCHOR29
 573 026c 00000000 		.word	.LANCHOR34
 574 0270 00000000 		.word	.LANCHOR33
 575 0274 00000000 		.word	.LANCHOR32
 576 0278 00000000 		.word	.LANCHOR37
 577 027c 00000000 		.word	.LANCHOR27
 578 0280 00000000 		.word	.LANCHOR28
 579 0284 00000000 		.word	.LANCHOR35
 580 0288 00000000 		.word	.LANCHOR36
 581              		.cfi_endproc
 582              	.LFE4843:
 584              		.section	.text._ZN7daisysp10Oscillator4InitEf,"axG",%progbits,_ZN7daisysp10Oscillator4InitEf,comda
 585              		.align	1
 586              		.p2align 2,,3
 587              		.weak	_ZN7daisysp10Oscillator4InitEf
ARM GAS  C:\Users\skipi\AppData\Local\Temp\ccHKWaHh.s 			page 23


 588              		.syntax unified
 589              		.thumb
 590              		.thumb_func
 591              		.fpu fpv5-d16
 593              	_ZN7daisysp10Oscillator4InitEf:
 594              	.LVL49:
 595              	.LFB4358:
  25:../../libs/DaisySP/Source/Synthesis/oscillator.h ****     /** Choices for output waveforms, POLYBLEP are appropriately labeled. Others are naive forms.
  26:../../libs/DaisySP/Source/Synthesis/oscillator.h ****     */
  27:../../libs/DaisySP/Source/Synthesis/oscillator.h ****     enum
  28:../../libs/DaisySP/Source/Synthesis/oscillator.h ****     {
  29:../../libs/DaisySP/Source/Synthesis/oscillator.h ****         WAVE_SIN,
  30:../../libs/DaisySP/Source/Synthesis/oscillator.h ****         WAVE_TRI,
  31:../../libs/DaisySP/Source/Synthesis/oscillator.h ****         WAVE_SAW,
  32:../../libs/DaisySP/Source/Synthesis/oscillator.h ****         WAVE_RAMP,
  33:../../libs/DaisySP/Source/Synthesis/oscillator.h ****         WAVE_SQUARE,
  34:../../libs/DaisySP/Source/Synthesis/oscillator.h ****         WAVE_POLYBLEP_TRI,
  35:../../libs/DaisySP/Source/Synthesis/oscillator.h ****         WAVE_POLYBLEP_SAW,
  36:../../libs/DaisySP/Source/Synthesis/oscillator.h ****         WAVE_POLYBLEP_SQUARE,
  37:../../libs/DaisySP/Source/Synthesis/oscillator.h ****         WAVE_LAST,
  38:../../libs/DaisySP/Source/Synthesis/oscillator.h ****     };
  39:../../libs/DaisySP/Source/Synthesis/oscillator.h **** 
  40:../../libs/DaisySP/Source/Synthesis/oscillator.h **** 
  41:../../libs/DaisySP/Source/Synthesis/oscillator.h ****     /** Initializes the Oscillator
  42:../../libs/DaisySP/Source/Synthesis/oscillator.h **** 
  43:../../libs/DaisySP/Source/Synthesis/oscillator.h ****         \param sample_rate - sample rate of the audio engine being run, and the frequency that the 
  44:../../libs/DaisySP/Source/Synthesis/oscillator.h **** 
  45:../../libs/DaisySP/Source/Synthesis/oscillator.h ****         Defaults:
  46:../../libs/DaisySP/Source/Synthesis/oscillator.h ****         - freq_ = 100 Hz
  47:../../libs/DaisySP/Source/Synthesis/oscillator.h ****         - amp_ = 0.5
  48:../../libs/DaisySP/Source/Synthesis/oscillator.h ****         - waveform_ = sine wave.
  49:../../libs/DaisySP/Source/Synthesis/oscillator.h ****     */
  50:../../libs/DaisySP/Source/Synthesis/oscillator.h ****     void Init(float sample_rate)
 596              		.loc 8 50 10 is_stmt 1 view -0
 597              		.cfi_startproc
 598              		@ args = 0, pretend = 0, frame = 0
 599              		@ frame_needed = 0, uses_anonymous_args = 0
  51:../../libs/DaisySP/Source/Synthesis/oscillator.h ****     {
  52:../../libs/DaisySP/Source/Synthesis/oscillator.h ****         sr_        = sample_rate;
 600              		.loc 8 52 9 view .LVU139
  50:../../libs/DaisySP/Source/Synthesis/oscillator.h ****     {
 601              		.loc 8 50 10 is_stmt 0 view .LVU140
 602 0000 F0EE407A 		vmov.f32	s15, s0
  53:../../libs/DaisySP/Source/Synthesis/oscillator.h ****         sr_recip_  = 1.0f / sample_rate;
  54:../../libs/DaisySP/Source/Synthesis/oscillator.h ****         freq_      = 100.0f;
  55:../../libs/DaisySP/Source/Synthesis/oscillator.h ****         amp_       = 0.5f;
 603              		.loc 8 55 20 view .LVU141
 604 0004 4FF07C53 		mov	r3, #1056964608
  53:../../libs/DaisySP/Source/Synthesis/oscillator.h ****         sr_recip_  = 1.0f / sample_rate;
 605              		.loc 8 53 27 view .LVU142
 606 0008 F7EE006A 		vmov.f32	s13, #1.0e+0
  56:../../libs/DaisySP/Source/Synthesis/oscillator.h ****         pw_        = 0.5f;
  57:../../libs/DaisySP/Source/Synthesis/oscillator.h ****         phase_     = 0.0f;
 607              		.loc 8 57 20 view .LVU143
 608 000c 0022     		movs	r2, #0
  54:../../libs/DaisySP/Source/Synthesis/oscillator.h ****         amp_       = 0.5f;
 609              		.loc 8 54 20 view .LVU144
ARM GAS  C:\Users\skipi\AppData\Local\Temp\ccHKWaHh.s 			page 24


 610 000e 9FED0C0A 		vldr.32	s0, .L21
 611              	.LVL50:
  55:../../libs/DaisySP/Source/Synthesis/oscillator.h ****         pw_        = 0.5f;
 612              		.loc 8 55 20 view .LVU145
 613 0012 4360     		str	r3, [r0, #4]	@ float
  53:../../libs/DaisySP/Source/Synthesis/oscillator.h ****         freq_      = 100.0f;
 614              		.loc 8 53 27 view .LVU146
 615 0014 86EEA77A 		vdiv.f32	s14, s13, s15
  56:../../libs/DaisySP/Source/Synthesis/oscillator.h ****         phase_     = 0.0f;
 616              		.loc 8 56 20 view .LVU147
 617 0018 C360     		str	r3, [r0, #12]	@ float
 618              		.loc 8 57 20 view .LVU148
 619 001a 8261     		str	r2, [r0, #24]	@ float
  52:../../libs/DaisySP/Source/Synthesis/oscillator.h ****         sr_recip_  = 1.0f / sample_rate;
 620              		.loc 8 52 20 view .LVU149
 621 001c C0ED047A 		vstr.32	s15, [r0, #16]
  53:../../libs/DaisySP/Source/Synthesis/oscillator.h ****         freq_      = 100.0f;
 622              		.loc 8 53 9 is_stmt 1 view .LVU150
  54:../../libs/DaisySP/Source/Synthesis/oscillator.h ****         amp_       = 0.5f;
 623              		.loc 8 54 20 is_stmt 0 view .LVU151
 624 0020 80ED020A 		vstr.32	s0, [r0, #8]
  50:../../libs/DaisySP/Source/Synthesis/oscillator.h ****     {
 625              		.loc 8 50 10 view .LVU152
 626 0024 10B5     		push	{r4, lr}
 627              		.cfi_def_cfa_offset 8
 628              		.cfi_offset 4, -8
 629              		.cfi_offset 14, -4
  50:../../libs/DaisySP/Source/Synthesis/oscillator.h ****     {
 630              		.loc 8 50 10 view .LVU153
 631 0026 0446     		mov	r4, r0
  53:../../libs/DaisySP/Source/Synthesis/oscillator.h ****         freq_      = 100.0f;
 632              		.loc 8 53 20 view .LVU154
 633 0028 80ED057A 		vstr.32	s14, [r0, #20]
  54:../../libs/DaisySP/Source/Synthesis/oscillator.h ****         amp_       = 0.5f;
 634              		.loc 8 54 9 is_stmt 1 view .LVU155
  55:../../libs/DaisySP/Source/Synthesis/oscillator.h ****         pw_        = 0.5f;
 635              		.loc 8 55 9 view .LVU156
  56:../../libs/DaisySP/Source/Synthesis/oscillator.h ****         phase_     = 0.0f;
 636              		.loc 8 56 9 view .LVU157
 637              		.loc 8 57 9 view .LVU158
  58:../../libs/DaisySP/Source/Synthesis/oscillator.h ****         phase_inc_ = CalcPhaseInc(freq_);
 638              		.loc 8 58 9 view .LVU159
 639              		.loc 8 58 34 is_stmt 0 view .LVU160
 640 002c FFF7FEFF 		bl	_ZN7daisysp10Oscillator12CalcPhaseIncEf
 641              	.LVL51:
  59:../../libs/DaisySP/Source/Synthesis/oscillator.h ****         waveform_  = WAVE_SIN;
 642              		.loc 8 59 20 view .LVU161
 643 0030 0022     		movs	r2, #0
  60:../../libs/DaisySP/Source/Synthesis/oscillator.h ****         eoc_       = true;
  61:../../libs/DaisySP/Source/Synthesis/oscillator.h ****         eor_       = true;
 644              		.loc 8 61 20 view .LVU162
 645 0032 40F20113 		movw	r3, #257
  58:../../libs/DaisySP/Source/Synthesis/oscillator.h ****         waveform_  = WAVE_SIN;
 646              		.loc 8 58 20 view .LVU163
 647 0036 84ED070A 		vstr.32	s0, [r4, #28]
  59:../../libs/DaisySP/Source/Synthesis/oscillator.h ****         waveform_  = WAVE_SIN;
 648              		.loc 8 59 9 is_stmt 1 view .LVU164
ARM GAS  C:\Users\skipi\AppData\Local\Temp\ccHKWaHh.s 			page 25


  59:../../libs/DaisySP/Source/Synthesis/oscillator.h ****         waveform_  = WAVE_SIN;
 649              		.loc 8 59 20 is_stmt 0 view .LVU165
 650 003a 2270     		strb	r2, [r4]
  60:../../libs/DaisySP/Source/Synthesis/oscillator.h ****         eoc_       = true;
 651              		.loc 8 60 9 is_stmt 1 view .LVU166
 652              		.loc 8 61 9 view .LVU167
 653              		.loc 8 61 20 is_stmt 0 view .LVU168
 654 003c 2385     		strh	r3, [r4, #40]	@ movhi
  62:../../libs/DaisySP/Source/Synthesis/oscillator.h ****     }
 655              		.loc 8 62 5 view .LVU169
 656 003e 10BD     		pop	{r4, pc}
 657              	.LVL52:
 658              	.L22:
 659              		.loc 8 62 5 view .LVU170
 660              		.align	2
 661              	.L21:
 662 0040 0000C842 		.word	1120403456
 663              		.cfi_endproc
 664              	.LFE4358:
 666              		.section	.text._ZN7daisysp12LadderFilterC2Ev,"axG",%progbits,_ZN7daisysp12LadderFilterC5Ev,comdat
 667              		.align	1
 668              		.p2align 2,,3
 669              		.weak	_ZN7daisysp12LadderFilterC2Ev
 670              		.syntax unified
 671              		.thumb
 672              		.thumb_func
 673              		.fpu fpv5-d16
 675              	_ZN7daisysp12LadderFilterC2Ev:
 676              	.LVL53:
 677              	.LFB4841:
 678              		.file 11 "../../libs/DaisySP/Source/Filters/ladder.h"
   1:../../libs/DaisySP/Source/Filters/ladder.h **** /* Ported from Audio Library for Teensy, Ladder Filter
   2:../../libs/DaisySP/Source/Filters/ladder.h ****  * Copyright (c) 2021, Richard van Hoesel
   3:../../libs/DaisySP/Source/Filters/ladder.h ****  * Copyright (c) 2024, Infrasonic Audio LLC
   4:../../libs/DaisySP/Source/Filters/ladder.h ****  *
   5:../../libs/DaisySP/Source/Filters/ladder.h ****  * Permission is hereby granted, free of charge, to any person obtaining a copy
   6:../../libs/DaisySP/Source/Filters/ladder.h ****  * of this software and associated documentation files (the "Software"), to deal
   7:../../libs/DaisySP/Source/Filters/ladder.h ****  * in the Software without restriction, including without limitation the rights
   8:../../libs/DaisySP/Source/Filters/ladder.h ****  * to use, copy, modify, merge, publish, distribute, sublicense, and/or sell
   9:../../libs/DaisySP/Source/Filters/ladder.h ****  * copies of the Software, and to permit persons to whom the Software is
  10:../../libs/DaisySP/Source/Filters/ladder.h ****  * furnished to do so, subject to the following conditions:
  11:../../libs/DaisySP/Source/Filters/ladder.h ****  *
  12:../../libs/DaisySP/Source/Filters/ladder.h ****  * The above copyright notice, development funding notice, and this permission
  13:../../libs/DaisySP/Source/Filters/ladder.h ****  * notice shall be included in all copies or substantial portions of the Software.
  14:../../libs/DaisySP/Source/Filters/ladder.h ****  *
  15:../../libs/DaisySP/Source/Filters/ladder.h ****  * THE SOFTWARE IS PROVIDED "AS IS", WITHOUT WARRANTY OF ANY KIND, EXPRESS OR
  16:../../libs/DaisySP/Source/Filters/ladder.h ****  * IMPLIED, INCLUDING BUT NOT LIMITED TO THE WARRANTIES OF MERCHANTABILITY,
  17:../../libs/DaisySP/Source/Filters/ladder.h ****  * FITNESS FOR A PARTICULAR PURPOSE AND NONINFRINGEMENT. IN NO EVENT SHALL THE
  18:../../libs/DaisySP/Source/Filters/ladder.h ****  * AUTHORS OR COPYRIGHT HOLDERS BE LIABLE FOR ANY CLAIM, DAMAGES OR OTHER
  19:../../libs/DaisySP/Source/Filters/ladder.h ****  * LIABILITY, WHETHER IN AN ACTION OF CONTRACT, TORT OR OTHERWISE, ARISING FROM,
  20:../../libs/DaisySP/Source/Filters/ladder.h ****  * OUT OF OR IN CONNECTION WITH THE SOFTWARE OR THE USE OR OTHER DEALINGS IN
  21:../../libs/DaisySP/Source/Filters/ladder.h ****  * THE SOFTWARE.
  22:../../libs/DaisySP/Source/Filters/ladder.h ****  */
  23:../../libs/DaisySP/Source/Filters/ladder.h **** 
  24:../../libs/DaisySP/Source/Filters/ladder.h **** //-----------------------------------------------------------
  25:../../libs/DaisySP/Source/Filters/ladder.h **** // Huovilainen New Moog (HNM) model as per CMJ jun 2006
  26:../../libs/DaisySP/Source/Filters/ladder.h **** // Richard van Hoesel, v. 1.03, Feb. 14 2021
ARM GAS  C:\Users\skipi\AppData\Local\Temp\ccHKWaHh.s 			page 26


  27:../../libs/DaisySP/Source/Filters/ladder.h **** // v1.7 (Infrasonic/Daisy) add configurable filter mode
  28:../../libs/DaisySP/Source/Filters/ladder.h **** // v1.6 (Infrasonic/Daisy) removes polyphase FIR, uses 4x linear
  29:../../libs/DaisySP/Source/Filters/ladder.h **** //      oversampling for performance reasons
  30:../../libs/DaisySP/Source/Filters/ladder.h **** // v1.5 adds polyphase FIR or Linear interpolation
  31:../../libs/DaisySP/Source/Filters/ladder.h **** // v1.4 FC extended to 18.7kHz, max res to 1.8, 4x oversampling,
  32:../../libs/DaisySP/Source/Filters/ladder.h **** //      and a minor Q-tuning adjustment
  33:../../libs/DaisySP/Source/Filters/ladder.h **** // v.1.03 adds oversampling, extended resonance,
  34:../../libs/DaisySP/Source/Filters/ladder.h **** // and exposes parameters input_drive and passband_gain
  35:../../libs/DaisySP/Source/Filters/ladder.h **** // v.1.02 now includes both cutoff and resonance "CV" modulation inputs
  36:../../libs/DaisySP/Source/Filters/ladder.h **** // please retain this header if you use this code.
  37:../../libs/DaisySP/Source/Filters/ladder.h **** //-----------------------------------------------------------
  38:../../libs/DaisySP/Source/Filters/ladder.h **** 
  39:../../libs/DaisySP/Source/Filters/ladder.h **** #pragma once
  40:../../libs/DaisySP/Source/Filters/ladder.h **** #ifndef DSY_LADDER_H
  41:../../libs/DaisySP/Source/Filters/ladder.h **** #define DSY_LADDER_H
  42:../../libs/DaisySP/Source/Filters/ladder.h **** 
  43:../../libs/DaisySP/Source/Filters/ladder.h **** #include <stdlib.h>
  44:../../libs/DaisySP/Source/Filters/ladder.h **** #include <stdint.h>
  45:../../libs/DaisySP/Source/Filters/ladder.h **** #include <array>
  46:../../libs/DaisySP/Source/Filters/ladder.h **** #ifdef __cplusplus
  47:../../libs/DaisySP/Source/Filters/ladder.h **** 
  48:../../libs/DaisySP/Source/Filters/ladder.h **** namespace daisysp
  49:../../libs/DaisySP/Source/Filters/ladder.h **** {
  50:../../libs/DaisySP/Source/Filters/ladder.h **** /**
  51:../../libs/DaisySP/Source/Filters/ladder.h ****  * 4-pole ladder filter model with selectable filter type (LP/BP/HP 12 or 24 dB/oct),
  52:../../libs/DaisySP/Source/Filters/ladder.h ****  * drive, passband gain compensation, and stable self-oscillation.
  53:../../libs/DaisySP/Source/Filters/ladder.h ****  *
  54:../../libs/DaisySP/Source/Filters/ladder.h ****  *
  55:../../libs/DaisySP/Source/Filters/ladder.h ****  */
  56:../../libs/DaisySP/Source/Filters/ladder.h **** class LadderFilter
  57:../../libs/DaisySP/Source/Filters/ladder.h **** {
  58:../../libs/DaisySP/Source/Filters/ladder.h ****   public:
  59:../../libs/DaisySP/Source/Filters/ladder.h ****     enum class FilterMode
  60:../../libs/DaisySP/Source/Filters/ladder.h ****     {
  61:../../libs/DaisySP/Source/Filters/ladder.h ****         LP24,
  62:../../libs/DaisySP/Source/Filters/ladder.h ****         LP12,
  63:../../libs/DaisySP/Source/Filters/ladder.h ****         BP24,
  64:../../libs/DaisySP/Source/Filters/ladder.h ****         BP12,
  65:../../libs/DaisySP/Source/Filters/ladder.h ****         HP24,
  66:../../libs/DaisySP/Source/Filters/ladder.h ****         HP12
  67:../../libs/DaisySP/Source/Filters/ladder.h ****     };
  68:../../libs/DaisySP/Source/Filters/ladder.h **** 
  69:../../libs/DaisySP/Source/Filters/ladder.h ****     LadderFilter()  = default;
 679              		.loc 11 69 5 is_stmt 1 view -0
 680              		.cfi_startproc
 681              		@ args = 0, pretend = 0, frame = 0
 682              		@ frame_needed = 0, uses_anonymous_args = 0
 683              		@ link register save eliminated.
 684              	.LBB438:
 685              		.loc 11 69 5 is_stmt 0 view .LVU172
 686 0000 0023     		movs	r3, #0
 687 0002 C0E90333 		strd	r3, r3, [r0, #12]
 688 0006 C0E90533 		strd	r3, r3, [r0, #20]
 689 000a C0E90733 		strd	r3, r3, [r0, #28]
 690 000e C0E90933 		strd	r3, r3, [r0, #36]
 691 0012 C0E90B33 		strd	r3, r3, [r0, #44]
 692 0016 C0E90D33 		strd	r3, r3, [r0, #52]
ARM GAS  C:\Users\skipi\AppData\Local\Temp\ccHKWaHh.s 			page 27


 693              	.LBE438:
 694 001a 7047     		bx	lr
 695              		.cfi_endproc
 696              	.LFE4841:
 698              		.weak	_ZN7daisysp12LadderFilterC1Ev
 699              		.thumb_set _ZN7daisysp12LadderFilterC1Ev,_ZN7daisysp12LadderFilterC2Ev
 700              		.section	.text._ZN5daisy6Mpr121INS_18Mpr121I2CTransportEE13WriteRegisterEhh,"axG",%progbits,_ZN5da
 701              		.align	1
 702              		.p2align 2,,3
 703              		.weak	_ZN5daisy6Mpr121INS_18Mpr121I2CTransportEE13WriteRegisterEhh
 704              		.syntax unified
 705              		.thumb
 706              		.thumb_func
 707              		.fpu fpv5-d16
 709              	_ZN5daisy6Mpr121INS_18Mpr121I2CTransportEE13WriteRegisterEhh:
 710              	.LVL54:
 711              	.LFB5279:
  98:../../libs/libDaisy/src/dev/mpr121.h **** 
  99:../../libs/libDaisy/src/dev/mpr121.h ****     struct Config
 100:../../libs/libDaisy/src/dev/mpr121.h ****     {
 101:../../libs/libDaisy/src/dev/mpr121.h ****         typename Transport::Config transport_config;
 102:../../libs/libDaisy/src/dev/mpr121.h ****         uint8_t                    touch_threshold;
 103:../../libs/libDaisy/src/dev/mpr121.h ****         uint8_t                    release_threshold;
 104:../../libs/libDaisy/src/dev/mpr121.h **** 
 105:../../libs/libDaisy/src/dev/mpr121.h ****         Config()
 106:../../libs/libDaisy/src/dev/mpr121.h ****         {
 107:../../libs/libDaisy/src/dev/mpr121.h ****             touch_threshold   = MPR121_TOUCH_THRESHOLD_DEFAULT;
 108:../../libs/libDaisy/src/dev/mpr121.h ****             release_threshold = MPR121_RELEASE_THRESHOLD_DEFAULT;
 109:../../libs/libDaisy/src/dev/mpr121.h ****         }
 110:../../libs/libDaisy/src/dev/mpr121.h ****     };
 111:../../libs/libDaisy/src/dev/mpr121.h **** 
 112:../../libs/libDaisy/src/dev/mpr121.h ****     enum Result
 113:../../libs/libDaisy/src/dev/mpr121.h ****     {
 114:../../libs/libDaisy/src/dev/mpr121.h ****         OK = 0,
 115:../../libs/libDaisy/src/dev/mpr121.h ****         ERR
 116:../../libs/libDaisy/src/dev/mpr121.h ****     };
 117:../../libs/libDaisy/src/dev/mpr121.h **** 
 118:../../libs/libDaisy/src/dev/mpr121.h ****     /** Initialize the MPR121 device
 119:../../libs/libDaisy/src/dev/mpr121.h ****         \param config Configuration settings
 120:../../libs/libDaisy/src/dev/mpr121.h ****     */
 121:../../libs/libDaisy/src/dev/mpr121.h ****     Result Init(Config config)
 122:../../libs/libDaisy/src/dev/mpr121.h ****     {
 123:../../libs/libDaisy/src/dev/mpr121.h ****         config_ = config;
 124:../../libs/libDaisy/src/dev/mpr121.h **** 
 125:../../libs/libDaisy/src/dev/mpr121.h ****         SetTransportErr(transport_.Init(config_.transport_config));
 126:../../libs/libDaisy/src/dev/mpr121.h **** 
 127:../../libs/libDaisy/src/dev/mpr121.h ****         // soft reset
 128:../../libs/libDaisy/src/dev/mpr121.h ****         WriteRegister(MPR121_SOFTRESET, 0x63);
 129:../../libs/libDaisy/src/dev/mpr121.h ****         System::Delay(1);
 130:../../libs/libDaisy/src/dev/mpr121.h **** 
 131:../../libs/libDaisy/src/dev/mpr121.h ****         WriteRegister(MPR121_ECR, 0x0);
 132:../../libs/libDaisy/src/dev/mpr121.h **** 
 133:../../libs/libDaisy/src/dev/mpr121.h ****         // this doesn't work for some reason...
 134:../../libs/libDaisy/src/dev/mpr121.h ****         // uint8_t c = ReadRegister8(MPR121_CONFIG2);
 135:../../libs/libDaisy/src/dev/mpr121.h **** 
 136:../../libs/libDaisy/src/dev/mpr121.h ****         // if(c != 0x24)
 137:../../libs/libDaisy/src/dev/mpr121.h ****         //     return ERR;
ARM GAS  C:\Users\skipi\AppData\Local\Temp\ccHKWaHh.s 			page 28


 138:../../libs/libDaisy/src/dev/mpr121.h **** 
 139:../../libs/libDaisy/src/dev/mpr121.h ****         SetThresholds(config_.touch_threshold, config_.release_threshold);
 140:../../libs/libDaisy/src/dev/mpr121.h ****         WriteRegister(MPR121_MHDR, 0x01);
 141:../../libs/libDaisy/src/dev/mpr121.h ****         WriteRegister(MPR121_NHDR, 0x01);
 142:../../libs/libDaisy/src/dev/mpr121.h ****         WriteRegister(MPR121_NCLR, 0x0E);
 143:../../libs/libDaisy/src/dev/mpr121.h ****         WriteRegister(MPR121_FDLR, 0x00);
 144:../../libs/libDaisy/src/dev/mpr121.h **** 
 145:../../libs/libDaisy/src/dev/mpr121.h ****         WriteRegister(MPR121_MHDF, 0x01);
 146:../../libs/libDaisy/src/dev/mpr121.h ****         WriteRegister(MPR121_NHDF, 0x05);
 147:../../libs/libDaisy/src/dev/mpr121.h ****         WriteRegister(MPR121_NCLF, 0x01);
 148:../../libs/libDaisy/src/dev/mpr121.h ****         WriteRegister(MPR121_FDLF, 0x00);
 149:../../libs/libDaisy/src/dev/mpr121.h **** 
 150:../../libs/libDaisy/src/dev/mpr121.h ****         WriteRegister(MPR121_NHDT, 0x00);
 151:../../libs/libDaisy/src/dev/mpr121.h ****         WriteRegister(MPR121_NCLT, 0x00);
 152:../../libs/libDaisy/src/dev/mpr121.h ****         WriteRegister(MPR121_FDLT, 0x00);
 153:../../libs/libDaisy/src/dev/mpr121.h **** 
 154:../../libs/libDaisy/src/dev/mpr121.h ****         WriteRegister(MPR121_DEBOUNCE, 0);
 155:../../libs/libDaisy/src/dev/mpr121.h ****         WriteRegister(MPR121_CONFIG1, 0x10); // default, 16uA charge current
 156:../../libs/libDaisy/src/dev/mpr121.h ****         WriteRegister(MPR121_CONFIG2, 0x20); // 0.5uS encoding, 1ms period
 157:../../libs/libDaisy/src/dev/mpr121.h **** 
 158:../../libs/libDaisy/src/dev/mpr121.h ****         // autoconfig
 159:../../libs/libDaisy/src/dev/mpr121.h ****         // WriteRegister(MPR121_AUTOCONFIG0, 0x0B);
 160:../../libs/libDaisy/src/dev/mpr121.h **** 
 161:../../libs/libDaisy/src/dev/mpr121.h ****         // correct values for Vdd = 3.3V
 162:../../libs/libDaisy/src/dev/mpr121.h ****         // WriteRegister(MPR121_UPLIMIT, 200);     // ((Vdd - 0.7)/Vdd) * 256
 163:../../libs/libDaisy/src/dev/mpr121.h ****         // WriteRegister(MPR121_TARGETLIMIT, 180); // UPLIMIT * 0.9
 164:../../libs/libDaisy/src/dev/mpr121.h ****         // WriteRegister(MPR121_LOWLIMIT, 130);    // UPLIMIT * 0.65
 165:../../libs/libDaisy/src/dev/mpr121.h ****         // autoconfig
 166:../../libs/libDaisy/src/dev/mpr121.h **** 
 167:../../libs/libDaisy/src/dev/mpr121.h ****         // enable X electrodes and start MPR121
 168:../../libs/libDaisy/src/dev/mpr121.h ****         uint8_t ECR_SETTING
 169:../../libs/libDaisy/src/dev/mpr121.h ****             = 0x80
 170:../../libs/libDaisy/src/dev/mpr121.h ****               + 12; // 5 bits for baseline tracking & proximity disabled + X
 171:../../libs/libDaisy/src/dev/mpr121.h ****                     // amount of electrodes running (12)
 172:../../libs/libDaisy/src/dev/mpr121.h ****         WriteRegister(MPR121_ECR,
 173:../../libs/libDaisy/src/dev/mpr121.h ****                       ECR_SETTING); // start with above ECR setting
 174:../../libs/libDaisy/src/dev/mpr121.h **** 
 175:../../libs/libDaisy/src/dev/mpr121.h ****         return GetTransportErr();
 176:../../libs/libDaisy/src/dev/mpr121.h ****     }
 177:../../libs/libDaisy/src/dev/mpr121.h **** 
 178:../../libs/libDaisy/src/dev/mpr121.h ****     /** Set the touch and release thresholds for all 13 channels on the
 179:../../libs/libDaisy/src/dev/mpr121.h ****         device to the passed values.
 180:../../libs/libDaisy/src/dev/mpr121.h ****         \param      touch The touch threshold value from 0 to 255.
 181:../../libs/libDaisy/src/dev/mpr121.h ****         \param      release The release threshold from 0 to 255.
 182:../../libs/libDaisy/src/dev/mpr121.h ****     */
 183:../../libs/libDaisy/src/dev/mpr121.h ****     void SetThresholds(uint8_t touch, uint8_t release)
 184:../../libs/libDaisy/src/dev/mpr121.h ****     {
 185:../../libs/libDaisy/src/dev/mpr121.h ****         // set all thresholds (the same)
 186:../../libs/libDaisy/src/dev/mpr121.h ****         for(uint8_t i = 0; i < 12; i++)
 187:../../libs/libDaisy/src/dev/mpr121.h ****         {
 188:../../libs/libDaisy/src/dev/mpr121.h ****             WriteRegister(MPR121_TOUCHTH_0 + 2 * i, touch);
 189:../../libs/libDaisy/src/dev/mpr121.h ****             WriteRegister(MPR121_RELEASETH_0 + 2 * i, release);
 190:../../libs/libDaisy/src/dev/mpr121.h ****         }
 191:../../libs/libDaisy/src/dev/mpr121.h ****     }
 192:../../libs/libDaisy/src/dev/mpr121.h **** 
 193:../../libs/libDaisy/src/dev/mpr121.h **** 
 194:../../libs/libDaisy/src/dev/mpr121.h ****     /** Read the filtered data from channel t. The ADC raw data outputs
ARM GAS  C:\Users\skipi\AppData\Local\Temp\ccHKWaHh.s 			page 29


 195:../../libs/libDaisy/src/dev/mpr121.h ****         run through 3 levels of digital filtering to filter out the high
 196:../../libs/libDaisy/src/dev/mpr121.h ****         frequency and low frequency noise encountered. For detailed information on
 197:../../libs/libDaisy/src/dev/mpr121.h ****         this filtering see page 6 of the device datasheet.
 198:../../libs/libDaisy/src/dev/mpr121.h ****         \param      t the channel to read
 199:../../libs/libDaisy/src/dev/mpr121.h ****         \returns    the filtered reading as a 10 bit unsigned value
 200:../../libs/libDaisy/src/dev/mpr121.h ****     */
 201:../../libs/libDaisy/src/dev/mpr121.h ****     uint16_t FilteredData(uint8_t t)
 202:../../libs/libDaisy/src/dev/mpr121.h ****     {
 203:../../libs/libDaisy/src/dev/mpr121.h ****         if(t > 12)
 204:../../libs/libDaisy/src/dev/mpr121.h ****             return 0;
 205:../../libs/libDaisy/src/dev/mpr121.h ****         return ReadRegister16(MPR121_FILTDATA_0L + t * 2);
 206:../../libs/libDaisy/src/dev/mpr121.h ****     }
 207:../../libs/libDaisy/src/dev/mpr121.h **** 
 208:../../libs/libDaisy/src/dev/mpr121.h ****     /** Read the baseline value for the channel. The 3rd level filtered
 209:../../libs/libDaisy/src/dev/mpr121.h ****         result is internally 10bit but only high 8 bits are readable
 210:../../libs/libDaisy/src/dev/mpr121.h ****         from registers 0x1E~0x2A as the baseline value output for each channel.
 211:../../libs/libDaisy/src/dev/mpr121.h ****         \param      t the channel to read.
 212:../../libs/libDaisy/src/dev/mpr121.h ****         \returns    the baseline data that was read
 213:../../libs/libDaisy/src/dev/mpr121.h ****     */
 214:../../libs/libDaisy/src/dev/mpr121.h ****     uint16_t BaselineData(uint8_t t)
 215:../../libs/libDaisy/src/dev/mpr121.h ****     {
 216:../../libs/libDaisy/src/dev/mpr121.h ****         if(t > 12)
 217:../../libs/libDaisy/src/dev/mpr121.h ****             return 0;
 218:../../libs/libDaisy/src/dev/mpr121.h ****         uint16_t bl = ReadRegister8(MPR121_BASELINE_0 + t);
 219:../../libs/libDaisy/src/dev/mpr121.h ****         return (bl << 2);
 220:../../libs/libDaisy/src/dev/mpr121.h ****     }
 221:../../libs/libDaisy/src/dev/mpr121.h **** 
 222:../../libs/libDaisy/src/dev/mpr121.h ****     /** Read the touch status of all 13 channels as bit values in a 12 bit integer.
 223:../../libs/libDaisy/src/dev/mpr121.h ****         \returns    a 12 bit integer with each bit corresponding to the touch status
 224:../../libs/libDaisy/src/dev/mpr121.h ****         of a sensor. For example, if bit 0 is set then channel 0 of the
 225:../../libs/libDaisy/src/dev/mpr121.h ****         device is currently deemed to be touched.
 226:../../libs/libDaisy/src/dev/mpr121.h ****     */
 227:../../libs/libDaisy/src/dev/mpr121.h ****     uint16_t Touched()
 228:../../libs/libDaisy/src/dev/mpr121.h ****     {
 229:../../libs/libDaisy/src/dev/mpr121.h ****         uint16_t t = ReadRegister16(MPR121_TOUCHSTATUS_L);
 230:../../libs/libDaisy/src/dev/mpr121.h ****         return t & 0x0FFF;
 231:../../libs/libDaisy/src/dev/mpr121.h ****     }
 232:../../libs/libDaisy/src/dev/mpr121.h **** 
 233:../../libs/libDaisy/src/dev/mpr121.h ****     /** Read the contents of an 8 bit device register.
 234:../../libs/libDaisy/src/dev/mpr121.h ****         \param      reg the register address to read from
 235:../../libs/libDaisy/src/dev/mpr121.h ****         \returns    the 8 bit value that was read.
 236:../../libs/libDaisy/src/dev/mpr121.h ****     */
 237:../../libs/libDaisy/src/dev/mpr121.h ****     uint8_t ReadRegister8(uint8_t reg)
 238:../../libs/libDaisy/src/dev/mpr121.h ****     {
 239:../../libs/libDaisy/src/dev/mpr121.h ****         uint8_t buff;
 240:../../libs/libDaisy/src/dev/mpr121.h ****         SetTransportErr(transport_.ReadMem(&buff, reg, 1));
 241:../../libs/libDaisy/src/dev/mpr121.h ****         return buff;
 242:../../libs/libDaisy/src/dev/mpr121.h ****     }
 243:../../libs/libDaisy/src/dev/mpr121.h **** 
 244:../../libs/libDaisy/src/dev/mpr121.h ****     uint16_t ReadRegister16(uint8_t reg)
 245:../../libs/libDaisy/src/dev/mpr121.h ****     {
 246:../../libs/libDaisy/src/dev/mpr121.h ****         uint16_t buff;
 247:../../libs/libDaisy/src/dev/mpr121.h ****         SetTransportErr(transport_.ReadMem((uint8_t *)&buff, reg, 2));
 248:../../libs/libDaisy/src/dev/mpr121.h **** 
 249:../../libs/libDaisy/src/dev/mpr121.h **** 
 250:../../libs/libDaisy/src/dev/mpr121.h ****         return buff;
 251:../../libs/libDaisy/src/dev/mpr121.h ****     }
ARM GAS  C:\Users\skipi\AppData\Local\Temp\ccHKWaHh.s 			page 30


 252:../../libs/libDaisy/src/dev/mpr121.h **** 
 253:../../libs/libDaisy/src/dev/mpr121.h ****     /** Writes 8-bits to the specified destination register
 254:../../libs/libDaisy/src/dev/mpr121.h ****         \param  reg the register address to write to
 255:../../libs/libDaisy/src/dev/mpr121.h ****         \param  value the value to write
 256:../../libs/libDaisy/src/dev/mpr121.h ****     */
 257:../../libs/libDaisy/src/dev/mpr121.h ****     void WriteRegister(uint8_t reg, uint8_t value)
 712              		.loc 9 257 10 is_stmt 1 view -0
 713              		.cfi_startproc
 714              		@ args = 0, pretend = 0, frame = 8
 715              		@ frame_needed = 0, uses_anonymous_args = 0
 716              		.loc 9 257 10 is_stmt 0 view .LVU174
 717 0000 2DE9F043 		push	{r4, r5, r6, r7, r8, r9, lr}
 718              		.cfi_def_cfa_offset 28
 719              		.cfi_offset 4, -28
 720              		.cfi_offset 5, -24
 721              		.cfi_offset 6, -20
 722              		.cfi_offset 7, -16
 723              		.cfi_offset 8, -12
 724              		.cfi_offset 9, -8
 725              		.cfi_offset 14, -4
 258:../../libs/libDaisy/src/dev/mpr121.h ****     {
 259:../../libs/libDaisy/src/dev/mpr121.h ****         // MPR121 must be put in Stop Mode to write to most registers
 260:../../libs/libDaisy/src/dev/mpr121.h ****         bool stop_required = true;
 261:../../libs/libDaisy/src/dev/mpr121.h **** 
 262:../../libs/libDaisy/src/dev/mpr121.h ****         // first get the current set value of the MPR121_ECR register
 263:../../libs/libDaisy/src/dev/mpr121.h ****         uint8_t ecr_reg = MPR121_ECR;
 264:../../libs/libDaisy/src/dev/mpr121.h ****         uint8_t buff[2] = {ecr_reg, 0x00};
 726              		.loc 9 264 17 view .LVU175
 727 0004 0023     		movs	r3, #0
 257:../../libs/libDaisy/src/dev/mpr121.h ****     {
 728              		.loc 9 257 10 view .LVU176
 729 0006 85B0     		sub	sp, sp, #20
 730              		.cfi_def_cfa_offset 48
 731              	.LBB469:
 732              	.LBB470:
  66:../../libs/libDaisy/src/dev/mpr121.h ****     }
 733              		.loc 9 66 40 view .LVU177
 734 0008 00F11806 		add	r6, r0, #24
 735 000c 4FF00A08 		mov	r8, #10
 736              	.LBE470:
 737              	.LBE469:
 257:../../libs/libDaisy/src/dev/mpr121.h ****     {
 738              		.loc 9 257 10 view .LVU178
 739 0010 0446     		mov	r4, r0
 740              		.loc 9 264 17 view .LVU179
 741 0012 4FF05E09 		mov	r9, #94
 257:../../libs/libDaisy/src/dev/mpr121.h ****     {
 742              		.loc 9 257 10 view .LVU180
 743 0016 0D46     		mov	r5, r1
 744              		.loc 9 264 17 view .LVU181
 745 0018 8DF80D30 		strb	r3, [sp, #13]
 746              	.LBB474:
 747              	.LBB471:
  66:../../libs/libDaisy/src/dev/mpr121.h ****     }
 748              		.loc 9 66 40 view .LVU182
 749 001c CDF80080 		str	r8, [sp]
 750 0020 0123     		movs	r3, #1
ARM GAS  C:\Users\skipi\AppData\Local\Temp\ccHKWaHh.s 			page 31


 751 0022 90F82C10 		ldrb	r1, [r0, #44]	@ zero_extendqisi2
 752              	.LVL55:
  66:../../libs/libDaisy/src/dev/mpr121.h ****     }
 753              		.loc 9 66 40 view .LVU183
 754              	.LBE471:
 755              	.LBE474:
 257:../../libs/libDaisy/src/dev/mpr121.h ****     {
 756              		.loc 9 257 10 view .LVU184
 757 0026 1746     		mov	r7, r2
 758              	.LBB475:
 759              	.LBB472:
  66:../../libs/libDaisy/src/dev/mpr121.h ****     }
 760              		.loc 9 66 40 view .LVU185
 761 0028 3046     		mov	r0, r6
 762              	.LVL56:
  66:../../libs/libDaisy/src/dev/mpr121.h ****     }
 763              		.loc 9 66 40 view .LVU186
 764 002a 03AA     		add	r2, sp, #12
 765              	.LVL57:
  66:../../libs/libDaisy/src/dev/mpr121.h ****     }
 766              		.loc 9 66 40 view .LVU187
 767              	.LBE472:
 768              	.LBE475:
 769              		.loc 9 264 17 view .LVU188
 770 002c 8DF80C90 		strb	r9, [sp, #12]
 771              	.LVL58:
 772              	.LBB476:
 773              	.LBI469:
  63:../../libs/libDaisy/src/dev/mpr121.h ****     {
 774              		.loc 9 63 10 is_stmt 1 view .LVU189
 775              	.LBB473:
  65:../../libs/libDaisy/src/dev/mpr121.h ****                != i2c_.TransmitBlocking(config_.dev_addr, data, size, 10);
 776              		.loc 9 65 9 view .LVU190
  66:../../libs/libDaisy/src/dev/mpr121.h ****     }
 777              		.loc 9 66 40 is_stmt 0 view .LVU191
 778 0030 FFF7FEFF 		bl	_ZN5daisy9I2CHandle16TransmitBlockingEtPhtm
 779              	.LVL59:
  66:../../libs/libDaisy/src/dev/mpr121.h ****     }
 780              		.loc 9 66 40 view .LVU192
 781              	.LBE473:
 782              	.LBE476:
 783              	.LBB477:
 784              	.LBI477:
 265:../../libs/libDaisy/src/dev/mpr121.h **** 
 266:../../libs/libDaisy/src/dev/mpr121.h ****         SetTransportErr(transport_.Write(buff, 1));
 267:../../libs/libDaisy/src/dev/mpr121.h **** 
 268:../../libs/libDaisy/src/dev/mpr121.h ****         uint8_t ecr_backup;
 269:../../libs/libDaisy/src/dev/mpr121.h ****         SetTransportErr(transport_.Read(&ecr_backup, 1));
 270:../../libs/libDaisy/src/dev/mpr121.h ****         if((reg == MPR121_ECR) || ((0x73 <= reg) && (reg <= 0x7A)))
 271:../../libs/libDaisy/src/dev/mpr121.h ****         {
 272:../../libs/libDaisy/src/dev/mpr121.h ****             stop_required = false;
 273:../../libs/libDaisy/src/dev/mpr121.h ****         }
 274:../../libs/libDaisy/src/dev/mpr121.h **** 
 275:../../libs/libDaisy/src/dev/mpr121.h ****         if(stop_required)
 276:../../libs/libDaisy/src/dev/mpr121.h ****         {
 277:../../libs/libDaisy/src/dev/mpr121.h ****             // clear this register to set stop mode
 278:../../libs/libDaisy/src/dev/mpr121.h ****             SetTransportErr(transport_.Write(buff, 2));
ARM GAS  C:\Users\skipi\AppData\Local\Temp\ccHKWaHh.s 			page 32


 279:../../libs/libDaisy/src/dev/mpr121.h ****         }
 280:../../libs/libDaisy/src/dev/mpr121.h **** 
 281:../../libs/libDaisy/src/dev/mpr121.h ****         buff[0] = reg;
 282:../../libs/libDaisy/src/dev/mpr121.h ****         buff[1] = value;
 283:../../libs/libDaisy/src/dev/mpr121.h ****         SetTransportErr(transport_.Write(buff, 2));
 284:../../libs/libDaisy/src/dev/mpr121.h **** 
 285:../../libs/libDaisy/src/dev/mpr121.h ****         if(stop_required)
 286:../../libs/libDaisy/src/dev/mpr121.h ****         {
 287:../../libs/libDaisy/src/dev/mpr121.h ****             // write back the previous set ECR settings
 288:../../libs/libDaisy/src/dev/mpr121.h ****             buff[0] = ecr_reg;
 289:../../libs/libDaisy/src/dev/mpr121.h ****             buff[1] = ecr_backup;
 290:../../libs/libDaisy/src/dev/mpr121.h ****             SetTransportErr(transport_.Write(buff, 2));
 291:../../libs/libDaisy/src/dev/mpr121.h ****         }
 292:../../libs/libDaisy/src/dev/mpr121.h ****     }
 293:../../libs/libDaisy/src/dev/mpr121.h **** 
 294:../../libs/libDaisy/src/dev/mpr121.h ****     /** Device register map */
 295:../../libs/libDaisy/src/dev/mpr121.h ****     enum RegMap
 296:../../libs/libDaisy/src/dev/mpr121.h ****     {
 297:../../libs/libDaisy/src/dev/mpr121.h ****         MPR121_TOUCHSTATUS_L = 0x00,
 298:../../libs/libDaisy/src/dev/mpr121.h ****         MPR121_TOUCHSTATUS_H = 0x01,
 299:../../libs/libDaisy/src/dev/mpr121.h ****         MPR121_FILTDATA_0L   = 0x04,
 300:../../libs/libDaisy/src/dev/mpr121.h ****         MPR121_FILTDATA_0H   = 0x05,
 301:../../libs/libDaisy/src/dev/mpr121.h ****         MPR121_BASELINE_0    = 0x1E,
 302:../../libs/libDaisy/src/dev/mpr121.h ****         MPR121_MHDR          = 0x2B,
 303:../../libs/libDaisy/src/dev/mpr121.h ****         MPR121_NHDR          = 0x2C,
 304:../../libs/libDaisy/src/dev/mpr121.h ****         MPR121_NCLR          = 0x2D,
 305:../../libs/libDaisy/src/dev/mpr121.h ****         MPR121_FDLR          = 0x2E,
 306:../../libs/libDaisy/src/dev/mpr121.h ****         MPR121_MHDF          = 0x2F,
 307:../../libs/libDaisy/src/dev/mpr121.h ****         MPR121_NHDF          = 0x30,
 308:../../libs/libDaisy/src/dev/mpr121.h ****         MPR121_NCLF          = 0x31,
 309:../../libs/libDaisy/src/dev/mpr121.h ****         MPR121_FDLF          = 0x32,
 310:../../libs/libDaisy/src/dev/mpr121.h ****         MPR121_NHDT          = 0x33,
 311:../../libs/libDaisy/src/dev/mpr121.h ****         MPR121_NCLT          = 0x34,
 312:../../libs/libDaisy/src/dev/mpr121.h ****         MPR121_FDLT          = 0x35,
 313:../../libs/libDaisy/src/dev/mpr121.h **** 
 314:../../libs/libDaisy/src/dev/mpr121.h ****         MPR121_TOUCHTH_0    = 0x41,
 315:../../libs/libDaisy/src/dev/mpr121.h ****         MPR121_RELEASETH_0  = 0x42,
 316:../../libs/libDaisy/src/dev/mpr121.h ****         MPR121_DEBOUNCE     = 0x5B,
 317:../../libs/libDaisy/src/dev/mpr121.h ****         MPR121_CONFIG1      = 0x5C,
 318:../../libs/libDaisy/src/dev/mpr121.h ****         MPR121_CONFIG2      = 0x5D,
 319:../../libs/libDaisy/src/dev/mpr121.h ****         MPR121_CHARGECURR_0 = 0x5F,
 320:../../libs/libDaisy/src/dev/mpr121.h ****         MPR121_CHARGETIME_1 = 0x6C,
 321:../../libs/libDaisy/src/dev/mpr121.h ****         MPR121_ECR          = 0x5E,
 322:../../libs/libDaisy/src/dev/mpr121.h ****         MPR121_AUTOCONFIG0  = 0x7B,
 323:../../libs/libDaisy/src/dev/mpr121.h ****         MPR121_AUTOCONFIG1  = 0x7C,
 324:../../libs/libDaisy/src/dev/mpr121.h ****         MPR121_UPLIMIT      = 0x7D,
 325:../../libs/libDaisy/src/dev/mpr121.h ****         MPR121_LOWLIMIT     = 0x7E,
 326:../../libs/libDaisy/src/dev/mpr121.h ****         MPR121_TARGETLIMIT  = 0x7F,
 327:../../libs/libDaisy/src/dev/mpr121.h **** 
 328:../../libs/libDaisy/src/dev/mpr121.h ****         MPR121_GPIODIR    = 0x76,
 329:../../libs/libDaisy/src/dev/mpr121.h ****         MPR121_GPIOEN     = 0x77,
 330:../../libs/libDaisy/src/dev/mpr121.h ****         MPR121_GPIOSET    = 0x78,
 331:../../libs/libDaisy/src/dev/mpr121.h ****         MPR121_GPIOCLR    = 0x79,
 332:../../libs/libDaisy/src/dev/mpr121.h ****         MPR121_GPIOTOGGLE = 0x7A,
 333:../../libs/libDaisy/src/dev/mpr121.h **** 
 334:../../libs/libDaisy/src/dev/mpr121.h ****         MPR121_SOFTRESET = 0x80,
 335:../../libs/libDaisy/src/dev/mpr121.h ****     };
ARM GAS  C:\Users\skipi\AppData\Local\Temp\ccHKWaHh.s 			page 33


 336:../../libs/libDaisy/src/dev/mpr121.h **** 
 337:../../libs/libDaisy/src/dev/mpr121.h ****   private:
 338:../../libs/libDaisy/src/dev/mpr121.h ****     Config    config_;
 339:../../libs/libDaisy/src/dev/mpr121.h ****     Transport transport_;
 340:../../libs/libDaisy/src/dev/mpr121.h ****     bool      transport_error_;
 341:../../libs/libDaisy/src/dev/mpr121.h **** 
 342:../../libs/libDaisy/src/dev/mpr121.h ****     /** Set the global transport_error_ bool */
 343:../../libs/libDaisy/src/dev/mpr121.h ****     void SetTransportErr(bool err) { transport_error_ |= err; }
 785              		.loc 9 343 10 is_stmt 1 view .LVU193
 786              	.LBE477:
 787              	.LBB481:
 788              	.LBB482:
  73:../../libs/libDaisy/src/dev/mpr121.h ****     }
 789              		.loc 9 73 39 is_stmt 0 view .LVU194
 790 0034 CDF80080 		str	r8, [sp]
 791 0038 0DF10B02 		add	r2, sp, #11
 792              	.LBE482:
 793              	.LBE481:
 794              	.LBB486:
 795              	.LBB478:
 796              		.loc 9 343 55 view .LVU195
 797 003c 94F83030 		ldrb	r3, [r4, #48]	@ zero_extendqisi2
 798              	.LBE478:
 799              	.LBE486:
 800              	.LBB487:
 801              	.LBB483:
  73:../../libs/libDaisy/src/dev/mpr121.h ****     }
 802              		.loc 9 73 39 view .LVU196
 803 0040 94F82C10 		ldrb	r1, [r4, #44]	@ zero_extendqisi2
 804              	.LBE483:
 805              	.LBE487:
 806              	.LBB488:
 807              	.LBB479:
 808              		.loc 9 343 55 view .LVU197
 809 0044 0028     		cmp	r0, #0
 810 0046 18BF     		it	ne
 811 0048 43F00103 		orrne	r3, r3, #1
 812              	.LBE479:
 813              	.LBE488:
 814              	.LBB489:
 815              	.LBB484:
  73:../../libs/libDaisy/src/dev/mpr121.h ****     }
 816              		.loc 9 73 39 view .LVU198
 817 004c 3046     		mov	r0, r6
 818              	.LVL60:
  73:../../libs/libDaisy/src/dev/mpr121.h ****     }
 819              		.loc 9 73 39 view .LVU199
 820              	.LBE484:
 821              	.LBE489:
 822              	.LBB490:
 823              	.LBB480:
 824              		.loc 9 343 55 view .LVU200
 825 004e 84F83030 		strb	r3, [r4, #48]
 826              	.LVL61:
 827              		.loc 9 343 55 view .LVU201
 828              	.LBE480:
 829              	.LBE490:
ARM GAS  C:\Users\skipi\AppData\Local\Temp\ccHKWaHh.s 			page 34


 830              	.LBB491:
 831              	.LBI481:
  70:../../libs/libDaisy/src/dev/mpr121.h ****     {
 832              		.loc 9 70 10 is_stmt 1 view .LVU202
 833              	.LBB485:
  72:../../libs/libDaisy/src/dev/mpr121.h ****                != i2c_.ReceiveBlocking(config_.dev_addr, data, size, 10);
 834              		.loc 9 72 9 view .LVU203
  73:../../libs/libDaisy/src/dev/mpr121.h ****     }
 835              		.loc 9 73 39 is_stmt 0 view .LVU204
 836 0052 0123     		movs	r3, #1
 837 0054 FFF7FEFF 		bl	_ZN5daisy9I2CHandle15ReceiveBlockingEtPhtm
 838              	.LVL62:
  73:../../libs/libDaisy/src/dev/mpr121.h ****     }
 839              		.loc 9 73 39 view .LVU205
 840              	.LBE485:
 841              	.LBE491:
 842              	.LBB492:
 843              	.LBI492:
 844              		.loc 9 343 10 is_stmt 1 view .LVU206
 845              	.LBB493:
 846              		.loc 9 343 55 is_stmt 0 view .LVU207
 847 0058 94F83030 		ldrb	r3, [r4, #48]	@ zero_extendqisi2
 848 005c 0028     		cmp	r0, #0
 849 005e 18BF     		it	ne
 850 0060 43F00103 		orrne	r3, r3, #1
 851 0064 84F83030 		strb	r3, [r4, #48]
 852              	.LVL63:
 853              		.loc 9 343 55 view .LVU208
 854              	.LBE493:
 855              	.LBE492:
 270:../../libs/libDaisy/src/dev/mpr121.h ****         {
 856              		.loc 9 270 50 view .LVU209
 857 0068 A5F17303 		sub	r3, r5, #115
 270:../../libs/libDaisy/src/dev/mpr121.h ****         {
 858              		.loc 9 270 9 view .LVU210
 859 006c 072B     		cmp	r3, #7
 860 006e 01D9     		bls	.L25
 861 0070 4D45     		cmp	r5, r9
 862 0072 17D1     		bne	.L29
 863              	.L25:
 864              	.LVL64:
 865              	.LBB494:
 866              	.LBB495:
  66:../../libs/libDaisy/src/dev/mpr121.h ****     }
 867              		.loc 9 66 40 view .LVU211
 868 0074 0A23     		movs	r3, #10
 869 0076 03AA     		add	r2, sp, #12
 870 0078 3046     		mov	r0, r6
 871              	.LBE495:
 872              	.LBE494:
 281:../../libs/libDaisy/src/dev/mpr121.h ****         buff[1] = value;
 873              		.loc 9 281 17 view .LVU212
 874 007a 8DF80C50 		strb	r5, [sp, #12]
 875              	.LBB504:
 876              	.LBB496:
  66:../../libs/libDaisy/src/dev/mpr121.h ****     }
 877              		.loc 9 66 40 view .LVU213
ARM GAS  C:\Users\skipi\AppData\Local\Temp\ccHKWaHh.s 			page 35


 878 007e 0093     		str	r3, [sp]
 879 0080 0223     		movs	r3, #2
 880              	.LBE496:
 881              	.LBE504:
 282:../../libs/libDaisy/src/dev/mpr121.h ****         SetTransportErr(transport_.Write(buff, 2));
 882              		.loc 9 282 17 view .LVU214
 883 0082 8DF80D70 		strb	r7, [sp, #13]
 884              	.LVL65:
 885              	.LBB505:
 886              	.LBI494:
  63:../../libs/libDaisy/src/dev/mpr121.h ****     {
 887              		.loc 9 63 10 is_stmt 1 view .LVU215
 888              	.LBB497:
  65:../../libs/libDaisy/src/dev/mpr121.h ****                != i2c_.TransmitBlocking(config_.dev_addr, data, size, 10);
 889              		.loc 9 65 9 view .LVU216
 890              	.L28:
  66:../../libs/libDaisy/src/dev/mpr121.h ****     }
 891              		.loc 9 66 40 is_stmt 0 view .LVU217
 892 0086 94F82C10 		ldrb	r1, [r4, #44]	@ zero_extendqisi2
 893 008a FFF7FEFF 		bl	_ZN5daisy9I2CHandle16TransmitBlockingEtPhtm
 894              	.LVL66:
  66:../../libs/libDaisy/src/dev/mpr121.h ****     }
 895              		.loc 9 66 40 view .LVU218
 896              	.LBE497:
 897              	.LBE505:
 898              	.LBB506:
 899              	.LBI506:
 900              		.loc 9 343 10 is_stmt 1 view .LVU219
 901              	.LBB507:
 902              		.loc 9 343 55 is_stmt 0 view .LVU220
 903 008e 94F83030 		ldrb	r3, [r4, #48]	@ zero_extendqisi2
 904 0092 0028     		cmp	r0, #0
 905 0094 18BF     		it	ne
 906 0096 43F00103 		orrne	r3, r3, #1
 907 009a 84F83030 		strb	r3, [r4, #48]
 908              	.LVL67:
 909              		.loc 9 343 55 view .LVU221
 910              	.LBE507:
 911              	.LBE506:
 292:../../libs/libDaisy/src/dev/mpr121.h **** 
 912              		.loc 9 292 5 view .LVU222
 913 009e 05B0     		add	sp, sp, #20
 914              		.cfi_remember_state
 915              		.cfi_def_cfa_offset 28
 916              		@ sp needed
 917 00a0 BDE8F083 		pop	{r4, r5, r6, r7, r8, r9, pc}
 918              	.LVL68:
 919              	.L29:
 920              		.cfi_restore_state
 921              	.LBB511:
 922              	.LBI511:
  63:../../libs/libDaisy/src/dev/mpr121.h ****     {
 923              		.loc 9 63 10 is_stmt 1 view .LVU223
 924              	.LBB512:
  65:../../libs/libDaisy/src/dev/mpr121.h ****                != i2c_.TransmitBlocking(config_.dev_addr, data, size, 10);
 925              		.loc 9 65 9 view .LVU224
  66:../../libs/libDaisy/src/dev/mpr121.h ****     }
ARM GAS  C:\Users\skipi\AppData\Local\Temp\ccHKWaHh.s 			page 36


 926              		.loc 9 66 40 is_stmt 0 view .LVU225
 927 00a4 0223     		movs	r3, #2
 928 00a6 03AA     		add	r2, sp, #12
 929              	.LVL69:
  66:../../libs/libDaisy/src/dev/mpr121.h ****     }
 930              		.loc 9 66 40 view .LVU226
 931 00a8 CDF80080 		str	r8, [sp]
 932 00ac 3046     		mov	r0, r6
 933 00ae 94F82C10 		ldrb	r1, [r4, #44]	@ zero_extendqisi2
 934 00b2 FFF7FEFF 		bl	_ZN5daisy9I2CHandle16TransmitBlockingEtPhtm
 935              	.LVL70:
  66:../../libs/libDaisy/src/dev/mpr121.h ****     }
 936              		.loc 9 66 40 view .LVU227
 937              	.LBE512:
 938              	.LBE511:
 939              	.LBB513:
 940              	.LBI513:
 941              		.loc 9 343 10 is_stmt 1 view .LVU228
 942              	.LBE513:
 943              	.LBB517:
 944              	.LBB498:
  66:../../libs/libDaisy/src/dev/mpr121.h ****     }
 945              		.loc 9 66 40 is_stmt 0 view .LVU229
 946 00b6 CDF80080 		str	r8, [sp]
 947              	.LBE498:
 948              	.LBE517:
 949              	.LBB518:
 950              	.LBB514:
 951              		.loc 9 343 55 view .LVU230
 952 00ba 94F83030 		ldrb	r3, [r4, #48]	@ zero_extendqisi2
 953              	.LBE514:
 954              	.LBE518:
 955              	.LBB519:
 956              	.LBB499:
  66:../../libs/libDaisy/src/dev/mpr121.h ****     }
 957              		.loc 9 66 40 view .LVU231
 958 00be 03AA     		add	r2, sp, #12
 959 00c0 94F82C10 		ldrb	r1, [r4, #44]	@ zero_extendqisi2
 960              	.LBE499:
 961              	.LBE519:
 962              	.LBB520:
 963              	.LBB515:
 964              		.loc 9 343 55 view .LVU232
 965 00c4 0028     		cmp	r0, #0
 966 00c6 18BF     		it	ne
 967 00c8 43F00103 		orrne	r3, r3, #1
 968              	.LBE515:
 969              	.LBE520:
 970              	.LBB521:
 971              	.LBB500:
  66:../../libs/libDaisy/src/dev/mpr121.h ****     }
 972              		.loc 9 66 40 view .LVU233
 973 00cc 3046     		mov	r0, r6
 974              	.LVL71:
  66:../../libs/libDaisy/src/dev/mpr121.h ****     }
 975              		.loc 9 66 40 view .LVU234
 976              	.LBE500:
ARM GAS  C:\Users\skipi\AppData\Local\Temp\ccHKWaHh.s 			page 37


 977              	.LBE521:
 281:../../libs/libDaisy/src/dev/mpr121.h ****         buff[1] = value;
 978              		.loc 9 281 17 view .LVU235
 979 00ce 8DF80C50 		strb	r5, [sp, #12]
 980              	.LBB522:
 981              	.LBB516:
 982              		.loc 9 343 55 view .LVU236
 983 00d2 84F83030 		strb	r3, [r4, #48]
 984              	.LVL72:
 985              		.loc 9 343 55 view .LVU237
 986              	.LBE516:
 987              	.LBE522:
 988              	.LBB523:
  63:../../libs/libDaisy/src/dev/mpr121.h ****     {
 989              		.loc 9 63 10 is_stmt 1 view .LVU238
 990              	.LBB501:
  65:../../libs/libDaisy/src/dev/mpr121.h ****                != i2c_.TransmitBlocking(config_.dev_addr, data, size, 10);
 991              		.loc 9 65 9 view .LVU239
  66:../../libs/libDaisy/src/dev/mpr121.h ****     }
 992              		.loc 9 66 40 is_stmt 0 view .LVU240
 993 00d6 0223     		movs	r3, #2
 994              	.LBE501:
 995              	.LBE523:
 282:../../libs/libDaisy/src/dev/mpr121.h ****         SetTransportErr(transport_.Write(buff, 2));
 996              		.loc 9 282 17 view .LVU241
 997 00d8 8DF80D70 		strb	r7, [sp, #13]
 998              	.LBB524:
 999              	.LBB502:
  66:../../libs/libDaisy/src/dev/mpr121.h ****     }
 1000              		.loc 9 66 40 view .LVU242
 1001 00dc FFF7FEFF 		bl	_ZN5daisy9I2CHandle16TransmitBlockingEtPhtm
 1002              	.LVL73:
  66:../../libs/libDaisy/src/dev/mpr121.h ****     }
 1003              		.loc 9 66 40 view .LVU243
 1004              	.LBE502:
 1005              	.LBE524:
 1006              	.LBB525:
 1007              	.LBB526:
 1008 00e0 CDF80080 		str	r8, [sp]
 1009              	.LBE526:
 1010              	.LBE525:
 1011              	.LBB531:
 1012              	.LBB503:
 1013 00e4 0546     		mov	r5, r0
 1014              	.LVL74:
  66:../../libs/libDaisy/src/dev/mpr121.h ****     }
 1015              		.loc 9 66 40 view .LVU244
 1016              	.LBE503:
 1017              	.LBE531:
 1018              	.LBB532:
 1019              		.loc 9 343 10 is_stmt 1 view .LVU245
 1020              	.LBB508:
 1021              		.loc 9 343 55 is_stmt 0 view .LVU246
 1022 00e6 94F83010 		ldrb	r1, [r4, #48]	@ zero_extendqisi2
 1023              	.LBE508:
 1024              	.LBE532:
 1025              	.LBB533:
ARM GAS  C:\Users\skipi\AppData\Local\Temp\ccHKWaHh.s 			page 38


 1026              	.LBB527:
  66:../../libs/libDaisy/src/dev/mpr121.h ****     }
 1027              		.loc 9 66 40 view .LVU247
 1028 00ea 03AA     		add	r2, sp, #12
 1029              	.LBE527:
 1030              	.LBE533:
 289:../../libs/libDaisy/src/dev/mpr121.h ****             SetTransportErr(transport_.Write(buff, 2));
 1031              		.loc 9 289 21 view .LVU248
 1032 00ec 9DF80B30 		ldrb	r3, [sp, #11]	@ zero_extendqisi2
 1033              	.LBB534:
 1034              	.LBB528:
  66:../../libs/libDaisy/src/dev/mpr121.h ****     }
 1035              		.loc 9 66 40 view .LVU249
 1036 00f0 3046     		mov	r0, r6
 1037              	.LVL75:
  66:../../libs/libDaisy/src/dev/mpr121.h ****     }
 1038              		.loc 9 66 40 view .LVU250
 1039              	.LBE528:
 1040              	.LBE534:
 1041              	.LBB535:
 1042              	.LBB509:
 1043              		.loc 9 343 55 view .LVU251
 1044 00f2 002D     		cmp	r5, #0
 1045 00f4 18BF     		it	ne
 1046 00f6 41F00101 		orrne	r1, r1, #1
 1047              	.LBE509:
 1048              	.LBE535:
 288:../../libs/libDaisy/src/dev/mpr121.h ****             buff[1] = ecr_backup;
 1049              		.loc 9 288 21 view .LVU252
 1050 00fa 8DF80C90 		strb	r9, [sp, #12]
 289:../../libs/libDaisy/src/dev/mpr121.h ****             SetTransportErr(transport_.Write(buff, 2));
 1051              		.loc 9 289 21 view .LVU253
 1052 00fe 8DF80D30 		strb	r3, [sp, #13]
 1053              	.LBB536:
 1054              	.LBB529:
  66:../../libs/libDaisy/src/dev/mpr121.h ****     }
 1055              		.loc 9 66 40 view .LVU254
 1056 0102 0223     		movs	r3, #2
 1057              	.LBE529:
 1058              	.LBE536:
 1059              	.LBB537:
 1060              	.LBB510:
 1061              		.loc 9 343 55 view .LVU255
 1062 0104 84F83010 		strb	r1, [r4, #48]
 1063              	.LVL76:
 1064              		.loc 9 343 55 view .LVU256
 1065              	.LBE510:
 1066              	.LBE537:
 1067              	.LBB538:
 1068              	.LBI525:
  63:../../libs/libDaisy/src/dev/mpr121.h ****     {
 1069              		.loc 9 63 10 is_stmt 1 view .LVU257
 1070              	.LBB530:
  65:../../libs/libDaisy/src/dev/mpr121.h ****                != i2c_.TransmitBlocking(config_.dev_addr, data, size, 10);
 1071              		.loc 9 65 9 view .LVU258
 1072 0108 BDE7     		b	.L28
 1073              	.LBE530:
ARM GAS  C:\Users\skipi\AppData\Local\Temp\ccHKWaHh.s 			page 39


 1074              	.LBE538:
 1075              		.cfi_endproc
 1076              	.LFE5279:
 1078 010a 00BF     		.section	.rodata.main.str1.4,"aMS",%progbits,1
 1079              		.align	2
 1080              	.LC0:
 1081 0000 4D505231 		.ascii	"MPR121 not found, check wiring?\000"
 1081      3231206E 
 1081      6F742066 
 1081      6F756E64 
 1081      2C206368 
 1082              		.align	2
 1083              	.LC1:
 1084 0020 4D505231 		.ascii	"MPR121 found!\000"
 1084      32312066 
 1084      6F756E64 
 1084      2100
 1085 002e 0000     		.align	2
 1086              	.LC2:
 1087 0030 2D2D2D2D 		.ascii	"---------------------------------------------------"
 1087      2D2D2D2D 
 1087      2D2D2D2D 
 1087      2D2D2D2D 
 1087      2D2D2D2D 
 1088 0063 2D2D2D2D 		.ascii	"-----------------------------\000"
 1088      2D2D2D2D 
 1088      2D2D2D2D 
 1088      2D2D2D2D 
 1088      2D2D2D2D 
 1089 0081 000000   		.align	2
 1090              	.LC3:
 1091 0084 43415020 		.ascii	"CAP 0 touched\000"
 1091      3020746F 
 1091      75636865 
 1091      6400
 1092 0092 0000     		.align	2
 1093              	.LC4:
 1094 0094 256400   		.ascii	"%d\000"
 1095 0097 00       		.align	2
 1096              	.LC5:
 1097 0098 43415020 		.ascii	"CAP 0 released\000"
 1097      30207265 
 1097      6C656173 
 1097      656400
 1098 00a7 00       		.align	2
 1099              	.LC6:
 1100 00a8 43415020 		.ascii	"CAP 1 touched\000"
 1100      3120746F 
 1100      75636865 
 1100      6400
 1101 00b6 0000     		.align	2
 1102              	.LC7:
 1103 00b8 43415020 		.ascii	"CAP 1 released\000"
 1103      31207265 
 1103      6C656173 
 1103      656400
 1104 00c7 00       		.align	2
ARM GAS  C:\Users\skipi\AppData\Local\Temp\ccHKWaHh.s 			page 40


 1105              	.LC8:
 1106 00c8 43415020 		.ascii	"CAP 2 touched\000"
 1106      3220746F 
 1106      75636865 
 1106      6400
 1107 00d6 0000     		.align	2
 1108              	.LC9:
 1109 00d8 43415020 		.ascii	"CAP 2 released\000"
 1109      32207265 
 1109      6C656173 
 1109      656400
 1110              		.section	.text.startup.main,"ax",%progbits
 1111              		.align	1
 1112              		.p2align 2,,3
 1113              		.global	main
 1114              		.syntax unified
 1115              		.thumb
 1116              		.thumb_func
 1117              		.fpu fpv5-d16
 1119              	main:
 1120              	.LFB4844:
 108:main.cpp      **** 
 109:main.cpp      **** int main()
 110:main.cpp      **** {
 1121              		.loc 10 110 1 view -0
 1122              		.cfi_startproc
 1123              		@ args = 0, pretend = 0, frame = 72
 1124              		@ frame_needed = 0, uses_anonymous_args = 0
 111:main.cpp      **** 
 112:main.cpp      ****   // hw = DAISY.init(DAISY_SEED, AUDIO_SR_48K);
 113:main.cpp      ****   float sample_rate;
 1125              		.loc 10 113 3 view .LVU260
 114:main.cpp      ****   hw.Configure();
 1126              		.loc 10 114 3 view .LVU261
 110:main.cpp      **** 
 1127              		.loc 10 110 1 is_stmt 0 view .LVU262
 1128 0000 2DE9F04F 		push	{r4, r5, r6, r7, r8, r9, r10, fp, lr}
 1129              		.cfi_def_cfa_offset 36
 1130              		.cfi_offset 4, -36
 1131              		.cfi_offset 5, -32
 1132              		.cfi_offset 6, -28
 1133              		.cfi_offset 7, -24
 1134              		.cfi_offset 8, -20
 1135              		.cfi_offset 9, -16
 1136              		.cfi_offset 10, -12
 1137              		.cfi_offset 11, -8
 1138              		.cfi_offset 14, -4
 1139              		.loc 10 114 15 view .LVU263
 1140 0004 D348     		ldr	r0, .L86
 115:main.cpp      ****   hw.Init();
 116:main.cpp      ****   hw.SetAudioBlockSize(64);
 117:main.cpp      ****   sample_rate = hw.AudioSampleRate();
 118:main.cpp      **** 
 119:main.cpp      **** #ifdef DEBUG
 120:main.cpp      ****   hw.StartLog(true);
 121:main.cpp      **** #endif // DEBUG
 122:main.cpp      ****        //-----------------------------------------------------------PLUCK
ARM GAS  C:\Users\skipi\AppData\Local\Temp\ccHKWaHh.s 			page 41


 123:main.cpp      ****        // OSC
 124:main.cpp      ****   pluck.Init(sample_rate);
 125:main.cpp      ****   pluck.SetWaveforms(wf_pluck);
 126:main.cpp      ****   pluck.SetFreq(f_pluck);
 127:main.cpp      ****   pluck.SetAmp(mix_amp_pluck);
 128:main.cpp      ****   pluck.SetDetune(0);          // No detune for pluck
 129:main.cpp      ****   pluck.SetGain(1.0f);         // Set gain to 1.0 for pluck
 130:main.cpp      ****   pluck.SetShape(shape_pluck); // Set shape modulation for pluck
 131:main.cpp      **** 
 132:main.cpp      ****   // amp_envelope
 133:main.cpp      ****   amp_eg_pluck.Init(sample_rate);
 134:main.cpp      **** 
 135:main.cpp      ****   amp_eg_pluck.SetTime(ADSR_SEG_ATTACK, pluck_Amp_ADSR[0]);
 1141              		.loc 10 135 23 view .LVU264
 1142 0006 D44D     		ldr	r5, .L86+4
 110:main.cpp      **** 
 1143              		.loc 10 110 1 view .LVU265
 1144 0008 2DED028B 		vpush.64	{d8}
 1145              		.cfi_def_cfa_offset 44
 1146              		.cfi_offset 80, -44
 1147              		.cfi_offset 81, -40
 1148 000c 97B0     		sub	sp, sp, #92
 1149              		.cfi_def_cfa_offset 136
 114:main.cpp      ****   hw.Init();
 1150              		.loc 10 114 15 view .LVU266
 1151 000e FFF7FEFF 		bl	_ZN5daisy9DaisySeed9ConfigureEv
 1152              	.LVL77:
 115:main.cpp      ****   hw.Init();
 1153              		.loc 10 115 3 is_stmt 1 view .LVU267
 115:main.cpp      ****   hw.Init();
 1154              		.loc 10 115 10 is_stmt 0 view .LVU268
 1155 0012 0021     		movs	r1, #0
 1156 0014 CF48     		ldr	r0, .L86
 1157 0016 FFF7FEFF 		bl	_ZN5daisy9DaisySeed4InitEb
 1158              	.LVL78:
 116:main.cpp      ****   sample_rate = hw.AudioSampleRate();
 1159              		.loc 10 116 3 is_stmt 1 view .LVU269
 116:main.cpp      ****   sample_rate = hw.AudioSampleRate();
 1160              		.loc 10 116 23 is_stmt 0 view .LVU270
 1161 001a 4021     		movs	r1, #64
 1162 001c CD48     		ldr	r0, .L86
 1163 001e FFF7FEFF 		bl	_ZN5daisy9DaisySeed17SetAudioBlockSizeEj
 1164              	.LVL79:
 117:main.cpp      **** 
 1165              		.loc 10 117 3 is_stmt 1 view .LVU271
 117:main.cpp      **** 
 1166              		.loc 10 117 35 is_stmt 0 view .LVU272
 1167 0022 CC48     		ldr	r0, .L86
 1168 0024 FFF7FEFF 		bl	_ZN5daisy9DaisySeed15AudioSampleRateEv
 1169              	.LVL80:
 1170 0028 B0EE408A 		vmov.f32	s16, s0
 1171              	.LVL81:
 120:main.cpp      **** #endif // DEBUG
 1172              		.loc 10 120 3 is_stmt 1 view .LVU273
 1173              	.LBB753:
 1174              	.LBI753:
  23:../../libs/libDaisy/src/daisy_seed.h **** 
ARM GAS  C:\Users\skipi\AppData\Local\Temp\ccHKWaHh.s 			page 42


  24:../../libs/libDaisy/src/daisy_seed.h ****     /** This function used to provide a pre-initialization configuraiton 
  25:../../libs/libDaisy/src/daisy_seed.h ****      *  it has since been deprecated, and does nothing.
  26:../../libs/libDaisy/src/daisy_seed.h ****      */
  27:../../libs/libDaisy/src/daisy_seed.h ****     void Configure();
  28:../../libs/libDaisy/src/daisy_seed.h **** 
  29:../../libs/libDaisy/src/daisy_seed.h ****     /** 
  30:../../libs/libDaisy/src/daisy_seed.h ****     Initializes the Daisy Seed and the following peripherals:
  31:../../libs/libDaisy/src/daisy_seed.h ****     SDRAM, QSPI, 24-bit 48kHz Audio via AK4556, Internal USB,
  32:../../libs/libDaisy/src/daisy_seed.h ****     as well as the built-in LED and Testpoint.
  33:../../libs/libDaisy/src/daisy_seed.h **** 
  34:../../libs/libDaisy/src/daisy_seed.h ****     ADCs, DACs, and other special peripherals (such as I2C, SPI, etc.)
  35:../../libs/libDaisy/src/daisy_seed.h ****     can be initialized using their specific initializers within libdaisy
  36:../../libs/libDaisy/src/daisy_seed.h ****     for a specific application.
  37:../../libs/libDaisy/src/daisy_seed.h ****     */
  38:../../libs/libDaisy/src/daisy_seed.h ****     void Init(bool boost = false);
  39:../../libs/libDaisy/src/daisy_seed.h **** 
  40:../../libs/libDaisy/src/daisy_seed.h ****     /** 
  41:../../libs/libDaisy/src/daisy_seed.h ****     Deinitializes all peripherals automatically handled by `Init`.
  42:../../libs/libDaisy/src/daisy_seed.h ****     */
  43:../../libs/libDaisy/src/daisy_seed.h ****     void DeInit();
  44:../../libs/libDaisy/src/daisy_seed.h **** 
  45:../../libs/libDaisy/src/daisy_seed.h ****     /** 
  46:../../libs/libDaisy/src/daisy_seed.h ****     Wait some ms before going on.
  47:../../libs/libDaisy/src/daisy_seed.h ****     \param del Delay time in ms.
  48:../../libs/libDaisy/src/daisy_seed.h ****     */
  49:../../libs/libDaisy/src/daisy_seed.h ****     void DelayMs(size_t del);
  50:../../libs/libDaisy/src/daisy_seed.h **** 
  51:../../libs/libDaisy/src/daisy_seed.h ****     /** 
  52:../../libs/libDaisy/src/daisy_seed.h ****     Returns the gpio_pin corresponding to the index 0-31.
  53:../../libs/libDaisy/src/daisy_seed.h ****     For the given GPIO on the Daisy Seed (labeled 1-32 in docs).
  54:../../libs/libDaisy/src/daisy_seed.h ****     */
  55:../../libs/libDaisy/src/daisy_seed.h ****     static Pin GetPin(uint8_t pin_idx);
  56:../../libs/libDaisy/src/daisy_seed.h **** 
  57:../../libs/libDaisy/src/daisy_seed.h ****     /** Begins the audio for the seeds builtin audio.
  58:../../libs/libDaisy/src/daisy_seed.h ****     the specified callback will get called whenever
  59:../../libs/libDaisy/src/daisy_seed.h ****     new data is ready to be prepared.
  60:../../libs/libDaisy/src/daisy_seed.h ****     */
  61:../../libs/libDaisy/src/daisy_seed.h ****     void StartAudio(AudioHandle::InterleavingAudioCallback cb);
  62:../../libs/libDaisy/src/daisy_seed.h **** 
  63:../../libs/libDaisy/src/daisy_seed.h ****     /** Begins the audio for the seeds builtin audio.
  64:../../libs/libDaisy/src/daisy_seed.h ****     the specified callback will get called whenever
  65:../../libs/libDaisy/src/daisy_seed.h ****     new data is ready to be prepared.
  66:../../libs/libDaisy/src/daisy_seed.h ****     This will use the newer non-interleaved callback.
  67:../../libs/libDaisy/src/daisy_seed.h ****     */
  68:../../libs/libDaisy/src/daisy_seed.h ****     void StartAudio(AudioHandle::AudioCallback cb);
  69:../../libs/libDaisy/src/daisy_seed.h **** 
  70:../../libs/libDaisy/src/daisy_seed.h ****     /** Changes to a new interleaved callback
  71:../../libs/libDaisy/src/daisy_seed.h ****      */
  72:../../libs/libDaisy/src/daisy_seed.h ****     void ChangeAudioCallback(AudioHandle::InterleavingAudioCallback cb);
  73:../../libs/libDaisy/src/daisy_seed.h **** 
  74:../../libs/libDaisy/src/daisy_seed.h ****     /** Changes to a new multichannel callback
  75:../../libs/libDaisy/src/daisy_seed.h ****      */
  76:../../libs/libDaisy/src/daisy_seed.h ****     void ChangeAudioCallback(AudioHandle::AudioCallback cb);
  77:../../libs/libDaisy/src/daisy_seed.h **** 
  78:../../libs/libDaisy/src/daisy_seed.h ****     /** Stops the audio if it is running. */
  79:../../libs/libDaisy/src/daisy_seed.h ****     void StopAudio();
  80:../../libs/libDaisy/src/daisy_seed.h **** 
ARM GAS  C:\Users\skipi\AppData\Local\Temp\ccHKWaHh.s 			page 43


  81:../../libs/libDaisy/src/daisy_seed.h ****     /** Updates the Audio Sample Rate, and reinitializes.
  82:../../libs/libDaisy/src/daisy_seed.h ****      ** Audio must be stopped for this to work.
  83:../../libs/libDaisy/src/daisy_seed.h ****      */
  84:../../libs/libDaisy/src/daisy_seed.h ****     void SetAudioSampleRate(SaiHandle::Config::SampleRate samplerate);
  85:../../libs/libDaisy/src/daisy_seed.h **** 
  86:../../libs/libDaisy/src/daisy_seed.h ****     /** Returns the audio sample rate in Hz as a floating point number.
  87:../../libs/libDaisy/src/daisy_seed.h ****      */
  88:../../libs/libDaisy/src/daisy_seed.h ****     float AudioSampleRate();
  89:../../libs/libDaisy/src/daisy_seed.h **** 
  90:../../libs/libDaisy/src/daisy_seed.h ****     /** Sets the number of samples processed per channel by the audio callback.
  91:../../libs/libDaisy/src/daisy_seed.h ****      */
  92:../../libs/libDaisy/src/daisy_seed.h ****     void SetAudioBlockSize(size_t blocksize);
  93:../../libs/libDaisy/src/daisy_seed.h **** 
  94:../../libs/libDaisy/src/daisy_seed.h ****     /** Returns the number of samples per channel in a block of audio. */
  95:../../libs/libDaisy/src/daisy_seed.h ****     size_t AudioBlockSize();
  96:../../libs/libDaisy/src/daisy_seed.h **** 
  97:../../libs/libDaisy/src/daisy_seed.h ****     /** Returns the rate in Hz that the Audio callback is called */
  98:../../libs/libDaisy/src/daisy_seed.h ****     float AudioCallbackRate() const;
  99:../../libs/libDaisy/src/daisy_seed.h **** 
 100:../../libs/libDaisy/src/daisy_seed.h ****     /** Returns the SAI Handle for the Daisy Seed 
 101:../../libs/libDaisy/src/daisy_seed.h ****      *  This can be useful when adding a secondary codec,
 102:../../libs/libDaisy/src/daisy_seed.h ****      *  the result of this function can be passed to the audio reinit 
 103:../../libs/libDaisy/src/daisy_seed.h ****      *  with an SAI2 configuration
 104:../../libs/libDaisy/src/daisy_seed.h ****      */
 105:../../libs/libDaisy/src/daisy_seed.h ****     const SaiHandle& AudioSaiHandle() const;
 106:../../libs/libDaisy/src/daisy_seed.h **** 
 107:../../libs/libDaisy/src/daisy_seed.h ****     /** Sets the state of the built in LED
 108:../../libs/libDaisy/src/daisy_seed.h ****      */
 109:../../libs/libDaisy/src/daisy_seed.h ****     void SetLed(bool state);
 110:../../libs/libDaisy/src/daisy_seed.h **** 
 111:../../libs/libDaisy/src/daisy_seed.h ****     /** Sets the state of the test point near pin 10
 112:../../libs/libDaisy/src/daisy_seed.h ****      */
 113:../../libs/libDaisy/src/daisy_seed.h ****     void SetTestPoint(bool state);
 114:../../libs/libDaisy/src/daisy_seed.h **** 
 115:../../libs/libDaisy/src/daisy_seed.h ****     /** Print formatted debug log message
 116:../../libs/libDaisy/src/daisy_seed.h ****      */
 117:../../libs/libDaisy/src/daisy_seed.h ****     template <typename... VA>
 118:../../libs/libDaisy/src/daisy_seed.h ****     static void Print(const char* format, VA... va)
 119:../../libs/libDaisy/src/daisy_seed.h ****     {
 120:../../libs/libDaisy/src/daisy_seed.h ****         Log::Print(format, va...);
 121:../../libs/libDaisy/src/daisy_seed.h ****     }
 122:../../libs/libDaisy/src/daisy_seed.h **** 
 123:../../libs/libDaisy/src/daisy_seed.h ****     /** Print formatted debug log message with automatic line termination
 124:../../libs/libDaisy/src/daisy_seed.h ****     */
 125:../../libs/libDaisy/src/daisy_seed.h ****     template <typename... VA>
 126:../../libs/libDaisy/src/daisy_seed.h ****     static void PrintLine(const char* format, VA... va)
 127:../../libs/libDaisy/src/daisy_seed.h ****     {
 128:../../libs/libDaisy/src/daisy_seed.h ****         Log::PrintLine(format, va...);
 129:../../libs/libDaisy/src/daisy_seed.h ****     }
 130:../../libs/libDaisy/src/daisy_seed.h **** 
 131:../../libs/libDaisy/src/daisy_seed.h ****     /** Start the logging session. Optionally wait for terminal connection before proceeding.
 132:../../libs/libDaisy/src/daisy_seed.h ****     */
 133:../../libs/libDaisy/src/daisy_seed.h ****     static void StartLog(bool wait_for_pc = false)
 1175              		.loc 1 133 17 view .LVU274
 1176              	.LBB754:
 134:../../libs/libDaisy/src/daisy_seed.h ****     {
 135:../../libs/libDaisy/src/daisy_seed.h ****         Log::StartLog(wait_for_pc);
ARM GAS  C:\Users\skipi\AppData\Local\Temp\ccHKWaHh.s 			page 44


 1177              		.loc 1 135 9 view .LVU275
 1178              		.loc 1 135 22 is_stmt 0 view .LVU276
 1179 002c 0120     		movs	r0, #1
 1180 002e FFF7FEFF 		bl	_ZN5daisy6LoggerILNS_17LoggerDestinationE1EE8StartLogEb
 1181              	.LVL82:
 1182              		.loc 1 135 22 view .LVU277
 1183              	.LBE754:
 1184              	.LBE753:
 124:main.cpp      ****   pluck.SetWaveforms(wf_pluck);
 1185              		.loc 10 124 3 is_stmt 1 view .LVU278
 124:main.cpp      ****   pluck.SetWaveforms(wf_pluck);
 1186              		.loc 10 124 13 is_stmt 0 view .LVU279
 1187 0032 CA48     		ldr	r0, .L86+8
 1188 0034 B0EE480A 		vmov.f32	s0, s16
 1189 0038 FFF7FEFF 		bl	_ZN4Ramo4InitEf
 1190              	.LVL83:
 125:main.cpp      ****   pluck.SetFreq(f_pluck);
 1191              		.loc 10 125 3 is_stmt 1 view .LVU280
 125:main.cpp      ****   pluck.SetFreq(f_pluck);
 1192              		.loc 10 125 21 is_stmt 0 view .LVU281
 1193 003c C849     		ldr	r1, .L86+12
 1194 003e C748     		ldr	r0, .L86+8
 1195 0040 FFF7FEFF 		bl	_ZN4Ramo12SetWaveformsEPh
 1196              	.LVL84:
 126:main.cpp      ****   pluck.SetAmp(mix_amp_pluck);
 1197              		.loc 10 126 3 is_stmt 1 view .LVU282
 126:main.cpp      ****   pluck.SetAmp(mix_amp_pluck);
 1198              		.loc 10 126 16 is_stmt 0 view .LVU283
 1199 0044 C74B     		ldr	r3, .L86+16
 1200 0046 C548     		ldr	r0, .L86+8
 1201 0048 93ED000A 		vldr.32	s0, [r3]
 1202 004c FFF7FEFF 		bl	_ZN4Ramo7SetFreqEf
 1203              	.LVL85:
 127:main.cpp      ****   pluck.SetDetune(0);          // No detune for pluck
 1204              		.loc 10 127 3 is_stmt 1 view .LVU284
 127:main.cpp      ****   pluck.SetDetune(0);          // No detune for pluck
 1205              		.loc 10 127 15 is_stmt 0 view .LVU285
 1206 0050 C549     		ldr	r1, .L86+20
 1207 0052 C248     		ldr	r0, .L86+8
 1208 0054 FFF7FEFF 		bl	_ZN4Ramo6SetAmpEPf
 1209              	.LVL86:
 128:main.cpp      ****   pluck.SetGain(1.0f);         // Set gain to 1.0 for pluck
 1210              		.loc 10 128 3 is_stmt 1 view .LVU286
 128:main.cpp      ****   pluck.SetGain(1.0f);         // Set gain to 1.0 for pluck
 1211              		.loc 10 128 18 is_stmt 0 view .LVU287
 1212 0058 0021     		movs	r1, #0
 1213 005a C048     		ldr	r0, .L86+8
 1214 005c FFF7FEFF 		bl	_ZN4Ramo9SetDetuneEPf
 1215              	.LVL87:
 129:main.cpp      ****   pluck.SetShape(shape_pluck); // Set shape modulation for pluck
 1216              		.loc 10 129 3 is_stmt 1 view .LVU288
 129:main.cpp      ****   pluck.SetShape(shape_pluck); // Set shape modulation for pluck
 1217              		.loc 10 129 16 is_stmt 0 view .LVU289
 1218 0060 B7EE000A 		vmov.f32	s0, #1.0e+0
 1219 0064 BD48     		ldr	r0, .L86+8
 1220 0066 FFF7FEFF 		bl	_ZN4Ramo7SetGainEf
 1221              	.LVL88:
ARM GAS  C:\Users\skipi\AppData\Local\Temp\ccHKWaHh.s 			page 45


 130:main.cpp      **** 
 1222              		.loc 10 130 3 is_stmt 1 view .LVU290
 130:main.cpp      **** 
 1223              		.loc 10 130 17 is_stmt 0 view .LVU291
 1224 006a C04B     		ldr	r3, .L86+24
 1225 006c BB48     		ldr	r0, .L86+8
 1226 006e 93ED000A 		vldr.32	s0, [r3]
 1227 0072 FFF7FEFF 		bl	_ZN4Ramo8SetShapeEf
 1228              	.LVL89:
 133:main.cpp      **** 
 1229              		.loc 10 133 3 is_stmt 1 view .LVU292
 133:main.cpp      **** 
 1230              		.loc 10 133 20 is_stmt 0 view .LVU293
 1231 0076 B0EE480A 		vmov.f32	s0, s16
 1232 007a 0121     		movs	r1, #1
 1233 007c BC48     		ldr	r0, .L86+28
 1234 007e FFF7FEFF 		bl	_ZN7daisysp4Adsr4InitEfi
 1235              	.LVL90:
 1236              		.loc 10 135 3 is_stmt 1 view .LVU294
 1237              		.loc 10 135 23 is_stmt 0 view .LVU295
 1238 0082 95ED000A 		vldr.32	s0, [r5]
 1239 0086 0121     		movs	r1, #1
 1240 0088 B948     		ldr	r0, .L86+28
 1241 008a FFF7FEFF 		bl	_ZN7daisysp4Adsr7SetTimeEif
 1242              	.LVL91:
 136:main.cpp      ****   amp_eg_pluck.SetTime(ADSR_SEG_DECAY, pluck_Amp_ADSR[1]);
 1243              		.loc 10 136 3 is_stmt 1 view .LVU296
 1244              		.loc 10 136 23 is_stmt 0 view .LVU297
 1245 008e 95ED010A 		vldr.32	s0, [r5, #4]
 1246 0092 0221     		movs	r1, #2
 1247 0094 B648     		ldr	r0, .L86+28
 1248 0096 FFF7FEFF 		bl	_ZN7daisysp4Adsr7SetTimeEif
 1249              	.LVL92:
 137:main.cpp      ****   amp_eg_pluck.SetSustainLevel(pluck_Amp_ADSR[2]);
 1250              		.loc 10 137 3 is_stmt 1 view .LVU298
 1251              		.loc 10 137 31 is_stmt 0 view .LVU299
 1252 009a D5ED027A 		vldr.32	s15, [r5, #8]
 1253              	.LVL93:
 1254              	.LBB755:
 1255              	.LBI755:
  46:../../libs/DaisySP/Source/Control/adsr.h ****     /** Initializes the Adsr module.
  47:../../libs/DaisySP/Source/Control/adsr.h ****         \param sample_rate - The sample rate of the audio engine being run. 
  48:../../libs/DaisySP/Source/Control/adsr.h ****     */
  49:../../libs/DaisySP/Source/Control/adsr.h ****     void Init(float sample_rate, int blockSize = 1);
  50:../../libs/DaisySP/Source/Control/adsr.h ****     /**
  51:../../libs/DaisySP/Source/Control/adsr.h ****      \function Retrigger forces the envelope back to attack phase
  52:../../libs/DaisySP/Source/Control/adsr.h ****      \param hard  resets the history to zero, results in a click.
  53:../../libs/DaisySP/Source/Control/adsr.h ****      */
  54:../../libs/DaisySP/Source/Control/adsr.h ****     void Retrigger(bool hard);
  55:../../libs/DaisySP/Source/Control/adsr.h ****     /** Processes one sample through the filter and returns one sample.
  56:../../libs/DaisySP/Source/Control/adsr.h ****         \param gate - trigger the envelope, hold it to sustain 
  57:../../libs/DaisySP/Source/Control/adsr.h ****     */
  58:../../libs/DaisySP/Source/Control/adsr.h ****     float Process(bool gate);
  59:../../libs/DaisySP/Source/Control/adsr.h ****     /** Sets time
  60:../../libs/DaisySP/Source/Control/adsr.h ****         Set time per segment in seconds
  61:../../libs/DaisySP/Source/Control/adsr.h ****     */
  62:../../libs/DaisySP/Source/Control/adsr.h ****     void SetTime(int seg, float time);
ARM GAS  C:\Users\skipi\AppData\Local\Temp\ccHKWaHh.s 			page 46


  63:../../libs/DaisySP/Source/Control/adsr.h ****     void SetAttackTime(float timeInS, float shape = 0.0f);
  64:../../libs/DaisySP/Source/Control/adsr.h ****     void SetDecayTime(float timeInS);
  65:../../libs/DaisySP/Source/Control/adsr.h ****     void SetReleaseTime(float timeInS);
  66:../../libs/DaisySP/Source/Control/adsr.h **** 
  67:../../libs/DaisySP/Source/Control/adsr.h ****   private:
  68:../../libs/DaisySP/Source/Control/adsr.h ****     void SetTimeConstant(float timeInS, float& time, float& coeff);
  69:../../libs/DaisySP/Source/Control/adsr.h **** 
  70:../../libs/DaisySP/Source/Control/adsr.h ****   public:
  71:../../libs/DaisySP/Source/Control/adsr.h ****     /** Sustain level
  72:../../libs/DaisySP/Source/Control/adsr.h ****         \param sus_level - sets sustain level, 0...1.0
  73:../../libs/DaisySP/Source/Control/adsr.h ****     */
  74:../../libs/DaisySP/Source/Control/adsr.h ****     inline void SetSustainLevel(float sus_level)
 1256              		.loc 7 74 17 is_stmt 1 view .LVU300
 1257              	.LBB756:
  75:../../libs/DaisySP/Source/Control/adsr.h ****     {
  76:../../libs/DaisySP/Source/Control/adsr.h ****         sus_level = (sus_level <= 0.f) ? -0.01f // forces envelope into idle
 1258              		.loc 7 76 9 view .LVU301
 1259              		.loc 7 76 40 is_stmt 0 view .LVU302
 1260 009e F5EEC07A 		vcmpe.f32	s15, #0
 1261 00a2 F1EE10FA 		vmrs	APSR_nzcv, FPSCR
 1262 00a6 40F25D85 		bls	.L50
  77:../../libs/DaisySP/Source/Control/adsr.h ****                                        : (sus_level > 1.f) ? 1.f : sus_level;
 1263              		.loc 7 77 60 view .LVU303
 1264 00aa B7EE007A 		vmov.f32	s14, #1.0e+0
 1265 00ae F4EE477A 		vcmp.f32	s15, s14
 1266 00b2 F1EE10FA 		vmrs	APSR_nzcv, FPSCR
 1267 00b6 77FE277A 		vselgt.f32	s15, s14, s15
 1268              	.LVL94:
 1269              	.L31:
  78:../../libs/DaisySP/Source/Control/adsr.h ****         sus_level_ = sus_level;
 1270              		.loc 7 78 9 is_stmt 1 view .LVU304
 1271              		.loc 7 78 20 is_stmt 0 view .LVU305
 1272 00ba AD48     		ldr	r0, .L86+28
 1273              	.LBE756:
 1274              	.LBE755:
 138:main.cpp      ****   amp_eg_pluck.SetTime(ADSR_SEG_RELEASE, pluck_Amp_ADSR[3]);
 1275              		.loc 10 138 23 view .LVU306
 1276 00bc 0421     		movs	r1, #4
 139:main.cpp      **** 
 140:main.cpp      ****   // filter_envelope
 141:main.cpp      ****   filt_eg_pluck.Init(sample_rate);
 142:main.cpp      **** 
 143:main.cpp      ****   filt_eg_pluck.SetTime(ADSR_SEG_ATTACK, pluck_Filter_ADSR[0]);
 1277              		.loc 10 143 24 view .LVU307
 1278 00be AD4C     		ldr	r4, .L86+32
 138:main.cpp      ****   amp_eg_pluck.SetTime(ADSR_SEG_RELEASE, pluck_Amp_ADSR[3]);
 1279              		.loc 10 138 23 view .LVU308
 1280 00c0 95ED030A 		vldr.32	s0, [r5, #12]
 1281              	.LBB759:
 1282              	.LBB757:
 1283              		.loc 7 78 20 view .LVU309
 1284 00c4 C0ED007A 		vstr.32	s15, [r0]
 1285              	.LVL95:
 1286              		.loc 7 78 20 view .LVU310
 1287              	.LBE757:
 1288              	.LBE759:
 138:main.cpp      ****   amp_eg_pluck.SetTime(ADSR_SEG_RELEASE, pluck_Amp_ADSR[3]);
ARM GAS  C:\Users\skipi\AppData\Local\Temp\ccHKWaHh.s 			page 47


 1289              		.loc 10 138 3 is_stmt 1 view .LVU311
 138:main.cpp      ****   amp_eg_pluck.SetTime(ADSR_SEG_RELEASE, pluck_Amp_ADSR[3]);
 1290              		.loc 10 138 23 is_stmt 0 view .LVU312
 1291 00c8 FFF7FEFF 		bl	_ZN7daisysp4Adsr7SetTimeEif
 1292              	.LVL96:
 141:main.cpp      **** 
 1293              		.loc 10 141 3 is_stmt 1 view .LVU313
 141:main.cpp      **** 
 1294              		.loc 10 141 21 is_stmt 0 view .LVU314
 1295 00cc B0EE480A 		vmov.f32	s0, s16
 1296 00d0 0121     		movs	r1, #1
 1297 00d2 A948     		ldr	r0, .L86+36
 1298 00d4 FFF7FEFF 		bl	_ZN7daisysp4Adsr4InitEfi
 1299              	.LVL97:
 1300              		.loc 10 143 3 is_stmt 1 view .LVU315
 1301              		.loc 10 143 24 is_stmt 0 view .LVU316
 1302 00d8 94ED000A 		vldr.32	s0, [r4]
 1303 00dc 0121     		movs	r1, #1
 1304 00de A648     		ldr	r0, .L86+36
 1305 00e0 FFF7FEFF 		bl	_ZN7daisysp4Adsr7SetTimeEif
 1306              	.LVL98:
 144:main.cpp      ****   filt_eg_pluck.SetTime(ADSR_SEG_DECAY, pluck_Filter_ADSR[1]);
 1307              		.loc 10 144 3 is_stmt 1 view .LVU317
 1308              		.loc 10 144 24 is_stmt 0 view .LVU318
 1309 00e4 94ED010A 		vldr.32	s0, [r4, #4]
 1310 00e8 0221     		movs	r1, #2
 1311 00ea A348     		ldr	r0, .L86+36
 1312 00ec FFF7FEFF 		bl	_ZN7daisysp4Adsr7SetTimeEif
 1313              	.LVL99:
 145:main.cpp      ****   filt_eg_pluck.SetSustainLevel(pluck_Filter_ADSR[2]);
 1314              		.loc 10 145 3 is_stmt 1 view .LVU319
 1315              		.loc 10 145 32 is_stmt 0 view .LVU320
 1316 00f0 D4ED027A 		vldr.32	s15, [r4, #8]
 1317              	.LVL100:
 1318              	.LBB760:
 1319              	.LBI760:
  74:../../libs/DaisySP/Source/Control/adsr.h ****     {
 1320              		.loc 7 74 17 is_stmt 1 view .LVU321
 1321              	.LBB761:
  76:../../libs/DaisySP/Source/Control/adsr.h ****                                        : (sus_level > 1.f) ? 1.f : sus_level;
 1322              		.loc 7 76 9 view .LVU322
  76:../../libs/DaisySP/Source/Control/adsr.h ****                                        : (sus_level > 1.f) ? 1.f : sus_level;
 1323              		.loc 7 76 40 is_stmt 0 view .LVU323
 1324 00f4 F5EEC07A 		vcmpe.f32	s15, #0
 1325 00f8 F1EE10FA 		vmrs	APSR_nzcv, FPSCR
 1326 00fc 40F24685 		bls	.L52
  77:../../libs/DaisySP/Source/Control/adsr.h ****         sus_level_ = sus_level;
 1327              		.loc 7 77 60 view .LVU324
 1328 0100 B7EE007A 		vmov.f32	s14, #1.0e+0
 1329 0104 F4EE477A 		vcmp.f32	s15, s14
 1330 0108 F1EE10FA 		vmrs	APSR_nzcv, FPSCR
 1331 010c 77FE277A 		vselgt.f32	s15, s14, s15
 1332              	.LVL101:
 1333              	.L32:
 1334              		.loc 7 78 9 is_stmt 1 view .LVU325
 1335              		.loc 7 78 20 is_stmt 0 view .LVU326
 1336 0110 9948     		ldr	r0, .L86+36
ARM GAS  C:\Users\skipi\AppData\Local\Temp\ccHKWaHh.s 			page 48


 1337              	.LBE761:
 1338              	.LBE760:
 146:main.cpp      ****   filt_eg_pluck.SetTime(ADSR_SEG_RELEASE, pluck_Filter_ADSR[3]);
 1339              		.loc 10 146 24 view .LVU327
 1340 0112 0421     		movs	r1, #4
 1341 0114 94ED030A 		vldr.32	s0, [r4, #12]
 1342              	.LBB764:
 1343              	.LBB762:
 1344              		.loc 7 78 20 view .LVU328
 1345 0118 C0ED007A 		vstr.32	s15, [r0]
 1346              	.LVL102:
 1347              		.loc 7 78 20 view .LVU329
 1348              	.LBE762:
 1349              	.LBE764:
 1350              		.loc 10 146 3 is_stmt 1 view .LVU330
 1351              		.loc 10 146 24 is_stmt 0 view .LVU331
 1352 011c FFF7FEFF 		bl	_ZN7daisysp4Adsr7SetTimeEif
 1353              	.LVL103:
 147:main.cpp      **** 
 148:main.cpp      ****   // VCF
 149:main.cpp      ****   VCF_pluck.Init(sample_rate);
 1354              		.loc 10 149 3 is_stmt 1 view .LVU332
 1355              		.loc 10 149 17 is_stmt 0 view .LVU333
 1356 0120 B0EE480A 		vmov.f32	s0, s16
 1357 0124 9548     		ldr	r0, .L86+40
 1358 0126 FFF7FEFF 		bl	_ZN7daisysp12LadderFilter4InitEf
 1359              	.LVL104:
 150:main.cpp      ****   VCF_pluck.SetFreq(ft_pluck);
 1360              		.loc 10 150 3 is_stmt 1 view .LVU334
 1361              		.loc 10 150 20 is_stmt 0 view .LVU335
 1362 012a 954B     		ldr	r3, .L86+44
 1363 012c 9348     		ldr	r0, .L86+40
 1364 012e 93ED000A 		vldr.32	s0, [r3]
 1365 0132 FFF7FEFF 		bl	_ZN7daisysp12LadderFilter7SetFreqEf
 1366              	.LVL105:
 151:main.cpp      ****   VCF_pluck.SetRes(res_pluck);
 1367              		.loc 10 151 3 is_stmt 1 view .LVU336
 1368              		.loc 10 151 19 is_stmt 0 view .LVU337
 1369 0136 934B     		ldr	r3, .L86+48
 1370 0138 9048     		ldr	r0, .L86+40
 1371 013a 93ED000A 		vldr.32	s0, [r3]
 1372 013e FFF7FEFF 		bl	_ZN7daisysp12LadderFilter6SetResEf
 1373              	.LVL106:
 152:main.cpp      **** 
 153:main.cpp      ****   //-----------------------------------------------------------PAD
 154:main.cpp      **** 
 155:main.cpp      ****   // OSC
 156:main.cpp      **** 
 157:main.cpp      ****   pad.Init(sample_rate);
 1374              		.loc 10 157 3 is_stmt 1 view .LVU338
 1375              		.loc 10 157 11 is_stmt 0 view .LVU339
 1376 0142 B0EE480A 		vmov.f32	s0, s16
 1377 0146 9048     		ldr	r0, .L86+52
 1378 0148 FFF7FEFF 		bl	_ZN4Ramo4InitEf
 1379              	.LVL107:
 158:main.cpp      ****   pad.SetWaveforms(wf_pad);
 1380              		.loc 10 158 3 is_stmt 1 view .LVU340
ARM GAS  C:\Users\skipi\AppData\Local\Temp\ccHKWaHh.s 			page 49


 1381              		.loc 10 158 19 is_stmt 0 view .LVU341
 1382 014c 8F49     		ldr	r1, .L86+56
 1383 014e 8E48     		ldr	r0, .L86+52
 1384 0150 FFF7FEFF 		bl	_ZN4Ramo12SetWaveformsEPh
 1385              	.LVL108:
 159:main.cpp      ****   pad.SetFreq(f_pad);
 1386              		.loc 10 159 3 is_stmt 1 view .LVU342
 1387              		.loc 10 159 14 is_stmt 0 view .LVU343
 1388 0154 8E4B     		ldr	r3, .L86+60
 1389 0156 8C48     		ldr	r0, .L86+52
 1390 0158 93ED000A 		vldr.32	s0, [r3]
 1391 015c FFF7FEFF 		bl	_ZN4Ramo7SetFreqEf
 1392              	.LVL109:
 160:main.cpp      ****   pad.SetAmp(mix_amp_pad);
 1393              		.loc 10 160 3 is_stmt 1 view .LVU344
 1394              		.loc 10 160 13 is_stmt 0 view .LVU345
 1395 0160 8C49     		ldr	r1, .L86+64
 1396 0162 8948     		ldr	r0, .L86+52
 1397 0164 FFF7FEFF 		bl	_ZN4Ramo6SetAmpEPf
 1398              	.LVL110:
 161:main.cpp      ****   pad.SetDetune(0);        // No detune for pad
 1399              		.loc 10 161 3 is_stmt 1 view .LVU346
 1400              		.loc 10 161 16 is_stmt 0 view .LVU347
 1401 0168 0021     		movs	r1, #0
 1402 016a 8748     		ldr	r0, .L86+52
 1403 016c FFF7FEFF 		bl	_ZN4Ramo9SetDetuneEPf
 1404              	.LVL111:
 162:main.cpp      ****   pad.SetGain(1.0f);       // Set gain to 1.0 for pad
 1405              		.loc 10 162 3 is_stmt 1 view .LVU348
 1406              		.loc 10 162 14 is_stmt 0 view .LVU349
 1407 0170 B7EE000A 		vmov.f32	s0, #1.0e+0
 1408 0174 8448     		ldr	r0, .L86+52
 1409 0176 FFF7FEFF 		bl	_ZN4Ramo7SetGainEf
 1410              	.LVL112:
 163:main.cpp      ****   pad.SetShape(shape_pad); // Set shape modulation for pad
 1411              		.loc 10 163 3 is_stmt 1 view .LVU350
 1412              		.loc 10 163 15 is_stmt 0 view .LVU351
 1413 017a 874B     		ldr	r3, .L86+68
 164:main.cpp      **** 
 165:main.cpp      ****   // amp_envelope
 166:main.cpp      ****   amp_eg_pad.Init(sample_rate);
 167:main.cpp      **** 
 168:main.cpp      ****   amp_eg_pad.SetTime(ADSR_SEG_ATTACK, pad_Amp_ADSR[0]);
 1414              		.loc 10 168 21 view .LVU352
 1415 017c 874D     		ldr	r5, .L86+72
 163:main.cpp      ****   pad.SetShape(shape_pad); // Set shape modulation for pad
 1416              		.loc 10 163 15 view .LVU353
 1417 017e 93ED000A 		vldr.32	s0, [r3]
 1418 0182 8148     		ldr	r0, .L86+52
 1419 0184 FFF7FEFF 		bl	_ZN4Ramo8SetShapeEf
 1420              	.LVL113:
 166:main.cpp      **** 
 1421              		.loc 10 166 3 is_stmt 1 view .LVU354
 166:main.cpp      **** 
 1422              		.loc 10 166 18 is_stmt 0 view .LVU355
 1423 0188 B0EE480A 		vmov.f32	s0, s16
 1424 018c 0121     		movs	r1, #1
ARM GAS  C:\Users\skipi\AppData\Local\Temp\ccHKWaHh.s 			page 50


 1425 018e 8448     		ldr	r0, .L86+76
 1426 0190 FFF7FEFF 		bl	_ZN7daisysp4Adsr4InitEfi
 1427              	.LVL114:
 1428              		.loc 10 168 3 is_stmt 1 view .LVU356
 1429              		.loc 10 168 21 is_stmt 0 view .LVU357
 1430 0194 95ED000A 		vldr.32	s0, [r5]
 1431 0198 0121     		movs	r1, #1
 1432 019a 8148     		ldr	r0, .L86+76
 1433 019c FFF7FEFF 		bl	_ZN7daisysp4Adsr7SetTimeEif
 1434              	.LVL115:
 169:main.cpp      ****   amp_eg_pad.SetTime(ADSR_SEG_DECAY, pad_Amp_ADSR[1]);
 1435              		.loc 10 169 3 is_stmt 1 view .LVU358
 1436              		.loc 10 169 21 is_stmt 0 view .LVU359
 1437 01a0 95ED010A 		vldr.32	s0, [r5, #4]
 1438 01a4 0221     		movs	r1, #2
 1439 01a6 7E48     		ldr	r0, .L86+76
 1440 01a8 FFF7FEFF 		bl	_ZN7daisysp4Adsr7SetTimeEif
 1441              	.LVL116:
 170:main.cpp      ****   amp_eg_pad.SetSustainLevel(pad_Amp_ADSR[2]);
 1442              		.loc 10 170 3 is_stmt 1 view .LVU360
 1443              		.loc 10 170 29 is_stmt 0 view .LVU361
 1444 01ac D5ED027A 		vldr.32	s15, [r5, #8]
 1445              	.LVL117:
 1446              	.LBB765:
 1447              	.LBI765:
  74:../../libs/DaisySP/Source/Control/adsr.h ****     {
 1448              		.loc 7 74 17 is_stmt 1 view .LVU362
 1449              	.LBB766:
  76:../../libs/DaisySP/Source/Control/adsr.h ****                                        : (sus_level > 1.f) ? 1.f : sus_level;
 1450              		.loc 7 76 9 view .LVU363
  76:../../libs/DaisySP/Source/Control/adsr.h ****                                        : (sus_level > 1.f) ? 1.f : sus_level;
 1451              		.loc 7 76 40 is_stmt 0 view .LVU364
 1452 01b0 F5EEC07A 		vcmpe.f32	s15, #0
 1453 01b4 F1EE10FA 		vmrs	APSR_nzcv, FPSCR
 1454 01b8 40F2E484 		bls	.L54
  77:../../libs/DaisySP/Source/Control/adsr.h ****         sus_level_ = sus_level;
 1455              		.loc 7 77 60 view .LVU365
 1456 01bc B7EE007A 		vmov.f32	s14, #1.0e+0
 1457 01c0 F4EE477A 		vcmp.f32	s15, s14
 1458 01c4 F1EE10FA 		vmrs	APSR_nzcv, FPSCR
 1459 01c8 77FE277A 		vselgt.f32	s15, s14, s15
 1460              	.LVL118:
 1461              	.L33:
 1462              		.loc 7 78 9 is_stmt 1 view .LVU366
 1463              		.loc 7 78 20 is_stmt 0 view .LVU367
 1464 01cc 7448     		ldr	r0, .L86+76
 1465              	.LBE766:
 1466              	.LBE765:
 171:main.cpp      ****   amp_eg_pad.SetTime(ADSR_SEG_RELEASE, pad_Amp_ADSR[3]);
 1467              		.loc 10 171 21 view .LVU368
 1468 01ce 0421     		movs	r1, #4
 172:main.cpp      **** 
 173:main.cpp      ****   // filter_envelope
 174:main.cpp      ****   filt_eg_pad.Init(sample_rate);
 175:main.cpp      **** 
 176:main.cpp      ****   filt_eg_pad.SetTime(ADSR_SEG_ATTACK, pad_Filter_ADSR[0]);
 1469              		.loc 10 176 22 view .LVU369
ARM GAS  C:\Users\skipi\AppData\Local\Temp\ccHKWaHh.s 			page 51


 1470 01d0 744C     		ldr	r4, .L86+80
 171:main.cpp      ****   amp_eg_pad.SetTime(ADSR_SEG_RELEASE, pad_Amp_ADSR[3]);
 1471              		.loc 10 171 21 view .LVU370
 1472 01d2 95ED030A 		vldr.32	s0, [r5, #12]
 1473              	.LBB769:
 1474              	.LBB767:
 1475              		.loc 7 78 20 view .LVU371
 1476 01d6 C0ED007A 		vstr.32	s15, [r0]
 1477              	.LVL119:
 1478              		.loc 7 78 20 view .LVU372
 1479              	.LBE767:
 1480              	.LBE769:
 171:main.cpp      ****   amp_eg_pad.SetTime(ADSR_SEG_RELEASE, pad_Amp_ADSR[3]);
 1481              		.loc 10 171 3 is_stmt 1 view .LVU373
 171:main.cpp      ****   amp_eg_pad.SetTime(ADSR_SEG_RELEASE, pad_Amp_ADSR[3]);
 1482              		.loc 10 171 21 is_stmt 0 view .LVU374
 1483 01da FFF7FEFF 		bl	_ZN7daisysp4Adsr7SetTimeEif
 1484              	.LVL120:
 174:main.cpp      **** 
 1485              		.loc 10 174 3 is_stmt 1 view .LVU375
 174:main.cpp      **** 
 1486              		.loc 10 174 19 is_stmt 0 view .LVU376
 1487 01de B0EE480A 		vmov.f32	s0, s16
 1488 01e2 0121     		movs	r1, #1
 1489 01e4 7048     		ldr	r0, .L86+84
 1490 01e6 FFF7FEFF 		bl	_ZN7daisysp4Adsr4InitEfi
 1491              	.LVL121:
 1492              		.loc 10 176 3 is_stmt 1 view .LVU377
 1493              		.loc 10 176 22 is_stmt 0 view .LVU378
 1494 01ea 94ED000A 		vldr.32	s0, [r4]
 1495 01ee 0121     		movs	r1, #1
 1496 01f0 6D48     		ldr	r0, .L86+84
 1497 01f2 FFF7FEFF 		bl	_ZN7daisysp4Adsr7SetTimeEif
 1498              	.LVL122:
 177:main.cpp      ****   filt_eg_pad.SetTime(ADSR_SEG_DECAY, pad_Filter_ADSR[1]);
 1499              		.loc 10 177 3 is_stmt 1 view .LVU379
 1500              		.loc 10 177 22 is_stmt 0 view .LVU380
 1501 01f6 94ED010A 		vldr.32	s0, [r4, #4]
 1502 01fa 0221     		movs	r1, #2
 1503 01fc 6A48     		ldr	r0, .L86+84
 1504 01fe FFF7FEFF 		bl	_ZN7daisysp4Adsr7SetTimeEif
 1505              	.LVL123:
 178:main.cpp      ****   filt_eg_pad.SetSustainLevel(pad_Filter_ADSR[2]);
 1506              		.loc 10 178 3 is_stmt 1 view .LVU381
 1507              		.loc 10 178 30 is_stmt 0 view .LVU382
 1508 0202 D4ED027A 		vldr.32	s15, [r4, #8]
 1509              	.LVL124:
 1510              	.LBB770:
 1511              	.LBI770:
  74:../../libs/DaisySP/Source/Control/adsr.h ****     {
 1512              		.loc 7 74 17 is_stmt 1 view .LVU383
 1513              	.LBB771:
  76:../../libs/DaisySP/Source/Control/adsr.h ****                                        : (sus_level > 1.f) ? 1.f : sus_level;
 1514              		.loc 7 76 9 view .LVU384
  76:../../libs/DaisySP/Source/Control/adsr.h ****                                        : (sus_level > 1.f) ? 1.f : sus_level;
 1515              		.loc 7 76 40 is_stmt 0 view .LVU385
 1516 0206 F5EEC07A 		vcmpe.f32	s15, #0
ARM GAS  C:\Users\skipi\AppData\Local\Temp\ccHKWaHh.s 			page 52


 1517 020a F1EE10FA 		vmrs	APSR_nzcv, FPSCR
 1518 020e 40F2B584 		bls	.L56
  77:../../libs/DaisySP/Source/Control/adsr.h ****         sus_level_ = sus_level;
 1519              		.loc 7 77 60 view .LVU386
 1520 0212 B7EE007A 		vmov.f32	s14, #1.0e+0
 1521 0216 F4EE477A 		vcmp.f32	s15, s14
 1522 021a F1EE10FA 		vmrs	APSR_nzcv, FPSCR
 1523 021e 77FE277A 		vselgt.f32	s15, s14, s15
 1524              	.LVL125:
 1525              	.L34:
 1526              		.loc 7 78 9 is_stmt 1 view .LVU387
 1527              		.loc 7 78 20 is_stmt 0 view .LVU388
 1528 0222 6148     		ldr	r0, .L86+84
 1529              	.LBE771:
 1530              	.LBE770:
 179:main.cpp      ****   filt_eg_pad.SetTime(ADSR_SEG_RELEASE, pad_Filter_ADSR[3]);
 1531              		.loc 10 179 22 view .LVU389
 1532 0224 0421     		movs	r1, #4
 1533 0226 94ED030A 		vldr.32	s0, [r4, #12]
 1534              	.LBB774:
 1535              	.LBB772:
 1536              		.loc 7 78 20 view .LVU390
 1537 022a C0ED007A 		vstr.32	s15, [r0]
 1538              	.LVL126:
 1539              		.loc 7 78 20 view .LVU391
 1540              	.LBE772:
 1541              	.LBE774:
 1542              		.loc 10 179 3 is_stmt 1 view .LVU392
 1543              		.loc 10 179 22 is_stmt 0 view .LVU393
 1544 022e FFF7FEFF 		bl	_ZN7daisysp4Adsr7SetTimeEif
 1545              	.LVL127:
 180:main.cpp      **** 
 181:main.cpp      ****   // VCF
 182:main.cpp      ****   VCF_pad.Init(sample_rate);
 1546              		.loc 10 182 3 is_stmt 1 view .LVU394
 1547              		.loc 10 182 15 is_stmt 0 view .LVU395
 1548 0232 B0EE480A 		vmov.f32	s0, s16
 1549 0236 5D48     		ldr	r0, .L86+88
 1550 0238 FFF7FEFF 		bl	_ZN7daisysp12LadderFilter4InitEf
 1551              	.LVL128:
 183:main.cpp      ****   VCF_pad.SetFreq(ft_pad);
 1552              		.loc 10 183 3 is_stmt 1 view .LVU396
 1553              		.loc 10 183 18 is_stmt 0 view .LVU397
 1554 023c 5C4B     		ldr	r3, .L86+92
 1555 023e 5B48     		ldr	r0, .L86+88
 1556 0240 93ED000A 		vldr.32	s0, [r3]
 1557 0244 FFF7FEFF 		bl	_ZN7daisysp12LadderFilter7SetFreqEf
 1558              	.LVL129:
 184:main.cpp      ****   VCF_pad.SetRes(res_pad);
 1559              		.loc 10 184 3 is_stmt 1 view .LVU398
 1560              		.loc 10 184 17 is_stmt 0 view .LVU399
 1561 0248 5A4B     		ldr	r3, .L86+96
 1562 024a 5848     		ldr	r0, .L86+88
 1563 024c 93ED000A 		vldr.32	s0, [r3]
 1564 0250 FFF7FEFF 		bl	_ZN7daisysp12LadderFilter6SetResEf
 1565              	.LVL130:
 185:main.cpp      **** 
ARM GAS  C:\Users\skipi\AppData\Local\Temp\ccHKWaHh.s 			page 53


 186:main.cpp      ****   //-----------------------------------------------------------BASS
 187:main.cpp      ****   // OSC
 188:main.cpp      ****   bass.Init(sample_rate);
 1566              		.loc 10 188 3 is_stmt 1 view .LVU400
 1567              		.loc 10 188 12 is_stmt 0 view .LVU401
 1568 0254 B0EE480A 		vmov.f32	s0, s16
 1569 0258 5748     		ldr	r0, .L86+100
 1570 025a FFF7FEFF 		bl	_ZN4Ramo4InitEf
 1571              	.LVL131:
 189:main.cpp      ****   bass.SetWaveforms(wf_bass);
 1572              		.loc 10 189 3 is_stmt 1 view .LVU402
 1573              		.loc 10 189 20 is_stmt 0 view .LVU403
 1574 025e 5749     		ldr	r1, .L86+104
 1575 0260 5548     		ldr	r0, .L86+100
 1576 0262 FFF7FEFF 		bl	_ZN4Ramo12SetWaveformsEPh
 1577              	.LVL132:
 190:main.cpp      ****   bass.SetFreq(f_bass);
 1578              		.loc 10 190 3 is_stmt 1 view .LVU404
 1579              		.loc 10 190 15 is_stmt 0 view .LVU405
 1580 0266 564B     		ldr	r3, .L86+108
 1581 0268 5348     		ldr	r0, .L86+100
 1582 026a 93ED000A 		vldr.32	s0, [r3]
 1583 026e FFF7FEFF 		bl	_ZN4Ramo7SetFreqEf
 1584              	.LVL133:
 191:main.cpp      ****   bass.SetAmp(mix_amp_bass);
 1585              		.loc 10 191 3 is_stmt 1 view .LVU406
 1586              		.loc 10 191 14 is_stmt 0 view .LVU407
 1587 0272 5449     		ldr	r1, .L86+112
 1588 0274 5048     		ldr	r0, .L86+100
 1589 0276 FFF7FEFF 		bl	_ZN4Ramo6SetAmpEPf
 1590              	.LVL134:
 192:main.cpp      ****   bass.SetDetune(0);         // No detune for bass
 1591              		.loc 10 192 3 is_stmt 1 view .LVU408
 1592              		.loc 10 192 17 is_stmt 0 view .LVU409
 1593 027a 0021     		movs	r1, #0
 1594 027c 4E48     		ldr	r0, .L86+100
 1595 027e FFF7FEFF 		bl	_ZN4Ramo9SetDetuneEPf
 1596              	.LVL135:
 193:main.cpp      ****   bass.SetGain(1.0f);        // Set gain to 1.0 for
 1597              		.loc 10 193 3 is_stmt 1 view .LVU410
 1598              		.loc 10 193 15 is_stmt 0 view .LVU411
 1599 0282 B7EE000A 		vmov.f32	s0, #1.0e+0
 1600 0286 4C48     		ldr	r0, .L86+100
 1601 0288 FFF7FEFF 		bl	_ZN4Ramo7SetGainEf
 1602              	.LVL136:
 194:main.cpp      ****   bass.SetShape(shape_bass); // Set shape modulation for bass
 1603              		.loc 10 194 3 is_stmt 1 view .LVU412
 1604              		.loc 10 194 16 is_stmt 0 view .LVU413
 1605 028c 4E4B     		ldr	r3, .L86+116
 195:main.cpp      **** 
 196:main.cpp      ****   // amp_envelope
 197:main.cpp      ****   amp_eg_bass.Init(sample_rate);
 198:main.cpp      ****   amp_eg_bass.SetTime(ADSR_SEG_ATTACK, bass_Amp_ADSR[0]);
 1606              		.loc 10 198 22 view .LVU414
 1607 028e 4F4D     		ldr	r5, .L86+120
 194:main.cpp      ****   bass.SetShape(shape_bass); // Set shape modulation for bass
 1608              		.loc 10 194 16 view .LVU415
ARM GAS  C:\Users\skipi\AppData\Local\Temp\ccHKWaHh.s 			page 54


 1609 0290 93ED000A 		vldr.32	s0, [r3]
 1610 0294 4848     		ldr	r0, .L86+100
 1611 0296 FFF7FEFF 		bl	_ZN4Ramo8SetShapeEf
 1612              	.LVL137:
 197:main.cpp      ****   amp_eg_bass.SetTime(ADSR_SEG_ATTACK, bass_Amp_ADSR[0]);
 1613              		.loc 10 197 3 is_stmt 1 view .LVU416
 197:main.cpp      ****   amp_eg_bass.SetTime(ADSR_SEG_ATTACK, bass_Amp_ADSR[0]);
 1614              		.loc 10 197 19 is_stmt 0 view .LVU417
 1615 029a B0EE480A 		vmov.f32	s0, s16
 1616 029e 0121     		movs	r1, #1
 1617 02a0 4B48     		ldr	r0, .L86+124
 1618 02a2 FFF7FEFF 		bl	_ZN7daisysp4Adsr4InitEfi
 1619              	.LVL138:
 1620              		.loc 10 198 3 is_stmt 1 view .LVU418
 1621              		.loc 10 198 22 is_stmt 0 view .LVU419
 1622 02a6 95ED000A 		vldr.32	s0, [r5]
 1623 02aa 0121     		movs	r1, #1
 1624 02ac 4848     		ldr	r0, .L86+124
 1625 02ae FFF7FEFF 		bl	_ZN7daisysp4Adsr7SetTimeEif
 1626              	.LVL139:
 199:main.cpp      ****   amp_eg_bass.SetTime(ADSR_SEG_DECAY, bass_Amp_ADSR[1]);
 1627              		.loc 10 199 3 is_stmt 1 view .LVU420
 1628              		.loc 10 199 22 is_stmt 0 view .LVU421
 1629 02b2 95ED010A 		vldr.32	s0, [r5, #4]
 1630 02b6 0221     		movs	r1, #2
 1631 02b8 4548     		ldr	r0, .L86+124
 1632 02ba FFF7FEFF 		bl	_ZN7daisysp4Adsr7SetTimeEif
 1633              	.LVL140:
 200:main.cpp      ****   amp_eg_bass.SetSustainLevel(bass_Amp_ADSR[2]);
 1634              		.loc 10 200 3 is_stmt 1 view .LVU422
 1635              		.loc 10 200 30 is_stmt 0 view .LVU423
 1636 02be D5ED027A 		vldr.32	s15, [r5, #8]
 1637              	.LVL141:
 1638              	.LBB775:
 1639              	.LBI775:
  74:../../libs/DaisySP/Source/Control/adsr.h ****     {
 1640              		.loc 7 74 17 is_stmt 1 view .LVU424
 1641              	.LBB776:
  76:../../libs/DaisySP/Source/Control/adsr.h ****                                        : (sus_level > 1.f) ? 1.f : sus_level;
 1642              		.loc 7 76 9 view .LVU425
  76:../../libs/DaisySP/Source/Control/adsr.h ****                                        : (sus_level > 1.f) ? 1.f : sus_level;
 1643              		.loc 7 76 40 is_stmt 0 view .LVU426
 1644 02c2 F5EEC07A 		vcmpe.f32	s15, #0
 1645 02c6 F1EE10FA 		vmrs	APSR_nzcv, FPSCR
 1646 02ca 40F25384 		bls	.L58
  77:../../libs/DaisySP/Source/Control/adsr.h ****         sus_level_ = sus_level;
 1647              		.loc 7 77 60 view .LVU427
 1648 02ce B7EE007A 		vmov.f32	s14, #1.0e+0
 1649 02d2 F4EE477A 		vcmp.f32	s15, s14
 1650 02d6 F1EE10FA 		vmrs	APSR_nzcv, FPSCR
 1651 02da 77FE277A 		vselgt.f32	s15, s14, s15
 1652              	.LVL142:
 1653              	.L35:
 1654              		.loc 7 78 9 is_stmt 1 view .LVU428
 1655              		.loc 7 78 20 is_stmt 0 view .LVU429
 1656 02de 3C48     		ldr	r0, .L86+124
 1657              	.LBE776:
ARM GAS  C:\Users\skipi\AppData\Local\Temp\ccHKWaHh.s 			page 55


 1658              	.LBE775:
 201:main.cpp      ****   amp_eg_bass.SetTime(ADSR_SEG_RELEASE, bass_Amp_ADSR[3]);
 1659              		.loc 10 201 22 view .LVU430
 1660 02e0 0421     		movs	r1, #4
 202:main.cpp      **** 
 203:main.cpp      ****   // filter_envelope
 204:main.cpp      ****   filt_eg_bass.Init(sample_rate);
 205:main.cpp      ****   filt_eg_bass.SetTime(ADSR_SEG_ATTACK, bass_Filter_ADSR[0]);
 1661              		.loc 10 205 23 view .LVU431
 1662 02e2 3C4C     		ldr	r4, .L86+128
 201:main.cpp      ****   amp_eg_bass.SetTime(ADSR_SEG_RELEASE, bass_Amp_ADSR[3]);
 1663              		.loc 10 201 22 view .LVU432
 1664 02e4 95ED030A 		vldr.32	s0, [r5, #12]
 1665              	.LBB779:
 1666              	.LBB777:
 1667              		.loc 7 78 20 view .LVU433
 1668 02e8 C0ED007A 		vstr.32	s15, [r0]
 1669              	.LVL143:
 1670              		.loc 7 78 20 view .LVU434
 1671              	.LBE777:
 1672              	.LBE779:
 201:main.cpp      ****   amp_eg_bass.SetTime(ADSR_SEG_RELEASE, bass_Amp_ADSR[3]);
 1673              		.loc 10 201 3 is_stmt 1 view .LVU435
 201:main.cpp      ****   amp_eg_bass.SetTime(ADSR_SEG_RELEASE, bass_Amp_ADSR[3]);
 1674              		.loc 10 201 22 is_stmt 0 view .LVU436
 1675 02ec FFF7FEFF 		bl	_ZN7daisysp4Adsr7SetTimeEif
 1676              	.LVL144:
 204:main.cpp      ****   filt_eg_bass.SetTime(ADSR_SEG_ATTACK, bass_Filter_ADSR[0]);
 1677              		.loc 10 204 3 is_stmt 1 view .LVU437
 204:main.cpp      ****   filt_eg_bass.SetTime(ADSR_SEG_ATTACK, bass_Filter_ADSR[0]);
 1678              		.loc 10 204 20 is_stmt 0 view .LVU438
 1679 02f0 B0EE480A 		vmov.f32	s0, s16
 1680 02f4 0121     		movs	r1, #1
 1681 02f6 3848     		ldr	r0, .L86+132
 1682 02f8 FFF7FEFF 		bl	_ZN7daisysp4Adsr4InitEfi
 1683              	.LVL145:
 1684              		.loc 10 205 3 is_stmt 1 view .LVU439
 1685              		.loc 10 205 23 is_stmt 0 view .LVU440
 1686 02fc 94ED000A 		vldr.32	s0, [r4]
 1687 0300 0121     		movs	r1, #1
 1688 0302 3548     		ldr	r0, .L86+132
 1689 0304 FFF7FEFF 		bl	_ZN7daisysp4Adsr7SetTimeEif
 1690              	.LVL146:
 206:main.cpp      ****   filt_eg_bass.SetTime(ADSR_SEG_DECAY, bass_Filter_ADSR[1]);
 1691              		.loc 10 206 3 is_stmt 1 view .LVU441
 1692              		.loc 10 206 23 is_stmt 0 view .LVU442
 1693 0308 94ED010A 		vldr.32	s0, [r4, #4]
 1694 030c 0221     		movs	r1, #2
 1695 030e 3248     		ldr	r0, .L86+132
 1696 0310 FFF7FEFF 		bl	_ZN7daisysp4Adsr7SetTimeEif
 1697              	.LVL147:
 207:main.cpp      ****   filt_eg_bass.SetSustainLevel(bass_Filter_ADSR[2]);
 1698              		.loc 10 207 3 is_stmt 1 view .LVU443
 1699              		.loc 10 207 31 is_stmt 0 view .LVU444
 1700 0314 D4ED027A 		vldr.32	s15, [r4, #8]
 1701              	.LVL148:
 1702              	.LBB780:
ARM GAS  C:\Users\skipi\AppData\Local\Temp\ccHKWaHh.s 			page 56


 1703              	.LBI780:
  74:../../libs/DaisySP/Source/Control/adsr.h ****     {
 1704              		.loc 7 74 17 is_stmt 1 view .LVU445
 1705              	.LBB781:
  76:../../libs/DaisySP/Source/Control/adsr.h ****                                        : (sus_level > 1.f) ? 1.f : sus_level;
 1706              		.loc 7 76 9 view .LVU446
  76:../../libs/DaisySP/Source/Control/adsr.h ****                                        : (sus_level > 1.f) ? 1.f : sus_level;
 1707              		.loc 7 76 40 is_stmt 0 view .LVU447
 1708 0318 F5EEC07A 		vcmpe.f32	s15, #0
 1709 031c F1EE10FA 		vmrs	APSR_nzcv, FPSCR
 1710 0320 40F22484 		bls	.L60
  77:../../libs/DaisySP/Source/Control/adsr.h ****         sus_level_ = sus_level;
 1711              		.loc 7 77 60 view .LVU448
 1712 0324 B7EE007A 		vmov.f32	s14, #1.0e+0
 1713 0328 F4EE477A 		vcmp.f32	s15, s14
 1714 032c F1EE10FA 		vmrs	APSR_nzcv, FPSCR
 1715 0330 77FE277A 		vselgt.f32	s15, s14, s15
 1716              	.LVL149:
 1717              	.L36:
 1718              		.loc 7 78 9 is_stmt 1 view .LVU449
 1719              		.loc 7 78 20 is_stmt 0 view .LVU450
 1720 0334 2848     		ldr	r0, .L86+132
 1721              	.LBE781:
 1722              	.LBE780:
 208:main.cpp      ****   filt_eg_bass.SetTime(ADSR_SEG_RELEASE, bass_Filter_ADSR[3]);
 1723              		.loc 10 208 23 view .LVU451
 1724 0336 0421     		movs	r1, #4
 1725 0338 94ED030A 		vldr.32	s0, [r4, #12]
 1726              	.LBB784:
 1727              	.LBB785:
  63:../../libs/DaisySP/Source/Synthesis/oscillator.h **** 
  64:../../libs/DaisySP/Source/Synthesis/oscillator.h **** 
  65:../../libs/DaisySP/Source/Synthesis/oscillator.h ****     /** Changes the frequency of the Oscillator, and recalculates phase increment.
  66:../../libs/DaisySP/Source/Synthesis/oscillator.h ****     */
  67:../../libs/DaisySP/Source/Synthesis/oscillator.h ****     inline void SetFreq(const float f)
  68:../../libs/DaisySP/Source/Synthesis/oscillator.h ****     {
  69:../../libs/DaisySP/Source/Synthesis/oscillator.h ****         freq_      = f;
  70:../../libs/DaisySP/Source/Synthesis/oscillator.h ****         phase_inc_ = CalcPhaseInc(f);
  71:../../libs/DaisySP/Source/Synthesis/oscillator.h ****     }
  72:../../libs/DaisySP/Source/Synthesis/oscillator.h **** 
  73:../../libs/DaisySP/Source/Synthesis/oscillator.h **** 
  74:../../libs/DaisySP/Source/Synthesis/oscillator.h ****     /** Sets the amplitude of the waveform.
  75:../../libs/DaisySP/Source/Synthesis/oscillator.h ****     */
  76:../../libs/DaisySP/Source/Synthesis/oscillator.h ****     inline void SetAmp(const float a) { amp_ = a; }
  77:../../libs/DaisySP/Source/Synthesis/oscillator.h ****     /** Sets the waveform to be synthesized by the Process() function.
  78:../../libs/DaisySP/Source/Synthesis/oscillator.h ****     */
  79:../../libs/DaisySP/Source/Synthesis/oscillator.h ****     inline void SetWaveform(const uint8_t wf)
  80:../../libs/DaisySP/Source/Synthesis/oscillator.h ****     {
  81:../../libs/DaisySP/Source/Synthesis/oscillator.h ****         waveform_ = wf < WAVE_LAST ? wf : WAVE_SIN;
 1728              		.loc 8 81 19 view .LVU452
 1729 033c 4FF00009 		mov	r9, #0
 1730              	.LBE785:
 1731              	.LBE784:
 1732              	.LBB788:
 1733              	.LBB782:
 1734              		.loc 7 78 20 view .LVU453
 1735 0340 C0ED007A 		vstr.32	s15, [r0]
ARM GAS  C:\Users\skipi\AppData\Local\Temp\ccHKWaHh.s 			page 57


 1736              	.LVL150:
 1737              		.loc 7 78 20 view .LVU454
 1738              	.LBE782:
 1739              	.LBE788:
 1740              		.loc 10 208 3 is_stmt 1 view .LVU455
 1741              		.loc 10 208 23 is_stmt 0 view .LVU456
 1742 0344 FFF7FEFF 		bl	_ZN7daisysp4Adsr7SetTimeEif
 1743              	.LVL151:
 209:main.cpp      **** 
 210:main.cpp      ****   // VCF
 211:main.cpp      ****   VCF_bass.Init(sample_rate);
 1744              		.loc 10 211 3 is_stmt 1 view .LVU457
 1745              		.loc 10 211 16 is_stmt 0 view .LVU458
 1746 0348 B0EE480A 		vmov.f32	s0, s16
 1747 034c 2348     		ldr	r0, .L86+136
 1748 034e FFF7FEFF 		bl	_ZN7daisysp12LadderFilter4InitEf
 1749              	.LVL152:
 1750 0352 45E0     		b	.L87
 1751              	.L88:
 1752              		.align	2
 1753              	.L86:
 1754 0354 00000000 		.word	.LANCHOR38
 1755 0358 00000000 		.word	.LANCHOR42
 1756 035c 00000000 		.word	.LANCHOR6
 1757 0360 00000000 		.word	.LANCHOR39
 1758 0364 00000000 		.word	.LANCHOR40
 1759 0368 00000000 		.word	.LANCHOR41
 1760 036c 00000000 		.word	.LANCHOR1
 1761 0370 00000000 		.word	.LANCHOR13
 1762 0374 00000000 		.word	.LANCHOR43
 1763 0378 00000000 		.word	.LANCHOR18
 1764 037c 00000000 		.word	.LANCHOR23
 1765 0380 00000000 		.word	.LANCHOR22
 1766 0384 00000000 		.word	.LANCHOR44
 1767 0388 00000000 		.word	.LANCHOR8
 1768 038c 00000000 		.word	.LANCHOR45
 1769 0390 00000000 		.word	.LANCHOR46
 1770 0394 00000000 		.word	.LANCHOR47
 1771 0398 00000000 		.word	.LANCHOR5
 1772 039c 00000000 		.word	.LANCHOR48
 1773 03a0 00000000 		.word	.LANCHOR15
 1774 03a4 00000000 		.word	.LANCHOR49
 1775 03a8 00000000 		.word	.LANCHOR19
 1776 03ac 00000000 		.word	.LANCHOR26
 1777 03b0 00000000 		.word	.LANCHOR25
 1778 03b4 00000000 		.word	.LANCHOR50
 1779 03b8 00000000 		.word	.LANCHOR7
 1780 03bc 00000000 		.word	.LANCHOR51
 1781 03c0 00000000 		.word	.LANCHOR52
 1782 03c4 00000000 		.word	.LANCHOR53
 1783 03c8 00000000 		.word	.LANCHOR3
 1784 03cc 00000000 		.word	.LANCHOR54
 1785 03d0 00000000 		.word	.LANCHOR17
 1786 03d4 00000000 		.word	.LANCHOR55
 1787 03d8 00000000 		.word	.LANCHOR20
 1788 03dc 00000000 		.word	.LANCHOR29
 1789              	.L87:
ARM GAS  C:\Users\skipi\AppData\Local\Temp\ccHKWaHh.s 			page 58


 212:main.cpp      ****   VCF_bass.SetFreq(ft_bass);
 1790              		.loc 10 212 3 is_stmt 1 view .LVU459
 1791              		.loc 10 212 19 is_stmt 0 view .LVU460
 1792 03e0 CB4B     		ldr	r3, .L89
 1793 03e2 CC48     		ldr	r0, .L89+4
 1794 03e4 0DF1180A 		add	r10, sp, #24
 1795 03e8 93ED000A 		vldr.32	s0, [r3]
 1796 03ec FFF7FEFF 		bl	_ZN7daisysp12LadderFilter7SetFreqEf
 1797              	.LVL153:
 213:main.cpp      ****   VCF_bass.SetRes(res_bass);
 1798              		.loc 10 213 3 is_stmt 1 view .LVU461
 1799              		.loc 10 213 18 is_stmt 0 view .LVU462
 1800 03f0 C94B     		ldr	r3, .L89+8
 214:main.cpp      ****   //-----------------------------------------------------------LFOs
 215:main.cpp      ****   lfo1.Init(sample_rate);
 1801              		.loc 10 215 12 view .LVU463
 1802 03f2 CA4C     		ldr	r4, .L89+12
 213:main.cpp      ****   VCF_bass.SetRes(res_bass);
 1803              		.loc 10 213 18 view .LVU464
 1804 03f4 93ED000A 		vldr.32	s0, [r3]
 1805 03f8 C648     		ldr	r0, .L89+4
 1806 03fa FFF7FEFF 		bl	_ZN7daisysp12LadderFilter6SetResEf
 1807              	.LVL154:
 1808              		.loc 10 215 3 is_stmt 1 view .LVU465
 1809              		.loc 10 215 12 is_stmt 0 view .LVU466
 1810 03fe 2046     		mov	r0, r4
 1811 0400 B0EE480A 		vmov.f32	s0, s16
 216:main.cpp      ****   lfo1.SetFreq(lfo1_freq);                // Set LFO frequency for pluck
 217:main.cpp      ****   lfo1.SetAmp(lfo1_amp);                  // Set LFO amplitude for pluck
 218:main.cpp      ****   lfo1.SetWaveform(Oscillator::WAVE_SIN); // Set LFO waveform for pluck
 219:main.cpp      ****   lfo1.PhaseAdd(lfo1_phase);              // Set initial phase for LFO pluck
 220:main.cpp      **** 
 221:main.cpp      ****   lfo2.Init(sample_rate);
 1812              		.loc 10 221 12 view .LVU467
 1813 0404 C64D     		ldr	r5, .L89+16
 215:main.cpp      ****   lfo1.SetFreq(lfo1_freq);                // Set LFO frequency for pluck
 1814              		.loc 10 215 12 view .LVU468
 1815 0406 FFF7FEFF 		bl	_ZN7daisysp10Oscillator4InitEf
 1816              	.LVL155:
 216:main.cpp      ****   lfo1.SetFreq(lfo1_freq);                // Set LFO frequency for pluck
 1817              		.loc 10 216 3 is_stmt 1 view .LVU469
 216:main.cpp      ****   lfo1.SetFreq(lfo1_freq);                // Set LFO frequency for pluck
 1818              		.loc 10 216 15 is_stmt 0 view .LVU470
 1819 040a C64B     		ldr	r3, .L89+20
 1820              	.LBB789:
 1821              	.LBB790:
  70:../../libs/DaisySP/Source/Synthesis/oscillator.h ****     }
 1822              		.loc 8 70 34 view .LVU471
 1823 040c 2046     		mov	r0, r4
 1824 040e C64F     		ldr	r7, .L89+24
 1825              	.LBE790:
 1826              	.LBE789:
 216:main.cpp      ****   lfo1.SetFreq(lfo1_freq);                // Set LFO frequency for pluck
 1827              		.loc 10 216 15 view .LVU472
 1828 0410 93ED000A 		vldr.32	s0, [r3]
 1829              	.LVL156:
 1830              	.LBB794:
ARM GAS  C:\Users\skipi\AppData\Local\Temp\ccHKWaHh.s 			page 59


 1831              	.LBI789:
  67:../../libs/DaisySP/Source/Synthesis/oscillator.h ****     {
 1832              		.loc 8 67 17 is_stmt 1 view .LVU473
 1833              	.LBB791:
  69:../../libs/DaisySP/Source/Synthesis/oscillator.h ****         phase_inc_ = CalcPhaseInc(f);
 1834              		.loc 8 69 9 view .LVU474
  69:../../libs/DaisySP/Source/Synthesis/oscillator.h ****         phase_inc_ = CalcPhaseInc(f);
 1835              		.loc 8 69 20 is_stmt 0 view .LVU475
 1836 0414 84ED020A 		vstr.32	s0, [r4, #8]
  70:../../libs/DaisySP/Source/Synthesis/oscillator.h ****     }
 1837              		.loc 8 70 9 is_stmt 1 view .LVU476
  70:../../libs/DaisySP/Source/Synthesis/oscillator.h ****     }
 1838              		.loc 8 70 34 is_stmt 0 view .LVU477
 1839 0418 FFF7FEFF 		bl	_ZN7daisysp10Oscillator12CalcPhaseIncEf
 1840              	.LVL157:
  70:../../libs/DaisySP/Source/Synthesis/oscillator.h ****     }
 1841              		.loc 8 70 34 view .LVU478
 1842              	.LBE791:
 1843              	.LBE794:
 217:main.cpp      ****   lfo1.SetWaveform(Oscillator::WAVE_SIN); // Set LFO waveform for pluck
 1844              		.loc 10 217 14 view .LVU479
 1845 041c C34B     		ldr	r3, .L89+28
 1846              	.LBB795:
 1847              	.LBB792:
  70:../../libs/DaisySP/Source/Synthesis/oscillator.h ****     }
 1848              		.loc 8 70 34 view .LVU480
 1849 041e F0EE407A 		vmov.f32	s15, s0
 1850              	.LBE792:
 1851              	.LBE795:
 1852              	.LBB796:
 1853              	.LBB797:
  82:../../libs/DaisySP/Source/Synthesis/oscillator.h ****     }
  83:../../libs/DaisySP/Source/Synthesis/oscillator.h ****     /** Sets the pulse width for WAVE_SQUARE and WAVE_POLYBLEP_SQUARE (range 0 - 1)
  84:../../libs/DaisySP/Source/Synthesis/oscillator.h ****      */
  85:../../libs/DaisySP/Source/Synthesis/oscillator.h ****     inline void SetPw(const float pw) { pw_ = fclamp(pw, 0.0f, 1.0f); }
  86:../../libs/DaisySP/Source/Synthesis/oscillator.h **** 
  87:../../libs/DaisySP/Source/Synthesis/oscillator.h ****     /** Returns true if cycle is at end of rise. Set during call to Process.
  88:../../libs/DaisySP/Source/Synthesis/oscillator.h ****     */
  89:../../libs/DaisySP/Source/Synthesis/oscillator.h ****     inline bool IsEOR() { return eor_; }
  90:../../libs/DaisySP/Source/Synthesis/oscillator.h **** 
  91:../../libs/DaisySP/Source/Synthesis/oscillator.h ****     /** Returns true if cycle is at end of cycle. Set during call to Process.
  92:../../libs/DaisySP/Source/Synthesis/oscillator.h ****     */
  93:../../libs/DaisySP/Source/Synthesis/oscillator.h ****     inline bool IsEOC() { return eoc_; }
  94:../../libs/DaisySP/Source/Synthesis/oscillator.h **** 
  95:../../libs/DaisySP/Source/Synthesis/oscillator.h ****     /** Returns true if cycle rising.
  96:../../libs/DaisySP/Source/Synthesis/oscillator.h ****     */
  97:../../libs/DaisySP/Source/Synthesis/oscillator.h ****     inline bool IsRising() { return phase_ < 0.5f; }
  98:../../libs/DaisySP/Source/Synthesis/oscillator.h **** 
  99:../../libs/DaisySP/Source/Synthesis/oscillator.h ****     /** Returns true if cycle falling.
 100:../../libs/DaisySP/Source/Synthesis/oscillator.h ****     */
 101:../../libs/DaisySP/Source/Synthesis/oscillator.h ****     inline bool IsFalling() { return phase_ >= 0.5f; }
 102:../../libs/DaisySP/Source/Synthesis/oscillator.h **** 
 103:../../libs/DaisySP/Source/Synthesis/oscillator.h ****     /** Processes the waveform to be generated, returning one sample. This should be called once pe
 104:../../libs/DaisySP/Source/Synthesis/oscillator.h ****     */
 105:../../libs/DaisySP/Source/Synthesis/oscillator.h ****     float Process();
 106:../../libs/DaisySP/Source/Synthesis/oscillator.h **** 
 107:../../libs/DaisySP/Source/Synthesis/oscillator.h **** 
ARM GAS  C:\Users\skipi\AppData\Local\Temp\ccHKWaHh.s 			page 60


 108:../../libs/DaisySP/Source/Synthesis/oscillator.h ****     /** Adds a value 0.0-1.0 (equivalent to 0.0-TWO_PI) to the current phase. Useful for PM and "FM
 109:../../libs/DaisySP/Source/Synthesis/oscillator.h ****     */
 110:../../libs/DaisySP/Source/Synthesis/oscillator.h ****     void PhaseAdd(float _phase) { phase_ += _phase; }
 1854              		.loc 8 110 42 view .LVU481
 1855 0422 94ED067A 		vldr.32	s14, [r4, #24]
 1856              	.LBE797:
 1857              	.LBE796:
 1858              		.loc 10 221 12 view .LVU482
 1859 0426 2846     		mov	r0, r5
 1860              	.LBB800:
 1861              	.LBB801:
  76:../../libs/DaisySP/Source/Synthesis/oscillator.h ****     /** Sets the waveform to be synthesized by the Process() function.
 1862              		.loc 8 76 46 view .LVU483
 1863 0428 1B68     		ldr	r3, [r3]	@ float
 1864              	.LBE801:
 1865              	.LBE800:
 1866              		.loc 10 221 12 view .LVU484
 1867 042a B0EE480A 		vmov.f32	s0, s16
 1868              	.LBB803:
 1869              	.LBB793:
  70:../../libs/DaisySP/Source/Synthesis/oscillator.h ****     }
 1870              		.loc 8 70 20 view .LVU485
 1871 042e C4ED077A 		vstr.32	s15, [r4, #28]
 1872              	.LVL158:
  70:../../libs/DaisySP/Source/Synthesis/oscillator.h ****     }
 1873              		.loc 8 70 20 view .LVU486
 1874              	.LBE793:
 1875              	.LBE803:
 217:main.cpp      ****   lfo1.SetWaveform(Oscillator::WAVE_SIN); // Set LFO waveform for pluck
 1876              		.loc 10 217 3 is_stmt 1 view .LVU487
 1877              	.LBB804:
 1878              	.LBI800:
  76:../../libs/DaisySP/Source/Synthesis/oscillator.h ****     /** Sets the waveform to be synthesized by the Process() function.
 1879              		.loc 8 76 17 view .LVU488
 1880              	.LBB802:
  76:../../libs/DaisySP/Source/Synthesis/oscillator.h ****     /** Sets the waveform to be synthesized by the Process() function.
 1881              		.loc 8 76 41 view .LVU489
  76:../../libs/DaisySP/Source/Synthesis/oscillator.h ****     /** Sets the waveform to be synthesized by the Process() function.
 1882              		.loc 8 76 46 is_stmt 0 view .LVU490
 1883 0432 6360     		str	r3, [r4, #4]	@ float
 1884              	.LVL159:
  76:../../libs/DaisySP/Source/Synthesis/oscillator.h ****     /** Sets the waveform to be synthesized by the Process() function.
 1885              		.loc 8 76 46 view .LVU491
 1886              	.LBE802:
 1887              	.LBE804:
 218:main.cpp      ****   lfo1.PhaseAdd(lfo1_phase);              // Set initial phase for LFO pluck
 1888              		.loc 10 218 3 is_stmt 1 view .LVU492
 1889              	.LBB805:
 1890              	.LBI784:
  79:../../libs/DaisySP/Source/Synthesis/oscillator.h ****     {
 1891              		.loc 8 79 17 view .LVU493
 1892              	.LBB786:
  81:../../libs/DaisySP/Source/Synthesis/oscillator.h ****     }
 1893              		.loc 8 81 9 view .LVU494
  81:../../libs/DaisySP/Source/Synthesis/oscillator.h ****     }
 1894              		.loc 8 81 9 is_stmt 0 view .LVU495
 1895              	.LBE786:
ARM GAS  C:\Users\skipi\AppData\Local\Temp\ccHKWaHh.s 			page 61


 1896              	.LBE805:
 219:main.cpp      **** 
 1897              		.loc 10 219 3 is_stmt 1 view .LVU496
 1898              	.LBB806:
 1899              	.LBI796:
 1900              		.loc 8 110 10 view .LVU497
 1901              	.LBB798:
 1902              		.loc 8 110 35 view .LVU498
 1903              	.LBE798:
 1904              	.LBE806:
 219:main.cpp      **** 
 1905              		.loc 10 219 16 is_stmt 0 view .LVU499
 1906 0434 BE4B     		ldr	r3, .L89+32
 1907              	.LBB807:
 1908              	.LBB787:
  81:../../libs/DaisySP/Source/Synthesis/oscillator.h ****     }
 1909              		.loc 8 81 19 view .LVU500
 1910 0436 84F80090 		strb	r9, [r4]
 1911              	.LBE787:
 1912              	.LBE807:
 1913              	.LBB808:
 1914              	.LBB799:
 1915              		.loc 8 110 42 view .LVU501
 1916 043a D3ED007A 		vldr.32	s15, [r3]
 1917 043e 77EE877A 		vadd.f32	s15, s15, s14
 1918 0442 C4ED067A 		vstr.32	s15, [r4, #24]
 1919              	.LVL160:
 1920              		.loc 8 110 42 view .LVU502
 1921              	.LBE799:
 1922              	.LBE808:
 1923              		.loc 10 221 3 is_stmt 1 view .LVU503
 1924              		.loc 10 221 12 is_stmt 0 view .LVU504
 1925 0446 FFF7FEFF 		bl	_ZN7daisysp10Oscillator4InitEf
 1926              	.LVL161:
 222:main.cpp      ****   lfo2.SetFreq(lfo2_freq);                // Set LFO frequency for pad
 1927              		.loc 10 222 3 is_stmt 1 view .LVU505
 1928              		.loc 10 222 15 is_stmt 0 view .LVU506
 1929 044a BA4B     		ldr	r3, .L89+36
 1930              	.LBB809:
 1931              	.LBB810:
  70:../../libs/DaisySP/Source/Synthesis/oscillator.h ****     }
 1932              		.loc 8 70 34 view .LVU507
 1933 044c 2846     		mov	r0, r5
 1934              	.LBE810:
 1935              	.LBE809:
 223:main.cpp      ****   lfo2.SetAmp(lfo2_amp);                  // Set LFO amplitude for pad
 224:main.cpp      ****   lfo2.SetWaveform(Oscillator::WAVE_SIN); // Set LFO waveform for pad
 225:main.cpp      ****   lfo2.PhaseAdd(lfo2_phase);              // Set initial phase for LFO pad
 226:main.cpp      **** 
 227:main.cpp      ****   lfo3.Init(sample_rate);
 1936              		.loc 10 227 12 view .LVU508
 1937 044e BA4C     		ldr	r4, .L89+40
 222:main.cpp      ****   lfo2.SetAmp(lfo2_amp);                  // Set LFO amplitude for pad
 1938              		.loc 10 222 15 view .LVU509
 1939 0450 93ED000A 		vldr.32	s0, [r3]
 1940              	.LVL162:
 1941              	.LBB814:
ARM GAS  C:\Users\skipi\AppData\Local\Temp\ccHKWaHh.s 			page 62


 1942              	.LBI809:
  67:../../libs/DaisySP/Source/Synthesis/oscillator.h ****     {
 1943              		.loc 8 67 17 is_stmt 1 view .LVU510
 1944              	.LBB811:
  69:../../libs/DaisySP/Source/Synthesis/oscillator.h ****         phase_inc_ = CalcPhaseInc(f);
 1945              		.loc 8 69 9 view .LVU511
  69:../../libs/DaisySP/Source/Synthesis/oscillator.h ****         phase_inc_ = CalcPhaseInc(f);
 1946              		.loc 8 69 20 is_stmt 0 view .LVU512
 1947 0454 85ED020A 		vstr.32	s0, [r5, #8]
  70:../../libs/DaisySP/Source/Synthesis/oscillator.h ****     }
 1948              		.loc 8 70 9 is_stmt 1 view .LVU513
  70:../../libs/DaisySP/Source/Synthesis/oscillator.h ****     }
 1949              		.loc 8 70 34 is_stmt 0 view .LVU514
 1950 0458 FFF7FEFF 		bl	_ZN7daisysp10Oscillator12CalcPhaseIncEf
 1951              	.LVL163:
  70:../../libs/DaisySP/Source/Synthesis/oscillator.h ****     }
 1952              		.loc 8 70 34 view .LVU515
 1953              	.LBE811:
 1954              	.LBE814:
 225:main.cpp      **** 
 1955              		.loc 10 225 16 view .LVU516
 1956 045c B74A     		ldr	r2, .L89+44
 1957              	.LBB815:
 1958              	.LBB812:
  70:../../libs/DaisySP/Source/Synthesis/oscillator.h ****     }
 1959              		.loc 8 70 34 view .LVU517
 1960 045e B0EE407A 		vmov.f32	s14, s0
 1961              	.LBE812:
 1962              	.LBE815:
 1963              	.LBB816:
 1964              	.LBB817:
 1965              		.loc 8 110 42 view .LVU518
 1966 0462 D5ED066A 		vldr.32	s13, [r5, #24]
 1967              	.LBE817:
 1968              	.LBE816:
 1969              		.loc 10 227 12 view .LVU519
 1970 0466 2046     		mov	r0, r4
 1971              	.LBB821:
 1972              	.LBB818:
 1973              		.loc 8 110 42 view .LVU520
 1974 0468 D2ED007A 		vldr.32	s15, [r2]
 1975              	.LBE818:
 1976              	.LBE821:
 1977              		.loc 10 227 12 view .LVU521
 1978 046c B0EE480A 		vmov.f32	s0, s16
 223:main.cpp      ****   lfo2.SetWaveform(Oscillator::WAVE_SIN); // Set LFO waveform for pad
 1979              		.loc 10 223 14 view .LVU522
 1980 0470 B34B     		ldr	r3, .L89+48
 1981              	.LBB822:
 1982              	.LBB819:
 1983              		.loc 8 110 42 view .LVU523
 1984 0472 77EEA67A 		vadd.f32	s15, s15, s13
 1985              	.LBE819:
 1986              	.LBE822:
 1987              	.LBB823:
 1988              	.LBB813:
  70:../../libs/DaisySP/Source/Synthesis/oscillator.h ****     }
ARM GAS  C:\Users\skipi\AppData\Local\Temp\ccHKWaHh.s 			page 63


 1989              		.loc 8 70 20 view .LVU524
 1990 0476 85ED077A 		vstr.32	s14, [r5, #28]
 1991              	.LVL164:
  70:../../libs/DaisySP/Source/Synthesis/oscillator.h ****     }
 1992              		.loc 8 70 20 view .LVU525
 1993              	.LBE813:
 1994              	.LBE823:
 223:main.cpp      ****   lfo2.SetWaveform(Oscillator::WAVE_SIN); // Set LFO waveform for pad
 1995              		.loc 10 223 3 is_stmt 1 view .LVU526
 1996              	.LBB824:
 1997              	.LBI824:
  76:../../libs/DaisySP/Source/Synthesis/oscillator.h ****     /** Sets the waveform to be synthesized by the Process() function.
 1998              		.loc 8 76 17 view .LVU527
 1999              	.LBB825:
  76:../../libs/DaisySP/Source/Synthesis/oscillator.h ****     /** Sets the waveform to be synthesized by the Process() function.
 2000              		.loc 8 76 41 view .LVU528
  76:../../libs/DaisySP/Source/Synthesis/oscillator.h ****     /** Sets the waveform to be synthesized by the Process() function.
 2001              		.loc 8 76 41 is_stmt 0 view .LVU529
 2002              	.LBE825:
 2003              	.LBE824:
 224:main.cpp      ****   lfo2.PhaseAdd(lfo2_phase);              // Set initial phase for LFO pad
 2004              		.loc 10 224 3 is_stmt 1 view .LVU530
 2005              	.LBB828:
 2006              	.LBI828:
  79:../../libs/DaisySP/Source/Synthesis/oscillator.h ****     {
 2007              		.loc 8 79 17 view .LVU531
 2008              	.LBB829:
  81:../../libs/DaisySP/Source/Synthesis/oscillator.h ****     }
 2009              		.loc 8 81 9 view .LVU532
 2010              	.LBE829:
 2011              	.LBE828:
 2012              	.LBB831:
 2013              	.LBB826:
  76:../../libs/DaisySP/Source/Synthesis/oscillator.h ****     /** Sets the waveform to be synthesized by the Process() function.
 2014              		.loc 8 76 46 is_stmt 0 view .LVU533
 2015 047a 1B68     		ldr	r3, [r3]	@ float
 2016              	.LBE826:
 2017              	.LBE831:
 2018              	.LBB832:
 2019              	.LBB830:
  81:../../libs/DaisySP/Source/Synthesis/oscillator.h ****     }
 2020              		.loc 8 81 19 view .LVU534
 2021 047c 85F80090 		strb	r9, [r5]
 2022              	.LVL165:
  81:../../libs/DaisySP/Source/Synthesis/oscillator.h ****     }
 2023              		.loc 8 81 19 view .LVU535
 2024              	.LBE830:
 2025              	.LBE832:
 225:main.cpp      **** 
 2026              		.loc 10 225 3 is_stmt 1 view .LVU536
 2027              	.LBB833:
 2028              	.LBI816:
 2029              		.loc 8 110 10 view .LVU537
 2030              	.LBB820:
 2031              		.loc 8 110 35 view .LVU538
 2032              		.loc 8 110 42 is_stmt 0 view .LVU539
 2033 0480 C5ED067A 		vstr.32	s15, [r5, #24]
ARM GAS  C:\Users\skipi\AppData\Local\Temp\ccHKWaHh.s 			page 64


 2034              	.LVL166:
 2035              		.loc 8 110 42 view .LVU540
 2036              	.LBE820:
 2037              	.LBE833:
 2038              		.loc 10 227 3 is_stmt 1 view .LVU541
 2039              	.LBB834:
 2040              	.LBB827:
  76:../../libs/DaisySP/Source/Synthesis/oscillator.h ****     /** Sets the waveform to be synthesized by the Process() function.
 2041              		.loc 8 76 46 is_stmt 0 view .LVU542
 2042 0484 6B60     		str	r3, [r5, #4]	@ float
 2043              	.LBE827:
 2044              	.LBE834:
 2045              		.loc 10 227 12 view .LVU543
 2046 0486 FFF7FEFF 		bl	_ZN7daisysp10Oscillator4InitEf
 2047              	.LVL167:
 228:main.cpp      ****   lfo3.SetFreq(lfo3_freq);                // Set LFO frequency for bass
 2048              		.loc 10 228 3 is_stmt 1 view .LVU544
 2049              		.loc 10 228 15 is_stmt 0 view .LVU545
 2050 048a AE4B     		ldr	r3, .L89+52
 2051              	.LBB835:
 2052              	.LBB836:
  70:../../libs/DaisySP/Source/Synthesis/oscillator.h ****     }
 2053              		.loc 8 70 34 view .LVU546
 2054 048c 2046     		mov	r0, r4
 2055              	.LBE836:
 2056              	.LBE835:
 2057              	.LBB840:
 2058              	.LBB841:
 139:../../libs/libDaisy/src/dev/mpr121.h ****         WriteRegister(MPR121_MHDR, 0x01);
 2059              		.loc 9 139 22 view .LVU547
 2060 048e 4125     		movs	r5, #65
 2061              	.LBE841:
 2062              	.LBE840:
 2063              		.loc 10 228 15 view .LVU548
 2064 0490 93ED000A 		vldr.32	s0, [r3]
 2065              	.LVL168:
 2066              	.LBB1023:
 2067              	.LBI835:
  67:../../libs/DaisySP/Source/Synthesis/oscillator.h ****     {
 2068              		.loc 8 67 17 is_stmt 1 view .LVU549
 2069              	.LBB837:
  69:../../libs/DaisySP/Source/Synthesis/oscillator.h ****         phase_inc_ = CalcPhaseInc(f);
 2070              		.loc 8 69 9 view .LVU550
  69:../../libs/DaisySP/Source/Synthesis/oscillator.h ****         phase_inc_ = CalcPhaseInc(f);
 2071              		.loc 8 69 20 is_stmt 0 view .LVU551
 2072 0494 84ED020A 		vstr.32	s0, [r4, #8]
  70:../../libs/DaisySP/Source/Synthesis/oscillator.h ****     }
 2073              		.loc 8 70 9 is_stmt 1 view .LVU552
  70:../../libs/DaisySP/Source/Synthesis/oscillator.h ****     }
 2074              		.loc 8 70 34 is_stmt 0 view .LVU553
 2075 0498 FFF7FEFF 		bl	_ZN7daisysp10Oscillator12CalcPhaseIncEf
 2076              	.LVL169:
  70:../../libs/DaisySP/Source/Synthesis/oscillator.h ****     }
 2077              		.loc 8 70 34 view .LVU554
 2078              	.LBE837:
 2079              	.LBE1023:
 229:main.cpp      ****   lfo3.SetAmp(lfo3_amp);                  // Set LFO amplitude for bass
ARM GAS  C:\Users\skipi\AppData\Local\Temp\ccHKWaHh.s 			page 65


 230:main.cpp      ****   lfo3.SetWaveform(Oscillator::WAVE_SIN); // Set LFO waveform for bass
 231:main.cpp      ****   lfo3.PhaseAdd(lfo3_phase);              // Set initial phase for LFO bass
 2080              		.loc 10 231 16 view .LVU555
 2081 049c AA4A     		ldr	r2, .L89+56
 2082              	.LBB1024:
 2083              	.LBB838:
  70:../../libs/DaisySP/Source/Synthesis/oscillator.h ****     }
 2084              		.loc 8 70 34 view .LVU556
 2085 049e B0EE407A 		vmov.f32	s14, s0
 2086              	.LBE838:
 2087              	.LBE1024:
 2088              	.LBB1025:
 2089              	.LBB1026:
 2090              		.loc 8 110 42 view .LVU557
 2091 04a2 D4ED066A 		vldr.32	s13, [r4, #24]
 2092              	.LBE1026:
 2093              	.LBE1025:
 232:main.cpp      **** 
 233:main.cpp      ****   // DELAY
 234:main.cpp      ****   Delay.Init(sample_rate);
 2094              		.loc 10 234 13 view .LVU558
 2095 04a6 B0EE480A 		vmov.f32	s0, s16
 2096              	.LBB1031:
 2097              	.LBB1027:
 2098              		.loc 8 110 42 view .LVU559
 2099 04aa D2ED007A 		vldr.32	s15, [r2]
 2100              	.LBE1027:
 2101              	.LBE1031:
 229:main.cpp      ****   lfo3.SetAmp(lfo3_amp);                  // Set LFO amplitude for bass
 2102              		.loc 10 229 14 view .LVU560
 2103 04ae A74B     		ldr	r3, .L89+60
 2104              	.LBB1032:
 2105              	.LBB1028:
 2106              		.loc 8 110 42 view .LVU561
 2107 04b0 77EEA67A 		vadd.f32	s15, s15, s13
 2108              	.LBE1028:
 2109              	.LBE1032:
 2110              		.loc 10 234 13 view .LVU562
 2111 04b4 A648     		ldr	r0, .L89+64
 2112              	.LBB1033:
 2113              	.LBB1034:
  76:../../libs/DaisySP/Source/Synthesis/oscillator.h ****     /** Sets the waveform to be synthesized by the Process() function.
 2114              		.loc 8 76 46 view .LVU563
 2115 04b6 1B68     		ldr	r3, [r3]	@ float
 2116              	.LBE1034:
 2117              	.LBE1033:
 2118              	.LBB1037:
 2119              	.LBB839:
  70:../../libs/DaisySP/Source/Synthesis/oscillator.h ****     }
 2120              		.loc 8 70 20 view .LVU564
 2121 04b8 84ED077A 		vstr.32	s14, [r4, #28]
 2122              	.LVL170:
  70:../../libs/DaisySP/Source/Synthesis/oscillator.h ****     }
 2123              		.loc 8 70 20 view .LVU565
 2124              	.LBE839:
 2125              	.LBE1037:
 229:main.cpp      ****   lfo3.SetWaveform(Oscillator::WAVE_SIN); // Set LFO waveform for bass
ARM GAS  C:\Users\skipi\AppData\Local\Temp\ccHKWaHh.s 			page 66


 2126              		.loc 10 229 3 is_stmt 1 view .LVU566
 2127              	.LBB1038:
 2128              	.LBI1033:
  76:../../libs/DaisySP/Source/Synthesis/oscillator.h ****     /** Sets the waveform to be synthesized by the Process() function.
 2129              		.loc 8 76 17 view .LVU567
 2130              	.LBB1035:
  76:../../libs/DaisySP/Source/Synthesis/oscillator.h ****     /** Sets the waveform to be synthesized by the Process() function.
 2131              		.loc 8 76 41 view .LVU568
  76:../../libs/DaisySP/Source/Synthesis/oscillator.h ****     /** Sets the waveform to be synthesized by the Process() function.
 2132              		.loc 8 76 41 is_stmt 0 view .LVU569
 2133              	.LBE1035:
 2134              	.LBE1038:
 230:main.cpp      ****   lfo3.PhaseAdd(lfo3_phase);              // Set initial phase for LFO bass
 2135              		.loc 10 230 3 is_stmt 1 view .LVU570
 2136              	.LBB1039:
 2137              	.LBI1039:
  79:../../libs/DaisySP/Source/Synthesis/oscillator.h ****     {
 2138              		.loc 8 79 17 view .LVU571
 2139              	.LBB1040:
  81:../../libs/DaisySP/Source/Synthesis/oscillator.h ****     }
 2140              		.loc 8 81 9 view .LVU572
 2141              	.LBE1040:
 2142              	.LBE1039:
 2143              	.LBB1042:
 2144              	.LBB1029:
 2145              		.loc 8 110 42 is_stmt 0 view .LVU573
 2146 04bc C4ED067A 		vstr.32	s15, [r4, #24]
 2147              	.LBE1029:
 2148              	.LBE1042:
 2149              	.LBB1043:
 2150              	.LBB1036:
  76:../../libs/DaisySP/Source/Synthesis/oscillator.h ****     /** Sets the waveform to be synthesized by the Process() function.
 2151              		.loc 8 76 46 view .LVU574
 2152 04c0 6360     		str	r3, [r4, #4]	@ float
 2153              	.LBE1036:
 2154              	.LBE1043:
 2155              	.LBB1044:
 2156              	.LBB1041:
  81:../../libs/DaisySP/Source/Synthesis/oscillator.h ****     }
 2157              		.loc 8 81 19 view .LVU575
 2158 04c2 84F80090 		strb	r9, [r4]
 2159              	.LVL171:
  81:../../libs/DaisySP/Source/Synthesis/oscillator.h ****     }
 2160              		.loc 8 81 19 view .LVU576
 2161              	.LBE1041:
 2162              	.LBE1044:
 231:main.cpp      **** 
 2163              		.loc 10 231 3 is_stmt 1 view .LVU577
 2164              	.LBB1045:
 2165              	.LBI1025:
 2166              		.loc 8 110 10 view .LVU578
 2167              	.LBB1030:
 2168              		.loc 8 110 35 view .LVU579
 2169              		.loc 8 110 35 is_stmt 0 view .LVU580
 2170              	.LBE1030:
 2171              	.LBE1045:
 2172              		.loc 10 234 3 is_stmt 1 view .LVU581
ARM GAS  C:\Users\skipi\AppData\Local\Temp\ccHKWaHh.s 			page 67


 2173              		.loc 10 234 13 is_stmt 0 view .LVU582
 2174 04c6 FFF7FEFF 		bl	_ZN11AnalogDelay4InitEf
 2175              	.LVL172:
 235:main.cpp      ****   Delay.setDelayTime(delay_time);
 2176              		.loc 10 235 3 is_stmt 1 view .LVU583
 2177              		.loc 10 235 21 is_stmt 0 view .LVU584
 2178 04ca A24B     		ldr	r3, .L89+68
 2179 04cc A048     		ldr	r0, .L89+64
 2180 04ce 93ED000A 		vldr.32	s0, [r3]
 2181 04d2 FFF7FEFF 		bl	_ZN11AnalogDelay12setDelayTimeEf
 2182              	.LVL173:
 236:main.cpp      ****   Delay.setFeedback(delay_fb);
 2183              		.loc 10 236 3 is_stmt 1 view .LVU585
 2184              		.loc 10 236 20 is_stmt 0 view .LVU586
 2185 04d6 A04B     		ldr	r3, .L89+72
 2186 04d8 9D48     		ldr	r0, .L89+64
 2187 04da 93ED000A 		vldr.32	s0, [r3]
 2188 04de FFF7FEFF 		bl	_ZN11AnalogDelay11setFeedbackEf
 2189              	.LVL174:
 237:main.cpp      ****   Delay.setMix(delay_mix);
 2190              		.loc 10 237 3 is_stmt 1 view .LVU587
 2191              		.loc 10 237 15 is_stmt 0 view .LVU588
 2192 04e2 9E4B     		ldr	r3, .L89+76
 2193 04e4 9A48     		ldr	r0, .L89+64
 2194 04e6 93ED000A 		vldr.32	s0, [r3]
 2195 04ea FFF7FEFF 		bl	_ZN11AnalogDelay6setMixEf
 2196              	.LVL175:
 238:main.cpp      **** 
 239:main.cpp      ****   hw.StartAudio(AudioCallback);
 2197              		.loc 10 239 3 is_stmt 1 view .LVU589
 2198              		.loc 10 239 16 is_stmt 0 view .LVU590
 2199 04ee 9C49     		ldr	r1, .L89+80
 2200 04f0 9C48     		ldr	r0, .L89+84
 2201 04f2 FFF7FEFF 		bl	_ZN5daisy9DaisySeed10StartAudioEPFvPKfPfjE
 2202              	.LVL176:
 240:main.cpp      **** 
 241:main.cpp      **** #ifdef DEBUG
 242:main.cpp      **** 
 243:main.cpp      **** if (cap.Init(mpr121ObjConf) != daisy::Mpr121I2C::Result::OK)
 2203              		.loc 10 243 1 is_stmt 1 view .LVU591
 2204              		.loc 10 243 1 is_stmt 0 view .LVU592
 2205 04f6 0DF1400E 		add	lr, sp, #64
 2206              	.LBB1046:
 2207              	.LBB1020:
 123:../../libs/libDaisy/src/dev/mpr121.h **** 
 2208              		.loc 9 123 9 view .LVU593
 2209 04fa 9B4C     		ldr	r4, .L89+88
 2210 04fc 7646     		mov	r6, lr
 2211 04fe F346     		mov	fp, lr
 2212 0500 A446     		mov	ip, r4
 2213              	.LBB842:
 2214              	.LBB843:
  49:../../libs/libDaisy/src/dev/mpr121.h **** 
 2215              		.loc 9 49 17 view .LVU594
 2216 0502 CDF814A0 		str	r10, [sp, #20]
 2217 0506 04F11C08 		add	r8, r4, #28
 2218 050a 0FCF     		ldmia	r7!, {r0, r1, r2, r3}
ARM GAS  C:\Users\skipi\AppData\Local\Temp\ccHKWaHh.s 			page 68


 2219 050c AEE80F00 		stmia	lr!, {r0, r1, r2, r3}
 2220 0510 97E80300 		ldm	r7, {r0, r1}
 2221 0514 2746     		mov	r7, r4
 2222 0516 4EF8040B 		str	r0, [lr], #4
 2223 051a AEF80010 		strh	r1, [lr]	@ movhi
 2224              	.LBE843:
 2225              	.LBE842:
 2226              	.LBE1020:
 2227              	.LBI840:
 121:../../libs/libDaisy/src/dev/mpr121.h ****     {
 2228              		.loc 9 121 12 is_stmt 1 view .LVU595
 2229              	.LBB1021:
 123:../../libs/libDaisy/src/dev/mpr121.h **** 
 2230              		.loc 9 123 9 is_stmt 0 view .LVU596
 2231 051e 0FCE     		ldmia	r6!, {r0, r1, r2, r3}
 2232 0520 ACE80F00 		stmia	ip!, {r0, r1, r2, r3}
 2233 0524 96E80300 		ldm	r6, {r0, r1}
 2234 0528 4CF8040B 		str	r0, [ip], #4
 2235 052c 0646     		mov	r6, r0
 2236 052e ACF80010 		strh	r1, [ip]	@ movhi
 2237              	.LVL177:
 123:../../libs/libDaisy/src/dev/mpr121.h **** 
 2238              		.loc 9 123 9 view .LVU597
 2239 0532 0FCF     		ldmia	r7!, {r0, r1, r2, r3}
 2240 0534 AAE80F00 		stmia	r10!, {r0, r1, r2, r3}
 2241              	.LBB855:
 2242              	.LBB853:
  56:../../libs/libDaisy/src/dev/mpr121.h ****         i2c_conf.pin_config.sda = config.sda;
 2243              		.loc 9 56 33 view .LVU598
 2244 0538 BDF82030 		ldrh	r3, [sp, #32]
 2245              	.LBB844:
 2246              	.LBB845:
 2247              		.file 12 "../../libs/libDaisy/src/per/i2c.h"
   1:../../libs/libDaisy/src/per/i2c.h **** #pragma once
   2:../../libs/libDaisy/src/per/i2c.h **** #include "util/hal_map.h"
   3:../../libs/libDaisy/src/per/i2c.h **** #include "daisy_core.h"
   4:../../libs/libDaisy/src/per/i2c.h **** 
   5:../../libs/libDaisy/src/per/i2c.h **** namespace daisy
   6:../../libs/libDaisy/src/per/i2c.h **** {
   7:../../libs/libDaisy/src/per/i2c.h **** /** A handle for interacting with an I2C peripheral. This is a dumb
   8:../../libs/libDaisy/src/per/i2c.h ****  *  gateway that internally points to one of the four I2C peripherals
   9:../../libs/libDaisy/src/per/i2c.h ****  *  after it was initialised. It can then be copied and passed around.
  10:../../libs/libDaisy/src/per/i2c.h ****  *  Use an I2CHandle like this:
  11:../../libs/libDaisy/src/per/i2c.h ****  *  
  12:../../libs/libDaisy/src/per/i2c.h ****  *      // setup the configuration
  13:../../libs/libDaisy/src/per/i2c.h ****  *      I2CHandle::Config i2c_conf;
  14:../../libs/libDaisy/src/per/i2c.h ****  *      i2c_conf.periph = I2CHandle::Config::Peripheral::I2C_1;
  15:../../libs/libDaisy/src/per/i2c.h ****  *      i2c_conf.speed  = I2CHandle::Config::Speed::I2C_400KHZ;
  16:../../libs/libDaisy/src/per/i2c.h ****  *      i2c_conf.mode   = I2CHandle::Config::Mode::Master;
  17:../../libs/libDaisy/src/per/i2c.h ****  *      i2c_conf.pin_config.scl  = {DSY_GPIOB, 8};
  18:../../libs/libDaisy/src/per/i2c.h ****  *      i2c_conf.pin_config.sda  = {DSY_GPIOB, 9};
  19:../../libs/libDaisy/src/per/i2c.h ****  *      // initialise the peripheral
  20:../../libs/libDaisy/src/per/i2c.h ****  *      I2CHandle i2c;
  21:../../libs/libDaisy/src/per/i2c.h ****  *      i2c.Init(i2c_conf);
  22:../../libs/libDaisy/src/per/i2c.h ****  *      // now i2c points to the corresponding peripheral and can be used.
  23:../../libs/libDaisy/src/per/i2c.h ****  *      i2c.TransmitBlocking( ... );
  24:../../libs/libDaisy/src/per/i2c.h ****  */
ARM GAS  C:\Users\skipi\AppData\Local\Temp\ccHKWaHh.s 			page 69


  25:../../libs/libDaisy/src/per/i2c.h **** class I2CHandle
  26:../../libs/libDaisy/src/per/i2c.h **** {
  27:../../libs/libDaisy/src/per/i2c.h ****   public:
  28:../../libs/libDaisy/src/per/i2c.h ****     /** Contains settings for initialising an I2C interface. */
  29:../../libs/libDaisy/src/per/i2c.h ****     struct Config
 2248              		.loc 12 29 12 view .LVU599
 2249 053c 4FF01002 		mov	r2, #16
 2250 0540 CAF80060 		str	r6, [r10]
 2251              	.LBE845:
 2252              	.LBE844:
  56:../../libs/libDaisy/src/dev/mpr121.h ****         i2c_conf.pin_config.sda = config.sda;
 2253              		.loc 9 56 33 view .LVU600
 2254 0544 ADF83030 		strh	r3, [sp, #48]	@ movhi
  57:../../libs/libDaisy/src/dev/mpr121.h **** 
 2255              		.loc 9 57 33 view .LVU601
 2256 0548 BDF82230 		ldrh	r3, [sp, #34]
 2257              	.LBB851:
 2258              	.LBB849:
 2259              		.loc 12 29 12 view .LVU602
 2260 054c 8DF83C20 		strb	r2, [sp, #60]
 2261              	.LBE849:
 2262              	.LBE851:
  57:../../libs/libDaisy/src/dev/mpr121.h **** 
 2263              		.loc 9 57 33 view .LVU603
 2264 0550 ADF83230 		strh	r3, [sp, #50]	@ movhi
  49:../../libs/libDaisy/src/dev/mpr121.h **** 
 2265              		.loc 9 49 17 view .LVU604
 2266 0554 059B     		ldr	r3, [sp, #20]
 2267 0556 0690     		str	r0, [sp, #24]
 2268 0558 1F46     		mov	r7, r3
  53:../../libs/libDaisy/src/dev/mpr121.h ****         i2c_conf.speed  = config.speed;
 2269              		.loc 9 53 25 view .LVU605
 2270 055a 0B90     		str	r0, [sp, #44]
  49:../../libs/libDaisy/src/dev/mpr121.h **** 
 2271              		.loc 9 49 17 view .LVU606
 2272 055c 0791     		str	r1, [sp, #28]
  54:../../libs/libDaisy/src/dev/mpr121.h **** 
 2273              		.loc 9 54 25 view .LVU607
 2274 055e 0D91     		str	r1, [sp, #52]
  52:../../libs/libDaisy/src/dev/mpr121.h ****         i2c_conf.periph = config.periph;
 2275              		.loc 9 52 25 view .LVU608
 2276 0560 CDF83890 		str	r9, [sp, #56]
 2277              	.LVL178:
  52:../../libs/libDaisy/src/dev/mpr121.h ****         i2c_conf.periph = config.periph;
 2278              		.loc 9 52 25 view .LVU609
 2279              	.LBE853:
 2280              	.LBI842:
  47:../../libs/libDaisy/src/dev/mpr121.h ****     {
 2281              		.loc 9 47 17 is_stmt 1 view .LVU610
 2282              	.LBB854:
  49:../../libs/libDaisy/src/dev/mpr121.h **** 
 2283              		.loc 9 49 9 view .LVU611
  49:../../libs/libDaisy/src/dev/mpr121.h **** 
 2284              		.loc 9 49 17 is_stmt 0 view .LVU612
 2285 0564 0FCF     		ldmia	r7!, {r0, r1, r2, r3}
 2286              	.LVL179:
  49:../../libs/libDaisy/src/dev/mpr121.h **** 
ARM GAS  C:\Users\skipi\AppData\Local\Temp\ccHKWaHh.s 			page 70


 2287              		.loc 9 49 17 view .LVU613
 2288 0566 A8E80F00 		stmia	r8!, {r0, r1, r2, r3}
  59:../../libs/libDaisy/src/dev/mpr121.h ****     }
 2289              		.loc 9 59 50 view .LVU614
 2290 056a 0BA9     		add	r1, sp, #44
 2291 056c 04F11800 		add	r0, r4, #24
 2292              	.LVL180:
  49:../../libs/libDaisy/src/dev/mpr121.h **** 
 2293              		.loc 9 49 17 view .LVU615
 2294 0570 88F80060 		strb	r6, [r8]
  51:../../libs/libDaisy/src/dev/mpr121.h ****         i2c_conf.mode   = I2CHandle::Config::Mode::I2C_MASTER;
 2295              		.loc 9 51 9 is_stmt 1 view .LVU616
 2296              	.LVL181:
 2297              	.LBB852:
 2298              	.LBI844:
 2299              		.loc 12 29 12 view .LVU617
 2300              	.LBB850:
 2301              	.LBB846:
 2302              	.LBI846:
  30:../../libs/libDaisy/src/per/i2c.h ****     {
  31:../../libs/libDaisy/src/per/i2c.h ****         /** Specifies whether the interface will operate in master or slave mode. */
  32:../../libs/libDaisy/src/per/i2c.h ****         enum class Mode
  33:../../libs/libDaisy/src/per/i2c.h ****         {
  34:../../libs/libDaisy/src/per/i2c.h ****             I2C_MASTER,
  35:../../libs/libDaisy/src/per/i2c.h ****             I2C_SLAVE,
  36:../../libs/libDaisy/src/per/i2c.h ****         };
  37:../../libs/libDaisy/src/per/i2c.h **** 
  38:../../libs/libDaisy/src/per/i2c.h ****         /** Specifices the internal peripheral to use (these are mapped to different pins on the ha
  39:../../libs/libDaisy/src/per/i2c.h ****         enum class Peripheral
  40:../../libs/libDaisy/src/per/i2c.h ****         {
  41:../../libs/libDaisy/src/per/i2c.h ****             I2C_1 = 0, /**< & */
  42:../../libs/libDaisy/src/per/i2c.h ****             I2C_2,     /**< & */
  43:../../libs/libDaisy/src/per/i2c.h ****             I2C_3,     /**< & */
  44:../../libs/libDaisy/src/per/i2c.h ****             I2C_4,     /**< & */
  45:../../libs/libDaisy/src/per/i2c.h ****         };
  46:../../libs/libDaisy/src/per/i2c.h **** 
  47:../../libs/libDaisy/src/per/i2c.h ****         /** Rate at which the clock/data will be sent/received. The device being used will have max
  48:../../libs/libDaisy/src/per/i2c.h ****          *  1MHZ Mode is currently 886kHz
  49:../../libs/libDaisy/src/per/i2c.h ****          */
  50:../../libs/libDaisy/src/per/i2c.h ****         enum class Speed
  51:../../libs/libDaisy/src/per/i2c.h ****         {
  52:../../libs/libDaisy/src/per/i2c.h ****             I2C_100KHZ, /**< & */
  53:../../libs/libDaisy/src/per/i2c.h ****             I2C_400KHZ, /**< & */
  54:../../libs/libDaisy/src/per/i2c.h ****             I2C_1MHZ,   /**< & */
  55:../../libs/libDaisy/src/per/i2c.h ****         };
  56:../../libs/libDaisy/src/per/i2c.h **** 
  57:../../libs/libDaisy/src/per/i2c.h ****         Peripheral periph; /**< & */
  58:../../libs/libDaisy/src/per/i2c.h ****         struct
  59:../../libs/libDaisy/src/per/i2c.h ****         {
 2303              		.loc 12 59 9 view .LVU618
 2304              	.LBB847:
 2305              	.LBI847:
 2306              		.file 13 "../../libs/libDaisy/src/daisy_core.h"
   1:../../libs/libDaisy/src/daisy_core.h **** #pragma once
   2:../../libs/libDaisy/src/daisy_core.h **** #ifndef DSY_CORE_HW_H
   3:../../libs/libDaisy/src/daisy_core.h **** #define DSY_CORE_HW_H /**< & */
   4:../../libs/libDaisy/src/daisy_core.h **** #include <stdint.h>
ARM GAS  C:\Users\skipi\AppData\Local\Temp\ccHKWaHh.s 			page 71


   5:../../libs/libDaisy/src/daisy_core.h **** #include <stdlib.h>
   6:../../libs/libDaisy/src/daisy_core.h **** 
   7:../../libs/libDaisy/src/daisy_core.h **** #if defined(_MSC_VER)
   8:../../libs/libDaisy/src/daisy_core.h **** #define FORCE_INLINE __forceinline /**< & */
   9:../../libs/libDaisy/src/daisy_core.h **** #elif defined(__clang__)
  10:../../libs/libDaisy/src/daisy_core.h **** #define FORCE_INLINE inline __attribute__((always_inline)) /**< & */
  11:../../libs/libDaisy/src/daisy_core.h **** #pragma clang diagnostic ignored "-Wduplicate-decl-specifier"
  12:../../libs/libDaisy/src/daisy_core.h **** #elif defined(__GNUC__)
  13:../../libs/libDaisy/src/daisy_core.h **** #define FORCE_INLINE inline __attribute__((always_inline)) /**< & */
  14:../../libs/libDaisy/src/daisy_core.h **** #else
  15:../../libs/libDaisy/src/daisy_core.h **** #error unknown compiler
  16:../../libs/libDaisy/src/daisy_core.h **** #endif
  17:../../libs/libDaisy/src/daisy_core.h **** 
  18:../../libs/libDaisy/src/daisy_core.h **** /** @addtogroup utility
  19:../../libs/libDaisy/src/daisy_core.h ****     @{
  20:../../libs/libDaisy/src/daisy_core.h **** */
  21:../../libs/libDaisy/src/daisy_core.h **** 
  22:../../libs/libDaisy/src/daisy_core.h **** /** Macro for area of memory that is configured as cacheless
  23:../../libs/libDaisy/src/daisy_core.h **** This should be used primarily for DMA buffers, and the like.
  24:../../libs/libDaisy/src/daisy_core.h **** */
  25:../../libs/libDaisy/src/daisy_core.h **** #define DMA_BUFFER_MEM_SECTION __attribute__((section(".sram1_bss")))
  26:../../libs/libDaisy/src/daisy_core.h **** /** 
  27:../../libs/libDaisy/src/daisy_core.h **** THE DTCM RAM section is also non-cached. However, is not suitable 
  28:../../libs/libDaisy/src/daisy_core.h **** for DMA transfers. Performance is on par with internal SRAM w/ 
  29:../../libs/libDaisy/src/daisy_core.h **** cache enabled.
  30:../../libs/libDaisy/src/daisy_core.h **** */
  31:../../libs/libDaisy/src/daisy_core.h **** #define DTCM_MEM_SECTION __attribute__((section(".dtcmram_bss")))
  32:../../libs/libDaisy/src/daisy_core.h **** 
  33:../../libs/libDaisy/src/daisy_core.h **** #define FBIPMAX 0.999985f             /**< close to 1.0f-LSB at 16 bit */
  34:../../libs/libDaisy/src/daisy_core.h **** #define FBIPMIN (-FBIPMAX)            /**< - (1 - LSB) */
  35:../../libs/libDaisy/src/daisy_core.h **** #define U82F_SCALE 0.0078740f         /**< 1 / 127 */
  36:../../libs/libDaisy/src/daisy_core.h **** #define F2U8_SCALE 127.0f             /**< 128 - 1 */
  37:../../libs/libDaisy/src/daisy_core.h **** #define S82F_SCALE 0.0078125f         /**< 1 / (2**7) */
  38:../../libs/libDaisy/src/daisy_core.h **** #define F2S8_SCALE 127.0f             /**< (2 ** 7) - 1 */
  39:../../libs/libDaisy/src/daisy_core.h **** #define S162F_SCALE 3.0517578125e-05f /**< 1 / (2** 15) */
  40:../../libs/libDaisy/src/daisy_core.h **** #define F2S16_SCALE 32767.0f          /**< (2 ** 15) - 1 */
  41:../../libs/libDaisy/src/daisy_core.h **** #define F2S24_SCALE 8388608.0f        /**< 2 ** 23 */
  42:../../libs/libDaisy/src/daisy_core.h **** #define S242F_SCALE 1.192092896e-07f  /**< 1 / (2 ** 23) */
  43:../../libs/libDaisy/src/daisy_core.h **** #define S24SIGN 0x800000              /**< 2 ** 23 */
  44:../../libs/libDaisy/src/daisy_core.h **** #define S322F_SCALE 4.6566129e-10f    /**< 1 / (2** 31) */
  45:../../libs/libDaisy/src/daisy_core.h **** #define F2S32_SCALE 2147483647.f      /**< (2 ** 31) - 1 */
  46:../../libs/libDaisy/src/daisy_core.h **** 
  47:../../libs/libDaisy/src/daisy_core.h **** 
  48:../../libs/libDaisy/src/daisy_core.h **** /** shorthand macro for simplifying the reading of the left 
  49:../../libs/libDaisy/src/daisy_core.h ****  *  channel of a non-interleaved output buffer named out */
  50:../../libs/libDaisy/src/daisy_core.h **** #define OUT_L out[0]
  51:../../libs/libDaisy/src/daisy_core.h **** 
  52:../../libs/libDaisy/src/daisy_core.h **** /** shorthand macro for simplifying the reading of the right 
  53:../../libs/libDaisy/src/daisy_core.h ****  *  channel of a non-interleaved output buffer named out */
  54:../../libs/libDaisy/src/daisy_core.h **** #define OUT_R out[1]
  55:../../libs/libDaisy/src/daisy_core.h **** 
  56:../../libs/libDaisy/src/daisy_core.h **** /** shorthand macro for simplifying the reading of the left 
  57:../../libs/libDaisy/src/daisy_core.h ****  *  channel of a non-interleaved input buffer named in */
  58:../../libs/libDaisy/src/daisy_core.h **** #define IN_L in[0]
  59:../../libs/libDaisy/src/daisy_core.h **** 
  60:../../libs/libDaisy/src/daisy_core.h **** /** shorthand macro for simplifying the reading of the right 
  61:../../libs/libDaisy/src/daisy_core.h ****  *  channel of a non-interleaved input buffer named in */
ARM GAS  C:\Users\skipi\AppData\Local\Temp\ccHKWaHh.s 			page 72


  62:../../libs/libDaisy/src/daisy_core.h **** #define IN_R in[1]
  63:../../libs/libDaisy/src/daisy_core.h **** 
  64:../../libs/libDaisy/src/daisy_core.h **** /** 
  65:../../libs/libDaisy/src/daisy_core.h ****     Computes cube.
  66:../../libs/libDaisy/src/daisy_core.h ****     \param x Number to be cubed
  67:../../libs/libDaisy/src/daisy_core.h ****     \return x ^ 3
  68:../../libs/libDaisy/src/daisy_core.h **** */
  69:../../libs/libDaisy/src/daisy_core.h **** FORCE_INLINE float cube(float x)
  70:../../libs/libDaisy/src/daisy_core.h **** {
  71:../../libs/libDaisy/src/daisy_core.h ****     return (x * x) * x;
  72:../../libs/libDaisy/src/daisy_core.h **** }
  73:../../libs/libDaisy/src/daisy_core.h **** 
  74:../../libs/libDaisy/src/daisy_core.h **** /** 
  75:../../libs/libDaisy/src/daisy_core.h ****     Converts unsigned 8-bit to float
  76:../../libs/libDaisy/src/daisy_core.h ****     \param x Number to be scaled.
  77:../../libs/libDaisy/src/daisy_core.h ****     \return Scaled number.
  78:../../libs/libDaisy/src/daisy_core.h **** */
  79:../../libs/libDaisy/src/daisy_core.h **** FORCE_INLINE float u82f(uint8_t x)
  80:../../libs/libDaisy/src/daisy_core.h **** {
  81:../../libs/libDaisy/src/daisy_core.h ****     return ((float)x - 127.f) * U82F_SCALE;
  82:../../libs/libDaisy/src/daisy_core.h **** }
  83:../../libs/libDaisy/src/daisy_core.h **** 
  84:../../libs/libDaisy/src/daisy_core.h **** /**
  85:../../libs/libDaisy/src/daisy_core.h ****     Converts float to unsigned 8-bit
  86:../../libs/libDaisy/src/daisy_core.h **** */
  87:../../libs/libDaisy/src/daisy_core.h **** FORCE_INLINE uint8_t f2u8(float x)
  88:../../libs/libDaisy/src/daisy_core.h **** {
  89:../../libs/libDaisy/src/daisy_core.h ****     x = x <= FBIPMIN ? FBIPMIN : x;
  90:../../libs/libDaisy/src/daisy_core.h ****     x = x >= FBIPMAX ? FBIPMAX : x;
  91:../../libs/libDaisy/src/daisy_core.h ****     return (uint8_t)((x * F2U8_SCALE) + F2U8_SCALE);
  92:../../libs/libDaisy/src/daisy_core.h **** }
  93:../../libs/libDaisy/src/daisy_core.h **** 
  94:../../libs/libDaisy/src/daisy_core.h **** 
  95:../../libs/libDaisy/src/daisy_core.h **** /** 
  96:../../libs/libDaisy/src/daisy_core.h ****     Converts Signed 8-bit to float
  97:../../libs/libDaisy/src/daisy_core.h ****     \param x Number to be scaled.
  98:../../libs/libDaisy/src/daisy_core.h ****     \return Scaled number.
  99:../../libs/libDaisy/src/daisy_core.h **** */
 100:../../libs/libDaisy/src/daisy_core.h **** FORCE_INLINE float s82f(int8_t x)
 101:../../libs/libDaisy/src/daisy_core.h **** {
 102:../../libs/libDaisy/src/daisy_core.h ****     return (float)x * S82F_SCALE;
 103:../../libs/libDaisy/src/daisy_core.h **** }
 104:../../libs/libDaisy/src/daisy_core.h **** 
 105:../../libs/libDaisy/src/daisy_core.h **** /**
 106:../../libs/libDaisy/src/daisy_core.h ****     Converts float to Signed 8-bit
 107:../../libs/libDaisy/src/daisy_core.h **** */
 108:../../libs/libDaisy/src/daisy_core.h **** FORCE_INLINE int8_t f2s8(float x)
 109:../../libs/libDaisy/src/daisy_core.h **** {
 110:../../libs/libDaisy/src/daisy_core.h ****     x = x <= FBIPMIN ? FBIPMIN : x;
 111:../../libs/libDaisy/src/daisy_core.h ****     x = x >= FBIPMAX ? FBIPMAX : x;
 112:../../libs/libDaisy/src/daisy_core.h ****     return (int32_t)(x * F2S8_SCALE);
 113:../../libs/libDaisy/src/daisy_core.h **** }
 114:../../libs/libDaisy/src/daisy_core.h **** 
 115:../../libs/libDaisy/src/daisy_core.h **** /** 
 116:../../libs/libDaisy/src/daisy_core.h ****     Converts Signed 16-bit to float
 117:../../libs/libDaisy/src/daisy_core.h ****     \param x Number to be scaled.
 118:../../libs/libDaisy/src/daisy_core.h ****     \return Scaled number.
ARM GAS  C:\Users\skipi\AppData\Local\Temp\ccHKWaHh.s 			page 73


 119:../../libs/libDaisy/src/daisy_core.h **** */
 120:../../libs/libDaisy/src/daisy_core.h **** FORCE_INLINE float s162f(int16_t x)
 121:../../libs/libDaisy/src/daisy_core.h **** {
 122:../../libs/libDaisy/src/daisy_core.h ****     return (float)x * S162F_SCALE;
 123:../../libs/libDaisy/src/daisy_core.h **** }
 124:../../libs/libDaisy/src/daisy_core.h **** 
 125:../../libs/libDaisy/src/daisy_core.h **** /**
 126:../../libs/libDaisy/src/daisy_core.h ****     Converts float to Signed 16-bit
 127:../../libs/libDaisy/src/daisy_core.h **** */
 128:../../libs/libDaisy/src/daisy_core.h **** FORCE_INLINE int16_t f2s16(float x)
 129:../../libs/libDaisy/src/daisy_core.h **** {
 130:../../libs/libDaisy/src/daisy_core.h ****     x = x <= FBIPMIN ? FBIPMIN : x;
 131:../../libs/libDaisy/src/daisy_core.h ****     x = x >= FBIPMAX ? FBIPMAX : x;
 132:../../libs/libDaisy/src/daisy_core.h ****     return (int32_t)(x * F2S16_SCALE);
 133:../../libs/libDaisy/src/daisy_core.h **** }
 134:../../libs/libDaisy/src/daisy_core.h **** 
 135:../../libs/libDaisy/src/daisy_core.h **** /**
 136:../../libs/libDaisy/src/daisy_core.h ****     Converts Signed 24-bit to float
 137:../../libs/libDaisy/src/daisy_core.h ****  */
 138:../../libs/libDaisy/src/daisy_core.h **** FORCE_INLINE float s242f(int32_t x)
 139:../../libs/libDaisy/src/daisy_core.h **** {
 140:../../libs/libDaisy/src/daisy_core.h ****     x = (x ^ S24SIGN) - S24SIGN; //sign extend aka ((x<<8)>>8)
 141:../../libs/libDaisy/src/daisy_core.h ****     return (float)x * S242F_SCALE;
 142:../../libs/libDaisy/src/daisy_core.h **** }
 143:../../libs/libDaisy/src/daisy_core.h **** /**
 144:../../libs/libDaisy/src/daisy_core.h ****     Converts float to Signed 24-bit
 145:../../libs/libDaisy/src/daisy_core.h ****  */
 146:../../libs/libDaisy/src/daisy_core.h **** FORCE_INLINE int32_t f2s24(float x)
 147:../../libs/libDaisy/src/daisy_core.h **** {
 148:../../libs/libDaisy/src/daisy_core.h ****     x = x <= FBIPMIN ? FBIPMIN : x;
 149:../../libs/libDaisy/src/daisy_core.h ****     x = x >= FBIPMAX ? FBIPMAX : x;
 150:../../libs/libDaisy/src/daisy_core.h ****     return (int32_t)(x * F2S24_SCALE);
 151:../../libs/libDaisy/src/daisy_core.h **** }
 152:../../libs/libDaisy/src/daisy_core.h **** 
 153:../../libs/libDaisy/src/daisy_core.h **** /**
 154:../../libs/libDaisy/src/daisy_core.h ****     Converts Signed 32-bit to float
 155:../../libs/libDaisy/src/daisy_core.h ****  */
 156:../../libs/libDaisy/src/daisy_core.h **** FORCE_INLINE float s322f(int32_t x)
 157:../../libs/libDaisy/src/daisy_core.h **** {
 158:../../libs/libDaisy/src/daisy_core.h ****     return (float)x * S322F_SCALE;
 159:../../libs/libDaisy/src/daisy_core.h **** }
 160:../../libs/libDaisy/src/daisy_core.h **** /**
 161:../../libs/libDaisy/src/daisy_core.h ****     Converts float to Signed 24-bit
 162:../../libs/libDaisy/src/daisy_core.h ****  */
 163:../../libs/libDaisy/src/daisy_core.h **** FORCE_INLINE int32_t f2s32(float x)
 164:../../libs/libDaisy/src/daisy_core.h **** {
 165:../../libs/libDaisy/src/daisy_core.h ****     x = x <= FBIPMIN ? FBIPMIN : x;
 166:../../libs/libDaisy/src/daisy_core.h ****     x = x >= FBIPMAX ? FBIPMAX : x;
 167:../../libs/libDaisy/src/daisy_core.h ****     return (int32_t)(x * F2S32_SCALE);
 168:../../libs/libDaisy/src/daisy_core.h **** }
 169:../../libs/libDaisy/src/daisy_core.h **** 
 170:../../libs/libDaisy/src/daisy_core.h **** #ifdef __cplusplus
 171:../../libs/libDaisy/src/daisy_core.h **** 
 172:../../libs/libDaisy/src/daisy_core.h **** namespace daisy
 173:../../libs/libDaisy/src/daisy_core.h **** {
 174:../../libs/libDaisy/src/daisy_core.h **** /** @brief GPIO Port names */
 175:../../libs/libDaisy/src/daisy_core.h **** enum GPIOPort
ARM GAS  C:\Users\skipi\AppData\Local\Temp\ccHKWaHh.s 			page 74


 176:../../libs/libDaisy/src/daisy_core.h **** {
 177:../../libs/libDaisy/src/daisy_core.h ****     PORTA, /**< Port A */
 178:../../libs/libDaisy/src/daisy_core.h ****     PORTB, /**< Port B */
 179:../../libs/libDaisy/src/daisy_core.h ****     PORTC, /**< Port C */
 180:../../libs/libDaisy/src/daisy_core.h ****     PORTD, /**< Port D */
 181:../../libs/libDaisy/src/daisy_core.h ****     PORTE, /**< Port E */
 182:../../libs/libDaisy/src/daisy_core.h ****     PORTF, /**< Port F */
 183:../../libs/libDaisy/src/daisy_core.h ****     PORTG, /**< Port G */
 184:../../libs/libDaisy/src/daisy_core.h ****     PORTH, /**< Port H */
 185:../../libs/libDaisy/src/daisy_core.h ****     PORTI, /**< Port I */
 186:../../libs/libDaisy/src/daisy_core.h ****     PORTJ, /**< Port J */
 187:../../libs/libDaisy/src/daisy_core.h ****     PORTK, /**< Port K */
 188:../../libs/libDaisy/src/daisy_core.h ****     PORTX, /**< Used as a dummy port to signal an invalid pin. */
 189:../../libs/libDaisy/src/daisy_core.h **** };
 190:../../libs/libDaisy/src/daisy_core.h **** 
 191:../../libs/libDaisy/src/daisy_core.h **** /** @brief representation of hardware port/pin combination */
 192:../../libs/libDaisy/src/daisy_core.h **** struct Pin
 193:../../libs/libDaisy/src/daisy_core.h **** {
 194:../../libs/libDaisy/src/daisy_core.h ****     GPIOPort port;
 195:../../libs/libDaisy/src/daisy_core.h ****     uint8_t  pin;
 196:../../libs/libDaisy/src/daisy_core.h **** 
 197:../../libs/libDaisy/src/daisy_core.h ****     /** @brief Constructor creates a valid pin. 
 198:../../libs/libDaisy/src/daisy_core.h ****      *  @param pt GPIOPort between PA, and PK corresponding to STM32 Port.
 199:../../libs/libDaisy/src/daisy_core.h ****      *  @param pn pin number in range of 0-15
 200:../../libs/libDaisy/src/daisy_core.h ****     */
 201:../../libs/libDaisy/src/daisy_core.h ****     constexpr Pin(const GPIOPort pt, const uint8_t pn) : port(pt), pin(pn) {}
 202:../../libs/libDaisy/src/daisy_core.h **** 
 203:../../libs/libDaisy/src/daisy_core.h ****     /** @brief Basic Constructor creates an invalid Pin object */
 204:../../libs/libDaisy/src/daisy_core.h ****     constexpr Pin() : port(PORTX), pin(255) {}
 2307              		.loc 13 204 15 view .LVU619
 2308              		.loc 13 204 15 is_stmt 0 view .LVU620
 2309              	.LBE847:
 2310              	.LBB848:
 2311              	.LBI848:
 2312              		.loc 13 204 15 is_stmt 1 view .LVU621
 2313              		.loc 13 204 15 is_stmt 0 view .LVU622
 2314              	.LBE848:
 2315              	.LBE846:
 2316              	.LBE850:
 2317              	.LBE852:
  52:../../libs/libDaisy/src/dev/mpr121.h ****         i2c_conf.periph = config.periph;
 2318              		.loc 9 52 9 is_stmt 1 view .LVU623
  53:../../libs/libDaisy/src/dev/mpr121.h ****         i2c_conf.speed  = config.speed;
 2319              		.loc 9 53 9 view .LVU624
  54:../../libs/libDaisy/src/dev/mpr121.h **** 
 2320              		.loc 9 54 9 view .LVU625
  56:../../libs/libDaisy/src/dev/mpr121.h ****         i2c_conf.pin_config.sda = config.sda;
 2321              		.loc 9 56 9 view .LVU626
  57:../../libs/libDaisy/src/dev/mpr121.h **** 
 2322              		.loc 9 57 9 view .LVU627
  59:../../libs/libDaisy/src/dev/mpr121.h ****     }
 2323              		.loc 9 59 9 view .LVU628
  59:../../libs/libDaisy/src/dev/mpr121.h ****     }
 2324              		.loc 9 59 50 is_stmt 0 view .LVU629
 2325 0574 FFF7FEFF 		bl	_ZN5daisy9I2CHandle4InitERKNS0_6ConfigE
 2326              	.LVL182:
  59:../../libs/libDaisy/src/dev/mpr121.h ****     }
ARM GAS  C:\Users\skipi\AppData\Local\Temp\ccHKWaHh.s 			page 75


 2327              		.loc 9 59 50 view .LVU630
 2328              	.LBE854:
 2329              	.LBE855:
 2330              	.LBB856:
 2331              	.LBI856:
 2332              		.loc 9 343 10 is_stmt 1 view .LVU631
 2333              	.LBB857:
 2334              		.loc 9 343 55 is_stmt 0 view .LVU632
 2335 0578 94F83030 		ldrb	r3, [r4, #48]	@ zero_extendqisi2
 2336              	.LBE857:
 2337              	.LBE856:
 128:../../libs/libDaisy/src/dev/mpr121.h ****         System::Delay(1);
 2338              		.loc 9 128 22 view .LVU633
 2339 057c 8021     		movs	r1, #128
 2340 057e 6322     		movs	r2, #99
 2341              	.LBB860:
 2342              	.LBB858:
 2343              		.loc 9 343 55 view .LVU634
 2344 0580 4845     		cmp	r0, r9
 2345 0582 18BF     		it	ne
 2346 0584 43F00103 		orrne	r3, r3, #1
 2347              	.LBE858:
 2348              	.LBE860:
 128:../../libs/libDaisy/src/dev/mpr121.h ****         System::Delay(1);
 2349              		.loc 9 128 22 view .LVU635
 2350 0588 2046     		mov	r0, r4
 2351              	.LVL183:
 2352              	.LBB861:
 2353              	.LBB859:
 2354              		.loc 9 343 55 view .LVU636
 2355 058a 84F83030 		strb	r3, [r4, #48]
 2356              	.LVL184:
 2357              		.loc 9 343 55 view .LVU637
 2358              	.LBE859:
 2359              	.LBE861:
 128:../../libs/libDaisy/src/dev/mpr121.h ****         System::Delay(1);
 2360              		.loc 9 128 22 view .LVU638
 2361 058e FFF7FEFF 		bl	_ZN5daisy6Mpr121INS_18Mpr121I2CTransportEE13WriteRegisterEhh
 2362              	.LVL185:
 129:../../libs/libDaisy/src/dev/mpr121.h **** 
 2363              		.loc 9 129 22 view .LVU639
 2364 0592 0120     		movs	r0, #1
 2365 0594 FFF7FEFF 		bl	_ZN5daisy6System5DelayEm
 2366              	.LVL186:
 131:../../libs/libDaisy/src/dev/mpr121.h **** 
 2367              		.loc 9 131 22 view .LVU640
 2368 0598 4A46     		mov	r2, r9
 2369 059a 5E21     		movs	r1, #94
 2370 059c 2046     		mov	r0, r4
 2371 059e FFF7FEFF 		bl	_ZN5daisy6Mpr121INS_18Mpr121I2CTransportEE13WriteRegisterEhh
 2372              	.LVL187:
 139:../../libs/libDaisy/src/dev/mpr121.h ****         WriteRegister(MPR121_MHDR, 0x01);
 2373              		.loc 9 139 22 view .LVU641
 2374 05a2 94F814A0 		ldrb	r10, [r4, #20]	@ zero_extendqisi2
 2375 05a6 94F81590 		ldrb	r9, [r4, #21]	@ zero_extendqisi2
 2376              	.LVL188:
 2377              	.LBB862:
ARM GAS  C:\Users\skipi\AppData\Local\Temp\ccHKWaHh.s 			page 76


 2378              	.LBI862:
 183:../../libs/libDaisy/src/dev/mpr121.h ****     {
 2379              		.loc 9 183 10 is_stmt 1 view .LVU642
 2380              	.LBB863:
 186:../../libs/libDaisy/src/dev/mpr121.h ****         {
 2381              		.loc 9 186 30 view .LVU643
 2382              	.L37:
 2383              	.LBB864:
 2384              	.LBI864:
 257:../../libs/libDaisy/src/dev/mpr121.h ****     {
 2385              		.loc 9 257 10 view .LVU644
 2386              	.LBB865:
 2387              	.LBB866:
 2388              	.LBB867:
  66:../../libs/libDaisy/src/dev/mpr121.h ****     }
 2389              		.loc 9 66 40 is_stmt 0 view .LVU645
 2390 05aa 0A26     		movs	r6, #10
 2391              	.LBE867:
 2392              	.LBE866:
 264:../../libs/libDaisy/src/dev/mpr121.h **** 
 2393              		.loc 9 264 17 view .LVU646
 2394 05ac 4FF00008 		mov	r8, #0
 2395 05b0 5E27     		movs	r7, #94
 2396              	.LBB870:
 2397              	.LBB868:
  66:../../libs/libDaisy/src/dev/mpr121.h ****     }
 2398              		.loc 9 66 40 view .LVU647
 2399 05b2 94F82C10 		ldrb	r1, [r4, #44]	@ zero_extendqisi2
 2400 05b6 0123     		movs	r3, #1
 2401 05b8 0BAA     		add	r2, sp, #44
 2402 05ba 0096     		str	r6, [sp]
 2403 05bc 6B48     		ldr	r0, .L89+92
 2404              	.LBE868:
 2405              	.LBE870:
 264:../../libs/libDaisy/src/dev/mpr121.h **** 
 2406              		.loc 9 264 17 view .LVU648
 2407 05be 8DF82D80 		strb	r8, [sp, #45]
 2408 05c2 8DF82C70 		strb	r7, [sp, #44]
 2409              	.LVL189:
 2410              	.LBB871:
 2411              	.LBI866:
  63:../../libs/libDaisy/src/dev/mpr121.h ****     {
 2412              		.loc 9 63 10 is_stmt 1 view .LVU649
 2413              	.LBB869:
  65:../../libs/libDaisy/src/dev/mpr121.h ****                != i2c_.TransmitBlocking(config_.dev_addr, data, size, 10);
 2414              		.loc 9 65 9 view .LVU650
  66:../../libs/libDaisy/src/dev/mpr121.h ****     }
 2415              		.loc 9 66 40 is_stmt 0 view .LVU651
 2416 05c6 FFF7FEFF 		bl	_ZN5daisy9I2CHandle16TransmitBlockingEtPhtm
 2417              	.LVL190:
  66:../../libs/libDaisy/src/dev/mpr121.h ****     }
 2418              		.loc 9 66 40 view .LVU652
 2419              	.LBE869:
 2420              	.LBE871:
 2421              	.LBB872:
 2422              	.LBI872:
 2423              		.loc 9 343 10 is_stmt 1 view .LVU653
ARM GAS  C:\Users\skipi\AppData\Local\Temp\ccHKWaHh.s 			page 77


 2424              	.LBB873:
 2425              		.loc 9 343 55 is_stmt 0 view .LVU654
 2426 05ca 94F83020 		ldrb	r2, [r4, #48]	@ zero_extendqisi2
 2427              	.LBE873:
 2428              	.LBE872:
 2429              	.LBB876:
 2430              	.LBB877:
  73:../../libs/libDaisy/src/dev/mpr121.h ****     }
 2431              		.loc 9 73 39 view .LVU655
 2432 05ce 0123     		movs	r3, #1
 2433 05d0 0096     		str	r6, [sp]
 2434              	.LBE877:
 2435              	.LBE876:
 2436              	.LBB880:
 2437              	.LBB874:
 2438              		.loc 9 343 55 view .LVU656
 2439 05d2 4045     		cmp	r0, r8
 2440 05d4 18BF     		it	ne
 2441 05d6 42F00102 		orrne	r2, r2, #1
 2442              	.LBE874:
 2443              	.LBE880:
 2444              	.LBB881:
 2445              	.LBB878:
  73:../../libs/libDaisy/src/dev/mpr121.h ****     }
 2446              		.loc 9 73 39 view .LVU657
 2447 05da 94F82C10 		ldrb	r1, [r4, #44]	@ zero_extendqisi2
 2448 05de 6348     		ldr	r0, .L89+92
 2449              	.LVL191:
  73:../../libs/libDaisy/src/dev/mpr121.h ****     }
 2450              		.loc 9 73 39 view .LVU658
 2451              	.LBE878:
 2452              	.LBE881:
 2453              	.LBB882:
 2454              	.LBB875:
 2455              		.loc 9 343 55 view .LVU659
 2456 05e0 84F83020 		strb	r2, [r4, #48]
 2457              	.LVL192:
 2458              		.loc 9 343 55 view .LVU660
 2459              	.LBE875:
 2460              	.LBE882:
 2461              	.LBB883:
 2462              	.LBI876:
  70:../../libs/libDaisy/src/dev/mpr121.h ****     {
 2463              		.loc 9 70 10 is_stmt 1 view .LVU661
 2464              	.LBB879:
  72:../../libs/libDaisy/src/dev/mpr121.h ****                != i2c_.ReceiveBlocking(config_.dev_addr, data, size, 10);
 2465              		.loc 9 72 9 view .LVU662
  73:../../libs/libDaisy/src/dev/mpr121.h ****     }
 2466              		.loc 9 73 39 is_stmt 0 view .LVU663
 2467 05e4 06AA     		add	r2, sp, #24
 2468 05e6 FFF7FEFF 		bl	_ZN5daisy9I2CHandle15ReceiveBlockingEtPhtm
 2469              	.LVL193:
  73:../../libs/libDaisy/src/dev/mpr121.h ****     }
 2470              		.loc 9 73 39 view .LVU664
 2471              	.LBE879:
 2472              	.LBE883:
 2473              	.LBB884:
ARM GAS  C:\Users\skipi\AppData\Local\Temp\ccHKWaHh.s 			page 78


 2474              	.LBI884:
 2475              		.loc 9 343 10 is_stmt 1 view .LVU665
 2476              	.LBB885:
 2477              		.loc 9 343 55 is_stmt 0 view .LVU666
 2478 05ea 94F83020 		ldrb	r2, [r4, #48]	@ zero_extendqisi2
 2479              	.LBE885:
 2480              	.LBE884:
 2481              	.LBB888:
 2482              	.LBB889:
  66:../../libs/libDaisy/src/dev/mpr121.h ****     }
 2483              		.loc 9 66 40 view .LVU667
 2484 05ee 0223     		movs	r3, #2
 2485 05f0 0096     		str	r6, [sp]
 2486              	.LBE889:
 2487              	.LBE888:
 2488              	.LBB892:
 2489              	.LBB886:
 2490              		.loc 9 343 55 view .LVU668
 2491 05f2 4045     		cmp	r0, r8
 2492 05f4 18BF     		it	ne
 2493 05f6 42F00102 		orrne	r2, r2, #1
 2494              	.LBE886:
 2495              	.LBE892:
 2496              	.LBB893:
 2497              	.LBB890:
  66:../../libs/libDaisy/src/dev/mpr121.h ****     }
 2498              		.loc 9 66 40 view .LVU669
 2499 05fa 94F82C10 		ldrb	r1, [r4, #44]	@ zero_extendqisi2
 2500 05fe 5B48     		ldr	r0, .L89+92
 2501              	.LVL194:
  66:../../libs/libDaisy/src/dev/mpr121.h ****     }
 2502              		.loc 9 66 40 view .LVU670
 2503              	.LBE890:
 2504              	.LBE893:
 2505              	.LBB894:
 2506              	.LBB887:
 2507              		.loc 9 343 55 view .LVU671
 2508 0600 84F83020 		strb	r2, [r4, #48]
 2509              	.LVL195:
 2510              		.loc 9 343 55 view .LVU672
 2511              	.LBE887:
 2512              	.LBE894:
 2513              	.LBB895:
 2514              	.LBI888:
  63:../../libs/libDaisy/src/dev/mpr121.h ****     {
 2515              		.loc 9 63 10 is_stmt 1 view .LVU673
 2516              	.LBB891:
  65:../../libs/libDaisy/src/dev/mpr121.h ****                != i2c_.TransmitBlocking(config_.dev_addr, data, size, 10);
 2517              		.loc 9 65 9 view .LVU674
  66:../../libs/libDaisy/src/dev/mpr121.h ****     }
 2518              		.loc 9 66 40 is_stmt 0 view .LVU675
 2519 0604 0BAA     		add	r2, sp, #44
 2520              	.LVL196:
  66:../../libs/libDaisy/src/dev/mpr121.h ****     }
 2521              		.loc 9 66 40 view .LVU676
 2522 0606 FFF7FEFF 		bl	_ZN5daisy9I2CHandle16TransmitBlockingEtPhtm
 2523              	.LVL197:
ARM GAS  C:\Users\skipi\AppData\Local\Temp\ccHKWaHh.s 			page 79


  66:../../libs/libDaisy/src/dev/mpr121.h ****     }
 2524              		.loc 9 66 40 view .LVU677
 2525              	.LBE891:
 2526              	.LBE895:
 2527              	.LBB896:
 2528              	.LBI896:
 2529              		.loc 9 343 10 is_stmt 1 view .LVU678
 2530              	.LBB897:
 2531              		.loc 9 343 55 is_stmt 0 view .LVU679
 2532 060a 94F83020 		ldrb	r2, [r4, #48]	@ zero_extendqisi2
 2533              	.LBE897:
 2534              	.LBE896:
 2535              	.LBB900:
 2536              	.LBB901:
  66:../../libs/libDaisy/src/dev/mpr121.h ****     }
 2537              		.loc 9 66 40 view .LVU680
 2538 060e 0223     		movs	r3, #2
 2539 0610 0096     		str	r6, [sp]
 2540              	.LBE901:
 2541              	.LBE900:
 2542              	.LBB905:
 2543              	.LBB898:
 2544              		.loc 9 343 55 view .LVU681
 2545 0612 4045     		cmp	r0, r8
 2546 0614 18BF     		it	ne
 2547 0616 42F00102 		orrne	r2, r2, #1
 2548              	.LBE898:
 2549              	.LBE905:
 2550              	.LBB906:
 2551              	.LBB902:
  66:../../libs/libDaisy/src/dev/mpr121.h ****     }
 2552              		.loc 9 66 40 view .LVU682
 2553 061a 94F82C10 		ldrb	r1, [r4, #44]	@ zero_extendqisi2
 2554 061e 5348     		ldr	r0, .L89+92
 2555              	.LVL198:
  66:../../libs/libDaisy/src/dev/mpr121.h ****     }
 2556              		.loc 9 66 40 view .LVU683
 2557              	.LBE902:
 2558              	.LBE906:
 2559              	.LBB907:
 2560              	.LBB899:
 2561              		.loc 9 343 55 view .LVU684
 2562 0620 84F83020 		strb	r2, [r4, #48]
 2563              	.LVL199:
 2564              		.loc 9 343 55 view .LVU685
 2565              	.LBE899:
 2566              	.LBE907:
 2567              	.LBB908:
 2568              	.LBI900:
  63:../../libs/libDaisy/src/dev/mpr121.h ****     {
 2569              		.loc 9 63 10 is_stmt 1 view .LVU686
 2570              	.LBB903:
  65:../../libs/libDaisy/src/dev/mpr121.h ****                != i2c_.TransmitBlocking(config_.dev_addr, data, size, 10);
 2571              		.loc 9 65 9 view .LVU687
  66:../../libs/libDaisy/src/dev/mpr121.h ****     }
 2572              		.loc 9 66 40 is_stmt 0 view .LVU688
 2573 0624 0BAA     		add	r2, sp, #44
ARM GAS  C:\Users\skipi\AppData\Local\Temp\ccHKWaHh.s 			page 80


 2574              	.LVL200:
  66:../../libs/libDaisy/src/dev/mpr121.h ****     }
 2575              		.loc 9 66 40 view .LVU689
 2576              	.LBE903:
 2577              	.LBE908:
 281:../../libs/libDaisy/src/dev/mpr121.h ****         buff[1] = value;
 2578              		.loc 9 281 17 view .LVU690
 2579 0626 8DF82C50 		strb	r5, [sp, #44]
 282:../../libs/libDaisy/src/dev/mpr121.h ****         SetTransportErr(transport_.Write(buff, 2));
 2580              		.loc 9 282 17 view .LVU691
 2581 062a 8DF82DA0 		strb	r10, [sp, #45]
 2582              	.LBB909:
 2583              	.LBB904:
  66:../../libs/libDaisy/src/dev/mpr121.h ****     }
 2584              		.loc 9 66 40 view .LVU692
 2585 062e FFF7FEFF 		bl	_ZN5daisy9I2CHandle16TransmitBlockingEtPhtm
 2586              	.LVL201:
  66:../../libs/libDaisy/src/dev/mpr121.h ****     }
 2587              		.loc 9 66 40 view .LVU693
 2588              	.LBE904:
 2589              	.LBE909:
 2590              	.LBB910:
 2591              	.LBI910:
 2592              		.loc 9 343 10 is_stmt 1 view .LVU694
 2593              	.LBB911:
 2594              		.loc 9 343 55 is_stmt 0 view .LVU695
 2595 0632 94F83010 		ldrb	r1, [r4, #48]	@ zero_extendqisi2
 2596              	.LBE911:
 2597              	.LBE910:
 2598              	.LBB914:
 2599              	.LBB915:
  66:../../libs/libDaisy/src/dev/mpr121.h ****     }
 2600              		.loc 9 66 40 view .LVU696
 2601 0636 0BAA     		add	r2, sp, #44
 2602              	.LBE915:
 2603              	.LBE914:
 289:../../libs/libDaisy/src/dev/mpr121.h ****             SetTransportErr(transport_.Write(buff, 2));
 2604              		.loc 9 289 21 view .LVU697
 2605 0638 9DF81830 		ldrb	r3, [sp, #24]	@ zero_extendqisi2
 2606              	.LBB920:
 2607              	.LBB912:
 2608              		.loc 9 343 55 view .LVU698
 2609 063c 4045     		cmp	r0, r8
 2610 063e 18BF     		it	ne
 2611 0640 41F00101 		orrne	r1, r1, #1
 2612              	.LBE912:
 2613              	.LBE920:
 2614              	.LBB921:
 2615              	.LBB916:
  66:../../libs/libDaisy/src/dev/mpr121.h ****     }
 2616              		.loc 9 66 40 view .LVU699
 2617 0644 0096     		str	r6, [sp]
 2618              	.LBE916:
 2619              	.LBE921:
 289:../../libs/libDaisy/src/dev/mpr121.h ****             SetTransportErr(transport_.Write(buff, 2));
 2620              		.loc 9 289 21 view .LVU700
 2621 0646 8DF82D30 		strb	r3, [sp, #45]
ARM GAS  C:\Users\skipi\AppData\Local\Temp\ccHKWaHh.s 			page 81


 2622              	.LBB922:
 2623              	.LBB917:
  66:../../libs/libDaisy/src/dev/mpr121.h ****     }
 2624              		.loc 9 66 40 view .LVU701
 2625 064a 0223     		movs	r3, #2
 2626              	.LBE917:
 2627              	.LBE922:
 2628              	.LBB923:
 2629              	.LBB913:
 2630              		.loc 9 343 55 view .LVU702
 2631 064c 84F83010 		strb	r1, [r4, #48]
 2632              	.LVL202:
 2633              		.loc 9 343 55 view .LVU703
 2634              	.LBE913:
 2635              	.LBE923:
 2636              	.LBB924:
 2637              	.LBI914:
  63:../../libs/libDaisy/src/dev/mpr121.h ****     {
 2638              		.loc 9 63 10 is_stmt 1 view .LVU704
 2639              	.LBB918:
  65:../../libs/libDaisy/src/dev/mpr121.h ****                != i2c_.TransmitBlocking(config_.dev_addr, data, size, 10);
 2640              		.loc 9 65 9 view .LVU705
  66:../../libs/libDaisy/src/dev/mpr121.h ****     }
 2641              		.loc 9 66 40 is_stmt 0 view .LVU706
 2642 0650 4648     		ldr	r0, .L89+92
 2643 0652 94F82C10 		ldrb	r1, [r4, #44]	@ zero_extendqisi2
 2644              	.LBE918:
 2645              	.LBE924:
 288:../../libs/libDaisy/src/dev/mpr121.h ****             buff[1] = ecr_backup;
 2646              		.loc 9 288 21 view .LVU707
 2647 0656 8DF82C70 		strb	r7, [sp, #44]
 2648              	.LBB925:
 2649              	.LBB919:
  66:../../libs/libDaisy/src/dev/mpr121.h ****     }
 2650              		.loc 9 66 40 view .LVU708
 2651 065a FFF7FEFF 		bl	_ZN5daisy9I2CHandle16TransmitBlockingEtPhtm
 2652              	.LVL203:
  66:../../libs/libDaisy/src/dev/mpr121.h ****     }
 2653              		.loc 9 66 40 view .LVU709
 2654              	.LBE919:
 2655              	.LBE925:
 2656              	.LBB926:
 2657              	.LBI926:
 2658              		.loc 9 343 10 is_stmt 1 view .LVU710
 2659              	.LBB927:
 2660              		.loc 9 343 55 is_stmt 0 view .LVU711
 2661 065e 94F83020 		ldrb	r2, [r4, #48]	@ zero_extendqisi2
 2662              	.LBE927:
 2663              	.LBE926:
 2664              	.LBE865:
 2665              	.LBE864:
 2666              	.LBB934:
 2667              	.LBB935:
 2668              	.LBB936:
 2669              	.LBB937:
  66:../../libs/libDaisy/src/dev/mpr121.h ****     }
 2670              		.loc 9 66 40 view .LVU712
ARM GAS  C:\Users\skipi\AppData\Local\Temp\ccHKWaHh.s 			page 82


 2671 0662 0123     		movs	r3, #1
 2672 0664 0096     		str	r6, [sp]
 2673              	.LBE937:
 2674              	.LBE936:
 2675              	.LBE935:
 2676              	.LBE934:
 2677              	.LBB1009:
 2678              	.LBB932:
 2679              	.LBB930:
 2680              	.LBB928:
 2681              		.loc 9 343 55 view .LVU713
 2682 0666 4045     		cmp	r0, r8
 2683 0668 18BF     		it	ne
 2684 066a 42F00102 		orrne	r2, r2, #1
 2685              	.LBE928:
 2686              	.LBE930:
 2687              	.LBE932:
 2688              	.LBE1009:
 2689              	.LBB1010:
 2690              	.LBB1004:
 2691              	.LBB941:
 2692              	.LBB938:
  66:../../libs/libDaisy/src/dev/mpr121.h ****     }
 2693              		.loc 9 66 40 view .LVU714
 2694 066e 94F82C10 		ldrb	r1, [r4, #44]	@ zero_extendqisi2
 2695 0672 3E48     		ldr	r0, .L89+92
 2696              	.LVL204:
  66:../../libs/libDaisy/src/dev/mpr121.h ****     }
 2697              		.loc 9 66 40 view .LVU715
 2698              	.LBE938:
 2699              	.LBE941:
 2700              	.LBE1004:
 2701              	.LBE1010:
 2702              	.LBB1011:
 2703              	.LBB933:
 2704              	.LBB931:
 2705              	.LBB929:
 2706              		.loc 9 343 55 view .LVU716
 2707 0674 84F83020 		strb	r2, [r4, #48]
 2708              	.LVL205:
 2709              		.loc 9 343 55 view .LVU717
 2710              	.LBE929:
 2711              	.LBE931:
 2712              	.LBE933:
 2713              	.LBE1011:
 2714              	.LBB1012:
 2715              	.LBI934:
 257:../../libs/libDaisy/src/dev/mpr121.h ****     {
 2716              		.loc 9 257 10 is_stmt 1 view .LVU718
 2717              	.LBB1005:
 2718              	.LBB942:
 2719              	.LBI936:
  63:../../libs/libDaisy/src/dev/mpr121.h ****     {
 2720              		.loc 9 63 10 view .LVU719
 2721              	.LBB939:
  65:../../libs/libDaisy/src/dev/mpr121.h ****                != i2c_.TransmitBlocking(config_.dev_addr, data, size, 10);
 2722              		.loc 9 65 9 view .LVU720
ARM GAS  C:\Users\skipi\AppData\Local\Temp\ccHKWaHh.s 			page 83


  66:../../libs/libDaisy/src/dev/mpr121.h ****     }
 2723              		.loc 9 66 40 is_stmt 0 view .LVU721
 2724 0678 0BAA     		add	r2, sp, #44
 2725              	.LVL206:
  66:../../libs/libDaisy/src/dev/mpr121.h ****     }
 2726              		.loc 9 66 40 view .LVU722
 2727              	.LBE939:
 2728              	.LBE942:
 264:../../libs/libDaisy/src/dev/mpr121.h **** 
 2729              		.loc 9 264 17 view .LVU723
 2730 067a 8DF82D80 		strb	r8, [sp, #45]
 2731 067e 8DF82C70 		strb	r7, [sp, #44]
 2732              	.LBB943:
 2733              	.LBB940:
  66:../../libs/libDaisy/src/dev/mpr121.h ****     }
 2734              		.loc 9 66 40 view .LVU724
 2735 0682 FFF7FEFF 		bl	_ZN5daisy9I2CHandle16TransmitBlockingEtPhtm
 2736              	.LVL207:
  66:../../libs/libDaisy/src/dev/mpr121.h ****     }
 2737              		.loc 9 66 40 view .LVU725
 2738              	.LBE940:
 2739              	.LBE943:
 2740              	.LBB944:
 2741              	.LBI944:
 2742              		.loc 9 343 10 is_stmt 1 view .LVU726
 2743              	.LBB945:
 2744              		.loc 9 343 55 is_stmt 0 view .LVU727
 2745 0686 94F83020 		ldrb	r2, [r4, #48]	@ zero_extendqisi2
 2746              	.LBE945:
 2747              	.LBE944:
 2748              	.LBB948:
 2749              	.LBB949:
  73:../../libs/libDaisy/src/dev/mpr121.h ****     }
 2750              		.loc 9 73 39 view .LVU728
 2751 068a 0123     		movs	r3, #1
 2752 068c 0096     		str	r6, [sp]
 2753              	.LBE949:
 2754              	.LBE948:
 2755              	.LBB952:
 2756              	.LBB946:
 2757              		.loc 9 343 55 view .LVU729
 2758 068e 4045     		cmp	r0, r8
 2759 0690 18BF     		it	ne
 2760 0692 42F00102 		orrne	r2, r2, #1
 2761              	.LBE946:
 2762              	.LBE952:
 2763              	.LBB953:
 2764              	.LBB950:
  73:../../libs/libDaisy/src/dev/mpr121.h ****     }
 2765              		.loc 9 73 39 view .LVU730
 2766 0696 94F82C10 		ldrb	r1, [r4, #44]	@ zero_extendqisi2
 2767 069a 3448     		ldr	r0, .L89+92
 2768              	.LVL208:
  73:../../libs/libDaisy/src/dev/mpr121.h ****     }
 2769              		.loc 9 73 39 view .LVU731
 2770              	.LBE950:
 2771              	.LBE953:
ARM GAS  C:\Users\skipi\AppData\Local\Temp\ccHKWaHh.s 			page 84


 2772              	.LBB954:
 2773              	.LBB947:
 2774              		.loc 9 343 55 view .LVU732
 2775 069c 84F83020 		strb	r2, [r4, #48]
 2776              	.LVL209:
 2777              		.loc 9 343 55 view .LVU733
 2778              	.LBE947:
 2779              	.LBE954:
 2780              	.LBB955:
 2781              	.LBI948:
  70:../../libs/libDaisy/src/dev/mpr121.h ****     {
 2782              		.loc 9 70 10 is_stmt 1 view .LVU734
 2783              	.LBB951:
  72:../../libs/libDaisy/src/dev/mpr121.h ****                != i2c_.ReceiveBlocking(config_.dev_addr, data, size, 10);
 2784              		.loc 9 72 9 view .LVU735
  73:../../libs/libDaisy/src/dev/mpr121.h ****     }
 2785              		.loc 9 73 39 is_stmt 0 view .LVU736
 2786 06a0 06AA     		add	r2, sp, #24
 2787 06a2 FFF7FEFF 		bl	_ZN5daisy9I2CHandle15ReceiveBlockingEtPhtm
 2788              	.LVL210:
  73:../../libs/libDaisy/src/dev/mpr121.h ****     }
 2789              		.loc 9 73 39 view .LVU737
 2790              	.LBE951:
 2791              	.LBE955:
 2792              	.LBB956:
 2793              	.LBI956:
 2794              		.loc 9 343 10 is_stmt 1 view .LVU738
 2795              	.LBB957:
 2796              		.loc 9 343 55 is_stmt 0 view .LVU739
 2797 06a6 94F83020 		ldrb	r2, [r4, #48]	@ zero_extendqisi2
 2798              	.LBE957:
 2799              	.LBE956:
 2800              	.LBB960:
 2801              	.LBB961:
  66:../../libs/libDaisy/src/dev/mpr121.h ****     }
 2802              		.loc 9 66 40 view .LVU740
 2803 06aa 0223     		movs	r3, #2
 2804 06ac 0096     		str	r6, [sp]
 2805              	.LBE961:
 2806              	.LBE960:
 2807              	.LBB964:
 2808              	.LBB958:
 2809              		.loc 9 343 55 view .LVU741
 2810 06ae 4045     		cmp	r0, r8
 2811 06b0 18BF     		it	ne
 2812 06b2 42F00102 		orrne	r2, r2, #1
 2813              	.LBE958:
 2814              	.LBE964:
 2815              	.LBB965:
 2816              	.LBB962:
  66:../../libs/libDaisy/src/dev/mpr121.h ****     }
 2817              		.loc 9 66 40 view .LVU742
 2818 06b6 94F82C10 		ldrb	r1, [r4, #44]	@ zero_extendqisi2
 2819 06ba 2C48     		ldr	r0, .L89+92
 2820              	.LVL211:
  66:../../libs/libDaisy/src/dev/mpr121.h ****     }
 2821              		.loc 9 66 40 view .LVU743
ARM GAS  C:\Users\skipi\AppData\Local\Temp\ccHKWaHh.s 			page 85


 2822              	.LBE962:
 2823              	.LBE965:
 2824              	.LBB966:
 2825              	.LBB959:
 2826              		.loc 9 343 55 view .LVU744
 2827 06bc 84F83020 		strb	r2, [r4, #48]
 2828              	.LVL212:
 2829              		.loc 9 343 55 view .LVU745
 2830              	.LBE959:
 2831              	.LBE966:
 2832              	.LBB967:
 2833              	.LBI960:
  63:../../libs/libDaisy/src/dev/mpr121.h ****     {
 2834              		.loc 9 63 10 is_stmt 1 view .LVU746
 2835              	.LBB963:
  65:../../libs/libDaisy/src/dev/mpr121.h ****                != i2c_.TransmitBlocking(config_.dev_addr, data, size, 10);
 2836              		.loc 9 65 9 view .LVU747
  66:../../libs/libDaisy/src/dev/mpr121.h ****     }
 2837              		.loc 9 66 40 is_stmt 0 view .LVU748
 2838 06c0 0BAA     		add	r2, sp, #44
 2839              	.LVL213:
  66:../../libs/libDaisy/src/dev/mpr121.h ****     }
 2840              		.loc 9 66 40 view .LVU749
 2841 06c2 FFF7FEFF 		bl	_ZN5daisy9I2CHandle16TransmitBlockingEtPhtm
 2842              	.LVL214:
  66:../../libs/libDaisy/src/dev/mpr121.h ****     }
 2843              		.loc 9 66 40 view .LVU750
 2844              	.LBE963:
 2845              	.LBE967:
 2846              	.LBB968:
 2847              	.LBI968:
 2848              		.loc 9 343 10 is_stmt 1 view .LVU751
 2849              	.LBB969:
 2850              		.loc 9 343 55 is_stmt 0 view .LVU752
 2851 06c6 94F83010 		ldrb	r1, [r4, #48]	@ zero_extendqisi2
 2852              	.LBE969:
 2853              	.LBE968:
 281:../../libs/libDaisy/src/dev/mpr121.h ****         buff[1] = value;
 2854              		.loc 9 281 17 view .LVU753
 2855 06ca 6B1C     		adds	r3, r5, #1
 2856              	.LBB972:
 2857              	.LBB973:
  66:../../libs/libDaisy/src/dev/mpr121.h ****     }
 2858              		.loc 9 66 40 view .LVU754
 2859 06cc 0096     		str	r6, [sp]
 2860              	.LBE973:
 2861              	.LBE972:
 2862              	.LBB979:
 2863              	.LBB970:
 2864              		.loc 9 343 55 view .LVU755
 2865 06ce 4045     		cmp	r0, r8
 2866 06d0 18BF     		it	ne
 2867 06d2 41F00101 		orrne	r1, r1, #1
 2868              	.LBE970:
 2869              	.LBE979:
 2870              	.LBB980:
 2871              	.LBB974:
ARM GAS  C:\Users\skipi\AppData\Local\Temp\ccHKWaHh.s 			page 86


  66:../../libs/libDaisy/src/dev/mpr121.h ****     }
 2872              		.loc 9 66 40 view .LVU756
 2873 06d6 0BAA     		add	r2, sp, #44
 2874              	.LBE974:
 2875              	.LBE980:
 281:../../libs/libDaisy/src/dev/mpr121.h ****         buff[1] = value;
 2876              		.loc 9 281 17 view .LVU757
 2877 06d8 8DF82C30 		strb	r3, [sp, #44]
 2878              	.LBB981:
 2879              	.LBB975:
  66:../../libs/libDaisy/src/dev/mpr121.h ****     }
 2880              		.loc 9 66 40 view .LVU758
 2881 06dc 0223     		movs	r3, #2
 2882              	.LBE975:
 2883              	.LBE981:
 2884              	.LBB982:
 2885              	.LBB971:
 2886              		.loc 9 343 55 view .LVU759
 2887 06de 84F83010 		strb	r1, [r4, #48]
 2888              	.LVL215:
 2889              		.loc 9 343 55 view .LVU760
 2890              	.LBE971:
 2891              	.LBE982:
 2892              	.LBB983:
 2893              	.LBI972:
  63:../../libs/libDaisy/src/dev/mpr121.h ****     {
 2894              		.loc 9 63 10 is_stmt 1 view .LVU761
 2895              	.LBB976:
  65:../../libs/libDaisy/src/dev/mpr121.h ****                != i2c_.TransmitBlocking(config_.dev_addr, data, size, 10);
 2896              		.loc 9 65 9 view .LVU762
 2897              	.LBE976:
 2898              	.LBE983:
 2899              	.LBE1005:
 2900              	.LBE1012:
 186:../../libs/libDaisy/src/dev/mpr121.h ****         {
 2901              		.loc 9 186 30 is_stmt 0 view .LVU763
 2902 06e2 0235     		adds	r5, r5, #2
 2903              	.LVL216:
 2904              	.LBB1013:
 2905              	.LBB1006:
 2906              	.LBB984:
 2907              	.LBB977:
  66:../../libs/libDaisy/src/dev/mpr121.h ****     }
 2908              		.loc 9 66 40 view .LVU764
 2909 06e4 94F82C10 		ldrb	r1, [r4, #44]	@ zero_extendqisi2
 2910 06e8 2048     		ldr	r0, .L89+92
 2911              	.LBE977:
 2912              	.LBE984:
 2913              	.LBE1006:
 2914              	.LBE1013:
 186:../../libs/libDaisy/src/dev/mpr121.h ****         {
 2915              		.loc 9 186 30 view .LVU765
 2916 06ea EDB2     		uxtb	r5, r5
 2917              	.LBB1014:
 2918              	.LBB1007:
 282:../../libs/libDaisy/src/dev/mpr121.h ****         SetTransportErr(transport_.Write(buff, 2));
 2919              		.loc 9 282 17 view .LVU766
ARM GAS  C:\Users\skipi\AppData\Local\Temp\ccHKWaHh.s 			page 87


 2920 06ec 8DF82D90 		strb	r9, [sp, #45]
 2921              	.LBB985:
 2922              	.LBB978:
  66:../../libs/libDaisy/src/dev/mpr121.h ****     }
 2923              		.loc 9 66 40 view .LVU767
 2924 06f0 FFF7FEFF 		bl	_ZN5daisy9I2CHandle16TransmitBlockingEtPhtm
 2925              	.LVL217:
  66:../../libs/libDaisy/src/dev/mpr121.h ****     }
 2926              		.loc 9 66 40 view .LVU768
 2927              	.LBE978:
 2928              	.LBE985:
 2929              	.LBB986:
 2930              	.LBI986:
 2931              		.loc 9 343 10 is_stmt 1 view .LVU769
 2932              	.LBB987:
 2933              		.loc 9 343 55 is_stmt 0 view .LVU770
 2934 06f4 94F83020 		ldrb	r2, [r4, #48]	@ zero_extendqisi2
 2935              	.LBE987:
 2936              	.LBE986:
 2937              	.LBB990:
 2938              	.LBB991:
  66:../../libs/libDaisy/src/dev/mpr121.h ****     }
 2939              		.loc 9 66 40 view .LVU771
 2940 06f8 0223     		movs	r3, #2
 2941 06fa 0096     		str	r6, [sp]
 2942              	.LBE991:
 2943              	.LBE990:
 289:../../libs/libDaisy/src/dev/mpr121.h ****             SetTransportErr(transport_.Write(buff, 2));
 2944              		.loc 9 289 21 view .LVU772
 2945 06fc 9DF81810 		ldrb	r1, [sp, #24]	@ zero_extendqisi2
 2946              	.LBB995:
 2947              	.LBB988:
 2948              		.loc 9 343 55 view .LVU773
 2949 0700 4045     		cmp	r0, r8
 2950 0702 0CBF     		ite	eq
 2951 0704 1646     		moveq	r6, r2
 2952 0706 42F00106 		orrne	r6, r2, #1
 2953              	.LBE988:
 2954              	.LBE995:
 2955              	.LBB996:
 2956              	.LBB992:
  66:../../libs/libDaisy/src/dev/mpr121.h ****     }
 2957              		.loc 9 66 40 view .LVU774
 2958 070a 0BAA     		add	r2, sp, #44
 2959 070c 30E0     		b	.L90
 2960              	.L91:
 2961 070e 00BF     		.align	2
 2962              	.L89:
 2963 0710 00000000 		.word	.LANCHOR28
 2964 0714 00000000 		.word	.LANCHOR29
 2965 0718 00000000 		.word	.LANCHOR56
 2966 071c 00000000 		.word	.LANCHOR0
 2967 0720 00000000 		.word	.LANCHOR2
 2968 0724 00000000 		.word	.LANCHOR57
 2969 0728 00000000 		.word	.LANCHOR69
 2970 072c 00000000 		.word	.LANCHOR58
 2971 0730 00000000 		.word	.LANCHOR59
ARM GAS  C:\Users\skipi\AppData\Local\Temp\ccHKWaHh.s 			page 88


 2972 0734 00000000 		.word	.LANCHOR60
 2973 0738 00000000 		.word	.LANCHOR4
 2974 073c 00000000 		.word	.LANCHOR62
 2975 0740 00000000 		.word	.LANCHOR61
 2976 0744 00000000 		.word	.LANCHOR63
 2977 0748 00000000 		.word	.LANCHOR65
 2978 074c 00000000 		.word	.LANCHOR64
 2979 0750 00000000 		.word	Delay
 2980 0754 00000000 		.word	.LANCHOR66
 2981 0758 00000000 		.word	.LANCHOR67
 2982 075c 00000000 		.word	.LANCHOR68
 2983 0760 00000000 		.word	_ZL13AudioCallbackPKfPfj
 2984 0764 00000000 		.word	.LANCHOR38
 2985 0768 00000000 		.word	.LANCHOR70
 2986 076c 18000000 		.word	.LANCHOR70+24
 2987              	.L90:
 2988 0770 B948     		ldr	r0, .L92
 2989              	.LVL218:
  66:../../libs/libDaisy/src/dev/mpr121.h ****     }
 2990              		.loc 9 66 40 view .LVU775
 2991              	.LBE992:
 2992              	.LBE996:
 289:../../libs/libDaisy/src/dev/mpr121.h ****             SetTransportErr(transport_.Write(buff, 2));
 2993              		.loc 9 289 21 view .LVU776
 2994 0772 8DF82D10 		strb	r1, [sp, #45]
 2995              	.LBB997:
 2996              	.LBB989:
 2997              		.loc 9 343 55 view .LVU777
 2998 0776 84F83060 		strb	r6, [r4, #48]
 2999              	.LVL219:
 3000              		.loc 9 343 55 view .LVU778
 3001              	.LBE989:
 3002              	.LBE997:
 3003              	.LBB998:
 3004              	.LBI990:
  63:../../libs/libDaisy/src/dev/mpr121.h ****     {
 3005              		.loc 9 63 10 is_stmt 1 view .LVU779
 3006              	.LBB993:
  65:../../libs/libDaisy/src/dev/mpr121.h ****                != i2c_.TransmitBlocking(config_.dev_addr, data, size, 10);
 3007              		.loc 9 65 9 view .LVU780
  66:../../libs/libDaisy/src/dev/mpr121.h ****     }
 3008              		.loc 9 66 40 is_stmt 0 view .LVU781
 3009 077a 94F82C10 		ldrb	r1, [r4, #44]	@ zero_extendqisi2
 3010              	.LBE993:
 3011              	.LBE998:
 288:../../libs/libDaisy/src/dev/mpr121.h ****             buff[1] = ecr_backup;
 3012              		.loc 9 288 21 view .LVU782
 3013 077e 8DF82C70 		strb	r7, [sp, #44]
 3014              	.LBB999:
 3015              	.LBB994:
  66:../../libs/libDaisy/src/dev/mpr121.h ****     }
 3016              		.loc 9 66 40 view .LVU783
 3017 0782 FFF7FEFF 		bl	_ZN5daisy9I2CHandle16TransmitBlockingEtPhtm
 3018              	.LVL220:
  66:../../libs/libDaisy/src/dev/mpr121.h ****     }
 3019              		.loc 9 66 40 view .LVU784
 3020              	.LBE994:
ARM GAS  C:\Users\skipi\AppData\Local\Temp\ccHKWaHh.s 			page 89


 3021              	.LBE999:
 3022              	.LBB1000:
 3023              	.LBI1000:
 3024              		.loc 9 343 10 is_stmt 1 view .LVU785
 3025              	.LBB1001:
 3026              		.loc 9 343 55 is_stmt 0 view .LVU786
 3027 0786 94F83030 		ldrb	r3, [r4, #48]	@ zero_extendqisi2
 3028 078a 4045     		cmp	r0, r8
 3029 078c 18BF     		it	ne
 3030 078e 43F00103 		orrne	r3, r3, #1
 3031              	.LBE1001:
 3032              	.LBE1000:
 3033              	.LBE1007:
 3034              	.LBE1014:
 186:../../libs/libDaisy/src/dev/mpr121.h ****         {
 3035              		.loc 9 186 30 view .LVU787
 3036 0792 592D     		cmp	r5, #89
 3037              	.LBB1015:
 3038              	.LBB1008:
 3039              	.LBB1003:
 3040              	.LBB1002:
 3041              		.loc 9 343 55 view .LVU788
 3042 0794 84F83030 		strb	r3, [r4, #48]
 3043              	.LVL221:
 3044              		.loc 9 343 55 view .LVU789
 3045              	.LBE1002:
 3046              	.LBE1003:
 3047              	.LBE1008:
 3048              	.LBE1015:
 186:../../libs/libDaisy/src/dev/mpr121.h ****         {
 3049              		.loc 9 186 9 is_stmt 1 view .LVU790
 186:../../libs/libDaisy/src/dev/mpr121.h ****         {
 3050              		.loc 9 186 30 view .LVU791
 3051 0798 7FF407AF 		bne	.L37
 3052              	.LVL222:
 186:../../libs/libDaisy/src/dev/mpr121.h ****         {
 3053              		.loc 9 186 30 is_stmt 0 view .LVU792
 3054              	.LBE863:
 3055              	.LBE862:
 140:../../libs/libDaisy/src/dev/mpr121.h ****         WriteRegister(MPR121_NHDR, 0x01);
 3056              		.loc 9 140 22 view .LVU793
 3057 079c 0122     		movs	r2, #1
 3058 079e 2B21     		movs	r1, #43
 3059 07a0 AE48     		ldr	r0, .L92+4
 3060 07a2 FFF7FEFF 		bl	_ZN5daisy6Mpr121INS_18Mpr121I2CTransportEE13WriteRegisterEhh
 3061              	.LVL223:
 141:../../libs/libDaisy/src/dev/mpr121.h ****         WriteRegister(MPR121_NCLR, 0x0E);
 3062              		.loc 9 141 22 view .LVU794
 3063 07a6 0122     		movs	r2, #1
 3064 07a8 2C21     		movs	r1, #44
 3065 07aa AC48     		ldr	r0, .L92+4
 3066 07ac FFF7FEFF 		bl	_ZN5daisy6Mpr121INS_18Mpr121I2CTransportEE13WriteRegisterEhh
 3067              	.LVL224:
 142:../../libs/libDaisy/src/dev/mpr121.h ****         WriteRegister(MPR121_FDLR, 0x00);
 3068              		.loc 9 142 22 view .LVU795
 3069 07b0 0E22     		movs	r2, #14
 3070 07b2 2D21     		movs	r1, #45
ARM GAS  C:\Users\skipi\AppData\Local\Temp\ccHKWaHh.s 			page 90


 3071 07b4 A948     		ldr	r0, .L92+4
 3072 07b6 FFF7FEFF 		bl	_ZN5daisy6Mpr121INS_18Mpr121I2CTransportEE13WriteRegisterEhh
 3073              	.LVL225:
 143:../../libs/libDaisy/src/dev/mpr121.h **** 
 3074              		.loc 9 143 22 view .LVU796
 3075 07ba 4246     		mov	r2, r8
 3076 07bc 2E21     		movs	r1, #46
 3077 07be A748     		ldr	r0, .L92+4
 3078 07c0 FFF7FEFF 		bl	_ZN5daisy6Mpr121INS_18Mpr121I2CTransportEE13WriteRegisterEhh
 3079              	.LVL226:
 145:../../libs/libDaisy/src/dev/mpr121.h ****         WriteRegister(MPR121_NHDF, 0x05);
 3080              		.loc 9 145 22 view .LVU797
 3081 07c4 0122     		movs	r2, #1
 3082 07c6 2F21     		movs	r1, #47
 3083 07c8 A448     		ldr	r0, .L92+4
 3084 07ca FFF7FEFF 		bl	_ZN5daisy6Mpr121INS_18Mpr121I2CTransportEE13WriteRegisterEhh
 3085              	.LVL227:
 146:../../libs/libDaisy/src/dev/mpr121.h ****         WriteRegister(MPR121_NCLF, 0x01);
 3086              		.loc 9 146 22 view .LVU798
 3087 07ce 0522     		movs	r2, #5
 3088 07d0 3021     		movs	r1, #48
 3089 07d2 A248     		ldr	r0, .L92+4
 3090 07d4 FFF7FEFF 		bl	_ZN5daisy6Mpr121INS_18Mpr121I2CTransportEE13WriteRegisterEhh
 3091              	.LVL228:
 147:../../libs/libDaisy/src/dev/mpr121.h ****         WriteRegister(MPR121_FDLF, 0x00);
 3092              		.loc 9 147 22 view .LVU799
 3093 07d8 0122     		movs	r2, #1
 3094 07da 3121     		movs	r1, #49
 3095 07dc 9F48     		ldr	r0, .L92+4
 3096 07de FFF7FEFF 		bl	_ZN5daisy6Mpr121INS_18Mpr121I2CTransportEE13WriteRegisterEhh
 3097              	.LVL229:
 148:../../libs/libDaisy/src/dev/mpr121.h **** 
 3098              		.loc 9 148 22 view .LVU800
 3099 07e2 4246     		mov	r2, r8
 3100 07e4 3221     		movs	r1, #50
 3101 07e6 9D48     		ldr	r0, .L92+4
 3102 07e8 FFF7FEFF 		bl	_ZN5daisy6Mpr121INS_18Mpr121I2CTransportEE13WriteRegisterEhh
 3103              	.LVL230:
 150:../../libs/libDaisy/src/dev/mpr121.h ****         WriteRegister(MPR121_NCLT, 0x00);
 3104              		.loc 9 150 22 view .LVU801
 3105 07ec 4246     		mov	r2, r8
 3106 07ee 3321     		movs	r1, #51
 3107 07f0 9A48     		ldr	r0, .L92+4
 3108 07f2 FFF7FEFF 		bl	_ZN5daisy6Mpr121INS_18Mpr121I2CTransportEE13WriteRegisterEhh
 3109              	.LVL231:
 151:../../libs/libDaisy/src/dev/mpr121.h ****         WriteRegister(MPR121_FDLT, 0x00);
 3110              		.loc 9 151 22 view .LVU802
 3111 07f6 4246     		mov	r2, r8
 3112 07f8 3421     		movs	r1, #52
 3113 07fa 9848     		ldr	r0, .L92+4
 3114 07fc FFF7FEFF 		bl	_ZN5daisy6Mpr121INS_18Mpr121I2CTransportEE13WriteRegisterEhh
 3115              	.LVL232:
 152:../../libs/libDaisy/src/dev/mpr121.h **** 
 3116              		.loc 9 152 22 view .LVU803
 3117 0800 4246     		mov	r2, r8
 3118 0802 3521     		movs	r1, #53
 3119 0804 9548     		ldr	r0, .L92+4
ARM GAS  C:\Users\skipi\AppData\Local\Temp\ccHKWaHh.s 			page 91


 3120 0806 FFF7FEFF 		bl	_ZN5daisy6Mpr121INS_18Mpr121I2CTransportEE13WriteRegisterEhh
 3121              	.LVL233:
 154:../../libs/libDaisy/src/dev/mpr121.h ****         WriteRegister(MPR121_CONFIG1, 0x10); // default, 16uA charge current
 3122              		.loc 9 154 22 view .LVU804
 3123 080a 4246     		mov	r2, r8
 3124 080c 5B21     		movs	r1, #91
 3125 080e 9348     		ldr	r0, .L92+4
 3126 0810 FFF7FEFF 		bl	_ZN5daisy6Mpr121INS_18Mpr121I2CTransportEE13WriteRegisterEhh
 3127              	.LVL234:
 155:../../libs/libDaisy/src/dev/mpr121.h ****         WriteRegister(MPR121_CONFIG2, 0x20); // 0.5uS encoding, 1ms period
 3128              		.loc 9 155 22 view .LVU805
 3129 0814 1022     		movs	r2, #16
 3130 0816 5C21     		movs	r1, #92
 3131 0818 9048     		ldr	r0, .L92+4
 3132 081a FFF7FEFF 		bl	_ZN5daisy6Mpr121INS_18Mpr121I2CTransportEE13WriteRegisterEhh
 3133              	.LVL235:
 156:../../libs/libDaisy/src/dev/mpr121.h **** 
 3134              		.loc 9 156 22 view .LVU806
 3135 081e 2022     		movs	r2, #32
 3136 0820 5D21     		movs	r1, #93
 3137 0822 8E48     		ldr	r0, .L92+4
 3138 0824 FFF7FEFF 		bl	_ZN5daisy6Mpr121INS_18Mpr121I2CTransportEE13WriteRegisterEhh
 3139              	.LVL236:
 172:../../libs/libDaisy/src/dev/mpr121.h ****                       ECR_SETTING); // start with above ECR setting
 3140              		.loc 9 172 22 view .LVU807
 3141 0828 8C22     		movs	r2, #140
 3142 082a 3946     		mov	r1, r7
 3143 082c 8B48     		ldr	r0, .L92+4
 3144 082e FFF7FEFF 		bl	_ZN5daisy6Mpr121INS_18Mpr121I2CTransportEE13WriteRegisterEhh
 3145              	.LVL237:
 3146              	.LBB1016:
 3147              	.LBI1016:
 344:../../libs/libDaisy/src/dev/mpr121.h **** 
 345:../../libs/libDaisy/src/dev/mpr121.h ****     /** Get the global transport_error_ bool (as a Result), then reset it */
 346:../../libs/libDaisy/src/dev/mpr121.h ****     Result GetTransportErr()
 3148              		.loc 9 346 12 is_stmt 1 view .LVU808
 3149              	.LBB1017:
 347:../../libs/libDaisy/src/dev/mpr121.h ****     {
 348:../../libs/libDaisy/src/dev/mpr121.h ****         Result ret       = transport_error_ ? ERR : OK;
 3150              		.loc 9 348 45 is_stmt 0 view .LVU809
 3151 0832 94F83030 		ldrb	r3, [r4, #48]	@ zero_extendqisi2
 3152 0836 BBB1     		cbz	r3, .L38
 3153              	.LVL238:
 3154              		.loc 9 348 45 view .LVU810
 3155              	.LBE1017:
 3156              	.LBE1016:
 3157              	.LBE1021:
 3158              	.LBE1046:
 3159              	.LBB1047:
 3160              	.LBB1048:
 128:../../libs/libDaisy/src/daisy_seed.h ****     }
 3161              		.loc 1 128 23 view .LVU811
 3162 0838 8948     		ldr	r0, .L92+8
 3163              	.LBE1048:
 3164              	.LBE1047:
 3165              	.LBB1050:
 3166              	.LBB1022:
ARM GAS  C:\Users\skipi\AppData\Local\Temp\ccHKWaHh.s 			page 92


 3167              	.LBB1019:
 3168              	.LBB1018:
 349:../../libs/libDaisy/src/dev/mpr121.h ****         transport_error_ = false;
 3169              		.loc 9 349 26 view .LVU812
 3170 083a 84F83080 		strb	r8, [r4, #48]
 3171              	.LVL239:
 3172              		.loc 9 349 26 view .LVU813
 3173              	.LBE1018:
 3174              	.LBE1019:
 3175              	.LBE1022:
 3176              	.LBE1050:
 244:main.cpp      **** {
 245:main.cpp      ****   hw.PrintLine("MPR121 not found, check wiring?");
 3177              		.loc 10 245 3 is_stmt 1 view .LVU814
 3178              	.LBB1051:
 3179              	.LBI1047:
 126:../../libs/libDaisy/src/daisy_seed.h ****     {
 3180              		.loc 1 126 17 view .LVU815
 3181              	.LBB1049:
 128:../../libs/libDaisy/src/daisy_seed.h ****     }
 3182              		.loc 1 128 23 is_stmt 0 view .LVU816
 3183 083e FFF7FEFF 		bl	_ZN5daisy6LoggerILNS_17LoggerDestinationE1EE9PrintLineEPKcz
 3184              	.LVL240:
 3185              	.L39:
 128:../../libs/libDaisy/src/daisy_seed.h ****     }
 3186              		.loc 1 128 23 view .LVU817
 3187              	.LBE1049:
 3188              	.LBE1051:
 246:main.cpp      ****   while (1)
 3189              		.loc 10 246 3 is_stmt 1 discriminator 1 view .LVU818
 247:main.cpp      ****   {
 248:main.cpp      ****     hw.SetLed(true);
 3190              		.loc 10 248 5 discriminator 1 view .LVU819
 3191              		.loc 10 248 14 is_stmt 0 discriminator 1 view .LVU820
 3192 0842 0121     		movs	r1, #1
 3193 0844 8748     		ldr	r0, .L92+12
 3194 0846 FFF7FEFF 		bl	_ZN5daisy9DaisySeed6SetLedEb
 3195              	.LVL241:
 249:main.cpp      ****     hw.DelayMs(500);
 3196              		.loc 10 249 5 is_stmt 1 discriminator 1 view .LVU821
 3197              		.loc 10 249 15 is_stmt 0 discriminator 1 view .LVU822
 3198 084a 4FF4FA71 		mov	r1, #500
 3199 084e 8548     		ldr	r0, .L92+12
 3200 0850 FFF7FEFF 		bl	_ZN5daisy9DaisySeed7DelayMsEj
 3201              	.LVL242:
 250:main.cpp      ****     hw.SetLed(false);
 3202              		.loc 10 250 5 is_stmt 1 discriminator 1 view .LVU823
 3203              		.loc 10 250 14 is_stmt 0 discriminator 1 view .LVU824
 3204 0854 0021     		movs	r1, #0
 3205 0856 8348     		ldr	r0, .L92+12
 3206 0858 FFF7FEFF 		bl	_ZN5daisy9DaisySeed6SetLedEb
 3207              	.LVL243:
 251:main.cpp      ****     hw.DelayMs(500);
 3208              		.loc 10 251 5 is_stmt 1 discriminator 1 view .LVU825
 3209              		.loc 10 251 15 is_stmt 0 discriminator 1 view .LVU826
 3210 085c 4FF4FA71 		mov	r1, #500
 3211 0860 8048     		ldr	r0, .L92+12
ARM GAS  C:\Users\skipi\AppData\Local\Temp\ccHKWaHh.s 			page 93


 3212 0862 FFF7FEFF 		bl	_ZN5daisy9DaisySeed7DelayMsEj
 3213              	.LVL244:
 246:main.cpp      ****   {
 3214              		.loc 10 246 3 is_stmt 1 discriminator 1 view .LVU827
 3215 0866 ECE7     		b	.L39
 3216              	.LVL245:
 3217              	.L38:
 252:main.cpp      ****   }
 253:main.cpp      **** }
 254:main.cpp      **** hw.PrintLine("MPR121 found!");
 3218              		.loc 10 254 1 view .LVU828
 3219              	.LBB1052:
 3220              	.LBI1052:
 126:../../libs/libDaisy/src/daisy_seed.h ****     {
 3221              		.loc 1 126 17 view .LVU829
 3222              	.LBB1053:
 128:../../libs/libDaisy/src/daisy_seed.h ****     }
 3223              		.loc 1 128 23 is_stmt 0 view .LVU830
 3224 0868 7F48     		ldr	r0, .L92+16
 3225 086a 804D     		ldr	r5, .L92+20
 3226 086c FFF7FEFF 		bl	_ZN5daisy6LoggerILNS_17LoggerDestinationE1EE9PrintLineEPKcz
 3227              	.LVL246:
 3228 0870 7F4E     		ldr	r6, .L92+24
 3229 0872 DFF830A2 		ldr	r10, .L92+76
 3230 0876 DFF83092 		ldr	r9, .L92+80
 129:../../libs/libDaisy/src/daisy_seed.h **** 
 3231              		.loc 1 129 5 view .LVU831
 3232 087a 12E0     		b	.L40
 3233              	.LVL247:
 3234              	.L41:
 129:../../libs/libDaisy/src/daisy_seed.h **** 
 3235              		.loc 1 129 5 view .LVU832
 3236              	.LBE1053:
 3237              	.LBE1052:
 255:main.cpp      **** 
 256:main.cpp      **** #endif // DEBUG
 257:main.cpp      ****   while (1)
 258:main.cpp      ****   {
 259:main.cpp      **** 
 260:main.cpp      ****     // Pluck
 261:main.cpp      ****     
 262:main.cpp      ****     currtouched = cap.Touched();
 263:main.cpp      **** 
 264:main.cpp      ****     if ((currtouched & _BV(0)) && !(lasttouched & _BV(0)))
 265:main.cpp      ****     {
 266:main.cpp      ****       Gate_pluck = true;
 267:main.cpp      ****       value_pluck = cap.FilteredData(0);
 268:main.cpp      ****       now_f_pluck = p_pluck.discFreq(value_pluck);
 269:main.cpp      ****       #ifdef DEBUG
 270:main.cpp      ****         hw.PrintLine("-----------------------------------------------------------------------------
 271:main.cpp      ****         hw.PrintLine("CAP 0 touched");
 272:main.cpp      ****         hw.PrintLine("%d", (int)cap.FilteredData(0));
 273:main.cpp      ****         hw.PrintLine("-----------------------------------------------------------------------------
 274:main.cpp      ****       #endif // DEBUG
 275:main.cpp      ****       
 276:main.cpp      ****     }
 277:main.cpp      **** 
ARM GAS  C:\Users\skipi\AppData\Local\Temp\ccHKWaHh.s 			page 94


 278:main.cpp      ****     if (!(currtouched & _BV(0)) && (lasttouched & _BV(0)))
 3238              		.loc 10 278 37 discriminator 1 view .LVU833
 3239 087c 3288     		ldrh	r2, [r6]
 3240              		.loc 10 278 33 discriminator 1 view .LVU834
 3241 087e D107     		lsls	r1, r2, #31
 3242 0880 00F1DC80 		bmi	.L81
 3243              	.L42:
 279:main.cpp      ****     {
 280:main.cpp      ****       Gate_pluck = false;
 281:main.cpp      ****       #ifdef DEBUG
 282:main.cpp      ****         hw.PrintLine("-----------------------------------------------------------------------------
 283:main.cpp      ****         hw.PrintLine("CAP 0 released");
 284:main.cpp      ****         hw.PrintLine("-----------------------------------------------------------------------------
 285:main.cpp      ****        #endif // DEBUG
 286:main.cpp      ****     }
 287:main.cpp      **** 
 288:main.cpp      ****     if ((currtouched & _BV(1)) && !(lasttouched & _BV(1)))
 3244              		.loc 10 288 5 is_stmt 1 view .LVU835
 3245 0884 9F07     		lsls	r7, r3, #30
 3246 0886 76D5     		bpl	.L43
 3247              	.L84:
 3248              		.loc 10 288 32 is_stmt 0 discriminator 1 view .LVU836
 3249 0888 9007     		lsls	r0, r2, #30
 3250 088a 40F10F81 		bpl	.L82
 3251              	.L44:
 289:main.cpp      ****     {
 290:main.cpp      ****       Gate_pad = true;
 291:main.cpp      ****       value_pad = cap.FilteredData(1);
 292:main.cpp      ****       now_f_pad = p_pad.discFreq(value_pad);
 293:main.cpp      ****       #ifdef DEBUG
 294:main.cpp      ****         hw.PrintLine("-----------------------------------------------------------------------------
 295:main.cpp      ****         hw.PrintLine("CAP 1 touched");
 296:main.cpp      ****         hw.PrintLine("%d", (int)cap.FilteredData(1));
 297:main.cpp      ****         hw.PrintLine("-----------------------------------------------------------------------------
 298:main.cpp      ****       #endif // DEBUG
 299:main.cpp      ****     }
 300:main.cpp      **** 
 301:main.cpp      ****     if (!(currtouched & _BV(1)) && (lasttouched & _BV(1)))
 302:main.cpp      ****     {
 303:main.cpp      ****       Gate_pad = false;
 304:main.cpp      ****       #ifdef DEBUG
 305:main.cpp      ****         hw.PrintLine("-----------------------------------------------------------------------------
 306:main.cpp      ****         hw.PrintLine("CAP 1 released");
 307:main.cpp      ****         hw.PrintLine("-----------------------------------------------------------------------------
 308:main.cpp      ****        #endif // DEBUG
 309:main.cpp      ****     }
 310:main.cpp      **** 
 311:main.cpp      ****     if ((currtouched & _BV(2)) && !(lasttouched & _BV(2)))
 3252              		.loc 10 311 5 is_stmt 1 view .LVU837
 3253 088e 5807     		lsls	r0, r3, #29
 3254 0890 77D5     		bpl	.L47
 3255              	.L85:
 3256              		.loc 10 311 32 is_stmt 0 discriminator 1 view .LVU838
 3257 0892 5107     		lsls	r1, r2, #29
 3258 0894 40F18580 		bpl	.L83
 3259              	.L48:
 312:main.cpp      ****     {
ARM GAS  C:\Users\skipi\AppData\Local\Temp\ccHKWaHh.s 			page 95


 313:main.cpp      ****       Gate_bass = true;
 314:main.cpp      ****       value_bass = cap.FilteredData(2);
 315:main.cpp      ****       now_f_bass = p_bass.discFreq(value_bass);
 316:main.cpp      ****       #ifdef DEBUG
 317:main.cpp      ****         hw.PrintLine("-----------------------------------------------------------------------------
 318:main.cpp      ****         hw.PrintLine("CAP 2 touched");
 319:main.cpp      ****         hw.PrintLine("%d", (int)cap.FilteredData(2));
 320:main.cpp      ****         hw.PrintLine("-----------------------------------------------------------------------------
 321:main.cpp      ****       #endif // DEBUG
 322:main.cpp      ****     }
 323:main.cpp      ****     if (!(currtouched & _BV(2)) && (lasttouched & _BV(2)))
 324:main.cpp      ****     {
 325:main.cpp      ****       Gate_bass = false;
 326:main.cpp      ****       #ifdef DEBUG
 327:main.cpp      ****         hw.PrintLine("-----------------------------------------------------------------------------
 328:main.cpp      ****         hw.PrintLine("CAP 2 released");
 329:main.cpp      ****         hw.PrintLine("-----------------------------------------------------------------------------
 330:main.cpp      ****        #endif // DEBUG
 331:main.cpp      ****     }
 332:main.cpp      ****     lasttouched = currtouched;
 3260              		.loc 10 332 5 is_stmt 1 view .LVU839
 333:main.cpp      **** 
 334:main.cpp      **** 
 335:main.cpp      ****     hw.DelayMs(1);
 3261              		.loc 10 335 15 is_stmt 0 view .LVU840
 3262 0898 0121     		movs	r1, #1
 3263 089a 7248     		ldr	r0, .L92+12
 332:main.cpp      **** 
 3264              		.loc 10 332 17 view .LVU841
 3265 089c 3380     		strh	r3, [r6]	@ movhi
 3266              		.loc 10 335 5 is_stmt 1 view .LVU842
 3267              		.loc 10 335 15 is_stmt 0 view .LVU843
 3268 089e FFF7FEFF 		bl	_ZN5daisy9DaisySeed7DelayMsEj
 3269              	.LVL248:
 257:main.cpp      ****   {
 3270              		.loc 10 257 3 is_stmt 1 view .LVU844
 3271              	.L40:
 257:main.cpp      ****   {
 3272              		.loc 10 257 3 view .LVU845
 262:main.cpp      **** 
 3273              		.loc 10 262 5 view .LVU846
 3274              	.LBB1054:
 3275              	.LBI1054:
 227:../../libs/libDaisy/src/dev/mpr121.h ****     {
 3276              		.loc 9 227 14 view .LVU847
 3277              	.LBB1055:
 3278              	.LBB1056:
 3279              	.LBI1056:
 244:../../libs/libDaisy/src/dev/mpr121.h ****     {
 3280              		.loc 9 244 14 view .LVU848
 3281              	.LBB1057:
 3282              	.LBB1058:
 3283              	.LBI1058:
  75:../../libs/libDaisy/src/dev/mpr121.h ****     {
 3284              		.loc 9 75 10 view .LVU849
 3285              	.LBB1059:
  77:../../libs/libDaisy/src/dev/mpr121.h ****                != i2c_.Mem_read(
ARM GAS  C:\Users\skipi\AppData\Local\Temp\ccHKWaHh.s 			page 96


 3286              		.loc 9 77 9 view .LVU850
  78:../../libs/libDaisy/src/dev/mpr121.h ****                    config_.dev_addr, memAddress, 1, data, memSize, 10);
 3287              		.loc 9 78 32 is_stmt 0 view .LVU851
 3288 08a2 0227     		movs	r7, #2
 3289 08a4 4FF00A08 		mov	r8, #10
 3290 08a8 0123     		movs	r3, #1
 3291 08aa 0022     		movs	r2, #0
 3292 08ac CDF800B0 		str	fp, [sp]
 3293 08b0 6948     		ldr	r0, .L92
 3294 08b2 CDE90178 		strd	r7, r8, [sp, #4]
 3295 08b6 94F82C10 		ldrb	r1, [r4, #44]	@ zero_extendqisi2
 3296 08ba FFF7FEFF 		bl	_ZN5daisy9I2CHandle8Mem_readEtttPhtm
 3297              	.LVL249:
  78:../../libs/libDaisy/src/dev/mpr121.h ****                    config_.dev_addr, memAddress, 1, data, memSize, 10);
 3298              		.loc 9 78 32 view .LVU852
 3299              	.LBE1059:
 3300              	.LBE1058:
 3301              	.LBB1060:
 3302              	.LBI1060:
 343:../../libs/libDaisy/src/dev/mpr121.h **** 
 3303              		.loc 9 343 10 is_stmt 1 view .LVU853
 3304              	.LBB1061:
 343:../../libs/libDaisy/src/dev/mpr121.h **** 
 3305              		.loc 9 343 55 is_stmt 0 view .LVU854
 3306 08be 94F83030 		ldrb	r3, [r4, #48]	@ zero_extendqisi2
 3307              	.LBE1061:
 3308              	.LBE1060:
 250:../../libs/libDaisy/src/dev/mpr121.h ****     }
 3309              		.loc 9 250 16 view .LVU855
 3310 08c2 BDF84020 		ldrh	r2, [sp, #64]
 3311              	.LBB1064:
 3312              	.LBB1062:
 343:../../libs/libDaisy/src/dev/mpr121.h **** 
 3313              		.loc 9 343 55 view .LVU856
 3314 08c6 0028     		cmp	r0, #0
 3315 08c8 18BF     		it	ne
 3316 08ca 43F00103 		orrne	r3, r3, #1
 3317              	.LBE1062:
 3318              	.LBE1064:
 3319              	.LBE1057:
 3320              	.LBE1056:
 3321              	.LBE1055:
 3322              	.LBE1054:
 264:main.cpp      ****     {
 3323              		.loc 10 264 5 view .LVU857
 3324 08ce D007     		lsls	r0, r2, #31
 3325              	.LVL250:
 3326              	.LBB1069:
 3327              	.LBB1068:
 3328              	.LBB1067:
 3329              	.LBB1066:
 3330              	.LBB1065:
 3331              	.LBB1063:
 343:../../libs/libDaisy/src/dev/mpr121.h **** 
 3332              		.loc 9 343 55 view .LVU858
 3333 08d0 84F83030 		strb	r3, [r4, #48]
 3334              	.LVL251:
ARM GAS  C:\Users\skipi\AppData\Local\Temp\ccHKWaHh.s 			page 97


 343:../../libs/libDaisy/src/dev/mpr121.h **** 
 3335              		.loc 9 343 55 view .LVU859
 3336              	.LBE1063:
 3337              	.LBE1065:
 3338              	.LBE1066:
 3339              	.LBE1067:
 230:../../libs/libDaisy/src/dev/mpr121.h ****     }
 3340              		.loc 9 230 20 view .LVU860
 3341 08d4 C2F30B03 		ubfx	r3, r2, #0, #12
 3342              	.LVL252:
 230:../../libs/libDaisy/src/dev/mpr121.h ****     }
 3343              		.loc 9 230 20 view .LVU861
 3344              	.LBE1068:
 3345              	.LBE1069:
 262:main.cpp      **** 
 3346              		.loc 10 262 17 view .LVU862
 3347 08d8 2B80     		strh	r3, [r5]	@ movhi
 264:main.cpp      ****     {
 3348              		.loc 10 264 5 is_stmt 1 view .LVU863
 3349 08da CFD5     		bpl	.L41
 264:main.cpp      ****     {
 3350              		.loc 10 264 37 is_stmt 0 discriminator 1 view .LVU864
 3351 08dc 3288     		ldrh	r2, [r6]
 264:main.cpp      ****     {
 3352              		.loc 10 264 32 discriminator 1 view .LVU865
 3353 08de D107     		lsls	r1, r2, #31
 3354 08e0 D0D4     		bmi	.L42
 266:main.cpp      ****       value_pluck = cap.FilteredData(0);
 3355              		.loc 10 266 7 is_stmt 1 view .LVU866
 266:main.cpp      ****       value_pluck = cap.FilteredData(0);
 3356              		.loc 10 266 18 is_stmt 0 view .LVU867
 3357 08e2 0123     		movs	r3, #1
 3358              	.LBB1070:
 3359              	.LBB1071:
 3360              	.LBB1072:
 3361              	.LBB1073:
 3362              	.LBB1074:
 3363              	.LBB1075:
  78:../../libs/libDaisy/src/dev/mpr121.h ****                    config_.dev_addr, memAddress, 1, data, memSize, 10);
 3364              		.loc 9 78 32 view .LVU868
 3365 08e4 CDF800B0 		str	fp, [sp]
 3366 08e8 0422     		movs	r2, #4
 3367 08ea 5B48     		ldr	r0, .L92
 3368 08ec CDE90178 		strd	r7, r8, [sp, #4]
 3369              	.LBE1075:
 3370              	.LBE1074:
 3371              	.LBE1073:
 3372              	.LBE1072:
 3373              	.LBE1071:
 3374              	.LBE1070:
 266:main.cpp      ****       value_pluck = cap.FilteredData(0);
 3375              		.loc 10 266 18 view .LVU869
 3376 08f0 8AF80030 		strb	r3, [r10]
 267:main.cpp      ****       now_f_pluck = p_pluck.discFreq(value_pluck);
 3377              		.loc 10 267 7 is_stmt 1 view .LVU870
 3378              	.LVL253:
 3379              	.LBB1090:
ARM GAS  C:\Users\skipi\AppData\Local\Temp\ccHKWaHh.s 			page 98


 3380              	.LBI1070:
 201:../../libs/libDaisy/src/dev/mpr121.h ****     {
 3381              		.loc 9 201 14 view .LVU871
 3382              	.LBB1088:
 3383              	.LBI1071:
 201:../../libs/libDaisy/src/dev/mpr121.h ****     {
 3384              		.loc 9 201 14 view .LVU872
 3385              	.LBB1086:
 3386              	.LBI1072:
 244:../../libs/libDaisy/src/dev/mpr121.h ****     {
 3387              		.loc 9 244 14 view .LVU873
 3388              	.LBB1084:
 3389              	.LBB1077:
 3390              	.LBI1074:
  75:../../libs/libDaisy/src/dev/mpr121.h ****     {
 3391              		.loc 9 75 10 view .LVU874
 3392              	.LBB1076:
  77:../../libs/libDaisy/src/dev/mpr121.h ****                != i2c_.Mem_read(
 3393              		.loc 9 77 9 view .LVU875
  78:../../libs/libDaisy/src/dev/mpr121.h ****                    config_.dev_addr, memAddress, 1, data, memSize, 10);
 3394              		.loc 9 78 32 is_stmt 0 view .LVU876
 3395 08f4 94F82C10 		ldrb	r1, [r4, #44]	@ zero_extendqisi2
 3396 08f8 FFF7FEFF 		bl	_ZN5daisy9I2CHandle8Mem_readEtttPhtm
 3397              	.LVL254:
  78:../../libs/libDaisy/src/dev/mpr121.h ****                    config_.dev_addr, memAddress, 1, data, memSize, 10);
 3398              		.loc 9 78 32 view .LVU877
 3399              	.LBE1076:
 3400              	.LBE1077:
 3401              	.LBB1078:
 3402              	.LBI1078:
 343:../../libs/libDaisy/src/dev/mpr121.h **** 
 3403              		.loc 9 343 10 is_stmt 1 view .LVU878
 3404              	.LBB1079:
 343:../../libs/libDaisy/src/dev/mpr121.h **** 
 3405              		.loc 9 343 55 is_stmt 0 view .LVU879
 3406 08fc 94F83020 		ldrb	r2, [r4, #48]	@ zero_extendqisi2
 3407              	.LBE1079:
 3408              	.LBE1078:
 250:../../libs/libDaisy/src/dev/mpr121.h ****     }
 3409              		.loc 9 250 16 view .LVU880
 3410 0900 BDF84010 		ldrh	r1, [sp, #64]
 3411              	.LBB1082:
 3412              	.LBB1080:
 343:../../libs/libDaisy/src/dev/mpr121.h **** 
 3413              		.loc 9 343 55 view .LVU881
 3414 0904 0028     		cmp	r0, #0
 3415 0906 18BF     		it	ne
 3416 0908 42F00102 		orrne	r2, r2, #1
 3417              	.LBE1080:
 3418              	.LBE1082:
 3419              	.LBE1084:
 3420              	.LBE1086:
 3421              	.LBE1088:
 3422              	.LBE1090:
 267:main.cpp      ****       now_f_pluck = p_pluck.discFreq(value_pluck);
 3423              		.loc 10 267 19 view .LVU882
 3424 090c 594B     		ldr	r3, .L92+28
ARM GAS  C:\Users\skipi\AppData\Local\Temp\ccHKWaHh.s 			page 99


 268:main.cpp      ****       #ifdef DEBUG
 3425              		.loc 10 268 37 view .LVU883
 3426 090e 5A48     		ldr	r0, .L92+32
 3427              	.LVL255:
 267:main.cpp      ****       now_f_pluck = p_pluck.discFreq(value_pluck);
 3428              		.loc 10 267 19 view .LVU884
 3429 0910 1980     		strh	r1, [r3]	@ movhi
 3430              	.LBB1091:
 3431              	.LBB1089:
 3432              	.LBB1087:
 3433              	.LBB1085:
 3434              	.LBB1083:
 3435              	.LBB1081:
 343:../../libs/libDaisy/src/dev/mpr121.h **** 
 3436              		.loc 9 343 55 view .LVU885
 3437 0912 84F83020 		strb	r2, [r4, #48]
 3438              	.LVL256:
 343:../../libs/libDaisy/src/dev/mpr121.h **** 
 3439              		.loc 9 343 55 view .LVU886
 3440              	.LBE1081:
 3441              	.LBE1083:
 3442              	.LBE1085:
 3443              	.LBE1087:
 3444              	.LBE1089:
 3445              	.LBE1091:
 268:main.cpp      ****       #ifdef DEBUG
 3446              		.loc 10 268 7 is_stmt 1 view .LVU887
 268:main.cpp      ****       #ifdef DEBUG
 3447              		.loc 10 268 37 is_stmt 0 view .LVU888
 3448 0916 FFF7FEFF 		bl	_ZN11pentaPianta8discFreqEt
 3449              	.LVL257:
 268:main.cpp      ****       #ifdef DEBUG
 3450              		.loc 10 268 19 view .LVU889
 3451 091a 07EE900A 		vmov	s15, r0	@ int
 3452 091e 574B     		ldr	r3, .L92+36
 3453              	.LBB1092:
 3454              	.LBB1093:
 128:../../libs/libDaisy/src/daisy_seed.h ****     }
 3455              		.loc 1 128 23 view .LVU890
 3456 0920 5748     		ldr	r0, .L92+40
 3457              	.LBE1093:
 3458              	.LBE1092:
 268:main.cpp      ****       #ifdef DEBUG
 3459              		.loc 10 268 19 view .LVU891
 3460 0922 F8EE677A 		vcvt.f32.u32	s15, s15
 3461 0926 C3ED007A 		vstr.32	s15, [r3]
 270:main.cpp      ****         hw.PrintLine("CAP 0 touched");
 3462              		.loc 10 270 9 is_stmt 1 view .LVU892
 3463              	.LVL258:
 3464              	.LBB1095:
 3465              	.LBI1092:
 126:../../libs/libDaisy/src/daisy_seed.h ****     {
 3466              		.loc 1 126 17 view .LVU893
 3467              	.LBB1094:
 128:../../libs/libDaisy/src/daisy_seed.h ****     }
 3468              		.loc 1 128 23 is_stmt 0 view .LVU894
 3469 092a FFF7FEFF 		bl	_ZN5daisy6LoggerILNS_17LoggerDestinationE1EE9PrintLineEPKcz
ARM GAS  C:\Users\skipi\AppData\Local\Temp\ccHKWaHh.s 			page 100


 3470              	.LVL259:
 128:../../libs/libDaisy/src/daisy_seed.h ****     }
 3471              		.loc 1 128 23 view .LVU895
 3472              	.LBE1094:
 3473              	.LBE1095:
 271:main.cpp      ****         hw.PrintLine("%d", (int)cap.FilteredData(0));
 3474              		.loc 10 271 9 is_stmt 1 view .LVU896
 3475              	.LBB1096:
 3476              	.LBI1096:
 126:../../libs/libDaisy/src/daisy_seed.h ****     {
 3477              		.loc 1 126 17 view .LVU897
 3478              	.LBB1097:
 128:../../libs/libDaisy/src/daisy_seed.h ****     }
 3479              		.loc 1 128 23 is_stmt 0 view .LVU898
 3480 092e 5548     		ldr	r0, .L92+44
 3481 0930 FFF7FEFF 		bl	_ZN5daisy6LoggerILNS_17LoggerDestinationE1EE9PrintLineEPKcz
 3482              	.LVL260:
 128:../../libs/libDaisy/src/daisy_seed.h ****     }
 3483              		.loc 1 128 23 view .LVU899
 3484              	.LBE1097:
 3485              	.LBE1096:
 272:main.cpp      ****         hw.PrintLine("-----------------------------------------------------------------------------
 3486              		.loc 10 272 9 is_stmt 1 view .LVU900
 3487              	.LBB1098:
 3488              	.LBI1098:
 201:../../libs/libDaisy/src/dev/mpr121.h ****     {
 3489              		.loc 9 201 14 view .LVU901
 3490              	.LBB1099:
 3491              	.LBI1099:
 201:../../libs/libDaisy/src/dev/mpr121.h ****     {
 3492              		.loc 9 201 14 view .LVU902
 3493              	.LBB1100:
 3494              	.LBI1100:
 244:../../libs/libDaisy/src/dev/mpr121.h ****     {
 3495              		.loc 9 244 14 view .LVU903
 3496              	.LBB1101:
 3497              	.LBB1102:
 3498              	.LBI1102:
  75:../../libs/libDaisy/src/dev/mpr121.h ****     {
 3499              		.loc 9 75 10 view .LVU904
 3500              	.LBB1103:
  77:../../libs/libDaisy/src/dev/mpr121.h ****                != i2c_.Mem_read(
 3501              		.loc 9 77 9 view .LVU905
  78:../../libs/libDaisy/src/dev/mpr121.h ****                    config_.dev_addr, memAddress, 1, data, memSize, 10);
 3502              		.loc 9 78 32 is_stmt 0 view .LVU906
 3503 0934 0422     		movs	r2, #4
 3504 0936 0123     		movs	r3, #1
 3505 0938 CDF800B0 		str	fp, [sp]
 3506 093c 4648     		ldr	r0, .L92
 3507 093e CDE90178 		strd	r7, r8, [sp, #4]
 3508 0942 94F82C10 		ldrb	r1, [r4, #44]	@ zero_extendqisi2
 3509 0946 FFF7FEFF 		bl	_ZN5daisy9I2CHandle8Mem_readEtttPhtm
 3510              	.LVL261:
  78:../../libs/libDaisy/src/dev/mpr121.h ****                    config_.dev_addr, memAddress, 1, data, memSize, 10);
 3511              		.loc 9 78 32 view .LVU907
 3512              	.LBE1103:
 3513              	.LBE1102:
ARM GAS  C:\Users\skipi\AppData\Local\Temp\ccHKWaHh.s 			page 101


 3514              	.LBB1104:
 3515              	.LBI1104:
 343:../../libs/libDaisy/src/dev/mpr121.h **** 
 3516              		.loc 9 343 10 is_stmt 1 view .LVU908
 3517              	.LBB1105:
 343:../../libs/libDaisy/src/dev/mpr121.h **** 
 3518              		.loc 9 343 55 is_stmt 0 view .LVU909
 3519 094a 94F83030 		ldrb	r3, [r4, #48]	@ zero_extendqisi2
 3520              	.LBE1105:
 3521              	.LBE1104:
 3522              	.LBE1101:
 3523              	.LBE1100:
 3524              	.LBE1099:
 3525              	.LBE1098:
 3526              	.LBB1116:
 3527              	.LBB1117:
 128:../../libs/libDaisy/src/daisy_seed.h ****     }
 3528              		.loc 1 128 23 view .LVU910
 3529 094e BDF84010 		ldrh	r1, [sp, #64]
 3530              	.LBE1117:
 3531              	.LBE1116:
 3532              	.LBB1120:
 3533              	.LBB1114:
 3534              	.LBB1112:
 3535              	.LBB1110:
 3536              	.LBB1108:
 3537              	.LBB1106:
 343:../../libs/libDaisy/src/dev/mpr121.h **** 
 3538              		.loc 9 343 55 view .LVU911
 3539 0952 0028     		cmp	r0, #0
 3540 0954 18BF     		it	ne
 3541 0956 43F00103 		orrne	r3, r3, #1
 3542              	.LBE1106:
 3543              	.LBE1108:
 3544              	.LBE1110:
 3545              	.LBE1112:
 3546              	.LBE1114:
 3547              	.LBE1120:
 3548              	.LBB1121:
 3549              	.LBB1118:
 128:../../libs/libDaisy/src/daisy_seed.h ****     }
 3550              		.loc 1 128 23 view .LVU912
 3551 095a 4B48     		ldr	r0, .L92+48
 3552              	.LVL262:
 128:../../libs/libDaisy/src/daisy_seed.h ****     }
 3553              		.loc 1 128 23 view .LVU913
 3554              	.LBE1118:
 3555              	.LBE1121:
 3556              	.LBB1122:
 3557              	.LBB1115:
 3558              	.LBB1113:
 3559              	.LBB1111:
 3560              	.LBB1109:
 3561              	.LBB1107:
 343:../../libs/libDaisy/src/dev/mpr121.h **** 
 3562              		.loc 9 343 55 view .LVU914
 3563 095c 84F83030 		strb	r3, [r4, #48]
ARM GAS  C:\Users\skipi\AppData\Local\Temp\ccHKWaHh.s 			page 102


 3564              	.LVL263:
 343:../../libs/libDaisy/src/dev/mpr121.h **** 
 3565              		.loc 9 343 55 view .LVU915
 3566              	.LBE1107:
 3567              	.LBE1109:
 3568              	.LBE1111:
 3569              	.LBE1113:
 3570              	.LBE1115:
 3571              	.LBE1122:
 3572              	.LBB1123:
 3573              	.LBI1116:
 126:../../libs/libDaisy/src/daisy_seed.h ****     {
 3574              		.loc 1 126 17 is_stmt 1 view .LVU916
 3575              	.LBB1119:
 128:../../libs/libDaisy/src/daisy_seed.h ****     }
 3576              		.loc 1 128 23 is_stmt 0 view .LVU917
 3577 0960 FFF7FEFF 		bl	_ZN5daisy6LoggerILNS_17LoggerDestinationE1EE9PrintLineEPKcz
 3578              	.LVL264:
 128:../../libs/libDaisy/src/daisy_seed.h ****     }
 3579              		.loc 1 128 23 view .LVU918
 3580              	.LBE1119:
 3581              	.LBE1123:
 273:main.cpp      ****       #endif // DEBUG
 3582              		.loc 10 273 9 is_stmt 1 view .LVU919
 3583              	.LBB1124:
 3584              	.LBI1124:
 126:../../libs/libDaisy/src/daisy_seed.h ****     {
 3585              		.loc 1 126 17 view .LVU920
 3586              	.LBB1125:
 128:../../libs/libDaisy/src/daisy_seed.h ****     }
 3587              		.loc 1 128 23 is_stmt 0 view .LVU921
 3588 0964 4648     		ldr	r0, .L92+40
 3589 0966 FFF7FEFF 		bl	_ZN5daisy6LoggerILNS_17LoggerDestinationE1EE9PrintLineEPKcz
 3590              	.LVL265:
 3591              	.LBE1125:
 3592              	.LBE1124:
 278:main.cpp      ****     {
 3593              		.loc 10 278 11 view .LVU922
 3594 096a 2B88     		ldrh	r3, [r5]
 3595              	.LVL266:
 278:main.cpp      ****     {
 3596              		.loc 10 278 5 is_stmt 1 view .LVU923
 3597 096c D807     		lsls	r0, r3, #31
 3598 096e 85D5     		bpl	.L41
 3599              	.L79:
 288:main.cpp      ****     {
 3600              		.loc 10 288 5 is_stmt 0 view .LVU924
 3601 0970 9F07     		lsls	r7, r3, #30
 288:main.cpp      ****     {
 3602              		.loc 10 288 37 view .LVU925
 3603 0972 3288     		ldrh	r2, [r6]
 288:main.cpp      ****     {
 3604              		.loc 10 288 5 is_stmt 1 view .LVU926
 3605 0974 88D4     		bmi	.L84
 3606              	.L43:
 301:main.cpp      ****     {
 3607              		.loc 10 301 33 is_stmt 0 discriminator 1 view .LVU927
ARM GAS  C:\Users\skipi\AppData\Local\Temp\ccHKWaHh.s 			page 103


 3608 0976 9707     		lsls	r7, r2, #30
 3609 0978 00F1E580 		bmi	.L46
 311:main.cpp      ****     {
 3610              		.loc 10 311 10 view .LVU928
 3611 097c 2B88     		ldrh	r3, [r5]
 311:main.cpp      ****     {
 3612              		.loc 10 311 5 is_stmt 1 view .LVU929
 3613 097e 5807     		lsls	r0, r3, #29
 3614 0980 87D4     		bmi	.L85
 3615              	.L47:
 323:main.cpp      ****     {
 3616              		.loc 10 323 33 is_stmt 0 discriminator 1 view .LVU930
 3617 0982 5307     		lsls	r3, r2, #29
 3618 0984 0BD5     		bpl	.L80
 325:main.cpp      ****       #ifdef DEBUG
 3619              		.loc 10 325 7 is_stmt 1 view .LVU931
 325:main.cpp      ****       #ifdef DEBUG
 3620              		.loc 10 325 17 is_stmt 0 view .LVU932
 3621 0986 0023     		movs	r3, #0
 3622              	.LBB1126:
 3623              	.LBB1127:
 128:../../libs/libDaisy/src/daisy_seed.h ****     }
 3624              		.loc 1 128 23 view .LVU933
 3625 0988 3D48     		ldr	r0, .L92+40
 3626              	.LBE1127:
 3627              	.LBE1126:
 325:main.cpp      ****       #ifdef DEBUG
 3628              		.loc 10 325 17 view .LVU934
 3629 098a 89F80030 		strb	r3, [r9]
 327:main.cpp      ****         hw.PrintLine("CAP 2 released");
 3630              		.loc 10 327 9 is_stmt 1 view .LVU935
 3631              	.LVL267:
 3632              	.LBB1129:
 3633              	.LBI1126:
 126:../../libs/libDaisy/src/daisy_seed.h ****     {
 3634              		.loc 1 126 17 view .LVU936
 3635              	.LBB1128:
 128:../../libs/libDaisy/src/daisy_seed.h ****     }
 3636              		.loc 1 128 23 is_stmt 0 view .LVU937
 3637 098e FFF7FEFF 		bl	_ZN5daisy6LoggerILNS_17LoggerDestinationE1EE9PrintLineEPKcz
 3638              	.LVL268:
 128:../../libs/libDaisy/src/daisy_seed.h ****     }
 3639              		.loc 1 128 23 view .LVU938
 3640              	.LBE1128:
 3641              	.LBE1129:
 328:main.cpp      ****         hw.PrintLine("-----------------------------------------------------------------------------
 3642              		.loc 10 328 9 is_stmt 1 view .LVU939
 3643              	.LBB1130:
 3644              	.LBI1130:
 126:../../libs/libDaisy/src/daisy_seed.h ****     {
 3645              		.loc 1 126 17 view .LVU940
 3646              	.LBB1131:
 128:../../libs/libDaisy/src/daisy_seed.h ****     }
 3647              		.loc 1 128 23 is_stmt 0 view .LVU941
 3648 0992 3E48     		ldr	r0, .L92+52
 3649 0994 FFF7FEFF 		bl	_ZN5daisy6LoggerILNS_17LoggerDestinationE1EE9PrintLineEPKcz
 3650              	.LVL269:
ARM GAS  C:\Users\skipi\AppData\Local\Temp\ccHKWaHh.s 			page 104


 128:../../libs/libDaisy/src/daisy_seed.h ****     }
 3651              		.loc 1 128 23 view .LVU942
 3652              	.LBE1131:
 3653              	.LBE1130:
 329:main.cpp      ****        #endif // DEBUG
 3654              		.loc 10 329 9 is_stmt 1 view .LVU943
 3655              	.LBB1132:
 3656              	.LBI1132:
 126:../../libs/libDaisy/src/daisy_seed.h ****     {
 3657              		.loc 1 126 17 view .LVU944
 3658              	.LBB1133:
 128:../../libs/libDaisy/src/daisy_seed.h ****     }
 3659              		.loc 1 128 23 is_stmt 0 view .LVU945
 3660 0998 3948     		ldr	r0, .L92+40
 3661 099a FFF7FEFF 		bl	_ZN5daisy6LoggerILNS_17LoggerDestinationE1EE9PrintLineEPKcz
 3662              	.LVL270:
 3663              	.L80:
 128:../../libs/libDaisy/src/daisy_seed.h ****     }
 3664              		.loc 1 128 23 view .LVU946
 3665              	.LBE1133:
 3666              	.LBE1132:
 332:main.cpp      **** 
 3667              		.loc 10 332 17 view .LVU947
 3668 099e 2B88     		ldrh	r3, [r5]
 3669              	.LBB1135:
 3670              	.LBB1134:
 129:../../libs/libDaisy/src/daisy_seed.h **** 
 3671              		.loc 1 129 5 view .LVU948
 3672 09a0 7AE7     		b	.L48
 3673              	.L83:
 3674              	.LBE1134:
 3675              	.LBE1135:
 313:main.cpp      ****       value_bass = cap.FilteredData(2);
 3676              		.loc 10 313 7 is_stmt 1 view .LVU949
 313:main.cpp      ****       value_bass = cap.FilteredData(2);
 3677              		.loc 10 313 17 is_stmt 0 view .LVU950
 3678 09a2 0123     		movs	r3, #1
 3679              	.LBB1136:
 3680              	.LBB1137:
 3681              	.LBB1138:
 3682              	.LBB1139:
 3683              	.LBB1140:
 3684              	.LBB1141:
  78:../../libs/libDaisy/src/dev/mpr121.h ****                    config_.dev_addr, memAddress, 1, data, memSize, 10);
 3685              		.loc 9 78 32 view .LVU951
 3686 09a4 0227     		movs	r7, #2
 3687 09a6 4FF00A08 		mov	r8, #10
 3688 09aa CDF800B0 		str	fp, [sp]
 3689 09ae 0822     		movs	r2, #8
 3690              	.LBE1141:
 3691              	.LBE1140:
 3692              	.LBE1139:
 3693              	.LBE1138:
 3694              	.LBE1137:
 3695              	.LBE1136:
 313:main.cpp      ****       value_bass = cap.FilteredData(2);
 3696              		.loc 10 313 17 view .LVU952
ARM GAS  C:\Users\skipi\AppData\Local\Temp\ccHKWaHh.s 			page 105


 3697 09b0 89F80030 		strb	r3, [r9]
 314:main.cpp      ****       now_f_bass = p_bass.discFreq(value_bass);
 3698              		.loc 10 314 7 is_stmt 1 view .LVU953
 3699              	.LVL271:
 3700              	.LBB1156:
 3701              	.LBI1136:
 201:../../libs/libDaisy/src/dev/mpr121.h ****     {
 3702              		.loc 9 201 14 view .LVU954
 3703              	.LBB1154:
 3704              	.LBI1137:
 201:../../libs/libDaisy/src/dev/mpr121.h ****     {
 3705              		.loc 9 201 14 view .LVU955
 3706              	.LBB1152:
 3707              	.LBI1138:
 244:../../libs/libDaisy/src/dev/mpr121.h ****     {
 3708              		.loc 9 244 14 view .LVU956
 3709              	.LBB1150:
 3710              	.LBB1143:
 3711              	.LBI1140:
  75:../../libs/libDaisy/src/dev/mpr121.h ****     {
 3712              		.loc 9 75 10 view .LVU957
 3713              	.LBB1142:
  77:../../libs/libDaisy/src/dev/mpr121.h ****                != i2c_.Mem_read(
 3714              		.loc 9 77 9 view .LVU958
  78:../../libs/libDaisy/src/dev/mpr121.h ****                    config_.dev_addr, memAddress, 1, data, memSize, 10);
 3715              		.loc 9 78 32 is_stmt 0 view .LVU959
 3716 09b4 2848     		ldr	r0, .L92
 3717 09b6 CDE90178 		strd	r7, r8, [sp, #4]
 3718 09ba 94F82C10 		ldrb	r1, [r4, #44]	@ zero_extendqisi2
 3719 09be FFF7FEFF 		bl	_ZN5daisy9I2CHandle8Mem_readEtttPhtm
 3720              	.LVL272:
  78:../../libs/libDaisy/src/dev/mpr121.h ****                    config_.dev_addr, memAddress, 1, data, memSize, 10);
 3721              		.loc 9 78 32 view .LVU960
 3722              	.LBE1142:
 3723              	.LBE1143:
 3724              	.LBB1144:
 3725              	.LBI1144:
 343:../../libs/libDaisy/src/dev/mpr121.h **** 
 3726              		.loc 9 343 10 is_stmt 1 view .LVU961
 3727              	.LBB1145:
 343:../../libs/libDaisy/src/dev/mpr121.h **** 
 3728              		.loc 9 343 55 is_stmt 0 view .LVU962
 3729 09c2 94F83020 		ldrb	r2, [r4, #48]	@ zero_extendqisi2
 3730              	.LBE1145:
 3731              	.LBE1144:
 250:../../libs/libDaisy/src/dev/mpr121.h ****     }
 3732              		.loc 9 250 16 view .LVU963
 3733 09c6 BDF84010 		ldrh	r1, [sp, #64]
 3734              	.LBB1148:
 3735              	.LBB1146:
 343:../../libs/libDaisy/src/dev/mpr121.h **** 
 3736              		.loc 9 343 55 view .LVU964
 3737 09ca 0028     		cmp	r0, #0
 3738 09cc 18BF     		it	ne
 3739 09ce 42F00102 		orrne	r2, r2, #1
 3740              	.LBE1146:
 3741              	.LBE1148:
ARM GAS  C:\Users\skipi\AppData\Local\Temp\ccHKWaHh.s 			page 106


 3742              	.LBE1150:
 3743              	.LBE1152:
 3744              	.LBE1154:
 3745              	.LBE1156:
 314:main.cpp      ****       now_f_bass = p_bass.discFreq(value_bass);
 3746              		.loc 10 314 18 view .LVU965
 3747 09d2 2F4B     		ldr	r3, .L92+56
 315:main.cpp      ****       #ifdef DEBUG
 3748              		.loc 10 315 35 view .LVU966
 3749 09d4 2F48     		ldr	r0, .L92+60
 3750              	.LVL273:
 314:main.cpp      ****       now_f_bass = p_bass.discFreq(value_bass);
 3751              		.loc 10 314 18 view .LVU967
 3752 09d6 1980     		strh	r1, [r3]	@ movhi
 3753              	.LBB1157:
 3754              	.LBB1155:
 3755              	.LBB1153:
 3756              	.LBB1151:
 3757              	.LBB1149:
 3758              	.LBB1147:
 343:../../libs/libDaisy/src/dev/mpr121.h **** 
 3759              		.loc 9 343 55 view .LVU968
 3760 09d8 84F83020 		strb	r2, [r4, #48]
 3761              	.LVL274:
 343:../../libs/libDaisy/src/dev/mpr121.h **** 
 3762              		.loc 9 343 55 view .LVU969
 3763              	.LBE1147:
 3764              	.LBE1149:
 3765              	.LBE1151:
 3766              	.LBE1153:
 3767              	.LBE1155:
 3768              	.LBE1157:
 315:main.cpp      ****       #ifdef DEBUG
 3769              		.loc 10 315 7 is_stmt 1 view .LVU970
 315:main.cpp      ****       #ifdef DEBUG
 3770              		.loc 10 315 35 is_stmt 0 view .LVU971
 3771 09dc FFF7FEFF 		bl	_ZN11pentaPianta8discFreqEt
 3772              	.LVL275:
 315:main.cpp      ****       #ifdef DEBUG
 3773              		.loc 10 315 18 view .LVU972
 3774 09e0 07EE900A 		vmov	s15, r0	@ int
 3775 09e4 2C4B     		ldr	r3, .L92+64
 3776              	.LBB1158:
 3777              	.LBB1159:
 128:../../libs/libDaisy/src/daisy_seed.h ****     }
 3778              		.loc 1 128 23 view .LVU973
 3779 09e6 2648     		ldr	r0, .L92+40
 3780              	.LBE1159:
 3781              	.LBE1158:
 315:main.cpp      ****       #ifdef DEBUG
 3782              		.loc 10 315 18 view .LVU974
 3783 09e8 F8EE677A 		vcvt.f32.u32	s15, s15
 3784 09ec C3ED007A 		vstr.32	s15, [r3]
 317:main.cpp      ****         hw.PrintLine("CAP 2 touched");
 3785              		.loc 10 317 9 is_stmt 1 view .LVU975
 3786              	.LVL276:
 3787              	.LBB1161:
ARM GAS  C:\Users\skipi\AppData\Local\Temp\ccHKWaHh.s 			page 107


 3788              	.LBI1158:
 126:../../libs/libDaisy/src/daisy_seed.h ****     {
 3789              		.loc 1 126 17 view .LVU976
 3790              	.LBB1160:
 128:../../libs/libDaisy/src/daisy_seed.h ****     }
 3791              		.loc 1 128 23 is_stmt 0 view .LVU977
 3792 09f0 FFF7FEFF 		bl	_ZN5daisy6LoggerILNS_17LoggerDestinationE1EE9PrintLineEPKcz
 3793              	.LVL277:
 128:../../libs/libDaisy/src/daisy_seed.h ****     }
 3794              		.loc 1 128 23 view .LVU978
 3795              	.LBE1160:
 3796              	.LBE1161:
 318:main.cpp      ****         hw.PrintLine("%d", (int)cap.FilteredData(2));
 3797              		.loc 10 318 9 is_stmt 1 view .LVU979
 3798              	.LBB1162:
 3799              	.LBI1162:
 126:../../libs/libDaisy/src/daisy_seed.h ****     {
 3800              		.loc 1 126 17 view .LVU980
 3801              	.LBB1163:
 128:../../libs/libDaisy/src/daisy_seed.h ****     }
 3802              		.loc 1 128 23 is_stmt 0 view .LVU981
 3803 09f4 2948     		ldr	r0, .L92+68
 3804 09f6 FFF7FEFF 		bl	_ZN5daisy6LoggerILNS_17LoggerDestinationE1EE9PrintLineEPKcz
 3805              	.LVL278:
 128:../../libs/libDaisy/src/daisy_seed.h ****     }
 3806              		.loc 1 128 23 view .LVU982
 3807              	.LBE1163:
 3808              	.LBE1162:
 319:main.cpp      ****         hw.PrintLine("-----------------------------------------------------------------------------
 3809              		.loc 10 319 9 is_stmt 1 view .LVU983
 3810              	.LBB1164:
 3811              	.LBI1164:
 201:../../libs/libDaisy/src/dev/mpr121.h ****     {
 3812              		.loc 9 201 14 view .LVU984
 3813              	.LBB1165:
 3814              	.LBI1165:
 201:../../libs/libDaisy/src/dev/mpr121.h ****     {
 3815              		.loc 9 201 14 view .LVU985
 3816              	.LBB1166:
 3817              	.LBI1166:
 244:../../libs/libDaisy/src/dev/mpr121.h ****     {
 3818              		.loc 9 244 14 view .LVU986
 3819              	.LBB1167:
 3820              	.LBB1168:
 3821              	.LBI1168:
  75:../../libs/libDaisy/src/dev/mpr121.h ****     {
 3822              		.loc 9 75 10 view .LVU987
 3823              	.LBB1169:
  77:../../libs/libDaisy/src/dev/mpr121.h ****                != i2c_.Mem_read(
 3824              		.loc 9 77 9 view .LVU988
  78:../../libs/libDaisy/src/dev/mpr121.h ****                    config_.dev_addr, memAddress, 1, data, memSize, 10);
 3825              		.loc 9 78 32 is_stmt 0 view .LVU989
 3826 09fa 0822     		movs	r2, #8
 3827 09fc 0123     		movs	r3, #1
 3828 09fe CDF800B0 		str	fp, [sp]
 3829 0a02 1548     		ldr	r0, .L92
 3830 0a04 CDE90178 		strd	r7, r8, [sp, #4]
ARM GAS  C:\Users\skipi\AppData\Local\Temp\ccHKWaHh.s 			page 108


 3831 0a08 94F82C10 		ldrb	r1, [r4, #44]	@ zero_extendqisi2
 3832 0a0c FFF7FEFF 		bl	_ZN5daisy9I2CHandle8Mem_readEtttPhtm
 3833              	.LVL279:
  78:../../libs/libDaisy/src/dev/mpr121.h ****                    config_.dev_addr, memAddress, 1, data, memSize, 10);
 3834              		.loc 9 78 32 view .LVU990
 3835              	.LBE1169:
 3836              	.LBE1168:
 3837              	.LBB1170:
 3838              	.LBI1170:
 343:../../libs/libDaisy/src/dev/mpr121.h **** 
 3839              		.loc 9 343 10 is_stmt 1 view .LVU991
 3840              	.LBB1171:
 343:../../libs/libDaisy/src/dev/mpr121.h **** 
 3841              		.loc 9 343 55 is_stmt 0 view .LVU992
 3842 0a10 94F83030 		ldrb	r3, [r4, #48]	@ zero_extendqisi2
 3843              	.LBE1171:
 3844              	.LBE1170:
 3845              	.LBE1167:
 3846              	.LBE1166:
 3847              	.LBE1165:
 3848              	.LBE1164:
 3849              	.LBB1182:
 3850              	.LBB1183:
 128:../../libs/libDaisy/src/daisy_seed.h ****     }
 3851              		.loc 1 128 23 view .LVU993
 3852 0a14 BDF84010 		ldrh	r1, [sp, #64]
 3853              	.LBE1183:
 3854              	.LBE1182:
 3855              	.LBB1186:
 3856              	.LBB1180:
 3857              	.LBB1178:
 3858              	.LBB1176:
 3859              	.LBB1174:
 3860              	.LBB1172:
 343:../../libs/libDaisy/src/dev/mpr121.h **** 
 3861              		.loc 9 343 55 view .LVU994
 3862 0a18 0028     		cmp	r0, #0
 3863 0a1a 18BF     		it	ne
 3864 0a1c 43F00103 		orrne	r3, r3, #1
 3865              	.LBE1172:
 3866              	.LBE1174:
 3867              	.LBE1176:
 3868              	.LBE1178:
 3869              	.LBE1180:
 3870              	.LBE1186:
 3871              	.LBB1187:
 3872              	.LBB1184:
 128:../../libs/libDaisy/src/daisy_seed.h ****     }
 3873              		.loc 1 128 23 view .LVU995
 3874 0a20 1948     		ldr	r0, .L92+48
 3875              	.LVL280:
 128:../../libs/libDaisy/src/daisy_seed.h ****     }
 3876              		.loc 1 128 23 view .LVU996
 3877              	.LBE1184:
 3878              	.LBE1187:
 3879              	.LBB1188:
 3880              	.LBB1181:
ARM GAS  C:\Users\skipi\AppData\Local\Temp\ccHKWaHh.s 			page 109


 3881              	.LBB1179:
 3882              	.LBB1177:
 3883              	.LBB1175:
 3884              	.LBB1173:
 343:../../libs/libDaisy/src/dev/mpr121.h **** 
 3885              		.loc 9 343 55 view .LVU997
 3886 0a22 84F83030 		strb	r3, [r4, #48]
 3887              	.LVL281:
 343:../../libs/libDaisy/src/dev/mpr121.h **** 
 3888              		.loc 9 343 55 view .LVU998
 3889              	.LBE1173:
 3890              	.LBE1175:
 3891              	.LBE1177:
 3892              	.LBE1179:
 3893              	.LBE1181:
 3894              	.LBE1188:
 3895              	.LBB1189:
 3896              	.LBI1182:
 126:../../libs/libDaisy/src/daisy_seed.h ****     {
 3897              		.loc 1 126 17 is_stmt 1 view .LVU999
 3898              	.LBB1185:
 128:../../libs/libDaisy/src/daisy_seed.h ****     }
 3899              		.loc 1 128 23 is_stmt 0 view .LVU1000
 3900 0a26 FFF7FEFF 		bl	_ZN5daisy6LoggerILNS_17LoggerDestinationE1EE9PrintLineEPKcz
 3901              	.LVL282:
 128:../../libs/libDaisy/src/daisy_seed.h ****     }
 3902              		.loc 1 128 23 view .LVU1001
 3903              	.LBE1185:
 3904              	.LBE1189:
 320:main.cpp      ****       #endif // DEBUG
 3905              		.loc 10 320 9 is_stmt 1 view .LVU1002
 3906              	.LBB1190:
 3907              	.LBI1190:
 126:../../libs/libDaisy/src/daisy_seed.h ****     {
 3908              		.loc 1 126 17 view .LVU1003
 3909              	.LBB1191:
 128:../../libs/libDaisy/src/daisy_seed.h ****     }
 3910              		.loc 1 128 23 is_stmt 0 view .LVU1004
 3911 0a2a 1548     		ldr	r0, .L92+40
 3912 0a2c FFF7FEFF 		bl	_ZN5daisy6LoggerILNS_17LoggerDestinationE1EE9PrintLineEPKcz
 3913              	.LVL283:
 128:../../libs/libDaisy/src/daisy_seed.h ****     }
 3914              		.loc 1 128 23 view .LVU1005
 3915              	.LBE1191:
 3916              	.LBE1190:
 323:main.cpp      ****     {
 3917              		.loc 10 323 5 is_stmt 1 view .LVU1006
 323:main.cpp      ****     {
 3918              		.loc 10 323 11 is_stmt 0 view .LVU1007
 3919 0a30 2B88     		ldrh	r3, [r5]
 323:main.cpp      ****     {
 3920              		.loc 10 323 5 view .LVU1008
 3921 0a32 5A07     		lsls	r2, r3, #29
 3922 0a34 3FF530AF 		bmi	.L48
 323:main.cpp      ****     {
 3923              		.loc 10 323 37 view .LVU1009
 3924 0a38 3288     		ldrh	r2, [r6]
ARM GAS  C:\Users\skipi\AppData\Local\Temp\ccHKWaHh.s 			page 110


 3925 0a3a A2E7     		b	.L47
 3926              	.L81:
 280:main.cpp      ****       #ifdef DEBUG
 3927              		.loc 10 280 7 is_stmt 1 view .LVU1010
 280:main.cpp      ****       #ifdef DEBUG
 3928              		.loc 10 280 18 is_stmt 0 view .LVU1011
 3929 0a3c 0023     		movs	r3, #0
 3930              	.LBB1192:
 3931              	.LBB1193:
 128:../../libs/libDaisy/src/daisy_seed.h ****     }
 3932              		.loc 1 128 23 view .LVU1012
 3933 0a3e 1048     		ldr	r0, .L92+40
 3934              	.LBE1193:
 3935              	.LBE1192:
 280:main.cpp      ****       #ifdef DEBUG
 3936              		.loc 10 280 18 view .LVU1013
 3937 0a40 8AF80030 		strb	r3, [r10]
 282:main.cpp      ****         hw.PrintLine("CAP 0 released");
 3938              		.loc 10 282 9 is_stmt 1 view .LVU1014
 3939              	.LVL284:
 3940              	.LBB1195:
 3941              	.LBI1192:
 126:../../libs/libDaisy/src/daisy_seed.h ****     {
 3942              		.loc 1 126 17 view .LVU1015
 3943              	.LBB1194:
 128:../../libs/libDaisy/src/daisy_seed.h ****     }
 3944              		.loc 1 128 23 is_stmt 0 view .LVU1016
 3945 0a44 FFF7FEFF 		bl	_ZN5daisy6LoggerILNS_17LoggerDestinationE1EE9PrintLineEPKcz
 3946              	.LVL285:
 128:../../libs/libDaisy/src/daisy_seed.h ****     }
 3947              		.loc 1 128 23 view .LVU1017
 3948              	.LBE1194:
 3949              	.LBE1195:
 283:main.cpp      ****         hw.PrintLine("-----------------------------------------------------------------------------
 3950              		.loc 10 283 9 is_stmt 1 view .LVU1018
 3951              	.LBB1196:
 3952              	.LBI1196:
 126:../../libs/libDaisy/src/daisy_seed.h ****     {
 3953              		.loc 1 126 17 view .LVU1019
 3954              	.LBB1197:
 128:../../libs/libDaisy/src/daisy_seed.h ****     }
 3955              		.loc 1 128 23 is_stmt 0 view .LVU1020
 3956 0a48 1548     		ldr	r0, .L92+72
 3957 0a4a FFF7FEFF 		bl	_ZN5daisy6LoggerILNS_17LoggerDestinationE1EE9PrintLineEPKcz
 3958              	.LVL286:
 128:../../libs/libDaisy/src/daisy_seed.h ****     }
 3959              		.loc 1 128 23 view .LVU1021
 3960              	.LBE1197:
 3961              	.LBE1196:
 284:main.cpp      ****        #endif // DEBUG
 3962              		.loc 10 284 9 is_stmt 1 view .LVU1022
 3963              	.LBB1198:
 3964              	.LBI1198:
 126:../../libs/libDaisy/src/daisy_seed.h ****     {
 3965              		.loc 1 126 17 view .LVU1023
 3966              	.LBB1199:
 128:../../libs/libDaisy/src/daisy_seed.h ****     }
ARM GAS  C:\Users\skipi\AppData\Local\Temp\ccHKWaHh.s 			page 111


 3967              		.loc 1 128 23 is_stmt 0 view .LVU1024
 3968 0a4e 0C48     		ldr	r0, .L92+40
 3969 0a50 FFF7FEFF 		bl	_ZN5daisy6LoggerILNS_17LoggerDestinationE1EE9PrintLineEPKcz
 3970              	.LVL287:
 3971              	.LBE1199:
 3972              	.LBE1198:
 288:main.cpp      ****     {
 3973              		.loc 10 288 10 view .LVU1025
 3974 0a54 2B88     		ldrh	r3, [r5]
 3975 0a56 8BE7     		b	.L79
 3976              	.L93:
 3977              		.align	2
 3978              	.L92:
 3979 0a58 18000000 		.word	.LANCHOR70+24
 3980 0a5c 00000000 		.word	.LANCHOR70
 3981 0a60 00000000 		.word	.LC0
 3982 0a64 00000000 		.word	.LANCHOR38
 3983 0a68 20000000 		.word	.LC1
 3984 0a6c 00000000 		.word	.LANCHOR71
 3985 0a70 00000000 		.word	.LANCHOR72
 3986 0a74 00000000 		.word	.LANCHOR73
 3987 0a78 00000000 		.word	.LANCHOR74
 3988 0a7c 00000000 		.word	.LANCHOR9
 3989 0a80 30000000 		.word	.LC2
 3990 0a84 84000000 		.word	.LC3
 3991 0a88 94000000 		.word	.LC4
 3992 0a8c D8000000 		.word	.LC9
 3993 0a90 00000000 		.word	.LANCHOR77
 3994 0a94 00000000 		.word	.LANCHOR78
 3995 0a98 00000000 		.word	.LANCHOR10
 3996 0a9c C8000000 		.word	.LC8
 3997 0aa0 98000000 		.word	.LC5
 3998 0aa4 00000000 		.word	.LANCHOR12
 3999 0aa8 00000000 		.word	.LANCHOR16
 4000              	.LVL288:
 4001              	.L82:
 290:main.cpp      ****       value_pad = cap.FilteredData(1);
 4002              		.loc 10 290 7 is_stmt 1 view .LVU1026
 290:main.cpp      ****       value_pad = cap.FilteredData(1);
 4003              		.loc 10 290 16 is_stmt 0 view .LVU1027
 4004 0aac 0123     		movs	r3, #1
 4005 0aae 394A     		ldr	r2, .L94
 4006              	.LBB1200:
 4007              	.LBB1201:
 4008              	.LBB1202:
 4009              	.LBB1203:
 4010              	.LBB1204:
 4011              	.LBB1205:
  78:../../libs/libDaisy/src/dev/mpr121.h ****                    config_.dev_addr, memAddress, 1, data, memSize, 10);
 4012              		.loc 9 78 32 view .LVU1028
 4013 0ab0 0227     		movs	r7, #2
 4014 0ab2 4FF00A08 		mov	r8, #10
 4015 0ab6 CDF800B0 		str	fp, [sp]
 4016 0aba 3748     		ldr	r0, .L94+4
 4017              	.LBE1205:
 4018              	.LBE1204:
 4019              	.LBE1203:
ARM GAS  C:\Users\skipi\AppData\Local\Temp\ccHKWaHh.s 			page 112


 4020              	.LBE1202:
 4021              	.LBE1201:
 4022              	.LBE1200:
 290:main.cpp      ****       value_pad = cap.FilteredData(1);
 4023              		.loc 10 290 16 view .LVU1029
 4024 0abc 1370     		strb	r3, [r2]
 291:main.cpp      ****       now_f_pad = p_pad.discFreq(value_pad);
 4025              		.loc 10 291 7 is_stmt 1 view .LVU1030
 4026              	.LVL289:
 4027              	.LBB1220:
 4028              	.LBI1200:
 201:../../libs/libDaisy/src/dev/mpr121.h ****     {
 4029              		.loc 9 201 14 view .LVU1031
 4030              	.LBB1218:
 4031              	.LBI1201:
 201:../../libs/libDaisy/src/dev/mpr121.h ****     {
 4032              		.loc 9 201 14 view .LVU1032
 4033              	.LBB1216:
 4034              	.LBI1202:
 244:../../libs/libDaisy/src/dev/mpr121.h ****     {
 4035              		.loc 9 244 14 view .LVU1033
 4036              	.LBB1214:
 4037              	.LBB1207:
 4038              	.LBI1204:
  75:../../libs/libDaisy/src/dev/mpr121.h ****     {
 4039              		.loc 9 75 10 view .LVU1034
 4040              	.LBB1206:
  77:../../libs/libDaisy/src/dev/mpr121.h ****                != i2c_.Mem_read(
 4041              		.loc 9 77 9 view .LVU1035
  78:../../libs/libDaisy/src/dev/mpr121.h ****                    config_.dev_addr, memAddress, 1, data, memSize, 10);
 4042              		.loc 9 78 32 is_stmt 0 view .LVU1036
 4043 0abe 0622     		movs	r2, #6
 4044 0ac0 CDE90178 		strd	r7, r8, [sp, #4]
 4045 0ac4 94F82C10 		ldrb	r1, [r4, #44]	@ zero_extendqisi2
 4046 0ac8 FFF7FEFF 		bl	_ZN5daisy9I2CHandle8Mem_readEtttPhtm
 4047              	.LVL290:
  78:../../libs/libDaisy/src/dev/mpr121.h ****                    config_.dev_addr, memAddress, 1, data, memSize, 10);
 4048              		.loc 9 78 32 view .LVU1037
 4049              	.LBE1206:
 4050              	.LBE1207:
 4051              	.LBB1208:
 4052              	.LBI1208:
 343:../../libs/libDaisy/src/dev/mpr121.h **** 
 4053              		.loc 9 343 10 is_stmt 1 view .LVU1038
 4054              	.LBB1209:
 343:../../libs/libDaisy/src/dev/mpr121.h **** 
 4055              		.loc 9 343 55 is_stmt 0 view .LVU1039
 4056 0acc 94F83020 		ldrb	r2, [r4, #48]	@ zero_extendqisi2
 4057              	.LBE1209:
 4058              	.LBE1208:
 250:../../libs/libDaisy/src/dev/mpr121.h ****     }
 4059              		.loc 9 250 16 view .LVU1040
 4060 0ad0 BDF84010 		ldrh	r1, [sp, #64]
 4061              	.LBB1212:
 4062              	.LBB1210:
 343:../../libs/libDaisy/src/dev/mpr121.h **** 
 4063              		.loc 9 343 55 view .LVU1041
ARM GAS  C:\Users\skipi\AppData\Local\Temp\ccHKWaHh.s 			page 113


 4064 0ad4 0028     		cmp	r0, #0
 4065 0ad6 18BF     		it	ne
 4066 0ad8 42F00102 		orrne	r2, r2, #1
 4067              	.LBE1210:
 4068              	.LBE1212:
 4069              	.LBE1214:
 4070              	.LBE1216:
 4071              	.LBE1218:
 4072              	.LBE1220:
 291:main.cpp      ****       now_f_pad = p_pad.discFreq(value_pad);
 4073              		.loc 10 291 17 view .LVU1042
 4074 0adc 2F4B     		ldr	r3, .L94+8
 292:main.cpp      ****       #ifdef DEBUG
 4075              		.loc 10 292 33 view .LVU1043
 4076 0ade 3048     		ldr	r0, .L94+12
 4077              	.LVL291:
 291:main.cpp      ****       now_f_pad = p_pad.discFreq(value_pad);
 4078              		.loc 10 291 17 view .LVU1044
 4079 0ae0 1980     		strh	r1, [r3]	@ movhi
 4080              	.LBB1221:
 4081              	.LBB1219:
 4082              	.LBB1217:
 4083              	.LBB1215:
 4084              	.LBB1213:
 4085              	.LBB1211:
 343:../../libs/libDaisy/src/dev/mpr121.h **** 
 4086              		.loc 9 343 55 view .LVU1045
 4087 0ae2 84F83020 		strb	r2, [r4, #48]
 4088              	.LVL292:
 343:../../libs/libDaisy/src/dev/mpr121.h **** 
 4089              		.loc 9 343 55 view .LVU1046
 4090              	.LBE1211:
 4091              	.LBE1213:
 4092              	.LBE1215:
 4093              	.LBE1217:
 4094              	.LBE1219:
 4095              	.LBE1221:
 292:main.cpp      ****       #ifdef DEBUG
 4096              		.loc 10 292 7 is_stmt 1 view .LVU1047
 292:main.cpp      ****       #ifdef DEBUG
 4097              		.loc 10 292 33 is_stmt 0 view .LVU1048
 4098 0ae6 FFF7FEFF 		bl	_ZN11pentaPianta8discFreqEt
 4099              	.LVL293:
 292:main.cpp      ****       #ifdef DEBUG
 4100              		.loc 10 292 17 view .LVU1049
 4101 0aea 07EE900A 		vmov	s15, r0	@ int
 4102 0aee 2D4B     		ldr	r3, .L94+16
 4103              	.LBB1222:
 4104              	.LBB1223:
 128:../../libs/libDaisy/src/daisy_seed.h ****     }
 4105              		.loc 1 128 23 view .LVU1050
 4106 0af0 2D48     		ldr	r0, .L94+20
 4107              	.LBE1223:
 4108              	.LBE1222:
 292:main.cpp      ****       #ifdef DEBUG
 4109              		.loc 10 292 17 view .LVU1051
 4110 0af2 F8EE677A 		vcvt.f32.u32	s15, s15
ARM GAS  C:\Users\skipi\AppData\Local\Temp\ccHKWaHh.s 			page 114


 4111 0af6 C3ED007A 		vstr.32	s15, [r3]
 294:main.cpp      ****         hw.PrintLine("CAP 1 touched");
 4112              		.loc 10 294 9 is_stmt 1 view .LVU1052
 4113              	.LVL294:
 4114              	.LBB1225:
 4115              	.LBI1222:
 126:../../libs/libDaisy/src/daisy_seed.h ****     {
 4116              		.loc 1 126 17 view .LVU1053
 4117              	.LBB1224:
 128:../../libs/libDaisy/src/daisy_seed.h ****     }
 4118              		.loc 1 128 23 is_stmt 0 view .LVU1054
 4119 0afa FFF7FEFF 		bl	_ZN5daisy6LoggerILNS_17LoggerDestinationE1EE9PrintLineEPKcz
 4120              	.LVL295:
 128:../../libs/libDaisy/src/daisy_seed.h ****     }
 4121              		.loc 1 128 23 view .LVU1055
 4122              	.LBE1224:
 4123              	.LBE1225:
 295:main.cpp      ****         hw.PrintLine("%d", (int)cap.FilteredData(1));
 4124              		.loc 10 295 9 is_stmt 1 view .LVU1056
 4125              	.LBB1226:
 4126              	.LBI1226:
 126:../../libs/libDaisy/src/daisy_seed.h ****     {
 4127              		.loc 1 126 17 view .LVU1057
 4128              	.LBB1227:
 128:../../libs/libDaisy/src/daisy_seed.h ****     }
 4129              		.loc 1 128 23 is_stmt 0 view .LVU1058
 4130 0afe 2B48     		ldr	r0, .L94+24
 4131 0b00 FFF7FEFF 		bl	_ZN5daisy6LoggerILNS_17LoggerDestinationE1EE9PrintLineEPKcz
 4132              	.LVL296:
 128:../../libs/libDaisy/src/daisy_seed.h ****     }
 4133              		.loc 1 128 23 view .LVU1059
 4134              	.LBE1227:
 4135              	.LBE1226:
 296:main.cpp      ****         hw.PrintLine("-----------------------------------------------------------------------------
 4136              		.loc 10 296 9 is_stmt 1 view .LVU1060
 4137              	.LBB1228:
 4138              	.LBI1228:
 201:../../libs/libDaisy/src/dev/mpr121.h ****     {
 4139              		.loc 9 201 14 view .LVU1061
 4140              	.LBB1229:
 4141              	.LBI1229:
 201:../../libs/libDaisy/src/dev/mpr121.h ****     {
 4142              		.loc 9 201 14 view .LVU1062
 4143              	.LBB1230:
 4144              	.LBI1230:
 244:../../libs/libDaisy/src/dev/mpr121.h ****     {
 4145              		.loc 9 244 14 view .LVU1063
 4146              	.LBB1231:
 4147              	.LBB1232:
 4148              	.LBI1232:
  75:../../libs/libDaisy/src/dev/mpr121.h ****     {
 4149              		.loc 9 75 10 view .LVU1064
 4150              	.LBB1233:
  77:../../libs/libDaisy/src/dev/mpr121.h ****                != i2c_.Mem_read(
 4151              		.loc 9 77 9 view .LVU1065
  78:../../libs/libDaisy/src/dev/mpr121.h ****                    config_.dev_addr, memAddress, 1, data, memSize, 10);
 4152              		.loc 9 78 32 is_stmt 0 view .LVU1066
ARM GAS  C:\Users\skipi\AppData\Local\Temp\ccHKWaHh.s 			page 115


 4153 0b04 0622     		movs	r2, #6
 4154 0b06 0123     		movs	r3, #1
 4155 0b08 CDF800B0 		str	fp, [sp]
 4156 0b0c 2248     		ldr	r0, .L94+4
 4157 0b0e CDE90178 		strd	r7, r8, [sp, #4]
 4158 0b12 94F82C10 		ldrb	r1, [r4, #44]	@ zero_extendqisi2
 4159 0b16 FFF7FEFF 		bl	_ZN5daisy9I2CHandle8Mem_readEtttPhtm
 4160              	.LVL297:
  78:../../libs/libDaisy/src/dev/mpr121.h ****                    config_.dev_addr, memAddress, 1, data, memSize, 10);
 4161              		.loc 9 78 32 view .LVU1067
 4162              	.LBE1233:
 4163              	.LBE1232:
 4164              	.LBB1234:
 4165              	.LBI1234:
 343:../../libs/libDaisy/src/dev/mpr121.h **** 
 4166              		.loc 9 343 10 is_stmt 1 view .LVU1068
 4167              	.LBB1235:
 343:../../libs/libDaisy/src/dev/mpr121.h **** 
 4168              		.loc 9 343 55 is_stmt 0 view .LVU1069
 4169 0b1a 94F83030 		ldrb	r3, [r4, #48]	@ zero_extendqisi2
 4170              	.LBE1235:
 4171              	.LBE1234:
 4172              	.LBE1231:
 4173              	.LBE1230:
 4174              	.LBE1229:
 4175              	.LBE1228:
 4176              	.LBB1246:
 4177              	.LBB1247:
 128:../../libs/libDaisy/src/daisy_seed.h ****     }
 4178              		.loc 1 128 23 view .LVU1070
 4179 0b1e BDF84010 		ldrh	r1, [sp, #64]
 4180              	.LBE1247:
 4181              	.LBE1246:
 4182              	.LBB1250:
 4183              	.LBB1244:
 4184              	.LBB1242:
 4185              	.LBB1240:
 4186              	.LBB1238:
 4187              	.LBB1236:
 343:../../libs/libDaisy/src/dev/mpr121.h **** 
 4188              		.loc 9 343 55 view .LVU1071
 4189 0b22 0028     		cmp	r0, #0
 4190 0b24 18BF     		it	ne
 4191 0b26 43F00103 		orrne	r3, r3, #1
 4192              	.LBE1236:
 4193              	.LBE1238:
 4194              	.LBE1240:
 4195              	.LBE1242:
 4196              	.LBE1244:
 4197              	.LBE1250:
 4198              	.LBB1251:
 4199              	.LBB1248:
 128:../../libs/libDaisy/src/daisy_seed.h ****     }
 4200              		.loc 1 128 23 view .LVU1072
 4201 0b2a 2148     		ldr	r0, .L94+28
 4202              	.LVL298:
 128:../../libs/libDaisy/src/daisy_seed.h ****     }
ARM GAS  C:\Users\skipi\AppData\Local\Temp\ccHKWaHh.s 			page 116


 4203              		.loc 1 128 23 view .LVU1073
 4204              	.LBE1248:
 4205              	.LBE1251:
 4206              	.LBB1252:
 4207              	.LBB1245:
 4208              	.LBB1243:
 4209              	.LBB1241:
 4210              	.LBB1239:
 4211              	.LBB1237:
 343:../../libs/libDaisy/src/dev/mpr121.h **** 
 4212              		.loc 9 343 55 view .LVU1074
 4213 0b2c 84F83030 		strb	r3, [r4, #48]
 4214              	.LVL299:
 343:../../libs/libDaisy/src/dev/mpr121.h **** 
 4215              		.loc 9 343 55 view .LVU1075
 4216              	.LBE1237:
 4217              	.LBE1239:
 4218              	.LBE1241:
 4219              	.LBE1243:
 4220              	.LBE1245:
 4221              	.LBE1252:
 4222              	.LBB1253:
 4223              	.LBI1246:
 126:../../libs/libDaisy/src/daisy_seed.h ****     {
 4224              		.loc 1 126 17 is_stmt 1 view .LVU1076
 4225              	.LBB1249:
 128:../../libs/libDaisy/src/daisy_seed.h ****     }
 4226              		.loc 1 128 23 is_stmt 0 view .LVU1077
 4227 0b30 FFF7FEFF 		bl	_ZN5daisy6LoggerILNS_17LoggerDestinationE1EE9PrintLineEPKcz
 4228              	.LVL300:
 128:../../libs/libDaisy/src/daisy_seed.h ****     }
 4229              		.loc 1 128 23 view .LVU1078
 4230              	.LBE1249:
 4231              	.LBE1253:
 297:main.cpp      ****       #endif // DEBUG
 4232              		.loc 10 297 9 is_stmt 1 view .LVU1079
 4233              	.LBB1254:
 4234              	.LBI1254:
 126:../../libs/libDaisy/src/daisy_seed.h ****     {
 4235              		.loc 1 126 17 view .LVU1080
 4236              	.LBB1255:
 128:../../libs/libDaisy/src/daisy_seed.h ****     }
 4237              		.loc 1 128 23 is_stmt 0 view .LVU1081
 4238 0b34 1C48     		ldr	r0, .L94+20
 4239 0b36 FFF7FEFF 		bl	_ZN5daisy6LoggerILNS_17LoggerDestinationE1EE9PrintLineEPKcz
 4240              	.LVL301:
 128:../../libs/libDaisy/src/daisy_seed.h ****     }
 4241              		.loc 1 128 23 view .LVU1082
 4242              	.LBE1255:
 4243              	.LBE1254:
 301:main.cpp      ****     {
 4244              		.loc 10 301 5 is_stmt 1 view .LVU1083
 301:main.cpp      ****     {
 4245              		.loc 10 301 11 is_stmt 0 view .LVU1084
 4246 0b3a 2B88     		ldrh	r3, [r5]
 301:main.cpp      ****     {
 4247              		.loc 10 301 37 view .LVU1085
ARM GAS  C:\Users\skipi\AppData\Local\Temp\ccHKWaHh.s 			page 117


 4248 0b3c 3288     		ldrh	r2, [r6]
 301:main.cpp      ****     {
 4249              		.loc 10 301 5 view .LVU1086
 4250 0b3e 9907     		lsls	r1, r3, #30
 4251 0b40 7FF519AF 		bpl	.L43
 4252 0b44 A3E6     		b	.L44
 4253              	.L46:
 303:main.cpp      ****       #ifdef DEBUG
 4254              		.loc 10 303 7 is_stmt 1 view .LVU1087
 303:main.cpp      ****       #ifdef DEBUG
 4255              		.loc 10 303 16 is_stmt 0 view .LVU1088
 4256 0b46 0023     		movs	r3, #0
 4257 0b48 124A     		ldr	r2, .L94
 4258              	.LBB1256:
 4259              	.LBB1257:
 128:../../libs/libDaisy/src/daisy_seed.h ****     }
 4260              		.loc 1 128 23 view .LVU1089
 4261 0b4a 1748     		ldr	r0, .L94+20
 4262              	.LBE1257:
 4263              	.LBE1256:
 303:main.cpp      ****       #ifdef DEBUG
 4264              		.loc 10 303 16 view .LVU1090
 4265 0b4c 1370     		strb	r3, [r2]
 305:main.cpp      ****         hw.PrintLine("CAP 1 released");
 4266              		.loc 10 305 9 is_stmt 1 view .LVU1091
 4267              	.LVL302:
 4268              	.LBB1259:
 4269              	.LBI1256:
 126:../../libs/libDaisy/src/daisy_seed.h ****     {
 4270              		.loc 1 126 17 view .LVU1092
 4271              	.LBB1258:
 128:../../libs/libDaisy/src/daisy_seed.h ****     }
 4272              		.loc 1 128 23 is_stmt 0 view .LVU1093
 4273 0b4e FFF7FEFF 		bl	_ZN5daisy6LoggerILNS_17LoggerDestinationE1EE9PrintLineEPKcz
 4274              	.LVL303:
 128:../../libs/libDaisy/src/daisy_seed.h ****     }
 4275              		.loc 1 128 23 view .LVU1094
 4276              	.LBE1258:
 4277              	.LBE1259:
 306:main.cpp      ****         hw.PrintLine("-----------------------------------------------------------------------------
 4278              		.loc 10 306 9 is_stmt 1 view .LVU1095
 4279              	.LBB1260:
 4280              	.LBI1260:
 126:../../libs/libDaisy/src/daisy_seed.h ****     {
 4281              		.loc 1 126 17 view .LVU1096
 4282              	.LBB1261:
 128:../../libs/libDaisy/src/daisy_seed.h ****     }
 4283              		.loc 1 128 23 is_stmt 0 view .LVU1097
 4284 0b52 1848     		ldr	r0, .L94+32
 4285 0b54 FFF7FEFF 		bl	_ZN5daisy6LoggerILNS_17LoggerDestinationE1EE9PrintLineEPKcz
 4286              	.LVL304:
 128:../../libs/libDaisy/src/daisy_seed.h ****     }
 4287              		.loc 1 128 23 view .LVU1098
 4288              	.LBE1261:
 4289              	.LBE1260:
 307:main.cpp      ****        #endif // DEBUG
 4290              		.loc 10 307 9 is_stmt 1 view .LVU1099
ARM GAS  C:\Users\skipi\AppData\Local\Temp\ccHKWaHh.s 			page 118


 4291              	.LBB1262:
 4292              	.LBI1262:
 126:../../libs/libDaisy/src/daisy_seed.h ****     {
 4293              		.loc 1 126 17 view .LVU1100
 4294              	.LBB1263:
 128:../../libs/libDaisy/src/daisy_seed.h ****     }
 4295              		.loc 1 128 23 is_stmt 0 view .LVU1101
 4296 0b58 1348     		ldr	r0, .L94+20
 4297 0b5a FFF7FEFF 		bl	_ZN5daisy6LoggerILNS_17LoggerDestinationE1EE9PrintLineEPKcz
 4298              	.LVL305:
 4299              	.LBE1263:
 4300              	.LBE1262:
 311:main.cpp      ****     {
 4301              		.loc 10 311 10 view .LVU1102
 4302 0b5e 2B88     		ldrh	r3, [r5]
 311:main.cpp      ****     {
 4303              		.loc 10 311 37 view .LVU1103
 4304 0b60 3288     		ldrh	r2, [r6]
 4305              	.LBB1265:
 4306              	.LBB1264:
 129:../../libs/libDaisy/src/daisy_seed.h **** 
 4307              		.loc 1 129 5 view .LVU1104
 4308 0b62 94E6     		b	.L44
 4309              	.LVL306:
 4310              	.L50:
 129:../../libs/libDaisy/src/daisy_seed.h **** 
 4311              		.loc 1 129 5 view .LVU1105
 4312              	.LBE1264:
 4313              	.LBE1265:
 4314              	.LBB1266:
 4315              	.LBB758:
  76:../../libs/DaisySP/Source/Control/adsr.h ****                                        : (sus_level > 1.f) ? 1.f : sus_level;
 4316              		.loc 7 76 40 view .LVU1106
 4317 0b64 DFED147A 		vldr.32	s15, .L94+36
 4318              	.LVL307:
  76:../../libs/DaisySP/Source/Control/adsr.h ****                                        : (sus_level > 1.f) ? 1.f : sus_level;
 4319              		.loc 7 76 40 view .LVU1107
 4320 0b68 FFF7A7BA 		b	.L31
 4321              	.LVL308:
 4322              	.L60:
  76:../../libs/DaisySP/Source/Control/adsr.h ****                                        : (sus_level > 1.f) ? 1.f : sus_level;
 4323              		.loc 7 76 40 view .LVU1108
 4324              	.LBE758:
 4325              	.LBE1266:
 4326              	.LBB1267:
 4327              	.LBB783:
 4328 0b6c DFED127A 		vldr.32	s15, .L94+36
 4329              	.LVL309:
  76:../../libs/DaisySP/Source/Control/adsr.h ****                                        : (sus_level > 1.f) ? 1.f : sus_level;
 4330              		.loc 7 76 40 view .LVU1109
 4331 0b70 FFF7E0BB 		b	.L36
 4332              	.LVL310:
 4333              	.L58:
  76:../../libs/DaisySP/Source/Control/adsr.h ****                                        : (sus_level > 1.f) ? 1.f : sus_level;
 4334              		.loc 7 76 40 view .LVU1110
 4335              	.LBE783:
 4336              	.LBE1267:
ARM GAS  C:\Users\skipi\AppData\Local\Temp\ccHKWaHh.s 			page 119


 4337              	.LBB1268:
 4338              	.LBB778:
 4339 0b74 DFED107A 		vldr.32	s15, .L94+36
 4340              	.LVL311:
  76:../../libs/DaisySP/Source/Control/adsr.h ****                                        : (sus_level > 1.f) ? 1.f : sus_level;
 4341              		.loc 7 76 40 view .LVU1111
 4342 0b78 FFF7B1BB 		b	.L35
 4343              	.LVL312:
 4344              	.L56:
  76:../../libs/DaisySP/Source/Control/adsr.h ****                                        : (sus_level > 1.f) ? 1.f : sus_level;
 4345              		.loc 7 76 40 view .LVU1112
 4346              	.LBE778:
 4347              	.LBE1268:
 4348              	.LBB1269:
 4349              	.LBB773:
 4350 0b7c DFED0E7A 		vldr.32	s15, .L94+36
 4351              	.LVL313:
  76:../../libs/DaisySP/Source/Control/adsr.h ****                                        : (sus_level > 1.f) ? 1.f : sus_level;
 4352              		.loc 7 76 40 view .LVU1113
 4353 0b80 FFF74FBB 		b	.L34
 4354              	.LVL314:
 4355              	.L54:
  76:../../libs/DaisySP/Source/Control/adsr.h ****                                        : (sus_level > 1.f) ? 1.f : sus_level;
 4356              		.loc 7 76 40 view .LVU1114
 4357              	.LBE773:
 4358              	.LBE1269:
 4359              	.LBB1270:
 4360              	.LBB768:
 4361 0b84 DFED0C7A 		vldr.32	s15, .L94+36
 4362              	.LVL315:
  76:../../libs/DaisySP/Source/Control/adsr.h ****                                        : (sus_level > 1.f) ? 1.f : sus_level;
 4363              		.loc 7 76 40 view .LVU1115
 4364 0b88 FFF720BB 		b	.L33
 4365              	.LVL316:
 4366              	.L52:
  76:../../libs/DaisySP/Source/Control/adsr.h ****                                        : (sus_level > 1.f) ? 1.f : sus_level;
 4367              		.loc 7 76 40 view .LVU1116
 4368              	.LBE768:
 4369              	.LBE1270:
 4370              	.LBB1271:
 4371              	.LBB763:
 4372 0b8c DFED0A7A 		vldr.32	s15, .L94+36
 4373              	.LVL317:
  76:../../libs/DaisySP/Source/Control/adsr.h ****                                        : (sus_level > 1.f) ? 1.f : sus_level;
 4374              		.loc 7 76 40 view .LVU1117
 4375 0b90 FFF7BEBA 		b	.L32
 4376              	.L95:
 4377              		.align	2
 4378              	.L94:
 4379 0b94 00000000 		.word	.LANCHOR14
 4380 0b98 18000000 		.word	.LANCHOR70+24
 4381 0b9c 00000000 		.word	.LANCHOR75
 4382 0ba0 00000000 		.word	.LANCHOR76
 4383 0ba4 00000000 		.word	.LANCHOR11
 4384 0ba8 30000000 		.word	.LC2
 4385 0bac A8000000 		.word	.LC6
 4386 0bb0 94000000 		.word	.LC4
ARM GAS  C:\Users\skipi\AppData\Local\Temp\ccHKWaHh.s 			page 120


 4387 0bb4 B8000000 		.word	.LC7
 4388 0bb8 0AD723BC 		.word	-1138501878
 4389              	.LBE763:
 4390              	.LBE1271:
 4391              		.cfi_endproc
 4392              	.LFE4844:
 4394              		.section	.text.startup._GLOBAL__sub_I_f_pluck,"ax",%progbits
 4395              		.align	1
 4396              		.p2align 2,,3
 4397              		.syntax unified
 4398              		.thumb
 4399              		.thumb_func
 4400              		.fpu fpv5-d16
 4402              	_GLOBAL__sub_I_f_pluck:
 4403              	.LFB5426:
 336:main.cpp      ****   }
 337:main.cpp      **** 
 338:main.cpp      **** }...
 4404              		.loc 10 338 1 is_stmt 1 view -0
 4405              		.cfi_startproc
 4406              		@ args = 0, pretend = 0, frame = 0
 4407              		@ frame_needed = 0, uses_anonymous_args = 0
 4408              	.LBB1402:
 4409              	.LBI1402:
 4410              		.loc 10 338 1 view .LVU1119
 4411              	.LVL318:
 4412              	.LBB1403:
 4413              	.LBB1404:
 4414              	.LBI1404:
 105:../../libs/libDaisy/src/dev/mpr121.h ****         {
 4415              		.loc 9 105 9 view .LVU1120
 4416              	.LBB1405:
 4417              	.LBB1406:
 4418              	.LBI1406:
  34:../../libs/libDaisy/src/dev/mpr121.h ****         {
 4419              		.loc 9 34 9 view .LVU1121
 4420              	.LBB1407:
 4421              	.LBB1408:
 4422              	.LBB1409:
 4423              	.LBI1409:
 4424              		.loc 13 204 15 view .LVU1122
 4425              		.loc 13 204 15 is_stmt 0 view .LVU1123
 4426              	.LBE1409:
 4427              	.LBB1410:
 4428              	.LBI1410:
 4429              		.loc 13 204 15 is_stmt 1 view .LVU1124
 4430              		.loc 13 204 15 is_stmt 0 view .LVU1125
 4431              	.LBE1410:
  36:../../libs/libDaisy/src/dev/mpr121.h ****             speed  = I2CHandle::Config::Speed::I2C_400KHZ;
 4432              		.loc 9 36 13 is_stmt 1 view .LVU1126
  37:../../libs/libDaisy/src/dev/mpr121.h **** 
 4433              		.loc 9 37 13 view .LVU1127
  39:../../libs/libDaisy/src/dev/mpr121.h ****             sda = Pin(PORTB, 9);
 4434              		.loc 9 39 13 view .LVU1128
 4435              	.LBB1411:
 4436              	.LBI1411:
 201:../../libs/libDaisy/src/daisy_core.h **** 
ARM GAS  C:\Users\skipi\AppData\Local\Temp\ccHKWaHh.s 			page 121


 4437              		.loc 13 201 15 view .LVU1129
 201:../../libs/libDaisy/src/daisy_core.h **** 
 4438              		.loc 13 201 15 is_stmt 0 view .LVU1130
 4439              	.LBE1411:
  40:../../libs/libDaisy/src/dev/mpr121.h **** 
 4440              		.loc 9 40 13 is_stmt 1 view .LVU1131
 4441              	.LBB1412:
 4442              	.LBI1412:
 201:../../libs/libDaisy/src/daisy_core.h **** 
 4443              		.loc 13 201 15 view .LVU1132
 201:../../libs/libDaisy/src/daisy_core.h **** 
 4444              		.loc 13 201 15 is_stmt 0 view .LVU1133
 4445              	.LBE1412:
  42:../../libs/libDaisy/src/dev/mpr121.h ****         }
 4446              		.loc 9 42 13 is_stmt 1 view .LVU1134
  42:../../libs/libDaisy/src/dev/mpr121.h ****         }
 4447              		.loc 9 42 13 is_stmt 0 view .LVU1135
 4448              	.LBE1408:
 4449              	.LBE1407:
 4450              	.LBE1406:
 4451              	.LBE1405:
 4452              	.LBE1404:
 4453              	.LBB1427:
 4454              	.LBB1428:
 4455              	.LBB1429:
 4456              	.LBB1430:
 4457              	.LBB1431:
 4458              	.LBB1432:
 4459              	.LBB1433:
  36:../../libs/libDaisy/src/dev/mpr121.h ****             speed  = I2CHandle::Config::Speed::I2C_400KHZ;
 4460              		.loc 9 36 20 view .LVU1136
 4461 0000 7C48     		ldr	r0, .L98
 4462              	.LBE1433:
 4463              	.LBE1432:
 4464              	.LBE1431:
 4465              	.LBE1430:
 4466              	.LBE1429:
 4467              	.LBE1428:
 4468              	.LBE1427:
 4469              	.LBB1482:
 4470              	.LBB1422:
 4471              	.LBB1419:
 4472              	.LBB1416:
 4473              	.LBB1413:
  37:../../libs/libDaisy/src/dev/mpr121.h **** 
 4474              		.loc 9 37 20 view .LVU1137
 4475 0002 0122     		movs	r2, #1
  36:../../libs/libDaisy/src/dev/mpr121.h ****             speed  = I2CHandle::Config::Speed::I2C_400KHZ;
 4476              		.loc 9 36 20 view .LVU1138
 4477 0004 7C4B     		ldr	r3, .L98+4
 4478              	.LBE1413:
 4479              	.LBE1416:
 4480              	.LBE1419:
 105:../../libs/libDaisy/src/dev/mpr121.h ****         {
 4481              		.loc 9 105 9 view .LVU1139
 4482 0006 7D49     		ldr	r1, .L98+8
 4483              	.LBE1422:
ARM GAS  C:\Users\skipi\AppData\Local\Temp\ccHKWaHh.s 			page 122


 4484              	.LBE1482:
 4485              	.LBE1403:
 4486              	.LBE1402:
 4487              		.loc 10 338 1 view .LVU1140
 4488 0008 2DE9F041 		push	{r4, r5, r6, r7, r8, lr}
 4489              		.cfi_def_cfa_offset 24
 4490              		.cfi_offset 4, -24
 4491              		.cfi_offset 5, -20
 4492              		.cfi_offset 6, -16
 4493              		.cfi_offset 7, -12
 4494              		.cfi_offset 8, -8
 4495              		.cfi_offset 14, -4
 4496              	.LBB1625:
 4497              	.LBB1623:
 4498              	.LBB1483:
 4499              	.LBB1423:
 4500              	.LBB1420:
 4501              	.LBB1417:
 4502              	.LBB1414:
  36:../../libs/libDaisy/src/dev/mpr121.h ****             speed  = I2CHandle::Config::Speed::I2C_400KHZ;
 4503              		.loc 9 36 20 view .LVU1141
 4504 000c 0026     		movs	r6, #0
 4505              	.LBE1414:
 4506              	.LBE1417:
 4507              	.LBE1420:
 4508              	.LBE1423:
 4509              	.LBE1483:
  19:main.cpp      **** daisy::Mpr121I2C cap;
 4510              		.loc 10 19 18 view .LVU1142
 4511 000e 7C4F     		ldr	r7, .L98+12
 4512              	.LBB1484:
 4513              	.LBB1424:
 105:../../libs/libDaisy/src/dev/mpr121.h ****         {
 4514              		.loc 9 105 9 view .LVU1143
 4515 0010 9960     		str	r1, [r3, #8]
 4516              	.LBE1424:
 4517              	.LBE1484:
 4518              	.LBB1485:
 4519              	.LBB1478:
  96:../../libs/libDaisy/src/dev/mpr121.h ****     ~Mpr121() {}
 4520              		.loc 9 96 5 view .LVU1144
 4521 0012 8160     		str	r1, [r0, #8]
 4522 0014 4162     		str	r1, [r0, #36]
 4523              	.LBE1478:
 4524              	.LBE1485:
 4525              	.LBB1486:
 4526              	.LBB1425:
 105:../../libs/libDaisy/src/dev/mpr121.h ****         {
 4527              		.loc 9 105 9 view .LVU1145
 4528 0016 5A21     		movs	r1, #90
 4529              	.LBB1421:
 4530              	.LBB1418:
 4531              	.LBB1415:
  36:../../libs/libDaisy/src/dev/mpr121.h ****             speed  = I2CHandle::Config::Speed::I2C_400KHZ;
 4532              		.loc 9 36 20 view .LVU1146
 4533 0018 1E60     		str	r6, [r3]
  37:../../libs/libDaisy/src/dev/mpr121.h **** 
ARM GAS  C:\Users\skipi\AppData\Local\Temp\ccHKWaHh.s 			page 123


 4534              		.loc 9 37 20 view .LVU1147
 4535 001a 5A60     		str	r2, [r3, #4]
 4536              	.LBE1415:
 4537              	.LBE1418:
 4538              	.LBE1421:
 105:../../libs/libDaisy/src/dev/mpr121.h ****         {
 4539              		.loc 9 105 9 view .LVU1148
 4540 001c 9A82     		strh	r2, [r3, #20]	@ movhi
 4541              	.LVL319:
 105:../../libs/libDaisy/src/dev/mpr121.h ****         {
 4542              		.loc 9 105 9 view .LVU1149
 4543              	.LBE1425:
 4544              	.LBE1486:
 4545              	.LBB1487:
 4546              	.LBI1427:
  96:../../libs/libDaisy/src/dev/mpr121.h ****     ~Mpr121() {}
 4547              		.loc 9 96 5 is_stmt 1 view .LVU1150
 4548              	.LBB1479:
 4549              	.LBB1450:
 4550              	.LBI1429:
 105:../../libs/libDaisy/src/dev/mpr121.h ****         {
 4551              		.loc 9 105 9 view .LVU1151
 4552              	.LBB1447:
 4553              	.LBB1444:
 4554              	.LBI1431:
  34:../../libs/libDaisy/src/dev/mpr121.h ****         {
 4555              		.loc 9 34 9 view .LVU1152
 4556              	.LBB1441:
 4557              	.LBB1438:
 4558              	.LBB1434:
 4559              	.LBI1434:
 4560              		.loc 13 204 15 view .LVU1153
 4561              		.loc 13 204 15 is_stmt 0 view .LVU1154
 4562              	.LBE1434:
 4563              	.LBB1435:
 4564              	.LBI1435:
 4565              		.loc 13 204 15 is_stmt 1 view .LVU1155
 4566              		.loc 13 204 15 is_stmt 0 view .LVU1156
 4567              	.LBE1435:
  36:../../libs/libDaisy/src/dev/mpr121.h ****             speed  = I2CHandle::Config::Speed::I2C_400KHZ;
 4568              		.loc 9 36 13 is_stmt 1 view .LVU1157
  37:../../libs/libDaisy/src/dev/mpr121.h **** 
 4569              		.loc 9 37 13 view .LVU1158
  39:../../libs/libDaisy/src/dev/mpr121.h ****             sda = Pin(PORTB, 9);
 4570              		.loc 9 39 13 view .LVU1159
 4571              	.LBB1436:
 4572              	.LBI1436:
 201:../../libs/libDaisy/src/daisy_core.h **** 
 4573              		.loc 13 201 15 view .LVU1160
 201:../../libs/libDaisy/src/daisy_core.h **** 
 4574              		.loc 13 201 15 is_stmt 0 view .LVU1161
 4575              	.LBE1436:
  40:../../libs/libDaisy/src/dev/mpr121.h **** 
 4576              		.loc 9 40 13 is_stmt 1 view .LVU1162
 4577              	.LBB1437:
 4578              	.LBI1437:
 201:../../libs/libDaisy/src/daisy_core.h **** 
ARM GAS  C:\Users\skipi\AppData\Local\Temp\ccHKWaHh.s 			page 124


 4579              		.loc 13 201 15 view .LVU1163
 201:../../libs/libDaisy/src/daisy_core.h **** 
 4580              		.loc 13 201 15 is_stmt 0 view .LVU1164
 4581              	.LBE1437:
  42:../../libs/libDaisy/src/dev/mpr121.h ****         }
 4582              		.loc 9 42 13 is_stmt 1 view .LVU1165
  42:../../libs/libDaisy/src/dev/mpr121.h ****         }
 4583              		.loc 9 42 13 is_stmt 0 view .LVU1166
 4584              	.LBE1438:
 4585              	.LBE1441:
 4586              	.LBE1444:
 4587              	.LBE1447:
 4588              	.LBE1450:
 4589              	.LBB1451:
 4590              	.LBI1451:
  20:../../libs/libDaisy/src/dev/mpr121.h ****     ~Mpr121I2CTransport() {}
 4591              		.loc 9 20 5 is_stmt 1 view .LVU1167
 4592              	.LBB1452:
 4593              	.LBB1453:
 4594              	.LBI1453:
  60:../../libs/libDaisy/src/per/i2c.h ****             Pin scl;  /**< & */
  61:../../libs/libDaisy/src/per/i2c.h ****             Pin sda;  /**< & */
  62:../../libs/libDaisy/src/per/i2c.h ****         } pin_config; /**< & */
  63:../../libs/libDaisy/src/per/i2c.h **** 
  64:../../libs/libDaisy/src/per/i2c.h ****         Speed speed; /**< & */
  65:../../libs/libDaisy/src/per/i2c.h ****         Mode  mode;  /**< & */
  66:../../libs/libDaisy/src/per/i2c.h ****         // 0x10 is chosen as a default to avoid conflicts with reserved addresses
  67:../../libs/libDaisy/src/per/i2c.h ****         uint8_t address = 0x10; /**< & */
  68:../../libs/libDaisy/src/per/i2c.h ****     };
  69:../../libs/libDaisy/src/per/i2c.h **** 
  70:../../libs/libDaisy/src/per/i2c.h ****     /** Return values for I2C functions. */
  71:../../libs/libDaisy/src/per/i2c.h ****     enum class Result
  72:../../libs/libDaisy/src/per/i2c.h ****     {
  73:../../libs/libDaisy/src/per/i2c.h ****         OK, /**< & */
  74:../../libs/libDaisy/src/per/i2c.h ****         ERR /**< & */
  75:../../libs/libDaisy/src/per/i2c.h ****     };
  76:../../libs/libDaisy/src/per/i2c.h **** 
  77:../../libs/libDaisy/src/per/i2c.h ****     enum class Direction
  78:../../libs/libDaisy/src/per/i2c.h ****     {
  79:../../libs/libDaisy/src/per/i2c.h ****         TRANSMIT, /**< & */
  80:../../libs/libDaisy/src/per/i2c.h ****         RECEIVE,  /**< & */
  81:../../libs/libDaisy/src/per/i2c.h ****     };
  82:../../libs/libDaisy/src/per/i2c.h **** 
  83:../../libs/libDaisy/src/per/i2c.h ****     I2CHandle() : pimpl_(nullptr) {}
 4595              		.loc 12 83 5 view .LVU1168
 4596              		.loc 12 83 5 is_stmt 0 view .LVU1169
 4597              	.LBE1453:
 4598              	.LBB1456:
 4599              	.LBI1456:
  34:../../libs/libDaisy/src/dev/mpr121.h ****         {
 4600              		.loc 9 34 9 is_stmt 1 view .LVU1170
 4601              	.LBB1457:
 4602              	.LBB1458:
 4603              	.LBB1459:
 4604              	.LBI1459:
 4605              		.loc 13 204 15 view .LVU1171
 4606              		.loc 13 204 15 is_stmt 0 view .LVU1172
ARM GAS  C:\Users\skipi\AppData\Local\Temp\ccHKWaHh.s 			page 125


 4607              	.LBE1459:
 4608              	.LBB1460:
 4609              	.LBI1460:
 4610              		.loc 13 204 15 is_stmt 1 view .LVU1173
 4611              		.loc 13 204 15 is_stmt 0 view .LVU1174
 4612              	.LBE1460:
  36:../../libs/libDaisy/src/dev/mpr121.h ****             speed  = I2CHandle::Config::Speed::I2C_400KHZ;
 4613              		.loc 9 36 13 is_stmt 1 view .LVU1175
  37:../../libs/libDaisy/src/dev/mpr121.h **** 
 4614              		.loc 9 37 13 view .LVU1176
  39:../../libs/libDaisy/src/dev/mpr121.h ****             sda = Pin(PORTB, 9);
 4615              		.loc 9 39 13 view .LVU1177
 4616              	.LBB1461:
 4617              	.LBI1461:
 201:../../libs/libDaisy/src/daisy_core.h **** 
 4618              		.loc 13 201 15 view .LVU1178
 201:../../libs/libDaisy/src/daisy_core.h **** 
 4619              		.loc 13 201 15 is_stmt 0 view .LVU1179
 4620              	.LBE1461:
  40:../../libs/libDaisy/src/dev/mpr121.h **** 
 4621              		.loc 9 40 13 is_stmt 1 view .LVU1180
 4622              	.LBB1462:
 4623              	.LBI1462:
 201:../../libs/libDaisy/src/daisy_core.h **** 
 4624              		.loc 13 201 15 view .LVU1181
 201:../../libs/libDaisy/src/daisy_core.h **** 
 4625              		.loc 13 201 15 is_stmt 0 view .LVU1182
 4626              	.LBE1462:
  42:../../libs/libDaisy/src/dev/mpr121.h ****         }
 4627              		.loc 9 42 13 is_stmt 1 view .LVU1183
 4628              	.LBE1458:
 4629              	.LBE1457:
 4630              	.LBE1456:
 4631              	.LBE1452:
 4632              	.LBE1451:
 4633              	.LBE1479:
 4634              	.LBE1487:
 4635              	.LBB1488:
 4636              	.LBB1426:
 105:../../libs/libDaisy/src/dev/mpr121.h ****         {
 4637              		.loc 9 105 9 is_stmt 0 view .LVU1184
 4638 001e 1961     		str	r1, [r3, #16]
 4639              	.LBE1426:
 4640              	.LBE1488:
 4641              	.LBB1489:
 4642              	.LBB1480:
 4643              	.LBB1473:
 4644              	.LBB1448:
 4645              	.LBB1445:
 4646              	.LBB1442:
 4647              	.LBB1439:
  36:../../libs/libDaisy/src/dev/mpr121.h ****             speed  = I2CHandle::Config::Speed::I2C_400KHZ;
 4648              		.loc 9 36 20 view .LVU1185
 4649 0020 0660     		str	r6, [r0]
 4650              	.LBE1439:
 4651              	.LBE1442:
 4652              	.LBE1445:
ARM GAS  C:\Users\skipi\AppData\Local\Temp\ccHKWaHh.s 			page 126


 4653              	.LBE1448:
 4654              	.LBE1473:
 4655              	.LBB1474:
 4656              	.LBB1470:
 4657              	.LBB1467:
 4658              	.LBB1454:
 4659              	.LBB1455:
 4660              		.loc 12 83 33 view .LVU1186
 4661 0022 8661     		str	r6, [r0, #24]
 4662              	.LBE1455:
 4663              	.LBE1454:
 4664              	.LBE1467:
 4665              	.LBE1470:
 4666              	.LBE1474:
 4667              	.LBB1475:
 4668              	.LBB1449:
 4669              	.LBB1446:
 4670              	.LBB1443:
 4671              	.LBB1440:
  37:../../libs/libDaisy/src/dev/mpr121.h **** 
 4672              		.loc 9 37 20 view .LVU1187
 4673 0024 4260     		str	r2, [r0, #4]
 4674              	.LBE1440:
 4675              	.LBE1443:
 4676              	.LBE1446:
 4677              	.LBE1449:
 4678              	.LBE1475:
  96:../../libs/libDaisy/src/dev/mpr121.h ****     ~Mpr121() {}
 4679              		.loc 9 96 5 view .LVU1188
 4680 0026 4261     		str	r2, [r0, #20]
 4681              	.LBB1476:
 4682              	.LBB1471:
 4683              	.LBB1468:
 4684              	.LBB1465:
 4685              	.LBB1463:
  37:../../libs/libDaisy/src/dev/mpr121.h **** 
 4686              		.loc 9 37 20 view .LVU1189
 4687 0028 0262     		str	r2, [r0, #32]
 4688              	.LBE1463:
 4689              	.LBE1465:
 4690              	.LBE1468:
 4691              	.LBE1471:
 4692              	.LBE1476:
 4693              	.LBE1480:
 4694              	.LBE1489:
  19:main.cpp      **** daisy::Mpr121I2C cap;
 4695              		.loc 10 19 18 view .LVU1190
 4696 002a 3A46     		mov	r2, r7
 4697              	.LBB1490:
 4698              	.LBB1481:
 4699              	.LBB1477:
 4700              	.LBB1472:
 4701              	.LBB1469:
 4702              	.LBB1466:
 4703              	.LBB1464:
  36:../../libs/libDaisy/src/dev/mpr121.h ****             speed  = I2CHandle::Config::Speed::I2C_400KHZ;
 4704              		.loc 9 36 20 view .LVU1191
ARM GAS  C:\Users\skipi\AppData\Local\Temp\ccHKWaHh.s 			page 127


 4705 002c C661     		str	r6, [r0, #28]
 4706              	.LBE1464:
 4707              	.LBE1466:
 4708              	.LBE1469:
 4709              	.LBE1472:
 4710              	.LBE1477:
  96:../../libs/libDaisy/src/dev/mpr121.h ****     ~Mpr121() {}
 4711              		.loc 9 96 5 view .LVU1192
 4712 002e 0161     		str	r1, [r0, #16]
 4713 0030 C162     		str	r1, [r0, #44]
 4714              	.LVL320:
  96:../../libs/libDaisy/src/dev/mpr121.h ****     ~Mpr121() {}
 4715              		.loc 9 96 5 view .LVU1193
 4716              	.LBE1481:
 4717              	.LBE1490:
  19:main.cpp      **** daisy::Mpr121I2C cap;
 4718              		.loc 10 19 18 view .LVU1194
 4719 0032 7449     		ldr	r1, .L98+16
 4720 0034 FFF7FEFF 		bl	__aeabi_atexit
 4721              	.LVL321:
  22:main.cpp      **** pentaPianta p_pluck(soglie, f_pluck), p_pad(soglie, f_pad), p_bass(soglie, f_bass);
 4722              		.loc 10 22 36 view .LVU1195
 4723 0038 734B     		ldr	r3, .L98+20
 4724 003a 7449     		ldr	r1, .L98+24
 4725 003c D3ED007A 		vldr.32	s15, [r3]
 4726 0040 7348     		ldr	r0, .L98+28
 4727 0042 FDEEE77A 		vcvt.s32.f32	s15, s15
  27:main.cpp      **** Ramo pluck, pad, bass;
 4728              		.loc 10 27 6 view .LVU1196
 4729 0046 734C     		ldr	r4, .L98+32
 4730              	.LBB1491:
 4731              	.LBB1492:
 4732              	.LBB1493:
  44:../../libs/DaisySP/Source/Control/adsr.h ****     ~Adsr() {}
 4733              		.loc 7 44 12 view .LVU1197
 4734 0048 734D     		ldr	r5, .L98+36
 4735              	.LBE1493:
 4736              	.LBE1492:
 4737              	.LBE1491:
  42:main.cpp      **** AnalogDelay Delay;
 4738              		.loc 10 42 13 view .LVU1198
 4739 004a DFF83082 		ldr	r8, .L98+136
  22:main.cpp      **** pentaPianta p_pluck(soglie, f_pluck), p_pad(soglie, f_pad), p_bass(soglie, f_bass);
 4740              		.loc 10 22 36 view .LVU1199
 4741 004e 17EE902A 		vmov	r2, s15	@ int
 4742 0052 FFF7FEFF 		bl	_ZN11pentaPiantaC1EPii
 4743              	.LVL322:
  22:main.cpp      **** pentaPianta p_pluck(soglie, f_pluck), p_pad(soglie, f_pad), p_bass(soglie, f_bass);
 4744              		.loc 10 22 58 view .LVU1200
 4745 0056 714B     		ldr	r3, .L98+40
 4746 0058 6C49     		ldr	r1, .L98+24
 4747 005a D3ED007A 		vldr.32	s15, [r3]
 4748 005e 7048     		ldr	r0, .L98+44
 4749 0060 FDEEE77A 		vcvt.s32.f32	s15, s15
 4750 0064 17EE902A 		vmov	r2, s15	@ int
 4751 0068 FFF7FEFF 		bl	_ZN11pentaPiantaC1EPii
 4752              	.LVL323:
ARM GAS  C:\Users\skipi\AppData\Local\Temp\ccHKWaHh.s 			page 128


  22:main.cpp      **** pentaPianta p_pluck(soglie, f_pluck), p_pad(soglie, f_pad), p_bass(soglie, f_bass);
 4753              		.loc 10 22 82 view .LVU1201
 4754 006c 6D4B     		ldr	r3, .L98+48
 4755 006e 6749     		ldr	r1, .L98+24
 4756 0070 D3ED007A 		vldr.32	s15, [r3]
 4757 0074 6C48     		ldr	r0, .L98+52
 4758 0076 FDEEE77A 		vcvt.s32.f32	s15, s15
 4759 007a 17EE902A 		vmov	r2, s15	@ int
 4760 007e FFF7FEFF 		bl	_ZN11pentaPiantaC1EPii
 4761              	.LVL324:
 4762              	.LBB1500:
 4763              	.LBI1500:
  21:../../libs/libDaisy/src/daisy_seed.h ****     ~DaisySeed() {}
 4764              		.loc 1 21 5 is_stmt 1 view .LVU1202
 4765              	.LBB1501:
 4766              	.LBB1502:
 4767              	.LBI1502:
 4768              		.file 14 "../../libs/libDaisy/src/per/qspi.h"
   1:../../libs/libDaisy/src/per/qspi.h **** #ifndef DSY_QSPI
   2:../../libs/libDaisy/src/per/qspi.h **** #define DSY_QSPI /**< Macro */
   3:../../libs/libDaisy/src/per/qspi.h **** 
   4:../../libs/libDaisy/src/per/qspi.h **** #ifndef UNIT_TEST // for unit tests, a dummy implementation
   5:../../libs/libDaisy/src/per/qspi.h **** 
   6:../../libs/libDaisy/src/per/qspi.h **** #include <cstdint>
   7:../../libs/libDaisy/src/per/qspi.h **** #include "daisy_core.h"
   8:../../libs/libDaisy/src/per/qspi.h **** #include "util/hal_map.h"
   9:../../libs/libDaisy/src/per/qspi.h **** 
  10:../../libs/libDaisy/src/per/qspi.h **** #define DSY_QSPI_TEXT       \
  11:../../libs/libDaisy/src/per/qspi.h ****     __attribute__((section( \
  12:../../libs/libDaisy/src/per/qspi.h ****         ".qspiflash_text"))) /**< used for reading memory in memory_mapped mode. */
  13:../../libs/libDaisy/src/per/qspi.h **** #define DSY_QSPI_DATA       \
  14:../../libs/libDaisy/src/per/qspi.h ****     __attribute__((section( \
  15:../../libs/libDaisy/src/per/qspi.h ****         ".qspiflash_data"))) /**< used for reading memory in memory_mapped mode. */
  16:../../libs/libDaisy/src/per/qspi.h **** #define DSY_QSPI_BSS        \
  17:../../libs/libDaisy/src/per/qspi.h ****     __attribute__((section( \
  18:../../libs/libDaisy/src/per/qspi.h ****         ".qspiflash_bss"))) /**< used for reading memory in memory_mapped mode. */
  19:../../libs/libDaisy/src/per/qspi.h **** 
  20:../../libs/libDaisy/src/per/qspi.h **** namespace daisy
  21:../../libs/libDaisy/src/per/qspi.h **** {
  22:../../libs/libDaisy/src/per/qspi.h **** /** @addtogroup serial
  23:../../libs/libDaisy/src/per/qspi.h **** @{
  24:../../libs/libDaisy/src/per/qspi.h **** */
  25:../../libs/libDaisy/src/per/qspi.h **** 
  26:../../libs/libDaisy/src/per/qspi.h **** /**
  27:../../libs/libDaisy/src/per/qspi.h ****  Driver for QSPI peripheral to interface with external flash memory. \n
  28:../../libs/libDaisy/src/per/qspi.h ****     Currently supported QSPI Devices: \n
  29:../../libs/libDaisy/src/per/qspi.h ****     * IS25LP080D
  30:../../libs/libDaisy/src/per/qspi.h **** */
  31:../../libs/libDaisy/src/per/qspi.h **** class QSPIHandle
  32:../../libs/libDaisy/src/per/qspi.h **** {
  33:../../libs/libDaisy/src/per/qspi.h ****   public:
  34:../../libs/libDaisy/src/per/qspi.h ****     enum Result
  35:../../libs/libDaisy/src/per/qspi.h ****     {
  36:../../libs/libDaisy/src/per/qspi.h ****         OK = 0,
  37:../../libs/libDaisy/src/per/qspi.h ****         ERR
  38:../../libs/libDaisy/src/per/qspi.h ****     };
  39:../../libs/libDaisy/src/per/qspi.h **** 
ARM GAS  C:\Users\skipi\AppData\Local\Temp\ccHKWaHh.s 			page 129


  40:../../libs/libDaisy/src/per/qspi.h ****     /** Indicates the current status of the module.
  41:../../libs/libDaisy/src/per/qspi.h ****          *  Warnings are indicated by a leading W.
  42:../../libs/libDaisy/src/per/qspi.h ****          *  Errors are indicated by a leading E and cause an immediate exit.
  43:../../libs/libDaisy/src/per/qspi.h ****          *
  44:../../libs/libDaisy/src/per/qspi.h ****          *  \param GOOD - No errors have been reported.
  45:../../libs/libDaisy/src/per/qspi.h ****          *  \param E_HAL_ERROR - HAL code did not return HAL_OK.
  46:../../libs/libDaisy/src/per/qspi.h ****          *  \param E_SWITCHING_MODES - An error was encountered while switching QSPI peripheral mod
  47:../../libs/libDaisy/src/per/qspi.h ****          *  \param E_INVALID_MODE - QSPI should not be written to while the program is executing fr
  48:../../libs/libDaisy/src/per/qspi.h ****          */
  49:../../libs/libDaisy/src/per/qspi.h ****     enum Status
  50:../../libs/libDaisy/src/per/qspi.h ****     {
  51:../../libs/libDaisy/src/per/qspi.h ****         GOOD = 0,
  52:../../libs/libDaisy/src/per/qspi.h ****         E_HAL_ERROR,
  53:../../libs/libDaisy/src/per/qspi.h ****         E_SWITCHING_MODES,
  54:../../libs/libDaisy/src/per/qspi.h ****         E_INVALID_MODE,
  55:../../libs/libDaisy/src/per/qspi.h ****     };
  56:../../libs/libDaisy/src/per/qspi.h **** 
  57:../../libs/libDaisy/src/per/qspi.h ****     /** Configuration structure for interfacing with QSPI Driver */
  58:../../libs/libDaisy/src/per/qspi.h ****     struct Config
  59:../../libs/libDaisy/src/per/qspi.h ****     {
  60:../../libs/libDaisy/src/per/qspi.h ****         /** Flash Devices supported. (Both of these are more-or-less the same, just different sizes
  61:../../libs/libDaisy/src/per/qspi.h ****         enum Device
  62:../../libs/libDaisy/src/per/qspi.h ****         {
  63:../../libs/libDaisy/src/per/qspi.h ****             IS25LP080D,  /**< & */
  64:../../libs/libDaisy/src/per/qspi.h ****             IS25LP064A,  /**< & */
  65:../../libs/libDaisy/src/per/qspi.h ****             DEVICE_LAST, /**< & */
  66:../../libs/libDaisy/src/per/qspi.h ****         };
  67:../../libs/libDaisy/src/per/qspi.h **** 
  68:../../libs/libDaisy/src/per/qspi.h ****         /**
  69:../../libs/libDaisy/src/per/qspi.h ****         Modes of operation.
  70:../../libs/libDaisy/src/per/qspi.h ****         Memory Mapped mode: QSPI configured so that the QSPI can be
  71:../../libs/libDaisy/src/per/qspi.h ****         read from starting address 0x90000000. Writing is not
  72:../../libs/libDaisy/src/per/qspi.h ****         possible in this mode. \n
  73:../../libs/libDaisy/src/per/qspi.h ****         Indirect Polling mode: Device driver enabled.
  74:../../libs/libDaisy/src/per/qspi.h ****         */
  75:../../libs/libDaisy/src/per/qspi.h ****         enum Mode
  76:../../libs/libDaisy/src/per/qspi.h ****         {
  77:../../libs/libDaisy/src/per/qspi.h ****             MEMORY_MAPPED,    /**< & */
  78:../../libs/libDaisy/src/per/qspi.h ****             INDIRECT_POLLING, /**< & */
  79:../../libs/libDaisy/src/per/qspi.h ****             MODE_LAST,
  80:../../libs/libDaisy/src/per/qspi.h ****         };
  81:../../libs/libDaisy/src/per/qspi.h **** 
  82:../../libs/libDaisy/src/per/qspi.h ****         //SCK,  CE# (active low)
  83:../../libs/libDaisy/src/per/qspi.h ****         struct
  84:../../libs/libDaisy/src/per/qspi.h ****         {
  85:../../libs/libDaisy/src/per/qspi.h ****             Pin io0; /**< & */
  86:../../libs/libDaisy/src/per/qspi.h ****             Pin io1; /**< & */
  87:../../libs/libDaisy/src/per/qspi.h ****             Pin io2; /**< & */
  88:../../libs/libDaisy/src/per/qspi.h ****             Pin io3; /**< & */
  89:../../libs/libDaisy/src/per/qspi.h ****             Pin clk; /**< & */
  90:../../libs/libDaisy/src/per/qspi.h ****             Pin ncs; /**< & */
  91:../../libs/libDaisy/src/per/qspi.h ****         } pin_config;
  92:../../libs/libDaisy/src/per/qspi.h **** 
  93:../../libs/libDaisy/src/per/qspi.h ****         Device device;
  94:../../libs/libDaisy/src/per/qspi.h ****         Mode   mode;
  95:../../libs/libDaisy/src/per/qspi.h ****     };
  96:../../libs/libDaisy/src/per/qspi.h **** 
ARM GAS  C:\Users\skipi\AppData\Local\Temp\ccHKWaHh.s 			page 130


  97:../../libs/libDaisy/src/per/qspi.h ****     /**
  98:../../libs/libDaisy/src/per/qspi.h ****         Initializes QSPI peripheral, and Resets, and prepares memory for access.
  99:../../libs/libDaisy/src/per/qspi.h ****         \param config should be populated with the mode, device and pin_config before calling this 
 100:../../libs/libDaisy/src/per/qspi.h ****         \return Result::OK or Result::ERR
 101:../../libs/libDaisy/src/per/qspi.h ****         */
 102:../../libs/libDaisy/src/per/qspi.h ****     Result Init(const Config& config);
 103:../../libs/libDaisy/src/per/qspi.h **** 
 104:../../libs/libDaisy/src/per/qspi.h ****     /** Returns the current config. */
 105:../../libs/libDaisy/src/per/qspi.h ****     const Config& GetConfig() const;
 106:../../libs/libDaisy/src/per/qspi.h **** 
 107:../../libs/libDaisy/src/per/qspi.h ****     // Couldn't this just be called before anything else in init? That
 108:../../libs/libDaisy/src/per/qspi.h ****     // would make manually calling it unnecessary.
 109:../../libs/libDaisy/src/per/qspi.h ****     /**
 110:../../libs/libDaisy/src/per/qspi.h ****         Deinitializes the peripheral
 111:../../libs/libDaisy/src/per/qspi.h ****         This should be called before reinitializing QSPI in a different mode.
 112:../../libs/libDaisy/src/per/qspi.h ****         \return Result::OK or Result::ERR
 113:../../libs/libDaisy/src/per/qspi.h ****         */
 114:../../libs/libDaisy/src/per/qspi.h ****     Result DeInit();
 115:../../libs/libDaisy/src/per/qspi.h **** 
 116:../../libs/libDaisy/src/per/qspi.h ****     /**
 117:../../libs/libDaisy/src/per/qspi.h ****         Writes a single page to to the specified address on the QSPI chip.
 118:../../libs/libDaisy/src/per/qspi.h ****         For IS25LP*, page size is 256 bytes.
 119:../../libs/libDaisy/src/per/qspi.h ****         \param address Address to write to
 120:../../libs/libDaisy/src/per/qspi.h ****         \param size Buffer size
 121:../../libs/libDaisy/src/per/qspi.h ****         \param buffer Buffer to write
 122:../../libs/libDaisy/src/per/qspi.h ****         \return Result::OK or Result::ERR
 123:../../libs/libDaisy/src/per/qspi.h ****         */
 124:../../libs/libDaisy/src/per/qspi.h ****     Result WritePage(uint32_t address, uint32_t size, uint8_t* buffer);
 125:../../libs/libDaisy/src/per/qspi.h **** 
 126:../../libs/libDaisy/src/per/qspi.h ****     /**
 127:../../libs/libDaisy/src/per/qspi.h ****         Writes data in buffer to to the QSPI. Starting at address to address+size
 128:../../libs/libDaisy/src/per/qspi.h ****         \param address Address to write to
 129:../../libs/libDaisy/src/per/qspi.h ****         \param size Buffer size
 130:../../libs/libDaisy/src/per/qspi.h ****         \param buffer Buffer to write
 131:../../libs/libDaisy/src/per/qspi.h ****         \return Result::OK or Result::ERR
 132:../../libs/libDaisy/src/per/qspi.h ****         */
 133:../../libs/libDaisy/src/per/qspi.h ****     Result Write(uint32_t address, uint32_t size, uint8_t* buffer);
 134:../../libs/libDaisy/src/per/qspi.h **** 
 135:../../libs/libDaisy/src/per/qspi.h ****     /**
 136:../../libs/libDaisy/src/per/qspi.h ****         Erases the area specified on the chip.
 137:../../libs/libDaisy/src/per/qspi.h ****         Erasures will happen by 4K, 32K or 64K increments.
 138:../../libs/libDaisy/src/per/qspi.h ****         Smallest erase possible is 4kB at a time. (on IS25LP*)
 139:../../libs/libDaisy/src/per/qspi.h ****         \param start_addr Address to begin erasing from
 140:../../libs/libDaisy/src/per/qspi.h ****         \param end_addr  Address to stop erasing at
 141:../../libs/libDaisy/src/per/qspi.h ****         \return Result::OK or Result::ERR
 142:../../libs/libDaisy/src/per/qspi.h ****         */
 143:../../libs/libDaisy/src/per/qspi.h ****     Result Erase(uint32_t start_addr, uint32_t end_addr);
 144:../../libs/libDaisy/src/per/qspi.h **** 
 145:../../libs/libDaisy/src/per/qspi.h ****     /**
 146:../../libs/libDaisy/src/per/qspi.h ****          Erases a single sector of the chip.
 147:../../libs/libDaisy/src/per/qspi.h ****         TODO: Document the size of this function.
 148:../../libs/libDaisy/src/per/qspi.h ****         \param address Address of sector to erase
 149:../../libs/libDaisy/src/per/qspi.h ****         \return Result::OK or Result::ERR
 150:../../libs/libDaisy/src/per/qspi.h ****         */
 151:../../libs/libDaisy/src/per/qspi.h ****     Result EraseSector(uint32_t address);
 152:../../libs/libDaisy/src/per/qspi.h **** 
 153:../../libs/libDaisy/src/per/qspi.h ****     /** Returns the current class status. Useful for debugging.
ARM GAS  C:\Users\skipi\AppData\Local\Temp\ccHKWaHh.s 			page 131


 154:../../libs/libDaisy/src/per/qspi.h ****      *  \returns Status
 155:../../libs/libDaisy/src/per/qspi.h ****      */
 156:../../libs/libDaisy/src/per/qspi.h ****     Status GetStatus();
 157:../../libs/libDaisy/src/per/qspi.h **** 
 158:../../libs/libDaisy/src/per/qspi.h ****     /** Returns a pointer to the actual memory used
 159:../../libs/libDaisy/src/per/qspi.h ****      *  The memory at this address is read-only
 160:../../libs/libDaisy/src/per/qspi.h ****      *  to write to it use the Write function.
 161:../../libs/libDaisy/src/per/qspi.h ****      *
 162:../../libs/libDaisy/src/per/qspi.h ****      *  \param offset returns the pointer starting this
 163:../../libs/libDaisy/src/per/qspi.h ****      *                many bytes into the memory
 164:../../libs/libDaisy/src/per/qspi.h ****     */
 165:../../libs/libDaisy/src/per/qspi.h ****     void* GetData(uint32_t offset = 0);
 166:../../libs/libDaisy/src/per/qspi.h **** 
 167:../../libs/libDaisy/src/per/qspi.h ****     QSPIHandle() : pimpl_(nullptr) {}
 4769              		.loc 14 167 5 view .LVU1203
 4770              		.loc 14 167 5 is_stmt 0 view .LVU1204
 4771              	.LBE1502:
 4772              	.LBB1507:
 4773              	.LBI1507:
  58:../../libs/libDaisy/src/per/qspi.h ****     {
 4774              		.loc 14 58 12 is_stmt 1 view .LVU1205
 4775              	.LBB1508:
 4776              	.LBI1508:
  84:../../libs/libDaisy/src/per/qspi.h ****             Pin io0; /**< & */
 4777              		.loc 14 84 9 view .LVU1206
 4778              	.LBB1509:
 4779              	.LBI1509:
 4780              		.loc 13 204 15 view .LVU1207
 4781              		.loc 13 204 15 is_stmt 0 view .LVU1208
 4782              	.LBE1509:
 4783              	.LBB1510:
 4784              	.LBI1510:
 4785              		.loc 13 204 15 is_stmt 1 view .LVU1209
 4786              		.loc 13 204 15 is_stmt 0 view .LVU1210
 4787              	.LBE1510:
 4788              	.LBB1511:
 4789              	.LBI1511:
 4790              		.loc 13 204 15 is_stmt 1 view .LVU1211
 4791              		.loc 13 204 15 is_stmt 0 view .LVU1212
 4792              	.LBE1511:
 4793              	.LBB1512:
 4794              	.LBI1512:
 4795              		.loc 13 204 15 is_stmt 1 view .LVU1213
 4796              		.loc 13 204 15 is_stmt 0 view .LVU1214
 4797              	.LBE1512:
 4798              	.LBB1513:
 4799              	.LBI1513:
 4800              		.loc 13 204 15 is_stmt 1 view .LVU1215
 4801              		.loc 13 204 15 is_stmt 0 view .LVU1216
 4802              	.LBE1513:
 4803              	.LBB1514:
 4804              	.LBI1514:
 4805              		.loc 13 204 15 is_stmt 1 view .LVU1217
 4806              		.loc 13 204 15 is_stmt 0 view .LVU1218
 4807              	.LBE1514:
 4808              	.LBE1508:
 4809              	.LBE1507:
ARM GAS  C:\Users\skipi\AppData\Local\Temp\ccHKWaHh.s 			page 132


 4810              	.LBB1515:
 4811              	.LBI1515:
  87:../../libs/libDaisy/src/hid/audio.h ****     ~AudioHandle() {}
 4812              		.loc 6 87 5 is_stmt 1 view .LVU1219
  87:../../libs/libDaisy/src/hid/audio.h ****     ~AudioHandle() {}
 4813              		.loc 6 87 5 is_stmt 0 view .LVU1220
 4814              	.LBE1515:
 4815              	.LBB1518:
 4816              	.LBI1518:
 109:../../libs/libDaisy/src/per/adc.h ****     ~AdcHandle() {}
 4817              		.loc 5 109 5 is_stmt 1 view .LVU1221
 109:../../libs/libDaisy/src/per/adc.h ****     ~AdcHandle() {}
 4818              		.loc 5 109 5 is_stmt 0 view .LVU1222
 4819              	.LBE1518:
 4820              	.LBB1519:
 4821              	.LBI1519:
 4822              		.file 15 "../../libs/libDaisy/src/per/dac.h"
   1:../../libs/libDaisy/src/per/dac.h **** #pragma once
   2:../../libs/libDaisy/src/per/dac.h **** #ifndef DSY_DAC_H
   3:../../libs/libDaisy/src/per/dac.h **** #define DSY_DAC_H
   4:../../libs/libDaisy/src/per/dac.h **** #include "stm32h7xx_hal.h"
   5:../../libs/libDaisy/src/per/dac.h **** #include "daisy_core.h"
   6:../../libs/libDaisy/src/per/dac.h **** 
   7:../../libs/libDaisy/src/per/dac.h **** namespace daisy
   8:../../libs/libDaisy/src/per/dac.h **** {
   9:../../libs/libDaisy/src/per/dac.h **** /** @brief DAC handle for Built-in DAC Peripheral 
  10:../../libs/libDaisy/src/per/dac.h ****  *  @ingroup per_analog
  11:../../libs/libDaisy/src/per/dac.h ****  ** 
  12:../../libs/libDaisy/src/per/dac.h ****  ** For now only Normal Mode is supported,
  13:../../libs/libDaisy/src/per/dac.h ****  ** Sample and hold mode provides reduced power consumption, but requires a bit more setup.
  14:../../libs/libDaisy/src/per/dac.h ****  **
  15:../../libs/libDaisy/src/per/dac.h ****  ** For now connecting the DAC through other internal peripherals is also not supported.
  16:../../libs/libDaisy/src/per/dac.h ****  **
  17:../../libs/libDaisy/src/per/dac.h ****  ** Since the DAC channels have dedicated pins we don't need to pass in a pin config like with
  18:../../libs/libDaisy/src/per/dac.h ****  ** other modules. However, it is still important to not try to use the DAC pins for anything else.
  19:../../libs/libDaisy/src/per/dac.h ****  ** DAC Channel 1 is on PA4, and DAC Channel 2 is on PA5
  20:../../libs/libDaisy/src/per/dac.h ****  ***/
  21:../../libs/libDaisy/src/per/dac.h **** class DacHandle
  22:../../libs/libDaisy/src/per/dac.h **** {
  23:../../libs/libDaisy/src/per/dac.h ****   public:
  24:../../libs/libDaisy/src/per/dac.h ****     /** Return Values for the DacHandle class */
  25:../../libs/libDaisy/src/per/dac.h ****     enum class Result
  26:../../libs/libDaisy/src/per/dac.h ****     {
  27:../../libs/libDaisy/src/per/dac.h ****         OK,
  28:../../libs/libDaisy/src/per/dac.h ****         ERR,
  29:../../libs/libDaisy/src/per/dac.h ****     };
  30:../../libs/libDaisy/src/per/dac.h **** 
  31:../../libs/libDaisy/src/per/dac.h ****     /** Selects which channel(s) will be configured for use. */
  32:../../libs/libDaisy/src/per/dac.h ****     enum class Channel
  33:../../libs/libDaisy/src/per/dac.h ****     {
  34:../../libs/libDaisy/src/per/dac.h ****         ONE,
  35:../../libs/libDaisy/src/per/dac.h ****         TWO,
  36:../../libs/libDaisy/src/per/dac.h ****         BOTH,
  37:../../libs/libDaisy/src/per/dac.h ****     };
  38:../../libs/libDaisy/src/per/dac.h **** 
  39:../../libs/libDaisy/src/per/dac.h ****     /** Sets the Mode for the DAC channels.
  40:../../libs/libDaisy/src/per/dac.h ****      **
ARM GAS  C:\Users\skipi\AppData\Local\Temp\ccHKWaHh.s 			page 133


  41:../../libs/libDaisy/src/per/dac.h ****      ** Polling mode uses the blocking mode to transmit a single value at a time.
  42:../../libs/libDaisy/src/per/dac.h ****      **
  43:../../libs/libDaisy/src/per/dac.h ****      ** DMA mode uses a buffer, and periodically transmits it triggering a 
  44:../../libs/libDaisy/src/per/dac.h ****      ** callback to fill the buffer when it is ready for more samples.
  45:../../libs/libDaisy/src/per/dac.h ****      ***/
  46:../../libs/libDaisy/src/per/dac.h ****     enum class Mode
  47:../../libs/libDaisy/src/per/dac.h ****     {
  48:../../libs/libDaisy/src/per/dac.h ****         POLLING,
  49:../../libs/libDaisy/src/per/dac.h ****         DMA,
  50:../../libs/libDaisy/src/per/dac.h ****     };
  51:../../libs/libDaisy/src/per/dac.h **** 
  52:../../libs/libDaisy/src/per/dac.h ****     /** Sets the number of bits per sample transmitted out of the DAC.
  53:../../libs/libDaisy/src/per/dac.h ****      ** The output range will be: 0V - VDDA
  54:../../libs/libDaisy/src/per/dac.h ****      ** The resolution will be roughly: bitdepth / (VDDA - 0V) 
  55:../../libs/libDaisy/src/per/dac.h ****      ***/
  56:../../libs/libDaisy/src/per/dac.h ****     enum class BitDepth
  57:../../libs/libDaisy/src/per/dac.h ****     {
  58:../../libs/libDaisy/src/per/dac.h ****         BITS_8,
  59:../../libs/libDaisy/src/per/dac.h ****         BITS_12
  60:../../libs/libDaisy/src/per/dac.h ****     };
  61:../../libs/libDaisy/src/per/dac.h **** 
  62:../../libs/libDaisy/src/per/dac.h ****     /** Sets whether the DAC output is buffered for higher drive ability. */
  63:../../libs/libDaisy/src/per/dac.h ****     enum class BufferState
  64:../../libs/libDaisy/src/per/dac.h ****     {
  65:../../libs/libDaisy/src/per/dac.h ****         ENABLED,
  66:../../libs/libDaisy/src/per/dac.h ****         DISABLED,
  67:../../libs/libDaisy/src/per/dac.h ****     };
  68:../../libs/libDaisy/src/per/dac.h **** 
  69:../../libs/libDaisy/src/per/dac.h ****     /** Configuration structure for initializing the DAC structure. */
  70:../../libs/libDaisy/src/per/dac.h ****     struct Config
  71:../../libs/libDaisy/src/per/dac.h ****     {
  72:../../libs/libDaisy/src/per/dac.h ****         /** Target Samplerate in Hz used to configure the internal 
  73:../../libs/libDaisy/src/per/dac.h ****          ** timebase for DMA mode. Does nothing in POLLING mode.
  74:../../libs/libDaisy/src/per/dac.h ****          ** If the value is 0 at Init time this will default to 48000Hz 
  75:../../libs/libDaisy/src/per/dac.h ****          ** otherwise the driver will attempt meet the target.*/
  76:../../libs/libDaisy/src/per/dac.h ****         uint32_t target_samplerate;
  77:../../libs/libDaisy/src/per/dac.h **** 
  78:../../libs/libDaisy/src/per/dac.h ****         Channel     chn;
  79:../../libs/libDaisy/src/per/dac.h ****         Mode        mode;
  80:../../libs/libDaisy/src/per/dac.h ****         BitDepth    bitdepth;
  81:../../libs/libDaisy/src/per/dac.h ****         BufferState buff_state;
  82:../../libs/libDaisy/src/per/dac.h ****     };
  83:../../libs/libDaisy/src/per/dac.h **** 
  84:../../libs/libDaisy/src/per/dac.h ****     DacHandle() : pimpl_(nullptr) {}
 4823              		.loc 15 84 5 is_stmt 1 view .LVU1223
 4824              		.loc 15 84 5 is_stmt 0 view .LVU1224
 4825              	.LBE1519:
 4826              	.LBB1522:
 4827              	.LBI1522:
  40:../../libs/libDaisy/src/hid/usb.h **** 
 4828              		.loc 4 40 5 is_stmt 1 view .LVU1225
  40:../../libs/libDaisy/src/hid/usb.h **** 
 4829              		.loc 4 40 5 is_stmt 0 view .LVU1226
 4830              	.LBE1522:
 4831              	.LBB1523:
 4832              	.LBI1523:
 4833              		.file 16 "../../libs/libDaisy/src/per/gpio.h"
ARM GAS  C:\Users\skipi\AppData\Local\Temp\ccHKWaHh.s 			page 134


   1:../../libs/libDaisy/src/per/gpio.h **** #pragma once
   2:../../libs/libDaisy/src/per/gpio.h **** #ifndef DSY_GPIO_H
   3:../../libs/libDaisy/src/per/gpio.h **** #define DSY_GPIO_H
   4:../../libs/libDaisy/src/per/gpio.h **** #include "daisy_core.h"
   5:../../libs/libDaisy/src/per/gpio.h **** 
   6:../../libs/libDaisy/src/per/gpio.h **** #ifdef __cplusplus
   7:../../libs/libDaisy/src/per/gpio.h **** 
   8:../../libs/libDaisy/src/per/gpio.h **** namespace daisy
   9:../../libs/libDaisy/src/per/gpio.h **** {
  10:../../libs/libDaisy/src/per/gpio.h **** /** @brief General Purpose I/O control 
  11:../../libs/libDaisy/src/per/gpio.h ****  *  @details peripheral control over a single GPIO
  12:../../libs/libDaisy/src/per/gpio.h ****  *  @ingroup peripheral
  13:../../libs/libDaisy/src/per/gpio.h ****  *   
  14:../../libs/libDaisy/src/per/gpio.h ****  *  Button Input (with internal Pullup resistor)
  15:../../libs/libDaisy/src/per/gpio.h ****  *  @include GPIO_Input.cpp 
  16:../../libs/libDaisy/src/per/gpio.h ****  * 
  17:../../libs/libDaisy/src/per/gpio.h ****  *  Output Example (perfect for blinking an LED)
  18:../../libs/libDaisy/src/per/gpio.h ****  *  @include GPIO_Output.cpp
  19:../../libs/libDaisy/src/per/gpio.h ****  * 
  20:../../libs/libDaisy/src/per/gpio.h **** */
  21:../../libs/libDaisy/src/per/gpio.h **** class GPIO
  22:../../libs/libDaisy/src/per/gpio.h **** {
  23:../../libs/libDaisy/src/per/gpio.h ****   public:
  24:../../libs/libDaisy/src/per/gpio.h ****     /** @brief Mode of operation for the specified GPIO */
  25:../../libs/libDaisy/src/per/gpio.h ****     enum class Mode
  26:../../libs/libDaisy/src/per/gpio.h ****     {
  27:../../libs/libDaisy/src/per/gpio.h ****         INPUT,      /**< Input for reading state of pin */
  28:../../libs/libDaisy/src/per/gpio.h ****         OUTPUT,     /**< Output w/ push-pull configuration */
  29:../../libs/libDaisy/src/per/gpio.h ****         OPEN_DRAIN, /**< Output w/ open-drain configuration */
  30:../../libs/libDaisy/src/per/gpio.h ****         ANALOG,     /**< Analog for connection to ADC or DAC peripheral */
  31:../../libs/libDaisy/src/per/gpio.h ****     };
  32:../../libs/libDaisy/src/per/gpio.h **** 
  33:../../libs/libDaisy/src/per/gpio.h ****     /** @brief Configures whether an internal Pull up or Pull down resistor is used. 
  34:../../libs/libDaisy/src/per/gpio.h ****      *  
  35:../../libs/libDaisy/src/per/gpio.h ****      * Internal Pull up/down resistors are typically 40k ohms, and will be between
  36:../../libs/libDaisy/src/per/gpio.h ****      * 30k and 50k
  37:../../libs/libDaisy/src/per/gpio.h ****      * 
  38:../../libs/libDaisy/src/per/gpio.h ****      * When the Pin is configured in Analog mode, the pull up/down resistors are
  39:../../libs/libDaisy/src/per/gpio.h ****      * disabled by hardware. 
  40:../../libs/libDaisy/src/per/gpio.h ****      */
  41:../../libs/libDaisy/src/per/gpio.h ****     enum class Pull
  42:../../libs/libDaisy/src/per/gpio.h ****     {
  43:../../libs/libDaisy/src/per/gpio.h ****         NOPULL,   /**< No pull up resistor */
  44:../../libs/libDaisy/src/per/gpio.h ****         PULLUP,   /**< Internal pull up enabled */
  45:../../libs/libDaisy/src/per/gpio.h ****         PULLDOWN, /**< Internal pull down enabled*/
  46:../../libs/libDaisy/src/per/gpio.h ****     };
  47:../../libs/libDaisy/src/per/gpio.h **** 
  48:../../libs/libDaisy/src/per/gpio.h ****     /** @brief Output speed controls the drive strength, and slew rate of the pin */
  49:../../libs/libDaisy/src/per/gpio.h ****     enum class Speed
  50:../../libs/libDaisy/src/per/gpio.h ****     {
  51:../../libs/libDaisy/src/per/gpio.h ****         LOW,
  52:../../libs/libDaisy/src/per/gpio.h ****         MEDIUM,
  53:../../libs/libDaisy/src/per/gpio.h ****         HIGH,
  54:../../libs/libDaisy/src/per/gpio.h ****         VERY_HIGH,
  55:../../libs/libDaisy/src/per/gpio.h ****     };
  56:../../libs/libDaisy/src/per/gpio.h **** 
  57:../../libs/libDaisy/src/per/gpio.h ****     /** @brief Configuration for a given GPIO */
ARM GAS  C:\Users\skipi\AppData\Local\Temp\ccHKWaHh.s 			page 135


  58:../../libs/libDaisy/src/per/gpio.h ****     struct Config
  59:../../libs/libDaisy/src/per/gpio.h ****     {
  60:../../libs/libDaisy/src/per/gpio.h ****         Pin   pin;
  61:../../libs/libDaisy/src/per/gpio.h ****         Mode  mode;
  62:../../libs/libDaisy/src/per/gpio.h ****         Pull  pull;
  63:../../libs/libDaisy/src/per/gpio.h ****         Speed speed;
  64:../../libs/libDaisy/src/per/gpio.h **** 
  65:../../libs/libDaisy/src/per/gpio.h ****         /** Constructor with no arguments will prepare an invalid GPIO set as
  66:../../libs/libDaisy/src/per/gpio.h ****          *  an input, with no pullup. 
  67:../../libs/libDaisy/src/per/gpio.h ****          */
  68:../../libs/libDaisy/src/per/gpio.h ****         Config()
  69:../../libs/libDaisy/src/per/gpio.h ****         : pin(), mode(Mode::INPUT), pull(Pull::NOPULL), speed(Speed::LOW)
  70:../../libs/libDaisy/src/per/gpio.h ****         {
  71:../../libs/libDaisy/src/per/gpio.h ****         }
  72:../../libs/libDaisy/src/per/gpio.h ****     };
  73:../../libs/libDaisy/src/per/gpio.h **** 
  74:../../libs/libDaisy/src/per/gpio.h ****     GPIO() {}
 4834              		.loc 16 74 5 is_stmt 1 view .LVU1227
 4835              	.LBB1524:
 4836              	.LBB1525:
 4837              	.LBI1525:
  68:../../libs/libDaisy/src/per/gpio.h ****         : pin(), mode(Mode::INPUT), pull(Pull::NOPULL), speed(Speed::LOW)
 4838              		.loc 16 68 9 view .LVU1228
 4839              	.LBB1526:
 4840              	.LBB1527:
 4841              	.LBB1528:
 4842              	.LBI1528:
 4843              		.loc 13 204 15 view .LVU1229
 4844              		.loc 13 204 15 is_stmt 0 view .LVU1230
 4845              	.LBE1528:
 4846              	.LBE1527:
 4847              	.LBE1526:
 4848              	.LBE1525:
 4849              	.LBE1524:
 4850              	.LBE1523:
 4851              	.LBB1537:
 4852              	.LBI1537:
 4853              		.loc 16 74 5 is_stmt 1 view .LVU1231
 4854              	.LBB1538:
 4855              	.LBB1539:
 4856              	.LBI1539:
  68:../../libs/libDaisy/src/per/gpio.h ****         : pin(), mode(Mode::INPUT), pull(Pull::NOPULL), speed(Speed::LOW)
 4857              		.loc 16 68 9 view .LVU1232
 4858              	.LBB1540:
 4859              	.LBB1541:
 4860              	.LBB1542:
 4861              	.LBI1542:
 4862              		.loc 13 204 15 view .LVU1233
 4863              		.loc 13 204 15 is_stmt 0 view .LVU1234
 4864              	.LBE1542:
 4865              	.LBE1541:
 4866              	.LBE1540:
 4867              	.LBE1539:
 4868              	.LBE1538:
 4869              	.LBE1537:
 4870              	.LBB1551:
 4871              	.LBI1551:
ARM GAS  C:\Users\skipi\AppData\Local\Temp\ccHKWaHh.s 			page 136


  96:../../libs/libDaisy/src/sys/system.h ****     ~System() {}
 4872              		.loc 3 96 5 is_stmt 1 view .LVU1235
  96:../../libs/libDaisy/src/sys/system.h ****     ~System() {}
 4873              		.loc 3 96 5 is_stmt 0 view .LVU1236
 4874              	.LBE1551:
 4875              	.LBB1552:
 4876              	.LBI1552:
  20:../../libs/libDaisy/src/dev/codec_ak4556.h ****     ~Ak4556() {}
 4877              		.loc 2 20 5 is_stmt 1 view .LVU1237
 4878              	.LBB1553:
 4879              	.LBI1553:
 4880              		.loc 16 74 5 view .LVU1238
 4881              	.LBB1554:
 4882              	.LBB1555:
 4883              	.LBI1555:
  68:../../libs/libDaisy/src/per/gpio.h ****         : pin(), mode(Mode::INPUT), pull(Pull::NOPULL), speed(Speed::LOW)
 4884              		.loc 16 68 9 view .LVU1239
 4885              	.LBB1556:
 4886              	.LBB1557:
 4887              	.LBB1558:
 4888              	.LBI1558:
 4889              		.loc 13 204 15 view .LVU1240
 4890              		.loc 13 204 15 is_stmt 0 view .LVU1241
 4891              	.LBE1558:
 4892              	.LBE1557:
 4893              	.LBE1556:
 4894              	.LBE1555:
 4895              	.LBE1554:
 4896              	.LBE1553:
 4897              	.LBE1552:
 4898              	.LBB1569:
 4899              	.LBI1569:
 4900              		.file 17 "../../libs/libDaisy/src/per/sai.h"
   1:../../libs/libDaisy/src/per/sai.h **** #pragma once
   2:../../libs/libDaisy/src/per/sai.h **** #ifndef DSY_SAI_H
   3:../../libs/libDaisy/src/per/sai.h **** #define DSY_SAI_H
   4:../../libs/libDaisy/src/per/sai.h **** 
   5:../../libs/libDaisy/src/per/sai.h **** #include "util/hal_map.h"
   6:../../libs/libDaisy/src/per/sai.h **** #include "daisy_core.h"
   7:../../libs/libDaisy/src/per/sai.h **** 
   8:../../libs/libDaisy/src/per/sai.h **** namespace daisy
   9:../../libs/libDaisy/src/per/sai.h **** {
  10:../../libs/libDaisy/src/per/sai.h **** /** 
  11:../../libs/libDaisy/src/per/sai.h ****  * Support for I2S Audio Protocol with different bit-depth, samplerate options
  12:../../libs/libDaisy/src/per/sai.h ****  * Allows for master or slave, as well as freedom of selecting direction, 
  13:../../libs/libDaisy/src/per/sai.h ****  * and other behavior for each peripheral, and block.
  14:../../libs/libDaisy/src/per/sai.h ****  * 
  15:../../libs/libDaisy/src/per/sai.h ****  * DMA Transfer commands must use buffers located within non-cached memory or use cache maintenance
  16:../../libs/libDaisy/src/per/sai.h ****  * To declare an unitialized global element in the DMA memory section:
  17:../../libs/libDaisy/src/per/sai.h ****  *    int32_t DSY_DMA_BUFFER_SECTOR my_buffer[96];
  18:../../libs/libDaisy/src/per/sai.h ****  *
  19:../../libs/libDaisy/src/per/sai.h ****  * Callback functions will be called once per half of the buffer. In the above example, 
  20:../../libs/libDaisy/src/per/sai.h ****  * the callback function would be called once for every 48 samples.
  21:../../libs/libDaisy/src/per/sai.h ****  * 
  22:../../libs/libDaisy/src/per/sai.h ****  * Use SAI Handle like this:
  23:../../libs/libDaisy/src/per/sai.h ****  * 
  24:../../libs/libDaisy/src/per/sai.h ****  *  SaiHandle::Config sai_config;
ARM GAS  C:\Users\skipi\AppData\Local\Temp\ccHKWaHh.s 			page 137


  25:../../libs/libDaisy/src/per/sai.h ****  *  sai_config.periph          = SaiHandle::Config::Peripheral::SAI_1;
  26:../../libs/libDaisy/src/per/sai.h ****  *  sai_config.sr              = SaiHandle::Config::SampleRate::SAI_48KHZ;
  27:../../libs/libDaisy/src/per/sai.h ****  *  sai_config.bit_depth       = SaiHandle::Config::BitDepth::SAI_24BIT;
  28:../../libs/libDaisy/src/per/sai.h ****  *  sai_config.a_sync          = SaiHandle::Config::Sync::MASTER;
  29:../../libs/libDaisy/src/per/sai.h ****  *  sai_config.b_sync          = SaiHandle::Config::Sync::SLAVE;
  30:../../libs/libDaisy/src/per/sai.h ****  *  sai_config.a_dir           = SaiHandle::Config::Direction::RECEIVE;
  31:../../libs/libDaisy/src/per/sai.h ****  *  sai_config.b_dir           = SaiHandle::Config::Direction::TRANSMIT;
  32:../../libs/libDaisy/src/per/sai.h ****  *  sai_config.pin_config.fs   = {DSY_GPIOE, 4};
  33:../../libs/libDaisy/src/per/sai.h ****  *  sai_config.pin_config.mclk = {DSY_GPIOE, 2};
  34:../../libs/libDaisy/src/per/sai.h ****  *  sai_config.pin_config.sck  = {DSY_GPIOE, 5};
  35:../../libs/libDaisy/src/per/sai.h ****  *  sai_config.pin_config.sa   = {DSY_GPIOE, 6};
  36:../../libs/libDaisy/src/per/sai.h ****  *  sai_config.pin_config.sb   = {DSY_GPIOE, 3};
  37:../../libs/libDaisy/src/per/sai.h ****  *  // Then Initialize
  38:../../libs/libDaisy/src/per/sai.h ****  *  SaiHandle sai;
  39:../../libs/libDaisy/src/per/sai.h ****  *  sai.Init(sai_config);
  40:../../libs/libDaisy/src/per/sai.h ****  *  // Now you can use it:
  41:../../libs/libDaisy/src/per/sai.h ****  *  sai.StartDma(. . .);
  42:../../libs/libDaisy/src/per/sai.h ****  */
  43:../../libs/libDaisy/src/per/sai.h **** class SaiHandle
  44:../../libs/libDaisy/src/per/sai.h **** {
  45:../../libs/libDaisy/src/per/sai.h ****   public:
  46:../../libs/libDaisy/src/per/sai.h ****     /** Contains settings for initialising an SAI Interface */
  47:../../libs/libDaisy/src/per/sai.h ****     struct Config
  48:../../libs/libDaisy/src/per/sai.h ****     {
  49:../../libs/libDaisy/src/per/sai.h ****         /** Specifies the internal peripheral to use (mapped to different hardware pins) */
  50:../../libs/libDaisy/src/per/sai.h ****         enum class Peripheral
  51:../../libs/libDaisy/src/per/sai.h ****         {
  52:../../libs/libDaisy/src/per/sai.h ****             SAI_1,
  53:../../libs/libDaisy/src/per/sai.h ****             SAI_2,
  54:../../libs/libDaisy/src/per/sai.h ****         };
  55:../../libs/libDaisy/src/per/sai.h **** 
  56:../../libs/libDaisy/src/per/sai.h ****         /** Rate at which samples will be streaming to/from the device. */
  57:../../libs/libDaisy/src/per/sai.h ****         enum class SampleRate
  58:../../libs/libDaisy/src/per/sai.h ****         {
  59:../../libs/libDaisy/src/per/sai.h ****             SAI_8KHZ,
  60:../../libs/libDaisy/src/per/sai.h ****             SAI_16KHZ,
  61:../../libs/libDaisy/src/per/sai.h ****             SAI_32KHZ,
  62:../../libs/libDaisy/src/per/sai.h ****             SAI_48KHZ,
  63:../../libs/libDaisy/src/per/sai.h ****             SAI_96KHZ,
  64:../../libs/libDaisy/src/per/sai.h ****         };
  65:../../libs/libDaisy/src/per/sai.h **** 
  66:../../libs/libDaisy/src/per/sai.h ****         /** Bit Depth that the hardware expects to be transferred to/from the device. */
  67:../../libs/libDaisy/src/per/sai.h ****         enum class BitDepth
  68:../../libs/libDaisy/src/per/sai.h ****         {
  69:../../libs/libDaisy/src/per/sai.h ****             SAI_16BIT,
  70:../../libs/libDaisy/src/per/sai.h ****             SAI_24BIT,
  71:../../libs/libDaisy/src/per/sai.h ****             SAI_32BIT,
  72:../../libs/libDaisy/src/per/sai.h ****         };
  73:../../libs/libDaisy/src/per/sai.h **** 
  74:../../libs/libDaisy/src/per/sai.h ****         /** Specifies whether a particular block is the master or the slave 
  75:../../libs/libDaisy/src/per/sai.h ****          ** If both are set to slave, no MCLK signal will be used, and it is
  76:../../libs/libDaisy/src/per/sai.h ****          ** expected that the codec will have its own xtal.
  77:../../libs/libDaisy/src/per/sai.h ****          */
  78:../../libs/libDaisy/src/per/sai.h ****         enum class Sync
  79:../../libs/libDaisy/src/per/sai.h ****         {
  80:../../libs/libDaisy/src/per/sai.h ****             MASTER,
  81:../../libs/libDaisy/src/per/sai.h ****             SLAVE,
ARM GAS  C:\Users\skipi\AppData\Local\Temp\ccHKWaHh.s 			page 138


  82:../../libs/libDaisy/src/per/sai.h ****         };
  83:../../libs/libDaisy/src/per/sai.h **** 
  84:../../libs/libDaisy/src/per/sai.h ****         /** Specifies the direction for each peripheral block. */
  85:../../libs/libDaisy/src/per/sai.h ****         enum class Direction
  86:../../libs/libDaisy/src/per/sai.h ****         {
  87:../../libs/libDaisy/src/per/sai.h ****             TRANSMIT,
  88:../../libs/libDaisy/src/per/sai.h ****             RECEIVE,
  89:../../libs/libDaisy/src/per/sai.h ****         };
  90:../../libs/libDaisy/src/per/sai.h **** 
  91:../../libs/libDaisy/src/per/sai.h ****         Peripheral periph;
  92:../../libs/libDaisy/src/per/sai.h ****         struct
  93:../../libs/libDaisy/src/per/sai.h ****         {
  94:../../libs/libDaisy/src/per/sai.h ****             Pin mclk, fs, sck, sa, sb;
  95:../../libs/libDaisy/src/per/sai.h ****         } pin_config;
  96:../../libs/libDaisy/src/per/sai.h ****         SampleRate sr;
  97:../../libs/libDaisy/src/per/sai.h ****         BitDepth   bit_depth;
  98:../../libs/libDaisy/src/per/sai.h ****         Sync       a_sync, b_sync;
  99:../../libs/libDaisy/src/per/sai.h ****         Direction  a_dir, b_dir;
 100:../../libs/libDaisy/src/per/sai.h ****     };
 101:../../libs/libDaisy/src/per/sai.h **** 
 102:../../libs/libDaisy/src/per/sai.h ****     /** Return values for SAI functions */
 103:../../libs/libDaisy/src/per/sai.h ****     enum class Result
 104:../../libs/libDaisy/src/per/sai.h ****     {
 105:../../libs/libDaisy/src/per/sai.h ****         OK,
 106:../../libs/libDaisy/src/per/sai.h ****         ERR,
 107:../../libs/libDaisy/src/per/sai.h ****     };
 108:../../libs/libDaisy/src/per/sai.h **** 
 109:../../libs/libDaisy/src/per/sai.h ****     SaiHandle() : pimpl_(nullptr) {}
 4901              		.loc 17 109 5 is_stmt 1 view .LVU1242
 4902              	.LBE1569:
  21:../../libs/libDaisy/src/daisy_seed.h ****     ~DaisySeed() {}
 4903              		.loc 1 21 17 is_stmt 0 view .LVU1243
 4904 0082 4FF60B73 		movw	r3, #65291
 4905              	.LBB1572:
 4906              	.LBB1503:
 4907              	.LBB1504:
 4908              		.loc 14 167 34 view .LVU1244
 4909 0086 6948     		ldr	r0, .L98+56
 4910              	.LBE1504:
 4911              	.LBE1503:
 4912              	.LBE1572:
  21:../../libs/libDaisy/src/daisy_seed.h ****     ~DaisySeed() {}
 4913              		.loc 1 21 17 view .LVU1245
 4914 0088 6FF0F412 		mvn	r2, #15991028
 4915              	.LBE1501:
 4916              	.LBE1500:
  25:main.cpp      **** DaisySeed hw;
 4917              		.loc 10 25 11 view .LVU1246
 4918 008c 6849     		ldr	r1, .L98+60
 4919              	.LBB1585:
 4920              	.LBB1583:
  21:../../libs/libDaisy/src/daisy_seed.h ****     ~DaisySeed() {}
 4921              		.loc 1 21 17 view .LVU1247
 4922 008e 8365     		str	r3, [r0, #88]
 4923              	.LBB1573:
 4924              	.LBB1506:
 4925              	.LBB1505:
ARM GAS  C:\Users\skipi\AppData\Local\Temp\ccHKWaHh.s 			page 139


 4926              		.loc 14 167 34 view .LVU1248
 4927 0090 0660     		str	r6, [r0]
 4928              	.LBE1505:
 4929              	.LBE1506:
 4930              	.LBE1573:
 4931              	.LBB1574:
 4932              	.LBB1516:
 4933              	.LBB1517:
  87:../../libs/libDaisy/src/hid/audio.h ****     ~AudioHandle() {}
 4934              		.loc 6 87 35 view .LVU1249
 4935 0092 4661     		str	r6, [r0, #20]
 4936              	.LBE1517:
 4937              	.LBE1516:
 4938              	.LBE1574:
  21:../../libs/libDaisy/src/daisy_seed.h ****     ~DaisySeed() {}
 4939              		.loc 1 21 17 view .LVU1250
 4940 0094 C260     		str	r2, [r0, #12]
 4941              	.LBB1575:
 4942              	.LBB1520:
 4943              	.LBB1521:
 4944              		.loc 15 84 33 view .LVU1251
 4945 0096 0662     		str	r6, [r0, #32]
 4946              	.LBE1521:
 4947              	.LBE1520:
 4948              	.LBE1575:
 4949              	.LBB1576:
 4950              	.LBB1567:
 4951              	.LBB1565:
 4952              	.LBB1563:
 4953              	.LBB1561:
 4954              	.LBB1559:
  69:../../libs/libDaisy/src/per/gpio.h ****         {
 4955              		.loc 16 69 73 view .LVU1252
 4956 0098 4666     		str	r6, [r0, #100]
 4957              	.LBE1559:
 4958              	.LBE1561:
 4959              	.LBE1563:
 4960              	.LBE1565:
 4961              	.LBE1567:
 4962              	.LBE1576:
 4963              	.LBB1577:
 4964              	.LBB1570:
 4965              	.LBB1571:
 4966              		.loc 17 109 33 view .LVU1253
 4967 009a 0667     		str	r6, [r0, #112]
 4968              	.LVL325:
 4969              		.loc 17 109 33 view .LVU1254
 4970              	.LBE1571:
 4971              	.LBE1570:
 4972              	.LBE1577:
 4973              	.LBB1578:
 4974              	.LBB1535:
 4975              	.LBB1533:
 4976              	.LBB1531:
 4977              	.LBB1529:
  69:../../libs/libDaisy/src/per/gpio.h ****         {
 4978              		.loc 16 69 73 view .LVU1255
ARM GAS  C:\Users\skipi\AppData\Local\Temp\ccHKWaHh.s 			page 140


 4979 009c C0E90A36 		strd	r3, r6, [r0, #40]
 4980              	.LBE1529:
 4981              	.LBE1531:
 4982              	.LBE1533:
 4983              	.LBE1535:
 4984              	.LBE1578:
 4985              	.LBB1579:
 4986              	.LBB1549:
 4987              	.LBB1547:
 4988              	.LBB1545:
 4989              	.LBB1543:
 4990 00a0 C0E90F36 		strd	r3, r6, [r0, #60]
 4991              	.LBE1543:
 4992              	.LBE1545:
 4993              	.LBE1547:
 4994              	.LBE1549:
 4995              	.LBE1579:
  21:../../libs/libDaisy/src/daisy_seed.h ****     ~DaisySeed() {}
 4996              		.loc 1 21 17 view .LVU1256
 4997 00a4 C0E90122 		strd	r2, r2, [r0, #4]
 4998              	.LBB1580:
 4999              	.LBB1536:
 5000              	.LBB1534:
 5001              	.LBB1532:
 5002              	.LBB1530:
  69:../../libs/libDaisy/src/per/gpio.h ****         {
 5003              		.loc 16 69 73 view .LVU1257
 5004 00a8 C0E90C66 		strd	r6, r6, [r0, #48]
 5005              	.LBE1530:
 5006              	.LBE1532:
 5007              	.LBE1534:
 5008              	.LBE1536:
 5009              	.LBE1580:
 5010              	.LBE1583:
 5011              	.LBE1585:
  25:main.cpp      **** DaisySeed hw;
 5012              		.loc 10 25 11 view .LVU1258
 5013 00ac 3A46     		mov	r2, r7
 5014              	.LBB1586:
 5015              	.LBB1584:
 5016              	.LBB1581:
 5017              	.LBB1550:
 5018              	.LBB1548:
 5019              	.LBB1546:
 5020              	.LBB1544:
  69:../../libs/libDaisy/src/per/gpio.h ****         {
 5021              		.loc 16 69 73 view .LVU1259
 5022 00ae C0E91166 		strd	r6, r6, [r0, #68]
 5023              	.LBE1544:
 5024              	.LBE1546:
 5025              	.LBE1548:
 5026              	.LBE1550:
 5027              	.LBE1581:
 5028              	.LBB1582:
 5029              	.LBB1568:
 5030              	.LBB1566:
 5031              	.LBB1564:
ARM GAS  C:\Users\skipi\AppData\Local\Temp\ccHKWaHh.s 			page 141


 5032              	.LBB1562:
 5033              	.LBB1560:
 5034 00b2 C0E91766 		strd	r6, r6, [r0, #92]
 5035              	.LBE1560:
 5036              	.LBE1562:
 5037              	.LBE1564:
 5038              	.LBE1566:
 5039              	.LBE1568:
 5040              	.LBE1582:
 5041              	.LBE1584:
 5042              	.LBE1586:
  25:main.cpp      **** DaisySeed hw;
 5043              		.loc 10 25 11 view .LVU1260
 5044 00b6 FFF7FEFF 		bl	__aeabi_atexit
 5045              	.LVL326:
  27:main.cpp      **** Ramo pluck, pad, bass;
 5046              		.loc 10 27 6 view .LVU1261
 5047 00ba 2046     		mov	r0, r4
 5048 00bc FFF7FEFF 		bl	_ZN4RamoC1Ev
 5049              	.LVL327:
 5050 00c0 2046     		mov	r0, r4
  27:main.cpp      **** Ramo pluck, pad, bass;
 5051              		.loc 10 27 13 view .LVU1262
 5052 00c2 5C4C     		ldr	r4, .L98+64
  27:main.cpp      **** Ramo pluck, pad, bass;
 5053              		.loc 10 27 6 view .LVU1263
 5054 00c4 3A46     		mov	r2, r7
 5055 00c6 5C49     		ldr	r1, .L98+68
 5056 00c8 FFF7FEFF 		bl	__aeabi_atexit
 5057              	.LVL328:
  27:main.cpp      **** Ramo pluck, pad, bass;
 5058              		.loc 10 27 13 view .LVU1264
 5059 00cc 2046     		mov	r0, r4
 5060 00ce FFF7FEFF 		bl	_ZN4RamoC1Ev
 5061              	.LVL329:
 5062 00d2 2046     		mov	r0, r4
  27:main.cpp      **** Ramo pluck, pad, bass;
 5063              		.loc 10 27 18 view .LVU1265
 5064 00d4 594C     		ldr	r4, .L98+72
  27:main.cpp      **** Ramo pluck, pad, bass;
 5065              		.loc 10 27 13 view .LVU1266
 5066 00d6 3A46     		mov	r2, r7
 5067 00d8 5749     		ldr	r1, .L98+68
 5068 00da FFF7FEFF 		bl	__aeabi_atexit
 5069              	.LVL330:
  27:main.cpp      **** Ramo pluck, pad, bass;
 5070              		.loc 10 27 18 view .LVU1267
 5071 00de 2046     		mov	r0, r4
 5072 00e0 FFF7FEFF 		bl	_ZN4RamoC1Ev
 5073              	.LVL331:
 5074 00e4 3A46     		mov	r2, r7
 5075 00e6 5449     		ldr	r1, .L98+68
 5076 00e8 2046     		mov	r0, r4
 5077 00ea FFF7FEFF 		bl	__aeabi_atexit
 5078              	.LVL332:
 5079              	.LBB1587:
 5080              	.LBI1587:
ARM GAS  C:\Users\skipi\AppData\Local\Temp\ccHKWaHh.s 			page 142


  23:../../libs/DaisySP/Source/Synthesis/oscillator.h ****     ~Oscillator() {}
 5081              		.loc 8 23 5 is_stmt 1 view .LVU1268
  23:../../libs/DaisySP/Source/Synthesis/oscillator.h ****     ~Oscillator() {}
 5082              		.loc 8 23 5 is_stmt 0 view .LVU1269
 5083              	.LBE1587:
  29:main.cpp      **** Oscillator lfo1, lfo2, lfo3;
 5084              		.loc 10 29 12 view .LVU1270
 5085 00ee 3A46     		mov	r2, r7
 5086 00f0 5349     		ldr	r1, .L98+76
 5087              	.LBB1588:
 5088              	.LBB1497:
 5089              	.LBB1494:
  44:../../libs/DaisySP/Source/Control/adsr.h ****     ~Adsr() {}
 5090              		.loc 7 44 12 view .LVU1271
 5091 00f2 0024     		movs	r4, #0
 5092              	.LBE1494:
 5093              	.LBE1497:
 5094              	.LBE1588:
  29:main.cpp      **** Oscillator lfo1, lfo2, lfo3;
 5095              		.loc 10 29 12 view .LVU1272
 5096 00f4 5348     		ldr	r0, .L98+80
 5097 00f6 FFF7FEFF 		bl	__aeabi_atexit
 5098              	.LVL333:
 5099              	.LBB1589:
 5100              	.LBI1589:
  23:../../libs/DaisySP/Source/Synthesis/oscillator.h ****     ~Oscillator() {}
 5101              		.loc 8 23 5 is_stmt 1 view .LVU1273
  23:../../libs/DaisySP/Source/Synthesis/oscillator.h ****     ~Oscillator() {}
 5102              		.loc 8 23 5 is_stmt 0 view .LVU1274
 5103              	.LBE1589:
  29:main.cpp      **** Oscillator lfo1, lfo2, lfo3;
 5104              		.loc 10 29 18 view .LVU1275
 5105 00fa 3A46     		mov	r2, r7
 5106 00fc 5049     		ldr	r1, .L98+76
 5107 00fe 5248     		ldr	r0, .L98+84
 5108 0100 FFF7FEFF 		bl	__aeabi_atexit
 5109              	.LVL334:
 5110              	.LBB1590:
 5111              	.LBI1590:
  23:../../libs/DaisySP/Source/Synthesis/oscillator.h ****     ~Oscillator() {}
 5112              		.loc 8 23 5 is_stmt 1 view .LVU1276
  23:../../libs/DaisySP/Source/Synthesis/oscillator.h ****     ~Oscillator() {}
 5113              		.loc 8 23 5 is_stmt 0 view .LVU1277
 5114              	.LBE1590:
  29:main.cpp      **** Oscillator lfo1, lfo2, lfo3;
 5115              		.loc 10 29 24 view .LVU1278
 5116 0104 3A46     		mov	r2, r7
 5117 0106 4E49     		ldr	r1, .L98+76
 5118 0108 5048     		ldr	r0, .L98+88
 5119 010a FFF7FEFF 		bl	__aeabi_atexit
 5120              	.LVL335:
 5121              	.LBB1591:
 5122              	.LBI1491:
  44:../../libs/DaisySP/Source/Control/adsr.h ****     ~Adsr() {}
 5123              		.loc 7 44 5 is_stmt 1 view .LVU1279
 5124              	.LBB1498:
 5125              	.LBB1495:
ARM GAS  C:\Users\skipi\AppData\Local\Temp\ccHKWaHh.s 			page 143


  44:../../libs/DaisySP/Source/Control/adsr.h ****     ~Adsr() {}
 5126              		.loc 7 44 12 is_stmt 0 view .LVU1280
 5127 010e 5048     		ldr	r0, .L98+92
 5128              	.LBE1495:
 5129              	.LBE1498:
 5130              	.LBE1591:
  31:main.cpp      **** Adsr amp_eg_pluck, amp_eg_pad, amp_eg_bass;
 5131              		.loc 10 31 6 view .LVU1281
 5132 0110 3A46     		mov	r2, r7
 5133 0112 5049     		ldr	r1, .L98+96
 5134              	.LBB1592:
 5135              	.LBB1499:
 5136              	.LBB1496:
  44:../../libs/DaisySP/Source/Control/adsr.h ****     ~Adsr() {}
 5137              		.loc 7 44 12 view .LVU1282
 5138 0114 8560     		str	r5, [r0, #8]	@ float
 5139 0116 0460     		str	r4, [r0]	@ float
 5140 0118 4460     		str	r4, [r0, #4]	@ float
 5141 011a C460     		str	r4, [r0, #12]	@ float
 5142 011c 0561     		str	r5, [r0, #16]	@ float
 5143 011e 4561     		str	r5, [r0, #20]	@ float
 5144 0120 8561     		str	r5, [r0, #24]	@ float
 5145 0122 C461     		str	r4, [r0, #28]	@ float
 5146 0124 0462     		str	r4, [r0, #32]	@ float
 5147 0126 4462     		str	r4, [r0, #36]	@ float
 5148              	.LBE1496:
 5149 0128 8685     		strh	r6, [r0, #44]	@ movhi
 5150              	.LVL336:
  44:../../libs/DaisySP/Source/Control/adsr.h ****     ~Adsr() {}
 5151              		.loc 7 44 12 view .LVU1283
 5152              	.LBE1499:
 5153              	.LBE1592:
  31:main.cpp      **** Adsr amp_eg_pluck, amp_eg_pad, amp_eg_bass;
 5154              		.loc 10 31 6 view .LVU1284
 5155 012a FFF7FEFF 		bl	__aeabi_atexit
 5156              	.LVL337:
 5157              	.LBB1593:
 5158              	.LBI1593:
  44:../../libs/DaisySP/Source/Control/adsr.h ****     ~Adsr() {}
 5159              		.loc 7 44 5 is_stmt 1 view .LVU1285
 5160              	.LBB1594:
 5161              	.LBB1595:
  44:../../libs/DaisySP/Source/Control/adsr.h ****     ~Adsr() {}
 5162              		.loc 7 44 12 is_stmt 0 view .LVU1286
 5163 012e 4A48     		ldr	r0, .L98+100
 5164              	.LBE1595:
 5165              	.LBE1594:
 5166              	.LBE1593:
  31:main.cpp      **** Adsr amp_eg_pluck, amp_eg_pad, amp_eg_bass;
 5167              		.loc 10 31 20 view .LVU1287
 5168 0130 3A46     		mov	r2, r7
 5169 0132 4849     		ldr	r1, .L98+96
 5170              	.LBB1598:
 5171              	.LBB1597:
 5172              	.LBB1596:
  44:../../libs/DaisySP/Source/Control/adsr.h ****     ~Adsr() {}
 5173              		.loc 7 44 12 view .LVU1288
ARM GAS  C:\Users\skipi\AppData\Local\Temp\ccHKWaHh.s 			page 144


 5174 0134 0460     		str	r4, [r0]	@ float
 5175 0136 4460     		str	r4, [r0, #4]	@ float
 5176 0138 8560     		str	r5, [r0, #8]	@ float
 5177 013a C460     		str	r4, [r0, #12]	@ float
 5178 013c 0561     		str	r5, [r0, #16]	@ float
 5179 013e 4561     		str	r5, [r0, #20]	@ float
 5180 0140 8561     		str	r5, [r0, #24]	@ float
 5181 0142 C461     		str	r4, [r0, #28]	@ float
 5182 0144 0462     		str	r4, [r0, #32]	@ float
 5183 0146 4462     		str	r4, [r0, #36]	@ float
 5184              	.LBE1596:
 5185 0148 8685     		strh	r6, [r0, #44]	@ movhi
 5186              	.LVL338:
  44:../../libs/DaisySP/Source/Control/adsr.h ****     ~Adsr() {}
 5187              		.loc 7 44 12 view .LVU1289
 5188              	.LBE1597:
 5189              	.LBE1598:
  31:main.cpp      **** Adsr amp_eg_pluck, amp_eg_pad, amp_eg_bass;
 5190              		.loc 10 31 20 view .LVU1290
 5191 014a FFF7FEFF 		bl	__aeabi_atexit
 5192              	.LVL339:
 5193              	.LBB1599:
 5194              	.LBI1599:
  44:../../libs/DaisySP/Source/Control/adsr.h ****     ~Adsr() {}
 5195              		.loc 7 44 5 is_stmt 1 view .LVU1291
 5196              	.LBB1600:
 5197              	.LBB1601:
  44:../../libs/DaisySP/Source/Control/adsr.h ****     ~Adsr() {}
 5198              		.loc 7 44 12 is_stmt 0 view .LVU1292
 5199 014e 4348     		ldr	r0, .L98+104
 5200              	.LBE1601:
 5201              	.LBE1600:
 5202              	.LBE1599:
  31:main.cpp      **** Adsr amp_eg_pluck, amp_eg_pad, amp_eg_bass;
 5203              		.loc 10 31 32 view .LVU1293
 5204 0150 3A46     		mov	r2, r7
 5205 0152 4049     		ldr	r1, .L98+96
 5206              	.LBB1604:
 5207              	.LBB1603:
 5208              	.LBB1602:
  44:../../libs/DaisySP/Source/Control/adsr.h ****     ~Adsr() {}
 5209              		.loc 7 44 12 view .LVU1294
 5210 0154 0460     		str	r4, [r0]	@ float
 5211 0156 4460     		str	r4, [r0, #4]	@ float
 5212 0158 8560     		str	r5, [r0, #8]	@ float
 5213 015a C460     		str	r4, [r0, #12]	@ float
 5214 015c 0561     		str	r5, [r0, #16]	@ float
 5215 015e 4561     		str	r5, [r0, #20]	@ float
 5216 0160 8561     		str	r5, [r0, #24]	@ float
 5217 0162 C461     		str	r4, [r0, #28]	@ float
 5218 0164 0462     		str	r4, [r0, #32]	@ float
 5219 0166 4462     		str	r4, [r0, #36]	@ float
 5220              	.LBE1602:
 5221 0168 8685     		strh	r6, [r0, #44]	@ movhi
 5222              	.LVL340:
  44:../../libs/DaisySP/Source/Control/adsr.h ****     ~Adsr() {}
 5223              		.loc 7 44 12 view .LVU1295
ARM GAS  C:\Users\skipi\AppData\Local\Temp\ccHKWaHh.s 			page 145


 5224              	.LBE1603:
 5225              	.LBE1604:
  31:main.cpp      **** Adsr amp_eg_pluck, amp_eg_pad, amp_eg_bass;
 5226              		.loc 10 31 32 view .LVU1296
 5227 016a FFF7FEFF 		bl	__aeabi_atexit
 5228              	.LVL341:
 5229              	.LBB1605:
 5230              	.LBI1605:
  44:../../libs/DaisySP/Source/Control/adsr.h ****     ~Adsr() {}
 5231              		.loc 7 44 5 is_stmt 1 view .LVU1297
 5232              	.LBB1606:
 5233              	.LBB1607:
  44:../../libs/DaisySP/Source/Control/adsr.h ****     ~Adsr() {}
 5234              		.loc 7 44 12 is_stmt 0 view .LVU1298
 5235 016e 3C48     		ldr	r0, .L98+108
 5236              	.LBE1607:
 5237              	.LBE1606:
 5238              	.LBE1605:
  32:main.cpp      **** Adsr filt_eg_pluck, filt_eg_pad, filt_eg_bass;
 5239              		.loc 10 32 6 view .LVU1299
 5240 0170 3A46     		mov	r2, r7
 5241 0172 3849     		ldr	r1, .L98+96
 5242              	.LBB1610:
 5243              	.LBB1609:
 5244              	.LBB1608:
  44:../../libs/DaisySP/Source/Control/adsr.h ****     ~Adsr() {}
 5245              		.loc 7 44 12 view .LVU1300
 5246 0174 0460     		str	r4, [r0]	@ float
 5247 0176 4460     		str	r4, [r0, #4]	@ float
 5248 0178 8560     		str	r5, [r0, #8]	@ float
 5249 017a C460     		str	r4, [r0, #12]	@ float
 5250 017c 0561     		str	r5, [r0, #16]	@ float
 5251 017e 4561     		str	r5, [r0, #20]	@ float
 5252 0180 8561     		str	r5, [r0, #24]	@ float
 5253 0182 C461     		str	r4, [r0, #28]	@ float
 5254 0184 0462     		str	r4, [r0, #32]	@ float
 5255 0186 4462     		str	r4, [r0, #36]	@ float
 5256              	.LBE1608:
 5257 0188 8685     		strh	r6, [r0, #44]	@ movhi
 5258              	.LVL342:
  44:../../libs/DaisySP/Source/Control/adsr.h ****     ~Adsr() {}
 5259              		.loc 7 44 12 view .LVU1301
 5260              	.LBE1609:
 5261              	.LBE1610:
  32:main.cpp      **** Adsr filt_eg_pluck, filt_eg_pad, filt_eg_bass;
 5262              		.loc 10 32 6 view .LVU1302
 5263 018a FFF7FEFF 		bl	__aeabi_atexit
 5264              	.LVL343:
 5265              	.LBB1611:
 5266              	.LBI1611:
  44:../../libs/DaisySP/Source/Control/adsr.h ****     ~Adsr() {}
 5267              		.loc 7 44 5 is_stmt 1 view .LVU1303
 5268              	.LBB1612:
 5269              	.LBB1613:
  44:../../libs/DaisySP/Source/Control/adsr.h ****     ~Adsr() {}
 5270              		.loc 7 44 12 is_stmt 0 view .LVU1304
 5271 018e 3548     		ldr	r0, .L98+112
ARM GAS  C:\Users\skipi\AppData\Local\Temp\ccHKWaHh.s 			page 146


 5272              	.LBE1613:
 5273              	.LBE1612:
 5274              	.LBE1611:
  32:main.cpp      **** Adsr filt_eg_pluck, filt_eg_pad, filt_eg_bass;
 5275              		.loc 10 32 21 view .LVU1305
 5276 0190 3A46     		mov	r2, r7
 5277 0192 3049     		ldr	r1, .L98+96
 5278              	.LBB1616:
 5279              	.LBB1615:
 5280              	.LBB1614:
  44:../../libs/DaisySP/Source/Control/adsr.h ****     ~Adsr() {}
 5281              		.loc 7 44 12 view .LVU1306
 5282 0194 0460     		str	r4, [r0]	@ float
 5283 0196 4460     		str	r4, [r0, #4]	@ float
 5284 0198 8560     		str	r5, [r0, #8]	@ float
 5285 019a C460     		str	r4, [r0, #12]	@ float
 5286 019c 0561     		str	r5, [r0, #16]	@ float
 5287 019e 4561     		str	r5, [r0, #20]	@ float
 5288 01a0 8561     		str	r5, [r0, #24]	@ float
 5289 01a2 C461     		str	r4, [r0, #28]	@ float
 5290 01a4 0462     		str	r4, [r0, #32]	@ float
 5291 01a6 4462     		str	r4, [r0, #36]	@ float
 5292              	.LBE1614:
 5293 01a8 8685     		strh	r6, [r0, #44]	@ movhi
 5294              	.LVL344:
  44:../../libs/DaisySP/Source/Control/adsr.h ****     ~Adsr() {}
 5295              		.loc 7 44 12 view .LVU1307
 5296              	.LBE1615:
 5297              	.LBE1616:
  32:main.cpp      **** Adsr filt_eg_pluck, filt_eg_pad, filt_eg_bass;
 5298              		.loc 10 32 21 view .LVU1308
 5299 01aa FFF7FEFF 		bl	__aeabi_atexit
 5300              	.LVL345:
 5301              	.LBB1617:
 5302              	.LBI1617:
  44:../../libs/DaisySP/Source/Control/adsr.h ****     ~Adsr() {}
 5303              		.loc 7 44 5 is_stmt 1 view .LVU1309
 5304              	.LBB1618:
 5305              	.LBB1619:
  44:../../libs/DaisySP/Source/Control/adsr.h ****     ~Adsr() {}
 5306              		.loc 7 44 12 is_stmt 0 view .LVU1310
 5307 01ae 2E48     		ldr	r0, .L98+116
 5308              	.LBE1619:
 5309              	.LBE1618:
 5310              	.LBE1617:
  32:main.cpp      **** Adsr filt_eg_pluck, filt_eg_pad, filt_eg_bass;
 5311              		.loc 10 32 34 view .LVU1311
 5312 01b0 3A46     		mov	r2, r7
 5313 01b2 2849     		ldr	r1, .L98+96
 5314              	.LBB1622:
 5315              	.LBB1621:
  44:../../libs/DaisySP/Source/Control/adsr.h ****     ~Adsr() {}
 5316              		.loc 7 44 12 view .LVU1312
 5317 01b4 8685     		strh	r6, [r0, #44]	@ movhi
 5318              	.LVL346:
 5319              	.LBB1620:
  44:../../libs/DaisySP/Source/Control/adsr.h ****     ~Adsr() {}
ARM GAS  C:\Users\skipi\AppData\Local\Temp\ccHKWaHh.s 			page 147


 5320              		.loc 7 44 12 view .LVU1313
 5321 01b6 0460     		str	r4, [r0]	@ float
 5322 01b8 4460     		str	r4, [r0, #4]	@ float
 5323 01ba 8560     		str	r5, [r0, #8]	@ float
 5324 01bc C460     		str	r4, [r0, #12]	@ float
 5325 01be 0561     		str	r5, [r0, #16]	@ float
 5326 01c0 4561     		str	r5, [r0, #20]	@ float
 5327 01c2 8561     		str	r5, [r0, #24]	@ float
 5328 01c4 C461     		str	r4, [r0, #28]	@ float
 5329 01c6 0462     		str	r4, [r0, #32]	@ float
 5330 01c8 4462     		str	r4, [r0, #36]	@ float
 5331              	.LBE1620:
 5332              	.LBE1621:
 5333              	.LBE1622:
  32:main.cpp      **** Adsr filt_eg_pluck, filt_eg_pad, filt_eg_bass;
 5334              		.loc 10 32 34 view .LVU1314
 5335 01ca FFF7FEFF 		bl	__aeabi_atexit
 5336              	.LVL347:
  34:main.cpp      **** static LadderFilter VCF_pluck, VCF_pad, VCF_bass;
 5337              		.loc 10 34 21 view .LVU1315
 5338 01ce 2748     		ldr	r0, .L98+120
 5339 01d0 FFF7FEFF 		bl	_ZN7daisysp12LadderFilterC1Ev
 5340              	.LVL348:
  34:main.cpp      **** static LadderFilter VCF_pluck, VCF_pad, VCF_bass;
 5341              		.loc 10 34 32 view .LVU1316
 5342 01d4 2648     		ldr	r0, .L98+124
 5343 01d6 FFF7FEFF 		bl	_ZN7daisysp12LadderFilterC1Ev
 5344              	.LVL349:
  34:main.cpp      **** static LadderFilter VCF_pluck, VCF_pad, VCF_bass;
 5345              		.loc 10 34 41 view .LVU1317
 5346 01da 2648     		ldr	r0, .L98+128
 5347 01dc FFF7FEFF 		bl	_ZN7daisysp12LadderFilterC1Ev
 5348              	.LVL350:
  42:main.cpp      **** AnalogDelay Delay;
 5349              		.loc 10 42 13 view .LVU1318
 5350 01e0 4046     		mov	r0, r8
 5351 01e2 FFF7FEFF 		bl	_ZN11AnalogDelayC1Ev
 5352              	.LVL351:
 5353 01e6 3A46     		mov	r2, r7
 5354 01e8 4046     		mov	r0, r8
 5355 01ea 2349     		ldr	r1, .L98+132
 5356              	.LBE1623:
 5357              	.LBE1625:
 5358              		.loc 10 338 1 view .LVU1319
 5359 01ec BDE8F041 		pop	{r4, r5, r6, r7, r8, lr}
 5360              		.cfi_restore 14
 5361              		.cfi_restore 8
 5362              		.cfi_restore 7
 5363              		.cfi_restore 6
 5364              		.cfi_restore 5
 5365              		.cfi_restore 4
 5366              		.cfi_def_cfa_offset 0
 5367              	.LBB1626:
 5368              	.LBB1624:
  42:main.cpp      **** AnalogDelay Delay;
 5369              		.loc 10 42 13 view .LVU1320
 5370 01f0 FFF7FEBF 		b	__aeabi_atexit
ARM GAS  C:\Users\skipi\AppData\Local\Temp\ccHKWaHh.s 			page 148


 5371              	.LVL352:
 5372              	.L99:
 5373              		.align	2
 5374              	.L98:
 5375 01f4 00000000 		.word	.LANCHOR70
 5376 01f8 00000000 		.word	.LANCHOR69
 5377 01fc 01080109 		.word	151062529
 5378 0200 00000000 		.word	__dso_handle
 5379 0204 00000000 		.word	_ZN5daisy6Mpr121INS_18Mpr121I2CTransportEED1Ev
 5380 0208 00000000 		.word	.LANCHOR40
 5381 020c 00000000 		.word	.LANCHOR79
 5382 0210 00000000 		.word	.LANCHOR74
 5383 0214 00000000 		.word	.LANCHOR6
 5384 0218 000080BF 		.word	-1082130432
 5385 021c 00000000 		.word	.LANCHOR46
 5386 0220 00000000 		.word	.LANCHOR76
 5387 0224 00000000 		.word	.LANCHOR52
 5388 0228 00000000 		.word	.LANCHOR78
 5389 022c 00000000 		.word	.LANCHOR38
 5390 0230 00000000 		.word	_ZN5daisy9DaisySeedD1Ev
 5391 0234 00000000 		.word	.LANCHOR8
 5392 0238 00000000 		.word	_ZN4RamoD1Ev
 5393 023c 00000000 		.word	.LANCHOR7
 5394 0240 00000000 		.word	_ZN7daisysp10OscillatorD1Ev
 5395 0244 00000000 		.word	.LANCHOR0
 5396 0248 00000000 		.word	.LANCHOR2
 5397 024c 00000000 		.word	.LANCHOR4
 5398 0250 00000000 		.word	.LANCHOR13
 5399 0254 00000000 		.word	_ZN7daisysp4AdsrD1Ev
 5400 0258 00000000 		.word	.LANCHOR15
 5401 025c 00000000 		.word	.LANCHOR17
 5402 0260 00000000 		.word	.LANCHOR18
 5403 0264 00000000 		.word	.LANCHOR19
 5404 0268 00000000 		.word	.LANCHOR20
 5405 026c 00000000 		.word	.LANCHOR23
 5406 0270 00000000 		.word	.LANCHOR26
 5407 0274 00000000 		.word	.LANCHOR29
 5408 0278 00000000 		.word	_ZN11AnalogDelayD1Ev
 5409 027c 00000000 		.word	Delay
 5410              	.LBE1624:
 5411              	.LBE1626:
 5412              		.cfi_endproc
 5413              	.LFE5426:
 5415              		.section	.init_array,"aw",%init_array
 5416              		.align	2
 5417 0000 00000000 		.word	_GLOBAL__sub_I_f_pluck(target1)
 5418              		.global	currtouched
 5419              		.global	lasttouched
 5420              		.global	out_mix
 5421              		.global	Delay
 5422              		.global	filtered_bass
 5423              		.global	filtered_pad
 5424              		.global	filtered_pluck
 5425              		.global	Gate_bass
 5426              		.global	Gate_pad
 5427              		.global	Gate_pluck
 5428              		.global	now_f_bass
ARM GAS  C:\Users\skipi\AppData\Local\Temp\ccHKWaHh.s 			page 149


 5429              		.global	now_f_pad
 5430              		.global	now_f_pluck
 5431              		.global	value_bass
 5432              		.global	value_pad
 5433              		.global	value_pluck
 5434              		.global	filt_eg_bass
 5435              		.global	filt_eg_pad
 5436              		.global	filt_eg_pluck
 5437              		.global	amp_eg_bass
 5438              		.global	amp_eg_pad
 5439              		.global	amp_eg_pluck
 5440              		.global	lfo3
 5441              		.global	lfo2
 5442              		.global	lfo1
 5443              		.global	bass
 5444              		.global	pad
 5445              		.global	pluck
 5446              		.global	hw
 5447              		.global	p_bass
 5448              		.global	p_pad
 5449              		.global	p_pluck
 5450              		.global	soglie
 5451              		.global	cap
 5452              		.global	mpr121ObjConf
 5453              		.global	lfo3_shape
 5454              		.global	lfo2_shape
 5455              		.global	lfo1_shape
 5456              		.global	lfo3_phase
 5457              		.global	lfo2_phase
 5458              		.global	lfo1_phase
 5459              		.global	lfo3_amp
 5460              		.global	lfo2_amp
 5461              		.global	lfo1_amp
 5462              		.global	lfo3_freq
 5463              		.global	lfo2_freq
 5464              		.global	lfo1_freq
 5465              		.global	delay_mix
 5466              		.global	delay_fb
 5467              		.global	delay_time
 5468              		.global	master
 5469              		.global	gain_bass
 5470              		.global	mix_amp_bass
 5471              		.global	bass_Filter_ADSR
 5472              		.global	bass_Amp_ADSR
 5473              		.global	f_EG_bass
 5474              		.global	drive_bass
 5475              		.global	res_bass
 5476              		.global	ft_bass
 5477              		.global	amp_lfo_bass
 5478              		.global	f_lfo_bass
 5479              		.global	shape_bass
 5480              		.global	wf_bass
 5481              		.global	f_bass
 5482              		.global	gain_pad
 5483              		.global	mix_amp_pad
 5484              		.global	pad_Filter_ADSR
 5485              		.global	pad_Amp_ADSR
ARM GAS  C:\Users\skipi\AppData\Local\Temp\ccHKWaHh.s 			page 150


 5486              		.global	f_EG_pad
 5487              		.global	drive_pad
 5488              		.global	res_pad
 5489              		.global	ft_pad
 5490              		.global	wf_pad
 5491              		.global	amp_lfo_pad
 5492              		.global	shape_pad
 5493              		.global	f_pad
 5494              		.global	gain_pluck
 5495              		.global	mix_amp_pluck
 5496              		.global	pluck_Filter_ADSR
 5497              		.global	pluck_Amp_ADSR
 5498              		.global	f_EG_pluck
 5499              		.global	res_pluck
 5500              		.global	ft_pluck
 5501              		.global	shape_pluck
 5502              		.global	wf_pluck
 5503              		.global	f_pluck
 5504              		.section	.bss.Delay,"aw",%nobits
 5505              		.align	2
 5508              	Delay:
 5509 0000 00000000 		.space	131344
 5509      00000000 
 5509      00000000 
 5509      00000000 
 5509      00000000 
 5510              		.section	.bss.Gate_bass,"aw",%nobits
 5511              		.set	.LANCHOR16,. + 0
 5514              	Gate_bass:
 5515 0000 00       		.space	1
 5516              		.section	.bss.Gate_pad,"aw",%nobits
 5517              		.set	.LANCHOR14,. + 0
 5520              	Gate_pad:
 5521 0000 00       		.space	1
 5522              		.section	.bss.Gate_pluck,"aw",%nobits
 5523              		.set	.LANCHOR12,. + 0
 5526              	Gate_pluck:
 5527 0000 00       		.space	1
 5528              		.section	.bss._ZL7VCF_pad,"aw",%nobits
 5529              		.align	2
 5530              		.set	.LANCHOR26,. + 0
 5533              	_ZL7VCF_pad:
 5534 0000 00000000 		.space	92
 5534      00000000 
 5534      00000000 
 5534      00000000 
 5534      00000000 
 5535              		.section	.bss._ZL8VCF_bass,"aw",%nobits
 5536              		.align	2
 5537              		.set	.LANCHOR29,. + 0
 5540              	_ZL8VCF_bass:
 5541 0000 00000000 		.space	92
 5541      00000000 
 5541      00000000 
 5541      00000000 
 5541      00000000 
 5542              		.section	.bss._ZL9VCF_pluck,"aw",%nobits
ARM GAS  C:\Users\skipi\AppData\Local\Temp\ccHKWaHh.s 			page 151


 5543              		.align	2
 5544              		.set	.LANCHOR23,. + 0
 5547              	_ZL9VCF_pluck:
 5548 0000 00000000 		.space	92
 5548      00000000 
 5548      00000000 
 5548      00000000 
 5548      00000000 
 5549              		.section	.bss.amp_eg_bass,"aw",%nobits
 5550              		.align	2
 5551              		.set	.LANCHOR17,. + 0
 5554              	amp_eg_bass:
 5555 0000 00000000 		.space	48
 5555      00000000 
 5555      00000000 
 5555      00000000 
 5555      00000000 
 5556              		.section	.bss.amp_eg_pad,"aw",%nobits
 5557              		.align	2
 5558              		.set	.LANCHOR15,. + 0
 5561              	amp_eg_pad:
 5562 0000 00000000 		.space	48
 5562      00000000 
 5562      00000000 
 5562      00000000 
 5562      00000000 
 5563              		.section	.bss.amp_eg_pluck,"aw",%nobits
 5564              		.align	2
 5565              		.set	.LANCHOR13,. + 0
 5568              	amp_eg_pluck:
 5569 0000 00000000 		.space	48
 5569      00000000 
 5569      00000000 
 5569      00000000 
 5569      00000000 
 5570              		.section	.bss.bass,"aw",%nobits
 5571              		.align	2
 5572              		.set	.LANCHOR7,. + 0
 5575              	bass:
 5576 0000 00000000 		.space	60
 5576      00000000 
 5576      00000000 
 5576      00000000 
 5576      00000000 
 5577              		.section	.bss.cap,"aw",%nobits
 5578              		.align	2
 5579              		.set	.LANCHOR70,. + 0
 5582              	cap:
 5583 0000 00000000 		.space	52
 5583      00000000 
 5583      00000000 
 5583      00000000 
 5583      00000000 
 5584              		.section	.bss.currtouched,"aw",%nobits
 5585              		.align	1
 5586              		.set	.LANCHOR71,. + 0
 5589              	currtouched:
ARM GAS  C:\Users\skipi\AppData\Local\Temp\ccHKWaHh.s 			page 152


 5590 0000 0000     		.space	2
 5591              		.section	.bss.filt_eg_bass,"aw",%nobits
 5592              		.align	2
 5593              		.set	.LANCHOR20,. + 0
 5596              	filt_eg_bass:
 5597 0000 00000000 		.space	48
 5597      00000000 
 5597      00000000 
 5597      00000000 
 5597      00000000 
 5598              		.section	.bss.filt_eg_pad,"aw",%nobits
 5599              		.align	2
 5600              		.set	.LANCHOR19,. + 0
 5603              	filt_eg_pad:
 5604 0000 00000000 		.space	48
 5604      00000000 
 5604      00000000 
 5604      00000000 
 5604      00000000 
 5605              		.section	.bss.filt_eg_pluck,"aw",%nobits
 5606              		.align	2
 5607              		.set	.LANCHOR18,. + 0
 5610              	filt_eg_pluck:
 5611 0000 00000000 		.space	48
 5611      00000000 
 5611      00000000 
 5611      00000000 
 5611      00000000 
 5612              		.section	.bss.filtered_bass,"aw",%nobits
 5613              		.align	2
 5614              		.set	.LANCHOR32,. + 0
 5617              	filtered_bass:
 5618 0000 00000000 		.space	4
 5619              		.section	.bss.filtered_pad,"aw",%nobits
 5620              		.align	2
 5621              		.set	.LANCHOR31,. + 0
 5624              	filtered_pad:
 5625 0000 00000000 		.space	4
 5626              		.section	.bss.filtered_pluck,"aw",%nobits
 5627              		.align	2
 5628              		.set	.LANCHOR30,. + 0
 5631              	filtered_pluck:
 5632 0000 00000000 		.space	4
 5633              		.section	.bss.hw,"aw",%nobits
 5634              		.align	2
 5635              		.set	.LANCHOR38,. + 0
 5638              	hw:
 5639 0000 00000000 		.space	116
 5639      00000000 
 5639      00000000 
 5639      00000000 
 5639      00000000 
 5640              		.section	.bss.lasttouched,"aw",%nobits
 5641              		.align	1
 5642              		.set	.LANCHOR72,. + 0
 5645              	lasttouched:
 5646 0000 0000     		.space	2
ARM GAS  C:\Users\skipi\AppData\Local\Temp\ccHKWaHh.s 			page 153


 5647              		.section	.bss.lfo1,"aw",%nobits
 5648              		.align	2
 5649              		.set	.LANCHOR0,. + 0
 5652              	lfo1:
 5653 0000 00000000 		.space	44
 5653      00000000 
 5653      00000000 
 5653      00000000 
 5653      00000000 
 5654              		.section	.bss.lfo1_phase,"aw",%nobits
 5655              		.align	2
 5656              		.set	.LANCHOR59,. + 0
 5659              	lfo1_phase:
 5660 0000 00000000 		.space	4
 5661              		.section	.bss.lfo2,"aw",%nobits
 5662              		.align	2
 5663              		.set	.LANCHOR2,. + 0
 5666              	lfo2:
 5667 0000 00000000 		.space	44
 5667      00000000 
 5667      00000000 
 5667      00000000 
 5667      00000000 
 5668              		.section	.bss.lfo2_phase,"aw",%nobits
 5669              		.align	2
 5670              		.set	.LANCHOR62,. + 0
 5673              	lfo2_phase:
 5674 0000 00000000 		.space	4
 5675              		.section	.bss.lfo3,"aw",%nobits
 5676              		.align	2
 5677              		.set	.LANCHOR4,. + 0
 5680              	lfo3:
 5681 0000 00000000 		.space	44
 5681      00000000 
 5681      00000000 
 5681      00000000 
 5681      00000000 
 5682              		.section	.bss.lfo3_phase,"aw",%nobits
 5683              		.align	2
 5684              		.set	.LANCHOR65,. + 0
 5687              	lfo3_phase:
 5688 0000 00000000 		.space	4
 5689              		.section	.bss.mpr121ObjConf,"aw",%nobits
 5690              		.align	2
 5691              		.set	.LANCHOR69,. + 0
 5694              	mpr121ObjConf:
 5695 0000 00000000 		.space	24
 5695      00000000 
 5695      00000000 
 5695      00000000 
 5695      00000000 
 5696              		.section	.bss.now_f_bass,"aw",%nobits
 5697              		.align	2
 5698              		.set	.LANCHOR10,. + 0
 5701              	now_f_bass:
 5702 0000 00000000 		.space	4
 5703              		.section	.bss.now_f_pad,"aw",%nobits
ARM GAS  C:\Users\skipi\AppData\Local\Temp\ccHKWaHh.s 			page 154


 5704              		.align	2
 5705              		.set	.LANCHOR11,. + 0
 5708              	now_f_pad:
 5709 0000 00000000 		.space	4
 5710              		.section	.bss.now_f_pluck,"aw",%nobits
 5711              		.align	2
 5712              		.set	.LANCHOR9,. + 0
 5715              	now_f_pluck:
 5716 0000 00000000 		.space	4
 5717              		.section	.bss.out_mix,"aw",%nobits
 5718              		.align	2
 5719              		.set	.LANCHOR37,. + 0
 5722              	out_mix:
 5723 0000 00000000 		.space	4
 5724              		.section	.bss.p_bass,"aw",%nobits
 5725              		.align	2
 5726              		.set	.LANCHOR78,. + 0
 5729              	p_bass:
 5730 0000 00000000 		.space	8
 5730      00000000 
 5731              		.section	.bss.p_pad,"aw",%nobits
 5732              		.align	2
 5733              		.set	.LANCHOR76,. + 0
 5736              	p_pad:
 5737 0000 00000000 		.space	8
 5737      00000000 
 5738              		.section	.bss.p_pluck,"aw",%nobits
 5739              		.align	2
 5740              		.set	.LANCHOR74,. + 0
 5743              	p_pluck:
 5744 0000 00000000 		.space	8
 5744      00000000 
 5745              		.section	.bss.pad,"aw",%nobits
 5746              		.align	2
 5747              		.set	.LANCHOR8,. + 0
 5750              	pad:
 5751 0000 00000000 		.space	60
 5751      00000000 
 5751      00000000 
 5751      00000000 
 5751      00000000 
 5752              		.section	.bss.pluck,"aw",%nobits
 5753              		.align	2
 5754              		.set	.LANCHOR6,. + 0
 5757              	pluck:
 5758 0000 00000000 		.space	60
 5758      00000000 
 5758      00000000 
 5758      00000000 
 5758      00000000 
 5759              		.section	.bss.value_bass,"aw",%nobits
 5760              		.align	1
 5761              		.set	.LANCHOR77,. + 0
 5764              	value_bass:
 5765 0000 0000     		.space	2
 5766              		.section	.bss.value_pad,"aw",%nobits
 5767              		.align	1
ARM GAS  C:\Users\skipi\AppData\Local\Temp\ccHKWaHh.s 			page 155


 5768              		.set	.LANCHOR75,. + 0
 5771              	value_pad:
 5772 0000 0000     		.space	2
 5773              		.section	.bss.value_pluck,"aw",%nobits
 5774              		.align	1
 5775              		.set	.LANCHOR73,. + 0
 5778              	value_pluck:
 5779 0000 0000     		.space	2
 5780              		.section	.data.amp_lfo_bass,"aw"
 5781              		.align	2
 5784              	amp_lfo_bass:
 5785 0000 9A99993E 		.word	1050253722
 5786              		.section	.data.amp_lfo_pad,"aw"
 5787              		.align	2
 5790              	amp_lfo_pad:
 5791 0000 9A99993E 		.word	1050253722
 5792              		.section	.data.bass_Amp_ADSR,"aw"
 5793              		.align	2
 5794              		.set	.LANCHOR54,. + 0
 5797              	bass_Amp_ADSR:
 5798 0000 9A99193E 		.word	1041865114
 5799 0004 0000003F 		.word	1056964608
 5800 0008 0000403F 		.word	1061158912
 5801 000c C3F5A83E 		.word	1051260355
 5802              		.section	.data.bass_Filter_ADSR,"aw"
 5803              		.align	2
 5804              		.set	.LANCHOR55,. + 0
 5807              	bass_Filter_ADSR:
 5808 0000 00002041 		.word	1092616192
 5809 0004 0000803F 		.word	1065353216
 5810 0008 9A99193F 		.word	1058642330
 5811 000c 0000003F 		.word	1056964608
 5812              		.section	.data.delay_fb,"aw"
 5813              		.align	2
 5814              		.set	.LANCHOR67,. + 0
 5817              	delay_fb:
 5818 0000 CDCC4C3E 		.word	1045220557
 5819              		.section	.data.delay_mix,"aw"
 5820              		.align	2
 5821              		.set	.LANCHOR68,. + 0
 5824              	delay_mix:
 5825 0000 9A99993E 		.word	1050253722
 5826              		.section	.data.delay_time,"aw"
 5827              		.align	2
 5828              		.set	.LANCHOR66,. + 0
 5831              	delay_time:
 5832 0000 0000003F 		.word	1056964608
 5833              		.section	.data.drive_bass,"aw"
 5834              		.align	2
 5837              	drive_bass:
 5838 0000 0000003F 		.word	1056964608
 5839              		.section	.data.drive_pad,"aw"
 5840              		.align	2
 5843              	drive_pad:
 5844 0000 0000003F 		.word	1056964608
 5845              		.section	.data.f_EG_bass,"aw"
 5846              		.align	2
ARM GAS  C:\Users\skipi\AppData\Local\Temp\ccHKWaHh.s 			page 156


 5847              		.set	.LANCHOR27,. + 0
 5850              	f_EG_bass:
 5851 0000 00409C45 		.word	1167867904
 5852              		.section	.data.f_EG_pad,"aw"
 5853              		.align	2
 5854              		.set	.LANCHOR24,. + 0
 5857              	f_EG_pad:
 5858 0000 0000FA45 		.word	1174011904
 5859              		.section	.data.f_EG_pluck,"aw"
 5860              		.align	2
 5861              		.set	.LANCHOR21,. + 0
 5864              	f_EG_pluck:
 5865 0000 00007A44 		.word	1148846080
 5866              		.section	.data.f_bass,"aw"
 5867              		.align	2
 5868              		.set	.LANCHOR52,. + 0
 5871              	f_bass:
 5872 0000 00005C42 		.word	1113325568
 5873              		.section	.data.f_lfo_bass,"aw"
 5874              		.align	2
 5877              	f_lfo_bass:
 5878 0000 00002041 		.word	1092616192
 5879              		.section	.data.f_pad,"aw"
 5880              		.align	2
 5881              		.set	.LANCHOR46,. + 0
 5884              	f_pad:
 5885 0000 00005C43 		.word	1130102784
 5886              		.section	.data.f_pluck,"aw"
 5887              		.align	2
 5888              		.set	.LANCHOR40,. + 0
 5891              	f_pluck:
 5892 0000 0000DC43 		.word	1138491392
 5893              		.section	.data.ft_bass,"aw"
 5894              		.align	2
 5895              		.set	.LANCHOR28,. + 0
 5898              	ft_bass:
 5899 0000 00004843 		.word	1128792064
 5900              		.section	.data.ft_pad,"aw"
 5901              		.align	2
 5902              		.set	.LANCHOR25,. + 0
 5905              	ft_pad:
 5906 0000 0000FA43 		.word	1140457472
 5907              		.section	.data.ft_pluck,"aw"
 5908              		.align	2
 5909              		.set	.LANCHOR22,. + 0
 5912              	ft_pluck:
 5913 0000 00C05A45 		.word	1163575296
 5914              		.section	.data.gain_bass,"aw"
 5915              		.align	2
 5916              		.set	.LANCHOR35,. + 0
 5919              	gain_bass:
 5920 0000 00000040 		.word	1073741824
 5921              		.section	.data.gain_pad,"aw"
 5922              		.align	2
 5923              		.set	.LANCHOR34,. + 0
 5926              	gain_pad:
 5927 0000 0000803F 		.word	1065353216
ARM GAS  C:\Users\skipi\AppData\Local\Temp\ccHKWaHh.s 			page 157


 5928              		.section	.data.gain_pluck,"aw"
 5929              		.align	2
 5930              		.set	.LANCHOR33,. + 0
 5933              	gain_pluck:
 5934 0000 0000803F 		.word	1065353216
 5935              		.section	.data.lfo1_amp,"aw"
 5936              		.align	2
 5937              		.set	.LANCHOR58,. + 0
 5940              	lfo1_amp:
 5941 0000 0000003F 		.word	1056964608
 5942              		.section	.data.lfo1_freq,"aw"
 5943              		.align	2
 5944              		.set	.LANCHOR57,. + 0
 5947              	lfo1_freq:
 5948 0000 0000003F 		.word	1056964608
 5949              		.section	.data.lfo1_shape,"aw"
 5950              		.align	2
 5953              	lfo1_shape:
 5954 0000 0000003F 		.word	1056964608
 5955              		.section	.data.lfo2_amp,"aw"
 5956              		.align	2
 5957              		.set	.LANCHOR61,. + 0
 5960              	lfo2_amp:
 5961 0000 0000003F 		.word	1056964608
 5962              		.section	.data.lfo2_freq,"aw"
 5963              		.align	2
 5964              		.set	.LANCHOR60,. + 0
 5967              	lfo2_freq:
 5968 0000 0000003F 		.word	1056964608
 5969              		.section	.data.lfo2_shape,"aw"
 5970              		.align	2
 5973              	lfo2_shape:
 5974 0000 0000003F 		.word	1056964608
 5975              		.section	.data.lfo3_amp,"aw"
 5976              		.align	2
 5977              		.set	.LANCHOR64,. + 0
 5980              	lfo3_amp:
 5981 0000 0000003F 		.word	1056964608
 5982              		.section	.data.lfo3_freq,"aw"
 5983              		.align	2
 5984              		.set	.LANCHOR63,. + 0
 5987              	lfo3_freq:
 5988 0000 0000003F 		.word	1056964608
 5989              		.section	.data.lfo3_shape,"aw"
 5990              		.align	2
 5993              	lfo3_shape:
 5994 0000 0000003F 		.word	1056964608
 5995              		.section	.data.master,"aw"
 5996              		.align	2
 5997              		.set	.LANCHOR36,. + 0
 6000              	master:
 6001 0000 3333333F 		.word	1060320051
 6002              		.section	.data.mix_amp_bass,"aw"
 6003              		.align	2
 6004              		.set	.LANCHOR53,. + 0
 6007              	mix_amp_bass:
 6008 0000 0000003F 		.word	1056964608
ARM GAS  C:\Users\skipi\AppData\Local\Temp\ccHKWaHh.s 			page 158


 6009 0004 0000003F 		.word	1056964608
 6010              		.section	.data.mix_amp_pad,"aw"
 6011              		.align	2
 6012              		.set	.LANCHOR47,. + 0
 6015              	mix_amp_pad:
 6016 0000 0000003F 		.word	1056964608
 6017 0004 0000003F 		.word	1056964608
 6018              		.section	.data.mix_amp_pluck,"aw"
 6019              		.align	2
 6020              		.set	.LANCHOR41,. + 0
 6023              	mix_amp_pluck:
 6024 0000 0000803F 		.word	1065353216
 6025 0004 0000803F 		.word	1065353216
 6026              		.section	.data.pad_Amp_ADSR,"aw"
 6027              		.align	2
 6028              		.set	.LANCHOR48,. + 0
 6031              	pad_Amp_ADSR:
 6032 0000 CDCC4C3D 		.word	1028443341
 6033 0004 713D8A3E 		.word	1049247089
 6034 0008 CDCCCC3E 		.word	1053609165
 6035 000c 0000003F 		.word	1056964608
 6036              		.section	.data.pad_Filter_ADSR,"aw"
 6037              		.align	2
 6038              		.set	.LANCHOR49,. + 0
 6041              	pad_Filter_ADSR:
 6042 0000 CDCCCC3D 		.word	1036831949
 6043 0004 CDCCCC3D 		.word	1036831949
 6044 0008 CDCCCC3D 		.word	1036831949
 6045 000c 0000003F 		.word	1056964608
 6046              		.section	.data.pluck_Amp_ADSR,"aw"
 6047              		.align	2
 6048              		.set	.LANCHOR42,. + 0
 6051              	pluck_Amp_ADSR:
 6052 0000 0AD7A33B 		.word	1000593162
 6053 0004 CDCCCC3D 		.word	1036831949
 6054 0008 00000000 		.word	0
 6055 000c 0000003F 		.word	1056964608
 6056              		.section	.data.pluck_Filter_ADSR,"aw"
 6057              		.align	2
 6058              		.set	.LANCHOR43,. + 0
 6061              	pluck_Filter_ADSR:
 6062 0000 CDCC4C3D 		.word	1028443341
 6063 0004 8FC2F53C 		.word	1022739087
 6064 0008 00000000 		.word	0
 6065 000c 0000003F 		.word	1056964608
 6066              		.section	.data.res_bass,"aw"
 6067              		.align	2
 6068              		.set	.LANCHOR56,. + 0
 6071              	res_bass:
 6072 0000 CDCCCC3D 		.word	1036831949
 6073              		.section	.data.res_pad,"aw"
 6074              		.align	2
 6075              		.set	.LANCHOR50,. + 0
 6078              	res_pad:
 6079 0000 CDCCCC3D 		.word	1036831949
 6080              		.section	.data.res_pluck,"aw"
 6081              		.align	2
ARM GAS  C:\Users\skipi\AppData\Local\Temp\ccHKWaHh.s 			page 159


 6082              		.set	.LANCHOR44,. + 0
 6085              	res_pluck:
 6086 0000 CDCCCC3D 		.word	1036831949
 6087              		.section	.data.shape_bass,"aw"
 6088              		.align	2
 6089              		.set	.LANCHOR3,. + 0
 6092              	shape_bass:
 6093 0000 0000003F 		.word	1056964608
 6094              		.section	.data.shape_pad,"aw"
 6095              		.align	2
 6096              		.set	.LANCHOR5,. + 0
 6099              	shape_pad:
 6100 0000 0000003F 		.word	1056964608
 6101              		.section	.data.shape_pluck,"aw"
 6102              		.align	2
 6103              		.set	.LANCHOR1,. + 0
 6106              	shape_pluck:
 6107 0000 0000003F 		.word	1056964608
 6108              		.section	.data.soglie,"aw"
 6109              		.align	2
 6110              		.set	.LANCHOR79,. + 0
 6113              	soglie:
 6114 0000 02000000 		.word	2
 6115 0004 00000000 		.word	0
 6116 0008 41000000 		.word	65
 6117 000c 46000000 		.word	70
 6118 0010 50000000 		.word	80
 6119 0014 5A000000 		.word	90
 6120 0018 64000000 		.word	100
 6121 001c 69000000 		.word	105
 6122              		.section	.data.wf_bass,"aw"
 6123              		.align	2
 6124              		.set	.LANCHOR51,. + 0
 6127              	wf_bass:
 6128 0000 0101     		.ascii	"\001\001"
 6129              		.section	.data.wf_pad,"aw"
 6130              		.align	2
 6131              		.set	.LANCHOR45,. + 0
 6134              	wf_pad:
 6135 0000 0101     		.ascii	"\001\001"
 6136              		.section	.data.wf_pluck,"aw"
 6137              		.align	2
 6138              		.set	.LANCHOR39,. + 0
 6141              	wf_pluck:
 6142 0000 0101     		.ascii	"\001\001"
 6143              		.text
 6144              	.Letext0:
 6145              		.file 18 "c:\\program files\\daisytoolchain\\arm-none-eabi\\include\\machine\\_default_types.h"
 6146              		.file 19 "c:\\program files\\daisytoolchain\\arm-none-eabi\\include\\sys\\_stdint.h"
 6147              		.file 20 "c:\\program files\\daisytoolchain\\arm-none-eabi\\include\\stdint.h"
 6148              		.file 21 "c:\\program files\\daisytoolchain\\lib\\gcc\\arm-none-eabi\\10.2.1\\include\\stddef.h"
 6149              		.file 22 "c:\\program files\\daisytoolchain\\arm-none-eabi\\include\\c++\\10.2.1\\cmath"
 6150              		.file 23 "c:\\program files\\daisytoolchain\\arm-none-eabi\\include\\c++\\10.2.1\\bits\\std_abs.h"
 6151              		.file 24 "c:\\program files\\daisytoolchain\\arm-none-eabi\\include\\c++\\10.2.1\\cstdlib"
 6152              		.file 25 "c:\\program files\\daisytoolchain\\arm-none-eabi\\include\\c++\\10.2.1\\cstdint"
 6153              		.file 26 "c:\\program files\\daisytoolchain\\arm-none-eabi\\include\\c++\\10.2.1\\type_traits"
 6154              		.file 27 "c:\\program files\\daisytoolchain\\arm-none-eabi\\include\\c++\\10.2.1\\debug\\debug.h"
ARM GAS  C:\Users\skipi\AppData\Local\Temp\ccHKWaHh.s 			page 160


 6155              		.file 28 "c:\\program files\\daisytoolchain\\arm-none-eabi\\include\\c++\\10.2.1\\arm-none-eabi\\t
 6156              		.file 29 "c:\\program files\\daisytoolchain\\arm-none-eabi\\include\\c++\\10.2.1\\bits\\algorithmf
 6157              		.file 30 "c:\\program files\\daisytoolchain\\arm-none-eabi\\include\\c++\\10.2.1\\bits\\stl_pair.h
 6158              		.file 31 "c:\\program files\\daisytoolchain\\arm-none-eabi\\include\\c++\\10.2.1\\bits\\exception_
 6159              		.file 32 "c:\\program files\\daisytoolchain\\arm-none-eabi\\include\\c++\\10.2.1\\cstdarg"
 6160              		.file 33 "c:\\program files\\daisytoolchain\\arm-none-eabi\\include\\c++\\10.2.1\\cstdio"
 6161              		.file 34 "c:\\program files\\daisytoolchain\\arm-none-eabi\\include\\c++\\10.2.1\\cstring"
 6162              		.file 35 "c:\\program files\\daisytoolchain\\arm-none-eabi\\include\\c++\\10.2.1\\cwchar"
 6163              		.file 36 "c:\\program files\\daisytoolchain\\arm-none-eabi\\include\\c++\\10.2.1\\clocale"
 6164              		.file 37 "c:\\program files\\daisytoolchain\\arm-none-eabi\\include\\c++\\10.2.1\\bits\\basic_stri
 6165              		.file 38 "c:\\program files\\daisytoolchain\\arm-none-eabi\\include\\c++\\10.2.1\\bits\\stl_tempbu
 6166              		.file 39 "c:\\program files\\daisytoolchain\\arm-none-eabi\\include\\c++\\10.2.1\\bits\\predefined
 6167              		.file 40 "c:\\program files\\daisytoolchain\\arm-none-eabi\\include\\sys\\_types.h"
 6168              		.file 41 "c:\\program files\\daisytoolchain\\arm-none-eabi\\include\\sys\\reent.h"
 6169              		.file 42 "c:\\program files\\daisytoolchain\\arm-none-eabi\\include\\sys\\lock.h"
 6170              		.file 43 "c:\\program files\\daisytoolchain\\arm-none-eabi\\include\\math.h"
 6171              		.file 44 "c:\\program files\\daisytoolchain\\arm-none-eabi\\include\\stdlib.h"
 6172              		.file 45 "c:\\program files\\daisytoolchain\\arm-none-eabi\\include\\c++\\10.2.1\\math.h"
 6173              		.file 46 "c:\\program files\\daisytoolchain\\arm-none-eabi\\include\\c++\\10.2.1\\stdlib.h"
 6174              		.file 47 "../../libs/libDaisy/src/per/tim.h"
 6175              		.file 48 "../../libs/libDaisy/src/hid/logger_impl.h"
 6176              		.file 49 "../../libs/libDaisy/src/util/wav_format.h"
 6177              		.file 50 "../../libs/libDaisy/src/dev/sr_595.h"
 6178              		.file 51 "../../libs/libDaisy/src/dev/max11300.h"
 6179              		.file 52 "../../libs/libDaisy/src/hid/logger.h"
 6180              		.file 53 "../../libs/libDaisy/src/dev/sdram.h"
 6181              		.file 54 "c:\\program files\\daisytoolchain\\lib\\gcc\\arm-none-eabi\\10.2.1\\include\\stdarg.h"
 6182              		.file 55 "c:\\program files\\daisytoolchain\\arm-none-eabi\\include\\stdio.h"
 6183              		.file 56 "c:\\program files\\daisytoolchain\\arm-none-eabi\\include\\string.h"
 6184              		.file 57 "../../libs/DaisySP/Source/Control/adenv.h"
 6185              		.file 58 "../../libs/DaisySP/Source/Control/phasor.h"
 6186              		.file 59 "../../libs/DaisySP/Source/Utility/dsp.h"
 6187              		.file 60 "../../libs/DaisySP/Source/Dynamics/crossfade.h"
 6188              		.file 61 "../../libs/DaisySP/Source/Utility/delayline.h"
 6189              		.file 62 "../../libs/DaisySP/Source/Effects/pitchshifter.h"
 6190              		.file 63 "c:\\program files\\daisytoolchain\\arm-none-eabi\\include\\wchar.h"
 6191              		.file 64 "c:\\program files\\daisytoolchain\\arm-none-eabi\\include\\locale.h"
 6192              		.file 65 "pentaPianta.h"
 6193              		.file 66 "AnalogDelay.h"
 6194              		.file 67 "config.h"
 6195              		.file 68 "Ramo.h"
 6196              		.file 69 "<built-in>"
ARM GAS  C:\Users\skipi\AppData\Local\Temp\ccHKWaHh.s 			page 161


DEFINED SYMBOLS
                            *ABS*:00000000 main.cpp
C:\Users\skipi\AppData\Local\Temp\ccHKWaHh.s:17     .text._ZN5daisy9DaisySeedD2Ev:00000000 $t
C:\Users\skipi\AppData\Local\Temp\ccHKWaHh.s:26     .text._ZN5daisy9DaisySeedD2Ev:00000000 _ZN5daisy9DaisySeedD2Ev
C:\Users\skipi\AppData\Local\Temp\ccHKWaHh.s:26     .text._ZN5daisy9DaisySeedD2Ev:00000000 _ZN5daisy9DaisySeedD1Ev
C:\Users\skipi\AppData\Local\Temp\ccHKWaHh.s:73     .text._ZN7daisysp4AdsrD2Ev:00000000 $t
C:\Users\skipi\AppData\Local\Temp\ccHKWaHh.s:81     .text._ZN7daisysp4AdsrD2Ev:00000000 _ZN7daisysp4AdsrD2Ev
C:\Users\skipi\AppData\Local\Temp\ccHKWaHh.s:81     .text._ZN7daisysp4AdsrD2Ev:00000000 _ZN7daisysp4AdsrD1Ev
C:\Users\skipi\AppData\Local\Temp\ccHKWaHh.s:98     .text._ZN7daisysp10OscillatorD2Ev:00000000 $t
C:\Users\skipi\AppData\Local\Temp\ccHKWaHh.s:106    .text._ZN7daisysp10OscillatorD2Ev:00000000 _ZN7daisysp10OscillatorD2Ev
C:\Users\skipi\AppData\Local\Temp\ccHKWaHh.s:106    .text._ZN7daisysp10OscillatorD2Ev:00000000 _ZN7daisysp10OscillatorD1Ev
C:\Users\skipi\AppData\Local\Temp\ccHKWaHh.s:123    .text._ZN5daisy6Mpr121INS_18Mpr121I2CTransportEED2Ev:00000000 $t
C:\Users\skipi\AppData\Local\Temp\ccHKWaHh.s:131    .text._ZN5daisy6Mpr121INS_18Mpr121I2CTransportEED2Ev:00000000 _ZN5daisy6Mpr121INS_18Mpr121I2CTransportEED2Ev
C:\Users\skipi\AppData\Local\Temp\ccHKWaHh.s:131    .text._ZN5daisy6Mpr121INS_18Mpr121I2CTransportEED2Ev:00000000 _ZN5daisy6Mpr121INS_18Mpr121I2CTransportEED1Ev
C:\Users\skipi\AppData\Local\Temp\ccHKWaHh.s:153    .text._ZL13AudioCallbackPKfPfj:00000000 $t
C:\Users\skipi\AppData\Local\Temp\ccHKWaHh.s:160    .text._ZL13AudioCallbackPKfPfj:00000000 _ZL13AudioCallbackPKfPfj
C:\Users\skipi\AppData\Local\Temp\ccHKWaHh.s:543    .text._ZL13AudioCallbackPKfPfj:000001f4 $d
C:\Users\skipi\AppData\Local\Temp\ccHKWaHh.s:585    .text._ZN7daisysp10Oscillator4InitEf:00000000 $t
C:\Users\skipi\AppData\Local\Temp\ccHKWaHh.s:593    .text._ZN7daisysp10Oscillator4InitEf:00000000 _ZN7daisysp10Oscillator4InitEf
C:\Users\skipi\AppData\Local\Temp\ccHKWaHh.s:662    .text._ZN7daisysp10Oscillator4InitEf:00000040 $d
C:\Users\skipi\AppData\Local\Temp\ccHKWaHh.s:667    .text._ZN7daisysp12LadderFilterC2Ev:00000000 $t
C:\Users\skipi\AppData\Local\Temp\ccHKWaHh.s:675    .text._ZN7daisysp12LadderFilterC2Ev:00000000 _ZN7daisysp12LadderFilterC2Ev
C:\Users\skipi\AppData\Local\Temp\ccHKWaHh.s:675    .text._ZN7daisysp12LadderFilterC2Ev:00000000 _ZN7daisysp12LadderFilterC1Ev
C:\Users\skipi\AppData\Local\Temp\ccHKWaHh.s:701    .text._ZN5daisy6Mpr121INS_18Mpr121I2CTransportEE13WriteRegisterEhh:00000000 $t
C:\Users\skipi\AppData\Local\Temp\ccHKWaHh.s:709    .text._ZN5daisy6Mpr121INS_18Mpr121I2CTransportEE13WriteRegisterEhh:00000000 _ZN5daisy6Mpr121INS_18Mpr121I2CTransportEE13WriteRegisterEhh
C:\Users\skipi\AppData\Local\Temp\ccHKWaHh.s:1079   .rodata.main.str1.4:00000000 $d
C:\Users\skipi\AppData\Local\Temp\ccHKWaHh.s:1111   .text.startup.main:00000000 $t
C:\Users\skipi\AppData\Local\Temp\ccHKWaHh.s:1119   .text.startup.main:00000000 main
C:\Users\skipi\AppData\Local\Temp\ccHKWaHh.s:1754   .text.startup.main:00000354 $d
C:\Users\skipi\AppData\Local\Temp\ccHKWaHh.s:1792   .text.startup.main:000003e0 $t
C:\Users\skipi\AppData\Local\Temp\ccHKWaHh.s:2963   .text.startup.main:00000710 $d
C:\Users\skipi\AppData\Local\Temp\ccHKWaHh.s:5508   .bss.Delay:00000000 Delay
C:\Users\skipi\AppData\Local\Temp\ccHKWaHh.s:2988   .text.startup.main:00000770 $t
C:\Users\skipi\AppData\Local\Temp\ccHKWaHh.s:3979   .text.startup.main:00000a58 $d
C:\Users\skipi\AppData\Local\Temp\ccHKWaHh.s:4004   .text.startup.main:00000aac $t
C:\Users\skipi\AppData\Local\Temp\ccHKWaHh.s:4379   .text.startup.main:00000b94 $d
C:\Users\skipi\AppData\Local\Temp\ccHKWaHh.s:4395   .text.startup._GLOBAL__sub_I_f_pluck:00000000 $t
C:\Users\skipi\AppData\Local\Temp\ccHKWaHh.s:4402   .text.startup._GLOBAL__sub_I_f_pluck:00000000 _GLOBAL__sub_I_f_pluck
C:\Users\skipi\AppData\Local\Temp\ccHKWaHh.s:5375   .text.startup._GLOBAL__sub_I_f_pluck:000001f4 $d
C:\Users\skipi\AppData\Local\Temp\ccHKWaHh.s:5416   .init_array:00000000 $d
C:\Users\skipi\AppData\Local\Temp\ccHKWaHh.s:5589   .bss.currtouched:00000000 currtouched
C:\Users\skipi\AppData\Local\Temp\ccHKWaHh.s:5645   .bss.lasttouched:00000000 lasttouched
C:\Users\skipi\AppData\Local\Temp\ccHKWaHh.s:5722   .bss.out_mix:00000000 out_mix
C:\Users\skipi\AppData\Local\Temp\ccHKWaHh.s:5617   .bss.filtered_bass:00000000 filtered_bass
C:\Users\skipi\AppData\Local\Temp\ccHKWaHh.s:5624   .bss.filtered_pad:00000000 filtered_pad
C:\Users\skipi\AppData\Local\Temp\ccHKWaHh.s:5631   .bss.filtered_pluck:00000000 filtered_pluck
C:\Users\skipi\AppData\Local\Temp\ccHKWaHh.s:5514   .bss.Gate_bass:00000000 Gate_bass
C:\Users\skipi\AppData\Local\Temp\ccHKWaHh.s:5520   .bss.Gate_pad:00000000 Gate_pad
C:\Users\skipi\AppData\Local\Temp\ccHKWaHh.s:5526   .bss.Gate_pluck:00000000 Gate_pluck
C:\Users\skipi\AppData\Local\Temp\ccHKWaHh.s:5701   .bss.now_f_bass:00000000 now_f_bass
C:\Users\skipi\AppData\Local\Temp\ccHKWaHh.s:5708   .bss.now_f_pad:00000000 now_f_pad
C:\Users\skipi\AppData\Local\Temp\ccHKWaHh.s:5715   .bss.now_f_pluck:00000000 now_f_pluck
C:\Users\skipi\AppData\Local\Temp\ccHKWaHh.s:5764   .bss.value_bass:00000000 value_bass
C:\Users\skipi\AppData\Local\Temp\ccHKWaHh.s:5771   .bss.value_pad:00000000 value_pad
C:\Users\skipi\AppData\Local\Temp\ccHKWaHh.s:5778   .bss.value_pluck:00000000 value_pluck
C:\Users\skipi\AppData\Local\Temp\ccHKWaHh.s:5596   .bss.filt_eg_bass:00000000 filt_eg_bass
C:\Users\skipi\AppData\Local\Temp\ccHKWaHh.s:5603   .bss.filt_eg_pad:00000000 filt_eg_pad
ARM GAS  C:\Users\skipi\AppData\Local\Temp\ccHKWaHh.s 			page 162


C:\Users\skipi\AppData\Local\Temp\ccHKWaHh.s:5610   .bss.filt_eg_pluck:00000000 filt_eg_pluck
C:\Users\skipi\AppData\Local\Temp\ccHKWaHh.s:5554   .bss.amp_eg_bass:00000000 amp_eg_bass
C:\Users\skipi\AppData\Local\Temp\ccHKWaHh.s:5561   .bss.amp_eg_pad:00000000 amp_eg_pad
C:\Users\skipi\AppData\Local\Temp\ccHKWaHh.s:5568   .bss.amp_eg_pluck:00000000 amp_eg_pluck
C:\Users\skipi\AppData\Local\Temp\ccHKWaHh.s:5680   .bss.lfo3:00000000 lfo3
C:\Users\skipi\AppData\Local\Temp\ccHKWaHh.s:5666   .bss.lfo2:00000000 lfo2
C:\Users\skipi\AppData\Local\Temp\ccHKWaHh.s:5652   .bss.lfo1:00000000 lfo1
C:\Users\skipi\AppData\Local\Temp\ccHKWaHh.s:5575   .bss.bass:00000000 bass
C:\Users\skipi\AppData\Local\Temp\ccHKWaHh.s:5750   .bss.pad:00000000 pad
C:\Users\skipi\AppData\Local\Temp\ccHKWaHh.s:5757   .bss.pluck:00000000 pluck
C:\Users\skipi\AppData\Local\Temp\ccHKWaHh.s:5638   .bss.hw:00000000 hw
C:\Users\skipi\AppData\Local\Temp\ccHKWaHh.s:5729   .bss.p_bass:00000000 p_bass
C:\Users\skipi\AppData\Local\Temp\ccHKWaHh.s:5736   .bss.p_pad:00000000 p_pad
C:\Users\skipi\AppData\Local\Temp\ccHKWaHh.s:5743   .bss.p_pluck:00000000 p_pluck
C:\Users\skipi\AppData\Local\Temp\ccHKWaHh.s:6113   .data.soglie:00000000 soglie
C:\Users\skipi\AppData\Local\Temp\ccHKWaHh.s:5582   .bss.cap:00000000 cap
C:\Users\skipi\AppData\Local\Temp\ccHKWaHh.s:5694   .bss.mpr121ObjConf:00000000 mpr121ObjConf
C:\Users\skipi\AppData\Local\Temp\ccHKWaHh.s:5993   .data.lfo3_shape:00000000 lfo3_shape
C:\Users\skipi\AppData\Local\Temp\ccHKWaHh.s:5973   .data.lfo2_shape:00000000 lfo2_shape
C:\Users\skipi\AppData\Local\Temp\ccHKWaHh.s:5953   .data.lfo1_shape:00000000 lfo1_shape
C:\Users\skipi\AppData\Local\Temp\ccHKWaHh.s:5687   .bss.lfo3_phase:00000000 lfo3_phase
C:\Users\skipi\AppData\Local\Temp\ccHKWaHh.s:5673   .bss.lfo2_phase:00000000 lfo2_phase
C:\Users\skipi\AppData\Local\Temp\ccHKWaHh.s:5659   .bss.lfo1_phase:00000000 lfo1_phase
C:\Users\skipi\AppData\Local\Temp\ccHKWaHh.s:5980   .data.lfo3_amp:00000000 lfo3_amp
C:\Users\skipi\AppData\Local\Temp\ccHKWaHh.s:5960   .data.lfo2_amp:00000000 lfo2_amp
C:\Users\skipi\AppData\Local\Temp\ccHKWaHh.s:5940   .data.lfo1_amp:00000000 lfo1_amp
C:\Users\skipi\AppData\Local\Temp\ccHKWaHh.s:5987   .data.lfo3_freq:00000000 lfo3_freq
C:\Users\skipi\AppData\Local\Temp\ccHKWaHh.s:5967   .data.lfo2_freq:00000000 lfo2_freq
C:\Users\skipi\AppData\Local\Temp\ccHKWaHh.s:5947   .data.lfo1_freq:00000000 lfo1_freq
C:\Users\skipi\AppData\Local\Temp\ccHKWaHh.s:5824   .data.delay_mix:00000000 delay_mix
C:\Users\skipi\AppData\Local\Temp\ccHKWaHh.s:5817   .data.delay_fb:00000000 delay_fb
C:\Users\skipi\AppData\Local\Temp\ccHKWaHh.s:5831   .data.delay_time:00000000 delay_time
C:\Users\skipi\AppData\Local\Temp\ccHKWaHh.s:6000   .data.master:00000000 master
C:\Users\skipi\AppData\Local\Temp\ccHKWaHh.s:5919   .data.gain_bass:00000000 gain_bass
C:\Users\skipi\AppData\Local\Temp\ccHKWaHh.s:6007   .data.mix_amp_bass:00000000 mix_amp_bass
C:\Users\skipi\AppData\Local\Temp\ccHKWaHh.s:5807   .data.bass_Filter_ADSR:00000000 bass_Filter_ADSR
C:\Users\skipi\AppData\Local\Temp\ccHKWaHh.s:5797   .data.bass_Amp_ADSR:00000000 bass_Amp_ADSR
C:\Users\skipi\AppData\Local\Temp\ccHKWaHh.s:5850   .data.f_EG_bass:00000000 f_EG_bass
C:\Users\skipi\AppData\Local\Temp\ccHKWaHh.s:5837   .data.drive_bass:00000000 drive_bass
C:\Users\skipi\AppData\Local\Temp\ccHKWaHh.s:6071   .data.res_bass:00000000 res_bass
C:\Users\skipi\AppData\Local\Temp\ccHKWaHh.s:5898   .data.ft_bass:00000000 ft_bass
C:\Users\skipi\AppData\Local\Temp\ccHKWaHh.s:5784   .data.amp_lfo_bass:00000000 amp_lfo_bass
C:\Users\skipi\AppData\Local\Temp\ccHKWaHh.s:5877   .data.f_lfo_bass:00000000 f_lfo_bass
C:\Users\skipi\AppData\Local\Temp\ccHKWaHh.s:6092   .data.shape_bass:00000000 shape_bass
C:\Users\skipi\AppData\Local\Temp\ccHKWaHh.s:6127   .data.wf_bass:00000000 wf_bass
C:\Users\skipi\AppData\Local\Temp\ccHKWaHh.s:5871   .data.f_bass:00000000 f_bass
C:\Users\skipi\AppData\Local\Temp\ccHKWaHh.s:5926   .data.gain_pad:00000000 gain_pad
C:\Users\skipi\AppData\Local\Temp\ccHKWaHh.s:6015   .data.mix_amp_pad:00000000 mix_amp_pad
C:\Users\skipi\AppData\Local\Temp\ccHKWaHh.s:6041   .data.pad_Filter_ADSR:00000000 pad_Filter_ADSR
C:\Users\skipi\AppData\Local\Temp\ccHKWaHh.s:6031   .data.pad_Amp_ADSR:00000000 pad_Amp_ADSR
C:\Users\skipi\AppData\Local\Temp\ccHKWaHh.s:5857   .data.f_EG_pad:00000000 f_EG_pad
C:\Users\skipi\AppData\Local\Temp\ccHKWaHh.s:5843   .data.drive_pad:00000000 drive_pad
C:\Users\skipi\AppData\Local\Temp\ccHKWaHh.s:6078   .data.res_pad:00000000 res_pad
C:\Users\skipi\AppData\Local\Temp\ccHKWaHh.s:5905   .data.ft_pad:00000000 ft_pad
C:\Users\skipi\AppData\Local\Temp\ccHKWaHh.s:6134   .data.wf_pad:00000000 wf_pad
C:\Users\skipi\AppData\Local\Temp\ccHKWaHh.s:5790   .data.amp_lfo_pad:00000000 amp_lfo_pad
C:\Users\skipi\AppData\Local\Temp\ccHKWaHh.s:6099   .data.shape_pad:00000000 shape_pad
ARM GAS  C:\Users\skipi\AppData\Local\Temp\ccHKWaHh.s 			page 163


C:\Users\skipi\AppData\Local\Temp\ccHKWaHh.s:5884   .data.f_pad:00000000 f_pad
C:\Users\skipi\AppData\Local\Temp\ccHKWaHh.s:5933   .data.gain_pluck:00000000 gain_pluck
C:\Users\skipi\AppData\Local\Temp\ccHKWaHh.s:6023   .data.mix_amp_pluck:00000000 mix_amp_pluck
C:\Users\skipi\AppData\Local\Temp\ccHKWaHh.s:6061   .data.pluck_Filter_ADSR:00000000 pluck_Filter_ADSR
C:\Users\skipi\AppData\Local\Temp\ccHKWaHh.s:6051   .data.pluck_Amp_ADSR:00000000 pluck_Amp_ADSR
C:\Users\skipi\AppData\Local\Temp\ccHKWaHh.s:5864   .data.f_EG_pluck:00000000 f_EG_pluck
C:\Users\skipi\AppData\Local\Temp\ccHKWaHh.s:6085   .data.res_pluck:00000000 res_pluck
C:\Users\skipi\AppData\Local\Temp\ccHKWaHh.s:5912   .data.ft_pluck:00000000 ft_pluck
C:\Users\skipi\AppData\Local\Temp\ccHKWaHh.s:6106   .data.shape_pluck:00000000 shape_pluck
C:\Users\skipi\AppData\Local\Temp\ccHKWaHh.s:6141   .data.wf_pluck:00000000 wf_pluck
C:\Users\skipi\AppData\Local\Temp\ccHKWaHh.s:5891   .data.f_pluck:00000000 f_pluck
C:\Users\skipi\AppData\Local\Temp\ccHKWaHh.s:5505   .bss.Delay:00000000 $d
C:\Users\skipi\AppData\Local\Temp\ccHKWaHh.s:5515   .bss.Gate_bass:00000000 $d
C:\Users\skipi\AppData\Local\Temp\ccHKWaHh.s:5521   .bss.Gate_pad:00000000 $d
C:\Users\skipi\AppData\Local\Temp\ccHKWaHh.s:5527   .bss.Gate_pluck:00000000 $d
C:\Users\skipi\AppData\Local\Temp\ccHKWaHh.s:5529   .bss._ZL7VCF_pad:00000000 $d
C:\Users\skipi\AppData\Local\Temp\ccHKWaHh.s:5533   .bss._ZL7VCF_pad:00000000 _ZL7VCF_pad
C:\Users\skipi\AppData\Local\Temp\ccHKWaHh.s:5536   .bss._ZL8VCF_bass:00000000 $d
C:\Users\skipi\AppData\Local\Temp\ccHKWaHh.s:5540   .bss._ZL8VCF_bass:00000000 _ZL8VCF_bass
C:\Users\skipi\AppData\Local\Temp\ccHKWaHh.s:5543   .bss._ZL9VCF_pluck:00000000 $d
C:\Users\skipi\AppData\Local\Temp\ccHKWaHh.s:5547   .bss._ZL9VCF_pluck:00000000 _ZL9VCF_pluck
C:\Users\skipi\AppData\Local\Temp\ccHKWaHh.s:5550   .bss.amp_eg_bass:00000000 $d
C:\Users\skipi\AppData\Local\Temp\ccHKWaHh.s:5557   .bss.amp_eg_pad:00000000 $d
C:\Users\skipi\AppData\Local\Temp\ccHKWaHh.s:5564   .bss.amp_eg_pluck:00000000 $d
C:\Users\skipi\AppData\Local\Temp\ccHKWaHh.s:5571   .bss.bass:00000000 $d
C:\Users\skipi\AppData\Local\Temp\ccHKWaHh.s:5578   .bss.cap:00000000 $d
C:\Users\skipi\AppData\Local\Temp\ccHKWaHh.s:5585   .bss.currtouched:00000000 $d
C:\Users\skipi\AppData\Local\Temp\ccHKWaHh.s:5592   .bss.filt_eg_bass:00000000 $d
C:\Users\skipi\AppData\Local\Temp\ccHKWaHh.s:5599   .bss.filt_eg_pad:00000000 $d
C:\Users\skipi\AppData\Local\Temp\ccHKWaHh.s:5606   .bss.filt_eg_pluck:00000000 $d
C:\Users\skipi\AppData\Local\Temp\ccHKWaHh.s:5613   .bss.filtered_bass:00000000 $d
C:\Users\skipi\AppData\Local\Temp\ccHKWaHh.s:5620   .bss.filtered_pad:00000000 $d
C:\Users\skipi\AppData\Local\Temp\ccHKWaHh.s:5627   .bss.filtered_pluck:00000000 $d
C:\Users\skipi\AppData\Local\Temp\ccHKWaHh.s:5634   .bss.hw:00000000 $d
C:\Users\skipi\AppData\Local\Temp\ccHKWaHh.s:5641   .bss.lasttouched:00000000 $d
C:\Users\skipi\AppData\Local\Temp\ccHKWaHh.s:5648   .bss.lfo1:00000000 $d
C:\Users\skipi\AppData\Local\Temp\ccHKWaHh.s:5655   .bss.lfo1_phase:00000000 $d
C:\Users\skipi\AppData\Local\Temp\ccHKWaHh.s:5662   .bss.lfo2:00000000 $d
C:\Users\skipi\AppData\Local\Temp\ccHKWaHh.s:5669   .bss.lfo2_phase:00000000 $d
C:\Users\skipi\AppData\Local\Temp\ccHKWaHh.s:5676   .bss.lfo3:00000000 $d
C:\Users\skipi\AppData\Local\Temp\ccHKWaHh.s:5683   .bss.lfo3_phase:00000000 $d
C:\Users\skipi\AppData\Local\Temp\ccHKWaHh.s:5690   .bss.mpr121ObjConf:00000000 $d
C:\Users\skipi\AppData\Local\Temp\ccHKWaHh.s:5697   .bss.now_f_bass:00000000 $d
C:\Users\skipi\AppData\Local\Temp\ccHKWaHh.s:5704   .bss.now_f_pad:00000000 $d
C:\Users\skipi\AppData\Local\Temp\ccHKWaHh.s:5711   .bss.now_f_pluck:00000000 $d
C:\Users\skipi\AppData\Local\Temp\ccHKWaHh.s:5718   .bss.out_mix:00000000 $d
C:\Users\skipi\AppData\Local\Temp\ccHKWaHh.s:5725   .bss.p_bass:00000000 $d
C:\Users\skipi\AppData\Local\Temp\ccHKWaHh.s:5732   .bss.p_pad:00000000 $d
C:\Users\skipi\AppData\Local\Temp\ccHKWaHh.s:5739   .bss.p_pluck:00000000 $d
C:\Users\skipi\AppData\Local\Temp\ccHKWaHh.s:5746   .bss.pad:00000000 $d
C:\Users\skipi\AppData\Local\Temp\ccHKWaHh.s:5753   .bss.pluck:00000000 $d
C:\Users\skipi\AppData\Local\Temp\ccHKWaHh.s:5760   .bss.value_bass:00000000 $d
C:\Users\skipi\AppData\Local\Temp\ccHKWaHh.s:5767   .bss.value_pad:00000000 $d
C:\Users\skipi\AppData\Local\Temp\ccHKWaHh.s:5774   .bss.value_pluck:00000000 $d
C:\Users\skipi\AppData\Local\Temp\ccHKWaHh.s:5781   .data.amp_lfo_bass:00000000 $d
C:\Users\skipi\AppData\Local\Temp\ccHKWaHh.s:5787   .data.amp_lfo_pad:00000000 $d
C:\Users\skipi\AppData\Local\Temp\ccHKWaHh.s:5793   .data.bass_Amp_ADSR:00000000 $d
ARM GAS  C:\Users\skipi\AppData\Local\Temp\ccHKWaHh.s 			page 164


C:\Users\skipi\AppData\Local\Temp\ccHKWaHh.s:5803   .data.bass_Filter_ADSR:00000000 $d
C:\Users\skipi\AppData\Local\Temp\ccHKWaHh.s:5813   .data.delay_fb:00000000 $d
C:\Users\skipi\AppData\Local\Temp\ccHKWaHh.s:5820   .data.delay_mix:00000000 $d
C:\Users\skipi\AppData\Local\Temp\ccHKWaHh.s:5827   .data.delay_time:00000000 $d
C:\Users\skipi\AppData\Local\Temp\ccHKWaHh.s:5834   .data.drive_bass:00000000 $d
C:\Users\skipi\AppData\Local\Temp\ccHKWaHh.s:5840   .data.drive_pad:00000000 $d
C:\Users\skipi\AppData\Local\Temp\ccHKWaHh.s:5846   .data.f_EG_bass:00000000 $d
C:\Users\skipi\AppData\Local\Temp\ccHKWaHh.s:5853   .data.f_EG_pad:00000000 $d
C:\Users\skipi\AppData\Local\Temp\ccHKWaHh.s:5860   .data.f_EG_pluck:00000000 $d
C:\Users\skipi\AppData\Local\Temp\ccHKWaHh.s:5867   .data.f_bass:00000000 $d
C:\Users\skipi\AppData\Local\Temp\ccHKWaHh.s:5874   .data.f_lfo_bass:00000000 $d
C:\Users\skipi\AppData\Local\Temp\ccHKWaHh.s:5880   .data.f_pad:00000000 $d
C:\Users\skipi\AppData\Local\Temp\ccHKWaHh.s:5887   .data.f_pluck:00000000 $d
C:\Users\skipi\AppData\Local\Temp\ccHKWaHh.s:5894   .data.ft_bass:00000000 $d
C:\Users\skipi\AppData\Local\Temp\ccHKWaHh.s:5901   .data.ft_pad:00000000 $d
C:\Users\skipi\AppData\Local\Temp\ccHKWaHh.s:5908   .data.ft_pluck:00000000 $d
C:\Users\skipi\AppData\Local\Temp\ccHKWaHh.s:5915   .data.gain_bass:00000000 $d
C:\Users\skipi\AppData\Local\Temp\ccHKWaHh.s:5922   .data.gain_pad:00000000 $d
C:\Users\skipi\AppData\Local\Temp\ccHKWaHh.s:5929   .data.gain_pluck:00000000 $d
C:\Users\skipi\AppData\Local\Temp\ccHKWaHh.s:5936   .data.lfo1_amp:00000000 $d
C:\Users\skipi\AppData\Local\Temp\ccHKWaHh.s:5943   .data.lfo1_freq:00000000 $d
C:\Users\skipi\AppData\Local\Temp\ccHKWaHh.s:5950   .data.lfo1_shape:00000000 $d
C:\Users\skipi\AppData\Local\Temp\ccHKWaHh.s:5956   .data.lfo2_amp:00000000 $d
C:\Users\skipi\AppData\Local\Temp\ccHKWaHh.s:5963   .data.lfo2_freq:00000000 $d
C:\Users\skipi\AppData\Local\Temp\ccHKWaHh.s:5970   .data.lfo2_shape:00000000 $d
C:\Users\skipi\AppData\Local\Temp\ccHKWaHh.s:5976   .data.lfo3_amp:00000000 $d
C:\Users\skipi\AppData\Local\Temp\ccHKWaHh.s:5983   .data.lfo3_freq:00000000 $d
C:\Users\skipi\AppData\Local\Temp\ccHKWaHh.s:5990   .data.lfo3_shape:00000000 $d
C:\Users\skipi\AppData\Local\Temp\ccHKWaHh.s:5996   .data.master:00000000 $d
C:\Users\skipi\AppData\Local\Temp\ccHKWaHh.s:6003   .data.mix_amp_bass:00000000 $d
C:\Users\skipi\AppData\Local\Temp\ccHKWaHh.s:6011   .data.mix_amp_pad:00000000 $d
C:\Users\skipi\AppData\Local\Temp\ccHKWaHh.s:6019   .data.mix_amp_pluck:00000000 $d
C:\Users\skipi\AppData\Local\Temp\ccHKWaHh.s:6027   .data.pad_Amp_ADSR:00000000 $d
C:\Users\skipi\AppData\Local\Temp\ccHKWaHh.s:6037   .data.pad_Filter_ADSR:00000000 $d
C:\Users\skipi\AppData\Local\Temp\ccHKWaHh.s:6047   .data.pluck_Amp_ADSR:00000000 $d
C:\Users\skipi\AppData\Local\Temp\ccHKWaHh.s:6057   .data.pluck_Filter_ADSR:00000000 $d
C:\Users\skipi\AppData\Local\Temp\ccHKWaHh.s:6067   .data.res_bass:00000000 $d
C:\Users\skipi\AppData\Local\Temp\ccHKWaHh.s:6074   .data.res_pad:00000000 $d
C:\Users\skipi\AppData\Local\Temp\ccHKWaHh.s:6081   .data.res_pluck:00000000 $d
C:\Users\skipi\AppData\Local\Temp\ccHKWaHh.s:6088   .data.shape_bass:00000000 $d
C:\Users\skipi\AppData\Local\Temp\ccHKWaHh.s:6095   .data.shape_pad:00000000 $d
C:\Users\skipi\AppData\Local\Temp\ccHKWaHh.s:6102   .data.shape_pluck:00000000 $d
C:\Users\skipi\AppData\Local\Temp\ccHKWaHh.s:6109   .data.soglie:00000000 $d
C:\Users\skipi\AppData\Local\Temp\ccHKWaHh.s:6123   .data.wf_bass:00000000 $d
C:\Users\skipi\AppData\Local\Temp\ccHKWaHh.s:6130   .data.wf_pad:00000000 $d
C:\Users\skipi\AppData\Local\Temp\ccHKWaHh.s:6137   .data.wf_pluck:00000000 $d
                           .group:00000000 _ZN5daisy9DaisySeedD5Ev
                           .group:00000000 _ZN7daisysp4AdsrD5Ev
                           .group:00000000 _ZN7daisysp10OscillatorD5Ev
                           .group:00000000 _ZN5daisy6Mpr121INS_18Mpr121I2CTransportEED5Ev
                           .group:00000000 _ZN7daisysp12LadderFilterC5Ev

UNDEFINED SYMBOLS
_ZN7daisysp10Oscillator7ProcessEv
_ZN4Ramo8SetShapeEf
_ZN4Ramo7SetFreqEf
_ZN7daisysp4Adsr7ProcessEb
ARM GAS  C:\Users\skipi\AppData\Local\Temp\ccHKWaHh.s 			page 165


_ZN7daisysp12LadderFilter7SetFreqEf
_ZN4Ramo7SetGainEf
_ZN4Ramo7ProcessEv
_ZN7daisysp12LadderFilter7ProcessEf
_ZN7daisysp10Oscillator12CalcPhaseIncEf
_ZN5daisy9I2CHandle16TransmitBlockingEtPhtm
_ZN5daisy9I2CHandle15ReceiveBlockingEtPhtm
_ZN5daisy9DaisySeed9ConfigureEv
_ZN5daisy9DaisySeed4InitEb
_ZN5daisy9DaisySeed17SetAudioBlockSizeEj
_ZN5daisy9DaisySeed15AudioSampleRateEv
_ZN5daisy6LoggerILNS_17LoggerDestinationE1EE8StartLogEb
_ZN4Ramo4InitEf
_ZN4Ramo12SetWaveformsEPh
_ZN4Ramo6SetAmpEPf
_ZN4Ramo9SetDetuneEPf
_ZN7daisysp4Adsr4InitEfi
_ZN7daisysp4Adsr7SetTimeEif
_ZN7daisysp12LadderFilter4InitEf
_ZN7daisysp12LadderFilter6SetResEf
_ZN11AnalogDelay4InitEf
_ZN11AnalogDelay12setDelayTimeEf
_ZN11AnalogDelay11setFeedbackEf
_ZN11AnalogDelay6setMixEf
_ZN5daisy9DaisySeed10StartAudioEPFvPKfPfjE
_ZN5daisy9I2CHandle4InitERKNS0_6ConfigE
_ZN5daisy6System5DelayEm
_ZN5daisy6LoggerILNS_17LoggerDestinationE1EE9PrintLineEPKcz
_ZN5daisy9DaisySeed6SetLedEb
_ZN5daisy9DaisySeed7DelayMsEj
_ZN5daisy9I2CHandle8Mem_readEtttPhtm
_ZN11pentaPianta8discFreqEt
__aeabi_atexit
_ZN11pentaPiantaC1EPii
_ZN4RamoC1Ev
_ZN11AnalogDelayC1Ev
__dso_handle
_ZN4RamoD1Ev
_ZN11AnalogDelayD1Ev
