ARM GAS  C:\Users\skipi\AppData\Local\Temp\ccYIdhXu.s 			page 1


   1              		.cpu cortex-m7
   2              		.eabi_attribute 28, 1
   3              		.eabi_attribute 20, 1
   4              		.eabi_attribute 21, 1
   5              		.eabi_attribute 23, 3
   6              		.eabi_attribute 24, 1
   7              		.eabi_attribute 25, 1
   8              		.eabi_attribute 26, 1
   9              		.eabi_attribute 30, 2
  10              		.eabi_attribute 34, 1
  11              		.eabi_attribute 18, 4
  12              		.file	"Ramo.cpp"
  13              		.text
  14              	.Ltext0:
  15              		.cfi_sections	.debug_frame
  16              		.section	.text._ZN4RamoC2Ev,"ax",%progbits
  17              		.align	1
  18              		.p2align 2,,3
  19              		.global	_ZN4RamoC2Ev
  20              		.arch armv7e-m
  21              		.syntax unified
  22              		.thumb
  23              		.thumb_func
  24              		.fpu fpv5-d16
  26              	_ZN4RamoC2Ev:
  27              	.LVL0:
  28              	.LFB4815:
  29              		.file 1 "src/Ramo.cpp"
   1:src/Ramo.cpp  **** 
   2:src/Ramo.cpp  **** #include "Ramo.h"
   3:src/Ramo.cpp  **** 
   4:src/Ramo.cpp  **** using namespace daisysp;
   5:src/Ramo.cpp  **** 
   6:src/Ramo.cpp  **** Ramo::Ramo()
  30              		.loc 1 6 1 view -0
  31              		.cfi_startproc
  32              		@ args = 0, pretend = 0, frame = 0
  33              		@ frame_needed = 0, uses_anonymous_args = 0
  34              		@ link register save eliminated.
   7:src/Ramo.cpp  **** {
   8:src/Ramo.cpp  **** }
  35              		.loc 1 8 1 is_stmt 0 view .LVU1
  36 0000 7047     		bx	lr
  37              		.cfi_endproc
  38              	.LFE4815:
  40              		.global	_ZN4RamoC1Ev
  41              		.thumb_set _ZN4RamoC1Ev,_ZN4RamoC2Ev
  42 0002 00BF     		.section	.text._ZN4RamoD2Ev,"ax",%progbits
  43              		.align	1
  44              		.p2align 2,,3
  45              		.global	_ZN4RamoD2Ev
  46              		.syntax unified
  47              		.thumb
  48              		.thumb_func
  49              		.fpu fpv5-d16
  51              	_ZN4RamoD2Ev:
  52              	.LVL1:
ARM GAS  C:\Users\skipi\AppData\Local\Temp\ccYIdhXu.s 			page 2


  53              	.LFB4818:
   9:src/Ramo.cpp  **** 
  10:src/Ramo.cpp  **** Ramo::~Ramo()
  54              		.loc 1 10 1 is_stmt 1 view -0
  55              		.cfi_startproc
  56              		@ args = 0, pretend = 0, frame = 0
  57              		@ frame_needed = 0, uses_anonymous_args = 0
  58              		@ link register save eliminated.
  11:src/Ramo.cpp  **** {
  12:src/Ramo.cpp  ****     // Cleanup if needed
  13:src/Ramo.cpp  **** }
  59              		.loc 1 13 1 is_stmt 0 view .LVU3
  60 0000 7047     		bx	lr
  61              		.cfi_endproc
  62              	.LFE4818:
  64              		.global	_ZN4RamoD1Ev
  65              		.thumb_set _ZN4RamoD1Ev,_ZN4RamoD2Ev
  66 0002 00BF     		.section	.text._ZN4Ramo4InitEf,"ax",%progbits
  67              		.align	1
  68              		.p2align 2,,3
  69              		.global	_ZN4Ramo4InitEf
  70              		.syntax unified
  71              		.thumb
  72              		.thumb_func
  73              		.fpu fpv5-d16
  75              	_ZN4Ramo4InitEf:
  76              	.LVL2:
  77              	.LFB4820:
  14:src/Ramo.cpp  **** 
  15:src/Ramo.cpp  **** void Ramo::Init(float sample_rate) // initialization
  16:src/Ramo.cpp  **** {
  78              		.loc 1 16 1 is_stmt 1 view -0
  79              		.cfi_startproc
  80              		@ args = 0, pretend = 0, frame = 0
  81              		@ frame_needed = 0, uses_anonymous_args = 0
  82              		@ link register save eliminated.
  17:src/Ramo.cpp  ****     _sr = sample_rate;
  83              		.loc 1 17 5 view .LVU5
  18:src/Ramo.cpp  ****     _sr_recip = 1.0f / sample_rate;
  84              		.loc 1 18 22 is_stmt 0 view .LVU6
  85 0000 F7EE006A 		vmov.f32	s13, #1.0e+0
  19:src/Ramo.cpp  ****     _freq = 100.0f;
  86              		.loc 1 19 11 view .LVU7
  87 0004 DFED117A 		vldr.32	s15, .L5
  20:src/Ramo.cpp  ****     _phase_inc[0] = CalcPhaseInc(_freq);
  21:src/Ramo.cpp  ****     _phase_inc[1] = CalcPhaseInc(_freq);
  22:src/Ramo.cpp  ****     _pw = 0.5f;
  88              		.loc 1 22 9 view .LVU8
  89 0008 4FF07C53 		mov	r3, #1056964608
  23:src/Ramo.cpp  ****     _shape = 0.0f;
  90              		.loc 1 23 12 view .LVU9
  91 000c 0022     		movs	r2, #0
  19:src/Ramo.cpp  ****     _freq = 100.0f;
  92              		.loc 1 19 11 view .LVU10
  93 000e C0ED037A 		vstr.32	s15, [r0, #12]
  94              	.LBB20:
  24:src/Ramo.cpp  ****     _mshape = 0.5f - _shape;
ARM GAS  C:\Users\skipi\AppData\Local\Temp\ccYIdhXu.s 			page 3


  25:src/Ramo.cpp  ****     _correctorGain = 1 / (1 - 2 * _shape);
  26:src/Ramo.cpp  ****     
  27:src/Ramo.cpp  **** 
  28:src/Ramo.cpp  ****     for (int i = 0; i < 2; i++) {
  29:src/Ramo.cpp  ****         _amp[i] = 0.5f;
  30:src/Ramo.cpp  ****         _phase[i] = 0.0f;
  31:src/Ramo.cpp  ****         _waveform[i] = WAVE_SIN;
  95              		.loc 1 31 22 view .LVU11
  96 0012 4FF0000C 		mov	ip, #0
  97              	.LBE20:
  18:src/Ramo.cpp  ****     _freq = 100.0f;
  98              		.loc 1 18 22 view .LVU12
  99 0016 86EE807A 		vdiv.f32	s14, s13, s0
 100              	.LBB21:
  32:src/Ramo.cpp  ****         _eoc[i] = true;
  33:src/Ramo.cpp  ****         _eor[i] = true;
 101              		.loc 1 33 17 view .LVU13
 102 001a 4FF00131 		mov	r1, #16843009
 103              	.LBE21:
  17:src/Ramo.cpp  ****     _sr_recip = 1.0f / sample_rate;
 104              		.loc 1 17 9 view .LVU14
 105 001e 80ED080A 		vstr.32	s0, [r0, #32]
  18:src/Ramo.cpp  ****     _freq = 100.0f;
 106              		.loc 1 18 5 is_stmt 1 view .LVU15
  22:src/Ramo.cpp  ****     _shape = 0.0f;
 107              		.loc 1 22 9 is_stmt 0 view .LVU16
 108 0022 0361     		str	r3, [r0, #16]	@ float
  23:src/Ramo.cpp  ****     _mshape = 0.5f - _shape;
 109              		.loc 1 23 12 view .LVU17
 110 0024 4261     		str	r2, [r0, #20]	@ float
  24:src/Ramo.cpp  ****     _correctorGain = 1 / (1 - 2 * _shape);
 111              		.loc 1 24 13 view .LVU18
 112 0026 8361     		str	r3, [r0, #24]	@ float
  25:src/Ramo.cpp  ****     
 113              		.loc 1 25 20 view .LVU19
 114 0028 C0ED076A 		vstr.32	s13, [r0, #28]
 115              	.LBB22:
  29:src/Ramo.cpp  ****         _phase[i] = 0.0f;
 116              		.loc 1 29 17 view .LVU20
 117 002c 4360     		str	r3, [r0, #4]	@ float
  30:src/Ramo.cpp  ****         _waveform[i] = WAVE_SIN;
 118              		.loc 1 30 19 view .LVU21
 119 002e 8262     		str	r2, [r0, #40]	@ float
  29:src/Ramo.cpp  ****         _phase[i] = 0.0f;
 120              		.loc 1 29 17 view .LVU22
 121 0030 8360     		str	r3, [r0, #8]	@ float
  30:src/Ramo.cpp  ****         _waveform[i] = WAVE_SIN;
 122              		.loc 1 30 19 view .LVU23
 123 0032 C262     		str	r2, [r0, #44]	@ float
  31:src/Ramo.cpp  ****         _eoc[i] = true;
 124              		.loc 1 31 22 view .LVU24
 125 0034 A0F800C0 		strh	ip, [r0]	@ movhi
 126              		.loc 1 33 17 view .LVU25
 127 0038 0164     		str	r1, [r0, #64]
 128              	.LBE22:
 129              	.LBB23:
 130              	.LBB24:
ARM GAS  C:\Users\skipi\AppData\Local\Temp\ccYIdhXu.s 			page 4


  34:src/Ramo.cpp  ****     }
  35:src/Ramo.cpp  **** 
  36:src/Ramo.cpp  **** }
  37:src/Ramo.cpp  **** 
  38:src/Ramo.cpp  **** float Ramo::Process()
  39:src/Ramo.cpp  **** {
  40:src/Ramo.cpp  ****     float out[n], t[n];
  41:src/Ramo.cpp  ****     for (int i = 0; i < n; i++)
  42:src/Ramo.cpp  ****     {
  43:src/Ramo.cpp  ****         switch (_waveform[i])
  44:src/Ramo.cpp  ****         {
  45:src/Ramo.cpp  ****         case WAVE_SIN:
  46:src/Ramo.cpp  ****             out[i] = sinf(_phase[i] * TWOPI_F);
  47:src/Ramo.cpp  ****             break;
  48:src/Ramo.cpp  ****         case WAVE_TRI:
  49:src/Ramo.cpp  ****             t[i] = abs(-1.0f + (2.0f * _phase[i]));
  50:src/Ramo.cpp  ****             if (abs(_phase[i] - 0.5) > _mshape)
  51:src/Ramo.cpp  ****             {
  52:src/Ramo.cpp  ****                 t[i] -= 4 * t[i]; // qui c'è il problema, non è 4t la funzione corretta da somamr
  53:src/Ramo.cpp  ****             }
  54:src/Ramo.cpp  ****             if (abs(_phase[i] - 0.5) < _shape)
  55:src/Ramo.cpp  ****             {
  56:src/Ramo.cpp  ****                 t[i] += 4 * t[i];
  57:src/Ramo.cpp  ****             }
  58:src/Ramo.cpp  ****             out[i] = _correctorGain *  (t[i] - 0.5f); // moltiplico per il gain correttivo  
  59:src/Ramo.cpp  **** 
  60:src/Ramo.cpp  ****             break;
  61:src/Ramo.cpp  ****         case WAVE_SAW:
  62:src/Ramo.cpp  ****             out[i] = -1.0f * (((_phase[i] * 2.0f)) - 1.0f);
  63:src/Ramo.cpp  ****             break;
  64:src/Ramo.cpp  ****         case WAVE_SQUARE:
  65:src/Ramo.cpp  ****             out[i] = _phase[i] < _pw ? (1.0f) : -1.0f;
  66:src/Ramo.cpp  ****             break;
  67:src/Ramo.cpp  ****         default:
  68:src/Ramo.cpp  ****             out[i] = 0.0f;
  69:src/Ramo.cpp  ****             break;
  70:src/Ramo.cpp  ****         }
  71:src/Ramo.cpp  ****         _phase[i] += _phase_inc[i];
  72:src/Ramo.cpp  **** 
  73:src/Ramo.cpp  ****         if (_phase[i] > 1.0f)
  74:src/Ramo.cpp  ****         {
  75:src/Ramo.cpp  ****             _phase[i] -= 1.0f;
  76:src/Ramo.cpp  ****             _eoc[i] = true;
  77:src/Ramo.cpp  ****         }
  78:src/Ramo.cpp  ****         else
  79:src/Ramo.cpp  ****         {
  80:src/Ramo.cpp  ****             _eoc[i] = false;
  81:src/Ramo.cpp  ****         }
  82:src/Ramo.cpp  ****         _eor[i] = (_phase[i] - _phase_inc[i] < 0.5f && _phase[i] >= 0.5f);
  83:src/Ramo.cpp  ****     }
  84:src/Ramo.cpp  **** 
  85:src/Ramo.cpp  ****     return out[0] * _amp[0] + out[1] * _amp[1];
  86:src/Ramo.cpp  **** }
  87:src/Ramo.cpp  **** 
  88:src/Ramo.cpp  **** float Ramo::CalcPhaseInc(float f)
  89:src/Ramo.cpp  **** {
  90:src/Ramo.cpp  ****     return f * _sr_recip;
ARM GAS  C:\Users\skipi\AppData\Local\Temp\ccYIdhXu.s 			page 5


 131              		.loc 1 90 16 view .LVU26
 132 003a 67EE277A 		vmul.f32	s15, s14, s15
 133              	.LBE24:
 134              	.LBE23:
  18:src/Ramo.cpp  ****     _freq = 100.0f;
 135              		.loc 1 18 15 view .LVU27
 136 003e 80ED097A 		vstr.32	s14, [r0, #36]
  19:src/Ramo.cpp  ****     _phase_inc[0] = CalcPhaseInc(_freq);
 137              		.loc 1 19 5 is_stmt 1 view .LVU28
  20:src/Ramo.cpp  ****     _phase_inc[1] = CalcPhaseInc(_freq);
 138              		.loc 1 20 5 view .LVU29
 139              	.LVL3:
 140              	.LBB26:
 141              	.LBI23:
  88:src/Ramo.cpp  **** {
 142              		.loc 1 88 7 view .LVU30
 143              	.LBB25:
 144              		.loc 1 90 5 view .LVU31
 145              		.loc 1 90 5 is_stmt 0 view .LVU32
 146              	.LBE25:
 147              	.LBE26:
  20:src/Ramo.cpp  ****     _phase_inc[1] = CalcPhaseInc(_freq);
 148              		.loc 1 20 19 view .LVU33
 149 0042 C0ED0C7A 		vstr.32	s15, [r0, #48]
  21:src/Ramo.cpp  ****     _pw = 0.5f;
 150              		.loc 1 21 5 is_stmt 1 view .LVU34
 151              	.LVL4:
 152              		.loc 1 90 5 view .LVU35
  21:src/Ramo.cpp  ****     _pw = 0.5f;
 153              		.loc 1 21 19 is_stmt 0 view .LVU36
 154 0046 C0ED0D7A 		vstr.32	s15, [r0, #52]
  22:src/Ramo.cpp  ****     _shape = 0.0f;
 155              		.loc 1 22 5 is_stmt 1 view .LVU37
  23:src/Ramo.cpp  ****     _mshape = 0.5f - _shape;
 156              		.loc 1 23 5 view .LVU38
  24:src/Ramo.cpp  ****     _correctorGain = 1 / (1 - 2 * _shape);
 157              		.loc 1 24 5 view .LVU39
  25:src/Ramo.cpp  ****     
 158              		.loc 1 25 5 view .LVU40
  28:src/Ramo.cpp  ****         _amp[i] = 0.5f;
 159              		.loc 1 28 5 view .LVU41
 160              	.LVL5:
 161              	.LBB27:
  28:src/Ramo.cpp  ****         _amp[i] = 0.5f;
 162              		.loc 1 28 23 view .LVU42
  29:src/Ramo.cpp  ****         _phase[i] = 0.0f;
 163              		.loc 1 29 9 view .LVU43
  30:src/Ramo.cpp  ****         _waveform[i] = WAVE_SIN;
 164              		.loc 1 30 9 view .LVU44
  31:src/Ramo.cpp  ****         _eoc[i] = true;
 165              		.loc 1 31 9 view .LVU45
  32:src/Ramo.cpp  ****         _eor[i] = true;
 166              		.loc 1 32 9 view .LVU46
  33:src/Ramo.cpp  ****     }
 167              		.loc 1 33 9 view .LVU47
  28:src/Ramo.cpp  ****         _amp[i] = 0.5f;
 168              		.loc 1 28 5 view .LVU48
ARM GAS  C:\Users\skipi\AppData\Local\Temp\ccYIdhXu.s 			page 6


  28:src/Ramo.cpp  ****         _amp[i] = 0.5f;
 169              		.loc 1 28 23 view .LVU49
  29:src/Ramo.cpp  ****         _phase[i] = 0.0f;
 170              		.loc 1 29 9 view .LVU50
  30:src/Ramo.cpp  ****         _waveform[i] = WAVE_SIN;
 171              		.loc 1 30 9 view .LVU51
  31:src/Ramo.cpp  ****         _eoc[i] = true;
 172              		.loc 1 31 9 view .LVU52
  32:src/Ramo.cpp  ****         _eor[i] = true;
 173              		.loc 1 32 9 view .LVU53
  33:src/Ramo.cpp  ****     }
 174              		.loc 1 33 9 view .LVU54
  28:src/Ramo.cpp  ****         _amp[i] = 0.5f;
 175              		.loc 1 28 5 view .LVU55
  28:src/Ramo.cpp  ****         _amp[i] = 0.5f;
 176              		.loc 1 28 23 view .LVU56
 177              	.LBE27:
  36:src/Ramo.cpp  **** 
 178              		.loc 1 36 1 is_stmt 0 view .LVU57
 179 004a 7047     		bx	lr
 180              	.L6:
 181              		.align	2
 182              	.L5:
 183 004c 0000C842 		.word	1120403456
 184              		.cfi_endproc
 185              	.LFE4820:
 187              		.section	.text._ZN4Ramo7ProcessEv,"ax",%progbits
 188              		.align	1
 189              		.p2align 2,,3
 190              		.global	_ZN4Ramo7ProcessEv
 191              		.syntax unified
 192              		.thumb
 193              		.thumb_func
 194              		.fpu fpv5-d16
 196              	_ZN4Ramo7ProcessEv:
 197              	.LVL6:
 198              	.LFB4821:
  39:src/Ramo.cpp  ****     float out[n], t[n];
 199              		.loc 1 39 1 is_stmt 1 view -0
 200              		.cfi_startproc
 201              		@ args = 0, pretend = 0, frame = 8
 202              		@ frame_needed = 0, uses_anonymous_args = 0
  40:src/Ramo.cpp  ****     for (int i = 0; i < n; i++)
 203              		.loc 1 40 5 view .LVU59
  41:src/Ramo.cpp  ****     {
 204              		.loc 1 41 5 view .LVU60
 205              	.LBB28:
  41:src/Ramo.cpp  ****     {
 206              		.loc 1 41 23 view .LVU61
 207              	.LBE28:
  39:src/Ramo.cpp  ****     float out[n], t[n];
 208              		.loc 1 39 1 is_stmt 0 view .LVU62
 209 0000 2DE9F041 		push	{r4, r5, r6, r7, r8, lr}
 210              		.cfi_def_cfa_offset 24
 211              		.cfi_offset 4, -24
 212              		.cfi_offset 5, -20
 213              		.cfi_offset 6, -16
ARM GAS  C:\Users\skipi\AppData\Local\Temp\ccYIdhXu.s 			page 7


 214              		.cfi_offset 7, -12
 215              		.cfi_offset 8, -8
 216              		.cfi_offset 14, -4
 217 0004 2DED028B 		vpush.64	{d8}
 218              		.cfi_def_cfa_offset 32
 219              		.cfi_offset 80, -32
 220              		.cfi_offset 81, -28
 221 0008 82B0     		sub	sp, sp, #8
 222              		.cfi_def_cfa_offset 40
  39:src/Ramo.cpp  ****     float out[n], t[n];
 223              		.loc 1 39 1 view .LVU63
 224 000a 0646     		mov	r6, r0
 225 000c 451E     		subs	r5, r0, #1
 226 000e 00F12804 		add	r4, r0, #40
 227 0012 6F46     		mov	r7, sp
 228              	.LVL7:
 229              	.L25:
 230              	.LBB37:
  43:src/Ramo.cpp  ****         {
 231              		.loc 1 43 9 is_stmt 1 view .LVU64
 232 0014 A846     		mov	r8, r5
 233 0016 15F8013F 		ldrb	r3, [r5, #1]!	@ zero_extendqisi2
 234 001a 032B     		cmp	r3, #3
 235 001c 00F2A880 		bhi	.L8
 236 0020 DFE803F0 		tbb	[pc, r3]
 237              	.L10:
 238 0024 95       		.byte	(.L13-.L10)/2
 239 0025 5E       		.byte	(.L12-.L10)/2
 240 0026 4C       		.byte	(.L11-.L10)/2
 241 0027 02       		.byte	(.L9-.L10)/2
 242              		.p2align 1
 243              	.L9:
  61:src/Ramo.cpp  ****             out[i] = -1.0f * (((_phase[i] * 2.0f)) - 1.0f);
 244              		.loc 1 61 9 view .LVU65
  62:src/Ramo.cpp  ****             break;
 245              		.loc 1 62 13 view .LVU66
  62:src/Ramo.cpp  ****             break;
 246              		.loc 1 62 52 is_stmt 0 view .LVU67
 247 0028 B0EE007A 		vmov.f32	s14, #2.0e+0
  62:src/Ramo.cpp  ****             break;
 248              		.loc 1 62 41 view .LVU68
 249 002c 94ED008A 		vldr.32	s16, [r4]
  62:src/Ramo.cpp  ****             break;
 250              		.loc 1 62 52 view .LVU69
 251 0030 FFEE007A 		vmov.f32	s15, #-1.0e+0
 252 0034 E8EE077A 		vfma.f32	s15, s16, s14
  62:src/Ramo.cpp  ****             break;
 253              		.loc 1 62 28 view .LVU70
 254 0038 F1EE677A 		vneg.f32	s15, s15
  62:src/Ramo.cpp  ****             break;
 255              		.loc 1 62 20 view .LVU71
 256 003c C7ED007A 		vstr.32	s15, [r7]
  63:src/Ramo.cpp  ****         case WAVE_SQUARE:
 257              		.loc 1 63 13 is_stmt 1 view .LVU72
 258              	.L14:
  71:src/Ramo.cpp  **** 
 259              		.loc 1 71 9 view .LVU73
ARM GAS  C:\Users\skipi\AppData\Local\Temp\ccYIdhXu.s 			page 8


  71:src/Ramo.cpp  **** 
 260              		.loc 1 71 34 is_stmt 0 view .LVU74
 261 0040 94ED027A 		vldr.32	s14, [r4, #8]
  73:src/Ramo.cpp  ****         {
 262              		.loc 1 73 9 view .LVU75
 263 0044 F7EE006A 		vmov.f32	s13, #1.0e+0
  71:src/Ramo.cpp  **** 
 264              		.loc 1 71 19 view .LVU76
 265 0048 77EE087A 		vadd.f32	s15, s14, s16
  73:src/Ramo.cpp  ****         {
 266              		.loc 1 73 9 view .LVU77
 267 004c F4EEE67A 		vcmpe.f32	s15, s13
  71:src/Ramo.cpp  **** 
 268              		.loc 1 71 19 view .LVU78
 269 0050 C4ED007A 		vstr.32	s15, [r4]
  73:src/Ramo.cpp  ****         {
 270              		.loc 1 73 9 is_stmt 1 view .LVU79
 271 0054 F1EE10FA 		vmrs	APSR_nzcv, FPSCR
 272 0058 40F38680 		ble	.L33
  75:src/Ramo.cpp  ****             _eoc[i] = true;
 273              		.loc 1 75 13 view .LVU80
  75:src/Ramo.cpp  ****             _eoc[i] = true;
 274              		.loc 1 75 23 is_stmt 0 view .LVU81
 275 005c 77EEE67A 		vsub.f32	s15, s15, s13
  76:src/Ramo.cpp  ****         }
 276              		.loc 1 76 21 view .LVU82
 277 0060 0123     		movs	r3, #1
  75:src/Ramo.cpp  ****             _eoc[i] = true;
 278              		.loc 1 75 23 view .LVU83
 279 0062 C4ED007A 		vstr.32	s15, [r4]
  76:src/Ramo.cpp  ****         }
 280              		.loc 1 76 13 is_stmt 1 view .LVU84
  76:src/Ramo.cpp  ****         }
 281              		.loc 1 76 21 is_stmt 0 view .LVU85
 282 0066 85F84230 		strb	r3, [r5, #66]
 283              	.L22:
  82:src/Ramo.cpp  ****     }
 284              		.loc 1 82 9 is_stmt 1 view .LVU86
  82:src/Ramo.cpp  ****     }
 285              		.loc 1 82 30 is_stmt 0 view .LVU87
 286 006a 37EEC77A 		vsub.f32	s14, s15, s14
  82:src/Ramo.cpp  ****     }
 287              		.loc 1 82 53 view .LVU88
 288 006e F6EE006A 		vmov.f32	s13, #5.0e-1
 289 0072 B4EEE67A 		vcmpe.f32	s14, s13
 290 0076 F1EE10FA 		vmrs	APSR_nzcv, FPSCR
 291 007a 73D5     		bpl	.L34
  82:src/Ramo.cpp  ****     }
 292              		.loc 1 82 53 discriminator 1 view .LVU89
 293 007c F4EEE67A 		vcmpe.f32	s15, s13
 294 0080 F1EE10FA 		vmrs	APSR_nzcv, FPSCR
 295 0084 ACBF     		ite	ge
 296 0086 0123     		movge	r3, #1
 297 0088 0023     		movlt	r3, #0
 298              	.L23:
  41:src/Ramo.cpp  ****     {
 299              		.loc 1 41 23 discriminator 6 view .LVU90
ARM GAS  C:\Users\skipi\AppData\Local\Temp\ccYIdhXu.s 			page 9


 300 008a B045     		cmp	r8, r6
 301 008c 04F10404 		add	r4, r4, #4
 302 0090 07F10407 		add	r7, r7, #4
  82:src/Ramo.cpp  ****     }
 303              		.loc 1 82 17 discriminator 6 view .LVU91
 304 0094 85F84030 		strb	r3, [r5, #64]
  41:src/Ramo.cpp  ****     {
 305              		.loc 1 41 5 is_stmt 1 discriminator 6 view .LVU92
 306              	.LVL8:
  41:src/Ramo.cpp  ****     {
 307              		.loc 1 41 23 discriminator 6 view .LVU93
 308 0098 BCD1     		bne	.L25
 309              	.LBE37:
  85:src/Ramo.cpp  **** }
 310              		.loc 1 85 5 view .LVU94
  85:src/Ramo.cpp  **** }
 311              		.loc 1 85 38 is_stmt 0 view .LVU95
 312 009a 9DED010A 		vldr.32	s0, [sp, #4]
 313 009e D8ED026A 		vldr.32	s13, [r8, #8]
  85:src/Ramo.cpp  **** }
 314              		.loc 1 85 46 view .LVU96
 315 00a2 9DED007A 		vldr.32	s14, [sp]
  85:src/Ramo.cpp  **** }
 316              		.loc 1 85 38 view .LVU97
 317 00a6 20EE260A 		vmul.f32	s0, s0, s13
  85:src/Ramo.cpp  **** }
 318              		.loc 1 85 46 view .LVU98
 319 00aa D8ED017A 		vldr.32	s15, [r8, #4]
  86:src/Ramo.cpp  **** 
 320              		.loc 1 86 1 view .LVU99
 321 00ae A7EE270A 		vfma.f32	s0, s14, s15
 322 00b2 02B0     		add	sp, sp, #8
 323              		.cfi_remember_state
 324              		.cfi_def_cfa_offset 32
 325              		@ sp needed
 326 00b4 BDEC028B 		vldm	sp!, {d8}
 327              		.cfi_restore 80
 328              		.cfi_restore 81
 329              		.cfi_def_cfa_offset 24
 330 00b8 BDE8F081 		pop	{r4, r5, r6, r7, r8, pc}
 331              	.LVL9:
 332              	.L11:
 333              		.cfi_restore_state
 334              	.LBB38:
  64:src/Ramo.cpp  ****             out[i] = _phase[i] < _pw ? (1.0f) : -1.0f;
 335              		.loc 1 64 9 is_stmt 1 view .LVU100
  65:src/Ramo.cpp  ****             break;
 336              		.loc 1 65 13 view .LVU101
  65:src/Ramo.cpp  ****             break;
 337              		.loc 1 65 30 is_stmt 0 view .LVU102
 338 00bc 94ED008A 		vldr.32	s16, [r4]
  65:src/Ramo.cpp  ****             break;
 339              		.loc 1 65 38 view .LVU103
 340 00c0 F7EE007A 		vmov.f32	s15, #1.0e+0
 341 00c4 D6ED046A 		vldr.32	s13, [r6, #16]
 342 00c8 BFEE007A 		vmov.f32	s14, #-1.0e+0
 343 00cc B4EEE68A 		vcmpe.f32	s16, s13
ARM GAS  C:\Users\skipi\AppData\Local\Temp\ccYIdhXu.s 			page 10


 344 00d0 F1EE10FA 		vmrs	APSR_nzcv, FPSCR
 345 00d4 58BF     		it	pl
 346 00d6 F0EE477A 		vmovpl.f32	s15, s14
  65:src/Ramo.cpp  ****             break;
 347              		.loc 1 65 20 view .LVU104
 348 00da C7ED007A 		vstr.32	s15, [r7]
  66:src/Ramo.cpp  ****         default:
 349              		.loc 1 66 13 is_stmt 1 view .LVU105
 350 00de AFE7     		b	.L14
 351              	.L12:
  48:src/Ramo.cpp  ****             t[i] = abs(-1.0f + (2.0f * _phase[i]));
 352              		.loc 1 48 9 view .LVU106
  49:src/Ramo.cpp  ****             if (abs(_phase[i] - 0.5) > _mshape)
 353              		.loc 1 49 13 view .LVU107
  49:src/Ramo.cpp  ****             if (abs(_phase[i] - 0.5) > _mshape)
 354              		.loc 1 49 48 is_stmt 0 view .LVU108
 355 00e0 94ED008A 		vldr.32	s16, [r4]
  50:src/Ramo.cpp  ****             {
 356              		.loc 1 50 20 view .LVU109
 357 00e4 B6EE004B 		vmov.f64	d4, #5.0e-1
  50:src/Ramo.cpp  ****             {
 358              		.loc 1 50 40 view .LVU110
 359 00e8 96ED065A 		vldr.32	s10, [r6, #24]
  49:src/Ramo.cpp  ****             if (abs(_phase[i] - 0.5) > _mshape)
 360              		.loc 1 49 23 view .LVU111
 361 00ec B0EE007A 		vmov.f32	s14, #2.0e+0
  50:src/Ramo.cpp  ****             {
 362              		.loc 1 50 29 view .LVU112
 363 00f0 B7EEC86A 		vcvt.f64.f32	d6, s16
  49:src/Ramo.cpp  ****             if (abs(_phase[i] - 0.5) > _mshape)
 364              		.loc 1 49 23 view .LVU113
 365 00f4 FFEE007A 		vmov.f32	s15, #-1.0e+0
  50:src/Ramo.cpp  ****             {
 366              		.loc 1 50 40 view .LVU114
 367 00f8 B7EEC55A 		vcvt.f64.f32	d5, s10
  50:src/Ramo.cpp  ****             {
 368              		.loc 1 50 20 view .LVU115
 369 00fc 36EE446B 		vsub.f64	d6, d6, d4
  49:src/Ramo.cpp  ****             if (abs(_phase[i] - 0.5) > _mshape)
 370              		.loc 1 49 23 view .LVU116
 371 0100 E8EE077A 		vfma.f32	s15, s16, s14
 372              	.LVL10:
 373              	.LBB29:
 374              	.LBI29:
 375              		.file 2 "c:\\program files\\daisytoolchain\\arm-none-eabi\\include\\c++\\10.2.1\\bits\\std_abs.h"
   1:c:\program files\daisytoolchain\arm-none-eabi\include\c++\10.2.1\bits\std_abs.h **** // -*- C++ -*- C library enhancements header.
   2:c:\program files\daisytoolchain\arm-none-eabi\include\c++\10.2.1\bits\std_abs.h **** 
   3:c:\program files\daisytoolchain\arm-none-eabi\include\c++\10.2.1\bits\std_abs.h **** // Copyright (C) 2016-2020 Free Software Foundation, Inc.
   4:c:\program files\daisytoolchain\arm-none-eabi\include\c++\10.2.1\bits\std_abs.h **** //
   5:c:\program files\daisytoolchain\arm-none-eabi\include\c++\10.2.1\bits\std_abs.h **** // This file is part of the GNU ISO C++ Library.  This library is free
   6:c:\program files\daisytoolchain\arm-none-eabi\include\c++\10.2.1\bits\std_abs.h **** // software; you can redistribute it and/or modify it under the
   7:c:\program files\daisytoolchain\arm-none-eabi\include\c++\10.2.1\bits\std_abs.h **** // terms of the GNU General Public License as published by the
   8:c:\program files\daisytoolchain\arm-none-eabi\include\c++\10.2.1\bits\std_abs.h **** // Free Software Foundation; either version 3, or (at your option)
   9:c:\program files\daisytoolchain\arm-none-eabi\include\c++\10.2.1\bits\std_abs.h **** // any later version.
  10:c:\program files\daisytoolchain\arm-none-eabi\include\c++\10.2.1\bits\std_abs.h **** 
  11:c:\program files\daisytoolchain\arm-none-eabi\include\c++\10.2.1\bits\std_abs.h **** // This library is distributed in the hope that it will be useful,
  12:c:\program files\daisytoolchain\arm-none-eabi\include\c++\10.2.1\bits\std_abs.h **** // but WITHOUT ANY WARRANTY; without even the implied warranty of
ARM GAS  C:\Users\skipi\AppData\Local\Temp\ccYIdhXu.s 			page 11


  13:c:\program files\daisytoolchain\arm-none-eabi\include\c++\10.2.1\bits\std_abs.h **** // MERCHANTABILITY or FITNESS FOR A PARTICULAR PURPOSE.  See the
  14:c:\program files\daisytoolchain\arm-none-eabi\include\c++\10.2.1\bits\std_abs.h **** // GNU General Public License for more details.
  15:c:\program files\daisytoolchain\arm-none-eabi\include\c++\10.2.1\bits\std_abs.h **** 
  16:c:\program files\daisytoolchain\arm-none-eabi\include\c++\10.2.1\bits\std_abs.h **** // Under Section 7 of GPL version 3, you are granted additional
  17:c:\program files\daisytoolchain\arm-none-eabi\include\c++\10.2.1\bits\std_abs.h **** // permissions described in the GCC Runtime Library Exception, version
  18:c:\program files\daisytoolchain\arm-none-eabi\include\c++\10.2.1\bits\std_abs.h **** // 3.1, as published by the Free Software Foundation.
  19:c:\program files\daisytoolchain\arm-none-eabi\include\c++\10.2.1\bits\std_abs.h **** 
  20:c:\program files\daisytoolchain\arm-none-eabi\include\c++\10.2.1\bits\std_abs.h **** // You should have received a copy of the GNU General Public License and
  21:c:\program files\daisytoolchain\arm-none-eabi\include\c++\10.2.1\bits\std_abs.h **** // a copy of the GCC Runtime Library Exception along with this program;
  22:c:\program files\daisytoolchain\arm-none-eabi\include\c++\10.2.1\bits\std_abs.h **** // see the files COPYING3 and COPYING.RUNTIME respectively.  If not, see
  23:c:\program files\daisytoolchain\arm-none-eabi\include\c++\10.2.1\bits\std_abs.h **** // <http://www.gnu.org/licenses/>.
  24:c:\program files\daisytoolchain\arm-none-eabi\include\c++\10.2.1\bits\std_abs.h **** 
  25:c:\program files\daisytoolchain\arm-none-eabi\include\c++\10.2.1\bits\std_abs.h **** /** @file include/bits/std_abs.h
  26:c:\program files\daisytoolchain\arm-none-eabi\include\c++\10.2.1\bits\std_abs.h ****  *  This is an internal header file, included by other library headers.
  27:c:\program files\daisytoolchain\arm-none-eabi\include\c++\10.2.1\bits\std_abs.h ****  *  Do not attempt to use it directly. @headername{cmath, cstdlib}
  28:c:\program files\daisytoolchain\arm-none-eabi\include\c++\10.2.1\bits\std_abs.h ****  */
  29:c:\program files\daisytoolchain\arm-none-eabi\include\c++\10.2.1\bits\std_abs.h **** 
  30:c:\program files\daisytoolchain\arm-none-eabi\include\c++\10.2.1\bits\std_abs.h **** #ifndef _GLIBCXX_BITS_STD_ABS_H
  31:c:\program files\daisytoolchain\arm-none-eabi\include\c++\10.2.1\bits\std_abs.h **** #define _GLIBCXX_BITS_STD_ABS_H
  32:c:\program files\daisytoolchain\arm-none-eabi\include\c++\10.2.1\bits\std_abs.h **** 
  33:c:\program files\daisytoolchain\arm-none-eabi\include\c++\10.2.1\bits\std_abs.h **** #pragma GCC system_header
  34:c:\program files\daisytoolchain\arm-none-eabi\include\c++\10.2.1\bits\std_abs.h **** 
  35:c:\program files\daisytoolchain\arm-none-eabi\include\c++\10.2.1\bits\std_abs.h **** #include <bits/c++config.h>
  36:c:\program files\daisytoolchain\arm-none-eabi\include\c++\10.2.1\bits\std_abs.h **** 
  37:c:\program files\daisytoolchain\arm-none-eabi\include\c++\10.2.1\bits\std_abs.h **** #define _GLIBCXX_INCLUDE_NEXT_C_HEADERS
  38:c:\program files\daisytoolchain\arm-none-eabi\include\c++\10.2.1\bits\std_abs.h **** #include_next <stdlib.h>
  39:c:\program files\daisytoolchain\arm-none-eabi\include\c++\10.2.1\bits\std_abs.h **** #ifdef __CORRECT_ISO_CPP_MATH_H_PROTO
  40:c:\program files\daisytoolchain\arm-none-eabi\include\c++\10.2.1\bits\std_abs.h **** # include_next <math.h>
  41:c:\program files\daisytoolchain\arm-none-eabi\include\c++\10.2.1\bits\std_abs.h **** #endif
  42:c:\program files\daisytoolchain\arm-none-eabi\include\c++\10.2.1\bits\std_abs.h **** #undef _GLIBCXX_INCLUDE_NEXT_C_HEADERS
  43:c:\program files\daisytoolchain\arm-none-eabi\include\c++\10.2.1\bits\std_abs.h **** 
  44:c:\program files\daisytoolchain\arm-none-eabi\include\c++\10.2.1\bits\std_abs.h **** #undef abs
  45:c:\program files\daisytoolchain\arm-none-eabi\include\c++\10.2.1\bits\std_abs.h **** 
  46:c:\program files\daisytoolchain\arm-none-eabi\include\c++\10.2.1\bits\std_abs.h **** extern "C++"
  47:c:\program files\daisytoolchain\arm-none-eabi\include\c++\10.2.1\bits\std_abs.h **** {
  48:c:\program files\daisytoolchain\arm-none-eabi\include\c++\10.2.1\bits\std_abs.h **** namespace std _GLIBCXX_VISIBILITY(default)
  49:c:\program files\daisytoolchain\arm-none-eabi\include\c++\10.2.1\bits\std_abs.h **** {
  50:c:\program files\daisytoolchain\arm-none-eabi\include\c++\10.2.1\bits\std_abs.h **** _GLIBCXX_BEGIN_NAMESPACE_VERSION
  51:c:\program files\daisytoolchain\arm-none-eabi\include\c++\10.2.1\bits\std_abs.h **** 
  52:c:\program files\daisytoolchain\arm-none-eabi\include\c++\10.2.1\bits\std_abs.h ****   using ::abs;
  53:c:\program files\daisytoolchain\arm-none-eabi\include\c++\10.2.1\bits\std_abs.h **** 
  54:c:\program files\daisytoolchain\arm-none-eabi\include\c++\10.2.1\bits\std_abs.h **** #ifndef __CORRECT_ISO_CPP_STDLIB_H_PROTO
  55:c:\program files\daisytoolchain\arm-none-eabi\include\c++\10.2.1\bits\std_abs.h ****   inline long
  56:c:\program files\daisytoolchain\arm-none-eabi\include\c++\10.2.1\bits\std_abs.h ****   abs(long __i) { return __builtin_labs(__i); }
  57:c:\program files\daisytoolchain\arm-none-eabi\include\c++\10.2.1\bits\std_abs.h **** #endif
  58:c:\program files\daisytoolchain\arm-none-eabi\include\c++\10.2.1\bits\std_abs.h **** 
  59:c:\program files\daisytoolchain\arm-none-eabi\include\c++\10.2.1\bits\std_abs.h **** #ifdef _GLIBCXX_USE_LONG_LONG
  60:c:\program files\daisytoolchain\arm-none-eabi\include\c++\10.2.1\bits\std_abs.h ****   inline long long
  61:c:\program files\daisytoolchain\arm-none-eabi\include\c++\10.2.1\bits\std_abs.h ****   abs(long long __x) { return __builtin_llabs (__x); }
  62:c:\program files\daisytoolchain\arm-none-eabi\include\c++\10.2.1\bits\std_abs.h **** #endif
  63:c:\program files\daisytoolchain\arm-none-eabi\include\c++\10.2.1\bits\std_abs.h **** 
  64:c:\program files\daisytoolchain\arm-none-eabi\include\c++\10.2.1\bits\std_abs.h **** // _GLIBCXX_RESOLVE_LIB_DEFECTS
  65:c:\program files\daisytoolchain\arm-none-eabi\include\c++\10.2.1\bits\std_abs.h **** // 2192. Validity and return type of std::abs(0u) is unclear
  66:c:\program files\daisytoolchain\arm-none-eabi\include\c++\10.2.1\bits\std_abs.h **** // 2294. <cstdlib> should declare abs(double)
  67:c:\program files\daisytoolchain\arm-none-eabi\include\c++\10.2.1\bits\std_abs.h **** // 2735. std::abs(short), std::abs(signed char) and others should return int
  68:c:\program files\daisytoolchain\arm-none-eabi\include\c++\10.2.1\bits\std_abs.h **** 
  69:c:\program files\daisytoolchain\arm-none-eabi\include\c++\10.2.1\bits\std_abs.h **** #ifndef __CORRECT_ISO_CPP_MATH_H_PROTO
ARM GAS  C:\Users\skipi\AppData\Local\Temp\ccYIdhXu.s 			page 12


  70:c:\program files\daisytoolchain\arm-none-eabi\include\c++\10.2.1\bits\std_abs.h ****   inline _GLIBCXX_CONSTEXPR double
  71:c:\program files\daisytoolchain\arm-none-eabi\include\c++\10.2.1\bits\std_abs.h ****   abs(double __x)
  72:c:\program files\daisytoolchain\arm-none-eabi\include\c++\10.2.1\bits\std_abs.h ****   { return __builtin_fabs(__x); }
  73:c:\program files\daisytoolchain\arm-none-eabi\include\c++\10.2.1\bits\std_abs.h **** 
  74:c:\program files\daisytoolchain\arm-none-eabi\include\c++\10.2.1\bits\std_abs.h ****   inline _GLIBCXX_CONSTEXPR float
  75:c:\program files\daisytoolchain\arm-none-eabi\include\c++\10.2.1\bits\std_abs.h ****   abs(float __x)
 376              		.loc 2 75 3 is_stmt 1 view .LVU117
 377              	.LBB30:
  76:c:\program files\daisytoolchain\arm-none-eabi\include\c++\10.2.1\bits\std_abs.h ****   { return __builtin_fabsf(__x); }
 378              		.loc 2 76 5 view .LVU118
 379              	.LBE30:
 380              	.LBE29:
 381              	.LBB32:
 382              	.LBB33:
  72:c:\program files\daisytoolchain\arm-none-eabi\include\c++\10.2.1\bits\std_abs.h **** 
 383              		.loc 2 72 30 is_stmt 0 view .LVU119
 384 0104 B0EEC66B 		vabs.f64	d6, d6
 385              	.LBE33:
 386              	.LBE32:
  50:src/Ramo.cpp  ****             {
 387              		.loc 1 50 13 view .LVU120
 388 0108 B4EEC65B 		vcmpe.f64	d5, d6
 389              	.LBB35:
 390              	.LBB31:
 391              		.loc 2 76 31 view .LVU121
 392 010c F0EEE77A 		vabs.f32	s15, s15
 393              	.LVL11:
 394              		.loc 2 76 31 view .LVU122
 395              	.LBE31:
 396              	.LBE35:
  50:src/Ramo.cpp  ****             {
 397              		.loc 1 50 13 is_stmt 1 view .LVU123
 398              	.LBB36:
 399              	.LBI32:
  71:c:\program files\daisytoolchain\arm-none-eabi\include\c++\10.2.1\bits\std_abs.h ****   { return __builtin_fabs(__x); }
 400              		.loc 2 71 3 view .LVU124
 401              	.LBB34:
  72:c:\program files\daisytoolchain\arm-none-eabi\include\c++\10.2.1\bits\std_abs.h **** 
 402              		.loc 2 72 5 view .LVU125
  72:c:\program files\daisytoolchain\arm-none-eabi\include\c++\10.2.1\bits\std_abs.h **** 
 403              		.loc 2 72 5 is_stmt 0 view .LVU126
 404              	.LBE34:
 405              	.LBE36:
  50:src/Ramo.cpp  ****             {
 406              		.loc 1 50 13 view .LVU127
 407 0110 F1EE10FA 		vmrs	APSR_nzcv, FPSCR
 408 0114 03D5     		bpl	.L15
  52:src/Ramo.cpp  ****             }
 409              		.loc 1 52 17 is_stmt 1 view .LVU128
  52:src/Ramo.cpp  ****             }
 410              		.loc 1 52 22 is_stmt 0 view .LVU129
 411 0116 B1EE007A 		vmov.f32	s14, #4.0e+0
 412 011a E7EEC77A 		vfms.f32	s15, s15, s14
 413              	.L15:
  54:src/Ramo.cpp  ****             {
 414              		.loc 1 54 13 is_stmt 1 view .LVU130
 415              	.LVL12:
ARM GAS  C:\Users\skipi\AppData\Local\Temp\ccYIdhXu.s 			page 13


  54:src/Ramo.cpp  ****             {
 416              		.loc 1 54 13 is_stmt 0 view .LVU131
 417              	.LBE38:
  72:c:\program files\daisytoolchain\arm-none-eabi\include\c++\10.2.1\bits\std_abs.h **** 
 418              		.loc 2 72 5 is_stmt 1 view .LVU132
 419              	.LBB39:
  54:src/Ramo.cpp  ****             {
 420              		.loc 1 54 40 is_stmt 0 view .LVU133
 421 011e 96ED055A 		vldr.32	s10, [r6, #20]
 422 0122 B7EEC55A 		vcvt.f64.f32	d5, s10
  54:src/Ramo.cpp  ****             {
 423              		.loc 1 54 13 view .LVU134
 424 0126 B4EEC65B 		vcmpe.f64	d5, d6
 425 012a F1EE10FA 		vmrs	APSR_nzcv, FPSCR
 426 012e 03DD     		ble	.L17
  56:src/Ramo.cpp  ****             }
 427              		.loc 1 56 17 is_stmt 1 view .LVU135
  56:src/Ramo.cpp  ****             }
 428              		.loc 1 56 22 is_stmt 0 view .LVU136
 429 0130 B1EE007A 		vmov.f32	s14, #4.0e+0
 430 0134 E7EE877A 		vfma.f32	s15, s15, s14
 431              	.L17:
  58:src/Ramo.cpp  **** 
 432              		.loc 1 58 13 is_stmt 1 view .LVU137
  58:src/Ramo.cpp  **** 
 433              		.loc 1 58 46 is_stmt 0 view .LVU138
 434 0138 F6EE006A 		vmov.f32	s13, #5.0e-1
  58:src/Ramo.cpp  **** 
 435              		.loc 1 58 37 view .LVU139
 436 013c 96ED077A 		vldr.32	s14, [r6, #28]
  58:src/Ramo.cpp  **** 
 437              		.loc 1 58 46 view .LVU140
 438 0140 77EEE67A 		vsub.f32	s15, s15, s13
  58:src/Ramo.cpp  **** 
 439              		.loc 1 58 37 view .LVU141
 440 0144 67EE277A 		vmul.f32	s15, s14, s15
  58:src/Ramo.cpp  **** 
 441              		.loc 1 58 20 view .LVU142
 442 0148 C7ED007A 		vstr.32	s15, [r7]
  60:src/Ramo.cpp  ****         case WAVE_SAW:
 443              		.loc 1 60 13 is_stmt 1 view .LVU143
 444 014c 78E7     		b	.L14
 445              	.L13:
  45:src/Ramo.cpp  ****             out[i] = sinf(_phase[i] * TWOPI_F);
 446              		.loc 1 45 9 view .LVU144
  46:src/Ramo.cpp  ****             break;
 447              		.loc 1 46 13 view .LVU145
  46:src/Ramo.cpp  ****             break;
 448              		.loc 1 46 35 is_stmt 0 view .LVU146
 449 014e 94ED008A 		vldr.32	s16, [r4]
  46:src/Ramo.cpp  ****             break;
 450              		.loc 1 46 26 view .LVU147
 451 0152 9FED0A0A 		vldr.32	s0, .L36
 452 0156 28EE000A 		vmul.f32	s0, s16, s0
 453 015a FFF7FEFF 		bl	sinf
 454              	.LVL13:
  46:src/Ramo.cpp  ****             break;
ARM GAS  C:\Users\skipi\AppData\Local\Temp\ccYIdhXu.s 			page 14


 455              		.loc 1 46 20 view .LVU148
 456 015e 87ED000A 		vstr.32	s0, [r7]
  47:src/Ramo.cpp  ****         case WAVE_TRI:
 457              		.loc 1 47 13 is_stmt 1 view .LVU149
 458 0162 6DE7     		b	.L14
 459              	.L34:
  82:src/Ramo.cpp  ****     }
 460              		.loc 1 82 53 is_stmt 0 view .LVU150
 461 0164 0023     		movs	r3, #0
 462 0166 90E7     		b	.L23
 463              	.L33:
  80:src/Ramo.cpp  ****         }
 464              		.loc 1 80 13 is_stmt 1 view .LVU151
  80:src/Ramo.cpp  ****         }
 465              		.loc 1 80 21 is_stmt 0 view .LVU152
 466 0168 0023     		movs	r3, #0
 467 016a 85F84230 		strb	r3, [r5, #66]
 468 016e 7CE7     		b	.L22
 469              	.L8:
  67:src/Ramo.cpp  ****             out[i] = 0.0f;
 470              		.loc 1 67 9 is_stmt 1 view .LVU153
  68:src/Ramo.cpp  ****             break;
 471              		.loc 1 68 13 view .LVU154
  68:src/Ramo.cpp  ****             break;
 472              		.loc 1 68 20 is_stmt 0 view .LVU155
 473 0170 0023     		movs	r3, #0
  46:src/Ramo.cpp  ****             break;
 474              		.loc 1 46 35 view .LVU156
 475 0172 94ED008A 		vldr.32	s16, [r4]
  68:src/Ramo.cpp  ****             break;
 476              		.loc 1 68 20 view .LVU157
 477 0176 3B60     		str	r3, [r7]	@ float
  69:src/Ramo.cpp  ****         }
 478              		.loc 1 69 13 is_stmt 1 view .LVU158
 479 0178 62E7     		b	.L14
 480              	.L37:
 481 017a 00BF     		.align	2
 482              	.L36:
 483 017c DB0FC940 		.word	1086918619
 484              	.LBE39:
 485              		.cfi_endproc
 486              	.LFE4821:
 488              		.section	.text._ZN4Ramo12CalcPhaseIncEf,"ax",%progbits
 489              		.align	1
 490              		.p2align 2,,3
 491              		.global	_ZN4Ramo12CalcPhaseIncEf
 492              		.syntax unified
 493              		.thumb
 494              		.thumb_func
 495              		.fpu fpv5-d16
 497              	_ZN4Ramo12CalcPhaseIncEf:
 498              	.LVL14:
 499              	.LFB4822:
  89:src/Ramo.cpp  ****     return f * _sr_recip;
 500              		.loc 1 89 1 view -0
 501              		.cfi_startproc
 502              		@ args = 0, pretend = 0, frame = 0
ARM GAS  C:\Users\skipi\AppData\Local\Temp\ccYIdhXu.s 			page 15


 503              		@ frame_needed = 0, uses_anonymous_args = 0
 504              		@ link register save eliminated.
 505              		.loc 1 90 5 view .LVU160
 506              		.loc 1 90 16 is_stmt 0 view .LVU161
 507 0000 D0ED097A 		vldr.32	s15, [r0, #36]
  91:src/Ramo.cpp  **** }
 508              		.loc 1 91 1 view .LVU162
 509 0004 20EE270A 		vmul.f32	s0, s0, s15
 510              	.LVL15:
 511              		.loc 1 91 1 view .LVU163
 512 0008 7047     		bx	lr
 513              		.cfi_endproc
 514              	.LFE4822:
 516 000a 00BF     		.section	.text._ZN4Ramo12SetWaveformsEPh,"ax",%progbits
 517              		.align	1
 518              		.p2align 2,,3
 519              		.global	_ZN4Ramo12SetWaveformsEPh
 520              		.syntax unified
 521              		.thumb
 522              		.thumb_func
 523              		.fpu fpv5-d16
 525              	_ZN4Ramo12SetWaveformsEPh:
 526              	.LVL16:
 527              	.LFB4823:
  92:src/Ramo.cpp  **** 
  93:src/Ramo.cpp  **** void Ramo::SetWaveforms(uint8_t wf[])
  94:src/Ramo.cpp  **** {   
 528              		.loc 1 94 1 is_stmt 1 view -0
 529              		.cfi_startproc
 530              		@ args = 0, pretend = 0, frame = 0
 531              		@ frame_needed = 0, uses_anonymous_args = 0
 532              		@ link register save eliminated.
  95:src/Ramo.cpp  ****     for(int i = 0; i < n; i++)
 533              		.loc 1 95 5 view .LVU165
 534              	.LBB40:
 535              		.loc 1 95 22 view .LVU166
  96:src/Ramo.cpp  ****     {
  97:src/Ramo.cpp  ****         _waveform[i] = wf[i] < WAVE_LAST ? wf[i] : WAVE_SIN;
 536              		.loc 1 97 9 view .LVU167
 537              		.loc 1 97 28 is_stmt 0 view .LVU168
 538 0000 0B78     		ldrb	r3, [r1]	@ zero_extendqisi2
 539              		.loc 1 97 22 view .LVU169
 540 0002 042B     		cmp	r3, #4
 541 0004 28BF     		it	cs
 542 0006 0023     		movcs	r3, #0
 543 0008 0370     		strb	r3, [r0]
  95:src/Ramo.cpp  ****     for(int i = 0; i < n; i++)
 544              		.loc 1 95 5 is_stmt 1 view .LVU170
 545              	.LVL17:
  95:src/Ramo.cpp  ****     for(int i = 0; i < n; i++)
 546              		.loc 1 95 22 view .LVU171
 547              		.loc 1 97 9 view .LVU172
 548              		.loc 1 97 28 is_stmt 0 view .LVU173
 549 000a 4B78     		ldrb	r3, [r1, #1]	@ zero_extendqisi2
 550              		.loc 1 97 22 view .LVU174
 551 000c 042B     		cmp	r3, #4
 552 000e 28BF     		it	cs
ARM GAS  C:\Users\skipi\AppData\Local\Temp\ccYIdhXu.s 			page 16


 553 0010 0023     		movcs	r3, #0
 554 0012 4370     		strb	r3, [r0, #1]
  95:src/Ramo.cpp  ****     for(int i = 0; i < n; i++)
 555              		.loc 1 95 5 is_stmt 1 view .LVU175
 556              	.LVL18:
  95:src/Ramo.cpp  ****     for(int i = 0; i < n; i++)
 557              		.loc 1 95 22 view .LVU176
 558              	.LBE40:
  98:src/Ramo.cpp  ****     }
  99:src/Ramo.cpp  ****     
 100:src/Ramo.cpp  **** }
 559              		.loc 1 100 1 is_stmt 0 view .LVU177
 560 0014 7047     		bx	lr
 561              		.cfi_endproc
 562              	.LFE4823:
 564 0016 00BF     		.section	.text._ZN4Ramo7SetFreqEf,"ax",%progbits
 565              		.align	1
 566              		.p2align 2,,3
 567              		.global	_ZN4Ramo7SetFreqEf
 568              		.syntax unified
 569              		.thumb
 570              		.thumb_func
 571              		.fpu fpv5-d16
 573              	_ZN4Ramo7SetFreqEf:
 574              	.LVL19:
 575              	.LFB4824:
 101:src/Ramo.cpp  **** 
 102:src/Ramo.cpp  **** void Ramo::SetFreq( const float f)
 103:src/Ramo.cpp  **** {
 576              		.loc 1 103 1 is_stmt 1 view -0
 577              		.cfi_startproc
 578              		@ args = 0, pretend = 0, frame = 0
 579              		@ frame_needed = 0, uses_anonymous_args = 0
 580              		@ link register save eliminated.
 104:src/Ramo.cpp  ****     _freq = f;
 581              		.loc 1 104 5 view .LVU179
 582              	.LBB41:
 583              	.LBB42:
 584              	.LBB43:
  90:src/Ramo.cpp  **** }
 585              		.loc 1 90 16 is_stmt 0 view .LVU180
 586 0000 D0ED097A 		vldr.32	s15, [r0, #36]
 587              	.LBE43:
 588              	.LBE42:
 589              	.LBE41:
 590              		.loc 1 104 11 view .LVU181
 591 0004 80ED030A 		vstr.32	s0, [r0, #12]
 105:src/Ramo.cpp  ****     for (int i = 0; i < n; i++)
 592              		.loc 1 105 5 is_stmt 1 view .LVU182
 593              	.LVL20:
 594              	.LBB48:
 595              		.loc 1 105 23 view .LVU183
 106:src/Ramo.cpp  ****     {
 107:src/Ramo.cpp  ****         _phase_inc[i] = CalcPhaseInc(f);
 596              		.loc 1 107 9 view .LVU184
 597              	.LBB46:
 598              	.LBI42:
ARM GAS  C:\Users\skipi\AppData\Local\Temp\ccYIdhXu.s 			page 17


  88:src/Ramo.cpp  **** {
 599              		.loc 1 88 7 view .LVU185
 600              	.LBB44:
  90:src/Ramo.cpp  **** }
 601              		.loc 1 90 5 view .LVU186
  90:src/Ramo.cpp  **** }
 602              		.loc 1 90 16 is_stmt 0 view .LVU187
 603 0008 20EE270A 		vmul.f32	s0, s0, s15
 604              	.LVL21:
  90:src/Ramo.cpp  **** }
 605              		.loc 1 90 16 view .LVU188
 606              	.LBE44:
 607              	.LBE46:
 608              		.loc 1 107 23 view .LVU189
 609 000c 80ED0C0A 		vstr.32	s0, [r0, #48]
 105:src/Ramo.cpp  ****     {
 610              		.loc 1 105 5 is_stmt 1 view .LVU190
 611              	.LVL22:
 105:src/Ramo.cpp  ****     {
 612              		.loc 1 105 23 view .LVU191
 613              		.loc 1 107 9 view .LVU192
 614              	.LBB47:
  88:src/Ramo.cpp  **** {
 615              		.loc 1 88 7 view .LVU193
 616              	.LBB45:
  90:src/Ramo.cpp  **** }
 617              		.loc 1 90 5 view .LVU194
  90:src/Ramo.cpp  **** }
 618              		.loc 1 90 5 is_stmt 0 view .LVU195
 619              	.LBE45:
 620              	.LBE47:
 621              		.loc 1 107 23 view .LVU196
 622 0010 80ED0D0A 		vstr.32	s0, [r0, #52]
 105:src/Ramo.cpp  ****     {
 623              		.loc 1 105 5 is_stmt 1 view .LVU197
 624              	.LVL23:
 105:src/Ramo.cpp  ****     {
 625              		.loc 1 105 23 view .LVU198
 626              	.LBE48:
 108:src/Ramo.cpp  ****     }
 109:src/Ramo.cpp  **** }
 627              		.loc 1 109 1 is_stmt 0 view .LVU199
 628 0014 7047     		bx	lr
 629              		.cfi_endproc
 630              	.LFE4824:
 632 0016 00BF     		.section	.text._ZN4Ramo9SetDetuneEPf,"ax",%progbits
 633              		.align	1
 634              		.p2align 2,,3
 635              		.global	_ZN4Ramo9SetDetuneEPf
 636              		.syntax unified
 637              		.thumb
 638              		.thumb_func
 639              		.fpu fpv5-d16
 641              	_ZN4Ramo9SetDetuneEPf:
 642              	.LVL24:
 643              	.LFB4825:
 110:src/Ramo.cpp  **** 
ARM GAS  C:\Users\skipi\AppData\Local\Temp\ccYIdhXu.s 			page 18


 111:src/Ramo.cpp  **** void Ramo::SetDetune(float ef[])
 112:src/Ramo.cpp  **** {
 644              		.loc 1 112 1 is_stmt 1 view -0
 645              		.cfi_startproc
 646              		@ args = 0, pretend = 0, frame = 0
 647              		@ frame_needed = 0, uses_anonymous_args = 0
 648              		@ link register save eliminated.
 113:src/Ramo.cpp  ****     for (int i = 0; i < n; i++)
 649              		.loc 1 113 5 view .LVU201
 650              	.LBB49:
 651              		.loc 1 113 23 view .LVU202
 114:src/Ramo.cpp  ****     {
 115:src/Ramo.cpp  ****         _phase_inc[i] = CalcPhaseInc(_freq) * ef[i];
 652              		.loc 1 115 9 view .LVU203
 653              	.LBB50:
 654              	.LBI50:
  88:src/Ramo.cpp  **** {
 655              		.loc 1 88 7 view .LVU204
 656              	.LBB51:
  90:src/Ramo.cpp  **** }
 657              		.loc 1 90 5 view .LVU205
  90:src/Ramo.cpp  **** }
 658              		.loc 1 90 16 is_stmt 0 view .LVU206
 659 0000 D0ED037A 		vldr.32	s15, [r0, #12]
 660 0004 D0ED096A 		vldr.32	s13, [r0, #36]
 661              	.LBE51:
 662              	.LBE50:
 663              		.loc 1 115 45 view .LVU207
 664 0008 91ED007A 		vldr.32	s14, [r1]
 665              	.LBB54:
 666              	.LBB52:
  90:src/Ramo.cpp  **** }
 667              		.loc 1 90 16 view .LVU208
 668 000c 67EEA67A 		vmul.f32	s15, s15, s13
 669              	.LVL25:
  90:src/Ramo.cpp  **** }
 670              		.loc 1 90 16 view .LVU209
 671              	.LBE52:
 672              	.LBE54:
 673              		.loc 1 115 45 view .LVU210
 674 0010 27EE277A 		vmul.f32	s14, s14, s15
 675              		.loc 1 115 23 view .LVU211
 676 0014 80ED0C7A 		vstr.32	s14, [r0, #48]
 113:src/Ramo.cpp  ****     {
 677              		.loc 1 113 5 is_stmt 1 view .LVU212
 678              	.LVL26:
 113:src/Ramo.cpp  ****     {
 679              		.loc 1 113 23 view .LVU213
 680              		.loc 1 115 9 view .LVU214
 681              	.LBB55:
  88:src/Ramo.cpp  **** {
 682              		.loc 1 88 7 view .LVU215
 683              	.LBB53:
  90:src/Ramo.cpp  **** }
 684              		.loc 1 90 5 view .LVU216
  90:src/Ramo.cpp  **** }
 685              		.loc 1 90 5 is_stmt 0 view .LVU217
ARM GAS  C:\Users\skipi\AppData\Local\Temp\ccYIdhXu.s 			page 19


 686              	.LBE53:
 687              	.LBE55:
 688              		.loc 1 115 45 view .LVU218
 689 0018 91ED017A 		vldr.32	s14, [r1, #4]
 690 001c 67EE277A 		vmul.f32	s15, s14, s15
 691              		.loc 1 115 23 view .LVU219
 692 0020 C0ED0D7A 		vstr.32	s15, [r0, #52]
 113:src/Ramo.cpp  ****     {
 693              		.loc 1 113 5 is_stmt 1 view .LVU220
 694              	.LVL27:
 113:src/Ramo.cpp  ****     {
 695              		.loc 1 113 23 view .LVU221
 696              	.LBE49:
 116:src/Ramo.cpp  ****     }
 117:src/Ramo.cpp  **** }
 697              		.loc 1 117 1 is_stmt 0 view .LVU222
 698 0024 7047     		bx	lr
 699              		.cfi_endproc
 700              	.LFE4825:
 702 0026 00BF     		.section	.text._ZN4Ramo6SetAmpEPf,"ax",%progbits
 703              		.align	1
 704              		.p2align 2,,3
 705              		.global	_ZN4Ramo6SetAmpEPf
 706              		.syntax unified
 707              		.thumb
 708              		.thumb_func
 709              		.fpu fpv5-d16
 711              	_ZN4Ramo6SetAmpEPf:
 712              	.LVL28:
 713              	.LFB4826:
 118:src/Ramo.cpp  **** 
 119:src/Ramo.cpp  **** 
 120:src/Ramo.cpp  **** 
 121:src/Ramo.cpp  **** 
 122:src/Ramo.cpp  **** void Ramo::SetAmp(float g[])
 123:src/Ramo.cpp  **** {
 714              		.loc 1 123 1 is_stmt 1 view -0
 715              		.cfi_startproc
 716              		@ args = 0, pretend = 0, frame = 0
 717              		@ frame_needed = 0, uses_anonymous_args = 0
 718              		@ link register save eliminated.
 124:src/Ramo.cpp  ****     for (int i = 0; i < n; i++)
 719              		.loc 1 124 5 view .LVU224
 720              	.LBB56:
 721              		.loc 1 124 23 view .LVU225
 125:src/Ramo.cpp  ****     {
 126:src/Ramo.cpp  ****         _amp[i] = g[i];
 722              		.loc 1 126 9 view .LVU226
 723              		.loc 1 126 22 is_stmt 0 view .LVU227
 724 0000 0B68     		ldr	r3, [r1]	@ float
 725              		.loc 1 126 17 view .LVU228
 726 0002 4360     		str	r3, [r0, #4]	@ float
 124:src/Ramo.cpp  ****     for (int i = 0; i < n; i++)
 727              		.loc 1 124 5 is_stmt 1 view .LVU229
 728              	.LVL29:
 124:src/Ramo.cpp  ****     for (int i = 0; i < n; i++)
 729              		.loc 1 124 23 view .LVU230
ARM GAS  C:\Users\skipi\AppData\Local\Temp\ccYIdhXu.s 			page 20


 730              		.loc 1 126 9 view .LVU231
 731              		.loc 1 126 22 is_stmt 0 view .LVU232
 732 0004 4B68     		ldr	r3, [r1, #4]	@ float
 733              		.loc 1 126 17 view .LVU233
 734 0006 8360     		str	r3, [r0, #8]	@ float
 124:src/Ramo.cpp  ****     for (int i = 0; i < n; i++)
 735              		.loc 1 124 5 is_stmt 1 view .LVU234
 736              	.LVL30:
 124:src/Ramo.cpp  ****     for (int i = 0; i < n; i++)
 737              		.loc 1 124 23 view .LVU235
 738              	.LBE56:
 127:src/Ramo.cpp  ****     }
 128:src/Ramo.cpp  **** }
 739              		.loc 1 128 1 is_stmt 0 view .LVU236
 740 0008 7047     		bx	lr
 741              		.cfi_endproc
 742              	.LFE4826:
 744 000a 00BF     		.section	.text._ZN4Ramo8SetShapeEf,"ax",%progbits
 745              		.align	1
 746              		.p2align 2,,3
 747              		.global	_ZN4Ramo8SetShapeEf
 748              		.syntax unified
 749              		.thumb
 750              		.thumb_func
 751              		.fpu fpv5-d16
 753              	_ZN4Ramo8SetShapeEf:
 754              	.LVL31:
 755              	.LFB4827:
 129:src/Ramo.cpp  **** 
 130:src/Ramo.cpp  **** void Ramo::SetShape(float s)
 131:src/Ramo.cpp  **** {
 756              		.loc 1 131 1 is_stmt 1 view -0
 757              		.cfi_startproc
 758              		@ args = 0, pretend = 0, frame = 0
 759              		@ frame_needed = 0, uses_anonymous_args = 0
 760              		@ link register save eliminated.
 132:src/Ramo.cpp  ****     _shape = s * DC_MAX;
 761              		.loc 1 132 5 view .LVU238
 762              		.loc 1 132 14 is_stmt 0 view .LVU239
 763 0000 B7EEC00A 		vcvt.f64.f32	d0, s0
 764              	.LVL32:
 133:src/Ramo.cpp  ****     _mshape = 0.5 - _shape;
 134:src/Ramo.cpp  ****     _correctorGain = 2 / (1 - 4 * _shape);
 765              		.loc 1 134 29 view .LVU240
 766 0004 B1EE004A 		vmov.f32	s8, #4.0e+0
 767 0008 F7EE005A 		vmov.f32	s11, #1.0e+0
 133:src/Ramo.cpp  ****     _mshape = 0.5 - _shape;
 768              		.loc 1 133 19 view .LVU241
 769 000c B6EE005A 		vmov.f32	s10, #5.0e-1
 770              		.loc 1 134 24 view .LVU242
 771 0010 F0EE004A 		vmov.f32	s9, #2.0e+0
 135:src/Ramo.cpp  ****     _pw =0.05 +  s*0.75;
 772              		.loc 1 135 15 view .LVU243
 773 0014 B6EE083B 		vmov.f64	d3, #7.5e-1
 132:src/Ramo.cpp  ****     _shape = s * DC_MAX;
 774              		.loc 1 132 16 view .LVU244
 775 0018 9FED0D7B 		vldr.64	d7, .L48
ARM GAS  C:\Users\skipi\AppData\Local\Temp\ccYIdhXu.s 			page 21


 776              		.loc 1 135 15 view .LVU245
 777 001c 9FED0E6B 		vldr.64	d6, .L48+8
 132:src/Ramo.cpp  ****     _shape = s * DC_MAX;
 778              		.loc 1 132 16 view .LVU246
 779 0020 20EE077B 		vmul.f64	d7, d0, d7
 780              		.loc 1 135 15 view .LVU247
 781 0024 A0EE036B 		vfma.f64	d6, d0, d3
 132:src/Ramo.cpp  ****     _shape = s * DC_MAX;
 782              		.loc 1 132 16 view .LVU248
 783 0028 B7EEC77B 		vcvt.f32.f64	s14, d7
 134:src/Ramo.cpp  ****     _pw =0.05 +  s*0.75;
 784              		.loc 1 134 29 view .LVU249
 785 002c E7EE445A 		vfms.f32	s11, s14, s8
 132:src/Ramo.cpp  ****     _mshape = 0.5 - _shape;
 786              		.loc 1 132 12 view .LVU250
 787 0030 80ED057A 		vstr.32	s14, [r0, #20]
 133:src/Ramo.cpp  ****     _correctorGain = 2 / (1 - 4 * _shape);
 788              		.loc 1 133 5 is_stmt 1 view .LVU251
 133:src/Ramo.cpp  ****     _correctorGain = 2 / (1 - 4 * _shape);
 789              		.loc 1 133 19 is_stmt 0 view .LVU252
 790 0034 75EE477A 		vsub.f32	s15, s10, s14
 791              		.loc 1 135 15 view .LVU253
 792 0038 B7EEC66B 		vcvt.f32.f64	s12, d6
 133:src/Ramo.cpp  ****     _correctorGain = 2 / (1 - 4 * _shape);
 793              		.loc 1 133 13 view .LVU254
 794 003c C0ED067A 		vstr.32	s15, [r0, #24]
 134:src/Ramo.cpp  ****     _pw =0.05 +  s*0.75;
 795              		.loc 1 134 5 is_stmt 1 view .LVU255
 134:src/Ramo.cpp  ****     _pw =0.05 +  s*0.75;
 796              		.loc 1 134 24 is_stmt 0 view .LVU256
 797 0040 C4EEA57A 		vdiv.f32	s15, s9, s11
 798              		.loc 1 135 15 view .LVU257
 799 0044 80ED046A 		vstr.32	s12, [r0, #16]
 134:src/Ramo.cpp  ****     _pw =0.05 +  s*0.75;
 800              		.loc 1 134 20 view .LVU258
 801 0048 C0ED077A 		vstr.32	s15, [r0, #28]
 802              		.loc 1 135 5 is_stmt 1 view .LVU259
 136:src/Ramo.cpp  **** }
 803              		.loc 1 136 1 is_stmt 0 view .LVU260
 804 004c 7047     		bx	lr
 805              	.L49:
 806 004e 00BF     		.align	3
 807              	.L48:
 808 0050 9A999999 		.word	-1717986918
 809 0054 9999C93F 		.word	1070176665
 810 0058 9A999999 		.word	-1717986918
 811 005c 9999A93F 		.word	1068079513
 812              		.cfi_endproc
 813              	.LFE4827:
 815              		.text
 816              	.Letext0:
 817              		.file 3 "c:\\program files\\daisytoolchain\\arm-none-eabi\\include\\machine\\_default_types.h"
 818              		.file 4 "c:\\program files\\daisytoolchain\\arm-none-eabi\\include\\sys\\_stdint.h"
 819              		.file 5 "c:\\program files\\daisytoolchain\\arm-none-eabi\\include\\stdint.h"
 820              		.file 6 "c:\\program files\\daisytoolchain\\lib\\gcc\\arm-none-eabi\\10.2.1\\include\\stddef.h"
 821              		.file 7 "c:\\program files\\daisytoolchain\\arm-none-eabi\\include\\c++\\10.2.1\\cmath"
 822              		.file 8 "c:\\program files\\daisytoolchain\\arm-none-eabi\\include\\c++\\10.2.1\\cstdint"
ARM GAS  C:\Users\skipi\AppData\Local\Temp\ccYIdhXu.s 			page 22


 823              		.file 9 "c:\\program files\\daisytoolchain\\arm-none-eabi\\include\\c++\\10.2.1\\cstdlib"
 824              		.file 10 "c:\\program files\\daisytoolchain\\arm-none-eabi\\include\\c++\\10.2.1\\type_traits"
 825              		.file 11 "c:\\program files\\daisytoolchain\\arm-none-eabi\\include\\c++\\10.2.1\\debug\\debug.h"
 826              		.file 12 "c:\\program files\\daisytoolchain\\arm-none-eabi\\include\\c++\\10.2.1\\cwchar"
 827              		.file 13 "c:\\program files\\daisytoolchain\\arm-none-eabi\\include\\c++\\10.2.1\\bits\\stl_pair.h
 828              		.file 14 "c:\\program files\\daisytoolchain\\arm-none-eabi\\include\\c++\\10.2.1\\bits\\exception_
 829              		.file 15 "c:\\program files\\daisytoolchain\\arm-none-eabi\\include\\c++\\10.2.1\\arm-none-eabi\\t
 830              		.file 16 "c:\\program files\\daisytoolchain\\arm-none-eabi\\include\\c++\\10.2.1\\clocale"
 831              		.file 17 "c:\\program files\\daisytoolchain\\arm-none-eabi\\include\\c++\\10.2.1\\cstdio"
 832              		.file 18 "c:\\program files\\daisytoolchain\\arm-none-eabi\\include\\c++\\10.2.1\\bits\\basic_stri
 833              		.file 19 "c:\\program files\\daisytoolchain\\arm-none-eabi\\include\\c++\\10.2.1\\bits\\charconv.h
 834              		.file 20 "c:\\program files\\daisytoolchain\\arm-none-eabi\\include\\c++\\10.2.1\\bits\\algorithmf
 835              		.file 21 "c:\\program files\\daisytoolchain\\arm-none-eabi\\include\\c++\\10.2.1\\cstring"
 836              		.file 22 "c:\\program files\\daisytoolchain\\arm-none-eabi\\include\\c++\\10.2.1\\cstdarg"
 837              		.file 23 "c:\\program files\\daisytoolchain\\arm-none-eabi\\include\\c++\\10.2.1\\bits\\predefined
 838              		.file 24 "c:\\program files\\daisytoolchain\\arm-none-eabi\\include\\sys\\_types.h"
 839              		.file 25 "c:\\program files\\daisytoolchain\\arm-none-eabi\\include\\sys\\reent.h"
 840              		.file 26 "c:\\program files\\daisytoolchain\\arm-none-eabi\\include\\sys\\lock.h"
 841              		.file 27 "c:\\program files\\daisytoolchain\\arm-none-eabi\\include\\math.h"
 842              		.file 28 "c:\\program files\\daisytoolchain\\arm-none-eabi\\include\\stdlib.h"
 843              		.file 29 "c:\\program files\\daisytoolchain\\arm-none-eabi\\include\\c++\\10.2.1\\math.h"
 844              		.file 30 "../../libs/DaisySP/Source/Control/adenv.h"
 845              		.file 31 "../../libs/DaisySP/Source/Utility/dsp.h"
 846              		.file 32 "c:\\program files\\daisytoolchain\\lib\\gcc\\arm-none-eabi\\10.2.1\\include\\stdarg.h"
 847              		.file 33 "c:\\program files\\daisytoolchain\\arm-none-eabi\\include\\wchar.h"
 848              		.file 34 "c:\\program files\\daisytoolchain\\arm-none-eabi\\include\\locale.h"
 849              		.file 35 "c:\\program files\\daisytoolchain\\arm-none-eabi\\include\\stdio.h"
 850              		.file 36 "c:\\program files\\daisytoolchain\\arm-none-eabi\\include\\c++\\10.2.1\\stdlib.h"
 851              		.file 37 "c:\\program files\\daisytoolchain\\arm-none-eabi\\include\\string.h"
 852              		.file 38 "../../libs/libDaisy/src/daisy_core.h"
 853              		.file 39 "../../libs/libDaisy/src/util/wav_format.h"
 854              		.file 40 "../../libs/libDaisy/src/dev/sr_595.h"
 855              		.file 41 "../../libs/libDaisy/src/dev/max11300.h"
 856              		.file 42 "../../libs/libDaisy/src/daisy_seed.h"
 857              		.file 43 "src/Ramo.h"
 858              		.file 44 "<built-in>"
ARM GAS  C:\Users\skipi\AppData\Local\Temp\ccYIdhXu.s 			page 23

