ARM GAS  C:\Users\skipi\AppData\Local\Temp\ccM9ipiF.s 			page 1


   1              		.cpu cortex-m7
   2              		.eabi_attribute 28, 1
   3              		.eabi_attribute 20, 1
   4              		.eabi_attribute 21, 1
   5              		.eabi_attribute 23, 3
   6              		.eabi_attribute 24, 1
   7              		.eabi_attribute 25, 1
   8              		.eabi_attribute 26, 1
   9              		.eabi_attribute 30, 2
  10              		.eabi_attribute 34, 1
  11              		.eabi_attribute 18, 4
  12              		.file	"main.cpp"
  13              		.text
  14              	.Ltext0:
  15              		.cfi_sections	.debug_frame
  16              		.section	.text._ZN5daisy9DaisySeedD2Ev,"axG",%progbits,_ZN5daisy9DaisySeedD5Ev,comdat
  17              		.align	1
  18              		.p2align 2,,3
  19              		.weak	_ZN5daisy9DaisySeedD2Ev
  20              		.arch armv7e-m
  21              		.syntax unified
  22              		.thumb
  23              		.thumb_func
  24              		.fpu fpv5-d16
  26              	_ZN5daisy9DaisySeedD2Ev:
  27              	.LVL0:
  28              	.LFB2645:
  29              		.file 1 "../../libs/libDaisy/src/daisy_seed.h"
   1:../../libs/libDaisy/src/daisy_seed.h **** #pragma once
   2:../../libs/libDaisy/src/daisy_seed.h **** #ifndef DSY_SEED_H
   3:../../libs/libDaisy/src/daisy_seed.h **** #define DSY_SEED_H
   4:../../libs/libDaisy/src/daisy_seed.h **** 
   5:../../libs/libDaisy/src/daisy_seed.h **** #include "daisy.h"
   6:../../libs/libDaisy/src/daisy_seed.h **** 
   7:../../libs/libDaisy/src/daisy_seed.h **** //Uncomment this out if you're still using the rev2 hardware
   8:../../libs/libDaisy/src/daisy_seed.h **** //#define SEED_REV2
   9:../../libs/libDaisy/src/daisy_seed.h **** 
  10:../../libs/libDaisy/src/daisy_seed.h **** namespace daisy
  11:../../libs/libDaisy/src/daisy_seed.h **** {
  12:../../libs/libDaisy/src/daisy_seed.h **** /**
  13:../../libs/libDaisy/src/daisy_seed.h ****    @brief This is the higher-level interface for the Daisy board. \n 
  14:../../libs/libDaisy/src/daisy_seed.h ****     All basic peripheral configuration/initialization is setup here. \n
  15:../../libs/libDaisy/src/daisy_seed.h **** 
  16:../../libs/libDaisy/src/daisy_seed.h ****    @ingroup boards
  17:../../libs/libDaisy/src/daisy_seed.h **** */
  18:../../libs/libDaisy/src/daisy_seed.h **** class DaisySeed
  19:../../libs/libDaisy/src/daisy_seed.h **** {
  20:../../libs/libDaisy/src/daisy_seed.h ****   public:
  21:../../libs/libDaisy/src/daisy_seed.h ****     DaisySeed() {}
  22:../../libs/libDaisy/src/daisy_seed.h ****     ~DaisySeed() {}
  30              		.loc 1 22 5 view -0
  31              		.cfi_startproc
  32              		@ args = 0, pretend = 0, frame = 0
  33              		@ frame_needed = 0, uses_anonymous_args = 0
  34              		@ link register save eliminated.
  35              	.LBB344:
  36              	.LBI344:
ARM GAS  C:\Users\skipi\AppData\Local\Temp\ccM9ipiF.s 			page 2


  37              		.file 2 "../../libs/libDaisy/src/dev/codec_ak4556.h"
   1:../../libs/libDaisy/src/dev/codec_ak4556.h **** #pragma once
   2:../../libs/libDaisy/src/dev/codec_ak4556.h **** #ifndef DSY_CODEC_AK4556_H
   3:../../libs/libDaisy/src/dev/codec_ak4556.h **** #define DSY_CODEC_AK4556_H
   4:../../libs/libDaisy/src/dev/codec_ak4556.h **** 
   5:../../libs/libDaisy/src/dev/codec_ak4556.h **** #include "daisy_core.h"
   6:../../libs/libDaisy/src/dev/codec_ak4556.h **** #include "per/gpio.h"
   7:../../libs/libDaisy/src/dev/codec_ak4556.h **** 
   8:../../libs/libDaisy/src/dev/codec_ak4556.h **** namespace daisy
   9:../../libs/libDaisy/src/dev/codec_ak4556.h **** {
  10:../../libs/libDaisy/src/dev/codec_ak4556.h **** /** @brief Ak4556 Codec support 
  11:../../libs/libDaisy/src/dev/codec_ak4556.h ****  ** @author shensley
  12:../../libs/libDaisy/src/dev/codec_ak4556.h ****  ** @addtogroup codec
  13:../../libs/libDaisy/src/dev/codec_ak4556.h ****  ** 
  14:../../libs/libDaisy/src/dev/codec_ak4556.h ****  ** I don't see any real reason to have this be more than a function, but in case we want
  15:../../libs/libDaisy/src/dev/codec_ak4556.h ****  ** to add other functions down the road I wrapped the function in a class.
  16:../../libs/libDaisy/src/dev/codec_ak4556.h ****  ***/
  17:../../libs/libDaisy/src/dev/codec_ak4556.h **** class Ak4556
  18:../../libs/libDaisy/src/dev/codec_ak4556.h **** {
  19:../../libs/libDaisy/src/dev/codec_ak4556.h ****   public:
  20:../../libs/libDaisy/src/dev/codec_ak4556.h ****     Ak4556() {}
  21:../../libs/libDaisy/src/dev/codec_ak4556.h ****     ~Ak4556() {}
  38              		.loc 2 21 5 view .LVU1
  39              		.loc 2 21 5 is_stmt 0 view .LVU2
  40              	.LBE344:
  41              	.LBB345:
  42              	.LBI345:
  43              		.file 3 "../../libs/libDaisy/src/sys/system.h"
   1:../../libs/libDaisy/src/sys/system.h **** #ifndef DSY_SYSTEM_H
   2:../../libs/libDaisy/src/sys/system.h **** #define DSY_SYSTEM_H
   3:../../libs/libDaisy/src/sys/system.h **** 
   4:../../libs/libDaisy/src/sys/system.h **** #ifndef UNIT_TEST // for unit tests, a dummy implementation is provided below
   5:../../libs/libDaisy/src/sys/system.h **** 
   6:../../libs/libDaisy/src/sys/system.h **** #include <cstdint>
   7:../../libs/libDaisy/src/sys/system.h **** #include "per/tim.h"
   8:../../libs/libDaisy/src/sys/system.h **** 
   9:../../libs/libDaisy/src/sys/system.h **** namespace daisy
  10:../../libs/libDaisy/src/sys/system.h **** {
  11:../../libs/libDaisy/src/sys/system.h **** /** A handle for interacting with the Core System.
  12:../../libs/libDaisy/src/sys/system.h ****  ** This includes the Clock tree, MPU, global DMA initialization,
  13:../../libs/libDaisy/src/sys/system.h ****  ** cache handling, and any other necessary global initiailzation
  14:../../libs/libDaisy/src/sys/system.h ****  **
  15:../../libs/libDaisy/src/sys/system.h ****  ** @author shensley
  16:../../libs/libDaisy/src/sys/system.h ****  ** @ingroup system
  17:../../libs/libDaisy/src/sys/system.h ****  */
  18:../../libs/libDaisy/src/sys/system.h **** class System
  19:../../libs/libDaisy/src/sys/system.h **** {
  20:../../libs/libDaisy/src/sys/system.h ****   public:
  21:../../libs/libDaisy/src/sys/system.h ****     /** Contains settings for initializing the System */
  22:../../libs/libDaisy/src/sys/system.h ****     struct Config
  23:../../libs/libDaisy/src/sys/system.h ****     {
  24:../../libs/libDaisy/src/sys/system.h ****         /** Specifies the system clock frequency that feeds APB/AHB clocks, etc. */
  25:../../libs/libDaisy/src/sys/system.h ****         enum class SysClkFreq
  26:../../libs/libDaisy/src/sys/system.h ****         {
  27:../../libs/libDaisy/src/sys/system.h ****             FREQ_400MHZ,
  28:../../libs/libDaisy/src/sys/system.h ****             FREQ_480MHZ,
  29:../../libs/libDaisy/src/sys/system.h ****         };
ARM GAS  C:\Users\skipi\AppData\Local\Temp\ccM9ipiF.s 			page 3


  30:../../libs/libDaisy/src/sys/system.h **** 
  31:../../libs/libDaisy/src/sys/system.h ****         /** Method to call on the struct to set to defaults
  32:../../libs/libDaisy/src/sys/system.h ****          ** CPU Freq set to 400MHz
  33:../../libs/libDaisy/src/sys/system.h ****          ** Cache Enabled
  34:../../libs/libDaisy/src/sys/system.h ****          ** */
  35:../../libs/libDaisy/src/sys/system.h ****         void Defaults()
  36:../../libs/libDaisy/src/sys/system.h ****         {
  37:../../libs/libDaisy/src/sys/system.h ****             cpu_freq    = SysClkFreq::FREQ_400MHZ;
  38:../../libs/libDaisy/src/sys/system.h ****             use_dcache  = true;
  39:../../libs/libDaisy/src/sys/system.h ****             use_icache  = true;
  40:../../libs/libDaisy/src/sys/system.h ****             skip_clocks = false;
  41:../../libs/libDaisy/src/sys/system.h ****         }
  42:../../libs/libDaisy/src/sys/system.h **** 
  43:../../libs/libDaisy/src/sys/system.h ****         /** Method to call on the struct to set to boost mode:
  44:../../libs/libDaisy/src/sys/system.h ****          ** CPU Freq set to 480MHz
  45:../../libs/libDaisy/src/sys/system.h ****          ** Cache Enabled
  46:../../libs/libDaisy/src/sys/system.h ****          ** */
  47:../../libs/libDaisy/src/sys/system.h ****         void Boost()
  48:../../libs/libDaisy/src/sys/system.h ****         {
  49:../../libs/libDaisy/src/sys/system.h ****             cpu_freq    = SysClkFreq::FREQ_480MHZ;
  50:../../libs/libDaisy/src/sys/system.h ****             use_dcache  = true;
  51:../../libs/libDaisy/src/sys/system.h ****             use_icache  = true;
  52:../../libs/libDaisy/src/sys/system.h ****             skip_clocks = false;
  53:../../libs/libDaisy/src/sys/system.h ****         }
  54:../../libs/libDaisy/src/sys/system.h **** 
  55:../../libs/libDaisy/src/sys/system.h ****         SysClkFreq cpu_freq;
  56:../../libs/libDaisy/src/sys/system.h ****         bool       use_dcache;
  57:../../libs/libDaisy/src/sys/system.h ****         bool       use_icache;
  58:../../libs/libDaisy/src/sys/system.h ****         bool       skip_clocks;
  59:../../libs/libDaisy/src/sys/system.h ****     };
  60:../../libs/libDaisy/src/sys/system.h **** 
  61:../../libs/libDaisy/src/sys/system.h ****     /** Describes the different regions of memory available to the Daisy */
  62:../../libs/libDaisy/src/sys/system.h ****     enum MemoryRegion
  63:../../libs/libDaisy/src/sys/system.h ****     {
  64:../../libs/libDaisy/src/sys/system.h ****         INTERNAL_FLASH = 0,
  65:../../libs/libDaisy/src/sys/system.h ****         ITCMRAM,
  66:../../libs/libDaisy/src/sys/system.h ****         DTCMRAM,
  67:../../libs/libDaisy/src/sys/system.h ****         SRAM_D1,
  68:../../libs/libDaisy/src/sys/system.h ****         SRAM_D2,
  69:../../libs/libDaisy/src/sys/system.h ****         SRAM_D3,
  70:../../libs/libDaisy/src/sys/system.h ****         SDRAM,
  71:../../libs/libDaisy/src/sys/system.h ****         QSPI,
  72:../../libs/libDaisy/src/sys/system.h ****         INVALID_ADDRESS,
  73:../../libs/libDaisy/src/sys/system.h ****     };
  74:../../libs/libDaisy/src/sys/system.h **** 
  75:../../libs/libDaisy/src/sys/system.h ****     /** Bootloader struct for controlling bootloading parameters */
  76:../../libs/libDaisy/src/sys/system.h ****     struct BootInfo
  77:../../libs/libDaisy/src/sys/system.h ****     {
  78:../../libs/libDaisy/src/sys/system.h ****         enum class Type : uint32_t
  79:../../libs/libDaisy/src/sys/system.h ****         {
  80:../../libs/libDaisy/src/sys/system.h ****             INVALID      = 0x00000000,
  81:../../libs/libDaisy/src/sys/system.h ****             JUMP         = 0xDEADBEEF,
  82:../../libs/libDaisy/src/sys/system.h ****             SKIP_TIMEOUT = 0x5AFEB007,
  83:../../libs/libDaisy/src/sys/system.h ****             INF_TIMEOUT  = 0xB0074EFA,
  84:../../libs/libDaisy/src/sys/system.h ****         } status;
  85:../../libs/libDaisy/src/sys/system.h ****         uint32_t data;
  86:../../libs/libDaisy/src/sys/system.h ****         enum class Version : uint32_t
ARM GAS  C:\Users\skipi\AppData\Local\Temp\ccM9ipiF.s 			page 4


  87:../../libs/libDaisy/src/sys/system.h ****         {
  88:../../libs/libDaisy/src/sys/system.h ****             LT_v6_0 = 0, // Less than v6.0
  89:../../libs/libDaisy/src/sys/system.h ****             NONE,        // No bootloader present
  90:../../libs/libDaisy/src/sys/system.h ****             v6_0,        // v6.0
  91:../../libs/libDaisy/src/sys/system.h ****             v6_1,        // v6.1 or greater
  92:../../libs/libDaisy/src/sys/system.h ****             LAST
  93:../../libs/libDaisy/src/sys/system.h ****         } version;
  94:../../libs/libDaisy/src/sys/system.h ****     };
  95:../../libs/libDaisy/src/sys/system.h **** 
  96:../../libs/libDaisy/src/sys/system.h ****     System() {}
  97:../../libs/libDaisy/src/sys/system.h ****     ~System() {}
  44              		.loc 3 97 5 is_stmt 1 view .LVU3
  45              		.loc 3 97 5 is_stmt 0 view .LVU4
  46              	.LBE345:
  47              	.LBB346:
  48              	.LBI346:
  49              		.file 4 "../../libs/libDaisy/src/hid/usb.h"
   1:../../libs/libDaisy/src/hid/usb.h **** #pragma once
   2:../../libs/libDaisy/src/hid/usb.h **** #ifndef DSY_HID_USB_H
   3:../../libs/libDaisy/src/hid/usb.h **** #define DSY_HID_USB_H
   4:../../libs/libDaisy/src/hid/usb.h **** #include <stdint.h>
   5:../../libs/libDaisy/src/hid/usb.h **** #include <stdlib.h>
   6:../../libs/libDaisy/src/hid/usb.h **** 
   7:../../libs/libDaisy/src/hid/usb.h **** namespace daisy
   8:../../libs/libDaisy/src/hid/usb.h **** /** @addtogroup human_interface
   9:../../libs/libDaisy/src/hid/usb.h ****     @{
  10:../../libs/libDaisy/src/hid/usb.h **** */
  11:../../libs/libDaisy/src/hid/usb.h **** 
  12:../../libs/libDaisy/src/hid/usb.h **** {
  13:../../libs/libDaisy/src/hid/usb.h **** /** 
  14:../../libs/libDaisy/src/hid/usb.h ****     @brief Interface for initializing and using the USB Peripherals on the daisy
  15:../../libs/libDaisy/src/hid/usb.h ****     @author Stephen Hensley
  16:../../libs/libDaisy/src/hid/usb.h ****     @date December 2019
  17:../../libs/libDaisy/src/hid/usb.h **** */
  18:../../libs/libDaisy/src/hid/usb.h **** class UsbHandle
  19:../../libs/libDaisy/src/hid/usb.h **** {
  20:../../libs/libDaisy/src/hid/usb.h ****   public:
  21:../../libs/libDaisy/src/hid/usb.h ****     /** Return values for USBHandle Functions */
  22:../../libs/libDaisy/src/hid/usb.h ****     enum class Result
  23:../../libs/libDaisy/src/hid/usb.h ****     {
  24:../../libs/libDaisy/src/hid/usb.h ****         OK,
  25:../../libs/libDaisy/src/hid/usb.h ****         ERR,
  26:../../libs/libDaisy/src/hid/usb.h ****     };
  27:../../libs/libDaisy/src/hid/usb.h **** 
  28:../../libs/libDaisy/src/hid/usb.h ****     /** Specified which of the two USB Peripherals to initialize. */
  29:../../libs/libDaisy/src/hid/usb.h ****     enum UsbPeriph
  30:../../libs/libDaisy/src/hid/usb.h ****     {
  31:../../libs/libDaisy/src/hid/usb.h ****         FS_INTERNAL, /**< Internal pin */
  32:../../libs/libDaisy/src/hid/usb.h ****         FS_EXTERNAL, /**< FS External D+ pin is Pin 38 (GPIO32). FS External D- pin is Pin 37 (GPIO
  33:../../libs/libDaisy/src/hid/usb.h ****         FS_BOTH,     /**< Both */
  34:../../libs/libDaisy/src/hid/usb.h ****     };
  35:../../libs/libDaisy/src/hid/usb.h **** 
  36:../../libs/libDaisy/src/hid/usb.h **** 
  37:../../libs/libDaisy/src/hid/usb.h ****     /** Function called upon reception of a buffer */
  38:../../libs/libDaisy/src/hid/usb.h ****     typedef void (*ReceiveCallback)(uint8_t* buff, uint32_t* len);
  39:../../libs/libDaisy/src/hid/usb.h **** 
  40:../../libs/libDaisy/src/hid/usb.h ****     UsbHandle() {}
ARM GAS  C:\Users\skipi\AppData\Local\Temp\ccM9ipiF.s 			page 5


  41:../../libs/libDaisy/src/hid/usb.h **** 
  42:../../libs/libDaisy/src/hid/usb.h ****     ~UsbHandle() {}
  50              		.loc 4 42 5 is_stmt 1 view .LVU5
  51              		.loc 4 42 5 is_stmt 0 view .LVU6
  52              	.LBE346:
  53              	.LBB347:
  54              	.LBI347:
  55              		.file 5 "../../libs/libDaisy/src/per/adc.h"
   1:../../libs/libDaisy/src/per/adc.h **** #pragma once
   2:../../libs/libDaisy/src/per/adc.h **** #ifndef DSY_ADC_H
   3:../../libs/libDaisy/src/per/adc.h **** #define DSY_ADC_H /**< Macro */
   4:../../libs/libDaisy/src/per/adc.h **** #include <stdint.h>
   5:../../libs/libDaisy/src/per/adc.h **** #include <stdlib.h>
   6:../../libs/libDaisy/src/per/adc.h **** #include "daisy_core.h"
   7:../../libs/libDaisy/src/per/adc.h **** #include "per/gpio.h"
   8:../../libs/libDaisy/src/per/adc.h **** 
   9:../../libs/libDaisy/src/per/adc.h **** #define DSY_ADC_MAX_CHANNELS 16 /**< Maximum number of ADC channels */
  10:../../libs/libDaisy/src/per/adc.h **** 
  11:../../libs/libDaisy/src/per/adc.h **** namespace daisy
  12:../../libs/libDaisy/src/per/adc.h **** {
  13:../../libs/libDaisy/src/per/adc.h **** /** @addtogroup per_analog
  14:../../libs/libDaisy/src/per/adc.h ****     @{
  15:../../libs/libDaisy/src/per/adc.h **** */
  16:../../libs/libDaisy/src/per/adc.h **** 
  17:../../libs/libDaisy/src/per/adc.h **** /* While there may not be many configuration options here,
  18:../../libs/libDaisy/src/per/adc.h **** using a struct like this allows us to add more configuration
  19:../../libs/libDaisy/src/per/adc.h **** later without breaking existing functionality.
  20:../../libs/libDaisy/src/per/adc.h **** */
  21:../../libs/libDaisy/src/per/adc.h **** 
  22:../../libs/libDaisy/src/per/adc.h **** /** @brief   Configuration Structure for an ADC Channel 
  23:../../libs/libDaisy/src/per/adc.h ****  *  @details This can be used to configure a a single input, 
  24:../../libs/libDaisy/src/per/adc.h ****  *           or a multiplexed input, allowing up to 8 inputs on 
  25:../../libs/libDaisy/src/per/adc.h ****  *           one channel.
  26:../../libs/libDaisy/src/per/adc.h ****  *  @note    Sharing data lines to multiple muxes _is_ possible, but
  27:../../libs/libDaisy/src/per/adc.h ****  *           each channel sharing data lines must be set to the maximum
  28:../../libs/libDaisy/src/per/adc.h ****  *           number of channels, even if some multiplexers have fewer
  29:../../libs/libDaisy/src/per/adc.h ****  *           inputs connected.
  30:../../libs/libDaisy/src/per/adc.h **** */
  31:../../libs/libDaisy/src/per/adc.h **** struct AdcChannelConfig
  32:../../libs/libDaisy/src/per/adc.h **** {
  33:../../libs/libDaisy/src/per/adc.h ****     /** Which pin to use for multiplexing */
  34:../../libs/libDaisy/src/per/adc.h ****     enum MuxPin
  35:../../libs/libDaisy/src/per/adc.h ****     {
  36:../../libs/libDaisy/src/per/adc.h ****         MUX_SEL_0,    /**< & */
  37:../../libs/libDaisy/src/per/adc.h ****         MUX_SEL_1,    /**< & */
  38:../../libs/libDaisy/src/per/adc.h ****         MUX_SEL_2,    /**< & */
  39:../../libs/libDaisy/src/per/adc.h ****         MUX_SEL_LAST, /**< & */
  40:../../libs/libDaisy/src/per/adc.h ****     };
  41:../../libs/libDaisy/src/per/adc.h **** 
  42:../../libs/libDaisy/src/per/adc.h ****     /** \brief per channel conversion speed added to fixed time based on bitdepth, etc. */
  43:../../libs/libDaisy/src/per/adc.h ****     enum ConversionSpeed
  44:../../libs/libDaisy/src/per/adc.h ****     {
  45:../../libs/libDaisy/src/per/adc.h ****         SPEED_1CYCLES_5,
  46:../../libs/libDaisy/src/per/adc.h ****         SPEED_2CYCLES_5,
  47:../../libs/libDaisy/src/per/adc.h ****         SPEED_8CYCLES_5,
  48:../../libs/libDaisy/src/per/adc.h ****         SPEED_16CYCLES_5,
  49:../../libs/libDaisy/src/per/adc.h ****         SPEED_32CYCLES_5,
ARM GAS  C:\Users\skipi\AppData\Local\Temp\ccM9ipiF.s 			page 6


  50:../../libs/libDaisy/src/per/adc.h ****         SPEED_64CYCLES_5,
  51:../../libs/libDaisy/src/per/adc.h ****         SPEED_387CYCLES_5,
  52:../../libs/libDaisy/src/per/adc.h ****         SPEED_810CYCLES_5,
  53:../../libs/libDaisy/src/per/adc.h ****     };
  54:../../libs/libDaisy/src/per/adc.h **** 
  55:../../libs/libDaisy/src/per/adc.h ****     /** Initializes a single ADC pin as an ADC. 
  56:../../libs/libDaisy/src/per/adc.h ****     \param pin Pin to init.
  57:../../libs/libDaisy/src/per/adc.h ****     \param speed conversion speed for this pin defaults to 8.5 cycles
  58:../../libs/libDaisy/src/per/adc.h ****      */
  59:../../libs/libDaisy/src/per/adc.h ****     void InitSingle(Pin pin, ConversionSpeed speed = SPEED_8CYCLES_5);
  60:../../libs/libDaisy/src/per/adc.h **** 
  61:../../libs/libDaisy/src/per/adc.h ****     /** 
  62:../../libs/libDaisy/src/per/adc.h ****     Initializes a single ADC pin as a Multiplexed ADC.
  63:../../libs/libDaisy/src/per/adc.h ****     Requires a CD405X Multiplexer connected to the pin.
  64:../../libs/libDaisy/src/per/adc.h ****     You only need to supply the mux pins that are required,
  65:../../libs/libDaisy/src/per/adc.h ****     e.g. a 4052 mux would only require mux_0 and mux_1.
  66:../../libs/libDaisy/src/per/adc.h ****     Internal Callbacks handle the pin addressing.
  67:../../libs/libDaisy/src/per/adc.h ****     \param adc_pin &
  68:../../libs/libDaisy/src/per/adc.h ****     \param mux_channels must be 1-8
  69:../../libs/libDaisy/src/per/adc.h ****     \param mux_0 First mux pin
  70:../../libs/libDaisy/src/per/adc.h ****     \param mux_1 Second mux pin
  71:../../libs/libDaisy/src/per/adc.h ****     \param mux_2 Third mux pin
  72:../../libs/libDaisy/src/per/adc.h ****     \param speed conversion speed for this pin defaults to 8.5 cycles
  73:../../libs/libDaisy/src/per/adc.h ****     */
  74:../../libs/libDaisy/src/per/adc.h ****     void InitMux(Pin             adc_pin,
  75:../../libs/libDaisy/src/per/adc.h ****                  size_t          mux_channels,
  76:../../libs/libDaisy/src/per/adc.h ****                  Pin             mux_0,
  77:../../libs/libDaisy/src/per/adc.h ****                  Pin             mux_1 = Pin(PORTX, 0),
  78:../../libs/libDaisy/src/per/adc.h ****                  Pin             mux_2 = Pin(PORTX, 0),
  79:../../libs/libDaisy/src/per/adc.h ****                  ConversionSpeed speed = SPEED_8CYCLES_5);
  80:../../libs/libDaisy/src/per/adc.h **** 
  81:../../libs/libDaisy/src/per/adc.h ****     GPIO            pin_;                   /**< & */
  82:../../libs/libDaisy/src/per/adc.h ****     GPIO            mux_pin_[MUX_SEL_LAST]; /**< & */
  83:../../libs/libDaisy/src/per/adc.h ****     uint8_t         mux_channels_;          /**< & */
  84:../../libs/libDaisy/src/per/adc.h ****     ConversionSpeed speed_;
  85:../../libs/libDaisy/src/per/adc.h **** };
  86:../../libs/libDaisy/src/per/adc.h **** 
  87:../../libs/libDaisy/src/per/adc.h **** /**
  88:../../libs/libDaisy/src/per/adc.h ****    @brief Handler for analog to digital conversion
  89:../../libs/libDaisy/src/per/adc.h **** */
  90:../../libs/libDaisy/src/per/adc.h **** class AdcHandle
  91:../../libs/libDaisy/src/per/adc.h **** {
  92:../../libs/libDaisy/src/per/adc.h ****   public:
  93:../../libs/libDaisy/src/per/adc.h ****     /** Supported oversampling amounts */
  94:../../libs/libDaisy/src/per/adc.h ****     enum OverSampling
  95:../../libs/libDaisy/src/per/adc.h ****     {
  96:../../libs/libDaisy/src/per/adc.h ****         OVS_NONE, /**< & */
  97:../../libs/libDaisy/src/per/adc.h ****         OVS_4,    /**< & */
  98:../../libs/libDaisy/src/per/adc.h ****         OVS_8,    /**< & */
  99:../../libs/libDaisy/src/per/adc.h ****         OVS_16,   /**< & */
 100:../../libs/libDaisy/src/per/adc.h ****         OVS_32,   /**< & */
 101:../../libs/libDaisy/src/per/adc.h ****         OVS_64,   /**< & */
 102:../../libs/libDaisy/src/per/adc.h ****         OVS_128,  /**< & */
 103:../../libs/libDaisy/src/per/adc.h ****         OVS_256,  /**< & */
 104:../../libs/libDaisy/src/per/adc.h ****         OVS_512,  /**< & */
 105:../../libs/libDaisy/src/per/adc.h ****         OVS_1024, /**< & */
 106:../../libs/libDaisy/src/per/adc.h ****         OVS_LAST, /**< & */
ARM GAS  C:\Users\skipi\AppData\Local\Temp\ccM9ipiF.s 			page 7


 107:../../libs/libDaisy/src/per/adc.h ****     };
 108:../../libs/libDaisy/src/per/adc.h **** 
 109:../../libs/libDaisy/src/per/adc.h ****     AdcHandle() {}
 110:../../libs/libDaisy/src/per/adc.h ****     ~AdcHandle() {}
  56              		.loc 5 110 5 is_stmt 1 view .LVU7
  57              		.loc 5 110 5 is_stmt 0 view .LVU8
  58              	.LBE347:
  59              	.LBB348:
  60              	.LBI348:
  61              		.file 6 "../../libs/libDaisy/src/hid/audio.h"
   1:../../libs/libDaisy/src/hid/audio.h **** #ifndef DSY_AUDIO_H
   2:../../libs/libDaisy/src/hid/audio.h **** #define DSY_AUDIO_H /**< & */
   3:../../libs/libDaisy/src/hid/audio.h **** 
   4:../../libs/libDaisy/src/hid/audio.h **** #include "per/sai.h"
   5:../../libs/libDaisy/src/hid/audio.h **** 
   6:../../libs/libDaisy/src/hid/audio.h **** namespace daisy
   7:../../libs/libDaisy/src/hid/audio.h **** {
   8:../../libs/libDaisy/src/hid/audio.h **** /** @brief Audio Engine Handle
   9:../../libs/libDaisy/src/hid/audio.h ****  *  @ingroup audio 
  10:../../libs/libDaisy/src/hid/audio.h ****  *  @details This class allows for higher level access to an audio engine.
  11:../../libs/libDaisy/src/hid/audio.h ****  *           If you're using a SOM like the DaisySeed or DaisyPatchSM (or any 
  12:../../libs/libDaisy/src/hid/audio.h ****  *            board that includes one of those objects) then the intialization
  13:../../libs/libDaisy/src/hid/audio.h ****  *            is already taken  care of.
  14:../../libs/libDaisy/src/hid/audio.h ****  *           If you're setting up your own custom hardware, or need to make changes
  15:../../libs/libDaisy/src/hid/audio.h ****  *           you will have to take the following steps:
  16:../../libs/libDaisy/src/hid/audio.h ****  *             1. Create and Initialize an SaiHandle or two depending on your requirements
  17:../../libs/libDaisy/src/hid/audio.h ****  *             2. Initialize the Audio Handle with the desired settings and the Initialized SaiHand
  18:../../libs/libDaisy/src/hid/audio.h ****  *             3. If the connected codec requires special configuration or initialization, do so
  19:../../libs/libDaisy/src/hid/audio.h ****  *             4. Write a callback method using either the AudioCallback or the InterleavingAudioCa
  20:../../libs/libDaisy/src/hid/audio.h ****  *             5. Start the Audio using one of the StartAudio function
  21:../../libs/libDaisy/src/hid/audio.h ****  */
  22:../../libs/libDaisy/src/hid/audio.h **** class AudioHandle
  23:../../libs/libDaisy/src/hid/audio.h **** {
  24:../../libs/libDaisy/src/hid/audio.h ****   public:
  25:../../libs/libDaisy/src/hid/audio.h ****     /** Manually configurable details about the Audio Engine */
  26:../../libs/libDaisy/src/hid/audio.h ****     /** TODO: Figure out how to get samplerate in here. */
  27:../../libs/libDaisy/src/hid/audio.h ****     struct Config
  28:../../libs/libDaisy/src/hid/audio.h ****     {
  29:../../libs/libDaisy/src/hid/audio.h ****         /** number of samples to process per callback */
  30:../../libs/libDaisy/src/hid/audio.h ****         size_t blocksize = 48;
  31:../../libs/libDaisy/src/hid/audio.h **** 
  32:../../libs/libDaisy/src/hid/audio.h ****         /**< Sample rate of audio */
  33:../../libs/libDaisy/src/hid/audio.h ****         SaiHandle::Config::SampleRate samplerate
  34:../../libs/libDaisy/src/hid/audio.h ****             = SaiHandle::Config::SampleRate::SAI_48KHZ;
  35:../../libs/libDaisy/src/hid/audio.h **** 
  36:../../libs/libDaisy/src/hid/audio.h ****         /** factor for adjustment before and after callback for hardware that may have extra headro
  37:../../libs/libDaisy/src/hid/audio.h ****         float postgain = 1.f;
  38:../../libs/libDaisy/src/hid/audio.h **** 
  39:../../libs/libDaisy/src/hid/audio.h ****         /** factor for additional one-sided compensation to audio path for hardware that may
  40:../../libs/libDaisy/src/hid/audio.h ****          *  have unequal input/output ranges
  41:../../libs/libDaisy/src/hid/audio.h ****          */
  42:../../libs/libDaisy/src/hid/audio.h ****         float output_compensation = 1.f;
  43:../../libs/libDaisy/src/hid/audio.h ****     };
  44:../../libs/libDaisy/src/hid/audio.h **** 
  45:../../libs/libDaisy/src/hid/audio.h ****     enum class Result
  46:../../libs/libDaisy/src/hid/audio.h ****     {
  47:../../libs/libDaisy/src/hid/audio.h ****         OK,
ARM GAS  C:\Users\skipi\AppData\Local\Temp\ccM9ipiF.s 			page 8


  48:../../libs/libDaisy/src/hid/audio.h ****         ERR,
  49:../../libs/libDaisy/src/hid/audio.h ****     };
  50:../../libs/libDaisy/src/hid/audio.h **** 
  51:../../libs/libDaisy/src/hid/audio.h ****     /** Non-Interleaving input buffer
  52:../../libs/libDaisy/src/hid/audio.h ****      * Buffer arranged by float[chn][sample] 
  53:../../libs/libDaisy/src/hid/audio.h ****      * const so that the user can't modify the input
  54:../../libs/libDaisy/src/hid/audio.h ****      */
  55:../../libs/libDaisy/src/hid/audio.h ****     typedef const float* const* InputBuffer;
  56:../../libs/libDaisy/src/hid/audio.h **** 
  57:../../libs/libDaisy/src/hid/audio.h ****     /** Non-Interleaving output buffer
  58:../../libs/libDaisy/src/hid/audio.h ****      * Arranged by float[chn][sample] 
  59:../../libs/libDaisy/src/hid/audio.h ****      */
  60:../../libs/libDaisy/src/hid/audio.h ****     typedef float** OutputBuffer;
  61:../../libs/libDaisy/src/hid/audio.h **** 
  62:../../libs/libDaisy/src/hid/audio.h ****     /** Type for a Non-Interleaving audio callback 
  63:../../libs/libDaisy/src/hid/audio.h ****      * Non-Interleaving audio callbacks in daisy will be of this type
  64:../../libs/libDaisy/src/hid/audio.h ****      */
  65:../../libs/libDaisy/src/hid/audio.h ****     typedef void (*AudioCallback)(InputBuffer  in,
  66:../../libs/libDaisy/src/hid/audio.h ****                                   OutputBuffer out,
  67:../../libs/libDaisy/src/hid/audio.h ****                                   size_t       size);
  68:../../libs/libDaisy/src/hid/audio.h **** 
  69:../../libs/libDaisy/src/hid/audio.h ****     /** Interleaving Input buffer
  70:../../libs/libDaisy/src/hid/audio.h ****      ** audio is prepared as { L0, R0, L1, R1, . . . LN, RN }]
  71:../../libs/libDaisy/src/hid/audio.h ****      ** this is const, as the user shouldn't modify it
  72:../../libs/libDaisy/src/hid/audio.h ****     */
  73:../../libs/libDaisy/src/hid/audio.h ****     typedef const float* InterleavingInputBuffer;
  74:../../libs/libDaisy/src/hid/audio.h **** 
  75:../../libs/libDaisy/src/hid/audio.h ****     /** Interleaving Output buffer 
  76:../../libs/libDaisy/src/hid/audio.h ****      ** audio is prepared as { L0, R0, L1, R1, . . . LN, RN }
  77:../../libs/libDaisy/src/hid/audio.h ****     */
  78:../../libs/libDaisy/src/hid/audio.h ****     typedef float* InterleavingOutputBuffer;
  79:../../libs/libDaisy/src/hid/audio.h **** 
  80:../../libs/libDaisy/src/hid/audio.h ****     /** Interleaving Audio Callback 
  81:../../libs/libDaisy/src/hid/audio.h ****      * Interleaving audio callbacks in daisy must be of this type
  82:../../libs/libDaisy/src/hid/audio.h ****      */
  83:../../libs/libDaisy/src/hid/audio.h ****     typedef void (*InterleavingAudioCallback)(InterleavingInputBuffer  in,
  84:../../libs/libDaisy/src/hid/audio.h ****                                               InterleavingOutputBuffer out,
  85:../../libs/libDaisy/src/hid/audio.h ****                                               size_t                   size);
  86:../../libs/libDaisy/src/hid/audio.h **** 
  87:../../libs/libDaisy/src/hid/audio.h ****     AudioHandle() : pimpl_(nullptr) {}
  88:../../libs/libDaisy/src/hid/audio.h ****     ~AudioHandle() {}
  62              		.loc 6 88 5 is_stmt 1 view .LVU9
  63              		.loc 6 88 5 is_stmt 0 view .LVU10
  64              	.LBE348:
  65              		.loc 1 22 19 view .LVU11
  66 0000 7047     		bx	lr
  67              		.cfi_endproc
  68              	.LFE2645:
  70              		.weak	_ZN5daisy9DaisySeedD1Ev
  71              		.thumb_set _ZN5daisy9DaisySeedD1Ev,_ZN5daisy9DaisySeedD2Ev
  72 0002 00BF     		.section	.text._ZN7daisysp4AdsrD2Ev,"axG",%progbits,_ZN7daisysp4AdsrD5Ev,comdat
  73              		.align	1
  74              		.p2align 2,,3
  75              		.weak	_ZN7daisysp4AdsrD2Ev
  76              		.syntax unified
  77              		.thumb
  78              		.thumb_func
ARM GAS  C:\Users\skipi\AppData\Local\Temp\ccM9ipiF.s 			page 9


  79              		.fpu fpv5-d16
  81              	_ZN7daisysp4AdsrD2Ev:
  82              	.LVL1:
  83              	.LFB2668:
  84              		.file 7 "../../libs/DaisySP/Source/Control/adsr.h"
   1:../../libs/DaisySP/Source/Control/adsr.h **** /*
   2:../../libs/DaisySP/Source/Control/adsr.h **** Copyright (c) 2020 Electrosmith, Corp, Paul Batchelor
   3:../../libs/DaisySP/Source/Control/adsr.h **** 
   4:../../libs/DaisySP/Source/Control/adsr.h **** Use of this source code is governed by an MIT-style
   5:../../libs/DaisySP/Source/Control/adsr.h **** license that can be found in the LICENSE file or at
   6:../../libs/DaisySP/Source/Control/adsr.h **** https://opensource.org/licenses/MIT.
   7:../../libs/DaisySP/Source/Control/adsr.h **** */
   8:../../libs/DaisySP/Source/Control/adsr.h **** 
   9:../../libs/DaisySP/Source/Control/adsr.h **** #pragma once
  10:../../libs/DaisySP/Source/Control/adsr.h **** #ifndef DSY_ADSR_H
  11:../../libs/DaisySP/Source/Control/adsr.h **** #define DSY_ADSR_H
  12:../../libs/DaisySP/Source/Control/adsr.h **** 
  13:../../libs/DaisySP/Source/Control/adsr.h **** #include <stdint.h>
  14:../../libs/DaisySP/Source/Control/adsr.h **** #ifdef __cplusplus
  15:../../libs/DaisySP/Source/Control/adsr.h **** 
  16:../../libs/DaisySP/Source/Control/adsr.h **** namespace daisysp
  17:../../libs/DaisySP/Source/Control/adsr.h **** {
  18:../../libs/DaisySP/Source/Control/adsr.h **** /** Distinct stages that the phase of the envelope can be located in.
  19:../../libs/DaisySP/Source/Control/adsr.h **** - IDLE   = located at phase location 0, and not currently running
  20:../../libs/DaisySP/Source/Control/adsr.h **** - ATTACK  = First segment of envelope where phase moves from 0 to 1
  21:../../libs/DaisySP/Source/Control/adsr.h **** - DECAY   = Second segment of envelope where phase moves from 1 to SUSTAIN value
  22:../../libs/DaisySP/Source/Control/adsr.h **** - RELEASE =     Fourth segment of envelop where phase moves from SUSTAIN to 0
  23:../../libs/DaisySP/Source/Control/adsr.h **** */
  24:../../libs/DaisySP/Source/Control/adsr.h **** enum
  25:../../libs/DaisySP/Source/Control/adsr.h **** {
  26:../../libs/DaisySP/Source/Control/adsr.h ****     ADSR_SEG_IDLE    = 0,
  27:../../libs/DaisySP/Source/Control/adsr.h ****     ADSR_SEG_ATTACK  = 1,
  28:../../libs/DaisySP/Source/Control/adsr.h ****     ADSR_SEG_DECAY   = 2,
  29:../../libs/DaisySP/Source/Control/adsr.h ****     ADSR_SEG_RELEASE = 4
  30:../../libs/DaisySP/Source/Control/adsr.h **** };
  31:../../libs/DaisySP/Source/Control/adsr.h **** 
  32:../../libs/DaisySP/Source/Control/adsr.h **** 
  33:../../libs/DaisySP/Source/Control/adsr.h **** /** adsr envelope module
  34:../../libs/DaisySP/Source/Control/adsr.h **** 
  35:../../libs/DaisySP/Source/Control/adsr.h **** Original author(s) : Paul Batchelor
  36:../../libs/DaisySP/Source/Control/adsr.h **** 
  37:../../libs/DaisySP/Source/Control/adsr.h **** Ported from Soundpipe by Ben Sergentanis, May 2020
  38:../../libs/DaisySP/Source/Control/adsr.h ****  
  39:../../libs/DaisySP/Source/Control/adsr.h **** Remake by Steffan DIedrichsen, May 2021
  40:../../libs/DaisySP/Source/Control/adsr.h **** */
  41:../../libs/DaisySP/Source/Control/adsr.h **** class Adsr
  42:../../libs/DaisySP/Source/Control/adsr.h **** {
  43:../../libs/DaisySP/Source/Control/adsr.h ****   public:
  44:../../libs/DaisySP/Source/Control/adsr.h ****     Adsr() {}
  45:../../libs/DaisySP/Source/Control/adsr.h ****     ~Adsr() {}
  85              		.loc 7 45 5 is_stmt 1 view -0
  86              		.cfi_startproc
  87              		@ args = 0, pretend = 0, frame = 0
  88              		@ frame_needed = 0, uses_anonymous_args = 0
  89              		@ link register save eliminated.
  90              		.loc 7 45 14 is_stmt 0 view .LVU13
  91 0000 7047     		bx	lr
ARM GAS  C:\Users\skipi\AppData\Local\Temp\ccM9ipiF.s 			page 10


  92              		.cfi_endproc
  93              	.LFE2668:
  95              		.weak	_ZN7daisysp4AdsrD1Ev
  96              		.thumb_set _ZN7daisysp4AdsrD1Ev,_ZN7daisysp4AdsrD2Ev
  97              		.section	.text._ZN7daisysp10OscillatorD2Ev,"axG",%progbits,_ZN7daisysp10OscillatorD5Ev,comdat
  98              		.align	1
  99              		.p2align 2,,3
 100              		.weak	_ZN7daisysp10OscillatorD2Ev
 101              		.syntax unified
 102              		.thumb
 103              		.thumb_func
 104              		.fpu fpv5-d16
 106              	_ZN7daisysp10OscillatorD2Ev:
 107              	.LVL2:
 108              	.LFB4330:
 109              		.file 8 "../../libs/DaisySP/Source/Synthesis/oscillator.h"
   1:../../libs/DaisySP/Source/Synthesis/oscillator.h **** /*
   2:../../libs/DaisySP/Source/Synthesis/oscillator.h **** Copyright (c) 2020 Electrosmith, Corp
   3:../../libs/DaisySP/Source/Synthesis/oscillator.h **** 
   4:../../libs/DaisySP/Source/Synthesis/oscillator.h **** Use of this source code is governed by an MIT-style
   5:../../libs/DaisySP/Source/Synthesis/oscillator.h **** license that can be found in the LICENSE file or at
   6:../../libs/DaisySP/Source/Synthesis/oscillator.h **** https://opensource.org/licenses/MIT.
   7:../../libs/DaisySP/Source/Synthesis/oscillator.h **** */
   8:../../libs/DaisySP/Source/Synthesis/oscillator.h **** 
   9:../../libs/DaisySP/Source/Synthesis/oscillator.h **** #pragma once
  10:../../libs/DaisySP/Source/Synthesis/oscillator.h **** #ifndef DSY_OSCILLATOR_H
  11:../../libs/DaisySP/Source/Synthesis/oscillator.h **** #define DSY_OSCILLATOR_H
  12:../../libs/DaisySP/Source/Synthesis/oscillator.h **** #include <stdint.h>
  13:../../libs/DaisySP/Source/Synthesis/oscillator.h **** #include "Utility/dsp.h"
  14:../../libs/DaisySP/Source/Synthesis/oscillator.h **** #ifdef __cplusplus
  15:../../libs/DaisySP/Source/Synthesis/oscillator.h **** 
  16:../../libs/DaisySP/Source/Synthesis/oscillator.h **** namespace daisysp
  17:../../libs/DaisySP/Source/Synthesis/oscillator.h **** {
  18:../../libs/DaisySP/Source/Synthesis/oscillator.h **** /** Synthesis of several waveforms, including polyBLEP bandlimited waveforms.
  19:../../libs/DaisySP/Source/Synthesis/oscillator.h **** */
  20:../../libs/DaisySP/Source/Synthesis/oscillator.h **** class Oscillator
  21:../../libs/DaisySP/Source/Synthesis/oscillator.h **** {
  22:../../libs/DaisySP/Source/Synthesis/oscillator.h ****   public:
  23:../../libs/DaisySP/Source/Synthesis/oscillator.h ****     Oscillator() {}
  24:../../libs/DaisySP/Source/Synthesis/oscillator.h ****     ~Oscillator() {}
 110              		.loc 8 24 5 is_stmt 1 view -0
 111              		.cfi_startproc
 112              		@ args = 0, pretend = 0, frame = 0
 113              		@ frame_needed = 0, uses_anonymous_args = 0
 114              		@ link register save eliminated.
 115              		.loc 8 24 20 is_stmt 0 view .LVU15
 116 0000 7047     		bx	lr
 117              		.cfi_endproc
 118              	.LFE4330:
 120              		.weak	_ZN7daisysp10OscillatorD1Ev
 121              		.thumb_set _ZN7daisysp10OscillatorD1Ev,_ZN7daisysp10OscillatorD2Ev
 122              		.section	.text._ZN7daisysp3SvfD2Ev,"axG",%progbits,_ZN7daisysp3SvfD5Ev,comdat
 123              		.align	1
 124              		.p2align 2,,3
 125              		.weak	_ZN7daisysp3SvfD2Ev
 126              		.syntax unified
 127              		.thumb
ARM GAS  C:\Users\skipi\AppData\Local\Temp\ccM9ipiF.s 			page 11


 128              		.thumb_func
 129              		.fpu fpv5-d16
 131              	_ZN7daisysp3SvfD2Ev:
 132              	.LVL3:
 133              	.LFB4347:
 134              		.file 9 "../../libs/DaisySP/Source/Filters/svf.h"
   1:../../libs/DaisySP/Source/Filters/svf.h **** /*
   2:../../libs/DaisySP/Source/Filters/svf.h **** Copyright (c) 2020 Electrosmith, Corp
   3:../../libs/DaisySP/Source/Filters/svf.h **** 
   4:../../libs/DaisySP/Source/Filters/svf.h **** Use of this source code is governed by an MIT-style
   5:../../libs/DaisySP/Source/Filters/svf.h **** license that can be found in the LICENSE file or at
   6:../../libs/DaisySP/Source/Filters/svf.h **** https://opensource.org/licenses/MIT.
   7:../../libs/DaisySP/Source/Filters/svf.h **** */
   8:../../libs/DaisySP/Source/Filters/svf.h **** 
   9:../../libs/DaisySP/Source/Filters/svf.h **** #pragma once
  10:../../libs/DaisySP/Source/Filters/svf.h **** #ifndef DSY_SVF_H
  11:../../libs/DaisySP/Source/Filters/svf.h **** #define DSY_SVF_H
  12:../../libs/DaisySP/Source/Filters/svf.h **** 
  13:../../libs/DaisySP/Source/Filters/svf.h **** namespace daisysp
  14:../../libs/DaisySP/Source/Filters/svf.h **** {
  15:../../libs/DaisySP/Source/Filters/svf.h **** /**      Double Sampled, Stable State Variable Filter
  16:../../libs/DaisySP/Source/Filters/svf.h **** 
  17:../../libs/DaisySP/Source/Filters/svf.h **** Credit to Andrew Simper from musicdsp.org
  18:../../libs/DaisySP/Source/Filters/svf.h **** 
  19:../../libs/DaisySP/Source/Filters/svf.h **** This is his "State Variable Filter (Double Sampled, Stable)"
  20:../../libs/DaisySP/Source/Filters/svf.h **** 
  21:../../libs/DaisySP/Source/Filters/svf.h **** Additional thanks to Laurent de Soras for stability limit, and 
  22:../../libs/DaisySP/Source/Filters/svf.h **** Stefan Diedrichsen for the correct notch output
  23:../../libs/DaisySP/Source/Filters/svf.h **** 
  24:../../libs/DaisySP/Source/Filters/svf.h **** Ported by: Stephen Hensley
  25:../../libs/DaisySP/Source/Filters/svf.h **** */
  26:../../libs/DaisySP/Source/Filters/svf.h **** class Svf
  27:../../libs/DaisySP/Source/Filters/svf.h **** {
  28:../../libs/DaisySP/Source/Filters/svf.h ****   public:
  29:../../libs/DaisySP/Source/Filters/svf.h ****     Svf() {}
  30:../../libs/DaisySP/Source/Filters/svf.h ****     ~Svf() {}
 135              		.loc 9 30 5 is_stmt 1 view -0
 136              		.cfi_startproc
 137              		@ args = 0, pretend = 0, frame = 0
 138              		@ frame_needed = 0, uses_anonymous_args = 0
 139              		@ link register save eliminated.
 140              		.loc 9 30 13 is_stmt 0 view .LVU17
 141 0000 7047     		bx	lr
 142              		.cfi_endproc
 143              	.LFE4347:
 145              		.weak	_ZN7daisysp3SvfD1Ev
 146              		.thumb_set _ZN7daisysp3SvfD1Ev,_ZN7daisysp3SvfD2Ev
 147              		.section	.text._Z13AudioCallbackPKPKfPPfj,"ax",%progbits
 148              		.align	1
 149              		.p2align 2,,3
 150              		.global	_Z13AudioCallbackPKPKfPPfj
 151              		.syntax unified
 152              		.thumb
 153              		.thumb_func
 154              		.fpu fpv5-d16
 156              	_Z13AudioCallbackPKPKfPPfj:
 157              	.LVL4:
ARM GAS  C:\Users\skipi\AppData\Local\Temp\ccM9ipiF.s 			page 12


 158              	.LFB4824:
 159              		.file 10 "main.cpp"
   1:main.cpp      **** // Inclusion of necessary libraries
   2:main.cpp      **** #include "daisy_seed.h" // Main library for the Daisy Seed board
   3:main.cpp      **** #include "daisysp.h"    // DSP library for Daisy
   4:main.cpp      **** #include "Ramo.h"       // Library for the Ramo synth
   5:main.cpp      **** #include "config1.h"
   6:main.cpp      **** #include "pentaPianta.h"
   7:main.cpp      **** #include "Effect.h"
   8:main.cpp      **** 
   9:main.cpp      **** //#include "AnalogDelay.h" // Libreria custom per l'effetto delay analogico
  10:main.cpp      **** 
  11:main.cpp      **** 
  12:main.cpp      **** 
  13:main.cpp      **** // Using namespaces to simplify code writing
  14:main.cpp      **** using namespace daisy;
  15:main.cpp      **** using namespace daisysp;
  16:main.cpp      **** 
  17:main.cpp      **** 
  18:main.cpp      **** static DaisySeed hw;                                                // Main object for managing Dai
  19:main.cpp      **** 
  20:main.cpp      **** 
  21:main.cpp      **** 
  22:main.cpp      **** static Ramo Pluck;                                                  // Object for the Ramo synth
  23:main.cpp      **** static Ramo Bass;
  24:main.cpp      **** static Ramo Pad;                                                    // Object for the Ramo synth
  25:main.cpp      ****  
  26:main.cpp      **** static Oscillator lfo_Pluck;
  27:main.cpp      **** static Oscillator lfo_Bass;
  28:main.cpp      **** static Oscillator lfo_Pad;                                          // LFO object for modulation
  29:main.cpp      **** 
  30:main.cpp      **** static Adsr AmpEnv_Pluck;                                          // Envelope object for amplitude
  31:main.cpp      **** static Adsr AmpEnv_Bass;
  32:main.cpp      **** static Adsr AmpEnv_Pad;                                            // Envelope object for amplitude
  33:main.cpp      **** 
  34:main.cpp      **** static Adsr FilterEnv_Pluck;                                       // Envelope object for filter
  35:main.cpp      **** static Adsr FilterEnv_Bass;
  36:main.cpp      **** static Adsr FilterEnv_Pad;                                        // Envelope object for filter
  37:main.cpp      **** 
  38:main.cpp      **** static Svf filter_Pluck;                                          // Filter object for the synth
  39:main.cpp      **** static Svf filter_Bass;
  40:main.cpp      **** static Svf filter_Pad;                                           // Filter object for the synth
  41:main.cpp      **** 
  42:main.cpp      **** 
  43:main.cpp      **** 
  44:main.cpp      **** 
  45:main.cpp      **** float Raw_Pluck, Raw_Bass, Raw_Pad;                                   // Raw signal variables
  46:main.cpp      **** float out_noFX;                                                       // Output signal variable
  47:main.cpp      ****                                                      
  48:main.cpp      **** 
  49:main.cpp      **** 
  50:main.cpp      **** 
  51:main.cpp      **** 
  52:main.cpp      **** float now_f_lfo_Bass ;
  53:main.cpp      **** float now_f_lfo_Pluck ;
  54:main.cpp      **** float now_f_lfo_Pad ;  
  55:main.cpp      **** 
ARM GAS  C:\Users\skipi\AppData\Local\Temp\ccM9ipiF.s 			page 13


  56:main.cpp      **** float now_f_Pluck ;
  57:main.cpp      **** float now_f_Bass ;
  58:main.cpp      **** float now_f_Pad ;
  59:main.cpp      **** 
  60:main.cpp      **** float knob1, knob2, knob3, knob4, knob5, knob6, knob7; 
  61:main.cpp      **** 
  62:main.cpp      **** void AudioCallback(AudioHandle::InputBuffer in, AudioHandle::OutputBuffer out, size_t size) {
 160              		.loc 10 62 93 is_stmt 1 view -0
 161              		.cfi_startproc
 162              		@ args = 0, pretend = 0, frame = 8
 163              		@ frame_needed = 0, uses_anonymous_args = 0
  63:main.cpp      **** 
  64:main.cpp      ****                                                     
  65:main.cpp      ****     for (size_t i = 0; i < size; i++) {
 164              		.loc 10 65 5 view .LVU19
 165              	.LBB349:
 166              		.loc 10 65 26 view .LVU20
 167              	.LBE349:
  62:main.cpp      **** 
 168              		.loc 10 62 93 is_stmt 0 view .LVU21
 169 0000 2DE9F04F 		push	{r4, r5, r6, r7, r8, r9, r10, fp, lr}
 170              		.cfi_def_cfa_offset 36
 171              		.cfi_offset 4, -36
 172              		.cfi_offset 5, -32
 173              		.cfi_offset 6, -28
 174              		.cfi_offset 7, -24
 175              		.cfi_offset 8, -20
 176              		.cfi_offset 9, -16
 177              		.cfi_offset 10, -12
 178              		.cfi_offset 11, -8
 179              		.cfi_offset 14, -4
 180 0004 83B0     		sub	sp, sp, #12
 181              		.cfi_def_cfa_offset 48
 182              	.LBB392:
 183              		.loc 10 65 26 view .LVU22
 184 0006 0192     		str	r2, [sp, #4]
 185 0008 002A     		cmp	r2, #0
 186 000a 00F01E81 		beq	.L6
 187 000e 8846     		mov	r8, r1
 188              		.loc 10 65 17 view .LVU23
 189 0010 0024     		movs	r4, #0
 190 0012 8F4F     		ldr	r7, .L14
 191 0014 8F4E     		ldr	r6, .L14+4
 192 0016 904D     		ldr	r5, .L14+8
 193 0018 DFF8ECB2 		ldr	fp, .L14+184
 194 001c DFF8ECA2 		ldr	r10, .L14+188
 195 0020 DFF8EC92 		ldr	r9, .L14+192
 196              	.LVL5:
 197              	.L8:
  66:main.cpp      **** //--------------------------------------------------------------------Setta DelayTime
  67:main.cpp      ****     //delay.setDelayTime(delayTime);      // Imposta il tempo di delay
  68:main.cpp      **** //-------------------------------------------------------------------Setta Shape
  69:main.cpp      ****     lfo_Pluck.SetFreq(f_lfo_Pluck);
 198              		.loc 10 69 5 is_stmt 1 discriminator 2 view .LVU24
 199              		.loc 10 69 22 is_stmt 0 discriminator 2 view .LVU25
 200 0024 8D4B     		ldr	r3, .L14+12
 201              	.LBB350:
ARM GAS  C:\Users\skipi\AppData\Local\Temp\ccM9ipiF.s 			page 14


 202              	.LBB351:
  25:../../libs/DaisySP/Source/Synthesis/oscillator.h ****     /** Choices for output waveforms, POLYBLEP are appropriately labeled. Others are naive forms.
  26:../../libs/DaisySP/Source/Synthesis/oscillator.h ****     */
  27:../../libs/DaisySP/Source/Synthesis/oscillator.h ****     enum
  28:../../libs/DaisySP/Source/Synthesis/oscillator.h ****     {
  29:../../libs/DaisySP/Source/Synthesis/oscillator.h ****         WAVE_SIN,
  30:../../libs/DaisySP/Source/Synthesis/oscillator.h ****         WAVE_TRI,
  31:../../libs/DaisySP/Source/Synthesis/oscillator.h ****         WAVE_SAW,
  32:../../libs/DaisySP/Source/Synthesis/oscillator.h ****         WAVE_RAMP,
  33:../../libs/DaisySP/Source/Synthesis/oscillator.h ****         WAVE_SQUARE,
  34:../../libs/DaisySP/Source/Synthesis/oscillator.h ****         WAVE_POLYBLEP_TRI,
  35:../../libs/DaisySP/Source/Synthesis/oscillator.h ****         WAVE_POLYBLEP_SAW,
  36:../../libs/DaisySP/Source/Synthesis/oscillator.h ****         WAVE_POLYBLEP_SQUARE,
  37:../../libs/DaisySP/Source/Synthesis/oscillator.h ****         WAVE_LAST,
  38:../../libs/DaisySP/Source/Synthesis/oscillator.h ****     };
  39:../../libs/DaisySP/Source/Synthesis/oscillator.h **** 
  40:../../libs/DaisySP/Source/Synthesis/oscillator.h **** 
  41:../../libs/DaisySP/Source/Synthesis/oscillator.h ****     /** Initializes the Oscillator
  42:../../libs/DaisySP/Source/Synthesis/oscillator.h **** 
  43:../../libs/DaisySP/Source/Synthesis/oscillator.h ****         \param sample_rate - sample rate of the audio engine being run, and the frequency that the 
  44:../../libs/DaisySP/Source/Synthesis/oscillator.h **** 
  45:../../libs/DaisySP/Source/Synthesis/oscillator.h ****         Defaults:
  46:../../libs/DaisySP/Source/Synthesis/oscillator.h ****         - freq_ = 100 Hz
  47:../../libs/DaisySP/Source/Synthesis/oscillator.h ****         - amp_ = 0.5
  48:../../libs/DaisySP/Source/Synthesis/oscillator.h ****         - waveform_ = sine wave.
  49:../../libs/DaisySP/Source/Synthesis/oscillator.h ****     */
  50:../../libs/DaisySP/Source/Synthesis/oscillator.h ****     void Init(float sample_rate)
  51:../../libs/DaisySP/Source/Synthesis/oscillator.h ****     {
  52:../../libs/DaisySP/Source/Synthesis/oscillator.h ****         sr_        = sample_rate;
  53:../../libs/DaisySP/Source/Synthesis/oscillator.h ****         sr_recip_  = 1.0f / sample_rate;
  54:../../libs/DaisySP/Source/Synthesis/oscillator.h ****         freq_      = 100.0f;
  55:../../libs/DaisySP/Source/Synthesis/oscillator.h ****         amp_       = 0.5f;
  56:../../libs/DaisySP/Source/Synthesis/oscillator.h ****         pw_        = 0.5f;
  57:../../libs/DaisySP/Source/Synthesis/oscillator.h ****         phase_     = 0.0f;
  58:../../libs/DaisySP/Source/Synthesis/oscillator.h ****         phase_inc_ = CalcPhaseInc(freq_);
  59:../../libs/DaisySP/Source/Synthesis/oscillator.h ****         waveform_  = WAVE_SIN;
  60:../../libs/DaisySP/Source/Synthesis/oscillator.h ****         eoc_       = true;
  61:../../libs/DaisySP/Source/Synthesis/oscillator.h ****         eor_       = true;
  62:../../libs/DaisySP/Source/Synthesis/oscillator.h ****     }
  63:../../libs/DaisySP/Source/Synthesis/oscillator.h **** 
  64:../../libs/DaisySP/Source/Synthesis/oscillator.h **** 
  65:../../libs/DaisySP/Source/Synthesis/oscillator.h ****     /** Changes the frequency of the Oscillator, and recalculates phase increment.
  66:../../libs/DaisySP/Source/Synthesis/oscillator.h ****     */
  67:../../libs/DaisySP/Source/Synthesis/oscillator.h ****     inline void SetFreq(const float f)
  68:../../libs/DaisySP/Source/Synthesis/oscillator.h ****     {
  69:../../libs/DaisySP/Source/Synthesis/oscillator.h ****         freq_      = f;
  70:../../libs/DaisySP/Source/Synthesis/oscillator.h ****         phase_inc_ = CalcPhaseInc(f);
 203              		.loc 8 70 34 discriminator 2 view .LVU26
 204 0026 8A48     		ldr	r0, .L14
 205              	.LBE351:
 206              	.LBE350:
 207              		.loc 10 69 22 discriminator 2 view .LVU27
 208 0028 93ED000A 		vldr.32	s0, [r3]
 209              	.LVL6:
 210              	.LBB354:
 211              	.LBI350:
  67:../../libs/DaisySP/Source/Synthesis/oscillator.h ****     {
ARM GAS  C:\Users\skipi\AppData\Local\Temp\ccM9ipiF.s 			page 15


 212              		.loc 8 67 17 is_stmt 1 discriminator 2 view .LVU28
 213              	.LBB352:
  69:../../libs/DaisySP/Source/Synthesis/oscillator.h ****         phase_inc_ = CalcPhaseInc(f);
 214              		.loc 8 69 9 discriminator 2 view .LVU29
  69:../../libs/DaisySP/Source/Synthesis/oscillator.h ****         phase_inc_ = CalcPhaseInc(f);
 215              		.loc 8 69 20 is_stmt 0 discriminator 2 view .LVU30
 216 002c 87ED020A 		vstr.32	s0, [r7, #8]
 217              		.loc 8 70 9 is_stmt 1 discriminator 2 view .LVU31
 218              		.loc 8 70 34 is_stmt 0 discriminator 2 view .LVU32
 219 0030 FFF7FEFF 		bl	_ZN7daisysp10Oscillator12CalcPhaseIncEf
 220              	.LVL7:
 221              		.loc 8 70 34 discriminator 2 view .LVU33
 222              	.LBE352:
 223              	.LBE354:
  70:main.cpp      ****     lfo_Bass.SetFreq(f_lfo_Bass);
 224              		.loc 10 70 21 discriminator 2 view .LVU34
 225 0034 8A4B     		ldr	r3, .L14+16
 226              	.LBB355:
 227              	.LBB353:
 228              		.loc 8 70 20 discriminator 2 view .LVU35
 229 0036 87ED070A 		vstr.32	s0, [r7, #28]
 230              	.LVL8:
 231              		.loc 8 70 20 discriminator 2 view .LVU36
 232              	.LBE353:
 233              	.LBE355:
 234              		.loc 10 70 5 is_stmt 1 discriminator 2 view .LVU37
 235              		.loc 10 70 21 is_stmt 0 discriminator 2 view .LVU38
 236 003a 93ED000A 		vldr.32	s0, [r3]
 237              	.LVL9:
 238              	.LBB356:
 239              	.LBI356:
  67:../../libs/DaisySP/Source/Synthesis/oscillator.h ****     {
 240              		.loc 8 67 17 is_stmt 1 discriminator 2 view .LVU39
 241              	.LBB357:
  69:../../libs/DaisySP/Source/Synthesis/oscillator.h ****         phase_inc_ = CalcPhaseInc(f);
 242              		.loc 8 69 9 discriminator 2 view .LVU40
 243              		.loc 8 70 34 is_stmt 0 discriminator 2 view .LVU41
 244 003e 8548     		ldr	r0, .L14+4
  69:../../libs/DaisySP/Source/Synthesis/oscillator.h ****         phase_inc_ = CalcPhaseInc(f);
 245              		.loc 8 69 20 discriminator 2 view .LVU42
 246 0040 86ED020A 		vstr.32	s0, [r6, #8]
 247              		.loc 8 70 9 is_stmt 1 discriminator 2 view .LVU43
 248              		.loc 8 70 34 is_stmt 0 discriminator 2 view .LVU44
 249 0044 FFF7FEFF 		bl	_ZN7daisysp10Oscillator12CalcPhaseIncEf
 250              	.LVL10:
 251              		.loc 8 70 34 discriminator 2 view .LVU45
 252              	.LBE357:
 253              	.LBE356:
  71:main.cpp      ****     lfo_Pad.SetFreq(f_lfo_Pad);
 254              		.loc 10 71 20 discriminator 2 view .LVU46
 255 0048 864B     		ldr	r3, .L14+20
 256              	.LBB359:
 257              	.LBB358:
 258              		.loc 8 70 20 discriminator 2 view .LVU47
 259 004a 86ED070A 		vstr.32	s0, [r6, #28]
 260              	.LVL11:
 261              		.loc 8 70 20 discriminator 2 view .LVU48
ARM GAS  C:\Users\skipi\AppData\Local\Temp\ccM9ipiF.s 			page 16


 262              	.LBE358:
 263              	.LBE359:
 264              		.loc 10 71 5 is_stmt 1 discriminator 2 view .LVU49
 265              		.loc 10 71 20 is_stmt 0 discriminator 2 view .LVU50
 266 004e 93ED000A 		vldr.32	s0, [r3]
 267              	.LVL12:
 268              	.LBB360:
 269              	.LBI360:
  67:../../libs/DaisySP/Source/Synthesis/oscillator.h ****     {
 270              		.loc 8 67 17 is_stmt 1 discriminator 2 view .LVU51
 271              	.LBB361:
  69:../../libs/DaisySP/Source/Synthesis/oscillator.h ****         phase_inc_ = CalcPhaseInc(f);
 272              		.loc 8 69 9 discriminator 2 view .LVU52
 273              		.loc 8 70 34 is_stmt 0 discriminator 2 view .LVU53
 274 0052 8148     		ldr	r0, .L14+8
  69:../../libs/DaisySP/Source/Synthesis/oscillator.h ****         phase_inc_ = CalcPhaseInc(f);
 275              		.loc 8 69 20 discriminator 2 view .LVU54
 276 0054 85ED020A 		vstr.32	s0, [r5, #8]
 277              		.loc 8 70 9 is_stmt 1 discriminator 2 view .LVU55
 278              		.loc 8 70 34 is_stmt 0 discriminator 2 view .LVU56
 279 0058 FFF7FEFF 		bl	_ZN7daisysp10Oscillator12CalcPhaseIncEf
 280              	.LVL13:
 281              		.loc 8 70 34 discriminator 2 view .LVU57
 282              	.LBE361:
 283              	.LBE360:
 284              	.LBB363:
 285              	.LBB364:
  71:../../libs/DaisySP/Source/Synthesis/oscillator.h ****     }
  72:../../libs/DaisySP/Source/Synthesis/oscillator.h **** 
  73:../../libs/DaisySP/Source/Synthesis/oscillator.h **** 
  74:../../libs/DaisySP/Source/Synthesis/oscillator.h ****     /** Sets the amplitude of the waveform.
  75:../../libs/DaisySP/Source/Synthesis/oscillator.h ****     */
  76:../../libs/DaisySP/Source/Synthesis/oscillator.h ****     inline void SetAmp(const float a) { amp_ = a; }
 286              		.loc 8 76 46 discriminator 2 view .LVU58
 287 005c 824B     		ldr	r3, .L14+24
 288              	.LBE364:
 289              	.LBE363:
  72:main.cpp      ****     
  73:main.cpp      ****     lfo_Pad.SetAmp(amp_lfo_Pad); // Set LFO amplitude for Pad
  74:main.cpp      ****     lfo_Bass.SetAmp(amp_lfo_Bass); // Set LFO amplitude for Bass
  75:main.cpp      ****     lfo_Pluck.SetAmp(amp_lfo_Pluck); // Set LFO amplitude for Pluck
  76:main.cpp      **** 
  77:main.cpp      **** 
  78:main.cpp      ****     shape_Pluck = lfo_Pluck.Process();                                   
 290              		.loc 10 78 36 discriminator 2 view .LVU59
 291 005e 7C48     		ldr	r0, .L14
 292              	.LBB368:
 293              	.LBB365:
 294              		.loc 8 76 46 discriminator 2 view .LVU60
 295 0060 1968     		ldr	r1, [r3]	@ float
 296              	.LBE365:
 297              	.LBE368:
 298              	.LBB369:
 299              	.LBB370:
 300 0062 824B     		ldr	r3, .L14+28
 301              	.LBE370:
 302              	.LBE369:
ARM GAS  C:\Users\skipi\AppData\Local\Temp\ccM9ipiF.s 			page 17


 303              	.LBB374:
 304              	.LBB366:
 305 0064 6960     		str	r1, [r5, #4]	@ float
 306              	.LBE366:
 307              	.LBE374:
 308              	.LBB375:
 309              	.LBB371:
 310 0066 1968     		ldr	r1, [r3]	@ float
 311              	.LBE371:
 312              	.LBE375:
 313              	.LBB376:
 314              	.LBB377:
 315 0068 814B     		ldr	r3, .L14+32
 316              	.LBE377:
 317              	.LBE376:
 318              	.LBB380:
 319              	.LBB372:
 320 006a 7160     		str	r1, [r6, #4]	@ float
 321              	.LBE372:
 322              	.LBE380:
 323              	.LBB381:
 324              	.LBB378:
 325 006c 1968     		ldr	r1, [r3]	@ float
 326              	.LBE378:
 327              	.LBE381:
 328              	.LBB382:
 329              	.LBB362:
  70:../../libs/DaisySP/Source/Synthesis/oscillator.h ****     }
 330              		.loc 8 70 20 discriminator 2 view .LVU61
 331 006e 85ED070A 		vstr.32	s0, [r5, #28]
 332              	.LVL14:
  70:../../libs/DaisySP/Source/Synthesis/oscillator.h ****     }
 333              		.loc 8 70 20 discriminator 2 view .LVU62
 334              	.LBE362:
 335              	.LBE382:
  73:main.cpp      ****     lfo_Bass.SetAmp(amp_lfo_Bass); // Set LFO amplitude for Bass
 336              		.loc 10 73 5 is_stmt 1 discriminator 2 view .LVU63
 337              	.LBB383:
 338              	.LBI363:
 339              		.loc 8 76 17 discriminator 2 view .LVU64
 340              	.LBB367:
 341              		.loc 8 76 41 discriminator 2 view .LVU65
 342              		.loc 8 76 41 is_stmt 0 discriminator 2 view .LVU66
 343              	.LBE367:
 344              	.LBE383:
  74:main.cpp      ****     lfo_Pluck.SetAmp(amp_lfo_Pluck); // Set LFO amplitude for Pluck
 345              		.loc 10 74 5 is_stmt 1 discriminator 2 view .LVU67
 346              	.LBB384:
 347              	.LBI369:
 348              		.loc 8 76 17 discriminator 2 view .LVU68
 349              	.LBB373:
 350              		.loc 8 76 41 discriminator 2 view .LVU69
 351              		.loc 8 76 41 is_stmt 0 discriminator 2 view .LVU70
 352              	.LBE373:
 353              	.LBE384:
  75:main.cpp      **** 
 354              		.loc 10 75 5 is_stmt 1 discriminator 2 view .LVU71
ARM GAS  C:\Users\skipi\AppData\Local\Temp\ccM9ipiF.s 			page 18


 355              	.LBB385:
 356              	.LBI376:
 357              		.loc 8 76 17 discriminator 2 view .LVU72
 358              	.LBB379:
 359              		.loc 8 76 41 discriminator 2 view .LVU73
 360              		.loc 8 76 46 is_stmt 0 discriminator 2 view .LVU74
 361 0072 7960     		str	r1, [r7, #4]	@ float
 362              	.LVL15:
 363              		.loc 8 76 46 discriminator 2 view .LVU75
 364              	.LBE379:
 365              	.LBE385:
 366              		.loc 10 78 5 is_stmt 1 discriminator 2 view .LVU76
 367              		.loc 10 78 36 is_stmt 0 discriminator 2 view .LVU77
 368 0074 FFF7FEFF 		bl	_ZN7daisysp10Oscillator7ProcessEv
 369              	.LVL16:
 370              		.loc 10 78 17 discriminator 2 view .LVU78
 371 0078 7E4B     		ldr	r3, .L14+36
  79:main.cpp      ****     shape_Bass = lfo_Bass.Process();                                   
 372              		.loc 10 79 34 discriminator 2 view .LVU79
 373 007a 7648     		ldr	r0, .L14+4
  78:main.cpp      ****     shape_Bass = lfo_Bass.Process();                                   
 374              		.loc 10 78 17 discriminator 2 view .LVU80
 375 007c 83ED000A 		vstr.32	s0, [r3]
 376              		.loc 10 79 5 is_stmt 1 discriminator 2 view .LVU81
 377              		.loc 10 79 34 is_stmt 0 discriminator 2 view .LVU82
 378 0080 FFF7FEFF 		bl	_ZN7daisysp10Oscillator7ProcessEv
 379              	.LVL17:
 380              		.loc 10 79 16 discriminator 2 view .LVU83
 381 0084 7C4A     		ldr	r2, .L14+40
  80:main.cpp      ****     shape_Pad = lfo_Pad.Process();                                   
 382              		.loc 10 80 32 discriminator 2 view .LVU84
 383 0086 7448     		ldr	r0, .L14+8
  79:main.cpp      ****     shape_Bass = lfo_Bass.Process();                                   
 384              		.loc 10 79 16 discriminator 2 view .LVU85
 385 0088 82ED000A 		vstr.32	s0, [r2]
 386              		.loc 10 80 5 is_stmt 1 discriminator 2 view .LVU86
 387              		.loc 10 80 32 is_stmt 0 discriminator 2 view .LVU87
 388 008c FFF7FEFF 		bl	_ZN7daisysp10Oscillator7ProcessEv
 389              	.LVL18:
  81:main.cpp      **** 
  82:main.cpp      ****     Pluck.SetShape(shape_Pluck);                                     
 390              		.loc 10 82 19 discriminator 2 view .LVU88
 391 0090 784B     		ldr	r3, .L14+36
  80:main.cpp      ****     shape_Pad = lfo_Pad.Process();                                   
 392              		.loc 10 80 15 discriminator 2 view .LVU89
 393 0092 7A49     		ldr	r1, .L14+44
 394              		.loc 10 82 19 discriminator 2 view .LVU90
 395 0094 7A48     		ldr	r0, .L14+48
  80:main.cpp      ****     shape_Pad = lfo_Pad.Process();                                   
 396              		.loc 10 80 15 discriminator 2 view .LVU91
 397 0096 81ED000A 		vstr.32	s0, [r1]
 398              		.loc 10 82 5 is_stmt 1 discriminator 2 view .LVU92
 399              		.loc 10 82 19 is_stmt 0 discriminator 2 view .LVU93
 400 009a 93ED000A 		vldr.32	s0, [r3]
 401 009e FFF7FEFF 		bl	_ZN4Ramo8SetShapeEf
 402              	.LVL19:
  83:main.cpp      ****     Bass.SetShape(shape_Bass);                                     
ARM GAS  C:\Users\skipi\AppData\Local\Temp\ccM9ipiF.s 			page 19


 403              		.loc 10 83 5 is_stmt 1 discriminator 2 view .LVU94
 404              		.loc 10 83 18 is_stmt 0 discriminator 2 view .LVU95
 405 00a2 754A     		ldr	r2, .L14+40
 406 00a4 7748     		ldr	r0, .L14+52
 407 00a6 92ED000A 		vldr.32	s0, [r2]
 408 00aa FFF7FEFF 		bl	_ZN4Ramo8SetShapeEf
 409              	.LVL20:
  84:main.cpp      ****     Pad.SetShape(shape_Pad);                                     
 410              		.loc 10 84 5 is_stmt 1 discriminator 2 view .LVU96
 411              		.loc 10 84 17 is_stmt 0 discriminator 2 view .LVU97
 412 00ae 7349     		ldr	r1, .L14+44
 413 00b0 7548     		ldr	r0, .L14+56
 414 00b2 91ED000A 		vldr.32	s0, [r1]
 415 00b6 FFF7FEFF 		bl	_ZN4Ramo8SetShapeEf
 416              	.LVL21:
  85:main.cpp      ****     
  86:main.cpp      **** //---------------------------------------------------------------Setta Freq
  87:main.cpp      ****     Pluck.SetFreq(f_Pluck);                                         
 417              		.loc 10 87 5 is_stmt 1 discriminator 2 view .LVU98
 418              		.loc 10 87 18 is_stmt 0 discriminator 2 view .LVU99
 419 00ba 744B     		ldr	r3, .L14+60
 420 00bc 7048     		ldr	r0, .L14+48
 421 00be 93ED000A 		vldr.32	s0, [r3]
 422 00c2 FFF7FEFF 		bl	_ZN4Ramo7SetFreqEf
 423              	.LVL22:
  88:main.cpp      ****     Bass.SetFreq(f_Bass);                                         
 424              		.loc 10 88 5 is_stmt 1 discriminator 2 view .LVU100
 425              		.loc 10 88 17 is_stmt 0 discriminator 2 view .LVU101
 426 00c6 724B     		ldr	r3, .L14+64
 427 00c8 6E48     		ldr	r0, .L14+52
 428 00ca 93ED000A 		vldr.32	s0, [r3]
 429 00ce FFF7FEFF 		bl	_ZN4Ramo7SetFreqEf
 430              	.LVL23:
  89:main.cpp      ****     Pad.SetFreq(f_Pad);                 
 431              		.loc 10 89 5 is_stmt 1 discriminator 2 view .LVU102
 432              		.loc 10 89 16 is_stmt 0 discriminator 2 view .LVU103
 433 00d2 704B     		ldr	r3, .L14+68
 434 00d4 6C48     		ldr	r0, .L14+56
 435 00d6 93ED000A 		vldr.32	s0, [r3]
 436 00da FFF7FEFF 		bl	_ZN4Ramo7SetFreqEf
 437              	.LVL24:
  90:main.cpp      **** 
  91:main.cpp      **** //-------------------------------------------------------------------------------------------------
  92:main.cpp      ****     amp_env_Pluck = AmpEnv_Pluck.Process(Gate_Pluck);                             
 438              		.loc 10 92 5 is_stmt 1 discriminator 2 view .LVU104
 439              		.loc 10 92 41 is_stmt 0 discriminator 2 view .LVU105
 440 00de 6E4B     		ldr	r3, .L14+72
 441 00e0 6E48     		ldr	r0, .L14+76
 442 00e2 1978     		ldrb	r1, [r3]	@ zero_extendqisi2
 443 00e4 FFF7FEFF 		bl	_ZN7daisysp4Adsr7ProcessEb
 444              	.LVL25:
  93:main.cpp      ****     amp_env_Bass = AmpEnv_Bass.Process(Gate_Bass);                             
 445              		.loc 10 93 39 discriminator 2 view .LVU106
 446 00e8 6D49     		ldr	r1, .L14+80
  92:main.cpp      ****     amp_env_Bass = AmpEnv_Bass.Process(Gate_Bass);                             
 447              		.loc 10 92 19 discriminator 2 view .LVU107
 448 00ea 6E4A     		ldr	r2, .L14+84
ARM GAS  C:\Users\skipi\AppData\Local\Temp\ccM9ipiF.s 			page 20


 449              		.loc 10 93 39 discriminator 2 view .LVU108
 450 00ec 0978     		ldrb	r1, [r1]	@ zero_extendqisi2
 451 00ee 6E48     		ldr	r0, .L14+88
  92:main.cpp      ****     amp_env_Bass = AmpEnv_Bass.Process(Gate_Bass);                             
 452              		.loc 10 92 19 discriminator 2 view .LVU109
 453 00f0 82ED000A 		vstr.32	s0, [r2]
 454              		.loc 10 93 5 is_stmt 1 discriminator 2 view .LVU110
 455              		.loc 10 93 39 is_stmt 0 discriminator 2 view .LVU111
 456 00f4 FFF7FEFF 		bl	_ZN7daisysp4Adsr7ProcessEb
 457              	.LVL26:
  94:main.cpp      ****     amp_env_Pad = AmpEnv_Pad.Process(Gate_Pad);                             
 458              		.loc 10 94 37 discriminator 2 view .LVU112
 459 00f8 6C4B     		ldr	r3, .L14+92
  93:main.cpp      ****     amp_env_Bass = AmpEnv_Bass.Process(Gate_Bass);                             
 460              		.loc 10 93 18 discriminator 2 view .LVU113
 461 00fa 6D48     		ldr	r0, .L14+96
 462              		.loc 10 94 37 discriminator 2 view .LVU114
 463 00fc 1978     		ldrb	r1, [r3]	@ zero_extendqisi2
  93:main.cpp      ****     amp_env_Bass = AmpEnv_Bass.Process(Gate_Bass);                             
 464              		.loc 10 93 18 discriminator 2 view .LVU115
 465 00fe 80ED000A 		vstr.32	s0, [r0]
 466              		.loc 10 94 5 is_stmt 1 discriminator 2 view .LVU116
 467              		.loc 10 94 37 is_stmt 0 discriminator 2 view .LVU117
 468 0102 6C48     		ldr	r0, .L14+100
 469 0104 FFF7FEFF 		bl	_ZN7daisysp4Adsr7ProcessEb
 470              	.LVL27:
  95:main.cpp      **** 
  96:main.cpp      **** //-------------------------------------------------------------------------------------------------
  97:main.cpp      ****     filt_env_Pluck = FilterEnv_Pluck.Process(Gate_Pluck);                          
 471              		.loc 10 97 45 discriminator 2 view .LVU118
 472 0108 634B     		ldr	r3, .L14+72
  94:main.cpp      ****     amp_env_Pad = AmpEnv_Pad.Process(Gate_Pad);                             
 473              		.loc 10 94 17 discriminator 2 view .LVU119
 474 010a 6B4A     		ldr	r2, .L14+104
 475              		.loc 10 97 45 discriminator 2 view .LVU120
 476 010c 1978     		ldrb	r1, [r3]	@ zero_extendqisi2
 477 010e 6B48     		ldr	r0, .L14+108
  94:main.cpp      ****     amp_env_Pad = AmpEnv_Pad.Process(Gate_Pad);                             
 478              		.loc 10 94 17 discriminator 2 view .LVU121
 479 0110 82ED000A 		vstr.32	s0, [r2]
 480              		.loc 10 97 5 is_stmt 1 discriminator 2 view .LVU122
 481              		.loc 10 97 45 is_stmt 0 discriminator 2 view .LVU123
 482 0114 FFF7FEFF 		bl	_ZN7daisysp4Adsr7ProcessEb
 483              	.LVL28:
  98:main.cpp      ****     filt_env_Bass = FilterEnv_Bass.Process(Gate_Bass);                           
 484              		.loc 10 98 43 discriminator 2 view .LVU124
 485 0118 6149     		ldr	r1, .L14+80
 486 011a 6948     		ldr	r0, .L14+112
 487 011c 0978     		ldrb	r1, [r1]	@ zero_extendqisi2
  97:main.cpp      ****     filt_env_Bass = FilterEnv_Bass.Process(Gate_Bass);                           
 488              		.loc 10 97 20 discriminator 2 view .LVU125
 489 011e 8BED000A 		vstr.32	s0, [fp]
 490              		.loc 10 98 5 is_stmt 1 discriminator 2 view .LVU126
 491              		.loc 10 98 43 is_stmt 0 discriminator 2 view .LVU127
 492 0122 FFF7FEFF 		bl	_ZN7daisysp4Adsr7ProcessEb
 493              	.LVL29:
  99:main.cpp      ****     filt_env_Pad = FilterEnv_Pad.Process(Gate_Pad);                          
ARM GAS  C:\Users\skipi\AppData\Local\Temp\ccM9ipiF.s 			page 21


 494              		.loc 10 99 41 discriminator 2 view .LVU128
 495 0126 614B     		ldr	r3, .L14+92
 496 0128 6648     		ldr	r0, .L14+116
 497 012a 1978     		ldrb	r1, [r3]	@ zero_extendqisi2
  98:main.cpp      ****     filt_env_Bass = FilterEnv_Bass.Process(Gate_Bass);                           
 498              		.loc 10 98 19 discriminator 2 view .LVU129
 499 012c 8AED000A 		vstr.32	s0, [r10]
 500              		.loc 10 99 5 is_stmt 1 discriminator 2 view .LVU130
 501              		.loc 10 99 41 is_stmt 0 discriminator 2 view .LVU131
 502 0130 FFF7FEFF 		bl	_ZN7daisysp4Adsr7ProcessEb
 503              	.LVL30:
 100:main.cpp      **** //-------------------------------------------------------------------------------------------------
 101:main.cpp      ****     filter_Pluck.SetFreq(ft_pluck - filt_env_Pluck*f_EG_pluck);                             
 504              		.loc 10 101 25 discriminator 2 view .LVU132
 505 0134 644B     		ldr	r3, .L14+120
 506 0136 9BED007A 		vldr.32	s14, [fp]
 507 013a D3ED007A 		vldr.32	s15, [r3]
 508 013e 634B     		ldr	r3, .L14+124
  99:main.cpp      ****     filt_env_Pad = FilterEnv_Pad.Process(Gate_Pad);                          
 509              		.loc 10 99 18 discriminator 2 view .LVU133
 510 0140 89ED000A 		vstr.32	s0, [r9]
 511              		.loc 10 101 5 is_stmt 1 discriminator 2 view .LVU134
 512              		.loc 10 101 25 is_stmt 0 discriminator 2 view .LVU135
 513 0144 93ED000A 		vldr.32	s0, [r3]
 514 0148 6148     		ldr	r0, .L14+128
 515 014a A7EE670A 		vfms.f32	s0, s14, s15
 516 014e FFF7FEFF 		bl	_ZN7daisysp3Svf7SetFreqEf
 517              	.LVL31:
 102:main.cpp      ****     filter_Bass.SetFreq(ft_bass + filt_env_Bass*f_EG_bass);
 518              		.loc 10 102 5 is_stmt 1 discriminator 2 view .LVU136
 519              		.loc 10 102 24 is_stmt 0 discriminator 2 view .LVU137
 520 0152 604B     		ldr	r3, .L14+132
 521 0154 9AED007A 		vldr.32	s14, [r10]
 522 0158 D3ED007A 		vldr.32	s15, [r3]
 523 015c 5E4B     		ldr	r3, .L14+136
 524 015e 5F48     		ldr	r0, .L14+140
 525 0160 93ED000A 		vldr.32	s0, [r3]
 526 0164 A7EE270A 		vfma.f32	s0, s14, s15
 527 0168 FFF7FEFF 		bl	_ZN7daisysp3Svf7SetFreqEf
 528              	.LVL32:
 103:main.cpp      ****     filter_Pad.SetFreq(ft_pad + filt_env_Pad*f_EG_pad);                            
 529              		.loc 10 103 5 is_stmt 1 discriminator 2 view .LVU138
 530              		.loc 10 103 23 is_stmt 0 discriminator 2 view .LVU139
 531 016c 5C4B     		ldr	r3, .L14+144
 532 016e 99ED007A 		vldr.32	s14, [r9]
 533 0172 D3ED007A 		vldr.32	s15, [r3]
 534 0176 5B4B     		ldr	r3, .L14+148
 535 0178 5B48     		ldr	r0, .L14+152
 536 017a 93ED000A 		vldr.32	s0, [r3]
 537 017e A7EE270A 		vfma.f32	s0, s14, s15
 538 0182 FFF7FEFF 		bl	_ZN7daisysp3Svf7SetFreqEf
 539              	.LVL33:
 104:main.cpp      **** //-------------------------------------------------------------------------------------------------
 105:main.cpp      ****     Pluck.SetGain(amp_env_Pluck);                                     
 540              		.loc 10 105 5 is_stmt 1 discriminator 2 view .LVU140
 541              		.loc 10 105 18 is_stmt 0 discriminator 2 view .LVU141
 542 0186 474A     		ldr	r2, .L14+84
ARM GAS  C:\Users\skipi\AppData\Local\Temp\ccM9ipiF.s 			page 22


 543 0188 3D48     		ldr	r0, .L14+48
 544 018a 92ED000A 		vldr.32	s0, [r2]
 545 018e FFF7FEFF 		bl	_ZN4Ramo7SetGainEf
 546              	.LVL34:
 106:main.cpp      ****     Bass.SetGain(amp_env_Bass);                                     
 547              		.loc 10 106 5 is_stmt 1 discriminator 2 view .LVU142
 548              		.loc 10 106 17 is_stmt 0 discriminator 2 view .LVU143
 549 0192 4748     		ldr	r0, .L14+96
 550 0194 90ED000A 		vldr.32	s0, [r0]
 551 0198 3A48     		ldr	r0, .L14+52
 552 019a FFF7FEFF 		bl	_ZN4Ramo7SetGainEf
 553              	.LVL35:
 107:main.cpp      ****     Pad.SetGain(amp_env_Pad);                                     
 554              		.loc 10 107 5 is_stmt 1 discriminator 2 view .LVU144
 555              		.loc 10 107 16 is_stmt 0 discriminator 2 view .LVU145
 556 019e 464A     		ldr	r2, .L14+104
 557 01a0 3948     		ldr	r0, .L14+56
 558 01a2 92ED000A 		vldr.32	s0, [r2]
 559 01a6 FFF7FEFF 		bl	_ZN4Ramo7SetGainEf
 560              	.LVL36:
 108:main.cpp      **** //-------------------------------------------------------------------------------------------------
 109:main.cpp      ****     Raw_Pluck = Pluck.Process();
 561              		.loc 10 109 5 is_stmt 1 discriminator 2 view .LVU146
 562              		.loc 10 109 30 is_stmt 0 discriminator 2 view .LVU147
 563 01aa 3548     		ldr	r0, .L14+48
 564 01ac FFF7FEFF 		bl	_ZN4Ramo7ProcessEv
 565              	.LVL37:
 566              		.loc 10 109 15 discriminator 2 view .LVU148
 567 01b0 4E4B     		ldr	r3, .L14+156
 110:main.cpp      ****     Raw_Bass = Bass.Process();
 568              		.loc 10 110 28 discriminator 2 view .LVU149
 569 01b2 3448     		ldr	r0, .L14+52
 109:main.cpp      ****     Raw_Bass = Bass.Process();
 570              		.loc 10 109 15 discriminator 2 view .LVU150
 571 01b4 83ED000A 		vstr.32	s0, [r3]
 572              		.loc 10 110 5 is_stmt 1 discriminator 2 view .LVU151
 573              		.loc 10 110 28 is_stmt 0 discriminator 2 view .LVU152
 574 01b8 FFF7FEFF 		bl	_ZN4Ramo7ProcessEv
 575              	.LVL38:
 576              		.loc 10 110 14 discriminator 2 view .LVU153
 577 01bc 4C4A     		ldr	r2, .L14+160
 111:main.cpp      ****     Raw_Pad = Pad.Process();
 578              		.loc 10 111 26 discriminator 2 view .LVU154
 579 01be 3248     		ldr	r0, .L14+56
 110:main.cpp      ****     Raw_Bass = Bass.Process();
 580              		.loc 10 110 14 discriminator 2 view .LVU155
 581 01c0 82ED000A 		vstr.32	s0, [r2]
 582              		.loc 10 111 5 is_stmt 1 discriminator 2 view .LVU156
 583              		.loc 10 111 26 is_stmt 0 discriminator 2 view .LVU157
 584 01c4 FFF7FEFF 		bl	_ZN4Ramo7ProcessEv
 585              	.LVL39:
 112:main.cpp      **** //-------------------------------------------------------------------------------------------------
 113:main.cpp      ****     filter_Pluck.Process(Raw_Pluck);
 586              		.loc 10 113 25 discriminator 2 view .LVU158
 587 01c8 484B     		ldr	r3, .L14+156
 111:main.cpp      ****     Raw_Pad = Pad.Process();
 588              		.loc 10 111 13 discriminator 2 view .LVU159
ARM GAS  C:\Users\skipi\AppData\Local\Temp\ccM9ipiF.s 			page 23


 589 01ca 4A49     		ldr	r1, .L14+164
 590              		.loc 10 113 25 discriminator 2 view .LVU160
 591 01cc 4048     		ldr	r0, .L14+128
 111:main.cpp      ****     Raw_Pad = Pad.Process();
 592              		.loc 10 111 13 discriminator 2 view .LVU161
 593 01ce 81ED000A 		vstr.32	s0, [r1]
 594              		.loc 10 113 5 is_stmt 1 discriminator 2 view .LVU162
 595              		.loc 10 113 25 is_stmt 0 discriminator 2 view .LVU163
 596 01d2 93ED000A 		vldr.32	s0, [r3]
 597 01d6 FFF7FEFF 		bl	_ZN7daisysp3Svf7ProcessEf
 598              	.LVL40:
 114:main.cpp      ****     filter_Bass.Process(Raw_Bass);
 599              		.loc 10 114 5 is_stmt 1 discriminator 2 view .LVU164
 600              		.loc 10 114 24 is_stmt 0 discriminator 2 view .LVU165
 601 01da 454A     		ldr	r2, .L14+160
 602 01dc 3F48     		ldr	r0, .L14+140
 603 01de 92ED000A 		vldr.32	s0, [r2]
 604 01e2 FFF7FEFF 		bl	_ZN7daisysp3Svf7ProcessEf
 605              	.LVL41:
 115:main.cpp      ****     filter_Pad.Process(Raw_Pad);
 606              		.loc 10 115 5 is_stmt 1 discriminator 2 view .LVU166
 607              		.loc 10 115 23 is_stmt 0 discriminator 2 view .LVU167
 608 01e6 4349     		ldr	r1, .L14+164
 609 01e8 3F48     		ldr	r0, .L14+152
 610 01ea 91ED000A 		vldr.32	s0, [r1]
 611 01ee FFF7FEFF 		bl	_ZN7daisysp3Svf7ProcessEf
 612              	.LVL42:
 116:main.cpp      **** //-------------------------------------------------------------------------------------------------
 117:main.cpp      ****     out_noFX = filter_Pluck.Low() * mix_amp_Pluck + filter_Bass.Low() * mix_amp_Bass + filter_Pad.L
 613              		.loc 10 117 5 is_stmt 1 discriminator 2 view .LVU168
 614              	.LBB386:
 615              	.LBI386:
  31:../../libs/DaisySP/Source/Filters/svf.h ****     /** Initializes the filter
  32:../../libs/DaisySP/Source/Filters/svf.h ****         float sample_rate - sample rate of the audio engine being run, and the frequency that the P
  33:../../libs/DaisySP/Source/Filters/svf.h ****     */
  34:../../libs/DaisySP/Source/Filters/svf.h ****     void Init(float sample_rate);
  35:../../libs/DaisySP/Source/Filters/svf.h **** 
  36:../../libs/DaisySP/Source/Filters/svf.h **** 
  37:../../libs/DaisySP/Source/Filters/svf.h ****     /** 
  38:../../libs/DaisySP/Source/Filters/svf.h ****         Process the input signal, updating all of the outputs.
  39:../../libs/DaisySP/Source/Filters/svf.h ****     */
  40:../../libs/DaisySP/Source/Filters/svf.h ****     void Process(float in);
  41:../../libs/DaisySP/Source/Filters/svf.h **** 
  42:../../libs/DaisySP/Source/Filters/svf.h **** 
  43:../../libs/DaisySP/Source/Filters/svf.h ****     /** sets the frequency of the cutoff frequency. 
  44:../../libs/DaisySP/Source/Filters/svf.h ****         f must be between 0.0 and sample_rate / 3
  45:../../libs/DaisySP/Source/Filters/svf.h ****     */
  46:../../libs/DaisySP/Source/Filters/svf.h ****     void SetFreq(float f);
  47:../../libs/DaisySP/Source/Filters/svf.h **** 
  48:../../libs/DaisySP/Source/Filters/svf.h ****     /** sets the resonance of the filter.
  49:../../libs/DaisySP/Source/Filters/svf.h ****         Must be between 0.0 and 1.0 to ensure stability.
  50:../../libs/DaisySP/Source/Filters/svf.h ****     */
  51:../../libs/DaisySP/Source/Filters/svf.h ****     void SetRes(float r);
  52:../../libs/DaisySP/Source/Filters/svf.h **** 
  53:../../libs/DaisySP/Source/Filters/svf.h ****     /** sets the drive of the filter 
  54:../../libs/DaisySP/Source/Filters/svf.h ****         affects the response of the resonance of the filter
  55:../../libs/DaisySP/Source/Filters/svf.h ****     */
ARM GAS  C:\Users\skipi\AppData\Local\Temp\ccM9ipiF.s 			page 24


  56:../../libs/DaisySP/Source/Filters/svf.h ****     void SetDrive(float d);
  57:../../libs/DaisySP/Source/Filters/svf.h ****     /** lowpass output
  58:../../libs/DaisySP/Source/Filters/svf.h ****         \return low pass output of the filter
  59:../../libs/DaisySP/Source/Filters/svf.h ****     */
  60:../../libs/DaisySP/Source/Filters/svf.h ****     inline float Low() { return out_low_; }
 616              		.loc 9 60 18 discriminator 2 view .LVU169
 617              	.LBB387:
 618              		.loc 9 60 26 discriminator 2 view .LVU170
 619              		.loc 9 60 26 is_stmt 0 discriminator 2 view .LVU171
 620              	.LBE387:
 621              	.LBE386:
 622              	.LBB388:
 623              	.LBI388:
 624              		.loc 9 60 18 is_stmt 1 discriminator 2 view .LVU172
 625              	.LBB389:
 626              		.loc 9 60 26 discriminator 2 view .LVU173
 627              		.loc 9 60 26 is_stmt 0 discriminator 2 view .LVU174
 628              	.LBE389:
 629              	.LBE388:
 630              		.loc 10 117 71 discriminator 2 view .LVU175
 631 01f2 3A4B     		ldr	r3, .L14+140
 632 01f4 404A     		ldr	r2, .L14+168
 633 01f6 93ED0C7A 		vldr.32	s14, [r3, #48]
 634              		.loc 10 117 51 discriminator 2 view .LVU176
 635 01fa 404B     		ldr	r3, .L14+172
 636              		.loc 10 117 71 discriminator 2 view .LVU177
 637 01fc D2ED007A 		vldr.32	s15, [r2]
 638              		.loc 10 117 51 discriminator 2 view .LVU178
 639 0200 D3ED005A 		vldr.32	s11, [r3]
 640 0204 324B     		ldr	r3, .L14+128
 641              		.loc 10 117 71 discriminator 2 view .LVU179
 642 0206 67EE877A 		vmul.f32	s15, s15, s14
 643              		.loc 10 117 86 discriminator 2 view .LVU180
 644 020a 3749     		ldr	r1, .L14+152
 645              		.loc 10 117 51 discriminator 2 view .LVU181
 646 020c 93ED0C6A 		vldr.32	s12, [r3, #48]
 647              		.loc 10 117 86 discriminator 2 view .LVU182
 648 0210 3B4B     		ldr	r3, .L14+176
 649              		.loc 10 117 51 discriminator 2 view .LVU183
 650 0212 E5EE867A 		vfma.f32	s15, s11, s12
 651              	.LVL43:
 652              	.LBB390:
 653              	.LBI390:
 654              		.loc 9 60 18 is_stmt 1 discriminator 2 view .LVU184
 655              	.LBB391:
 656              		.loc 9 60 26 discriminator 2 view .LVU185
 657              		.loc 9 60 26 is_stmt 0 discriminator 2 view .LVU186
 658              	.LBE391:
 659              	.LBE390:
 660              		.loc 10 117 86 discriminator 2 view .LVU187
 661 0216 91ED0C7A 		vldr.32	s14, [r1, #48]
 662 021a D3ED006A 		vldr.32	s13, [r3]
 663              		.loc 10 117 14 discriminator 2 view .LVU188
 664 021e 3949     		ldr	r1, .L14+180
 665              		.loc 10 117 86 discriminator 2 view .LVU189
 666 0220 E6EE877A 		vfma.f32	s15, s13, s14
 667              		.loc 10 117 14 discriminator 2 view .LVU190
ARM GAS  C:\Users\skipi\AppData\Local\Temp\ccM9ipiF.s 			page 25


 668 0224 C1ED007A 		vstr.32	s15, [r1]
 118:main.cpp      **** //-------------------------------------------------------------------------------------------------
 119:main.cpp      ****     //float out_FX = delay.Process(out_noFX); // Process the output signal with the delay effect
 120:main.cpp      **** 
 121:main.cpp      **** //-------------------------------------------------------------------------------------------------
 122:main.cpp      ****         out[0][i] = out_noFX;                                         // Output processed signal (l
 669              		.loc 10 122 9 is_stmt 1 discriminator 2 view .LVU191
 670              		.loc 10 122 19 is_stmt 0 discriminator 2 view .LVU192
 671 0228 D8F80010 		ldr	r1, [r8]
 672 022c 01EB8401 		add	r1, r1, r4, lsl #2
 673 0230 C1ED007A 		vstr.32	s15, [r1]
 123:main.cpp      ****         out[1][i] = out_noFX;                                         // Output processed signal (r
 674              		.loc 10 123 9 is_stmt 1 discriminator 2 view .LVU193
 675              		.loc 10 123 19 is_stmt 0 discriminator 2 view .LVU194
 676 0234 D8F80410 		ldr	r1, [r8, #4]
 677 0238 01EB8401 		add	r1, r1, r4, lsl #2
  65:main.cpp      **** //--------------------------------------------------------------------Setta DelayTime
 678              		.loc 10 65 5 discriminator 2 view .LVU195
 679 023c 0134     		adds	r4, r4, #1
 680              	.LVL44:
 681              		.loc 10 123 19 discriminator 2 view .LVU196
 682 023e C1ED007A 		vstr.32	s15, [r1]
  65:main.cpp      **** //--------------------------------------------------------------------Setta DelayTime
 683              		.loc 10 65 5 is_stmt 1 discriminator 2 view .LVU197
 684              	.LVL45:
  65:main.cpp      **** //--------------------------------------------------------------------Setta DelayTime
 685              		.loc 10 65 26 discriminator 2 view .LVU198
 686 0242 0199     		ldr	r1, [sp, #4]
 687 0244 A142     		cmp	r1, r4
 688 0246 7FF4EDAE 		bne	.L8
 689              	.LVL46:
 690              	.L6:
  65:main.cpp      **** //--------------------------------------------------------------------Setta DelayTime
 691              		.loc 10 65 26 is_stmt 0 discriminator 2 view .LVU199
 692              	.LBE392:
 124:main.cpp      ****     }
 125:main.cpp      **** }
 693              		.loc 10 125 1 view .LVU200
 694 024a 03B0     		add	sp, sp, #12
 695              		.cfi_def_cfa_offset 36
 696              		@ sp needed
 697 024c BDE8F08F 		pop	{r4, r5, r6, r7, r8, r9, r10, fp, pc}
 698              	.LVL47:
 699              	.L15:
 700              		.loc 10 125 1 view .LVU201
 701              		.align	2
 702              	.L14:
 703 0250 00000000 		.word	.LANCHOR1
 704 0254 00000000 		.word	.LANCHOR3
 705 0258 00000000 		.word	.LANCHOR5
 706 025c 00000000 		.word	.LANCHOR0
 707 0260 00000000 		.word	.LANCHOR2
 708 0264 00000000 		.word	.LANCHOR4
 709 0268 00000000 		.word	.LANCHOR6
 710 026c 00000000 		.word	.LANCHOR7
 711 0270 00000000 		.word	.LANCHOR8
 712 0274 00000000 		.word	.LANCHOR9
ARM GAS  C:\Users\skipi\AppData\Local\Temp\ccM9ipiF.s 			page 26


 713 0278 00000000 		.word	.LANCHOR10
 714 027c 00000000 		.word	.LANCHOR11
 715 0280 00000000 		.word	.LANCHOR12
 716 0284 00000000 		.word	.LANCHOR13
 717 0288 00000000 		.word	.LANCHOR14
 718 028c 00000000 		.word	.LANCHOR15
 719 0290 00000000 		.word	.LANCHOR16
 720 0294 00000000 		.word	.LANCHOR17
 721 0298 00000000 		.word	.LANCHOR18
 722 029c 00000000 		.word	.LANCHOR19
 723 02a0 00000000 		.word	.LANCHOR21
 724 02a4 00000000 		.word	.LANCHOR20
 725 02a8 00000000 		.word	.LANCHOR22
 726 02ac 00000000 		.word	.LANCHOR24
 727 02b0 00000000 		.word	.LANCHOR23
 728 02b4 00000000 		.word	.LANCHOR25
 729 02b8 00000000 		.word	.LANCHOR26
 730 02bc 00000000 		.word	.LANCHOR27
 731 02c0 00000000 		.word	.LANCHOR29
 732 02c4 00000000 		.word	.LANCHOR31
 733 02c8 00000000 		.word	.LANCHOR33
 734 02cc 00000000 		.word	.LANCHOR34
 735 02d0 00000000 		.word	.LANCHOR35
 736 02d4 00000000 		.word	.LANCHOR36
 737 02d8 00000000 		.word	.LANCHOR37
 738 02dc 00000000 		.word	.LANCHOR38
 739 02e0 00000000 		.word	.LANCHOR39
 740 02e4 00000000 		.word	.LANCHOR40
 741 02e8 00000000 		.word	.LANCHOR41
 742 02ec 00000000 		.word	.LANCHOR42
 743 02f0 00000000 		.word	.LANCHOR43
 744 02f4 00000000 		.word	.LANCHOR44
 745 02f8 00000000 		.word	.LANCHOR46
 746 02fc 00000000 		.word	.LANCHOR45
 747 0300 00000000 		.word	.LANCHOR47
 748 0304 00000000 		.word	.LANCHOR48
 749 0308 00000000 		.word	.LANCHOR28
 750 030c 00000000 		.word	.LANCHOR30
 751 0310 00000000 		.word	.LANCHOR32
 752              		.cfi_endproc
 753              	.LFE4824:
 755              		.section	.text._ZN7daisysp10Oscillator4InitEf,"axG",%progbits,_ZN7daisysp10Oscillator4InitEf,comda
 756              		.align	1
 757              		.p2align 2,,3
 758              		.weak	_ZN7daisysp10Oscillator4InitEf
 759              		.syntax unified
 760              		.thumb
 761              		.thumb_func
 762              		.fpu fpv5-d16
 764              	_ZN7daisysp10Oscillator4InitEf:
 765              	.LVL48:
 766              	.LFB4332:
  50:../../libs/DaisySP/Source/Synthesis/oscillator.h ****     {
 767              		.loc 8 50 10 is_stmt 1 view -0
 768              		.cfi_startproc
 769              		@ args = 0, pretend = 0, frame = 0
 770              		@ frame_needed = 0, uses_anonymous_args = 0
ARM GAS  C:\Users\skipi\AppData\Local\Temp\ccM9ipiF.s 			page 27


  52:../../libs/DaisySP/Source/Synthesis/oscillator.h ****         sr_recip_  = 1.0f / sample_rate;
 771              		.loc 8 52 9 view .LVU203
  50:../../libs/DaisySP/Source/Synthesis/oscillator.h ****     {
 772              		.loc 8 50 10 is_stmt 0 view .LVU204
 773 0000 F0EE407A 		vmov.f32	s15, s0
  55:../../libs/DaisySP/Source/Synthesis/oscillator.h ****         pw_        = 0.5f;
 774              		.loc 8 55 20 view .LVU205
 775 0004 4FF07C53 		mov	r3, #1056964608
  53:../../libs/DaisySP/Source/Synthesis/oscillator.h ****         freq_      = 100.0f;
 776              		.loc 8 53 27 view .LVU206
 777 0008 F7EE006A 		vmov.f32	s13, #1.0e+0
  57:../../libs/DaisySP/Source/Synthesis/oscillator.h ****         phase_inc_ = CalcPhaseInc(freq_);
 778              		.loc 8 57 20 view .LVU207
 779 000c 0022     		movs	r2, #0
  54:../../libs/DaisySP/Source/Synthesis/oscillator.h ****         amp_       = 0.5f;
 780              		.loc 8 54 20 view .LVU208
 781 000e 9FED0C0A 		vldr.32	s0, .L18
 782              	.LVL49:
  55:../../libs/DaisySP/Source/Synthesis/oscillator.h ****         pw_        = 0.5f;
 783              		.loc 8 55 20 view .LVU209
 784 0012 4360     		str	r3, [r0, #4]	@ float
  53:../../libs/DaisySP/Source/Synthesis/oscillator.h ****         freq_      = 100.0f;
 785              		.loc 8 53 27 view .LVU210
 786 0014 86EEA77A 		vdiv.f32	s14, s13, s15
  56:../../libs/DaisySP/Source/Synthesis/oscillator.h ****         phase_     = 0.0f;
 787              		.loc 8 56 20 view .LVU211
 788 0018 C360     		str	r3, [r0, #12]	@ float
  57:../../libs/DaisySP/Source/Synthesis/oscillator.h ****         phase_inc_ = CalcPhaseInc(freq_);
 789              		.loc 8 57 20 view .LVU212
 790 001a 8261     		str	r2, [r0, #24]	@ float
  52:../../libs/DaisySP/Source/Synthesis/oscillator.h ****         sr_recip_  = 1.0f / sample_rate;
 791              		.loc 8 52 20 view .LVU213
 792 001c C0ED047A 		vstr.32	s15, [r0, #16]
  53:../../libs/DaisySP/Source/Synthesis/oscillator.h ****         freq_      = 100.0f;
 793              		.loc 8 53 9 is_stmt 1 view .LVU214
  54:../../libs/DaisySP/Source/Synthesis/oscillator.h ****         amp_       = 0.5f;
 794              		.loc 8 54 20 is_stmt 0 view .LVU215
 795 0020 80ED020A 		vstr.32	s0, [r0, #8]
  50:../../libs/DaisySP/Source/Synthesis/oscillator.h ****     {
 796              		.loc 8 50 10 view .LVU216
 797 0024 10B5     		push	{r4, lr}
 798              		.cfi_def_cfa_offset 8
 799              		.cfi_offset 4, -8
 800              		.cfi_offset 14, -4
  50:../../libs/DaisySP/Source/Synthesis/oscillator.h ****     {
 801              		.loc 8 50 10 view .LVU217
 802 0026 0446     		mov	r4, r0
  53:../../libs/DaisySP/Source/Synthesis/oscillator.h ****         freq_      = 100.0f;
 803              		.loc 8 53 20 view .LVU218
 804 0028 80ED057A 		vstr.32	s14, [r0, #20]
  54:../../libs/DaisySP/Source/Synthesis/oscillator.h ****         amp_       = 0.5f;
 805              		.loc 8 54 9 is_stmt 1 view .LVU219
  55:../../libs/DaisySP/Source/Synthesis/oscillator.h ****         pw_        = 0.5f;
 806              		.loc 8 55 9 view .LVU220
  56:../../libs/DaisySP/Source/Synthesis/oscillator.h ****         phase_     = 0.0f;
 807              		.loc 8 56 9 view .LVU221
  57:../../libs/DaisySP/Source/Synthesis/oscillator.h ****         phase_inc_ = CalcPhaseInc(freq_);
ARM GAS  C:\Users\skipi\AppData\Local\Temp\ccM9ipiF.s 			page 28


 808              		.loc 8 57 9 view .LVU222
  58:../../libs/DaisySP/Source/Synthesis/oscillator.h ****         waveform_  = WAVE_SIN;
 809              		.loc 8 58 9 view .LVU223
  58:../../libs/DaisySP/Source/Synthesis/oscillator.h ****         waveform_  = WAVE_SIN;
 810              		.loc 8 58 34 is_stmt 0 view .LVU224
 811 002c FFF7FEFF 		bl	_ZN7daisysp10Oscillator12CalcPhaseIncEf
 812              	.LVL50:
  59:../../libs/DaisySP/Source/Synthesis/oscillator.h ****         eoc_       = true;
 813              		.loc 8 59 20 view .LVU225
 814 0030 0022     		movs	r2, #0
  61:../../libs/DaisySP/Source/Synthesis/oscillator.h ****     }
 815              		.loc 8 61 20 view .LVU226
 816 0032 40F20113 		movw	r3, #257
  58:../../libs/DaisySP/Source/Synthesis/oscillator.h ****         waveform_  = WAVE_SIN;
 817              		.loc 8 58 20 view .LVU227
 818 0036 84ED070A 		vstr.32	s0, [r4, #28]
  59:../../libs/DaisySP/Source/Synthesis/oscillator.h ****         eoc_       = true;
 819              		.loc 8 59 9 is_stmt 1 view .LVU228
  59:../../libs/DaisySP/Source/Synthesis/oscillator.h ****         eoc_       = true;
 820              		.loc 8 59 20 is_stmt 0 view .LVU229
 821 003a 2270     		strb	r2, [r4]
  60:../../libs/DaisySP/Source/Synthesis/oscillator.h ****         eor_       = true;
 822              		.loc 8 60 9 is_stmt 1 view .LVU230
  61:../../libs/DaisySP/Source/Synthesis/oscillator.h ****     }
 823              		.loc 8 61 9 view .LVU231
  61:../../libs/DaisySP/Source/Synthesis/oscillator.h ****     }
 824              		.loc 8 61 20 is_stmt 0 view .LVU232
 825 003c 2385     		strh	r3, [r4, #40]	@ movhi
  62:../../libs/DaisySP/Source/Synthesis/oscillator.h **** 
 826              		.loc 8 62 5 view .LVU233
 827 003e 10BD     		pop	{r4, pc}
 828              	.LVL51:
 829              	.L19:
  62:../../libs/DaisySP/Source/Synthesis/oscillator.h **** 
 830              		.loc 8 62 5 view .LVU234
 831              		.align	2
 832              	.L18:
 833 0040 0000C842 		.word	1120403456
 834              		.cfi_endproc
 835              	.LFE4332:
 837              		.section	.text._Z8LogScalefff,"ax",%progbits
 838              		.align	1
 839              		.p2align 2,,3
 840              		.global	_Z8LogScalefff
 841              		.syntax unified
 842              		.thumb
 843              		.thumb_func
 844              		.fpu fpv5-d16
 846              	_Z8LogScalefff:
 847              	.LVL52:
 848              	.LFB4814:
 849              		.file 11 "config1.h"
   1:config1.h     **** #include "Ramo.h"       // Library for the Ramo synth
   2:config1.h     **** 
   3:config1.h     **** //\\\\\\\\\\\\\\\\\\\\\\\\\\\\\\\\\\\\\\\\\\\\\\\\\\\\\\\\\\\\\\\\\\\\\\\\\\\\\\\\\\\\\\\\\\\\\\\\\
   4:config1.h     **** //Parametri Oscillatori---------------------Parametri AmpEG-----------------Parametri FilterEG
   5:config1.h     **** uint8_t wf_Pluck[n] = {2,1};                  float amp_env_Pluck;            float filt_env_Pluck;
ARM GAS  C:\Users\skipi\AppData\Local\Temp\ccM9ipiF.s 			page 29


   6:config1.h     **** 
   7:config1.h     **** float ef_Pluck[n] = {1, 1};                                                  float f_EG_pluck = 200
   8:config1.h     **** 
   9:config1.h     **** float g_Pluck[n]  = {0.5f, 0.5f}; 
  10:config1.h     **** 
  11:config1.h     **** float f_Pluck = 440.0f;
  12:config1.h     **** 
  13:config1.h     **** float shape_Pluck; 
  14:config1.h     **** 
  15:config1.h     **** //Parametri LFO-----------------Parametri Filter------------------Gate
  16:config1.h     **** float f_lfo_Pluck = 10;         float ft_pluck = 3000.0f;         bool Gate_Pluck;
  17:config1.h     **** float amp_lfo_Pluck = 0.3;      float res_pluck = 0.1f; // Resonance for filter
  18:config1.h     ****                                 float drive_pluck = 0.5f; // Drive for filter
  19:config1.h     **** //-------------------------------------------------------------------------------------ADSR PLUCK
  20:config1.h     **** float Pluck_Amp_ADSR[4] = {0.05f, 0.27f, 0.0f, 1.0f}; // Attack, Decay, Sustain, Release
  21:config1.h     **** float Pluck_Filter_ADSR[4] = {0.1f, 0.03f, 0.0f, 1.0f}; // Attack, Decay, Sustain, Release
  22:config1.h     **** 
  23:config1.h     **** float mix_amp_Pluck = 0.33;
  24:config1.h     **** 
  25:config1.h     **** 
  26:config1.h     **** 
  27:config1.h     **** //\\\\\\\\\\\\\\\\\\\\\\\\\\\\\\\\\\\\\\\\\\\\\\\\\\\\\\\\\\\\\\\\\\\\\\\\\\\\\\\\\\\\\\\\\\\\\\\\\
  28:config1.h     **** //Parametri Oscillatori---------------------Parametri AmpEG-----------------Parametri FilterEG
  29:config1.h     **** uint8_t wf_Pad[n] = {3,2};                  float amp_env_Pad;              float filt_env_Pad;
  30:config1.h     **** 
  31:config1.h     **** float ef_Pad[n] = {1, 1};                                                   float f_EG_pad = 8000.0
  32:config1.h     **** 
  33:config1.h     **** float g_Pad[n] = {0.5f, 0.5f}; 
  34:config1.h     **** 
  35:config1.h     **** float f_Pad = 220.0f; 
  36:config1.h     **** 
  37:config1.h     **** float shape_Pad;
  38:config1.h     **** 
  39:config1.h     **** //Parametri LFO-----------------Parametri Filter------------------Gate
  40:config1.h     **** float f_lfo_Pad   = 10;         float ft_pad = 500.0f;            bool Gate_Pad;
  41:config1.h     **** float amp_lfo_Pad = 0.3;        float res_pad = 0.1f; 
  42:config1.h     ****                                 float drive_pad = 0.5f; 
  43:config1.h     **** //-------------------------------------------------------------------------------------ADSR PADS
  44:config1.h     **** float Pad_Amp_ADSR[4] = {12.0f, 0.5f, 0.4f, 1.0f}; // Attack, Decay, Sustain, Release
  45:config1.h     **** float Pad_Filter_ADSR[4] = {9.0f, 0.4f, 0.0f, 1.0f}; // Attack, Decay, Sustain, Release
  46:config1.h     **** 
  47:config1.h     **** float mix_amp_Pad = 0.33;
  48:config1.h     **** 
  49:config1.h     **** 
  50:config1.h     **** 
  51:config1.h     **** 
  52:config1.h     **** //\\\\\\\\\\\\\\\\\\\\\\\\\\\\\\\\\\\\\\\\\\\\\\\\\\\\\\\\\\\\\\\\\\\\\\\\\\\\\\\\\\\\\\\\\\\\\\\\\
  53:config1.h     **** //Parametri Oscillatori---------------------Parametri AmpEG-----------------Parametri FilterEG
  54:config1.h     **** 
  55:config1.h     **** uint8_t wf_Bass[n] = {1,3};                 float  amp_env_Bass;            float filt_env_Bass;
  56:config1.h     **** 
  57:config1.h     **** float ef_Bass[n] = {1, 1};                                                  float f_EG_bass = 5000.
  58:config1.h     **** 
  59:config1.h     **** float g_Bass[n] = {0.5f, 0.5f};
  60:config1.h     **** 
  61:config1.h     **** float f_Bass = 55.0f;
  62:config1.h     **** 
ARM GAS  C:\Users\skipi\AppData\Local\Temp\ccM9ipiF.s 			page 30


  63:config1.h     **** float shape_Bass;
  64:config1.h     **** 
  65:config1.h     **** // Parametri LFO-----------------Parametri Filter------------------Gate
  66:config1.h     **** 
  67:config1.h     **** float f_lfo_Bass   = 10;         float ft_bass = 200.0f;            bool Gate_Bass;
  68:config1.h     **** float amp_lfo_Bass = 0.3;        float res_bass = 0.1f; // Resonance for filter
  69:config1.h     ****                                  float drive_bass = 0.5f; // Drive for filter
  70:config1.h     **** //-------------------------------------------------------------------------------------ADSR BASS
  71:config1.h     **** float Bass_Amp_ADSR[4] = {0.15f, 0.5f, 0.75f, 0.33f}; // Attack, Decay, Sustain, Release
  72:config1.h     **** float Bass_Filter_ADSR[4] = {10.0f, 1.0f, 0.6f, 0.5f}; // Attack, Decay, Sustain, Release
  73:config1.h     **** 
  74:config1.h     **** float mix_amp_Bass = 0.33;
  75:config1.h     **** 
  76:config1.h     ****                                             
  77:config1.h     **** 
  78:config1.h     **** 
  79:config1.h     **** //\\\\\\\\\\\\\\\\\\\\\\\\\\\\\\\\\\\\\\\\\\\\\\\\\\\\\\\\\\\\\\\\\\\\\\\\\\\\\\\\\\\\\\\\\\DELAY
  80:config1.h     **** float time;
  81:config1.h     **** float delayTime;
  82:config1.h     **** 
  83:config1.h     **** 
  84:config1.h     **** const float MIN_DELAY = 0.02f;  // 20ms minimo delay
  85:config1.h     **** const float MAX_DELAY = 1.0f;   // 1000ms massimo delay
  86:config1.h     **** 
  87:config1.h     **** float LogScale(float pos, float min_value, float max_value) {
 850              		.loc 11 87 61 is_stmt 1 view -0
 851              		.cfi_startproc
 852              		@ args = 0, pretend = 0, frame = 0
 853              		@ frame_needed = 0, uses_anonymous_args = 0
  88:config1.h     ****     // Implementa una scala logaritmica tra min_value e max_value
  89:config1.h     ****     float min_log = logf(min_value);
 854              		.loc 11 89 5 view .LVU236
  87:config1.h     ****     // Implementa una scala logaritmica tra min_value e max_value
 855              		.loc 11 87 61 is_stmt 0 view .LVU237
 856 0000 08B5     		push	{r3, lr}
 857              		.cfi_def_cfa_offset 8
 858              		.cfi_offset 3, -8
 859              		.cfi_offset 14, -4
 860 0002 2DED048B 		vpush.64	{d8, d9}
 861              		.cfi_def_cfa_offset 24
 862              		.cfi_offset 80, -24
 863              		.cfi_offset 81, -20
 864              		.cfi_offset 82, -16
 865              		.cfi_offset 83, -12
  87:config1.h     ****     // Implementa una scala logaritmica tra min_value e max_value
 866              		.loc 11 87 61 view .LVU238
 867 0006 B0EE419A 		vmov.f32	s18, s2
 868 000a F0EE408A 		vmov.f32	s17, s0
 869              		.loc 11 89 25 view .LVU239
 870 000e B0EE600A 		vmov.f32	s0, s1
 871              	.LVL53:
 872              		.loc 11 89 25 view .LVU240
 873 0012 FFF7FEFF 		bl	logf
 874              	.LVL54:
 875              		.loc 11 89 25 view .LVU241
 876 0016 B0EE408A 		vmov.f32	s16, s0
  90:config1.h     ****     float max_log = logf(max_value);
ARM GAS  C:\Users\skipi\AppData\Local\Temp\ccM9ipiF.s 			page 31


 877              		.loc 11 90 25 view .LVU242
 878 001a B0EE490A 		vmov.f32	s0, s18
 879              	.LVL55:
 880              		.loc 11 90 5 is_stmt 1 view .LVU243
 881              		.loc 11 90 25 is_stmt 0 view .LVU244
 882 001e FFF7FEFF 		bl	logf
 883              	.LVL56:
  91:config1.h     ****     float exp_scale = min_log + (max_log - min_log) * pos;
 884              		.loc 11 91 5 is_stmt 1 view .LVU245
 885              		.loc 11 91 42 is_stmt 0 view .LVU246
 886 0022 30EE480A 		vsub.f32	s0, s0, s16
 887              	.LVL57:
  92:config1.h     ****     return expf(exp_scale);
 888              		.loc 11 92 5 is_stmt 1 view .LVU247
 889              		.loc 11 92 16 is_stmt 0 view .LVU248
 890 0026 A0EE288A 		vfma.f32	s16, s0, s17
 891              	.LVL58:
 892              		.loc 11 92 16 view .LVU249
 893 002a B0EE480A 		vmov.f32	s0, s16
  93:config1.h     **** }
 894              		.loc 11 93 1 view .LVU250
 895 002e BDEC048B 		vldm	sp!, {d8-d9}
 896              		.cfi_restore 82
 897              		.cfi_restore 83
 898              		.cfi_restore 80
 899              		.cfi_restore 81
 900              		.cfi_def_cfa_offset 8
 901              	.LVL59:
 902              		.loc 11 93 1 view .LVU251
 903 0032 BDE80840 		pop	{r3, lr}
 904              		.cfi_restore 14
 905              		.cfi_restore 3
 906              		.cfi_def_cfa_offset 0
  92:config1.h     ****     return expf(exp_scale);
 907              		.loc 11 92 16 view .LVU252
 908 0036 FFF7FEBF 		b	expf
 909              	.LVL60:
  92:config1.h     ****     return expf(exp_scale);
 910              		.loc 11 92 16 view .LVU253
 911              		.cfi_endproc
 912              	.LFE4814:
 914 003a 00BF     		.section	.text._Z7getDatav,"ax",%progbits
 915              		.align	1
 916              		.p2align 2,,3
 917              		.global	_Z7getDatav
 918              		.syntax unified
 919              		.thumb
 920              		.thumb_func
 921              		.fpu fpv5-d16
 923              	_Z7getDatav:
 924              	.LFB4828:
 126:main.cpp      **** 
 127:main.cpp      **** 
 128:main.cpp      **** UartHandler uart;
 129:main.cpp      **** UartHandler::Config config;
 130:main.cpp      **** pentaPianta penta[3]; // Array of pentaPianta objects
 131:main.cpp      **** 
ARM GAS  C:\Users\skipi\AppData\Local\Temp\ccM9ipiF.s 			page 32


 132:main.cpp      **** Effect effect[4]; // Array of Effect objects
 133:main.cpp      **** void getData()
 134:main.cpp      **** {
 925              		.loc 10 134 1 is_stmt 1 view -0
 926              		.cfi_startproc
 927              		@ args = 0, pretend = 0, frame = 8
 928              		@ frame_needed = 0, uses_anonymous_args = 0
 135:main.cpp      **** 	char start_bit = 'S';
 929              		.loc 10 135 2 view .LVU255
 134:main.cpp      **** 	char start_bit = 'S';
 930              		.loc 10 134 1 is_stmt 0 view .LVU256
 931 0000 70B5     		push	{r4, r5, r6, lr}
 932              		.cfi_def_cfa_offset 16
 933              		.cfi_offset 4, -16
 934              		.cfi_offset 5, -12
 935              		.cfi_offset 6, -8
 936              		.cfi_offset 14, -4
 937              		.loc 10 135 7 view .LVU257
 938 0002 5323     		movs	r3, #83
 134:main.cpp      **** 	char start_bit = 'S';
 939              		.loc 10 134 1 view .LVU258
 940 0004 82B0     		sub	sp, sp, #8
 941              		.cfi_def_cfa_offset 24
 942              		.loc 10 135 7 view .LVU259
 943 0006 8DF80330 		strb	r3, [sp, #3]
 136:main.cpp      **** 	uint8_t data[3];
 944              		.loc 10 136 2 is_stmt 1 view .LVU260
 137:main.cpp      **** 	while (start_bit != 'B') // Wait for the start bit
 945              		.loc 10 137 2 view .LVU261
 946              		.loc 10 137 19 view .LVU262
 947              	.L23:
 138:main.cpp      **** 	{
 139:main.cpp      **** 		uart.BlockingReceive((uint8_t*)&start_bit, sizeof(start_bit), 100);
 948              		.loc 10 139 3 view .LVU263
 949              		.loc 10 139 23 is_stmt 0 view .LVU264
 950 000a 6423     		movs	r3, #100
 951 000c 0122     		movs	r2, #1
 952 000e 0DF10301 		add	r1, sp, #3
 953 0012 2148     		ldr	r0, .L32
 954 0014 FFF7FEFF 		bl	_ZN5daisy11UartHandler15BlockingReceiveEPhtm
 955              	.LVL61:
 136:main.cpp      **** 	while (start_bit != 'B') // Wait for the start bit
 956              		.loc 10 136 2 is_stmt 1 view .LVU265
 137:main.cpp      **** 	while (start_bit != 'B') // Wait for the start bit
 957              		.loc 10 137 2 view .LVU266
 137:main.cpp      **** 	while (start_bit != 'B') // Wait for the start bit
 958              		.loc 10 137 19 view .LVU267
 959 0018 9DF80330 		ldrb	r3, [sp, #3]	@ zero_extendqisi2
 960 001c 422B     		cmp	r3, #66
 961 001e F4D1     		bne	.L23
 962 0020 1E4D     		ldr	r5, .L32+4
 963 0022 2C46     		mov	r4, r5
 964 0024 05F13006 		add	r6, r5, #48
 965              	.L25:
 966              	.LBB393:
 140:main.cpp      **** 	}
 141:main.cpp      **** 	for (size_t i = 0; i < 3; i++)
ARM GAS  C:\Users\skipi\AppData\Local\Temp\ccM9ipiF.s 			page 33


 142:main.cpp      **** 	{
 143:main.cpp      **** 		uart.BlockingReceive(data, 3, 100); // Receive 3 bytes of data with a timeout of 1 second
 967              		.loc 10 143 3 view .LVU268
 968              		.loc 10 143 23 is_stmt 0 view .LVU269
 969 0028 6423     		movs	r3, #100
 970 002a 0322     		movs	r2, #3
 971 002c 01A9     		add	r1, sp, #4
 972 002e 1A48     		ldr	r0, .L32
 973 0030 FFF7FEFF 		bl	_ZN5daisy11UartHandler15BlockingReceiveEPhtm
 974              	.LVL62:
 144:main.cpp      **** 		if (data[0] == 0)
 975              		.loc 10 144 3 is_stmt 1 view .LVU270
 145:main.cpp      **** 		{
 146:main.cpp      **** 			penta[i].zeroCount(); // Set the first parameter of pentaPianta object i
 147:main.cpp      **** 		}
 148:main.cpp      **** 		else
 149:main.cpp      **** 		{
 150:main.cpp      **** 			penta[i].incCount();					  // Increment the count of the number of times the sensor has been rea
 976              		.loc 10 150 4 view .LVU271
 977              	.LBB394:
 978              	.LBI394:
 979              		.file 12 "pentaPianta.h"
   1:pentaPianta.h **** //
   2:pentaPianta.h **** // Created by flipb on 06/03/2025.
   3:pentaPianta.h **** //
   4:pentaPianta.h **** 
   5:pentaPianta.h **** #ifndef PENTAPIANTA_H
   6:pentaPianta.h **** #define PENTAPIANTA_H
   7:pentaPianta.h **** #include <stdint.h>
   8:pentaPianta.h **** 
   9:pentaPianta.h **** 
  10:pentaPianta.h **** class pentaPianta {
  11:pentaPianta.h **** public:
  12:pentaPianta.h ****     pentaPianta();
  13:pentaPianta.h ****     pentaPianta(int* soglieI,int f0I);
  14:pentaPianta.h ****     int begin(int* soglieI, int f0I);
  15:pentaPianta.h **** 
  16:pentaPianta.h ****     uint16_t discFreq(uint16_t value);
  17:pentaPianta.h **** 
  18:pentaPianta.h ****     uint16_t analogFreq(uint16_t value);
  19:pentaPianta.h ****     void incCount() { _count++; } //increment the count of the number of times the sensor has been 
 980              		.loc 12 19 10 view .LVU272
 981              	.LBB395:
 982              		.loc 12 19 23 view .LVU273
 983              	.LBE395:
 984              	.LBE394:
 144:main.cpp      **** 		{
 985              		.loc 10 144 3 is_stmt 0 view .LVU274
 986 0034 9DF80430 		ldrb	r3, [sp, #4]	@ zero_extendqisi2
 987              	.LBB397:
 988              	.LBB398:
  20:pentaPianta.h ****     void zeroCount() { _count = 0; } //reset the count of the number of times the sensor has been r
 989              		.loc 12 20 31 view .LVU275
 990 0038 1A46     		mov	r2, r3
 991              	.LBE398:
 992              	.LBE397:
 144:main.cpp      **** 		{
ARM GAS  C:\Users\skipi\AppData\Local\Temp\ccM9ipiF.s 			page 34


 993              		.loc 10 144 3 view .LVU276
 994 003a 0BB1     		cbz	r3, .L24
 995              	.LBB399:
 996              	.LBB396:
  19:pentaPianta.h ****     void zeroCount() { _count = 0; } //reset the count of the number of times the sensor has been r
 997              		.loc 12 19 29 view .LVU277
 998 003c A268     		ldr	r2, [r4, #8]
 999 003e 0132     		adds	r2, r2, #1
 1000              	.L24:
 1001 0040 A260     		str	r2, [r4, #8]
  19:pentaPianta.h ****     void zeroCount() { _count = 0; } //reset the count of the number of times the sensor has been r
 1002              		.loc 12 19 29 view .LVU278
 1003              	.LBE396:
 1004              	.LBE399:
 151:main.cpp      **** 		}
 152:main.cpp      **** 		penta[i].setRawValue(((uint16_t)data[2]<<8)+(uint16_t)data[1]);
 1005              		.loc 10 152 3 is_stmt 1 discriminator 2 view .LVU279
 1006              	.LVL63:
 1007              	.LBB400:
 1008              	.LBI400:
  21:pentaPianta.h ****     uint16_t getRaw() {return _raw_value;}
  22:pentaPianta.h ****     void setRawValue(uint16_t value) { _raw_value = value; } //set the raw value of the sensor
 1009              		.loc 12 22 10 discriminator 2 view .LVU280
 1010              	.LBB401:
 1011              		.loc 12 22 40 discriminator 2 view .LVU281
 1012              	.LBE401:
 1013              	.LBE400:
 141:main.cpp      **** 	{
 1014              		.loc 10 141 23 is_stmt 0 discriminator 2 view .LVU282
 1015 0042 1034     		adds	r4, r4, #16
 1016              		.loc 10 152 41 discriminator 2 view .LVU283
 1017 0044 9DF80610 		ldrb	r1, [sp, #6]	@ zero_extendqisi2
 1018              		.loc 10 152 63 discriminator 2 view .LVU284
 1019 0048 9DF80530 		ldrb	r3, [sp, #5]	@ zero_extendqisi2
 141:main.cpp      **** 	{
 1020              		.loc 10 141 23 discriminator 2 view .LVU285
 1021 004c B442     		cmp	r4, r6
 1022              		.loc 10 152 23 discriminator 2 view .LVU286
 1023 004e 03EB0123 		add	r3, r3, r1, lsl #8
 1024              	.LBB403:
 1025              	.LBB402:
 1026              		.loc 12 22 51 discriminator 2 view .LVU287
 1027 0052 24F8043C 		strh	r3, [r4, #-4]	@ movhi
 1028              	.LVL64:
 1029              		.loc 12 22 51 discriminator 2 view .LVU288
 1030              	.LBE402:
 1031              	.LBE403:
 141:main.cpp      **** 	{
 1032              		.loc 10 141 2 is_stmt 1 discriminator 2 view .LVU289
 141:main.cpp      **** 	{
 1033              		.loc 10 141 23 discriminator 2 view .LVU290
 1034 0056 E7D1     		bne	.L25
 1035 0058 0024     		movs	r4, #0
 1036 005a 114E     		ldr	r6, .L32+8
 1037              	.L26:
 1038              	.LBE393:
 1039              	.LBB404:
ARM GAS  C:\Users\skipi\AppData\Local\Temp\ccM9ipiF.s 			page 35


 153:main.cpp      **** 	}
 154:main.cpp      **** 		for (size_t i = 0; i < 4; i++)
 155:main.cpp      **** 	{
 156:main.cpp      **** 		uart.BlockingReceive(data, 3, 100); // Receive 3 bytes of data with a timeout of 1 second
 1040              		.loc 10 156 3 view .LVU291
 1041              		.loc 10 156 23 is_stmt 0 view .LVU292
 1042 005c 6423     		movs	r3, #100
 1043 005e 0322     		movs	r2, #3
 1044 0060 01A9     		add	r1, sp, #4
 1045 0062 0D48     		ldr	r0, .L32
 1046 0064 FFF7FEFF 		bl	_ZN5daisy11UartHandler15BlockingReceiveEPhtm
 1047              	.LVL65:
 157:main.cpp      **** 		if (data[0] == 0)
 1048              		.loc 10 157 3 is_stmt 1 view .LVU293
 1049 0068 9DF80420 		ldrb	r2, [sp, #4]	@ zero_extendqisi2
 1050 006c 06EB8400 		add	r0, r6, r4, lsl #2
 158:main.cpp      **** 		{
 159:main.cpp      **** 			effect[i].setGate(false); // Set the first parameter of pentaPianta object i
 160:main.cpp      **** 		}
 161:main.cpp      **** 		else
 162:main.cpp      **** 		{
 163:main.cpp      **** 			effect[i].setGate(true);					  // Increment the count of the number of times the sensor has been
 164:main.cpp      **** 		}
 165:main.cpp      **** 		penta[i].setRawValue(((uint16_t)data[2]<<8)+(uint16_t)data[1]);
 1051              		.loc 10 165 41 is_stmt 0 view .LVU294
 1052 0070 9DF806C0 		ldrb	ip, [sp, #6]	@ zero_extendqisi2
 157:main.cpp      **** 		if (data[0] == 0)
 1053              		.loc 10 157 3 view .LVU295
 1054 0074 003A     		subs	r2, r2, #0
 1055              	.LBB405:
 1056              	.LBB406:
 1057              		.loc 12 22 51 view .LVU296
 1058 0076 05EB4401 		add	r1, r5, r4, lsl #1
 1059              	.LBE406:
 1060              	.LBE405:
 1061              		.loc 10 165 63 view .LVU297
 1062 007a 9DF80530 		ldrb	r3, [sp, #5]	@ zero_extendqisi2
 154:main.cpp      **** 	{
 1063              		.loc 10 154 24 view .LVU298
 1064 007e 04F10804 		add	r4, r4, #8
 157:main.cpp      **** 		if (data[0] == 0)
 1065              		.loc 10 157 3 view .LVU299
 1066 0082 18BF     		it	ne
 1067 0084 0122     		movne	r2, #1
 1068              		.loc 10 165 23 view .LVU300
 1069 0086 03EB0C23 		add	r3, r3, ip, lsl #8
 154:main.cpp      **** 	{
 1070              		.loc 10 154 24 view .LVU301
 1071 008a 202C     		cmp	r4, #32
 157:main.cpp      **** 		if (data[0] == 0)
 1072              		.loc 10 157 3 view .LVU302
 1073 008c 0277     		strb	r2, [r0, #28]
 1074              		.loc 10 165 3 is_stmt 1 view .LVU303
 1075              	.LVL66:
 1076              	.LBB408:
 1077              	.LBI405:
 1078              		.loc 12 22 10 view .LVU304
ARM GAS  C:\Users\skipi\AppData\Local\Temp\ccM9ipiF.s 			page 36


 1079              	.LBB407:
 1080              		.loc 12 22 40 view .LVU305
 1081              		.loc 12 22 51 is_stmt 0 view .LVU306
 1082 008e 8B81     		strh	r3, [r1, #12]	@ movhi
 1083              	.LVL67:
 1084              		.loc 12 22 51 view .LVU307
 1085              	.LBE407:
 1086              	.LBE408:
 154:main.cpp      **** 	{
 1087              		.loc 10 154 3 is_stmt 1 view .LVU308
 154:main.cpp      **** 	{
 1088              		.loc 10 154 24 view .LVU309
 1089 0090 E4D1     		bne	.L26
 1090              	.LBE404:
 166:main.cpp      **** 	}
 167:main.cpp      **** }
 1091              		.loc 10 167 1 is_stmt 0 view .LVU310
 1092 0092 02B0     		add	sp, sp, #8
 1093              		.cfi_def_cfa_offset 16
 1094              		@ sp needed
 1095 0094 70BD     		pop	{r4, r5, r6, pc}
 1096              	.L33:
 1097 0096 00BF     		.align	2
 1098              	.L32:
 1099 0098 00000000 		.word	.LANCHOR49
 1100 009c 00000000 		.word	.LANCHOR50
 1101 00a0 00000000 		.word	.LANCHOR51
 1102              		.cfi_endproc
 1103              	.LFE4828:
 1105              		.section	.rodata.main.str1.4,"aMS",%progbits,1
 1106              		.align	2
 1107              	.LC3:
 1108 0000 2070656E 		.ascii	" penta %d : %d\000"
 1108      74612025 
 1108      64203A20 
 1108      256400
 1109 000f 00       		.align	2
 1110              	.LC4:
 1111 0010 65666665 		.ascii	"effect %d gate %f\000"
 1111      63742025 
 1111      64206761 
 1111      74652025 
 1111      6600
 1112 0022 0000     		.align	2
 1113              	.LC5:
 1114 0024 65666665 		.ascii	"effect %d value %f\000"
 1114      63742025 
 1114      64207661 
 1114      6C756520 
 1114      256600
 1115              		.section	.text.startup.main,"ax",%progbits
 1116              		.align	1
 1117              		.p2align 2,,3
 1118              		.global	main
 1119              		.syntax unified
 1120              		.thumb
 1121              		.thumb_func
ARM GAS  C:\Users\skipi\AppData\Local\Temp\ccM9ipiF.s 			page 37


 1122              		.fpu fpv5-d16
 1124              	main:
 1125              	.LFB4829:
 168:main.cpp      **** 
 169:main.cpp      **** 
 170:main.cpp      **** int main() {
 1126              		.loc 10 170 12 is_stmt 1 view -0
 1127              		.cfi_startproc
 1128              		@ args = 0, pretend = 0, frame = 8
 1129              		@ frame_needed = 0, uses_anonymous_args = 0
 171:main.cpp      ****     hw.Configure();                                                             // Hardware configu
 1130              		.loc 10 171 5 view .LVU312
 170:main.cpp      ****     hw.Configure();                                                             // Hardware configu
 1131              		.loc 10 170 12 is_stmt 0 view .LVU313
 1132 0000 2DE9F04F 		push	{r4, r5, r6, r7, r8, r9, r10, fp, lr}
 1133              		.cfi_def_cfa_offset 36
 1134              		.cfi_offset 4, -36
 1135              		.cfi_offset 5, -32
 1136              		.cfi_offset 6, -28
 1137              		.cfi_offset 7, -24
 1138              		.cfi_offset 8, -20
 1139              		.cfi_offset 9, -16
 1140              		.cfi_offset 10, -12
 1141              		.cfi_offset 11, -8
 1142              		.cfi_offset 14, -4
 1143              		.loc 10 171 17 view .LVU314
 1144 0004 C948     		ldr	r0, .L61
 172:main.cpp      ****     hw.Init();                                                                  // Hardware initial
 173:main.cpp      **** 
 174:main.cpp      ****     hw.SetAudioBlockSize(4);                                                    // Set audio block 
 175:main.cpp      ****     hw.SetAudioSampleRate(SaiHandle::Config::SampleRate::SAI_48KHZ);            // Set sample rate 
 176:main.cpp      **** //------------------------------------------------------------------------------Inizializza Ogetti 
 177:main.cpp      ****     Pluck.Init(hw.AudioSampleRate());                                            // Initialize the 
 178:main.cpp      ****     Bass.Init(hw.AudioSampleRate());                                            // Initialize the R
 179:main.cpp      ****     Pad.Init(hw.AudioSampleRate());                                            // Initialize the Ra
 180:main.cpp      **** 
 181:main.cpp      ****     Pluck.SetWaveforms(wf_Pluck);                                                      // Set wavef
 182:main.cpp      ****     Bass.SetWaveforms(wf_Bass);                                                      // Set wavefor
 183:main.cpp      ****     Pad.SetWaveforms(wf_Pad);                                                      // Set waveforms
 184:main.cpp      **** 
 185:main.cpp      ****     Pluck.SetFreq(f_Pluck);                                                       // Set frequency
 186:main.cpp      ****     Bass.SetFreq(f_Bass);                                                       // Set frequency
 187:main.cpp      ****     Pad.SetFreq(f_Pad);                                                       // Set frequency
 188:main.cpp      **** 
 189:main.cpp      ****     Pluck.SetDetune(ef_Pluck);                                                         // Set detun
 190:main.cpp      ****     Bass.SetDetune(ef_Bass);                                                         // Set detune
 191:main.cpp      ****     Pad.SetDetune(ef_Pad);                                                         // Set detune
 192:main.cpp      **** 
 193:main.cpp      ****     Pluck.SetAmp(g_Pluck);                                                             // Set ampli
 194:main.cpp      ****     Bass.SetAmp(g_Bass);                                                             // Set amplitu
 195:main.cpp      ****     Pad.SetAmp(g_Pad);                                                             // Set amplitude
 196:main.cpp      **** 
 197:main.cpp      ****     Pluck.SetShape(0);                                                        // Set shape modulati
 198:main.cpp      ****     Bass.SetShape(0);                                                        // Set shape modulatio
 199:main.cpp      ****     Pad.SetShape(0);                                                        // Set shape modulation
 200:main.cpp      **** //----------------------------------------------------------------------------------Inizializza LFO
 201:main.cpp      ****     lfo_Pluck.Init(hw.AudioSampleRate());                                          // Initialize LF
ARM GAS  C:\Users\skipi\AppData\Local\Temp\ccM9ipiF.s 			page 38


 1145              		.loc 10 201 19 view .LVU315
 1146 0006 CA4E     		ldr	r6, .L61+4
 202:main.cpp      ****     lfo_Bass.Init(hw.AudioSampleRate());                                          // Initialize LFO
 1147              		.loc 10 202 18 view .LVU316
 1148 0008 CA4D     		ldr	r5, .L61+8
 203:main.cpp      ****     lfo_Pad.Init(hw.AudioSampleRate());                                          // Initialize LFO
 1149              		.loc 10 203 17 view .LVU317
 1150 000a CB4C     		ldr	r4, .L61+12
 170:main.cpp      ****     hw.Configure();                                                             // Hardware configu
 1151              		.loc 10 170 12 view .LVU318
 1152 000c 2DED028B 		vpush.64	{d8}
 1153              		.cfi_def_cfa_offset 44
 1154              		.cfi_offset 80, -44
 1155              		.cfi_offset 81, -40
 1156 0010 83B0     		sub	sp, sp, #12
 1157              		.cfi_def_cfa_offset 56
 1158              	.LBB409:
 1159              	.LBB410:
 1160              		.loc 8 76 46 view .LVU319
 1161 0012 B7EE008A 		vmov.f32	s16, #1.0e+0
 1162              	.LBE410:
 1163              	.LBE409:
 171:main.cpp      ****     hw.Init();                                                                  // Hardware initial
 1164              		.loc 10 171 17 view .LVU320
 1165 0016 FFF7FEFF 		bl	_ZN5daisy9DaisySeed9ConfigureEv
 1166              	.LVL68:
 172:main.cpp      **** 
 1167              		.loc 10 172 5 is_stmt 1 view .LVU321
 172:main.cpp      **** 
 1168              		.loc 10 172 12 is_stmt 0 view .LVU322
 1169 001a 0021     		movs	r1, #0
 1170 001c C348     		ldr	r0, .L61
 1171 001e FFF7FEFF 		bl	_ZN5daisy9DaisySeed4InitEb
 1172              	.LVL69:
 174:main.cpp      ****     hw.SetAudioSampleRate(SaiHandle::Config::SampleRate::SAI_48KHZ);            // Set sample rate 
 1173              		.loc 10 174 5 is_stmt 1 view .LVU323
 174:main.cpp      ****     hw.SetAudioSampleRate(SaiHandle::Config::SampleRate::SAI_48KHZ);            // Set sample rate 
 1174              		.loc 10 174 25 is_stmt 0 view .LVU324
 1175 0022 0421     		movs	r1, #4
 1176 0024 C148     		ldr	r0, .L61
 1177 0026 FFF7FEFF 		bl	_ZN5daisy9DaisySeed17SetAudioBlockSizeEj
 1178              	.LVL70:
 175:main.cpp      **** //------------------------------------------------------------------------------Inizializza Ogetti 
 1179              		.loc 10 175 5 is_stmt 1 view .LVU325
 175:main.cpp      **** //------------------------------------------------------------------------------Inizializza Ogetti 
 1180              		.loc 10 175 26 is_stmt 0 view .LVU326
 1181 002a 0321     		movs	r1, #3
 1182 002c BF48     		ldr	r0, .L61
 1183 002e FFF7FEFF 		bl	_ZN5daisy9DaisySeed18SetAudioSampleRateENS_9SaiHandle6Config10SampleRateE
 1184              	.LVL71:
 177:main.cpp      ****     Bass.Init(hw.AudioSampleRate());                                            // Initialize the R
 1185              		.loc 10 177 5 is_stmt 1 view .LVU327
 177:main.cpp      ****     Bass.Init(hw.AudioSampleRate());                                            // Initialize the R
 1186              		.loc 10 177 15 is_stmt 0 view .LVU328
 1187 0032 BE48     		ldr	r0, .L61
 1188 0034 FFF7FEFF 		bl	_ZN5daisy9DaisySeed15AudioSampleRateEv
 1189              	.LVL72:
ARM GAS  C:\Users\skipi\AppData\Local\Temp\ccM9ipiF.s 			page 39


 1190 0038 C048     		ldr	r0, .L61+16
 1191 003a FFF7FEFF 		bl	_ZN4Ramo4InitEf
 1192              	.LVL73:
 178:main.cpp      ****     Pad.Init(hw.AudioSampleRate());                                            // Initialize the Ra
 1193              		.loc 10 178 5 is_stmt 1 view .LVU329
 178:main.cpp      ****     Pad.Init(hw.AudioSampleRate());                                            // Initialize the Ra
 1194              		.loc 10 178 14 is_stmt 0 view .LVU330
 1195 003e BB48     		ldr	r0, .L61
 1196 0040 FFF7FEFF 		bl	_ZN5daisy9DaisySeed15AudioSampleRateEv
 1197              	.LVL74:
 1198 0044 BE48     		ldr	r0, .L61+20
 1199 0046 FFF7FEFF 		bl	_ZN4Ramo4InitEf
 1200              	.LVL75:
 179:main.cpp      **** 
 1201              		.loc 10 179 5 is_stmt 1 view .LVU331
 179:main.cpp      **** 
 1202              		.loc 10 179 13 is_stmt 0 view .LVU332
 1203 004a B848     		ldr	r0, .L61
 1204 004c FFF7FEFF 		bl	_ZN5daisy9DaisySeed15AudioSampleRateEv
 1205              	.LVL76:
 1206 0050 BC48     		ldr	r0, .L61+24
 1207 0052 FFF7FEFF 		bl	_ZN4Ramo4InitEf
 1208              	.LVL77:
 181:main.cpp      ****     Bass.SetWaveforms(wf_Bass);                                                      // Set wavefor
 1209              		.loc 10 181 5 is_stmt 1 view .LVU333
 181:main.cpp      ****     Bass.SetWaveforms(wf_Bass);                                                      // Set wavefor
 1210              		.loc 10 181 23 is_stmt 0 view .LVU334
 1211 0056 BC49     		ldr	r1, .L61+28
 1212 0058 B848     		ldr	r0, .L61+16
 1213 005a FFF7FEFF 		bl	_ZN4Ramo12SetWaveformsEPh
 1214              	.LVL78:
 182:main.cpp      ****     Pad.SetWaveforms(wf_Pad);                                                      // Set waveforms
 1215              		.loc 10 182 5 is_stmt 1 view .LVU335
 182:main.cpp      ****     Pad.SetWaveforms(wf_Pad);                                                      // Set waveforms
 1216              		.loc 10 182 22 is_stmt 0 view .LVU336
 1217 005e BB49     		ldr	r1, .L61+32
 1218 0060 B748     		ldr	r0, .L61+20
 1219 0062 FFF7FEFF 		bl	_ZN4Ramo12SetWaveformsEPh
 1220              	.LVL79:
 183:main.cpp      **** 
 1221              		.loc 10 183 5 is_stmt 1 view .LVU337
 183:main.cpp      **** 
 1222              		.loc 10 183 21 is_stmt 0 view .LVU338
 1223 0066 BA49     		ldr	r1, .L61+36
 1224 0068 B648     		ldr	r0, .L61+24
 1225 006a FFF7FEFF 		bl	_ZN4Ramo12SetWaveformsEPh
 1226              	.LVL80:
 185:main.cpp      ****     Bass.SetFreq(f_Bass);                                                       // Set frequency
 1227              		.loc 10 185 5 is_stmt 1 view .LVU339
 185:main.cpp      ****     Bass.SetFreq(f_Bass);                                                       // Set frequency
 1228              		.loc 10 185 18 is_stmt 0 view .LVU340
 1229 006e B94B     		ldr	r3, .L61+40
 1230 0070 B248     		ldr	r0, .L61+16
 1231 0072 93ED000A 		vldr.32	s0, [r3]
 1232 0076 FFF7FEFF 		bl	_ZN4Ramo7SetFreqEf
 1233              	.LVL81:
 186:main.cpp      ****     Pad.SetFreq(f_Pad);                                                       // Set frequency
ARM GAS  C:\Users\skipi\AppData\Local\Temp\ccM9ipiF.s 			page 40


 1234              		.loc 10 186 5 is_stmt 1 view .LVU341
 186:main.cpp      ****     Pad.SetFreq(f_Pad);                                                       // Set frequency
 1235              		.loc 10 186 17 is_stmt 0 view .LVU342
 1236 007a B74B     		ldr	r3, .L61+44
 1237 007c B048     		ldr	r0, .L61+20
 1238 007e 93ED000A 		vldr.32	s0, [r3]
 1239 0082 FFF7FEFF 		bl	_ZN4Ramo7SetFreqEf
 1240              	.LVL82:
 187:main.cpp      **** 
 1241              		.loc 10 187 5 is_stmt 1 view .LVU343
 187:main.cpp      **** 
 1242              		.loc 10 187 16 is_stmt 0 view .LVU344
 1243 0086 B54B     		ldr	r3, .L61+48
 1244 0088 AE48     		ldr	r0, .L61+24
 1245 008a 93ED000A 		vldr.32	s0, [r3]
 1246 008e FFF7FEFF 		bl	_ZN4Ramo7SetFreqEf
 1247              	.LVL83:
 189:main.cpp      ****     Bass.SetDetune(ef_Bass);                                                         // Set detune
 1248              		.loc 10 189 5 is_stmt 1 view .LVU345
 189:main.cpp      ****     Bass.SetDetune(ef_Bass);                                                         // Set detune
 1249              		.loc 10 189 20 is_stmt 0 view .LVU346
 1250 0092 B349     		ldr	r1, .L61+52
 1251 0094 A948     		ldr	r0, .L61+16
 1252 0096 FFF7FEFF 		bl	_ZN4Ramo9SetDetuneEPf
 1253              	.LVL84:
 190:main.cpp      ****     Pad.SetDetune(ef_Pad);                                                         // Set detune
 1254              		.loc 10 190 5 is_stmt 1 view .LVU347
 190:main.cpp      ****     Pad.SetDetune(ef_Pad);                                                         // Set detune
 1255              		.loc 10 190 19 is_stmt 0 view .LVU348
 1256 009a B249     		ldr	r1, .L61+56
 1257 009c A848     		ldr	r0, .L61+20
 1258 009e FFF7FEFF 		bl	_ZN4Ramo9SetDetuneEPf
 1259              	.LVL85:
 191:main.cpp      **** 
 1260              		.loc 10 191 5 is_stmt 1 view .LVU349
 191:main.cpp      **** 
 1261              		.loc 10 191 18 is_stmt 0 view .LVU350
 1262 00a2 B149     		ldr	r1, .L61+60
 1263 00a4 A748     		ldr	r0, .L61+24
 1264 00a6 FFF7FEFF 		bl	_ZN4Ramo9SetDetuneEPf
 1265              	.LVL86:
 193:main.cpp      ****     Bass.SetAmp(g_Bass);                                                             // Set amplitu
 1266              		.loc 10 193 5 is_stmt 1 view .LVU351
 193:main.cpp      ****     Bass.SetAmp(g_Bass);                                                             // Set amplitu
 1267              		.loc 10 193 17 is_stmt 0 view .LVU352
 1268 00aa B049     		ldr	r1, .L61+64
 1269 00ac A348     		ldr	r0, .L61+16
 1270 00ae FFF7FEFF 		bl	_ZN4Ramo6SetAmpEPf
 1271              	.LVL87:
 194:main.cpp      ****     Pad.SetAmp(g_Pad);                                                             // Set amplitude
 1272              		.loc 10 194 5 is_stmt 1 view .LVU353
 194:main.cpp      ****     Pad.SetAmp(g_Pad);                                                             // Set amplitude
 1273              		.loc 10 194 16 is_stmt 0 view .LVU354
 1274 00b2 AF49     		ldr	r1, .L61+68
 1275 00b4 A248     		ldr	r0, .L61+20
 1276 00b6 FFF7FEFF 		bl	_ZN4Ramo6SetAmpEPf
 1277              	.LVL88:
ARM GAS  C:\Users\skipi\AppData\Local\Temp\ccM9ipiF.s 			page 41


 195:main.cpp      **** 
 1278              		.loc 10 195 5 is_stmt 1 view .LVU355
 195:main.cpp      **** 
 1279              		.loc 10 195 15 is_stmt 0 view .LVU356
 1280 00ba AE49     		ldr	r1, .L61+72
 1281 00bc A148     		ldr	r0, .L61+24
 1282 00be FFF7FEFF 		bl	_ZN4Ramo6SetAmpEPf
 1283              	.LVL89:
 197:main.cpp      ****     Bass.SetShape(0);                                                        // Set shape modulatio
 1284              		.loc 10 197 5 is_stmt 1 view .LVU357
 197:main.cpp      ****     Bass.SetShape(0);                                                        // Set shape modulatio
 1285              		.loc 10 197 19 is_stmt 0 view .LVU358
 1286 00c2 9FEDAD0A 		vldr.32	s0, .L61+76
 1287 00c6 9D48     		ldr	r0, .L61+16
 1288 00c8 FFF7FEFF 		bl	_ZN4Ramo8SetShapeEf
 1289              	.LVL90:
 198:main.cpp      ****     Pad.SetShape(0);                                                        // Set shape modulation
 1290              		.loc 10 198 5 is_stmt 1 view .LVU359
 198:main.cpp      ****     Pad.SetShape(0);                                                        // Set shape modulation
 1291              		.loc 10 198 18 is_stmt 0 view .LVU360
 1292 00cc 9FEDAA0A 		vldr.32	s0, .L61+76
 1293 00d0 9B48     		ldr	r0, .L61+20
 1294 00d2 FFF7FEFF 		bl	_ZN4Ramo8SetShapeEf
 1295              	.LVL91:
 199:main.cpp      **** //----------------------------------------------------------------------------------Inizializza LFO
 1296              		.loc 10 199 5 is_stmt 1 view .LVU361
 199:main.cpp      **** //----------------------------------------------------------------------------------Inizializza LFO
 1297              		.loc 10 199 17 is_stmt 0 view .LVU362
 1298 00d6 9FEDA80A 		vldr.32	s0, .L61+76
 1299 00da 9A48     		ldr	r0, .L61+24
 1300 00dc FFF7FEFF 		bl	_ZN4Ramo8SetShapeEf
 1301              	.LVL92:
 201:main.cpp      ****     lfo_Bass.Init(hw.AudioSampleRate());                                          // Initialize LFO
 1302              		.loc 10 201 5 is_stmt 1 view .LVU363
 201:main.cpp      ****     lfo_Bass.Init(hw.AudioSampleRate());                                          // Initialize LFO
 1303              		.loc 10 201 19 is_stmt 0 view .LVU364
 1304 00e0 9248     		ldr	r0, .L61
 1305 00e2 FFF7FEFF 		bl	_ZN5daisy9DaisySeed15AudioSampleRateEv
 1306              	.LVL93:
 1307 00e6 3046     		mov	r0, r6
 1308 00e8 FFF7FEFF 		bl	_ZN7daisysp10Oscillator4InitEf
 1309              	.LVL94:
 202:main.cpp      ****     lfo_Pad.Init(hw.AudioSampleRate());                                          // Initialize LFO
 1310              		.loc 10 202 5 is_stmt 1 view .LVU365
 202:main.cpp      ****     lfo_Pad.Init(hw.AudioSampleRate());                                          // Initialize LFO
 1311              		.loc 10 202 18 is_stmt 0 view .LVU366
 1312 00ec 8F48     		ldr	r0, .L61
 1313 00ee FFF7FEFF 		bl	_ZN5daisy9DaisySeed15AudioSampleRateEv
 1314              	.LVL95:
 1315 00f2 2846     		mov	r0, r5
 1316 00f4 FFF7FEFF 		bl	_ZN7daisysp10Oscillator4InitEf
 1317              	.LVL96:
 1318              		.loc 10 203 5 is_stmt 1 view .LVU367
 1319              		.loc 10 203 17 is_stmt 0 view .LVU368
 1320 00f8 8C48     		ldr	r0, .L61
 1321 00fa FFF7FEFF 		bl	_ZN5daisy9DaisySeed15AudioSampleRateEv
 1322              	.LVL97:
ARM GAS  C:\Users\skipi\AppData\Local\Temp\ccM9ipiF.s 			page 42


 1323 00fe 2046     		mov	r0, r4
 1324 0100 FFF7FEFF 		bl	_ZN7daisysp10Oscillator4InitEf
 1325              	.LVL98:
 204:main.cpp      **** 
 205:main.cpp      ****     lfo_Pluck.SetWaveform(Oscillator::WAVE_SIN);                                 // Set LFO wavefor
 1326              		.loc 10 205 5 is_stmt 1 view .LVU369
 1327              	.LBB413:
 1328              	.LBI413:
  77:../../libs/DaisySP/Source/Synthesis/oscillator.h ****     /** Sets the waveform to be synthesized by the Process() function.
  78:../../libs/DaisySP/Source/Synthesis/oscillator.h ****     */
  79:../../libs/DaisySP/Source/Synthesis/oscillator.h ****     inline void SetWaveform(const uint8_t wf)
 1329              		.loc 8 79 17 view .LVU370
 1330              	.LBB414:
  80:../../libs/DaisySP/Source/Synthesis/oscillator.h ****     {
  81:../../libs/DaisySP/Source/Synthesis/oscillator.h ****         waveform_ = wf < WAVE_LAST ? wf : WAVE_SIN;
 1331              		.loc 8 81 9 view .LVU371
 1332              	.LBE414:
 1333              	.LBE413:
 206:main.cpp      ****     lfo_Bass.SetWaveform(Oscillator::WAVE_SIN);                                 // Set LFO waveform
 207:main.cpp      ****     lfo_Pad.SetWaveform(Oscillator::WAVE_SIN);                                 // Set LFO waveform
 208:main.cpp      **** 
 209:main.cpp      ****     lfo_Pluck.SetFreq(f_lfo_Pluck);                                                    // Set LFO f
 1334              		.loc 10 209 22 is_stmt 0 view .LVU372
 1335 0104 9D4B     		ldr	r3, .L61+80
 1336              	.LBB417:
 1337              	.LBB418:
  70:../../libs/DaisySP/Source/Synthesis/oscillator.h ****     }
 1338              		.loc 8 70 34 view .LVU373
 1339 0106 3046     		mov	r0, r6
 1340              	.LBE418:
 1341              	.LBE417:
 1342              		.loc 10 209 22 view .LVU374
 1343 0108 93ED000A 		vldr.32	s0, [r3]
 1344              	.LBB422:
 1345              	.LBB415:
 1346              		.loc 8 81 19 view .LVU375
 1347 010c 0023     		movs	r3, #0
 1348              	.LBE415:
 1349              	.LBE422:
 1350              	.LBB423:
 1351              	.LBB419:
  69:../../libs/DaisySP/Source/Synthesis/oscillator.h ****         phase_inc_ = CalcPhaseInc(f);
 1352              		.loc 8 69 20 view .LVU376
 1353 010e 86ED020A 		vstr.32	s0, [r6, #8]
 1354              	.LBE419:
 1355              	.LBE423:
 1356              	.LBB424:
 1357              	.LBB416:
 1358              		.loc 8 81 19 view .LVU377
 1359 0112 3370     		strb	r3, [r6]
 1360              	.LVL99:
 1361              		.loc 8 81 19 view .LVU378
 1362              	.LBE416:
 1363              	.LBE424:
 206:main.cpp      ****     lfo_Bass.SetWaveform(Oscillator::WAVE_SIN);                                 // Set LFO waveform
 1364              		.loc 10 206 5 is_stmt 1 view .LVU379
 1365              	.LBB425:
ARM GAS  C:\Users\skipi\AppData\Local\Temp\ccM9ipiF.s 			page 43


 1366              	.LBI425:
  79:../../libs/DaisySP/Source/Synthesis/oscillator.h ****     {
 1367              		.loc 8 79 17 view .LVU380
 1368              	.LBB426:
 1369              		.loc 8 81 9 view .LVU381
 1370              		.loc 8 81 19 is_stmt 0 view .LVU382
 1371 0114 2B70     		strb	r3, [r5]
 1372              	.LVL100:
 1373              		.loc 8 81 19 view .LVU383
 1374              	.LBE426:
 1375              	.LBE425:
 207:main.cpp      **** 
 1376              		.loc 10 207 5 is_stmt 1 view .LVU384
 1377              	.LBB427:
 1378              	.LBI427:
  79:../../libs/DaisySP/Source/Synthesis/oscillator.h ****     {
 1379              		.loc 8 79 17 view .LVU385
 1380              	.LBB428:
 1381              		.loc 8 81 9 view .LVU386
 1382              		.loc 8 81 19 is_stmt 0 view .LVU387
 1383 0116 2370     		strb	r3, [r4]
 1384              	.LVL101:
 1385              		.loc 8 81 19 view .LVU388
 1386              	.LBE428:
 1387              	.LBE427:
 1388              		.loc 10 209 5 is_stmt 1 view .LVU389
 1389              	.LBB429:
 1390              	.LBI417:
  67:../../libs/DaisySP/Source/Synthesis/oscillator.h ****     {
 1391              		.loc 8 67 17 view .LVU390
 1392              	.LBB420:
  69:../../libs/DaisySP/Source/Synthesis/oscillator.h ****         phase_inc_ = CalcPhaseInc(f);
 1393              		.loc 8 69 9 view .LVU391
  70:../../libs/DaisySP/Source/Synthesis/oscillator.h ****     }
 1394              		.loc 8 70 9 view .LVU392
  70:../../libs/DaisySP/Source/Synthesis/oscillator.h ****     }
 1395              		.loc 8 70 34 is_stmt 0 view .LVU393
 1396 0118 FFF7FEFF 		bl	_ZN7daisysp10Oscillator12CalcPhaseIncEf
 1397              	.LVL102:
  70:../../libs/DaisySP/Source/Synthesis/oscillator.h ****     }
 1398              		.loc 8 70 34 view .LVU394
 1399              	.LBE420:
 1400              	.LBE429:
 210:main.cpp      ****     lfo_Bass.SetFreq(f_lfo_Bass);                                                    // Set LFO fre
 1401              		.loc 10 210 21 view .LVU395
 1402 011c 984B     		ldr	r3, .L61+84
 1403              	.LBB430:
 1404              	.LBB431:
  70:../../libs/DaisySP/Source/Synthesis/oscillator.h ****     }
 1405              		.loc 8 70 34 view .LVU396
 1406 011e 2846     		mov	r0, r5
 1407              	.LBE431:
 1408              	.LBE430:
 1409              	.LBB434:
 1410              	.LBB421:
  70:../../libs/DaisySP/Source/Synthesis/oscillator.h ****     }
 1411              		.loc 8 70 20 view .LVU397
ARM GAS  C:\Users\skipi\AppData\Local\Temp\ccM9ipiF.s 			page 44


 1412 0120 86ED070A 		vstr.32	s0, [r6, #28]
 1413              	.LVL103:
  70:../../libs/DaisySP/Source/Synthesis/oscillator.h ****     }
 1414              		.loc 8 70 20 view .LVU398
 1415              	.LBE421:
 1416              	.LBE434:
 1417              		.loc 10 210 5 is_stmt 1 view .LVU399
 1418              		.loc 10 210 21 is_stmt 0 view .LVU400
 1419 0124 93ED000A 		vldr.32	s0, [r3]
 1420              	.LVL104:
 1421              	.LBB435:
 1422              	.LBI430:
  67:../../libs/DaisySP/Source/Synthesis/oscillator.h ****     {
 1423              		.loc 8 67 17 is_stmt 1 view .LVU401
 1424              	.LBB432:
  69:../../libs/DaisySP/Source/Synthesis/oscillator.h ****         phase_inc_ = CalcPhaseInc(f);
 1425              		.loc 8 69 9 view .LVU402
  69:../../libs/DaisySP/Source/Synthesis/oscillator.h ****         phase_inc_ = CalcPhaseInc(f);
 1426              		.loc 8 69 20 is_stmt 0 view .LVU403
 1427 0128 85ED020A 		vstr.32	s0, [r5, #8]
  70:../../libs/DaisySP/Source/Synthesis/oscillator.h ****     }
 1428              		.loc 8 70 9 is_stmt 1 view .LVU404
  70:../../libs/DaisySP/Source/Synthesis/oscillator.h ****     }
 1429              		.loc 8 70 34 is_stmt 0 view .LVU405
 1430 012c FFF7FEFF 		bl	_ZN7daisysp10Oscillator12CalcPhaseIncEf
 1431              	.LVL105:
  70:../../libs/DaisySP/Source/Synthesis/oscillator.h ****     }
 1432              		.loc 8 70 34 view .LVU406
 1433              	.LBE432:
 1434              	.LBE435:
 211:main.cpp      ****     lfo_Pad.SetFreq(f_lfo_Pad);                                                    // Set LFO frequ
 1435              		.loc 10 211 20 view .LVU407
 1436 0130 944B     		ldr	r3, .L61+88
 1437              	.LBB436:
 1438              	.LBB437:
  70:../../libs/DaisySP/Source/Synthesis/oscillator.h ****     }
 1439              		.loc 8 70 34 view .LVU408
 1440 0132 2046     		mov	r0, r4
 1441              	.LBE437:
 1442              	.LBE436:
 1443              	.LBB440:
 1444              	.LBB433:
  70:../../libs/DaisySP/Source/Synthesis/oscillator.h ****     }
 1445              		.loc 8 70 20 view .LVU409
 1446 0134 85ED070A 		vstr.32	s0, [r5, #28]
 1447              	.LVL106:
  70:../../libs/DaisySP/Source/Synthesis/oscillator.h ****     }
 1448              		.loc 8 70 20 view .LVU410
 1449              	.LBE433:
 1450              	.LBE440:
 1451              		.loc 10 211 5 is_stmt 1 view .LVU411
 1452              		.loc 10 211 20 is_stmt 0 view .LVU412
 1453 0138 93ED000A 		vldr.32	s0, [r3]
 1454              	.LVL107:
 1455              	.LBB441:
 1456              	.LBI436:
  67:../../libs/DaisySP/Source/Synthesis/oscillator.h ****     {
ARM GAS  C:\Users\skipi\AppData\Local\Temp\ccM9ipiF.s 			page 45


 1457              		.loc 8 67 17 is_stmt 1 view .LVU413
 1458              	.LBB438:
  69:../../libs/DaisySP/Source/Synthesis/oscillator.h ****         phase_inc_ = CalcPhaseInc(f);
 1459              		.loc 8 69 9 view .LVU414
  69:../../libs/DaisySP/Source/Synthesis/oscillator.h ****         phase_inc_ = CalcPhaseInc(f);
 1460              		.loc 8 69 20 is_stmt 0 view .LVU415
 1461 013c 84ED020A 		vstr.32	s0, [r4, #8]
  70:../../libs/DaisySP/Source/Synthesis/oscillator.h ****     }
 1462              		.loc 8 70 9 is_stmt 1 view .LVU416
  70:../../libs/DaisySP/Source/Synthesis/oscillator.h ****     }
 1463              		.loc 8 70 34 is_stmt 0 view .LVU417
 1464 0140 FFF7FEFF 		bl	_ZN7daisysp10Oscillator12CalcPhaseIncEf
 1465              	.LVL108:
  70:../../libs/DaisySP/Source/Synthesis/oscillator.h ****     }
 1466              		.loc 8 70 34 view .LVU418
 1467              	.LBE438:
 1468              	.LBE441:
 212:main.cpp      **** 
 213:main.cpp      ****     lfo_Pluck.SetAmp(1);                                                    // Set LFO amplitude
 214:main.cpp      ****     lfo_Bass.SetAmp(1);                                                    // Set LFO amplitude
 215:main.cpp      ****     lfo_Pad.SetAmp(1);                                                    // Set LFO amplitude
 216:main.cpp      **** 
 217:main.cpp      **** //-----------------------------------------------------------------------------Inizializza AMP ADSR
 218:main.cpp      ****     AmpEnv_Pluck.Init(hw.AudioSampleRate());                                       // Initialize en
 1469              		.loc 10 218 22 view .LVU419
 1470 0144 7948     		ldr	r0, .L61
 1471              	.LBB442:
 1472              	.LBB411:
  76:../../libs/DaisySP/Source/Synthesis/oscillator.h ****     /** Sets the waveform to be synthesized by the Process() function.
 1473              		.loc 8 76 46 view .LVU420
 1474 0146 86ED018A 		vstr.32	s16, [r6, #4]
 1475              	.LBE411:
 1476              	.LBE442:
 1477              	.LBB443:
 1478              	.LBB444:
 1479 014a 85ED018A 		vstr.32	s16, [r5, #4]
 1480              	.LBE444:
 1481              	.LBE443:
 1482              	.LBB446:
 1483              	.LBB439:
  70:../../libs/DaisySP/Source/Synthesis/oscillator.h ****     }
 1484              		.loc 8 70 20 view .LVU421
 1485 014e 84ED070A 		vstr.32	s0, [r4, #28]
 1486              	.LVL109:
  70:../../libs/DaisySP/Source/Synthesis/oscillator.h ****     }
 1487              		.loc 8 70 20 view .LVU422
 1488              	.LBE439:
 1489              	.LBE446:
 213:main.cpp      ****     lfo_Bass.SetAmp(1);                                                    // Set LFO amplitude
 1490              		.loc 10 213 5 is_stmt 1 view .LVU423
 1491              	.LBB447:
 1492              	.LBI409:
  76:../../libs/DaisySP/Source/Synthesis/oscillator.h ****     /** Sets the waveform to be synthesized by the Process() function.
 1493              		.loc 8 76 17 view .LVU424
 1494              	.LBB412:
  76:../../libs/DaisySP/Source/Synthesis/oscillator.h ****     /** Sets the waveform to be synthesized by the Process() function.
 1495              		.loc 8 76 41 view .LVU425
ARM GAS  C:\Users\skipi\AppData\Local\Temp\ccM9ipiF.s 			page 46


  76:../../libs/DaisySP/Source/Synthesis/oscillator.h ****     /** Sets the waveform to be synthesized by the Process() function.
 1496              		.loc 8 76 41 is_stmt 0 view .LVU426
 1497              	.LBE412:
 1498              	.LBE447:
 214:main.cpp      ****     lfo_Pad.SetAmp(1);                                                    // Set LFO amplitude
 1499              		.loc 10 214 5 is_stmt 1 view .LVU427
 1500              	.LBB448:
 1501              	.LBI443:
  76:../../libs/DaisySP/Source/Synthesis/oscillator.h ****     /** Sets the waveform to be synthesized by the Process() function.
 1502              		.loc 8 76 17 view .LVU428
 1503              	.LBB445:
  76:../../libs/DaisySP/Source/Synthesis/oscillator.h ****     /** Sets the waveform to be synthesized by the Process() function.
 1504              		.loc 8 76 41 view .LVU429
  76:../../libs/DaisySP/Source/Synthesis/oscillator.h ****     /** Sets the waveform to be synthesized by the Process() function.
 1505              		.loc 8 76 41 is_stmt 0 view .LVU430
 1506              	.LBE445:
 1507              	.LBE448:
 215:main.cpp      **** 
 1508              		.loc 10 215 5 is_stmt 1 view .LVU431
 1509              	.LBB449:
 1510              	.LBI449:
  76:../../libs/DaisySP/Source/Synthesis/oscillator.h ****     /** Sets the waveform to be synthesized by the Process() function.
 1511              		.loc 8 76 17 view .LVU432
 1512              	.LBB450:
  76:../../libs/DaisySP/Source/Synthesis/oscillator.h ****     /** Sets the waveform to be synthesized by the Process() function.
 1513              		.loc 8 76 41 view .LVU433
  76:../../libs/DaisySP/Source/Synthesis/oscillator.h ****     /** Sets the waveform to be synthesized by the Process() function.
 1514              		.loc 8 76 46 is_stmt 0 view .LVU434
 1515 0152 84ED018A 		vstr.32	s16, [r4, #4]
 1516              	.LVL110:
  76:../../libs/DaisySP/Source/Synthesis/oscillator.h ****     /** Sets the waveform to be synthesized by the Process() function.
 1517              		.loc 8 76 46 view .LVU435
 1518              	.LBE450:
 1519              	.LBE449:
 1520              		.loc 10 218 5 is_stmt 1 view .LVU436
 1521              		.loc 10 218 22 is_stmt 0 view .LVU437
 1522 0156 FFF7FEFF 		bl	_ZN5daisy9DaisySeed15AudioSampleRateEv
 1523              	.LVL111:
 1524 015a 0121     		movs	r1, #1
 1525 015c 8A48     		ldr	r0, .L61+92
 1526 015e FFF7FEFF 		bl	_ZN7daisysp4Adsr4InitEfi
 1527              	.LVL112:
 219:main.cpp      ****     AmpEnv_Bass.Init(hw.AudioSampleRate());                                       // Initialize env
 1528              		.loc 10 219 5 is_stmt 1 view .LVU438
 1529              		.loc 10 219 21 is_stmt 0 view .LVU439
 1530 0162 7248     		ldr	r0, .L61
 1531 0164 FFF7FEFF 		bl	_ZN5daisy9DaisySeed15AudioSampleRateEv
 1532              	.LVL113:
 1533 0168 0121     		movs	r1, #1
 1534 016a 8848     		ldr	r0, .L61+96
 1535 016c FFF7FEFF 		bl	_ZN7daisysp4Adsr4InitEfi
 1536              	.LVL114:
 220:main.cpp      ****     AmpEnv_Pad.Init(hw.AudioSampleRate());                                       // Initialize enve
 1537              		.loc 10 220 5 is_stmt 1 view .LVU440
 221:main.cpp      **** 
 222:main.cpp      ****     AmpEnv_Pluck.SetTime(ADSR_SEG_ATTACK, Pluck_Amp_ADSR[0]);                                  // S
 1538              		.loc 10 222 25 is_stmt 0 view .LVU441
ARM GAS  C:\Users\skipi\AppData\Local\Temp\ccM9ipiF.s 			page 47


 1539 0170 874E     		ldr	r6, .L61+100
 220:main.cpp      ****     AmpEnv_Pad.Init(hw.AudioSampleRate());                                       // Initialize enve
 1540              		.loc 10 220 20 view .LVU442
 1541 0172 6E48     		ldr	r0, .L61
 1542 0174 FFF7FEFF 		bl	_ZN5daisy9DaisySeed15AudioSampleRateEv
 1543              	.LVL115:
 223:main.cpp      ****     AmpEnv_Bass.SetTime(ADSR_SEG_ATTACK, Bass_Amp_ADSR[0]);                                  // Set
 1544              		.loc 10 223 24 view .LVU443
 1545 0178 864D     		ldr	r5, .L61+104
 220:main.cpp      ****     AmpEnv_Pad.Init(hw.AudioSampleRate());                                       // Initialize enve
 1546              		.loc 10 220 20 view .LVU444
 1547 017a 0121     		movs	r1, #1
 1548 017c 8648     		ldr	r0, .L61+108
 1549 017e FFF7FEFF 		bl	_ZN7daisysp4Adsr4InitEfi
 1550              	.LVL116:
 222:main.cpp      ****     AmpEnv_Bass.SetTime(ADSR_SEG_ATTACK, Bass_Amp_ADSR[0]);                                  // Set
 1551              		.loc 10 222 5 is_stmt 1 view .LVU445
 224:main.cpp      ****     AmpEnv_Pad.SetTime(ADSR_SEG_ATTACK, Pad_Amp_ADSR[0]);                                  // Set a
 1552              		.loc 10 224 23 is_stmt 0 view .LVU446
 1553 0182 864C     		ldr	r4, .L61+112
 222:main.cpp      ****     AmpEnv_Bass.SetTime(ADSR_SEG_ATTACK, Bass_Amp_ADSR[0]);                                  // Set
 1554              		.loc 10 222 25 view .LVU447
 1555 0184 96ED000A 		vldr.32	s0, [r6]
 1556 0188 0121     		movs	r1, #1
 1557 018a 7F48     		ldr	r0, .L61+92
 1558 018c FFF7FEFF 		bl	_ZN7daisysp4Adsr7SetTimeEif
 1559              	.LVL117:
 223:main.cpp      ****     AmpEnv_Bass.SetTime(ADSR_SEG_ATTACK, Bass_Amp_ADSR[0]);                                  // Set
 1560              		.loc 10 223 5 is_stmt 1 view .LVU448
 223:main.cpp      ****     AmpEnv_Bass.SetTime(ADSR_SEG_ATTACK, Bass_Amp_ADSR[0]);                                  // Set
 1561              		.loc 10 223 24 is_stmt 0 view .LVU449
 1562 0190 95ED000A 		vldr.32	s0, [r5]
 1563 0194 0121     		movs	r1, #1
 1564 0196 7D48     		ldr	r0, .L61+96
 1565 0198 FFF7FEFF 		bl	_ZN7daisysp4Adsr7SetTimeEif
 1566              	.LVL118:
 1567              		.loc 10 224 5 is_stmt 1 view .LVU450
 1568              		.loc 10 224 23 is_stmt 0 view .LVU451
 1569 019c 94ED000A 		vldr.32	s0, [r4]
 1570 01a0 0121     		movs	r1, #1
 1571 01a2 7D48     		ldr	r0, .L61+108
 1572 01a4 FFF7FEFF 		bl	_ZN7daisysp4Adsr7SetTimeEif
 1573              	.LVL119:
 225:main.cpp      **** 
 226:main.cpp      ****     AmpEnv_Pluck.SetTime(ADSR_SEG_DECAY, Pluck_Amp_ADSR[1]);                                   // S
 1574              		.loc 10 226 5 is_stmt 1 view .LVU452
 1575              		.loc 10 226 25 is_stmt 0 view .LVU453
 1576 01a8 96ED010A 		vldr.32	s0, [r6, #4]
 1577 01ac 0221     		movs	r1, #2
 1578 01ae 7648     		ldr	r0, .L61+92
 1579 01b0 FFF7FEFF 		bl	_ZN7daisysp4Adsr7SetTimeEif
 1580              	.LVL120:
 227:main.cpp      ****     AmpEnv_Bass.SetTime(ADSR_SEG_DECAY, Bass_Amp_ADSR[1]);                                   // Set
 1581              		.loc 10 227 5 is_stmt 1 view .LVU454
 1582              		.loc 10 227 24 is_stmt 0 view .LVU455
 1583 01b4 95ED010A 		vldr.32	s0, [r5, #4]
 1584 01b8 0221     		movs	r1, #2
ARM GAS  C:\Users\skipi\AppData\Local\Temp\ccM9ipiF.s 			page 48


 1585 01ba 7448     		ldr	r0, .L61+96
 1586 01bc FFF7FEFF 		bl	_ZN7daisysp4Adsr7SetTimeEif
 1587              	.LVL121:
 228:main.cpp      ****     AmpEnv_Pad.SetTime(ADSR_SEG_DECAY, Pad_Amp_ADSR[1]);                                   // Set d
 1588              		.loc 10 228 5 is_stmt 1 view .LVU456
 1589              		.loc 10 228 23 is_stmt 0 view .LVU457
 1590 01c0 94ED010A 		vldr.32	s0, [r4, #4]
 1591 01c4 0221     		movs	r1, #2
 1592 01c6 7448     		ldr	r0, .L61+108
 1593 01c8 FFF7FEFF 		bl	_ZN7daisysp4Adsr7SetTimeEif
 1594              	.LVL122:
 229:main.cpp      **** 
 230:main.cpp      ****     AmpEnv_Pluck.SetSustainLevel(Pluck_Amp_ADSR[2]);                                          // Se
 1595              		.loc 10 230 5 is_stmt 1 view .LVU458
 1596              		.loc 10 230 33 is_stmt 0 view .LVU459
 1597 01cc D6ED027A 		vldr.32	s15, [r6, #8]
 1598              	.LVL123:
 1599              	.LBB451:
 1600              	.LBI451:
  46:../../libs/DaisySP/Source/Control/adsr.h ****     /** Initializes the Adsr module.
  47:../../libs/DaisySP/Source/Control/adsr.h ****         \param sample_rate - The sample rate of the audio engine being run. 
  48:../../libs/DaisySP/Source/Control/adsr.h ****     */
  49:../../libs/DaisySP/Source/Control/adsr.h ****     void Init(float sample_rate, int blockSize = 1);
  50:../../libs/DaisySP/Source/Control/adsr.h ****     /**
  51:../../libs/DaisySP/Source/Control/adsr.h ****      \function Retrigger forces the envelope back to attack phase
  52:../../libs/DaisySP/Source/Control/adsr.h ****      \param hard  resets the history to zero, results in a click.
  53:../../libs/DaisySP/Source/Control/adsr.h ****      */
  54:../../libs/DaisySP/Source/Control/adsr.h ****     void Retrigger(bool hard);
  55:../../libs/DaisySP/Source/Control/adsr.h ****     /** Processes one sample through the filter and returns one sample.
  56:../../libs/DaisySP/Source/Control/adsr.h ****         \param gate - trigger the envelope, hold it to sustain 
  57:../../libs/DaisySP/Source/Control/adsr.h ****     */
  58:../../libs/DaisySP/Source/Control/adsr.h ****     float Process(bool gate);
  59:../../libs/DaisySP/Source/Control/adsr.h ****     /** Sets time
  60:../../libs/DaisySP/Source/Control/adsr.h ****         Set time per segment in seconds
  61:../../libs/DaisySP/Source/Control/adsr.h ****     */
  62:../../libs/DaisySP/Source/Control/adsr.h ****     void SetTime(int seg, float time);
  63:../../libs/DaisySP/Source/Control/adsr.h ****     void SetAttackTime(float timeInS, float shape = 0.0f);
  64:../../libs/DaisySP/Source/Control/adsr.h ****     void SetDecayTime(float timeInS);
  65:../../libs/DaisySP/Source/Control/adsr.h ****     void SetReleaseTime(float timeInS);
  66:../../libs/DaisySP/Source/Control/adsr.h **** 
  67:../../libs/DaisySP/Source/Control/adsr.h ****   private:
  68:../../libs/DaisySP/Source/Control/adsr.h ****     void SetTimeConstant(float timeInS, float& time, float& coeff);
  69:../../libs/DaisySP/Source/Control/adsr.h **** 
  70:../../libs/DaisySP/Source/Control/adsr.h ****   public:
  71:../../libs/DaisySP/Source/Control/adsr.h ****     /** Sustain level
  72:../../libs/DaisySP/Source/Control/adsr.h ****         \param sus_level - sets sustain level, 0...1.0
  73:../../libs/DaisySP/Source/Control/adsr.h ****     */
  74:../../libs/DaisySP/Source/Control/adsr.h ****     inline void SetSustainLevel(float sus_level)
 1601              		.loc 7 74 17 is_stmt 1 view .LVU460
 1602              	.LBB452:
  75:../../libs/DaisySP/Source/Control/adsr.h ****     {
  76:../../libs/DaisySP/Source/Control/adsr.h ****         sus_level = (sus_level <= 0.f) ? -0.01f // forces envelope into idle
 1603              		.loc 7 76 9 view .LVU461
 1604              		.loc 7 76 40 is_stmt 0 view .LVU462
 1605 01d0 F5EEC07A 		vcmpe.f32	s15, #0
 1606 01d4 F1EE10FA 		vmrs	APSR_nzcv, FPSCR
 1607 01d8 40F24482 		bls	.L45
ARM GAS  C:\Users\skipi\AppData\Local\Temp\ccM9ipiF.s 			page 49


  77:../../libs/DaisySP/Source/Control/adsr.h ****                                        : (sus_level > 1.f) ? 1.f : sus_level;
 1608              		.loc 7 77 60 view .LVU463
 1609 01dc F4EE487A 		vcmp.f32	s15, s16
 1610 01e0 F1EE10FA 		vmrs	APSR_nzcv, FPSCR
 1611 01e4 78FE277A 		vselgt.f32	s15, s16, s15
 1612              	.LVL124:
 1613              	.L35:
  78:../../libs/DaisySP/Source/Control/adsr.h ****         sus_level_ = sus_level;
 1614              		.loc 7 78 9 is_stmt 1 view .LVU464
 1615              	.LBE452:
 1616              	.LBE451:
 231:main.cpp      ****     AmpEnv_Bass.SetSustainLevel(Bass_Amp_ADSR[2]);                                          // Set 
 1617              		.loc 10 231 32 is_stmt 0 view .LVU465
 1618 01e8 95ED027A 		vldr.32	s14, [r5, #8]
 1619              	.LBB456:
 1620              	.LBB453:
 1621              		.loc 7 78 20 view .LVU466
 1622 01ec 664B     		ldr	r3, .L61+92
 1623              	.LBE453:
 1624              	.LBE456:
 1625              	.LBB457:
 1626              	.LBB458:
  76:../../libs/DaisySP/Source/Control/adsr.h ****                                        : (sus_level > 1.f) ? 1.f : sus_level;
 1627              		.loc 7 76 40 view .LVU467
 1628 01ee B5EEC07A 		vcmpe.f32	s14, #0
 1629              	.LBE458:
 1630              	.LBE457:
 1631              	.LBB463:
 1632              	.LBB454:
 1633              		.loc 7 78 20 view .LVU468
 1634 01f2 C3ED007A 		vstr.32	s15, [r3]
 1635              	.LVL125:
 1636              		.loc 7 78 20 view .LVU469
 1637              	.LBE454:
 1638              	.LBE463:
 1639              		.loc 10 231 5 is_stmt 1 view .LVU470
 1640              	.LBB464:
 1641              	.LBI457:
  74:../../libs/DaisySP/Source/Control/adsr.h ****     {
 1642              		.loc 7 74 17 view .LVU471
 1643              	.LBB459:
  76:../../libs/DaisySP/Source/Control/adsr.h ****                                        : (sus_level > 1.f) ? 1.f : sus_level;
 1644              		.loc 7 76 9 view .LVU472
  76:../../libs/DaisySP/Source/Control/adsr.h ****                                        : (sus_level > 1.f) ? 1.f : sus_level;
 1645              		.loc 7 76 40 is_stmt 0 view .LVU473
 1646 01f6 F1EE10FA 		vmrs	APSR_nzcv, FPSCR
 1647 01fa 40F24282 		bls	.L47
  77:../../libs/DaisySP/Source/Control/adsr.h ****         sus_level_ = sus_level;
 1648              		.loc 7 77 60 view .LVU474
 1649 01fe F7EE007A 		vmov.f32	s15, #1.0e+0
 1650 0202 B4EE677A 		vcmp.f32	s14, s15
 1651 0206 F1EE10FA 		vmrs	APSR_nzcv, FPSCR
 1652 020a 37FE877A 		vselgt.f32	s14, s15, s14
 1653              	.LVL126:
 1654              	.L36:
 1655              		.loc 7 78 9 is_stmt 1 view .LVU475
 1656              	.LBE459:
ARM GAS  C:\Users\skipi\AppData\Local\Temp\ccM9ipiF.s 			page 50


 1657              	.LBE464:
 232:main.cpp      ****     AmpEnv_Pad.SetSustainLevel(Pad_Amp_ADSR[2]);                                          // Set su
 1658              		.loc 10 232 31 is_stmt 0 view .LVU476
 1659 020e D4ED027A 		vldr.32	s15, [r4, #8]
 1660              	.LBB465:
 1661              	.LBB460:
 1662              		.loc 7 78 20 view .LVU477
 1663 0212 5E4B     		ldr	r3, .L61+96
 1664              	.LBE460:
 1665              	.LBE465:
 1666              	.LBB466:
 1667              	.LBB467:
  76:../../libs/DaisySP/Source/Control/adsr.h ****                                        : (sus_level > 1.f) ? 1.f : sus_level;
 1668              		.loc 7 76 40 view .LVU478
 1669 0214 F5EEC07A 		vcmpe.f32	s15, #0
 1670              	.LBE467:
 1671              	.LBE466:
 1672              	.LBB472:
 1673              	.LBB461:
 1674              		.loc 7 78 20 view .LVU479
 1675 0218 83ED007A 		vstr.32	s14, [r3]
 1676              	.LVL127:
 1677              		.loc 7 78 20 view .LVU480
 1678              	.LBE461:
 1679              	.LBE472:
 1680              		.loc 10 232 5 is_stmt 1 view .LVU481
 1681              	.LBB473:
 1682              	.LBI466:
  74:../../libs/DaisySP/Source/Control/adsr.h ****     {
 1683              		.loc 7 74 17 view .LVU482
 1684              	.LBB468:
  76:../../libs/DaisySP/Source/Control/adsr.h ****                                        : (sus_level > 1.f) ? 1.f : sus_level;
 1685              		.loc 7 76 9 view .LVU483
  76:../../libs/DaisySP/Source/Control/adsr.h ****                                        : (sus_level > 1.f) ? 1.f : sus_level;
 1686              		.loc 7 76 40 is_stmt 0 view .LVU484
 1687 021c F1EE10FA 		vmrs	APSR_nzcv, FPSCR
 1688 0220 40F22C82 		bls	.L49
  77:../../libs/DaisySP/Source/Control/adsr.h ****         sus_level_ = sus_level;
 1689              		.loc 7 77 60 view .LVU485
 1690 0224 B7EE007A 		vmov.f32	s14, #1.0e+0
 1691 0228 F4EE477A 		vcmp.f32	s15, s14
 1692 022c F1EE10FA 		vmrs	APSR_nzcv, FPSCR
 1693 0230 77FE277A 		vselgt.f32	s15, s14, s15
 1694              	.LVL128:
 1695              	.L37:
 1696              		.loc 7 78 9 is_stmt 1 view .LVU486
 1697              	.LBE468:
 1698              	.LBE473:
 233:main.cpp      **** 
 234:main.cpp      ****     AmpEnv_Pluck.SetTime(ADSR_SEG_RELEASE, Pluck_Amp_ADSR[3]);                              // Set 
 1699              		.loc 10 234 25 is_stmt 0 view .LVU487
 1700 0234 96ED030A 		vldr.32	s0, [r6, #12]
 1701 0238 0421     		movs	r1, #4
 1702              	.LBB474:
 1703              	.LBB469:
 1704              		.loc 7 78 20 view .LVU488
 1705 023a 574E     		ldr	r6, .L61+108
ARM GAS  C:\Users\skipi\AppData\Local\Temp\ccM9ipiF.s 			page 51


 1706              	.LBE469:
 1707              	.LBE474:
 1708              		.loc 10 234 25 view .LVU489
 1709 023c 5248     		ldr	r0, .L61+92
 1710              	.LBB475:
 1711              	.LBB470:
 1712              		.loc 7 78 20 view .LVU490
 1713 023e C6ED007A 		vstr.32	s15, [r6]
 1714              	.LVL129:
 1715              		.loc 7 78 20 view .LVU491
 1716              	.LBE470:
 1717              	.LBE475:
 1718              		.loc 10 234 5 is_stmt 1 view .LVU492
 1719              		.loc 10 234 25 is_stmt 0 view .LVU493
 1720 0242 FFF7FEFF 		bl	_ZN7daisysp4Adsr7SetTimeEif
 1721              	.LVL130:
 235:main.cpp      ****     AmpEnv_Bass.SetTime(ADSR_SEG_RELEASE, Bass_Amp_ADSR[3]);                              // Set re
 1722              		.loc 10 235 5 is_stmt 1 view .LVU494
 1723              		.loc 10 235 24 is_stmt 0 view .LVU495
 1724 0246 95ED030A 		vldr.32	s0, [r5, #12]
 1725 024a 0421     		movs	r1, #4
 1726 024c 4F48     		ldr	r0, .L61+96
 1727 024e FFF7FEFF 		bl	_ZN7daisysp4Adsr7SetTimeEif
 1728              	.LVL131:
 236:main.cpp      ****     AmpEnv_Pad.SetTime(ADSR_SEG_RELEASE, Pad_Amp_ADSR[3]);                              // Set rele
 1729              		.loc 10 236 5 is_stmt 1 view .LVU496
 1730              		.loc 10 236 23 is_stmt 0 view .LVU497
 1731 0252 0421     		movs	r1, #4
 1732 0254 94ED030A 		vldr.32	s0, [r4, #12]
 1733 0258 3046     		mov	r0, r6
 1734 025a FFF7FEFF 		bl	_ZN7daisysp4Adsr7SetTimeEif
 1735              	.LVL132:
 237:main.cpp      ****     
 238:main.cpp      **** //-----------------------------------------------------------------------------------Inizializza FI
 239:main.cpp      ****     filter_Pluck.Init(hw.AudioSampleRate());                                        // Initialize f
 1736              		.loc 10 239 5 is_stmt 1 view .LVU498
 1737              		.loc 10 239 22 is_stmt 0 view .LVU499
 1738 025e 3348     		ldr	r0, .L61
 1739 0260 FFF7FEFF 		bl	_ZN5daisy9DaisySeed15AudioSampleRateEv
 1740              	.LVL133:
 1741 0264 4E48     		ldr	r0, .L61+116
 1742 0266 FFF7FEFF 		bl	_ZN7daisysp3Svf4InitEf
 1743              	.LVL134:
 240:main.cpp      ****     filter_Bass.Init(hw.AudioSampleRate());                                        // Initialize fi
 1744              		.loc 10 240 5 is_stmt 1 view .LVU500
 1745              		.loc 10 240 21 is_stmt 0 view .LVU501
 1746 026a 3048     		ldr	r0, .L61
 1747 026c FFF7FEFF 		bl	_ZN5daisy9DaisySeed15AudioSampleRateEv
 1748              	.LVL135:
 1749 0270 4C48     		ldr	r0, .L61+120
 1750 0272 FFF7FEFF 		bl	_ZN7daisysp3Svf4InitEf
 1751              	.LVL136:
 241:main.cpp      ****     filter_Pad.Init(hw.AudioSampleRate());                                        // Initialize fil
 1752              		.loc 10 241 5 is_stmt 1 view .LVU502
 1753              		.loc 10 241 20 is_stmt 0 view .LVU503
 1754 0276 2D48     		ldr	r0, .L61
 1755 0278 FFF7FEFF 		bl	_ZN5daisy9DaisySeed15AudioSampleRateEv
ARM GAS  C:\Users\skipi\AppData\Local\Temp\ccM9ipiF.s 			page 52


 1756              	.LVL137:
 1757 027c 4A48     		ldr	r0, .L61+124
 1758 027e FFF7FEFF 		bl	_ZN7daisysp3Svf4InitEf
 1759              	.LVL138:
 242:main.cpp      **** 
 243:main.cpp      ****     filter_Pluck.SetFreq(ft_pluck);                                               // Set cutoff fre
 1760              		.loc 10 243 5 is_stmt 1 view .LVU504
 1761              		.loc 10 243 25 is_stmt 0 view .LVU505
 1762 0282 4A4B     		ldr	r3, .L61+128
 1763 0284 4648     		ldr	r0, .L61+116
 1764 0286 93ED000A 		vldr.32	s0, [r3]
 1765 028a FFF7FEFF 		bl	_ZN7daisysp3Svf7SetFreqEf
 1766              	.LVL139:
 244:main.cpp      ****     filter_Bass.SetFreq(ft_bass);                                               // Set cutoff frequ
 1767              		.loc 10 244 5 is_stmt 1 view .LVU506
 1768              		.loc 10 244 24 is_stmt 0 view .LVU507
 1769 028e 484B     		ldr	r3, .L61+132
 1770 0290 4448     		ldr	r0, .L61+120
 1771 0292 93ED000A 		vldr.32	s0, [r3]
 1772 0296 FFF7FEFF 		bl	_ZN7daisysp3Svf7SetFreqEf
 1773              	.LVL140:
 245:main.cpp      ****     filter_Pad.SetFreq(ft_pad);                                               // Set cutoff frequen
 1774              		.loc 10 245 5 is_stmt 1 view .LVU508
 1775              		.loc 10 245 23 is_stmt 0 view .LVU509
 1776 029a 464B     		ldr	r3, .L61+136
 1777 029c 4248     		ldr	r0, .L61+124
 1778 029e 93ED000A 		vldr.32	s0, [r3]
 1779 02a2 FFF7FEFF 		bl	_ZN7daisysp3Svf7SetFreqEf
 1780              	.LVL141:
 246:main.cpp      **** 
 247:main.cpp      ****     filter_Pluck.SetRes(res_pluck);                                             // Set resonance
 1781              		.loc 10 247 5 is_stmt 1 view .LVU510
 1782              		.loc 10 247 24 is_stmt 0 view .LVU511
 1783 02a6 444B     		ldr	r3, .L61+140
 1784 02a8 3D48     		ldr	r0, .L61+116
 1785 02aa 93ED000A 		vldr.32	s0, [r3]
 1786 02ae FFF7FEFF 		bl	_ZN7daisysp3Svf6SetResEf
 1787              	.LVL142:
 248:main.cpp      ****     filter_Bass.SetRes(res_bass);                                             // Set resonance
 1788              		.loc 10 248 5 is_stmt 1 view .LVU512
 1789              		.loc 10 248 23 is_stmt 0 view .LVU513
 1790 02b2 424B     		ldr	r3, .L61+144
 1791 02b4 3B48     		ldr	r0, .L61+120
 1792 02b6 93ED000A 		vldr.32	s0, [r3]
 1793 02ba FFF7FEFF 		bl	_ZN7daisysp3Svf6SetResEf
 1794              	.LVL143:
 249:main.cpp      ****     filter_Pad.SetRes(res_pad);                                             // Set resonance
 1795              		.loc 10 249 5 is_stmt 1 view .LVU514
 1796              		.loc 10 249 22 is_stmt 0 view .LVU515
 1797 02be 404B     		ldr	r3, .L61+148
 1798 02c0 3948     		ldr	r0, .L61+124
 1799 02c2 93ED000A 		vldr.32	s0, [r3]
 1800 02c6 FFF7FEFF 		bl	_ZN7daisysp3Svf6SetResEf
 1801              	.LVL144:
 250:main.cpp      **** 
 251:main.cpp      ****     filter_Pluck.SetDrive(drive_pluck);                                               // Set filter
 1802              		.loc 10 251 5 is_stmt 1 view .LVU516
ARM GAS  C:\Users\skipi\AppData\Local\Temp\ccM9ipiF.s 			page 53


 1803              		.loc 10 251 26 is_stmt 0 view .LVU517
 1804 02ca 3E4B     		ldr	r3, .L61+152
 1805 02cc 3448     		ldr	r0, .L61+116
 1806 02ce 93ED000A 		vldr.32	s0, [r3]
 1807 02d2 FFF7FEFF 		bl	_ZN7daisysp3Svf8SetDriveEf
 1808              	.LVL145:
 252:main.cpp      ****     filter_Bass.SetDrive(drive_bass);                                               // Set filter a
 1809              		.loc 10 252 5 is_stmt 1 view .LVU518
 1810              		.loc 10 252 25 is_stmt 0 view .LVU519
 1811 02d6 3C4B     		ldr	r3, .L61+156
 1812 02d8 3248     		ldr	r0, .L61+120
 1813 02da 93ED000A 		vldr.32	s0, [r3]
 1814 02de FFF7FEFF 		bl	_ZN7daisysp3Svf8SetDriveEf
 1815              	.LVL146:
 253:main.cpp      ****     filter_Pad.SetDrive(drive_pad);                                               // Set filter amp
 1816              		.loc 10 253 5 is_stmt 1 view .LVU520
 1817              		.loc 10 253 24 is_stmt 0 view .LVU521
 1818 02e2 3A4B     		ldr	r3, .L61+160
 1819 02e4 3048     		ldr	r0, .L61+124
 1820 02e6 93ED000A 		vldr.32	s0, [r3]
 1821 02ea FFF7FEFF 		bl	_ZN7daisysp3Svf8SetDriveEf
 1822              	.LVL147:
 254:main.cpp      **** 
 255:main.cpp      **** //-----------------------------------------------------------------------------------Inizializza FI
 256:main.cpp      ****     FilterEnv_Pluck.Init(hw.AudioSampleRate());                                   // Initialize env
 1823              		.loc 10 256 5 is_stmt 1 view .LVU522
 1824              		.loc 10 256 25 is_stmt 0 view .LVU523
 1825 02ee 0F48     		ldr	r0, .L61
 1826 02f0 FFF7FEFF 		bl	_ZN5daisy9DaisySeed15AudioSampleRateEv
 1827              	.LVL148:
 1828 02f4 0121     		movs	r1, #1
 1829 02f6 3648     		ldr	r0, .L61+164
 1830 02f8 FFF7FEFF 		bl	_ZN7daisysp4Adsr4InitEfi
 1831              	.LVL149:
 257:main.cpp      ****     FilterEnv_Bass.Init(hw.AudioSampleRate());                                   // Initialize enve
 1832              		.loc 10 257 5 is_stmt 1 view .LVU524
 1833              		.loc 10 257 24 is_stmt 0 view .LVU525
 1834 02fc 0B48     		ldr	r0, .L61
 1835 02fe FFF7FEFF 		bl	_ZN5daisy9DaisySeed15AudioSampleRateEv
 1836              	.LVL150:
 1837 0302 0121     		movs	r1, #1
 1838 0304 3348     		ldr	r0, .L61+168
 1839 0306 FFF7FEFF 		bl	_ZN7daisysp4Adsr4InitEfi
 1840              	.LVL151:
 258:main.cpp      ****     FilterEnv_Pad.Init(hw.AudioSampleRate());                                   // Initialize envel
 1841              		.loc 10 258 5 is_stmt 1 view .LVU526
 259:main.cpp      **** 
 260:main.cpp      ****     FilterEnv_Pluck.SetTime(ADSR_SEG_ATTACK, Pluck_Filter_ADSR[0]);                              //
 1842              		.loc 10 260 28 is_stmt 0 view .LVU527
 1843 030a 334E     		ldr	r6, .L61+172
 258:main.cpp      ****     FilterEnv_Pad.Init(hw.AudioSampleRate());                                   // Initialize envel
 1844              		.loc 10 258 23 view .LVU528
 1845 030c 0748     		ldr	r0, .L61
 1846 030e FFF7FEFF 		bl	_ZN5daisy9DaisySeed15AudioSampleRateEv
 1847              	.LVL152:
 261:main.cpp      ****     FilterEnv_Bass.SetTime(ADSR_SEG_ATTACK, Bass_Filter_ADSR[0]);                              // S
 1848              		.loc 10 261 27 view .LVU529
ARM GAS  C:\Users\skipi\AppData\Local\Temp\ccM9ipiF.s 			page 54


 1849 0312 324D     		ldr	r5, .L61+176
 258:main.cpp      ****     FilterEnv_Pad.Init(hw.AudioSampleRate());                                   // Initialize envel
 1850              		.loc 10 258 23 view .LVU530
 1851 0314 0121     		movs	r1, #1
 1852 0316 3248     		ldr	r0, .L61+180
 1853 0318 FFF7FEFF 		bl	_ZN7daisysp4Adsr4InitEfi
 1854              	.LVL153:
 260:main.cpp      ****     FilterEnv_Bass.SetTime(ADSR_SEG_ATTACK, Bass_Filter_ADSR[0]);                              // S
 1855              		.loc 10 260 5 is_stmt 1 view .LVU531
 262:main.cpp      ****     FilterEnv_Pad.SetTime(ADSR_SEG_ATTACK, Pad_Filter_ADSR[0]);                              // Set
 1856              		.loc 10 262 26 is_stmt 0 view .LVU532
 1857 031c 314C     		ldr	r4, .L61+184
 260:main.cpp      ****     FilterEnv_Bass.SetTime(ADSR_SEG_ATTACK, Bass_Filter_ADSR[0]);                              // S
 1858              		.loc 10 260 28 view .LVU533
 1859 031e 96ED000A 		vldr.32	s0, [r6]
 1860 0322 0121     		movs	r1, #1
 1861 0324 2A48     		ldr	r0, .L61+164
 1862 0326 FFF7FEFF 		bl	_ZN7daisysp4Adsr7SetTimeEif
 1863              	.LVL154:
 1864 032a 5DE0     		b	.L62
 1865              	.L63:
 1866              		.align	2
 1867              	.L61:
 1868 032c 00000000 		.word	.LANCHOR52
 1869 0330 00000000 		.word	.LANCHOR1
 1870 0334 00000000 		.word	.LANCHOR3
 1871 0338 00000000 		.word	.LANCHOR5
 1872 033c 00000000 		.word	.LANCHOR12
 1873 0340 00000000 		.word	.LANCHOR13
 1874 0344 00000000 		.word	.LANCHOR14
 1875 0348 00000000 		.word	.LANCHOR53
 1876 034c 00000000 		.word	.LANCHOR54
 1877 0350 00000000 		.word	.LANCHOR55
 1878 0354 00000000 		.word	.LANCHOR15
 1879 0358 00000000 		.word	.LANCHOR16
 1880 035c 00000000 		.word	.LANCHOR17
 1881 0360 00000000 		.word	.LANCHOR56
 1882 0364 00000000 		.word	.LANCHOR57
 1883 0368 00000000 		.word	.LANCHOR58
 1884 036c 00000000 		.word	.LANCHOR59
 1885 0370 00000000 		.word	.LANCHOR60
 1886 0374 00000000 		.word	.LANCHOR61
 1887 0378 00000000 		.word	0
 1888 037c 00000000 		.word	.LANCHOR0
 1889 0380 00000000 		.word	.LANCHOR2
 1890 0384 00000000 		.word	.LANCHOR4
 1891 0388 00000000 		.word	.LANCHOR19
 1892 038c 00000000 		.word	.LANCHOR22
 1893 0390 00000000 		.word	.LANCHOR62
 1894 0394 00000000 		.word	.LANCHOR63
 1895 0398 00000000 		.word	.LANCHOR25
 1896 039c 00000000 		.word	.LANCHOR64
 1897 03a0 00000000 		.word	.LANCHOR35
 1898 03a4 00000000 		.word	.LANCHOR38
 1899 03a8 00000000 		.word	.LANCHOR41
 1900 03ac 00000000 		.word	.LANCHOR34
 1901 03b0 00000000 		.word	.LANCHOR37
ARM GAS  C:\Users\skipi\AppData\Local\Temp\ccM9ipiF.s 			page 55


 1902 03b4 00000000 		.word	.LANCHOR40
 1903 03b8 00000000 		.word	.LANCHOR65
 1904 03bc 00000000 		.word	.LANCHOR66
 1905 03c0 00000000 		.word	.LANCHOR67
 1906 03c4 00000000 		.word	.LANCHOR68
 1907 03c8 00000000 		.word	.LANCHOR69
 1908 03cc 00000000 		.word	.LANCHOR70
 1909 03d0 00000000 		.word	.LANCHOR27
 1910 03d4 00000000 		.word	.LANCHOR29
 1911 03d8 00000000 		.word	.LANCHOR71
 1912 03dc 00000000 		.word	.LANCHOR72
 1913 03e0 00000000 		.word	.LANCHOR31
 1914 03e4 00000000 		.word	.LANCHOR73
 1915              	.L62:
 261:main.cpp      ****     FilterEnv_Bass.SetTime(ADSR_SEG_ATTACK, Bass_Filter_ADSR[0]);                              // S
 1916              		.loc 10 261 5 is_stmt 1 view .LVU534
 261:main.cpp      ****     FilterEnv_Bass.SetTime(ADSR_SEG_ATTACK, Bass_Filter_ADSR[0]);                              // S
 1917              		.loc 10 261 27 is_stmt 0 view .LVU535
 1918 03e8 95ED000A 		vldr.32	s0, [r5]
 1919 03ec 0121     		movs	r1, #1
 1920 03ee A648     		ldr	r0, .L64
 1921 03f0 FFF7FEFF 		bl	_ZN7daisysp4Adsr7SetTimeEif
 1922              	.LVL155:
 1923              		.loc 10 262 5 is_stmt 1 view .LVU536
 1924              		.loc 10 262 26 is_stmt 0 view .LVU537
 1925 03f4 94ED000A 		vldr.32	s0, [r4]
 1926 03f8 0121     		movs	r1, #1
 1927 03fa A448     		ldr	r0, .L64+4
 1928 03fc FFF7FEFF 		bl	_ZN7daisysp4Adsr7SetTimeEif
 1929              	.LVL156:
 263:main.cpp      **** 
 264:main.cpp      ****     FilterEnv_Pluck.SetTime(ADSR_SEG_DECAY, Pluck_Filter_ADSR[1]);                               //
 1930              		.loc 10 264 5 is_stmt 1 view .LVU538
 1931              		.loc 10 264 28 is_stmt 0 view .LVU539
 1932 0400 96ED010A 		vldr.32	s0, [r6, #4]
 1933 0404 0221     		movs	r1, #2
 1934 0406 A248     		ldr	r0, .L64+8
 1935 0408 FFF7FEFF 		bl	_ZN7daisysp4Adsr7SetTimeEif
 1936              	.LVL157:
 265:main.cpp      ****     FilterEnv_Bass.SetTime(ADSR_SEG_DECAY, Bass_Filter_ADSR[1]);                               // S
 1937              		.loc 10 265 5 is_stmt 1 view .LVU540
 1938              		.loc 10 265 27 is_stmt 0 view .LVU541
 1939 040c 95ED010A 		vldr.32	s0, [r5, #4]
 1940 0410 0221     		movs	r1, #2
 1941 0412 9D48     		ldr	r0, .L64
 1942 0414 FFF7FEFF 		bl	_ZN7daisysp4Adsr7SetTimeEif
 1943              	.LVL158:
 266:main.cpp      ****     FilterEnv_Pad.SetTime(ADSR_SEG_DECAY, Pad_Filter_ADSR[1]);                               // Set
 1944              		.loc 10 266 5 is_stmt 1 view .LVU542
 1945              		.loc 10 266 26 is_stmt 0 view .LVU543
 1946 0418 94ED010A 		vldr.32	s0, [r4, #4]
 1947 041c 0221     		movs	r1, #2
 1948 041e 9B48     		ldr	r0, .L64+4
 1949 0420 FFF7FEFF 		bl	_ZN7daisysp4Adsr7SetTimeEif
 1950              	.LVL159:
 267:main.cpp      **** 
 268:main.cpp      ****     FilterEnv_Pluck.SetSustainLevel(Pluck_Filter_ADSR[2]);                                      // 
ARM GAS  C:\Users\skipi\AppData\Local\Temp\ccM9ipiF.s 			page 56


 1951              		.loc 10 268 5 is_stmt 1 view .LVU544
 1952              		.loc 10 268 36 is_stmt 0 view .LVU545
 1953 0424 D6ED027A 		vldr.32	s15, [r6, #8]
 1954              	.LVL160:
 1955              	.LBB476:
 1956              	.LBI476:
  74:../../libs/DaisySP/Source/Control/adsr.h ****     {
 1957              		.loc 7 74 17 is_stmt 1 view .LVU546
 1958              	.LBB477:
  76:../../libs/DaisySP/Source/Control/adsr.h ****                                        : (sus_level > 1.f) ? 1.f : sus_level;
 1959              		.loc 7 76 9 view .LVU547
  76:../../libs/DaisySP/Source/Control/adsr.h ****                                        : (sus_level > 1.f) ? 1.f : sus_level;
 1960              		.loc 7 76 40 is_stmt 0 view .LVU548
 1961 0428 F5EEC07A 		vcmpe.f32	s15, #0
 1962 042c F1EE10FA 		vmrs	APSR_nzcv, FPSCR
 1963 0430 40F22181 		bls	.L51
  77:../../libs/DaisySP/Source/Control/adsr.h ****         sus_level_ = sus_level;
 1964              		.loc 7 77 60 view .LVU549
 1965 0434 B7EE007A 		vmov.f32	s14, #1.0e+0
 1966 0438 F4EE477A 		vcmp.f32	s15, s14
 1967 043c F1EE10FA 		vmrs	APSR_nzcv, FPSCR
 1968 0440 77FE277A 		vselgt.f32	s15, s14, s15
 1969              	.LVL161:
 1970              	.L38:
 1971              		.loc 7 78 9 is_stmt 1 view .LVU550
 1972              	.LBE477:
 1973              	.LBE476:
 269:main.cpp      ****     FilterEnv_Bass.SetSustainLevel(Bass_Filter_ADSR[2]);                                      // Se
 1974              		.loc 10 269 35 is_stmt 0 view .LVU551
 1975 0444 95ED027A 		vldr.32	s14, [r5, #8]
 1976              	.LBB481:
 1977              	.LBB478:
 1978              		.loc 7 78 20 view .LVU552
 1979 0448 914B     		ldr	r3, .L64+8
 1980              	.LBE478:
 1981              	.LBE481:
 1982              	.LBB482:
 1983              	.LBB483:
  76:../../libs/DaisySP/Source/Control/adsr.h ****                                        : (sus_level > 1.f) ? 1.f : sus_level;
 1984              		.loc 7 76 40 view .LVU553
 1985 044a B5EEC07A 		vcmpe.f32	s14, #0
 1986              	.LBE483:
 1987              	.LBE482:
 1988              	.LBB488:
 1989              	.LBB479:
 1990              		.loc 7 78 20 view .LVU554
 1991 044e C3ED007A 		vstr.32	s15, [r3]
 1992              	.LVL162:
 1993              		.loc 7 78 20 view .LVU555
 1994              	.LBE479:
 1995              	.LBE488:
 1996              		.loc 10 269 5 is_stmt 1 view .LVU556
 1997              	.LBB489:
 1998              	.LBI482:
  74:../../libs/DaisySP/Source/Control/adsr.h ****     {
 1999              		.loc 7 74 17 view .LVU557
 2000              	.LBB484:
ARM GAS  C:\Users\skipi\AppData\Local\Temp\ccM9ipiF.s 			page 57


  76:../../libs/DaisySP/Source/Control/adsr.h ****                                        : (sus_level > 1.f) ? 1.f : sus_level;
 2001              		.loc 7 76 9 view .LVU558
  76:../../libs/DaisySP/Source/Control/adsr.h ****                                        : (sus_level > 1.f) ? 1.f : sus_level;
 2002              		.loc 7 76 40 is_stmt 0 view .LVU559
 2003 0452 F1EE10FA 		vmrs	APSR_nzcv, FPSCR
 2004 0456 40F20B81 		bls	.L53
  77:../../libs/DaisySP/Source/Control/adsr.h ****         sus_level_ = sus_level;
 2005              		.loc 7 77 60 view .LVU560
 2006 045a F7EE007A 		vmov.f32	s15, #1.0e+0
 2007 045e B4EE677A 		vcmp.f32	s14, s15
 2008 0462 F1EE10FA 		vmrs	APSR_nzcv, FPSCR
 2009 0466 37FE877A 		vselgt.f32	s14, s15, s14
 2010              	.LVL163:
 2011              	.L39:
 2012              		.loc 7 78 9 is_stmt 1 view .LVU561
 2013              	.LBE484:
 2014              	.LBE489:
 270:main.cpp      ****     FilterEnv_Pad.SetSustainLevel(Pad_Filter_ADSR[2]);                                      // Set 
 2015              		.loc 10 270 34 is_stmt 0 view .LVU562
 2016 046a D4ED027A 		vldr.32	s15, [r4, #8]
 2017              	.LBB490:
 2018              	.LBB485:
 2019              		.loc 7 78 20 view .LVU563
 2020 046e 864B     		ldr	r3, .L64
 2021              	.LBE485:
 2022              	.LBE490:
 2023              	.LBB491:
 2024              	.LBB492:
  76:../../libs/DaisySP/Source/Control/adsr.h ****                                        : (sus_level > 1.f) ? 1.f : sus_level;
 2025              		.loc 7 76 40 view .LVU564
 2026 0470 F5EEC07A 		vcmpe.f32	s15, #0
 2027              	.LBE492:
 2028              	.LBE491:
 2029              	.LBB497:
 2030              	.LBB486:
 2031              		.loc 7 78 20 view .LVU565
 2032 0474 83ED007A 		vstr.32	s14, [r3]
 2033              	.LVL164:
 2034              		.loc 7 78 20 view .LVU566
 2035              	.LBE486:
 2036              	.LBE497:
 2037              		.loc 10 270 5 is_stmt 1 view .LVU567
 2038              	.LBB498:
 2039              	.LBI491:
  74:../../libs/DaisySP/Source/Control/adsr.h ****     {
 2040              		.loc 7 74 17 view .LVU568
 2041              	.LBB493:
  76:../../libs/DaisySP/Source/Control/adsr.h ****                                        : (sus_level > 1.f) ? 1.f : sus_level;
 2042              		.loc 7 76 9 view .LVU569
  76:../../libs/DaisySP/Source/Control/adsr.h ****                                        : (sus_level > 1.f) ? 1.f : sus_level;
 2043              		.loc 7 76 40 is_stmt 0 view .LVU570
 2044 0478 F1EE10FA 		vmrs	APSR_nzcv, FPSCR
 2045 047c 40F2F580 		bls	.L55
  77:../../libs/DaisySP/Source/Control/adsr.h ****         sus_level_ = sus_level;
 2046              		.loc 7 77 60 view .LVU571
 2047 0480 B7EE007A 		vmov.f32	s14, #1.0e+0
 2048 0484 F4EE477A 		vcmp.f32	s15, s14
ARM GAS  C:\Users\skipi\AppData\Local\Temp\ccM9ipiF.s 			page 58


 2049 0488 F1EE10FA 		vmrs	APSR_nzcv, FPSCR
 2050 048c 77FE277A 		vselgt.f32	s15, s14, s15
 2051              	.LVL165:
 2052              	.L40:
 2053              		.loc 7 78 9 is_stmt 1 view .LVU572
 2054              	.LBE493:
 2055              	.LBE498:
 271:main.cpp      **** 
 272:main.cpp      ****     FilterEnv_Pluck.SetTime(ADSR_SEG_RELEASE, Pluck_Filter_ADSR[3]);                          // Se
 2056              		.loc 10 272 28 is_stmt 0 view .LVU573
 2057 0490 96ED030A 		vldr.32	s0, [r6, #12]
 2058 0494 0421     		movs	r1, #4
 2059              	.LBB499:
 2060              	.LBB494:
 2061              		.loc 7 78 20 view .LVU574
 2062 0496 7D4E     		ldr	r6, .L64+4
 2063              	.LBE494:
 2064              	.LBE499:
 2065              		.loc 10 272 28 view .LVU575
 2066 0498 7D48     		ldr	r0, .L64+8
 2067              	.LBB500:
 2068              	.LBB495:
 2069              		.loc 7 78 20 view .LVU576
 2070 049a C6ED007A 		vstr.32	s15, [r6]
 2071              	.LVL166:
 2072              		.loc 7 78 20 view .LVU577
 2073              	.LBE495:
 2074              	.LBE500:
 2075              		.loc 10 272 5 is_stmt 1 view .LVU578
 2076              		.loc 10 272 28 is_stmt 0 view .LVU579
 2077 049e FFF7FEFF 		bl	_ZN7daisysp4Adsr7SetTimeEif
 2078              	.LVL167:
 273:main.cpp      ****     FilterEnv_Bass.SetTime(ADSR_SEG_RELEASE, Bass_Filter_ADSR[3]);                          // Set 
 2079              		.loc 10 273 5 is_stmt 1 view .LVU580
 2080              		.loc 10 273 27 is_stmt 0 view .LVU581
 2081 04a2 95ED030A 		vldr.32	s0, [r5, #12]
 2082 04a6 0421     		movs	r1, #4
 2083 04a8 7748     		ldr	r0, .L64
 2084 04aa FFF7FEFF 		bl	_ZN7daisysp4Adsr7SetTimeEif
 2085              	.LVL168:
 274:main.cpp      ****     FilterEnv_Pad.SetTime(ADSR_SEG_RELEASE, Pad_Filter_ADSR[3]);                          // Set re
 2086              		.loc 10 274 5 is_stmt 1 view .LVU582
 2087              		.loc 10 274 26 is_stmt 0 view .LVU583
 2088 04ae 94ED030A 		vldr.32	s0, [r4, #12]
 2089 04b2 3046     		mov	r0, r6
 2090 04b4 0421     		movs	r1, #4
 2091 04b6 FFF7FEFF 		bl	_ZN7daisysp4Adsr7SetTimeEif
 2092              	.LVL169:
 275:main.cpp      **** //--------
 276:main.cpp      ****     //delay.Init(hw.AudioSampleRate());                                       // Inizializza il del
 277:main.cpp      ****     
 278:main.cpp      ****     //delay.setDelayTime(1000);      // Imposta il tempo di delay
 279:main.cpp      ****     //delay.setFeedback(0.5f);        // Imposta il feedback
 280:main.cpp      ****     //delay.setMix(0.5f);                  // Imposta il mix
 281:main.cpp      ****     //delay.setDepth(0.5f);              // Imposta la profondit del pitch shifter
 282:main.cpp      ****     
 283:main.cpp      ****     Pin pin_rx = {PORTB, 7};
ARM GAS  C:\Users\skipi\AppData\Local\Temp\ccM9ipiF.s 			page 59


 2093              		.loc 10 283 5 is_stmt 1 view .LVU584
 284:main.cpp      **** 	Pin pin_tx = {PORTB, 6};
 2094              		.loc 10 284 2 view .LVU585
 285:main.cpp      **** 	config.baudrate = 9600 ;
 2095              		.loc 10 285 2 view .LVU586
 286:main.cpp      ****  	config.periph   = UartHandler::Config::Peripheral::USART_1;
 2096              		.loc 10 286 3 view .LVU587
 287:main.cpp      **** 	config.stopbits      = UartHandler::Config::StopBits::BITS_1;
 2097              		.loc 10 287 2 view .LVU588
 288:main.cpp      **** 	config.parity        = UartHandler::Config::Parity::NONE;
 2098              		.loc 10 288 2 view .LVU589
 289:main.cpp      **** 	config.mode          = UartHandler::Config::Mode::RX;
 2099              		.loc 10 289 2 view .LVU590
 290:main.cpp      **** 	config.wordlength    = UartHandler::Config::WordLength::BITS_8;
 2100              		.loc 10 290 2 view .LVU591
 291:main.cpp      **** 	config.pin_config.rx = pin_rx;//{DSY_GPIOB, 7};  // (USART_1 RX) Daisy pin 15
 2101              		.loc 10 291 2 view .LVU592
 292:main.cpp      **** 	config.pin_config.tx = pin_tx;//{DSY_GPIOB, 6};  // (USART_1 TX) Daisy pin 14
 2102              		.loc 10 292 2 view .LVU593
 2103              		.loc 10 292 23 is_stmt 0 view .LVU594
 2104 04ba 7649     		ldr	r1, .L64+12
 287:main.cpp      **** 	config.parity        = UartHandler::Config::Parity::NONE;
 2105              		.loc 10 287 23 view .LVU595
 2106 04bc 0123     		movs	r3, #1
 286:main.cpp      **** 	config.stopbits      = UartHandler::Config::StopBits::BITS_1;
 2107              		.loc 10 286 19 view .LVU596
 2108 04be 0024     		movs	r4, #0
 293:main.cpp      **** 	uart.Init(config);
 2109              		.loc 10 293 11 view .LVU597
 2110 04c0 7548     		ldr	r0, .L64+16
 287:main.cpp      **** 	config.parity        = UartHandler::Config::Parity::NONE;
 2111              		.loc 10 287 23 view .LVU598
 2112 04c2 8B60     		str	r3, [r1, #8]
 290:main.cpp      **** 	config.pin_config.rx = pin_rx;//{DSY_GPIOB, 7};  // (USART_1 RX) Daisy pin 15
 2113              		.loc 10 290 23 view .LVU599
 2114 04c4 4B61     		str	r3, [r1, #20]
 292:main.cpp      **** 	uart.Init(config);
 2115              		.loc 10 292 23 view .LVU600
 2116 04c6 03F1E063 		add	r3, r3, #117440512
 286:main.cpp      **** 	config.stopbits      = UartHandler::Config::StopBits::BITS_1;
 2117              		.loc 10 286 19 view .LVU601
 2118 04ca 4C60     		str	r4, [r1, #4]
 292:main.cpp      **** 	uart.Init(config);
 2119              		.loc 10 292 23 view .LVU602
 2120 04cc 03F58333 		add	r3, r3, #67072
 2121 04d0 0B60     		str	r3, [r1]
 285:main.cpp      ****  	config.periph   = UartHandler::Config::Peripheral::USART_1;
 2122              		.loc 10 285 18 view .LVU603
 2123 04d2 4FF41653 		mov	r3, #9600
 289:main.cpp      **** 	config.wordlength    = UartHandler::Config::WordLength::BITS_8;
 2124              		.loc 10 289 23 view .LVU604
 2125 04d6 C1E90344 		strd	r4, r4, [r1, #12]
 285:main.cpp      ****  	config.periph   = UartHandler::Config::Peripheral::USART_1;
 2126              		.loc 10 285 18 view .LVU605
 2127 04da 8B61     		str	r3, [r1, #24]
 2128              		.loc 10 293 2 is_stmt 1 view .LVU606
 2129              		.loc 10 293 11 is_stmt 0 view .LVU607
ARM GAS  C:\Users\skipi\AppData\Local\Temp\ccM9ipiF.s 			page 60


 2130 04dc FFF7FEFF 		bl	_ZN5daisy11UartHandler4InitERKNS0_6ConfigE
 2131              	.LVL170:
 294:main.cpp      **** 	hw.StartLog(false);
 2132              		.loc 10 294 2 is_stmt 1 view .LVU608
 2133              	.LBB501:
 2134              	.LBI501:
  23:../../libs/libDaisy/src/daisy_seed.h **** 
  24:../../libs/libDaisy/src/daisy_seed.h ****     /** This function used to provide a pre-initialization configuraiton 
  25:../../libs/libDaisy/src/daisy_seed.h ****      *  it has since been deprecated, and does nothing.
  26:../../libs/libDaisy/src/daisy_seed.h ****      */
  27:../../libs/libDaisy/src/daisy_seed.h ****     void Configure();
  28:../../libs/libDaisy/src/daisy_seed.h **** 
  29:../../libs/libDaisy/src/daisy_seed.h ****     /** 
  30:../../libs/libDaisy/src/daisy_seed.h ****     Initializes the Daisy Seed and the following peripherals:
  31:../../libs/libDaisy/src/daisy_seed.h ****     SDRAM, QSPI, 24-bit 48kHz Audio via AK4556, Internal USB,
  32:../../libs/libDaisy/src/daisy_seed.h ****     as well as the built-in LED and Testpoint.
  33:../../libs/libDaisy/src/daisy_seed.h **** 
  34:../../libs/libDaisy/src/daisy_seed.h ****     ADCs, DACs, and other special peripherals (such as I2C, SPI, etc.)
  35:../../libs/libDaisy/src/daisy_seed.h ****     can be initialized using their specific initializers within libdaisy
  36:../../libs/libDaisy/src/daisy_seed.h ****     for a specific application.
  37:../../libs/libDaisy/src/daisy_seed.h ****     */
  38:../../libs/libDaisy/src/daisy_seed.h ****     void Init(bool boost = false);
  39:../../libs/libDaisy/src/daisy_seed.h **** 
  40:../../libs/libDaisy/src/daisy_seed.h ****     /** 
  41:../../libs/libDaisy/src/daisy_seed.h ****     Deinitializes all peripherals automatically handled by `Init`.
  42:../../libs/libDaisy/src/daisy_seed.h ****     */
  43:../../libs/libDaisy/src/daisy_seed.h ****     void DeInit();
  44:../../libs/libDaisy/src/daisy_seed.h **** 
  45:../../libs/libDaisy/src/daisy_seed.h ****     /** 
  46:../../libs/libDaisy/src/daisy_seed.h ****     Wait some ms before going on.
  47:../../libs/libDaisy/src/daisy_seed.h ****     \param del Delay time in ms.
  48:../../libs/libDaisy/src/daisy_seed.h ****     */
  49:../../libs/libDaisy/src/daisy_seed.h ****     void DelayMs(size_t del);
  50:../../libs/libDaisy/src/daisy_seed.h **** 
  51:../../libs/libDaisy/src/daisy_seed.h ****     /** 
  52:../../libs/libDaisy/src/daisy_seed.h ****     Returns the gpio_pin corresponding to the index 0-31.
  53:../../libs/libDaisy/src/daisy_seed.h ****     For the given GPIO on the Daisy Seed (labeled 1-32 in docs).
  54:../../libs/libDaisy/src/daisy_seed.h ****     */
  55:../../libs/libDaisy/src/daisy_seed.h ****     static Pin GetPin(uint8_t pin_idx);
  56:../../libs/libDaisy/src/daisy_seed.h **** 
  57:../../libs/libDaisy/src/daisy_seed.h ****     /** Begins the audio for the seeds builtin audio.
  58:../../libs/libDaisy/src/daisy_seed.h ****     the specified callback will get called whenever
  59:../../libs/libDaisy/src/daisy_seed.h ****     new data is ready to be prepared.
  60:../../libs/libDaisy/src/daisy_seed.h ****     */
  61:../../libs/libDaisy/src/daisy_seed.h ****     void StartAudio(AudioHandle::InterleavingAudioCallback cb);
  62:../../libs/libDaisy/src/daisy_seed.h **** 
  63:../../libs/libDaisy/src/daisy_seed.h ****     /** Begins the audio for the seeds builtin audio.
  64:../../libs/libDaisy/src/daisy_seed.h ****     the specified callback will get called whenever
  65:../../libs/libDaisy/src/daisy_seed.h ****     new data is ready to be prepared.
  66:../../libs/libDaisy/src/daisy_seed.h ****     This will use the newer non-interleaved callback.
  67:../../libs/libDaisy/src/daisy_seed.h ****     */
  68:../../libs/libDaisy/src/daisy_seed.h ****     void StartAudio(AudioHandle::AudioCallback cb);
  69:../../libs/libDaisy/src/daisy_seed.h **** 
  70:../../libs/libDaisy/src/daisy_seed.h ****     /** Changes to a new interleaved callback
  71:../../libs/libDaisy/src/daisy_seed.h ****      */
  72:../../libs/libDaisy/src/daisy_seed.h ****     void ChangeAudioCallback(AudioHandle::InterleavingAudioCallback cb);
  73:../../libs/libDaisy/src/daisy_seed.h **** 
ARM GAS  C:\Users\skipi\AppData\Local\Temp\ccM9ipiF.s 			page 61


  74:../../libs/libDaisy/src/daisy_seed.h ****     /** Changes to a new multichannel callback
  75:../../libs/libDaisy/src/daisy_seed.h ****      */
  76:../../libs/libDaisy/src/daisy_seed.h ****     void ChangeAudioCallback(AudioHandle::AudioCallback cb);
  77:../../libs/libDaisy/src/daisy_seed.h **** 
  78:../../libs/libDaisy/src/daisy_seed.h ****     /** Stops the audio if it is running. */
  79:../../libs/libDaisy/src/daisy_seed.h ****     void StopAudio();
  80:../../libs/libDaisy/src/daisy_seed.h **** 
  81:../../libs/libDaisy/src/daisy_seed.h ****     /** Updates the Audio Sample Rate, and reinitializes.
  82:../../libs/libDaisy/src/daisy_seed.h ****      ** Audio must be stopped for this to work.
  83:../../libs/libDaisy/src/daisy_seed.h ****      */
  84:../../libs/libDaisy/src/daisy_seed.h ****     void SetAudioSampleRate(SaiHandle::Config::SampleRate samplerate);
  85:../../libs/libDaisy/src/daisy_seed.h **** 
  86:../../libs/libDaisy/src/daisy_seed.h ****     /** Returns the audio sample rate in Hz as a floating point number.
  87:../../libs/libDaisy/src/daisy_seed.h ****      */
  88:../../libs/libDaisy/src/daisy_seed.h ****     float AudioSampleRate();
  89:../../libs/libDaisy/src/daisy_seed.h **** 
  90:../../libs/libDaisy/src/daisy_seed.h ****     /** Sets the number of samples processed per channel by the audio callback.
  91:../../libs/libDaisy/src/daisy_seed.h ****      */
  92:../../libs/libDaisy/src/daisy_seed.h ****     void SetAudioBlockSize(size_t blocksize);
  93:../../libs/libDaisy/src/daisy_seed.h **** 
  94:../../libs/libDaisy/src/daisy_seed.h ****     /** Returns the number of samples per channel in a block of audio. */
  95:../../libs/libDaisy/src/daisy_seed.h ****     size_t AudioBlockSize();
  96:../../libs/libDaisy/src/daisy_seed.h **** 
  97:../../libs/libDaisy/src/daisy_seed.h ****     /** Returns the rate in Hz that the Audio callback is called */
  98:../../libs/libDaisy/src/daisy_seed.h ****     float AudioCallbackRate() const;
  99:../../libs/libDaisy/src/daisy_seed.h **** 
 100:../../libs/libDaisy/src/daisy_seed.h ****     /** Returns the SAI Handle for the Daisy Seed 
 101:../../libs/libDaisy/src/daisy_seed.h ****      *  This can be useful when adding a secondary codec,
 102:../../libs/libDaisy/src/daisy_seed.h ****      *  the result of this function can be passed to the audio reinit 
 103:../../libs/libDaisy/src/daisy_seed.h ****      *  with an SAI2 configuration
 104:../../libs/libDaisy/src/daisy_seed.h ****      */
 105:../../libs/libDaisy/src/daisy_seed.h ****     const SaiHandle& AudioSaiHandle() const;
 106:../../libs/libDaisy/src/daisy_seed.h **** 
 107:../../libs/libDaisy/src/daisy_seed.h ****     /** Sets the state of the built in LED
 108:../../libs/libDaisy/src/daisy_seed.h ****      */
 109:../../libs/libDaisy/src/daisy_seed.h ****     void SetLed(bool state);
 110:../../libs/libDaisy/src/daisy_seed.h **** 
 111:../../libs/libDaisy/src/daisy_seed.h ****     /** Sets the state of the test point near pin 10
 112:../../libs/libDaisy/src/daisy_seed.h ****      */
 113:../../libs/libDaisy/src/daisy_seed.h ****     void SetTestPoint(bool state);
 114:../../libs/libDaisy/src/daisy_seed.h **** 
 115:../../libs/libDaisy/src/daisy_seed.h ****     /** Print formatted debug log message
 116:../../libs/libDaisy/src/daisy_seed.h ****      */
 117:../../libs/libDaisy/src/daisy_seed.h ****     template <typename... VA>
 118:../../libs/libDaisy/src/daisy_seed.h ****     static void Print(const char* format, VA... va)
 119:../../libs/libDaisy/src/daisy_seed.h ****     {
 120:../../libs/libDaisy/src/daisy_seed.h ****         Log::Print(format, va...);
 121:../../libs/libDaisy/src/daisy_seed.h ****     }
 122:../../libs/libDaisy/src/daisy_seed.h **** 
 123:../../libs/libDaisy/src/daisy_seed.h ****     /** Print formatted debug log message with automatic line termination
 124:../../libs/libDaisy/src/daisy_seed.h ****     */
 125:../../libs/libDaisy/src/daisy_seed.h ****     template <typename... VA>
 126:../../libs/libDaisy/src/daisy_seed.h ****     static void PrintLine(const char* format, VA... va)
 127:../../libs/libDaisy/src/daisy_seed.h ****     {
 128:../../libs/libDaisy/src/daisy_seed.h ****         Log::PrintLine(format, va...);
 129:../../libs/libDaisy/src/daisy_seed.h ****     }
 130:../../libs/libDaisy/src/daisy_seed.h **** 
ARM GAS  C:\Users\skipi\AppData\Local\Temp\ccM9ipiF.s 			page 62


 131:../../libs/libDaisy/src/daisy_seed.h ****     /** Start the logging session. Optionally wait for terminal connection before proceeding.
 132:../../libs/libDaisy/src/daisy_seed.h ****     */
 133:../../libs/libDaisy/src/daisy_seed.h ****     static void StartLog(bool wait_for_pc = false)
 2135              		.loc 1 133 17 view .LVU609
 2136              	.LBB502:
 134:../../libs/libDaisy/src/daisy_seed.h ****     {
 135:../../libs/libDaisy/src/daisy_seed.h ****         Log::StartLog(wait_for_pc);
 2137              		.loc 1 135 9 view .LVU610
 2138              		.loc 1 135 22 is_stmt 0 view .LVU611
 2139 04e0 2046     		mov	r0, r4
 2140 04e2 FFF7FEFF 		bl	_ZN5daisy6LoggerILNS_17LoggerDestinationE1EE8StartLogEb
 2141              	.LVL171:
 2142              		.loc 1 135 22 view .LVU612
 2143              	.LBE502:
 2144              	.LBE501:
 295:main.cpp      **** 	uint8_t start_bit = 'S';
 2145              		.loc 10 295 2 is_stmt 1 view .LVU613
 2146              		.loc 10 295 10 is_stmt 0 view .LVU614
 2147 04e6 5323     		movs	r3, #83
 2148 04e8 8DF80730 		strb	r3, [sp, #7]
 296:main.cpp      **** 	while (start_bit != 'I') // Wait for the start bit
 2149              		.loc 10 296 2 is_stmt 1 view .LVU615
 2150              		.loc 10 296 19 view .LVU616
 2151              	.L41:
 297:main.cpp      **** 	{ 
 298:main.cpp      **** 		uart.BlockingReceive(&start_bit, sizeof(start_bit), 100);
 2152              		.loc 10 298 3 view .LVU617
 2153              		.loc 10 298 23 is_stmt 0 view .LVU618
 2154 04ec 6423     		movs	r3, #100
 2155 04ee 0122     		movs	r2, #1
 2156 04f0 0DF10701 		add	r1, sp, #7
 2157 04f4 6848     		ldr	r0, .L64+16
 2158 04f6 FFF7FEFF 		bl	_ZN5daisy11UartHandler15BlockingReceiveEPhtm
 2159              	.LVL172:
 296:main.cpp      **** 	while (start_bit != 'I') // Wait for the start bit
 2160              		.loc 10 296 2 is_stmt 1 view .LVU619
 296:main.cpp      **** 	while (start_bit != 'I') // Wait for the start bit
 2161              		.loc 10 296 19 view .LVU620
 2162 04fa 9DF80730 		ldrb	r3, [sp, #7]	@ zero_extendqisi2
 2163 04fe 492B     		cmp	r3, #73
 2164 0500 F4D1     		bne	.L41
 299:main.cpp      **** 	}
 300:main.cpp      ****     
 301:main.cpp      ****     hw.StartAudio(AudioCallback);                                               // Start the audio 
 2165              		.loc 10 301 5 view .LVU621
 2166              		.loc 10 301 18 is_stmt 0 view .LVU622
 2167 0502 6649     		ldr	r1, .L64+20
 2168 0504 6648     		ldr	r0, .L64+24
 2169 0506 674F     		ldr	r7, .L64+28
 2170 0508 674E     		ldr	r6, .L64+32
 2171 050a DFF8F8B1 		ldr	fp, .L64+124
 2172 050e DFF8F8A1 		ldr	r10, .L64+128
 2173 0512 DFF8F891 		ldr	r9, .L64+132
 2174 0516 DFF8F881 		ldr	r8, .L64+136
 2175 051a FFF7FEFF 		bl	_ZN5daisy9DaisySeed10StartAudioEPFvPKPKfPPfjE
 2176              	.LVL173:
 2177              	.L44:
ARM GAS  C:\Users\skipi\AppData\Local\Temp\ccM9ipiF.s 			page 63


 302:main.cpp      **** 
 303:main.cpp      ****     // Infinite loop to keep the program running
 304:main.cpp      ****     while (1) {
 2178              		.loc 10 304 5 is_stmt 1 view .LVU623
 2179              	.LBB503:
 305:main.cpp      ****         getData(); // Call the function to get data from the UART
 2180              		.loc 10 305 9 view .LVU624
 2181 051e 614D     		ldr	r5, .L64+28
 2182              	.LBB504:
 306:main.cpp      **** 		for ( int i = 0; i < 3; i++){
 2183              		.loc 10 306 13 is_stmt 0 view .LVU625
 2184 0520 0024     		movs	r4, #0
 2185              	.LBE504:
 305:main.cpp      ****         getData(); // Call the function to get data from the UART
 2186              		.loc 10 305 16 view .LVU626
 2187 0522 FFF7FEFF 		bl	_Z7getDatav
 2188              	.LVL174:
 2189              		.loc 10 306 3 is_stmt 1 view .LVU627
 2190              	.LBB513:
 2191              		.loc 10 306 22 view .LVU628
 2192              	.L42:
 307:main.cpp      **** 			hw.PrintLine (" penta %d : %d",i, penta[i].getRaw());
 2193              		.loc 10 307 4 discriminator 2 view .LVU629
 2194              	.LBB505:
 2195              	.LBI505:
  21:pentaPianta.h ****     void setRawValue(uint16_t value) { _raw_value = value; } //set the raw value of the sensor
 2196              		.loc 12 21 14 discriminator 2 view .LVU630
 2197              	.LBB506:
  21:pentaPianta.h ****     void setRawValue(uint16_t value) { _raw_value = value; } //set the raw value of the sensor
 2198              		.loc 12 21 24 discriminator 2 view .LVU631
  21:pentaPianta.h ****     void setRawValue(uint16_t value) { _raw_value = value; } //set the raw value of the sensor
 2199              		.loc 12 21 24 is_stmt 0 discriminator 2 view .LVU632
 2200              	.LBE506:
 2201              	.LBE505:
 2202              	.LBB507:
 2203              	.LBI507:
 126:../../libs/libDaisy/src/daisy_seed.h ****     {
 2204              		.loc 1 126 17 is_stmt 1 discriminator 2 view .LVU633
 2205              	.LBB508:
 128:../../libs/libDaisy/src/daisy_seed.h ****     }
 2206              		.loc 1 128 23 is_stmt 0 discriminator 2 view .LVU634
 2207 0526 2146     		mov	r1, r4
 2208              	.LBE508:
 2209              	.LBE507:
 306:main.cpp      **** 			hw.PrintLine (" penta %d : %d",i, penta[i].getRaw());
 2210              		.loc 10 306 3 discriminator 2 view .LVU635
 2211 0528 0134     		adds	r4, r4, #1
 2212              	.LVL175:
 2213              	.LBB511:
 2214              	.LBB509:
 128:../../libs/libDaisy/src/daisy_seed.h ****     }
 2215              		.loc 1 128 23 discriminator 2 view .LVU636
 2216 052a AA89     		ldrh	r2, [r5, #12]
 2217              	.LBE509:
 2218              	.LBE511:
 306:main.cpp      **** 			hw.PrintLine (" penta %d : %d",i, penta[i].getRaw());
 2219              		.loc 10 306 22 discriminator 2 view .LVU637
ARM GAS  C:\Users\skipi\AppData\Local\Temp\ccM9ipiF.s 			page 64


 2220 052c 1035     		adds	r5, r5, #16
 2221              	.LVL176:
 2222              	.LBB512:
 2223              	.LBB510:
 128:../../libs/libDaisy/src/daisy_seed.h ****     }
 2224              		.loc 1 128 23 discriminator 2 view .LVU638
 2225 052e 5F48     		ldr	r0, .L64+36
 2226 0530 FFF7FEFF 		bl	_ZN5daisy6LoggerILNS_17LoggerDestinationE1EE9PrintLineEPKcz
 2227              	.LVL177:
 128:../../libs/libDaisy/src/daisy_seed.h ****     }
 2228              		.loc 1 128 23 discriminator 2 view .LVU639
 2229              	.LBE510:
 2230              	.LBE512:
 306:main.cpp      **** 			hw.PrintLine (" penta %d : %d",i, penta[i].getRaw());
 2231              		.loc 10 306 3 is_stmt 1 discriminator 2 view .LVU640
 306:main.cpp      **** 			hw.PrintLine (" penta %d : %d",i, penta[i].getRaw());
 2232              		.loc 10 306 22 discriminator 2 view .LVU641
 2233 0534 032C     		cmp	r4, #3
 2234 0536 F6D1     		bne	.L42
 2235 0538 5B4D     		ldr	r5, .L64+32
 2236              	.LBE513:
 2237              	.LBB514:
 308:main.cpp      **** 		}
 309:main.cpp      **** 		for ( int i = 0; i < 4; i++){
 2238              		.loc 10 309 13 is_stmt 0 view .LVU642
 2239 053a 0024     		movs	r4, #0
 2240              	.LVL178:
 2241              	.L43:
 310:main.cpp      **** 			hw.PrintLine ( "effect %d gate %f",i, effect[i].getGate());
 2242              		.loc 10 310 4 is_stmt 1 discriminator 2 view .LVU643
 2243              	.LBB515:
 2244              	.LBI515:
 2245              		.file 13 "Effect.h"
   1:Effect.h      **** //
   2:Effect.h      **** // Created by flipb on 06/03/2025.
   3:Effect.h      **** //
   4:Effect.h      **** 
   5:Effect.h      **** #ifndef EFFECT_H
   6:Effect.h      **** #define EFFECT_H
   7:Effect.h      **** //#include <iostream>
   8:Effect.h      **** #include <stdint.h>
   9:Effect.h      **** 
  10:Effect.h      **** 
  11:Effect.h      **** class Effect {
  12:Effect.h      **** public:
  13:Effect.h      ****     void begin(int* thresholdsI);
  14:Effect.h      ****     void setRawValue(uint16_t value) { _raw_value = value; } //set the raw value of the sensor
  15:Effect.h      ****     void setGate(bool gate) { _gate = gate; } //set the gate of the sensor
  16:Effect.h      ****     float analogCoeffFine(uint16_t value);
  17:Effect.h      ****     float analogCoeffIgnorant(uint16_t value);
  18:Effect.h      ****     float getValue() { return analogCoeffFine(_raw_value); } //get the raw value of the sensor
  19:Effect.h      ****     bool getGate() { return _gate; } //get the gate of the sensor
 2246              		.loc 13 19 10 discriminator 2 view .LVU644
 2247              	.LBB516:
 2248              		.loc 13 19 22 discriminator 2 view .LVU645
 2249              		.loc 13 19 22 is_stmt 0 discriminator 2 view .LVU646
 2250              	.LBE516:
ARM GAS  C:\Users\skipi\AppData\Local\Temp\ccM9ipiF.s 			page 65


 2251              	.LBE515:
 2252              	.LBB517:
 2253              	.LBI517:
 126:../../libs/libDaisy/src/daisy_seed.h ****     {
 2254              		.loc 1 126 17 is_stmt 1 discriminator 2 view .LVU647
 2255              	.LBB518:
 128:../../libs/libDaisy/src/daisy_seed.h ****     }
 2256              		.loc 1 128 23 is_stmt 0 discriminator 2 view .LVU648
 2257 053c 2A7F     		ldrb	r2, [r5, #28]	@ zero_extendqisi2
 2258 053e 2146     		mov	r1, r4
 2259 0540 5B48     		ldr	r0, .L64+40
 2260 0542 FFF7FEFF 		bl	_ZN5daisy6LoggerILNS_17LoggerDestinationE1EE9PrintLineEPKcz
 2261              	.LVL179:
 128:../../libs/libDaisy/src/daisy_seed.h ****     }
 2262              		.loc 1 128 23 discriminator 2 view .LVU649
 2263              	.LBE518:
 2264              	.LBE517:
 311:main.cpp      **** 			hw.PrintLine ( "effect %d value %f",i, effect[i].getValue());
 2265              		.loc 10 311 4 is_stmt 1 discriminator 2 view .LVU650
 2266              	.LBB519:
 2267              	.LBI519:
  18:Effect.h      ****     bool getGate() { return _gate; } //get the gate of the sensor
 2268              		.loc 13 18 11 discriminator 2 view .LVU651
 2269              	.LBB520:
  18:Effect.h      ****     bool getGate() { return _gate; } //get the gate of the sensor
 2270              		.loc 13 18 24 discriminator 2 view .LVU652
  18:Effect.h      ****     bool getGate() { return _gate; } //get the gate of the sensor
 2271              		.loc 13 18 46 is_stmt 0 discriminator 2 view .LVU653
 2272 0546 E98B     		ldrh	r1, [r5, #30]
 2273 0548 2846     		mov	r0, r5
 2274              	.LBE520:
 2275              	.LBE519:
 309:main.cpp      **** 			hw.PrintLine ( "effect %d gate %f",i, effect[i].getGate());
 2276              		.loc 10 309 22 discriminator 2 view .LVU654
 2277 054a 2035     		adds	r5, r5, #32
 2278              	.LVL180:
 2279              	.LBB522:
 2280              	.LBB521:
  18:Effect.h      ****     bool getGate() { return _gate; } //get the gate of the sensor
 2281              		.loc 13 18 46 discriminator 2 view .LVU655
 2282 054c FFF7FEFF 		bl	_ZN6Effect15analogCoeffFineEt
 2283              	.LVL181:
  18:Effect.h      ****     bool getGate() { return _gate; } //get the gate of the sensor
 2284              		.loc 13 18 46 discriminator 2 view .LVU656
 2285              	.LBE521:
 2286              	.LBE522:
 2287              	.LBB523:
 2288              	.LBI523:
 126:../../libs/libDaisy/src/daisy_seed.h ****     {
 2289              		.loc 1 126 17 is_stmt 1 discriminator 2 view .LVU657
 2290              	.LBB524:
 128:../../libs/libDaisy/src/daisy_seed.h ****     }
 2291              		.loc 1 128 23 is_stmt 0 discriminator 2 view .LVU658
 2292 0550 B7EEC07A 		vcvt.f64.f32	d7, s0
 2293 0554 2146     		mov	r1, r4
 2294              	.LBE524:
 2295              	.LBE523:
ARM GAS  C:\Users\skipi\AppData\Local\Temp\ccM9ipiF.s 			page 66


 309:main.cpp      **** 			hw.PrintLine ( "effect %d gate %f",i, effect[i].getGate());
 2296              		.loc 10 309 3 discriminator 2 view .LVU659
 2297 0556 0134     		adds	r4, r4, #1
 2298              	.LVL182:
 2299              	.LBB526:
 2300              	.LBB525:
 128:../../libs/libDaisy/src/daisy_seed.h ****     }
 2301              		.loc 1 128 23 discriminator 2 view .LVU660
 2302 0558 5648     		ldr	r0, .L64+44
 2303 055a 53EC172B 		vmov	r2, r3, d7
 2304 055e FFF7FEFF 		bl	_ZN5daisy6LoggerILNS_17LoggerDestinationE1EE9PrintLineEPKcz
 2305              	.LVL183:
 128:../../libs/libDaisy/src/daisy_seed.h ****     }
 2306              		.loc 1 128 23 discriminator 2 view .LVU661
 2307              	.LBE525:
 2308              	.LBE526:
 309:main.cpp      **** 			hw.PrintLine ( "effect %d gate %f",i, effect[i].getGate());
 2309              		.loc 10 309 3 is_stmt 1 discriminator 2 view .LVU662
 309:main.cpp      **** 			hw.PrintLine ( "effect %d gate %f",i, effect[i].getGate());
 2310              		.loc 10 309 22 discriminator 2 view .LVU663
 2311 0562 042C     		cmp	r4, #4
 2312 0564 EAD1     		bne	.L43
 2313              	.LBE514:
 312:main.cpp      **** 		}
 313:main.cpp      ****         
 314:main.cpp      ****         knob1 = (float) penta[0].getRaw()/65535.0f;
 2314              		.loc 10 314 9 view .LVU664
 2315              	.LVL184:
 2316              	.LBB527:
 2317              	.LBI527:
  21:pentaPianta.h ****     void setRawValue(uint16_t value) { _raw_value = value; } //set the raw value of the sensor
 2318              		.loc 12 21 14 view .LVU665
 2319              	.LBB528:
  21:pentaPianta.h ****     void setRawValue(uint16_t value) { _raw_value = value; } //set the raw value of the sensor
 2320              		.loc 12 21 24 view .LVU666
  21:pentaPianta.h ****     void setRawValue(uint16_t value) { _raw_value = value; } //set the raw value of the sensor
 2321              		.loc 12 21 24 is_stmt 0 view .LVU667
 2322              	.LBE528:
 2323              	.LBE527:
 2324              		.loc 10 314 17 view .LVU668
 2325 0566 BB89     		ldrh	r3, [r7, #12]
 2326              		.loc 10 314 42 view .LVU669
 2327 0568 9FED538A 		vldr.32	s16, .L64+48
 2328              		.loc 10 314 17 view .LVU670
 2329 056c 07EE903A 		vmov	s15, r3	@ int
 315:main.cpp      ****         knob2 = (float) penta[1].getRaw()/65535.0f;
 2330              		.loc 10 315 17 view .LVU671
 2331 0570 BB8B     		ldrh	r3, [r7, #28]
 2332              	.LBB529:
 2333              	.LBB530:
  18:Effect.h      ****     bool getGate() { return _gate; } //get the gate of the sensor
 2334              		.loc 13 18 46 view .LVU672
 2335 0572 F18B     		ldrh	r1, [r6, #30]
 2336              	.LBE530:
 2337              	.LBE529:
 314:main.cpp      ****         knob2 = (float) penta[1].getRaw()/65535.0f;
 2338              		.loc 10 314 17 view .LVU673
ARM GAS  C:\Users\skipi\AppData\Local\Temp\ccM9ipiF.s 			page 67


 2339 0574 F8EE677A 		vcvt.f32.u32	s15, s15
 2340              	.LBB533:
 2341              	.LBB531:
  18:Effect.h      ****     bool getGate() { return _gate; } //get the gate of the sensor
 2342              		.loc 13 18 46 view .LVU674
 2343 0578 4B48     		ldr	r0, .L64+32
 2344              	.LBE531:
 2345              	.LBE533:
 316:main.cpp      ****         knob3 = (float) penta[2].getRaw()/65535.0f;
 317:main.cpp      ****         knob4 = (float) effect[0].getValue()/65535.0f;
 318:main.cpp      ****         knob5 = (float) effect[1].getValue()/65535.0f;
 2346              		.loc 10 318 15 view .LVU675
 2347 057a 504C     		ldr	r4, .L64+52
 2348              	.LVL185:
 319:main.cpp      ****         knob6 = (float) effect[2].getValue()/65535.0f;
 2349              		.loc 10 319 15 view .LVU676
 2350 057c 504D     		ldr	r5, .L64+56
 314:main.cpp      ****         knob2 = (float) penta[1].getRaw()/65535.0f;
 2351              		.loc 10 314 42 view .LVU677
 2352 057e 87EE887A 		vdiv.f32	s14, s15, s16
 315:main.cpp      ****         knob3 = (float) penta[2].getRaw()/65535.0f;
 2353              		.loc 10 315 17 view .LVU678
 2354 0582 07EE903A 		vmov	s15, r3	@ int
 316:main.cpp      ****         knob3 = (float) penta[2].getRaw()/65535.0f;
 2355              		.loc 10 316 17 view .LVU679
 2356 0586 BB8D     		ldrh	r3, [r7, #44]
 315:main.cpp      ****         knob3 = (float) penta[2].getRaw()/65535.0f;
 2357              		.loc 10 315 17 view .LVU680
 2358 0588 F8EE677A 		vcvt.f32.u32	s15, s15
 314:main.cpp      ****         knob2 = (float) penta[1].getRaw()/65535.0f;
 2359              		.loc 10 314 15 view .LVU681
 2360 058c 8BED007A 		vstr.32	s14, [fp]
 315:main.cpp      ****         knob3 = (float) penta[2].getRaw()/65535.0f;
 2361              		.loc 10 315 9 is_stmt 1 view .LVU682
 2362              	.LVL186:
 2363              	.LBB534:
 2364              	.LBI534:
  21:pentaPianta.h ****     void setRawValue(uint16_t value) { _raw_value = value; } //set the raw value of the sensor
 2365              		.loc 12 21 14 view .LVU683
 2366              	.LBB535:
  21:pentaPianta.h ****     void setRawValue(uint16_t value) { _raw_value = value; } //set the raw value of the sensor
 2367              		.loc 12 21 24 view .LVU684
  21:pentaPianta.h ****     void setRawValue(uint16_t value) { _raw_value = value; } //set the raw value of the sensor
 2368              		.loc 12 21 24 is_stmt 0 view .LVU685
 2369              	.LBE535:
 2370              	.LBE534:
 315:main.cpp      ****         knob3 = (float) penta[2].getRaw()/65535.0f;
 2371              		.loc 10 315 42 view .LVU686
 2372 0590 87EE887A 		vdiv.f32	s14, s15, s16
 316:main.cpp      ****         knob4 = (float) effect[0].getValue()/65535.0f;
 2373              		.loc 10 316 17 view .LVU687
 2374 0594 07EE903A 		vmov	s15, r3	@ int
 2375 0598 F8EE677A 		vcvt.f32.u32	s15, s15
 315:main.cpp      ****         knob3 = (float) penta[2].getRaw()/65535.0f;
 2376              		.loc 10 315 15 view .LVU688
 2377 059c 8AED007A 		vstr.32	s14, [r10]
 316:main.cpp      ****         knob4 = (float) effect[0].getValue()/65535.0f;
ARM GAS  C:\Users\skipi\AppData\Local\Temp\ccM9ipiF.s 			page 68


 2378              		.loc 10 316 9 is_stmt 1 view .LVU689
 2379              	.LVL187:
 2380              	.LBB536:
 2381              	.LBI536:
  21:pentaPianta.h ****     void setRawValue(uint16_t value) { _raw_value = value; } //set the raw value of the sensor
 2382              		.loc 12 21 14 view .LVU690
 2383              	.LBB537:
  21:pentaPianta.h ****     void setRawValue(uint16_t value) { _raw_value = value; } //set the raw value of the sensor
 2384              		.loc 12 21 24 view .LVU691
  21:pentaPianta.h ****     void setRawValue(uint16_t value) { _raw_value = value; } //set the raw value of the sensor
 2385              		.loc 12 21 24 is_stmt 0 view .LVU692
 2386              	.LBE537:
 2387              	.LBE536:
 316:main.cpp      ****         knob4 = (float) effect[0].getValue()/65535.0f;
 2388              		.loc 10 316 42 view .LVU693
 2389 05a0 87EE887A 		vdiv.f32	s14, s15, s16
 316:main.cpp      ****         knob4 = (float) effect[0].getValue()/65535.0f;
 2390              		.loc 10 316 15 view .LVU694
 2391 05a4 89ED007A 		vstr.32	s14, [r9]
 317:main.cpp      ****         knob5 = (float) effect[1].getValue()/65535.0f;
 2392              		.loc 10 317 9 is_stmt 1 view .LVU695
 2393              	.LVL188:
 2394              	.LBB538:
 2395              	.LBI529:
  18:Effect.h      ****     bool getGate() { return _gate; } //get the gate of the sensor
 2396              		.loc 13 18 11 view .LVU696
 2397              	.LBB532:
  18:Effect.h      ****     bool getGate() { return _gate; } //get the gate of the sensor
 2398              		.loc 13 18 24 view .LVU697
  18:Effect.h      ****     bool getGate() { return _gate; } //get the gate of the sensor
 2399              		.loc 13 18 46 is_stmt 0 view .LVU698
 2400 05a8 FFF7FEFF 		bl	_ZN6Effect15analogCoeffFineEt
 2401              	.LVL189:
  18:Effect.h      ****     bool getGate() { return _gate; } //get the gate of the sensor
 2402              		.loc 13 18 46 view .LVU699
 2403              	.LBE532:
 2404              	.LBE538:
 317:main.cpp      ****         knob5 = (float) effect[1].getValue()/65535.0f;
 2405              		.loc 10 317 45 view .LVU700
 2406 05ac C0EE087A 		vdiv.f32	s15, s0, s16
 2407              	.LBB539:
 2408              	.LBB540:
  18:Effect.h      ****     bool getGate() { return _gate; } //get the gate of the sensor
 2409              		.loc 13 18 46 view .LVU701
 2410 05b0 F18F     		ldrh	r1, [r6, #62]
 2411 05b2 4448     		ldr	r0, .L64+60
 2412              	.LBE540:
 2413              	.LBE539:
 317:main.cpp      ****         knob5 = (float) effect[1].getValue()/65535.0f;
 2414              		.loc 10 317 15 view .LVU702
 2415 05b4 C8ED007A 		vstr.32	s15, [r8]
 318:main.cpp      ****         knob6 = (float) effect[2].getValue()/65535.0f;
 2416              		.loc 10 318 9 is_stmt 1 view .LVU703
 2417              	.LVL190:
 2418              	.LBB542:
 2419              	.LBI539:
  18:Effect.h      ****     bool getGate() { return _gate; } //get the gate of the sensor
ARM GAS  C:\Users\skipi\AppData\Local\Temp\ccM9ipiF.s 			page 69


 2420              		.loc 13 18 11 view .LVU704
 2421              	.LBB541:
  18:Effect.h      ****     bool getGate() { return _gate; } //get the gate of the sensor
 2422              		.loc 13 18 24 view .LVU705
  18:Effect.h      ****     bool getGate() { return _gate; } //get the gate of the sensor
 2423              		.loc 13 18 46 is_stmt 0 view .LVU706
 2424 05b8 FFF7FEFF 		bl	_ZN6Effect15analogCoeffFineEt
 2425              	.LVL191:
  18:Effect.h      ****     bool getGate() { return _gate; } //get the gate of the sensor
 2426              		.loc 13 18 46 view .LVU707
 2427              	.LBE541:
 2428              	.LBE542:
 318:main.cpp      ****         knob6 = (float) effect[2].getValue()/65535.0f;
 2429              		.loc 10 318 45 view .LVU708
 2430 05bc C0EE087A 		vdiv.f32	s15, s0, s16
 2431              	.LBB543:
 2432              	.LBB544:
  18:Effect.h      ****     bool getGate() { return _gate; } //get the gate of the sensor
 2433              		.loc 13 18 46 view .LVU709
 2434 05c0 B6F85E10 		ldrh	r1, [r6, #94]
 2435 05c4 4048     		ldr	r0, .L64+64
 2436              	.LBE544:
 2437              	.LBE543:
 318:main.cpp      ****         knob6 = (float) effect[2].getValue()/65535.0f;
 2438              		.loc 10 318 15 view .LVU710
 2439 05c6 C4ED007A 		vstr.32	s15, [r4]
 2440              		.loc 10 319 9 is_stmt 1 view .LVU711
 2441              	.LVL192:
 2442              	.LBB546:
 2443              	.LBI543:
  18:Effect.h      ****     bool getGate() { return _gate; } //get the gate of the sensor
 2444              		.loc 13 18 11 view .LVU712
 2445              	.LBB545:
  18:Effect.h      ****     bool getGate() { return _gate; } //get the gate of the sensor
 2446              		.loc 13 18 24 view .LVU713
  18:Effect.h      ****     bool getGate() { return _gate; } //get the gate of the sensor
 2447              		.loc 13 18 46 is_stmt 0 view .LVU714
 2448 05ca FFF7FEFF 		bl	_ZN6Effect15analogCoeffFineEt
 2449              	.LVL193:
  18:Effect.h      ****     bool getGate() { return _gate; } //get the gate of the sensor
 2450              		.loc 13 18 46 view .LVU715
 2451              	.LBE545:
 2452              	.LBE546:
 2453              		.loc 10 319 45 view .LVU716
 2454 05ce C0EE087A 		vdiv.f32	s15, s0, s16
 2455              	.LBB547:
 2456              	.LBB548:
  18:Effect.h      ****     bool getGate() { return _gate; } //get the gate of the sensor
 2457              		.loc 13 18 46 view .LVU717
 2458 05d2 B6F87E10 		ldrh	r1, [r6, #126]
 2459 05d6 3D48     		ldr	r0, .L64+68
 2460              	.LBE548:
 2461              	.LBE547:
 2462              		.loc 10 319 15 view .LVU718
 2463 05d8 C5ED007A 		vstr.32	s15, [r5]
 320:main.cpp      ****         knob7 = (float) effect[3].getValue()/65535.0f;
 2464              		.loc 10 320 9 is_stmt 1 view .LVU719
ARM GAS  C:\Users\skipi\AppData\Local\Temp\ccM9ipiF.s 			page 70


 2465              	.LVL194:
 2466              	.LBB550:
 2467              	.LBI547:
  18:Effect.h      ****     bool getGate() { return _gate; } //get the gate of the sensor
 2468              		.loc 13 18 11 view .LVU720
 2469              	.LBB549:
  18:Effect.h      ****     bool getGate() { return _gate; } //get the gate of the sensor
 2470              		.loc 13 18 24 view .LVU721
  18:Effect.h      ****     bool getGate() { return _gate; } //get the gate of the sensor
 2471              		.loc 13 18 46 is_stmt 0 view .LVU722
 2472 05dc FFF7FEFF 		bl	_ZN6Effect15analogCoeffFineEt
 2473              	.LVL195:
  18:Effect.h      ****     bool getGate() { return _gate; } //get the gate of the sensor
 2474              		.loc 13 18 46 view .LVU723
 2475              	.LBE549:
 2476              	.LBE550:
 321:main.cpp      **** 
 322:main.cpp      ****         now_f_lfo_Bass = knob1*f_lfo_Bass; // Frequency of LFO for Bass
 323:main.cpp      ****         now_f_lfo_Pluck = knob5*f_lfo_Bass; // Frequency of LFO for Pluck
 324:main.cpp      ****         now_f_lfo_Pad = knob3*f_lfo_Pad; // Frequency of LFO for Pad
 325:main.cpp      **** 
 326:main.cpp      ****         now_f_Pluck = f_Pluck+ knob6*f_Pluck; // Frequency of Pluck
 2477              		.loc 10 326 37 view .LVU724
 2478 05e0 3B4B     		ldr	r3, .L64+72
 320:main.cpp      ****         knob7 = (float) effect[3].getValue()/65535.0f;
 2479              		.loc 10 320 45 view .LVU725
 2480 05e2 80EE084A 		vdiv.f32	s8, s0, s16
 2481              		.loc 10 326 30 view .LVU726
 2482 05e6 95ED005A 		vldr.32	s10, [r5]
 327:main.cpp      ****         now_f_Bass = f_Bass+ knob2*f_Bass; // Frequency of Bass
 328:main.cpp      ****         now_f_Pad = f_Pad+ knob4*f_Pad; // Frequency of Pad
 329:main.cpp      **** 
 330:main.cpp      ****         //Gate_Pluck = ..
 331:main.cpp      ****         //Gate_Bass = ..
 332:main.cpp      ****         //Gate_Pad = ..
 333:main.cpp      **** 
 334:main.cpp      ****         //time =..
 335:main.cpp      ****         //delayTime =logscale(time, MIN_DELAY, MAX_DELAY); // Imposta il tempo di delay
 336:main.cpp      ****         
 337:main.cpp      **** 
 338:main.cpp      ****         // Wait 1ms to reduce CPU usage
 339:main.cpp      ****         System::Delay(1);
 2483              		.loc 10 339 22 view .LVU727
 2484 05ea 0120     		movs	r0, #1
 326:main.cpp      ****         now_f_Bass = f_Bass+ knob2*f_Bass; // Frequency of Bass
 2485              		.loc 10 326 37 view .LVU728
 2486 05ec D3ED006A 		vldr.32	s13, [r3]
 327:main.cpp      ****         now_f_Bass = f_Bass+ knob2*f_Bass; // Frequency of Bass
 2487              		.loc 10 327 35 view .LVU729
 2488 05f0 384B     		ldr	r3, .L64+76
 327:main.cpp      ****         now_f_Bass = f_Bass+ knob2*f_Bass; // Frequency of Bass
 2489              		.loc 10 327 28 view .LVU730
 2490 05f2 DAED005A 		vldr.32	s11, [r10]
 327:main.cpp      ****         now_f_Bass = f_Bass+ knob2*f_Bass; // Frequency of Bass
 2491              		.loc 10 327 35 view .LVU731
 2492 05f6 93ED007A 		vldr.32	s14, [r3]
 326:main.cpp      ****         now_f_Bass = f_Bass+ knob2*f_Bass; // Frequency of Bass
ARM GAS  C:\Users\skipi\AppData\Local\Temp\ccM9ipiF.s 			page 71


 2493              		.loc 10 326 30 view .LVU732
 2494 05fa E5EE266A 		vfma.f32	s13, s10, s13
 328:main.cpp      **** 
 2495              		.loc 10 328 33 view .LVU733
 2496 05fe 364B     		ldr	r3, .L64+80
 322:main.cpp      ****         now_f_lfo_Pluck = knob5*f_lfo_Bass; // Frequency of LFO for Pluck
 2497              		.loc 10 322 31 view .LVU734
 2498 0600 9BED005A 		vldr.32	s10, [fp]
 327:main.cpp      ****         now_f_Pad = f_Pad+ knob4*f_Pad; // Frequency of Pad
 2499              		.loc 10 327 28 view .LVU735
 2500 0604 A5EE877A 		vfma.f32	s14, s11, s14
 328:main.cpp      **** 
 2501              		.loc 10 328 33 view .LVU736
 2502 0608 D3ED007A 		vldr.32	s15, [r3]
 322:main.cpp      ****         now_f_lfo_Pluck = knob5*f_lfo_Bass; // Frequency of LFO for Pluck
 2503              		.loc 10 322 31 view .LVU737
 2504 060c 334B     		ldr	r3, .L64+84
 328:main.cpp      **** 
 2505              		.loc 10 328 26 view .LVU738
 2506 060e 98ED006A 		vldr.32	s12, [r8]
 322:main.cpp      ****         now_f_lfo_Pluck = knob5*f_lfo_Bass; // Frequency of LFO for Pluck
 2507              		.loc 10 322 31 view .LVU739
 2508 0612 D3ED004A 		vldr.32	s9, [r3]
 324:main.cpp      **** 
 2509              		.loc 10 324 30 view .LVU740
 2510 0616 324B     		ldr	r3, .L64+88
 328:main.cpp      **** 
 2511              		.loc 10 328 26 view .LVU741
 2512 0618 E6EE277A 		vfma.f32	s15, s12, s15
 322:main.cpp      ****         now_f_lfo_Pluck = knob5*f_lfo_Bass; // Frequency of LFO for Pluck
 2513              		.loc 10 322 31 view .LVU742
 2514 061c 25EE245A 		vmul.f32	s10, s10, s9
 323:main.cpp      ****         now_f_lfo_Pad = knob3*f_lfo_Pad; // Frequency of LFO for Pad
 2515              		.loc 10 323 32 view .LVU743
 2516 0620 D4ED005A 		vldr.32	s11, [r4]
 324:main.cpp      **** 
 2517              		.loc 10 324 30 view .LVU744
 2518 0624 D3ED003A 		vldr.32	s7, [r3]
 326:main.cpp      ****         now_f_Bass = f_Bass+ knob2*f_Bass; // Frequency of Bass
 2519              		.loc 10 326 21 view .LVU745
 2520 0628 2E4B     		ldr	r3, .L64+92
 323:main.cpp      ****         now_f_lfo_Pad = knob3*f_lfo_Pad; // Frequency of LFO for Pad
 2521              		.loc 10 323 32 view .LVU746
 2522 062a 65EEA45A 		vmul.f32	s11, s11, s9
 324:main.cpp      **** 
 2523              		.loc 10 324 30 view .LVU747
 2524 062e 99ED006A 		vldr.32	s12, [r9]
 326:main.cpp      ****         now_f_Bass = f_Bass+ knob2*f_Bass; // Frequency of Bass
 2525              		.loc 10 326 21 view .LVU748
 2526 0632 C3ED006A 		vstr.32	s13, [r3]
 322:main.cpp      ****         now_f_lfo_Pluck = knob5*f_lfo_Bass; // Frequency of LFO for Pluck
 2527              		.loc 10 322 24 view .LVU749
 2528 0636 2C4B     		ldr	r3, .L64+96
 324:main.cpp      **** 
 2529              		.loc 10 324 30 view .LVU750
 2530 0638 26EE236A 		vmul.f32	s12, s12, s7
 322:main.cpp      ****         now_f_lfo_Pluck = knob5*f_lfo_Bass; // Frequency of LFO for Pluck
ARM GAS  C:\Users\skipi\AppData\Local\Temp\ccM9ipiF.s 			page 72


 2531              		.loc 10 322 24 view .LVU751
 2532 063c 83ED005A 		vstr.32	s10, [r3]
 327:main.cpp      ****         now_f_Pad = f_Pad+ knob4*f_Pad; // Frequency of Pad
 2533              		.loc 10 327 20 view .LVU752
 2534 0640 2A4B     		ldr	r3, .L64+100
 2535 0642 83ED007A 		vstr.32	s14, [r3]
 323:main.cpp      ****         now_f_lfo_Pad = knob3*f_lfo_Pad; // Frequency of LFO for Pad
 2536              		.loc 10 323 25 view .LVU753
 2537 0646 2A4B     		ldr	r3, .L64+104
 2538 0648 C3ED005A 		vstr.32	s11, [r3]
 328:main.cpp      **** 
 2539              		.loc 10 328 19 view .LVU754
 2540 064c 294B     		ldr	r3, .L64+108
 2541 064e C3ED007A 		vstr.32	s15, [r3]
 324:main.cpp      **** 
 2542              		.loc 10 324 23 view .LVU755
 2543 0652 294B     		ldr	r3, .L64+112
 2544 0654 83ED006A 		vstr.32	s12, [r3]
 320:main.cpp      **** 
 2545              		.loc 10 320 15 view .LVU756
 2546 0658 284B     		ldr	r3, .L64+116
 2547 065a 83ED004A 		vstr.32	s8, [r3]
 322:main.cpp      ****         now_f_lfo_Pluck = knob5*f_lfo_Bass; // Frequency of LFO for Pluck
 2548              		.loc 10 322 9 is_stmt 1 view .LVU757
 323:main.cpp      ****         now_f_lfo_Pad = knob3*f_lfo_Pad; // Frequency of LFO for Pad
 2549              		.loc 10 323 9 view .LVU758
 324:main.cpp      **** 
 2550              		.loc 10 324 9 view .LVU759
 326:main.cpp      ****         now_f_Bass = f_Bass+ knob2*f_Bass; // Frequency of Bass
 2551              		.loc 10 326 9 view .LVU760
 327:main.cpp      ****         now_f_Pad = f_Pad+ knob4*f_Pad; // Frequency of Pad
 2552              		.loc 10 327 9 view .LVU761
 328:main.cpp      **** 
 2553              		.loc 10 328 9 view .LVU762
 2554              		.loc 10 339 9 view .LVU763
 2555              		.loc 10 339 22 is_stmt 0 view .LVU764
 2556 065e FFF7FEFF 		bl	_ZN5daisy6System5DelayEm
 2557              	.LVL196:
 2558              	.LBE503:
 304:main.cpp      ****         getData(); // Call the function to get data from the UART
 2559              		.loc 10 304 5 is_stmt 1 view .LVU765
 340:main.cpp      ****     }
 2560              		.loc 10 340 5 is_stmt 0 view .LVU766
 2561 0662 5CE7     		b	.L44
 2562              	.LVL197:
 2563              	.L45:
 2564              	.LBB551:
 2565              	.LBB455:
  76:../../libs/DaisySP/Source/Control/adsr.h ****                                        : (sus_level > 1.f) ? 1.f : sus_level;
 2566              		.loc 7 76 40 view .LVU767
 2567 0664 DFED267A 		vldr.32	s15, .L64+120
 2568              	.LVL198:
  76:../../libs/DaisySP/Source/Control/adsr.h ****                                        : (sus_level > 1.f) ? 1.f : sus_level;
 2569              		.loc 7 76 40 view .LVU768
 2570 0668 BEE5     		b	.L35
 2571              	.LVL199:
 2572              	.L55:
ARM GAS  C:\Users\skipi\AppData\Local\Temp\ccM9ipiF.s 			page 73


  76:../../libs/DaisySP/Source/Control/adsr.h ****                                        : (sus_level > 1.f) ? 1.f : sus_level;
 2573              		.loc 7 76 40 view .LVU769
 2574              	.LBE455:
 2575              	.LBE551:
 2576              	.LBB552:
 2577              	.LBB496:
 2578 066a DFED257A 		vldr.32	s15, .L64+120
 2579              	.LVL200:
  76:../../libs/DaisySP/Source/Control/adsr.h ****                                        : (sus_level > 1.f) ? 1.f : sus_level;
 2580              		.loc 7 76 40 view .LVU770
 2581 066e 0FE7     		b	.L40
 2582              	.LVL201:
 2583              	.L53:
  76:../../libs/DaisySP/Source/Control/adsr.h ****                                        : (sus_level > 1.f) ? 1.f : sus_level;
 2584              		.loc 7 76 40 view .LVU771
 2585              	.LBE496:
 2586              	.LBE552:
 2587              	.LBB553:
 2588              	.LBB487:
 2589 0670 9FED237A 		vldr.32	s14, .L64+120
 2590              	.LVL202:
  76:../../libs/DaisySP/Source/Control/adsr.h ****                                        : (sus_level > 1.f) ? 1.f : sus_level;
 2591              		.loc 7 76 40 view .LVU772
 2592 0674 F9E6     		b	.L39
 2593              	.LVL203:
 2594              	.L51:
  76:../../libs/DaisySP/Source/Control/adsr.h ****                                        : (sus_level > 1.f) ? 1.f : sus_level;
 2595              		.loc 7 76 40 view .LVU773
 2596              	.LBE487:
 2597              	.LBE553:
 2598              	.LBB554:
 2599              	.LBB480:
 2600 0676 DFED227A 		vldr.32	s15, .L64+120
 2601              	.LVL204:
  76:../../libs/DaisySP/Source/Control/adsr.h ****                                        : (sus_level > 1.f) ? 1.f : sus_level;
 2602              		.loc 7 76 40 view .LVU774
 2603 067a E3E6     		b	.L38
 2604              	.LVL205:
 2605              	.L49:
  76:../../libs/DaisySP/Source/Control/adsr.h ****                                        : (sus_level > 1.f) ? 1.f : sus_level;
 2606              		.loc 7 76 40 view .LVU775
 2607              	.LBE480:
 2608              	.LBE554:
 2609              	.LBB555:
 2610              	.LBB471:
 2611 067c DFED207A 		vldr.32	s15, .L64+120
 2612              	.LVL206:
  76:../../libs/DaisySP/Source/Control/adsr.h ****                                        : (sus_level > 1.f) ? 1.f : sus_level;
 2613              		.loc 7 76 40 view .LVU776
 2614 0680 D8E5     		b	.L37
 2615              	.LVL207:
 2616              	.L47:
  76:../../libs/DaisySP/Source/Control/adsr.h ****                                        : (sus_level > 1.f) ? 1.f : sus_level;
 2617              		.loc 7 76 40 view .LVU777
 2618              	.LBE471:
 2619              	.LBE555:
 2620              	.LBB556:
ARM GAS  C:\Users\skipi\AppData\Local\Temp\ccM9ipiF.s 			page 74


 2621              	.LBB462:
 2622 0682 9FED1F7A 		vldr.32	s14, .L64+120
 2623              	.LVL208:
  76:../../libs/DaisySP/Source/Control/adsr.h ****                                        : (sus_level > 1.f) ? 1.f : sus_level;
 2624              		.loc 7 76 40 view .LVU778
 2625 0686 C2E5     		b	.L36
 2626              	.L65:
 2627              		.align	2
 2628              	.L64:
 2629 0688 00000000 		.word	.LANCHOR29
 2630 068c 00000000 		.word	.LANCHOR31
 2631 0690 00000000 		.word	.LANCHOR27
 2632 0694 00000000 		.word	.LANCHOR74
 2633 0698 00000000 		.word	.LANCHOR49
 2634 069c 00000000 		.word	_Z13AudioCallbackPKPKfPPfj
 2635 06a0 00000000 		.word	.LANCHOR52
 2636 06a4 00000000 		.word	.LANCHOR50
 2637 06a8 00000000 		.word	.LANCHOR51
 2638 06ac 00000000 		.word	.LC3
 2639 06b0 10000000 		.word	.LC4
 2640 06b4 24000000 		.word	.LC5
 2641 06b8 00FF7F47 		.word	1199570688
 2642 06bc 00000000 		.word	.LANCHOR79
 2643 06c0 00000000 		.word	.LANCHOR80
 2644 06c4 20000000 		.word	.LANCHOR51+32
 2645 06c8 40000000 		.word	.LANCHOR51+64
 2646 06cc 60000000 		.word	.LANCHOR51+96
 2647 06d0 00000000 		.word	.LANCHOR15
 2648 06d4 00000000 		.word	.LANCHOR16
 2649 06d8 00000000 		.word	.LANCHOR17
 2650 06dc 00000000 		.word	.LANCHOR2
 2651 06e0 00000000 		.word	.LANCHOR4
 2652 06e4 00000000 		.word	.LANCHOR85
 2653 06e8 00000000 		.word	.LANCHOR82
 2654 06ec 00000000 		.word	.LANCHOR86
 2655 06f0 00000000 		.word	.LANCHOR83
 2656 06f4 00000000 		.word	.LANCHOR87
 2657 06f8 00000000 		.word	.LANCHOR84
 2658 06fc 00000000 		.word	.LANCHOR81
 2659 0700 0AD723BC 		.word	-1138501878
 2660 0704 00000000 		.word	.LANCHOR75
 2661 0708 00000000 		.word	.LANCHOR76
 2662 070c 00000000 		.word	.LANCHOR77
 2663 0710 00000000 		.word	.LANCHOR78
 2664              	.LBE462:
 2665              	.LBE556:
 2666              		.cfi_endproc
 2667              	.LFE4829:
 2669              		.section	.text.startup._GLOBAL__sub_I_wf_Pluck,"ax",%progbits
 2670              		.align	1
 2671              		.p2align 2,,3
 2672              		.syntax unified
 2673              		.thumb
 2674              		.thumb_func
 2675              		.fpu fpv5-d16
 2677              	_GLOBAL__sub_I_wf_Pluck:
 2678              	.LFB5395:
ARM GAS  C:\Users\skipi\AppData\Local\Temp\ccM9ipiF.s 			page 75


 341:main.cpp      **** }
 2679              		.loc 10 341 1 is_stmt 1 view -0
 2680              		.cfi_startproc
 2681              		@ args = 0, pretend = 0, frame = 0
 2682              		@ frame_needed = 0, uses_anonymous_args = 0
 2683              	.LBB668:
 2684              	.LBI668:
 2685              		.loc 10 341 1 view .LVU780
 2686              	.LVL209:
 2687              	.LBB669:
 2688              	.LBB670:
 2689              	.LBI670:
  21:../../libs/libDaisy/src/daisy_seed.h ****     ~DaisySeed() {}
 2690              		.loc 1 21 5 view .LVU781
 2691              	.LBB671:
 2692              	.LBB672:
 2693              	.LBI672:
 2694              		.file 14 "../../libs/libDaisy/src/per/qspi.h"
   1:../../libs/libDaisy/src/per/qspi.h **** #ifndef DSY_QSPI
   2:../../libs/libDaisy/src/per/qspi.h **** #define DSY_QSPI /**< Macro */
   3:../../libs/libDaisy/src/per/qspi.h **** 
   4:../../libs/libDaisy/src/per/qspi.h **** #ifndef UNIT_TEST // for unit tests, a dummy implementation
   5:../../libs/libDaisy/src/per/qspi.h **** 
   6:../../libs/libDaisy/src/per/qspi.h **** #include <cstdint>
   7:../../libs/libDaisy/src/per/qspi.h **** #include "daisy_core.h"
   8:../../libs/libDaisy/src/per/qspi.h **** #include "util/hal_map.h"
   9:../../libs/libDaisy/src/per/qspi.h **** 
  10:../../libs/libDaisy/src/per/qspi.h **** #define DSY_QSPI_TEXT       \
  11:../../libs/libDaisy/src/per/qspi.h ****     __attribute__((section( \
  12:../../libs/libDaisy/src/per/qspi.h ****         ".qspiflash_text"))) /**< used for reading memory in memory_mapped mode. */
  13:../../libs/libDaisy/src/per/qspi.h **** #define DSY_QSPI_DATA       \
  14:../../libs/libDaisy/src/per/qspi.h ****     __attribute__((section( \
  15:../../libs/libDaisy/src/per/qspi.h ****         ".qspiflash_data"))) /**< used for reading memory in memory_mapped mode. */
  16:../../libs/libDaisy/src/per/qspi.h **** #define DSY_QSPI_BSS        \
  17:../../libs/libDaisy/src/per/qspi.h ****     __attribute__((section( \
  18:../../libs/libDaisy/src/per/qspi.h ****         ".qspiflash_bss"))) /**< used for reading memory in memory_mapped mode. */
  19:../../libs/libDaisy/src/per/qspi.h **** 
  20:../../libs/libDaisy/src/per/qspi.h **** namespace daisy
  21:../../libs/libDaisy/src/per/qspi.h **** {
  22:../../libs/libDaisy/src/per/qspi.h **** /** @addtogroup serial
  23:../../libs/libDaisy/src/per/qspi.h **** @{
  24:../../libs/libDaisy/src/per/qspi.h **** */
  25:../../libs/libDaisy/src/per/qspi.h **** 
  26:../../libs/libDaisy/src/per/qspi.h **** /** 
  27:../../libs/libDaisy/src/per/qspi.h ****  Driver for QSPI peripheral to interface with external flash memory. \n 
  28:../../libs/libDaisy/src/per/qspi.h ****     Currently supported QSPI Devices: \n 
  29:../../libs/libDaisy/src/per/qspi.h ****     * IS25LP080D
  30:../../libs/libDaisy/src/per/qspi.h **** */
  31:../../libs/libDaisy/src/per/qspi.h **** class QSPIHandle
  32:../../libs/libDaisy/src/per/qspi.h **** {
  33:../../libs/libDaisy/src/per/qspi.h ****   public:
  34:../../libs/libDaisy/src/per/qspi.h ****     enum Result
  35:../../libs/libDaisy/src/per/qspi.h ****     {
  36:../../libs/libDaisy/src/per/qspi.h ****         OK = 0,
  37:../../libs/libDaisy/src/per/qspi.h ****         ERR
  38:../../libs/libDaisy/src/per/qspi.h ****     };
  39:../../libs/libDaisy/src/per/qspi.h **** 
ARM GAS  C:\Users\skipi\AppData\Local\Temp\ccM9ipiF.s 			page 76


  40:../../libs/libDaisy/src/per/qspi.h ****     /** Indicates the current status of the module. 
  41:../../libs/libDaisy/src/per/qspi.h ****          *  Warnings are indicated by a leading W.
  42:../../libs/libDaisy/src/per/qspi.h ****          *  Errors are indicated by a leading E and cause an immediate exit.
  43:../../libs/libDaisy/src/per/qspi.h ****          * 
  44:../../libs/libDaisy/src/per/qspi.h ****          *  \param GOOD - No errors have been reported.
  45:../../libs/libDaisy/src/per/qspi.h ****          *  \param E_HAL_ERROR - HAL code did not return HAL_OK.
  46:../../libs/libDaisy/src/per/qspi.h ****          *  \param E_SWITCHING_MODES - An error was encountered while switching QSPI peripheral mod
  47:../../libs/libDaisy/src/per/qspi.h ****          *  \param E_INVALID_MODE - QSPI should not be written to while the program is executing fr
  48:../../libs/libDaisy/src/per/qspi.h ****          */
  49:../../libs/libDaisy/src/per/qspi.h ****     enum Status
  50:../../libs/libDaisy/src/per/qspi.h ****     {
  51:../../libs/libDaisy/src/per/qspi.h ****         GOOD = 0,
  52:../../libs/libDaisy/src/per/qspi.h ****         E_HAL_ERROR,
  53:../../libs/libDaisy/src/per/qspi.h ****         E_SWITCHING_MODES,
  54:../../libs/libDaisy/src/per/qspi.h ****         E_INVALID_MODE,
  55:../../libs/libDaisy/src/per/qspi.h ****     };
  56:../../libs/libDaisy/src/per/qspi.h **** 
  57:../../libs/libDaisy/src/per/qspi.h ****     /** Configuration structure for interfacing with QSPI Driver */
  58:../../libs/libDaisy/src/per/qspi.h ****     struct Config
  59:../../libs/libDaisy/src/per/qspi.h ****     {
  60:../../libs/libDaisy/src/per/qspi.h ****         /** Flash Devices supported. (Both of these are more-or-less the same, just different sizes
  61:../../libs/libDaisy/src/per/qspi.h ****         enum Device
  62:../../libs/libDaisy/src/per/qspi.h ****         {
  63:../../libs/libDaisy/src/per/qspi.h ****             IS25LP080D,  /**< & */
  64:../../libs/libDaisy/src/per/qspi.h ****             IS25LP064A,  /**< & */
  65:../../libs/libDaisy/src/per/qspi.h ****             DEVICE_LAST, /**< & */
  66:../../libs/libDaisy/src/per/qspi.h ****         };
  67:../../libs/libDaisy/src/per/qspi.h **** 
  68:../../libs/libDaisy/src/per/qspi.h ****         /** 
  69:../../libs/libDaisy/src/per/qspi.h ****         Modes of operation.
  70:../../libs/libDaisy/src/per/qspi.h ****         Memory Mapped mode: QSPI configured so that the QSPI can be
  71:../../libs/libDaisy/src/per/qspi.h ****         read from starting address 0x90000000. Writing is not
  72:../../libs/libDaisy/src/per/qspi.h ****         possible in this mode. \n 
  73:../../libs/libDaisy/src/per/qspi.h ****         Indirect Polling mode: Device driver enabled. 
  74:../../libs/libDaisy/src/per/qspi.h ****         */
  75:../../libs/libDaisy/src/per/qspi.h ****         enum Mode
  76:../../libs/libDaisy/src/per/qspi.h ****         {
  77:../../libs/libDaisy/src/per/qspi.h ****             MEMORY_MAPPED,    /**< & */
  78:../../libs/libDaisy/src/per/qspi.h ****             INDIRECT_POLLING, /**< & */
  79:../../libs/libDaisy/src/per/qspi.h ****             MODE_LAST,
  80:../../libs/libDaisy/src/per/qspi.h ****         };
  81:../../libs/libDaisy/src/per/qspi.h **** 
  82:../../libs/libDaisy/src/per/qspi.h ****         //SCK,  CE# (active low)
  83:../../libs/libDaisy/src/per/qspi.h ****         struct
  84:../../libs/libDaisy/src/per/qspi.h ****         {
  85:../../libs/libDaisy/src/per/qspi.h ****             Pin io0; /**< & */
  86:../../libs/libDaisy/src/per/qspi.h ****             Pin io1; /**< & */
  87:../../libs/libDaisy/src/per/qspi.h ****             Pin io2; /**< & */
  88:../../libs/libDaisy/src/per/qspi.h ****             Pin io3; /**< & */
  89:../../libs/libDaisy/src/per/qspi.h ****             Pin clk; /**< & */
  90:../../libs/libDaisy/src/per/qspi.h ****             Pin ncs; /**< & */
  91:../../libs/libDaisy/src/per/qspi.h ****         } pin_config;
  92:../../libs/libDaisy/src/per/qspi.h **** 
  93:../../libs/libDaisy/src/per/qspi.h ****         Device device;
  94:../../libs/libDaisy/src/per/qspi.h ****         Mode   mode;
  95:../../libs/libDaisy/src/per/qspi.h ****     };
  96:../../libs/libDaisy/src/per/qspi.h **** 
ARM GAS  C:\Users\skipi\AppData\Local\Temp\ccM9ipiF.s 			page 77


  97:../../libs/libDaisy/src/per/qspi.h ****     /** 
  98:../../libs/libDaisy/src/per/qspi.h ****         Initializes QSPI peripheral, and Resets, and prepares memory for access.
  99:../../libs/libDaisy/src/per/qspi.h ****         \param config should be populated with the mode, device and pin_config before calling this 
 100:../../libs/libDaisy/src/per/qspi.h ****         \return Result::OK or Result::ERR
 101:../../libs/libDaisy/src/per/qspi.h ****         */
 102:../../libs/libDaisy/src/per/qspi.h ****     Result Init(const Config& config);
 103:../../libs/libDaisy/src/per/qspi.h **** 
 104:../../libs/libDaisy/src/per/qspi.h ****     /** Returns the current config. */
 105:../../libs/libDaisy/src/per/qspi.h ****     const Config& GetConfig() const;
 106:../../libs/libDaisy/src/per/qspi.h **** 
 107:../../libs/libDaisy/src/per/qspi.h ****     // Couldn't this just be called before anything else in init? That
 108:../../libs/libDaisy/src/per/qspi.h ****     // would make manually calling it unnecessary.
 109:../../libs/libDaisy/src/per/qspi.h ****     /** 
 110:../../libs/libDaisy/src/per/qspi.h ****         Deinitializes the peripheral
 111:../../libs/libDaisy/src/per/qspi.h ****         This should be called before reinitializing QSPI in a different mode.
 112:../../libs/libDaisy/src/per/qspi.h ****         \return Result::OK or Result::ERR
 113:../../libs/libDaisy/src/per/qspi.h ****         */
 114:../../libs/libDaisy/src/per/qspi.h ****     Result DeInit();
 115:../../libs/libDaisy/src/per/qspi.h **** 
 116:../../libs/libDaisy/src/per/qspi.h ****     /** 
 117:../../libs/libDaisy/src/per/qspi.h ****         Writes a single page to to the specified address on the QSPI chip.
 118:../../libs/libDaisy/src/per/qspi.h ****         For IS25LP*, page size is 256 bytes.
 119:../../libs/libDaisy/src/per/qspi.h ****         \param address Address to write to
 120:../../libs/libDaisy/src/per/qspi.h ****         \param size Buffer size
 121:../../libs/libDaisy/src/per/qspi.h ****         \param buffer Buffer to write
 122:../../libs/libDaisy/src/per/qspi.h ****         \return Result::OK or Result::ERR
 123:../../libs/libDaisy/src/per/qspi.h ****         */
 124:../../libs/libDaisy/src/per/qspi.h ****     Result WritePage(uint32_t address, uint32_t size, uint8_t* buffer);
 125:../../libs/libDaisy/src/per/qspi.h **** 
 126:../../libs/libDaisy/src/per/qspi.h ****     /** 
 127:../../libs/libDaisy/src/per/qspi.h ****         Writes data in buffer to to the QSPI. Starting at address to address+size 
 128:../../libs/libDaisy/src/per/qspi.h ****         \param address Address to write to
 129:../../libs/libDaisy/src/per/qspi.h ****         \param size Buffer size
 130:../../libs/libDaisy/src/per/qspi.h ****         \param buffer Buffer to write
 131:../../libs/libDaisy/src/per/qspi.h ****         \return Result::OK or Result::ERR
 132:../../libs/libDaisy/src/per/qspi.h ****         */
 133:../../libs/libDaisy/src/per/qspi.h ****     Result Write(uint32_t address, uint32_t size, uint8_t* buffer);
 134:../../libs/libDaisy/src/per/qspi.h **** 
 135:../../libs/libDaisy/src/per/qspi.h ****     /** 
 136:../../libs/libDaisy/src/per/qspi.h ****         Erases the area specified on the chip.
 137:../../libs/libDaisy/src/per/qspi.h ****         Erasures will happen by 4K, 32K or 64K increments.
 138:../../libs/libDaisy/src/per/qspi.h ****         Smallest erase possible is 4kB at a time. (on IS25LP*)
 139:../../libs/libDaisy/src/per/qspi.h ****         \param start_addr Address to begin erasing from
 140:../../libs/libDaisy/src/per/qspi.h ****         \param end_addr  Address to stop erasing at
 141:../../libs/libDaisy/src/per/qspi.h ****         \return Result::OK or Result::ERR
 142:../../libs/libDaisy/src/per/qspi.h ****         */
 143:../../libs/libDaisy/src/per/qspi.h ****     Result Erase(uint32_t start_addr, uint32_t end_addr);
 144:../../libs/libDaisy/src/per/qspi.h **** 
 145:../../libs/libDaisy/src/per/qspi.h ****     /**  
 146:../../libs/libDaisy/src/per/qspi.h ****          Erases a single sector of the chip.  
 147:../../libs/libDaisy/src/per/qspi.h ****         TODO: Document the size of this function. 
 148:../../libs/libDaisy/src/per/qspi.h ****         \param address Address of sector to erase
 149:../../libs/libDaisy/src/per/qspi.h ****         \return Result::OK or Result::ERR
 150:../../libs/libDaisy/src/per/qspi.h ****         */
 151:../../libs/libDaisy/src/per/qspi.h ****     Result EraseSector(uint32_t address);
 152:../../libs/libDaisy/src/per/qspi.h **** 
