ARM GAS  C:\Users\skipi\AppData\Local\Temp\cc4fyQdn.s 			page 1


   1              		.cpu cortex-m7
   2              		.eabi_attribute 28, 1
   3              		.eabi_attribute 20, 1
   4              		.eabi_attribute 21, 1
   5              		.eabi_attribute 23, 3
   6              		.eabi_attribute 24, 1
   7              		.eabi_attribute 25, 1
   8              		.eabi_attribute 26, 1
   9              		.eabi_attribute 30, 2
  10              		.eabi_attribute 34, 1
  11              		.eabi_attribute 18, 4
  12              		.file	"AnalogDelay.cpp"
  13              		.text
  14              	.Ltext0:
  15              		.cfi_sections	.debug_frame
  16              		.section	.text._ZN7daisysp12PitchShifter7ProcessERf,"axG",%progbits,_ZN7daisysp12PitchShifter7Proc
  17              		.align	1
  18              		.p2align 2,,3
  19              		.weak	_ZN7daisysp12PitchShifter7ProcessERf
  20              		.arch armv7e-m
  21              		.syntax unified
  22              		.thumb
  23              		.thumb_func
  24              		.fpu fpv5-d16
  26              	_ZN7daisysp12PitchShifter7ProcessERf:
  27              	.LVL0:
  28              	.LFB4521:
  29              		.file 1 "../../libs/DaisySP/Source/Effects/pitchshifter.h"
   1:../../libs/DaisySP/Source/Effects/pitchshifter.h **** /*
   2:../../libs/DaisySP/Source/Effects/pitchshifter.h **** Copyright (c) 2020 Electrosmith, Corp
   3:../../libs/DaisySP/Source/Effects/pitchshifter.h **** 
   4:../../libs/DaisySP/Source/Effects/pitchshifter.h **** Use of this source code is governed by an MIT-style
   5:../../libs/DaisySP/Source/Effects/pitchshifter.h **** license that can be found in the LICENSE file or at
   6:../../libs/DaisySP/Source/Effects/pitchshifter.h **** https://opensource.org/licenses/MIT.
   7:../../libs/DaisySP/Source/Effects/pitchshifter.h **** */
   8:../../libs/DaisySP/Source/Effects/pitchshifter.h **** 
   9:../../libs/DaisySP/Source/Effects/pitchshifter.h **** #pragma once
  10:../../libs/DaisySP/Source/Effects/pitchshifter.h **** #ifndef DSY_PITCHSHIFTER_H
  11:../../libs/DaisySP/Source/Effects/pitchshifter.h **** #define DSY_PITCHSHIFTER_H
  12:../../libs/DaisySP/Source/Effects/pitchshifter.h **** #include <stdint.h>
  13:../../libs/DaisySP/Source/Effects/pitchshifter.h **** #include <cmath>
  14:../../libs/DaisySP/Source/Effects/pitchshifter.h **** #ifdef USE_ARM_DSP
  15:../../libs/DaisySP/Source/Effects/pitchshifter.h **** #include "arm_math.h"
  16:../../libs/DaisySP/Source/Effects/pitchshifter.h **** #endif
  17:../../libs/DaisySP/Source/Effects/pitchshifter.h **** #include "Utility/dsp.h"
  18:../../libs/DaisySP/Source/Effects/pitchshifter.h **** #include "Utility/delayline.h"
  19:../../libs/DaisySP/Source/Effects/pitchshifter.h **** #include "Control/phasor.h"
  20:../../libs/DaisySP/Source/Effects/pitchshifter.h **** 
  21:../../libs/DaisySP/Source/Effects/pitchshifter.h **** /** Shift can be 30-100 ms lets just start with 50 for now.
  22:../../libs/DaisySP/Source/Effects/pitchshifter.h **** 0.050 * SR = 2400 samples (at 48kHz)
  23:../../libs/DaisySP/Source/Effects/pitchshifter.h **** */
  24:../../libs/DaisySP/Source/Effects/pitchshifter.h **** #define SHIFT_BUFFER_SIZE 16384
  25:../../libs/DaisySP/Source/Effects/pitchshifter.h **** //#define SHIFT_BUFFER_SIZE 4800
  26:../../libs/DaisySP/Source/Effects/pitchshifter.h **** //#define SHIFT_BUFFER_SIZE 8192
  27:../../libs/DaisySP/Source/Effects/pitchshifter.h **** //#define SHIFT_BUFFER_SIZE 1024
  28:../../libs/DaisySP/Source/Effects/pitchshifter.h **** 
  29:../../libs/DaisySP/Source/Effects/pitchshifter.h **** namespace daisysp
ARM GAS  C:\Users\skipi\AppData\Local\Temp\cc4fyQdn.s 			page 2


  30:../../libs/DaisySP/Source/Effects/pitchshifter.h **** {
  31:../../libs/DaisySP/Source/Effects/pitchshifter.h **** static inline uint32_t hash_xs32(uint32_t x)
  32:../../libs/DaisySP/Source/Effects/pitchshifter.h **** {
  33:../../libs/DaisySP/Source/Effects/pitchshifter.h ****     x ^= x << 13;
  34:../../libs/DaisySP/Source/Effects/pitchshifter.h ****     x ^= x >> 17;
  35:../../libs/DaisySP/Source/Effects/pitchshifter.h ****     x ^= x << 5;
  36:../../libs/DaisySP/Source/Effects/pitchshifter.h ****     return x;
  37:../../libs/DaisySP/Source/Effects/pitchshifter.h **** }
  38:../../libs/DaisySP/Source/Effects/pitchshifter.h **** 
  39:../../libs/DaisySP/Source/Effects/pitchshifter.h **** inline uint32_t myrand()
  40:../../libs/DaisySP/Source/Effects/pitchshifter.h **** {
  41:../../libs/DaisySP/Source/Effects/pitchshifter.h ****     static uint32_t seed = 1;
  42:../../libs/DaisySP/Source/Effects/pitchshifter.h ****     seed                 = hash_xs32(seed);
  43:../../libs/DaisySP/Source/Effects/pitchshifter.h ****     return seed;
  44:../../libs/DaisySP/Source/Effects/pitchshifter.h **** }
  45:../../libs/DaisySP/Source/Effects/pitchshifter.h **** 
  46:../../libs/DaisySP/Source/Effects/pitchshifter.h **** /**  time-domain pitchshifter
  47:../../libs/DaisySP/Source/Effects/pitchshifter.h **** 
  48:../../libs/DaisySP/Source/Effects/pitchshifter.h **** Author: shensley
  49:../../libs/DaisySP/Source/Effects/pitchshifter.h **** 
  50:../../libs/DaisySP/Source/Effects/pitchshifter.h **** Based on "Pitch Shifting" from ucsd.edu 
  51:../../libs/DaisySP/Source/Effects/pitchshifter.h **** 
  52:../../libs/DaisySP/Source/Effects/pitchshifter.h **** t = 1 - ((s *f) / R)
  53:../../libs/DaisySP/Source/Effects/pitchshifter.h **** 
  54:../../libs/DaisySP/Source/Effects/pitchshifter.h **** where:
  55:../../libs/DaisySP/Source/Effects/pitchshifter.h ****     s is the size of the delay
  56:../../libs/DaisySP/Source/Effects/pitchshifter.h ****     f is the frequency of the lfo
  57:../../libs/DaisySP/Source/Effects/pitchshifter.h ****     r is the sample_rate
  58:../../libs/DaisySP/Source/Effects/pitchshifter.h **** 
  59:../../libs/DaisySP/Source/Effects/pitchshifter.h **** solving for t = 12.0
  60:../../libs/DaisySP/Source/Effects/pitchshifter.h **** f = (12 - 1) * 48000 / SHIFT_BUFFER_SIZE;
  61:../../libs/DaisySP/Source/Effects/pitchshifter.h **** 
  62:../../libs/DaisySP/Source/Effects/pitchshifter.h **** \todo - move hash_xs32 and myrand to dsp.h and give appropriate names
  63:../../libs/DaisySP/Source/Effects/pitchshifter.h **** */
  64:../../libs/DaisySP/Source/Effects/pitchshifter.h **** class PitchShifter
  65:../../libs/DaisySP/Source/Effects/pitchshifter.h **** {
  66:../../libs/DaisySP/Source/Effects/pitchshifter.h ****   public:
  67:../../libs/DaisySP/Source/Effects/pitchshifter.h ****     PitchShifter() {}
  68:../../libs/DaisySP/Source/Effects/pitchshifter.h ****     ~PitchShifter() {}
  69:../../libs/DaisySP/Source/Effects/pitchshifter.h ****     /** Initialize pitch shifter
  70:../../libs/DaisySP/Source/Effects/pitchshifter.h ****     */
  71:../../libs/DaisySP/Source/Effects/pitchshifter.h ****     void Init(float sr)
  72:../../libs/DaisySP/Source/Effects/pitchshifter.h ****     {
  73:../../libs/DaisySP/Source/Effects/pitchshifter.h ****         force_recalc_ = false;
  74:../../libs/DaisySP/Source/Effects/pitchshifter.h ****         sr_           = sr;
  75:../../libs/DaisySP/Source/Effects/pitchshifter.h ****         mod_freq_     = 5.0f;
  76:../../libs/DaisySP/Source/Effects/pitchshifter.h ****         SetSemitones();
  77:../../libs/DaisySP/Source/Effects/pitchshifter.h ****         for(uint8_t i = 0; i < 2; i++)
  78:../../libs/DaisySP/Source/Effects/pitchshifter.h ****         {
  79:../../libs/DaisySP/Source/Effects/pitchshifter.h ****             gain_[i] = 0.0f;
  80:../../libs/DaisySP/Source/Effects/pitchshifter.h ****             d_[i].Init();
  81:../../libs/DaisySP/Source/Effects/pitchshifter.h ****             phs_[i].Init(sr, 50, i == 0 ? 0 : PI_F);
  82:../../libs/DaisySP/Source/Effects/pitchshifter.h ****         }
  83:../../libs/DaisySP/Source/Effects/pitchshifter.h ****         shift_up_ = true;
  84:../../libs/DaisySP/Source/Effects/pitchshifter.h ****         del_size_ = SHIFT_BUFFER_SIZE;
  85:../../libs/DaisySP/Source/Effects/pitchshifter.h ****         SetDelSize(del_size_);
  86:../../libs/DaisySP/Source/Effects/pitchshifter.h ****         fun_ = 0.0f;
ARM GAS  C:\Users\skipi\AppData\Local\Temp\cc4fyQdn.s 			page 3


  87:../../libs/DaisySP/Source/Effects/pitchshifter.h ****     }
  88:../../libs/DaisySP/Source/Effects/pitchshifter.h **** 
  89:../../libs/DaisySP/Source/Effects/pitchshifter.h ****     /** process pitch shifter
  90:../../libs/DaisySP/Source/Effects/pitchshifter.h ****     */
  91:../../libs/DaisySP/Source/Effects/pitchshifter.h ****     float Process(float &in)
  30              		.loc 1 91 11 view -0
  31              		.cfi_startproc
  32              		@ args = 0, pretend = 0, frame = 0
  33              		@ frame_needed = 0, uses_anonymous_args = 0
  92:../../libs/DaisySP/Source/Effects/pitchshifter.h ****     {
  93:../../libs/DaisySP/Source/Effects/pitchshifter.h ****         float val, fade1, fade2;
  34              		.loc 1 93 9 view .LVU1
  94:../../libs/DaisySP/Source/Effects/pitchshifter.h ****         // First Process delay mod/crossfade
  95:../../libs/DaisySP/Source/Effects/pitchshifter.h ****         fade1 = phs_[0].Process();
  35              		.loc 1 95 9 view .LVU2
  91:../../libs/DaisySP/Source/Effects/pitchshifter.h ****     {
  36              		.loc 1 91 11 is_stmt 0 view .LVU3
  37 0000 F8B5     		push	{r3, r4, r5, r6, r7, lr}
  38              		.cfi_def_cfa_offset 24
  39              		.cfi_offset 3, -24
  40              		.cfi_offset 4, -20
  41              		.cfi_offset 5, -16
  42              		.cfi_offset 6, -12
  43              		.cfi_offset 7, -8
  44              		.cfi_offset 14, -4
  45 0002 0546     		mov	r5, r0
  46              		.loc 1 95 32 view .LVU4
  47 0004 A748     		ldr	r0, .L12
  48              	.LVL1:
  91:../../libs/DaisySP/Source/Effects/pitchshifter.h ****     {
  49              		.loc 1 91 11 view .LVU5
  50 0006 0E46     		mov	r6, r1
  51              		.loc 1 95 32 view .LVU6
  52 0008 2844     		add	r0, r0, r5
  96:../../libs/DaisySP/Source/Effects/pitchshifter.h ****         fade2 = phs_[1].Process();
  97:../../libs/DaisySP/Source/Effects/pitchshifter.h ****         if(prev_phs_a_ > fade1)
  53              		.loc 1 97 12 view .LVU7
  54 000a 05F50034 		add	r4, r5, #131072
  91:../../libs/DaisySP/Source/Effects/pitchshifter.h ****     {
  55              		.loc 1 91 11 view .LVU8
  56 000e 2DED088B 		vpush.64	{d8, d9, d10, d11}
  57              		.cfi_def_cfa_offset 56
  58              		.cfi_offset 80, -56
  59              		.cfi_offset 81, -52
  60              		.cfi_offset 82, -48
  61              		.cfi_offset 83, -44
  62              		.cfi_offset 84, -40
  63              		.cfi_offset 85, -36
  64              		.cfi_offset 86, -32
  65              		.cfi_offset 87, -28
  95:../../libs/DaisySP/Source/Effects/pitchshifter.h ****         fade2 = phs_[1].Process();
  66              		.loc 1 95 32 view .LVU9
  67 0012 FFF7FEFF 		bl	_ZN7daisysp6Phasor7ProcessEv
  68              	.LVL2:
  96:../../libs/DaisySP/Source/Effects/pitchshifter.h ****         fade2 = phs_[1].Process();
  69              		.loc 1 96 32 view .LVU10
  70 0016 A448     		ldr	r0, .L12+4
ARM GAS  C:\Users\skipi\AppData\Local\Temp\cc4fyQdn.s 			page 4


  95:../../libs/DaisySP/Source/Effects/pitchshifter.h ****         fade2 = phs_[1].Process();
  71              		.loc 1 95 32 view .LVU11
  72 0018 F0EE409A 		vmov.f32	s19, s0
  73              	.LVL3:
  96:../../libs/DaisySP/Source/Effects/pitchshifter.h ****         fade2 = phs_[1].Process();
  74              		.loc 1 96 9 is_stmt 1 view .LVU12
  96:../../libs/DaisySP/Source/Effects/pitchshifter.h ****         fade2 = phs_[1].Process();
  75              		.loc 1 96 32 is_stmt 0 view .LVU13
  76 001c 2844     		add	r0, r0, r5
  77 001e FFF7FEFF 		bl	_ZN7daisysp6Phasor7ProcessEv
  78              	.LVL4:
  79              		.loc 1 97 9 view .LVU14
  80 0022 D4ED1C7A 		vldr.32	s15, [r4, #112]
  96:../../libs/DaisySP/Source/Effects/pitchshifter.h ****         fade2 = phs_[1].Process();
  81              		.loc 1 96 32 view .LVU15
  82 0026 F0EE40AA 		vmov.f32	s21, s0
  83              	.LVL5:
  84              		.loc 1 97 9 is_stmt 1 view .LVU16
  85 002a F4EEE97A 		vcmpe.f32	s15, s19
  86 002e F1EE10FA 		vmrs	APSR_nzcv, FPSCR
  87 0032 00F3F580 		bgt	.L2
  98:../../libs/DaisySP/Source/Effects/pitchshifter.h ****         {
  99:../../libs/DaisySP/Source/Effects/pitchshifter.h ****             mod_a_amt_ = fun_ * ((float)(myrand() % 255) / 255.0f)
 100:../../libs/DaisySP/Source/Effects/pitchshifter.h ****                          * (del_size_ * 0.5f);
  88              		.loc 1 100 29 is_stmt 0 view .LVU17
  89 0036 236A     		ldr	r3, [r4, #32]
 101:../../libs/DaisySP/Source/Effects/pitchshifter.h ****             mod_coeff_[0]
 102:../../libs/DaisySP/Source/Effects/pitchshifter.h ****                 = 0.0002f + (((float)(myrand() % 255) / 255.0f) * 0.001f);
 103:../../libs/DaisySP/Source/Effects/pitchshifter.h ****         }
 104:../../libs/DaisySP/Source/Effects/pitchshifter.h ****         if(prev_phs_b_ > fade2)
 105:../../libs/DaisySP/Source/Effects/pitchshifter.h ****         {
 106:../../libs/DaisySP/Source/Effects/pitchshifter.h ****             mod_b_amt_ = fun_ * ((float)(myrand() % 255) / 255.0f)
 107:../../libs/DaisySP/Source/Effects/pitchshifter.h ****                          * (del_size_ * 0.5f);
 108:../../libs/DaisySP/Source/Effects/pitchshifter.h ****             mod_coeff_[1]
 109:../../libs/DaisySP/Source/Effects/pitchshifter.h ****                 = 0.0002f + (((float)(myrand() % 255) / 255.0f) * 0.001f);
 110:../../libs/DaisySP/Source/Effects/pitchshifter.h ****         }
 111:../../libs/DaisySP/Source/Effects/pitchshifter.h ****         slewed_mod_[0] += mod_coeff_[0] * (mod_a_amt_ - slewed_mod_[0]);
  90              		.loc 1 111 39 view .LVU18
  91 0038 D4ED205A 		vldr.32	s11, [r4, #128]
  92              		.loc 1 111 44 view .LVU19
  93 003c 94ED1A7A 		vldr.32	s14, [r4, #104]
  94              	.L3:
 104:../../libs/DaisySP/Source/Effects/pitchshifter.h ****         {
  95              		.loc 1 104 9 is_stmt 1 view .LVU20
  96 0040 D4ED1D7A 		vldr.32	s15, [r4, #116]
  97 0044 F4EEEA7A 		vcmpe.f32	s15, s21
  98 0048 F1EE10FA 		vmrs	APSR_nzcv, FPSCR
  99 004c 00F3A580 		bgt	.L4
 112:../../libs/DaisySP/Source/Effects/pitchshifter.h ****         slewed_mod_[1] += mod_coeff_[1] * (mod_b_amt_ - slewed_mod_[1]);
 100              		.loc 1 112 39 is_stmt 0 view .LVU21
 101 0050 D4ED216A 		vldr.32	s13, [r4, #132]
 102              		.loc 1 112 44 view .LVU22
 103 0054 D4ED1B7A 		vldr.32	s15, [r4, #108]
 104              	.L5:
 111:../../libs/DaisySP/Source/Effects/pitchshifter.h ****         slewed_mod_[1] += mod_coeff_[1] * (mod_b_amt_ - slewed_mod_[1]);
 105              		.loc 1 111 9 is_stmt 1 view .LVU23
 111:../../libs/DaisySP/Source/Effects/pitchshifter.h ****         slewed_mod_[1] += mod_coeff_[1] * (mod_b_amt_ - slewed_mod_[1]);
ARM GAS  C:\Users\skipi\AppData\Local\Temp\cc4fyQdn.s 			page 5


 106              		.loc 1 111 24 is_stmt 0 view .LVU24
 107 0058 D4ED1E8A 		vldr.32	s17, [r4, #120]
 108              		.loc 1 112 24 view .LVU25
 109 005c 94ED1F8A 		vldr.32	s16, [r4, #124]
 111:../../libs/DaisySP/Source/Effects/pitchshifter.h ****         slewed_mod_[1] += mod_coeff_[1] * (mod_b_amt_ - slewed_mod_[1]);
 110              		.loc 1 111 55 view .LVU26
 111 0060 37EE687A 		vsub.f32	s14, s14, s17
 113:../../libs/DaisySP/Source/Effects/pitchshifter.h ****         prev_phs_a_ = fade1;
 114:../../libs/DaisySP/Source/Effects/pitchshifter.h ****         prev_phs_b_ = fade2;
 115:../../libs/DaisySP/Source/Effects/pitchshifter.h ****         if(shift_up_)
 112              		.loc 1 115 9 view .LVU27
 113 0064 94F82C20 		ldrb	r2, [r4, #44]	@ zero_extendqisi2
 112:../../libs/DaisySP/Source/Effects/pitchshifter.h ****         prev_phs_a_ = fade1;
 114              		.loc 1 112 55 view .LVU28
 115 0068 77EEC87A 		vsub.f32	s15, s15, s16
 113:../../libs/DaisySP/Source/Effects/pitchshifter.h ****         prev_phs_a_ = fade1;
 116              		.loc 1 113 21 view .LVU29
 117 006c C4ED1C9A 		vstr.32	s19, [r4, #112]
 114:../../libs/DaisySP/Source/Effects/pitchshifter.h ****         if(shift_up_)
 118              		.loc 1 114 21 view .LVU30
 119 0070 C4ED1DAA 		vstr.32	s21, [r4, #116]
 111:../../libs/DaisySP/Source/Effects/pitchshifter.h ****         slewed_mod_[1] += mod_coeff_[1] * (mod_b_amt_ - slewed_mod_[1]);
 120              		.loc 1 111 24 view .LVU31
 121 0074 E7EE258A 		vfma.f32	s17, s14, s11
 112:../../libs/DaisySP/Source/Effects/pitchshifter.h ****         prev_phs_a_ = fade1;
 122              		.loc 1 112 24 view .LVU32
 123 0078 A7EEA68A 		vfma.f32	s16, s15, s13
 111:../../libs/DaisySP/Source/Effects/pitchshifter.h ****         slewed_mod_[1] += mod_coeff_[1] * (mod_b_amt_ - slewed_mod_[1]);
 124              		.loc 1 111 24 view .LVU33
 125 007c C4ED1E8A 		vstr.32	s17, [r4, #120]
 112:../../libs/DaisySP/Source/Effects/pitchshifter.h ****         prev_phs_a_ = fade1;
 126              		.loc 1 112 9 is_stmt 1 view .LVU34
 112:../../libs/DaisySP/Source/Effects/pitchshifter.h ****         prev_phs_a_ = fade1;
 127              		.loc 1 112 24 is_stmt 0 view .LVU35
 128 0080 84ED1F8A 		vstr.32	s16, [r4, #124]
 113:../../libs/DaisySP/Source/Effects/pitchshifter.h ****         prev_phs_b_ = fade2;
 129              		.loc 1 113 9 is_stmt 1 view .LVU36
 114:../../libs/DaisySP/Source/Effects/pitchshifter.h ****         if(shift_up_)
 130              		.loc 1 114 9 view .LVU37
 131              		.loc 1 115 9 view .LVU38
 132 0084 2AB1     		cbz	r2, .L6
 116:../../libs/DaisySP/Source/Effects/pitchshifter.h ****         {
 117:../../libs/DaisySP/Source/Effects/pitchshifter.h ****             fade1 = 1.0f - fade1;
 133              		.loc 1 117 13 view .LVU39
 134              		.loc 1 117 19 is_stmt 0 view .LVU40
 135 0086 F7EE007A 		vmov.f32	s15, #1.0e+0
 136 008a 77EEE99A 		vsub.f32	s19, s15, s19
 137              	.LVL6:
 118:../../libs/DaisySP/Source/Effects/pitchshifter.h ****             fade2 = 1.0f - fade2;
 138              		.loc 1 118 13 is_stmt 1 view .LVU41
 139              		.loc 1 118 19 is_stmt 0 view .LVU42
 140 008e 77EEEAAA 		vsub.f32	s21, s15, s21
 141              	.LVL7:
 142              	.L6:
 119:../../libs/DaisySP/Source/Effects/pitchshifter.h ****         }
 120:../../libs/DaisySP/Source/Effects/pitchshifter.h ****         mod_[0] = fade1 * (del_size_ - 1);
 143              		.loc 1 120 9 is_stmt 1 view .LVU43
ARM GAS  C:\Users\skipi\AppData\Local\Temp\cc4fyQdn.s 			page 6


 144              		.loc 1 120 38 is_stmt 0 view .LVU44
 145 0092 013B     		subs	r3, r3, #1
 121:../../libs/DaisySP/Source/Effects/pitchshifter.h ****         mod_[1] = fade2 * (del_size_ - 1);
 122:../../libs/DaisySP/Source/Effects/pitchshifter.h **** #ifdef USE_ARM_DSP
 123:../../libs/DaisySP/Source/Effects/pitchshifter.h ****         gain_[0] = arm_sin_f32(fade1 * (float)M_PI);
 124:../../libs/DaisySP/Source/Effects/pitchshifter.h ****         gain_[1] = arm_sin_f32(fade2 * (float)M_PI);
 125:../../libs/DaisySP/Source/Effects/pitchshifter.h **** #else
 126:../../libs/DaisySP/Source/Effects/pitchshifter.h ****         gain_[0] = sinf(fade1 * PI_F);
 146              		.loc 1 126 24 view .LVU45
 147 0094 9FED85BA 		vldr.32	s22, .L12+8
 120:../../libs/DaisySP/Source/Effects/pitchshifter.h ****         mod_[1] = fade2 * (del_size_ - 1);
 148              		.loc 1 120 38 view .LVU46
 149 0098 09EE103A 		vmov	s18, r3	@ int
 150              		.loc 1 126 24 view .LVU47
 151 009c 29EE8B0A 		vmul.f32	s0, s19, s22
 120:../../libs/DaisySP/Source/Effects/pitchshifter.h ****         mod_[1] = fade2 * (del_size_ - 1);
 152              		.loc 1 120 25 view .LVU48
 153 00a0 B8EE499A 		vcvt.f32.u32	s18, s18
 154 00a4 69EE299A 		vmul.f32	s19, s18, s19
 155              	.LVL8:
 121:../../libs/DaisySP/Source/Effects/pitchshifter.h ****         mod_[1] = fade2 * (del_size_ - 1);
 156              		.loc 1 121 25 view .LVU49
 157 00a8 29EE2A9A 		vmul.f32	s18, s18, s21
 120:../../libs/DaisySP/Source/Effects/pitchshifter.h ****         mod_[1] = fade2 * (del_size_ - 1);
 158              		.loc 1 120 17 view .LVU50
 159 00ac C4ED169A 		vstr.32	s19, [r4, #88]
 121:../../libs/DaisySP/Source/Effects/pitchshifter.h ****         mod_[1] = fade2 * (del_size_ - 1);
 160              		.loc 1 121 9 is_stmt 1 view .LVU51
 127:../../libs/DaisySP/Source/Effects/pitchshifter.h ****         gain_[1] = sinf(fade2 * PI_F);
 128:../../libs/DaisySP/Source/Effects/pitchshifter.h **** #endif
 129:../../libs/DaisySP/Source/Effects/pitchshifter.h **** 
 130:../../libs/DaisySP/Source/Effects/pitchshifter.h ****         // Handle Delay Writing
 131:../../libs/DaisySP/Source/Effects/pitchshifter.h ****         d_[0].Write(in);
 132:../../libs/DaisySP/Source/Effects/pitchshifter.h ****         d_[1].Write(in);
 133:../../libs/DaisySP/Source/Effects/pitchshifter.h ****         // Modulate Delay Lines
 134:../../libs/DaisySP/Source/Effects/pitchshifter.h ****         //mod_a_amt = mod_b_amt = 0.0f;
 135:../../libs/DaisySP/Source/Effects/pitchshifter.h ****         d_[0].SetDelay(mod_[0] + mod_a_amt_);
 136:../../libs/DaisySP/Source/Effects/pitchshifter.h ****         d_[1].SetDelay(mod_[1] + mod_b_amt_);
 137:../../libs/DaisySP/Source/Effects/pitchshifter.h ****         d_[0].SetDelay(mod_[0] + slewed_mod_[0]);
 161              		.loc 1 137 23 is_stmt 0 view .LVU52
 162 00b0 78EEA98A 		vadd.f32	s17, s17, s19
 121:../../libs/DaisySP/Source/Effects/pitchshifter.h **** #ifdef USE_ARM_DSP
 163              		.loc 1 121 17 view .LVU53
 164 00b4 84ED179A 		vstr.32	s18, [r4, #92]
 126:../../libs/DaisySP/Source/Effects/pitchshifter.h ****         gain_[1] = sinf(fade2 * PI_F);
 165              		.loc 1 126 9 is_stmt 1 view .LVU54
 138:../../libs/DaisySP/Source/Effects/pitchshifter.h ****         d_[1].SetDelay(mod_[1] + slewed_mod_[1]);
 166              		.loc 1 138 23 is_stmt 0 view .LVU55
 167 00b8 38EE098A 		vadd.f32	s16, s16, s18
 126:../../libs/DaisySP/Source/Effects/pitchshifter.h ****         gain_[1] = sinf(fade2 * PI_F);
 168              		.loc 1 126 24 view .LVU56
 169 00bc FFF7FEFF 		bl	sinf
 170              	.LVL9:
 171 00c0 B0EE40AA 		vmov.f32	s20, s0
 127:../../libs/DaisySP/Source/Effects/pitchshifter.h **** #endif
 172              		.loc 1 127 24 view .LVU57
 173 00c4 2AEE8B0A 		vmul.f32	s0, s21, s22
ARM GAS  C:\Users\skipi\AppData\Local\Temp\cc4fyQdn.s 			page 7


 126:../../libs/DaisySP/Source/Effects/pitchshifter.h ****         gain_[1] = sinf(fade2 * PI_F);
 174              		.loc 1 126 18 view .LVU58
 175 00c8 84ED14AA 		vstr.32	s20, [r4, #80]
 127:../../libs/DaisySP/Source/Effects/pitchshifter.h **** #endif
 176              		.loc 1 127 9 is_stmt 1 view .LVU59
 127:../../libs/DaisySP/Source/Effects/pitchshifter.h **** #endif
 177              		.loc 1 127 24 is_stmt 0 view .LVU60
 178 00cc FFF7FEFF 		bl	sinf
 179              	.LVL10:
 180              	.LBB218:
 181              	.LBB219:
 182              		.file 2 "../../libs/DaisySP/Source/Utility/delayline.h"
   1:../../libs/DaisySP/Source/Utility/delayline.h **** /*
   2:../../libs/DaisySP/Source/Utility/delayline.h **** Copyright (c) 2020 Electrosmith, Corp
   3:../../libs/DaisySP/Source/Utility/delayline.h **** 
   4:../../libs/DaisySP/Source/Utility/delayline.h **** Use of this source code is governed by an MIT-style
   5:../../libs/DaisySP/Source/Utility/delayline.h **** license that can be found in the LICENSE file or at
   6:../../libs/DaisySP/Source/Utility/delayline.h **** https://opensource.org/licenses/MIT.
   7:../../libs/DaisySP/Source/Utility/delayline.h **** */
   8:../../libs/DaisySP/Source/Utility/delayline.h **** 
   9:../../libs/DaisySP/Source/Utility/delayline.h **** #pragma once
  10:../../libs/DaisySP/Source/Utility/delayline.h **** #ifndef DSY_DELAY_H
  11:../../libs/DaisySP/Source/Utility/delayline.h **** #define DSY_DELAY_H
  12:../../libs/DaisySP/Source/Utility/delayline.h **** #include <stdlib.h>
  13:../../libs/DaisySP/Source/Utility/delayline.h **** #include <stdint.h>
  14:../../libs/DaisySP/Source/Utility/delayline.h **** namespace daisysp
  15:../../libs/DaisySP/Source/Utility/delayline.h **** {
  16:../../libs/DaisySP/Source/Utility/delayline.h **** /** Simple Delay line.
  17:../../libs/DaisySP/Source/Utility/delayline.h **** November 2019
  18:../../libs/DaisySP/Source/Utility/delayline.h **** 
  19:../../libs/DaisySP/Source/Utility/delayline.h **** Converted to Template December 2019
  20:../../libs/DaisySP/Source/Utility/delayline.h **** 
  21:../../libs/DaisySP/Source/Utility/delayline.h **** declaration example: (1 second of floats)
  22:../../libs/DaisySP/Source/Utility/delayline.h **** 
  23:../../libs/DaisySP/Source/Utility/delayline.h **** DelayLine<float, SAMPLE_RATE> del;
  24:../../libs/DaisySP/Source/Utility/delayline.h **** 
  25:../../libs/DaisySP/Source/Utility/delayline.h **** By: shensley
  26:../../libs/DaisySP/Source/Utility/delayline.h **** */
  27:../../libs/DaisySP/Source/Utility/delayline.h **** template <typename T, size_t max_size>
  28:../../libs/DaisySP/Source/Utility/delayline.h **** class DelayLine
  29:../../libs/DaisySP/Source/Utility/delayline.h **** {
  30:../../libs/DaisySP/Source/Utility/delayline.h ****   public:
  31:../../libs/DaisySP/Source/Utility/delayline.h ****     DelayLine() {}
  32:../../libs/DaisySP/Source/Utility/delayline.h ****     ~DelayLine() {}
  33:../../libs/DaisySP/Source/Utility/delayline.h ****     /** initializes the delay line by clearing the values within, and setting delay to 1 sample.
  34:../../libs/DaisySP/Source/Utility/delayline.h ****     */
  35:../../libs/DaisySP/Source/Utility/delayline.h ****     void Init() { Reset(); }
  36:../../libs/DaisySP/Source/Utility/delayline.h ****     /** clears buffer, sets write ptr to 0, and delay to 1 sample.
  37:../../libs/DaisySP/Source/Utility/delayline.h ****     */
  38:../../libs/DaisySP/Source/Utility/delayline.h ****     void Reset()
  39:../../libs/DaisySP/Source/Utility/delayline.h ****     {
  40:../../libs/DaisySP/Source/Utility/delayline.h ****         for(size_t i = 0; i < max_size; i++)
  41:../../libs/DaisySP/Source/Utility/delayline.h ****         {
  42:../../libs/DaisySP/Source/Utility/delayline.h ****             line_[i] = T(0);
  43:../../libs/DaisySP/Source/Utility/delayline.h ****         }
  44:../../libs/DaisySP/Source/Utility/delayline.h ****         write_ptr_ = 0;
  45:../../libs/DaisySP/Source/Utility/delayline.h ****         delay_     = 1;
ARM GAS  C:\Users\skipi\AppData\Local\Temp\cc4fyQdn.s 			page 8


  46:../../libs/DaisySP/Source/Utility/delayline.h ****     }
  47:../../libs/DaisySP/Source/Utility/delayline.h **** 
  48:../../libs/DaisySP/Source/Utility/delayline.h ****     /** sets the delay time in samples
  49:../../libs/DaisySP/Source/Utility/delayline.h ****         If a float is passed in, a fractional component will be calculated for interpolating the de
  50:../../libs/DaisySP/Source/Utility/delayline.h ****     */
  51:../../libs/DaisySP/Source/Utility/delayline.h ****     inline void SetDelay(size_t delay)
  52:../../libs/DaisySP/Source/Utility/delayline.h ****     {
  53:../../libs/DaisySP/Source/Utility/delayline.h ****         frac_  = 0.0f;
  54:../../libs/DaisySP/Source/Utility/delayline.h ****         delay_ = delay < max_size ? delay : max_size - 1;
  55:../../libs/DaisySP/Source/Utility/delayline.h ****     }
  56:../../libs/DaisySP/Source/Utility/delayline.h **** 
  57:../../libs/DaisySP/Source/Utility/delayline.h ****     /** sets the delay time in samples
  58:../../libs/DaisySP/Source/Utility/delayline.h ****         If a float is passed in, a fractional component will be calculated for interpolating the de
  59:../../libs/DaisySP/Source/Utility/delayline.h ****     */
  60:../../libs/DaisySP/Source/Utility/delayline.h ****     inline void SetDelay(float delay)
  61:../../libs/DaisySP/Source/Utility/delayline.h ****     {
  62:../../libs/DaisySP/Source/Utility/delayline.h ****         int32_t int_delay = static_cast<int32_t>(delay);
 183              		.loc 2 62 17 view .LVU61
 184 00d0 BDEEE87A 		vcvt.s32.f32	s14, s17
 185              	.LBE219:
 186              	.LBE218:
 187              	.LBB225:
 188              	.LBB226:
  63:../../libs/DaisySP/Source/Utility/delayline.h ****         frac_             = delay - static_cast<float>(int_delay);
  64:../../libs/DaisySP/Source/Utility/delayline.h ****         delay_ = static_cast<size_t>(int_delay) < max_size ? int_delay
  65:../../libs/DaisySP/Source/Utility/delayline.h ****                                                            : max_size - 1;
  66:../../libs/DaisySP/Source/Utility/delayline.h ****     }
  67:../../libs/DaisySP/Source/Utility/delayline.h **** 
  68:../../libs/DaisySP/Source/Utility/delayline.h ****     /** writes the sample of type T to the delay line, and advances the write ptr
  69:../../libs/DaisySP/Source/Utility/delayline.h ****     */
  70:../../libs/DaisySP/Source/Utility/delayline.h ****     inline void Write(const T sample)
  71:../../libs/DaisySP/Source/Utility/delayline.h ****     {
  72:../../libs/DaisySP/Source/Utility/delayline.h ****         line_[write_ptr_] = sample;
 189              		.loc 2 72 15 view .LVU62
 190 00d4 6A68     		ldr	r2, [r5, #4]
  73:../../libs/DaisySP/Source/Utility/delayline.h ****         write_ptr_        = (write_ptr_ - 1 + max_size) % max_size;
 191              		.loc 2 73 45 view .LVU63
 192 00d6 43F6FF73 		movw	r3, #16383
 193              	.LBE226:
 194              	.LBE225:
 195              	.LBB231:
 196              	.LBB232:
  62:../../libs/DaisySP/Source/Utility/delayline.h ****         frac_             = delay - static_cast<float>(int_delay);
 197              		.loc 2 62 17 view .LVU64
 198 00da FDEEC87A 		vcvt.s32.f32	s15, s16
 199              	.LBE232:
 200              	.LBE231:
 127:../../libs/DaisySP/Source/Effects/pitchshifter.h **** #endif
 201              		.loc 1 127 18 view .LVU65
 202 00de 84ED150A 		vstr.32	s0, [r4, #84]
 131:../../libs/DaisySP/Source/Effects/pitchshifter.h ****         d_[1].Write(in);
 203              		.loc 1 131 9 is_stmt 1 view .LVU66
 204              	.LBB240:
 205              	.LBB227:
  72:../../libs/DaisySP/Source/Utility/delayline.h ****         write_ptr_        = (write_ptr_ - 1 + max_size) % max_size;
 206              		.loc 2 72 27 is_stmt 0 view .LVU67
 207 00e2 05EB8201 		add	r1, r5, r2, lsl #2
ARM GAS  C:\Users\skipi\AppData\Local\Temp\cc4fyQdn.s 			page 9


 208              	.LBE227:
 209              	.LBE240:
 131:../../libs/DaisySP/Source/Effects/pitchshifter.h ****         d_[1].Write(in);
 210              		.loc 1 131 20 view .LVU68
 211 00e6 D6F800C0 		ldr	ip, [r6]	@ float
 212              	.LVL11:
 213              	.LBB241:
 214              	.LBI225:
  70:../../libs/DaisySP/Source/Utility/delayline.h ****     {
 215              		.loc 2 70 17 is_stmt 1 view .LVU69
 216              	.LBE241:
 217              	.LBB242:
 218              	.LBB220:
  64:../../libs/DaisySP/Source/Utility/delayline.h ****                                                            : max_size - 1;
 219              		.loc 2 64 60 is_stmt 0 view .LVU70
 220 00ea 17EE104A 		vmov	r4, s14	@ int
 221              	.LBE220:
 222              	.LBE242:
 223              	.LBB243:
 224              	.LBB228:
 225              		.loc 2 73 45 view .LVU71
 226 00ee 1A44     		add	r2, r2, r3
  72:../../libs/DaisySP/Source/Utility/delayline.h ****         write_ptr_        = (write_ptr_ - 1 + max_size) % max_size;
 227              		.loc 2 72 27 view .LVU72
 228 00f0 C1F80CC0 		str	ip, [r1, #12]	@ float
 229              	.LBE228:
 230              	.LBE243:
 231              	.LBB244:
 232              	.LBB233:
  64:../../libs/DaisySP/Source/Utility/delayline.h ****                                                            : max_size - 1;
 233              		.loc 2 64 60 view .LVU73
 234 00f4 17EE900A 		vmov	r0, s15	@ int
 235              	.LBE233:
 236              	.LBE244:
 237              	.LBB245:
 238              	.LBB246:
  72:../../libs/DaisySP/Source/Utility/delayline.h ****         write_ptr_        = (write_ptr_ - 1 + max_size) % max_size;
 239              		.loc 2 72 15 view .LVU74
 240 00f8 05F58031 		add	r1, r5, #65536
 241              	.LBE246:
 242              	.LBE245:
 243              	.LBB251:
 244              	.LBB221:
  64:../../libs/DaisySP/Source/Utility/delayline.h ****                                                            : max_size - 1;
 245              		.loc 2 64 60 view .LVU75
 246 00fc 9C42     		cmp	r4, r3
 247              	.LBE221:
 248              	.LBE251:
 249              	.LBB252:
 250              	.LBB229:
 251              		.loc 2 73 57 view .LVU76
 252 00fe C2F30D02 		ubfx	r2, r2, #0, #14
 253              	.LBE229:
 254              	.LBE252:
 255              	.LBB253:
 256              	.LBB222:
  63:../../libs/DaisySP/Source/Utility/delayline.h ****         delay_ = static_cast<size_t>(int_delay) < max_size ? int_delay
ARM GAS  C:\Users\skipi\AppData\Local\Temp\cc4fyQdn.s 			page 10


 257              		.loc 2 63 37 view .LVU77
 258 0102 F8EEC75A 		vcvt.f32.s32	s11, s14
  64:../../libs/DaisySP/Source/Utility/delayline.h ****                                                            : max_size - 1;
 259              		.loc 2 64 60 view .LVU78
 260 0106 28BF     		it	cs
 261 0108 1C46     		movcs	r4, r3
 262              	.LBE222:
 263              	.LBE253:
 264              	.LBB254:
 265              	.LBB234:
 266 010a 9842     		cmp	r0, r3
 267              	.LBE234:
 268              	.LBE254:
 269              	.LBB255:
 270              	.LBB230:
 271              		.loc 2 73 27 view .LVU79
 272 010c 6A60     		str	r2, [r5, #4]
 273              	.LVL12:
 274              		.loc 2 73 27 view .LVU80
 275              	.LBE230:
 276              	.LBE255:
 132:../../libs/DaisySP/Source/Effects/pitchshifter.h ****         // Modulate Delay Lines
 277              		.loc 1 132 9 is_stmt 1 view .LVU81
 278              	.LBB256:
 279              	.LBI245:
  70:../../libs/DaisySP/Source/Utility/delayline.h ****     {
 280              		.loc 2 70 17 view .LVU82
 281              	.LBE256:
 282              	.LBB257:
 283              	.LBB235:
  63:../../libs/DaisySP/Source/Utility/delayline.h ****         delay_ = static_cast<size_t>(int_delay) < max_size ? int_delay
 284              		.loc 2 63 37 is_stmt 0 view .LVU83
 285 010e B8EEE76A 		vcvt.f32.s32	s12, s15
 286              	.LBE235:
 287              	.LBE257:
 288              	.LBB258:
 289              	.LBB247:
  72:../../libs/DaisySP/Source/Utility/delayline.h ****         write_ptr_        = (write_ptr_ - 1 + max_size) % max_size;
 290              		.loc 2 72 15 view .LVU84
 291 0112 0E69     		ldr	r6, [r1, #16]
 292              	.LVL13:
  72:../../libs/DaisySP/Source/Utility/delayline.h ****         write_ptr_        = (write_ptr_ - 1 + max_size) % max_size;
 293              		.loc 2 72 15 view .LVU85
 294              	.LBE247:
 295              	.LBE258:
 296              	.LBB259:
 297              	.LBB236:
  64:../../libs/DaisySP/Source/Utility/delayline.h ****                                                            : max_size - 1;
 298              		.loc 2 64 60 view .LVU86
 299 0114 28BF     		it	cs
 300 0116 1846     		movcs	r0, r3
 301              	.LBE236:
 302              	.LBE259:
 303              	.LBB260:
 304              	.LBB223:
  63:../../libs/DaisySP/Source/Utility/delayline.h ****         delay_ = static_cast<size_t>(int_delay) < max_size ? int_delay
 305              		.loc 2 63 35 view .LVU87
ARM GAS  C:\Users\skipi\AppData\Local\Temp\cc4fyQdn.s 			page 11


 306 0118 78EEE58A 		vsub.f32	s17, s17, s11
 307              	.LBE223:
 308              	.LBE260:
 309              	.LBB261:
 310              	.LBB262:
  74:../../libs/DaisySP/Source/Utility/delayline.h ****     }
  75:../../libs/DaisySP/Source/Utility/delayline.h **** 
  76:../../libs/DaisySP/Source/Utility/delayline.h ****     /** returns the next sample of type T in the delay line, interpolated if necessary.
  77:../../libs/DaisySP/Source/Utility/delayline.h ****     */
  78:../../libs/DaisySP/Source/Utility/delayline.h ****     inline const T Read() const
  79:../../libs/DaisySP/Source/Utility/delayline.h ****     {
  80:../../libs/DaisySP/Source/Utility/delayline.h ****         T a = line_[(write_ptr_ + delay_) % max_size];
 311              		.loc 2 80 33 view .LVU88
 312 011c 2244     		add	r2, r2, r4
 313              	.LBE262:
 314              	.LBE261:
 315              	.LBB269:
 316              	.LBB248:
  73:../../libs/DaisySP/Source/Utility/delayline.h ****     }
 317              		.loc 2 73 45 view .LVU89
 318 011e 3344     		add	r3, r3, r6
  72:../../libs/DaisySP/Source/Utility/delayline.h ****         write_ptr_        = (write_ptr_ - 1 + max_size) % max_size;
 319              		.loc 2 72 27 view .LVU90
 320 0120 01EB8606 		add	r6, r1, r6, lsl #2
 321              	.LBE248:
 322              	.LBE269:
 323              	.LBB270:
 324              	.LBB237:
  63:../../libs/DaisySP/Source/Utility/delayline.h ****         delay_ = static_cast<size_t>(int_delay) < max_size ? int_delay
 325              		.loc 2 63 35 view .LVU91
 326 0124 38EE468A 		vsub.f32	s16, s16, s12
 327              	.LBE237:
 328              	.LBE270:
 329              	.LBB271:
 330              	.LBB249:
  73:../../libs/DaisySP/Source/Utility/delayline.h ****     }
 331              		.loc 2 73 57 view .LVU92
 332 0128 C3F30D03 		ubfx	r3, r3, #0, #14
  72:../../libs/DaisySP/Source/Utility/delayline.h ****         write_ptr_        = (write_ptr_ - 1 + max_size) % max_size;
 333              		.loc 2 72 27 view .LVU93
 334 012c C6F818C0 		str	ip, [r6, #24]	@ float
 335              	.LBE249:
 336              	.LBE271:
 127:../../libs/DaisySP/Source/Effects/pitchshifter.h **** #endif
 337              		.loc 1 127 24 view .LVU94
 338 0130 F0EE406A 		vmov.f32	s13, s0
 139:../../libs/DaisySP/Source/Effects/pitchshifter.h ****         val = 0.0f;
 140:../../libs/DaisySP/Source/Effects/pitchshifter.h ****         val += (d_[0].Read() * gain_[0]);
 339              		.loc 1 140 13 view .LVU95
 340 0134 9FED5E0A 		vldr.32	s0, .L12+12
 341              	.LBB272:
 342              	.LBB250:
  73:../../libs/DaisySP/Source/Utility/delayline.h ****     }
 343              		.loc 2 73 27 view .LVU96
 344 0138 0B61     		str	r3, [r1, #16]
 345              	.LVL14:
  73:../../libs/DaisySP/Source/Utility/delayline.h ****     }
ARM GAS  C:\Users\skipi\AppData\Local\Temp\cc4fyQdn.s 			page 12


 346              		.loc 2 73 27 view .LVU97
 347              	.LBE250:
 348              	.LBE272:
 135:../../libs/DaisySP/Source/Effects/pitchshifter.h ****         d_[1].SetDelay(mod_[1] + mod_b_amt_);
 349              		.loc 1 135 9 is_stmt 1 view .LVU98
 136:../../libs/DaisySP/Source/Effects/pitchshifter.h ****         d_[0].SetDelay(mod_[0] + slewed_mod_[0]);
 350              		.loc 1 136 9 view .LVU99
 137:../../libs/DaisySP/Source/Effects/pitchshifter.h ****         d_[1].SetDelay(mod_[1] + slewed_mod_[1]);
 351              		.loc 1 137 9 view .LVU100
 352              	.LBB273:
 353              	.LBI218:
  60:../../libs/DaisySP/Source/Utility/delayline.h ****     {
 354              		.loc 2 60 17 view .LVU101
  60:../../libs/DaisySP/Source/Utility/delayline.h ****     {
 355              		.loc 2 60 17 is_stmt 0 view .LVU102
 356              	.LBE273:
 357              	.LBB274:
 358              	.LBB275:
 359              		.loc 2 80 33 view .LVU103
 360 013a 0344     		add	r3, r3, r0
 361              	.LBE275:
 362              	.LBE274:
 363              	.LBB281:
 364              	.LBB224:
  63:../../libs/DaisySP/Source/Utility/delayline.h ****         delay_ = static_cast<size_t>(int_delay) < max_size ? int_delay
 365              		.loc 2 63 27 view .LVU104
 366 013c C5ED008A 		vstr.32	s17, [r5]
  64:../../libs/DaisySP/Source/Utility/delayline.h ****                                                            : max_size - 1;
 367              		.loc 2 64 16 view .LVU105
 368 0140 AC60     		str	r4, [r5, #8]
 369              	.LVL15:
  64:../../libs/DaisySP/Source/Utility/delayline.h ****                                                            : max_size - 1;
 370              		.loc 2 64 16 view .LVU106
 371              	.LBE224:
 372              	.LBE281:
 138:../../libs/DaisySP/Source/Effects/pitchshifter.h ****         val = 0.0f;
 373              		.loc 1 138 9 is_stmt 1 view .LVU107
 374              	.LBB282:
 375              	.LBI231:
  60:../../libs/DaisySP/Source/Utility/delayline.h ****     {
 376              		.loc 2 60 17 view .LVU108
 377              	.LBB238:
  64:../../libs/DaisySP/Source/Utility/delayline.h ****                                                            : max_size - 1;
 378              		.loc 2 64 16 is_stmt 0 view .LVU109
 379 0142 4861     		str	r0, [r1, #20]
 380              	.LVL16:
  64:../../libs/DaisySP/Source/Utility/delayline.h ****                                                            : max_size - 1;
 381              		.loc 2 64 16 view .LVU110
 382              	.LBE238:
 383              	.LBE282:
 139:../../libs/DaisySP/Source/Effects/pitchshifter.h ****         val += (d_[0].Read() * gain_[0]);
 384              		.loc 1 139 9 is_stmt 1 view .LVU111
 385              		.loc 1 140 9 view .LVU112
 386              	.LBB283:
 387              	.LBI261:
  78:../../libs/DaisySP/Source/Utility/delayline.h ****     {
 388              		.loc 2 78 20 view .LVU113
ARM GAS  C:\Users\skipi\AppData\Local\Temp\cc4fyQdn.s 			page 13


 389              	.LBB263:
 390              		.loc 2 80 43 is_stmt 0 view .LVU114
 391 0144 C2F30D00 		ubfx	r0, r2, #0, #14
  81:../../libs/DaisySP/Source/Utility/delayline.h ****         T b = line_[(write_ptr_ + delay_ + 1) % max_size];
 392              		.loc 2 81 42 view .LVU115
 393 0148 0132     		adds	r2, r2, #1
 394              	.LBE263:
 395              	.LBE283:
 396              	.LBB284:
 397              	.LBB239:
  63:../../libs/DaisySP/Source/Utility/delayline.h ****         delay_ = static_cast<size_t>(int_delay) < max_size ? int_delay
 398              		.loc 2 63 27 view .LVU116
 399 014a 81ED038A 		vstr.32	s16, [r1, #12]
 400              	.LBE239:
 401              	.LBE284:
 402              	.LBB285:
 403              	.LBB264:
  80:../../libs/DaisySP/Source/Utility/delayline.h ****         T b = line_[(write_ptr_ + delay_ + 1) % max_size];
 404              		.loc 2 80 11 view .LVU117
 405 014e 05EB8000 		add	r0, r5, r0, lsl #2
 406              		.loc 2 81 47 view .LVU118
 407 0152 C2F30D02 		ubfx	r2, r2, #0, #14
  80:../../libs/DaisySP/Source/Utility/delayline.h ****         T b = line_[(write_ptr_ + delay_ + 1) % max_size];
 408              		.loc 2 80 11 view .LVU119
 409 0156 90ED037A 		vldr.32	s14, [r0, #12]
 410              	.LVL17:
  80:../../libs/DaisySP/Source/Utility/delayline.h ****         T b = line_[(write_ptr_ + delay_ + 1) % max_size];
 411              		.loc 2 80 11 view .LVU120
 412              	.LBE264:
 413              	.LBE285:
 414              	.LBB286:
 415              	.LBB276:
 416              		.loc 2 81 42 view .LVU121
 417 015a 581C     		adds	r0, r3, #1
 418              	.LBE276:
 419              	.LBE286:
 420              	.LBB287:
 421              	.LBB265:
 422              		.loc 2 81 11 view .LVU122
 423 015c 05EB8202 		add	r2, r5, r2, lsl #2
 424              	.LBE265:
 425              	.LBE287:
 426              	.LBB288:
 427              	.LBB277:
  80:../../libs/DaisySP/Source/Utility/delayline.h ****         T b = line_[(write_ptr_ + delay_ + 1) % max_size];
 428              		.loc 2 80 43 view .LVU123
 429 0160 C3F30D03 		ubfx	r3, r3, #0, #14
 430              	.LBE277:
 431              	.LBE288:
 432              	.LBB289:
 433              	.LBB266:
  82:../../libs/DaisySP/Source/Utility/delayline.h ****         return a + (b - a) * frac_;
 434              		.loc 2 82 23 view .LVU124
 435 0164 92ED036A 		vldr.32	s12, [r2, #12]
 436              	.LBE266:
 437              	.LBE289:
 438              	.LBB290:
ARM GAS  C:\Users\skipi\AppData\Local\Temp\cc4fyQdn.s 			page 14


 439              	.LBB278:
  81:../../libs/DaisySP/Source/Utility/delayline.h ****         return a + (b - a) * frac_;
 440              		.loc 2 81 47 view .LVU125
 441 0168 C0F30D02 		ubfx	r2, r0, #0, #14
  80:../../libs/DaisySP/Source/Utility/delayline.h ****         T b = line_[(write_ptr_ + delay_ + 1) % max_size];
 442              		.loc 2 80 11 view .LVU126
 443 016c 01EB8303 		add	r3, r1, r3, lsl #2
 444              	.LBE278:
 445              	.LBE290:
 446              	.LBB291:
 447              	.LBB267:
 448              		.loc 2 82 23 view .LVU127
 449 0170 36EE476A 		vsub.f32	s12, s12, s14
 450              	.LBE267:
 451              	.LBE291:
 452              	.LBB292:
 453              	.LBB279:
  81:../../libs/DaisySP/Source/Utility/delayline.h ****         return a + (b - a) * frac_;
 454              		.loc 2 81 11 view .LVU128
 455 0174 01EB8202 		add	r2, r1, r2, lsl #2
  80:../../libs/DaisySP/Source/Utility/delayline.h ****         T b = line_[(write_ptr_ + delay_ + 1) % max_size];
 456              		.loc 2 80 11 view .LVU129
 457 0178 D3ED067A 		vldr.32	s15, [r3, #24]
 458              	.LBE279:
 459              	.LBE292:
 460              	.LBB293:
 461              	.LBB268:
 462              		.loc 2 82 30 view .LVU130
 463 017c A8EE867A 		vfma.f32	s14, s17, s12
 464              	.LVL18:
 465              		.loc 2 82 30 view .LVU131
 466              	.LBE268:
 467              	.LBE293:
 468              	.LBB294:
 469              	.LBB280:
 470              		.loc 2 82 23 view .LVU132
 471 0180 92ED066A 		vldr.32	s12, [r2, #24]
 472 0184 36EE676A 		vsub.f32	s12, s12, s15
 473              		.loc 2 82 30 view .LVU133
 474 0188 E8EE067A 		vfma.f32	s15, s16, s12
 475              	.LBE280:
 476              	.LBE294:
 477              		.loc 1 140 13 view .LVU134
 478 018c AAEE070A 		vfma.f32	s0, s20, s14
 479              	.LVL19:
 141:../../libs/DaisySP/Source/Effects/pitchshifter.h ****         val += (d_[1].Read() * gain_[1]);
 480              		.loc 1 141 9 is_stmt 1 view .LVU135
 481              	.LBB295:
 482              	.LBI274:
  78:../../libs/DaisySP/Source/Utility/delayline.h ****     {
 483              		.loc 2 78 20 view .LVU136
  78:../../libs/DaisySP/Source/Utility/delayline.h ****     {
 484              		.loc 2 78 20 is_stmt 0 view .LVU137
 485              	.LBE295:
 142:../../libs/DaisySP/Source/Effects/pitchshifter.h ****         return val;
 486              		.loc 1 142 9 is_stmt 1 view .LVU138
 143:../../libs/DaisySP/Source/Effects/pitchshifter.h ****     }
ARM GAS  C:\Users\skipi\AppData\Local\Temp\cc4fyQdn.s 			page 15


 487              		.loc 1 143 5 is_stmt 0 view .LVU139
 488 0190 BDEC088B 		vldm	sp!, {d8-d11}
 489              		.cfi_remember_state
 490              		.cfi_restore 86
 491              		.cfi_restore 87
 492              		.cfi_restore 84
 493              		.cfi_restore 85
 494              		.cfi_restore 82
 495              		.cfi_restore 83
 496              		.cfi_restore 80
 497              		.cfi_restore 81
 498              		.cfi_def_cfa_offset 24
 499 0194 A6EEA70A 		vfma.f32	s0, s13, s15
 500              	.LVL20:
 501              		.loc 1 143 5 view .LVU140
 502 0198 F8BD     		pop	{r3, r4, r5, r6, r7, pc}
 503              	.LVL21:
 504              	.L4:
 505              		.cfi_restore_state
 106:../../libs/DaisySP/Source/Effects/pitchshifter.h ****                          * (del_size_ * 0.5f);
 506              		.loc 1 106 13 is_stmt 1 view .LVU141
 507              	.LBB296:
 508              	.LBI296:
  39:../../libs/DaisySP/Source/Effects/pitchshifter.h **** {
 509              		.loc 1 39 17 view .LVU142
 510              	.LBB297:
  41:../../libs/DaisySP/Source/Effects/pitchshifter.h ****     seed                 = hash_xs32(seed);
 511              		.loc 1 41 5 view .LVU143
  42:../../libs/DaisySP/Source/Effects/pitchshifter.h ****     return seed;
 512              		.loc 1 42 5 view .LVU144
  42:../../libs/DaisySP/Source/Effects/pitchshifter.h ****     return seed;
 513              		.loc 1 42 37 is_stmt 0 view .LVU145
 514 019a 464F     		ldr	r7, .L12+16
 515              	.LBE297:
 516              	.LBE296:
 106:../../libs/DaisySP/Source/Effects/pitchshifter.h ****                          * (del_size_ * 0.5f);
 517              		.loc 1 106 51 view .LVU146
 518 019c 4649     		ldr	r1, .L12+20
 519              	.LBB310:
 520              	.LBB306:
  42:../../libs/DaisySP/Source/Effects/pitchshifter.h ****     return seed;
 521              		.loc 1 42 37 view .LVU147
 522 019e 3A68     		ldr	r2, [r7]
 523              	.LVL22:
 524              	.LBB298:
 525              	.LBI298:
  31:../../libs/DaisySP/Source/Effects/pitchshifter.h **** {
 526              		.loc 1 31 24 is_stmt 1 view .LVU148
 527              	.LBB299:
  33:../../libs/DaisySP/Source/Effects/pitchshifter.h ****     x ^= x >> 17;
 528              		.loc 1 33 5 view .LVU149
 529              	.LBE299:
 530              	.LBE298:
 531              	.LBE306:
 532              	.LBE310:
 106:../../libs/DaisySP/Source/Effects/pitchshifter.h ****                          * (del_size_ * 0.5f);
 533              		.loc 1 106 58 is_stmt 0 view .LVU150
ARM GAS  C:\Users\skipi\AppData\Local\Temp\cc4fyQdn.s 			page 16


 534 01a0 9FED465A 		vldr.32	s10, .L12+24
 535              	.LBB311:
 536              	.LBB307:
 537              	.LBB303:
 538              	.LBB300:
  33:../../libs/DaisySP/Source/Effects/pitchshifter.h ****     x ^= x >> 17;
 539              		.loc 1 33 7 view .LVU151
 540 01a4 82EA4232 		eor	r2, r2, r2, lsl #13
 541              	.LVL23:
  34:../../libs/DaisySP/Source/Effects/pitchshifter.h ****     x ^= x << 5;
 542              		.loc 1 34 5 is_stmt 1 view .LVU152
 543              	.LBE300:
 544              	.LBE303:
 545              	.LBE307:
 546              	.LBE311:
 106:../../libs/DaisySP/Source/Effects/pitchshifter.h ****                          * (del_size_ * 0.5f);
 547              		.loc 1 106 31 is_stmt 0 view .LVU153
 548 01a8 D4ED193A 		vldr.32	s7, [r4, #100]
 109:../../libs/DaisySP/Source/Effects/pitchshifter.h ****         }
 549              		.loc 1 109 27 view .LVU154
 550 01ac 9FED446A 		vldr.32	s12, .L12+28
 551              	.LBB312:
 552              	.LBB308:
 553              	.LBB304:
 554              	.LBB301:
  34:../../libs/DaisySP/Source/Effects/pitchshifter.h ****     x ^= x << 5;
 555              		.loc 1 34 7 view .LVU155
 556 01b0 82EA5242 		eor	r2, r2, r2, lsr #17
 557              	.LVL24:
  35:../../libs/DaisySP/Source/Effects/pitchshifter.h ****     return x;
 558              		.loc 1 35 5 is_stmt 1 view .LVU156
 559              	.LBE301:
 560              	.LBE304:
 561              	.LBE308:
 562              	.LBE312:
 109:../../libs/DaisySP/Source/Effects/pitchshifter.h ****         }
 563              		.loc 1 109 27 is_stmt 0 view .LVU157
 564 01b4 DFED434A 		vldr.32	s9, .L12+32
 565              	.LBB313:
 566              	.LBB309:
 567              	.LBB305:
 568              	.LBB302:
  35:../../libs/DaisySP/Source/Effects/pitchshifter.h ****     return x;
 569              		.loc 1 35 7 view .LVU158
 570 01b8 82EA4212 		eor	r2, r2, r2, lsl #5
 571              	.LVL25:
  36:../../libs/DaisySP/Source/Effects/pitchshifter.h **** }
 572              		.loc 1 36 5 is_stmt 1 view .LVU159
  36:../../libs/DaisySP/Source/Effects/pitchshifter.h **** }
 573              		.loc 1 36 5 is_stmt 0 view .LVU160
 574              	.LBE302:
 575              	.LBE305:
  43:../../libs/DaisySP/Source/Effects/pitchshifter.h **** }
 576              		.loc 1 43 5 is_stmt 1 view .LVU161
 577              	.LBE309:
 578              	.LBE313:
 579              	.LBB314:
ARM GAS  C:\Users\skipi\AppData\Local\Temp\cc4fyQdn.s 			page 17


 580              	.LBB315:
 581              	.LBB316:
 582              	.LBB317:
  33:../../libs/DaisySP/Source/Effects/pitchshifter.h ****     x ^= x >> 17;
 583              		.loc 1 33 7 is_stmt 0 view .LVU162
 584 01bc 82EA4230 		eor	r0, r2, r2, lsl #13
  34:../../libs/DaisySP/Source/Effects/pitchshifter.h ****     x ^= x << 5;
 585              		.loc 1 34 7 view .LVU163
 586 01c0 80EA5040 		eor	r0, r0, r0, lsr #17
  35:../../libs/DaisySP/Source/Effects/pitchshifter.h ****     return x;
 587              		.loc 1 35 7 view .LVU164
 588 01c4 80EA4010 		eor	r0, r0, r0, lsl #5
 589              	.LBE317:
 590              	.LBE316:
  42:../../libs/DaisySP/Source/Effects/pitchshifter.h ****     return seed;
 591              		.loc 1 42 26 view .LVU165
 592 01c8 3860     		str	r0, [r7]
 593              	.LBE315:
 594              	.LBE314:
 106:../../libs/DaisySP/Source/Effects/pitchshifter.h ****                          * (del_size_ * 0.5f);
 595              		.loc 1 106 51 view .LVU166
 596 01ca A1FB027C 		umull	r7, ip, r1, r2
 109:../../libs/DaisySP/Source/Effects/pitchshifter.h ****         }
 597              		.loc 1 109 48 view .LVU167
 598 01ce A1FB0071 		umull	r7, r1, r1, r0
 106:../../libs/DaisySP/Source/Effects/pitchshifter.h ****                          * (del_size_ * 0.5f);
 599              		.loc 1 106 51 view .LVU168
 600 01d2 4FEADC1C 		lsr	ip, ip, #7
 109:../../libs/DaisySP/Source/Effects/pitchshifter.h ****         }
 601              		.loc 1 109 48 view .LVU169
 602 01d6 C909     		lsrs	r1, r1, #7
 106:../../libs/DaisySP/Source/Effects/pitchshifter.h ****                          * (del_size_ * 0.5f);
 603              		.loc 1 106 51 view .LVU170
 604 01d8 CCEB0C2C 		rsb	ip, ip, ip, lsl #8
 109:../../libs/DaisySP/Source/Effects/pitchshifter.h ****         }
 605              		.loc 1 109 48 view .LVU171
 606 01dc C1EB0121 		rsb	r1, r1, r1, lsl #8
 106:../../libs/DaisySP/Source/Effects/pitchshifter.h ****                          * (del_size_ * 0.5f);
 607              		.loc 1 106 51 view .LVU172
 608 01e0 A2EB0C02 		sub	r2, r2, ip
 109:../../libs/DaisySP/Source/Effects/pitchshifter.h ****         }
 609              		.loc 1 109 48 view .LVU173
 610 01e4 411A     		subs	r1, r0, r1
 106:../../libs/DaisySP/Source/Effects/pitchshifter.h ****                          * (del_size_ * 0.5f);
 611              		.loc 1 106 34 view .LVU174
 612 01e6 07EE902A 		vmov	s15, r2	@ int
 613 01ea F8EEE76A 		vcvt.f32.s32	s13, s15
 106:../../libs/DaisySP/Source/Effects/pitchshifter.h ****                          * (del_size_ * 0.5f);
 614              		.loc 1 106 58 view .LVU175
 615 01ee C6EE857A 		vdiv.f32	s15, s13, s10
 109:../../libs/DaisySP/Source/Effects/pitchshifter.h ****         }
 616              		.loc 1 109 31 view .LVU176
 617 01f2 06EE901A 		vmov	s13, r1	@ int
 618 01f6 F8EEE66A 		vcvt.f32.s32	s13, s13
 109:../../libs/DaisySP/Source/Effects/pitchshifter.h ****         }
 619              		.loc 1 109 55 view .LVU177
 620 01fa 86EE854A 		vdiv.f32	s8, s13, s10
ARM GAS  C:\Users\skipi\AppData\Local\Temp\cc4fyQdn.s 			page 18


 107:../../libs/DaisySP/Source/Effects/pitchshifter.h ****             mod_coeff_[1]
 621              		.loc 1 107 26 view .LVU178
 622 01fe 06EE903A 		vmov	s13, r3	@ int
 623 0202 FBEEEF6A 		vcvt.f32.u32	s13, s13, #1
 106:../../libs/DaisySP/Source/Effects/pitchshifter.h ****                          * (del_size_ * 0.5f);
 624              		.loc 1 106 31 view .LVU179
 625 0206 67EEA37A 		vmul.f32	s15, s15, s7
 107:../../libs/DaisySP/Source/Effects/pitchshifter.h ****             mod_coeff_[1]
 626              		.loc 1 107 26 view .LVU180
 627 020a 67EEA67A 		vmul.f32	s15, s15, s13
 109:../../libs/DaisySP/Source/Effects/pitchshifter.h ****         }
 628              		.loc 1 109 27 view .LVU181
 629 020e F0EE466A 		vmov.f32	s13, s12
 106:../../libs/DaisySP/Source/Effects/pitchshifter.h ****                          * (del_size_ * 0.5f);
 630              		.loc 1 106 24 view .LVU182
 631 0212 C4ED1B7A 		vstr.32	s15, [r4, #108]
 108:../../libs/DaisySP/Source/Effects/pitchshifter.h ****                 = 0.0002f + (((float)(myrand() % 255) / 255.0f) * 0.001f);
 632              		.loc 1 108 13 is_stmt 1 view .LVU183
 633              	.LBB321:
 634              	.LBI314:
  39:../../libs/DaisySP/Source/Effects/pitchshifter.h **** {
 635              		.loc 1 39 17 view .LVU184
 636              	.LBB320:
  41:../../libs/DaisySP/Source/Effects/pitchshifter.h ****     seed                 = hash_xs32(seed);
 637              		.loc 1 41 5 view .LVU185
  42:../../libs/DaisySP/Source/Effects/pitchshifter.h ****     return seed;
 638              		.loc 1 42 5 view .LVU186
 639              	.LVL26:
 640              	.LBB319:
 641              	.LBI316:
  31:../../libs/DaisySP/Source/Effects/pitchshifter.h **** {
 642              		.loc 1 31 24 view .LVU187
 643              	.LBB318:
  33:../../libs/DaisySP/Source/Effects/pitchshifter.h ****     x ^= x >> 17;
 644              		.loc 1 33 5 view .LVU188
  34:../../libs/DaisySP/Source/Effects/pitchshifter.h ****     x ^= x << 5;
 645              		.loc 1 34 5 view .LVU189
  35:../../libs/DaisySP/Source/Effects/pitchshifter.h ****     return x;
 646              		.loc 1 35 5 view .LVU190
  36:../../libs/DaisySP/Source/Effects/pitchshifter.h **** }
 647              		.loc 1 36 5 view .LVU191
  36:../../libs/DaisySP/Source/Effects/pitchshifter.h **** }
 648              		.loc 1 36 5 is_stmt 0 view .LVU192
 649              	.LBE318:
 650              	.LBE319:
  43:../../libs/DaisySP/Source/Effects/pitchshifter.h **** }
 651              		.loc 1 43 5 is_stmt 1 view .LVU193
 652              	.LBE320:
 653              	.LBE321:
 109:../../libs/DaisySP/Source/Effects/pitchshifter.h ****         }
 654              		.loc 1 109 27 is_stmt 0 view .LVU194
 655 0216 E4EE246A 		vfma.f32	s13, s8, s9
 109:../../libs/DaisySP/Source/Effects/pitchshifter.h ****         }
 656              		.loc 1 109 17 view .LVU195
 657 021a C4ED216A 		vstr.32	s13, [r4, #132]
 658 021e 1BE7     		b	.L5
 659              	.L2:
ARM GAS  C:\Users\skipi\AppData\Local\Temp\cc4fyQdn.s 			page 19


  99:../../libs/DaisySP/Source/Effects/pitchshifter.h ****                          * (del_size_ * 0.5f);
 660              		.loc 1 99 13 is_stmt 1 view .LVU196
 661              	.LBB322:
 662              	.LBI322:
  39:../../libs/DaisySP/Source/Effects/pitchshifter.h **** {
 663              		.loc 1 39 17 view .LVU197
 664              	.LBB323:
  41:../../libs/DaisySP/Source/Effects/pitchshifter.h ****     seed                 = hash_xs32(seed);
 665              		.loc 1 41 5 view .LVU198
  42:../../libs/DaisySP/Source/Effects/pitchshifter.h ****     return seed;
 666              		.loc 1 42 5 view .LVU199
  42:../../libs/DaisySP/Source/Effects/pitchshifter.h ****     return seed;
 667              		.loc 1 42 37 is_stmt 0 view .LVU200
 668 0220 244F     		ldr	r7, .L12+16
 669              	.LBE323:
 670              	.LBE322:
  99:../../libs/DaisySP/Source/Effects/pitchshifter.h ****                          * (del_size_ * 0.5f);
 671              		.loc 1 99 51 view .LVU201
 672 0222 2548     		ldr	r0, .L12+20
 673              	.LBB336:
 674              	.LBB332:
  42:../../libs/DaisySP/Source/Effects/pitchshifter.h ****     return seed;
 675              		.loc 1 42 37 view .LVU202
 676 0224 3A68     		ldr	r2, [r7]
 677              	.LVL27:
 678              	.LBB324:
 679              	.LBI324:
  31:../../libs/DaisySP/Source/Effects/pitchshifter.h **** {
 680              		.loc 1 31 24 is_stmt 1 view .LVU203
 681              	.LBB325:
  33:../../libs/DaisySP/Source/Effects/pitchshifter.h ****     x ^= x >> 17;
 682              		.loc 1 33 5 view .LVU204
 683              	.LBE325:
 684              	.LBE324:
 685              	.LBE332:
 686              	.LBE336:
  99:../../libs/DaisySP/Source/Effects/pitchshifter.h ****                          * (del_size_ * 0.5f);
 687              		.loc 1 99 58 is_stmt 0 view .LVU205
 688 0226 DFED256A 		vldr.32	s13, .L12+24
 689              	.LBB337:
 690              	.LBB333:
 691              	.LBB329:
 692              	.LBB326:
  33:../../libs/DaisySP/Source/Effects/pitchshifter.h ****     x ^= x >> 17;
 693              		.loc 1 33 7 view .LVU206
 694 022a 82EA4232 		eor	r2, r2, r2, lsl #13
 695              	.LVL28:
  34:../../libs/DaisySP/Source/Effects/pitchshifter.h ****     x ^= x << 5;
 696              		.loc 1 34 5 is_stmt 1 view .LVU207
 697              	.LBE326:
 698              	.LBE329:
 699              	.LBE333:
 700              	.LBE337:
 100:../../libs/DaisySP/Source/Effects/pitchshifter.h ****             mod_coeff_[0]
 701              		.loc 1 100 29 is_stmt 0 view .LVU208
 702 022e 236A     		ldr	r3, [r4, #32]
  99:../../libs/DaisySP/Source/Effects/pitchshifter.h ****                          * (del_size_ * 0.5f);
ARM GAS  C:\Users\skipi\AppData\Local\Temp\cc4fyQdn.s 			page 20


 703              		.loc 1 99 31 view .LVU209
 704 0230 94ED194A 		vldr.32	s8, [r4, #100]
 705              	.LBB338:
 706              	.LBB334:
 707              	.LBB330:
 708              	.LBB327:
  34:../../libs/DaisySP/Source/Effects/pitchshifter.h ****     x ^= x << 5;
 709              		.loc 1 34 7 view .LVU210
 710 0234 82EA5242 		eor	r2, r2, r2, lsr #17
 711              	.LVL29:
  35:../../libs/DaisySP/Source/Effects/pitchshifter.h ****     return x;
 712              		.loc 1 35 5 is_stmt 1 view .LVU211
 713              	.LBE327:
 714              	.LBE330:
 715              	.LBE334:
 716              	.LBE338:
 102:../../libs/DaisySP/Source/Effects/pitchshifter.h ****         }
 717              		.loc 1 102 27 is_stmt 0 view .LVU212
 718 0238 9FED226A 		vldr.32	s12, .L12+32
 719 023c DFED205A 		vldr.32	s11, .L12+28
 100:../../libs/DaisySP/Source/Effects/pitchshifter.h ****             mod_coeff_[0]
 720              		.loc 1 100 39 view .LVU213
 721 0240 04EE903A 		vmov	s9, r3	@ int
 722              	.LBB339:
 723              	.LBB335:
 724              	.LBB331:
 725              	.LBB328:
  35:../../libs/DaisySP/Source/Effects/pitchshifter.h ****     return x;
 726              		.loc 1 35 7 view .LVU214
 727 0244 82EA4212 		eor	r2, r2, r2, lsl #5
 728              	.LVL30:
  36:../../libs/DaisySP/Source/Effects/pitchshifter.h **** }
 729              		.loc 1 36 5 is_stmt 1 view .LVU215
  36:../../libs/DaisySP/Source/Effects/pitchshifter.h **** }
 730              		.loc 1 36 5 is_stmt 0 view .LVU216
 731              	.LBE328:
 732              	.LBE331:
  43:../../libs/DaisySP/Source/Effects/pitchshifter.h **** }
 733              		.loc 1 43 5 is_stmt 1 view .LVU217
 734              	.LBE335:
 735              	.LBE339:
 100:../../libs/DaisySP/Source/Effects/pitchshifter.h ****             mod_coeff_[0]
 736              		.loc 1 100 39 is_stmt 0 view .LVU218
 737 0248 FBEEEF4A 		vcvt.f32.u32	s9, s9, #1
 738              	.LBB340:
 739              	.LBB341:
 740              	.LBB342:
 741              	.LBB343:
  33:../../libs/DaisySP/Source/Effects/pitchshifter.h ****     x ^= x >> 17;
 742              		.loc 1 33 7 view .LVU219
 743 024c 82EA4231 		eor	r1, r2, r2, lsl #13
  34:../../libs/DaisySP/Source/Effects/pitchshifter.h ****     x ^= x << 5;
 744              		.loc 1 34 7 view .LVU220
 745 0250 81EA5141 		eor	r1, r1, r1, lsr #17
  35:../../libs/DaisySP/Source/Effects/pitchshifter.h ****     return x;
 746              		.loc 1 35 7 view .LVU221
 747 0254 81EA4111 		eor	r1, r1, r1, lsl #5
ARM GAS  C:\Users\skipi\AppData\Local\Temp\cc4fyQdn.s 			page 21


 748              	.LBE343:
 749              	.LBE342:
  42:../../libs/DaisySP/Source/Effects/pitchshifter.h ****     return seed;
 750              		.loc 1 42 26 view .LVU222
 751 0258 3960     		str	r1, [r7]
 752              	.LBE341:
 753              	.LBE340:
  99:../../libs/DaisySP/Source/Effects/pitchshifter.h ****                          * (del_size_ * 0.5f);
 754              		.loc 1 99 51 view .LVU223
 755 025a A0FB027C 		umull	r7, ip, r0, r2
 102:../../libs/DaisySP/Source/Effects/pitchshifter.h ****         }
 756              		.loc 1 102 48 view .LVU224
 757 025e A0FB0170 		umull	r7, r0, r0, r1
  99:../../libs/DaisySP/Source/Effects/pitchshifter.h ****                          * (del_size_ * 0.5f);
 758              		.loc 1 99 51 view .LVU225
 759 0262 4FEADC1C 		lsr	ip, ip, #7
 102:../../libs/DaisySP/Source/Effects/pitchshifter.h ****         }
 760              		.loc 1 102 48 view .LVU226
 761 0266 C009     		lsrs	r0, r0, #7
  99:../../libs/DaisySP/Source/Effects/pitchshifter.h ****                          * (del_size_ * 0.5f);
 762              		.loc 1 99 51 view .LVU227
 763 0268 CCEB0C2C 		rsb	ip, ip, ip, lsl #8
 102:../../libs/DaisySP/Source/Effects/pitchshifter.h ****         }
 764              		.loc 1 102 48 view .LVU228
 765 026c C0EB0020 		rsb	r0, r0, r0, lsl #8
  99:../../libs/DaisySP/Source/Effects/pitchshifter.h ****                          * (del_size_ * 0.5f);
 766              		.loc 1 99 51 view .LVU229
 767 0270 A2EB0C02 		sub	r2, r2, ip
 102:../../libs/DaisySP/Source/Effects/pitchshifter.h ****         }
 768              		.loc 1 102 48 view .LVU230
 769 0274 081A     		subs	r0, r1, r0
  99:../../libs/DaisySP/Source/Effects/pitchshifter.h ****                          * (del_size_ * 0.5f);
 770              		.loc 1 99 34 view .LVU231
 771 0276 07EE902A 		vmov	s15, r2	@ int
 772 027a F8EEE77A 		vcvt.f32.s32	s15, s15
  99:../../libs/DaisySP/Source/Effects/pitchshifter.h ****                          * (del_size_ * 0.5f);
 773              		.loc 1 99 58 view .LVU232
 774 027e 87EEA67A 		vdiv.f32	s14, s15, s13
 102:../../libs/DaisySP/Source/Effects/pitchshifter.h ****         }
 775              		.loc 1 102 31 view .LVU233
 776 0282 07EE900A 		vmov	s15, r0	@ int
 777 0286 F8EEE77A 		vcvt.f32.s32	s15, s15
 102:../../libs/DaisySP/Source/Effects/pitchshifter.h ****         }
 778              		.loc 1 102 55 view .LVU234
 779 028a 87EEA65A 		vdiv.f32	s10, s15, s13
  99:../../libs/DaisySP/Source/Effects/pitchshifter.h ****                          * (del_size_ * 0.5f);
 780              		.loc 1 99 31 view .LVU235
 781 028e 27EE047A 		vmul.f32	s14, s14, s8
 100:../../libs/DaisySP/Source/Effects/pitchshifter.h ****             mod_coeff_[0]
 782              		.loc 1 100 26 view .LVU236
 783 0292 27EE247A 		vmul.f32	s14, s14, s9
  99:../../libs/DaisySP/Source/Effects/pitchshifter.h ****                          * (del_size_ * 0.5f);
 784              		.loc 1 99 24 view .LVU237
 785 0296 84ED1A7A 		vstr.32	s14, [r4, #104]
 101:../../libs/DaisySP/Source/Effects/pitchshifter.h ****                 = 0.0002f + (((float)(myrand() % 255) / 255.0f) * 0.001f);
 786              		.loc 1 101 13 is_stmt 1 view .LVU238
 787              	.LBB347:
ARM GAS  C:\Users\skipi\AppData\Local\Temp\cc4fyQdn.s 			page 22


 788              	.LBI340:
  39:../../libs/DaisySP/Source/Effects/pitchshifter.h **** {
 789              		.loc 1 39 17 view .LVU239
 790              	.LBB346:
  41:../../libs/DaisySP/Source/Effects/pitchshifter.h ****     seed                 = hash_xs32(seed);
 791              		.loc 1 41 5 view .LVU240
  42:../../libs/DaisySP/Source/Effects/pitchshifter.h ****     return seed;
 792              		.loc 1 42 5 view .LVU241
 793              	.LVL31:
 794              	.LBB345:
 795              	.LBI342:
  31:../../libs/DaisySP/Source/Effects/pitchshifter.h **** {
 796              		.loc 1 31 24 view .LVU242
 797              	.LBB344:
  33:../../libs/DaisySP/Source/Effects/pitchshifter.h ****     x ^= x >> 17;
 798              		.loc 1 33 5 view .LVU243
  34:../../libs/DaisySP/Source/Effects/pitchshifter.h ****     x ^= x << 5;
 799              		.loc 1 34 5 view .LVU244
  35:../../libs/DaisySP/Source/Effects/pitchshifter.h ****     return x;
 800              		.loc 1 35 5 view .LVU245
  36:../../libs/DaisySP/Source/Effects/pitchshifter.h **** }
 801              		.loc 1 36 5 view .LVU246
  36:../../libs/DaisySP/Source/Effects/pitchshifter.h **** }
 802              		.loc 1 36 5 is_stmt 0 view .LVU247
 803              	.LBE344:
 804              	.LBE345:
  43:../../libs/DaisySP/Source/Effects/pitchshifter.h **** }
 805              		.loc 1 43 5 is_stmt 1 view .LVU248
 806              	.LBE346:
 807              	.LBE347:
 102:../../libs/DaisySP/Source/Effects/pitchshifter.h ****         }
 808              		.loc 1 102 27 is_stmt 0 view .LVU249
 809 029a E5EE065A 		vfma.f32	s11, s10, s12
 102:../../libs/DaisySP/Source/Effects/pitchshifter.h ****         }
 810              		.loc 1 102 17 view .LVU250
 811 029e C4ED205A 		vstr.32	s11, [r4, #128]
 812 02a2 CDE6     		b	.L3
 813              	.L13:
 814              		.align	2
 815              	.L12:
 816 02a4 30000200 		.word	131120
 817 02a8 40000200 		.word	131136
 818 02ac DB0F4940 		.word	1078530011
 819 02b0 00000000 		.word	0
 820 02b4 00000000 		.word	_ZZN7daisysp6myrandEvE4seed
 821 02b8 81808080 		.word	-2139062143
 822 02bc 00007F43 		.word	1132396544
 823 02c0 17B75139 		.word	961656599
 824 02c4 6F12833A 		.word	981668463
 825              		.cfi_endproc
 826              	.LFE4521:
 828              		.section	.text._ZN11AnalogDelayC2Ev,"ax",%progbits
 829              		.align	1
 830              		.p2align 2,,3
 831              		.global	_ZN11AnalogDelayC2Ev
 832              		.syntax unified
 833              		.thumb
ARM GAS  C:\Users\skipi\AppData\Local\Temp\cc4fyQdn.s 			page 23


 834              		.thumb_func
 835              		.fpu fpv5-d16
 837              	_ZN11AnalogDelayC2Ev:
 838              	.LVL32:
 839              	.LFB4841:
 840              		.file 3 "../../Classes/Effects/AnalogDelay/src/AnalogDelay.cpp"
   1:../../Classes/Effects/AnalogDelay/src/AnalogDelay.cpp **** #include "AnalogDelay.h" // Include l'header file della classe AnalogDelay
   2:../../Classes/Effects/AnalogDelay/src/AnalogDelay.cpp **** 
   3:../../Classes/Effects/AnalogDelay/src/AnalogDelay.cpp **** // Variabile globale per il tempo di delay corrente
   4:../../Classes/Effects/AnalogDelay/src/AnalogDelay.cpp **** static float currentDelayTime = 0.0f;
   5:../../Classes/Effects/AnalogDelay/src/AnalogDelay.cpp **** 
   6:../../Classes/Effects/AnalogDelay/src/AnalogDelay.cpp **** // Costruttore: inizializza tutti i parametri dell'effetto delay con valori predefiniti
   7:../../Classes/Effects/AnalogDelay/src/AnalogDelay.cpp **** AnalogDelay::AnalogDelay() : 
 841              		.loc 3 7 1 is_stmt 1 view -0
 842              		.cfi_startproc
 843              		@ args = 0, pretend = 0, frame = 0
 844              		@ frame_needed = 0, uses_anonymous_args = 0
 845              		@ link register save eliminated.
 846              	.LBB348:
   8:../../Classes/Effects/AnalogDelay/src/AnalogDelay.cpp ****     _sampleRate(48000.0f),     // Frequenza di campionamento standard (48kHz)
   9:../../Classes/Effects/AnalogDelay/src/AnalogDelay.cpp ****     _delayTime(0.5f),          // Tempo di delay iniziale (500ms)
  10:../../Classes/Effects/AnalogDelay/src/AnalogDelay.cpp ****     _feedback(0.4f),           // Quantit di feedback iniziale (40%)
  11:../../Classes/Effects/AnalogDelay/src/AnalogDelay.cpp ****     _mix(0.5f),                // Mix tra segnale dry/wet (50%)
  12:../../Classes/Effects/AnalogDelay/src/AnalogDelay.cpp ****     _depth(0.0f),              // Profondit del pitch shifter (50%)
  13:../../Classes/Effects/AnalogDelay/src/AnalogDelay.cpp ****     _smooth_factor(0.00008f)       // Fattore di smoothing iniziale (0)
 847              		.loc 3 13 28 is_stmt 0 view .LVU252
 848 0000 DFF828C0 		ldr	ip, .L15+8
 849 0004 4FF07C52 		mov	r2, #1056964608
 850 0008 0649     		ldr	r1, .L15
 851 000a C0F800C0 		str	ip, [r0]	@ float
 852 000e 4FF0000C 		mov	ip, #0
 853 0012 8160     		str	r1, [r0, #8]	@ float
 854 0014 0449     		ldr	r1, .L15+4
 855 0016 4260     		str	r2, [r0, #4]	@ float
 856 0018 C260     		str	r2, [r0, #12]	@ float
 857 001a C0F810C0 		str	ip, [r0, #16]	@ float
 858 001e 4161     		str	r1, [r0, #20]	@ float
 859              	.LVL33:
 860              	.LBB349:
 861              	.LBI349:
  31:../../libs/DaisySP/Source/Utility/delayline.h ****     ~DelayLine() {}
 862              		.loc 2 31 5 is_stmt 1 view .LVU253
  31:../../libs/DaisySP/Source/Utility/delayline.h ****     ~DelayLine() {}
 863              		.loc 2 31 5 is_stmt 0 view .LVU254
 864              	.LBE349:
 865              	.LBB350:
 866              	.LBI350:
 867              		.file 4 "../../libs/DaisySP/Source/Dynamics/crossfade.h"
   1:../../libs/DaisySP/Source/Dynamics/crossfade.h **** /*
   2:../../libs/DaisySP/Source/Dynamics/crossfade.h **** Copyright (c) 2020 Electrosmith, Corp, Paul Batchelor
   3:../../libs/DaisySP/Source/Dynamics/crossfade.h **** 
   4:../../libs/DaisySP/Source/Dynamics/crossfade.h **** Use of this source code is governed by an MIT-style
   5:../../libs/DaisySP/Source/Dynamics/crossfade.h **** license that can be found in the LICENSE file or at
   6:../../libs/DaisySP/Source/Dynamics/crossfade.h **** https://opensource.org/licenses/MIT.
   7:../../libs/DaisySP/Source/Dynamics/crossfade.h **** */
   8:../../libs/DaisySP/Source/Dynamics/crossfade.h **** 
   9:../../libs/DaisySP/Source/Dynamics/crossfade.h **** #pragma once
ARM GAS  C:\Users\skipi\AppData\Local\Temp\cc4fyQdn.s 			page 24


  10:../../libs/DaisySP/Source/Dynamics/crossfade.h **** #ifndef DSY_CROSSFADE_H
  11:../../libs/DaisySP/Source/Dynamics/crossfade.h **** #define DSY_CROSSFADE_H
  12:../../libs/DaisySP/Source/Dynamics/crossfade.h **** #include <stdint.h>
  13:../../libs/DaisySP/Source/Dynamics/crossfade.h **** #ifdef __cplusplus
  14:../../libs/DaisySP/Source/Dynamics/crossfade.h **** 
  15:../../libs/DaisySP/Source/Dynamics/crossfade.h **** namespace daisysp
  16:../../libs/DaisySP/Source/Dynamics/crossfade.h **** {
  17:../../libs/DaisySP/Source/Dynamics/crossfade.h **** /** Curve applied to the CrossFade
  18:../../libs/DaisySP/Source/Dynamics/crossfade.h **** - LIN = linear
  19:../../libs/DaisySP/Source/Dynamics/crossfade.h **** - CPOW = constant power
  20:../../libs/DaisySP/Source/Dynamics/crossfade.h **** - LOG = logarithmic
  21:../../libs/DaisySP/Source/Dynamics/crossfade.h **** - EXP  exponential
  22:../../libs/DaisySP/Source/Dynamics/crossfade.h **** - LAST = end of enum (used for array indexing)
  23:../../libs/DaisySP/Source/Dynamics/crossfade.h **** */
  24:../../libs/DaisySP/Source/Dynamics/crossfade.h **** enum
  25:../../libs/DaisySP/Source/Dynamics/crossfade.h **** {
  26:../../libs/DaisySP/Source/Dynamics/crossfade.h ****     CROSSFADE_LIN,
  27:../../libs/DaisySP/Source/Dynamics/crossfade.h ****     CROSSFADE_CPOW,
  28:../../libs/DaisySP/Source/Dynamics/crossfade.h ****     CROSSFADE_LOG,
  29:../../libs/DaisySP/Source/Dynamics/crossfade.h ****     CROSSFADE_EXP,
  30:../../libs/DaisySP/Source/Dynamics/crossfade.h ****     CROSSFADE_LAST,
  31:../../libs/DaisySP/Source/Dynamics/crossfade.h **** };
  32:../../libs/DaisySP/Source/Dynamics/crossfade.h **** 
  33:../../libs/DaisySP/Source/Dynamics/crossfade.h **** /** Performs a CrossFade between two signals
  34:../../libs/DaisySP/Source/Dynamics/crossfade.h **** 
  35:../../libs/DaisySP/Source/Dynamics/crossfade.h ****     Original author: Paul Batchelor
  36:../../libs/DaisySP/Source/Dynamics/crossfade.h **** 
  37:../../libs/DaisySP/Source/Dynamics/crossfade.h ****     Ported from Soundpipe by Andrew Ikenberry
  38:../../libs/DaisySP/Source/Dynamics/crossfade.h **** 
  39:../../libs/DaisySP/Source/Dynamics/crossfade.h ****     added curve option for constant power, etc.
  40:../../libs/DaisySP/Source/Dynamics/crossfade.h **** */
  41:../../libs/DaisySP/Source/Dynamics/crossfade.h **** class CrossFade
  42:../../libs/DaisySP/Source/Dynamics/crossfade.h **** {
  43:../../libs/DaisySP/Source/Dynamics/crossfade.h ****   public:
  44:../../libs/DaisySP/Source/Dynamics/crossfade.h ****     CrossFade() {}
 868              		.loc 4 44 5 is_stmt 1 view .LVU255
 869              		.loc 4 44 5 is_stmt 0 view .LVU256
 870              	.LBE350:
 871              	.LBB351:
 872              	.LBI351:
  67:../../libs/DaisySP/Source/Effects/pitchshifter.h ****     ~PitchShifter() {}
 873              		.loc 1 67 5 is_stmt 1 view .LVU257
 874              	.LBE351:
 875              	.LBE348:
  67:../../libs/DaisySP/Source/Effects/pitchshifter.h ****     ~PitchShifter() {}
 876              		.loc 1 67 20 view .LVU258
  67:../../libs/DaisySP/Source/Effects/pitchshifter.h ****     ~PitchShifter() {}
 877              		.loc 1 67 20 view .LVU259
 878              	.LBB353:
 879              	.LBB352:
 880              	.LBI352:
 881              		.file 5 "../../libs/DaisySP/Source/Synthesis/oscillator.h"
   1:../../libs/DaisySP/Source/Synthesis/oscillator.h **** /*
   2:../../libs/DaisySP/Source/Synthesis/oscillator.h **** Copyright (c) 2020 Electrosmith, Corp
   3:../../libs/DaisySP/Source/Synthesis/oscillator.h **** 
   4:../../libs/DaisySP/Source/Synthesis/oscillator.h **** Use of this source code is governed by an MIT-style
   5:../../libs/DaisySP/Source/Synthesis/oscillator.h **** license that can be found in the LICENSE file or at
ARM GAS  C:\Users\skipi\AppData\Local\Temp\cc4fyQdn.s 			page 25


   6:../../libs/DaisySP/Source/Synthesis/oscillator.h **** https://opensource.org/licenses/MIT.
   7:../../libs/DaisySP/Source/Synthesis/oscillator.h **** */
   8:../../libs/DaisySP/Source/Synthesis/oscillator.h **** 
   9:../../libs/DaisySP/Source/Synthesis/oscillator.h **** #pragma once
  10:../../libs/DaisySP/Source/Synthesis/oscillator.h **** #ifndef DSY_OSCILLATOR_H
  11:../../libs/DaisySP/Source/Synthesis/oscillator.h **** #define DSY_OSCILLATOR_H
  12:../../libs/DaisySP/Source/Synthesis/oscillator.h **** #include <stdint.h>
  13:../../libs/DaisySP/Source/Synthesis/oscillator.h **** #include "Utility/dsp.h"
  14:../../libs/DaisySP/Source/Synthesis/oscillator.h **** #ifdef __cplusplus
  15:../../libs/DaisySP/Source/Synthesis/oscillator.h **** 
  16:../../libs/DaisySP/Source/Synthesis/oscillator.h **** namespace daisysp
  17:../../libs/DaisySP/Source/Synthesis/oscillator.h **** {
  18:../../libs/DaisySP/Source/Synthesis/oscillator.h **** /** Synthesis of several waveforms, including polyBLEP bandlimited waveforms.
  19:../../libs/DaisySP/Source/Synthesis/oscillator.h **** */
  20:../../libs/DaisySP/Source/Synthesis/oscillator.h **** class Oscillator
  21:../../libs/DaisySP/Source/Synthesis/oscillator.h **** {
  22:../../libs/DaisySP/Source/Synthesis/oscillator.h ****   public:
  23:../../libs/DaisySP/Source/Synthesis/oscillator.h ****     Oscillator() {}
 882              		.loc 5 23 5 view .LVU260
 883              		.loc 5 23 5 is_stmt 0 view .LVU261
 884              	.LBE352:
 885              	.LBE353:
  14:../../Classes/Effects/AnalogDelay/src/AnalogDelay.cpp **** {}
 886              		.loc 3 14 2 view .LVU262
 887 0020 7047     		bx	lr
 888              	.L16:
 889 0022 00BF     		.align	2
 890              	.L15:
 891 0024 CDCCCC3E 		.word	1053609165
 892 0028 ACC5A738 		.word	950519212
 893 002c 00803B47 		.word	1195081728
 894              		.cfi_endproc
 895              	.LFE4841:
 897              		.global	_ZN11AnalogDelayC1Ev
 898              		.thumb_set _ZN11AnalogDelayC1Ev,_ZN11AnalogDelayC2Ev
 899              		.section	.text._ZN11AnalogDelayD2Ev,"ax",%progbits
 900              		.align	1
 901              		.p2align 2,,3
 902              		.global	_ZN11AnalogDelayD2Ev
 903              		.syntax unified
 904              		.thumb
 905              		.thumb_func
 906              		.fpu fpv5-d16
 908              	_ZN11AnalogDelayD2Ev:
 909              	.LVL34:
 910              	.LFB4844:
  15:../../Classes/Effects/AnalogDelay/src/AnalogDelay.cpp **** 
  16:../../Classes/Effects/AnalogDelay/src/AnalogDelay.cpp **** AnalogDelay::~AnalogDelay() {} // Distruttore (vuoto)
 911              		.loc 3 16 1 is_stmt 1 view -0
 912              		.cfi_startproc
 913              		@ args = 0, pretend = 0, frame = 0
 914              		@ frame_needed = 0, uses_anonymous_args = 0
 915              		@ link register save eliminated.
 916              	.LBB354:
 917              	.LBI354:
  24:../../libs/DaisySP/Source/Synthesis/oscillator.h ****     ~Oscillator() {}
 918              		.loc 5 24 5 view .LVU264
ARM GAS  C:\Users\skipi\AppData\Local\Temp\cc4fyQdn.s 			page 26


 919              		.loc 5 24 5 is_stmt 0 view .LVU265
 920              	.LBE354:
 921              	.LBB355:
 922              	.LBI355:
  68:../../libs/DaisySP/Source/Effects/pitchshifter.h ****     /** Initialize pitch shifter
 923              		.loc 1 68 5 is_stmt 1 view .LVU266
  68:../../libs/DaisySP/Source/Effects/pitchshifter.h ****     /** Initialize pitch shifter
 924              		.loc 1 68 5 is_stmt 0 view .LVU267
 925              	.LBE355:
 926              	.LBB356:
 927              	.LBI356:
  45:../../libs/DaisySP/Source/Dynamics/crossfade.h ****     ~CrossFade() {}
 928              		.loc 4 45 5 is_stmt 1 view .LVU268
 929              		.loc 4 45 5 is_stmt 0 view .LVU269
 930              	.LBE356:
 931              	.LBB357:
 932              	.LBI357:
  32:../../libs/DaisySP/Source/Utility/delayline.h ****     /** initializes the delay line by clearing the values within, and setting delay to 1 sample.
 933              		.loc 2 32 5 is_stmt 1 view .LVU270
  32:../../libs/DaisySP/Source/Utility/delayline.h ****     /** initializes the delay line by clearing the values within, and setting delay to 1 sample.
 934              		.loc 2 32 5 is_stmt 0 view .LVU271
 935              	.LBE357:
 936              		.loc 3 16 30 view .LVU272
 937 0000 7047     		bx	lr
 938              		.cfi_endproc
 939              	.LFE4844:
 941              		.global	_ZN11AnalogDelayD1Ev
 942              		.thumb_set _ZN11AnalogDelayD1Ev,_ZN11AnalogDelayD2Ev
 943 0002 00BF     		.section	.text._ZN11AnalogDelay4InitEf,"ax",%progbits
 944              		.align	1
 945              		.p2align 2,,3
 946              		.global	_ZN11AnalogDelay4InitEf
 947              		.syntax unified
 948              		.thumb
 949              		.thumb_func
 950              		.fpu fpv5-d16
 952              	_ZN11AnalogDelay4InitEf:
 953              	.LVL35:
 954              	.LFB4846:
  17:../../Classes/Effects/AnalogDelay/src/AnalogDelay.cpp **** 
  18:../../Classes/Effects/AnalogDelay/src/AnalogDelay.cpp **** // Inizializza l'effetto con la frequenza di campionamento specificata
  19:../../Classes/Effects/AnalogDelay/src/AnalogDelay.cpp **** void AnalogDelay::Init(float sampleRate) {
 955              		.loc 3 19 42 is_stmt 1 view -0
 956              		.cfi_startproc
 957              		@ args = 0, pretend = 0, frame = 8
 958              		@ frame_needed = 0, uses_anonymous_args = 0
  20:../../Classes/Effects/AnalogDelay/src/AnalogDelay.cpp ****     _sampleRate = sampleRate;    // Imposta la frequenza di campionamento
 959              		.loc 3 20 5 view .LVU274
  19:../../Classes/Effects/AnalogDelay/src/AnalogDelay.cpp ****     _sampleRate = sampleRate;    // Imposta la frequenza di campionamento
 960              		.loc 3 19 42 is_stmt 0 view .LVU275
 961 0000 2DE9F04F 		push	{r4, r5, r6, r7, r8, r9, r10, fp, lr}
 962              		.cfi_def_cfa_offset 36
 963              		.cfi_offset 4, -36
 964              		.cfi_offset 5, -32
 965              		.cfi_offset 6, -28
 966              		.cfi_offset 7, -24
 967              		.cfi_offset 8, -20
ARM GAS  C:\Users\skipi\AppData\Local\Temp\cc4fyQdn.s 			page 27


 968              		.cfi_offset 9, -16
 969              		.cfi_offset 10, -12
 970              		.cfi_offset 11, -8
 971              		.cfi_offset 14, -4
 972 0004 0646     		mov	r6, r0
 973              	.LBB387:
 974              	.LBB388:
 975              	.LBB389:
 976              	.LBB390:
  42:../../libs/DaisySP/Source/Utility/delayline.h ****         }
 977              		.loc 2 42 22 view .LVU276
 978 0006 894A     		ldr	r2, .L31
 979 0008 0021     		movs	r1, #0
 980              	.LBE390:
 981              	.LBE389:
 982              	.LBE388:
 983              	.LBE387:
 984              		.loc 3 20 17 view .LVU277
 985 000a 2430     		adds	r0, r0, #36
 986              	.LVL36:
 987              	.LBB403:
 988              	.LBB404:
 989              	.LBB405:
  46:../../libs/DaisySP/Source/Dynamics/crossfade.h ****     /** Initializes CrossFade module
  47:../../libs/DaisySP/Source/Dynamics/crossfade.h ****         Defaults
  48:../../libs/DaisySP/Source/Dynamics/crossfade.h ****         - current position = .5
  49:../../libs/DaisySP/Source/Dynamics/crossfade.h ****         - curve = linear
  50:../../libs/DaisySP/Source/Dynamics/crossfade.h ****     */
  51:../../libs/DaisySP/Source/Dynamics/crossfade.h ****     inline void Init(int curve)
  52:../../libs/DaisySP/Source/Dynamics/crossfade.h ****     {
  53:../../libs/DaisySP/Source/Dynamics/crossfade.h ****         pos_   = 0.5f;
 990              		.loc 4 53 16 view .LVU278
 991 000c 06F53838 		add	r8, r6, #188416
 992 0010 874D     		ldr	r5, .L31+4
 993              	.LBE405:
 994              	.LBE404:
 995              	.LBE403:
 996              	.LBB414:
 997              	.LBB398:
 998              	.LBB393:
  44:../../libs/DaisySP/Source/Utility/delayline.h ****         delay_     = 1;
 999              		.loc 2 44 20 view .LVU279
 1000 0012 0024     		movs	r4, #0
 1001              	.LBE393:
 1002              	.LBE398:
 1003              	.LBE414:
 1004              	.LBB415:
 1005              	.LBB416:
  73:../../libs/DaisySP/Source/Effects/pitchshifter.h ****         sr_           = sr;
 1006              		.loc 1 73 23 view .LVU280
 1007 0014 06F59C27 		add	r7, r6, #319488
 1008 0018 3544     		add	r5, r5, r6
 1009              	.LBE416:
 1010              	.LBE415:
  19:../../Classes/Effects/AnalogDelay/src/AnalogDelay.cpp ****     _sampleRate = sampleRate;    // Imposta la frequenza di campionamento
 1011              		.loc 3 19 42 view .LVU281
 1012 001a 2DED028B 		vpush.64	{d8}
ARM GAS  C:\Users\skipi\AppData\Local\Temp\cc4fyQdn.s 			page 28


 1013              		.cfi_def_cfa_offset 44
 1014              		.cfi_offset 80, -44
 1015              		.cfi_offset 81, -40
 1016              		.loc 3 20 17 view .LVU282
 1017 001e 86ED000A 		vstr.32	s0, [r6]
  21:../../Classes/Effects/AnalogDelay/src/AnalogDelay.cpp ****     _delayLine.Init();           // Inizializza la linea di ritardo
 1018              		.loc 3 21 5 is_stmt 1 view .LVU283
 1019              	.LVL37:
 1020              	.LBB495:
 1021              	.LBI387:
  35:../../libs/DaisySP/Source/Utility/delayline.h ****     /** clears buffer, sets write ptr to 0, and delay to 1 sample.
 1022              		.loc 2 35 10 view .LVU284
 1023              	.LBB399:
 1024              	.LBI388:
  38:../../libs/DaisySP/Source/Utility/delayline.h ****     {
 1025              		.loc 2 38 10 view .LVU285
 1026              	.LBB394:
 1027              	.LBB391:
  40:../../libs/DaisySP/Source/Utility/delayline.h ****         {
 1028              		.loc 2 40 29 view .LVU286
 1029              	.LBE391:
 1030              	.LBE394:
 1031              	.LBE399:
 1032              	.LBE495:
  19:../../Classes/Effects/AnalogDelay/src/AnalogDelay.cpp ****     _sampleRate = sampleRate;    // Imposta la frequenza di campionamento
 1033              		.loc 3 19 42 is_stmt 0 view .LVU287
 1034 0022 83B0     		sub	sp, sp, #12
 1035              		.cfi_def_cfa_offset 56
  19:../../Classes/Effects/AnalogDelay/src/AnalogDelay.cpp ****     _sampleRate = sampleRate;    // Imposta la frequenza di campionamento
 1036              		.loc 3 19 42 view .LVU288
 1037 0024 B0EE408A 		vmov.f32	s16, s0
 1038              	.LBB496:
 1039              	.LBB400:
 1040              	.LBB395:
 1041              	.LBB392:
  42:../../libs/DaisySP/Source/Utility/delayline.h ****         }
 1042              		.loc 2 42 22 view .LVU289
 1043 0028 FFF7FEFF 		bl	memset
 1044              	.LVL38:
  42:../../libs/DaisySP/Source/Utility/delayline.h ****         }
 1045              		.loc 2 42 22 view .LVU290
 1046              	.LBE392:
  45:../../libs/DaisySP/Source/Utility/delayline.h ****     }
 1047              		.loc 2 45 20 view .LVU291
 1048 002c 0121     		movs	r1, #1
 1049              	.LBE395:
 1050              	.LBE400:
 1051              	.LBE496:
 1052              	.LBB497:
 1053              	.LBB487:
  74:../../libs/DaisySP/Source/Effects/pitchshifter.h ****         mod_freq_     = 5.0f;
 1054              		.loc 1 74 23 view .LVU292
 1055 002e 814B     		ldr	r3, .L31+8
 1056              	.LBE487:
 1057              	.LBE497:
 1058              	.LBB498:
 1059              	.LBB410:
ARM GAS  C:\Users\skipi\AppData\Local\Temp\cc4fyQdn.s 			page 29


 1060              	.LBB406:
 1061              		.loc 4 53 16 view .LVU293
 1062 0030 4FF07C50 		mov	r0, #1056964608
 1063              	.LBE406:
 1064              	.LBE410:
 1065              	.LBE498:
 1066              	.LBB499:
 1067              	.LBB488:
  75:../../libs/DaisySP/Source/Effects/pitchshifter.h ****         SetSemitones();
 1068              		.loc 1 75 23 view .LVU294
 1069 0034 804A     		ldr	r2, .L31+12
 1070              	.LBE488:
 1071              	.LBE499:
 1072              	.LBB500:
 1073              	.LBB401:
 1074              	.LBB396:
  45:../../libs/DaisySP/Source/Utility/delayline.h ****     }
 1075              		.loc 2 45 20 view .LVU295
 1076 0036 3162     		str	r1, [r6, #32]
 1077              	.LVL39:
  45:../../libs/DaisySP/Source/Utility/delayline.h ****     }
 1078              		.loc 2 45 20 view .LVU296
 1079              	.LBE396:
 1080              	.LBE401:
 1081              	.LBE500:
  22:../../Classes/Effects/AnalogDelay/src/AnalogDelay.cpp ****     _crossfade.Init();           // Inizializza il modulo di crossfade
 1082              		.loc 3 22 5 is_stmt 1 view .LVU297
 1083              	.LBB501:
 1084              	.LBI403:
  54:../../libs/DaisySP/Source/Dynamics/crossfade.h ****         curve_ = curve < CROSSFADE_LAST ? curve : CROSSFADE_LIN;
  55:../../libs/DaisySP/Source/Dynamics/crossfade.h ****     }
  56:../../libs/DaisySP/Source/Dynamics/crossfade.h **** 
  57:../../libs/DaisySP/Source/Dynamics/crossfade.h ****     /** Initialize with default linear curve 
  58:../../libs/DaisySP/Source/Dynamics/crossfade.h ****     */
  59:../../libs/DaisySP/Source/Dynamics/crossfade.h ****     inline void Init() { Init(CROSSFADE_LIN); }
 1085              		.loc 4 59 17 view .LVU298
 1086              	.LBE501:
 1087              		.loc 4 59 26 view .LVU299
 1088              	.LBB502:
 1089              	.LBB411:
 1090              	.LBI404:
  51:../../libs/DaisySP/Source/Dynamics/crossfade.h ****     {
 1091              		.loc 4 51 17 view .LVU300
 1092              	.LBB407:
  53:../../libs/DaisySP/Source/Dynamics/crossfade.h ****         curve_ = curve < CROSSFADE_LAST ? curve : CROSSFADE_LIN;
 1093              		.loc 4 53 9 view .LVU301
 1094              	.LBE407:
 1095              	.LBE411:
 1096              	.LBE502:
 1097              	.LBB503:
 1098              	.LBB489:
  74:../../libs/DaisySP/Source/Effects/pitchshifter.h ****         mod_freq_     = 5.0f;
 1099              		.loc 1 74 23 is_stmt 0 view .LVU302
 1100 0038 4344     		add	r3, r3, r8
 1101              	.LBE489:
 1102              	.LBE503:
 1103              	.LBB504:
ARM GAS  C:\Users\skipi\AppData\Local\Temp\cc4fyQdn.s 			page 30


 1104              	.LBB412:
 1105              	.LBB408:
  53:../../libs/DaisySP/Source/Dynamics/crossfade.h ****         curve_ = curve < CROSSFADE_LAST ? curve : CROSSFADE_LIN;
 1106              		.loc 4 53 16 view .LVU303
 1107 003a 08F62461 		addw	r1, r8, #3620
 1108              	.LBE408:
 1109              	.LBE412:
 1110              	.LBE504:
 1111              	.LBB505:
 1112              	.LBB402:
 1113              	.LBB397:
  44:../../libs/DaisySP/Source/Utility/delayline.h ****         delay_     = 1;
 1114              		.loc 2 44 20 view .LVU304
 1115 003e F461     		str	r4, [r6, #28]
 1116              	.LBE397:
 1117              	.LBE402:
 1118              	.LBE505:
 1119              	.LBB506:
 1120              	.LBB413:
 1121              	.LBB409:
  53:../../libs/DaisySP/Source/Dynamics/crossfade.h ****         curve_ = curve < CROSSFADE_LAST ? curve : CROSSFADE_LIN;
 1122              		.loc 4 53 16 view .LVU305
 1123 0040 0860     		str	r0, [r1]	@ float
  54:../../libs/DaisySP/Source/Dynamics/crossfade.h ****     }
 1124              		.loc 4 54 9 is_stmt 1 view .LVU306
  54:../../libs/DaisySP/Source/Dynamics/crossfade.h ****     }
 1125              		.loc 4 54 16 is_stmt 0 view .LVU307
 1126 0042 88F8284E 		strb	r4, [r8, #3624]
 1127              	.LVL40:
  54:../../libs/DaisySP/Source/Dynamics/crossfade.h ****     }
 1128              		.loc 4 54 16 view .LVU308
 1129              	.LBE409:
 1130              	.LBE413:
 1131              	.LBE506:
  23:../../Classes/Effects/AnalogDelay/src/AnalogDelay.cpp ****     _ps.Init(sampleRate);           // Inizializza il pitch shifter
 1132              		.loc 3 23 5 is_stmt 1 view .LVU309
 1133              	.LBB507:
 1134              	.LBI415:
  71:../../libs/DaisySP/Source/Effects/pitchshifter.h ****     {
 1135              		.loc 1 71 10 view .LVU310
 1136              	.LBB490:
  73:../../libs/DaisySP/Source/Effects/pitchshifter.h ****         sr_           = sr;
 1137              		.loc 1 73 9 view .LVU311
  73:../../libs/DaisySP/Source/Effects/pitchshifter.h ****         sr_           = sr;
 1138              		.loc 1 73 23 is_stmt 0 view .LVU312
 1139 0046 87F8504E 		strb	r4, [r7, #3664]
  74:../../libs/DaisySP/Source/Effects/pitchshifter.h ****         mod_freq_     = 5.0f;
 1140              		.loc 1 74 9 is_stmt 1 view .LVU313
  75:../../libs/DaisySP/Source/Effects/pitchshifter.h ****         SetSemitones();
 1141              		.loc 1 75 23 is_stmt 0 view .LVU314
 1142 004a DA61     		str	r2, [r3, #28]	@ float
  74:../../libs/DaisySP/Source/Effects/pitchshifter.h ****         mod_freq_     = 5.0f;
 1143              		.loc 1 74 23 view .LVU315
 1144 004c 83ED0A8A 		vstr.32	s16, [r3, #40]
  75:../../libs/DaisySP/Source/Effects/pitchshifter.h ****         SetSemitones();
 1145              		.loc 1 75 9 is_stmt 1 view .LVU316
  76:../../libs/DaisySP/Source/Effects/pitchshifter.h ****         for(uint8_t i = 0; i < 2; i++)
ARM GAS  C:\Users\skipi\AppData\Local\Temp\cc4fyQdn.s 			page 31


 1146              		.loc 1 76 9 view .LVU317
 1147              	.LVL41:
 1148              	.LBB417:
 1149              	.LBI417:
 144:../../libs/DaisySP/Source/Effects/pitchshifter.h **** 
 145:../../libs/DaisySP/Source/Effects/pitchshifter.h ****     /** sets transposition in semitones
 146:../../libs/DaisySP/Source/Effects/pitchshifter.h ****     */
 147:../../libs/DaisySP/Source/Effects/pitchshifter.h ****     void SetTransposition(const float &transpose)
 148:../../libs/DaisySP/Source/Effects/pitchshifter.h ****     {
 149:../../libs/DaisySP/Source/Effects/pitchshifter.h ****         float   ratio;
 150:../../libs/DaisySP/Source/Effects/pitchshifter.h ****         uint8_t idx;
 151:../../libs/DaisySP/Source/Effects/pitchshifter.h ****         if(transpose_ != transpose || force_recalc_)
 152:../../libs/DaisySP/Source/Effects/pitchshifter.h ****         {
 153:../../libs/DaisySP/Source/Effects/pitchshifter.h ****             transpose_ = transpose;
 154:../../libs/DaisySP/Source/Effects/pitchshifter.h ****             idx        = (uint8_t)fabsf(transpose);
 155:../../libs/DaisySP/Source/Effects/pitchshifter.h ****             ratio      = semitone_ratios_[idx % 12];
 156:../../libs/DaisySP/Source/Effects/pitchshifter.h ****             ratio *= (uint8_t)(fabsf(transpose) / 12) + 1;
 157:../../libs/DaisySP/Source/Effects/pitchshifter.h ****             if(transpose > 0.0f)
 158:../../libs/DaisySP/Source/Effects/pitchshifter.h ****             {
 159:../../libs/DaisySP/Source/Effects/pitchshifter.h ****                 shift_up_ = true;
 160:../../libs/DaisySP/Source/Effects/pitchshifter.h ****             }
 161:../../libs/DaisySP/Source/Effects/pitchshifter.h ****             else
 162:../../libs/DaisySP/Source/Effects/pitchshifter.h ****             {
 163:../../libs/DaisySP/Source/Effects/pitchshifter.h ****                 shift_up_ = false;
 164:../../libs/DaisySP/Source/Effects/pitchshifter.h ****             }
 165:../../libs/DaisySP/Source/Effects/pitchshifter.h ****             mod_freq_ = ((ratio - 1.0f) * sr_) / del_size_;
 166:../../libs/DaisySP/Source/Effects/pitchshifter.h ****             if(mod_freq_ < 0.0f)
 167:../../libs/DaisySP/Source/Effects/pitchshifter.h ****             {
 168:../../libs/DaisySP/Source/Effects/pitchshifter.h ****                 mod_freq_ = 0.0f;
 169:../../libs/DaisySP/Source/Effects/pitchshifter.h ****             }
 170:../../libs/DaisySP/Source/Effects/pitchshifter.h ****             phs_[0].SetFreq(mod_freq_);
 171:../../libs/DaisySP/Source/Effects/pitchshifter.h ****             phs_[1].SetFreq(mod_freq_);
 172:../../libs/DaisySP/Source/Effects/pitchshifter.h ****             if(force_recalc_)
 173:../../libs/DaisySP/Source/Effects/pitchshifter.h ****             {
 174:../../libs/DaisySP/Source/Effects/pitchshifter.h ****                 force_recalc_ = false;
 175:../../libs/DaisySP/Source/Effects/pitchshifter.h ****             }
 176:../../libs/DaisySP/Source/Effects/pitchshifter.h ****         }
 177:../../libs/DaisySP/Source/Effects/pitchshifter.h ****     }
 178:../../libs/DaisySP/Source/Effects/pitchshifter.h **** 
 179:../../libs/DaisySP/Source/Effects/pitchshifter.h ****     /** sets delay size changing the timbre of the pitchshifting 
 180:../../libs/DaisySP/Source/Effects/pitchshifter.h ****     */
 181:../../libs/DaisySP/Source/Effects/pitchshifter.h ****     void SetDelSize(uint32_t size)
 182:../../libs/DaisySP/Source/Effects/pitchshifter.h ****     {
 183:../../libs/DaisySP/Source/Effects/pitchshifter.h ****         del_size_     = size < SHIFT_BUFFER_SIZE ? size : SHIFT_BUFFER_SIZE;
 184:../../libs/DaisySP/Source/Effects/pitchshifter.h ****         force_recalc_ = true;
 185:../../libs/DaisySP/Source/Effects/pitchshifter.h ****         SetTransposition(transpose_);
 186:../../libs/DaisySP/Source/Effects/pitchshifter.h ****     }
 187:../../libs/DaisySP/Source/Effects/pitchshifter.h **** 
 188:../../libs/DaisySP/Source/Effects/pitchshifter.h ****     /** sets an amount of internal random modulation, kind of sounds like tape-flutter
 189:../../libs/DaisySP/Source/Effects/pitchshifter.h ****     */
 190:../../libs/DaisySP/Source/Effects/pitchshifter.h ****     inline void SetFun(float f) { fun_ = f; }
 191:../../libs/DaisySP/Source/Effects/pitchshifter.h **** 
 192:../../libs/DaisySP/Source/Effects/pitchshifter.h ****   private:
 193:../../libs/DaisySP/Source/Effects/pitchshifter.h ****     inline void SetSemitones()
 1150              		.loc 1 193 17 view .LVU318
 1151              	.LBB418:
 194:../../libs/DaisySP/Source/Effects/pitchshifter.h ****     {
ARM GAS  C:\Users\skipi\AppData\Local\Temp\cc4fyQdn.s 			page 32


 195:../../libs/DaisySP/Source/Effects/pitchshifter.h ****         for(size_t i = 0; i < 12; i++)
 1152              		.loc 1 195 29 view .LVU319
 1153              	.L19:
 196:../../libs/DaisySP/Source/Effects/pitchshifter.h ****         {
 197:../../libs/DaisySP/Source/Effects/pitchshifter.h ****             semitone_ratios_[i] = powf(2.0f, (float)i / 12);
 1154              		.loc 1 197 13 view .LVU320
 1155              		.loc 1 197 46 is_stmt 0 view .LVU321
 1156 0050 07EE904A 		vmov	s15, r4	@ int
 195:../../libs/DaisySP/Source/Effects/pitchshifter.h ****         {
 1157              		.loc 1 195 9 view .LVU322
 1158 0054 0134     		adds	r4, r4, #1
 1159              	.LVL42:
 1160              		.loc 1 197 39 view .LVU323
 1161 0056 B0EE000A 		vmov.f32	s0, #2.0e+0
 1162              		.loc 1 197 46 view .LVU324
 1163 005a F8EEE70A 		vcvt.f32.s32	s1, s15
 1164              		.loc 1 197 39 view .LVU325
 1165 005e F2EE087A 		vmov.f32	s15, #1.2e+1
 1166              	.LVL43:
 1167              		.loc 1 197 39 view .LVU326
 1168 0062 C0EEA70A 		vdiv.f32	s1, s1, s15
 1169 0066 FFF7FEFF 		bl	powf
 1170              	.LVL44:
 195:../../libs/DaisySP/Source/Effects/pitchshifter.h ****         {
 1171              		.loc 1 195 29 view .LVU327
 1172 006a 0C2C     		cmp	r4, #12
 1173              		.loc 1 197 33 view .LVU328
 1174 006c A5EC010A 		vstmia.32	r5!, {s0}
 195:../../libs/DaisySP/Source/Effects/pitchshifter.h ****         {
 1175              		.loc 1 195 9 is_stmt 1 view .LVU329
 1176              	.LVL45:
 195:../../libs/DaisySP/Source/Effects/pitchshifter.h ****         {
 1177              		.loc 1 195 29 view .LVU330
 1178 0070 EED1     		bne	.L19
 1179              	.LVL46:
 195:../../libs/DaisySP/Source/Effects/pitchshifter.h ****         {
 1180              		.loc 1 195 29 is_stmt 0 view .LVU331
 1181              	.LBE418:
 1182              	.LBE417:
 1183              	.LBB419:
  77:../../libs/DaisySP/Source/Effects/pitchshifter.h ****         {
 1184              		.loc 1 77 30 is_stmt 1 view .LVU332
  79:../../libs/DaisySP/Source/Effects/pitchshifter.h ****             d_[i].Init();
 1185              		.loc 1 79 13 view .LVU333
  79:../../libs/DaisySP/Source/Effects/pitchshifter.h ****             d_[i].Init();
 1186              		.loc 1 79 22 is_stmt 0 view .LVU334
 1187 0072 08F62C63 		addw	r3, r8, #3628
  81:../../libs/DaisySP/Source/Effects/pitchshifter.h ****         }
 1188              		.loc 1 81 25 view .LVU335
 1189 0076 DFF8F4A1 		ldr	r10, .L31+64
  79:../../libs/DaisySP/Source/Effects/pitchshifter.h ****             d_[i].Init();
 1190              		.loc 1 79 22 view .LVU336
 1191 007a 0025     		movs	r5, #0
 1192              	.LBB420:
 1193              	.LBB421:
 1194              	.LBB422:
  44:../../libs/DaisySP/Source/Utility/delayline.h ****         delay_     = 1;
ARM GAS  C:\Users\skipi\AppData\Local\Temp\cc4fyQdn.s 			page 33


 1195              		.loc 2 44 20 view .LVU337
 1196 007c 4FF00009 		mov	r9, #0
 1197              	.LBE422:
 1198              	.LBE421:
 1199              	.LBE420:
  79:../../libs/DaisySP/Source/Effects/pitchshifter.h ****             d_[i].Init();
 1200              		.loc 1 79 22 view .LVU338
 1201 0080 03F50034 		add	r4, r3, #131072
 1202              	.LBB451:
 1203              	.LBB441:
 1204              	.LBB431:
 1205              	.LBB423:
  42:../../libs/DaisySP/Source/Utility/delayline.h ****         }
 1206              		.loc 2 42 22 view .LVU339
 1207 0084 6D48     		ldr	r0, .L31+16
 1208              	.LBE423:
  45:../../libs/DaisySP/Source/Utility/delayline.h ****     }
 1209              		.loc 2 45 20 view .LVU340
 1210 0086 4FF0010B 		mov	fp, #1
 1211              	.LBE431:
 1212              	.LBE441:
 1213              	.LBE451:
  81:../../libs/DaisySP/Source/Effects/pitchshifter.h ****         }
 1214              		.loc 1 81 25 view .LVU341
 1215 008a B244     		add	r10, r10, r6
 1216              	.LBB452:
 1217              	.LBB442:
 1218              	.LBB432:
 1219              	.LBB424:
  42:../../libs/DaisySP/Source/Utility/delayline.h ****         }
 1220              		.loc 2 42 22 view .LVU342
 1221 008c 4FF48032 		mov	r2, #65536
 1222 0090 4946     		mov	r1, r9
 1223              	.LBE424:
 1224              	.LBE432:
 1225              	.LBE442:
 1226              	.LBE452:
  79:../../libs/DaisySP/Source/Effects/pitchshifter.h ****             d_[i].Init();
 1227              		.loc 1 79 22 view .LVU343
 1228 0092 2565     		str	r5, [r4, #80]	@ float
  80:../../libs/DaisySP/Source/Effects/pitchshifter.h ****             phs_[i].Init(sr, 50, i == 0 ? 0 : PI_F);
 1229              		.loc 1 80 13 is_stmt 1 view .LVU344
 1230              	.LVL47:
 1231              	.LBB453:
 1232              	.LBI420:
  35:../../libs/DaisySP/Source/Utility/delayline.h ****     /** clears buffer, sets write ptr to 0, and delay to 1 sample.
 1233              		.loc 2 35 10 view .LVU345
 1234              	.LBB443:
 1235              	.LBI421:
  38:../../libs/DaisySP/Source/Utility/delayline.h ****     {
 1236              		.loc 2 38 10 view .LVU346
 1237              	.LBB433:
 1238              	.LBB425:
  40:../../libs/DaisySP/Source/Utility/delayline.h ****         {
 1239              		.loc 2 40 29 view .LVU347
  42:../../libs/DaisySP/Source/Utility/delayline.h ****         }
 1240              		.loc 2 42 22 is_stmt 0 view .LVU348
ARM GAS  C:\Users\skipi\AppData\Local\Temp\cc4fyQdn.s 			page 34


 1241 0094 3044     		add	r0, r0, r6
 1242              	.LBE425:
 1243              	.LBE433:
 1244              	.LBE443:
 1245              	.LBE453:
  79:../../libs/DaisySP/Source/Effects/pitchshifter.h ****             d_[i].Init();
 1246              		.loc 1 79 22 view .LVU349
 1247 0096 0093     		str	r3, [sp]
 1248              	.LBB454:
 1249              	.LBB444:
 1250              	.LBB434:
 1251              	.LBB426:
  42:../../libs/DaisySP/Source/Utility/delayline.h ****         }
 1252              		.loc 2 42 22 view .LVU350
 1253 0098 FFF7FEFF 		bl	memset
 1254              	.LVL48:
  42:../../libs/DaisySP/Source/Utility/delayline.h ****         }
 1255              		.loc 2 42 22 view .LVU351
 1256              	.LBE426:
 1257              	.LBE434:
 1258              	.LBE444:
 1259              	.LBE454:
 1260              	.LBB455:
 1261              	.LBB456:
 1262              		.file 6 "../../libs/DaisySP/Source/Control/phasor.h"
   1:../../libs/DaisySP/Source/Control/phasor.h **** /*
   2:../../libs/DaisySP/Source/Control/phasor.h **** Copyright (c) 2020 Electrosmith, Corp
   3:../../libs/DaisySP/Source/Control/phasor.h **** 
   4:../../libs/DaisySP/Source/Control/phasor.h **** Use of this source code is governed by an MIT-style
   5:../../libs/DaisySP/Source/Control/phasor.h **** license that can be found in the LICENSE file or at
   6:../../libs/DaisySP/Source/Control/phasor.h **** https://opensource.org/licenses/MIT.
   7:../../libs/DaisySP/Source/Control/phasor.h **** */
   8:../../libs/DaisySP/Source/Control/phasor.h **** 
   9:../../libs/DaisySP/Source/Control/phasor.h **** #pragma once
  10:../../libs/DaisySP/Source/Control/phasor.h **** #ifndef DSY_PHASOR_H
  11:../../libs/DaisySP/Source/Control/phasor.h **** #define DSY_PHASOR_H
  12:../../libs/DaisySP/Source/Control/phasor.h **** #ifdef __cplusplus
  13:../../libs/DaisySP/Source/Control/phasor.h **** 
  14:../../libs/DaisySP/Source/Control/phasor.h **** namespace daisysp
  15:../../libs/DaisySP/Source/Control/phasor.h **** {
  16:../../libs/DaisySP/Source/Control/phasor.h **** /** Generates a normalized signal moving from 0-1 at the specified frequency.
  17:../../libs/DaisySP/Source/Control/phasor.h **** 
  18:../../libs/DaisySP/Source/Control/phasor.h **** \todo Selecting which channels should be initialized/included in the sequence conversion.
  19:../../libs/DaisySP/Source/Control/phasor.h **** \todo Setup a similar start function for an external mux, but that seems outside the scope of this 
  20:../../libs/DaisySP/Source/Control/phasor.h **** 
  21:../../libs/DaisySP/Source/Control/phasor.h **** */
  22:../../libs/DaisySP/Source/Control/phasor.h **** class Phasor
  23:../../libs/DaisySP/Source/Control/phasor.h **** {
  24:../../libs/DaisySP/Source/Control/phasor.h ****   public:
  25:../../libs/DaisySP/Source/Control/phasor.h ****     Phasor() {}
  26:../../libs/DaisySP/Source/Control/phasor.h ****     ~Phasor() {}
  27:../../libs/DaisySP/Source/Control/phasor.h ****     /** Initializes the Phasor module
  28:../../libs/DaisySP/Source/Control/phasor.h ****     sample rate, and freq are in Hz
  29:../../libs/DaisySP/Source/Control/phasor.h ****     initial phase is in radians
  30:../../libs/DaisySP/Source/Control/phasor.h ****     Additional Init functions have defaults when arg is not specified:
  31:../../libs/DaisySP/Source/Control/phasor.h ****     - phs = 0.0f
  32:../../libs/DaisySP/Source/Control/phasor.h ****     - freq = 1.0f
ARM GAS  C:\Users\skipi\AppData\Local\Temp\cc4fyQdn.s 			page 35


  33:../../libs/DaisySP/Source/Control/phasor.h ****     */
  34:../../libs/DaisySP/Source/Control/phasor.h ****     inline void Init(float sample_rate, float freq, float initial_phase)
  35:../../libs/DaisySP/Source/Control/phasor.h ****     {
  36:../../libs/DaisySP/Source/Control/phasor.h ****         sample_rate_ = sample_rate;
  37:../../libs/DaisySP/Source/Control/phasor.h ****         phs_         = initial_phase;
  38:../../libs/DaisySP/Source/Control/phasor.h ****         SetFreq(freq);
 1263              		.loc 6 38 16 view .LVU352
 1264 009c 9FED680A 		vldr.32	s0, .L31+20
 1265 00a0 5046     		mov	r0, r10
 1266              	.LBE456:
 1267              	.LBE455:
 1268              	.LBB460:
 1269              	.LBB445:
 1270              	.LBB435:
  44:../../libs/DaisySP/Source/Utility/delayline.h ****         delay_     = 1;
 1271              		.loc 2 44 20 view .LVU353
 1272 00a2 C8F8309E 		str	r9, [r8, #3632]
  45:../../libs/DaisySP/Source/Utility/delayline.h ****     }
 1273              		.loc 2 45 20 view .LVU354
 1274 00a6 C8F834BE 		str	fp, [r8, #3636]
 1275              	.LVL49:
  45:../../libs/DaisySP/Source/Utility/delayline.h ****     }
 1276              		.loc 2 45 20 view .LVU355
 1277              	.LBE435:
 1278              	.LBE445:
 1279              	.LBE460:
  81:../../libs/DaisySP/Source/Effects/pitchshifter.h ****         }
 1280              		.loc 1 81 13 is_stmt 1 view .LVU356
 1281              	.LBB461:
 1282              	.LBI455:
  34:../../libs/DaisySP/Source/Control/phasor.h ****     {
 1283              		.loc 6 34 17 view .LVU357
 1284              	.LBB457:
  36:../../libs/DaisySP/Source/Control/phasor.h ****         phs_         = initial_phase;
 1285              		.loc 6 36 9 view .LVU358
  37:../../libs/DaisySP/Source/Control/phasor.h ****         SetFreq(freq);
 1286              		.loc 6 37 22 is_stmt 0 view .LVU359
 1287 00aa E563     		str	r5, [r4, #60]	@ float
  36:../../libs/DaisySP/Source/Control/phasor.h ****         phs_         = initial_phase;
 1288              		.loc 6 36 22 view .LVU360
 1289 00ac 84ED0D8A 		vstr.32	s16, [r4, #52]
  37:../../libs/DaisySP/Source/Control/phasor.h ****         SetFreq(freq);
 1290              		.loc 6 37 9 is_stmt 1 view .LVU361
 1291              		.loc 6 38 9 view .LVU362
 1292              		.loc 6 38 16 is_stmt 0 view .LVU363
 1293 00b0 FFF7FEFF 		bl	_ZN7daisysp6Phasor7SetFreqEf
 1294              	.LVL50:
 1295              		.loc 6 38 16 view .LVU364
 1296              	.LBE457:
 1297              	.LBE461:
  77:../../libs/DaisySP/Source/Effects/pitchshifter.h ****         {
 1298              		.loc 1 77 9 is_stmt 1 view .LVU365
  77:../../libs/DaisySP/Source/Effects/pitchshifter.h ****         {
 1299              		.loc 1 77 30 view .LVU366
  79:../../libs/DaisySP/Source/Effects/pitchshifter.h ****             d_[i].Init();
 1300              		.loc 1 79 13 view .LVU367
  81:../../libs/DaisySP/Source/Effects/pitchshifter.h ****         }
ARM GAS  C:\Users\skipi\AppData\Local\Temp\cc4fyQdn.s 			page 36


 1301              		.loc 1 81 25 is_stmt 0 view .LVU368
 1302 00b4 634A     		ldr	r2, .L31+24
  79:../../libs/DaisySP/Source/Effects/pitchshifter.h ****             d_[i].Init();
 1303              		.loc 1 79 22 view .LVU369
 1304 00b6 6565     		str	r5, [r4, #84]	@ float
  80:../../libs/DaisySP/Source/Effects/pitchshifter.h ****             phs_[i].Init(sr, 50, i == 0 ? 0 : PI_F);
 1305              		.loc 1 80 13 is_stmt 1 view .LVU370
 1306              	.LVL51:
 1307              	.LBB462:
  35:../../libs/DaisySP/Source/Utility/delayline.h ****     /** clears buffer, sets write ptr to 0, and delay to 1 sample.
 1308              		.loc 2 35 10 view .LVU371
 1309              	.LBB446:
  38:../../libs/DaisySP/Source/Utility/delayline.h ****     {
 1310              		.loc 2 38 10 view .LVU372
 1311              	.LBB436:
 1312              	.LBB427:
  40:../../libs/DaisySP/Source/Utility/delayline.h ****         {
 1313              		.loc 2 40 29 view .LVU373
  42:../../libs/DaisySP/Source/Utility/delayline.h ****         }
 1314              		.loc 2 42 22 is_stmt 0 view .LVU374
 1315 00b8 4946     		mov	r1, r9
 1316              	.LBE427:
 1317              	.LBE436:
 1318              	.LBE446:
 1319              	.LBE462:
  81:../../libs/DaisySP/Source/Effects/pitchshifter.h ****         }
 1320              		.loc 1 81 25 view .LVU375
 1321 00ba 3244     		add	r2, r2, r6
 1322              	.LBB463:
 1323              	.LBB447:
 1324              	.LBB437:
 1325              	.LBB428:
  42:../../libs/DaisySP/Source/Utility/delayline.h ****         }
 1326              		.loc 2 42 22 view .LVU376
 1327 00bc 6248     		ldr	r0, .L31+28
 1328              	.LBE428:
 1329              	.LBE437:
 1330              	.LBE447:
 1331              	.LBE463:
  81:../../libs/DaisySP/Source/Effects/pitchshifter.h ****         }
 1332              		.loc 1 81 25 view .LVU377
 1333 00be 634D     		ldr	r5, .L31+32
 1334              	.LBB464:
 1335              	.LBB448:
 1336              	.LBB438:
 1337              	.LBB429:
  42:../../libs/DaisySP/Source/Utility/delayline.h ****         }
 1338              		.loc 2 42 22 view .LVU378
 1339 00c0 3044     		add	r0, r0, r6
 1340              	.LBE429:
 1341              	.LBE438:
 1342              	.LBE448:
 1343              	.LBE464:
  81:../../libs/DaisySP/Source/Effects/pitchshifter.h ****         }
 1344              		.loc 1 81 25 view .LVU379
 1345 00c2 1544     		add	r5, r5, r2
 1346              	.LBB465:
ARM GAS  C:\Users\skipi\AppData\Local\Temp\cc4fyQdn.s 			page 37


 1347              	.LBB449:
 1348              	.LBB439:
 1349              	.LBB430:
  42:../../libs/DaisySP/Source/Utility/delayline.h ****         }
 1350              		.loc 2 42 22 view .LVU380
 1351 00c4 4FF48032 		mov	r2, #65536
 1352 00c8 FFF7FEFF 		bl	memset
 1353              	.LVL52:
  42:../../libs/DaisySP/Source/Utility/delayline.h ****         }
 1354              		.loc 2 42 22 view .LVU381
 1355              	.LBE430:
  44:../../libs/DaisySP/Source/Utility/delayline.h ****         delay_     = 1;
 1356              		.loc 2 44 20 view .LVU382
 1357 00cc 06F57832 		add	r2, r6, #253952
 1358              	.LBE439:
 1359              	.LBE449:
 1360              	.LBE465:
 1361              	.LBB466:
 1362              	.LBB458:
 1363              		.loc 6 38 16 view .LVU383
 1364 00d0 2846     		mov	r0, r5
 1365 00d2 9FED5B0A 		vldr.32	s0, .L31+20
 1366              	.LBE458:
 1367              	.LBE466:
 1368              	.LBB467:
 1369              	.LBB450:
 1370              	.LBB440:
  44:../../libs/DaisySP/Source/Utility/delayline.h ****         delay_     = 1;
 1371              		.loc 2 44 20 view .LVU384
 1372 00d6 C2F83C9E 		str	r9, [r2, #3644]
  45:../../libs/DaisySP/Source/Utility/delayline.h ****     }
 1373              		.loc 2 45 20 view .LVU385
 1374 00da C2F840BE 		str	fp, [r2, #3648]
 1375              	.LVL53:
  45:../../libs/DaisySP/Source/Utility/delayline.h ****     }
 1376              		.loc 2 45 20 view .LVU386
 1377              	.LBE440:
 1378              	.LBE450:
 1379              	.LBE467:
  81:../../libs/DaisySP/Source/Effects/pitchshifter.h ****         }
 1380              		.loc 1 81 13 is_stmt 1 view .LVU387
 1381              	.LBB468:
  34:../../libs/DaisySP/Source/Control/phasor.h ****     {
 1382              		.loc 6 34 17 view .LVU388
 1383              	.LBB459:
  36:../../libs/DaisySP/Source/Control/phasor.h ****         phs_         = initial_phase;
 1384              		.loc 6 36 9 view .LVU389
  37:../../libs/DaisySP/Source/Control/phasor.h ****         SetFreq(freq);
 1385              		.loc 6 37 22 is_stmt 0 view .LVU390
 1386 00de 5C4A     		ldr	r2, .L31+36
  36:../../libs/DaisySP/Source/Control/phasor.h ****         phs_         = initial_phase;
 1387              		.loc 6 36 22 view .LVU391
 1388 00e0 84ED118A 		vstr.32	s16, [r4, #68]
  37:../../libs/DaisySP/Source/Control/phasor.h ****         SetFreq(freq);
 1389              		.loc 6 37 9 is_stmt 1 view .LVU392
  37:../../libs/DaisySP/Source/Control/phasor.h ****         SetFreq(freq);
 1390              		.loc 6 37 22 is_stmt 0 view .LVU393
ARM GAS  C:\Users\skipi\AppData\Local\Temp\cc4fyQdn.s 			page 38


 1391 00e4 E264     		str	r2, [r4, #76]	@ float
 1392              		.loc 6 38 9 is_stmt 1 view .LVU394
 1393              		.loc 6 38 16 is_stmt 0 view .LVU395
 1394 00e6 FFF7FEFF 		bl	_ZN7daisysp6Phasor7SetFreqEf
 1395              	.LVL54:
 1396              		.loc 6 38 16 view .LVU396
 1397              	.LBE459:
 1398              	.LBE468:
  77:../../libs/DaisySP/Source/Effects/pitchshifter.h ****         {
 1399              		.loc 1 77 9 is_stmt 1 view .LVU397
  77:../../libs/DaisySP/Source/Effects/pitchshifter.h ****         {
 1400              		.loc 1 77 30 view .LVU398
 1401              	.LBE419:
  83:../../libs/DaisySP/Source/Effects/pitchshifter.h ****         del_size_ = SHIFT_BUFFER_SIZE;
 1402              		.loc 1 83 9 view .LVU399
 1403 00ea 07F68C62 		addw	r2, r7, #3724
  84:../../libs/DaisySP/Source/Effects/pitchshifter.h ****         SetDelSize(del_size_);
 1404              		.loc 1 84 19 is_stmt 0 view .LVU400
 1405 00ee 4FF48040 		mov	r0, #16384
 1406              	.LBB469:
 1407              	.LBB470:
 1408              	.LBB471:
 1409              	.LBB472:
 155:../../libs/DaisySP/Source/Effects/pitchshifter.h ****             ratio *= (uint8_t)(fabsf(transpose) / 12) + 1;
 1410              		.loc 1 155 24 view .LVU401
 1411 00f2 48F22201 		movw	r1, #32802
 1412 00f6 D2ED007A 		vldr.32	s15, [r2]
 155:../../libs/DaisySP/Source/Effects/pitchshifter.h ****             ratio *= (uint8_t)(fabsf(transpose) / 12) + 1;
 1413              		.loc 1 155 47 view .LVU402
 1414 00fa 564A     		ldr	r2, .L31+40
 154:../../libs/DaisySP/Source/Effects/pitchshifter.h ****             ratio      = semitone_ratios_[idx % 12];
 1415              		.loc 1 154 40 view .LVU403
 1416 00fc B0EEE77A 		vabs.f32	s14, s15
 1417              	.LBE472:
 1418              	.LBE471:
 1419              	.LBE470:
 1420              	.LBE469:
  84:../../libs/DaisySP/Source/Effects/pitchshifter.h ****         SetDelSize(del_size_);
 1421              		.loc 1 84 19 view .LVU404
 1422 0100 C7F84C0E 		str	r0, [r7, #3660]
 1423              	.LBB484:
 1424              	.LBB481:
 1425              	.LBB477:
 1426              	.LBB473:
 157:../../libs/DaisySP/Source/Effects/pitchshifter.h ****             {
 1427              		.loc 1 157 13 view .LVU405
 1428 0104 F5EEC07A 		vcmpe.f32	s15, #0
 1429              	.LBE473:
 1430              	.LBE477:
 1431              	.LBE481:
 1432              	.LBE484:
  83:../../libs/DaisySP/Source/Effects/pitchshifter.h ****         del_size_ = SHIFT_BUFFER_SIZE;
 1433              		.loc 1 83 19 view .LVU406
 1434 0108 87F858BE 		strb	fp, [r7, #3672]
  84:../../libs/DaisySP/Source/Effects/pitchshifter.h ****         SetDelSize(del_size_);
 1435              		.loc 1 84 9 is_stmt 1 view .LVU407
  85:../../libs/DaisySP/Source/Effects/pitchshifter.h ****         fun_ = 0.0f;
ARM GAS  C:\Users\skipi\AppData\Local\Temp\cc4fyQdn.s 			page 39


 1436              		.loc 1 85 9 view .LVU408
 1437              	.LVL55:
 1438              	.LBB485:
 1439              	.LBI469:
 181:../../libs/DaisySP/Source/Effects/pitchshifter.h ****     {
 1440              		.loc 1 181 10 view .LVU409
 1441              	.LBB482:
 183:../../libs/DaisySP/Source/Effects/pitchshifter.h ****         force_recalc_ = true;
 1442              		.loc 1 183 9 view .LVU410
 184:../../libs/DaisySP/Source/Effects/pitchshifter.h ****         SetTransposition(transpose_);
 1443              		.loc 1 184 9 view .LVU411
 185:../../libs/DaisySP/Source/Effects/pitchshifter.h ****     }
 1444              		.loc 1 185 9 view .LVU412
 1445              	.LBB478:
 1446              	.LBI471:
 147:../../libs/DaisySP/Source/Effects/pitchshifter.h ****     {
 1447              		.loc 1 147 10 view .LVU413
 1448              	.LBB474:
 149:../../libs/DaisySP/Source/Effects/pitchshifter.h ****         uint8_t idx;
 1449              		.loc 1 149 9 view .LVU414
 150:../../libs/DaisySP/Source/Effects/pitchshifter.h ****         if(transpose_ != transpose || force_recalc_)
 1450              		.loc 1 150 9 view .LVU415
 151:../../libs/DaisySP/Source/Effects/pitchshifter.h ****         {
 1451              		.loc 1 151 9 view .LVU416
 153:../../libs/DaisySP/Source/Effects/pitchshifter.h ****             idx        = (uint8_t)fabsf(transpose);
 1452              		.loc 1 153 13 view .LVU417
 1453              	.LBE474:
 1454              	.LBE478:
 184:../../libs/DaisySP/Source/Effects/pitchshifter.h ****         SetTransposition(transpose_);
 1455              		.loc 1 184 23 is_stmt 0 view .LVU418
 1456 010c 87F850BE 		strb	fp, [r7, #3664]
 1457              	.LBB479:
 1458              	.LBB475:
 154:../../libs/DaisySP/Source/Effects/pitchshifter.h ****             ratio      = semitone_ratios_[idx % 12];
 1459              		.loc 1 154 24 view .LVU419
 1460 0110 FCEEC76A 		vcvt.u32.f32	s13, s14
 153:../../libs/DaisySP/Source/Effects/pitchshifter.h ****             idx        = (uint8_t)fabsf(transpose);
 1461              		.loc 1 153 24 view .LVU420
 1462 0114 C4ED187A 		vstr.32	s15, [r4, #96]
 154:../../libs/DaisySP/Source/Effects/pitchshifter.h ****             ratio      = semitone_ratios_[idx % 12];
 1463              		.loc 1 154 13 is_stmt 1 view .LVU421
 1464              	.LVL56:
 155:../../libs/DaisySP/Source/Effects/pitchshifter.h ****             ratio *= (uint8_t)(fabsf(transpose) / 12) + 1;
 1465              		.loc 1 155 13 view .LVU422
 157:../../libs/DaisySP/Source/Effects/pitchshifter.h ****             {
 1466              		.loc 1 157 13 is_stmt 0 view .LVU423
 1467 0118 F1EE10FA 		vmrs	APSR_nzcv, FPSCR
 154:../../libs/DaisySP/Source/Effects/pitchshifter.h ****             ratio      = semitone_ratios_[idx % 12];
 1468              		.loc 1 154 24 view .LVU424
 1469 011c CDED016A 		vstr.32	s13, [sp, #4]	@ int
 155:../../libs/DaisySP/Source/Effects/pitchshifter.h ****             ratio *= (uint8_t)(fabsf(transpose) / 12) + 1;
 1470              		.loc 1 155 47 view .LVU425
 1471 0120 9DF80430 		ldrb	r3, [sp, #4]	@ zero_extendqisi2
 1472 0124 A2FB0302 		umull	r0, r2, r2, r3
 1473 0128 4FEAD202 		lsr	r2, r2, #3
 1474 012c 02EB4202 		add	r2, r2, r2, lsl #1
 1475 0130 A3EB8203 		sub	r3, r3, r2, lsl #2
ARM GAS  C:\Users\skipi\AppData\Local\Temp\cc4fyQdn.s 			page 40


 155:../../libs/DaisySP/Source/Effects/pitchshifter.h ****             ratio *= (uint8_t)(fabsf(transpose) / 12) + 1;
 1476              		.loc 1 155 24 view .LVU426
 1477 0134 009A     		ldr	r2, [sp]
 1478 0136 51FA83F3 		uxtab	r3, r1, r3
 1479 013a 02EB8303 		add	r3, r2, r3, lsl #2
 1480 013e D3ED006A 		vldr.32	s13, [r3]
 1481              	.LVL57:
 156:../../libs/DaisySP/Source/Effects/pitchshifter.h ****             if(transpose > 0.0f)
 1482              		.loc 1 156 13 is_stmt 1 view .LVU427
 157:../../libs/DaisySP/Source/Effects/pitchshifter.h ****             {
 1483              		.loc 1 157 13 view .LVU428
 1484 0142 01DC     		bgt	.L20
 163:../../libs/DaisySP/Source/Effects/pitchshifter.h ****             }
 1485              		.loc 1 163 17 view .LVU429
 163:../../libs/DaisySP/Source/Effects/pitchshifter.h ****             }
 1486              		.loc 1 163 27 is_stmt 0 view .LVU430
 1487 0144 87F8589E 		strb	r9, [r7, #3672]
 1488              	.L20:
 165:../../libs/DaisySP/Source/Effects/pitchshifter.h ****             if(mod_freq_ < 0.0f)
 1489              		.loc 1 165 13 is_stmt 1 view .LVU431
 156:../../libs/DaisySP/Source/Effects/pitchshifter.h ****             if(transpose > 0.0f)
 1490              		.loc 1 156 49 is_stmt 0 view .LVU432
 1491 0148 F2EE085A 		vmov.f32	s11, #1.2e+1
 165:../../libs/DaisySP/Source/Effects/pitchshifter.h ****             if(mod_freq_ < 0.0f)
 1492              		.loc 1 165 43 view .LVU433
 1493 014c 394A     		ldr	r2, .L31+8
 165:../../libs/DaisySP/Source/Effects/pitchshifter.h ****             if(mod_freq_ < 0.0f)
 1494              		.loc 1 165 33 view .LVU434
 1495 014e BFEE000A 		vmov.f32	s0, #-1.0e+0
 165:../../libs/DaisySP/Source/Effects/pitchshifter.h ****             if(mod_freq_ < 0.0f)
 1496              		.loc 1 165 48 view .LVU435
 1497 0152 9FED416A 		vldr.32	s12, .L31+44
 165:../../libs/DaisySP/Source/Effects/pitchshifter.h ****             if(mod_freq_ < 0.0f)
 1498              		.loc 1 165 43 view .LVU436
 1499 0156 4244     		add	r2, r2, r8
 166:../../libs/DaisySP/Source/Effects/pitchshifter.h ****             {
 1500              		.loc 1 166 13 view .LVU437
 1501 0158 9FED405A 		vldr.32	s10, .L31+48
 156:../../libs/DaisySP/Source/Effects/pitchshifter.h ****             if(transpose > 0.0f)
 1502              		.loc 1 156 49 view .LVU438
 1503 015c C7EE257A 		vdiv.f32	s15, s14, s11
 165:../../libs/DaisySP/Source/Effects/pitchshifter.h ****             if(mod_freq_ < 0.0f)
 1504              		.loc 1 165 41 view .LVU439
 1505 0160 92ED0A7A 		vldr.32	s14, [r2, #40]
 1506              	.LVL58:
 156:../../libs/DaisySP/Source/Effects/pitchshifter.h ****             if(transpose > 0.0f)
 1507              		.loc 1 156 22 view .LVU440
 1508 0164 FCEEE77A 		vcvt.u32.f32	s15, s15
 1509 0168 CDED007A 		vstr.32	s15, [sp]	@ int
 1510 016c 9DF80030 		ldrb	r3, [sp]	@ zero_extendqisi2
 156:../../libs/DaisySP/Source/Effects/pitchshifter.h ****             if(transpose > 0.0f)
 1511              		.loc 1 156 55 view .LVU441
 1512 0170 0133     		adds	r3, r3, #1
 156:../../libs/DaisySP/Source/Effects/pitchshifter.h ****             if(transpose > 0.0f)
 1513              		.loc 1 156 19 view .LVU442
 1514 0172 07EE903A 		vmov	s15, r3	@ int
 1515 0176 F8EEE77A 		vcvt.f32.s32	s15, s15
ARM GAS  C:\Users\skipi\AppData\Local\Temp\cc4fyQdn.s 			page 41


 165:../../libs/DaisySP/Source/Effects/pitchshifter.h ****             if(mod_freq_ < 0.0f)
 1516              		.loc 1 165 33 view .LVU443
 1517 017a A6EEA70A 		vfma.f32	s0, s13, s15
 165:../../libs/DaisySP/Source/Effects/pitchshifter.h ****             if(mod_freq_ < 0.0f)
 1518              		.loc 1 165 41 view .LVU444
 1519 017e 20EE070A 		vmul.f32	s0, s0, s14
 165:../../libs/DaisySP/Source/Effects/pitchshifter.h ****             if(mod_freq_ < 0.0f)
 1520              		.loc 1 165 48 view .LVU445
 1521 0182 20EE060A 		vmul.f32	s0, s0, s12
 166:../../libs/DaisySP/Source/Effects/pitchshifter.h ****             {
 1522              		.loc 1 166 13 is_stmt 1 view .LVU446
 1523 0186 B4EEC50A 		vcmpe.f32	s0, s10
 1524 018a F1EE10FA 		vmrs	APSR_nzcv, FPSCR
 1525 018e 48D4     		bmi	.L23
 165:../../libs/DaisySP/Source/Effects/pitchshifter.h ****             if(mod_freq_ < 0.0f)
 1526              		.loc 1 165 23 is_stmt 0 view .LVU447
 1527 0190 82ED070A 		vstr.32	s0, [r2, #28]
 1528              	.L24:
 170:../../libs/DaisySP/Source/Effects/pitchshifter.h ****             phs_[1].SetFreq(mod_freq_);
 1529              		.loc 1 170 13 is_stmt 1 view .LVU448
 170:../../libs/DaisySP/Source/Effects/pitchshifter.h ****             phs_[1].SetFreq(mod_freq_);
 1530              		.loc 1 170 28 is_stmt 0 view .LVU449
 1531 0194 5046     		mov	r0, r10
 1532 0196 FFF7FEFF 		bl	_ZN7daisysp6Phasor7SetFreqEf
 1533              	.LVL59:
 171:../../libs/DaisySP/Source/Effects/pitchshifter.h ****             if(force_recalc_)
 1534              		.loc 1 171 13 is_stmt 1 view .LVU450
 171:../../libs/DaisySP/Source/Effects/pitchshifter.h ****             if(force_recalc_)
 1535              		.loc 1 171 28 is_stmt 0 view .LVU451
 1536 019a 264B     		ldr	r3, .L31+8
 1537 019c 2846     		mov	r0, r5
 1538 019e 4344     		add	r3, r3, r8
 1539 01a0 93ED070A 		vldr.32	s0, [r3, #28]
 1540 01a4 FFF7FEFF 		bl	_ZN7daisysp6Phasor7SetFreqEf
 1541              	.LVL60:
 172:../../libs/DaisySP/Source/Effects/pitchshifter.h ****             {
 1542              		.loc 1 172 13 is_stmt 1 view .LVU452
 1543 01a8 97F8503E 		ldrb	r3, [r7, #3664]	@ zero_extendqisi2
 1544 01ac 13B1     		cbz	r3, .L25
 174:../../libs/DaisySP/Source/Effects/pitchshifter.h ****             }
 1545              		.loc 1 174 17 view .LVU453
 174:../../libs/DaisySP/Source/Effects/pitchshifter.h ****             }
 1546              		.loc 1 174 31 is_stmt 0 view .LVU454
 1547 01ae 0023     		movs	r3, #0
 1548 01b0 87F8503E 		strb	r3, [r7, #3664]
 1549              	.L25:
 1550              	.LVL61:
 174:../../libs/DaisySP/Source/Effects/pitchshifter.h ****             }
 1551              		.loc 1 174 31 view .LVU455
 1552              	.LBE475:
 1553              	.LBE479:
 1554              	.LBE482:
 1555              	.LBE485:
  86:../../libs/DaisySP/Source/Effects/pitchshifter.h ****     }
 1556              		.loc 1 86 9 is_stmt 1 view .LVU456
 1557              	.LBE490:
 1558              	.LBE507:
ARM GAS  C:\Users\skipi\AppData\Local\Temp\cc4fyQdn.s 			page 42


 1559              	.LBB508:
 1560              	.LBB509:
  25:../../libs/DaisySP/Source/Synthesis/oscillator.h ****     /** Choices for output waveforms, POLYBLEP are appropriately labeled. Others are naive forms.
  26:../../libs/DaisySP/Source/Synthesis/oscillator.h ****     */
  27:../../libs/DaisySP/Source/Synthesis/oscillator.h ****     enum
  28:../../libs/DaisySP/Source/Synthesis/oscillator.h ****     {
  29:../../libs/DaisySP/Source/Synthesis/oscillator.h ****         WAVE_SIN,
  30:../../libs/DaisySP/Source/Synthesis/oscillator.h ****         WAVE_TRI,
  31:../../libs/DaisySP/Source/Synthesis/oscillator.h ****         WAVE_SAW,
  32:../../libs/DaisySP/Source/Synthesis/oscillator.h ****         WAVE_RAMP,
  33:../../libs/DaisySP/Source/Synthesis/oscillator.h ****         WAVE_SQUARE,
  34:../../libs/DaisySP/Source/Synthesis/oscillator.h ****         WAVE_POLYBLEP_TRI,
  35:../../libs/DaisySP/Source/Synthesis/oscillator.h ****         WAVE_POLYBLEP_SAW,
  36:../../libs/DaisySP/Source/Synthesis/oscillator.h ****         WAVE_POLYBLEP_SQUARE,
  37:../../libs/DaisySP/Source/Synthesis/oscillator.h ****         WAVE_LAST,
  38:../../libs/DaisySP/Source/Synthesis/oscillator.h ****     };
  39:../../libs/DaisySP/Source/Synthesis/oscillator.h **** 
  40:../../libs/DaisySP/Source/Synthesis/oscillator.h **** 
  41:../../libs/DaisySP/Source/Synthesis/oscillator.h ****     /** Initializes the Oscillator
  42:../../libs/DaisySP/Source/Synthesis/oscillator.h **** 
  43:../../libs/DaisySP/Source/Synthesis/oscillator.h ****         \param sample_rate - sample rate of the audio engine being run, and the frequency that the 
  44:../../libs/DaisySP/Source/Synthesis/oscillator.h **** 
  45:../../libs/DaisySP/Source/Synthesis/oscillator.h ****         Defaults:
  46:../../libs/DaisySP/Source/Synthesis/oscillator.h ****         - freq_ = 100 Hz
  47:../../libs/DaisySP/Source/Synthesis/oscillator.h ****         - amp_ = 0.5
  48:../../libs/DaisySP/Source/Synthesis/oscillator.h ****         - waveform_ = sine wave.
  49:../../libs/DaisySP/Source/Synthesis/oscillator.h ****     */
  50:../../libs/DaisySP/Source/Synthesis/oscillator.h ****     void Init(float sample_rate)
  51:../../libs/DaisySP/Source/Synthesis/oscillator.h ****     {
  52:../../libs/DaisySP/Source/Synthesis/oscillator.h ****         sr_        = sample_rate;
  53:../../libs/DaisySP/Source/Synthesis/oscillator.h ****         sr_recip_  = 1.0f / sample_rate;
 1561              		.loc 5 53 27 is_stmt 0 view .LVU457
 1562 01b4 B7EE007A 		vmov.f32	s14, #1.0e+0
 1563              	.LBE509:
 1564              	.LBE508:
 1565              	.LBB515:
 1566              	.LBB491:
  86:../../libs/DaisySP/Source/Effects/pitchshifter.h ****     }
 1567              		.loc 1 86 14 view .LVU458
 1568 01b8 1E4B     		ldr	r3, .L31+8
 1569 01ba 0022     		movs	r2, #0
 1570              	.LBE491:
 1571              	.LBE515:
  24:../../Classes/Effects/AnalogDelay/src/AnalogDelay.cpp ****     _lfo.Init(sampleRate);       // Inizializza l'LFO
 1572              		.loc 3 24 14 view .LVU459
 1573 01bc 284D     		ldr	r5, .L31+52
 1574              	.LBB516:
 1575              	.LBB492:
  86:../../libs/DaisySP/Source/Effects/pitchshifter.h ****     }
 1576              		.loc 1 86 14 view .LVU460
 1577 01be 4344     		add	r3, r3, r8
 1578              	.LBE492:
 1579              	.LBE516:
 1580              	.LBB517:
 1581              	.LBB510:
  52:../../libs/DaisySP/Source/Synthesis/oscillator.h ****         sr_recip_  = 1.0f / sample_rate;
 1582              		.loc 5 52 20 view .LVU461
ARM GAS  C:\Users\skipi\AppData\Local\Temp\cc4fyQdn.s 			page 43


 1583 01c0 07F6E464 		addw	r4, r7, #3812
 1584              		.loc 5 53 27 view .LVU462
 1585 01c4 C7EE087A 		vdiv.f32	s15, s14, s16
 1586              	.LBE510:
 1587              	.LBE517:
 1588              		.loc 3 24 14 view .LVU463
 1589 01c8 3544     		add	r5, r5, r6
 1590              	.LBB518:
 1591              	.LBB493:
  86:../../libs/DaisySP/Source/Effects/pitchshifter.h ****     }
 1592              		.loc 1 86 14 view .LVU464
 1593 01ca 5A66     		str	r2, [r3, #100]	@ float
 1594              	.LVL62:
  86:../../libs/DaisySP/Source/Effects/pitchshifter.h ****     }
 1595              		.loc 1 86 14 view .LVU465
 1596              	.LBE493:
 1597              	.LBE518:
 1598              		.loc 3 24 5 is_stmt 1 view .LVU466
 1599              	.LBB519:
 1600              	.LBI508:
  50:../../libs/DaisySP/Source/Synthesis/oscillator.h ****     {
 1601              		.loc 5 50 10 view .LVU467
 1602              	.LBB511:
  52:../../libs/DaisySP/Source/Synthesis/oscillator.h ****         sr_recip_  = 1.0f / sample_rate;
 1603              		.loc 5 52 9 view .LVU468
  54:../../libs/DaisySP/Source/Synthesis/oscillator.h ****         freq_      = 100.0f;
  55:../../libs/DaisySP/Source/Synthesis/oscillator.h ****         amp_       = 0.5f;
 1604              		.loc 5 55 20 is_stmt 0 view .LVU469
 1605 01cc 4FF07C53 		mov	r3, #1056964608
  54:../../libs/DaisySP/Source/Synthesis/oscillator.h ****         freq_      = 100.0f;
 1606              		.loc 5 54 20 view .LVU470
 1607 01d0 9FED240A 		vldr.32	s0, .L31+56
  56:../../libs/DaisySP/Source/Synthesis/oscillator.h ****         pw_        = 0.5f;
  57:../../libs/DaisySP/Source/Synthesis/oscillator.h ****         phase_     = 0.0f;
  58:../../libs/DaisySP/Source/Synthesis/oscillator.h ****         phase_inc_ = CalcPhaseInc(freq_);
 1608              		.loc 5 58 34 view .LVU471
 1609 01d4 2846     		mov	r0, r5
  55:../../libs/DaisySP/Source/Synthesis/oscillator.h ****         pw_        = 0.5f;
 1610              		.loc 5 55 20 view .LVU472
 1611 01d6 6360     		str	r3, [r4, #4]	@ float
  59:../../libs/DaisySP/Source/Synthesis/oscillator.h ****         waveform_  = WAVE_SIN;
 1612              		.loc 5 59 20 view .LVU473
 1613 01d8 0026     		movs	r6, #0
 1614              	.LVL63:
  56:../../libs/DaisySP/Source/Synthesis/oscillator.h ****         pw_        = 0.5f;
 1615              		.loc 5 56 20 view .LVU474
 1616 01da E360     		str	r3, [r4, #12]	@ float
  57:../../libs/DaisySP/Source/Synthesis/oscillator.h ****         phase_inc_ = CalcPhaseInc(freq_);
 1617              		.loc 5 57 20 view .LVU475
 1618 01dc A261     		str	r2, [r4, #24]	@ float
  52:../../libs/DaisySP/Source/Synthesis/oscillator.h ****         sr_recip_  = 1.0f / sample_rate;
 1619              		.loc 5 52 20 view .LVU476
 1620 01de 84ED048A 		vstr.32	s16, [r4, #16]
  53:../../libs/DaisySP/Source/Synthesis/oscillator.h ****         freq_      = 100.0f;
 1621              		.loc 5 53 9 is_stmt 1 view .LVU477
  54:../../libs/DaisySP/Source/Synthesis/oscillator.h ****         amp_       = 0.5f;
 1622              		.loc 5 54 20 is_stmt 0 view .LVU478
ARM GAS  C:\Users\skipi\AppData\Local\Temp\cc4fyQdn.s 			page 44


 1623 01e2 84ED020A 		vstr.32	s0, [r4, #8]
  53:../../libs/DaisySP/Source/Synthesis/oscillator.h ****         freq_      = 100.0f;
 1624              		.loc 5 53 20 view .LVU479
 1625 01e6 C4ED057A 		vstr.32	s15, [r4, #20]
  54:../../libs/DaisySP/Source/Synthesis/oscillator.h ****         amp_       = 0.5f;
 1626              		.loc 5 54 9 is_stmt 1 view .LVU480
  55:../../libs/DaisySP/Source/Synthesis/oscillator.h ****         pw_        = 0.5f;
 1627              		.loc 5 55 9 view .LVU481
  56:../../libs/DaisySP/Source/Synthesis/oscillator.h ****         phase_     = 0.0f;
 1628              		.loc 5 56 9 view .LVU482
  57:../../libs/DaisySP/Source/Synthesis/oscillator.h ****         phase_inc_ = CalcPhaseInc(freq_);
 1629              		.loc 5 57 9 view .LVU483
  58:../../libs/DaisySP/Source/Synthesis/oscillator.h ****         waveform_  = WAVE_SIN;
 1630              		.loc 5 58 9 view .LVU484
  58:../../libs/DaisySP/Source/Synthesis/oscillator.h ****         waveform_  = WAVE_SIN;
 1631              		.loc 5 58 34 is_stmt 0 view .LVU485
 1632 01ea FFF7FEFF 		bl	_ZN7daisysp10Oscillator12CalcPhaseIncEf
 1633              	.LVL64:
 1634              	.LBE511:
 1635              	.LBE519:
 1636              	.LBB520:
 1637              	.LBB521:
  60:../../libs/DaisySP/Source/Synthesis/oscillator.h ****         eoc_       = true;
  61:../../libs/DaisySP/Source/Synthesis/oscillator.h ****         eor_       = true;
  62:../../libs/DaisySP/Source/Synthesis/oscillator.h ****     }
  63:../../libs/DaisySP/Source/Synthesis/oscillator.h **** 
  64:../../libs/DaisySP/Source/Synthesis/oscillator.h **** 
  65:../../libs/DaisySP/Source/Synthesis/oscillator.h ****     /** Changes the frequency of the Oscillator, and recalculates phase increment.
  66:../../libs/DaisySP/Source/Synthesis/oscillator.h ****     */
  67:../../libs/DaisySP/Source/Synthesis/oscillator.h ****     inline void SetFreq(const float f)
  68:../../libs/DaisySP/Source/Synthesis/oscillator.h ****     {
  69:../../libs/DaisySP/Source/Synthesis/oscillator.h ****         freq_      = f;
 1638              		.loc 5 69 20 view .LVU486
 1639 01ee DFED1E7A 		vldr.32	s15, .L31+60
 1640              	.LBE521:
 1641              	.LBE520:
 1642              	.LBB525:
 1643              	.LBB512:
  61:../../libs/DaisySP/Source/Synthesis/oscillator.h ****     }
 1644              		.loc 5 61 20 view .LVU487
 1645 01f2 40F20113 		movw	r3, #257
 1646              	.LBE512:
 1647              	.LBE525:
 1648              	.LBB526:
 1649              	.LBB522:
  70:../../libs/DaisySP/Source/Synthesis/oscillator.h ****         phase_inc_ = CalcPhaseInc(f);
 1650              		.loc 5 70 34 view .LVU488
 1651 01f6 2846     		mov	r0, r5
 1652              	.LBE522:
 1653              	.LBE526:
 1654              	.LBB527:
 1655              	.LBB513:
  58:../../libs/DaisySP/Source/Synthesis/oscillator.h ****         waveform_  = WAVE_SIN;
 1656              		.loc 5 58 20 view .LVU489
 1657 01f8 84ED070A 		vstr.32	s0, [r4, #28]
  59:../../libs/DaisySP/Source/Synthesis/oscillator.h ****         eoc_       = true;
 1658              		.loc 5 59 9 is_stmt 1 view .LVU490
ARM GAS  C:\Users\skipi\AppData\Local\Temp\cc4fyQdn.s 			page 45


 1659              	.LBE513:
 1660              	.LBE527:
 1661              	.LBB528:
 1662              	.LBB523:
 1663              		.loc 5 70 34 is_stmt 0 view .LVU491
 1664 01fc B0EE670A 		vmov.f32	s0, s15
 1665              	.LBE523:
 1666              	.LBE528:
 1667              	.LBB529:
 1668              	.LBB514:
  59:../../libs/DaisySP/Source/Synthesis/oscillator.h ****         eoc_       = true;
 1669              		.loc 5 59 20 view .LVU492
 1670 0200 87F8E46E 		strb	r6, [r7, #3812]
  60:../../libs/DaisySP/Source/Synthesis/oscillator.h ****         eor_       = true;
 1671              		.loc 5 60 9 is_stmt 1 view .LVU493
  61:../../libs/DaisySP/Source/Synthesis/oscillator.h ****     }
 1672              		.loc 5 61 9 view .LVU494
  61:../../libs/DaisySP/Source/Synthesis/oscillator.h ****     }
 1673              		.loc 5 61 20 is_stmt 0 view .LVU495
 1674 0204 A7F80C3F 		strh	r3, [r7, #3852]	@ movhi
 1675              	.LVL65:
  61:../../libs/DaisySP/Source/Synthesis/oscillator.h ****     }
 1676              		.loc 5 61 20 view .LVU496
 1677              	.LBE514:
 1678              	.LBE529:
  25:../../Classes/Effects/AnalogDelay/src/AnalogDelay.cpp ****     _lfo.SetFreq(0.2f);       // Imposta la frequenza dell'LFO a 0.5 Hz
 1679              		.loc 3 25 5 is_stmt 1 view .LVU497
 1680              	.LBB530:
 1681              	.LBI520:
  67:../../libs/DaisySP/Source/Synthesis/oscillator.h ****     {
 1682              		.loc 5 67 17 view .LVU498
 1683              	.LBB524:
  69:../../libs/DaisySP/Source/Synthesis/oscillator.h ****         phase_inc_ = CalcPhaseInc(f);
 1684              		.loc 5 69 9 view .LVU499
  69:../../libs/DaisySP/Source/Synthesis/oscillator.h ****         phase_inc_ = CalcPhaseInc(f);
 1685              		.loc 5 69 20 is_stmt 0 view .LVU500
 1686 0208 C4ED027A 		vstr.32	s15, [r4, #8]
 1687              		.loc 5 70 9 is_stmt 1 view .LVU501
 1688              		.loc 5 70 34 is_stmt 0 view .LVU502
 1689 020c FFF7FEFF 		bl	_ZN7daisysp10Oscillator12CalcPhaseIncEf
 1690              	.LVL66:
 1691              		.loc 5 70 20 view .LVU503
 1692 0210 84ED070A 		vstr.32	s0, [r4, #28]
 1693              	.LVL67:
 1694              		.loc 5 70 20 view .LVU504
 1695              	.LBE524:
 1696              	.LBE530:
  26:../../Classes/Effects/AnalogDelay/src/AnalogDelay.cpp ****     _lfo.SetWaveform(Oscillator::WAVE_SIN); // Imposta l'LFO come onda sinusoidale
 1697              		.loc 3 26 5 is_stmt 1 view .LVU505
 1698              	.LBB531:
 1699              	.LBI531:
  71:../../libs/DaisySP/Source/Synthesis/oscillator.h ****     }
  72:../../libs/DaisySP/Source/Synthesis/oscillator.h **** 
  73:../../libs/DaisySP/Source/Synthesis/oscillator.h **** 
  74:../../libs/DaisySP/Source/Synthesis/oscillator.h ****     /** Sets the amplitude of the waveform.
  75:../../libs/DaisySP/Source/Synthesis/oscillator.h ****     */
  76:../../libs/DaisySP/Source/Synthesis/oscillator.h ****     inline void SetAmp(const float a) { amp_ = a; }
ARM GAS  C:\Users\skipi\AppData\Local\Temp\cc4fyQdn.s 			page 46


  77:../../libs/DaisySP/Source/Synthesis/oscillator.h ****     /** Sets the waveform to be synthesized by the Process() function.
  78:../../libs/DaisySP/Source/Synthesis/oscillator.h ****     */
  79:../../libs/DaisySP/Source/Synthesis/oscillator.h ****     inline void SetWaveform(const uint8_t wf)
 1700              		.loc 5 79 17 view .LVU506
 1701              	.LBB532:
  80:../../libs/DaisySP/Source/Synthesis/oscillator.h ****     {
  81:../../libs/DaisySP/Source/Synthesis/oscillator.h ****         waveform_ = wf < WAVE_LAST ? wf : WAVE_SIN;
 1702              		.loc 5 81 9 view .LVU507
 1703              		.loc 5 81 19 is_stmt 0 view .LVU508
 1704 0214 87F8E46E 		strb	r6, [r7, #3812]
 1705              	.LVL68:
 1706              		.loc 5 81 19 view .LVU509
 1707              	.LBE532:
 1708              	.LBE531:
  27:../../Classes/Effects/AnalogDelay/src/AnalogDelay.cpp **** }
 1709              		.loc 3 27 1 view .LVU510
 1710 0218 03B0     		add	sp, sp, #12
 1711              		.cfi_remember_state
 1712              		.cfi_def_cfa_offset 44
 1713              		@ sp needed
 1714 021a BDEC028B 		vldm	sp!, {d8}
 1715              		.cfi_restore 80
 1716              		.cfi_restore 81
 1717              		.cfi_def_cfa_offset 36
 1718              	.LVL69:
 1719              		.loc 3 27 1 view .LVU511
 1720 021e BDE8F08F 		pop	{r4, r5, r6, r7, r8, r9, r10, fp, pc}
 1721              	.LVL70:
 1722              	.L23:
 1723              		.cfi_restore_state
 1724              	.LBB533:
 1725              	.LBB494:
 1726              	.LBB486:
 1727              	.LBB483:
 1728              	.LBB480:
 1729              	.LBB476:
 168:../../libs/DaisySP/Source/Effects/pitchshifter.h ****             }
 1730              		.loc 1 168 17 is_stmt 1 view .LVU512
 1731 0222 B0EE450A 		vmov.f32	s0, s10
 168:../../libs/DaisySP/Source/Effects/pitchshifter.h ****             }
 1732              		.loc 1 168 27 is_stmt 0 view .LVU513
 1733 0226 82ED075A 		vstr.32	s10, [r2, #28]
 1734 022a B3E7     		b	.L24
 1735              	.L32:
 1736              		.align	2
 1737              	.L31:
 1738 022c 00EE0200 		.word	192000
 1739 0230 B4EE0400 		.word	323252
 1740 0234 2C0E0200 		.word	134700
 1741 0238 0000A040 		.word	1084227584
 1742 023c 38EE0200 		.word	192056
 1743 0240 00004842 		.word	1112014848
 1744 0244 2CEE0200 		.word	192044
 1745 0248 44EE0300 		.word	257604
 1746 024c 40000200 		.word	131136
 1747 0250 DB0F4940 		.word	1078530011
 1748 0254 ABAAAAAA 		.word	-1431655765
ARM GAS  C:\Users\skipi\AppData\Local\Temp\cc4fyQdn.s 			page 47


 1749 0258 00008038 		.word	947912704
 1750 025c 00000000 		.word	0
 1751 0260 E4EE0400 		.word	323300
 1752 0264 0000C842 		.word	1120403456
 1753 0268 CDCC4C3E 		.word	1045220557
 1754 026c 5CEE0400 		.word	323164
 1755              	.LBE476:
 1756              	.LBE480:
 1757              	.LBE483:
 1758              	.LBE486:
 1759              	.LBE494:
 1760              	.LBE533:
 1761              		.cfi_endproc
 1762              	.LFE4846:
 1764              		.section	.text._ZN11AnalogDelay11setFeedbackEf,"ax",%progbits
 1765              		.align	1
 1766              		.p2align 2,,3
 1767              		.global	_ZN11AnalogDelay11setFeedbackEf
 1768              		.syntax unified
 1769              		.thumb
 1770              		.thumb_func
 1771              		.fpu fpv5-d16
 1773              	_ZN11AnalogDelay11setFeedbackEf:
 1774              	.LVL71:
 1775              	.LFB4847:
  28:../../Classes/Effects/AnalogDelay/src/AnalogDelay.cpp **** 
  29:../../Classes/Effects/AnalogDelay/src/AnalogDelay.cpp **** // Imposta il livello di feedback con limit tra 0 e 0.99
  30:../../Classes/Effects/AnalogDelay/src/AnalogDelay.cpp **** void AnalogDelay::setFeedback(float feedback) {
 1776              		.loc 3 30 47 is_stmt 1 view -0
 1777              		.cfi_startproc
 1778              		@ args = 0, pretend = 0, frame = 0
 1779              		@ frame_needed = 0, uses_anonymous_args = 0
 1780              		@ link register save eliminated.
  31:../../Classes/Effects/AnalogDelay/src/AnalogDelay.cpp ****     _feedback = fclamp(feedback, 0.0f, 0.99f); // Limita il feedback per evitare auto-oscillazioni
 1781              		.loc 3 31 5 view .LVU515
 1782              	.LBB534:
 1783              	.LBI534:
 1784              		.file 7 "../../libs/DaisySP/Source/Utility/dsp.h"
   1:../../libs/DaisySP/Source/Utility/dsp.h **** /*
   2:../../libs/DaisySP/Source/Utility/dsp.h **** Copyright (c) 2020 Electrosmith, Corp, Emilie Gillet
   3:../../libs/DaisySP/Source/Utility/dsp.h **** 
   4:../../libs/DaisySP/Source/Utility/dsp.h **** Use of this source code is governed by an MIT-style
   5:../../libs/DaisySP/Source/Utility/dsp.h **** license that can be found in the LICENSE file or at
   6:../../libs/DaisySP/Source/Utility/dsp.h **** https://opensource.org/licenses/MIT.
   7:../../libs/DaisySP/Source/Utility/dsp.h **** */
   8:../../libs/DaisySP/Source/Utility/dsp.h **** 
   9:../../libs/DaisySP/Source/Utility/dsp.h **** /** Helpful defines, functions, and other utilities for use in/with daisysp modules.
  10:../../libs/DaisySP/Source/Utility/dsp.h **** */
  11:../../libs/DaisySP/Source/Utility/dsp.h **** #pragma once
  12:../../libs/DaisySP/Source/Utility/dsp.h **** #ifndef DSY_CORE_DSP
  13:../../libs/DaisySP/Source/Utility/dsp.h **** #define DSY_CORE_DSP
  14:../../libs/DaisySP/Source/Utility/dsp.h **** #include <cassert>
  15:../../libs/DaisySP/Source/Utility/dsp.h **** #include <cstdint>
  16:../../libs/DaisySP/Source/Utility/dsp.h **** #include <random>
  17:../../libs/DaisySP/Source/Utility/dsp.h **** #include <cmath>
  18:../../libs/DaisySP/Source/Utility/dsp.h **** 
  19:../../libs/DaisySP/Source/Utility/dsp.h **** /** PIs
ARM GAS  C:\Users\skipi\AppData\Local\Temp\cc4fyQdn.s 			page 48


  20:../../libs/DaisySP/Source/Utility/dsp.h **** */
  21:../../libs/DaisySP/Source/Utility/dsp.h **** #define PI_F 3.1415927410125732421875f
  22:../../libs/DaisySP/Source/Utility/dsp.h **** #define TWOPI_F (2.0f * PI_F)
  23:../../libs/DaisySP/Source/Utility/dsp.h **** #define HALFPI_F (PI_F * 0.5f)
  24:../../libs/DaisySP/Source/Utility/dsp.h **** #define DSY_MIN(in, mn) (in < mn ? in : mn)
  25:../../libs/DaisySP/Source/Utility/dsp.h **** #define DSY_MAX(in, mx) (in > mx ? in : mx)
  26:../../libs/DaisySP/Source/Utility/dsp.h **** #define DSY_CLAMP(in, mn, mx) (DSY_MIN(DSY_MAX(in, mn), mx))
  27:../../libs/DaisySP/Source/Utility/dsp.h **** #define DSY_COUNTOF(_arr) (sizeof(_arr) / sizeof(_arr[0]))
  28:../../libs/DaisySP/Source/Utility/dsp.h **** 
  29:../../libs/DaisySP/Source/Utility/dsp.h **** namespace daisysp
  30:../../libs/DaisySP/Source/Utility/dsp.h **** {
  31:../../libs/DaisySP/Source/Utility/dsp.h **** //Avoids division for random floats. e.g. rand() * kRandFrac
  32:../../libs/DaisySP/Source/Utility/dsp.h **** static constexpr float kRandFrac = 1.f / (float)RAND_MAX;
  33:../../libs/DaisySP/Source/Utility/dsp.h **** 
  34:../../libs/DaisySP/Source/Utility/dsp.h **** //Convert from semitones to other units. e.g. 2 ^ (kOneTwelfth * x)
  35:../../libs/DaisySP/Source/Utility/dsp.h **** static constexpr float kOneTwelfth = 1.f / 12.f;
  36:../../libs/DaisySP/Source/Utility/dsp.h **** 
  37:../../libs/DaisySP/Source/Utility/dsp.h **** /** efficient floating point min/max
  38:../../libs/DaisySP/Source/Utility/dsp.h **** c/o stephen mccaul
  39:../../libs/DaisySP/Source/Utility/dsp.h **** */
  40:../../libs/DaisySP/Source/Utility/dsp.h **** inline float fmax(float a, float b)
  41:../../libs/DaisySP/Source/Utility/dsp.h **** {
  42:../../libs/DaisySP/Source/Utility/dsp.h ****     float r;
  43:../../libs/DaisySP/Source/Utility/dsp.h **** #ifdef __arm__
  44:../../libs/DaisySP/Source/Utility/dsp.h ****     asm("vmaxnm.f32 %[d], %[n], %[m]" : [d] "=t"(r) : [n] "t"(a), [m] "t"(b) :);
  45:../../libs/DaisySP/Source/Utility/dsp.h **** #else
  46:../../libs/DaisySP/Source/Utility/dsp.h ****     r = (a > b) ? a : b;
  47:../../libs/DaisySP/Source/Utility/dsp.h **** #endif // __arm__
  48:../../libs/DaisySP/Source/Utility/dsp.h ****     return r;
  49:../../libs/DaisySP/Source/Utility/dsp.h **** }
  50:../../libs/DaisySP/Source/Utility/dsp.h **** 
  51:../../libs/DaisySP/Source/Utility/dsp.h **** inline float fmin(float a, float b)
  52:../../libs/DaisySP/Source/Utility/dsp.h **** {
  53:../../libs/DaisySP/Source/Utility/dsp.h ****     float r;
  54:../../libs/DaisySP/Source/Utility/dsp.h **** #ifdef __arm__
  55:../../libs/DaisySP/Source/Utility/dsp.h ****     asm("vminnm.f32 %[d], %[n], %[m]" : [d] "=t"(r) : [n] "t"(a), [m] "t"(b) :);
  56:../../libs/DaisySP/Source/Utility/dsp.h **** #else
  57:../../libs/DaisySP/Source/Utility/dsp.h ****     r = (a < b) ? a : b;
  58:../../libs/DaisySP/Source/Utility/dsp.h **** #endif // __arm__
  59:../../libs/DaisySP/Source/Utility/dsp.h ****     return r;
  60:../../libs/DaisySP/Source/Utility/dsp.h **** }
  61:../../libs/DaisySP/Source/Utility/dsp.h **** 
  62:../../libs/DaisySP/Source/Utility/dsp.h **** /** quick fp clamp
  63:../../libs/DaisySP/Source/Utility/dsp.h **** */
  64:../../libs/DaisySP/Source/Utility/dsp.h **** inline float fclamp(float in, float min, float max)
 1785              		.loc 7 64 14 view .LVU516
 1786              	.LBE534:
  65:../../libs/DaisySP/Source/Utility/dsp.h **** {
  66:../../libs/DaisySP/Source/Utility/dsp.h ****     return fmin(fmax(in, min), max);
 1787              		.loc 7 66 5 view .LVU517
 1788              	.LBB543:
 1789              	.LBB535:
 1790              	.LBI535:
  40:../../libs/DaisySP/Source/Utility/dsp.h **** {
 1791              		.loc 7 40 14 view .LVU518
 1792              	.LBB536:
  42:../../libs/DaisySP/Source/Utility/dsp.h **** #ifdef __arm__
ARM GAS  C:\Users\skipi\AppData\Local\Temp\cc4fyQdn.s 			page 49


 1793              		.loc 7 42 5 view .LVU519
  44:../../libs/DaisySP/Source/Utility/dsp.h **** #else
 1794              		.loc 7 44 5 view .LVU520
 1795 0000 9FED057A 		vldr.32	s14, .L34
 1796              	.LBE536:
 1797              	.LBE535:
 1798              	.LBB538:
 1799              	.LBB539:
  55:../../libs/DaisySP/Source/Utility/dsp.h **** #else
 1800              		.loc 7 55 5 is_stmt 0 view .LVU521
 1801 0004 DFED057A 		vldr.32	s15, .L34+4
 1802              	.LBE539:
 1803              	.LBE538:
 1804              	.LBB541:
 1805              	.LBB537:
  44:../../libs/DaisySP/Source/Utility/dsp.h **** #else
 1806              		.loc 7 44 5 view .LVU522
 1807              		.syntax unified
 1808              	@ 44 "../../libs/DaisySP/Source/Utility/dsp.h" 1
 1809 0008 80FE070A 		vmaxnm.f32 s0, s0, s14
 1810              	@ 0 "" 2
 1811              	.LVL72:
  48:../../libs/DaisySP/Source/Utility/dsp.h **** }
 1812              		.loc 7 48 5 is_stmt 1 view .LVU523
  48:../../libs/DaisySP/Source/Utility/dsp.h **** }
 1813              		.loc 7 48 5 is_stmt 0 view .LVU524
 1814              		.thumb
 1815              		.syntax unified
 1816              	.LBE537:
 1817              	.LBE541:
 1818              	.LBB542:
 1819              	.LBI538:
  51:../../libs/DaisySP/Source/Utility/dsp.h **** {
 1820              		.loc 7 51 14 is_stmt 1 view .LVU525
 1821              	.LBB540:
  53:../../libs/DaisySP/Source/Utility/dsp.h **** #ifdef __arm__
 1822              		.loc 7 53 5 view .LVU526
  55:../../libs/DaisySP/Source/Utility/dsp.h **** #else
 1823              		.loc 7 55 5 view .LVU527
 1824              		.syntax unified
 1825              	@ 55 "../../libs/DaisySP/Source/Utility/dsp.h" 1
 1826 000c 80FE670A 		vminnm.f32 s0, s0, s15
 1827              	@ 0 "" 2
 1828              	.LVL73:
  59:../../libs/DaisySP/Source/Utility/dsp.h **** }
 1829              		.loc 7 59 5 view .LVU528
  59:../../libs/DaisySP/Source/Utility/dsp.h **** }
 1830              		.loc 7 59 5 is_stmt 0 view .LVU529
 1831              		.thumb
 1832              		.syntax unified
 1833              	.LBE540:
 1834              	.LBE542:
 1835              	.LBE543:
 1836              		.loc 3 31 15 view .LVU530
 1837 0010 80ED020A 		vstr.32	s0, [r0, #8]
  32:../../Classes/Effects/AnalogDelay/src/AnalogDelay.cpp **** }
 1838              		.loc 3 32 1 view .LVU531
ARM GAS  C:\Users\skipi\AppData\Local\Temp\cc4fyQdn.s 			page 50


 1839 0014 7047     		bx	lr
 1840              	.L35:
 1841 0016 00BF     		.align	2
 1842              	.L34:
 1843 0018 00000000 		.word	0
 1844 001c A4707D3F 		.word	1065185444
 1845              		.cfi_endproc
 1846              	.LFE4847:
 1848              		.section	.text._ZN11AnalogDelay6setMixEf,"ax",%progbits
 1849              		.align	1
 1850              		.p2align 2,,3
 1851              		.global	_ZN11AnalogDelay6setMixEf
 1852              		.syntax unified
 1853              		.thumb
 1854              		.thumb_func
 1855              		.fpu fpv5-d16
 1857              	_ZN11AnalogDelay6setMixEf:
 1858              	.LVL74:
 1859              	.LFB4848:
  33:../../Classes/Effects/AnalogDelay/src/AnalogDelay.cpp **** 
  34:../../Classes/Effects/AnalogDelay/src/AnalogDelay.cpp **** // Imposta il mix tra segnale dry e wet (0 = solo dry, 1 = solo wet)
  35:../../Classes/Effects/AnalogDelay/src/AnalogDelay.cpp **** void AnalogDelay::setMix(float mix) {
 1860              		.loc 3 35 37 is_stmt 1 view -0
 1861              		.cfi_startproc
 1862              		@ args = 0, pretend = 0, frame = 0
 1863              		@ frame_needed = 0, uses_anonymous_args = 0
 1864              		@ link register save eliminated.
  36:../../Classes/Effects/AnalogDelay/src/AnalogDelay.cpp ****     _mix = fclamp(mix, 0.0f, 1.0f);  // Limita il mix tra 0 e 1
 1865              		.loc 3 36 5 view .LVU533
 1866              	.LBB544:
 1867              	.LBB545:
  60:../../libs/DaisySP/Source/Dynamics/crossfade.h ****     /** processes CrossFade and returns single sample
  61:../../libs/DaisySP/Source/Dynamics/crossfade.h ****     */
  62:../../libs/DaisySP/Source/Dynamics/crossfade.h ****     float Process(float &in1, float &in2);
  63:../../libs/DaisySP/Source/Dynamics/crossfade.h **** 
  64:../../libs/DaisySP/Source/Dynamics/crossfade.h **** 
  65:../../libs/DaisySP/Source/Dynamics/crossfade.h ****     /** Sets position of CrossFade between two input signals
  66:../../libs/DaisySP/Source/Dynamics/crossfade.h ****         Input range: 0 to 1
  67:../../libs/DaisySP/Source/Dynamics/crossfade.h ****     */
  68:../../libs/DaisySP/Source/Dynamics/crossfade.h ****     inline void SetPos(float pos) { pos_ = pos; }
 1868              		.loc 4 68 42 is_stmt 0 view .LVU534
 1869 0000 074B     		ldr	r3, .L37
 1870              	.LVL75:
 1871              		.loc 4 68 42 view .LVU535
 1872              	.LBE545:
 1873              	.LBE544:
 1874              	.LBB548:
 1875              	.LBI548:
  64:../../libs/DaisySP/Source/Utility/dsp.h **** {
 1876              		.loc 7 64 14 is_stmt 1 view .LVU536
 1877              	.LBE548:
 1878              		.loc 7 66 5 view .LVU537
 1879              	.LBB559:
 1880              	.LBB549:
 1881              	.LBI549:
  40:../../libs/DaisySP/Source/Utility/dsp.h **** {
 1882              		.loc 7 40 14 view .LVU538
ARM GAS  C:\Users\skipi\AppData\Local\Temp\cc4fyQdn.s 			page 51


 1883              	.LBB550:
  42:../../libs/DaisySP/Source/Utility/dsp.h **** #ifdef __arm__
 1884              		.loc 7 42 5 view .LVU539
  44:../../libs/DaisySP/Source/Utility/dsp.h **** #else
 1885              		.loc 7 44 5 view .LVU540
 1886              	.LBE550:
 1887              	.LBE549:
 1888              	.LBB553:
 1889              	.LBB554:
  55:../../libs/DaisySP/Source/Utility/dsp.h **** #else
 1890              		.loc 7 55 5 is_stmt 0 view .LVU541
 1891 0002 F7EE007A 		vmov.f32	s15, #1.0e+0
 1892              	.LBE554:
 1893              	.LBE553:
 1894              	.LBB556:
 1895              	.LBB551:
  44:../../libs/DaisySP/Source/Utility/dsp.h **** #else
 1896              		.loc 7 44 5 view .LVU542
 1897 0006 9FED077A 		vldr.32	s14, .L37+4
 1898              	.LBE551:
 1899              	.LBE556:
 1900              	.LBE559:
 1901              	.LBB560:
 1902              	.LBB546:
 1903              		.loc 4 68 42 view .LVU543
 1904 000a 0344     		add	r3, r3, r0
 1905              	.LBE546:
 1906              	.LBE560:
 1907              	.LBB561:
 1908              	.LBB557:
 1909              	.LBB552:
  44:../../libs/DaisySP/Source/Utility/dsp.h **** #else
 1910              		.loc 7 44 5 view .LVU544
 1911              		.syntax unified
 1912              	@ 44 "../../libs/DaisySP/Source/Utility/dsp.h" 1
 1913 000c 80FE070A 		vmaxnm.f32 s0, s0, s14
 1914              	@ 0 "" 2
 1915              	.LVL76:
  48:../../libs/DaisySP/Source/Utility/dsp.h **** }
 1916              		.loc 7 48 5 is_stmt 1 view .LVU545
  48:../../libs/DaisySP/Source/Utility/dsp.h **** }
 1917              		.loc 7 48 5 is_stmt 0 view .LVU546
 1918              		.thumb
 1919              		.syntax unified
 1920              	.LBE552:
 1921              	.LBE557:
 1922              	.LBB558:
 1923              	.LBI553:
  51:../../libs/DaisySP/Source/Utility/dsp.h **** {
 1924              		.loc 7 51 14 is_stmt 1 view .LVU547
 1925              	.LBB555:
  53:../../libs/DaisySP/Source/Utility/dsp.h **** #ifdef __arm__
 1926              		.loc 7 53 5 view .LVU548
  55:../../libs/DaisySP/Source/Utility/dsp.h **** #else
 1927              		.loc 7 55 5 view .LVU549
 1928              		.syntax unified
 1929              	@ 55 "../../libs/DaisySP/Source/Utility/dsp.h" 1
ARM GAS  C:\Users\skipi\AppData\Local\Temp\cc4fyQdn.s 			page 52


 1930 0010 80FE670A 		vminnm.f32 s0, s0, s15
 1931              	@ 0 "" 2
 1932              	.LVL77:
  59:../../libs/DaisySP/Source/Utility/dsp.h **** }
 1933              		.loc 7 59 5 view .LVU550
  59:../../libs/DaisySP/Source/Utility/dsp.h **** }
 1934              		.loc 7 59 5 is_stmt 0 view .LVU551
 1935              		.thumb
 1936              		.syntax unified
 1937              	.LBE555:
 1938              	.LBE558:
 1939              	.LBE561:
 1940              		.loc 3 36 10 view .LVU552
 1941 0014 80ED030A 		vstr.32	s0, [r0, #12]
  37:../../Classes/Effects/AnalogDelay/src/AnalogDelay.cpp ****     _crossfade.SetPos(_mix);          // Aggiorna la posizione del crossfader
 1942              		.loc 3 37 5 is_stmt 1 view .LVU553
 1943              	.LVL78:
 1944              	.LBB562:
 1945              	.LBI544:
 1946              		.loc 4 68 17 view .LVU554
 1947              	.LBB547:
 1948              		.loc 4 68 37 view .LVU555
 1949              		.loc 4 68 42 is_stmt 0 view .LVU556
 1950 0018 83ED000A 		vstr.32	s0, [r3]
 1951              	.LVL79:
 1952              		.loc 4 68 42 view .LVU557
 1953              	.LBE547:
 1954              	.LBE562:
  38:../../Classes/Effects/AnalogDelay/src/AnalogDelay.cpp **** }
 1955              		.loc 3 38 1 view .LVU558
 1956 001c 7047     		bx	lr
 1957              	.L38:
 1958 001e 00BF     		.align	2
 1959              	.L37:
 1960 0020 24EE0200 		.word	192036
 1961 0024 00000000 		.word	0
 1962              		.cfi_endproc
 1963              	.LFE4848:
 1965              		.section	.text._ZN11AnalogDelay12setDelayTimeEf,"ax",%progbits
 1966              		.align	1
 1967              		.p2align 2,,3
 1968              		.global	_ZN11AnalogDelay12setDelayTimeEf
 1969              		.syntax unified
 1970              		.thumb
 1971              		.thumb_func
 1972              		.fpu fpv5-d16
 1974              	_ZN11AnalogDelay12setDelayTimeEf:
 1975              	.LVL80:
 1976              	.LFB4849:
  39:../../Classes/Effects/AnalogDelay/src/AnalogDelay.cpp **** 
  40:../../Classes/Effects/AnalogDelay/src/AnalogDelay.cpp **** // Imposta il tempo di delay in secondi
  41:../../Classes/Effects/AnalogDelay/src/AnalogDelay.cpp **** void AnalogDelay::setDelayTime(float delayTime) {
 1977              		.loc 3 41 49 is_stmt 1 view -0
 1978              		.cfi_startproc
 1979              		@ args = 0, pretend = 0, frame = 0
 1980              		@ frame_needed = 0, uses_anonymous_args = 0
 1981              		@ link register save eliminated.
ARM GAS  C:\Users\skipi\AppData\Local\Temp\cc4fyQdn.s 			page 53


  42:../../Classes/Effects/AnalogDelay/src/AnalogDelay.cpp ****     _delayTime = fclamp(delayTime, 0.02f, (float)MAX_DELAY_TIME); // Limita il tempo di delay
 1982              		.loc 3 42 5 view .LVU560
 1983              	.LBB563:
 1984              	.LBI563:
  64:../../libs/DaisySP/Source/Utility/dsp.h **** {
 1985              		.loc 7 64 14 view .LVU561
 1986              	.LBE563:
 1987              		.loc 7 66 5 view .LVU562
 1988              	.LBB572:
 1989              	.LBB564:
 1990              	.LBI564:
  40:../../libs/DaisySP/Source/Utility/dsp.h **** {
 1991              		.loc 7 40 14 view .LVU563
 1992              	.LBB565:
  42:../../libs/DaisySP/Source/Utility/dsp.h **** #ifdef __arm__
 1993              		.loc 7 42 5 view .LVU564
  44:../../libs/DaisySP/Source/Utility/dsp.h **** #else
 1994              		.loc 7 44 5 view .LVU565
 1995              	.LBE565:
 1996              	.LBE564:
 1997              	.LBB567:
 1998              	.LBB568:
  55:../../libs/DaisySP/Source/Utility/dsp.h **** #else
 1999              		.loc 7 55 5 is_stmt 0 view .LVU566
 2000 0000 F7EE007A 		vmov.f32	s15, #1.0e+0
 2001              	.LBE568:
 2002              	.LBE567:
 2003              	.LBB570:
 2004              	.LBB566:
  44:../../libs/DaisySP/Source/Utility/dsp.h **** #else
 2005              		.loc 7 44 5 view .LVU567
 2006 0004 9FED047A 		vldr.32	s14, .L40
 2007              		.syntax unified
 2008              	@ 44 "../../libs/DaisySP/Source/Utility/dsp.h" 1
 2009 0008 80FE070A 		vmaxnm.f32 s0, s0, s14
 2010              	@ 0 "" 2
 2011              	.LVL81:
  48:../../libs/DaisySP/Source/Utility/dsp.h **** }
 2012              		.loc 7 48 5 is_stmt 1 view .LVU568
  48:../../libs/DaisySP/Source/Utility/dsp.h **** }
 2013              		.loc 7 48 5 is_stmt 0 view .LVU569
 2014              		.thumb
 2015              		.syntax unified
 2016              	.LBE566:
 2017              	.LBE570:
 2018              	.LBB571:
 2019              	.LBI567:
  51:../../libs/DaisySP/Source/Utility/dsp.h **** {
 2020              		.loc 7 51 14 is_stmt 1 view .LVU570
 2021              	.LBB569:
  53:../../libs/DaisySP/Source/Utility/dsp.h **** #ifdef __arm__
 2022              		.loc 7 53 5 view .LVU571
  55:../../libs/DaisySP/Source/Utility/dsp.h **** #else
 2023              		.loc 7 55 5 view .LVU572
 2024              		.syntax unified
 2025              	@ 55 "../../libs/DaisySP/Source/Utility/dsp.h" 1
 2026 000c 80FE670A 		vminnm.f32 s0, s0, s15
ARM GAS  C:\Users\skipi\AppData\Local\Temp\cc4fyQdn.s 			page 54


 2027              	@ 0 "" 2
 2028              	.LVL82:
  59:../../libs/DaisySP/Source/Utility/dsp.h **** }
 2029              		.loc 7 59 5 view .LVU573
  59:../../libs/DaisySP/Source/Utility/dsp.h **** }
 2030              		.loc 7 59 5 is_stmt 0 view .LVU574
 2031              		.thumb
 2032              		.syntax unified
 2033              	.LBE569:
 2034              	.LBE571:
 2035              	.LBE572:
 2036              		.loc 3 42 16 view .LVU575
 2037 0010 80ED010A 		vstr.32	s0, [r0, #4]
  43:../../Classes/Effects/AnalogDelay/src/AnalogDelay.cpp **** }
 2038              		.loc 3 43 1 view .LVU576
 2039 0014 7047     		bx	lr
 2040              	.L41:
 2041 0016 00BF     		.align	2
 2042              	.L40:
 2043 0018 0AD7A33C 		.word	1017370378
 2044              		.cfi_endproc
 2045              	.LFE4849:
 2047              		.section	.text._ZN11AnalogDelay8setDepthEf,"ax",%progbits
 2048              		.align	1
 2049              		.p2align 2,,3
 2050              		.global	_ZN11AnalogDelay8setDepthEf
 2051              		.syntax unified
 2052              		.thumb
 2053              		.thumb_func
 2054              		.fpu fpv5-d16
 2056              	_ZN11AnalogDelay8setDepthEf:
 2057              	.LVL83:
 2058              	.LFB4850:
  44:../../Classes/Effects/AnalogDelay/src/AnalogDelay.cpp **** 
  45:../../Classes/Effects/AnalogDelay/src/AnalogDelay.cpp **** // Imposta la profondit del pitch shifter
  46:../../Classes/Effects/AnalogDelay/src/AnalogDelay.cpp **** void AnalogDelay::setDepth(float depth) {
 2059              		.loc 3 46 41 is_stmt 1 view -0
 2060              		.cfi_startproc
 2061              		@ args = 0, pretend = 0, frame = 0
 2062              		@ frame_needed = 0, uses_anonymous_args = 0
 2063              		@ link register save eliminated.
  47:../../Classes/Effects/AnalogDelay/src/AnalogDelay.cpp ****     _depth = fclamp(depth, 0.0f, 1.0f); // Limita la profondit tra 0 e 1
 2064              		.loc 3 47 5 view .LVU578
 2065              	.LBB573:
 2066              	.LBI573:
  64:../../libs/DaisySP/Source/Utility/dsp.h **** {
 2067              		.loc 7 64 14 view .LVU579
 2068              	.LBE573:
 2069              		.loc 7 66 5 view .LVU580
 2070              	.LBB582:
 2071              	.LBB574:
 2072              	.LBI574:
  40:../../libs/DaisySP/Source/Utility/dsp.h **** {
 2073              		.loc 7 40 14 view .LVU581
 2074              	.LBB575:
  42:../../libs/DaisySP/Source/Utility/dsp.h **** #ifdef __arm__
 2075              		.loc 7 42 5 view .LVU582
ARM GAS  C:\Users\skipi\AppData\Local\Temp\cc4fyQdn.s 			page 55


  44:../../libs/DaisySP/Source/Utility/dsp.h **** #else
 2076              		.loc 7 44 5 view .LVU583
 2077              	.LBE575:
 2078              	.LBE574:
 2079              	.LBB577:
 2080              	.LBB578:
  55:../../libs/DaisySP/Source/Utility/dsp.h **** #else
 2081              		.loc 7 55 5 is_stmt 0 view .LVU584
 2082 0000 F7EE007A 		vmov.f32	s15, #1.0e+0
 2083              	.LBE578:
 2084              	.LBE577:
 2085              	.LBB580:
 2086              	.LBB576:
  44:../../libs/DaisySP/Source/Utility/dsp.h **** #else
 2087              		.loc 7 44 5 view .LVU585
 2088 0004 9FED047A 		vldr.32	s14, .L43
 2089              		.syntax unified
 2090              	@ 44 "../../libs/DaisySP/Source/Utility/dsp.h" 1
 2091 0008 80FE070A 		vmaxnm.f32 s0, s0, s14
 2092              	@ 0 "" 2
 2093              	.LVL84:
  48:../../libs/DaisySP/Source/Utility/dsp.h **** }
 2094              		.loc 7 48 5 is_stmt 1 view .LVU586
  48:../../libs/DaisySP/Source/Utility/dsp.h **** }
 2095              		.loc 7 48 5 is_stmt 0 view .LVU587
 2096              		.thumb
 2097              		.syntax unified
 2098              	.LBE576:
 2099              	.LBE580:
 2100              	.LBB581:
 2101              	.LBI577:
  51:../../libs/DaisySP/Source/Utility/dsp.h **** {
 2102              		.loc 7 51 14 is_stmt 1 view .LVU588
 2103              	.LBB579:
  53:../../libs/DaisySP/Source/Utility/dsp.h **** #ifdef __arm__
 2104              		.loc 7 53 5 view .LVU589
  55:../../libs/DaisySP/Source/Utility/dsp.h **** #else
 2105              		.loc 7 55 5 view .LVU590
 2106              		.syntax unified
 2107              	@ 55 "../../libs/DaisySP/Source/Utility/dsp.h" 1
 2108 000c 80FE670A 		vminnm.f32 s0, s0, s15
 2109              	@ 0 "" 2
 2110              	.LVL85:
  59:../../libs/DaisySP/Source/Utility/dsp.h **** }
 2111              		.loc 7 59 5 view .LVU591
  59:../../libs/DaisySP/Source/Utility/dsp.h **** }
 2112              		.loc 7 59 5 is_stmt 0 view .LVU592
 2113              		.thumb
 2114              		.syntax unified
 2115              	.LBE579:
 2116              	.LBE581:
 2117              	.LBE582:
 2118              		.loc 3 47 12 view .LVU593
 2119 0010 80ED040A 		vstr.32	s0, [r0, #16]
  48:../../Classes/Effects/AnalogDelay/src/AnalogDelay.cpp **** }
 2120              		.loc 3 48 1 view .LVU594
 2121 0014 7047     		bx	lr
ARM GAS  C:\Users\skipi\AppData\Local\Temp\cc4fyQdn.s 			page 56


 2122              	.L44:
 2123 0016 00BF     		.align	2
 2124              	.L43:
 2125 0018 00000000 		.word	0
 2126              		.cfi_endproc
 2127              	.LFE4850:
 2129              		.section	.text._ZN11AnalogDelay15setSmoothFactorEf,"ax",%progbits
 2130              		.align	1
 2131              		.p2align 2,,3
 2132              		.global	_ZN11AnalogDelay15setSmoothFactorEf
 2133              		.syntax unified
 2134              		.thumb
 2135              		.thumb_func
 2136              		.fpu fpv5-d16
 2138              	_ZN11AnalogDelay15setSmoothFactorEf:
 2139              	.LVL86:
 2140              	.LFB4851:
  49:../../Classes/Effects/AnalogDelay/src/AnalogDelay.cpp **** 
  50:../../Classes/Effects/AnalogDelay/src/AnalogDelay.cpp **** // Imposta il fattore di smoothing per il tempo di delay
  51:../../Classes/Effects/AnalogDelay/src/AnalogDelay.cpp **** void AnalogDelay::setSmoothFactor(float smooth_factor) {
 2141              		.loc 3 51 56 is_stmt 1 view -0
 2142              		.cfi_startproc
 2143              		@ args = 0, pretend = 0, frame = 0
 2144              		@ frame_needed = 0, uses_anonymous_args = 0
 2145              		@ link register save eliminated.
  52:../../Classes/Effects/AnalogDelay/src/AnalogDelay.cpp ****     _smooth_factor = fmap(smooth_factor, 0.00001f, 0.0001f, Mapping::LINEAR); // Limita il fattore 
 2146              		.loc 3 52 5 view .LVU596
 2147              	.LBB583:
 2148              	.LBB584:
  67:../../libs/DaisySP/Source/Utility/dsp.h **** }
  68:../../libs/DaisySP/Source/Utility/dsp.h **** 
  69:../../libs/DaisySP/Source/Utility/dsp.h **** /** From Musicdsp.org "Fast power and root estimates for 32bit floats)
  70:../../libs/DaisySP/Source/Utility/dsp.h **** Original code by Stefan Stenzel
  71:../../libs/DaisySP/Source/Utility/dsp.h **** These are approximations
  72:../../libs/DaisySP/Source/Utility/dsp.h **** */
  73:../../libs/DaisySP/Source/Utility/dsp.h **** inline float fastpower(float f, int n)
  74:../../libs/DaisySP/Source/Utility/dsp.h **** {
  75:../../libs/DaisySP/Source/Utility/dsp.h ****     long *lp, l;
  76:../../libs/DaisySP/Source/Utility/dsp.h ****     lp = (long *)(&f);
  77:../../libs/DaisySP/Source/Utility/dsp.h ****     l  = *lp;
  78:../../libs/DaisySP/Source/Utility/dsp.h ****     l -= 0x3F800000;
  79:../../libs/DaisySP/Source/Utility/dsp.h ****     l <<= (n - 1);
  80:../../libs/DaisySP/Source/Utility/dsp.h ****     l += 0x3F800000;
  81:../../libs/DaisySP/Source/Utility/dsp.h ****     *lp = l;
  82:../../libs/DaisySP/Source/Utility/dsp.h ****     return f;
  83:../../libs/DaisySP/Source/Utility/dsp.h **** }
  84:../../libs/DaisySP/Source/Utility/dsp.h **** 
  85:../../libs/DaisySP/Source/Utility/dsp.h **** inline float fastroot(float f, int n)
  86:../../libs/DaisySP/Source/Utility/dsp.h **** {
  87:../../libs/DaisySP/Source/Utility/dsp.h ****     long *lp, l;
  88:../../libs/DaisySP/Source/Utility/dsp.h ****     lp = (long *)(&f);
  89:../../libs/DaisySP/Source/Utility/dsp.h ****     l  = *lp;
  90:../../libs/DaisySP/Source/Utility/dsp.h ****     l -= 0x3F800000;
  91:../../libs/DaisySP/Source/Utility/dsp.h ****     l >>= (n - 1);
  92:../../libs/DaisySP/Source/Utility/dsp.h ****     l += 0x3F800000;
  93:../../libs/DaisySP/Source/Utility/dsp.h ****     *lp = l;
  94:../../libs/DaisySP/Source/Utility/dsp.h ****     return f;
ARM GAS  C:\Users\skipi\AppData\Local\Temp\cc4fyQdn.s 			page 57


  95:../../libs/DaisySP/Source/Utility/dsp.h **** }
  96:../../libs/DaisySP/Source/Utility/dsp.h **** 
  97:../../libs/DaisySP/Source/Utility/dsp.h **** /** Significantly more efficient than fmodf(x, 1.0f) for calculating
  98:../../libs/DaisySP/Source/Utility/dsp.h ****  *  the decimal part of a floating point value.
  99:../../libs/DaisySP/Source/Utility/dsp.h ****  */
 100:../../libs/DaisySP/Source/Utility/dsp.h **** inline float fastmod1f(float x)
 101:../../libs/DaisySP/Source/Utility/dsp.h **** {
 102:../../libs/DaisySP/Source/Utility/dsp.h ****     return x - floorf(x);
 103:../../libs/DaisySP/Source/Utility/dsp.h **** }
 104:../../libs/DaisySP/Source/Utility/dsp.h **** 
 105:../../libs/DaisySP/Source/Utility/dsp.h **** /** From http://openaudio.blogspot.com/2017/02/faster-log10-and-pow.html
 106:../../libs/DaisySP/Source/Utility/dsp.h **** No approximation, pow10f(x) gives a 90% speed increase over powf(10.f, x)
 107:../../libs/DaisySP/Source/Utility/dsp.h **** */
 108:../../libs/DaisySP/Source/Utility/dsp.h **** inline float pow10f(float f)
 109:../../libs/DaisySP/Source/Utility/dsp.h **** {
 110:../../libs/DaisySP/Source/Utility/dsp.h ****     return expf(2.302585092994046f * f);
 111:../../libs/DaisySP/Source/Utility/dsp.h **** }
 112:../../libs/DaisySP/Source/Utility/dsp.h **** 
 113:../../libs/DaisySP/Source/Utility/dsp.h **** /* Original code for fastlog2f by Dr. Paul Beckmann from the ARM community forum, adapted from the 
 114:../../libs/DaisySP/Source/Utility/dsp.h **** About 25% performance increase over std::log10f
 115:../../libs/DaisySP/Source/Utility/dsp.h **** */
 116:../../libs/DaisySP/Source/Utility/dsp.h **** inline float fastlog2f(float f)
 117:../../libs/DaisySP/Source/Utility/dsp.h **** {
 118:../../libs/DaisySP/Source/Utility/dsp.h ****     float frac;
 119:../../libs/DaisySP/Source/Utility/dsp.h ****     int   exp;
 120:../../libs/DaisySP/Source/Utility/dsp.h ****     frac = frexpf(fabsf(f), &exp);
 121:../../libs/DaisySP/Source/Utility/dsp.h ****     f    = 1.23149591368684f;
 122:../../libs/DaisySP/Source/Utility/dsp.h ****     f *= frac;
 123:../../libs/DaisySP/Source/Utility/dsp.h ****     f += -4.11852516267426f;
 124:../../libs/DaisySP/Source/Utility/dsp.h ****     f *= frac;
 125:../../libs/DaisySP/Source/Utility/dsp.h ****     f += 6.02197014179219f;
 126:../../libs/DaisySP/Source/Utility/dsp.h ****     f *= frac;
 127:../../libs/DaisySP/Source/Utility/dsp.h ****     f += -3.13396450166353f;
 128:../../libs/DaisySP/Source/Utility/dsp.h ****     f += exp;
 129:../../libs/DaisySP/Source/Utility/dsp.h ****     return (f);
 130:../../libs/DaisySP/Source/Utility/dsp.h **** }
 131:../../libs/DaisySP/Source/Utility/dsp.h **** 
 132:../../libs/DaisySP/Source/Utility/dsp.h **** inline float fastlog10f(float f)
 133:../../libs/DaisySP/Source/Utility/dsp.h **** {
 134:../../libs/DaisySP/Source/Utility/dsp.h ****     return fastlog2f(f) * 0.3010299956639812f;
 135:../../libs/DaisySP/Source/Utility/dsp.h **** }
 136:../../libs/DaisySP/Source/Utility/dsp.h **** 
 137:../../libs/DaisySP/Source/Utility/dsp.h **** /** Midi to frequency helper
 138:../../libs/DaisySP/Source/Utility/dsp.h **** */
 139:../../libs/DaisySP/Source/Utility/dsp.h **** inline float mtof(float m)
 140:../../libs/DaisySP/Source/Utility/dsp.h **** {
 141:../../libs/DaisySP/Source/Utility/dsp.h ****     return powf(2, (m - 69.0f) / 12.0f) * 440.0f;
 142:../../libs/DaisySP/Source/Utility/dsp.h **** }
 143:../../libs/DaisySP/Source/Utility/dsp.h **** 
 144:../../libs/DaisySP/Source/Utility/dsp.h **** 
 145:../../libs/DaisySP/Source/Utility/dsp.h **** /** one pole lpf
 146:../../libs/DaisySP/Source/Utility/dsp.h **** out is passed by reference, and must be retained between
 147:../../libs/DaisySP/Source/Utility/dsp.h **** calls to properly filter the signal
 148:../../libs/DaisySP/Source/Utility/dsp.h **** coeff can be calculated:
 149:../../libs/DaisySP/Source/Utility/dsp.h **** coeff = 1.0 / (time * sample_rate) ; where time is in seconds
 150:../../libs/DaisySP/Source/Utility/dsp.h **** */
 151:../../libs/DaisySP/Source/Utility/dsp.h **** inline void fonepole(float &out, float in, float coeff)
ARM GAS  C:\Users\skipi\AppData\Local\Temp\cc4fyQdn.s 			page 58


 152:../../libs/DaisySP/Source/Utility/dsp.h **** {
 153:../../libs/DaisySP/Source/Utility/dsp.h ****     out += coeff * (in - out);
 154:../../libs/DaisySP/Source/Utility/dsp.h **** }
 155:../../libs/DaisySP/Source/Utility/dsp.h **** 
 156:../../libs/DaisySP/Source/Utility/dsp.h **** /** Curves to use with the fmap function */
 157:../../libs/DaisySP/Source/Utility/dsp.h **** enum class Mapping
 158:../../libs/DaisySP/Source/Utility/dsp.h **** {
 159:../../libs/DaisySP/Source/Utility/dsp.h ****     LINEAR,
 160:../../libs/DaisySP/Source/Utility/dsp.h ****     EXP,
 161:../../libs/DaisySP/Source/Utility/dsp.h ****     LOG,
 162:../../libs/DaisySP/Source/Utility/dsp.h **** };
 163:../../libs/DaisySP/Source/Utility/dsp.h **** 
 164:../../libs/DaisySP/Source/Utility/dsp.h **** /** Maps a float between a specified range, using a specified curve.
 165:../../libs/DaisySP/Source/Utility/dsp.h ****  *
 166:../../libs/DaisySP/Source/Utility/dsp.h ****  *  \param in a value between 0 to 1 that will be mapped to the new range.
 167:../../libs/DaisySP/Source/Utility/dsp.h ****  *  \param min the new minimum value
 168:../../libs/DaisySP/Source/Utility/dsp.h ****  *  \param max the new maxmimum value
 169:../../libs/DaisySP/Source/Utility/dsp.h ****  *  \param curve a Mapping Value to adjust the response curve of the transformation
 170:../../libs/DaisySP/Source/Utility/dsp.h ****  *               defaults to Linear. @see Mapping
 171:../../libs/DaisySP/Source/Utility/dsp.h ****  *
 172:../../libs/DaisySP/Source/Utility/dsp.h ****  *  When using the log curve min and max, must be greater than zero.
 173:../../libs/DaisySP/Source/Utility/dsp.h ****  *
 174:../../libs/DaisySP/Source/Utility/dsp.h ****  *  \retval returns the transformed float within the new range.
 175:../../libs/DaisySP/Source/Utility/dsp.h **** */
 176:../../libs/DaisySP/Source/Utility/dsp.h **** inline float
 177:../../libs/DaisySP/Source/Utility/dsp.h **** fmap(float in, float min, float max, Mapping curve = Mapping::LINEAR)
 178:../../libs/DaisySP/Source/Utility/dsp.h **** {
 179:../../libs/DaisySP/Source/Utility/dsp.h ****     switch(curve)
 180:../../libs/DaisySP/Source/Utility/dsp.h ****     {
 181:../../libs/DaisySP/Source/Utility/dsp.h ****         case Mapping::EXP:
 182:../../libs/DaisySP/Source/Utility/dsp.h ****             return fclamp(min + (in * in) * (max - min), min, max);
 183:../../libs/DaisySP/Source/Utility/dsp.h ****         case Mapping::LOG:
 184:../../libs/DaisySP/Source/Utility/dsp.h ****         {
 185:../../libs/DaisySP/Source/Utility/dsp.h ****             const float a = 1.f / log10f(max / min);
 186:../../libs/DaisySP/Source/Utility/dsp.h ****             return fclamp(min * powf(10, in / a), min, max);
 187:../../libs/DaisySP/Source/Utility/dsp.h ****         }
 188:../../libs/DaisySP/Source/Utility/dsp.h ****         case Mapping::LINEAR:
 189:../../libs/DaisySP/Source/Utility/dsp.h ****         default: return fclamp(min + in * (max - min), min, max);
 2149              		.loc 7 189 31 is_stmt 0 view .LVU597
 2150 0000 9FED087A 		vldr.32	s14, .L46
 2151              	.LVL87:
 2152              		.loc 7 189 31 view .LVU598
 2153              	.LBE584:
 2154              	.LBI583:
 177:../../libs/DaisySP/Source/Utility/dsp.h **** {
 2155              		.loc 7 177 1 is_stmt 1 view .LVU599
 2156              	.LBE583:
 179:../../libs/DaisySP/Source/Utility/dsp.h ****     {
 2157              		.loc 7 179 5 view .LVU600
 2158              	.LBB596:
 2159              	.LBB594:
 188:../../libs/DaisySP/Source/Utility/dsp.h ****         default: return fclamp(min + in * (max - min), min, max);
 2160              		.loc 7 188 9 view .LVU601
 2161              		.loc 7 189 9 view .LVU602
 2162              		.loc 7 189 18 view .LVU603
 2163              		.loc 7 189 31 is_stmt 0 view .LVU604
 2164 0004 9FED086A 		vldr.32	s12, .L46+4
ARM GAS  C:\Users\skipi\AppData\Local\Temp\cc4fyQdn.s 			page 59


 2165 0008 F0EE477A 		vmov.f32	s15, s14
 2166              	.LBB585:
 2167              	.LBB586:
 2168              	.LBB587:
  55:../../libs/DaisySP/Source/Utility/dsp.h **** #else
 2169              		.loc 7 55 5 view .LVU605
 2170 000c DFED076A 		vldr.32	s13, .L46+8
 2171              	.LBE587:
 2172              	.LBE586:
 2173              	.LBE585:
 2174              		.loc 7 189 31 view .LVU606
 2175 0010 E0EE067A 		vfma.f32	s15, s0, s12
 2176              	.LVL88:
 2177              	.LBB592:
 2178              	.LBI585:
  64:../../libs/DaisySP/Source/Utility/dsp.h **** {
 2179              		.loc 7 64 14 is_stmt 1 view .LVU607
 2180              	.LBE592:
 2181              	.LBE594:
 2182              	.LBE596:
  66:../../libs/DaisySP/Source/Utility/dsp.h **** }
 2183              		.loc 7 66 5 view .LVU608
 2184              	.LBB597:
 2185              	.LBB595:
 2186              	.LBB593:
 2187              	.LBB589:
 2188              	.LBI589:
  40:../../libs/DaisySP/Source/Utility/dsp.h **** {
 2189              		.loc 7 40 14 view .LVU609
 2190              	.LBB590:
  42:../../libs/DaisySP/Source/Utility/dsp.h **** #ifdef __arm__
 2191              		.loc 7 42 5 view .LVU610
  44:../../libs/DaisySP/Source/Utility/dsp.h **** #else
 2192              		.loc 7 44 5 view .LVU611
 2193              		.syntax unified
 2194              	@ 44 "../../libs/DaisySP/Source/Utility/dsp.h" 1
 2195 0014 C7FE877A 		vmaxnm.f32 s15, s15, s14
 2196              	@ 0 "" 2
 2197              	.LVL89:
  48:../../libs/DaisySP/Source/Utility/dsp.h **** }
 2198              		.loc 7 48 5 view .LVU612
  48:../../libs/DaisySP/Source/Utility/dsp.h **** }
 2199              		.loc 7 48 5 is_stmt 0 view .LVU613
 2200              		.thumb
 2201              		.syntax unified
 2202              	.LBE590:
 2203              	.LBE589:
 2204              	.LBB591:
 2205              	.LBI586:
  51:../../libs/DaisySP/Source/Utility/dsp.h **** {
 2206              		.loc 7 51 14 is_stmt 1 view .LVU614
 2207              	.LBB588:
  53:../../libs/DaisySP/Source/Utility/dsp.h **** #ifdef __arm__
 2208              		.loc 7 53 5 view .LVU615
  55:../../libs/DaisySP/Source/Utility/dsp.h **** #else
 2209              		.loc 7 55 5 view .LVU616
 2210              		.syntax unified
ARM GAS  C:\Users\skipi\AppData\Local\Temp\cc4fyQdn.s 			page 60


 2211              	@ 55 "../../libs/DaisySP/Source/Utility/dsp.h" 1
 2212 0018 C7FEE67A 		vminnm.f32 s15, s15, s13
 2213              	@ 0 "" 2
 2214              	.LVL90:
  59:../../libs/DaisySP/Source/Utility/dsp.h **** }
 2215              		.loc 7 59 5 view .LVU617
  59:../../libs/DaisySP/Source/Utility/dsp.h **** }
 2216              		.loc 7 59 5 is_stmt 0 view .LVU618
 2217              		.thumb
 2218              		.syntax unified
 2219              	.LBE588:
 2220              	.LBE591:
 2221              	.LBE593:
 2222              	.LBE595:
 2223              	.LBE597:
 2224              		.loc 3 52 20 view .LVU619
 2225 001c C0ED057A 		vstr.32	s15, [r0, #20]
  53:../../Classes/Effects/AnalogDelay/src/AnalogDelay.cpp **** }
 2226              		.loc 3 53 1 view .LVU620
 2227 0020 7047     		bx	lr
 2228              	.L47:
 2229 0022 00BF     		.align	2
 2230              	.L46:
 2231 0024 ACC52737 		.word	925353388
 2232 0028 62BEBC38 		.word	951893602
 2233 002c 17B7D138 		.word	953267991
 2234              		.cfi_endproc
 2235              	.LFE4851:
 2237              		.section	.text._ZN11AnalogDelay7ProcessEf,"ax",%progbits
 2238              		.align	1
 2239              		.p2align 2,,3
 2240              		.global	_ZN11AnalogDelay7ProcessEf
 2241              		.syntax unified
 2242              		.thumb
 2243              		.thumb_func
 2244              		.fpu fpv5-d16
 2246              	_ZN11AnalogDelay7ProcessEf:
 2247              	.LVL91:
 2248              	.LFB4852:
  54:../../Classes/Effects/AnalogDelay/src/AnalogDelay.cpp **** 
  55:../../Classes/Effects/AnalogDelay/src/AnalogDelay.cpp **** // Processa un singolo campione audio
  56:../../Classes/Effects/AnalogDelay/src/AnalogDelay.cpp **** float AnalogDelay::Process(float buffer_in) {
 2249              		.loc 3 56 45 is_stmt 1 view -0
 2250              		.cfi_startproc
 2251              		@ args = 0, pretend = 0, frame = 24
 2252              		@ frame_needed = 0, uses_anonymous_args = 0
  57:../../Classes/Effects/AnalogDelay/src/AnalogDelay.cpp ****     // Applica smoothing al tempo di delay usando fonepole
  58:../../Classes/Effects/AnalogDelay/src/AnalogDelay.cpp ****     fonepole(currentDelayTime, _delayTime, _smooth_factor);
 2253              		.loc 3 58 5 view .LVU622
  56:../../Classes/Effects/AnalogDelay/src/AnalogDelay.cpp ****     // Applica smoothing al tempo di delay usando fonepole
 2254              		.loc 3 56 45 is_stmt 0 view .LVU623
 2255 0000 F0B5     		push	{r4, r5, r6, r7, lr}
 2256              		.cfi_def_cfa_offset 20
 2257              		.cfi_offset 4, -20
 2258              		.cfi_offset 5, -16
 2259              		.cfi_offset 6, -12
 2260              		.cfi_offset 7, -8
ARM GAS  C:\Users\skipi\AppData\Local\Temp\cc4fyQdn.s 			page 61


 2261              		.cfi_offset 14, -4
 2262              	.LBB608:
 2263              	.LBB609:
 153:../../libs/DaisySP/Source/Utility/dsp.h **** }
 2264              		.loc 7 153 9 view .LVU624
 2265 0002 7A4A     		ldr	r2, .L58
 2266              	.LBE609:
 2267              	.LBE608:
  56:../../Classes/Effects/AnalogDelay/src/AnalogDelay.cpp ****     // Applica smoothing al tempo di delay usando fonepole
 2268              		.loc 3 56 45 view .LVU625
 2269 0004 87B0     		sub	sp, sp, #28
 2270              		.cfi_def_cfa_offset 48
 2271              	.LBB616:
 2272              	.LBB610:
 153:../../libs/DaisySP/Source/Utility/dsp.h **** }
 2273              		.loc 7 153 9 view .LVU626
 2274 0006 D0ED055A 		vldr.32	s11, [r0, #20]
 2275              	.LBE610:
 2276              	.LBE616:
  56:../../Classes/Effects/AnalogDelay/src/AnalogDelay.cpp ****     // Applica smoothing al tempo di delay usando fonepole
 2277              		.loc 3 56 45 view .LVU627
 2278 000a 0446     		mov	r4, r0
 2279              	.LBB617:
 2280              	.LBB611:
 153:../../libs/DaisySP/Source/Utility/dsp.h **** }
 2281              		.loc 7 153 9 view .LVU628
 2282 000c 92ED007A 		vldr.32	s14, [r2]
 2283              	.LBE611:
 2284              	.LBE617:
 2285              	.LBB618:
 2286              	.LBB619:
  83:../../libs/DaisySP/Source/Utility/delayline.h ****     }
  84:../../libs/DaisySP/Source/Utility/delayline.h **** 
  85:../../libs/DaisySP/Source/Utility/delayline.h ****     /** Read from a set location */
  86:../../libs/DaisySP/Source/Utility/delayline.h ****     inline const T Read(float delay) const
  87:../../libs/DaisySP/Source/Utility/delayline.h ****     {
  88:../../libs/DaisySP/Source/Utility/delayline.h ****         int32_t delay_integral   = static_cast<int32_t>(delay);
  89:../../libs/DaisySP/Source/Utility/delayline.h ****         float   delay_fractional = delay - static_cast<float>(delay_integral);
  90:../../libs/DaisySP/Source/Utility/delayline.h ****         const T a = line_[(write_ptr_ + delay_integral) % max_size];
 2287              		.loc 2 90 57 view .LVU629
 2288 0010 4BF68035 		movw	r5, #48000
 2289              	.LBE619:
 2290              	.LBE618:
  56:../../Classes/Effects/AnalogDelay/src/AnalogDelay.cpp ****     // Applica smoothing al tempo di delay usando fonepole
 2291              		.loc 3 56 45 view .LVU630
 2292 0014 8DED030A 		vstr.32	s0, [sp, #12]
  59:../../Classes/Effects/AnalogDelay/src/AnalogDelay.cpp ****     
  60:../../Classes/Effects/AnalogDelay/src/AnalogDelay.cpp ****     // Converte il tempo di delay da secondi a campioni
  61:../../Classes/Effects/AnalogDelay/src/AnalogDelay.cpp ****     float delaySamples = _sampleRate * currentDelayTime;
  62:../../Classes/Effects/AnalogDelay/src/AnalogDelay.cpp ****     
  63:../../Classes/Effects/AnalogDelay/src/AnalogDelay.cpp ****     // Legge il campione ritardato dalla linea di delay
  64:../../Classes/Effects/AnalogDelay/src/AnalogDelay.cpp ****     float delayed = _delayLine.Read(delaySamples);
  65:../../Classes/Effects/AnalogDelay/src/AnalogDelay.cpp **** 
  66:../../Classes/Effects/AnalogDelay/src/AnalogDelay.cpp ****     _lfo.SetFreq(1 - _delayTime);
 2293              		.loc 3 66 17 view .LVU631
 2294 0018 F7EE006A 		vmov.f32	s13, #1.0e+0
  58:../../Classes/Effects/AnalogDelay/src/AnalogDelay.cpp ****     
ARM GAS  C:\Users\skipi\AppData\Local\Temp\cc4fyQdn.s 			page 62


 2295              		.loc 3 58 13 view .LVU632
 2296 001c 90ED010A 		vldr.32	s0, [r0, #4]
 2297              	.LVL92:
 2298              	.LBB626:
 2299              	.LBI608:
 151:../../libs/DaisySP/Source/Utility/dsp.h **** {
 2300              		.loc 7 151 13 is_stmt 1 view .LVU633
 2301              	.LBB612:
 153:../../libs/DaisySP/Source/Utility/dsp.h **** }
 2302              		.loc 7 153 5 view .LVU634
 2303              	.LBE612:
 2304              	.LBE626:
  61:../../Classes/Effects/AnalogDelay/src/AnalogDelay.cpp ****     
 2305              		.loc 3 61 11 is_stmt 0 view .LVU635
 2306 0020 D0ED007A 		vldr.32	s15, [r0]
 2307              	.LBB627:
 2308              	.LBB613:
 153:../../libs/DaisySP/Source/Utility/dsp.h **** }
 2309              		.loc 7 153 24 view .LVU636
 2310 0024 30EE476A 		vsub.f32	s12, s0, s14
 2311              	.LBE613:
 2312              	.LBE627:
 2313              	.LBB628:
 2314              	.LBB620:
 2315              		.loc 2 90 39 view .LVU637
 2316 0028 C369     		ldr	r3, [r0, #28]
 2317              		.loc 2 90 57 view .LVU638
 2318 002a 7149     		ldr	r1, .L58+4
 2319              	.LBE620:
 2320              	.LBE628:
 2321              		.loc 3 66 17 view .LVU639
 2322 002c 36EEC00A 		vsub.f32	s0, s13, s0
 2323              	.LVL93:
 2324              		.loc 3 66 17 view .LVU640
 2325 0030 704E     		ldr	r6, .L58+8
 2326              	.LBB629:
 2327              	.LBB614:
 153:../../libs/DaisySP/Source/Utility/dsp.h **** }
 2328              		.loc 7 153 9 view .LVU641
 2329 0032 A5EE867A 		vfma.f32	s14, s11, s12
 2330              	.LBE614:
 2331              	.LBE629:
 2332              		.loc 3 66 17 view .LVU642
 2333 0036 2644     		add	r6, r6, r4
  61:../../Classes/Effects/AnalogDelay/src/AnalogDelay.cpp ****     
 2334              		.loc 3 61 11 view .LVU643
 2335 0038 67EE277A 		vmul.f32	s15, s14, s15
 2336              	.LBB630:
 2337              	.LBB615:
 153:../../libs/DaisySP/Source/Utility/dsp.h **** }
 2338              		.loc 7 153 9 view .LVU644
 2339 003c 82ED007A 		vstr.32	s14, [r2]
 2340              	.LVL94:
 153:../../libs/DaisySP/Source/Utility/dsp.h **** }
 2341              		.loc 7 153 9 view .LVU645
 2342              	.LBE615:
 2343              	.LBE630:
ARM GAS  C:\Users\skipi\AppData\Local\Temp\cc4fyQdn.s 			page 63


  61:../../Classes/Effects/AnalogDelay/src/AnalogDelay.cpp ****     
 2344              		.loc 3 61 5 is_stmt 1 view .LVU646
  64:../../Classes/Effects/AnalogDelay/src/AnalogDelay.cpp **** 
 2345              		.loc 3 64 5 view .LVU647
 2346              	.LBB631:
 2347              	.LBI618:
  86:../../libs/DaisySP/Source/Utility/delayline.h ****     {
 2348              		.loc 2 86 20 view .LVU648
 2349              	.LBB621:
  88:../../libs/DaisySP/Source/Utility/delayline.h ****         float   delay_fractional = delay - static_cast<float>(delay_integral);
 2350              		.loc 2 88 17 is_stmt 0 view .LVU649
 2351 0040 BDEEE77A 		vcvt.s32.f32	s14, s15
 2352              	.LVL95:
 2353              		.loc 2 90 39 view .LVU650
 2354 0044 17EE102A 		vmov	r2, s14	@ int
  89:../../libs/DaisySP/Source/Utility/delayline.h ****         const T a = line_[(write_ptr_ + delay_integral) % max_size];
 2355              		.loc 2 89 44 view .LVU651
 2356 0048 B8EEC77A 		vcvt.f32.s32	s14, s14
 2357              	.LVL96:
 2358              		.loc 2 90 39 view .LVU652
 2359 004c 1344     		add	r3, r3, r2
  89:../../libs/DaisySP/Source/Utility/delayline.h ****         const T a = line_[(write_ptr_ + delay_integral) % max_size];
 2360              		.loc 2 89 17 view .LVU653
 2361 004e 77EEC77A 		vsub.f32	s15, s15, s14
 2362              	.LVL97:
 2363              		.loc 2 90 57 view .LVU654
 2364 0052 A1FB0302 		umull	r0, r2, r1, r3
 2365              	.LVL98:
 2366              		.loc 2 90 57 view .LVU655
 2367 0056 920A     		lsrs	r2, r2, #10
 2368 0058 05FB1232 		mls	r2, r5, r2, r3
  91:../../libs/DaisySP/Source/Utility/delayline.h ****         const T b = line_[(write_ptr_ + delay_integral + 1) % max_size];
 2369              		.loc 2 91 56 view .LVU656
 2370 005c 0133     		adds	r3, r3, #1
 2371              		.loc 2 91 61 view .LVU657
 2372 005e A1FB0301 		umull	r0, r1, r1, r3
  90:../../libs/DaisySP/Source/Utility/delayline.h ****         const T b = line_[(write_ptr_ + delay_integral + 1) % max_size];
 2373              		.loc 2 90 17 view .LVU658
 2374 0062 04EB8202 		add	r2, r4, r2, lsl #2
 2375              	.LBE621:
 2376              	.LBE631:
 2377              	.LBB632:
 2378              	.LBB633:
  70:../../libs/DaisySP/Source/Synthesis/oscillator.h ****     }
 2379              		.loc 5 70 34 view .LVU659
 2380 0066 3046     		mov	r0, r6
 2381              	.LBE633:
 2382              	.LBE632:
 2383              	.LBB639:
 2384              	.LBB622:
 2385              		.loc 2 91 61 view .LVU660
 2386 0068 890A     		lsrs	r1, r1, #10
  90:../../libs/DaisySP/Source/Utility/delayline.h ****         const T b = line_[(write_ptr_ + delay_integral + 1) % max_size];
 2387              		.loc 2 90 17 view .LVU661
 2388 006a 92ED097A 		vldr.32	s14, [r2, #36]
 2389              	.LVL99:
 2390              		.loc 2 91 61 view .LVU662
ARM GAS  C:\Users\skipi\AppData\Local\Temp\cc4fyQdn.s 			page 64


 2391 006e 05FB1133 		mls	r3, r5, r1, r3
 2392              	.LVL100:
 2393              		.loc 2 91 61 view .LVU663
 2394              	.LBE622:
 2395              	.LBE639:
 2396              	.LBB640:
 2397              	.LBB634:
  69:../../libs/DaisySP/Source/Synthesis/oscillator.h ****         phase_inc_ = CalcPhaseInc(f);
 2398              		.loc 5 69 20 view .LVU664
 2399 0072 04F59C25 		add	r5, r4, #319488
 2400              	.LBE634:
 2401              	.LBE640:
 2402              	.LBB641:
 2403              	.LBB623:
 2404              		.loc 2 91 17 view .LVU665
 2405 0076 04EB8303 		add	r3, r4, r3, lsl #2
 2406              	.LBE623:
 2407              	.LBE641:
 2408              	.LBB642:
 2409              	.LBB635:
  69:../../libs/DaisySP/Source/Synthesis/oscillator.h ****         phase_inc_ = CalcPhaseInc(f);
 2410              		.loc 5 69 20 view .LVU666
 2411 007a 05F6E467 		addw	r7, r5, #3812
 2412              	.LBE635:
 2413              	.LBE642:
 2414              	.LBB643:
 2415              	.LBB624:
  92:../../libs/DaisySP/Source/Utility/delayline.h ****         return a + (b - a) * delay_fractional;
 2416              		.loc 2 92 23 view .LVU667
 2417 007e D3ED096A 		vldr.32	s13, [r3, #36]
 2418              	.LBE624:
 2419              	.LBE643:
 2420              	.LBB644:
 2421              	.LBB636:
  69:../../libs/DaisySP/Source/Synthesis/oscillator.h ****         phase_inc_ = CalcPhaseInc(f);
 2422              		.loc 5 69 20 view .LVU668
 2423 0082 87ED020A 		vstr.32	s0, [r7, #8]
 2424              	.LBE636:
 2425              	.LBE644:
 2426              	.LBB645:
 2427              	.LBB625:
 2428              		.loc 2 92 23 view .LVU669
 2429 0086 76EEC76A 		vsub.f32	s13, s13, s14
 2430              		.loc 2 92 30 view .LVU670
 2431 008a A7EEA67A 		vfma.f32	s14, s15, s13
 2432              	.LVL101:
 2433              		.loc 2 92 30 view .LVU671
 2434              	.LBE625:
 2435              	.LBE645:
  64:../../Classes/Effects/AnalogDelay/src/AnalogDelay.cpp **** 
 2436              		.loc 3 64 49 view .LVU672
 2437 008e 8DED047A 		vstr.32	s14, [sp, #16]
 2438              		.loc 3 66 5 is_stmt 1 view .LVU673
 2439              	.LVL102:
 2440              	.LBB646:
 2441              	.LBI632:
  67:../../libs/DaisySP/Source/Synthesis/oscillator.h ****     {
ARM GAS  C:\Users\skipi\AppData\Local\Temp\cc4fyQdn.s 			page 65


 2442              		.loc 5 67 17 view .LVU674
 2443              	.LBB637:
  69:../../libs/DaisySP/Source/Synthesis/oscillator.h ****         phase_inc_ = CalcPhaseInc(f);
 2444              		.loc 5 69 9 view .LVU675
  70:../../libs/DaisySP/Source/Synthesis/oscillator.h ****     }
 2445              		.loc 5 70 9 view .LVU676
  70:../../libs/DaisySP/Source/Synthesis/oscillator.h ****     }
 2446              		.loc 5 70 34 is_stmt 0 view .LVU677
 2447 0092 FFF7FEFF 		bl	_ZN7daisysp10Oscillator12CalcPhaseIncEf
 2448              	.LVL103:
  70:../../libs/DaisySP/Source/Synthesis/oscillator.h ****     }
 2449              		.loc 5 70 34 view .LVU678
 2450              	.LBE637:
 2451              	.LBE646:
  67:../../Classes/Effects/AnalogDelay/src/AnalogDelay.cpp ****     float lfo = _lfo.Process() * _depth; // Processa l'LFO per il pitch shifter
 2452              		.loc 3 67 29 view .LVU679
 2453 0096 3046     		mov	r0, r6
 2454              	.LBB647:
 2455              	.LBB638:
  70:../../libs/DaisySP/Source/Synthesis/oscillator.h ****     }
 2456              		.loc 5 70 20 view .LVU680
 2457 0098 87ED070A 		vstr.32	s0, [r7, #28]
 2458              	.LVL104:
  70:../../libs/DaisySP/Source/Synthesis/oscillator.h ****     }
 2459              		.loc 5 70 20 view .LVU681
 2460              	.LBE638:
 2461              	.LBE647:
 2462              		.loc 3 67 5 is_stmt 1 view .LVU682
 2463              		.loc 3 67 29 is_stmt 0 view .LVU683
 2464 009c FFF7FEFF 		bl	_ZN7daisysp10Oscillator7ProcessEv
 2465              	.LVL105:
  68:../../Classes/Effects/AnalogDelay/src/AnalogDelay.cpp ****     _ps.SetTransposition(lfo * 2.0f);  // Imposta la trasposizione a +- 5 semitoni
 2466              		.loc 3 68 5 is_stmt 1 view .LVU684
  67:../../Classes/Effects/AnalogDelay/src/AnalogDelay.cpp ****     float lfo = _lfo.Process() * _depth; // Processa l'LFO per il pitch shifter
 2467              		.loc 3 67 34 is_stmt 0 view .LVU685
 2468 00a0 D4ED047A 		vldr.32	s15, [r4, #16]
 2469              	.LBB648:
 2470              	.LBB649:
 151:../../libs/DaisySP/Source/Effects/pitchshifter.h ****         {
 2471              		.loc 1 151 12 view .LVU686
 2472 00a4 544B     		ldr	r3, .L58+12
 2473 00a6 04F53837 		add	r7, r4, #188416
 2474              	.LBE649:
 2475              	.LBE648:
  67:../../Classes/Effects/AnalogDelay/src/AnalogDelay.cpp ****     float lfo = _lfo.Process() * _depth; // Processa l'LFO per il pitch shifter
 2476              		.loc 3 67 34 view .LVU687
 2477 00aa 20EE270A 		vmul.f32	s0, s0, s15
 2478              	.LVL106:
 2479              		.loc 3 68 25 view .LVU688
 2480 00ae 534E     		ldr	r6, .L58+16
 2481              	.LBB653:
 2482              	.LBB650:
 151:../../libs/DaisySP/Source/Effects/pitchshifter.h ****         {
 2483              		.loc 1 151 12 view .LVU689
 2484 00b0 2344     		add	r3, r3, r4
 2485              	.LBE650:
 2486              	.LBE653:
ARM GAS  C:\Users\skipi\AppData\Local\Temp\cc4fyQdn.s 			page 66


 2487              		.loc 3 68 25 view .LVU690
 2488 00b2 2644     		add	r6, r6, r4
 2489              		.loc 3 68 30 view .LVU691
 2490 00b4 30EE000A 		vadd.f32	s0, s0, s0
 2491              	.LVL107:
 2492              	.LBB654:
 2493              	.LBI648:
 147:../../libs/DaisySP/Source/Effects/pitchshifter.h ****     {
 2494              		.loc 1 147 10 is_stmt 1 view .LVU692
 2495              	.LBB651:
 149:../../libs/DaisySP/Source/Effects/pitchshifter.h ****         uint8_t idx;
 2496              		.loc 1 149 9 view .LVU693
 150:../../libs/DaisySP/Source/Effects/pitchshifter.h ****         if(transpose_ != transpose || force_recalc_)
 2497              		.loc 1 150 9 view .LVU694
 151:../../libs/DaisySP/Source/Effects/pitchshifter.h ****         {
 2498              		.loc 1 151 9 view .LVU695
 2499 00b8 D3ED187A 		vldr.32	s15, [r3, #96]
 2500 00bc B4EE670A 		vcmp.f32	s0, s15
 2501 00c0 F1EE10FA 		vmrs	APSR_nzcv, FPSCR
 2502 00c4 03D1     		bne	.L49
 151:../../libs/DaisySP/Source/Effects/pitchshifter.h ****         {
 2503              		.loc 1 151 36 is_stmt 0 view .LVU696
 2504 00c6 95F8503E 		ldrb	r3, [r5, #3664]	@ zero_extendqisi2
 2505 00ca 002B     		cmp	r3, #0
 2506 00cc 62D0     		beq	.L50
 2507              	.L49:
 153:../../libs/DaisySP/Source/Effects/pitchshifter.h ****             idx        = (uint8_t)fabsf(transpose);
 2508              		.loc 1 153 13 is_stmt 1 view .LVU697
 154:../../libs/DaisySP/Source/Effects/pitchshifter.h ****             ratio      = semitone_ratios_[idx % 12];
 2509              		.loc 1 154 40 is_stmt 0 view .LVU698
 2510 00ce F0EEC07A 		vabs.f32	s15, s0
 155:../../libs/DaisySP/Source/Effects/pitchshifter.h ****             ratio *= (uint8_t)(fabsf(transpose) / 12) + 1;
 2511              		.loc 1 155 47 view .LVU699
 2512 00d2 4B4A     		ldr	r2, .L58+20
 156:../../libs/DaisySP/Source/Effects/pitchshifter.h ****             if(transpose > 0.0f)
 2513              		.loc 1 156 49 view .LVU700
 2514 00d4 B2EE086A 		vmov.f32	s12, #1.2e+1
 153:../../libs/DaisySP/Source/Effects/pitchshifter.h ****             idx        = (uint8_t)fabsf(transpose);
 2515              		.loc 1 153 24 view .LVU701
 2516 00d8 07F62C61 		addw	r1, r7, #3628
 165:../../libs/DaisySP/Source/Effects/pitchshifter.h ****             if(mod_freq_ < 0.0f)
 2517              		.loc 1 165 33 view .LVU702
 2518 00dc BFEE007A 		vmov.f32	s14, #-1.0e+0
 166:../../libs/DaisySP/Source/Effects/pitchshifter.h ****             {
 2519              		.loc 1 166 13 view .LVU703
 2520 00e0 DFED485A 		vldr.32	s11, .L58+24
 157:../../libs/DaisySP/Source/Effects/pitchshifter.h ****             {
 2521              		.loc 1 157 13 view .LVU704
 2522 00e4 B5EEC00A 		vcmpe.f32	s0, #0
 156:../../libs/DaisySP/Source/Effects/pitchshifter.h ****             if(transpose > 0.0f)
 2523              		.loc 1 156 49 view .LVU705
 2524 00e8 C7EE866A 		vdiv.f32	s13, s15, s12
 154:../../libs/DaisySP/Source/Effects/pitchshifter.h ****             ratio      = semitone_ratios_[idx % 12];
 2525              		.loc 1 154 24 view .LVU706
 2526 00ec FCEEE77A 		vcvt.u32.f32	s15, s15
 157:../../libs/DaisySP/Source/Effects/pitchshifter.h ****             {
 2527              		.loc 1 157 13 view .LVU707
ARM GAS  C:\Users\skipi\AppData\Local\Temp\cc4fyQdn.s 			page 67


 2528 00f0 F1EE10FA 		vmrs	APSR_nzcv, FPSCR
 154:../../libs/DaisySP/Source/Effects/pitchshifter.h ****             ratio      = semitone_ratios_[idx % 12];
 2529              		.loc 1 154 24 view .LVU708
 2530 00f4 CDED017A 		vstr.32	s15, [sp, #4]	@ int
 155:../../libs/DaisySP/Source/Effects/pitchshifter.h ****             ratio *= (uint8_t)(fabsf(transpose) / 12) + 1;
 2531              		.loc 1 155 47 view .LVU709
 2532 00f8 9DF80430 		ldrb	r3, [sp, #4]	@ zero_extendqisi2
 2533 00fc A2FB0302 		umull	r0, r2, r2, r3
 2534 0100 4FEAD202 		lsr	r2, r2, #3
 2535 0104 02EB4202 		add	r2, r2, r2, lsl #1
 156:../../libs/DaisySP/Source/Effects/pitchshifter.h ****             if(transpose > 0.0f)
 2536              		.loc 1 156 22 view .LVU710
 2537 0108 FCEEE67A 		vcvt.u32.f32	s15, s13
 155:../../libs/DaisySP/Source/Effects/pitchshifter.h ****             ratio *= (uint8_t)(fabsf(transpose) / 12) + 1;
 2538              		.loc 1 155 47 view .LVU711
 2539 010c A3EB8203 		sub	r3, r3, r2, lsl #2
 155:../../libs/DaisySP/Source/Effects/pitchshifter.h ****             ratio *= (uint8_t)(fabsf(transpose) / 12) + 1;
 2540              		.loc 1 155 24 view .LVU712
 2541 0110 48F22202 		movw	r2, #32802
 156:../../libs/DaisySP/Source/Effects/pitchshifter.h ****             if(transpose > 0.0f)
 2542              		.loc 1 156 22 view .LVU713
 2543 0114 CDED027A 		vstr.32	s15, [sp, #8]	@ int
 155:../../libs/DaisySP/Source/Effects/pitchshifter.h ****             ratio *= (uint8_t)(fabsf(transpose) / 12) + 1;
 2544              		.loc 1 155 24 view .LVU714
 2545 0118 52FA83F3 		uxtab	r3, r2, r3
 156:../../libs/DaisySP/Source/Effects/pitchshifter.h ****             if(transpose > 0.0f)
 2546              		.loc 1 156 22 view .LVU715
 2547 011c 9DF80820 		ldrb	r2, [sp, #8]	@ zero_extendqisi2
 155:../../libs/DaisySP/Source/Effects/pitchshifter.h ****             ratio *= (uint8_t)(fabsf(transpose) / 12) + 1;
 2548              		.loc 1 155 24 view .LVU716
 2549 0120 01EB8303 		add	r3, r1, r3, lsl #2
 156:../../libs/DaisySP/Source/Effects/pitchshifter.h ****             if(transpose > 0.0f)
 2550              		.loc 1 156 55 view .LVU717
 2551 0124 02F10102 		add	r2, r2, #1
 155:../../libs/DaisySP/Source/Effects/pitchshifter.h ****             ratio *= (uint8_t)(fabsf(transpose) / 12) + 1;
 2552              		.loc 1 155 24 view .LVU718
 2553 0128 93ED006A 		vldr.32	s12, [r3]
 153:../../libs/DaisySP/Source/Effects/pitchshifter.h ****             idx        = (uint8_t)fabsf(transpose);
 2554              		.loc 1 153 24 view .LVU719
 2555 012c 01F50033 		add	r3, r1, #131072
 156:../../libs/DaisySP/Source/Effects/pitchshifter.h ****             if(transpose > 0.0f)
 2556              		.loc 1 156 19 view .LVU720
 2557 0130 07EE902A 		vmov	s15, r2	@ int
 165:../../libs/DaisySP/Source/Effects/pitchshifter.h ****             if(mod_freq_ < 0.0f)
 2558              		.loc 1 165 48 view .LVU721
 2559 0134 D5F84C2E 		ldr	r2, [r5, #3660]
 165:../../libs/DaisySP/Source/Effects/pitchshifter.h ****             if(mod_freq_ < 0.0f)
 2560              		.loc 1 165 41 view .LVU722
 2561 0138 D3ED0A6A 		vldr.32	s13, [r3, #40]
 156:../../libs/DaisySP/Source/Effects/pitchshifter.h ****             if(transpose > 0.0f)
 2562              		.loc 1 156 19 view .LVU723
 2563 013c F8EEE77A 		vcvt.f32.s32	s15, s15
 153:../../libs/DaisySP/Source/Effects/pitchshifter.h ****             idx        = (uint8_t)fabsf(transpose);
 2564              		.loc 1 153 24 view .LVU724
 2565 0140 83ED180A 		vstr.32	s0, [r3, #96]
 154:../../libs/DaisySP/Source/Effects/pitchshifter.h ****             ratio      = semitone_ratios_[idx % 12];
 2566              		.loc 1 154 13 is_stmt 1 view .LVU725
ARM GAS  C:\Users\skipi\AppData\Local\Temp\cc4fyQdn.s 			page 68


 2567              	.LVL108:
 155:../../libs/DaisySP/Source/Effects/pitchshifter.h ****             ratio *= (uint8_t)(fabsf(transpose) / 12) + 1;
 2568              		.loc 1 155 13 view .LVU726
 156:../../libs/DaisySP/Source/Effects/pitchshifter.h ****             if(transpose > 0.0f)
 2569              		.loc 1 156 13 view .LVU727
 157:../../libs/DaisySP/Source/Effects/pitchshifter.h ****             {
 2570              		.loc 1 157 13 view .LVU728
 165:../../libs/DaisySP/Source/Effects/pitchshifter.h ****             if(mod_freq_ < 0.0f)
 2571              		.loc 1 165 33 is_stmt 0 view .LVU729
 2572 0144 A6EE277A 		vfma.f32	s14, s12, s15
 165:../../libs/DaisySP/Source/Effects/pitchshifter.h ****             if(mod_freq_ < 0.0f)
 2573              		.loc 1 165 41 view .LVU730
 2574 0148 67EE267A 		vmul.f32	s15, s14, s13
 165:../../libs/DaisySP/Source/Effects/pitchshifter.h ****             if(mod_freq_ < 0.0f)
 2575              		.loc 1 165 48 view .LVU731
 2576 014c 07EE102A 		vmov	s14, r2	@ int
 157:../../libs/DaisySP/Source/Effects/pitchshifter.h ****             {
 2577              		.loc 1 157 13 view .LVU732
 2578 0150 CCBF     		ite	gt
 2579 0152 0122     		movgt	r2, #1
 2580 0154 0022     		movle	r2, #0
 165:../../libs/DaisySP/Source/Effects/pitchshifter.h ****             if(mod_freq_ < 0.0f)
 2581              		.loc 1 165 48 view .LVU733
 2582 0156 B8EE477A 		vcvt.f32.u32	s14, s14
 157:../../libs/DaisySP/Source/Effects/pitchshifter.h ****             {
 2583              		.loc 1 157 13 view .LVU734
 2584 015a 85F8582E 		strb	r2, [r5, #3672]
 165:../../libs/DaisySP/Source/Effects/pitchshifter.h ****             if(mod_freq_ < 0.0f)
 2585              		.loc 1 165 13 is_stmt 1 view .LVU735
 166:../../libs/DaisySP/Source/Effects/pitchshifter.h ****             {
 2586              		.loc 1 166 13 view .LVU736
 165:../../libs/DaisySP/Source/Effects/pitchshifter.h ****             if(mod_freq_ < 0.0f)
 2587              		.loc 1 165 48 is_stmt 0 view .LVU737
 2588 015e 87EE870A 		vdiv.f32	s0, s15, s14
 166:../../libs/DaisySP/Source/Effects/pitchshifter.h ****             {
 2589              		.loc 1 166 13 view .LVU738
 2590 0162 B4EEE50A 		vcmpe.f32	s0, s11
 2591 0166 F1EE10FA 		vmrs	APSR_nzcv, FPSCR
 2592 016a 3AD4     		bmi	.L51
 165:../../libs/DaisySP/Source/Effects/pitchshifter.h ****             if(mod_freq_ < 0.0f)
 2593              		.loc 1 165 23 view .LVU739
 2594 016c 83ED070A 		vstr.32	s0, [r3, #28]
 2595              	.L52:
 170:../../libs/DaisySP/Source/Effects/pitchshifter.h ****             phs_[1].SetFreq(mod_freq_);
 2596              		.loc 1 170 13 is_stmt 1 view .LVU740
 170:../../libs/DaisySP/Source/Effects/pitchshifter.h ****             phs_[1].SetFreq(mod_freq_);
 2597              		.loc 1 170 28 is_stmt 0 view .LVU741
 2598 0170 2548     		ldr	r0, .L58+28
 2599 0172 3044     		add	r0, r0, r6
 2600 0174 FFF7FEFF 		bl	_ZN7daisysp6Phasor7SetFreqEf
 2601              	.LVL109:
 171:../../libs/DaisySP/Source/Effects/pitchshifter.h ****             if(force_recalc_)
 2602              		.loc 1 171 13 is_stmt 1 view .LVU742
 171:../../libs/DaisySP/Source/Effects/pitchshifter.h ****             if(force_recalc_)
 2603              		.loc 1 171 28 is_stmt 0 view .LVU743
 2604 0178 244B     		ldr	r3, .L58+32
 2605 017a 2548     		ldr	r0, .L58+36
ARM GAS  C:\Users\skipi\AppData\Local\Temp\cc4fyQdn.s 			page 69


 2606 017c 3B44     		add	r3, r3, r7
 2607 017e 3044     		add	r0, r0, r6
 2608 0180 93ED070A 		vldr.32	s0, [r3, #28]
 2609 0184 FFF7FEFF 		bl	_ZN7daisysp6Phasor7SetFreqEf
 2610              	.LVL110:
 172:../../libs/DaisySP/Source/Effects/pitchshifter.h ****             {
 2611              		.loc 1 172 13 is_stmt 1 view .LVU744
 2612 0188 95F8503E 		ldrb	r3, [r5, #3664]	@ zero_extendqisi2
 2613 018c 13B1     		cbz	r3, .L50
 174:../../libs/DaisySP/Source/Effects/pitchshifter.h ****             }
 2614              		.loc 1 174 17 view .LVU745
 174:../../libs/DaisySP/Source/Effects/pitchshifter.h ****             }
 2615              		.loc 1 174 31 is_stmt 0 view .LVU746
 2616 018e 0023     		movs	r3, #0
 2617 0190 85F8503E 		strb	r3, [r5, #3664]
 2618              	.L50:
 2619              	.LVL111:
 174:../../libs/DaisySP/Source/Effects/pitchshifter.h ****             }
 2620              		.loc 1 174 31 view .LVU747
 2621              	.LBE651:
 2622              	.LBE654:
  69:../../Classes/Effects/AnalogDelay/src/AnalogDelay.cpp ****     float delayed_shifted = _ps.Process(delayed);
 2623              		.loc 3 69 5 is_stmt 1 view .LVU748
 2624              		.loc 3 69 40 is_stmt 0 view .LVU749
 2625 0194 04A9     		add	r1, sp, #16
 2626 0196 3046     		mov	r0, r6
 2627 0198 FFF7FEFF 		bl	_ZN7daisysp12PitchShifter7ProcessERf
 2628              	.LVL112:
  70:../../Classes/Effects/AnalogDelay/src/AnalogDelay.cpp ****     
  71:../../Classes/Effects/AnalogDelay/src/AnalogDelay.cpp ****     // Mixa il segnale originale con quello ritardato usando il crossfade
  72:../../Classes/Effects/AnalogDelay/src/AnalogDelay.cpp ****     float buffer_out = _crossfade.Process(buffer_in, delayed_shifted);
 2629              		.loc 3 72 42 view .LVU750
 2630 019c 1D48     		ldr	r0, .L58+40
 2631 019e 05AA     		add	r2, sp, #20
 2632 01a0 03A9     		add	r1, sp, #12
 2633 01a2 2044     		add	r0, r0, r4
  69:../../Classes/Effects/AnalogDelay/src/AnalogDelay.cpp ****     float delayed_shifted = _ps.Process(delayed);
 2634              		.loc 3 69 48 view .LVU751
 2635 01a4 8DED050A 		vstr.32	s0, [sp, #20]
 2636              		.loc 3 72 5 is_stmt 1 view .LVU752
 2637              		.loc 3 72 42 is_stmt 0 view .LVU753
 2638 01a8 FFF7FEFF 		bl	_ZN7daisysp9CrossFade7ProcessERfS1_
 2639              	.LVL113:
  73:../../Classes/Effects/AnalogDelay/src/AnalogDelay.cpp ****     
  74:../../Classes/Effects/AnalogDelay/src/AnalogDelay.cpp ****     // Scrive nella linea di delay il nuovo campione pi il feedback
  75:../../Classes/Effects/AnalogDelay/src/AnalogDelay.cpp ****     _delayLine.Write(buffer_in + delayed_shifted * _feedback);
 2640              		.loc 3 75 5 is_stmt 1 view .LVU754
 2641              	.LBB655:
 2642              	.LBB656:
  72:../../libs/DaisySP/Source/Utility/delayline.h ****         write_ptr_        = (write_ptr_ - 1 + max_size) % max_size;
 2643              		.loc 2 72 15 is_stmt 0 view .LVU755
 2644 01ac E169     		ldr	r1, [r4, #28]
  73:../../libs/DaisySP/Source/Utility/delayline.h ****     }
 2645              		.loc 2 73 45 view .LVU756
 2646 01ae 4BF67F33 		movw	r3, #47999
 2647              	.LBE656:
 2648              	.LBE655:
ARM GAS  C:\Users\skipi\AppData\Local\Temp\cc4fyQdn.s 			page 70


 2649              		.loc 3 75 21 view .LVU757
 2650 01b2 D4ED026A 		vldr.32	s13, [r4, #8]
 2651 01b6 9DED057A 		vldr.32	s14, [sp, #20]
 2652              	.LBB660:
 2653              	.LBB657:
  73:../../libs/DaisySP/Source/Utility/delayline.h ****     }
 2654              		.loc 2 73 57 view .LVU758
 2655 01ba 4BF68030 		movw	r0, #48000
  73:../../libs/DaisySP/Source/Utility/delayline.h ****     }
 2656              		.loc 2 73 45 view .LVU759
 2657 01be 0B44     		add	r3, r3, r1
 2658              	.LBE657:
 2659              	.LBE660:
 2660              		.loc 3 75 21 view .LVU760
 2661 01c0 DDED037A 		vldr.32	s15, [sp, #12]
 2662              	.LBB661:
 2663              	.LBB658:
  73:../../libs/DaisySP/Source/Utility/delayline.h ****     }
 2664              		.loc 2 73 57 view .LVU761
 2665 01c4 0A4A     		ldr	r2, .L58+4
  72:../../libs/DaisySP/Source/Utility/delayline.h ****         write_ptr_        = (write_ptr_ - 1 + max_size) % max_size;
 2666              		.loc 2 72 27 view .LVU762
 2667 01c6 04EB8101 		add	r1, r4, r1, lsl #2
 2668              	.LBE658:
 2669              	.LBE661:
 2670              		.loc 3 75 21 view .LVU763
 2671 01ca E6EE877A 		vfma.f32	s15, s13, s14
 2672              	.LVL114:
 2673              	.LBB662:
 2674              	.LBI655:
  70:../../libs/DaisySP/Source/Utility/delayline.h ****     {
 2675              		.loc 2 70 17 is_stmt 1 view .LVU764
 2676              	.LBB659:
  73:../../libs/DaisySP/Source/Utility/delayline.h ****     }
 2677              		.loc 2 73 57 is_stmt 0 view .LVU765
 2678 01ce A2FB0352 		umull	r5, r2, r2, r3
 2679 01d2 920A     		lsrs	r2, r2, #10
 2680 01d4 00FB1233 		mls	r3, r0, r2, r3
  72:../../libs/DaisySP/Source/Utility/delayline.h ****         write_ptr_        = (write_ptr_ - 1 + max_size) % max_size;
 2681              		.loc 2 72 27 view .LVU766
 2682 01d8 C1ED097A 		vstr.32	s15, [r1, #36]
  73:../../libs/DaisySP/Source/Utility/delayline.h ****     }
 2683              		.loc 2 73 27 view .LVU767
 2684 01dc E361     		str	r3, [r4, #28]
 2685              	.LVL115:
  73:../../libs/DaisySP/Source/Utility/delayline.h ****     }
 2686              		.loc 2 73 27 view .LVU768
 2687              	.LBE659:
 2688              	.LBE662:
  76:../../Classes/Effects/AnalogDelay/src/AnalogDelay.cpp **** 
  77:../../Classes/Effects/AnalogDelay/src/AnalogDelay.cpp ****     return buffer_out; // Restituisce il campione processato
 2689              		.loc 3 77 5 is_stmt 1 view .LVU769
  78:../../Classes/Effects/AnalogDelay/src/AnalogDelay.cpp **** }
 2690              		.loc 3 78 1 is_stmt 0 view .LVU770
 2691 01de 07B0     		add	sp, sp, #28
 2692              		.cfi_remember_state
 2693              		.cfi_def_cfa_offset 20
ARM GAS  C:\Users\skipi\AppData\Local\Temp\cc4fyQdn.s 			page 71


 2694              		@ sp needed
 2695 01e0 F0BD     		pop	{r4, r5, r6, r7, pc}
 2696              	.LVL116:
 2697              	.L51:
 2698              		.cfi_restore_state
 2699              	.LBB663:
 2700              	.LBB652:
 168:../../libs/DaisySP/Source/Effects/pitchshifter.h ****             }
 2701              		.loc 1 168 17 is_stmt 1 view .LVU771
 2702 01e2 B0EE650A 		vmov.f32	s0, s11
 168:../../libs/DaisySP/Source/Effects/pitchshifter.h ****             }
 2703              		.loc 1 168 27 is_stmt 0 view .LVU772
 2704 01e6 C3ED075A 		vstr.32	s11, [r3, #28]
 2705 01ea C1E7     		b	.L52
 2706              	.L59:
 2707              		.align	2
 2708              	.L58:
 2709 01ec 00000000 		.word	.LANCHOR0
 2710 01f0 F1197605 		.word	91625969
 2711 01f4 E4EE0400 		.word	323300
 2712 01f8 2CEE0400 		.word	323116
 2713 01fc 2CEE0200 		.word	192044
 2714 0200 ABAAAAAA 		.word	-1431655765
 2715 0204 00000000 		.word	0
 2716 0208 30000200 		.word	131120
 2717 020c 2C0E0200 		.word	134700
 2718 0210 40000200 		.word	131136
 2719 0214 24EE0200 		.word	192036
 2720              	.LBE652:
 2721              	.LBE663:
 2722              		.cfi_endproc
 2723              	.LFE4852:
 2725              		.weak	_ZZN7daisysp6myrandEvE4seed
 2726              		.section	.data._ZZN7daisysp6myrandEvE4seed,"awG",%progbits,_ZZN7daisysp6myrandEvE4seed,comdat
 2727              		.align	2
 2730              	_ZZN7daisysp6myrandEvE4seed:
 2731 0000 01000000 		.word	1
 2732              		.section	.bss._ZL16currentDelayTime,"aw",%nobits
 2733              		.align	2
 2734              		.set	.LANCHOR0,. + 0
 2737              	_ZL16currentDelayTime:
 2738 0000 00000000 		.space	4
 2739              		.text
 2740              	.Letext0:
 2741              		.file 8 "c:\\program files\\daisytoolchain\\arm-none-eabi\\include\\machine\\_default_types.h"
 2742              		.file 9 "c:\\program files\\daisytoolchain\\arm-none-eabi\\include\\sys\\_stdint.h"
 2743              		.file 10 "c:\\program files\\daisytoolchain\\arm-none-eabi\\include\\stdint.h"
 2744              		.file 11 "c:\\program files\\daisytoolchain\\lib\\gcc\\arm-none-eabi\\10.2.1\\include\\stddef.h"
 2745              		.file 12 "c:\\program files\\daisytoolchain\\arm-none-eabi\\include\\c++\\10.2.1\\cmath"
 2746              		.file 13 "c:\\program files\\daisytoolchain\\arm-none-eabi\\include\\c++\\10.2.1\\bits\\std_abs.h"
 2747              		.file 14 "c:\\program files\\daisytoolchain\\arm-none-eabi\\include\\c++\\10.2.1\\cstdlib"
 2748              		.file 15 "c:\\program files\\daisytoolchain\\arm-none-eabi\\include\\c++\\10.2.1\\cstdint"
 2749              		.file 16 "c:\\program files\\daisytoolchain\\arm-none-eabi\\include\\c++\\10.2.1\\type_traits"
 2750              		.file 17 "c:\\program files\\daisytoolchain\\arm-none-eabi\\include\\c++\\10.2.1\\debug\\debug.h"
 2751              		.file 18 "c:\\program files\\daisytoolchain\\arm-none-eabi\\include\\c++\\10.2.1\\arm-none-eabi\\t
 2752              		.file 19 "c:\\program files\\daisytoolchain\\arm-none-eabi\\include\\c++\\10.2.1\\bits\\algorithmf
 2753              		.file 20 "c:\\program files\\daisytoolchain\\arm-none-eabi\\include\\c++\\10.2.1\\bits\\stl_pair.h
ARM GAS  C:\Users\skipi\AppData\Local\Temp\cc4fyQdn.s 			page 72


 2754              		.file 21 "c:\\program files\\daisytoolchain\\arm-none-eabi\\include\\c++\\10.2.1\\bits\\exception_
 2755              		.file 22 "c:\\program files\\daisytoolchain\\arm-none-eabi\\include\\c++\\10.2.1\\cstdarg"
 2756              		.file 23 "c:\\program files\\daisytoolchain\\arm-none-eabi\\include\\c++\\10.2.1\\cstdio"
 2757              		.file 24 "c:\\program files\\daisytoolchain\\arm-none-eabi\\include\\c++\\10.2.1\\cstring"
 2758              		.file 25 "c:\\program files\\daisytoolchain\\arm-none-eabi\\include\\c++\\10.2.1\\cwchar"
 2759              		.file 26 "c:\\program files\\daisytoolchain\\arm-none-eabi\\include\\c++\\10.2.1\\clocale"
 2760              		.file 27 "c:\\program files\\daisytoolchain\\arm-none-eabi\\include\\c++\\10.2.1\\bits\\basic_stri
 2761              		.file 28 "c:\\program files\\daisytoolchain\\arm-none-eabi\\include\\c++\\10.2.1\\bits\\stl_tempbu
 2762              		.file 29 "c:\\program files\\daisytoolchain\\arm-none-eabi\\include\\c++\\10.2.1\\bits\\predefined
 2763              		.file 30 "c:\\program files\\daisytoolchain\\arm-none-eabi\\include\\sys\\_types.h"
 2764              		.file 31 "c:\\program files\\daisytoolchain\\arm-none-eabi\\include\\sys\\reent.h"
 2765              		.file 32 "c:\\program files\\daisytoolchain\\arm-none-eabi\\include\\sys\\lock.h"
 2766              		.file 33 "c:\\program files\\daisytoolchain\\arm-none-eabi\\include\\math.h"
 2767              		.file 34 "c:\\program files\\daisytoolchain\\arm-none-eabi\\include\\stdlib.h"
 2768              		.file 35 "c:\\program files\\daisytoolchain\\arm-none-eabi\\include\\c++\\10.2.1\\math.h"
 2769              		.file 36 "c:\\program files\\daisytoolchain\\arm-none-eabi\\include\\c++\\10.2.1\\stdlib.h"
 2770              		.file 37 "../../libs/libDaisy/src/daisy_core.h"
 2771              		.file 38 "../../libs/libDaisy/src/util/wav_format.h"
 2772              		.file 39 "../../libs/libDaisy/src/dev/sr_595.h"
 2773              		.file 40 "../../libs/libDaisy/src/dev/max11300.h"
 2774              		.file 41 "../../libs/libDaisy/src/daisy_seed.h"
 2775              		.file 42 "c:\\program files\\daisytoolchain\\lib\\gcc\\arm-none-eabi\\10.2.1\\include\\stdarg.h"
 2776              		.file 43 "c:\\program files\\daisytoolchain\\arm-none-eabi\\include\\stdio.h"
 2777              		.file 44 "c:\\program files\\daisytoolchain\\arm-none-eabi\\include\\string.h"
 2778              		.file 45 "../../libs/DaisySP/Source/Control/adenv.h"
 2779              		.file 46 "c:\\program files\\daisytoolchain\\arm-none-eabi\\include\\wchar.h"
 2780              		.file 47 "c:\\program files\\daisytoolchain\\arm-none-eabi\\include\\locale.h"
 2781              		.file 48 "../../Classes/Effects/AnalogDelay/src/AnalogDelay.h"
 2782              		.file 49 "<built-in>"
ARM GAS  C:\Users\skipi\AppData\Local\Temp\cc4fyQdn.s 			page 73

