ARM GAS  C:\Users\skipi\AppData\Local\Temp\ccz2JNsr.s 			page 1


   1              		.cpu cortex-m7
   2              		.eabi_attribute 28, 1
   3              		.eabi_attribute 20, 1
   4              		.eabi_attribute 21, 1
   5              		.eabi_attribute 23, 3
   6              		.eabi_attribute 24, 1
   7              		.eabi_attribute 25, 1
   8              		.eabi_attribute 26, 1
   9              		.eabi_attribute 30, 2
  10              		.eabi_attribute 34, 1
  11              		.eabi_attribute 18, 4
  12              		.file	"IIR.cpp"
  13              		.text
  14              	.Ltext0:
  15              		.cfi_sections	.debug_frame
  16              		.section	.text._ZN3IIRC2Ev,"ax",%progbits
  17              		.align	1
  18              		.p2align 2,,3
  19              		.global	_ZN3IIRC2Ev
  20              		.arch armv7e-m
  21              		.syntax unified
  22              		.thumb
  23              		.thumb_func
  24              		.fpu fpv5-d16
  26              	_ZN3IIRC2Ev:
  27              	.LVL0:
  28              	.LFB4841:
  29              		.file 1 "../../Classes/SensorFilters/IIR/IIR.cpp"
   1:../../Classes/SensorFilters/IIR/IIR.cpp **** #include "../../libs/libDaisy/src/daisy_seed.h"
   2:../../Classes/SensorFilters/IIR/IIR.cpp **** #include "../../libs/DaisySP/Source/daisysp.h"
   3:../../Classes/SensorFilters/IIR/IIR.cpp **** #include "iir.h"
   4:../../Classes/SensorFilters/IIR/IIR.cpp **** 
   5:../../Classes/SensorFilters/IIR/IIR.cpp **** 
   6:../../Classes/SensorFilters/IIR/IIR.cpp **** IIR::IIR() {}
  30              		.loc 1 6 1 view -0
  31              		.cfi_startproc
  32              		@ args = 0, pretend = 0, frame = 0
  33              		@ frame_needed = 0, uses_anonymous_args = 0
  34              	.LBB2:
  35              		.loc 1 6 10 is_stmt 0 view .LVU1
  36 0000 154A     		ldr	r2, .L4
  37              	.LBE2:
  38              		.loc 1 6 1 view .LVU2
  39 0002 0346     		mov	r3, r0
  40              	.LBB3:
  41              		.loc 1 6 10 view .LVU3
  42 0004 1549     		ldr	r1, .L4+4
  43 0006 00F1080C 		add	ip, r0, #8
  44              	.LBE3:
  45              		.loc 1 6 1 view .LVU4
  46 000a 2DE9F047 		push	{r4, r5, r6, r7, r8, r9, r10, lr}
  47              		.cfi_def_cfa_offset 32
  48              		.cfi_offset 4, -32
  49              		.cfi_offset 5, -28
  50              		.cfi_offset 6, -24
  51              		.cfi_offset 7, -20
  52              		.cfi_offset 8, -16
ARM GAS  C:\Users\skipi\AppData\Local\Temp\ccz2JNsr.s 			page 2


  53              		.cfi_offset 9, -12
  54              		.cfi_offset 10, -8
  55              		.cfi_offset 14, -4
  56              	.LBB4:
  57              		.loc 1 6 10 view .LVU5
  58 000e 4160     		str	r1, [r0, #4]	@ float
  59 0010 02F10C08 		add	r8, r2, #12
  60 0014 00F11407 		add	r7, r0, #20
  61 0018 02F11806 		add	r6, r2, #24
  62 001c 00F12805 		add	r5, r0, #40
  63 0020 02F1240E 		add	lr, r2, #36
  64 0024 0024     		movs	r4, #0
  65 0026 07CA     		ldm	r2, {r0, r1, r2}
  66              	.LVL1:
  67              		.loc 1 6 10 view .LVU6
  68 0028 8CE80700 		stm	ip, {r0, r1, r2}
  69 002c 98E80700 		ldm	r8, {r0, r1, r2}
  70 0030 87E80700 		stm	r7, {r0, r1, r2}
  71 0034 96E80700 		ldm	r6, {r0, r1, r2}
  72 0038 C3E90844 		strd	r4, r4, [r3, #32]
  73 003c 03F1340C 		add	ip, r3, #52
  74 0040 85E80700 		stm	r5, {r0, r1, r2}
  75 0044 9EE80700 		ldm	lr, {r0, r1, r2}
  76 0048 8CE80700 		stm	ip, {r0, r1, r2}
  77              	.LBE4:
  78              		.loc 1 6 13 view .LVU7
  79 004c 1846     		mov	r0, r3
  80              	.LBB5:
  81              		.loc 1 6 10 view .LVU8
  82 004e 1C64     		str	r4, [r3, #64]
  83 0050 5C64     		str	r4, [r3, #68]
  84              	.LBE5:
  85              		.loc 1 6 13 view .LVU9
  86 0052 BDE8F087 		pop	{r4, r5, r6, r7, r8, r9, r10, pc}
  87              	.L5:
  88 0056 00BF     		.align	2
  89              	.L4:
  90 0058 00000000 		.word	.LANCHOR0
  91 005c 0000C842 		.word	1120403456
  92              		.cfi_endproc
  93              	.LFE4841:
  95              		.global	_ZN3IIRC1Ev
  96              		.thumb_set _ZN3IIRC1Ev,_ZN3IIRC2Ev
  97              		.section	.text._ZN3IIRD2Ev,"ax",%progbits
  98              		.align	1
  99              		.p2align 2,,3
 100              		.global	_ZN3IIRD2Ev
 101              		.syntax unified
 102              		.thumb
 103              		.thumb_func
 104              		.fpu fpv5-d16
 106              	_ZN3IIRD2Ev:
 107              	.LVL2:
 108              	.LFB4844:
   7:../../Classes/SensorFilters/IIR/IIR.cpp **** IIR::~IIR() {}
 109              		.loc 1 7 1 is_stmt 1 view -0
 110              		.cfi_startproc
ARM GAS  C:\Users\skipi\AppData\Local\Temp\ccz2JNsr.s 			page 3


 111              		@ args = 0, pretend = 0, frame = 0
 112              		@ frame_needed = 0, uses_anonymous_args = 0
 113              		@ link register save eliminated.
 114              		.loc 1 7 14 is_stmt 0 view .LVU11
 115 0000 7047     		bx	lr
 116              		.cfi_endproc
 117              	.LFE4844:
 119              		.global	_ZN3IIRD1Ev
 120              		.thumb_set _ZN3IIRD1Ev,_ZN3IIRD2Ev
 121 0002 00BF     		.section	.text._ZN3IIR4InitENS_10FilterTypeE,"ax",%progbits
 122              		.align	1
 123              		.p2align 2,,3
 124              		.global	_ZN3IIR4InitENS_10FilterTypeE
 125              		.syntax unified
 126              		.thumb
 127              		.thumb_func
 128              		.fpu fpv5-d16
 130              	_ZN3IIR4InitENS_10FilterTypeE:
 131              	.LVL3:
 132              	.LFB4846:
   8:../../Classes/SensorFilters/IIR/IIR.cpp **** 
   9:../../Classes/SensorFilters/IIR/IIR.cpp **** void IIR::Init(FilterType filter_type) {
 133              		.loc 1 9 40 is_stmt 1 view -0
 134              		.cfi_startproc
 135              		@ args = 0, pretend = 0, frame = 0
 136              		@ frame_needed = 0, uses_anonymous_args = 0
 137              		@ link register save eliminated.
  10:../../Classes/SensorFilters/IIR/IIR.cpp ****     _filterType = filter_type;
 138              		.loc 1 10 5 view .LVU13
 139              	.LBB6:
  11:../../Classes/SensorFilters/IIR/IIR.cpp **** 
  12:../../Classes/SensorFilters/IIR/IIR.cpp ****     
  13:../../Classes/SensorFilters/IIR/IIR.cpp ****     for (int i = 0; i < _BesselORDER; i++) {
  14:../../Classes/SensorFilters/IIR/IIR.cpp ****         _Bessel_buff[i] = 0.0f;
 140              		.loc 1 14 25 is_stmt 0 view .LVU14
 141 0000 0023     		movs	r3, #0
 142              	.LBE6:
  10:../../Classes/SensorFilters/IIR/IIR.cpp ****     _filterType = filter_type;
 143              		.loc 1 10 17 view .LVU15
 144 0002 0170     		strb	r1, [r0]
  13:../../Classes/SensorFilters/IIR/IIR.cpp ****         _Bessel_buff[i] = 0.0f;
 145              		.loc 1 13 5 is_stmt 1 view .LVU16
 146              	.LVL4:
 147              	.LBB7:
  13:../../Classes/SensorFilters/IIR/IIR.cpp ****         _Bessel_buff[i] = 0.0f;
 148              		.loc 1 13 23 view .LVU17
 149              		.loc 1 14 9 view .LVU18
 150              		.loc 1 14 25 is_stmt 0 view .LVU19
 151 0004 0364     		str	r3, [r0, #64]	@ float
  13:../../Classes/SensorFilters/IIR/IIR.cpp ****         _Bessel_buff[i] = 0.0f;
 152              		.loc 1 13 5 is_stmt 1 view .LVU20
 153              	.LVL5:
  13:../../Classes/SensorFilters/IIR/IIR.cpp ****         _Bessel_buff[i] = 0.0f;
 154              		.loc 1 13 23 view .LVU21
 155              		.loc 1 14 9 view .LVU22
 156              		.loc 1 14 25 is_stmt 0 view .LVU23
 157 0006 4364     		str	r3, [r0, #68]	@ float
ARM GAS  C:\Users\skipi\AppData\Local\Temp\ccz2JNsr.s 			page 4


  13:../../Classes/SensorFilters/IIR/IIR.cpp ****         _Bessel_buff[i] = 0.0f;
 158              		.loc 1 13 5 is_stmt 1 view .LVU24
 159              	.LVL6:
  13:../../Classes/SensorFilters/IIR/IIR.cpp ****         _Bessel_buff[i] = 0.0f;
 160              		.loc 1 13 23 view .LVU25
  13:../../Classes/SensorFilters/IIR/IIR.cpp ****         _Bessel_buff[i] = 0.0f;
 161              		.loc 1 13 23 is_stmt 0 view .LVU26
 162              	.LBE7:
 163              	.LBB8:
  15:../../Classes/SensorFilters/IIR/IIR.cpp ****     }
  16:../../Classes/SensorFilters/IIR/IIR.cpp **** 
  17:../../Classes/SensorFilters/IIR/IIR.cpp ****     for (int i = 0; i < _ButterORDER; i++) {
 164              		.loc 1 17 23 is_stmt 1 view .LVU27
  18:../../Classes/SensorFilters/IIR/IIR.cpp ****         _Butter_buff[i] = 0.0f;
 165              		.loc 1 18 9 view .LVU28
 166              		.loc 1 18 25 is_stmt 0 view .LVU29
 167 0008 0362     		str	r3, [r0, #32]	@ float
  17:../../Classes/SensorFilters/IIR/IIR.cpp ****         _Butter_buff[i] = 0.0f;
 168              		.loc 1 17 5 is_stmt 1 view .LVU30
 169              	.LVL7:
  17:../../Classes/SensorFilters/IIR/IIR.cpp ****         _Butter_buff[i] = 0.0f;
 170              		.loc 1 17 23 view .LVU31
 171              		.loc 1 18 9 view .LVU32
 172              		.loc 1 18 25 is_stmt 0 view .LVU33
 173 000a 4362     		str	r3, [r0, #36]	@ float
  17:../../Classes/SensorFilters/IIR/IIR.cpp ****         _Butter_buff[i] = 0.0f;
 174              		.loc 1 17 5 is_stmt 1 view .LVU34
 175              	.LVL8:
  17:../../Classes/SensorFilters/IIR/IIR.cpp ****         _Butter_buff[i] = 0.0f;
 176              		.loc 1 17 23 view .LVU35
 177              	.LBE8:
  19:../../Classes/SensorFilters/IIR/IIR.cpp ****     }
  20:../../Classes/SensorFilters/IIR/IIR.cpp **** }
 178              		.loc 1 20 1 is_stmt 0 view .LVU36
 179 000c 7047     		bx	lr
 180              		.cfi_endproc
 181              	.LFE4846:
 183 000e 00BF     		.section	.text._ZN3IIR7ProcessEf,"ax",%progbits
 184              		.align	1
 185              		.p2align 2,,3
 186              		.global	_ZN3IIR7ProcessEf
 187              		.syntax unified
 188              		.thumb
 189              		.thumb_func
 190              		.fpu fpv5-d16
 192              	_ZN3IIR7ProcessEf:
 193              	.LVL9:
 194              	.LFB4847:
  21:../../Classes/SensorFilters/IIR/IIR.cpp **** 
  22:../../Classes/SensorFilters/IIR/IIR.cpp **** float IIR::Process(float in) {
 195              		.loc 1 22 30 is_stmt 1 view -0
 196              		.cfi_startproc
 197              		@ args = 0, pretend = 0, frame = 0
 198              		@ frame_needed = 0, uses_anonymous_args = 0
 199              		@ link register save eliminated.
  23:../../Classes/SensorFilters/IIR/IIR.cpp ****     float out = 0.0f;
 200              		.loc 1 23 5 view .LVU38
ARM GAS  C:\Users\skipi\AppData\Local\Temp\ccz2JNsr.s 			page 5


  24:../../Classes/SensorFilters/IIR/IIR.cpp ****     float wn;                         // Nodo intermedio (Direct Form II)
 201              		.loc 1 24 5 view .LVU39
  25:../../Classes/SensorFilters/IIR/IIR.cpp **** 
  26:../../Classes/SensorFilters/IIR/IIR.cpp **** 
  27:../../Classes/SensorFilters/IIR/IIR.cpp ****     switch (_filterType) {
 202              		.loc 1 27 5 view .LVU40
 203              		.loc 1 27 13 is_stmt 0 view .LVU41
 204 0000 0378     		ldrb	r3, [r0]	@ zero_extendqisi2
 205              		.loc 1 27 5 view .LVU42
 206 0002 2BB3     		cbz	r3, .L9
 207 0004 012B     		cmp	r3, #1
 208 0006 20D1     		bne	.L11
  28:../../Classes/SensorFilters/IIR/IIR.cpp ****         case Butterworth:
 209              		.loc 1 28 9 is_stmt 1 view .LVU43
  29:../../Classes/SensorFilters/IIR/IIR.cpp ****             wn = in - (_butter_a[1] * _Butter_buff[0] + _butter_a[2] * _Butter_buff[1]);
 210              		.loc 1 29 13 view .LVU44
 211              		.loc 1 29 86 is_stmt 0 view .LVU45
 212 0008 90ED096A 		vldr.32	s12, [r0, #36]
 213              		.loc 1 29 70 view .LVU46
 214 000c 90ED077A 		vldr.32	s14, [r0, #28]
 215              		.loc 1 29 53 view .LVU47
 216 0010 D0ED086A 		vldr.32	s13, [r0, #32]
 217              		.loc 1 29 70 view .LVU48
 218 0014 26EE077A 		vmul.f32	s14, s12, s14
 219              		.loc 1 29 55 view .LVU49
 220 0018 D0ED064A 		vldr.32	s9, [r0, #24]
  30:../../Classes/SensorFilters/IIR/IIR.cpp ****             out = _butter_b[0] * wn + _butter_b[1] * _Butter_buff[0] + _butter_b[2] * _Butter_buff[
 221              		.loc 1 30 52 view .LVU50
 222 001c D0ED037A 		vldr.32	s15, [r0, #12]
 223              		.loc 1 30 37 view .LVU51
 224 0020 90ED025A 		vldr.32	s10, [r0, #8]
  29:../../Classes/SensorFilters/IIR/IIR.cpp ****             wn = in - (_butter_a[1] * _Butter_buff[0] + _butter_a[2] * _Butter_buff[1]);
 225              		.loc 1 29 55 view .LVU52
 226 0024 A4EEA67A 		vfma.f32	s14, s9, s13
 227              		.loc 1 30 17 view .LVU53
 228 0028 D0ED045A 		vldr.32	s11, [r0, #16]
 229              		.loc 1 30 52 view .LVU54
 230 002c 66EEA77A 		vmul.f32	s15, s13, s15
  31:../../Classes/SensorFilters/IIR/IIR.cpp ****             _Butter_buff[1] = _Butter_buff[0];
 231              		.loc 1 31 29 view .LVU55
 232 0030 C0ED096A 		vstr.32	s13, [r0, #36]
  29:../../Classes/SensorFilters/IIR/IIR.cpp ****             wn = in - (_butter_a[1] * _Butter_buff[0] + _butter_a[2] * _Butter_buff[1]);
 233              		.loc 1 29 16 view .LVU56
 234 0034 30EE477A 		vsub.f32	s14, s0, s14
 235              	.LVL10:
  30:../../Classes/SensorFilters/IIR/IIR.cpp ****             out = _butter_b[0] * wn + _butter_b[1] * _Butter_buff[0] + _butter_b[2] * _Butter_buff[
 236              		.loc 1 30 13 is_stmt 1 view .LVU57
  30:../../Classes/SensorFilters/IIR/IIR.cpp ****             out = _butter_b[0] * wn + _butter_b[1] * _Butter_buff[0] + _butter_b[2] * _Butter_buff[
 237              		.loc 1 30 37 is_stmt 0 view .LVU58
 238 0038 E5EE077A 		vfma.f32	s15, s10, s14
  32:../../Classes/SensorFilters/IIR/IIR.cpp ****             _Butter_buff[0] = wn;
 239              		.loc 1 32 29 view .LVU59
 240 003c 80ED087A 		vstr.32	s14, [r0, #32]
  30:../../Classes/SensorFilters/IIR/IIR.cpp ****             out = _butter_b[0] * wn + _butter_b[1] * _Butter_buff[0] + _butter_b[2] * _Butter_buff[
 241              		.loc 1 30 37 view .LVU60
 242 0040 B0EE670A 		vmov.f32	s0, s15
 243              	.LVL11:
ARM GAS  C:\Users\skipi\AppData\Local\Temp\ccz2JNsr.s 			page 6


  30:../../Classes/SensorFilters/IIR/IIR.cpp ****             out = _butter_b[0] * wn + _butter_b[1] * _Butter_buff[0] + _butter_b[2] * _Butter_buff[
 244              		.loc 1 30 17 view .LVU61
 245 0044 A6EE250A 		vfma.f32	s0, s12, s11
 246              	.LVL12:
  31:../../Classes/SensorFilters/IIR/IIR.cpp ****             _Butter_buff[1] = _Butter_buff[0];
 247              		.loc 1 31 13 is_stmt 1 view .LVU62
 248              		.loc 1 32 13 view .LVU63
  33:../../Classes/SensorFilters/IIR/IIR.cpp ****             break;
 249              		.loc 1 33 13 view .LVU64
 250 0048 7047     		bx	lr
 251              	.LVL13:
 252              	.L11:
  27:../../Classes/SensorFilters/IIR/IIR.cpp ****         case Butterworth:
 253              		.loc 1 27 5 is_stmt 0 view .LVU65
 254 004a 9FED120A 		vldr.32	s0, .L12
 255              	.LVL14:
  34:../../Classes/SensorFilters/IIR/IIR.cpp **** 
  35:../../Classes/SensorFilters/IIR/IIR.cpp ****         case Bessel:
  36:../../Classes/SensorFilters/IIR/IIR.cpp ****             wn = in - (_bessel_a[1] * _Bessel_buff[0] + _bessel_a[2] * _Bessel_buff[1]);
  37:../../Classes/SensorFilters/IIR/IIR.cpp ****             out = _bessel_b[0] * wn + _bessel_b[1] * _Bessel_buff[0] + _bessel_b[2] * _Bessel_buff[
  38:../../Classes/SensorFilters/IIR/IIR.cpp ****             _Bessel_buff[1] = _Bessel_buff[0];
  39:../../Classes/SensorFilters/IIR/IIR.cpp ****             _Bessel_buff[0] = wn;
  40:../../Classes/SensorFilters/IIR/IIR.cpp ****             break;
  41:../../Classes/SensorFilters/IIR/IIR.cpp ****     }
  42:../../Classes/SensorFilters/IIR/IIR.cpp ****     return out;
 256              		.loc 1 42 5 is_stmt 1 view .LVU66
  43:../../Classes/SensorFilters/IIR/IIR.cpp **** }...
 257              		.loc 1 43 1 is_stmt 0 view .LVU67
 258 004e 7047     		bx	lr
 259              	.LVL15:
 260              	.L9:
  35:../../Classes/SensorFilters/IIR/IIR.cpp ****         case Bessel:
 261              		.loc 1 35 9 is_stmt 1 view .LVU68
  36:../../Classes/SensorFilters/IIR/IIR.cpp ****             wn = in - (_bessel_a[1] * _Bessel_buff[0] + _bessel_a[2] * _Bessel_buff[1]);
 262              		.loc 1 36 13 view .LVU69
  36:../../Classes/SensorFilters/IIR/IIR.cpp ****             wn = in - (_bessel_a[1] * _Bessel_buff[0] + _bessel_a[2] * _Bessel_buff[1]);
 263              		.loc 1 36 86 is_stmt 0 view .LVU70
 264 0050 90ED116A 		vldr.32	s12, [r0, #68]
  36:../../Classes/SensorFilters/IIR/IIR.cpp ****             wn = in - (_bessel_a[1] * _Bessel_buff[0] + _bessel_a[2] * _Bessel_buff[1]);
 265              		.loc 1 36 70 view .LVU71
 266 0054 90ED0F7A 		vldr.32	s14, [r0, #60]
  36:../../Classes/SensorFilters/IIR/IIR.cpp ****             wn = in - (_bessel_a[1] * _Bessel_buff[0] + _bessel_a[2] * _Bessel_buff[1]);
 267              		.loc 1 36 53 view .LVU72
 268 0058 D0ED106A 		vldr.32	s13, [r0, #64]
  36:../../Classes/SensorFilters/IIR/IIR.cpp ****             wn = in - (_bessel_a[1] * _Bessel_buff[0] + _bessel_a[2] * _Bessel_buff[1]);
 269              		.loc 1 36 70 view .LVU73
 270 005c 26EE077A 		vmul.f32	s14, s12, s14
  36:../../Classes/SensorFilters/IIR/IIR.cpp ****             wn = in - (_bessel_a[1] * _Bessel_buff[0] + _bessel_a[2] * _Bessel_buff[1]);
 271              		.loc 1 36 55 view .LVU74
 272 0060 D0ED0E4A 		vldr.32	s9, [r0, #56]
  37:../../Classes/SensorFilters/IIR/IIR.cpp ****             out = _bessel_b[0] * wn + _bessel_b[1] * _Bessel_buff[0] + _bessel_b[2] * _Bessel_buff[
 273              		.loc 1 37 52 view .LVU75
 274 0064 D0ED0B7A 		vldr.32	s15, [r0, #44]
  37:../../Classes/SensorFilters/IIR/IIR.cpp ****             out = _bessel_b[0] * wn + _bessel_b[1] * _Bessel_buff[0] + _bessel_b[2] * _Bessel_buff[
 275              		.loc 1 37 37 view .LVU76
 276 0068 90ED0A5A 		vldr.32	s10, [r0, #40]
  36:../../Classes/SensorFilters/IIR/IIR.cpp ****             wn = in - (_bessel_a[1] * _Bessel_buff[0] + _bessel_a[2] * _Bessel_buff[1]);
ARM GAS  C:\Users\skipi\AppData\Local\Temp\ccz2JNsr.s 			page 7


 277              		.loc 1 36 55 view .LVU77
 278 006c A4EEA67A 		vfma.f32	s14, s9, s13
  37:../../Classes/SensorFilters/IIR/IIR.cpp ****             out = _bessel_b[0] * wn + _bessel_b[1] * _Bessel_buff[0] + _bessel_b[2] * _Bessel_buff[
 279              		.loc 1 37 17 view .LVU78
 280 0070 D0ED0C5A 		vldr.32	s11, [r0, #48]
  37:../../Classes/SensorFilters/IIR/IIR.cpp ****             out = _bessel_b[0] * wn + _bessel_b[1] * _Bessel_buff[0] + _bessel_b[2] * _Bessel_buff[
 281              		.loc 1 37 52 view .LVU79
 282 0074 66EEA77A 		vmul.f32	s15, s13, s15
  38:../../Classes/SensorFilters/IIR/IIR.cpp ****             _Bessel_buff[1] = _Bessel_buff[0];
 283              		.loc 1 38 29 view .LVU80
 284 0078 C0ED116A 		vstr.32	s13, [r0, #68]
  36:../../Classes/SensorFilters/IIR/IIR.cpp ****             wn = in - (_bessel_a[1] * _Bessel_buff[0] + _bessel_a[2] * _Bessel_buff[1]);
 285              		.loc 1 36 16 view .LVU81
 286 007c 30EE477A 		vsub.f32	s14, s0, s14
 287              	.LVL16:
  37:../../Classes/SensorFilters/IIR/IIR.cpp ****             out = _bessel_b[0] * wn + _bessel_b[1] * _Bessel_buff[0] + _bessel_b[2] * _Bessel_buff[
 288              		.loc 1 37 13 is_stmt 1 view .LVU82
  37:../../Classes/SensorFilters/IIR/IIR.cpp ****             out = _bessel_b[0] * wn + _bessel_b[1] * _Bessel_buff[0] + _bessel_b[2] * _Bessel_buff[
 289              		.loc 1 37 37 is_stmt 0 view .LVU83
 290 0080 E5EE077A 		vfma.f32	s15, s10, s14
  39:../../Classes/SensorFilters/IIR/IIR.cpp ****             _Bessel_buff[0] = wn;
 291              		.loc 1 39 29 view .LVU84
 292 0084 80ED107A 		vstr.32	s14, [r0, #64]
  37:../../Classes/SensorFilters/IIR/IIR.cpp ****             out = _bessel_b[0] * wn + _bessel_b[1] * _Bessel_buff[0] + _bessel_b[2] * _Bessel_buff[
 293              		.loc 1 37 37 view .LVU85
 294 0088 B0EE670A 		vmov.f32	s0, s15
 295              	.LVL17:
  37:../../Classes/SensorFilters/IIR/IIR.cpp ****             out = _bessel_b[0] * wn + _bessel_b[1] * _Bessel_buff[0] + _bessel_b[2] * _Bessel_buff[
 296              		.loc 1 37 17 view .LVU86
 297 008c A6EE250A 		vfma.f32	s0, s12, s11
 298              	.LVL18:
  38:../../Classes/SensorFilters/IIR/IIR.cpp ****             _Bessel_buff[1] = _Bessel_buff[0];
 299              		.loc 1 38 13 is_stmt 1 view .LVU87
  39:../../Classes/SensorFilters/IIR/IIR.cpp ****             _Bessel_buff[0] = wn;
 300              		.loc 1 39 13 view .LVU88
  40:../../Classes/SensorFilters/IIR/IIR.cpp ****             break;
 301              		.loc 1 40 13 view .LVU89
 302 0090 7047     		bx	lr
 303              	.L13:
 304 0092 00BF     		.align	2
 305              	.L12:
 306 0094 00000000 		.word	0
 307              		.cfi_endproc
 308              	.LFE4847:
 310              		.section	.rodata
 311              		.align	2
 312              		.set	.LANCHOR0,. + 0
 313              	.LC0:
 314 0000 B5596D3B 		.word	997022133
 315 0004 B559ED3B 		.word	1005410741
 316 0008 B5596D3B 		.word	997022133
 317              	.LC1:
 318 000c 0000803F 		.word	1065353216
 319 0010 114EE9BF 		.word	-1075229167
 320 0014 8951563F 		.word	1062621577
 321              	.LC2:
 322 0018 EEF6B03B 		.word	1001453294
ARM GAS  C:\Users\skipi\AppData\Local\Temp\ccz2JNsr.s 			page 8


 323 001c EEF6303C 		.word	1009841902
 324 0020 EEF6B03B 		.word	1001453294
 325              	.LC3:
 326 0024 0000803F 		.word	1065353216
 327 0028 E4BEDEBF 		.word	-1075921180
 328 002c 7F05433F 		.word	1061356927
 329              		.text
 330              	.Letext0:
 331              		.file 2 "c:\\program files\\daisytoolchain\\arm-none-eabi\\include\\machine\\_default_types.h"
 332              		.file 3 "c:\\program files\\daisytoolchain\\arm-none-eabi\\include\\sys\\_stdint.h"
 333              		.file 4 "c:\\program files\\daisytoolchain\\arm-none-eabi\\include\\stdint.h"
 334              		.file 5 "c:\\program files\\daisytoolchain\\lib\\gcc\\arm-none-eabi\\10.2.1\\include\\stddef.h"
 335              		.file 6 "c:\\program files\\daisytoolchain\\arm-none-eabi\\include\\c++\\10.2.1\\cmath"
 336              		.file 7 "c:\\program files\\daisytoolchain\\arm-none-eabi\\include\\c++\\10.2.1\\bits\\std_abs.h"
 337              		.file 8 "c:\\program files\\daisytoolchain\\arm-none-eabi\\include\\c++\\10.2.1\\cstdlib"
 338              		.file 9 "c:\\program files\\daisytoolchain\\arm-none-eabi\\include\\c++\\10.2.1\\cstdint"
 339              		.file 10 "c:\\program files\\daisytoolchain\\arm-none-eabi\\include\\c++\\10.2.1\\type_traits"
 340              		.file 11 "c:\\program files\\daisytoolchain\\arm-none-eabi\\include\\c++\\10.2.1\\debug\\debug.h"
 341              		.file 12 "c:\\program files\\daisytoolchain\\arm-none-eabi\\include\\c++\\10.2.1\\arm-none-eabi\\t
 342              		.file 13 "c:\\program files\\daisytoolchain\\arm-none-eabi\\include\\c++\\10.2.1\\bits\\algorithmf
 343              		.file 14 "c:\\program files\\daisytoolchain\\arm-none-eabi\\include\\c++\\10.2.1\\bits\\stl_pair.h
 344              		.file 15 "c:\\program files\\daisytoolchain\\arm-none-eabi\\include\\c++\\10.2.1\\bits\\exception_
 345              		.file 16 "c:\\program files\\daisytoolchain\\arm-none-eabi\\include\\c++\\10.2.1\\cstdarg"
 346              		.file 17 "c:\\program files\\daisytoolchain\\arm-none-eabi\\include\\c++\\10.2.1\\cstdio"
 347              		.file 18 "c:\\program files\\daisytoolchain\\arm-none-eabi\\include\\c++\\10.2.1\\cstring"
 348              		.file 19 "c:\\program files\\daisytoolchain\\arm-none-eabi\\include\\c++\\10.2.1\\cwchar"
 349              		.file 20 "c:\\program files\\daisytoolchain\\arm-none-eabi\\include\\c++\\10.2.1\\clocale"
 350              		.file 21 "c:\\program files\\daisytoolchain\\arm-none-eabi\\include\\c++\\10.2.1\\bits\\basic_stri
 351              		.file 22 "c:\\program files\\daisytoolchain\\arm-none-eabi\\include\\c++\\10.2.1\\bits\\stl_tempbu
 352              		.file 23 "c:\\program files\\daisytoolchain\\arm-none-eabi\\include\\c++\\10.2.1\\bits\\predefined
 353              		.file 24 "c:\\program files\\daisytoolchain\\arm-none-eabi\\include\\sys\\_types.h"
 354              		.file 25 "c:\\program files\\daisytoolchain\\arm-none-eabi\\include\\sys\\reent.h"
 355              		.file 26 "c:\\program files\\daisytoolchain\\arm-none-eabi\\include\\sys\\lock.h"
 356              		.file 27 "c:\\program files\\daisytoolchain\\arm-none-eabi\\include\\math.h"
 357              		.file 28 "c:\\program files\\daisytoolchain\\arm-none-eabi\\include\\stdlib.h"
 358              		.file 29 "c:\\program files\\daisytoolchain\\arm-none-eabi\\include\\c++\\10.2.1\\math.h"
 359              		.file 30 "c:\\program files\\daisytoolchain\\arm-none-eabi\\include\\c++\\10.2.1\\stdlib.h"
 360              		.file 31 "../../libs/libDaisy/../../libs/libDaisy/src/daisy_core.h"
 361              		.file 32 "../../libs/libDaisy/src/util/wav_format.h"
 362              		.file 33 "../../libs/libDaisy/../../libs/libDaisy/src/dev/sr_595.h"
 363              		.file 34 "../../libs/libDaisy/../../libs/libDaisy/src/dev/max11300.h"
 364              		.file 35 "../../libs/libDaisy/../../libs/libDaisy/src/daisy_seed.h"
 365              		.file 36 "c:\\program files\\daisytoolchain\\lib\\gcc\\arm-none-eabi\\10.2.1\\include\\stdarg.h"
 366              		.file 37 "c:\\program files\\daisytoolchain\\arm-none-eabi\\include\\stdio.h"
 367              		.file 38 "c:\\program files\\daisytoolchain\\arm-none-eabi\\include\\string.h"
 368              		.file 39 "../../libs/libDaisy/../../libs/DaisySP/Source/Control/adenv.h"
 369              		.file 40 "../../libs/DaisySP/Source/Utility/dsp.h"
 370              		.file 41 "c:\\program files\\daisytoolchain\\arm-none-eabi\\include\\wchar.h"
 371              		.file 42 "c:\\program files\\daisytoolchain\\arm-none-eabi\\include\\locale.h"
 372              		.file 43 "../../Classes/SensorFilters/IIR/iir.h"
 373              		.file 44 "<built-in>"
ARM GAS  C:\Users\skipi\AppData\Local\Temp\ccz2JNsr.s 			page 9

