ARM GAS  C:\Users\skipi\AppData\Local\Temp\cckXvY0f.s 			page 1


   1              		.cpu cortex-m7
   2              		.eabi_attribute 28, 1
   3              		.eabi_attribute 20, 1
   4              		.eabi_attribute 21, 1
   5              		.eabi_attribute 23, 3
   6              		.eabi_attribute 24, 1
   7              		.eabi_attribute 25, 1
   8              		.eabi_attribute 26, 1
   9              		.eabi_attribute 30, 2
  10              		.eabi_attribute 34, 1
  11              		.eabi_attribute 18, 4
  12              		.file	"main.cpp"
  13              		.text
  14              	.Ltext0:
  15              		.cfi_sections	.debug_frame
  16              		.section	.text._ZN5daisy9DaisySeedD2Ev,"axG",%progbits,_ZN5daisy9DaisySeedD5Ev,comdat
  17              		.align	1
  18              		.p2align 2,,3
  19              		.weak	_ZN5daisy9DaisySeedD2Ev
  20              		.arch armv7e-m
  21              		.syntax unified
  22              		.thumb
  23              		.thumb_func
  24              		.fpu fpv5-d16
  26              	_ZN5daisy9DaisySeedD2Ev:
  27              	.LVL0:
  28              	.LFB2671:
  29              		.file 1 "../../libs/libDaisy/src/daisy_seed.h"
   1:../../libs/libDaisy/src/daisy_seed.h **** #pragma once
   2:../../libs/libDaisy/src/daisy_seed.h **** #ifndef DSY_SEED_H
   3:../../libs/libDaisy/src/daisy_seed.h **** #define DSY_SEED_H
   4:../../libs/libDaisy/src/daisy_seed.h **** 
   5:../../libs/libDaisy/src/daisy_seed.h **** #include "daisy.h"
   6:../../libs/libDaisy/src/daisy_seed.h **** 
   7:../../libs/libDaisy/src/daisy_seed.h **** //Uncomment this out if you're still using the rev2 hardware
   8:../../libs/libDaisy/src/daisy_seed.h **** //#define SEED_REV2
   9:../../libs/libDaisy/src/daisy_seed.h **** 
  10:../../libs/libDaisy/src/daisy_seed.h **** namespace daisy
  11:../../libs/libDaisy/src/daisy_seed.h **** {
  12:../../libs/libDaisy/src/daisy_seed.h **** /**
  13:../../libs/libDaisy/src/daisy_seed.h ****    @brief This is the higher-level interface for the Daisy board. \n 
  14:../../libs/libDaisy/src/daisy_seed.h ****     All basic peripheral configuration/initialization is setup here. \n
  15:../../libs/libDaisy/src/daisy_seed.h **** 
  16:../../libs/libDaisy/src/daisy_seed.h ****    @ingroup boards
  17:../../libs/libDaisy/src/daisy_seed.h **** */
  18:../../libs/libDaisy/src/daisy_seed.h **** class DaisySeed
  19:../../libs/libDaisy/src/daisy_seed.h **** {
  20:../../libs/libDaisy/src/daisy_seed.h ****   public:
  21:../../libs/libDaisy/src/daisy_seed.h ****     DaisySeed() {}
  22:../../libs/libDaisy/src/daisy_seed.h ****     ~DaisySeed() {}
  30              		.loc 1 22 5 view -0
  31              		.cfi_startproc
  32              		@ args = 0, pretend = 0, frame = 0
  33              		@ frame_needed = 0, uses_anonymous_args = 0
  34              		@ link register save eliminated.
  35              	.LBB349:
  36              	.LBI349:
ARM GAS  C:\Users\skipi\AppData\Local\Temp\cckXvY0f.s 			page 2


  37              		.file 2 "../../libs/libDaisy/src/dev/codec_ak4556.h"
   1:../../libs/libDaisy/src/dev/codec_ak4556.h **** #pragma once
   2:../../libs/libDaisy/src/dev/codec_ak4556.h **** #ifndef DSY_CODEC_AK4556_H
   3:../../libs/libDaisy/src/dev/codec_ak4556.h **** #define DSY_CODEC_AK4556_H
   4:../../libs/libDaisy/src/dev/codec_ak4556.h **** 
   5:../../libs/libDaisy/src/dev/codec_ak4556.h **** #include "daisy_core.h"
   6:../../libs/libDaisy/src/dev/codec_ak4556.h **** #include "per/gpio.h"
   7:../../libs/libDaisy/src/dev/codec_ak4556.h **** 
   8:../../libs/libDaisy/src/dev/codec_ak4556.h **** namespace daisy
   9:../../libs/libDaisy/src/dev/codec_ak4556.h **** {
  10:../../libs/libDaisy/src/dev/codec_ak4556.h **** /** @brief Ak4556 Codec support 
  11:../../libs/libDaisy/src/dev/codec_ak4556.h ****  ** @author shensley
  12:../../libs/libDaisy/src/dev/codec_ak4556.h ****  ** @addtogroup codec
  13:../../libs/libDaisy/src/dev/codec_ak4556.h ****  ** 
  14:../../libs/libDaisy/src/dev/codec_ak4556.h ****  ** I don't see any real reason to have this be more than a function, but in case we want
  15:../../libs/libDaisy/src/dev/codec_ak4556.h ****  ** to add other functions down the road I wrapped the function in a class.
  16:../../libs/libDaisy/src/dev/codec_ak4556.h ****  ***/
  17:../../libs/libDaisy/src/dev/codec_ak4556.h **** class Ak4556
  18:../../libs/libDaisy/src/dev/codec_ak4556.h **** {
  19:../../libs/libDaisy/src/dev/codec_ak4556.h ****   public:
  20:../../libs/libDaisy/src/dev/codec_ak4556.h ****     Ak4556() {}
  21:../../libs/libDaisy/src/dev/codec_ak4556.h ****     ~Ak4556() {}
  38              		.loc 2 21 5 view .LVU1
  39              		.loc 2 21 5 is_stmt 0 view .LVU2
  40              	.LBE349:
  41              	.LBB350:
  42              	.LBI350:
  43              		.file 3 "../../libs/libDaisy/src/sys/system.h"
   1:../../libs/libDaisy/src/sys/system.h **** #ifndef DSY_SYSTEM_H
   2:../../libs/libDaisy/src/sys/system.h **** #define DSY_SYSTEM_H
   3:../../libs/libDaisy/src/sys/system.h **** 
   4:../../libs/libDaisy/src/sys/system.h **** #ifndef UNIT_TEST // for unit tests, a dummy implementation is provided below
   5:../../libs/libDaisy/src/sys/system.h **** 
   6:../../libs/libDaisy/src/sys/system.h **** #include <cstdint>
   7:../../libs/libDaisy/src/sys/system.h **** #include "per/tim.h"
   8:../../libs/libDaisy/src/sys/system.h **** 
   9:../../libs/libDaisy/src/sys/system.h **** namespace daisy
  10:../../libs/libDaisy/src/sys/system.h **** {
  11:../../libs/libDaisy/src/sys/system.h **** /** A handle for interacting with the Core System.
  12:../../libs/libDaisy/src/sys/system.h ****  ** This includes the Clock tree, MPU, global DMA initialization,
  13:../../libs/libDaisy/src/sys/system.h ****  ** cache handling, and any other necessary global initiailzation
  14:../../libs/libDaisy/src/sys/system.h ****  **
  15:../../libs/libDaisy/src/sys/system.h ****  ** @author shensley
  16:../../libs/libDaisy/src/sys/system.h ****  ** @ingroup system
  17:../../libs/libDaisy/src/sys/system.h ****  */
  18:../../libs/libDaisy/src/sys/system.h **** class System
  19:../../libs/libDaisy/src/sys/system.h **** {
  20:../../libs/libDaisy/src/sys/system.h ****   public:
  21:../../libs/libDaisy/src/sys/system.h ****     /** Contains settings for initializing the System */
  22:../../libs/libDaisy/src/sys/system.h ****     struct Config
  23:../../libs/libDaisy/src/sys/system.h ****     {
  24:../../libs/libDaisy/src/sys/system.h ****         /** Specifies the system clock frequency that feeds APB/AHB clocks, etc. */
  25:../../libs/libDaisy/src/sys/system.h ****         enum class SysClkFreq
  26:../../libs/libDaisy/src/sys/system.h ****         {
  27:../../libs/libDaisy/src/sys/system.h ****             FREQ_400MHZ,
  28:../../libs/libDaisy/src/sys/system.h ****             FREQ_480MHZ,
  29:../../libs/libDaisy/src/sys/system.h ****         };
ARM GAS  C:\Users\skipi\AppData\Local\Temp\cckXvY0f.s 			page 3


  30:../../libs/libDaisy/src/sys/system.h **** 
  31:../../libs/libDaisy/src/sys/system.h ****         /** Method to call on the struct to set to defaults
  32:../../libs/libDaisy/src/sys/system.h ****          ** CPU Freq set to 400MHz
  33:../../libs/libDaisy/src/sys/system.h ****          ** Cache Enabled
  34:../../libs/libDaisy/src/sys/system.h ****          ** */
  35:../../libs/libDaisy/src/sys/system.h ****         void Defaults()
  36:../../libs/libDaisy/src/sys/system.h ****         {
  37:../../libs/libDaisy/src/sys/system.h ****             cpu_freq    = SysClkFreq::FREQ_400MHZ;
  38:../../libs/libDaisy/src/sys/system.h ****             use_dcache  = true;
  39:../../libs/libDaisy/src/sys/system.h ****             use_icache  = true;
  40:../../libs/libDaisy/src/sys/system.h ****             skip_clocks = false;
  41:../../libs/libDaisy/src/sys/system.h ****         }
  42:../../libs/libDaisy/src/sys/system.h **** 
  43:../../libs/libDaisy/src/sys/system.h ****         /** Method to call on the struct to set to boost mode:
  44:../../libs/libDaisy/src/sys/system.h ****          ** CPU Freq set to 480MHz
  45:../../libs/libDaisy/src/sys/system.h ****          ** Cache Enabled
  46:../../libs/libDaisy/src/sys/system.h ****          ** */
  47:../../libs/libDaisy/src/sys/system.h ****         void Boost()
  48:../../libs/libDaisy/src/sys/system.h ****         {
  49:../../libs/libDaisy/src/sys/system.h ****             cpu_freq    = SysClkFreq::FREQ_480MHZ;
  50:../../libs/libDaisy/src/sys/system.h ****             use_dcache  = true;
  51:../../libs/libDaisy/src/sys/system.h ****             use_icache  = true;
  52:../../libs/libDaisy/src/sys/system.h ****             skip_clocks = false;
  53:../../libs/libDaisy/src/sys/system.h ****         }
  54:../../libs/libDaisy/src/sys/system.h **** 
  55:../../libs/libDaisy/src/sys/system.h ****         SysClkFreq cpu_freq;
  56:../../libs/libDaisy/src/sys/system.h ****         bool       use_dcache;
  57:../../libs/libDaisy/src/sys/system.h ****         bool       use_icache;
  58:../../libs/libDaisy/src/sys/system.h ****         bool       skip_clocks;
  59:../../libs/libDaisy/src/sys/system.h ****     };
  60:../../libs/libDaisy/src/sys/system.h **** 
  61:../../libs/libDaisy/src/sys/system.h ****     /** Describes the different regions of memory available to the Daisy */
  62:../../libs/libDaisy/src/sys/system.h ****     enum MemoryRegion
  63:../../libs/libDaisy/src/sys/system.h ****     {
  64:../../libs/libDaisy/src/sys/system.h ****         INTERNAL_FLASH = 0,
  65:../../libs/libDaisy/src/sys/system.h ****         ITCMRAM,
  66:../../libs/libDaisy/src/sys/system.h ****         DTCMRAM,
  67:../../libs/libDaisy/src/sys/system.h ****         SRAM_D1,
  68:../../libs/libDaisy/src/sys/system.h ****         SRAM_D2,
  69:../../libs/libDaisy/src/sys/system.h ****         SRAM_D3,
  70:../../libs/libDaisy/src/sys/system.h ****         SDRAM,
  71:../../libs/libDaisy/src/sys/system.h ****         QSPI,
  72:../../libs/libDaisy/src/sys/system.h ****         INVALID_ADDRESS,
  73:../../libs/libDaisy/src/sys/system.h ****     };
  74:../../libs/libDaisy/src/sys/system.h **** 
  75:../../libs/libDaisy/src/sys/system.h ****     /** Bootloader struct for controlling bootloading parameters */
  76:../../libs/libDaisy/src/sys/system.h ****     struct BootInfo
  77:../../libs/libDaisy/src/sys/system.h ****     {
  78:../../libs/libDaisy/src/sys/system.h ****         enum class Type : uint32_t
  79:../../libs/libDaisy/src/sys/system.h ****         {
  80:../../libs/libDaisy/src/sys/system.h ****             INVALID      = 0x00000000,
  81:../../libs/libDaisy/src/sys/system.h ****             JUMP         = 0xDEADBEEF,
  82:../../libs/libDaisy/src/sys/system.h ****             SKIP_TIMEOUT = 0x5AFEB007,
  83:../../libs/libDaisy/src/sys/system.h ****             INF_TIMEOUT  = 0xB0074EFA,
  84:../../libs/libDaisy/src/sys/system.h ****         } status;
  85:../../libs/libDaisy/src/sys/system.h ****         uint32_t data;
  86:../../libs/libDaisy/src/sys/system.h ****         enum class Version : uint32_t
ARM GAS  C:\Users\skipi\AppData\Local\Temp\cckXvY0f.s 			page 4


  87:../../libs/libDaisy/src/sys/system.h ****         {
  88:../../libs/libDaisy/src/sys/system.h ****             LT_v6_0 = 0, // Less than v6.0
  89:../../libs/libDaisy/src/sys/system.h ****             NONE,        // No bootloader present
  90:../../libs/libDaisy/src/sys/system.h ****             v6_0,        // v6.0
  91:../../libs/libDaisy/src/sys/system.h ****             v6_1,        // v6.1 or greater
  92:../../libs/libDaisy/src/sys/system.h ****             LAST
  93:../../libs/libDaisy/src/sys/system.h ****         } version;
  94:../../libs/libDaisy/src/sys/system.h ****     };
  95:../../libs/libDaisy/src/sys/system.h **** 
  96:../../libs/libDaisy/src/sys/system.h ****     System() {}
  97:../../libs/libDaisy/src/sys/system.h ****     ~System() {}
  44              		.loc 3 97 5 is_stmt 1 view .LVU3
  45              		.loc 3 97 5 is_stmt 0 view .LVU4
  46              	.LBE350:
  47              	.LBB351:
  48              	.LBI351:
  49              		.file 4 "../../libs/libDaisy/src/hid/usb.h"
   1:../../libs/libDaisy/src/hid/usb.h **** #pragma once
   2:../../libs/libDaisy/src/hid/usb.h **** #ifndef DSY_HID_USB_H
   3:../../libs/libDaisy/src/hid/usb.h **** #define DSY_HID_USB_H
   4:../../libs/libDaisy/src/hid/usb.h **** #include <stdint.h>
   5:../../libs/libDaisy/src/hid/usb.h **** #include <stdlib.h>
   6:../../libs/libDaisy/src/hid/usb.h **** 
   7:../../libs/libDaisy/src/hid/usb.h **** namespace daisy
   8:../../libs/libDaisy/src/hid/usb.h **** /** @addtogroup human_interface
   9:../../libs/libDaisy/src/hid/usb.h ****     @{
  10:../../libs/libDaisy/src/hid/usb.h **** */
  11:../../libs/libDaisy/src/hid/usb.h **** 
  12:../../libs/libDaisy/src/hid/usb.h **** {
  13:../../libs/libDaisy/src/hid/usb.h **** /** 
  14:../../libs/libDaisy/src/hid/usb.h ****     @brief Interface for initializing and using the USB Peripherals on the daisy
  15:../../libs/libDaisy/src/hid/usb.h ****     @author Stephen Hensley
  16:../../libs/libDaisy/src/hid/usb.h ****     @date December 2019
  17:../../libs/libDaisy/src/hid/usb.h **** */
  18:../../libs/libDaisy/src/hid/usb.h **** class UsbHandle
  19:../../libs/libDaisy/src/hid/usb.h **** {
  20:../../libs/libDaisy/src/hid/usb.h ****   public:
  21:../../libs/libDaisy/src/hid/usb.h ****     /** Return values for USBHandle Functions */
  22:../../libs/libDaisy/src/hid/usb.h ****     enum class Result
  23:../../libs/libDaisy/src/hid/usb.h ****     {
  24:../../libs/libDaisy/src/hid/usb.h ****         OK,
  25:../../libs/libDaisy/src/hid/usb.h ****         ERR,
  26:../../libs/libDaisy/src/hid/usb.h ****     };
  27:../../libs/libDaisy/src/hid/usb.h **** 
  28:../../libs/libDaisy/src/hid/usb.h ****     /** Specified which of the two USB Peripherals to initialize. */
  29:../../libs/libDaisy/src/hid/usb.h ****     enum UsbPeriph
  30:../../libs/libDaisy/src/hid/usb.h ****     {
  31:../../libs/libDaisy/src/hid/usb.h ****         FS_INTERNAL, /**< Internal pin */
  32:../../libs/libDaisy/src/hid/usb.h ****         FS_EXTERNAL, /**< FS External D+ pin is Pin 38 (GPIO32). FS External D- pin is Pin 37 (GPIO
  33:../../libs/libDaisy/src/hid/usb.h ****         FS_BOTH,     /**< Both */
  34:../../libs/libDaisy/src/hid/usb.h ****     };
  35:../../libs/libDaisy/src/hid/usb.h **** 
  36:../../libs/libDaisy/src/hid/usb.h **** 
  37:../../libs/libDaisy/src/hid/usb.h ****     /** Function called upon reception of a buffer */
  38:../../libs/libDaisy/src/hid/usb.h ****     typedef void (*ReceiveCallback)(uint8_t* buff, uint32_t* len);
  39:../../libs/libDaisy/src/hid/usb.h **** 
  40:../../libs/libDaisy/src/hid/usb.h ****     UsbHandle() {}
ARM GAS  C:\Users\skipi\AppData\Local\Temp\cckXvY0f.s 			page 5


  41:../../libs/libDaisy/src/hid/usb.h **** 
  42:../../libs/libDaisy/src/hid/usb.h ****     ~UsbHandle() {}
  50              		.loc 4 42 5 is_stmt 1 view .LVU5
  51              		.loc 4 42 5 is_stmt 0 view .LVU6
  52              	.LBE351:
  53              	.LBB352:
  54              	.LBI352:
  55              		.file 5 "../../libs/libDaisy/src/per/adc.h"
   1:../../libs/libDaisy/src/per/adc.h **** #pragma once
   2:../../libs/libDaisy/src/per/adc.h **** #ifndef DSY_ADC_H
   3:../../libs/libDaisy/src/per/adc.h **** #define DSY_ADC_H /**< Macro */
   4:../../libs/libDaisy/src/per/adc.h **** #include <stdint.h>
   5:../../libs/libDaisy/src/per/adc.h **** #include <stdlib.h>
   6:../../libs/libDaisy/src/per/adc.h **** #include "daisy_core.h"
   7:../../libs/libDaisy/src/per/adc.h **** #include "per/gpio.h"
   8:../../libs/libDaisy/src/per/adc.h **** 
   9:../../libs/libDaisy/src/per/adc.h **** #define DSY_ADC_MAX_CHANNELS 16 /**< Maximum number of ADC channels */
  10:../../libs/libDaisy/src/per/adc.h **** 
  11:../../libs/libDaisy/src/per/adc.h **** namespace daisy
  12:../../libs/libDaisy/src/per/adc.h **** {
  13:../../libs/libDaisy/src/per/adc.h **** /** @addtogroup per_analog
  14:../../libs/libDaisy/src/per/adc.h ****     @{
  15:../../libs/libDaisy/src/per/adc.h **** */
  16:../../libs/libDaisy/src/per/adc.h **** 
  17:../../libs/libDaisy/src/per/adc.h **** /* While there may not be many configuration options here,
  18:../../libs/libDaisy/src/per/adc.h **** using a struct like this allows us to add more configuration
  19:../../libs/libDaisy/src/per/adc.h **** later without breaking existing functionality.
  20:../../libs/libDaisy/src/per/adc.h **** */
  21:../../libs/libDaisy/src/per/adc.h **** 
  22:../../libs/libDaisy/src/per/adc.h **** /** @brief   Configuration Structure for an ADC Channel 
  23:../../libs/libDaisy/src/per/adc.h ****  *  @details This can be used to configure a a single input, 
  24:../../libs/libDaisy/src/per/adc.h ****  *           or a multiplexed input, allowing up to 8 inputs on 
  25:../../libs/libDaisy/src/per/adc.h ****  *           one channel.
  26:../../libs/libDaisy/src/per/adc.h ****  *  @note    Sharing data lines to multiple muxes _is_ possible, but
  27:../../libs/libDaisy/src/per/adc.h ****  *           each channel sharing data lines must be set to the maximum
  28:../../libs/libDaisy/src/per/adc.h ****  *           number of channels, even if some multiplexers have fewer
  29:../../libs/libDaisy/src/per/adc.h ****  *           inputs connected.
  30:../../libs/libDaisy/src/per/adc.h **** */
  31:../../libs/libDaisy/src/per/adc.h **** struct AdcChannelConfig
  32:../../libs/libDaisy/src/per/adc.h **** {
  33:../../libs/libDaisy/src/per/adc.h ****     /** Which pin to use for multiplexing */
  34:../../libs/libDaisy/src/per/adc.h ****     enum MuxPin
  35:../../libs/libDaisy/src/per/adc.h ****     {
  36:../../libs/libDaisy/src/per/adc.h ****         MUX_SEL_0,    /**< & */
  37:../../libs/libDaisy/src/per/adc.h ****         MUX_SEL_1,    /**< & */
  38:../../libs/libDaisy/src/per/adc.h ****         MUX_SEL_2,    /**< & */
  39:../../libs/libDaisy/src/per/adc.h ****         MUX_SEL_LAST, /**< & */
  40:../../libs/libDaisy/src/per/adc.h ****     };
  41:../../libs/libDaisy/src/per/adc.h **** 
  42:../../libs/libDaisy/src/per/adc.h ****     /** \brief per channel conversion speed added to fixed time based on bitdepth, etc. */
  43:../../libs/libDaisy/src/per/adc.h ****     enum ConversionSpeed
  44:../../libs/libDaisy/src/per/adc.h ****     {
  45:../../libs/libDaisy/src/per/adc.h ****         SPEED_1CYCLES_5,
  46:../../libs/libDaisy/src/per/adc.h ****         SPEED_2CYCLES_5,
  47:../../libs/libDaisy/src/per/adc.h ****         SPEED_8CYCLES_5,
  48:../../libs/libDaisy/src/per/adc.h ****         SPEED_16CYCLES_5,
  49:../../libs/libDaisy/src/per/adc.h ****         SPEED_32CYCLES_5,
ARM GAS  C:\Users\skipi\AppData\Local\Temp\cckXvY0f.s 			page 6


  50:../../libs/libDaisy/src/per/adc.h ****         SPEED_64CYCLES_5,
  51:../../libs/libDaisy/src/per/adc.h ****         SPEED_387CYCLES_5,
  52:../../libs/libDaisy/src/per/adc.h ****         SPEED_810CYCLES_5,
  53:../../libs/libDaisy/src/per/adc.h ****     };
  54:../../libs/libDaisy/src/per/adc.h **** 
  55:../../libs/libDaisy/src/per/adc.h ****     /** Initializes a single ADC pin as an ADC. 
  56:../../libs/libDaisy/src/per/adc.h ****     \param pin Pin to init.
  57:../../libs/libDaisy/src/per/adc.h ****     \param speed conversion speed for this pin defaults to 8.5 cycles
  58:../../libs/libDaisy/src/per/adc.h ****      */
  59:../../libs/libDaisy/src/per/adc.h ****     void InitSingle(Pin pin, ConversionSpeed speed = SPEED_8CYCLES_5);
  60:../../libs/libDaisy/src/per/adc.h **** 
  61:../../libs/libDaisy/src/per/adc.h ****     /** 
  62:../../libs/libDaisy/src/per/adc.h ****     Initializes a single ADC pin as a Multiplexed ADC.
  63:../../libs/libDaisy/src/per/adc.h ****     Requires a CD405X Multiplexer connected to the pin.
  64:../../libs/libDaisy/src/per/adc.h ****     You only need to supply the mux pins that are required,
  65:../../libs/libDaisy/src/per/adc.h ****     e.g. a 4052 mux would only require mux_0 and mux_1.
  66:../../libs/libDaisy/src/per/adc.h ****     Internal Callbacks handle the pin addressing.
  67:../../libs/libDaisy/src/per/adc.h ****     \param adc_pin &
  68:../../libs/libDaisy/src/per/adc.h ****     \param mux_channels must be 1-8
  69:../../libs/libDaisy/src/per/adc.h ****     \param mux_0 First mux pin
  70:../../libs/libDaisy/src/per/adc.h ****     \param mux_1 Second mux pin
  71:../../libs/libDaisy/src/per/adc.h ****     \param mux_2 Third mux pin
  72:../../libs/libDaisy/src/per/adc.h ****     \param speed conversion speed for this pin defaults to 8.5 cycles
  73:../../libs/libDaisy/src/per/adc.h ****     */
  74:../../libs/libDaisy/src/per/adc.h ****     void InitMux(Pin             adc_pin,
  75:../../libs/libDaisy/src/per/adc.h ****                  size_t          mux_channels,
  76:../../libs/libDaisy/src/per/adc.h ****                  Pin             mux_0,
  77:../../libs/libDaisy/src/per/adc.h ****                  Pin             mux_1 = Pin(PORTX, 0),
  78:../../libs/libDaisy/src/per/adc.h ****                  Pin             mux_2 = Pin(PORTX, 0),
  79:../../libs/libDaisy/src/per/adc.h ****                  ConversionSpeed speed = SPEED_8CYCLES_5);
  80:../../libs/libDaisy/src/per/adc.h **** 
  81:../../libs/libDaisy/src/per/adc.h ****     GPIO            pin_;                   /**< & */
  82:../../libs/libDaisy/src/per/adc.h ****     GPIO            mux_pin_[MUX_SEL_LAST]; /**< & */
  83:../../libs/libDaisy/src/per/adc.h ****     uint8_t         mux_channels_;          /**< & */
  84:../../libs/libDaisy/src/per/adc.h ****     ConversionSpeed speed_;
  85:../../libs/libDaisy/src/per/adc.h **** };
  86:../../libs/libDaisy/src/per/adc.h **** 
  87:../../libs/libDaisy/src/per/adc.h **** /**
  88:../../libs/libDaisy/src/per/adc.h ****    @brief Handler for analog to digital conversion
  89:../../libs/libDaisy/src/per/adc.h **** */
  90:../../libs/libDaisy/src/per/adc.h **** class AdcHandle
  91:../../libs/libDaisy/src/per/adc.h **** {
  92:../../libs/libDaisy/src/per/adc.h ****   public:
  93:../../libs/libDaisy/src/per/adc.h ****     /** Supported oversampling amounts */
  94:../../libs/libDaisy/src/per/adc.h ****     enum OverSampling
  95:../../libs/libDaisy/src/per/adc.h ****     {
  96:../../libs/libDaisy/src/per/adc.h ****         OVS_NONE, /**< & */
  97:../../libs/libDaisy/src/per/adc.h ****         OVS_4,    /**< & */
  98:../../libs/libDaisy/src/per/adc.h ****         OVS_8,    /**< & */
  99:../../libs/libDaisy/src/per/adc.h ****         OVS_16,   /**< & */
 100:../../libs/libDaisy/src/per/adc.h ****         OVS_32,   /**< & */
 101:../../libs/libDaisy/src/per/adc.h ****         OVS_64,   /**< & */
 102:../../libs/libDaisy/src/per/adc.h ****         OVS_128,  /**< & */
 103:../../libs/libDaisy/src/per/adc.h ****         OVS_256,  /**< & */
 104:../../libs/libDaisy/src/per/adc.h ****         OVS_512,  /**< & */
 105:../../libs/libDaisy/src/per/adc.h ****         OVS_1024, /**< & */
 106:../../libs/libDaisy/src/per/adc.h ****         OVS_LAST, /**< & */
ARM GAS  C:\Users\skipi\AppData\Local\Temp\cckXvY0f.s 			page 7


 107:../../libs/libDaisy/src/per/adc.h ****     };
 108:../../libs/libDaisy/src/per/adc.h **** 
 109:../../libs/libDaisy/src/per/adc.h ****     AdcHandle() {}
 110:../../libs/libDaisy/src/per/adc.h ****     ~AdcHandle() {}
  56              		.loc 5 110 5 is_stmt 1 view .LVU7
  57              		.loc 5 110 5 is_stmt 0 view .LVU8
  58              	.LBE352:
  59              	.LBB353:
  60              	.LBI353:
  61              		.file 6 "../../libs/libDaisy/src/hid/audio.h"
   1:../../libs/libDaisy/src/hid/audio.h **** #ifndef DSY_AUDIO_H
   2:../../libs/libDaisy/src/hid/audio.h **** #define DSY_AUDIO_H /**< & */
   3:../../libs/libDaisy/src/hid/audio.h **** 
   4:../../libs/libDaisy/src/hid/audio.h **** #include "per/sai.h"
   5:../../libs/libDaisy/src/hid/audio.h **** 
   6:../../libs/libDaisy/src/hid/audio.h **** namespace daisy
   7:../../libs/libDaisy/src/hid/audio.h **** {
   8:../../libs/libDaisy/src/hid/audio.h **** /** @brief Audio Engine Handle
   9:../../libs/libDaisy/src/hid/audio.h ****  *  @ingroup audio 
  10:../../libs/libDaisy/src/hid/audio.h ****  *  @details This class allows for higher level access to an audio engine.
  11:../../libs/libDaisy/src/hid/audio.h ****  *           If you're using a SOM like the DaisySeed or DaisyPatchSM (or any 
  12:../../libs/libDaisy/src/hid/audio.h ****  *            board that includes one of those objects) then the intialization
  13:../../libs/libDaisy/src/hid/audio.h ****  *            is already taken  care of.
  14:../../libs/libDaisy/src/hid/audio.h ****  *           If you're setting up your own custom hardware, or need to make changes
  15:../../libs/libDaisy/src/hid/audio.h ****  *           you will have to take the following steps:
  16:../../libs/libDaisy/src/hid/audio.h ****  *             1. Create and Initialize an SaiHandle or two depending on your requirements
  17:../../libs/libDaisy/src/hid/audio.h ****  *             2. Initialize the Audio Handle with the desired settings and the Initialized SaiHand
  18:../../libs/libDaisy/src/hid/audio.h ****  *             3. If the connected codec requires special configuration or initialization, do so
  19:../../libs/libDaisy/src/hid/audio.h ****  *             4. Write a callback method using either the AudioCallback or the InterleavingAudioCa
  20:../../libs/libDaisy/src/hid/audio.h ****  *             5. Start the Audio using one of the StartAudio function
  21:../../libs/libDaisy/src/hid/audio.h ****  */
  22:../../libs/libDaisy/src/hid/audio.h **** class AudioHandle
  23:../../libs/libDaisy/src/hid/audio.h **** {
  24:../../libs/libDaisy/src/hid/audio.h ****   public:
  25:../../libs/libDaisy/src/hid/audio.h ****     /** Manually configurable details about the Audio Engine */
  26:../../libs/libDaisy/src/hid/audio.h ****     /** TODO: Figure out how to get samplerate in here. */
  27:../../libs/libDaisy/src/hid/audio.h ****     struct Config
  28:../../libs/libDaisy/src/hid/audio.h ****     {
  29:../../libs/libDaisy/src/hid/audio.h ****         /** number of samples to process per callback */
  30:../../libs/libDaisy/src/hid/audio.h ****         size_t blocksize = 48;
  31:../../libs/libDaisy/src/hid/audio.h **** 
  32:../../libs/libDaisy/src/hid/audio.h ****         /**< Sample rate of audio */
  33:../../libs/libDaisy/src/hid/audio.h ****         SaiHandle::Config::SampleRate samplerate
  34:../../libs/libDaisy/src/hid/audio.h ****             = SaiHandle::Config::SampleRate::SAI_48KHZ;
  35:../../libs/libDaisy/src/hid/audio.h **** 
  36:../../libs/libDaisy/src/hid/audio.h ****         /** factor for adjustment before and after callback for hardware that may have extra headro
  37:../../libs/libDaisy/src/hid/audio.h ****         float postgain = 1.f;
  38:../../libs/libDaisy/src/hid/audio.h **** 
  39:../../libs/libDaisy/src/hid/audio.h ****         /** factor for additional one-sided compensation to audio path for hardware that may
  40:../../libs/libDaisy/src/hid/audio.h ****          *  have unequal input/output ranges
  41:../../libs/libDaisy/src/hid/audio.h ****          */
  42:../../libs/libDaisy/src/hid/audio.h ****         float output_compensation = 1.f;
  43:../../libs/libDaisy/src/hid/audio.h ****     };
  44:../../libs/libDaisy/src/hid/audio.h **** 
  45:../../libs/libDaisy/src/hid/audio.h ****     enum class Result
  46:../../libs/libDaisy/src/hid/audio.h ****     {
  47:../../libs/libDaisy/src/hid/audio.h ****         OK,
ARM GAS  C:\Users\skipi\AppData\Local\Temp\cckXvY0f.s 			page 8


  48:../../libs/libDaisy/src/hid/audio.h ****         ERR,
  49:../../libs/libDaisy/src/hid/audio.h ****     };
  50:../../libs/libDaisy/src/hid/audio.h **** 
  51:../../libs/libDaisy/src/hid/audio.h ****     /** Non-Interleaving input buffer
  52:../../libs/libDaisy/src/hid/audio.h ****      * Buffer arranged by float[chn][sample] 
  53:../../libs/libDaisy/src/hid/audio.h ****      * const so that the user can't modify the input
  54:../../libs/libDaisy/src/hid/audio.h ****      */
  55:../../libs/libDaisy/src/hid/audio.h ****     typedef const float* const* InputBuffer;
  56:../../libs/libDaisy/src/hid/audio.h **** 
  57:../../libs/libDaisy/src/hid/audio.h ****     /** Non-Interleaving output buffer
  58:../../libs/libDaisy/src/hid/audio.h ****      * Arranged by float[chn][sample] 
  59:../../libs/libDaisy/src/hid/audio.h ****      */
  60:../../libs/libDaisy/src/hid/audio.h ****     typedef float** OutputBuffer;
  61:../../libs/libDaisy/src/hid/audio.h **** 
  62:../../libs/libDaisy/src/hid/audio.h ****     /** Type for a Non-Interleaving audio callback 
  63:../../libs/libDaisy/src/hid/audio.h ****      * Non-Interleaving audio callbacks in daisy will be of this type
  64:../../libs/libDaisy/src/hid/audio.h ****      */
  65:../../libs/libDaisy/src/hid/audio.h ****     typedef void (*AudioCallback)(InputBuffer  in,
  66:../../libs/libDaisy/src/hid/audio.h ****                                   OutputBuffer out,
  67:../../libs/libDaisy/src/hid/audio.h ****                                   size_t       size);
  68:../../libs/libDaisy/src/hid/audio.h **** 
  69:../../libs/libDaisy/src/hid/audio.h ****     /** Interleaving Input buffer
  70:../../libs/libDaisy/src/hid/audio.h ****      ** audio is prepared as { L0, R0, L1, R1, . . . LN, RN }]
  71:../../libs/libDaisy/src/hid/audio.h ****      ** this is const, as the user shouldn't modify it
  72:../../libs/libDaisy/src/hid/audio.h ****     */
  73:../../libs/libDaisy/src/hid/audio.h ****     typedef const float* InterleavingInputBuffer;
  74:../../libs/libDaisy/src/hid/audio.h **** 
  75:../../libs/libDaisy/src/hid/audio.h ****     /** Interleaving Output buffer 
  76:../../libs/libDaisy/src/hid/audio.h ****      ** audio is prepared as { L0, R0, L1, R1, . . . LN, RN }
  77:../../libs/libDaisy/src/hid/audio.h ****     */
  78:../../libs/libDaisy/src/hid/audio.h ****     typedef float* InterleavingOutputBuffer;
  79:../../libs/libDaisy/src/hid/audio.h **** 
  80:../../libs/libDaisy/src/hid/audio.h ****     /** Interleaving Audio Callback 
  81:../../libs/libDaisy/src/hid/audio.h ****      * Interleaving audio callbacks in daisy must be of this type
  82:../../libs/libDaisy/src/hid/audio.h ****      */
  83:../../libs/libDaisy/src/hid/audio.h ****     typedef void (*InterleavingAudioCallback)(InterleavingInputBuffer  in,
  84:../../libs/libDaisy/src/hid/audio.h ****                                               InterleavingOutputBuffer out,
  85:../../libs/libDaisy/src/hid/audio.h ****                                               size_t                   size);
  86:../../libs/libDaisy/src/hid/audio.h **** 
  87:../../libs/libDaisy/src/hid/audio.h ****     AudioHandle() : pimpl_(nullptr) {}
  88:../../libs/libDaisy/src/hid/audio.h ****     ~AudioHandle() {}
  62              		.loc 6 88 5 is_stmt 1 view .LVU9
  63              		.loc 6 88 5 is_stmt 0 view .LVU10
  64              	.LBE353:
  65              		.loc 1 22 19 view .LVU11
  66 0000 7047     		bx	lr
  67              		.cfi_endproc
  68              	.LFE2671:
  70              		.weak	_ZN5daisy9DaisySeedD1Ev
  71              		.thumb_set _ZN5daisy9DaisySeedD1Ev,_ZN5daisy9DaisySeedD2Ev
  72 0002 00BF     		.section	.text._ZN7daisysp4AdsrD2Ev,"axG",%progbits,_ZN7daisysp4AdsrD5Ev,comdat
  73              		.align	1
  74              		.p2align 2,,3
  75              		.weak	_ZN7daisysp4AdsrD2Ev
  76              		.syntax unified
  77              		.thumb
  78              		.thumb_func
ARM GAS  C:\Users\skipi\AppData\Local\Temp\cckXvY0f.s 			page 9


  79              		.fpu fpv5-d16
  81              	_ZN7daisysp4AdsrD2Ev:
  82              	.LVL1:
  83              	.LFB2694:
  84              		.file 7 "../../libs/DaisySP/Source/Control/adsr.h"
   1:../../libs/DaisySP/Source/Control/adsr.h **** /*
   2:../../libs/DaisySP/Source/Control/adsr.h **** Copyright (c) 2020 Electrosmith, Corp, Paul Batchelor
   3:../../libs/DaisySP/Source/Control/adsr.h **** 
   4:../../libs/DaisySP/Source/Control/adsr.h **** Use of this source code is governed by an MIT-style
   5:../../libs/DaisySP/Source/Control/adsr.h **** license that can be found in the LICENSE file or at
   6:../../libs/DaisySP/Source/Control/adsr.h **** https://opensource.org/licenses/MIT.
   7:../../libs/DaisySP/Source/Control/adsr.h **** */
   8:../../libs/DaisySP/Source/Control/adsr.h **** 
   9:../../libs/DaisySP/Source/Control/adsr.h **** #pragma once
  10:../../libs/DaisySP/Source/Control/adsr.h **** #ifndef DSY_ADSR_H
  11:../../libs/DaisySP/Source/Control/adsr.h **** #define DSY_ADSR_H
  12:../../libs/DaisySP/Source/Control/adsr.h **** 
  13:../../libs/DaisySP/Source/Control/adsr.h **** #include <stdint.h>
  14:../../libs/DaisySP/Source/Control/adsr.h **** #ifdef __cplusplus
  15:../../libs/DaisySP/Source/Control/adsr.h **** 
  16:../../libs/DaisySP/Source/Control/adsr.h **** namespace daisysp
  17:../../libs/DaisySP/Source/Control/adsr.h **** {
  18:../../libs/DaisySP/Source/Control/adsr.h **** /** Distinct stages that the phase of the envelope can be located in.
  19:../../libs/DaisySP/Source/Control/adsr.h **** - IDLE   = located at phase location 0, and not currently running
  20:../../libs/DaisySP/Source/Control/adsr.h **** - ATTACK  = First segment of envelope where phase moves from 0 to 1
  21:../../libs/DaisySP/Source/Control/adsr.h **** - DECAY   = Second segment of envelope where phase moves from 1 to SUSTAIN value
  22:../../libs/DaisySP/Source/Control/adsr.h **** - RELEASE =     Fourth segment of envelop where phase moves from SUSTAIN to 0
  23:../../libs/DaisySP/Source/Control/adsr.h **** */
  24:../../libs/DaisySP/Source/Control/adsr.h **** enum
  25:../../libs/DaisySP/Source/Control/adsr.h **** {
  26:../../libs/DaisySP/Source/Control/adsr.h ****     ADSR_SEG_IDLE    = 0,
  27:../../libs/DaisySP/Source/Control/adsr.h ****     ADSR_SEG_ATTACK  = 1,
  28:../../libs/DaisySP/Source/Control/adsr.h ****     ADSR_SEG_DECAY   = 2,
  29:../../libs/DaisySP/Source/Control/adsr.h ****     ADSR_SEG_RELEASE = 4
  30:../../libs/DaisySP/Source/Control/adsr.h **** };
  31:../../libs/DaisySP/Source/Control/adsr.h **** 
  32:../../libs/DaisySP/Source/Control/adsr.h **** 
  33:../../libs/DaisySP/Source/Control/adsr.h **** /** adsr envelope module
  34:../../libs/DaisySP/Source/Control/adsr.h **** 
  35:../../libs/DaisySP/Source/Control/adsr.h **** Original author(s) : Paul Batchelor
  36:../../libs/DaisySP/Source/Control/adsr.h **** 
  37:../../libs/DaisySP/Source/Control/adsr.h **** Ported from Soundpipe by Ben Sergentanis, May 2020
  38:../../libs/DaisySP/Source/Control/adsr.h ****  
  39:../../libs/DaisySP/Source/Control/adsr.h **** Remake by Steffan DIedrichsen, May 2021
  40:../../libs/DaisySP/Source/Control/adsr.h **** */
  41:../../libs/DaisySP/Source/Control/adsr.h **** class Adsr
  42:../../libs/DaisySP/Source/Control/adsr.h **** {
  43:../../libs/DaisySP/Source/Control/adsr.h ****   public:
  44:../../libs/DaisySP/Source/Control/adsr.h ****     Adsr() {}
  45:../../libs/DaisySP/Source/Control/adsr.h ****     ~Adsr() {}
  85              		.loc 7 45 5 is_stmt 1 view -0
  86              		.cfi_startproc
  87              		@ args = 0, pretend = 0, frame = 0
  88              		@ frame_needed = 0, uses_anonymous_args = 0
  89              		@ link register save eliminated.
  90              		.loc 7 45 14 is_stmt 0 view .LVU13
  91 0000 7047     		bx	lr
ARM GAS  C:\Users\skipi\AppData\Local\Temp\cckXvY0f.s 			page 10


  92              		.cfi_endproc
  93              	.LFE2694:
  95              		.weak	_ZN7daisysp4AdsrD1Ev
  96              		.thumb_set _ZN7daisysp4AdsrD1Ev,_ZN7daisysp4AdsrD2Ev
  97              		.section	.text._ZN7daisysp10OscillatorD2Ev,"axG",%progbits,_ZN7daisysp10OscillatorD5Ev,comdat
  98              		.align	1
  99              		.p2align 2,,3
 100              		.weak	_ZN7daisysp10OscillatorD2Ev
 101              		.syntax unified
 102              		.thumb
 103              		.thumb_func
 104              		.fpu fpv5-d16
 106              	_ZN7daisysp10OscillatorD2Ev:
 107              	.LVL2:
 108              	.LFB4356:
 109              		.file 8 "../../libs/DaisySP/Source/Synthesis/oscillator.h"
   1:../../libs/DaisySP/Source/Synthesis/oscillator.h **** /*
   2:../../libs/DaisySP/Source/Synthesis/oscillator.h **** Copyright (c) 2020 Electrosmith, Corp
   3:../../libs/DaisySP/Source/Synthesis/oscillator.h **** 
   4:../../libs/DaisySP/Source/Synthesis/oscillator.h **** Use of this source code is governed by an MIT-style
   5:../../libs/DaisySP/Source/Synthesis/oscillator.h **** license that can be found in the LICENSE file or at
   6:../../libs/DaisySP/Source/Synthesis/oscillator.h **** https://opensource.org/licenses/MIT.
   7:../../libs/DaisySP/Source/Synthesis/oscillator.h **** */
   8:../../libs/DaisySP/Source/Synthesis/oscillator.h **** 
   9:../../libs/DaisySP/Source/Synthesis/oscillator.h **** #pragma once
  10:../../libs/DaisySP/Source/Synthesis/oscillator.h **** #ifndef DSY_OSCILLATOR_H
  11:../../libs/DaisySP/Source/Synthesis/oscillator.h **** #define DSY_OSCILLATOR_H
  12:../../libs/DaisySP/Source/Synthesis/oscillator.h **** #include <stdint.h>
  13:../../libs/DaisySP/Source/Synthesis/oscillator.h **** #include "Utility/dsp.h"
  14:../../libs/DaisySP/Source/Synthesis/oscillator.h **** #ifdef __cplusplus
  15:../../libs/DaisySP/Source/Synthesis/oscillator.h **** 
  16:../../libs/DaisySP/Source/Synthesis/oscillator.h **** namespace daisysp
  17:../../libs/DaisySP/Source/Synthesis/oscillator.h **** {
  18:../../libs/DaisySP/Source/Synthesis/oscillator.h **** /** Synthesis of several waveforms, including polyBLEP bandlimited waveforms.
  19:../../libs/DaisySP/Source/Synthesis/oscillator.h **** */
  20:../../libs/DaisySP/Source/Synthesis/oscillator.h **** class Oscillator
  21:../../libs/DaisySP/Source/Synthesis/oscillator.h **** {
  22:../../libs/DaisySP/Source/Synthesis/oscillator.h ****   public:
  23:../../libs/DaisySP/Source/Synthesis/oscillator.h ****     Oscillator() {}
  24:../../libs/DaisySP/Source/Synthesis/oscillator.h ****     ~Oscillator() {}
 110              		.loc 8 24 5 is_stmt 1 view -0
 111              		.cfi_startproc
 112              		@ args = 0, pretend = 0, frame = 0
 113              		@ frame_needed = 0, uses_anonymous_args = 0
 114              		@ link register save eliminated.
 115              		.loc 8 24 20 is_stmt 0 view .LVU15
 116 0000 7047     		bx	lr
 117              		.cfi_endproc
 118              	.LFE4356:
 120              		.weak	_ZN7daisysp10OscillatorD1Ev
 121              		.thumb_set _ZN7daisysp10OscillatorD1Ev,_ZN7daisysp10OscillatorD2Ev
 122              		.section	.text._ZN5daisy6Mpr121INS_18Mpr121I2CTransportEED2Ev,"axG",%progbits,_ZN5daisy6Mpr121INS_
 123              		.align	1
 124              		.p2align 2,,3
 125              		.weak	_ZN5daisy6Mpr121INS_18Mpr121I2CTransportEED2Ev
 126              		.syntax unified
 127              		.thumb
ARM GAS  C:\Users\skipi\AppData\Local\Temp\cckXvY0f.s 			page 11


 128              		.thumb_func
 129              		.fpu fpv5-d16
 131              	_ZN5daisy6Mpr121INS_18Mpr121I2CTransportEED2Ev:
 132              	.LVL3:
 133              	.LFB5431:
 134              		.file 9 "../../libs/libDaisy/src/dev/mpr121.h"
   1:../../libs/libDaisy/src/dev/mpr121.h **** #pragma once
   2:../../libs/libDaisy/src/dev/mpr121.h **** #ifndef DSY_MPR121_H
   3:../../libs/libDaisy/src/dev/mpr121.h **** #define DSY_MPR121_H
   4:../../libs/libDaisy/src/dev/mpr121.h **** 
   5:../../libs/libDaisy/src/dev/mpr121.h **** // The default I2C address
   6:../../libs/libDaisy/src/dev/mpr121.h **** #define MPR121_I2CADDR_DEFAULT 0x5A        ///< default I2C address
   7:../../libs/libDaisy/src/dev/mpr121.h **** #define MPR121_TOUCH_THRESHOLD_DEFAULT 2  ///< default touch threshold value
   8:../../libs/libDaisy/src/dev/mpr121.h **** #define MPR121_RELEASE_THRESHOLD_DEFAULT 1 ///< default relese threshold value
   9:../../libs/libDaisy/src/dev/mpr121.h **** 
  10:../../libs/libDaisy/src/dev/mpr121.h **** namespace daisy
  11:../../libs/libDaisy/src/dev/mpr121.h **** {
  12:../../libs/libDaisy/src/dev/mpr121.h **** /** @addtogroup external 
  13:../../libs/libDaisy/src/dev/mpr121.h ****     @{ 
  14:../../libs/libDaisy/src/dev/mpr121.h **** */
  15:../../libs/libDaisy/src/dev/mpr121.h **** 
  16:../../libs/libDaisy/src/dev/mpr121.h **** /** I2C Transport for MPR121 */
  17:../../libs/libDaisy/src/dev/mpr121.h **** class Mpr121I2CTransport
  18:../../libs/libDaisy/src/dev/mpr121.h **** {
  19:../../libs/libDaisy/src/dev/mpr121.h ****   public:
  20:../../libs/libDaisy/src/dev/mpr121.h ****     Mpr121I2CTransport() {}
  21:../../libs/libDaisy/src/dev/mpr121.h ****     ~Mpr121I2CTransport() {}
  22:../../libs/libDaisy/src/dev/mpr121.h **** 
  23:../../libs/libDaisy/src/dev/mpr121.h ****     struct Config
  24:../../libs/libDaisy/src/dev/mpr121.h ****     {
  25:../../libs/libDaisy/src/dev/mpr121.h ****         I2CHandle::Config::Peripheral periph;
  26:../../libs/libDaisy/src/dev/mpr121.h ****         I2CHandle::Config::Speed      speed;
  27:../../libs/libDaisy/src/dev/mpr121.h ****         Pin                           scl;
  28:../../libs/libDaisy/src/dev/mpr121.h ****         Pin                           sda;
  29:../../libs/libDaisy/src/dev/mpr121.h **** 
  30:../../libs/libDaisy/src/dev/mpr121.h ****         I2CHandle::Config::Mode mode;
  31:../../libs/libDaisy/src/dev/mpr121.h **** 
  32:../../libs/libDaisy/src/dev/mpr121.h ****         uint8_t dev_addr;
  33:../../libs/libDaisy/src/dev/mpr121.h **** 
  34:../../libs/libDaisy/src/dev/mpr121.h ****         Config()
  35:../../libs/libDaisy/src/dev/mpr121.h ****         {
  36:../../libs/libDaisy/src/dev/mpr121.h ****             periph = I2CHandle::Config::Peripheral::I2C_1;
  37:../../libs/libDaisy/src/dev/mpr121.h ****             speed  = I2CHandle::Config::Speed::I2C_400KHZ;
  38:../../libs/libDaisy/src/dev/mpr121.h **** 
  39:../../libs/libDaisy/src/dev/mpr121.h ****             scl = Pin(PORTB, 8);
  40:../../libs/libDaisy/src/dev/mpr121.h ****             sda = Pin(PORTB, 9);
  41:../../libs/libDaisy/src/dev/mpr121.h **** 
  42:../../libs/libDaisy/src/dev/mpr121.h ****             dev_addr = MPR121_I2CADDR_DEFAULT;
  43:../../libs/libDaisy/src/dev/mpr121.h ****         }
  44:../../libs/libDaisy/src/dev/mpr121.h ****     };
  45:../../libs/libDaisy/src/dev/mpr121.h **** 
  46:../../libs/libDaisy/src/dev/mpr121.h ****     /** \return Did the transaction error? i.e. Return true if error, false if ok */
  47:../../libs/libDaisy/src/dev/mpr121.h ****     inline bool Init(Config config)
  48:../../libs/libDaisy/src/dev/mpr121.h ****     {
  49:../../libs/libDaisy/src/dev/mpr121.h ****         config_ = config;
  50:../../libs/libDaisy/src/dev/mpr121.h **** 
  51:../../libs/libDaisy/src/dev/mpr121.h ****         I2CHandle::Config i2c_conf;
ARM GAS  C:\Users\skipi\AppData\Local\Temp\cckXvY0f.s 			page 12


  52:../../libs/libDaisy/src/dev/mpr121.h ****         i2c_conf.mode   = I2CHandle::Config::Mode::I2C_MASTER;
  53:../../libs/libDaisy/src/dev/mpr121.h ****         i2c_conf.periph = config.periph;
  54:../../libs/libDaisy/src/dev/mpr121.h ****         i2c_conf.speed  = config.speed;
  55:../../libs/libDaisy/src/dev/mpr121.h **** 
  56:../../libs/libDaisy/src/dev/mpr121.h ****         i2c_conf.pin_config.scl = config.scl;
  57:../../libs/libDaisy/src/dev/mpr121.h ****         i2c_conf.pin_config.sda = config.sda;
  58:../../libs/libDaisy/src/dev/mpr121.h **** 
  59:../../libs/libDaisy/src/dev/mpr121.h ****         return I2CHandle::Result::OK != i2c_.Init(i2c_conf);
  60:../../libs/libDaisy/src/dev/mpr121.h ****     }
  61:../../libs/libDaisy/src/dev/mpr121.h **** 
  62:../../libs/libDaisy/src/dev/mpr121.h ****     /** \return Did the transaction error? i.e. Return true if error, false if ok */
  63:../../libs/libDaisy/src/dev/mpr121.h ****     bool Write(uint8_t *data, uint16_t size)
  64:../../libs/libDaisy/src/dev/mpr121.h ****     {
  65:../../libs/libDaisy/src/dev/mpr121.h ****         return I2CHandle::Result::OK
  66:../../libs/libDaisy/src/dev/mpr121.h ****                != i2c_.TransmitBlocking(config_.dev_addr, data, size, 10);
  67:../../libs/libDaisy/src/dev/mpr121.h ****     }
  68:../../libs/libDaisy/src/dev/mpr121.h **** 
  69:../../libs/libDaisy/src/dev/mpr121.h ****     /** \return Did the transaction error? i.e. Return true if error, false if ok */
  70:../../libs/libDaisy/src/dev/mpr121.h ****     bool Read(uint8_t *data, uint16_t size)
  71:../../libs/libDaisy/src/dev/mpr121.h ****     {
  72:../../libs/libDaisy/src/dev/mpr121.h ****         return I2CHandle::Result::OK
  73:../../libs/libDaisy/src/dev/mpr121.h ****                != i2c_.ReceiveBlocking(config_.dev_addr, data, size, 10);
  74:../../libs/libDaisy/src/dev/mpr121.h ****     }
  75:../../libs/libDaisy/src/dev/mpr121.h ****     bool ReadMem(uint8_t *data, uint8_t memAddress, uint16_t memSize)
  76:../../libs/libDaisy/src/dev/mpr121.h ****     {
  77:../../libs/libDaisy/src/dev/mpr121.h ****         return I2CHandle::Result::OK
  78:../../libs/libDaisy/src/dev/mpr121.h ****                != i2c_.Mem_read(
  79:../../libs/libDaisy/src/dev/mpr121.h ****                    config_.dev_addr, memAddress, 1, data, memSize, 10);
  80:../../libs/libDaisy/src/dev/mpr121.h ****     }
  81:../../libs/libDaisy/src/dev/mpr121.h **** 
  82:../../libs/libDaisy/src/dev/mpr121.h ****   private:
  83:../../libs/libDaisy/src/dev/mpr121.h ****     I2CHandle i2c_;
  84:../../libs/libDaisy/src/dev/mpr121.h ****     Config    config_;
  85:../../libs/libDaisy/src/dev/mpr121.h **** };
  86:../../libs/libDaisy/src/dev/mpr121.h **** 
  87:../../libs/libDaisy/src/dev/mpr121.h **** 
  88:../../libs/libDaisy/src/dev/mpr121.h **** /** @brief Device support for MPR121 12x Capacitive Touch Sensor
  89:../../libs/libDaisy/src/dev/mpr121.h ****     @author beserge
  90:../../libs/libDaisy/src/dev/mpr121.h ****     @date December 2021
  91:../../libs/libDaisy/src/dev/mpr121.h **** */
  92:../../libs/libDaisy/src/dev/mpr121.h **** template <typename Transport>
  93:../../libs/libDaisy/src/dev/mpr121.h **** class Mpr121
  94:../../libs/libDaisy/src/dev/mpr121.h **** {
  95:../../libs/libDaisy/src/dev/mpr121.h ****   public:
  96:../../libs/libDaisy/src/dev/mpr121.h ****     Mpr121() {}
  97:../../libs/libDaisy/src/dev/mpr121.h ****     ~Mpr121() {}
 135              		.loc 9 97 5 is_stmt 1 view -0
 136              		.cfi_startproc
 137              		@ args = 0, pretend = 0, frame = 0
 138              		@ frame_needed = 0, uses_anonymous_args = 0
 139              		@ link register save eliminated.
 140              	.LBB354:
 141              	.LBI354:
  21:../../libs/libDaisy/src/dev/mpr121.h **** 
 142              		.loc 9 21 5 view .LVU17
  21:../../libs/libDaisy/src/dev/mpr121.h **** 
 143              		.loc 9 21 5 is_stmt 0 view .LVU18
ARM GAS  C:\Users\skipi\AppData\Local\Temp\cckXvY0f.s 			page 13


 144              	.LBE354:
 145              		.loc 9 97 16 view .LVU19
 146 0000 7047     		bx	lr
 147              		.cfi_endproc
 148              	.LFE5431:
 150              		.weak	_ZN5daisy6Mpr121INS_18Mpr121I2CTransportEED1Ev
 151              		.thumb_set _ZN5daisy6Mpr121INS_18Mpr121I2CTransportEED1Ev,_ZN5daisy6Mpr121INS_18Mpr121I2CTransport
 152 0002 00BF     		.section	.text._ZL13AudioCallbackPKfPfj,"ax",%progbits
 153              		.align	1
 154              		.p2align 2,,3
 155              		.syntax unified
 156              		.thumb
 157              		.thumb_func
 158              		.fpu fpv5-d16
 160              	_ZL13AudioCallbackPKfPfj:
 161              	.LVL4:
 162              	.LFB4848:
 163              		.file 10 "main.cpp"
   1:main.cpp      **** #include "../../libs/libDaisy/src/daisy_seed.h"
   2:main.cpp      **** #include "../../libs/DaisySP/Source/daisysp.h"
   3:main.cpp      **** #include "../../Classes/Temperamento/PlantConditioner.h"
   4:main.cpp      **** #include "../../Classes/Effects/AnalogDelay/src/AnalogDelay.h"
   5:main.cpp      **** #include "../../Classes/SensorFilters/IIR/IIR.h"
   6:main.cpp      **** #include "../../Classes/SensorFilters/MF/MF.h"
   7:main.cpp      **** 
   8:main.cpp      **** #ifndef _BV
   9:main.cpp      **** #define _BV(bit) (1 << (bit))
  10:main.cpp      **** #endif
  11:main.cpp      **** 
  12:main.cpp      **** // DEBUG: Uncomment this line to enable serial printing.
  13:main.cpp      **** #define Debug 
  14:main.cpp      **** 
  15:main.cpp      **** #define ADC_CH 2
  16:main.cpp      **** 
  17:main.cpp      **** using namespace daisy;
  18:main.cpp      **** using namespace daisysp;
  19:main.cpp      **** 
  20:main.cpp      **** // --- GLOBAL OBJECTS ---
  21:main.cpp      **** daisy::Mpr121I2C::Config mpr121ObjConf;
  22:main.cpp      **** daisy::Mpr121I2C cap;
  23:main.cpp      **** DaisySeed hw;
  24:main.cpp      **** AdcChannelConfig adcConfig[ADC_CH];
  25:main.cpp      **** PlantConditioner pc;
  26:main.cpp      **** static Oscillator osc;
  27:main.cpp      **** static Adsr env;
  28:main.cpp      **** 
  29:main.cpp      **** 
  30:main.cpp      **** // --- STATE VARIABLES ---
  31:main.cpp      **** float f = 440.0f;           // Current frequency
  32:main.cpp      **** bool gate = false;          // Note On/Off status
  33:main.cpp      **** uint16_t lastTouched = 0;   // Previous touch state
  34:main.cpp      **** uint16_t currTouched = 0;   // Current touch state
  35:main.cpp      **** 
  36:main.cpp      **** // --- AUDIO CALLBACK ---
  37:main.cpp      **** static void AudioCallback(AudioHandle::InterleavingInputBuffer in, AudioHandle::InterleavingOutputB
  38:main.cpp      **** {
 164              		.loc 10 38 1 is_stmt 1 view -0
ARM GAS  C:\Users\skipi\AppData\Local\Temp\cckXvY0f.s 			page 14


 165              		.cfi_startproc
 166              		@ args = 0, pretend = 0, frame = 0
 167              		@ frame_needed = 0, uses_anonymous_args = 0
  39:main.cpp      ****     float envOut, oscOut;
 168              		.loc 10 39 5 view .LVU21
  40:main.cpp      ****     for (size_t i = 0; i < size; i += 2)
 169              		.loc 10 40 5 view .LVU22
 170              	.LBB355:
 171              		.loc 10 40 26 view .LVU23
 172 0000 72B3     		cbz	r2, .L14
 173 0002 013A     		subs	r2, r2, #1
 174              	.LVL5:
 175              		.loc 10 40 26 is_stmt 0 view .LVU24
 176              	.LBE355:
  38:main.cpp      ****     float envOut, oscOut;
 177              		.loc 10 38 1 view .LVU25
 178 0004 2DE9F843 		push	{r3, r4, r5, r6, r7, r8, r9, lr}
 179              		.cfi_def_cfa_offset 32
 180              		.cfi_offset 3, -32
 181              		.cfi_offset 4, -28
 182              		.cfi_offset 5, -24
 183              		.cfi_offset 6, -20
 184              		.cfi_offset 7, -16
 185              		.cfi_offset 8, -12
 186              		.cfi_offset 9, -8
 187              		.cfi_offset 14, -4
 188 0008 0C46     		mov	r4, r1
 189              	.LBB364:
 190              		.loc 10 40 26 view .LVU26
 191 000a 0026     		movs	r6, #0
 192 000c DFF86090 		ldr	r9, .L17+12
 193 0010 5708     		lsrs	r7, r2, #1
 194 0012 144D     		ldr	r5, .L17
 195 0014 DFF85C80 		ldr	r8, .L17+16
 196              	.LVL6:
 197              	.L8:
  41:main.cpp      ****     {
  42:main.cpp      ****         // 1. FREQUENCY CONTROL
  43:main.cpp      ****         // We pass the frequency calculated in the main directly to the oscillator.
  44:main.cpp      ****         osc.SetFreq(f);
 198              		.loc 10 44 9 is_stmt 1 discriminator 2 view .LVU27
 199              		.loc 10 44 20 is_stmt 0 discriminator 2 view .LVU28
 200 0018 99ED000A 		vldr.32	s0, [r9]
 201              	.LVL7:
 202              	.LBB356:
 203              	.LBI356:
  25:../../libs/DaisySP/Source/Synthesis/oscillator.h ****     /** Choices for output waveforms, POLYBLEP are appropriately labeled. Others are naive forms.
  26:../../libs/DaisySP/Source/Synthesis/oscillator.h ****     */
  27:../../libs/DaisySP/Source/Synthesis/oscillator.h ****     enum
  28:../../libs/DaisySP/Source/Synthesis/oscillator.h ****     {
  29:../../libs/DaisySP/Source/Synthesis/oscillator.h ****         WAVE_SIN,
  30:../../libs/DaisySP/Source/Synthesis/oscillator.h ****         WAVE_TRI,
  31:../../libs/DaisySP/Source/Synthesis/oscillator.h ****         WAVE_SAW,
  32:../../libs/DaisySP/Source/Synthesis/oscillator.h ****         WAVE_RAMP,
  33:../../libs/DaisySP/Source/Synthesis/oscillator.h ****         WAVE_SQUARE,
  34:../../libs/DaisySP/Source/Synthesis/oscillator.h ****         WAVE_POLYBLEP_TRI,
  35:../../libs/DaisySP/Source/Synthesis/oscillator.h ****         WAVE_POLYBLEP_SAW,
ARM GAS  C:\Users\skipi\AppData\Local\Temp\cckXvY0f.s 			page 15


  36:../../libs/DaisySP/Source/Synthesis/oscillator.h ****         WAVE_POLYBLEP_SQUARE,
  37:../../libs/DaisySP/Source/Synthesis/oscillator.h ****         WAVE_LAST,
  38:../../libs/DaisySP/Source/Synthesis/oscillator.h ****     };
  39:../../libs/DaisySP/Source/Synthesis/oscillator.h **** 
  40:../../libs/DaisySP/Source/Synthesis/oscillator.h **** 
  41:../../libs/DaisySP/Source/Synthesis/oscillator.h ****     /** Initializes the Oscillator
  42:../../libs/DaisySP/Source/Synthesis/oscillator.h **** 
  43:../../libs/DaisySP/Source/Synthesis/oscillator.h ****         \param sample_rate - sample rate of the audio engine being run, and the frequency that the 
  44:../../libs/DaisySP/Source/Synthesis/oscillator.h **** 
  45:../../libs/DaisySP/Source/Synthesis/oscillator.h ****         Defaults:
  46:../../libs/DaisySP/Source/Synthesis/oscillator.h ****         - freq_ = 100 Hz
  47:../../libs/DaisySP/Source/Synthesis/oscillator.h ****         - amp_ = 0.5
  48:../../libs/DaisySP/Source/Synthesis/oscillator.h ****         - waveform_ = sine wave.
  49:../../libs/DaisySP/Source/Synthesis/oscillator.h ****     */
  50:../../libs/DaisySP/Source/Synthesis/oscillator.h ****     void Init(float sample_rate)
  51:../../libs/DaisySP/Source/Synthesis/oscillator.h ****     {
  52:../../libs/DaisySP/Source/Synthesis/oscillator.h ****         sr_        = sample_rate;
  53:../../libs/DaisySP/Source/Synthesis/oscillator.h ****         sr_recip_  = 1.0f / sample_rate;
  54:../../libs/DaisySP/Source/Synthesis/oscillator.h ****         freq_      = 100.0f;
  55:../../libs/DaisySP/Source/Synthesis/oscillator.h ****         amp_       = 0.5f;
  56:../../libs/DaisySP/Source/Synthesis/oscillator.h ****         pw_        = 0.5f;
  57:../../libs/DaisySP/Source/Synthesis/oscillator.h ****         phase_     = 0.0f;
  58:../../libs/DaisySP/Source/Synthesis/oscillator.h ****         phase_inc_ = CalcPhaseInc(freq_);
  59:../../libs/DaisySP/Source/Synthesis/oscillator.h ****         waveform_  = WAVE_SIN;
  60:../../libs/DaisySP/Source/Synthesis/oscillator.h ****         eoc_       = true;
  61:../../libs/DaisySP/Source/Synthesis/oscillator.h ****         eor_       = true;
  62:../../libs/DaisySP/Source/Synthesis/oscillator.h ****     }
  63:../../libs/DaisySP/Source/Synthesis/oscillator.h **** 
  64:../../libs/DaisySP/Source/Synthesis/oscillator.h **** 
  65:../../libs/DaisySP/Source/Synthesis/oscillator.h ****     /** Changes the frequency of the Oscillator, and recalculates phase increment.
  66:../../libs/DaisySP/Source/Synthesis/oscillator.h ****     */
  67:../../libs/DaisySP/Source/Synthesis/oscillator.h ****     inline void SetFreq(const float f)
 204              		.loc 8 67 17 is_stmt 1 discriminator 2 view .LVU29
 205              	.LBB357:
  68:../../libs/DaisySP/Source/Synthesis/oscillator.h ****     {
  69:../../libs/DaisySP/Source/Synthesis/oscillator.h ****         freq_      = f;
 206              		.loc 8 69 9 discriminator 2 view .LVU30
  70:../../libs/DaisySP/Source/Synthesis/oscillator.h ****         phase_inc_ = CalcPhaseInc(f);
 207              		.loc 8 70 34 is_stmt 0 discriminator 2 view .LVU31
 208 001c 1148     		ldr	r0, .L17
  69:../../libs/DaisySP/Source/Synthesis/oscillator.h ****         phase_inc_ = CalcPhaseInc(f);
 209              		.loc 8 69 20 discriminator 2 view .LVU32
 210 001e 85ED020A 		vstr.32	s0, [r5, #8]
 211              		.loc 8 70 9 is_stmt 1 discriminator 2 view .LVU33
 212              		.loc 8 70 34 is_stmt 0 discriminator 2 view .LVU34
 213 0022 FFF7FEFF 		bl	_ZN7daisysp10Oscillator12CalcPhaseIncEf
 214              	.LVL8:
 215              		.loc 8 70 34 discriminator 2 view .LVU35
 216              	.LBE357:
 217              	.LBE356:
  45:main.cpp      **** 
  46:main.cpp      ****         // 2. ENVELOPE GENERATION
  47:main.cpp      ****         envOut = env.Process(gate);
 218              		.loc 10 47 29 discriminator 2 view .LVU36
 219 0026 98F80010 		ldrb	r1, [r8]	@ zero_extendqisi2
 220 002a 0F48     		ldr	r0, .L17+4
 221              	.LBB359:
ARM GAS  C:\Users\skipi\AppData\Local\Temp\cckXvY0f.s 			page 16


 222              	.LBB358:
 223              		.loc 8 70 20 discriminator 2 view .LVU37
 224 002c 85ED070A 		vstr.32	s0, [r5, #28]
 225              	.LVL9:
 226              		.loc 8 70 20 discriminator 2 view .LVU38
 227              	.LBE358:
 228              	.LBE359:
 229              		.loc 10 47 9 is_stmt 1 discriminator 2 view .LVU39
 230              		.loc 10 47 29 is_stmt 0 discriminator 2 view .LVU40
 231 0030 FFF7FEFF 		bl	_ZN7daisysp4Adsr7ProcessEb
 232              	.LVL10:
  48:main.cpp      ****         
  49:main.cpp      ****         // 3. GAIN STAGING
  50:main.cpp      ****         osc.SetAmp(envOut * 0.85f); 
 233              		.loc 10 50 9 is_stmt 1 discriminator 2 view .LVU41
 234              	.LBB360:
 235              	.LBI360:
  71:../../libs/DaisySP/Source/Synthesis/oscillator.h ****     }
  72:../../libs/DaisySP/Source/Synthesis/oscillator.h **** 
  73:../../libs/DaisySP/Source/Synthesis/oscillator.h **** 
  74:../../libs/DaisySP/Source/Synthesis/oscillator.h ****     /** Sets the amplitude of the waveform.
  75:../../libs/DaisySP/Source/Synthesis/oscillator.h ****     */
  76:../../libs/DaisySP/Source/Synthesis/oscillator.h ****     inline void SetAmp(const float a) { amp_ = a; }
 236              		.loc 8 76 17 discriminator 2 view .LVU42
 237              	.LBB361:
 238              		.loc 8 76 41 discriminator 2 view .LVU43
 239              	.LBE361:
 240              	.LBE360:
 241              		.loc 10 50 19 is_stmt 0 discriminator 2 view .LVU44
 242 0034 DFED0D7A 		vldr.32	s15, .L17+8
  51:main.cpp      **** 
  52:main.cpp      ****         // 4. OSCILLATOR PROCESSING
  53:main.cpp      ****         oscOut = osc.Process();
 243              		.loc 10 53 29 discriminator 2 view .LVU45
 244 0038 0A48     		ldr	r0, .L17
  50:main.cpp      **** 
 245              		.loc 10 50 19 discriminator 2 view .LVU46
 246 003a 20EE270A 		vmul.f32	s0, s0, s15
 247              	.LVL11:
 248              	.LBB363:
 249              	.LBB362:
 250              		.loc 8 76 46 discriminator 2 view .LVU47
 251 003e 85ED010A 		vstr.32	s0, [r5, #4]
 252              	.LVL12:
 253              		.loc 8 76 46 discriminator 2 view .LVU48
 254              	.LBE362:
 255              	.LBE363:
 256              		.loc 10 53 9 is_stmt 1 discriminator 2 view .LVU49
 257              		.loc 10 53 29 is_stmt 0 discriminator 2 view .LVU50
 258 0042 FFF7FEFF 		bl	_ZN7daisysp10Oscillator7ProcessEv
 259              	.LVL13:
  54:main.cpp      ****         
  55:main.cpp      ****         // Output to both Left and Right channels
  56:main.cpp      ****         out[i] = out[i + 1] = oscOut;
 260              		.loc 10 56 9 is_stmt 1 discriminator 2 view .LVU51
 261              		.loc 10 56 16 is_stmt 0 discriminator 2 view .LVU52
 262 0046 2246     		mov	r2, r4
ARM GAS  C:\Users\skipi\AppData\Local\Temp\cckXvY0f.s 			page 17


  40:main.cpp      ****     {
 263              		.loc 10 40 26 discriminator 2 view .LVU53
 264 0048 B742     		cmp	r7, r6
 265              		.loc 10 56 29 discriminator 2 view .LVU54
 266 004a 84ED010A 		vstr.32	s0, [r4, #4]
  40:main.cpp      ****     {
 267              		.loc 10 40 26 discriminator 2 view .LVU55
 268 004e 06F10106 		add	r6, r6, #1
 269              	.LVL14:
 270              		.loc 10 56 16 discriminator 2 view .LVU56
 271 0052 04F10804 		add	r4, r4, #8
 272 0056 82ED000A 		vstr.32	s0, [r2]
  40:main.cpp      ****     {
 273              		.loc 10 40 5 is_stmt 1 discriminator 2 view .LVU57
 274              	.LVL15:
  40:main.cpp      ****     {
 275              		.loc 10 40 26 discriminator 2 view .LVU58
 276 005a DDD1     		bne	.L8
 277              	.LBE364:
  57:main.cpp      ****     }
  58:main.cpp      **** }
 278              		.loc 10 58 1 is_stmt 0 view .LVU59
 279 005c BDE8F883 		pop	{r3, r4, r5, r6, r7, r8, r9, pc}
 280              	.LVL16:
 281              	.L14:
 282              		.cfi_def_cfa_offset 0
 283              		.cfi_restore 3
 284              		.cfi_restore 4
 285              		.cfi_restore 5
 286              		.cfi_restore 6
 287              		.cfi_restore 7
 288              		.cfi_restore 8
 289              		.cfi_restore 9
 290              		.cfi_restore 14
 291              		.loc 10 58 1 view .LVU60
 292 0060 7047     		bx	lr
 293              	.L18:
 294 0062 00BF     		.align	2
 295              	.L17:
 296 0064 00000000 		.word	.LANCHOR1
 297 0068 00000000 		.word	.LANCHOR3
 298 006c 9A99593F 		.word	1062836634
 299 0070 00000000 		.word	.LANCHOR0
 300 0074 00000000 		.word	.LANCHOR2
 301              		.cfi_endproc
 302              	.LFE4848:
 304              		.section	.text._ZN5daisy6Mpr121INS_18Mpr121I2CTransportEE13WriteRegisterEhh,"axG",%progbits,_ZN5da
 305              		.align	1
 306              		.p2align 2,,3
 307              		.weak	_ZN5daisy6Mpr121INS_18Mpr121I2CTransportEE13WriteRegisterEhh
 308              		.syntax unified
 309              		.thumb
 310              		.thumb_func
 311              		.fpu fpv5-d16
 313              	_ZN5daisy6Mpr121INS_18Mpr121I2CTransportEE13WriteRegisterEhh:
 314              	.LVL17:
 315              	.LFB5285:
ARM GAS  C:\Users\skipi\AppData\Local\Temp\cckXvY0f.s 			page 18


  98:../../libs/libDaisy/src/dev/mpr121.h **** 
  99:../../libs/libDaisy/src/dev/mpr121.h ****     struct Config
 100:../../libs/libDaisy/src/dev/mpr121.h ****     {
 101:../../libs/libDaisy/src/dev/mpr121.h ****         typename Transport::Config transport_config;
 102:../../libs/libDaisy/src/dev/mpr121.h ****         uint8_t                    touch_threshold;
 103:../../libs/libDaisy/src/dev/mpr121.h ****         uint8_t                    release_threshold;
 104:../../libs/libDaisy/src/dev/mpr121.h **** 
 105:../../libs/libDaisy/src/dev/mpr121.h ****         Config()
 106:../../libs/libDaisy/src/dev/mpr121.h ****         {
 107:../../libs/libDaisy/src/dev/mpr121.h ****             touch_threshold   = MPR121_TOUCH_THRESHOLD_DEFAULT;
 108:../../libs/libDaisy/src/dev/mpr121.h ****             release_threshold = MPR121_RELEASE_THRESHOLD_DEFAULT;
 109:../../libs/libDaisy/src/dev/mpr121.h ****         }
 110:../../libs/libDaisy/src/dev/mpr121.h ****     };
 111:../../libs/libDaisy/src/dev/mpr121.h **** 
 112:../../libs/libDaisy/src/dev/mpr121.h ****     enum Result
 113:../../libs/libDaisy/src/dev/mpr121.h ****     {
 114:../../libs/libDaisy/src/dev/mpr121.h ****         OK = 0,
 115:../../libs/libDaisy/src/dev/mpr121.h ****         ERR
 116:../../libs/libDaisy/src/dev/mpr121.h ****     };
 117:../../libs/libDaisy/src/dev/mpr121.h **** 
 118:../../libs/libDaisy/src/dev/mpr121.h ****     /** Initialize the MPR121 device
 119:../../libs/libDaisy/src/dev/mpr121.h ****         \param config Configuration settings
 120:../../libs/libDaisy/src/dev/mpr121.h ****     */
 121:../../libs/libDaisy/src/dev/mpr121.h ****     Result Init(Config config)
 122:../../libs/libDaisy/src/dev/mpr121.h ****     {
 123:../../libs/libDaisy/src/dev/mpr121.h ****         config_ = config;
 124:../../libs/libDaisy/src/dev/mpr121.h **** 
 125:../../libs/libDaisy/src/dev/mpr121.h ****         SetTransportErr(transport_.Init(config_.transport_config));
 126:../../libs/libDaisy/src/dev/mpr121.h **** 
 127:../../libs/libDaisy/src/dev/mpr121.h ****         // soft reset
 128:../../libs/libDaisy/src/dev/mpr121.h ****         WriteRegister(MPR121_SOFTRESET, 0x63);
 129:../../libs/libDaisy/src/dev/mpr121.h ****         System::Delay(1);
 130:../../libs/libDaisy/src/dev/mpr121.h **** 
 131:../../libs/libDaisy/src/dev/mpr121.h ****         WriteRegister(MPR121_ECR, 0x0);
 132:../../libs/libDaisy/src/dev/mpr121.h **** 
 133:../../libs/libDaisy/src/dev/mpr121.h ****         // this doesn't work for some reason...
 134:../../libs/libDaisy/src/dev/mpr121.h ****         // uint8_t c = ReadRegister8(MPR121_CONFIG2);
 135:../../libs/libDaisy/src/dev/mpr121.h **** 
 136:../../libs/libDaisy/src/dev/mpr121.h ****         // if(c != 0x24)
 137:../../libs/libDaisy/src/dev/mpr121.h ****         //     return ERR;
 138:../../libs/libDaisy/src/dev/mpr121.h **** 
 139:../../libs/libDaisy/src/dev/mpr121.h ****         SetThresholds(config_.touch_threshold, config_.release_threshold);
 140:../../libs/libDaisy/src/dev/mpr121.h ****         WriteRegister(MPR121_MHDR, 0x01);
 141:../../libs/libDaisy/src/dev/mpr121.h ****         WriteRegister(MPR121_NHDR, 0x01);
 142:../../libs/libDaisy/src/dev/mpr121.h ****         WriteRegister(MPR121_NCLR, 0x0E);
 143:../../libs/libDaisy/src/dev/mpr121.h ****         WriteRegister(MPR121_FDLR, 0x00);
 144:../../libs/libDaisy/src/dev/mpr121.h **** 
 145:../../libs/libDaisy/src/dev/mpr121.h ****         WriteRegister(MPR121_MHDF, 0x01);
 146:../../libs/libDaisy/src/dev/mpr121.h ****         WriteRegister(MPR121_NHDF, 0x05);
 147:../../libs/libDaisy/src/dev/mpr121.h ****         WriteRegister(MPR121_NCLF, 0x01);
 148:../../libs/libDaisy/src/dev/mpr121.h ****         WriteRegister(MPR121_FDLF, 0x00);
 149:../../libs/libDaisy/src/dev/mpr121.h **** 
 150:../../libs/libDaisy/src/dev/mpr121.h ****         WriteRegister(MPR121_NHDT, 0x00);
 151:../../libs/libDaisy/src/dev/mpr121.h ****         WriteRegister(MPR121_NCLT, 0x00);
 152:../../libs/libDaisy/src/dev/mpr121.h ****         WriteRegister(MPR121_FDLT, 0x00);
 153:../../libs/libDaisy/src/dev/mpr121.h **** 
 154:../../libs/libDaisy/src/dev/mpr121.h ****         WriteRegister(MPR121_DEBOUNCE, 0);
ARM GAS  C:\Users\skipi\AppData\Local\Temp\cckXvY0f.s 			page 19


 155:../../libs/libDaisy/src/dev/mpr121.h ****         WriteRegister(MPR121_CONFIG1, 0x10); // default, 16uA charge current
 156:../../libs/libDaisy/src/dev/mpr121.h ****         WriteRegister(MPR121_CONFIG2, 0x20); // 0.5uS encoding, 1ms period
 157:../../libs/libDaisy/src/dev/mpr121.h **** 
 158:../../libs/libDaisy/src/dev/mpr121.h ****         // autoconfig
 159:../../libs/libDaisy/src/dev/mpr121.h ****         // WriteRegister(MPR121_AUTOCONFIG0, 0x0B);
 160:../../libs/libDaisy/src/dev/mpr121.h **** 
 161:../../libs/libDaisy/src/dev/mpr121.h ****         // correct values for Vdd = 3.3V
 162:../../libs/libDaisy/src/dev/mpr121.h ****         // WriteRegister(MPR121_UPLIMIT, 200);     // ((Vdd - 0.7)/Vdd) * 256
 163:../../libs/libDaisy/src/dev/mpr121.h ****         // WriteRegister(MPR121_TARGETLIMIT, 180); // UPLIMIT * 0.9
 164:../../libs/libDaisy/src/dev/mpr121.h ****         // WriteRegister(MPR121_LOWLIMIT, 130);    // UPLIMIT * 0.65
 165:../../libs/libDaisy/src/dev/mpr121.h ****         // autoconfig
 166:../../libs/libDaisy/src/dev/mpr121.h **** 
 167:../../libs/libDaisy/src/dev/mpr121.h ****         // enable X electrodes and start MPR121
 168:../../libs/libDaisy/src/dev/mpr121.h ****         uint8_t ECR_SETTING
 169:../../libs/libDaisy/src/dev/mpr121.h ****             = 0x80
 170:../../libs/libDaisy/src/dev/mpr121.h ****               + 12; // 5 bits for baseline tracking & proximity disabled + X
 171:../../libs/libDaisy/src/dev/mpr121.h ****                     // amount of electrodes running (12)
 172:../../libs/libDaisy/src/dev/mpr121.h ****         WriteRegister(MPR121_ECR,
 173:../../libs/libDaisy/src/dev/mpr121.h ****                       ECR_SETTING); // start with above ECR setting
 174:../../libs/libDaisy/src/dev/mpr121.h **** 
 175:../../libs/libDaisy/src/dev/mpr121.h ****         return GetTransportErr();
 176:../../libs/libDaisy/src/dev/mpr121.h ****     }
 177:../../libs/libDaisy/src/dev/mpr121.h **** 
 178:../../libs/libDaisy/src/dev/mpr121.h ****     /** Set the touch and release thresholds for all 13 channels on the
 179:../../libs/libDaisy/src/dev/mpr121.h ****         device to the passed values.
 180:../../libs/libDaisy/src/dev/mpr121.h ****         \param      touch The touch threshold value from 0 to 255.
 181:../../libs/libDaisy/src/dev/mpr121.h ****         \param      release The release threshold from 0 to 255.
 182:../../libs/libDaisy/src/dev/mpr121.h ****     */
 183:../../libs/libDaisy/src/dev/mpr121.h ****     void SetThresholds(uint8_t touch, uint8_t release)
 184:../../libs/libDaisy/src/dev/mpr121.h ****     {
 185:../../libs/libDaisy/src/dev/mpr121.h ****         // set all thresholds (the same)
 186:../../libs/libDaisy/src/dev/mpr121.h ****         for(uint8_t i = 0; i < 12; i++)
 187:../../libs/libDaisy/src/dev/mpr121.h ****         {
 188:../../libs/libDaisy/src/dev/mpr121.h ****             WriteRegister(MPR121_TOUCHTH_0 + 2 * i, touch);
 189:../../libs/libDaisy/src/dev/mpr121.h ****             WriteRegister(MPR121_RELEASETH_0 + 2 * i, release);
 190:../../libs/libDaisy/src/dev/mpr121.h ****         }
 191:../../libs/libDaisy/src/dev/mpr121.h ****     }
 192:../../libs/libDaisy/src/dev/mpr121.h **** 
 193:../../libs/libDaisy/src/dev/mpr121.h **** 
 194:../../libs/libDaisy/src/dev/mpr121.h ****     /** Read the filtered data from channel t. The ADC raw data outputs
 195:../../libs/libDaisy/src/dev/mpr121.h ****         run through 3 levels of digital filtering to filter out the high
 196:../../libs/libDaisy/src/dev/mpr121.h ****         frequency and low frequency noise encountered. For detailed information on
 197:../../libs/libDaisy/src/dev/mpr121.h ****         this filtering see page 6 of the device datasheet.
 198:../../libs/libDaisy/src/dev/mpr121.h ****         \param      t the channel to read
 199:../../libs/libDaisy/src/dev/mpr121.h ****         \returns    the filtered reading as a 10 bit unsigned value
 200:../../libs/libDaisy/src/dev/mpr121.h ****     */
 201:../../libs/libDaisy/src/dev/mpr121.h ****     uint16_t FilteredData(uint8_t t)
 202:../../libs/libDaisy/src/dev/mpr121.h ****     {
 203:../../libs/libDaisy/src/dev/mpr121.h ****         if(t > 12)
 204:../../libs/libDaisy/src/dev/mpr121.h ****             return 0;
 205:../../libs/libDaisy/src/dev/mpr121.h ****         return ReadRegister16(MPR121_FILTDATA_0L + t * 2);
 206:../../libs/libDaisy/src/dev/mpr121.h ****     }
 207:../../libs/libDaisy/src/dev/mpr121.h **** 
 208:../../libs/libDaisy/src/dev/mpr121.h ****     /** Read the baseline value for the channel. The 3rd level filtered
 209:../../libs/libDaisy/src/dev/mpr121.h ****         result is internally 10bit but only high 8 bits are readable
 210:../../libs/libDaisy/src/dev/mpr121.h ****         from registers 0x1E~0x2A as the baseline value output for each channel.
 211:../../libs/libDaisy/src/dev/mpr121.h ****         \param      t the channel to read.
ARM GAS  C:\Users\skipi\AppData\Local\Temp\cckXvY0f.s 			page 20


 212:../../libs/libDaisy/src/dev/mpr121.h ****         \returns    the baseline data that was read
 213:../../libs/libDaisy/src/dev/mpr121.h ****     */
 214:../../libs/libDaisy/src/dev/mpr121.h ****     uint16_t BaselineData(uint8_t t)
 215:../../libs/libDaisy/src/dev/mpr121.h ****     {
 216:../../libs/libDaisy/src/dev/mpr121.h ****         if(t > 12)
 217:../../libs/libDaisy/src/dev/mpr121.h ****             return 0;
 218:../../libs/libDaisy/src/dev/mpr121.h ****         uint16_t bl = ReadRegister8(MPR121_BASELINE_0 + t);
 219:../../libs/libDaisy/src/dev/mpr121.h ****         return (bl << 2);
 220:../../libs/libDaisy/src/dev/mpr121.h ****     }
 221:../../libs/libDaisy/src/dev/mpr121.h **** 
 222:../../libs/libDaisy/src/dev/mpr121.h ****     /** Read the touch status of all 13 channels as bit values in a 12 bit integer.
 223:../../libs/libDaisy/src/dev/mpr121.h ****         \returns    a 12 bit integer with each bit corresponding to the touch status
 224:../../libs/libDaisy/src/dev/mpr121.h ****         of a sensor. For example, if bit 0 is set then channel 0 of the
 225:../../libs/libDaisy/src/dev/mpr121.h ****         device is currently deemed to be touched.
 226:../../libs/libDaisy/src/dev/mpr121.h ****     */
 227:../../libs/libDaisy/src/dev/mpr121.h ****     uint16_t Touched()
 228:../../libs/libDaisy/src/dev/mpr121.h ****     {
 229:../../libs/libDaisy/src/dev/mpr121.h ****         uint16_t t = ReadRegister16(MPR121_TOUCHSTATUS_L);
 230:../../libs/libDaisy/src/dev/mpr121.h ****         return t & 0x0FFF;
 231:../../libs/libDaisy/src/dev/mpr121.h ****     }
 232:../../libs/libDaisy/src/dev/mpr121.h **** 
 233:../../libs/libDaisy/src/dev/mpr121.h ****     /** Read the contents of an 8 bit device register.
 234:../../libs/libDaisy/src/dev/mpr121.h ****         \param      reg the register address to read from
 235:../../libs/libDaisy/src/dev/mpr121.h ****         \returns    the 8 bit value that was read.
 236:../../libs/libDaisy/src/dev/mpr121.h ****     */
 237:../../libs/libDaisy/src/dev/mpr121.h ****     uint8_t ReadRegister8(uint8_t reg)
 238:../../libs/libDaisy/src/dev/mpr121.h ****     {
 239:../../libs/libDaisy/src/dev/mpr121.h ****         uint8_t buff;
 240:../../libs/libDaisy/src/dev/mpr121.h ****         SetTransportErr(transport_.ReadMem(&buff, reg, 1));
 241:../../libs/libDaisy/src/dev/mpr121.h ****         return buff;
 242:../../libs/libDaisy/src/dev/mpr121.h ****     }
 243:../../libs/libDaisy/src/dev/mpr121.h **** 
 244:../../libs/libDaisy/src/dev/mpr121.h ****     uint16_t ReadRegister16(uint8_t reg)
 245:../../libs/libDaisy/src/dev/mpr121.h ****     {
 246:../../libs/libDaisy/src/dev/mpr121.h ****         uint16_t buff;
 247:../../libs/libDaisy/src/dev/mpr121.h ****         SetTransportErr(transport_.ReadMem((uint8_t *)&buff, reg, 2));
 248:../../libs/libDaisy/src/dev/mpr121.h **** 
 249:../../libs/libDaisy/src/dev/mpr121.h **** 
 250:../../libs/libDaisy/src/dev/mpr121.h ****         return buff;
 251:../../libs/libDaisy/src/dev/mpr121.h ****     }
 252:../../libs/libDaisy/src/dev/mpr121.h **** 
 253:../../libs/libDaisy/src/dev/mpr121.h ****     /** Writes 8-bits to the specified destination register
 254:../../libs/libDaisy/src/dev/mpr121.h ****         \param  reg the register address to write to
 255:../../libs/libDaisy/src/dev/mpr121.h ****         \param  value the value to write
 256:../../libs/libDaisy/src/dev/mpr121.h ****     */
 257:../../libs/libDaisy/src/dev/mpr121.h ****     void WriteRegister(uint8_t reg, uint8_t value)
 316              		.loc 9 257 10 is_stmt 1 view -0
 317              		.cfi_startproc
 318              		@ args = 0, pretend = 0, frame = 8
 319              		@ frame_needed = 0, uses_anonymous_args = 0
 320              		.loc 9 257 10 is_stmt 0 view .LVU62
 321 0000 2DE9F043 		push	{r4, r5, r6, r7, r8, r9, lr}
 322              		.cfi_def_cfa_offset 28
 323              		.cfi_offset 4, -28
 324              		.cfi_offset 5, -24
 325              		.cfi_offset 6, -20
 326              		.cfi_offset 7, -16
ARM GAS  C:\Users\skipi\AppData\Local\Temp\cckXvY0f.s 			page 21


 327              		.cfi_offset 8, -12
 328              		.cfi_offset 9, -8
 329              		.cfi_offset 14, -4
 258:../../libs/libDaisy/src/dev/mpr121.h ****     {
 259:../../libs/libDaisy/src/dev/mpr121.h ****         // MPR121 must be put in Stop Mode to write to most registers
 260:../../libs/libDaisy/src/dev/mpr121.h ****         bool stop_required = true;
 261:../../libs/libDaisy/src/dev/mpr121.h **** 
 262:../../libs/libDaisy/src/dev/mpr121.h ****         // first get the current set value of the MPR121_ECR register
 263:../../libs/libDaisy/src/dev/mpr121.h ****         uint8_t ecr_reg = MPR121_ECR;
 264:../../libs/libDaisy/src/dev/mpr121.h ****         uint8_t buff[2] = {ecr_reg, 0x00};
 330              		.loc 9 264 17 view .LVU63
 331 0004 0023     		movs	r3, #0
 257:../../libs/libDaisy/src/dev/mpr121.h ****     {
 332              		.loc 9 257 10 view .LVU64
 333 0006 85B0     		sub	sp, sp, #20
 334              		.cfi_def_cfa_offset 48
 335              	.LBB395:
 336              	.LBB396:
  66:../../libs/libDaisy/src/dev/mpr121.h ****     }
 337              		.loc 9 66 40 view .LVU65
 338 0008 00F11806 		add	r6, r0, #24
 339 000c 4FF00A08 		mov	r8, #10
 340              	.LBE396:
 341              	.LBE395:
 257:../../libs/libDaisy/src/dev/mpr121.h ****     {
 342              		.loc 9 257 10 view .LVU66
 343 0010 0446     		mov	r4, r0
 344              		.loc 9 264 17 view .LVU67
 345 0012 4FF05E09 		mov	r9, #94
 257:../../libs/libDaisy/src/dev/mpr121.h ****     {
 346              		.loc 9 257 10 view .LVU68
 347 0016 0D46     		mov	r5, r1
 348              		.loc 9 264 17 view .LVU69
 349 0018 8DF80D30 		strb	r3, [sp, #13]
 350              	.LBB400:
 351              	.LBB397:
  66:../../libs/libDaisy/src/dev/mpr121.h ****     }
 352              		.loc 9 66 40 view .LVU70
 353 001c CDF80080 		str	r8, [sp]
 354 0020 0123     		movs	r3, #1
 355 0022 90F82C10 		ldrb	r1, [r0, #44]	@ zero_extendqisi2
 356              	.LVL18:
  66:../../libs/libDaisy/src/dev/mpr121.h ****     }
 357              		.loc 9 66 40 view .LVU71
 358              	.LBE397:
 359              	.LBE400:
 257:../../libs/libDaisy/src/dev/mpr121.h ****     {
 360              		.loc 9 257 10 view .LVU72
 361 0026 1746     		mov	r7, r2
 362              	.LBB401:
 363              	.LBB398:
  66:../../libs/libDaisy/src/dev/mpr121.h ****     }
 364              		.loc 9 66 40 view .LVU73
 365 0028 3046     		mov	r0, r6
 366              	.LVL19:
  66:../../libs/libDaisy/src/dev/mpr121.h ****     }
 367              		.loc 9 66 40 view .LVU74
ARM GAS  C:\Users\skipi\AppData\Local\Temp\cckXvY0f.s 			page 22


 368 002a 03AA     		add	r2, sp, #12
 369              	.LVL20:
  66:../../libs/libDaisy/src/dev/mpr121.h ****     }
 370              		.loc 9 66 40 view .LVU75
 371              	.LBE398:
 372              	.LBE401:
 373              		.loc 9 264 17 view .LVU76
 374 002c 8DF80C90 		strb	r9, [sp, #12]
 375              	.LVL21:
 376              	.LBB402:
 377              	.LBI395:
  63:../../libs/libDaisy/src/dev/mpr121.h ****     {
 378              		.loc 9 63 10 is_stmt 1 view .LVU77
 379              	.LBB399:
  65:../../libs/libDaisy/src/dev/mpr121.h ****                != i2c_.TransmitBlocking(config_.dev_addr, data, size, 10);
 380              		.loc 9 65 9 view .LVU78
  66:../../libs/libDaisy/src/dev/mpr121.h ****     }
 381              		.loc 9 66 40 is_stmt 0 view .LVU79
 382 0030 FFF7FEFF 		bl	_ZN5daisy9I2CHandle16TransmitBlockingEtPhtm
 383              	.LVL22:
  66:../../libs/libDaisy/src/dev/mpr121.h ****     }
 384              		.loc 9 66 40 view .LVU80
 385              	.LBE399:
 386              	.LBE402:
 387              	.LBB403:
 388              	.LBI403:
 265:../../libs/libDaisy/src/dev/mpr121.h **** 
 266:../../libs/libDaisy/src/dev/mpr121.h ****         SetTransportErr(transport_.Write(buff, 1));
 267:../../libs/libDaisy/src/dev/mpr121.h **** 
 268:../../libs/libDaisy/src/dev/mpr121.h ****         uint8_t ecr_backup;
 269:../../libs/libDaisy/src/dev/mpr121.h ****         SetTransportErr(transport_.Read(&ecr_backup, 1));
 270:../../libs/libDaisy/src/dev/mpr121.h ****         if((reg == MPR121_ECR) || ((0x73 <= reg) && (reg <= 0x7A)))
 271:../../libs/libDaisy/src/dev/mpr121.h ****         {
 272:../../libs/libDaisy/src/dev/mpr121.h ****             stop_required = false;
 273:../../libs/libDaisy/src/dev/mpr121.h ****         }
 274:../../libs/libDaisy/src/dev/mpr121.h **** 
 275:../../libs/libDaisy/src/dev/mpr121.h ****         if(stop_required)
 276:../../libs/libDaisy/src/dev/mpr121.h ****         {
 277:../../libs/libDaisy/src/dev/mpr121.h ****             // clear this register to set stop mode
 278:../../libs/libDaisy/src/dev/mpr121.h ****             SetTransportErr(transport_.Write(buff, 2));
 279:../../libs/libDaisy/src/dev/mpr121.h ****         }
 280:../../libs/libDaisy/src/dev/mpr121.h **** 
 281:../../libs/libDaisy/src/dev/mpr121.h ****         buff[0] = reg;
 282:../../libs/libDaisy/src/dev/mpr121.h ****         buff[1] = value;
 283:../../libs/libDaisy/src/dev/mpr121.h ****         SetTransportErr(transport_.Write(buff, 2));
 284:../../libs/libDaisy/src/dev/mpr121.h **** 
 285:../../libs/libDaisy/src/dev/mpr121.h ****         if(stop_required)
 286:../../libs/libDaisy/src/dev/mpr121.h ****         {
 287:../../libs/libDaisy/src/dev/mpr121.h ****             // write back the previous set ECR settings
 288:../../libs/libDaisy/src/dev/mpr121.h ****             buff[0] = ecr_reg;
 289:../../libs/libDaisy/src/dev/mpr121.h ****             buff[1] = ecr_backup;
 290:../../libs/libDaisy/src/dev/mpr121.h ****             SetTransportErr(transport_.Write(buff, 2));
 291:../../libs/libDaisy/src/dev/mpr121.h ****         }
 292:../../libs/libDaisy/src/dev/mpr121.h ****     }
 293:../../libs/libDaisy/src/dev/mpr121.h **** 
 294:../../libs/libDaisy/src/dev/mpr121.h ****     /** Device register map */
 295:../../libs/libDaisy/src/dev/mpr121.h ****     enum RegMap
ARM GAS  C:\Users\skipi\AppData\Local\Temp\cckXvY0f.s 			page 23


 296:../../libs/libDaisy/src/dev/mpr121.h ****     {
 297:../../libs/libDaisy/src/dev/mpr121.h ****         MPR121_TOUCHSTATUS_L = 0x00,
 298:../../libs/libDaisy/src/dev/mpr121.h ****         MPR121_TOUCHSTATUS_H = 0x01,
 299:../../libs/libDaisy/src/dev/mpr121.h ****         MPR121_FILTDATA_0L   = 0x04,
 300:../../libs/libDaisy/src/dev/mpr121.h ****         MPR121_FILTDATA_0H   = 0x05,
 301:../../libs/libDaisy/src/dev/mpr121.h ****         MPR121_BASELINE_0    = 0x1E,
 302:../../libs/libDaisy/src/dev/mpr121.h ****         MPR121_MHDR          = 0x2B,
 303:../../libs/libDaisy/src/dev/mpr121.h ****         MPR121_NHDR          = 0x2C,
 304:../../libs/libDaisy/src/dev/mpr121.h ****         MPR121_NCLR          = 0x2D,
 305:../../libs/libDaisy/src/dev/mpr121.h ****         MPR121_FDLR          = 0x2E,
 306:../../libs/libDaisy/src/dev/mpr121.h ****         MPR121_MHDF          = 0x2F,
 307:../../libs/libDaisy/src/dev/mpr121.h ****         MPR121_NHDF          = 0x30,
 308:../../libs/libDaisy/src/dev/mpr121.h ****         MPR121_NCLF          = 0x31,
 309:../../libs/libDaisy/src/dev/mpr121.h ****         MPR121_FDLF          = 0x32,
 310:../../libs/libDaisy/src/dev/mpr121.h ****         MPR121_NHDT          = 0x33,
 311:../../libs/libDaisy/src/dev/mpr121.h ****         MPR121_NCLT          = 0x34,
 312:../../libs/libDaisy/src/dev/mpr121.h ****         MPR121_FDLT          = 0x35,
 313:../../libs/libDaisy/src/dev/mpr121.h **** 
 314:../../libs/libDaisy/src/dev/mpr121.h ****         MPR121_TOUCHTH_0    = 0x41,
 315:../../libs/libDaisy/src/dev/mpr121.h ****         MPR121_RELEASETH_0  = 0x42,
 316:../../libs/libDaisy/src/dev/mpr121.h ****         MPR121_DEBOUNCE     = 0x5B,
 317:../../libs/libDaisy/src/dev/mpr121.h ****         MPR121_CONFIG1      = 0x5C,
 318:../../libs/libDaisy/src/dev/mpr121.h ****         MPR121_CONFIG2      = 0x5D,
 319:../../libs/libDaisy/src/dev/mpr121.h ****         MPR121_CHARGECURR_0 = 0x5F,
 320:../../libs/libDaisy/src/dev/mpr121.h ****         MPR121_CHARGETIME_1 = 0x6C,
 321:../../libs/libDaisy/src/dev/mpr121.h ****         MPR121_ECR          = 0x5E,
 322:../../libs/libDaisy/src/dev/mpr121.h ****         MPR121_AUTOCONFIG0  = 0x7B,
 323:../../libs/libDaisy/src/dev/mpr121.h ****         MPR121_AUTOCONFIG1  = 0x7C,
 324:../../libs/libDaisy/src/dev/mpr121.h ****         MPR121_UPLIMIT      = 0x7D,
 325:../../libs/libDaisy/src/dev/mpr121.h ****         MPR121_LOWLIMIT     = 0x7E,
 326:../../libs/libDaisy/src/dev/mpr121.h ****         MPR121_TARGETLIMIT  = 0x7F,
 327:../../libs/libDaisy/src/dev/mpr121.h **** 
 328:../../libs/libDaisy/src/dev/mpr121.h ****         MPR121_GPIODIR    = 0x76,
 329:../../libs/libDaisy/src/dev/mpr121.h ****         MPR121_GPIOEN     = 0x77,
 330:../../libs/libDaisy/src/dev/mpr121.h ****         MPR121_GPIOSET    = 0x78,
 331:../../libs/libDaisy/src/dev/mpr121.h ****         MPR121_GPIOCLR    = 0x79,
 332:../../libs/libDaisy/src/dev/mpr121.h ****         MPR121_GPIOTOGGLE = 0x7A,
 333:../../libs/libDaisy/src/dev/mpr121.h **** 
 334:../../libs/libDaisy/src/dev/mpr121.h ****         MPR121_SOFTRESET = 0x80,
 335:../../libs/libDaisy/src/dev/mpr121.h ****     };
 336:../../libs/libDaisy/src/dev/mpr121.h **** 
 337:../../libs/libDaisy/src/dev/mpr121.h ****   private:
 338:../../libs/libDaisy/src/dev/mpr121.h ****     Config    config_;
 339:../../libs/libDaisy/src/dev/mpr121.h ****     Transport transport_;
 340:../../libs/libDaisy/src/dev/mpr121.h ****     bool      transport_error_;
 341:../../libs/libDaisy/src/dev/mpr121.h **** 
 342:../../libs/libDaisy/src/dev/mpr121.h ****     /** Set the global transport_error_ bool */
 343:../../libs/libDaisy/src/dev/mpr121.h ****     void SetTransportErr(bool err) { transport_error_ |= err; }
 389              		.loc 9 343 10 is_stmt 1 view .LVU81
 390              	.LBE403:
 391              	.LBB407:
 392              	.LBB408:
  73:../../libs/libDaisy/src/dev/mpr121.h ****     }
 393              		.loc 9 73 39 is_stmt 0 view .LVU82
 394 0034 CDF80080 		str	r8, [sp]
 395 0038 0DF10B02 		add	r2, sp, #11
 396              	.LBE408:
ARM GAS  C:\Users\skipi\AppData\Local\Temp\cckXvY0f.s 			page 24


 397              	.LBE407:
 398              	.LBB412:
 399              	.LBB404:
 400              		.loc 9 343 55 view .LVU83
 401 003c 94F83030 		ldrb	r3, [r4, #48]	@ zero_extendqisi2
 402              	.LBE404:
 403              	.LBE412:
 404              	.LBB413:
 405              	.LBB409:
  73:../../libs/libDaisy/src/dev/mpr121.h ****     }
 406              		.loc 9 73 39 view .LVU84
 407 0040 94F82C10 		ldrb	r1, [r4, #44]	@ zero_extendqisi2
 408              	.LBE409:
 409              	.LBE413:
 410              	.LBB414:
 411              	.LBB405:
 412              		.loc 9 343 55 view .LVU85
 413 0044 0028     		cmp	r0, #0
 414 0046 18BF     		it	ne
 415 0048 43F00103 		orrne	r3, r3, #1
 416              	.LBE405:
 417              	.LBE414:
 418              	.LBB415:
 419              	.LBB410:
  73:../../libs/libDaisy/src/dev/mpr121.h ****     }
 420              		.loc 9 73 39 view .LVU86
 421 004c 3046     		mov	r0, r6
 422              	.LVL23:
  73:../../libs/libDaisy/src/dev/mpr121.h ****     }
 423              		.loc 9 73 39 view .LVU87
 424              	.LBE410:
 425              	.LBE415:
 426              	.LBB416:
 427              	.LBB406:
 428              		.loc 9 343 55 view .LVU88
 429 004e 84F83030 		strb	r3, [r4, #48]
 430              	.LVL24:
 431              		.loc 9 343 55 view .LVU89
 432              	.LBE406:
 433              	.LBE416:
 434              	.LBB417:
 435              	.LBI407:
  70:../../libs/libDaisy/src/dev/mpr121.h ****     {
 436              		.loc 9 70 10 is_stmt 1 view .LVU90
 437              	.LBB411:
  72:../../libs/libDaisy/src/dev/mpr121.h ****                != i2c_.ReceiveBlocking(config_.dev_addr, data, size, 10);
 438              		.loc 9 72 9 view .LVU91
  73:../../libs/libDaisy/src/dev/mpr121.h ****     }
 439              		.loc 9 73 39 is_stmt 0 view .LVU92
 440 0052 0123     		movs	r3, #1
 441 0054 FFF7FEFF 		bl	_ZN5daisy9I2CHandle15ReceiveBlockingEtPhtm
 442              	.LVL25:
  73:../../libs/libDaisy/src/dev/mpr121.h ****     }
 443              		.loc 9 73 39 view .LVU93
 444              	.LBE411:
 445              	.LBE417:
 446              	.LBB418:
ARM GAS  C:\Users\skipi\AppData\Local\Temp\cckXvY0f.s 			page 25


 447              	.LBI418:
 448              		.loc 9 343 10 is_stmt 1 view .LVU94
 449              	.LBB419:
 450              		.loc 9 343 55 is_stmt 0 view .LVU95
 451 0058 94F83030 		ldrb	r3, [r4, #48]	@ zero_extendqisi2
 452 005c 0028     		cmp	r0, #0
 453 005e 18BF     		it	ne
 454 0060 43F00103 		orrne	r3, r3, #1
 455 0064 84F83030 		strb	r3, [r4, #48]
 456              	.LVL26:
 457              		.loc 9 343 55 view .LVU96
 458              	.LBE419:
 459              	.LBE418:
 270:../../libs/libDaisy/src/dev/mpr121.h ****         {
 460              		.loc 9 270 50 view .LVU97
 461 0068 A5F17303 		sub	r3, r5, #115
 270:../../libs/libDaisy/src/dev/mpr121.h ****         {
 462              		.loc 9 270 9 view .LVU98
 463 006c 072B     		cmp	r3, #7
 464 006e 01D9     		bls	.L20
 465 0070 4D45     		cmp	r5, r9
 466 0072 17D1     		bne	.L24
 467              	.L20:
 468              	.LVL27:
 469              	.LBB420:
 470              	.LBB421:
  66:../../libs/libDaisy/src/dev/mpr121.h ****     }
 471              		.loc 9 66 40 view .LVU99
 472 0074 0A23     		movs	r3, #10
 473 0076 03AA     		add	r2, sp, #12
 474 0078 3046     		mov	r0, r6
 475              	.LBE421:
 476              	.LBE420:
 281:../../libs/libDaisy/src/dev/mpr121.h ****         buff[1] = value;
 477              		.loc 9 281 17 view .LVU100
 478 007a 8DF80C50 		strb	r5, [sp, #12]
 479              	.LBB430:
 480              	.LBB422:
  66:../../libs/libDaisy/src/dev/mpr121.h ****     }
 481              		.loc 9 66 40 view .LVU101
 482 007e 0093     		str	r3, [sp]
 483 0080 0223     		movs	r3, #2
 484              	.LBE422:
 485              	.LBE430:
 282:../../libs/libDaisy/src/dev/mpr121.h ****         SetTransportErr(transport_.Write(buff, 2));
 486              		.loc 9 282 17 view .LVU102
 487 0082 8DF80D70 		strb	r7, [sp, #13]
 488              	.LVL28:
 489              	.LBB431:
 490              	.LBI420:
  63:../../libs/libDaisy/src/dev/mpr121.h ****     {
 491              		.loc 9 63 10 is_stmt 1 view .LVU103
 492              	.LBB423:
  65:../../libs/libDaisy/src/dev/mpr121.h ****                != i2c_.TransmitBlocking(config_.dev_addr, data, size, 10);
 493              		.loc 9 65 9 view .LVU104
 494              	.L23:
  66:../../libs/libDaisy/src/dev/mpr121.h ****     }
ARM GAS  C:\Users\skipi\AppData\Local\Temp\cckXvY0f.s 			page 26


 495              		.loc 9 66 40 is_stmt 0 view .LVU105
 496 0086 94F82C10 		ldrb	r1, [r4, #44]	@ zero_extendqisi2
 497 008a FFF7FEFF 		bl	_ZN5daisy9I2CHandle16TransmitBlockingEtPhtm
 498              	.LVL29:
  66:../../libs/libDaisy/src/dev/mpr121.h ****     }
 499              		.loc 9 66 40 view .LVU106
 500              	.LBE423:
 501              	.LBE431:
 502              	.LBB432:
 503              	.LBI432:
 504              		.loc 9 343 10 is_stmt 1 view .LVU107
 505              	.LBB433:
 506              		.loc 9 343 55 is_stmt 0 view .LVU108
 507 008e 94F83030 		ldrb	r3, [r4, #48]	@ zero_extendqisi2
 508 0092 0028     		cmp	r0, #0
 509 0094 18BF     		it	ne
 510 0096 43F00103 		orrne	r3, r3, #1
 511 009a 84F83030 		strb	r3, [r4, #48]
 512              	.LVL30:
 513              		.loc 9 343 55 view .LVU109
 514              	.LBE433:
 515              	.LBE432:
 292:../../libs/libDaisy/src/dev/mpr121.h **** 
 516              		.loc 9 292 5 view .LVU110
 517 009e 05B0     		add	sp, sp, #20
 518              		.cfi_remember_state
 519              		.cfi_def_cfa_offset 28
 520              		@ sp needed
 521 00a0 BDE8F083 		pop	{r4, r5, r6, r7, r8, r9, pc}
 522              	.LVL31:
 523              	.L24:
 524              		.cfi_restore_state
 525              	.LBB437:
 526              	.LBI437:
  63:../../libs/libDaisy/src/dev/mpr121.h ****     {
 527              		.loc 9 63 10 is_stmt 1 view .LVU111
 528              	.LBB438:
  65:../../libs/libDaisy/src/dev/mpr121.h ****                != i2c_.TransmitBlocking(config_.dev_addr, data, size, 10);
 529              		.loc 9 65 9 view .LVU112
  66:../../libs/libDaisy/src/dev/mpr121.h ****     }
 530              		.loc 9 66 40 is_stmt 0 view .LVU113
 531 00a4 0223     		movs	r3, #2
 532 00a6 03AA     		add	r2, sp, #12
 533              	.LVL32:
  66:../../libs/libDaisy/src/dev/mpr121.h ****     }
 534              		.loc 9 66 40 view .LVU114
 535 00a8 CDF80080 		str	r8, [sp]
 536 00ac 3046     		mov	r0, r6
 537 00ae 94F82C10 		ldrb	r1, [r4, #44]	@ zero_extendqisi2
 538 00b2 FFF7FEFF 		bl	_ZN5daisy9I2CHandle16TransmitBlockingEtPhtm
 539              	.LVL33:
  66:../../libs/libDaisy/src/dev/mpr121.h ****     }
 540              		.loc 9 66 40 view .LVU115
 541              	.LBE438:
 542              	.LBE437:
 543              	.LBB439:
 544              	.LBI439:
ARM GAS  C:\Users\skipi\AppData\Local\Temp\cckXvY0f.s 			page 27


 545              		.loc 9 343 10 is_stmt 1 view .LVU116
 546              	.LBE439:
 547              	.LBB443:
 548              	.LBB424:
  66:../../libs/libDaisy/src/dev/mpr121.h ****     }
 549              		.loc 9 66 40 is_stmt 0 view .LVU117
 550 00b6 CDF80080 		str	r8, [sp]
 551              	.LBE424:
 552              	.LBE443:
 553              	.LBB444:
 554              	.LBB440:
 555              		.loc 9 343 55 view .LVU118
 556 00ba 94F83030 		ldrb	r3, [r4, #48]	@ zero_extendqisi2
 557              	.LBE440:
 558              	.LBE444:
 559              	.LBB445:
 560              	.LBB425:
  66:../../libs/libDaisy/src/dev/mpr121.h ****     }
 561              		.loc 9 66 40 view .LVU119
 562 00be 03AA     		add	r2, sp, #12
 563 00c0 94F82C10 		ldrb	r1, [r4, #44]	@ zero_extendqisi2
 564              	.LBE425:
 565              	.LBE445:
 566              	.LBB446:
 567              	.LBB441:
 568              		.loc 9 343 55 view .LVU120
 569 00c4 0028     		cmp	r0, #0
 570 00c6 18BF     		it	ne
 571 00c8 43F00103 		orrne	r3, r3, #1
 572              	.LBE441:
 573              	.LBE446:
 574              	.LBB447:
 575              	.LBB426:
  66:../../libs/libDaisy/src/dev/mpr121.h ****     }
 576              		.loc 9 66 40 view .LVU121
 577 00cc 3046     		mov	r0, r6
 578              	.LVL34:
  66:../../libs/libDaisy/src/dev/mpr121.h ****     }
 579              		.loc 9 66 40 view .LVU122
 580              	.LBE426:
 581              	.LBE447:
 281:../../libs/libDaisy/src/dev/mpr121.h ****         buff[1] = value;
 582              		.loc 9 281 17 view .LVU123
 583 00ce 8DF80C50 		strb	r5, [sp, #12]
 584              	.LBB448:
 585              	.LBB442:
 586              		.loc 9 343 55 view .LVU124
 587 00d2 84F83030 		strb	r3, [r4, #48]
 588              	.LVL35:
 589              		.loc 9 343 55 view .LVU125
 590              	.LBE442:
 591              	.LBE448:
 592              	.LBB449:
  63:../../libs/libDaisy/src/dev/mpr121.h ****     {
 593              		.loc 9 63 10 is_stmt 1 view .LVU126
 594              	.LBB427:
  65:../../libs/libDaisy/src/dev/mpr121.h ****                != i2c_.TransmitBlocking(config_.dev_addr, data, size, 10);
ARM GAS  C:\Users\skipi\AppData\Local\Temp\cckXvY0f.s 			page 28


 595              		.loc 9 65 9 view .LVU127
  66:../../libs/libDaisy/src/dev/mpr121.h ****     }
 596              		.loc 9 66 40 is_stmt 0 view .LVU128
 597 00d6 0223     		movs	r3, #2
 598              	.LBE427:
 599              	.LBE449:
 282:../../libs/libDaisy/src/dev/mpr121.h ****         SetTransportErr(transport_.Write(buff, 2));
 600              		.loc 9 282 17 view .LVU129
 601 00d8 8DF80D70 		strb	r7, [sp, #13]
 602              	.LBB450:
 603              	.LBB428:
  66:../../libs/libDaisy/src/dev/mpr121.h ****     }
 604              		.loc 9 66 40 view .LVU130
 605 00dc FFF7FEFF 		bl	_ZN5daisy9I2CHandle16TransmitBlockingEtPhtm
 606              	.LVL36:
  66:../../libs/libDaisy/src/dev/mpr121.h ****     }
 607              		.loc 9 66 40 view .LVU131
 608              	.LBE428:
 609              	.LBE450:
 610              	.LBB451:
 611              	.LBB452:
 612 00e0 CDF80080 		str	r8, [sp]
 613              	.LBE452:
 614              	.LBE451:
 615              	.LBB457:
 616              	.LBB429:
 617 00e4 0546     		mov	r5, r0
 618              	.LVL37:
  66:../../libs/libDaisy/src/dev/mpr121.h ****     }
 619              		.loc 9 66 40 view .LVU132
 620              	.LBE429:
 621              	.LBE457:
 622              	.LBB458:
 623              		.loc 9 343 10 is_stmt 1 view .LVU133
 624              	.LBB434:
 625              		.loc 9 343 55 is_stmt 0 view .LVU134
 626 00e6 94F83010 		ldrb	r1, [r4, #48]	@ zero_extendqisi2
 627              	.LBE434:
 628              	.LBE458:
 629              	.LBB459:
 630              	.LBB453:
  66:../../libs/libDaisy/src/dev/mpr121.h ****     }
 631              		.loc 9 66 40 view .LVU135
 632 00ea 03AA     		add	r2, sp, #12
 633              	.LBE453:
 634              	.LBE459:
 289:../../libs/libDaisy/src/dev/mpr121.h ****             SetTransportErr(transport_.Write(buff, 2));
 635              		.loc 9 289 21 view .LVU136
 636 00ec 9DF80B30 		ldrb	r3, [sp, #11]	@ zero_extendqisi2
 637              	.LBB460:
 638              	.LBB454:
  66:../../libs/libDaisy/src/dev/mpr121.h ****     }
 639              		.loc 9 66 40 view .LVU137
 640 00f0 3046     		mov	r0, r6
 641              	.LVL38:
  66:../../libs/libDaisy/src/dev/mpr121.h ****     }
 642              		.loc 9 66 40 view .LVU138
ARM GAS  C:\Users\skipi\AppData\Local\Temp\cckXvY0f.s 			page 29


 643              	.LBE454:
 644              	.LBE460:
 645              	.LBB461:
 646              	.LBB435:
 647              		.loc 9 343 55 view .LVU139
 648 00f2 002D     		cmp	r5, #0
 649 00f4 18BF     		it	ne
 650 00f6 41F00101 		orrne	r1, r1, #1
 651              	.LBE435:
 652              	.LBE461:
 288:../../libs/libDaisy/src/dev/mpr121.h ****             buff[1] = ecr_backup;
 653              		.loc 9 288 21 view .LVU140
 654 00fa 8DF80C90 		strb	r9, [sp, #12]
 289:../../libs/libDaisy/src/dev/mpr121.h ****             SetTransportErr(transport_.Write(buff, 2));
 655              		.loc 9 289 21 view .LVU141
 656 00fe 8DF80D30 		strb	r3, [sp, #13]
 657              	.LBB462:
 658              	.LBB455:
  66:../../libs/libDaisy/src/dev/mpr121.h ****     }
 659              		.loc 9 66 40 view .LVU142
 660 0102 0223     		movs	r3, #2
 661              	.LBE455:
 662              	.LBE462:
 663              	.LBB463:
 664              	.LBB436:
 665              		.loc 9 343 55 view .LVU143
 666 0104 84F83010 		strb	r1, [r4, #48]
 667              	.LVL39:
 668              		.loc 9 343 55 view .LVU144
 669              	.LBE436:
 670              	.LBE463:
 671              	.LBB464:
 672              	.LBI451:
  63:../../libs/libDaisy/src/dev/mpr121.h ****     {
 673              		.loc 9 63 10 is_stmt 1 view .LVU145
 674              	.LBB456:
  65:../../libs/libDaisy/src/dev/mpr121.h ****                != i2c_.TransmitBlocking(config_.dev_addr, data, size, 10);
 675              		.loc 9 65 9 view .LVU146
 676 0108 BDE7     		b	.L23
 677              	.LBE456:
 678              	.LBE464:
 679              		.cfi_endproc
 680              	.LFE5285:
 682 010a 00BF     		.section	.rodata.main.str1.4,"aMS",%progbits,1
 683              		.align	2
 684              	.LC0:
 685 0000 4552524F 		.ascii	"ERROR: MPR121 not found. Check wiring!\000"
 685      523A204D 
 685      50523132 
 685      31206E6F 
 685      7420666F 
 686 0027 00       		.align	2
 687              	.LC1:
 688 0028 4D505231 		.ascii	"MPR121 Initialized @ 400kHz!\000"
 688      32312049 
 688      6E697469 
 688      616C697A 
ARM GAS  C:\Users\skipi\AppData\Local\Temp\cckXvY0f.s 			page 30


 688      65642040 
 689 0045 000000   		.align	2
 690              	.LC2:
 691 0048 544F5543 		.ascii	"TOUCH | Freq: %.2f Hz | Delta: %.2f | Filt: %.2f\000"
 691      48207C20 
 691      46726571 
 691      3A20252E 
 691      32662048 
 692 0079 000000   		.align	2
 693              	.LC3:
 694 007c 2E2E2E2E 		.ascii	"..... | Freq: %.2f Hz | Delta: %.2f | Filt: %.2f\000"
 694      2E207C20 
 694      46726571 
 694      3A20252E 
 694      32662048 
 695              		.section	.text.startup.main,"ax",%progbits
 696              		.align	1
 697              		.p2align 2,,3
 698              		.global	main
 699              		.syntax unified
 700              		.thumb
 701              		.thumb_func
 702              		.fpu fpv5-d16
 704              	main:
 705              	.LFB4849:
  59:main.cpp      **** 
  60:main.cpp      **** // --- MAIN FUNCTION ---
  61:main.cpp      **** int main()
  62:main.cpp      **** {
 706              		.loc 10 62 1 view -0
 707              		.cfi_startproc
 708              		@ args = 0, pretend = 0, frame = 72
 709              		@ frame_needed = 0, uses_anonymous_args = 0
  63:main.cpp      ****     // 1. HARDWARE INITIALIZATION
  64:main.cpp      ****     hw.Configure();
 710              		.loc 10 64 5 view .LVU148
  62:main.cpp      ****     // 1. HARDWARE INITIALIZATION
 711              		.loc 10 62 1 is_stmt 0 view .LVU149
 712 0000 2DE9F04F 		push	{r4, r5, r6, r7, r8, r9, r10, fp, lr}
 713              		.cfi_def_cfa_offset 36
 714              		.cfi_offset 4, -36
 715              		.cfi_offset 5, -32
 716              		.cfi_offset 6, -28
 717              		.cfi_offset 7, -24
 718              		.cfi_offset 8, -20
 719              		.cfi_offset 9, -16
 720              		.cfi_offset 10, -12
 721              		.cfi_offset 11, -8
 722              		.cfi_offset 14, -4
 723              		.loc 10 64 17 view .LVU150
 724 0004 CB48     		ldr	r0, .L41
 725              	.LBB586:
 726              	.LBB587:
 139:../../libs/libDaisy/src/dev/mpr121.h ****         WriteRegister(MPR121_MHDR, 0x01);
 727              		.loc 9 139 22 view .LVU151
 728 0006 4125     		movs	r5, #65
 123:../../libs/libDaisy/src/dev/mpr121.h **** 
ARM GAS  C:\Users\skipi\AppData\Local\Temp\cckXvY0f.s 			page 31


 729              		.loc 9 123 9 view .LVU152
 730 0008 CB4C     		ldr	r4, .L41+4
 731              	.LBE587:
 732              	.LBE586:
  62:main.cpp      ****     // 1. HARDWARE INITIALIZATION
 733              		.loc 10 62 1 view .LVU153
 734 000a 2DED028B 		vpush.64	{d8}
 735              		.cfi_def_cfa_offset 44
 736              		.cfi_offset 80, -44
 737              		.cfi_offset 81, -40
 738 000e 97B0     		sub	sp, sp, #92
 739              		.cfi_def_cfa_offset 136
 740              	.LBB771:
 741              	.LBB766:
 123:../../libs/libDaisy/src/dev/mpr121.h **** 
 742              		.loc 9 123 9 view .LVU154
 743 0010 2746     		mov	r7, r4
 744              	.LBE766:
 745              	.LBE771:
 746              		.loc 10 64 17 view .LVU155
 747 0012 FFF7FEFF 		bl	_ZN5daisy9DaisySeed9ConfigureEv
 748              	.LVL40:
  65:main.cpp      ****     hw.Init();
 749              		.loc 10 65 5 is_stmt 1 view .LVU156
 750              		.loc 10 65 12 is_stmt 0 view .LVU157
 751 0016 0021     		movs	r1, #0
 752 0018 C648     		ldr	r0, .L41
 753 001a A346     		mov	fp, r4
 754 001c FFF7FEFF 		bl	_ZN5daisy9DaisySeed4InitEb
 755              	.LVL41:
  66:main.cpp      ****     hw.SetAudioBlockSize(4);
 756              		.loc 10 66 5 is_stmt 1 view .LVU158
 757              		.loc 10 66 25 is_stmt 0 view .LVU159
 758 0020 0421     		movs	r1, #4
 759 0022 C448     		ldr	r0, .L41
 760 0024 0DF1180A 		add	r10, sp, #24
 761 0028 FFF7FEFF 		bl	_ZN5daisy9DaisySeed17SetAudioBlockSizeEj
 762              	.LVL42:
  67:main.cpp      **** 
  68:main.cpp      ****     // Initialize Serial Logger
  69:main.cpp      ****     #ifdef Debug
  70:main.cpp      ****     hw.StartLog(false);
 763              		.loc 10 70 5 is_stmt 1 view .LVU160
 764              	.LBB772:
 765              	.LBI772:
  23:../../libs/libDaisy/src/daisy_seed.h **** 
  24:../../libs/libDaisy/src/daisy_seed.h ****     /** This function used to provide a pre-initialization configuraiton 
  25:../../libs/libDaisy/src/daisy_seed.h ****      *  it has since been deprecated, and does nothing.
  26:../../libs/libDaisy/src/daisy_seed.h ****      */
  27:../../libs/libDaisy/src/daisy_seed.h ****     void Configure();
  28:../../libs/libDaisy/src/daisy_seed.h **** 
  29:../../libs/libDaisy/src/daisy_seed.h ****     /** 
  30:../../libs/libDaisy/src/daisy_seed.h ****     Initializes the Daisy Seed and the following peripherals:
  31:../../libs/libDaisy/src/daisy_seed.h ****     SDRAM, QSPI, 24-bit 48kHz Audio via AK4556, Internal USB,
  32:../../libs/libDaisy/src/daisy_seed.h ****     as well as the built-in LED and Testpoint.
  33:../../libs/libDaisy/src/daisy_seed.h **** 
  34:../../libs/libDaisy/src/daisy_seed.h ****     ADCs, DACs, and other special peripherals (such as I2C, SPI, etc.)
ARM GAS  C:\Users\skipi\AppData\Local\Temp\cckXvY0f.s 			page 32


  35:../../libs/libDaisy/src/daisy_seed.h ****     can be initialized using their specific initializers within libdaisy
  36:../../libs/libDaisy/src/daisy_seed.h ****     for a specific application.
  37:../../libs/libDaisy/src/daisy_seed.h ****     */
  38:../../libs/libDaisy/src/daisy_seed.h ****     void Init(bool boost = false);
  39:../../libs/libDaisy/src/daisy_seed.h **** 
  40:../../libs/libDaisy/src/daisy_seed.h ****     /** 
  41:../../libs/libDaisy/src/daisy_seed.h ****     Deinitializes all peripherals automatically handled by `Init`.
  42:../../libs/libDaisy/src/daisy_seed.h ****     */
  43:../../libs/libDaisy/src/daisy_seed.h ****     void DeInit();
  44:../../libs/libDaisy/src/daisy_seed.h **** 
  45:../../libs/libDaisy/src/daisy_seed.h ****     /** 
  46:../../libs/libDaisy/src/daisy_seed.h ****     Wait some ms before going on.
  47:../../libs/libDaisy/src/daisy_seed.h ****     \param del Delay time in ms.
  48:../../libs/libDaisy/src/daisy_seed.h ****     */
  49:../../libs/libDaisy/src/daisy_seed.h ****     void DelayMs(size_t del);
  50:../../libs/libDaisy/src/daisy_seed.h **** 
  51:../../libs/libDaisy/src/daisy_seed.h ****     /** 
  52:../../libs/libDaisy/src/daisy_seed.h ****     Returns the gpio_pin corresponding to the index 0-31.
  53:../../libs/libDaisy/src/daisy_seed.h ****     For the given GPIO on the Daisy Seed (labeled 1-32 in docs).
  54:../../libs/libDaisy/src/daisy_seed.h ****     */
  55:../../libs/libDaisy/src/daisy_seed.h ****     static Pin GetPin(uint8_t pin_idx);
  56:../../libs/libDaisy/src/daisy_seed.h **** 
  57:../../libs/libDaisy/src/daisy_seed.h ****     /** Begins the audio for the seeds builtin audio.
  58:../../libs/libDaisy/src/daisy_seed.h ****     the specified callback will get called whenever
  59:../../libs/libDaisy/src/daisy_seed.h ****     new data is ready to be prepared.
  60:../../libs/libDaisy/src/daisy_seed.h ****     */
  61:../../libs/libDaisy/src/daisy_seed.h ****     void StartAudio(AudioHandle::InterleavingAudioCallback cb);
  62:../../libs/libDaisy/src/daisy_seed.h **** 
  63:../../libs/libDaisy/src/daisy_seed.h ****     /** Begins the audio for the seeds builtin audio.
  64:../../libs/libDaisy/src/daisy_seed.h ****     the specified callback will get called whenever
  65:../../libs/libDaisy/src/daisy_seed.h ****     new data is ready to be prepared.
  66:../../libs/libDaisy/src/daisy_seed.h ****     This will use the newer non-interleaved callback.
  67:../../libs/libDaisy/src/daisy_seed.h ****     */
  68:../../libs/libDaisy/src/daisy_seed.h ****     void StartAudio(AudioHandle::AudioCallback cb);
  69:../../libs/libDaisy/src/daisy_seed.h **** 
  70:../../libs/libDaisy/src/daisy_seed.h ****     /** Changes to a new interleaved callback
  71:../../libs/libDaisy/src/daisy_seed.h ****      */
  72:../../libs/libDaisy/src/daisy_seed.h ****     void ChangeAudioCallback(AudioHandle::InterleavingAudioCallback cb);
  73:../../libs/libDaisy/src/daisy_seed.h **** 
  74:../../libs/libDaisy/src/daisy_seed.h ****     /** Changes to a new multichannel callback
  75:../../libs/libDaisy/src/daisy_seed.h ****      */
  76:../../libs/libDaisy/src/daisy_seed.h ****     void ChangeAudioCallback(AudioHandle::AudioCallback cb);
  77:../../libs/libDaisy/src/daisy_seed.h **** 
  78:../../libs/libDaisy/src/daisy_seed.h ****     /** Stops the audio if it is running. */
  79:../../libs/libDaisy/src/daisy_seed.h ****     void StopAudio();
  80:../../libs/libDaisy/src/daisy_seed.h **** 
  81:../../libs/libDaisy/src/daisy_seed.h ****     /** Updates the Audio Sample Rate, and reinitializes.
  82:../../libs/libDaisy/src/daisy_seed.h ****      ** Audio must be stopped for this to work.
  83:../../libs/libDaisy/src/daisy_seed.h ****      */
  84:../../libs/libDaisy/src/daisy_seed.h ****     void SetAudioSampleRate(SaiHandle::Config::SampleRate samplerate);
  85:../../libs/libDaisy/src/daisy_seed.h **** 
  86:../../libs/libDaisy/src/daisy_seed.h ****     /** Returns the audio sample rate in Hz as a floating point number.
  87:../../libs/libDaisy/src/daisy_seed.h ****      */
  88:../../libs/libDaisy/src/daisy_seed.h ****     float AudioSampleRate();
  89:../../libs/libDaisy/src/daisy_seed.h **** 
  90:../../libs/libDaisy/src/daisy_seed.h ****     /** Sets the number of samples processed per channel by the audio callback.
  91:../../libs/libDaisy/src/daisy_seed.h ****      */
ARM GAS  C:\Users\skipi\AppData\Local\Temp\cckXvY0f.s 			page 33


  92:../../libs/libDaisy/src/daisy_seed.h ****     void SetAudioBlockSize(size_t blocksize);
  93:../../libs/libDaisy/src/daisy_seed.h **** 
  94:../../libs/libDaisy/src/daisy_seed.h ****     /** Returns the number of samples per channel in a block of audio. */
  95:../../libs/libDaisy/src/daisy_seed.h ****     size_t AudioBlockSize();
  96:../../libs/libDaisy/src/daisy_seed.h **** 
  97:../../libs/libDaisy/src/daisy_seed.h ****     /** Returns the rate in Hz that the Audio callback is called */
  98:../../libs/libDaisy/src/daisy_seed.h ****     float AudioCallbackRate() const;
  99:../../libs/libDaisy/src/daisy_seed.h **** 
 100:../../libs/libDaisy/src/daisy_seed.h ****     /** Returns the SAI Handle for the Daisy Seed 
 101:../../libs/libDaisy/src/daisy_seed.h ****      *  This can be useful when adding a secondary codec,
 102:../../libs/libDaisy/src/daisy_seed.h ****      *  the result of this function can be passed to the audio reinit 
 103:../../libs/libDaisy/src/daisy_seed.h ****      *  with an SAI2 configuration
 104:../../libs/libDaisy/src/daisy_seed.h ****      */
 105:../../libs/libDaisy/src/daisy_seed.h ****     const SaiHandle& AudioSaiHandle() const;
 106:../../libs/libDaisy/src/daisy_seed.h **** 
 107:../../libs/libDaisy/src/daisy_seed.h ****     /** Sets the state of the built in LED
 108:../../libs/libDaisy/src/daisy_seed.h ****      */
 109:../../libs/libDaisy/src/daisy_seed.h ****     void SetLed(bool state);
 110:../../libs/libDaisy/src/daisy_seed.h **** 
 111:../../libs/libDaisy/src/daisy_seed.h ****     /** Sets the state of the test point near pin 10
 112:../../libs/libDaisy/src/daisy_seed.h ****      */
 113:../../libs/libDaisy/src/daisy_seed.h ****     void SetTestPoint(bool state);
 114:../../libs/libDaisy/src/daisy_seed.h **** 
 115:../../libs/libDaisy/src/daisy_seed.h ****     /** Print formatted debug log message
 116:../../libs/libDaisy/src/daisy_seed.h ****      */
 117:../../libs/libDaisy/src/daisy_seed.h ****     template <typename... VA>
 118:../../libs/libDaisy/src/daisy_seed.h ****     static void Print(const char* format, VA... va)
 119:../../libs/libDaisy/src/daisy_seed.h ****     {
 120:../../libs/libDaisy/src/daisy_seed.h ****         Log::Print(format, va...);
 121:../../libs/libDaisy/src/daisy_seed.h ****     }
 122:../../libs/libDaisy/src/daisy_seed.h **** 
 123:../../libs/libDaisy/src/daisy_seed.h ****     /** Print formatted debug log message with automatic line termination
 124:../../libs/libDaisy/src/daisy_seed.h ****     */
 125:../../libs/libDaisy/src/daisy_seed.h ****     template <typename... VA>
 126:../../libs/libDaisy/src/daisy_seed.h ****     static void PrintLine(const char* format, VA... va)
 127:../../libs/libDaisy/src/daisy_seed.h ****     {
 128:../../libs/libDaisy/src/daisy_seed.h ****         Log::PrintLine(format, va...);
 129:../../libs/libDaisy/src/daisy_seed.h ****     }
 130:../../libs/libDaisy/src/daisy_seed.h **** 
 131:../../libs/libDaisy/src/daisy_seed.h ****     /** Start the logging session. Optionally wait for terminal connection before proceeding.
 132:../../libs/libDaisy/src/daisy_seed.h ****     */
 133:../../libs/libDaisy/src/daisy_seed.h ****     static void StartLog(bool wait_for_pc = false)
 766              		.loc 1 133 17 view .LVU161
 767              	.LBB773:
 134:../../libs/libDaisy/src/daisy_seed.h ****     {
 135:../../libs/libDaisy/src/daisy_seed.h ****         Log::StartLog(wait_for_pc);
 768              		.loc 1 135 9 view .LVU162
 769              		.loc 1 135 22 is_stmt 0 view .LVU163
 770 002c 0020     		movs	r0, #0
 771 002e FFF7FEFF 		bl	_ZN5daisy6LoggerILNS_17LoggerDestinationE1EE8StartLogEb
 772              	.LVL43:
 773              		.loc 1 135 22 view .LVU164
 774              	.LBE773:
 775              	.LBE772:
  71:main.cpp      ****     #endif
  72:main.cpp      **** 
  73:main.cpp      ****     // 2. MPR121 INITIALIZATION
ARM GAS  C:\Users\skipi\AppData\Local\Temp\cckXvY0f.s 			page 34


  74:main.cpp      ****     mpr121ObjConf.transport_config.speed = daisy::I2CHandle::Config::Speed::I2C_400KHZ;
 776              		.loc 10 74 5 is_stmt 1 view .LVU165
 777              		.loc 10 74 42 is_stmt 0 view .LVU166
 778 0032 C24B     		ldr	r3, .L41+8
 779 0034 0122     		movs	r2, #1
 780 0036 0DF1400C 		add	ip, sp, #64
 781 003a 9946     		mov	r9, r3
 782              	.LBB774:
 783              	.LBB767:
 784              	.LBB588:
 785              	.LBB589:
  49:../../libs/libDaisy/src/dev/mpr121.h **** 
 786              		.loc 9 49 17 view .LVU167
 787 003c D046     		mov	r8, r10
 788              	.LBE589:
 789              	.LBE588:
 790              	.LBE767:
 791              	.LBE774:
 792              		.loc 10 74 42 view .LVU168
 793 003e 5A60     		str	r2, [r3, #4]
  75:main.cpp      **** 
  76:main.cpp      ****     if (cap.Init(mpr121ObjConf) != daisy::Mpr121I2C::Result::OK)
 794              		.loc 10 76 5 is_stmt 1 view .LVU169
 795              	.LVL44:
 796              	.LBB775:
 797              	.LBB768:
 123:../../libs/libDaisy/src/dev/mpr121.h **** 
 798              		.loc 9 123 9 is_stmt 0 view .LVU170
 799 0040 E646     		mov	lr, ip
 800 0042 2646     		mov	r6, r4
 801 0044 B9E80F00 		ldmia	r9!, {r0, r1, r2, r3}
 802 0048 ACE80F00 		stmia	ip!, {r0, r1, r2, r3}
 803 004c 99E80300 		ldm	r9, {r0, r1}
 804 0050 4CF8040B 		str	r0, [ip], #4
 805 0054 ACF80010 		strh	r1, [ip]	@ movhi
 806              	.LBE768:
 807              	.LBI586:
 121:../../libs/libDaisy/src/dev/mpr121.h ****     {
 808              		.loc 9 121 12 is_stmt 1 view .LVU171
 809              	.LBB769:
 123:../../libs/libDaisy/src/dev/mpr121.h **** 
 810              		.loc 9 123 9 is_stmt 0 view .LVU172
 811 0058 BEE80F00 		ldmia	lr!, {r0, r1, r2, r3}
 812 005c 0FC7     		stmia	r7!, {r0, r1, r2, r3}
 813 005e 9EE80300 		ldm	lr, {r0, r1}
 814 0062 47F8040B 		str	r0, [r7], #4
 815 0066 3980     		strh	r1, [r7]	@ movhi
 816              	.LVL45:
 123:../../libs/libDaisy/src/dev/mpr121.h **** 
 817              		.loc 9 123 9 view .LVU173
 818 0068 0746     		mov	r7, r0
 819 006a BBE80F00 		ldmia	fp!, {r0, r1, r2, r3}
 820 006e AAE80F00 		stmia	r10!, {r0, r1, r2, r3}
 821              	.LBB601:
 822              	.LBB599:
 823              	.LBB590:
 824              	.LBB591:
ARM GAS  C:\Users\skipi\AppData\Local\Temp\cckXvY0f.s 			page 35


 825              		.file 11 "../../libs/libDaisy/src/per/i2c.h"
   1:../../libs/libDaisy/src/per/i2c.h **** #pragma once
   2:../../libs/libDaisy/src/per/i2c.h **** #include "util/hal_map.h"
   3:../../libs/libDaisy/src/per/i2c.h **** #include "daisy_core.h"
   4:../../libs/libDaisy/src/per/i2c.h **** 
   5:../../libs/libDaisy/src/per/i2c.h **** namespace daisy
   6:../../libs/libDaisy/src/per/i2c.h **** {
   7:../../libs/libDaisy/src/per/i2c.h **** /** A handle for interacting with an I2C peripheral. This is a dumb
   8:../../libs/libDaisy/src/per/i2c.h ****  *  gateway that internally points to one of the four I2C peripherals
   9:../../libs/libDaisy/src/per/i2c.h ****  *  after it was initialised. It can then be copied and passed around.
  10:../../libs/libDaisy/src/per/i2c.h ****  *  Use an I2CHandle like this:
  11:../../libs/libDaisy/src/per/i2c.h ****  *  
  12:../../libs/libDaisy/src/per/i2c.h ****  *      // setup the configuration
  13:../../libs/libDaisy/src/per/i2c.h ****  *      I2CHandle::Config i2c_conf;
  14:../../libs/libDaisy/src/per/i2c.h ****  *      i2c_conf.periph = I2CHandle::Config::Peripheral::I2C_1;
  15:../../libs/libDaisy/src/per/i2c.h ****  *      i2c_conf.speed  = I2CHandle::Config::Speed::I2C_400KHZ;
  16:../../libs/libDaisy/src/per/i2c.h ****  *      i2c_conf.mode   = I2CHandle::Config::Mode::Master;
  17:../../libs/libDaisy/src/per/i2c.h ****  *      i2c_conf.pin_config.scl  = {DSY_GPIOB, 8};
  18:../../libs/libDaisy/src/per/i2c.h ****  *      i2c_conf.pin_config.sda  = {DSY_GPIOB, 9};
  19:../../libs/libDaisy/src/per/i2c.h ****  *      // initialise the peripheral
  20:../../libs/libDaisy/src/per/i2c.h ****  *      I2CHandle i2c;
  21:../../libs/libDaisy/src/per/i2c.h ****  *      i2c.Init(i2c_conf);
  22:../../libs/libDaisy/src/per/i2c.h ****  *      // now i2c points to the corresponding peripheral and can be used.
  23:../../libs/libDaisy/src/per/i2c.h ****  *      i2c.TransmitBlocking( ... );
  24:../../libs/libDaisy/src/per/i2c.h ****  */
  25:../../libs/libDaisy/src/per/i2c.h **** class I2CHandle
  26:../../libs/libDaisy/src/per/i2c.h **** {
  27:../../libs/libDaisy/src/per/i2c.h ****   public:
  28:../../libs/libDaisy/src/per/i2c.h ****     /** Contains settings for initialising an I2C interface. */
  29:../../libs/libDaisy/src/per/i2c.h ****     struct Config
 826              		.loc 11 29 12 view .LVU174
 827 0072 4FF01003 		mov	r3, #16
 828              	.LBE591:
 829              	.LBE590:
  54:../../libs/libDaisy/src/dev/mpr121.h **** 
 830              		.loc 9 54 25 view .LVU175
 831 0076 0022     		movs	r2, #0
 832 0078 CAF80070 		str	r7, [r10]
 833              	.LBB597:
 834              	.LBB595:
 835              		.loc 11 29 12 view .LVU176
 836 007c 8DF83C30 		strb	r3, [sp, #60]
 837              	.LBE595:
 838              	.LBE597:
  54:../../libs/libDaisy/src/dev/mpr121.h **** 
 839              		.loc 9 54 25 view .LVU177
 840 0080 0123     		movs	r3, #1
 841 0082 CDE90D32 		strd	r3, r2, [sp, #52]
 842 0086 56F81C3B 		ldr	r3, [r6], #28
 843              	.LVL46:
  54:../../libs/libDaisy/src/dev/mpr121.h **** 
 844              		.loc 9 54 25 view .LVU178
 845              	.LBE599:
 846              	.LBI588:
  47:../../libs/libDaisy/src/dev/mpr121.h ****     {
 847              		.loc 9 47 17 is_stmt 1 view .LVU179
 848              	.LBB600:
ARM GAS  C:\Users\skipi\AppData\Local\Temp\cckXvY0f.s 			page 36


  49:../../libs/libDaisy/src/dev/mpr121.h **** 
 849              		.loc 9 49 9 view .LVU180
  49:../../libs/libDaisy/src/dev/mpr121.h **** 
 850              		.loc 9 49 17 is_stmt 0 view .LVU181
 851 008a 0693     		str	r3, [sp, #24]
  53:../../libs/libDaisy/src/dev/mpr121.h ****         i2c_conf.speed  = config.speed;
 852              		.loc 9 53 25 view .LVU182
 853 008c 0B93     		str	r3, [sp, #44]
  56:../../libs/libDaisy/src/dev/mpr121.h ****         i2c_conf.pin_config.sda = config.sda;
 854              		.loc 9 56 33 view .LVU183
 855 008e BDF82030 		ldrh	r3, [sp, #32]
 856 0092 ADF83030 		strh	r3, [sp, #48]	@ movhi
  57:../../libs/libDaisy/src/dev/mpr121.h **** 
 857              		.loc 9 57 33 view .LVU184
 858 0096 BDF82230 		ldrh	r3, [sp, #34]
 859 009a ADF83230 		strh	r3, [sp, #50]	@ movhi
  49:../../libs/libDaisy/src/dev/mpr121.h **** 
 860              		.loc 9 49 17 view .LVU185
 861 009e B8E80F00 		ldmia	r8!, {r0, r1, r2, r3}
  49:../../libs/libDaisy/src/dev/mpr121.h **** 
 862              		.loc 9 49 17 view .LVU186
 863 00a2 0FC6     		stmia	r6!, {r0, r1, r2, r3}
  59:../../libs/libDaisy/src/dev/mpr121.h ****     }
 864              		.loc 9 59 50 view .LVU187
 865 00a4 0BA9     		add	r1, sp, #44
 866 00a6 04F11800 		add	r0, r4, #24
 867              	.LVL47:
  49:../../libs/libDaisy/src/dev/mpr121.h **** 
 868              		.loc 9 49 17 view .LVU188
 869 00aa 3770     		strb	r7, [r6]
  51:../../libs/libDaisy/src/dev/mpr121.h ****         i2c_conf.mode   = I2CHandle::Config::Mode::I2C_MASTER;
 870              		.loc 9 51 9 is_stmt 1 view .LVU189
 871              	.LVL48:
 872              	.LBB598:
 873              	.LBI590:
 874              		.loc 11 29 12 view .LVU190
 875              	.LBB596:
 876              	.LBB592:
 877              	.LBI592:
  30:../../libs/libDaisy/src/per/i2c.h ****     {
  31:../../libs/libDaisy/src/per/i2c.h ****         /** Specifies whether the interface will operate in master or slave mode. */
  32:../../libs/libDaisy/src/per/i2c.h ****         enum class Mode
  33:../../libs/libDaisy/src/per/i2c.h ****         {
  34:../../libs/libDaisy/src/per/i2c.h ****             I2C_MASTER,
  35:../../libs/libDaisy/src/per/i2c.h ****             I2C_SLAVE,
  36:../../libs/libDaisy/src/per/i2c.h ****         };
  37:../../libs/libDaisy/src/per/i2c.h **** 
  38:../../libs/libDaisy/src/per/i2c.h ****         /** Specifices the internal peripheral to use (these are mapped to different pins on the ha
  39:../../libs/libDaisy/src/per/i2c.h ****         enum class Peripheral
  40:../../libs/libDaisy/src/per/i2c.h ****         {
  41:../../libs/libDaisy/src/per/i2c.h ****             I2C_1 = 0, /**< & */
  42:../../libs/libDaisy/src/per/i2c.h ****             I2C_2,     /**< & */
  43:../../libs/libDaisy/src/per/i2c.h ****             I2C_3,     /**< & */
  44:../../libs/libDaisy/src/per/i2c.h ****             I2C_4,     /**< & */
  45:../../libs/libDaisy/src/per/i2c.h ****         };
  46:../../libs/libDaisy/src/per/i2c.h **** 
  47:../../libs/libDaisy/src/per/i2c.h ****         /** Rate at which the clock/data will be sent/received. The device being used will have max
ARM GAS  C:\Users\skipi\AppData\Local\Temp\cckXvY0f.s 			page 37


  48:../../libs/libDaisy/src/per/i2c.h ****          *  1MHZ Mode is currently 886kHz
  49:../../libs/libDaisy/src/per/i2c.h ****          */
  50:../../libs/libDaisy/src/per/i2c.h ****         enum class Speed
  51:../../libs/libDaisy/src/per/i2c.h ****         {
  52:../../libs/libDaisy/src/per/i2c.h ****             I2C_100KHZ, /**< & */
  53:../../libs/libDaisy/src/per/i2c.h ****             I2C_400KHZ, /**< & */
  54:../../libs/libDaisy/src/per/i2c.h ****             I2C_1MHZ,   /**< & */
  55:../../libs/libDaisy/src/per/i2c.h ****         };
  56:../../libs/libDaisy/src/per/i2c.h **** 
  57:../../libs/libDaisy/src/per/i2c.h ****         Peripheral periph; /**< & */
  58:../../libs/libDaisy/src/per/i2c.h ****         struct
  59:../../libs/libDaisy/src/per/i2c.h ****         {
 878              		.loc 11 59 9 view .LVU191
 879              	.LBB593:
 880              	.LBI593:
 881              		.file 12 "../../libs/libDaisy/src/daisy_core.h"
   1:../../libs/libDaisy/src/daisy_core.h **** #pragma once
   2:../../libs/libDaisy/src/daisy_core.h **** #ifndef DSY_CORE_HW_H
   3:../../libs/libDaisy/src/daisy_core.h **** #define DSY_CORE_HW_H /**< & */
   4:../../libs/libDaisy/src/daisy_core.h **** #include <stdint.h>
   5:../../libs/libDaisy/src/daisy_core.h **** #include <stdlib.h>
   6:../../libs/libDaisy/src/daisy_core.h **** 
   7:../../libs/libDaisy/src/daisy_core.h **** #if defined(_MSC_VER)
   8:../../libs/libDaisy/src/daisy_core.h **** #define FORCE_INLINE __forceinline /**< & */
   9:../../libs/libDaisy/src/daisy_core.h **** #elif defined(__clang__)
  10:../../libs/libDaisy/src/daisy_core.h **** #define FORCE_INLINE inline __attribute__((always_inline)) /**< & */
  11:../../libs/libDaisy/src/daisy_core.h **** #pragma clang diagnostic ignored "-Wduplicate-decl-specifier"
  12:../../libs/libDaisy/src/daisy_core.h **** #elif defined(__GNUC__)
  13:../../libs/libDaisy/src/daisy_core.h **** #define FORCE_INLINE inline __attribute__((always_inline)) /**< & */
  14:../../libs/libDaisy/src/daisy_core.h **** #else
  15:../../libs/libDaisy/src/daisy_core.h **** #error unknown compiler
  16:../../libs/libDaisy/src/daisy_core.h **** #endif
  17:../../libs/libDaisy/src/daisy_core.h **** 
  18:../../libs/libDaisy/src/daisy_core.h **** /** @addtogroup utility
  19:../../libs/libDaisy/src/daisy_core.h ****     @{
  20:../../libs/libDaisy/src/daisy_core.h **** */
  21:../../libs/libDaisy/src/daisy_core.h **** 
  22:../../libs/libDaisy/src/daisy_core.h **** /** Macro for area of memory that is configured as cacheless
  23:../../libs/libDaisy/src/daisy_core.h **** This should be used primarily for DMA buffers, and the like.
  24:../../libs/libDaisy/src/daisy_core.h **** */
  25:../../libs/libDaisy/src/daisy_core.h **** #define DMA_BUFFER_MEM_SECTION __attribute__((section(".sram1_bss")))
  26:../../libs/libDaisy/src/daisy_core.h **** /** 
  27:../../libs/libDaisy/src/daisy_core.h **** THE DTCM RAM section is also non-cached. However, is not suitable 
  28:../../libs/libDaisy/src/daisy_core.h **** for DMA transfers. Performance is on par with internal SRAM w/ 
  29:../../libs/libDaisy/src/daisy_core.h **** cache enabled.
  30:../../libs/libDaisy/src/daisy_core.h **** */
  31:../../libs/libDaisy/src/daisy_core.h **** #define DTCM_MEM_SECTION __attribute__((section(".dtcmram_bss")))
  32:../../libs/libDaisy/src/daisy_core.h **** 
  33:../../libs/libDaisy/src/daisy_core.h **** #define FBIPMAX 0.999985f             /**< close to 1.0f-LSB at 16 bit */
  34:../../libs/libDaisy/src/daisy_core.h **** #define FBIPMIN (-FBIPMAX)            /**< - (1 - LSB) */
  35:../../libs/libDaisy/src/daisy_core.h **** #define U82F_SCALE 0.0078740f         /**< 1 / 127 */
  36:../../libs/libDaisy/src/daisy_core.h **** #define F2U8_SCALE 127.0f             /**< 128 - 1 */
  37:../../libs/libDaisy/src/daisy_core.h **** #define S82F_SCALE 0.0078125f         /**< 1 / (2**7) */
  38:../../libs/libDaisy/src/daisy_core.h **** #define F2S8_SCALE 127.0f             /**< (2 ** 7) - 1 */
  39:../../libs/libDaisy/src/daisy_core.h **** #define S162F_SCALE 3.0517578125e-05f /**< 1 / (2** 15) */
  40:../../libs/libDaisy/src/daisy_core.h **** #define F2S16_SCALE 32767.0f          /**< (2 ** 15) - 1 */
  41:../../libs/libDaisy/src/daisy_core.h **** #define F2S24_SCALE 8388608.0f        /**< 2 ** 23 */
ARM GAS  C:\Users\skipi\AppData\Local\Temp\cckXvY0f.s 			page 38


  42:../../libs/libDaisy/src/daisy_core.h **** #define S242F_SCALE 1.192092896e-07f  /**< 1 / (2 ** 23) */
  43:../../libs/libDaisy/src/daisy_core.h **** #define S24SIGN 0x800000              /**< 2 ** 23 */
  44:../../libs/libDaisy/src/daisy_core.h **** #define S322F_SCALE 4.6566129e-10f    /**< 1 / (2** 31) */
  45:../../libs/libDaisy/src/daisy_core.h **** #define F2S32_SCALE 2147483647.f      /**< (2 ** 31) - 1 */
  46:../../libs/libDaisy/src/daisy_core.h **** 
  47:../../libs/libDaisy/src/daisy_core.h **** 
  48:../../libs/libDaisy/src/daisy_core.h **** /** shorthand macro for simplifying the reading of the left 
  49:../../libs/libDaisy/src/daisy_core.h ****  *  channel of a non-interleaved output buffer named out */
  50:../../libs/libDaisy/src/daisy_core.h **** #define OUT_L out[0]
  51:../../libs/libDaisy/src/daisy_core.h **** 
  52:../../libs/libDaisy/src/daisy_core.h **** /** shorthand macro for simplifying the reading of the right 
  53:../../libs/libDaisy/src/daisy_core.h ****  *  channel of a non-interleaved output buffer named out */
  54:../../libs/libDaisy/src/daisy_core.h **** #define OUT_R out[1]
  55:../../libs/libDaisy/src/daisy_core.h **** 
  56:../../libs/libDaisy/src/daisy_core.h **** /** shorthand macro for simplifying the reading of the left 
  57:../../libs/libDaisy/src/daisy_core.h ****  *  channel of a non-interleaved input buffer named in */
  58:../../libs/libDaisy/src/daisy_core.h **** #define IN_L in[0]
  59:../../libs/libDaisy/src/daisy_core.h **** 
  60:../../libs/libDaisy/src/daisy_core.h **** /** shorthand macro for simplifying the reading of the right 
  61:../../libs/libDaisy/src/daisy_core.h ****  *  channel of a non-interleaved input buffer named in */
  62:../../libs/libDaisy/src/daisy_core.h **** #define IN_R in[1]
  63:../../libs/libDaisy/src/daisy_core.h **** 
  64:../../libs/libDaisy/src/daisy_core.h **** /** 
  65:../../libs/libDaisy/src/daisy_core.h ****     Computes cube.
  66:../../libs/libDaisy/src/daisy_core.h ****     \param x Number to be cubed
  67:../../libs/libDaisy/src/daisy_core.h ****     \return x ^ 3
  68:../../libs/libDaisy/src/daisy_core.h **** */
  69:../../libs/libDaisy/src/daisy_core.h **** FORCE_INLINE float cube(float x)
  70:../../libs/libDaisy/src/daisy_core.h **** {
  71:../../libs/libDaisy/src/daisy_core.h ****     return (x * x) * x;
  72:../../libs/libDaisy/src/daisy_core.h **** }
  73:../../libs/libDaisy/src/daisy_core.h **** 
  74:../../libs/libDaisy/src/daisy_core.h **** /** 
  75:../../libs/libDaisy/src/daisy_core.h ****     Converts unsigned 8-bit to float
  76:../../libs/libDaisy/src/daisy_core.h ****     \param x Number to be scaled.
  77:../../libs/libDaisy/src/daisy_core.h ****     \return Scaled number.
  78:../../libs/libDaisy/src/daisy_core.h **** */
  79:../../libs/libDaisy/src/daisy_core.h **** FORCE_INLINE float u82f(uint8_t x)
  80:../../libs/libDaisy/src/daisy_core.h **** {
  81:../../libs/libDaisy/src/daisy_core.h ****     return ((float)x - 127.f) * U82F_SCALE;
  82:../../libs/libDaisy/src/daisy_core.h **** }
  83:../../libs/libDaisy/src/daisy_core.h **** 
  84:../../libs/libDaisy/src/daisy_core.h **** /**
  85:../../libs/libDaisy/src/daisy_core.h ****     Converts float to unsigned 8-bit
  86:../../libs/libDaisy/src/daisy_core.h **** */
  87:../../libs/libDaisy/src/daisy_core.h **** FORCE_INLINE uint8_t f2u8(float x)
  88:../../libs/libDaisy/src/daisy_core.h **** {
  89:../../libs/libDaisy/src/daisy_core.h ****     x = x <= FBIPMIN ? FBIPMIN : x;
  90:../../libs/libDaisy/src/daisy_core.h ****     x = x >= FBIPMAX ? FBIPMAX : x;
  91:../../libs/libDaisy/src/daisy_core.h ****     return (uint8_t)((x * F2U8_SCALE) + F2U8_SCALE);
  92:../../libs/libDaisy/src/daisy_core.h **** }
  93:../../libs/libDaisy/src/daisy_core.h **** 
  94:../../libs/libDaisy/src/daisy_core.h **** 
  95:../../libs/libDaisy/src/daisy_core.h **** /** 
  96:../../libs/libDaisy/src/daisy_core.h ****     Converts Signed 8-bit to float
  97:../../libs/libDaisy/src/daisy_core.h ****     \param x Number to be scaled.
  98:../../libs/libDaisy/src/daisy_core.h ****     \return Scaled number.
ARM GAS  C:\Users\skipi\AppData\Local\Temp\cckXvY0f.s 			page 39


  99:../../libs/libDaisy/src/daisy_core.h **** */
 100:../../libs/libDaisy/src/daisy_core.h **** FORCE_INLINE float s82f(int8_t x)
 101:../../libs/libDaisy/src/daisy_core.h **** {
 102:../../libs/libDaisy/src/daisy_core.h ****     return (float)x * S82F_SCALE;
 103:../../libs/libDaisy/src/daisy_core.h **** }
 104:../../libs/libDaisy/src/daisy_core.h **** 
 105:../../libs/libDaisy/src/daisy_core.h **** /**
 106:../../libs/libDaisy/src/daisy_core.h ****     Converts float to Signed 8-bit
 107:../../libs/libDaisy/src/daisy_core.h **** */
 108:../../libs/libDaisy/src/daisy_core.h **** FORCE_INLINE int8_t f2s8(float x)
 109:../../libs/libDaisy/src/daisy_core.h **** {
 110:../../libs/libDaisy/src/daisy_core.h ****     x = x <= FBIPMIN ? FBIPMIN : x;
 111:../../libs/libDaisy/src/daisy_core.h ****     x = x >= FBIPMAX ? FBIPMAX : x;
 112:../../libs/libDaisy/src/daisy_core.h ****     return (int32_t)(x * F2S8_SCALE);
 113:../../libs/libDaisy/src/daisy_core.h **** }
 114:../../libs/libDaisy/src/daisy_core.h **** 
 115:../../libs/libDaisy/src/daisy_core.h **** /** 
 116:../../libs/libDaisy/src/daisy_core.h ****     Converts Signed 16-bit to float
 117:../../libs/libDaisy/src/daisy_core.h ****     \param x Number to be scaled.
 118:../../libs/libDaisy/src/daisy_core.h ****     \return Scaled number.
 119:../../libs/libDaisy/src/daisy_core.h **** */
 120:../../libs/libDaisy/src/daisy_core.h **** FORCE_INLINE float s162f(int16_t x)
 121:../../libs/libDaisy/src/daisy_core.h **** {
 122:../../libs/libDaisy/src/daisy_core.h ****     return (float)x * S162F_SCALE;
 123:../../libs/libDaisy/src/daisy_core.h **** }
 124:../../libs/libDaisy/src/daisy_core.h **** 
 125:../../libs/libDaisy/src/daisy_core.h **** /**
 126:../../libs/libDaisy/src/daisy_core.h ****     Converts float to Signed 16-bit
 127:../../libs/libDaisy/src/daisy_core.h **** */
 128:../../libs/libDaisy/src/daisy_core.h **** FORCE_INLINE int16_t f2s16(float x)
 129:../../libs/libDaisy/src/daisy_core.h **** {
 130:../../libs/libDaisy/src/daisy_core.h ****     x = x <= FBIPMIN ? FBIPMIN : x;
 131:../../libs/libDaisy/src/daisy_core.h ****     x = x >= FBIPMAX ? FBIPMAX : x;
 132:../../libs/libDaisy/src/daisy_core.h ****     return (int32_t)(x * F2S16_SCALE);
 133:../../libs/libDaisy/src/daisy_core.h **** }
 134:../../libs/libDaisy/src/daisy_core.h **** 
 135:../../libs/libDaisy/src/daisy_core.h **** /**
 136:../../libs/libDaisy/src/daisy_core.h ****     Converts Signed 24-bit to float
 137:../../libs/libDaisy/src/daisy_core.h ****  */
 138:../../libs/libDaisy/src/daisy_core.h **** FORCE_INLINE float s242f(int32_t x)
 139:../../libs/libDaisy/src/daisy_core.h **** {
 140:../../libs/libDaisy/src/daisy_core.h ****     x = (x ^ S24SIGN) - S24SIGN; //sign extend aka ((x<<8)>>8)
 141:../../libs/libDaisy/src/daisy_core.h ****     return (float)x * S242F_SCALE;
 142:../../libs/libDaisy/src/daisy_core.h **** }
 143:../../libs/libDaisy/src/daisy_core.h **** /**
 144:../../libs/libDaisy/src/daisy_core.h ****     Converts float to Signed 24-bit
 145:../../libs/libDaisy/src/daisy_core.h ****  */
 146:../../libs/libDaisy/src/daisy_core.h **** FORCE_INLINE int32_t f2s24(float x)
 147:../../libs/libDaisy/src/daisy_core.h **** {
 148:../../libs/libDaisy/src/daisy_core.h ****     x = x <= FBIPMIN ? FBIPMIN : x;
 149:../../libs/libDaisy/src/daisy_core.h ****     x = x >= FBIPMAX ? FBIPMAX : x;
 150:../../libs/libDaisy/src/daisy_core.h ****     return (int32_t)(x * F2S24_SCALE);
 151:../../libs/libDaisy/src/daisy_core.h **** }
 152:../../libs/libDaisy/src/daisy_core.h **** 
 153:../../libs/libDaisy/src/daisy_core.h **** /**
 154:../../libs/libDaisy/src/daisy_core.h ****     Converts Signed 32-bit to float
 155:../../libs/libDaisy/src/daisy_core.h ****  */
ARM GAS  C:\Users\skipi\AppData\Local\Temp\cckXvY0f.s 			page 40


 156:../../libs/libDaisy/src/daisy_core.h **** FORCE_INLINE float s322f(int32_t x)
 157:../../libs/libDaisy/src/daisy_core.h **** {
 158:../../libs/libDaisy/src/daisy_core.h ****     return (float)x * S322F_SCALE;
 159:../../libs/libDaisy/src/daisy_core.h **** }
 160:../../libs/libDaisy/src/daisy_core.h **** /**
 161:../../libs/libDaisy/src/daisy_core.h ****     Converts float to Signed 24-bit
 162:../../libs/libDaisy/src/daisy_core.h ****  */
 163:../../libs/libDaisy/src/daisy_core.h **** FORCE_INLINE int32_t f2s32(float x)
 164:../../libs/libDaisy/src/daisy_core.h **** {
 165:../../libs/libDaisy/src/daisy_core.h ****     x = x <= FBIPMIN ? FBIPMIN : x;
 166:../../libs/libDaisy/src/daisy_core.h ****     x = x >= FBIPMAX ? FBIPMAX : x;
 167:../../libs/libDaisy/src/daisy_core.h ****     return (int32_t)(x * F2S32_SCALE);
 168:../../libs/libDaisy/src/daisy_core.h **** }
 169:../../libs/libDaisy/src/daisy_core.h **** 
 170:../../libs/libDaisy/src/daisy_core.h **** #ifdef __cplusplus
 171:../../libs/libDaisy/src/daisy_core.h **** 
 172:../../libs/libDaisy/src/daisy_core.h **** namespace daisy
 173:../../libs/libDaisy/src/daisy_core.h **** {
 174:../../libs/libDaisy/src/daisy_core.h **** /** @brief GPIO Port names */
 175:../../libs/libDaisy/src/daisy_core.h **** enum GPIOPort
 176:../../libs/libDaisy/src/daisy_core.h **** {
 177:../../libs/libDaisy/src/daisy_core.h ****     PORTA, /**< Port A */
 178:../../libs/libDaisy/src/daisy_core.h ****     PORTB, /**< Port B */
 179:../../libs/libDaisy/src/daisy_core.h ****     PORTC, /**< Port C */
 180:../../libs/libDaisy/src/daisy_core.h ****     PORTD, /**< Port D */
 181:../../libs/libDaisy/src/daisy_core.h ****     PORTE, /**< Port E */
 182:../../libs/libDaisy/src/daisy_core.h ****     PORTF, /**< Port F */
 183:../../libs/libDaisy/src/daisy_core.h ****     PORTG, /**< Port G */
 184:../../libs/libDaisy/src/daisy_core.h ****     PORTH, /**< Port H */
 185:../../libs/libDaisy/src/daisy_core.h ****     PORTI, /**< Port I */
 186:../../libs/libDaisy/src/daisy_core.h ****     PORTJ, /**< Port J */
 187:../../libs/libDaisy/src/daisy_core.h ****     PORTK, /**< Port K */
 188:../../libs/libDaisy/src/daisy_core.h ****     PORTX, /**< Used as a dummy port to signal an invalid pin. */
 189:../../libs/libDaisy/src/daisy_core.h **** };
 190:../../libs/libDaisy/src/daisy_core.h **** 
 191:../../libs/libDaisy/src/daisy_core.h **** /** @brief representation of hardware port/pin combination */
 192:../../libs/libDaisy/src/daisy_core.h **** struct Pin
 193:../../libs/libDaisy/src/daisy_core.h **** {
 194:../../libs/libDaisy/src/daisy_core.h ****     GPIOPort port;
 195:../../libs/libDaisy/src/daisy_core.h ****     uint8_t  pin;
 196:../../libs/libDaisy/src/daisy_core.h **** 
 197:../../libs/libDaisy/src/daisy_core.h ****     /** @brief Constructor creates a valid pin. 
 198:../../libs/libDaisy/src/daisy_core.h ****      *  @param pt GPIOPort between PA, and PK corresponding to STM32 Port.
 199:../../libs/libDaisy/src/daisy_core.h ****      *  @param pn pin number in range of 0-15
 200:../../libs/libDaisy/src/daisy_core.h ****     */
 201:../../libs/libDaisy/src/daisy_core.h ****     constexpr Pin(const GPIOPort pt, const uint8_t pn) : port(pt), pin(pn) {}
 202:../../libs/libDaisy/src/daisy_core.h **** 
 203:../../libs/libDaisy/src/daisy_core.h ****     /** @brief Basic Constructor creates an invalid Pin object */
 204:../../libs/libDaisy/src/daisy_core.h ****     constexpr Pin() : port(PORTX), pin(255) {}
 882              		.loc 12 204 15 view .LVU192
 883              		.loc 12 204 15 is_stmt 0 view .LVU193
 884              	.LBE593:
 885              	.LBB594:
 886              	.LBI594:
 887              		.loc 12 204 15 is_stmt 1 view .LVU194
 888              		.loc 12 204 15 is_stmt 0 view .LVU195
 889              	.LBE594:
ARM GAS  C:\Users\skipi\AppData\Local\Temp\cckXvY0f.s 			page 41


 890              	.LBE592:
 891              	.LBE596:
 892              	.LBE598:
  52:../../libs/libDaisy/src/dev/mpr121.h ****         i2c_conf.periph = config.periph;
 893              		.loc 9 52 9 is_stmt 1 view .LVU196
  53:../../libs/libDaisy/src/dev/mpr121.h ****         i2c_conf.speed  = config.speed;
 894              		.loc 9 53 9 view .LVU197
  54:../../libs/libDaisy/src/dev/mpr121.h **** 
 895              		.loc 9 54 9 view .LVU198
  56:../../libs/libDaisy/src/dev/mpr121.h ****         i2c_conf.pin_config.sda = config.sda;
 896              		.loc 9 56 9 view .LVU199
  57:../../libs/libDaisy/src/dev/mpr121.h **** 
 897              		.loc 9 57 9 view .LVU200
  59:../../libs/libDaisy/src/dev/mpr121.h ****     }
 898              		.loc 9 59 9 view .LVU201
  59:../../libs/libDaisy/src/dev/mpr121.h ****     }
 899              		.loc 9 59 50 is_stmt 0 view .LVU202
 900 00ac FFF7FEFF 		bl	_ZN5daisy9I2CHandle4InitERKNS0_6ConfigE
 901              	.LVL49:
  59:../../libs/libDaisy/src/dev/mpr121.h ****     }
 902              		.loc 9 59 50 view .LVU203
 903              	.LBE600:
 904              	.LBE601:
 905              	.LBB602:
 906              	.LBI602:
 907              		.loc 9 343 10 is_stmt 1 view .LVU204
 908              	.LBB603:
 909              		.loc 9 343 55 is_stmt 0 view .LVU205
 910 00b0 94F83030 		ldrb	r3, [r4, #48]	@ zero_extendqisi2
 911              	.LBE603:
 912              	.LBE602:
 128:../../libs/libDaisy/src/dev/mpr121.h ****         System::Delay(1);
 913              		.loc 9 128 22 view .LVU206
 914 00b4 8021     		movs	r1, #128
 915 00b6 6322     		movs	r2, #99
 916              	.LBB606:
 917              	.LBB604:
 918              		.loc 9 343 55 view .LVU207
 919 00b8 0028     		cmp	r0, #0
 920 00ba 18BF     		it	ne
 921 00bc 43F00103 		orrne	r3, r3, #1
 922              	.LBE604:
 923              	.LBE606:
 128:../../libs/libDaisy/src/dev/mpr121.h ****         System::Delay(1);
 924              		.loc 9 128 22 view .LVU208
 925 00c0 2046     		mov	r0, r4
 926              	.LVL50:
 927              	.LBB607:
 928              	.LBB605:
 929              		.loc 9 343 55 view .LVU209
 930 00c2 84F83030 		strb	r3, [r4, #48]
 931              	.LVL51:
 932              		.loc 9 343 55 view .LVU210
 933              	.LBE605:
 934              	.LBE607:
 128:../../libs/libDaisy/src/dev/mpr121.h ****         System::Delay(1);
 935              		.loc 9 128 22 view .LVU211
ARM GAS  C:\Users\skipi\AppData\Local\Temp\cckXvY0f.s 			page 42


 936 00c6 FFF7FEFF 		bl	_ZN5daisy6Mpr121INS_18Mpr121I2CTransportEE13WriteRegisterEhh
 937              	.LVL52:
 129:../../libs/libDaisy/src/dev/mpr121.h **** 
 938              		.loc 9 129 22 view .LVU212
 939 00ca 0120     		movs	r0, #1
 940 00cc FFF7FEFF 		bl	_ZN5daisy6System5DelayEm
 941              	.LVL53:
 131:../../libs/libDaisy/src/dev/mpr121.h **** 
 942              		.loc 9 131 22 view .LVU213
 943 00d0 0022     		movs	r2, #0
 944 00d2 5E21     		movs	r1, #94
 945 00d4 2046     		mov	r0, r4
 946 00d6 FFF7FEFF 		bl	_ZN5daisy6Mpr121INS_18Mpr121I2CTransportEE13WriteRegisterEhh
 947              	.LVL54:
 139:../../libs/libDaisy/src/dev/mpr121.h ****         WriteRegister(MPR121_MHDR, 0x01);
 948              		.loc 9 139 22 view .LVU214
 949 00da 94F814A0 		ldrb	r10, [r4, #20]	@ zero_extendqisi2
 950 00de 94F81590 		ldrb	r9, [r4, #21]	@ zero_extendqisi2
 951              	.LVL55:
 952              	.LBB608:
 953              	.LBI608:
 183:../../libs/libDaisy/src/dev/mpr121.h ****     {
 954              		.loc 9 183 10 is_stmt 1 view .LVU215
 955              	.LBB609:
 186:../../libs/libDaisy/src/dev/mpr121.h ****         {
 956              		.loc 9 186 30 view .LVU216
 957              	.L26:
 958              	.LBB610:
 959              	.LBI610:
 257:../../libs/libDaisy/src/dev/mpr121.h ****     {
 960              		.loc 9 257 10 view .LVU217
 961              	.LBB611:
 962              	.LBB612:
 963              	.LBB613:
  66:../../libs/libDaisy/src/dev/mpr121.h ****     }
 964              		.loc 9 66 40 is_stmt 0 view .LVU218
 965 00e2 0A26     		movs	r6, #10
 966              	.LBE613:
 967              	.LBE612:
 264:../../libs/libDaisy/src/dev/mpr121.h **** 
 968              		.loc 9 264 17 view .LVU219
 969 00e4 4FF00008 		mov	r8, #0
 970 00e8 5E27     		movs	r7, #94
 971              	.LBB616:
 972              	.LBB614:
  66:../../libs/libDaisy/src/dev/mpr121.h ****     }
 973              		.loc 9 66 40 view .LVU220
 974 00ea 0123     		movs	r3, #1
 975 00ec 0BAA     		add	r2, sp, #44
 976 00ee 94F82C10 		ldrb	r1, [r4, #44]	@ zero_extendqisi2
 977 00f2 0096     		str	r6, [sp]
 978 00f4 9248     		ldr	r0, .L41+12
 979              	.LBE614:
 980              	.LBE616:
 264:../../libs/libDaisy/src/dev/mpr121.h **** 
 981              		.loc 9 264 17 view .LVU221
 982 00f6 8DF82D80 		strb	r8, [sp, #45]
ARM GAS  C:\Users\skipi\AppData\Local\Temp\cckXvY0f.s 			page 43


 983 00fa 8DF82C70 		strb	r7, [sp, #44]
 984              	.LVL56:
 985              	.LBB617:
 986              	.LBI612:
  63:../../libs/libDaisy/src/dev/mpr121.h ****     {
 987              		.loc 9 63 10 is_stmt 1 view .LVU222
 988              	.LBB615:
  65:../../libs/libDaisy/src/dev/mpr121.h ****                != i2c_.TransmitBlocking(config_.dev_addr, data, size, 10);
 989              		.loc 9 65 9 view .LVU223
  66:../../libs/libDaisy/src/dev/mpr121.h ****     }
 990              		.loc 9 66 40 is_stmt 0 view .LVU224
 991 00fe FFF7FEFF 		bl	_ZN5daisy9I2CHandle16TransmitBlockingEtPhtm
 992              	.LVL57:
  66:../../libs/libDaisy/src/dev/mpr121.h ****     }
 993              		.loc 9 66 40 view .LVU225
 994              	.LBE615:
 995              	.LBE617:
 996              	.LBB618:
 997              	.LBI618:
 998              		.loc 9 343 10 is_stmt 1 view .LVU226
 999              	.LBB619:
 1000              		.loc 9 343 55 is_stmt 0 view .LVU227
 1001 0102 94F83020 		ldrb	r2, [r4, #48]	@ zero_extendqisi2
 1002              	.LBE619:
 1003              	.LBE618:
 1004              	.LBB622:
 1005              	.LBB623:
  73:../../libs/libDaisy/src/dev/mpr121.h ****     }
 1006              		.loc 9 73 39 view .LVU228
 1007 0106 0123     		movs	r3, #1
 1008 0108 94F82C10 		ldrb	r1, [r4, #44]	@ zero_extendqisi2
 1009              	.LBE623:
 1010              	.LBE622:
 1011              	.LBB626:
 1012              	.LBB620:
 1013              		.loc 9 343 55 view .LVU229
 1014 010c 4045     		cmp	r0, r8
 1015 010e 18BF     		it	ne
 1016 0110 42F00102 		orrne	r2, r2, #1
 1017              	.LBE620:
 1018              	.LBE626:
 1019              	.LBB627:
 1020              	.LBB624:
  73:../../libs/libDaisy/src/dev/mpr121.h ****     }
 1021              		.loc 9 73 39 view .LVU230
 1022 0114 0096     		str	r6, [sp]
 1023 0116 8A48     		ldr	r0, .L41+12
 1024              	.LVL58:
  73:../../libs/libDaisy/src/dev/mpr121.h ****     }
 1025              		.loc 9 73 39 view .LVU231
 1026              	.LBE624:
 1027              	.LBE627:
 1028              	.LBB628:
 1029              	.LBB621:
 1030              		.loc 9 343 55 view .LVU232
 1031 0118 84F83020 		strb	r2, [r4, #48]
 1032              	.LVL59:
ARM GAS  C:\Users\skipi\AppData\Local\Temp\cckXvY0f.s 			page 44


 1033              		.loc 9 343 55 view .LVU233
 1034              	.LBE621:
 1035              	.LBE628:
 1036              	.LBB629:
 1037              	.LBI622:
  70:../../libs/libDaisy/src/dev/mpr121.h ****     {
 1038              		.loc 9 70 10 is_stmt 1 view .LVU234
 1039              	.LBB625:
  72:../../libs/libDaisy/src/dev/mpr121.h ****                != i2c_.ReceiveBlocking(config_.dev_addr, data, size, 10);
 1040              		.loc 9 72 9 view .LVU235
  73:../../libs/libDaisy/src/dev/mpr121.h ****     }
 1041              		.loc 9 73 39 is_stmt 0 view .LVU236
 1042 011c 06AA     		add	r2, sp, #24
 1043              	.LVL60:
  73:../../libs/libDaisy/src/dev/mpr121.h ****     }
 1044              		.loc 9 73 39 view .LVU237
 1045 011e FFF7FEFF 		bl	_ZN5daisy9I2CHandle15ReceiveBlockingEtPhtm
 1046              	.LVL61:
  73:../../libs/libDaisy/src/dev/mpr121.h ****     }
 1047              		.loc 9 73 39 view .LVU238
 1048              	.LBE625:
 1049              	.LBE629:
 1050              	.LBB630:
 1051              	.LBI630:
 1052              		.loc 9 343 10 is_stmt 1 view .LVU239
 1053              	.LBB631:
 1054              		.loc 9 343 55 is_stmt 0 view .LVU240
 1055 0122 94F83020 		ldrb	r2, [r4, #48]	@ zero_extendqisi2
 1056              	.LBE631:
 1057              	.LBE630:
 1058              	.LBB634:
 1059              	.LBB635:
  66:../../libs/libDaisy/src/dev/mpr121.h ****     }
 1060              		.loc 9 66 40 view .LVU241
 1061 0126 0223     		movs	r3, #2
 1062 0128 94F82C10 		ldrb	r1, [r4, #44]	@ zero_extendqisi2
 1063              	.LBE635:
 1064              	.LBE634:
 1065              	.LBB638:
 1066              	.LBB632:
 1067              		.loc 9 343 55 view .LVU242
 1068 012c 4045     		cmp	r0, r8
 1069 012e 18BF     		it	ne
 1070 0130 42F00102 		orrne	r2, r2, #1
 1071              	.LBE632:
 1072              	.LBE638:
 1073              	.LBB639:
 1074              	.LBB636:
  66:../../libs/libDaisy/src/dev/mpr121.h ****     }
 1075              		.loc 9 66 40 view .LVU243
 1076 0134 0096     		str	r6, [sp]
 1077 0136 8248     		ldr	r0, .L41+12
 1078              	.LVL62:
  66:../../libs/libDaisy/src/dev/mpr121.h ****     }
 1079              		.loc 9 66 40 view .LVU244
 1080              	.LBE636:
 1081              	.LBE639:
ARM GAS  C:\Users\skipi\AppData\Local\Temp\cckXvY0f.s 			page 45


 1082              	.LBB640:
 1083              	.LBB633:
 1084              		.loc 9 343 55 view .LVU245
 1085 0138 84F83020 		strb	r2, [r4, #48]
 1086              	.LVL63:
 1087              		.loc 9 343 55 view .LVU246
 1088              	.LBE633:
 1089              	.LBE640:
 1090              	.LBB641:
 1091              	.LBI634:
  63:../../libs/libDaisy/src/dev/mpr121.h ****     {
 1092              		.loc 9 63 10 is_stmt 1 view .LVU247
 1093              	.LBB637:
  65:../../libs/libDaisy/src/dev/mpr121.h ****                != i2c_.TransmitBlocking(config_.dev_addr, data, size, 10);
 1094              		.loc 9 65 9 view .LVU248
  66:../../libs/libDaisy/src/dev/mpr121.h ****     }
 1095              		.loc 9 66 40 is_stmt 0 view .LVU249
 1096 013c 0BAA     		add	r2, sp, #44
 1097              	.LVL64:
  66:../../libs/libDaisy/src/dev/mpr121.h ****     }
 1098              		.loc 9 66 40 view .LVU250
 1099 013e FFF7FEFF 		bl	_ZN5daisy9I2CHandle16TransmitBlockingEtPhtm
 1100              	.LVL65:
  66:../../libs/libDaisy/src/dev/mpr121.h ****     }
 1101              		.loc 9 66 40 view .LVU251
 1102              	.LBE637:
 1103              	.LBE641:
 1104              	.LBB642:
 1105              	.LBI642:
 1106              		.loc 9 343 10 is_stmt 1 view .LVU252
 1107              	.LBB643:
 1108              		.loc 9 343 55 is_stmt 0 view .LVU253
 1109 0142 94F83020 		ldrb	r2, [r4, #48]	@ zero_extendqisi2
 1110              	.LBE643:
 1111              	.LBE642:
 1112              	.LBB646:
 1113              	.LBB647:
  66:../../libs/libDaisy/src/dev/mpr121.h ****     }
 1114              		.loc 9 66 40 view .LVU254
 1115 0146 0223     		movs	r3, #2
 1116 0148 94F82C10 		ldrb	r1, [r4, #44]	@ zero_extendqisi2
 1117              	.LBE647:
 1118              	.LBE646:
 1119              	.LBB651:
 1120              	.LBB644:
 1121              		.loc 9 343 55 view .LVU255
 1122 014c 4045     		cmp	r0, r8
 1123 014e 18BF     		it	ne
 1124 0150 42F00102 		orrne	r2, r2, #1
 1125              	.LBE644:
 1126              	.LBE651:
 1127              	.LBB652:
 1128              	.LBB648:
  66:../../libs/libDaisy/src/dev/mpr121.h ****     }
 1129              		.loc 9 66 40 view .LVU256
 1130 0154 0096     		str	r6, [sp]
 1131 0156 7A48     		ldr	r0, .L41+12
ARM GAS  C:\Users\skipi\AppData\Local\Temp\cckXvY0f.s 			page 46


 1132              	.LVL66:
  66:../../libs/libDaisy/src/dev/mpr121.h ****     }
 1133              		.loc 9 66 40 view .LVU257
 1134              	.LBE648:
 1135              	.LBE652:
 1136              	.LBB653:
 1137              	.LBB645:
 1138              		.loc 9 343 55 view .LVU258
 1139 0158 84F83020 		strb	r2, [r4, #48]
 1140              	.LVL67:
 1141              		.loc 9 343 55 view .LVU259
 1142              	.LBE645:
 1143              	.LBE653:
 1144              	.LBB654:
 1145              	.LBI646:
  63:../../libs/libDaisy/src/dev/mpr121.h ****     {
 1146              		.loc 9 63 10 is_stmt 1 view .LVU260
 1147              	.LBB649:
  65:../../libs/libDaisy/src/dev/mpr121.h ****                != i2c_.TransmitBlocking(config_.dev_addr, data, size, 10);
 1148              		.loc 9 65 9 view .LVU261
  66:../../libs/libDaisy/src/dev/mpr121.h ****     }
 1149              		.loc 9 66 40 is_stmt 0 view .LVU262
 1150 015c 0BAA     		add	r2, sp, #44
 1151              	.LVL68:
  66:../../libs/libDaisy/src/dev/mpr121.h ****     }
 1152              		.loc 9 66 40 view .LVU263
 1153              	.LBE649:
 1154              	.LBE654:
 281:../../libs/libDaisy/src/dev/mpr121.h ****         buff[1] = value;
 1155              		.loc 9 281 17 view .LVU264
 1156 015e 8DF82C50 		strb	r5, [sp, #44]
 282:../../libs/libDaisy/src/dev/mpr121.h ****         SetTransportErr(transport_.Write(buff, 2));
 1157              		.loc 9 282 17 view .LVU265
 1158 0162 8DF82DA0 		strb	r10, [sp, #45]
 1159              	.LBB655:
 1160              	.LBB650:
  66:../../libs/libDaisy/src/dev/mpr121.h ****     }
 1161              		.loc 9 66 40 view .LVU266
 1162 0166 FFF7FEFF 		bl	_ZN5daisy9I2CHandle16TransmitBlockingEtPhtm
 1163              	.LVL69:
  66:../../libs/libDaisy/src/dev/mpr121.h ****     }
 1164              		.loc 9 66 40 view .LVU267
 1165              	.LBE650:
 1166              	.LBE655:
 1167              	.LBB656:
 1168              	.LBI656:
 1169              		.loc 9 343 10 is_stmt 1 view .LVU268
 1170              	.LBB657:
 1171              		.loc 9 343 55 is_stmt 0 view .LVU269
 1172 016a 94F83010 		ldrb	r1, [r4, #48]	@ zero_extendqisi2
 1173              	.LBE657:
 1174              	.LBE656:
 1175              	.LBB660:
 1176              	.LBB661:
  66:../../libs/libDaisy/src/dev/mpr121.h ****     }
 1177              		.loc 9 66 40 view .LVU270
 1178 016e 0BAA     		add	r2, sp, #44
ARM GAS  C:\Users\skipi\AppData\Local\Temp\cckXvY0f.s 			page 47


 1179              	.LBE661:
 1180              	.LBE660:
 289:../../libs/libDaisy/src/dev/mpr121.h ****             SetTransportErr(transport_.Write(buff, 2));
 1181              		.loc 9 289 21 view .LVU271
 1182 0170 9DF81830 		ldrb	r3, [sp, #24]	@ zero_extendqisi2
 1183              	.LBB666:
 1184              	.LBB658:
 1185              		.loc 9 343 55 view .LVU272
 1186 0174 4045     		cmp	r0, r8
 1187 0176 18BF     		it	ne
 1188 0178 41F00101 		orrne	r1, r1, #1
 1189              	.LBE658:
 1190              	.LBE666:
 1191              	.LBB667:
 1192              	.LBB662:
  66:../../libs/libDaisy/src/dev/mpr121.h ****     }
 1193              		.loc 9 66 40 view .LVU273
 1194 017c 0096     		str	r6, [sp]
 1195              	.LBE662:
 1196              	.LBE667:
 289:../../libs/libDaisy/src/dev/mpr121.h ****             SetTransportErr(transport_.Write(buff, 2));
 1197              		.loc 9 289 21 view .LVU274
 1198 017e 8DF82D30 		strb	r3, [sp, #45]
 1199              	.LBB668:
 1200              	.LBB663:
  66:../../libs/libDaisy/src/dev/mpr121.h ****     }
 1201              		.loc 9 66 40 view .LVU275
 1202 0182 0223     		movs	r3, #2
 1203              	.LBE663:
 1204              	.LBE668:
 1205              	.LBB669:
 1206              	.LBB659:
 1207              		.loc 9 343 55 view .LVU276
 1208 0184 84F83010 		strb	r1, [r4, #48]
 1209              	.LVL70:
 1210              		.loc 9 343 55 view .LVU277
 1211              	.LBE659:
 1212              	.LBE669:
 1213              	.LBB670:
 1214              	.LBI660:
  63:../../libs/libDaisy/src/dev/mpr121.h ****     {
 1215              		.loc 9 63 10 is_stmt 1 view .LVU278
 1216              	.LBB664:
  65:../../libs/libDaisy/src/dev/mpr121.h ****                != i2c_.TransmitBlocking(config_.dev_addr, data, size, 10);
 1217              		.loc 9 65 9 view .LVU279
  66:../../libs/libDaisy/src/dev/mpr121.h ****     }
 1218              		.loc 9 66 40 is_stmt 0 view .LVU280
 1219 0188 6D48     		ldr	r0, .L41+12
 1220 018a 94F82C10 		ldrb	r1, [r4, #44]	@ zero_extendqisi2
 1221              	.LBE664:
 1222              	.LBE670:
 288:../../libs/libDaisy/src/dev/mpr121.h ****             buff[1] = ecr_backup;
 1223              		.loc 9 288 21 view .LVU281
 1224 018e 8DF82C70 		strb	r7, [sp, #44]
 1225              	.LBB671:
 1226              	.LBB665:
  66:../../libs/libDaisy/src/dev/mpr121.h ****     }
ARM GAS  C:\Users\skipi\AppData\Local\Temp\cckXvY0f.s 			page 48


 1227              		.loc 9 66 40 view .LVU282
 1228 0192 FFF7FEFF 		bl	_ZN5daisy9I2CHandle16TransmitBlockingEtPhtm
 1229              	.LVL71:
  66:../../libs/libDaisy/src/dev/mpr121.h ****     }
 1230              		.loc 9 66 40 view .LVU283
 1231              	.LBE665:
 1232              	.LBE671:
 1233              	.LBB672:
 1234              	.LBI672:
 1235              		.loc 9 343 10 is_stmt 1 view .LVU284
 1236              	.LBB673:
 1237              		.loc 9 343 55 is_stmt 0 view .LVU285
 1238 0196 94F83020 		ldrb	r2, [r4, #48]	@ zero_extendqisi2
 1239              	.LBE673:
 1240              	.LBE672:
 1241              	.LBE611:
 1242              	.LBE610:
 1243              	.LBB680:
 1244              	.LBB681:
 1245              	.LBB682:
 1246              	.LBB683:
  66:../../libs/libDaisy/src/dev/mpr121.h ****     }
 1247              		.loc 9 66 40 view .LVU286
 1248 019a 0123     		movs	r3, #1
 1249 019c 94F82C10 		ldrb	r1, [r4, #44]	@ zero_extendqisi2
 1250              	.LBE683:
 1251              	.LBE682:
 1252              	.LBE681:
 1253              	.LBE680:
 1254              	.LBB755:
 1255              	.LBB678:
 1256              	.LBB676:
 1257              	.LBB674:
 1258              		.loc 9 343 55 view .LVU287
 1259 01a0 4045     		cmp	r0, r8
 1260 01a2 18BF     		it	ne
 1261 01a4 42F00102 		orrne	r2, r2, #1
 1262              	.LBE674:
 1263              	.LBE676:
 1264              	.LBE678:
 1265              	.LBE755:
 1266              	.LBB756:
 1267              	.LBB750:
 1268              	.LBB687:
 1269              	.LBB684:
  66:../../libs/libDaisy/src/dev/mpr121.h ****     }
 1270              		.loc 9 66 40 view .LVU288
 1271 01a8 0096     		str	r6, [sp]
 1272 01aa 6548     		ldr	r0, .L41+12
 1273              	.LVL72:
  66:../../libs/libDaisy/src/dev/mpr121.h ****     }
 1274              		.loc 9 66 40 view .LVU289
 1275              	.LBE684:
 1276              	.LBE687:
 1277              	.LBE750:
 1278              	.LBE756:
 1279              	.LBB757:
ARM GAS  C:\Users\skipi\AppData\Local\Temp\cckXvY0f.s 			page 49


 1280              	.LBB679:
 1281              	.LBB677:
 1282              	.LBB675:
 1283              		.loc 9 343 55 view .LVU290
 1284 01ac 84F83020 		strb	r2, [r4, #48]
 1285              	.LVL73:
 1286              		.loc 9 343 55 view .LVU291
 1287              	.LBE675:
 1288              	.LBE677:
 1289              	.LBE679:
 1290              	.LBE757:
 1291              	.LBB758:
 1292              	.LBI680:
 257:../../libs/libDaisy/src/dev/mpr121.h ****     {
 1293              		.loc 9 257 10 is_stmt 1 view .LVU292
 1294              	.LBB751:
 1295              	.LBB688:
 1296              	.LBI682:
  63:../../libs/libDaisy/src/dev/mpr121.h ****     {
 1297              		.loc 9 63 10 view .LVU293
 1298              	.LBB685:
  65:../../libs/libDaisy/src/dev/mpr121.h ****                != i2c_.TransmitBlocking(config_.dev_addr, data, size, 10);
 1299              		.loc 9 65 9 view .LVU294
  66:../../libs/libDaisy/src/dev/mpr121.h ****     }
 1300              		.loc 9 66 40 is_stmt 0 view .LVU295
 1301 01b0 0BAA     		add	r2, sp, #44
 1302              	.LVL74:
  66:../../libs/libDaisy/src/dev/mpr121.h ****     }
 1303              		.loc 9 66 40 view .LVU296
 1304              	.LBE685:
 1305              	.LBE688:
 264:../../libs/libDaisy/src/dev/mpr121.h **** 
 1306              		.loc 9 264 17 view .LVU297
 1307 01b2 8DF82D80 		strb	r8, [sp, #45]
 1308 01b6 8DF82C70 		strb	r7, [sp, #44]
 1309              	.LBB689:
 1310              	.LBB686:
  66:../../libs/libDaisy/src/dev/mpr121.h ****     }
 1311              		.loc 9 66 40 view .LVU298
 1312 01ba FFF7FEFF 		bl	_ZN5daisy9I2CHandle16TransmitBlockingEtPhtm
 1313              	.LVL75:
  66:../../libs/libDaisy/src/dev/mpr121.h ****     }
 1314              		.loc 9 66 40 view .LVU299
 1315              	.LBE686:
 1316              	.LBE689:
 1317              	.LBB690:
 1318              	.LBI690:
 1319              		.loc 9 343 10 is_stmt 1 view .LVU300
 1320              	.LBB691:
 1321              		.loc 9 343 55 is_stmt 0 view .LVU301
 1322 01be 94F83020 		ldrb	r2, [r4, #48]	@ zero_extendqisi2
 1323              	.LBE691:
 1324              	.LBE690:
 1325              	.LBB694:
 1326              	.LBB695:
  73:../../libs/libDaisy/src/dev/mpr121.h ****     }
 1327              		.loc 9 73 39 view .LVU302
ARM GAS  C:\Users\skipi\AppData\Local\Temp\cckXvY0f.s 			page 50


 1328 01c2 0123     		movs	r3, #1
 1329 01c4 94F82C10 		ldrb	r1, [r4, #44]	@ zero_extendqisi2
 1330              	.LBE695:
 1331              	.LBE694:
 1332              	.LBB698:
 1333              	.LBB692:
 1334              		.loc 9 343 55 view .LVU303
 1335 01c8 4045     		cmp	r0, r8
 1336 01ca 18BF     		it	ne
 1337 01cc 42F00102 		orrne	r2, r2, #1
 1338              	.LBE692:
 1339              	.LBE698:
 1340              	.LBB699:
 1341              	.LBB696:
  73:../../libs/libDaisy/src/dev/mpr121.h ****     }
 1342              		.loc 9 73 39 view .LVU304
 1343 01d0 0096     		str	r6, [sp]
 1344 01d2 5B48     		ldr	r0, .L41+12
 1345              	.LVL76:
  73:../../libs/libDaisy/src/dev/mpr121.h ****     }
 1346              		.loc 9 73 39 view .LVU305
 1347              	.LBE696:
 1348              	.LBE699:
 1349              	.LBB700:
 1350              	.LBB693:
 1351              		.loc 9 343 55 view .LVU306
 1352 01d4 84F83020 		strb	r2, [r4, #48]
 1353              	.LVL77:
 1354              		.loc 9 343 55 view .LVU307
 1355              	.LBE693:
 1356              	.LBE700:
 1357              	.LBB701:
 1358              	.LBI694:
  70:../../libs/libDaisy/src/dev/mpr121.h ****     {
 1359              		.loc 9 70 10 is_stmt 1 view .LVU308
 1360              	.LBB697:
  72:../../libs/libDaisy/src/dev/mpr121.h ****                != i2c_.ReceiveBlocking(config_.dev_addr, data, size, 10);
 1361              		.loc 9 72 9 view .LVU309
  73:../../libs/libDaisy/src/dev/mpr121.h ****     }
 1362              		.loc 9 73 39 is_stmt 0 view .LVU310
 1363 01d8 06AA     		add	r2, sp, #24
 1364              	.LVL78:
  73:../../libs/libDaisy/src/dev/mpr121.h ****     }
 1365              		.loc 9 73 39 view .LVU311
 1366 01da FFF7FEFF 		bl	_ZN5daisy9I2CHandle15ReceiveBlockingEtPhtm
 1367              	.LVL79:
  73:../../libs/libDaisy/src/dev/mpr121.h ****     }
 1368              		.loc 9 73 39 view .LVU312
 1369              	.LBE697:
 1370              	.LBE701:
 1371              	.LBB702:
 1372              	.LBI702:
 1373              		.loc 9 343 10 is_stmt 1 view .LVU313
 1374              	.LBB703:
 1375              		.loc 9 343 55 is_stmt 0 view .LVU314
 1376 01de 94F83020 		ldrb	r2, [r4, #48]	@ zero_extendqisi2
 1377              	.LBE703:
ARM GAS  C:\Users\skipi\AppData\Local\Temp\cckXvY0f.s 			page 51


 1378              	.LBE702:
 1379              	.LBB706:
 1380              	.LBB707:
  66:../../libs/libDaisy/src/dev/mpr121.h ****     }
 1381              		.loc 9 66 40 view .LVU315
 1382 01e2 0223     		movs	r3, #2
 1383 01e4 94F82C10 		ldrb	r1, [r4, #44]	@ zero_extendqisi2
 1384              	.LBE707:
 1385              	.LBE706:
 1386              	.LBB710:
 1387              	.LBB704:
 1388              		.loc 9 343 55 view .LVU316
 1389 01e8 4045     		cmp	r0, r8
 1390 01ea 18BF     		it	ne
 1391 01ec 42F00102 		orrne	r2, r2, #1
 1392              	.LBE704:
 1393              	.LBE710:
 1394              	.LBB711:
 1395              	.LBB708:
  66:../../libs/libDaisy/src/dev/mpr121.h ****     }
 1396              		.loc 9 66 40 view .LVU317
 1397 01f0 0096     		str	r6, [sp]
 1398 01f2 5348     		ldr	r0, .L41+12
 1399              	.LVL80:
  66:../../libs/libDaisy/src/dev/mpr121.h ****     }
 1400              		.loc 9 66 40 view .LVU318
 1401              	.LBE708:
 1402              	.LBE711:
 1403              	.LBB712:
 1404              	.LBB705:
 1405              		.loc 9 343 55 view .LVU319
 1406 01f4 84F83020 		strb	r2, [r4, #48]
 1407              	.LVL81:
 1408              		.loc 9 343 55 view .LVU320
 1409              	.LBE705:
 1410              	.LBE712:
 1411              	.LBB713:
 1412              	.LBI706:
  63:../../libs/libDaisy/src/dev/mpr121.h ****     {
 1413              		.loc 9 63 10 is_stmt 1 view .LVU321
 1414              	.LBB709:
  65:../../libs/libDaisy/src/dev/mpr121.h ****                != i2c_.TransmitBlocking(config_.dev_addr, data, size, 10);
 1415              		.loc 9 65 9 view .LVU322
  66:../../libs/libDaisy/src/dev/mpr121.h ****     }
 1416              		.loc 9 66 40 is_stmt 0 view .LVU323
 1417 01f8 0BAA     		add	r2, sp, #44
 1418              	.LVL82:
  66:../../libs/libDaisy/src/dev/mpr121.h ****     }
 1419              		.loc 9 66 40 view .LVU324
 1420 01fa FFF7FEFF 		bl	_ZN5daisy9I2CHandle16TransmitBlockingEtPhtm
 1421              	.LVL83:
  66:../../libs/libDaisy/src/dev/mpr121.h ****     }
 1422              		.loc 9 66 40 view .LVU325
 1423              	.LBE709:
 1424              	.LBE713:
 1425              	.LBB714:
 1426              	.LBI714:
ARM GAS  C:\Users\skipi\AppData\Local\Temp\cckXvY0f.s 			page 52


 1427              		.loc 9 343 10 is_stmt 1 view .LVU326
 1428              	.LBB715:
 1429              		.loc 9 343 55 is_stmt 0 view .LVU327
 1430 01fe 94F83010 		ldrb	r1, [r4, #48]	@ zero_extendqisi2
 1431              	.LBE715:
 1432              	.LBE714:
 281:../../libs/libDaisy/src/dev/mpr121.h ****         buff[1] = value;
 1433              		.loc 9 281 17 view .LVU328
 1434 0202 6B1C     		adds	r3, r5, #1
 1435              	.LBB718:
 1436              	.LBB719:
  66:../../libs/libDaisy/src/dev/mpr121.h ****     }
 1437              		.loc 9 66 40 view .LVU329
 1438 0204 0BAA     		add	r2, sp, #44
 1439              	.LBE719:
 1440              	.LBE718:
 1441              	.LBB725:
 1442              	.LBB716:
 1443              		.loc 9 343 55 view .LVU330
 1444 0206 4045     		cmp	r0, r8
 1445 0208 18BF     		it	ne
 1446 020a 41F00101 		orrne	r1, r1, #1
 1447              	.LBE716:
 1448              	.LBE725:
 1449              	.LBB726:
 1450              	.LBB720:
  66:../../libs/libDaisy/src/dev/mpr121.h ****     }
 1451              		.loc 9 66 40 view .LVU331
 1452 020e 0096     		str	r6, [sp]
 1453              	.LBE720:
 1454              	.LBE726:
 281:../../libs/libDaisy/src/dev/mpr121.h ****         buff[1] = value;
 1455              		.loc 9 281 17 view .LVU332
 1456 0210 8DF82C30 		strb	r3, [sp, #44]
 1457              	.LBB727:
 1458              	.LBB721:
  66:../../libs/libDaisy/src/dev/mpr121.h ****     }
 1459              		.loc 9 66 40 view .LVU333
 1460 0214 0223     		movs	r3, #2
 1461              	.LBE721:
 1462              	.LBE727:
 1463              	.LBB728:
 1464              	.LBB717:
 1465              		.loc 9 343 55 view .LVU334
 1466 0216 84F83010 		strb	r1, [r4, #48]
 1467              	.LVL84:
 1468              		.loc 9 343 55 view .LVU335
 1469              	.LBE717:
 1470              	.LBE728:
 1471              	.LBB729:
 1472              	.LBI718:
  63:../../libs/libDaisy/src/dev/mpr121.h ****     {
 1473              		.loc 9 63 10 is_stmt 1 view .LVU336
 1474              	.LBB722:
  65:../../libs/libDaisy/src/dev/mpr121.h ****                != i2c_.TransmitBlocking(config_.dev_addr, data, size, 10);
 1475              		.loc 9 65 9 view .LVU337
 1476              	.LBE722:
ARM GAS  C:\Users\skipi\AppData\Local\Temp\cckXvY0f.s 			page 53


 1477              	.LBE729:
 1478              	.LBE751:
 1479              	.LBE758:
 186:../../libs/libDaisy/src/dev/mpr121.h ****         {
 1480              		.loc 9 186 30 is_stmt 0 view .LVU338
 1481 021a 0235     		adds	r5, r5, #2
 1482              	.LVL85:
 1483              	.LBB759:
 1484              	.LBB752:
 1485              	.LBB730:
 1486              	.LBB723:
  66:../../libs/libDaisy/src/dev/mpr121.h ****     }
 1487              		.loc 9 66 40 view .LVU339
 1488 021c 94F82C10 		ldrb	r1, [r4, #44]	@ zero_extendqisi2
 1489 0220 4748     		ldr	r0, .L41+12
 1490              	.LBE723:
 1491              	.LBE730:
 1492              	.LBE752:
 1493              	.LBE759:
 186:../../libs/libDaisy/src/dev/mpr121.h ****         {
 1494              		.loc 9 186 30 view .LVU340
 1495 0222 EDB2     		uxtb	r5, r5
 1496              	.LBB760:
 1497              	.LBB753:
 282:../../libs/libDaisy/src/dev/mpr121.h ****         SetTransportErr(transport_.Write(buff, 2));
 1498              		.loc 9 282 17 view .LVU341
 1499 0224 8DF82D90 		strb	r9, [sp, #45]
 1500              	.LBB731:
 1501              	.LBB724:
  66:../../libs/libDaisy/src/dev/mpr121.h ****     }
 1502              		.loc 9 66 40 view .LVU342
 1503 0228 FFF7FEFF 		bl	_ZN5daisy9I2CHandle16TransmitBlockingEtPhtm
 1504              	.LVL86:
  66:../../libs/libDaisy/src/dev/mpr121.h ****     }
 1505              		.loc 9 66 40 view .LVU343
 1506              	.LBE724:
 1507              	.LBE731:
 1508              	.LBB732:
 1509              	.LBI732:
 1510              		.loc 9 343 10 is_stmt 1 view .LVU344
 1511              	.LBB733:
 1512              		.loc 9 343 55 is_stmt 0 view .LVU345
 1513 022c 94F83020 		ldrb	r2, [r4, #48]	@ zero_extendqisi2
 1514              	.LBE733:
 1515              	.LBE732:
 1516              	.LBB736:
 1517              	.LBB737:
  66:../../libs/libDaisy/src/dev/mpr121.h ****     }
 1518              		.loc 9 66 40 view .LVU346
 1519 0230 0223     		movs	r3, #2
 1520              	.LBE737:
 1521              	.LBE736:
 289:../../libs/libDaisy/src/dev/mpr121.h ****             SetTransportErr(transport_.Write(buff, 2));
 1522              		.loc 9 289 21 view .LVU347
 1523 0232 9DF81810 		ldrb	r1, [sp, #24]	@ zero_extendqisi2
 1524              	.LBB741:
 1525              	.LBB738:
ARM GAS  C:\Users\skipi\AppData\Local\Temp\cckXvY0f.s 			page 54


  66:../../libs/libDaisy/src/dev/mpr121.h ****     }
 1526              		.loc 9 66 40 view .LVU348
 1527 0236 0096     		str	r6, [sp]
 1528              	.LBE738:
 1529              	.LBE741:
 1530              	.LBB742:
 1531              	.LBB734:
 1532              		.loc 9 343 55 view .LVU349
 1533 0238 4045     		cmp	r0, r8
 1534 023a 0CBF     		ite	eq
 1535 023c 1646     		moveq	r6, r2
 1536 023e 42F00106 		orrne	r6, r2, #1
 1537              	.LBE734:
 1538              	.LBE742:
 289:../../libs/libDaisy/src/dev/mpr121.h ****             SetTransportErr(transport_.Write(buff, 2));
 1539              		.loc 9 289 21 view .LVU350
 1540 0242 8DF82D10 		strb	r1, [sp, #45]
 1541              	.LBB743:
 1542              	.LBB739:
  66:../../libs/libDaisy/src/dev/mpr121.h ****     }
 1543              		.loc 9 66 40 view .LVU351
 1544 0246 0BAA     		add	r2, sp, #44
 1545 0248 94F82C10 		ldrb	r1, [r4, #44]	@ zero_extendqisi2
 1546 024c 3C48     		ldr	r0, .L41+12
 1547              	.LVL87:
  66:../../libs/libDaisy/src/dev/mpr121.h ****     }
 1548              		.loc 9 66 40 view .LVU352
 1549              	.LBE739:
 1550              	.LBE743:
 288:../../libs/libDaisy/src/dev/mpr121.h ****             buff[1] = ecr_backup;
 1551              		.loc 9 288 21 view .LVU353
 1552 024e 8DF82C70 		strb	r7, [sp, #44]
 1553              	.LBB744:
 1554              	.LBB735:
 1555              		.loc 9 343 55 view .LVU354
 1556 0252 84F83060 		strb	r6, [r4, #48]
 1557              	.LVL88:
 1558              		.loc 9 343 55 view .LVU355
 1559              	.LBE735:
 1560              	.LBE744:
 1561              	.LBB745:
 1562              	.LBI736:
  63:../../libs/libDaisy/src/dev/mpr121.h ****     {
 1563              		.loc 9 63 10 is_stmt 1 view .LVU356
 1564              	.LBB740:
  65:../../libs/libDaisy/src/dev/mpr121.h ****                != i2c_.TransmitBlocking(config_.dev_addr, data, size, 10);
 1565              		.loc 9 65 9 view .LVU357
  66:../../libs/libDaisy/src/dev/mpr121.h ****     }
 1566              		.loc 9 66 40 is_stmt 0 view .LVU358
 1567 0256 FFF7FEFF 		bl	_ZN5daisy9I2CHandle16TransmitBlockingEtPhtm
 1568              	.LVL89:
  66:../../libs/libDaisy/src/dev/mpr121.h ****     }
 1569              		.loc 9 66 40 view .LVU359
 1570              	.LBE740:
 1571              	.LBE745:
 1572              	.LBB746:
 1573              	.LBI746:
ARM GAS  C:\Users\skipi\AppData\Local\Temp\cckXvY0f.s 			page 55


 1574              		.loc 9 343 10 is_stmt 1 view .LVU360
 1575              	.LBB747:
 1576              		.loc 9 343 55 is_stmt 0 view .LVU361
 1577 025a 94F83030 		ldrb	r3, [r4, #48]	@ zero_extendqisi2
 1578 025e 4045     		cmp	r0, r8
 1579 0260 18BF     		it	ne
 1580 0262 43F00103 		orrne	r3, r3, #1
 1581              	.LBE747:
 1582              	.LBE746:
 1583              	.LBE753:
 1584              	.LBE760:
 186:../../libs/libDaisy/src/dev/mpr121.h ****         {
 1585              		.loc 9 186 30 view .LVU362
 1586 0266 592D     		cmp	r5, #89
 1587              	.LBB761:
 1588              	.LBB754:
 1589              	.LBB749:
 1590              	.LBB748:
 1591              		.loc 9 343 55 view .LVU363
 1592 0268 84F83030 		strb	r3, [r4, #48]
 1593              	.LVL90:
 1594              		.loc 9 343 55 view .LVU364
 1595              	.LBE748:
 1596              	.LBE749:
 1597              	.LBE754:
 1598              	.LBE761:
 186:../../libs/libDaisy/src/dev/mpr121.h ****         {
 1599              		.loc 9 186 9 is_stmt 1 view .LVU365
 186:../../libs/libDaisy/src/dev/mpr121.h ****         {
 1600              		.loc 9 186 30 view .LVU366
 1601 026c 7FF439AF 		bne	.L26
 1602              	.LVL91:
 186:../../libs/libDaisy/src/dev/mpr121.h ****         {
 1603              		.loc 9 186 30 is_stmt 0 view .LVU367
 1604              	.LBE609:
 1605              	.LBE608:
 140:../../libs/libDaisy/src/dev/mpr121.h ****         WriteRegister(MPR121_NHDR, 0x01);
 1606              		.loc 9 140 22 view .LVU368
 1607 0270 0122     		movs	r2, #1
 1608 0272 2B21     		movs	r1, #43
 1609 0274 3048     		ldr	r0, .L41+4
 1610 0276 FFF7FEFF 		bl	_ZN5daisy6Mpr121INS_18Mpr121I2CTransportEE13WriteRegisterEhh
 1611              	.LVL92:
 141:../../libs/libDaisy/src/dev/mpr121.h ****         WriteRegister(MPR121_NCLR, 0x0E);
 1612              		.loc 9 141 22 view .LVU369
 1613 027a 0122     		movs	r2, #1
 1614 027c 2C21     		movs	r1, #44
 1615 027e 2E48     		ldr	r0, .L41+4
 1616 0280 FFF7FEFF 		bl	_ZN5daisy6Mpr121INS_18Mpr121I2CTransportEE13WriteRegisterEhh
 1617              	.LVL93:
 142:../../libs/libDaisy/src/dev/mpr121.h ****         WriteRegister(MPR121_FDLR, 0x00);
 1618              		.loc 9 142 22 view .LVU370
 1619 0284 0E22     		movs	r2, #14
 1620 0286 2D21     		movs	r1, #45
 1621 0288 2B48     		ldr	r0, .L41+4
 1622 028a FFF7FEFF 		bl	_ZN5daisy6Mpr121INS_18Mpr121I2CTransportEE13WriteRegisterEhh
 1623              	.LVL94:
ARM GAS  C:\Users\skipi\AppData\Local\Temp\cckXvY0f.s 			page 56


 143:../../libs/libDaisy/src/dev/mpr121.h **** 
 1624              		.loc 9 143 22 view .LVU371
 1625 028e 4246     		mov	r2, r8
 1626 0290 2E21     		movs	r1, #46
 1627 0292 2948     		ldr	r0, .L41+4
 1628 0294 FFF7FEFF 		bl	_ZN5daisy6Mpr121INS_18Mpr121I2CTransportEE13WriteRegisterEhh
 1629              	.LVL95:
 145:../../libs/libDaisy/src/dev/mpr121.h ****         WriteRegister(MPR121_NHDF, 0x05);
 1630              		.loc 9 145 22 view .LVU372
 1631 0298 0122     		movs	r2, #1
 1632 029a 2F21     		movs	r1, #47
 1633 029c 2648     		ldr	r0, .L41+4
 1634 029e FFF7FEFF 		bl	_ZN5daisy6Mpr121INS_18Mpr121I2CTransportEE13WriteRegisterEhh
 1635              	.LVL96:
 146:../../libs/libDaisy/src/dev/mpr121.h ****         WriteRegister(MPR121_NCLF, 0x01);
 1636              		.loc 9 146 22 view .LVU373
 1637 02a2 0522     		movs	r2, #5
 1638 02a4 3021     		movs	r1, #48
 1639 02a6 2448     		ldr	r0, .L41+4
 1640 02a8 FFF7FEFF 		bl	_ZN5daisy6Mpr121INS_18Mpr121I2CTransportEE13WriteRegisterEhh
 1641              	.LVL97:
 147:../../libs/libDaisy/src/dev/mpr121.h ****         WriteRegister(MPR121_FDLF, 0x00);
 1642              		.loc 9 147 22 view .LVU374
 1643 02ac 0122     		movs	r2, #1
 1644 02ae 3121     		movs	r1, #49
 1645 02b0 2148     		ldr	r0, .L41+4
 1646 02b2 FFF7FEFF 		bl	_ZN5daisy6Mpr121INS_18Mpr121I2CTransportEE13WriteRegisterEhh
 1647              	.LVL98:
 148:../../libs/libDaisy/src/dev/mpr121.h **** 
 1648              		.loc 9 148 22 view .LVU375
 1649 02b6 4246     		mov	r2, r8
 1650 02b8 3221     		movs	r1, #50
 1651 02ba 1F48     		ldr	r0, .L41+4
 1652 02bc FFF7FEFF 		bl	_ZN5daisy6Mpr121INS_18Mpr121I2CTransportEE13WriteRegisterEhh
 1653              	.LVL99:
 150:../../libs/libDaisy/src/dev/mpr121.h ****         WriteRegister(MPR121_NCLT, 0x00);
 1654              		.loc 9 150 22 view .LVU376
 1655 02c0 4246     		mov	r2, r8
 1656 02c2 3321     		movs	r1, #51
 1657 02c4 1C48     		ldr	r0, .L41+4
 1658 02c6 FFF7FEFF 		bl	_ZN5daisy6Mpr121INS_18Mpr121I2CTransportEE13WriteRegisterEhh
 1659              	.LVL100:
 151:../../libs/libDaisy/src/dev/mpr121.h ****         WriteRegister(MPR121_FDLT, 0x00);
 1660              		.loc 9 151 22 view .LVU377
 1661 02ca 4246     		mov	r2, r8
 1662 02cc 3421     		movs	r1, #52
 1663 02ce 1A48     		ldr	r0, .L41+4
 1664 02d0 FFF7FEFF 		bl	_ZN5daisy6Mpr121INS_18Mpr121I2CTransportEE13WriteRegisterEhh
 1665              	.LVL101:
 152:../../libs/libDaisy/src/dev/mpr121.h **** 
 1666              		.loc 9 152 22 view .LVU378
 1667 02d4 4246     		mov	r2, r8
 1668 02d6 3521     		movs	r1, #53
 1669 02d8 1748     		ldr	r0, .L41+4
 1670 02da FFF7FEFF 		bl	_ZN5daisy6Mpr121INS_18Mpr121I2CTransportEE13WriteRegisterEhh
 1671              	.LVL102:
 154:../../libs/libDaisy/src/dev/mpr121.h ****         WriteRegister(MPR121_CONFIG1, 0x10); // default, 16uA charge current
ARM GAS  C:\Users\skipi\AppData\Local\Temp\cckXvY0f.s 			page 57


 1672              		.loc 9 154 22 view .LVU379
 1673 02de 4246     		mov	r2, r8
 1674 02e0 5B21     		movs	r1, #91
 1675 02e2 1548     		ldr	r0, .L41+4
 1676 02e4 FFF7FEFF 		bl	_ZN5daisy6Mpr121INS_18Mpr121I2CTransportEE13WriteRegisterEhh
 1677              	.LVL103:
 155:../../libs/libDaisy/src/dev/mpr121.h ****         WriteRegister(MPR121_CONFIG2, 0x20); // 0.5uS encoding, 1ms period
 1678              		.loc 9 155 22 view .LVU380
 1679 02e8 1022     		movs	r2, #16
 1680 02ea 5C21     		movs	r1, #92
 1681 02ec 1248     		ldr	r0, .L41+4
 1682 02ee FFF7FEFF 		bl	_ZN5daisy6Mpr121INS_18Mpr121I2CTransportEE13WriteRegisterEhh
 1683              	.LVL104:
 156:../../libs/libDaisy/src/dev/mpr121.h **** 
 1684              		.loc 9 156 22 view .LVU381
 1685 02f2 2022     		movs	r2, #32
 1686 02f4 5D21     		movs	r1, #93
 1687 02f6 1048     		ldr	r0, .L41+4
 1688 02f8 FFF7FEFF 		bl	_ZN5daisy6Mpr121INS_18Mpr121I2CTransportEE13WriteRegisterEhh
 1689              	.LVL105:
 172:../../libs/libDaisy/src/dev/mpr121.h ****                       ECR_SETTING); // start with above ECR setting
 1690              		.loc 9 172 22 view .LVU382
 1691 02fc 8C22     		movs	r2, #140
 1692 02fe 3946     		mov	r1, r7
 1693 0300 0D48     		ldr	r0, .L41+4
 1694 0302 FFF7FEFF 		bl	_ZN5daisy6Mpr121INS_18Mpr121I2CTransportEE13WriteRegisterEhh
 1695              	.LVL106:
 1696              	.LBB762:
 1697              	.LBI762:
 344:../../libs/libDaisy/src/dev/mpr121.h **** 
 345:../../libs/libDaisy/src/dev/mpr121.h ****     /** Get the global transport_error_ bool (as a Result), then reset it */
 346:../../libs/libDaisy/src/dev/mpr121.h ****     Result GetTransportErr()
 1698              		.loc 9 346 12 is_stmt 1 view .LVU383
 1699              	.LBB763:
 347:../../libs/libDaisy/src/dev/mpr121.h ****     {
 348:../../libs/libDaisy/src/dev/mpr121.h ****         Result ret       = transport_error_ ? ERR : OK;
 1700              		.loc 9 348 45 is_stmt 0 view .LVU384
 1701 0306 94F83060 		ldrb	r6, [r4, #48]	@ zero_extendqisi2
 1702 030a 0EB3     		cbz	r6, .L27
 1703              	.LVL107:
 1704              		.loc 9 348 45 view .LVU385
 1705              	.LBE763:
 1706              	.LBE762:
 1707              	.LBE769:
 1708              	.LBE775:
 1709              	.LBB776:
 1710              	.LBB777:
 128:../../libs/libDaisy/src/daisy_seed.h ****     }
 1711              		.loc 1 128 23 view .LVU386
 1712 030c 0D48     		ldr	r0, .L41+16
 1713              	.LBE777:
 1714              	.LBE776:
 1715              	.LBB779:
 1716              	.LBB770:
 1717              	.LBB765:
 1718              	.LBB764:
 349:../../libs/libDaisy/src/dev/mpr121.h ****         transport_error_ = false;
ARM GAS  C:\Users\skipi\AppData\Local\Temp\cckXvY0f.s 			page 58


 1719              		.loc 9 349 26 view .LVU387
 1720 030e 84F83080 		strb	r8, [r4, #48]
 1721              	.LVL108:
 1722              		.loc 9 349 26 view .LVU388
 1723              	.LBE764:
 1724              	.LBE765:
 1725              	.LBE770:
 1726              	.LBE779:
  77:main.cpp      ****     {
  78:main.cpp      ****         #ifdef Debug
  79:main.cpp      ****         hw.PrintLine("ERROR: MPR121 not found. Check wiring!");
 1727              		.loc 10 79 9 is_stmt 1 view .LVU389
 1728              	.LBB780:
 1729              	.LBI776:
 126:../../libs/libDaisy/src/daisy_seed.h ****     {
 1730              		.loc 1 126 17 view .LVU390
 1731              	.LBB778:
 128:../../libs/libDaisy/src/daisy_seed.h ****     }
 1732              		.loc 1 128 23 is_stmt 0 view .LVU391
 1733 0312 FFF7FEFF 		bl	_ZN5daisy6LoggerILNS_17LoggerDestinationE1EE9PrintLineEPKcz
 1734              	.LVL109:
 1735              	.L28:
 128:../../libs/libDaisy/src/daisy_seed.h ****     }
 1736              		.loc 1 128 23 view .LVU392
 1737              	.LBE778:
 1738              	.LBE780:
  80:main.cpp      ****         #endif
  81:main.cpp      ****         while (1) {
 1739              		.loc 10 81 9 is_stmt 1 discriminator 1 view .LVU393
  82:main.cpp      ****             hw.SetLed(true); hw.DelayMs(100);
 1740              		.loc 10 82 13 discriminator 1 view .LVU394
 1741              		.loc 10 82 22 is_stmt 0 discriminator 1 view .LVU395
 1742 0316 0121     		movs	r1, #1
 1743 0318 0648     		ldr	r0, .L41
 1744 031a FFF7FEFF 		bl	_ZN5daisy9DaisySeed6SetLedEb
 1745              	.LVL110:
 1746              		.loc 10 82 30 is_stmt 1 discriminator 1 view .LVU396
 1747              		.loc 10 82 40 is_stmt 0 discriminator 1 view .LVU397
 1748 031e 6421     		movs	r1, #100
 1749 0320 0448     		ldr	r0, .L41
 1750 0322 FFF7FEFF 		bl	_ZN5daisy9DaisySeed7DelayMsEj
 1751              	.LVL111:
  83:main.cpp      ****             hw.SetLed(false); hw.DelayMs(100);
 1752              		.loc 10 83 13 is_stmt 1 discriminator 1 view .LVU398
 1753              		.loc 10 83 22 is_stmt 0 discriminator 1 view .LVU399
 1754 0326 0021     		movs	r1, #0
 1755 0328 0248     		ldr	r0, .L41
 1756 032a FFF7FEFF 		bl	_ZN5daisy9DaisySeed6SetLedEb
 1757              	.LVL112:
 1758              		.loc 10 83 31 is_stmt 1 discriminator 1 view .LVU400
 1759              		.loc 10 83 41 is_stmt 0 discriminator 1 view .LVU401
 1760 032e 6421     		movs	r1, #100
 1761 0330 0AE0     		b	.L42
 1762              	.L43:
 1763 0332 00BF     		.align	2
 1764              	.L41:
 1765 0334 00000000 		.word	.LANCHOR4
ARM GAS  C:\Users\skipi\AppData\Local\Temp\cckXvY0f.s 			page 59


 1766 0338 00000000 		.word	.LANCHOR6
 1767 033c 00000000 		.word	.LANCHOR5
 1768 0340 18000000 		.word	.LANCHOR6+24
 1769 0344 00000000 		.word	.LC0
 1770              	.L42:
 1771 0348 A548     		ldr	r0, .L44
 1772 034a FFF7FEFF 		bl	_ZN5daisy9DaisySeed7DelayMsEj
 1773              	.LVL113:
  81:main.cpp      ****             hw.SetLed(true); hw.DelayMs(100);
 1774              		.loc 10 81 9 is_stmt 1 discriminator 1 view .LVU402
 1775 034e E2E7     		b	.L28
 1776              	.LVL114:
 1777              	.L27:
  84:main.cpp      ****         }
  85:main.cpp      ****     }
  86:main.cpp      ****     
  87:main.cpp      ****     #ifdef Debug
  88:main.cpp      ****     hw.PrintLine("MPR121 Initialized @ 400kHz!");
 1778              		.loc 10 88 5 view .LVU403
 1779              	.LBB781:
 1780              	.LBI781:
 126:../../libs/libDaisy/src/daisy_seed.h ****     {
 1781              		.loc 1 126 17 view .LVU404
 1782              	.LBB782:
 128:../../libs/libDaisy/src/daisy_seed.h ****     }
 1783              		.loc 1 128 23 is_stmt 0 view .LVU405
 1784 0350 A448     		ldr	r0, .L44+4
 1785              	.LBE782:
 1786              	.LBE781:
 1787              	.LBB784:
 1788              	.LBB785:
  55:../../libs/DaisySP/Source/Synthesis/oscillator.h ****         pw_        = 0.5f;
 1789              		.loc 8 55 20 view .LVU406
 1790 0352 B6EE008A 		vmov.f32	s16, #5.0e-1
 1791              	.LBE785:
 1792              	.LBE784:
 1793              	.LBB790:
 1794              	.LBB783:
 128:../../libs/libDaisy/src/daisy_seed.h ****     }
 1795              		.loc 1 128 23 view .LVU407
 1796 0356 FFF7FEFF 		bl	_ZN5daisy6LoggerILNS_17LoggerDestinationE1EE9PrintLineEPKcz
 1797              	.LVL115:
 128:../../libs/libDaisy/src/daisy_seed.h ****     }
 1798              		.loc 1 128 23 view .LVU408
 1799              	.LBE783:
 1800              	.LBE790:
  89:main.cpp      ****     #endif
  90:main.cpp      ****     hw.SetLed(true);
 1801              		.loc 10 90 5 is_stmt 1 view .LVU409
 1802              		.loc 10 90 14 is_stmt 0 view .LVU410
 1803 035a 0121     		movs	r1, #1
 1804 035c A048     		ldr	r0, .L44
 1805 035e FFF7FEFF 		bl	_ZN5daisy9DaisySeed6SetLedEb
 1806              	.LVL116:
  91:main.cpp      **** 
  92:main.cpp      ****     // 3. DSP INITIALIZATION
  93:main.cpp      ****     pc.Init(IIR::Butterworth); 
ARM GAS  C:\Users\skipi\AppData\Local\Temp\cckXvY0f.s 			page 60


 1807              		.loc 10 93 5 is_stmt 1 view .LVU411
 1808              		.loc 10 93 12 is_stmt 0 view .LVU412
 1809 0362 0121     		movs	r1, #1
 1810 0364 A048     		ldr	r0, .L44+8
 1811 0366 FFF7FEFF 		bl	_ZN16PlantConditioner4InitEN3IIR10FilterTypeE
 1812              	.LVL117:
  94:main.cpp      ****     pc.setScale(PlantConditioner::C, PlantConditioner::MinorArm);
 1813              		.loc 10 94 5 is_stmt 1 view .LVU413
 1814              		.loc 10 94 16 is_stmt 0 view .LVU414
 1815 036a 0222     		movs	r2, #2
 1816 036c 3146     		mov	r1, r6
 1817 036e 9E48     		ldr	r0, .L44+8
 1818 0370 FFF7FEFF 		bl	_ZN16PlantConditioner8setScaleENS_5NotesENS_9ScaleTypeE
 1819              	.LVL118:
  95:main.cpp      ****     pc.setOctave(2);
 1820              		.loc 10 95 5 is_stmt 1 view .LVU415
 1821              		.loc 10 95 17 is_stmt 0 view .LVU416
 1822 0374 0221     		movs	r1, #2
 1823 0376 9C48     		ldr	r0, .L44+8
 1824 0378 FFF7FEFF 		bl	_ZN16PlantConditioner9setOctaveEh
 1825              	.LVL119:
  96:main.cpp      ****     pc.setCurve(50, 1.1);
 1826              		.loc 10 96 5 is_stmt 1 view .LVU417
 1827              		.loc 10 96 16 is_stmt 0 view .LVU418
 1828 037c 3221     		movs	r1, #50
 1829 037e 9FED9B0A 		vldr.32	s0, .L44+12
 1830 0382 9948     		ldr	r0, .L44+8
 1831 0384 FFF7FEFF 		bl	_ZN16PlantConditioner8setCurveEhf
 1832              	.LVL120:
  97:main.cpp      **** 
  98:main.cpp      ****     // Oscillator setup 
  99:main.cpp      ****     osc.Init(hw.AudioSampleRate());
 1833              		.loc 10 99 5 is_stmt 1 view .LVU419
 1834              		.loc 10 99 13 is_stmt 0 view .LVU420
 1835 0388 9548     		ldr	r0, .L44
 1836 038a FFF7FEFF 		bl	_ZN5daisy9DaisySeed15AudioSampleRateEv
 1837              	.LVL121:
 1838              	.LBB791:
 1839              	.LBB786:
  53:../../libs/DaisySP/Source/Synthesis/oscillator.h ****         freq_      = 100.0f;
 1840              		.loc 8 53 27 view .LVU421
 1841 038e F7EE006A 		vmov.f32	s13, #1.0e+0
 1842              	.LBE786:
 1843              	.LBE791:
 1844              		.loc 10 99 13 view .LVU422
 1845 0392 F0EE407A 		vmov.f32	s15, s0
 1846              	.LVL122:
 1847              	.LBB792:
 1848              	.LBI784:
  50:../../libs/DaisySP/Source/Synthesis/oscillator.h ****     {
 1849              		.loc 8 50 10 is_stmt 1 view .LVU423
 1850              	.LBB787:
  52:../../libs/DaisySP/Source/Synthesis/oscillator.h ****         sr_recip_  = 1.0f / sample_rate;
 1851              		.loc 8 52 9 view .LVU424
  52:../../libs/DaisySP/Source/Synthesis/oscillator.h ****         sr_recip_  = 1.0f / sample_rate;
 1852              		.loc 8 52 20 is_stmt 0 view .LVU425
 1853 0396 964D     		ldr	r5, .L44+16
ARM GAS  C:\Users\skipi\AppData\Local\Temp\cckXvY0f.s 			page 61


  57:../../libs/DaisySP/Source/Synthesis/oscillator.h ****         phase_inc_ = CalcPhaseInc(freq_);
 1854              		.loc 8 57 20 view .LVU426
 1855 0398 0023     		movs	r3, #0
  54:../../libs/DaisySP/Source/Synthesis/oscillator.h ****         amp_       = 0.5f;
 1856              		.loc 8 54 20 view .LVU427
 1857 039a 9FED960A 		vldr.32	s0, .L44+20
 1858              	.LVL123:
  58:../../libs/DaisySP/Source/Synthesis/oscillator.h ****         waveform_  = WAVE_SIN;
 1859              		.loc 8 58 34 view .LVU428
 1860 039e 2846     		mov	r0, r5
  55:../../libs/DaisySP/Source/Synthesis/oscillator.h ****         pw_        = 0.5f;
 1861              		.loc 8 55 20 view .LVU429
 1862 03a0 85ED018A 		vstr.32	s16, [r5, #4]
  53:../../libs/DaisySP/Source/Synthesis/oscillator.h ****         freq_      = 100.0f;
 1863              		.loc 8 53 27 view .LVU430
 1864 03a4 86EEA77A 		vdiv.f32	s14, s13, s15
  52:../../libs/DaisySP/Source/Synthesis/oscillator.h ****         sr_recip_  = 1.0f / sample_rate;
 1865              		.loc 8 52 20 view .LVU431
 1866 03a8 C5ED047A 		vstr.32	s15, [r5, #16]
  53:../../libs/DaisySP/Source/Synthesis/oscillator.h ****         freq_      = 100.0f;
 1867              		.loc 8 53 9 is_stmt 1 view .LVU432
  57:../../libs/DaisySP/Source/Synthesis/oscillator.h ****         phase_inc_ = CalcPhaseInc(freq_);
 1868              		.loc 8 57 20 is_stmt 0 view .LVU433
 1869 03ac AB61     		str	r3, [r5, #24]	@ float
  54:../../libs/DaisySP/Source/Synthesis/oscillator.h ****         amp_       = 0.5f;
 1870              		.loc 8 54 20 view .LVU434
 1871 03ae 85ED020A 		vstr.32	s0, [r5, #8]
  56:../../libs/DaisySP/Source/Synthesis/oscillator.h ****         phase_     = 0.0f;
 1872              		.loc 8 56 20 view .LVU435
 1873 03b2 85ED038A 		vstr.32	s16, [r5, #12]
 1874 03b6 DFF884A2 		ldr	r10, .L44+92
 1875 03ba DFF88482 		ldr	r8, .L44+96
 1876 03be DFF88492 		ldr	r9, .L44+100
 1877 03c2 AAF1040B 		sub	fp, r10, #4
  53:../../libs/DaisySP/Source/Synthesis/oscillator.h ****         freq_      = 100.0f;
 1878              		.loc 8 53 20 view .LVU436
 1879 03c6 85ED057A 		vstr.32	s14, [r5, #20]
  54:../../libs/DaisySP/Source/Synthesis/oscillator.h ****         amp_       = 0.5f;
 1880              		.loc 8 54 9 is_stmt 1 view .LVU437
  55:../../libs/DaisySP/Source/Synthesis/oscillator.h ****         pw_        = 0.5f;
 1881              		.loc 8 55 9 view .LVU438
  56:../../libs/DaisySP/Source/Synthesis/oscillator.h ****         phase_     = 0.0f;
 1882              		.loc 8 56 9 view .LVU439
  57:../../libs/DaisySP/Source/Synthesis/oscillator.h ****         phase_inc_ = CalcPhaseInc(freq_);
 1883              		.loc 8 57 9 view .LVU440
  58:../../libs/DaisySP/Source/Synthesis/oscillator.h ****         waveform_  = WAVE_SIN;
 1884              		.loc 8 58 9 view .LVU441
  58:../../libs/DaisySP/Source/Synthesis/oscillator.h ****         waveform_  = WAVE_SIN;
 1885              		.loc 8 58 34 is_stmt 0 view .LVU442
 1886 03ca FFF7FEFF 		bl	_ZN7daisysp10Oscillator12CalcPhaseIncEf
 1887              	.LVL124:
  61:../../libs/DaisySP/Source/Synthesis/oscillator.h ****     }
 1888              		.loc 8 61 20 view .LVU443
 1889 03ce 40F20113 		movw	r3, #257
  58:../../libs/DaisySP/Source/Synthesis/oscillator.h ****         waveform_  = WAVE_SIN;
 1890              		.loc 8 58 34 view .LVU444
 1891 03d2 F0EE407A 		vmov.f32	s15, s0
ARM GAS  C:\Users\skipi\AppData\Local\Temp\cckXvY0f.s 			page 62


 1892              	.LBE787:
 1893              	.LBE792:
 1894              	.LBB793:
 1895              	.LBB794:
  69:../../libs/DaisySP/Source/Synthesis/oscillator.h ****         phase_inc_ = CalcPhaseInc(f);
 1896              		.loc 8 69 20 view .LVU445
 1897 03d6 9FED880A 		vldr.32	s0, .L44+24
  70:../../libs/DaisySP/Source/Synthesis/oscillator.h ****     }
 1898              		.loc 8 70 34 view .LVU446
 1899 03da 2846     		mov	r0, r5
 1900              	.LBE794:
 1901              	.LBE793:
 1902              	.LBB798:
 1903              	.LBB788:
  61:../../libs/DaisySP/Source/Synthesis/oscillator.h ****     }
 1904              		.loc 8 61 20 view .LVU447
 1905 03dc 2B85     		strh	r3, [r5, #40]	@ movhi
  58:../../libs/DaisySP/Source/Synthesis/oscillator.h ****         waveform_  = WAVE_SIN;
 1906              		.loc 8 58 20 view .LVU448
 1907 03de C5ED077A 		vstr.32	s15, [r5, #28]
  59:../../libs/DaisySP/Source/Synthesis/oscillator.h ****         eoc_       = true;
 1908              		.loc 8 59 9 is_stmt 1 view .LVU449
  60:../../libs/DaisySP/Source/Synthesis/oscillator.h ****         eor_       = true;
 1909              		.loc 8 60 9 view .LVU450
  61:../../libs/DaisySP/Source/Synthesis/oscillator.h ****     }
 1910              		.loc 8 61 9 view .LVU451
 1911              	.LVL125:
  61:../../libs/DaisySP/Source/Synthesis/oscillator.h ****     }
 1912              		.loc 8 61 9 is_stmt 0 view .LVU452
 1913              	.LBE788:
 1914              	.LBE798:
 100:main.cpp      ****     osc.SetWaveform(Oscillator::WAVE_SIN); 
 1915              		.loc 10 100 5 is_stmt 1 view .LVU453
  77:../../libs/DaisySP/Source/Synthesis/oscillator.h ****     /** Sets the waveform to be synthesized by the Process() function.
  78:../../libs/DaisySP/Source/Synthesis/oscillator.h ****     */
  79:../../libs/DaisySP/Source/Synthesis/oscillator.h ****     inline void SetWaveform(const uint8_t wf)
  80:../../libs/DaisySP/Source/Synthesis/oscillator.h ****     {
  81:../../libs/DaisySP/Source/Synthesis/oscillator.h ****         waveform_ = wf < WAVE_LAST ? wf : WAVE_SIN;
 1916              		.loc 8 81 9 view .LVU454
 101:main.cpp      ****     osc.SetFreq(440.0f);
 1917              		.loc 10 101 5 view .LVU455
 1918              	.LBB799:
 1919              	.LBI793:
  67:../../libs/DaisySP/Source/Synthesis/oscillator.h ****     {
 1920              		.loc 8 67 17 view .LVU456
 1921              	.LBB795:
  69:../../libs/DaisySP/Source/Synthesis/oscillator.h ****         phase_inc_ = CalcPhaseInc(f);
 1922              		.loc 8 69 9 view .LVU457
 1923              	.LBE795:
 1924              	.LBE799:
 1925              	.LBB800:
 1926              	.LBB789:
  59:../../libs/DaisySP/Source/Synthesis/oscillator.h ****         eoc_       = true;
 1927              		.loc 8 59 20 is_stmt 0 view .LVU458
 1928 03e2 2E70     		strb	r6, [r5]
 1929              	.LBE789:
 1930              	.LBE800:
ARM GAS  C:\Users\skipi\AppData\Local\Temp\cckXvY0f.s 			page 63


 1931              	.LBB801:
 1932              	.LBB796:
  69:../../libs/DaisySP/Source/Synthesis/oscillator.h ****         phase_inc_ = CalcPhaseInc(f);
 1933              		.loc 8 69 20 view .LVU459
 1934 03e4 85ED020A 		vstr.32	s0, [r5, #8]
  70:../../libs/DaisySP/Source/Synthesis/oscillator.h ****     }
 1935              		.loc 8 70 9 is_stmt 1 view .LVU460
  70:../../libs/DaisySP/Source/Synthesis/oscillator.h ****     }
 1936              		.loc 8 70 34 is_stmt 0 view .LVU461
 1937 03e8 FFF7FEFF 		bl	_ZN7daisysp10Oscillator12CalcPhaseIncEf
 1938              	.LVL126:
 1939              	.LBE796:
 1940              	.LBE801:
 102:main.cpp      ****     osc.SetAmp(0.85f); 
 103:main.cpp      **** 
 104:main.cpp      ****     // Envelope setup
 105:main.cpp      ****     env.Init(hw.AudioSampleRate());
 1941              		.loc 10 105 13 view .LVU462
 1942 03ec 834E     		ldr	r6, .L44+28
 1943              	.LBB802:
 1944              	.LBB803:
  76:../../libs/DaisySP/Source/Synthesis/oscillator.h ****     /** Sets the waveform to be synthesized by the Process() function.
 1945              		.loc 8 76 46 view .LVU463
 1946 03ee 844B     		ldr	r3, .L44+32
 1947              	.LBE803:
 1948              	.LBE802:
 1949              		.loc 10 105 13 view .LVU464
 1950 03f0 7B48     		ldr	r0, .L44
 1951              	.LBB806:
 1952              	.LBB804:
  76:../../libs/DaisySP/Source/Synthesis/oscillator.h ****     /** Sets the waveform to be synthesized by the Process() function.
 1953              		.loc 8 76 46 view .LVU465
 1954 03f2 6B60     		str	r3, [r5, #4]	@ float
 1955              	.LBE804:
 1956              	.LBE806:
 1957              	.LBB807:
 1958              	.LBB797:
  70:../../libs/DaisySP/Source/Synthesis/oscillator.h ****     }
 1959              		.loc 8 70 20 view .LVU466
 1960 03f4 85ED070A 		vstr.32	s0, [r5, #28]
 1961              	.LVL127:
  70:../../libs/DaisySP/Source/Synthesis/oscillator.h ****     }
 1962              		.loc 8 70 20 view .LVU467
 1963              	.LBE797:
 1964              	.LBE807:
 102:main.cpp      ****     osc.SetAmp(0.85f); 
 1965              		.loc 10 102 5 is_stmt 1 view .LVU468
 1966              	.LBB808:
 1967              	.LBI802:
  76:../../libs/DaisySP/Source/Synthesis/oscillator.h ****     /** Sets the waveform to be synthesized by the Process() function.
 1968              		.loc 8 76 17 view .LVU469
 1969              	.LBB805:
  76:../../libs/DaisySP/Source/Synthesis/oscillator.h ****     /** Sets the waveform to be synthesized by the Process() function.
 1970              		.loc 8 76 41 view .LVU470
  76:../../libs/DaisySP/Source/Synthesis/oscillator.h ****     /** Sets the waveform to be synthesized by the Process() function.
 1971              		.loc 8 76 41 is_stmt 0 view .LVU471
 1972              	.LBE805:
ARM GAS  C:\Users\skipi\AppData\Local\Temp\cckXvY0f.s 			page 64


 1973              	.LBE808:
 1974              		.loc 10 105 5 is_stmt 1 view .LVU472
 1975              		.loc 10 105 13 is_stmt 0 view .LVU473
 1976 03f8 FFF7FEFF 		bl	_ZN5daisy9DaisySeed15AudioSampleRateEv
 1977              	.LVL128:
 1978 03fc 0121     		movs	r1, #1
 1979 03fe 3046     		mov	r0, r6
 1980 0400 FFF7FEFF 		bl	_ZN7daisysp4Adsr4InitEfi
 1981              	.LVL129:
 106:main.cpp      ****     env.SetTime(ADSR_SEG_ATTACK, 0.05f);
 1982              		.loc 10 106 5 is_stmt 1 view .LVU474
 1983              		.loc 10 106 16 is_stmt 0 view .LVU475
 1984 0404 9FED7F0A 		vldr.32	s0, .L44+36
 1985 0408 0121     		movs	r1, #1
 1986 040a 3046     		mov	r0, r6
 1987 040c FFF7FEFF 		bl	_ZN7daisysp4Adsr7SetTimeEif
 1988              	.LVL130:
 107:main.cpp      ****     env.SetTime(ADSR_SEG_DECAY, 0.1f);
 1989              		.loc 10 107 5 is_stmt 1 view .LVU476
 1990              		.loc 10 107 16 is_stmt 0 view .LVU477
 1991 0410 9FED7D0A 		vldr.32	s0, .L44+40
 1992 0414 0221     		movs	r1, #2
 1993 0416 3046     		mov	r0, r6
 1994 0418 FFF7FEFF 		bl	_ZN7daisysp4Adsr7SetTimeEif
 1995              	.LVL131:
 108:main.cpp      ****     env.SetSustainLevel(0.7f);
 1996              		.loc 10 108 5 is_stmt 1 view .LVU478
 1997              	.LBB809:
 1998              	.LBI809:
  46:../../libs/DaisySP/Source/Control/adsr.h ****     /** Initializes the Adsr module.
  47:../../libs/DaisySP/Source/Control/adsr.h ****         \param sample_rate - The sample rate of the audio engine being run. 
  48:../../libs/DaisySP/Source/Control/adsr.h ****     */
  49:../../libs/DaisySP/Source/Control/adsr.h ****     void Init(float sample_rate, int blockSize = 1);
  50:../../libs/DaisySP/Source/Control/adsr.h ****     /**
  51:../../libs/DaisySP/Source/Control/adsr.h ****      \function Retrigger forces the envelope back to attack phase
  52:../../libs/DaisySP/Source/Control/adsr.h ****      \param hard  resets the history to zero, results in a click.
  53:../../libs/DaisySP/Source/Control/adsr.h ****      */
  54:../../libs/DaisySP/Source/Control/adsr.h ****     void Retrigger(bool hard);
  55:../../libs/DaisySP/Source/Control/adsr.h ****     /** Processes one sample through the filter and returns one sample.
  56:../../libs/DaisySP/Source/Control/adsr.h ****         \param gate - trigger the envelope, hold it to sustain 
  57:../../libs/DaisySP/Source/Control/adsr.h ****     */
  58:../../libs/DaisySP/Source/Control/adsr.h ****     float Process(bool gate);
  59:../../libs/DaisySP/Source/Control/adsr.h ****     /** Sets time
  60:../../libs/DaisySP/Source/Control/adsr.h ****         Set time per segment in seconds
  61:../../libs/DaisySP/Source/Control/adsr.h ****     */
  62:../../libs/DaisySP/Source/Control/adsr.h ****     void SetTime(int seg, float time);
  63:../../libs/DaisySP/Source/Control/adsr.h ****     void SetAttackTime(float timeInS, float shape = 0.0f);
  64:../../libs/DaisySP/Source/Control/adsr.h ****     void SetDecayTime(float timeInS);
  65:../../libs/DaisySP/Source/Control/adsr.h ****     void SetReleaseTime(float timeInS);
  66:../../libs/DaisySP/Source/Control/adsr.h **** 
  67:../../libs/DaisySP/Source/Control/adsr.h ****   private:
  68:../../libs/DaisySP/Source/Control/adsr.h ****     void SetTimeConstant(float timeInS, float& time, float& coeff);
  69:../../libs/DaisySP/Source/Control/adsr.h **** 
  70:../../libs/DaisySP/Source/Control/adsr.h ****   public:
  71:../../libs/DaisySP/Source/Control/adsr.h ****     /** Sustain level
  72:../../libs/DaisySP/Source/Control/adsr.h ****         \param sus_level - sets sustain level, 0...1.0
  73:../../libs/DaisySP/Source/Control/adsr.h ****     */
ARM GAS  C:\Users\skipi\AppData\Local\Temp\cckXvY0f.s 			page 65


  74:../../libs/DaisySP/Source/Control/adsr.h ****     inline void SetSustainLevel(float sus_level)
 1999              		.loc 7 74 17 view .LVU479
 2000              	.LBB810:
  75:../../libs/DaisySP/Source/Control/adsr.h ****     {
  76:../../libs/DaisySP/Source/Control/adsr.h ****         sus_level = (sus_level <= 0.f) ? -0.01f // forces envelope into idle
 2001              		.loc 7 76 9 view .LVU480
  77:../../libs/DaisySP/Source/Control/adsr.h ****                                        : (sus_level > 1.f) ? 1.f : sus_level;
  78:../../libs/DaisySP/Source/Control/adsr.h ****         sus_level_ = sus_level;
 2002              		.loc 7 78 9 view .LVU481
 2003              		.loc 7 78 20 is_stmt 0 view .LVU482
 2004 041c 7B4B     		ldr	r3, .L44+44
 2005              	.LBE810:
 2006              	.LBE809:
 109:main.cpp      ****     env.SetTime(ADSR_SEG_RELEASE, 0.5f);
 2007              		.loc 10 109 16 view .LVU483
 2008 041e B0EE480A 		vmov.f32	s0, s16
 2009 0422 0421     		movs	r1, #4
 2010 0424 3046     		mov	r0, r6
 2011              	.LBB812:
 2012              	.LBB811:
 2013              		.loc 7 78 20 view .LVU484
 2014 0426 3360     		str	r3, [r6]	@ float
 2015              	.LVL132:
 2016              		.loc 7 78 20 view .LVU485
 2017              	.LBE811:
 2018              	.LBE812:
 2019              		.loc 10 109 5 is_stmt 1 view .LVU486
 2020              		.loc 10 109 16 is_stmt 0 view .LVU487
 2021 0428 FFF7FEFF 		bl	_ZN7daisysp4Adsr7SetTimeEif
 2022              	.LVL133:
 110:main.cpp      **** 
 111:main.cpp      ****     // 4. ADC INITIALIZATION
 112:main.cpp      ****     adcConfig[0].InitSingle(daisy::seed::A0);
 2023              		.loc 10 112 5 is_stmt 1 view .LVU488
 2024              		.loc 10 112 28 is_stmt 0 view .LVU489
 2025 042c 784B     		ldr	r3, .L44+48
 2026 042e 0222     		movs	r2, #2
 2027 0430 7848     		ldr	r0, .L44+52
 2028 0432 1968     		ldr	r1, [r3]
 2029 0434 FFF7FEFF 		bl	_ZN5daisy16AdcChannelConfig10InitSingleENS_3PinENS0_15ConversionSpeedE
 2030              	.LVL134:
 113:main.cpp      ****     adcConfig[1].InitSingle(daisy::seed::A1);
 2031              		.loc 10 113 5 is_stmt 1 view .LVU490
 2032              		.loc 10 113 28 is_stmt 0 view .LVU491
 2033 0438 774B     		ldr	r3, .L44+56
 2034 043a 0222     		movs	r2, #2
 2035 043c 7748     		ldr	r0, .L44+60
 2036 043e 1968     		ldr	r1, [r3]
 2037 0440 FFF7FEFF 		bl	_ZN5daisy16AdcChannelConfig10InitSingleENS_3PinENS0_15ConversionSpeedE
 2038              	.LVL135:
 114:main.cpp      ****     hw.adc.Init(adcConfig, ADC_CH);
 2039              		.loc 10 114 5 is_stmt 1 view .LVU492
 2040              		.loc 10 114 16 is_stmt 0 view .LVU493
 2041 0444 0423     		movs	r3, #4
 2042 0446 0222     		movs	r2, #2
 2043 0448 7249     		ldr	r1, .L44+52
 2044 044a 7548     		ldr	r0, .L44+64
ARM GAS  C:\Users\skipi\AppData\Local\Temp\cckXvY0f.s 			page 66


 2045 044c FFF7FEFF 		bl	_ZN5daisy9AdcHandle4InitEPNS_16AdcChannelConfigEjNS0_12OverSamplingE
 2046              	.LVL136:
 115:main.cpp      ****     hw.adc.Start();
 2047              		.loc 10 115 5 is_stmt 1 view .LVU494
 2048              		.loc 10 115 17 is_stmt 0 view .LVU495
 2049 0450 7348     		ldr	r0, .L44+64
 2050 0452 FFF7FEFF 		bl	_ZN5daisy9AdcHandle5StartEv
 2051              	.LVL137:
 116:main.cpp      **** 
 117:main.cpp      ****     // Start Audio Callback
 118:main.cpp      ****     hw.StartAudio(AudioCallback);
 2052              		.loc 10 118 5 is_stmt 1 view .LVU496
 2053              		.loc 10 118 18 is_stmt 0 view .LVU497
 2054 0456 7349     		ldr	r1, .L44+68
 2055 0458 6148     		ldr	r0, .L44
 2056 045a FFF7FEFF 		bl	_ZN5daisy9DaisySeed10StartAudioEPFvPKfPfjE
 2057              	.LVL138:
 119:main.cpp      **** 
 120:main.cpp      ****     // --- MAIN LOOP ---
 121:main.cpp      ****     uint32_t last_tick = System::GetNow();
 2058              		.loc 10 121 5 is_stmt 1 view .LVU498
 2059              		.loc 10 121 40 is_stmt 0 view .LVU499
 2060 045e FFF7FEFF 		bl	_ZN5daisy6System6GetNowEv
 2061              	.LVL139:
 2062 0462 0746     		mov	r7, r0
 2063              	.LVL140:
 122:main.cpp      ****     uint32_t last_print = System::GetNow();
 2064              		.loc 10 122 5 is_stmt 1 view .LVU500
 2065              		.loc 10 122 41 is_stmt 0 view .LVU501
 2066 0464 FFF7FEFF 		bl	_ZN5daisy6System6GetNowEv
 2067              	.LVL141:
 2068              		.loc 10 122 41 view .LVU502
 2069 0468 0490     		str	r0, [sp, #16]
 2070 046a 21E0     		b	.L29
 2071              	.LVL142:
 2072              	.L30:
 2073              	.LBB813:
 123:main.cpp      **** 
 124:main.cpp      ****     while (1)
 125:main.cpp      ****     {
 126:main.cpp      ****         uint32_t now = System::GetNow();
 127:main.cpp      **** 
 128:main.cpp      ****         // A. FAST LOOP  for sensor (200Hz - Every 5ms)
 129:main.cpp      ****         if (now - last_tick >= 5)
 130:main.cpp      ****         {
 131:main.cpp      ****             last_tick = now;
 132:main.cpp      **** 
 133:main.cpp      ****             // Read ADC Parameters
 134:main.cpp      ****             float curve_type = hw.adc.GetFloat(1) * 2 + 1;
 135:main.cpp      ****             float delta_max = hw.adc.GetFloat(0) * 100 + 20;
 136:main.cpp      ****             pc.setCurve(delta_max, curve_type);
 137:main.cpp      **** 
 138:main.cpp      ****             // Read MPR121
 139:main.cpp      ****             currTouched = cap.Touched();
 140:main.cpp      ****             
 141:main.cpp      ****             // Process Filters
 142:main.cpp      ****             float target_freq = pc.Process(cap.BaselineData(0), cap.FilteredData(0));
ARM GAS  C:\Users\skipi\AppData\Local\Temp\cckXvY0f.s 			page 67


 143:main.cpp      ****             
 144:main.cpp      ****             bool is_touched_now = (currTouched & _BV(0));
 145:main.cpp      **** 
 146:main.cpp      ****             // Gate Logic
 147:main.cpp      ****             if (is_touched_now)
 148:main.cpp      ****             {
 149:main.cpp      ****                 if (!gate) gate = true; 
 150:main.cpp      ****                 f = target_freq; // Updates instantly now
 151:main.cpp      ****             }
 152:main.cpp      ****             else
 153:main.cpp      ****             {
 154:main.cpp      ****                 if (gate) gate = false; 
 155:main.cpp      ****             }
 156:main.cpp      ****             lastTouched = currTouched;
 157:main.cpp      ****         }
 158:main.cpp      **** 
 159:main.cpp      ****         // B. SLOW LOOP for Debug (4Hz - Every 250ms) 
 160:main.cpp      ****         #ifdef Debug
 161:main.cpp      ****         if (now - last_print >= 250)
 2074              		.loc 10 161 9 is_stmt 1 view .LVU503
 2075              		.loc 10 161 17 is_stmt 0 view .LVU504
 2076 046c 049B     		ldr	r3, [sp, #16]
 2077 046e EB1A     		subs	r3, r5, r3
 2078              		.loc 10 161 9 view .LVU505
 2079 0470 F92B     		cmp	r3, #249
 2080 0472 1AD9     		bls	.L34
 162:main.cpp      ****         {
 163:main.cpp      ****             last_print = now;
 2081              		.loc 10 163 13 is_stmt 1 view .LVU506
 2082              	.LVL143:
 164:main.cpp      ****             
 165:main.cpp      ****             if (gate) {
 2083              		.loc 10 165 13 view .LVU507
 2084 0474 98F80030 		ldrb	r3, [r8]	@ zero_extendqisi2
 2085              	.LBB814:
 2086              	.LBB815:
 128:../../libs/libDaisy/src/daisy_seed.h ****     }
 2087              		.loc 1 128 23 is_stmt 0 view .LVU508
 2088 0478 9AED006A 		vldr.32	s12, [r10]
 2089 047c 9BED007A 		vldr.32	s14, [fp]
 2090 0480 D9ED005A 		vldr.32	s11, [r9]
 2091              	.LBE815:
 2092              	.LBE814:
 2093              		.loc 10 165 13 view .LVU509
 2094 0484 002B     		cmp	r3, #0
 2095 0486 00F09380 		beq	.L35
 166:main.cpp      ****                 hw.PrintLine("TOUCH | Freq: %.2f Hz | Delta: %.2f | Filt: %.2f", f, pc.getDelta(), 
 2096              		.loc 10 166 17 is_stmt 1 view .LVU510
 2097              	.LVL144:
 2098              	.LBB818:
 2099              	.LBI818:
 2100              		.file 13 "../../Classes/Temperamento/PlantConditioner.h"
   1:../../Classes/Temperamento/PlantConditioner.h **** #pragma once
   2:../../Classes/Temperamento/PlantConditioner.h **** #include <cstdint>
   3:../../Classes/Temperamento/PlantConditioner.h **** #include <cmath>
   4:../../Classes/Temperamento/PlantConditioner.h **** #include "daisysp.h"
   5:../../Classes/Temperamento/PlantConditioner.h **** #include "daisy_seed.h"
ARM GAS  C:\Users\skipi\AppData\Local\Temp\cckXvY0f.s 			page 68


   6:../../Classes/Temperamento/PlantConditioner.h **** 
   7:../../Classes/Temperamento/PlantConditioner.h **** // Assicurati che questi percorsi siano corretti nel tuo progetto!
   8:../../Classes/Temperamento/PlantConditioner.h **** // Se i file sono nella stessa cartella, usa semplicemente #include "CapFir.h" ecc.
   9:../../Classes/Temperamento/PlantConditioner.h **** #include "../SensorFilters/FIIR/CapFir.h"
  10:../../Classes/Temperamento/PlantConditioner.h **** #include "../SensorFilters/IIR/iir.h"
  11:../../Classes/Temperamento/PlantConditioner.h **** #include "../SensorFilters/MF/MF.h"
  12:../../Classes/Temperamento/PlantConditioner.h **** 
  13:../../Classes/Temperamento/PlantConditioner.h **** // Fallback se la macro non è definita altrove
  14:../../Classes/Temperamento/PlantConditioner.h **** #ifndef MPR121_TOUCH_THRESHOLD_DEFAULT
  15:../../Classes/Temperamento/PlantConditioner.h **** #define MPR121_TOUCH_THRESHOLD_DEFAULT 12
  16:../../Classes/Temperamento/PlantConditioner.h **** #endif
  17:../../Classes/Temperamento/PlantConditioner.h **** 
  18:../../Classes/Temperamento/PlantConditioner.h **** class PlantConditioner {
  19:../../Classes/Temperamento/PlantConditioner.h **** public:
  20:../../Classes/Temperamento/PlantConditioner.h ****     PlantConditioner();
  21:../../Classes/Temperamento/PlantConditioner.h ****     ~PlantConditioner();
  22:../../Classes/Temperamento/PlantConditioner.h **** 
  23:../../Classes/Temperamento/PlantConditioner.h ****     enum ScaleType {
  24:../../Classes/Temperamento/PlantConditioner.h ****         Major = 0,
  25:../../Classes/Temperamento/PlantConditioner.h ****         MinorNat,
  26:../../Classes/Temperamento/PlantConditioner.h ****         MinorArm,
  27:../../Classes/Temperamento/PlantConditioner.h ****         MinorMel,
  28:../../Classes/Temperamento/PlantConditioner.h ****         Pentatonic,
  29:../../Classes/Temperamento/PlantConditioner.h ****         Chromatic,
  30:../../Classes/Temperamento/PlantConditioner.h ****         Esatonic,
  31:../../Classes/Temperamento/PlantConditioner.h ****     };
  32:../../Classes/Temperamento/PlantConditioner.h **** 
  33:../../Classes/Temperamento/PlantConditioner.h ****     enum Notes {
  34:../../Classes/Temperamento/PlantConditioner.h ****         C = 0,
  35:../../Classes/Temperamento/PlantConditioner.h ****         Cs,
  36:../../Classes/Temperamento/PlantConditioner.h ****         D,
  37:../../Classes/Temperamento/PlantConditioner.h ****         Ds,
  38:../../Classes/Temperamento/PlantConditioner.h ****         E,
  39:../../Classes/Temperamento/PlantConditioner.h ****         F,
  40:../../Classes/Temperamento/PlantConditioner.h ****         Fs,
  41:../../Classes/Temperamento/PlantConditioner.h ****         G,
  42:../../Classes/Temperamento/PlantConditioner.h ****         Gs,
  43:../../Classes/Temperamento/PlantConditioner.h ****         A,
  44:../../Classes/Temperamento/PlantConditioner.h ****         As,
  45:../../Classes/Temperamento/PlantConditioner.h ****         B,
  46:../../Classes/Temperamento/PlantConditioner.h ****     };
  47:../../Classes/Temperamento/PlantConditioner.h **** 
  48:../../Classes/Temperamento/PlantConditioner.h ****     void Init(IIR::FilterType filter_type);
  49:../../Classes/Temperamento/PlantConditioner.h **** 
  50:../../Classes/Temperamento/PlantConditioner.h ****     void setCurve(uint8_t delta_max, float curve_type);
  51:../../Classes/Temperamento/PlantConditioner.h **** 
  52:../../Classes/Temperamento/PlantConditioner.h ****     void setScale(enum Notes root_note, enum ScaleType scale_type);
  53:../../Classes/Temperamento/PlantConditioner.h **** 
  54:../../Classes/Temperamento/PlantConditioner.h ****     void setOctave(uint8_t octave);
  55:../../Classes/Temperamento/PlantConditioner.h **** 
  56:../../Classes/Temperamento/PlantConditioner.h ****     float Process(uint16_t baseline, uint16_t filtered);
  57:../../Classes/Temperamento/PlantConditioner.h **** 
  58:../../Classes/Temperamento/PlantConditioner.h ****     // DEBUG FUNCTIONS
  59:../../Classes/Temperamento/PlantConditioner.h ****     float* getBin();
  60:../../Classes/Temperamento/PlantConditioner.h ****     float getDelta() { return _delta; }
 2101              		.loc 13 60 11 view .LVU511
 2102              	.LBB819:
ARM GAS  C:\Users\skipi\AppData\Local\Temp\cckXvY0f.s 			page 69


 2103              		.loc 13 60 24 view .LVU512
 2104              		.loc 13 60 24 is_stmt 0 view .LVU513
 2105              	.LBE819:
 2106              	.LBE818:
 2107              	.LBB820:
 2108              	.LBI820:
  61:../../Classes/Temperamento/PlantConditioner.h ****     float getDeltaFilt() { return _deltaFilt; }
 2109              		.loc 13 61 11 is_stmt 1 view .LVU514
 2110              	.LBB821:
 2111              		.loc 13 61 28 view .LVU515
 2112              		.loc 13 61 28 is_stmt 0 view .LVU516
 2113              	.LBE821:
 2114              	.LBE820:
 2115              	.LBB822:
 2116              	.LBI814:
 126:../../libs/libDaisy/src/daisy_seed.h ****     {
 2117              		.loc 1 126 17 is_stmt 1 view .LVU517
 2118              	.LBB816:
 128:../../libs/libDaisy/src/daisy_seed.h ****     }
 2119              		.loc 1 128 23 is_stmt 0 view .LVU518
 2120 048a B7EEC66A 		vcvt.f64.f32	d6, s12
 2121              	.LVL145:
 128:../../libs/libDaisy/src/daisy_seed.h ****     }
 2122              		.loc 1 128 23 view .LVU519
 2123 048e 6648     		ldr	r0, .L44+72
 2124 0490 B7EEC77A 		vcvt.f64.f32	d7, s14
 2125              	.LVL146:
 128:../../libs/libDaisy/src/daisy_seed.h ****     }
 2126              		.loc 1 128 23 view .LVU520
 2127              	.LBE816:
 2128              	.LBE822:
 163:main.cpp      ****             
 2129              		.loc 10 163 24 view .LVU521
 2130 0494 0495     		str	r5, [sp, #16]
 2131              	.LBB823:
 2132              	.LBB817:
 128:../../libs/libDaisy/src/daisy_seed.h ****     }
 2133              		.loc 1 128 23 view .LVU522
 2134 0496 B7EEE55A 		vcvt.f64.f32	d5, s11
 2135 049a 8DED026B 		vstr.64	d6, [sp, #8]
 2136 049e 53EC152B 		vmov	r2, r3, d5
 2137 04a2 8DED007B 		vstr.64	d7, [sp]
 2138 04a6 FFF7FEFF 		bl	_ZN5daisy6LoggerILNS_17LoggerDestinationE1EE9PrintLineEPKcz
 2139              	.LVL147:
 2140              	.L34:
 128:../../libs/libDaisy/src/daisy_seed.h ****     }
 2141              		.loc 1 128 23 view .LVU523
 2142              	.LBE817:
 2143              	.LBE823:
 167:main.cpp      ****             } else {
 168:main.cpp      ****                 hw.PrintLine("..... | Freq: %.2f Hz | Delta: %.2f | Filt: %.2f", f, pc.getDelta(), 
 169:main.cpp      ****             }
 170:main.cpp      ****         }
 171:main.cpp      ****         #endif
 172:main.cpp      ****         
 173:main.cpp      ****         // C. CPU REST  ciao matteo, ogni volta che lo tolgo gemini mi insulta
 174:main.cpp      ****         System::Delay(1);
ARM GAS  C:\Users\skipi\AppData\Local\Temp\cckXvY0f.s 			page 70


 2144              		.loc 10 174 9 is_stmt 1 view .LVU524
 2145              		.loc 10 174 22 is_stmt 0 view .LVU525
 2146 04aa 0120     		movs	r0, #1
 2147 04ac FFF7FEFF 		bl	_ZN5daisy6System5DelayEm
 2148              	.LVL148:
 2149              	.LBE813:
 124:main.cpp      ****     {
 2150              		.loc 10 124 5 is_stmt 1 view .LVU526
 2151              	.L29:
 124:main.cpp      ****     {
 2152              		.loc 10 124 5 view .LVU527
 2153              	.LBB978:
 126:main.cpp      **** 
 2154              		.loc 10 126 9 view .LVU528
 126:main.cpp      **** 
 2155              		.loc 10 126 38 is_stmt 0 view .LVU529
 2156 04b0 FFF7FEFF 		bl	_ZN5daisy6System6GetNowEv
 2157              	.LVL149:
 2158              	.LBB824:
 129:main.cpp      ****         {
 2159              		.loc 10 129 17 view .LVU530
 2160 04b4 C31B     		subs	r3, r0, r7
 2161              	.LBE824:
 126:main.cpp      **** 
 2162              		.loc 10 126 38 view .LVU531
 2163 04b6 0546     		mov	r5, r0
 2164              	.LVL150:
 129:main.cpp      ****         {
 2165              		.loc 10 129 9 is_stmt 1 view .LVU532
 2166              	.LBB968:
 2167 04b8 042B     		cmp	r3, #4
 2168 04ba D7D9     		bls	.L30
 2169              	.LBB825:
 131:main.cpp      **** 
 2170              		.loc 10 131 13 view .LVU533
 2171              	.LVL151:
 134:main.cpp      ****             float delta_max = hw.adc.GetFloat(0) * 100 + 20;
 2172              		.loc 10 134 13 view .LVU534
 134:main.cpp      ****             float delta_max = hw.adc.GetFloat(0) * 100 + 20;
 2173              		.loc 10 134 47 is_stmt 0 view .LVU535
 2174 04bc 0121     		movs	r1, #1
 2175 04be 5848     		ldr	r0, .L44+64
 2176              	.LVL152:
 134:main.cpp      ****             float delta_max = hw.adc.GetFloat(0) * 100 + 20;
 2177              		.loc 10 134 47 view .LVU536
 2178 04c0 FFF7FEFF 		bl	_ZNK5daisy9AdcHandle8GetFloatEh
 2179              	.LVL153:
 134:main.cpp      ****             float delta_max = hw.adc.GetFloat(0) * 100 + 20;
 2180              		.loc 10 134 57 view .LVU537
 2181 04c4 B7EE008A 		vmov.f32	s16, #1.0e+0
 2182 04c8 F0EE007A 		vmov.f32	s15, #2.0e+0
 135:main.cpp      ****             pc.setCurve(delta_max, curve_type);
 2183              		.loc 10 135 46 view .LVU538
 2184 04cc 0021     		movs	r1, #0
 2185 04ce 5448     		ldr	r0, .L44+64
 2186              	.LBB826:
 2187              	.LBB827:
ARM GAS  C:\Users\skipi\AppData\Local\Temp\cckXvY0f.s 			page 71


 2188              	.LBB828:
 2189              	.LBB829:
 2190              	.LBB830:
 2191              	.LBB831:
  78:../../libs/libDaisy/src/dev/mpr121.h ****                    config_.dev_addr, memAddress, 1, data, memSize, 10);
 2192              		.loc 9 78 32 view .LVU539
 2193 04d0 0A26     		movs	r6, #10
 2194              	.LBE831:
 2195              	.LBE830:
 2196              	.LBE829:
 2197              	.LBE828:
 2198              	.LBE827:
 2199              	.LBE826:
 2200              	.LBB853:
 2201              	.LBB854:
 2202              	.LBB855:
 2203              	.LBB856:
 2204              	.LBB857:
 2205              	.LBB858:
 2206              	.LBB859:
 2207              	.LBB860:
 2208 04d2 0127     		movs	r7, #1
 2209              	.LBE860:
 2210              	.LBE859:
 2211              	.LBE858:
 2212              	.LBE857:
 2213              	.LBE856:
 2214              	.LBE855:
 2215              	.LBE854:
 2216              	.LBE853:
 134:main.cpp      ****             float delta_max = hw.adc.GetFloat(0) * 100 + 20;
 2217              		.loc 10 134 57 view .LVU540
 2218 04d4 A0EE278A 		vfma.f32	s16, s0, s15
 2219              	.LVL154:
 135:main.cpp      ****             pc.setCurve(delta_max, curve_type);
 2220              		.loc 10 135 13 is_stmt 1 view .LVU541
 135:main.cpp      ****             pc.setCurve(delta_max, curve_type);
 2221              		.loc 10 135 46 is_stmt 0 view .LVU542
 2222 04d8 FFF7FEFF 		bl	_ZNK5daisy9AdcHandle8GetFloatEh
 2223              	.LVL155:
 135:main.cpp      ****             pc.setCurve(delta_max, curve_type);
 2224              		.loc 10 135 58 view .LVU543
 2225 04dc F3EE047A 		vmov.f32	s15, #2.0e+1
 2226 04e0 9FED447A 		vldr.32	s14, .L44+20
 136:main.cpp      **** 
 2227              		.loc 10 136 24 view .LVU544
 2228 04e4 4048     		ldr	r0, .L44+8
 135:main.cpp      ****             pc.setCurve(delta_max, curve_type);
 2229              		.loc 10 135 58 view .LVU545
 2230 04e6 E0EE077A 		vfma.f32	s15, s0, s14
 2231              	.LVL156:
 136:main.cpp      **** 
 2232              		.loc 10 136 13 is_stmt 1 view .LVU546
 136:main.cpp      **** 
 2233              		.loc 10 136 24 is_stmt 0 view .LVU547
 2234 04ea B0EE480A 		vmov.f32	s0, s16
 2235 04ee FCEEE77A 		vcvt.u32.f32	s15, s15
ARM GAS  C:\Users\skipi\AppData\Local\Temp\cckXvY0f.s 			page 72


 2236              	.LVL157:
 136:main.cpp      **** 
 2237              		.loc 10 136 24 view .LVU548
 2238 04f2 CDED057A 		vstr.32	s15, [sp, #20]	@ int
 2239 04f6 9DF81410 		ldrb	r1, [sp, #20]	@ zero_extendqisi2
 2240 04fa FFF7FEFF 		bl	_ZN16PlantConditioner8setCurveEhf
 2241              	.LVL158:
 139:main.cpp      ****             
 2242              		.loc 10 139 13 is_stmt 1 view .LVU549
 2243              	.LBB917:
 2244              	.LBI826:
 227:../../libs/libDaisy/src/dev/mpr121.h ****     {
 2245              		.loc 9 227 14 view .LVU550
 2246              	.LBB849:
 2247              	.LBB845:
 2248              	.LBI828:
 244:../../libs/libDaisy/src/dev/mpr121.h ****     {
 2249              		.loc 9 244 14 view .LVU551
 2250              	.LBB841:
 2251              	.LBB833:
 2252              	.LBI830:
  75:../../libs/libDaisy/src/dev/mpr121.h ****     {
 2253              		.loc 9 75 10 view .LVU552
 2254              	.LBB832:
  77:../../libs/libDaisy/src/dev/mpr121.h ****                != i2c_.Mem_read(
 2255              		.loc 9 77 9 view .LVU553
  78:../../libs/libDaisy/src/dev/mpr121.h ****                    config_.dev_addr, memAddress, 1, data, memSize, 10);
 2256              		.loc 9 78 32 is_stmt 0 view .LVU554
 2257 04fe 0222     		movs	r2, #2
 2258 0500 0123     		movs	r3, #1
 2259 0502 94F82C10 		ldrb	r1, [r4, #44]	@ zero_extendqisi2
 2260 0506 0192     		str	r2, [sp, #4]
 2261 0508 10AA     		add	r2, sp, #64
 2262              	.LVL159:
  78:../../libs/libDaisy/src/dev/mpr121.h ****                    config_.dev_addr, memAddress, 1, data, memSize, 10);
 2263              		.loc 9 78 32 view .LVU555
 2264 050a 0296     		str	r6, [sp, #8]
 2265 050c 0092     		str	r2, [sp]
 2266 050e 0022     		movs	r2, #0
 2267              	.LVL160:
  78:../../libs/libDaisy/src/dev/mpr121.h ****                    config_.dev_addr, memAddress, 1, data, memSize, 10);
 2268              		.loc 9 78 32 view .LVU556
 2269 0510 4648     		ldr	r0, .L44+76
 2270 0512 FFF7FEFF 		bl	_ZN5daisy9I2CHandle8Mem_readEtttPhtm
 2271              	.LVL161:
  78:../../libs/libDaisy/src/dev/mpr121.h ****                    config_.dev_addr, memAddress, 1, data, memSize, 10);
 2272              		.loc 9 78 32 view .LVU557
 2273              	.LBE832:
 2274              	.LBE833:
 2275              	.LBB834:
 2276              	.LBI834:
 343:../../libs/libDaisy/src/dev/mpr121.h **** 
 2277              		.loc 9 343 10 is_stmt 1 view .LVU558
 2278              	.LBE834:
 2279              	.LBE841:
 2280              	.LBE845:
 2281              	.LBE849:
ARM GAS  C:\Users\skipi\AppData\Local\Temp\cckXvY0f.s 			page 73


 2282              	.LBE917:
 2283              	.LBB918:
 2284              	.LBB909:
 2285              	.LBB901:
 2286              	.LBB893:
 2287              	.LBB885:
 2288              	.LBB877:
 2289              	.LBB866:
 2290              	.LBB861:
  78:../../libs/libDaisy/src/dev/mpr121.h ****                    config_.dev_addr, memAddress, 1, data, memSize, 10);
 2291              		.loc 9 78 32 is_stmt 0 view .LVU559
 2292 0516 10AB     		add	r3, sp, #64
 2293              	.LBE861:
 2294              	.LBE866:
 2295              	.LBE877:
 2296              	.LBE885:
 2297              	.LBE893:
 2298              	.LBE901:
 2299              	.LBE909:
 2300              	.LBE918:
 139:main.cpp      ****             
 2301              		.loc 10 139 25 view .LVU560
 2302 0518 454A     		ldr	r2, .L44+80
 2303              	.LBB919:
 2304              	.LBB910:
 2305              	.LBB902:
 2306              	.LBB894:
 2307              	.LBB886:
 2308              	.LBB878:
 2309              	.LBB867:
 2310              	.LBB862:
  78:../../libs/libDaisy/src/dev/mpr121.h ****                    config_.dev_addr, memAddress, 1, data, memSize, 10);
 2311              		.loc 9 78 32 view .LVU561
 2312 051a 0093     		str	r3, [sp]
 2313              	.LBE862:
 2314              	.LBE867:
 2315              	.LBE878:
 2316              	.LBE886:
 2317              	.LBE894:
 2318              	.LBE902:
 2319              	.LBE910:
 2320              	.LBE919:
 2321              	.LBB920:
 2322              	.LBB850:
 2323              	.LBB846:
 2324              	.LBB842:
 2325              	.LBB838:
 2326              	.LBB835:
 343:../../libs/libDaisy/src/dev/mpr121.h **** 
 2327              		.loc 9 343 55 view .LVU562
 2328 051c 94F83030 		ldrb	r3, [r4, #48]	@ zero_extendqisi2
 2329              	.LBE835:
 2330              	.LBE838:
 2331              	.LBE842:
 2332              	.LBE846:
 2333              	.LBE850:
 2334              	.LBE920:
ARM GAS  C:\Users\skipi\AppData\Local\Temp\cckXvY0f.s 			page 74


 2335              	.LBB921:
 2336              	.LBB911:
 2337              	.LBB903:
 2338              	.LBB895:
 2339              	.LBB887:
 2340              	.LBB879:
 2341              	.LBB868:
 2342              	.LBB863:
  78:../../libs/libDaisy/src/dev/mpr121.h ****                    config_.dev_addr, memAddress, 1, data, memSize, 10);
 2343              		.loc 9 78 32 view .LVU563
 2344 0520 0296     		str	r6, [sp, #8]
 2345              	.LBE863:
 2346              	.LBE868:
 2347              	.LBE879:
 2348              	.LBE887:
 2349              	.LBE895:
 2350              	.LBE903:
 2351              	.LBE911:
 2352              	.LBE921:
 2353              	.LBB922:
 2354              	.LBB851:
 2355              	.LBB847:
 2356              	.LBB843:
 2357              	.LBB839:
 2358              	.LBB836:
 343:../../libs/libDaisy/src/dev/mpr121.h **** 
 2359              		.loc 9 343 55 view .LVU564
 2360 0522 0028     		cmp	r0, #0
 2361 0524 18BF     		it	ne
 2362 0526 43F00103 		orrne	r3, r3, #1
 2363              	.LBE836:
 2364              	.LBE839:
 2365              	.LBE843:
 2366              	.LBE847:
 2367              	.LBE851:
 2368              	.LBE922:
 2369              	.LBB923:
 2370              	.LBB912:
 2371              	.LBB904:
 2372              	.LBB896:
 2373              	.LBB888:
 2374              	.LBB880:
 2375              	.LBB869:
 2376              	.LBB864:
  78:../../libs/libDaisy/src/dev/mpr121.h ****                    config_.dev_addr, memAddress, 1, data, memSize, 10);
 2377              		.loc 9 78 32 view .LVU565
 2378 052a 94F82C10 		ldrb	r1, [r4, #44]	@ zero_extendqisi2
 2379 052e 3F48     		ldr	r0, .L44+76
 2380              	.LVL162:
  78:../../libs/libDaisy/src/dev/mpr121.h ****                    config_.dev_addr, memAddress, 1, data, memSize, 10);
 2381              		.loc 9 78 32 view .LVU566
 2382              	.LBE864:
 2383              	.LBE869:
 2384              	.LBE880:
 2385              	.LBE888:
 2386              	.LBE896:
 2387              	.LBE904:
ARM GAS  C:\Users\skipi\AppData\Local\Temp\cckXvY0f.s 			page 75


 2388              	.LBE912:
 2389              	.LBE923:
 2390              	.LBB924:
 2391              	.LBB852:
 2392              	.LBB848:
 2393              	.LBB844:
 2394              	.LBB840:
 2395              	.LBB837:
 343:../../libs/libDaisy/src/dev/mpr121.h **** 
 2396              		.loc 9 343 55 view .LVU567
 2397 0530 84F83030 		strb	r3, [r4, #48]
 2398              	.LVL163:
 343:../../libs/libDaisy/src/dev/mpr121.h **** 
 2399              		.loc 9 343 55 view .LVU568
 2400              	.LBE837:
 2401              	.LBE840:
 250:../../libs/libDaisy/src/dev/mpr121.h ****     }
 2402              		.loc 9 250 16 view .LVU569
 2403 0534 BDF84030 		ldrh	r3, [sp, #64]
 2404              	.LVL164:
 250:../../libs/libDaisy/src/dev/mpr121.h ****     }
 2405              		.loc 9 250 16 view .LVU570
 2406              	.LBE844:
 2407              	.LBE848:
 230:../../libs/libDaisy/src/dev/mpr121.h ****     }
 2408              		.loc 9 230 20 view .LVU571
 2409 0538 C3F30B03 		ubfx	r3, r3, #0, #12
 2410              	.LBE852:
 2411              	.LBE924:
 139:main.cpp      ****             
 2412              		.loc 10 139 25 view .LVU572
 2413 053c 1380     		strh	r3, [r2]	@ movhi
 142:main.cpp      ****             
 2414              		.loc 10 142 13 is_stmt 1 view .LVU573
 2415              	.LVL165:
 2416              	.LBB925:
 2417              	.LBI853:
 214:../../libs/libDaisy/src/dev/mpr121.h ****     {
 2418              		.loc 9 214 14 view .LVU574
 2419              	.LBB913:
 2420              	.LBB905:
 2421              	.LBI855:
 214:../../libs/libDaisy/src/dev/mpr121.h ****     {
 2422              		.loc 9 214 14 view .LVU575
 2423              	.LBB897:
 2424              	.LBB889:
 2425              	.LBI857:
 237:../../libs/libDaisy/src/dev/mpr121.h ****     {
 2426              		.loc 9 237 13 view .LVU576
 2427              	.LBB881:
 2428              	.LBB870:
 2429              	.LBI859:
  75:../../libs/libDaisy/src/dev/mpr121.h ****     {
 2430              		.loc 9 75 10 view .LVU577
 2431              	.LBB865:
  77:../../libs/libDaisy/src/dev/mpr121.h ****                != i2c_.Mem_read(
 2432              		.loc 9 77 9 view .LVU578
ARM GAS  C:\Users\skipi\AppData\Local\Temp\cckXvY0f.s 			page 76


  78:../../libs/libDaisy/src/dev/mpr121.h ****                    config_.dev_addr, memAddress, 1, data, memSize, 10);
 2433              		.loc 9 78 32 is_stmt 0 view .LVU579
 2434 053e 3B46     		mov	r3, r7
 2435 0540 1E22     		movs	r2, #30
 2436 0542 0197     		str	r7, [sp, #4]
 2437 0544 FFF7FEFF 		bl	_ZN5daisy9I2CHandle8Mem_readEtttPhtm
 2438              	.LVL166:
  78:../../libs/libDaisy/src/dev/mpr121.h ****                    config_.dev_addr, memAddress, 1, data, memSize, 10);
 2439              		.loc 9 78 32 view .LVU580
 2440              	.LBE865:
 2441              	.LBE870:
 2442              	.LBB871:
 2443              	.LBI871:
 343:../../libs/libDaisy/src/dev/mpr121.h **** 
 2444              		.loc 9 343 10 is_stmt 1 view .LVU581
 2445              	.LBB872:
 343:../../libs/libDaisy/src/dev/mpr121.h **** 
 2446              		.loc 9 343 55 is_stmt 0 view .LVU582
 2447 0548 94F83020 		ldrb	r2, [r4, #48]	@ zero_extendqisi2
 2448              	.LBE872:
 2449              	.LBE871:
 2450              	.LBE881:
 2451              	.LBE889:
 2452              	.LBE897:
 2453              	.LBE905:
 2454              	.LBE913:
 2455              	.LBE925:
 2456              	.LBB926:
 2457              	.LBB927:
 2458              	.LBB928:
 2459              	.LBB929:
 2460              	.LBB930:
 2461              	.LBB931:
  78:../../libs/libDaisy/src/dev/mpr121.h ****                    config_.dev_addr, memAddress, 1, data, memSize, 10);
 2462              		.loc 9 78 32 view .LVU583
 2463 054c 0223     		movs	r3, #2
 2464 054e 10A9     		add	r1, sp, #64
 2465              	.LBE931:
 2466              	.LBE930:
 2467              	.LBE929:
 2468              	.LBE928:
 2469              	.LBE927:
 2470              	.LBE926:
 2471              	.LBB959:
 2472              	.LBB914:
 2473              	.LBB906:
 2474              	.LBB898:
 2475              	.LBB890:
 2476              	.LBB882:
 2477              	.LBB875:
 2478              	.LBB873:
 343:../../libs/libDaisy/src/dev/mpr121.h **** 
 2479              		.loc 9 343 55 view .LVU584
 2480 0550 0028     		cmp	r0, #0
 2481 0552 18BF     		it	ne
 2482 0554 42F00102 		orrne	r2, r2, #1
 2483              	.LBE873:
ARM GAS  C:\Users\skipi\AppData\Local\Temp\cckXvY0f.s 			page 77


 2484              	.LBE875:
 2485              	.LBE882:
 2486              	.LBE890:
 2487              	.LBE898:
 2488              	.LBE906:
 2489              	.LBE914:
 2490              	.LBE959:
 2491              	.LBB960:
 2492              	.LBB954:
 2493              	.LBB949:
 2494              	.LBB944:
 2495              	.LBB935:
 2496              	.LBB932:
  78:../../libs/libDaisy/src/dev/mpr121.h ****                    config_.dev_addr, memAddress, 1, data, memSize, 10);
 2497              		.loc 9 78 32 view .LVU585
 2498 0558 0296     		str	r6, [sp, #8]
 2499 055a 0193     		str	r3, [sp, #4]
 2500 055c 3B46     		mov	r3, r7
 2501 055e 0091     		str	r1, [sp]
 2502              	.LBE932:
 2503              	.LBE935:
 2504              	.LBE944:
 2505              	.LBE949:
 2506              	.LBE954:
 2507              	.LBE960:
 2508              	.LBB961:
 2509              	.LBB915:
 2510              	.LBB907:
 2511              	.LBB899:
 2512              	.LBB891:
 2513              	.LBB883:
 2514              	.LBB876:
 2515              	.LBB874:
 343:../../libs/libDaisy/src/dev/mpr121.h **** 
 2516              		.loc 9 343 55 view .LVU586
 2517 0560 84F83020 		strb	r2, [r4, #48]
 2518              	.LVL167:
 343:../../libs/libDaisy/src/dev/mpr121.h **** 
 2519              		.loc 9 343 55 view .LVU587
 2520              	.LBE874:
 2521              	.LBE876:
 2522              	.LBE883:
 2523              	.LBE891:
 2524              	.LBE899:
 2525              	.LBE907:
 2526              	.LBE915:
 2527              	.LBE961:
 2528              	.LBB962:
 2529              	.LBB955:
 2530              	.LBB950:
 2531              	.LBB945:
 2532              	.LBB936:
 2533              	.LBB933:
  78:../../libs/libDaisy/src/dev/mpr121.h ****                    config_.dev_addr, memAddress, 1, data, memSize, 10);
 2534              		.loc 9 78 32 view .LVU588
 2535 0564 0422     		movs	r2, #4
 2536 0566 94F82C10 		ldrb	r1, [r4, #44]	@ zero_extendqisi2
ARM GAS  C:\Users\skipi\AppData\Local\Temp\cckXvY0f.s 			page 78


 2537 056a 3048     		ldr	r0, .L44+76
 2538              	.LBE933:
 2539              	.LBE936:
 2540              	.LBE945:
 2541              	.LBE950:
 2542              	.LBE955:
 2543              	.LBE962:
 2544              	.LBB963:
 2545              	.LBB916:
 2546              	.LBB908:
 2547              	.LBB900:
 2548              	.LBB892:
 2549              	.LBB884:
 241:../../libs/libDaisy/src/dev/mpr121.h ****     }
 2550              		.loc 9 241 16 view .LVU589
 2551 056c 9DF84060 		ldrb	r6, [sp, #64]	@ zero_extendqisi2
 2552              	.LVL168:
 241:../../libs/libDaisy/src/dev/mpr121.h ****     }
 2553              		.loc 9 241 16 view .LVU590
 2554              	.LBE884:
 2555              	.LBE892:
 2556              	.LBE900:
 2557              	.LBE908:
 2558              	.LBE916:
 2559              	.LBE963:
 2560              	.LBB964:
 2561              	.LBI926:
 201:../../libs/libDaisy/src/dev/mpr121.h ****     {
 2562              		.loc 9 201 14 is_stmt 1 view .LVU591
 2563              	.LBB956:
 2564              	.LBI927:
 201:../../libs/libDaisy/src/dev/mpr121.h ****     {
 2565              		.loc 9 201 14 view .LVU592
 2566              	.LBB951:
 2567              	.LBI928:
 244:../../libs/libDaisy/src/dev/mpr121.h ****     {
 2568              		.loc 9 244 14 view .LVU593
 2569              	.LBB946:
 2570              	.LBB937:
 2571              	.LBI930:
  75:../../libs/libDaisy/src/dev/mpr121.h ****     {
 2572              		.loc 9 75 10 view .LVU594
 2573              	.LBB934:
  77:../../libs/libDaisy/src/dev/mpr121.h ****                != i2c_.Mem_read(
 2574              		.loc 9 77 9 view .LVU595
  78:../../libs/libDaisy/src/dev/mpr121.h ****                    config_.dev_addr, memAddress, 1, data, memSize, 10);
 2575              		.loc 9 78 32 is_stmt 0 view .LVU596
 2576 0570 FFF7FEFF 		bl	_ZN5daisy9I2CHandle8Mem_readEtttPhtm
 2577              	.LVL169:
  78:../../libs/libDaisy/src/dev/mpr121.h ****                    config_.dev_addr, memAddress, 1, data, memSize, 10);
 2578              		.loc 9 78 32 view .LVU597
 2579              	.LBE934:
 2580              	.LBE937:
 2581              	.LBB938:
 2582              	.LBI938:
 343:../../libs/libDaisy/src/dev/mpr121.h **** 
 2583              		.loc 9 343 10 is_stmt 1 view .LVU598
ARM GAS  C:\Users\skipi\AppData\Local\Temp\cckXvY0f.s 			page 79


 2584              	.LBB939:
 343:../../libs/libDaisy/src/dev/mpr121.h **** 
 2585              		.loc 9 343 55 is_stmt 0 view .LVU599
 2586 0574 94F83020 		ldrb	r2, [r4, #48]	@ zero_extendqisi2
 2587              	.LBE939:
 2588              	.LBE938:
 2589              	.LBE946:
 2590              	.LBE951:
 2591              	.LBE956:
 2592              	.LBE964:
 142:main.cpp      ****             
 2593              		.loc 10 142 43 view .LVU600
 2594 0578 B100     		lsls	r1, r6, #2
 2595              	.LBB965:
 2596              	.LBB957:
 2597              	.LBB952:
 2598              	.LBB947:
 2599              	.LBB942:
 2600              	.LBB940:
 343:../../libs/libDaisy/src/dev/mpr121.h **** 
 2601              		.loc 9 343 55 view .LVU601
 2602 057a 0028     		cmp	r0, #0
 2603 057c 18BF     		it	ne
 2604 057e 42F00102 		orrne	r2, r2, #1
 2605              	.LBE940:
 2606              	.LBE942:
 2607              	.LBE947:
 2608              	.LBE952:
 2609              	.LBE957:
 2610              	.LBE965:
 142:main.cpp      ****             
 2611              		.loc 10 142 43 view .LVU602
 2612 0582 1948     		ldr	r0, .L44+8
 2613              	.LVL170:
 2614              	.LBB966:
 2615              	.LBB958:
 2616              	.LBB953:
 2617              	.LBB948:
 2618              	.LBB943:
 2619              	.LBB941:
 343:../../libs/libDaisy/src/dev/mpr121.h **** 
 2620              		.loc 9 343 55 view .LVU603
 2621 0584 84F83020 		strb	r2, [r4, #48]
 2622              	.LVL171:
 343:../../libs/libDaisy/src/dev/mpr121.h **** 
 2623              		.loc 9 343 55 view .LVU604
 2624              	.LBE941:
 2625              	.LBE943:
 2626              	.LBE948:
 2627              	.LBE953:
 2628              	.LBE958:
 2629              	.LBE966:
 142:main.cpp      ****             
 2630              		.loc 10 142 43 view .LVU605
 2631 0588 BDF84020 		ldrh	r2, [sp, #64]
 2632 058c FFF7FEFF 		bl	_ZN16PlantConditioner7ProcessEtt
 2633              	.LVL172:
ARM GAS  C:\Users\skipi\AppData\Local\Temp\cckXvY0f.s 			page 80


 144:main.cpp      **** 
 2634              		.loc 10 144 36 view .LVU606
 2635 0590 274A     		ldr	r2, .L44+80
 2636 0592 1288     		ldrh	r2, [r2]
 2637              	.LVL173:
 144:main.cpp      **** 
 2638              		.loc 10 144 13 is_stmt 1 view .LVU607
 147:main.cpp      ****             {
 2639              		.loc 10 147 13 view .LVU608
 2640 0594 12EA0701 		ands	r1, r2, r7
 2641 0598 1BD0     		beq	.L31
 149:main.cpp      ****                 f = target_freq; // Updates instantly now
 2642              		.loc 10 149 17 view .LVU609
 2643 059a 98F80010 		ldrb	r1, [r8]	@ zero_extendqisi2
 2644 059e 09B9     		cbnz	r1, .L32
 149:main.cpp      ****                 f = target_freq; // Updates instantly now
 2645              		.loc 10 149 28 discriminator 1 view .LVU610
 149:main.cpp      ****                 f = target_freq; // Updates instantly now
 2646              		.loc 10 149 33 is_stmt 0 discriminator 1 view .LVU611
 2647 05a0 88F80070 		strb	r7, [r8]
 2648              	.L32:
 150:main.cpp      ****             }
 2649              		.loc 10 150 17 is_stmt 1 view .LVU612
 150:main.cpp      ****             }
 2650              		.loc 10 150 19 is_stmt 0 view .LVU613
 2651 05a4 89ED000A 		vstr.32	s0, [r9]
 2652              	.L33:
 156:main.cpp      ****         }
 2653              		.loc 10 156 13 is_stmt 1 view .LVU614
 156:main.cpp      ****         }
 2654              		.loc 10 156 25 is_stmt 0 view .LVU615
 2655 05a8 224B     		ldr	r3, .L44+84
 131:main.cpp      **** 
 2656              		.loc 10 131 23 view .LVU616
 2657 05aa 2F46     		mov	r7, r5
 156:main.cpp      ****         }
 2658              		.loc 10 156 25 view .LVU617
 2659 05ac 1A80     		strh	r2, [r3]	@ movhi
 2660              	.LBE825:
 2661 05ae 5DE7     		b	.L30
 2662              	.LVL174:
 2663              	.L35:
 156:main.cpp      ****         }
 2664              		.loc 10 156 25 view .LVU618
 2665              	.LBE968:
 168:main.cpp      ****             }
 2666              		.loc 10 168 17 is_stmt 1 view .LVU619
 2667              	.LBB969:
 2668              	.LBI969:
  60:../../Classes/Temperamento/PlantConditioner.h ****     float getDeltaFilt() { return _deltaFilt; }
 2669              		.loc 13 60 11 view .LVU620
 2670              	.LBB970:
  60:../../Classes/Temperamento/PlantConditioner.h ****     float getDeltaFilt() { return _deltaFilt; }
 2671              		.loc 13 60 24 view .LVU621
  60:../../Classes/Temperamento/PlantConditioner.h ****     float getDeltaFilt() { return _deltaFilt; }
 2672              		.loc 13 60 24 is_stmt 0 view .LVU622
 2673              	.LBE970:
ARM GAS  C:\Users\skipi\AppData\Local\Temp\cckXvY0f.s 			page 81


 2674              	.LBE969:
 2675              	.LBB971:
 2676              	.LBI971:
 2677              		.loc 13 61 11 is_stmt 1 view .LVU623
 2678              	.LBB972:
 2679              		.loc 13 61 28 view .LVU624
 2680              		.loc 13 61 28 is_stmt 0 view .LVU625
 2681              	.LBE972:
 2682              	.LBE971:
 2683              	.LBB973:
 2684              	.LBI973:
 126:../../libs/libDaisy/src/daisy_seed.h ****     {
 2685              		.loc 1 126 17 is_stmt 1 view .LVU626
 2686              	.LBB974:
 128:../../libs/libDaisy/src/daisy_seed.h ****     }
 2687              		.loc 1 128 23 is_stmt 0 view .LVU627
 2688 05b0 B7EEC66A 		vcvt.f64.f32	d6, s12
 2689 05b4 2048     		ldr	r0, .L44+88
 2690 05b6 B7EEC77A 		vcvt.f64.f32	d7, s14
 2691              	.LBE974:
 2692              	.LBE973:
 163:main.cpp      ****             
 2693              		.loc 10 163 24 view .LVU628
 2694 05ba 0495     		str	r5, [sp, #16]
 2695              	.LBB976:
 2696              	.LBB975:
 128:../../libs/libDaisy/src/daisy_seed.h ****     }
 2697              		.loc 1 128 23 view .LVU629
 2698 05bc B7EEE55A 		vcvt.f64.f32	d5, s11
 2699 05c0 8DED026B 		vstr.64	d6, [sp, #8]
 2700 05c4 53EC152B 		vmov	r2, r3, d5
 2701 05c8 8DED007B 		vstr.64	d7, [sp]
 2702 05cc FFF7FEFF 		bl	_ZN5daisy6LoggerILNS_17LoggerDestinationE1EE9PrintLineEPKcz
 2703              	.LVL175:
 129:../../libs/libDaisy/src/daisy_seed.h **** 
 2704              		.loc 1 129 5 view .LVU630
 2705 05d0 6BE7     		b	.L34
 2706              	.LVL176:
 2707              	.L31:
 129:../../libs/libDaisy/src/daisy_seed.h **** 
 2708              		.loc 1 129 5 view .LVU631
 2709              	.LBE975:
 2710              	.LBE976:
 2711              	.LBB977:
 2712              	.LBB967:
 154:main.cpp      ****             }
 2713              		.loc 10 154 17 is_stmt 1 view .LVU632
 2714 05d2 98F80030 		ldrb	r3, [r8]	@ zero_extendqisi2
 2715 05d6 002B     		cmp	r3, #0
 2716 05d8 E6D0     		beq	.L33
 154:main.cpp      ****             }
 2717              		.loc 10 154 27 discriminator 1 view .LVU633
 154:main.cpp      ****             }
 2718              		.loc 10 154 32 is_stmt 0 discriminator 1 view .LVU634
 2719 05da 88F80010 		strb	r1, [r8]
 2720 05de E3E7     		b	.L33
 2721              	.L45:
ARM GAS  C:\Users\skipi\AppData\Local\Temp\cckXvY0f.s 			page 82


 2722              		.align	2
 2723              	.L44:
 2724 05e0 00000000 		.word	.LANCHOR4
 2725 05e4 28000000 		.word	.LC1
 2726 05e8 00000000 		.word	.LANCHOR7
 2727 05ec CDCC8C3F 		.word	1066192077
 2728 05f0 00000000 		.word	.LANCHOR1
 2729 05f4 0000C842 		.word	1120403456
 2730 05f8 0000DC43 		.word	1138491392
 2731 05fc 00000000 		.word	.LANCHOR3
 2732 0600 9A99593F 		.word	1062836634
 2733 0604 CDCC4C3D 		.word	1028443341
 2734 0608 CDCCCC3D 		.word	1036831949
 2735 060c 3333333F 		.word	1060320051
 2736 0610 00000000 		.word	.LANCHOR8
 2737 0614 00000000 		.word	.LANCHOR9
 2738 0618 00000000 		.word	.LANCHOR10
 2739 061c 54000000 		.word	.LANCHOR9+84
 2740 0620 18000000 		.word	.LANCHOR4+24
 2741 0624 00000000 		.word	_ZL13AudioCallbackPKfPfj
 2742 0628 48000000 		.word	.LC2
 2743 062c 18000000 		.word	.LANCHOR6+24
 2744 0630 00000000 		.word	.LANCHOR11
 2745 0634 00000000 		.word	.LANCHOR12
 2746 0638 7C000000 		.word	.LC3
 2747 063c 8C070000 		.word	.LANCHOR7+1932
 2748 0640 00000000 		.word	.LANCHOR2
 2749 0644 00000000 		.word	.LANCHOR0
 2750              	.LBE967:
 2751              	.LBE977:
 2752              	.LBE978:
 2753              		.cfi_endproc
 2754              	.LFE4849:
 2756              		.section	.text.startup._GLOBAL__sub_I_mpr121ObjConf,"ax",%progbits
 2757              		.align	1
 2758              		.p2align 2,,3
 2759              		.syntax unified
 2760              		.thumb
 2761              		.thumb_func
 2762              		.fpu fpv5-d16
 2764              	_GLOBAL__sub_I_mpr121ObjConf:
 2765              	.LFB5433:
 175:main.cpp      ****     }
 176:main.cpp      **** }...
 2766              		.loc 10 176 1 is_stmt 1 view -0
 2767              		.cfi_startproc
 2768              		@ args = 0, pretend = 0, frame = 0
 2769              		@ frame_needed = 0, uses_anonymous_args = 0
 2770              	.LBB1109:
 2771              	.LBI1109:
 2772              		.loc 10 176 1 view .LVU636
 2773              	.LVL177:
 2774              	.LBB1110:
 2775              	.LBB1111:
 2776              	.LBI1111:
 105:../../libs/libDaisy/src/dev/mpr121.h ****         {
 2777              		.loc 9 105 9 view .LVU637
ARM GAS  C:\Users\skipi\AppData\Local\Temp\cckXvY0f.s 			page 83


 2778              	.LBB1112:
 2779              	.LBB1113:
 2780              	.LBI1113:
  34:../../libs/libDaisy/src/dev/mpr121.h ****         {
 2781              		.loc 9 34 9 view .LVU638
 2782              	.LBB1114:
 2783              	.LBB1115:
 2784              	.LBB1116:
 2785              	.LBI1116:
 2786              		.loc 12 204 15 view .LVU639
 2787              		.loc 12 204 15 is_stmt 0 view .LVU640
 2788              	.LBE1116:
 2789              	.LBB1117:
 2790              	.LBI1117:
 2791              		.loc 12 204 15 is_stmt 1 view .LVU641
 2792              		.loc 12 204 15 is_stmt 0 view .LVU642
 2793              	.LBE1117:
  36:../../libs/libDaisy/src/dev/mpr121.h ****             speed  = I2CHandle::Config::Speed::I2C_400KHZ;
 2794              		.loc 9 36 13 is_stmt 1 view .LVU643
  37:../../libs/libDaisy/src/dev/mpr121.h **** 
 2795              		.loc 9 37 13 view .LVU644
  39:../../libs/libDaisy/src/dev/mpr121.h ****             sda = Pin(PORTB, 9);
 2796              		.loc 9 39 13 view .LVU645
 2797              	.LBB1118:
 2798              	.LBI1118:
 201:../../libs/libDaisy/src/daisy_core.h **** 
 2799              		.loc 12 201 15 view .LVU646
 201:../../libs/libDaisy/src/daisy_core.h **** 
 2800              		.loc 12 201 15 is_stmt 0 view .LVU647
 2801              	.LBE1118:
  40:../../libs/libDaisy/src/dev/mpr121.h **** 
 2802              		.loc 9 40 13 is_stmt 1 view .LVU648
 2803              	.LBB1119:
 2804              	.LBI1119:
 201:../../libs/libDaisy/src/daisy_core.h **** 
 2805              		.loc 12 201 15 view .LVU649
 201:../../libs/libDaisy/src/daisy_core.h **** 
 2806              		.loc 12 201 15 is_stmt 0 view .LVU650
 2807              	.LBE1119:
  42:../../libs/libDaisy/src/dev/mpr121.h ****         }
 2808              		.loc 9 42 13 is_stmt 1 view .LVU651
  42:../../libs/libDaisy/src/dev/mpr121.h ****         }
 2809              		.loc 9 42 13 is_stmt 0 view .LVU652
 2810              	.LBE1115:
 2811              	.LBE1114:
 2812              	.LBE1113:
 2813              	.LBE1112:
 2814              	.LBE1111:
 2815              	.LBE1110:
 2816              	.LBE1109:
 2817              		.loc 10 176 1 view .LVU653
 2818 0000 38B5     		push	{r3, r4, r5, lr}
 2819              		.cfi_def_cfa_offset 16
 2820              		.cfi_offset 3, -16
 2821              		.cfi_offset 4, -12
 2822              		.cfi_offset 5, -8
 2823              		.cfi_offset 14, -4
