ARM GAS  C:\Users\matte\AppData\Local\Temp\ccvehO0v.s 			page 1


   1              		.cpu cortex-m7
   2              		.eabi_attribute 28, 1
   3              		.eabi_attribute 20, 1
   4              		.eabi_attribute 21, 1
   5              		.eabi_attribute 23, 3
   6              		.eabi_attribute 24, 1
   7              		.eabi_attribute 25, 1
   8              		.eabi_attribute 26, 1
   9              		.eabi_attribute 30, 2
  10              		.eabi_attribute 34, 1
  11              		.eabi_attribute 18, 4
  12              		.file	"main.cpp"
  13              		.text
  14              	.Ltext0:
  15              		.cfi_sections	.debug_frame
  16              		.section	.text._ZN5daisy9DaisySeedD2Ev,"axG",%progbits,_ZN5daisy9DaisySeedD5Ev,comdat
  17              		.align	1
  18              		.p2align 2,,3
  19              		.weak	_ZN5daisy9DaisySeedD2Ev
  20              		.arch armv7e-m
  21              		.syntax unified
  22              		.thumb
  23              		.thumb_func
  24              		.fpu fpv5-d16
  26              	_ZN5daisy9DaisySeedD2Ev:
  27              	.LVL0:
  28              	.LFB2646:
  29              		.file 1 "../../libs/libDaisy/src/daisy_seed.h"
   1:../../libs/libDaisy/src/daisy_seed.h **** #pragma once
   2:../../libs/libDaisy/src/daisy_seed.h **** #ifndef DSY_SEED_H
   3:../../libs/libDaisy/src/daisy_seed.h **** #define DSY_SEED_H
   4:../../libs/libDaisy/src/daisy_seed.h **** 
   5:../../libs/libDaisy/src/daisy_seed.h **** #include "daisy.h"
   6:../../libs/libDaisy/src/daisy_seed.h **** 
   7:../../libs/libDaisy/src/daisy_seed.h **** //Uncomment this out if you're still using the rev2 hardware
   8:../../libs/libDaisy/src/daisy_seed.h **** //#define SEED_REV2
   9:../../libs/libDaisy/src/daisy_seed.h **** 
  10:../../libs/libDaisy/src/daisy_seed.h **** namespace daisy
  11:../../libs/libDaisy/src/daisy_seed.h **** {
  12:../../libs/libDaisy/src/daisy_seed.h **** /**
  13:../../libs/libDaisy/src/daisy_seed.h ****    @brief This is the higher-level interface for the Daisy board. \n 
  14:../../libs/libDaisy/src/daisy_seed.h ****     All basic peripheral configuration/initialization is setup here. \n
  15:../../libs/libDaisy/src/daisy_seed.h **** 
  16:../../libs/libDaisy/src/daisy_seed.h ****    @ingroup boards
  17:../../libs/libDaisy/src/daisy_seed.h **** */
  18:../../libs/libDaisy/src/daisy_seed.h **** class DaisySeed
  19:../../libs/libDaisy/src/daisy_seed.h **** {
  20:../../libs/libDaisy/src/daisy_seed.h ****   public:
  21:../../libs/libDaisy/src/daisy_seed.h ****     DaisySeed() {}
  22:../../libs/libDaisy/src/daisy_seed.h ****     ~DaisySeed() {}
  30              		.loc 1 22 5 view -0
  31              		.cfi_startproc
  32              		@ args = 0, pretend = 0, frame = 0
  33              		@ frame_needed = 0, uses_anonymous_args = 0
  34              		@ link register save eliminated.
  35              	.LBB623:
  36              	.LBI623:
ARM GAS  C:\Users\matte\AppData\Local\Temp\ccvehO0v.s 			page 2


  37              		.file 2 "../../libs/libDaisy/src/dev/codec_ak4556.h"
   1:../../libs/libDaisy/src/dev/codec_ak4556.h **** #pragma once
   2:../../libs/libDaisy/src/dev/codec_ak4556.h **** #ifndef DSY_CODEC_AK4556_H
   3:../../libs/libDaisy/src/dev/codec_ak4556.h **** #define DSY_CODEC_AK4556_H
   4:../../libs/libDaisy/src/dev/codec_ak4556.h **** 
   5:../../libs/libDaisy/src/dev/codec_ak4556.h **** #include "daisy_core.h"
   6:../../libs/libDaisy/src/dev/codec_ak4556.h **** #include "per/gpio.h"
   7:../../libs/libDaisy/src/dev/codec_ak4556.h **** 
   8:../../libs/libDaisy/src/dev/codec_ak4556.h **** namespace daisy
   9:../../libs/libDaisy/src/dev/codec_ak4556.h **** {
  10:../../libs/libDaisy/src/dev/codec_ak4556.h **** /** @brief Ak4556 Codec support 
  11:../../libs/libDaisy/src/dev/codec_ak4556.h ****  ** @author shensley
  12:../../libs/libDaisy/src/dev/codec_ak4556.h ****  ** @addtogroup codec
  13:../../libs/libDaisy/src/dev/codec_ak4556.h ****  ** 
  14:../../libs/libDaisy/src/dev/codec_ak4556.h ****  ** I don't see any real reason to have this be more than a function, but in case we want
  15:../../libs/libDaisy/src/dev/codec_ak4556.h ****  ** to add other functions down the road I wrapped the function in a class.
  16:../../libs/libDaisy/src/dev/codec_ak4556.h ****  ***/
  17:../../libs/libDaisy/src/dev/codec_ak4556.h **** class Ak4556
  18:../../libs/libDaisy/src/dev/codec_ak4556.h **** {
  19:../../libs/libDaisy/src/dev/codec_ak4556.h ****   public:
  20:../../libs/libDaisy/src/dev/codec_ak4556.h ****     Ak4556() {}
  21:../../libs/libDaisy/src/dev/codec_ak4556.h ****     ~Ak4556() {}
  38              		.loc 2 21 5 view .LVU1
  39              		.loc 2 21 5 is_stmt 0 view .LVU2
  40              	.LBE623:
  41              	.LBB624:
  42              	.LBI624:
  43              		.file 3 "../../libs/libDaisy/src/sys/system.h"
   1:../../libs/libDaisy/src/sys/system.h **** #ifndef DSY_SYSTEM_H
   2:../../libs/libDaisy/src/sys/system.h **** #define DSY_SYSTEM_H
   3:../../libs/libDaisy/src/sys/system.h **** 
   4:../../libs/libDaisy/src/sys/system.h **** #ifndef UNIT_TEST // for unit tests, a dummy implementation is provided below
   5:../../libs/libDaisy/src/sys/system.h **** 
   6:../../libs/libDaisy/src/sys/system.h **** #include <cstdint>
   7:../../libs/libDaisy/src/sys/system.h **** #include "per/tim.h"
   8:../../libs/libDaisy/src/sys/system.h **** 
   9:../../libs/libDaisy/src/sys/system.h **** namespace daisy
  10:../../libs/libDaisy/src/sys/system.h **** {
  11:../../libs/libDaisy/src/sys/system.h **** /** A handle for interacting with the Core System.
  12:../../libs/libDaisy/src/sys/system.h ****  ** This includes the Clock tree, MPU, global DMA initialization,
  13:../../libs/libDaisy/src/sys/system.h ****  ** cache handling, and any other necessary global initiailzation
  14:../../libs/libDaisy/src/sys/system.h ****  **
  15:../../libs/libDaisy/src/sys/system.h ****  ** @author shensley
  16:../../libs/libDaisy/src/sys/system.h ****  ** @ingroup system
  17:../../libs/libDaisy/src/sys/system.h ****  */
  18:../../libs/libDaisy/src/sys/system.h **** class System
  19:../../libs/libDaisy/src/sys/system.h **** {
  20:../../libs/libDaisy/src/sys/system.h ****   public:
  21:../../libs/libDaisy/src/sys/system.h ****     /** Contains settings for initializing the System */
  22:../../libs/libDaisy/src/sys/system.h ****     struct Config
  23:../../libs/libDaisy/src/sys/system.h ****     {
  24:../../libs/libDaisy/src/sys/system.h ****         /** Specifies the system clock frequency that feeds APB/AHB clocks, etc. */
  25:../../libs/libDaisy/src/sys/system.h ****         enum class SysClkFreq
  26:../../libs/libDaisy/src/sys/system.h ****         {
  27:../../libs/libDaisy/src/sys/system.h ****             FREQ_400MHZ,
  28:../../libs/libDaisy/src/sys/system.h ****             FREQ_480MHZ,
  29:../../libs/libDaisy/src/sys/system.h ****         };
ARM GAS  C:\Users\matte\AppData\Local\Temp\ccvehO0v.s 			page 3


  30:../../libs/libDaisy/src/sys/system.h **** 
  31:../../libs/libDaisy/src/sys/system.h ****         /** Method to call on the struct to set to defaults
  32:../../libs/libDaisy/src/sys/system.h ****          ** CPU Freq set to 400MHz
  33:../../libs/libDaisy/src/sys/system.h ****          ** Cache Enabled
  34:../../libs/libDaisy/src/sys/system.h ****          ** */
  35:../../libs/libDaisy/src/sys/system.h ****         void Defaults()
  36:../../libs/libDaisy/src/sys/system.h ****         {
  37:../../libs/libDaisy/src/sys/system.h ****             cpu_freq    = SysClkFreq::FREQ_400MHZ;
  38:../../libs/libDaisy/src/sys/system.h ****             use_dcache  = true;
  39:../../libs/libDaisy/src/sys/system.h ****             use_icache  = true;
  40:../../libs/libDaisy/src/sys/system.h ****             skip_clocks = false;
  41:../../libs/libDaisy/src/sys/system.h ****         }
  42:../../libs/libDaisy/src/sys/system.h **** 
  43:../../libs/libDaisy/src/sys/system.h ****         /** Method to call on the struct to set to boost mode:
  44:../../libs/libDaisy/src/sys/system.h ****          ** CPU Freq set to 480MHz
  45:../../libs/libDaisy/src/sys/system.h ****          ** Cache Enabled
  46:../../libs/libDaisy/src/sys/system.h ****          ** */
  47:../../libs/libDaisy/src/sys/system.h ****         void Boost()
  48:../../libs/libDaisy/src/sys/system.h ****         {
  49:../../libs/libDaisy/src/sys/system.h ****             cpu_freq    = SysClkFreq::FREQ_480MHZ;
  50:../../libs/libDaisy/src/sys/system.h ****             use_dcache  = true;
  51:../../libs/libDaisy/src/sys/system.h ****             use_icache  = true;
  52:../../libs/libDaisy/src/sys/system.h ****             skip_clocks = false;
  53:../../libs/libDaisy/src/sys/system.h ****         }
  54:../../libs/libDaisy/src/sys/system.h **** 
  55:../../libs/libDaisy/src/sys/system.h ****         SysClkFreq cpu_freq;
  56:../../libs/libDaisy/src/sys/system.h ****         bool       use_dcache;
  57:../../libs/libDaisy/src/sys/system.h ****         bool       use_icache;
  58:../../libs/libDaisy/src/sys/system.h ****         bool       skip_clocks;
  59:../../libs/libDaisy/src/sys/system.h ****     };
  60:../../libs/libDaisy/src/sys/system.h **** 
  61:../../libs/libDaisy/src/sys/system.h ****     /** Describes the different regions of memory available to the Daisy */
  62:../../libs/libDaisy/src/sys/system.h ****     enum MemoryRegion
  63:../../libs/libDaisy/src/sys/system.h ****     {
  64:../../libs/libDaisy/src/sys/system.h ****         INTERNAL_FLASH = 0,
  65:../../libs/libDaisy/src/sys/system.h ****         ITCMRAM,
  66:../../libs/libDaisy/src/sys/system.h ****         DTCMRAM,
  67:../../libs/libDaisy/src/sys/system.h ****         SRAM_D1,
  68:../../libs/libDaisy/src/sys/system.h ****         SRAM_D2,
  69:../../libs/libDaisy/src/sys/system.h ****         SRAM_D3,
  70:../../libs/libDaisy/src/sys/system.h ****         SDRAM,
  71:../../libs/libDaisy/src/sys/system.h ****         QSPI,
  72:../../libs/libDaisy/src/sys/system.h ****         INVALID_ADDRESS,
  73:../../libs/libDaisy/src/sys/system.h ****     };
  74:../../libs/libDaisy/src/sys/system.h **** 
  75:../../libs/libDaisy/src/sys/system.h ****     /** Bootloader struct for controlling bootloading parameters */
  76:../../libs/libDaisy/src/sys/system.h ****     struct BootInfo
  77:../../libs/libDaisy/src/sys/system.h ****     {
  78:../../libs/libDaisy/src/sys/system.h ****         enum class Type : uint32_t
  79:../../libs/libDaisy/src/sys/system.h ****         {
  80:../../libs/libDaisy/src/sys/system.h ****             INVALID      = 0x00000000,
  81:../../libs/libDaisy/src/sys/system.h ****             JUMP         = 0xDEADBEEF,
  82:../../libs/libDaisy/src/sys/system.h ****             SKIP_TIMEOUT = 0x5AFEB007,
  83:../../libs/libDaisy/src/sys/system.h ****             INF_TIMEOUT  = 0xB0074EFA,
  84:../../libs/libDaisy/src/sys/system.h ****         } status;
  85:../../libs/libDaisy/src/sys/system.h ****         uint32_t data;
  86:../../libs/libDaisy/src/sys/system.h ****         enum class Version : uint32_t
ARM GAS  C:\Users\matte\AppData\Local\Temp\ccvehO0v.s 			page 4


  87:../../libs/libDaisy/src/sys/system.h ****         {
  88:../../libs/libDaisy/src/sys/system.h ****             LT_v6_0 = 0, // Less than v6.0
  89:../../libs/libDaisy/src/sys/system.h ****             NONE,        // No bootloader present
  90:../../libs/libDaisy/src/sys/system.h ****             v6_0,        // v6.0
  91:../../libs/libDaisy/src/sys/system.h ****             v6_1,        // v6.1 or greater
  92:../../libs/libDaisy/src/sys/system.h ****             LAST
  93:../../libs/libDaisy/src/sys/system.h ****         } version;
  94:../../libs/libDaisy/src/sys/system.h ****     };
  95:../../libs/libDaisy/src/sys/system.h **** 
  96:../../libs/libDaisy/src/sys/system.h ****     System() {}
  97:../../libs/libDaisy/src/sys/system.h ****     ~System() {}
  44              		.loc 3 97 5 is_stmt 1 view .LVU3
  45              		.loc 3 97 5 is_stmt 0 view .LVU4
  46              	.LBE624:
  47              	.LBB625:
  48              	.LBI625:
  49              		.file 4 "../../libs/libDaisy/src/hid/usb.h"
   1:../../libs/libDaisy/src/hid/usb.h **** #pragma once
   2:../../libs/libDaisy/src/hid/usb.h **** #ifndef DSY_HID_USB_H
   3:../../libs/libDaisy/src/hid/usb.h **** #define DSY_HID_USB_H
   4:../../libs/libDaisy/src/hid/usb.h **** #include <stdint.h>
   5:../../libs/libDaisy/src/hid/usb.h **** #include <stdlib.h>
   6:../../libs/libDaisy/src/hid/usb.h **** 
   7:../../libs/libDaisy/src/hid/usb.h **** namespace daisy
   8:../../libs/libDaisy/src/hid/usb.h **** /** @addtogroup human_interface
   9:../../libs/libDaisy/src/hid/usb.h ****     @{
  10:../../libs/libDaisy/src/hid/usb.h **** */
  11:../../libs/libDaisy/src/hid/usb.h **** 
  12:../../libs/libDaisy/src/hid/usb.h **** {
  13:../../libs/libDaisy/src/hid/usb.h **** /** 
  14:../../libs/libDaisy/src/hid/usb.h ****     @brief Interface for initializing and using the USB Peripherals on the daisy
  15:../../libs/libDaisy/src/hid/usb.h ****     @author Stephen Hensley
  16:../../libs/libDaisy/src/hid/usb.h ****     @date December 2019
  17:../../libs/libDaisy/src/hid/usb.h **** */
  18:../../libs/libDaisy/src/hid/usb.h **** class UsbHandle
  19:../../libs/libDaisy/src/hid/usb.h **** {
  20:../../libs/libDaisy/src/hid/usb.h ****   public:
  21:../../libs/libDaisy/src/hid/usb.h ****     /** Return values for USBHandle Functions */
  22:../../libs/libDaisy/src/hid/usb.h ****     enum class Result
  23:../../libs/libDaisy/src/hid/usb.h ****     {
  24:../../libs/libDaisy/src/hid/usb.h ****         OK,
  25:../../libs/libDaisy/src/hid/usb.h ****         ERR,
  26:../../libs/libDaisy/src/hid/usb.h ****     };
  27:../../libs/libDaisy/src/hid/usb.h **** 
  28:../../libs/libDaisy/src/hid/usb.h ****     /** Specified which of the two USB Peripherals to initialize. */
  29:../../libs/libDaisy/src/hid/usb.h ****     enum UsbPeriph
  30:../../libs/libDaisy/src/hid/usb.h ****     {
  31:../../libs/libDaisy/src/hid/usb.h ****         FS_INTERNAL, /**< Internal pin */
  32:../../libs/libDaisy/src/hid/usb.h ****         FS_EXTERNAL, /**< FS External D+ pin is Pin 38 (GPIO32). FS External D- pin is Pin 37 (GPIO
  33:../../libs/libDaisy/src/hid/usb.h ****         FS_BOTH,     /**< Both */
  34:../../libs/libDaisy/src/hid/usb.h ****     };
  35:../../libs/libDaisy/src/hid/usb.h **** 
  36:../../libs/libDaisy/src/hid/usb.h **** 
  37:../../libs/libDaisy/src/hid/usb.h ****     /** Function called upon reception of a buffer */
  38:../../libs/libDaisy/src/hid/usb.h ****     typedef void (*ReceiveCallback)(uint8_t* buff, uint32_t* len);
  39:../../libs/libDaisy/src/hid/usb.h **** 
  40:../../libs/libDaisy/src/hid/usb.h ****     UsbHandle() {}
ARM GAS  C:\Users\matte\AppData\Local\Temp\ccvehO0v.s 			page 5


  41:../../libs/libDaisy/src/hid/usb.h **** 
  42:../../libs/libDaisy/src/hid/usb.h ****     ~UsbHandle() {}
  50              		.loc 4 42 5 is_stmt 1 view .LVU5
  51              		.loc 4 42 5 is_stmt 0 view .LVU6
  52              	.LBE625:
  53              	.LBB626:
  54              	.LBI626:
  55              		.file 5 "../../libs/libDaisy/src/per/adc.h"
   1:../../libs/libDaisy/src/per/adc.h **** #pragma once
   2:../../libs/libDaisy/src/per/adc.h **** #ifndef DSY_ADC_H
   3:../../libs/libDaisy/src/per/adc.h **** #define DSY_ADC_H /**< Macro */
   4:../../libs/libDaisy/src/per/adc.h **** #include <stdint.h>
   5:../../libs/libDaisy/src/per/adc.h **** #include <stdlib.h>
   6:../../libs/libDaisy/src/per/adc.h **** #include "daisy_core.h"
   7:../../libs/libDaisy/src/per/adc.h **** #include "per/gpio.h"
   8:../../libs/libDaisy/src/per/adc.h **** 
   9:../../libs/libDaisy/src/per/adc.h **** #define DSY_ADC_MAX_CHANNELS 16 /**< Maximum number of ADC channels */
  10:../../libs/libDaisy/src/per/adc.h **** 
  11:../../libs/libDaisy/src/per/adc.h **** namespace daisy
  12:../../libs/libDaisy/src/per/adc.h **** {
  13:../../libs/libDaisy/src/per/adc.h **** /** @addtogroup per_analog
  14:../../libs/libDaisy/src/per/adc.h ****     @{
  15:../../libs/libDaisy/src/per/adc.h **** */
  16:../../libs/libDaisy/src/per/adc.h **** 
  17:../../libs/libDaisy/src/per/adc.h **** /* While there may not be many configuration options here,
  18:../../libs/libDaisy/src/per/adc.h **** using a struct like this allows us to add more configuration
  19:../../libs/libDaisy/src/per/adc.h **** later without breaking existing functionality.
  20:../../libs/libDaisy/src/per/adc.h **** */
  21:../../libs/libDaisy/src/per/adc.h **** 
  22:../../libs/libDaisy/src/per/adc.h **** /** @brief   Configuration Structure for an ADC Channel 
  23:../../libs/libDaisy/src/per/adc.h ****  *  @details This can be used to configure a a single input, 
  24:../../libs/libDaisy/src/per/adc.h ****  *           or a multiplexed input, allowing up to 8 inputs on 
  25:../../libs/libDaisy/src/per/adc.h ****  *           one channel.
  26:../../libs/libDaisy/src/per/adc.h ****  *  @note    Sharing data lines to multiple muxes _is_ possible, but
  27:../../libs/libDaisy/src/per/adc.h ****  *           each channel sharing data lines must be set to the maximum
  28:../../libs/libDaisy/src/per/adc.h ****  *           number of channels, even if some multiplexers have fewer
  29:../../libs/libDaisy/src/per/adc.h ****  *           inputs connected.
  30:../../libs/libDaisy/src/per/adc.h **** */
  31:../../libs/libDaisy/src/per/adc.h **** struct AdcChannelConfig
  32:../../libs/libDaisy/src/per/adc.h **** {
  33:../../libs/libDaisy/src/per/adc.h ****     /** Which pin to use for multiplexing */
  34:../../libs/libDaisy/src/per/adc.h ****     enum MuxPin
  35:../../libs/libDaisy/src/per/adc.h ****     {
  36:../../libs/libDaisy/src/per/adc.h ****         MUX_SEL_0,    /**< & */
  37:../../libs/libDaisy/src/per/adc.h ****         MUX_SEL_1,    /**< & */
  38:../../libs/libDaisy/src/per/adc.h ****         MUX_SEL_2,    /**< & */
  39:../../libs/libDaisy/src/per/adc.h ****         MUX_SEL_LAST, /**< & */
  40:../../libs/libDaisy/src/per/adc.h ****     };
  41:../../libs/libDaisy/src/per/adc.h **** 
  42:../../libs/libDaisy/src/per/adc.h ****     /** \brief per channel conversion speed added to fixed time based on bitdepth, etc. */
  43:../../libs/libDaisy/src/per/adc.h ****     enum ConversionSpeed
  44:../../libs/libDaisy/src/per/adc.h ****     {
  45:../../libs/libDaisy/src/per/adc.h ****         SPEED_1CYCLES_5,
  46:../../libs/libDaisy/src/per/adc.h ****         SPEED_2CYCLES_5,
  47:../../libs/libDaisy/src/per/adc.h ****         SPEED_8CYCLES_5,
  48:../../libs/libDaisy/src/per/adc.h ****         SPEED_16CYCLES_5,
  49:../../libs/libDaisy/src/per/adc.h ****         SPEED_32CYCLES_5,
ARM GAS  C:\Users\matte\AppData\Local\Temp\ccvehO0v.s 			page 6


  50:../../libs/libDaisy/src/per/adc.h ****         SPEED_64CYCLES_5,
  51:../../libs/libDaisy/src/per/adc.h ****         SPEED_387CYCLES_5,
  52:../../libs/libDaisy/src/per/adc.h ****         SPEED_810CYCLES_5,
  53:../../libs/libDaisy/src/per/adc.h ****     };
  54:../../libs/libDaisy/src/per/adc.h **** 
  55:../../libs/libDaisy/src/per/adc.h ****     /** Initializes a single ADC pin as an ADC. 
  56:../../libs/libDaisy/src/per/adc.h ****     \param pin Pin to init.
  57:../../libs/libDaisy/src/per/adc.h ****     \param speed conversion speed for this pin defaults to 8.5 cycles
  58:../../libs/libDaisy/src/per/adc.h ****      */
  59:../../libs/libDaisy/src/per/adc.h ****     void InitSingle(Pin pin, ConversionSpeed speed = SPEED_8CYCLES_5);
  60:../../libs/libDaisy/src/per/adc.h **** 
  61:../../libs/libDaisy/src/per/adc.h ****     /** 
  62:../../libs/libDaisy/src/per/adc.h ****     Initializes a single ADC pin as a Multiplexed ADC.
  63:../../libs/libDaisy/src/per/adc.h ****     Requires a CD405X Multiplexer connected to the pin.
  64:../../libs/libDaisy/src/per/adc.h ****     You only need to supply the mux pins that are required,
  65:../../libs/libDaisy/src/per/adc.h ****     e.g. a 4052 mux would only require mux_0 and mux_1.
  66:../../libs/libDaisy/src/per/adc.h ****     Internal Callbacks handle the pin addressing.
  67:../../libs/libDaisy/src/per/adc.h ****     \param adc_pin &
  68:../../libs/libDaisy/src/per/adc.h ****     \param mux_channels must be 1-8
  69:../../libs/libDaisy/src/per/adc.h ****     \param mux_0 First mux pin
  70:../../libs/libDaisy/src/per/adc.h ****     \param mux_1 Second mux pin
  71:../../libs/libDaisy/src/per/adc.h ****     \param mux_2 Third mux pin
  72:../../libs/libDaisy/src/per/adc.h ****     \param speed conversion speed for this pin defaults to 8.5 cycles
  73:../../libs/libDaisy/src/per/adc.h ****     */
  74:../../libs/libDaisy/src/per/adc.h ****     void InitMux(Pin             adc_pin,
  75:../../libs/libDaisy/src/per/adc.h ****                  size_t          mux_channels,
  76:../../libs/libDaisy/src/per/adc.h ****                  Pin             mux_0,
  77:../../libs/libDaisy/src/per/adc.h ****                  Pin             mux_1 = Pin(PORTX, 0),
  78:../../libs/libDaisy/src/per/adc.h ****                  Pin             mux_2 = Pin(PORTX, 0),
  79:../../libs/libDaisy/src/per/adc.h ****                  ConversionSpeed speed = SPEED_8CYCLES_5);
  80:../../libs/libDaisy/src/per/adc.h **** 
  81:../../libs/libDaisy/src/per/adc.h ****     GPIO            pin_;                   /**< & */
  82:../../libs/libDaisy/src/per/adc.h ****     GPIO            mux_pin_[MUX_SEL_LAST]; /**< & */
  83:../../libs/libDaisy/src/per/adc.h ****     uint8_t         mux_channels_;          /**< & */
  84:../../libs/libDaisy/src/per/adc.h ****     ConversionSpeed speed_;
  85:../../libs/libDaisy/src/per/adc.h **** };
  86:../../libs/libDaisy/src/per/adc.h **** 
  87:../../libs/libDaisy/src/per/adc.h **** /**
  88:../../libs/libDaisy/src/per/adc.h ****    @brief Handler for analog to digital conversion
  89:../../libs/libDaisy/src/per/adc.h **** */
  90:../../libs/libDaisy/src/per/adc.h **** class AdcHandle
  91:../../libs/libDaisy/src/per/adc.h **** {
  92:../../libs/libDaisy/src/per/adc.h ****   public:
  93:../../libs/libDaisy/src/per/adc.h ****     /** Supported oversampling amounts */
  94:../../libs/libDaisy/src/per/adc.h ****     enum OverSampling
  95:../../libs/libDaisy/src/per/adc.h ****     {
  96:../../libs/libDaisy/src/per/adc.h ****         OVS_NONE, /**< & */
  97:../../libs/libDaisy/src/per/adc.h ****         OVS_4,    /**< & */
  98:../../libs/libDaisy/src/per/adc.h ****         OVS_8,    /**< & */
  99:../../libs/libDaisy/src/per/adc.h ****         OVS_16,   /**< & */
 100:../../libs/libDaisy/src/per/adc.h ****         OVS_32,   /**< & */
 101:../../libs/libDaisy/src/per/adc.h ****         OVS_64,   /**< & */
 102:../../libs/libDaisy/src/per/adc.h ****         OVS_128,  /**< & */
 103:../../libs/libDaisy/src/per/adc.h ****         OVS_256,  /**< & */
 104:../../libs/libDaisy/src/per/adc.h ****         OVS_512,  /**< & */
 105:../../libs/libDaisy/src/per/adc.h ****         OVS_1024, /**< & */
 106:../../libs/libDaisy/src/per/adc.h ****         OVS_LAST, /**< & */
ARM GAS  C:\Users\matte\AppData\Local\Temp\ccvehO0v.s 			page 7


 107:../../libs/libDaisy/src/per/adc.h ****     };
 108:../../libs/libDaisy/src/per/adc.h **** 
 109:../../libs/libDaisy/src/per/adc.h ****     AdcHandle() {}
 110:../../libs/libDaisy/src/per/adc.h ****     ~AdcHandle() {}
  56              		.loc 5 110 5 is_stmt 1 view .LVU7
  57              		.loc 5 110 5 is_stmt 0 view .LVU8
  58              	.LBE626:
  59              	.LBB627:
  60              	.LBI627:
  61              		.file 6 "../../libs/libDaisy/src/hid/audio.h"
   1:../../libs/libDaisy/src/hid/audio.h **** #ifndef DSY_AUDIO_H
   2:../../libs/libDaisy/src/hid/audio.h **** #define DSY_AUDIO_H /**< & */
   3:../../libs/libDaisy/src/hid/audio.h **** 
   4:../../libs/libDaisy/src/hid/audio.h **** #include "per/sai.h"
   5:../../libs/libDaisy/src/hid/audio.h **** 
   6:../../libs/libDaisy/src/hid/audio.h **** namespace daisy
   7:../../libs/libDaisy/src/hid/audio.h **** {
   8:../../libs/libDaisy/src/hid/audio.h **** /** @brief Audio Engine Handle
   9:../../libs/libDaisy/src/hid/audio.h ****  *  @ingroup audio 
  10:../../libs/libDaisy/src/hid/audio.h ****  *  @details This class allows for higher level access to an audio engine.
  11:../../libs/libDaisy/src/hid/audio.h ****  *           If you're using a SOM like the DaisySeed or DaisyPatchSM (or any 
  12:../../libs/libDaisy/src/hid/audio.h ****  *            board that includes one of those objects) then the intialization
  13:../../libs/libDaisy/src/hid/audio.h ****  *            is already taken  care of.
  14:../../libs/libDaisy/src/hid/audio.h ****  *           If you're setting up your own custom hardware, or need to make changes
  15:../../libs/libDaisy/src/hid/audio.h ****  *           you will have to take the following steps:
  16:../../libs/libDaisy/src/hid/audio.h ****  *             1. Create and Initialize an SaiHandle or two depending on your requirements
  17:../../libs/libDaisy/src/hid/audio.h ****  *             2. Initialize the Audio Handle with the desired settings and the Initialized SaiHand
  18:../../libs/libDaisy/src/hid/audio.h ****  *             3. If the connected codec requires special configuration or initialization, do so
  19:../../libs/libDaisy/src/hid/audio.h ****  *             4. Write a callback method using either the AudioCallback or the InterleavingAudioCa
  20:../../libs/libDaisy/src/hid/audio.h ****  *             5. Start the Audio using one of the StartAudio function
  21:../../libs/libDaisy/src/hid/audio.h ****  */
  22:../../libs/libDaisy/src/hid/audio.h **** class AudioHandle
  23:../../libs/libDaisy/src/hid/audio.h **** {
  24:../../libs/libDaisy/src/hid/audio.h ****   public:
  25:../../libs/libDaisy/src/hid/audio.h ****     /** Manually configurable details about the Audio Engine */
  26:../../libs/libDaisy/src/hid/audio.h ****     /** TODO: Figure out how to get samplerate in here. */
  27:../../libs/libDaisy/src/hid/audio.h ****     struct Config
  28:../../libs/libDaisy/src/hid/audio.h ****     {
  29:../../libs/libDaisy/src/hid/audio.h ****         /** number of samples to process per callback */
  30:../../libs/libDaisy/src/hid/audio.h ****         size_t blocksize = 48;
  31:../../libs/libDaisy/src/hid/audio.h **** 
  32:../../libs/libDaisy/src/hid/audio.h ****         /**< Sample rate of audio */
  33:../../libs/libDaisy/src/hid/audio.h ****         SaiHandle::Config::SampleRate samplerate
  34:../../libs/libDaisy/src/hid/audio.h ****             = SaiHandle::Config::SampleRate::SAI_48KHZ;
  35:../../libs/libDaisy/src/hid/audio.h **** 
  36:../../libs/libDaisy/src/hid/audio.h ****         /** factor for adjustment before and after callback for hardware that may have extra headro
  37:../../libs/libDaisy/src/hid/audio.h ****         float postgain = 1.f;
  38:../../libs/libDaisy/src/hid/audio.h **** 
  39:../../libs/libDaisy/src/hid/audio.h ****         /** factor for additional one-sided compensation to audio path for hardware that may
  40:../../libs/libDaisy/src/hid/audio.h ****          *  have unequal input/output ranges
  41:../../libs/libDaisy/src/hid/audio.h ****          */
  42:../../libs/libDaisy/src/hid/audio.h ****         float output_compensation = 1.f;
  43:../../libs/libDaisy/src/hid/audio.h ****     };
  44:../../libs/libDaisy/src/hid/audio.h **** 
  45:../../libs/libDaisy/src/hid/audio.h ****     enum class Result
  46:../../libs/libDaisy/src/hid/audio.h ****     {
  47:../../libs/libDaisy/src/hid/audio.h ****         OK,
ARM GAS  C:\Users\matte\AppData\Local\Temp\ccvehO0v.s 			page 8


  48:../../libs/libDaisy/src/hid/audio.h ****         ERR,
  49:../../libs/libDaisy/src/hid/audio.h ****     };
  50:../../libs/libDaisy/src/hid/audio.h **** 
  51:../../libs/libDaisy/src/hid/audio.h ****     /** Non-Interleaving input buffer
  52:../../libs/libDaisy/src/hid/audio.h ****      * Buffer arranged by float[chn][sample] 
  53:../../libs/libDaisy/src/hid/audio.h ****      * const so that the user can't modify the input
  54:../../libs/libDaisy/src/hid/audio.h ****      */
  55:../../libs/libDaisy/src/hid/audio.h ****     typedef const float* const* InputBuffer;
  56:../../libs/libDaisy/src/hid/audio.h **** 
  57:../../libs/libDaisy/src/hid/audio.h ****     /** Non-Interleaving output buffer
  58:../../libs/libDaisy/src/hid/audio.h ****      * Arranged by float[chn][sample] 
  59:../../libs/libDaisy/src/hid/audio.h ****      */
  60:../../libs/libDaisy/src/hid/audio.h ****     typedef float** OutputBuffer;
  61:../../libs/libDaisy/src/hid/audio.h **** 
  62:../../libs/libDaisy/src/hid/audio.h ****     /** Type for a Non-Interleaving audio callback 
  63:../../libs/libDaisy/src/hid/audio.h ****      * Non-Interleaving audio callbacks in daisy will be of this type
  64:../../libs/libDaisy/src/hid/audio.h ****      */
  65:../../libs/libDaisy/src/hid/audio.h ****     typedef void (*AudioCallback)(InputBuffer  in,
  66:../../libs/libDaisy/src/hid/audio.h ****                                   OutputBuffer out,
  67:../../libs/libDaisy/src/hid/audio.h ****                                   size_t       size);
  68:../../libs/libDaisy/src/hid/audio.h **** 
  69:../../libs/libDaisy/src/hid/audio.h ****     /** Interleaving Input buffer
  70:../../libs/libDaisy/src/hid/audio.h ****      ** audio is prepared as { L0, R0, L1, R1, . . . LN, RN }]
  71:../../libs/libDaisy/src/hid/audio.h ****      ** this is const, as the user shouldn't modify it
  72:../../libs/libDaisy/src/hid/audio.h ****     */
  73:../../libs/libDaisy/src/hid/audio.h ****     typedef const float* InterleavingInputBuffer;
  74:../../libs/libDaisy/src/hid/audio.h **** 
  75:../../libs/libDaisy/src/hid/audio.h ****     /** Interleaving Output buffer 
  76:../../libs/libDaisy/src/hid/audio.h ****      ** audio is prepared as { L0, R0, L1, R1, . . . LN, RN }
  77:../../libs/libDaisy/src/hid/audio.h ****     */
  78:../../libs/libDaisy/src/hid/audio.h ****     typedef float* InterleavingOutputBuffer;
  79:../../libs/libDaisy/src/hid/audio.h **** 
  80:../../libs/libDaisy/src/hid/audio.h ****     /** Interleaving Audio Callback 
  81:../../libs/libDaisy/src/hid/audio.h ****      * Interleaving audio callbacks in daisy must be of this type
  82:../../libs/libDaisy/src/hid/audio.h ****      */
  83:../../libs/libDaisy/src/hid/audio.h ****     typedef void (*InterleavingAudioCallback)(InterleavingInputBuffer  in,
  84:../../libs/libDaisy/src/hid/audio.h ****                                               InterleavingOutputBuffer out,
  85:../../libs/libDaisy/src/hid/audio.h ****                                               size_t                   size);
  86:../../libs/libDaisy/src/hid/audio.h **** 
  87:../../libs/libDaisy/src/hid/audio.h ****     AudioHandle() : pimpl_(nullptr) {}
  88:../../libs/libDaisy/src/hid/audio.h ****     ~AudioHandle() {}
  62              		.loc 6 88 5 is_stmt 1 view .LVU9
  63              		.loc 6 88 5 is_stmt 0 view .LVU10
  64              	.LBE627:
  65              		.loc 1 22 19 view .LVU11
  66 0000 7047     		bx	lr
  67              		.cfi_endproc
  68              	.LFE2646:
  70              		.weak	_ZN5daisy9DaisySeedD1Ev
  71              		.thumb_set _ZN5daisy9DaisySeedD1Ev,_ZN5daisy9DaisySeedD2Ev
  72 0002 00BF     		.section	.text._ZN7daisysp4AdsrD2Ev,"axG",%progbits,_ZN7daisysp4AdsrD5Ev,comdat
  73              		.align	1
  74              		.p2align 2,,3
  75              		.weak	_ZN7daisysp4AdsrD2Ev
  76              		.syntax unified
  77              		.thumb
  78              		.thumb_func
ARM GAS  C:\Users\matte\AppData\Local\Temp\ccvehO0v.s 			page 9


  79              		.fpu fpv5-d16
  81              	_ZN7daisysp4AdsrD2Ev:
  82              	.LVL1:
  83              	.LFB2669:
  84              		.file 7 "../../libs/DaisySP/Source/Control/adsr.h"
   1:../../libs/DaisySP/Source/Control/adsr.h **** /*
   2:../../libs/DaisySP/Source/Control/adsr.h **** Copyright (c) 2020 Electrosmith, Corp, Paul Batchelor
   3:../../libs/DaisySP/Source/Control/adsr.h **** 
   4:../../libs/DaisySP/Source/Control/adsr.h **** Use of this source code is governed by an MIT-style
   5:../../libs/DaisySP/Source/Control/adsr.h **** license that can be found in the LICENSE file or at
   6:../../libs/DaisySP/Source/Control/adsr.h **** https://opensource.org/licenses/MIT.
   7:../../libs/DaisySP/Source/Control/adsr.h **** */
   8:../../libs/DaisySP/Source/Control/adsr.h **** 
   9:../../libs/DaisySP/Source/Control/adsr.h **** #pragma once
  10:../../libs/DaisySP/Source/Control/adsr.h **** #ifndef DSY_ADSR_H
  11:../../libs/DaisySP/Source/Control/adsr.h **** #define DSY_ADSR_H
  12:../../libs/DaisySP/Source/Control/adsr.h **** 
  13:../../libs/DaisySP/Source/Control/adsr.h **** #include <stdint.h>
  14:../../libs/DaisySP/Source/Control/adsr.h **** #ifdef __cplusplus
  15:../../libs/DaisySP/Source/Control/adsr.h **** 
  16:../../libs/DaisySP/Source/Control/adsr.h **** namespace daisysp
  17:../../libs/DaisySP/Source/Control/adsr.h **** {
  18:../../libs/DaisySP/Source/Control/adsr.h **** /** Distinct stages that the phase of the envelope can be located in.
  19:../../libs/DaisySP/Source/Control/adsr.h **** - IDLE   = located at phase location 0, and not currently running
  20:../../libs/DaisySP/Source/Control/adsr.h **** - ATTACK  = First segment of envelope where phase moves from 0 to 1
  21:../../libs/DaisySP/Source/Control/adsr.h **** - DECAY   = Second segment of envelope where phase moves from 1 to SUSTAIN value
  22:../../libs/DaisySP/Source/Control/adsr.h **** - RELEASE =     Fourth segment of envelop where phase moves from SUSTAIN to 0
  23:../../libs/DaisySP/Source/Control/adsr.h **** */
  24:../../libs/DaisySP/Source/Control/adsr.h **** enum
  25:../../libs/DaisySP/Source/Control/adsr.h **** {
  26:../../libs/DaisySP/Source/Control/adsr.h ****     ADSR_SEG_IDLE    = 0,
  27:../../libs/DaisySP/Source/Control/adsr.h ****     ADSR_SEG_ATTACK  = 1,
  28:../../libs/DaisySP/Source/Control/adsr.h ****     ADSR_SEG_DECAY   = 2,
  29:../../libs/DaisySP/Source/Control/adsr.h ****     ADSR_SEG_RELEASE = 4
  30:../../libs/DaisySP/Source/Control/adsr.h **** };
  31:../../libs/DaisySP/Source/Control/adsr.h **** 
  32:../../libs/DaisySP/Source/Control/adsr.h **** 
  33:../../libs/DaisySP/Source/Control/adsr.h **** /** adsr envelope module
  34:../../libs/DaisySP/Source/Control/adsr.h **** 
  35:../../libs/DaisySP/Source/Control/adsr.h **** Original author(s) : Paul Batchelor
  36:../../libs/DaisySP/Source/Control/adsr.h **** 
  37:../../libs/DaisySP/Source/Control/adsr.h **** Ported from Soundpipe by Ben Sergentanis, May 2020
  38:../../libs/DaisySP/Source/Control/adsr.h ****  
  39:../../libs/DaisySP/Source/Control/adsr.h **** Remake by Steffan DIedrichsen, May 2021
  40:../../libs/DaisySP/Source/Control/adsr.h **** */
  41:../../libs/DaisySP/Source/Control/adsr.h **** class Adsr
  42:../../libs/DaisySP/Source/Control/adsr.h **** {
  43:../../libs/DaisySP/Source/Control/adsr.h ****   public:
  44:../../libs/DaisySP/Source/Control/adsr.h ****     Adsr() {}
  45:../../libs/DaisySP/Source/Control/adsr.h ****     ~Adsr() {}
  85              		.loc 7 45 5 is_stmt 1 view -0
  86              		.cfi_startproc
  87              		@ args = 0, pretend = 0, frame = 0
  88              		@ frame_needed = 0, uses_anonymous_args = 0
  89              		@ link register save eliminated.
  90              		.loc 7 45 14 is_stmt 0 view .LVU13
  91 0000 7047     		bx	lr
ARM GAS  C:\Users\matte\AppData\Local\Temp\ccvehO0v.s 			page 10


  92              		.cfi_endproc
  93              	.LFE2669:
  95              		.weak	_ZN7daisysp4AdsrD1Ev
  96              		.thumb_set _ZN7daisysp4AdsrD1Ev,_ZN7daisysp4AdsrD2Ev
  97              		.section	.text._ZN7daisysp10OscillatorD2Ev,"axG",%progbits,_ZN7daisysp10OscillatorD5Ev,comdat
  98              		.align	1
  99              		.p2align 2,,3
 100              		.weak	_ZN7daisysp10OscillatorD2Ev
 101              		.syntax unified
 102              		.thumb
 103              		.thumb_func
 104              		.fpu fpv5-d16
 106              	_ZN7daisysp10OscillatorD2Ev:
 107              	.LVL2:
 108              	.LFB4331:
 109              		.file 8 "../../libs/DaisySP/Source/Synthesis/oscillator.h"
   1:../../libs/DaisySP/Source/Synthesis/oscillator.h **** /*
   2:../../libs/DaisySP/Source/Synthesis/oscillator.h **** Copyright (c) 2020 Electrosmith, Corp
   3:../../libs/DaisySP/Source/Synthesis/oscillator.h **** 
   4:../../libs/DaisySP/Source/Synthesis/oscillator.h **** Use of this source code is governed by an MIT-style
   5:../../libs/DaisySP/Source/Synthesis/oscillator.h **** license that can be found in the LICENSE file or at
   6:../../libs/DaisySP/Source/Synthesis/oscillator.h **** https://opensource.org/licenses/MIT.
   7:../../libs/DaisySP/Source/Synthesis/oscillator.h **** */
   8:../../libs/DaisySP/Source/Synthesis/oscillator.h **** 
   9:../../libs/DaisySP/Source/Synthesis/oscillator.h **** #pragma once
  10:../../libs/DaisySP/Source/Synthesis/oscillator.h **** #ifndef DSY_OSCILLATOR_H
  11:../../libs/DaisySP/Source/Synthesis/oscillator.h **** #define DSY_OSCILLATOR_H
  12:../../libs/DaisySP/Source/Synthesis/oscillator.h **** #include <stdint.h>
  13:../../libs/DaisySP/Source/Synthesis/oscillator.h **** #include "Utility/dsp.h"
  14:../../libs/DaisySP/Source/Synthesis/oscillator.h **** #ifdef __cplusplus
  15:../../libs/DaisySP/Source/Synthesis/oscillator.h **** 
  16:../../libs/DaisySP/Source/Synthesis/oscillator.h **** namespace daisysp
  17:../../libs/DaisySP/Source/Synthesis/oscillator.h **** {
  18:../../libs/DaisySP/Source/Synthesis/oscillator.h **** /** Synthesis of several waveforms, including polyBLEP bandlimited waveforms.
  19:../../libs/DaisySP/Source/Synthesis/oscillator.h **** */
  20:../../libs/DaisySP/Source/Synthesis/oscillator.h **** class Oscillator
  21:../../libs/DaisySP/Source/Synthesis/oscillator.h **** {
  22:../../libs/DaisySP/Source/Synthesis/oscillator.h ****   public:
  23:../../libs/DaisySP/Source/Synthesis/oscillator.h ****     Oscillator() {}
  24:../../libs/DaisySP/Source/Synthesis/oscillator.h ****     ~Oscillator() {}
 110              		.loc 8 24 5 is_stmt 1 view -0
 111              		.cfi_startproc
 112              		@ args = 0, pretend = 0, frame = 0
 113              		@ frame_needed = 0, uses_anonymous_args = 0
 114              		@ link register save eliminated.
 115              		.loc 8 24 20 is_stmt 0 view .LVU15
 116 0000 7047     		bx	lr
 117              		.cfi_endproc
 118              	.LFE4331:
 120              		.weak	_ZN7daisysp10OscillatorD1Ev
 121              		.thumb_set _ZN7daisysp10OscillatorD1Ev,_ZN7daisysp10OscillatorD2Ev
 122              		.section	.text._ZN5daisy11OledDisplayINS_13SSD130xDriverILj128ELj64ENS_19SSD130xI2CTransportEEEED2
 123              		.align	1
 124              		.p2align 2,,3
 125              		.weak	_ZN5daisy11OledDisplayINS_13SSD130xDriverILj128ELj64ENS_19SSD130xI2CTransportEEEED2Ev
 126              		.syntax unified
 127              		.thumb
ARM GAS  C:\Users\matte\AppData\Local\Temp\ccvehO0v.s 			page 11


 128              		.thumb_func
 129              		.fpu fpv5-d16
 131              	_ZN5daisy11OledDisplayINS_13SSD130xDriverILj128ELj64ENS_19SSD130xI2CTransportEEEED2Ev:
 132              	.LVL3:
 133              	.LFB5468:
 134              		.file 9 "../../libs/libDaisy/src/hid/disp/oled_display.h"
   1:../../libs/libDaisy/src/hid/disp/oled_display.h **** #pragma once
   2:../../libs/libDaisy/src/hid/disp/oled_display.h **** #ifndef DSY_OLED_DISPLAY_H
   3:../../libs/libDaisy/src/hid/disp/oled_display.h **** #define DSY_OLED_DISPLAY_H /**< Macro */
   4:../../libs/libDaisy/src/hid/disp/oled_display.h **** 
   5:../../libs/libDaisy/src/hid/disp/oled_display.h **** #include "display.h"
   6:../../libs/libDaisy/src/hid/disp/oled_display.h **** 
   7:../../libs/libDaisy/src/hid/disp/oled_display.h **** namespace daisy
   8:../../libs/libDaisy/src/hid/disp/oled_display.h **** {
   9:../../libs/libDaisy/src/hid/disp/oled_display.h **** /** 
  10:../../libs/libDaisy/src/hid/disp/oled_display.h ****  * This class is for drawing to a monochrome OLED display. 
  11:../../libs/libDaisy/src/hid/disp/oled_display.h ****  * @ingroup device
  12:../../libs/libDaisy/src/hid/disp/oled_display.h **** */
  13:../../libs/libDaisy/src/hid/disp/oled_display.h **** template <typename DisplayDriver>
  14:../../libs/libDaisy/src/hid/disp/oled_display.h **** class OledDisplay : public OneBitGraphicsDisplayImpl<OledDisplay<DisplayDriver>>
  15:../../libs/libDaisy/src/hid/disp/oled_display.h **** {
  16:../../libs/libDaisy/src/hid/disp/oled_display.h ****   public:
  17:../../libs/libDaisy/src/hid/disp/oled_display.h ****     OledDisplay() {}
  18:../../libs/libDaisy/src/hid/disp/oled_display.h ****     virtual ~OledDisplay() {}
 135              		.loc 9 18 13 is_stmt 1 view -0
 136              		.cfi_startproc
 137              		@ args = 0, pretend = 0, frame = 0
 138              		@ frame_needed = 0, uses_anonymous_args = 0
 139              		@ link register save eliminated.
 140              	.LBB628:
 141              	.LBI628:
 142              		.file 10 "../../libs/libDaisy/src/hid/disp/display.h"
   1:../../libs/libDaisy/src/hid/disp/display.h **** #pragma once
   2:../../libs/libDaisy/src/hid/disp/display.h **** #ifndef DSY_DISPLAY_H
   3:../../libs/libDaisy/src/hid/disp/display.h **** #define DSY_DISPLAY_H /**< Macro */
   4:../../libs/libDaisy/src/hid/disp/display.h **** #include <cmath>
   5:../../libs/libDaisy/src/hid/disp/display.h **** #include "util/oled_fonts.h"
   6:../../libs/libDaisy/src/hid/disp/display.h **** #include "daisy_core.h"
   7:../../libs/libDaisy/src/hid/disp/display.h **** #include "graphics_common.h"
   8:../../libs/libDaisy/src/hid/disp/display.h **** 
   9:../../libs/libDaisy/src/hid/disp/display.h **** #ifndef deg2rad
  10:../../libs/libDaisy/src/hid/disp/display.h **** #define deg2rad(deg) ((deg)*3.141592 / 180.0)
  11:../../libs/libDaisy/src/hid/disp/display.h **** #endif
  12:../../libs/libDaisy/src/hid/disp/display.h **** 
  13:../../libs/libDaisy/src/hid/disp/display.h **** namespace daisy
  14:../../libs/libDaisy/src/hid/disp/display.h **** {
  15:../../libs/libDaisy/src/hid/disp/display.h **** /** 
  16:../../libs/libDaisy/src/hid/disp/display.h ****  * This interface is used as a base class for all types of 1bit-per-pixel
  17:../../libs/libDaisy/src/hid/disp/display.h ****  * graphics displays.
  18:../../libs/libDaisy/src/hid/disp/display.h **** */
  19:../../libs/libDaisy/src/hid/disp/display.h **** class OneBitGraphicsDisplay
  20:../../libs/libDaisy/src/hid/disp/display.h **** {
  21:../../libs/libDaisy/src/hid/disp/display.h ****   public:
  22:../../libs/libDaisy/src/hid/disp/display.h ****     OneBitGraphicsDisplay() {}
  23:../../libs/libDaisy/src/hid/disp/display.h ****     virtual ~OneBitGraphicsDisplay() {}
  24:../../libs/libDaisy/src/hid/disp/display.h **** 
  25:../../libs/libDaisy/src/hid/disp/display.h ****     virtual uint16_t Height() const = 0;
ARM GAS  C:\Users\matte\AppData\Local\Temp\ccvehO0v.s 			page 12


  26:../../libs/libDaisy/src/hid/disp/display.h ****     virtual uint16_t Width() const  = 0;
  27:../../libs/libDaisy/src/hid/disp/display.h **** 
  28:../../libs/libDaisy/src/hid/disp/display.h ****     Rectangle GetBounds() const
  29:../../libs/libDaisy/src/hid/disp/display.h ****     {
  30:../../libs/libDaisy/src/hid/disp/display.h ****         return Rectangle(int16_t(Width()), int16_t(Height()));
  31:../../libs/libDaisy/src/hid/disp/display.h ****     }
  32:../../libs/libDaisy/src/hid/disp/display.h **** 
  33:../../libs/libDaisy/src/hid/disp/display.h **** 
  34:../../libs/libDaisy/src/hid/disp/display.h ****     size_t CurrentX() { return currentX_; };
  35:../../libs/libDaisy/src/hid/disp/display.h ****     size_t CurrentY() { return currentY_; };
  36:../../libs/libDaisy/src/hid/disp/display.h **** 
  37:../../libs/libDaisy/src/hid/disp/display.h ****     /** 
  38:../../libs/libDaisy/src/hid/disp/display.h ****     Fills the entire display with either on/off.
  39:../../libs/libDaisy/src/hid/disp/display.h ****     \param on Sets on or off.
  40:../../libs/libDaisy/src/hid/disp/display.h ****     */
  41:../../libs/libDaisy/src/hid/disp/display.h ****     virtual void Fill(bool on) = 0;
  42:../../libs/libDaisy/src/hid/disp/display.h **** 
  43:../../libs/libDaisy/src/hid/disp/display.h ****     /**
  44:../../libs/libDaisy/src/hid/disp/display.h ****     Sets the pixel at the specified coordinate to be on/off.
  45:../../libs/libDaisy/src/hid/disp/display.h ****     \param x   x Coordinate
  46:../../libs/libDaisy/src/hid/disp/display.h ****     \param y   y coordinate
  47:../../libs/libDaisy/src/hid/disp/display.h ****     \param on  on or off
  48:../../libs/libDaisy/src/hid/disp/display.h ****     */
  49:../../libs/libDaisy/src/hid/disp/display.h ****     virtual void DrawPixel(uint_fast8_t x, uint_fast8_t y, bool on) = 0;
  50:../../libs/libDaisy/src/hid/disp/display.h **** 
  51:../../libs/libDaisy/src/hid/disp/display.h ****     /**
  52:../../libs/libDaisy/src/hid/disp/display.h ****     Draws a line from (x1, y1) to (y1, y2)
  53:../../libs/libDaisy/src/hid/disp/display.h ****     \param x1  x Coordinate of the starting point
  54:../../libs/libDaisy/src/hid/disp/display.h ****     \param y1  y Coordinate of the starting point
  55:../../libs/libDaisy/src/hid/disp/display.h ****     \param x2  x Coordinate of the ending point
  56:../../libs/libDaisy/src/hid/disp/display.h ****     \param y2  y Coordinate of the ending point
  57:../../libs/libDaisy/src/hid/disp/display.h ****     \param on  on or off
  58:../../libs/libDaisy/src/hid/disp/display.h ****     */
  59:../../libs/libDaisy/src/hid/disp/display.h ****     virtual void DrawLine(uint_fast8_t x1,
  60:../../libs/libDaisy/src/hid/disp/display.h ****                           uint_fast8_t y1,
  61:../../libs/libDaisy/src/hid/disp/display.h ****                           uint_fast8_t x2,
  62:../../libs/libDaisy/src/hid/disp/display.h ****                           uint_fast8_t y2,
  63:../../libs/libDaisy/src/hid/disp/display.h ****                           bool         on)
  64:../../libs/libDaisy/src/hid/disp/display.h ****         = 0;
  65:../../libs/libDaisy/src/hid/disp/display.h **** 
  66:../../libs/libDaisy/src/hid/disp/display.h ****     /**
  67:../../libs/libDaisy/src/hid/disp/display.h ****     Draws a rectangle based on two coordinates.
  68:../../libs/libDaisy/src/hid/disp/display.h ****     \param x1 x Coordinate of the first point
  69:../../libs/libDaisy/src/hid/disp/display.h ****     \param y1 y Coordinate of the first point
  70:../../libs/libDaisy/src/hid/disp/display.h ****     \param x2 x Coordinate of the second point
  71:../../libs/libDaisy/src/hid/disp/display.h ****     \param y2 y Coordinate of the second point
  72:../../libs/libDaisy/src/hid/disp/display.h ****     \param on on or off
  73:../../libs/libDaisy/src/hid/disp/display.h ****     \param fill fill the rectangle or draw only the outline
  74:../../libs/libDaisy/src/hid/disp/display.h ****     */
  75:../../libs/libDaisy/src/hid/disp/display.h ****     virtual void DrawRect(uint_fast8_t x1,
  76:../../libs/libDaisy/src/hid/disp/display.h ****                           uint_fast8_t y1,
  77:../../libs/libDaisy/src/hid/disp/display.h ****                           uint_fast8_t x2,
  78:../../libs/libDaisy/src/hid/disp/display.h ****                           uint_fast8_t y2,
  79:../../libs/libDaisy/src/hid/disp/display.h ****                           bool         on,
  80:../../libs/libDaisy/src/hid/disp/display.h ****                           bool         fill = false)
  81:../../libs/libDaisy/src/hid/disp/display.h ****         = 0;
  82:../../libs/libDaisy/src/hid/disp/display.h **** 
ARM GAS  C:\Users\matte\AppData\Local\Temp\ccvehO0v.s 			page 13


  83:../../libs/libDaisy/src/hid/disp/display.h ****     /**
  84:../../libs/libDaisy/src/hid/disp/display.h ****     Draws a rectangle.
  85:../../libs/libDaisy/src/hid/disp/display.h ****     \param rect the rectangle
  86:../../libs/libDaisy/src/hid/disp/display.h ****     \param on   on or off
  87:../../libs/libDaisy/src/hid/disp/display.h ****     \param fill fill the rectangle or draw only the outline
  88:../../libs/libDaisy/src/hid/disp/display.h ****     */
  89:../../libs/libDaisy/src/hid/disp/display.h ****     void DrawRect(const Rectangle& rect, bool on, bool fill = false)
  90:../../libs/libDaisy/src/hid/disp/display.h ****     {
  91:../../libs/libDaisy/src/hid/disp/display.h ****         DrawRect(rect.GetX(),
  92:../../libs/libDaisy/src/hid/disp/display.h ****                  rect.GetY(),
  93:../../libs/libDaisy/src/hid/disp/display.h ****                  rect.GetRight(),
  94:../../libs/libDaisy/src/hid/disp/display.h ****                  rect.GetBottom(),
  95:../../libs/libDaisy/src/hid/disp/display.h ****                  on,
  96:../../libs/libDaisy/src/hid/disp/display.h ****                  fill);
  97:../../libs/libDaisy/src/hid/disp/display.h ****     }
  98:../../libs/libDaisy/src/hid/disp/display.h **** 
  99:../../libs/libDaisy/src/hid/disp/display.h ****     /**
 100:../../libs/libDaisy/src/hid/disp/display.h ****     Draws an arc around the specified coordinate
 101:../../libs/libDaisy/src/hid/disp/display.h ****     \param x           x Coordinate of the center of the arc
 102:../../libs/libDaisy/src/hid/disp/display.h ****     \param y           y Coordinate of the center of the arc
 103:../../libs/libDaisy/src/hid/disp/display.h ****     \param radius      radius of the arc
 104:../../libs/libDaisy/src/hid/disp/display.h ****     \param start_angle angle where to start the arc
 105:../../libs/libDaisy/src/hid/disp/display.h ****     \param sweep       total angle of the arc
 106:../../libs/libDaisy/src/hid/disp/display.h ****     \param on  on or off
 107:../../libs/libDaisy/src/hid/disp/display.h ****     */
 108:../../libs/libDaisy/src/hid/disp/display.h ****     virtual void DrawArc(uint_fast8_t x,
 109:../../libs/libDaisy/src/hid/disp/display.h ****                          uint_fast8_t y,
 110:../../libs/libDaisy/src/hid/disp/display.h ****                          uint_fast8_t radius,
 111:../../libs/libDaisy/src/hid/disp/display.h ****                          int_fast16_t start_angle,
 112:../../libs/libDaisy/src/hid/disp/display.h ****                          int_fast16_t sweep,
 113:../../libs/libDaisy/src/hid/disp/display.h ****                          bool         on)
 114:../../libs/libDaisy/src/hid/disp/display.h ****         = 0;
 115:../../libs/libDaisy/src/hid/disp/display.h **** 
 116:../../libs/libDaisy/src/hid/disp/display.h ****     /**
 117:../../libs/libDaisy/src/hid/disp/display.h ****     Draws a circle around the specified coordinate
 118:../../libs/libDaisy/src/hid/disp/display.h ****     \param x           x Coordinate of the center of the circle
 119:../../libs/libDaisy/src/hid/disp/display.h ****     \param y           y Coordinate of the center of the circle
 120:../../libs/libDaisy/src/hid/disp/display.h ****     \param radius      radius of the circle
 121:../../libs/libDaisy/src/hid/disp/display.h ****     \param on  on or off
 122:../../libs/libDaisy/src/hid/disp/display.h ****     */
 123:../../libs/libDaisy/src/hid/disp/display.h ****     void
 124:../../libs/libDaisy/src/hid/disp/display.h ****     DrawCircle(uint_fast8_t x, uint_fast8_t y, uint_fast8_t radius, bool on)
 125:../../libs/libDaisy/src/hid/disp/display.h ****     {
 126:../../libs/libDaisy/src/hid/disp/display.h ****         DrawArc(x, y, radius, 0, 360, on);
 127:../../libs/libDaisy/src/hid/disp/display.h ****     };
 128:../../libs/libDaisy/src/hid/disp/display.h **** 
 129:../../libs/libDaisy/src/hid/disp/display.h ****     /** 
 130:../../libs/libDaisy/src/hid/disp/display.h ****     Writes the character with the specific FontDef
 131:../../libs/libDaisy/src/hid/disp/display.h ****     to the display buffer at the current Cursor position.
 132:../../libs/libDaisy/src/hid/disp/display.h ****     \param ch character to be written
 133:../../libs/libDaisy/src/hid/disp/display.h ****     \param font font to be written in
 134:../../libs/libDaisy/src/hid/disp/display.h ****     \param on    on or off
 135:../../libs/libDaisy/src/hid/disp/display.h ****     \return &
 136:../../libs/libDaisy/src/hid/disp/display.h ****     */
 137:../../libs/libDaisy/src/hid/disp/display.h ****     virtual char WriteChar(char ch, FontDef font, bool on) = 0;
 138:../../libs/libDaisy/src/hid/disp/display.h **** 
 139:../../libs/libDaisy/src/hid/disp/display.h ****     /** 
ARM GAS  C:\Users\matte\AppData\Local\Temp\ccvehO0v.s 			page 14


 140:../../libs/libDaisy/src/hid/disp/display.h ****     Similar to WriteChar, except it will handle an entire String.
 141:../../libs/libDaisy/src/hid/disp/display.h ****     Wrapping does not happen automatically, so the width
 142:../../libs/libDaisy/src/hid/disp/display.h ****     of the string must be kept within the dimensions of the screen.
 143:../../libs/libDaisy/src/hid/disp/display.h ****     \param str string to be written
 144:../../libs/libDaisy/src/hid/disp/display.h ****     \param font font to use
 145:../../libs/libDaisy/src/hid/disp/display.h ****     \param on  on or off
 146:../../libs/libDaisy/src/hid/disp/display.h ****     \return &
 147:../../libs/libDaisy/src/hid/disp/display.h ****     */
 148:../../libs/libDaisy/src/hid/disp/display.h ****     virtual char WriteString(const char* str, FontDef font, bool on) = 0;
 149:../../libs/libDaisy/src/hid/disp/display.h **** 
 150:../../libs/libDaisy/src/hid/disp/display.h ****     /** 
 151:../../libs/libDaisy/src/hid/disp/display.h ****     Similar to WriteString but justified within a bounding box.
 152:../../libs/libDaisy/src/hid/disp/display.h ****     \param str          string to be written
 153:../../libs/libDaisy/src/hid/disp/display.h ****     \param font         font to use
 154:../../libs/libDaisy/src/hid/disp/display.h ****     \param boundingBox  the bounding box to draw the text in
 155:../../libs/libDaisy/src/hid/disp/display.h ****     \param alignment    the alignment to use
 156:../../libs/libDaisy/src/hid/disp/display.h ****     \param on           on or off
 157:../../libs/libDaisy/src/hid/disp/display.h ****     \return The rectangle that was drawn to
 158:../../libs/libDaisy/src/hid/disp/display.h ****     */
 159:../../libs/libDaisy/src/hid/disp/display.h ****     virtual Rectangle WriteStringAligned(const char*    str,
 160:../../libs/libDaisy/src/hid/disp/display.h ****                                          const FontDef& font,
 161:../../libs/libDaisy/src/hid/disp/display.h ****                                          Rectangle      boundingBox,
 162:../../libs/libDaisy/src/hid/disp/display.h ****                                          Alignment      alignment,
 163:../../libs/libDaisy/src/hid/disp/display.h ****                                          bool           on)
 164:../../libs/libDaisy/src/hid/disp/display.h ****         = 0;
 165:../../libs/libDaisy/src/hid/disp/display.h **** 
 166:../../libs/libDaisy/src/hid/disp/display.h ****     /** 
 167:../../libs/libDaisy/src/hid/disp/display.h ****     Moves the 'Cursor' position used for WriteChar, and WriteStr to the specified coordinate.
 168:../../libs/libDaisy/src/hid/disp/display.h ****     \param x x pos
 169:../../libs/libDaisy/src/hid/disp/display.h ****     \param y y pos
 170:../../libs/libDaisy/src/hid/disp/display.h ****     */
 171:../../libs/libDaisy/src/hid/disp/display.h ****     void SetCursor(uint16_t x, uint16_t y)
 172:../../libs/libDaisy/src/hid/disp/display.h ****     {
 173:../../libs/libDaisy/src/hid/disp/display.h ****         currentX_ = (x >= Width()) ? Width() - 1 : x;
 174:../../libs/libDaisy/src/hid/disp/display.h ****         currentY_ = (y >= Height()) ? Height() - 1 : y;
 175:../../libs/libDaisy/src/hid/disp/display.h ****     }
 176:../../libs/libDaisy/src/hid/disp/display.h **** 
 177:../../libs/libDaisy/src/hid/disp/display.h ****     /** 
 178:../../libs/libDaisy/src/hid/disp/display.h ****     Writes the current display buffer to the OLED device using SPI or I2C depending on 
 179:../../libs/libDaisy/src/hid/disp/display.h ****     how the object was initialized.
 180:../../libs/libDaisy/src/hid/disp/display.h ****     */
 181:../../libs/libDaisy/src/hid/disp/display.h ****     virtual void Update() = 0;
 182:../../libs/libDaisy/src/hid/disp/display.h **** 
 183:../../libs/libDaisy/src/hid/disp/display.h ****   protected:
 184:../../libs/libDaisy/src/hid/disp/display.h ****     uint16_t currentX_;
 185:../../libs/libDaisy/src/hid/disp/display.h ****     uint16_t currentY_;
 186:../../libs/libDaisy/src/hid/disp/display.h **** };
 187:../../libs/libDaisy/src/hid/disp/display.h **** 
 188:../../libs/libDaisy/src/hid/disp/display.h **** /** This class is intended as a intermediary class for your actual implementation of the OneBitGrap
 189:../../libs/libDaisy/src/hid/disp/display.h ****  *  interface. It uses the CRTP design pattern where the template argument is the child class. It p
 190:../../libs/libDaisy/src/hid/disp/display.h ****  *  implementations for most of the functions, except DrawPixel(), Update() and Fill(), which you'l
 191:../../libs/libDaisy/src/hid/disp/display.h ****  *  to provide in your child class.
 192:../../libs/libDaisy/src/hid/disp/display.h ****  *  The main goal of this class is to provide common drawing functions without relying on massive a
 193:../../libs/libDaisy/src/hid/disp/display.h ****  *  virtual function calls that would result in a performance loss. To achieve this, any drawing fu
 194:../../libs/libDaisy/src/hid/disp/display.h ****  *  is implemented here and internally calls other drawing functions (e.g. DrawRect() which interna
 195:../../libs/libDaisy/src/hid/disp/display.h ****  *  DrawPixel() and DrawLine()) makes these calls via the qualified name of these functions to expl
 196:../../libs/libDaisy/src/hid/disp/display.h ****  *  suppress the virtual dispatch mechanism like this:
ARM GAS  C:\Users\matte\AppData\Local\Temp\ccvehO0v.s 			page 15


 197:../../libs/libDaisy/src/hid/disp/display.h ****  * 
 198:../../libs/libDaisy/src/hid/disp/display.h ****  *      ChildType::DrawPixel(...); // no virtual function call; direct call into the child class fu
 199:../../libs/libDaisy/src/hid/disp/display.h ****  *  
 200:../../libs/libDaisy/src/hid/disp/display.h ****  *  To create a custom OneBitGraphicsDisplay implementation, you can 
 201:../../libs/libDaisy/src/hid/disp/display.h ****  *  A) inherit from OneBitGraphicsDisplay directly and provide all the drawing functions yourself
 202:../../libs/libDaisy/src/hid/disp/display.h ****  *  B) Inherit from OneBitGraphicsDisplayImpl and only provide DrawPixel(), Fill() and Update()
 203:../../libs/libDaisy/src/hid/disp/display.h ****  *     like this:
 204:../../libs/libDaisy/src/hid/disp/display.h ****  *  
 205:../../libs/libDaisy/src/hid/disp/display.h ****  *      class MyDisplayClass : public OneBitGraphicsDisplayImpl<MyDisplayClass> 
 206:../../libs/libDaisy/src/hid/disp/display.h ****  *      {
 207:../../libs/libDaisy/src/hid/disp/display.h ****  *      public:
 208:../../libs/libDaisy/src/hid/disp/display.h ****  *          void Fill() override { ... };
 209:../../libs/libDaisy/src/hid/disp/display.h ****  *          void DrawPixel(uint_fast8_t x, uint_fast8_t y, bool on) override { ... };
 210:../../libs/libDaisy/src/hid/disp/display.h ****  *          void Update() override { ... }
 211:../../libs/libDaisy/src/hid/disp/display.h ****  *      };
 212:../../libs/libDaisy/src/hid/disp/display.h ****  *  
 213:../../libs/libDaisy/src/hid/disp/display.h ****  */
 214:../../libs/libDaisy/src/hid/disp/display.h **** template <class ChildType>
 215:../../libs/libDaisy/src/hid/disp/display.h **** class OneBitGraphicsDisplayImpl : public OneBitGraphicsDisplay
 216:../../libs/libDaisy/src/hid/disp/display.h **** {
 217:../../libs/libDaisy/src/hid/disp/display.h ****   public:
 218:../../libs/libDaisy/src/hid/disp/display.h ****     OneBitGraphicsDisplayImpl() {}
 219:../../libs/libDaisy/src/hid/disp/display.h ****     virtual ~OneBitGraphicsDisplayImpl() {}
 143              		.loc 10 219 13 view .LVU17
 144              	.LBB629:
 145              	.LBI629:
  23:../../libs/libDaisy/src/hid/disp/display.h **** 
 146              		.loc 10 23 13 view .LVU18
  23:../../libs/libDaisy/src/hid/disp/display.h **** 
 147              		.loc 10 23 13 is_stmt 0 view .LVU19
 148              	.LBE629:
 149              	.LBE628:
 150              		.loc 9 18 29 view .LVU20
 151 0000 7047     		bx	lr
 152              		.cfi_endproc
 153              	.LFE5468:
 155              		.weak	_ZN5daisy11OledDisplayINS_13SSD130xDriverILj128ELj64ENS_19SSD130xI2CTransportEEEED1Ev
 156              		.thumb_set _ZN5daisy11OledDisplayINS_13SSD130xDriverILj128ELj64ENS_19SSD130xI2CTransportEEEED1Ev,_
 157 0002 00BF     		.section	.text._ZNK5daisy11OledDisplayINS_13SSD130xDriverILj128ELj64ENS_19SSD130xI2CTransportEEEE6
 158              		.align	1
 159              		.p2align 2,,3
 160              		.weak	_ZNK5daisy11OledDisplayINS_13SSD130xDriverILj128ELj64ENS_19SSD130xI2CTransportEEEE6HeightEv
 161              		.syntax unified
 162              		.thumb
 163              		.thumb_func
 164              		.fpu fpv5-d16
 166              	_ZNK5daisy11OledDisplayINS_13SSD130xDriverILj128ELj64ENS_19SSD130xI2CTransportEEEE6HeightEv:
 167              	.LVL4:
 168              	.LFB5471:
  19:../../libs/libDaisy/src/hid/disp/oled_display.h **** 
  20:../../libs/libDaisy/src/hid/disp/oled_display.h ****     struct Config
  21:../../libs/libDaisy/src/hid/disp/oled_display.h ****     {
  22:../../libs/libDaisy/src/hid/disp/oled_display.h ****         typename DisplayDriver::Config driver_config;
  23:../../libs/libDaisy/src/hid/disp/oled_display.h ****     };
  24:../../libs/libDaisy/src/hid/disp/oled_display.h **** 
  25:../../libs/libDaisy/src/hid/disp/oled_display.h ****     void Init(Config config) { driver_.Init(config.driver_config); }
  26:../../libs/libDaisy/src/hid/disp/oled_display.h **** 
ARM GAS  C:\Users\matte\AppData\Local\Temp\ccvehO0v.s 			page 16


  27:../../libs/libDaisy/src/hid/disp/oled_display.h ****     uint16_t Height() const override { return driver_.Height(); }
 169              		.loc 9 27 14 is_stmt 1 view -0
 170              		.cfi_startproc
 171              		@ args = 0, pretend = 0, frame = 0
 172              		@ frame_needed = 0, uses_anonymous_args = 0
 173              		@ link register save eliminated.
 174              		.loc 9 27 65 is_stmt 0 view .LVU22
 175 0000 4020     		movs	r0, #64
 176              	.LVL5:
 177              		.loc 9 27 65 view .LVU23
 178 0002 7047     		bx	lr
 179              		.cfi_endproc
 180              	.LFE5471:
 182              		.section	.text._ZNK5daisy11OledDisplayINS_13SSD130xDriverILj128ELj64ENS_19SSD130xI2CTransportEEEE5
 183              		.align	1
 184              		.p2align 2,,3
 185              		.weak	_ZNK5daisy11OledDisplayINS_13SSD130xDriverILj128ELj64ENS_19SSD130xI2CTransportEEEE5WidthEv
 186              		.syntax unified
 187              		.thumb
 188              		.thumb_func
 189              		.fpu fpv5-d16
 191              	_ZNK5daisy11OledDisplayINS_13SSD130xDriverILj128ELj64ENS_19SSD130xI2CTransportEEEE5WidthEv:
 192              	.LVL6:
 193              	.LFB5472:
  28:../../libs/libDaisy/src/hid/disp/oled_display.h ****     uint16_t Width() const override { return driver_.Width(); }
 194              		.loc 9 28 14 is_stmt 1 view -0
 195              		.cfi_startproc
 196              		@ args = 0, pretend = 0, frame = 0
 197              		@ frame_needed = 0, uses_anonymous_args = 0
 198              		@ link register save eliminated.
 199              		.loc 9 28 63 is_stmt 0 view .LVU25
 200 0000 8020     		movs	r0, #128
 201              	.LVL7:
 202              		.loc 9 28 63 view .LVU26
 203 0002 7047     		bx	lr
 204              		.cfi_endproc
 205              	.LFE5472:
 207              		.section	.text._ZN5daisy11OledDisplayINS_13SSD130xDriverILj128ELj64ENS_19SSD130xI2CTransportEEEE4F
 208              		.align	1
 209              		.p2align 2,,3
 210              		.weak	_ZN5daisy11OledDisplayINS_13SSD130xDriverILj128ELj64ENS_19SSD130xI2CTransportEEEE4FillEb
 211              		.syntax unified
 212              		.thumb
 213              		.thumb_func
 214              		.fpu fpv5-d16
 216              	_ZN5daisy11OledDisplayINS_13SSD130xDriverILj128ELj64ENS_19SSD130xI2CTransportEEEE4FillEb:
 217              	.LVL8:
 218              	.LFB5473:
  29:../../libs/libDaisy/src/hid/disp/oled_display.h **** 
  30:../../libs/libDaisy/src/hid/disp/oled_display.h ****     /** 
  31:../../libs/libDaisy/src/hid/disp/oled_display.h ****     Fills the entire display with either on/off.
  32:../../libs/libDaisy/src/hid/disp/oled_display.h ****     \param on Sets on or off.
  33:../../libs/libDaisy/src/hid/disp/oled_display.h ****     */
  34:../../libs/libDaisy/src/hid/disp/oled_display.h ****     void Fill(bool on) override { driver_.Fill(on); }
 219              		.loc 9 34 10 is_stmt 1 view -0
 220              		.cfi_startproc
 221              		@ args = 0, pretend = 0, frame = 0
ARM GAS  C:\Users\matte\AppData\Local\Temp\ccvehO0v.s 			page 17


 222              		@ frame_needed = 0, uses_anonymous_args = 0
 223              		@ link register save eliminated.
 224              	.LBB630:
 225              	.LBI630:
 226              		.file 11 "../../libs/libDaisy/src/sys/../../../../libs/libDaisy/src/dev/oled_ssd130x.h"
   1:../../libs/libDaisy/src/sys/../../../../libs/libDaisy/src/dev/oled_ssd130x.h **** #pragma once
   2:../../libs/libDaisy/src/sys/../../../../libs/libDaisy/src/dev/oled_ssd130x.h **** #ifndef SA_OLED_SSD130X_H
   3:../../libs/libDaisy/src/sys/../../../../libs/libDaisy/src/dev/oled_ssd130x.h **** #define SA_OLED_SSD130X_H /**< & */
   4:../../libs/libDaisy/src/sys/../../../../libs/libDaisy/src/dev/oled_ssd130x.h **** 
   5:../../libs/libDaisy/src/sys/../../../../libs/libDaisy/src/dev/oled_ssd130x.h **** #include "per/i2c.h"
   6:../../libs/libDaisy/src/sys/../../../../libs/libDaisy/src/dev/oled_ssd130x.h **** #include "per/spi.h"
   7:../../libs/libDaisy/src/sys/../../../../libs/libDaisy/src/dev/oled_ssd130x.h **** #include "per/gpio.h"
   8:../../libs/libDaisy/src/sys/../../../../libs/libDaisy/src/dev/oled_ssd130x.h **** #include "sys/system.h"
   9:../../libs/libDaisy/src/sys/../../../../libs/libDaisy/src/dev/oled_ssd130x.h **** 
  10:../../libs/libDaisy/src/sys/../../../../libs/libDaisy/src/dev/oled_ssd130x.h **** namespace daisy
  11:../../libs/libDaisy/src/sys/../../../../libs/libDaisy/src/dev/oled_ssd130x.h **** {
  12:../../libs/libDaisy/src/sys/../../../../libs/libDaisy/src/dev/oled_ssd130x.h **** /**
  13:../../libs/libDaisy/src/sys/../../../../libs/libDaisy/src/dev/oled_ssd130x.h ****  * I2C Transport for SSD1306 / SSD1309 OLED display devices
  14:../../libs/libDaisy/src/sys/../../../../libs/libDaisy/src/dev/oled_ssd130x.h ****  */
  15:../../libs/libDaisy/src/sys/../../../../libs/libDaisy/src/dev/oled_ssd130x.h **** class SSD130xI2CTransport
  16:../../libs/libDaisy/src/sys/../../../../libs/libDaisy/src/dev/oled_ssd130x.h **** {
  17:../../libs/libDaisy/src/sys/../../../../libs/libDaisy/src/dev/oled_ssd130x.h ****   public:
  18:../../libs/libDaisy/src/sys/../../../../libs/libDaisy/src/dev/oled_ssd130x.h ****     struct Config
  19:../../libs/libDaisy/src/sys/../../../../libs/libDaisy/src/dev/oled_ssd130x.h ****     {
  20:../../libs/libDaisy/src/sys/../../../../libs/libDaisy/src/dev/oled_ssd130x.h ****         Config()
  21:../../libs/libDaisy/src/sys/../../../../libs/libDaisy/src/dev/oled_ssd130x.h ****         {
  22:../../libs/libDaisy/src/sys/../../../../libs/libDaisy/src/dev/oled_ssd130x.h ****             // Intialize using defaults
  23:../../libs/libDaisy/src/sys/../../../../libs/libDaisy/src/dev/oled_ssd130x.h ****             Defaults();
  24:../../libs/libDaisy/src/sys/../../../../libs/libDaisy/src/dev/oled_ssd130x.h ****         }
  25:../../libs/libDaisy/src/sys/../../../../libs/libDaisy/src/dev/oled_ssd130x.h ****         I2CHandle::Config i2c_config;
  26:../../libs/libDaisy/src/sys/../../../../libs/libDaisy/src/dev/oled_ssd130x.h ****         uint8_t           i2c_address;
  27:../../libs/libDaisy/src/sys/../../../../libs/libDaisy/src/dev/oled_ssd130x.h ****         void              Defaults()
  28:../../libs/libDaisy/src/sys/../../../../libs/libDaisy/src/dev/oled_ssd130x.h ****         {
  29:../../libs/libDaisy/src/sys/../../../../libs/libDaisy/src/dev/oled_ssd130x.h ****             i2c_config.periph         = I2CHandle::Config::Peripheral::I2C_1;
  30:../../libs/libDaisy/src/sys/../../../../libs/libDaisy/src/dev/oled_ssd130x.h ****             i2c_config.speed          = I2CHandle::Config::Speed::I2C_1MHZ;
  31:../../libs/libDaisy/src/sys/../../../../libs/libDaisy/src/dev/oled_ssd130x.h ****             i2c_config.mode           = I2CHandle::Config::Mode::I2C_MASTER;
  32:../../libs/libDaisy/src/sys/../../../../libs/libDaisy/src/dev/oled_ssd130x.h ****             i2c_config.pin_config.scl = Pin(PORTB, 8);
  33:../../libs/libDaisy/src/sys/../../../../libs/libDaisy/src/dev/oled_ssd130x.h ****             i2c_config.pin_config.sda = Pin(PORTB, 9);
  34:../../libs/libDaisy/src/sys/../../../../libs/libDaisy/src/dev/oled_ssd130x.h ****             i2c_address               = 0x3C;
  35:../../libs/libDaisy/src/sys/../../../../libs/libDaisy/src/dev/oled_ssd130x.h ****         }
  36:../../libs/libDaisy/src/sys/../../../../libs/libDaisy/src/dev/oled_ssd130x.h ****     };
  37:../../libs/libDaisy/src/sys/../../../../libs/libDaisy/src/dev/oled_ssd130x.h ****     void Init(const Config& config)
  38:../../libs/libDaisy/src/sys/../../../../libs/libDaisy/src/dev/oled_ssd130x.h ****     {
  39:../../libs/libDaisy/src/sys/../../../../libs/libDaisy/src/dev/oled_ssd130x.h ****         i2c_address_ = config.i2c_address;
  40:../../libs/libDaisy/src/sys/../../../../libs/libDaisy/src/dev/oled_ssd130x.h ****         i2c_.Init(config.i2c_config);
  41:../../libs/libDaisy/src/sys/../../../../libs/libDaisy/src/dev/oled_ssd130x.h ****     };
  42:../../libs/libDaisy/src/sys/../../../../libs/libDaisy/src/dev/oled_ssd130x.h ****     void SendCommand(uint8_t cmd)
  43:../../libs/libDaisy/src/sys/../../../../libs/libDaisy/src/dev/oled_ssd130x.h ****     {
  44:../../libs/libDaisy/src/sys/../../../../libs/libDaisy/src/dev/oled_ssd130x.h ****         uint8_t buf[2] = {0X00, cmd};
  45:../../libs/libDaisy/src/sys/../../../../libs/libDaisy/src/dev/oled_ssd130x.h ****         i2c_.TransmitBlocking(i2c_address_, buf, 2, 1000);
  46:../../libs/libDaisy/src/sys/../../../../libs/libDaisy/src/dev/oled_ssd130x.h ****     };
  47:../../libs/libDaisy/src/sys/../../../../libs/libDaisy/src/dev/oled_ssd130x.h **** 
  48:../../libs/libDaisy/src/sys/../../../../libs/libDaisy/src/dev/oled_ssd130x.h ****     void SendData(uint8_t* buff, size_t size)
  49:../../libs/libDaisy/src/sys/../../../../libs/libDaisy/src/dev/oled_ssd130x.h ****     {
  50:../../libs/libDaisy/src/sys/../../../../libs/libDaisy/src/dev/oled_ssd130x.h ****         for(size_t i = 0; i < size; i++)
  51:../../libs/libDaisy/src/sys/../../../../libs/libDaisy/src/dev/oled_ssd130x.h ****         {
  52:../../libs/libDaisy/src/sys/../../../../libs/libDaisy/src/dev/oled_ssd130x.h ****             uint8_t buf[2] = {0X40, buff[i]};
ARM GAS  C:\Users\matte\AppData\Local\Temp\ccvehO0v.s 			page 18


  53:../../libs/libDaisy/src/sys/../../../../libs/libDaisy/src/dev/oled_ssd130x.h ****             i2c_.TransmitBlocking(i2c_address_, buf, 2, 1000);
  54:../../libs/libDaisy/src/sys/../../../../libs/libDaisy/src/dev/oled_ssd130x.h ****         }
  55:../../libs/libDaisy/src/sys/../../../../libs/libDaisy/src/dev/oled_ssd130x.h ****     };
  56:../../libs/libDaisy/src/sys/../../../../libs/libDaisy/src/dev/oled_ssd130x.h **** 
  57:../../libs/libDaisy/src/sys/../../../../libs/libDaisy/src/dev/oled_ssd130x.h ****   private:
  58:../../libs/libDaisy/src/sys/../../../../libs/libDaisy/src/dev/oled_ssd130x.h ****     daisy::I2CHandle i2c_;
  59:../../libs/libDaisy/src/sys/../../../../libs/libDaisy/src/dev/oled_ssd130x.h ****     uint8_t          i2c_address_;
  60:../../libs/libDaisy/src/sys/../../../../libs/libDaisy/src/dev/oled_ssd130x.h **** };
  61:../../libs/libDaisy/src/sys/../../../../libs/libDaisy/src/dev/oled_ssd130x.h **** 
  62:../../libs/libDaisy/src/sys/../../../../libs/libDaisy/src/dev/oled_ssd130x.h **** /**
  63:../../libs/libDaisy/src/sys/../../../../libs/libDaisy/src/dev/oled_ssd130x.h ****  * 4 Wire SPI Transport for SSD1306 / SSD1309 OLED display devices
  64:../../libs/libDaisy/src/sys/../../../../libs/libDaisy/src/dev/oled_ssd130x.h ****  */
  65:../../libs/libDaisy/src/sys/../../../../libs/libDaisy/src/dev/oled_ssd130x.h **** class SSD130x4WireSpiTransport
  66:../../libs/libDaisy/src/sys/../../../../libs/libDaisy/src/dev/oled_ssd130x.h **** {
  67:../../libs/libDaisy/src/sys/../../../../libs/libDaisy/src/dev/oled_ssd130x.h ****   public:
  68:../../libs/libDaisy/src/sys/../../../../libs/libDaisy/src/dev/oled_ssd130x.h ****     struct Config
  69:../../libs/libDaisy/src/sys/../../../../libs/libDaisy/src/dev/oled_ssd130x.h ****     {
  70:../../libs/libDaisy/src/sys/../../../../libs/libDaisy/src/dev/oled_ssd130x.h ****         Config()
  71:../../libs/libDaisy/src/sys/../../../../libs/libDaisy/src/dev/oled_ssd130x.h ****         {
  72:../../libs/libDaisy/src/sys/../../../../libs/libDaisy/src/dev/oled_ssd130x.h ****             // Initialize using defaults
  73:../../libs/libDaisy/src/sys/../../../../libs/libDaisy/src/dev/oled_ssd130x.h ****             Defaults();
  74:../../libs/libDaisy/src/sys/../../../../libs/libDaisy/src/dev/oled_ssd130x.h ****         }
  75:../../libs/libDaisy/src/sys/../../../../libs/libDaisy/src/dev/oled_ssd130x.h ****         SpiHandle::Config spi_config;
  76:../../libs/libDaisy/src/sys/../../../../libs/libDaisy/src/dev/oled_ssd130x.h ****         struct
  77:../../libs/libDaisy/src/sys/../../../../libs/libDaisy/src/dev/oled_ssd130x.h ****         {
  78:../../libs/libDaisy/src/sys/../../../../libs/libDaisy/src/dev/oled_ssd130x.h ****             Pin dc;    /**< & */
  79:../../libs/libDaisy/src/sys/../../../../libs/libDaisy/src/dev/oled_ssd130x.h ****             Pin reset; /**< & */
  80:../../libs/libDaisy/src/sys/../../../../libs/libDaisy/src/dev/oled_ssd130x.h ****         } pin_config;
  81:../../libs/libDaisy/src/sys/../../../../libs/libDaisy/src/dev/oled_ssd130x.h ****         void Defaults()
  82:../../libs/libDaisy/src/sys/../../../../libs/libDaisy/src/dev/oled_ssd130x.h ****         {
  83:../../libs/libDaisy/src/sys/../../../../libs/libDaisy/src/dev/oled_ssd130x.h ****             // SPI peripheral config
  84:../../libs/libDaisy/src/sys/../../../../libs/libDaisy/src/dev/oled_ssd130x.h ****             spi_config.periph = SpiHandle::Config::Peripheral::SPI_1;
  85:../../libs/libDaisy/src/sys/../../../../libs/libDaisy/src/dev/oled_ssd130x.h ****             spi_config.mode   = SpiHandle::Config::Mode::MASTER;
  86:../../libs/libDaisy/src/sys/../../../../libs/libDaisy/src/dev/oled_ssd130x.h ****             spi_config.direction
  87:../../libs/libDaisy/src/sys/../../../../libs/libDaisy/src/dev/oled_ssd130x.h ****                 = SpiHandle::Config::Direction::TWO_LINES_TX_ONLY;
  88:../../libs/libDaisy/src/sys/../../../../libs/libDaisy/src/dev/oled_ssd130x.h ****             spi_config.datasize       = 8;
  89:../../libs/libDaisy/src/sys/../../../../libs/libDaisy/src/dev/oled_ssd130x.h ****             spi_config.clock_polarity = SpiHandle::Config::ClockPolarity::LOW;
  90:../../libs/libDaisy/src/sys/../../../../libs/libDaisy/src/dev/oled_ssd130x.h ****             spi_config.clock_phase    = SpiHandle::Config::ClockPhase::ONE_EDGE;
  91:../../libs/libDaisy/src/sys/../../../../libs/libDaisy/src/dev/oled_ssd130x.h ****             spi_config.nss            = SpiHandle::Config::NSS::HARD_OUTPUT;
  92:../../libs/libDaisy/src/sys/../../../../libs/libDaisy/src/dev/oled_ssd130x.h ****             spi_config.baud_prescaler = SpiHandle::Config::BaudPrescaler::PS_8;
  93:../../libs/libDaisy/src/sys/../../../../libs/libDaisy/src/dev/oled_ssd130x.h ****             // SPI pin config
  94:../../libs/libDaisy/src/sys/../../../../libs/libDaisy/src/dev/oled_ssd130x.h ****             spi_config.pin_config.sclk = Pin(PORTG, 11);
  95:../../libs/libDaisy/src/sys/../../../../libs/libDaisy/src/dev/oled_ssd130x.h ****             spi_config.pin_config.miso = Pin(PORTX, 0);
  96:../../libs/libDaisy/src/sys/../../../../libs/libDaisy/src/dev/oled_ssd130x.h ****             spi_config.pin_config.mosi = Pin(PORTB, 5);
  97:../../libs/libDaisy/src/sys/../../../../libs/libDaisy/src/dev/oled_ssd130x.h ****             spi_config.pin_config.nss  = Pin(PORTG, 10);
  98:../../libs/libDaisy/src/sys/../../../../libs/libDaisy/src/dev/oled_ssd130x.h ****             // SSD130x control pin config
  99:../../libs/libDaisy/src/sys/../../../../libs/libDaisy/src/dev/oled_ssd130x.h ****             pin_config.dc    = Pin(PORTB, 4);
 100:../../libs/libDaisy/src/sys/../../../../libs/libDaisy/src/dev/oled_ssd130x.h ****             pin_config.reset = Pin(PORTB, 15);
 101:../../libs/libDaisy/src/sys/../../../../libs/libDaisy/src/dev/oled_ssd130x.h ****         }
 102:../../libs/libDaisy/src/sys/../../../../libs/libDaisy/src/dev/oled_ssd130x.h ****     };
 103:../../libs/libDaisy/src/sys/../../../../libs/libDaisy/src/dev/oled_ssd130x.h ****     void Init(const Config& config)
 104:../../libs/libDaisy/src/sys/../../../../libs/libDaisy/src/dev/oled_ssd130x.h ****     {
 105:../../libs/libDaisy/src/sys/../../../../libs/libDaisy/src/dev/oled_ssd130x.h ****         // Initialize both GPIO
 106:../../libs/libDaisy/src/sys/../../../../libs/libDaisy/src/dev/oled_ssd130x.h ****         pin_dc_.Init(config.pin_config.dc, GPIO::Mode::OUTPUT);
 107:../../libs/libDaisy/src/sys/../../../../libs/libDaisy/src/dev/oled_ssd130x.h ****         pin_reset_.Init(config.pin_config.reset, GPIO::Mode::OUTPUT);
 108:../../libs/libDaisy/src/sys/../../../../libs/libDaisy/src/dev/oled_ssd130x.h **** 
 109:../../libs/libDaisy/src/sys/../../../../libs/libDaisy/src/dev/oled_ssd130x.h ****         // Initialize SPI
ARM GAS  C:\Users\matte\AppData\Local\Temp\ccvehO0v.s 			page 19


 110:../../libs/libDaisy/src/sys/../../../../libs/libDaisy/src/dev/oled_ssd130x.h ****         spi_.Init(config.spi_config);
 111:../../libs/libDaisy/src/sys/../../../../libs/libDaisy/src/dev/oled_ssd130x.h **** 
 112:../../libs/libDaisy/src/sys/../../../../libs/libDaisy/src/dev/oled_ssd130x.h ****         // Reset and Configure OLED.
 113:../../libs/libDaisy/src/sys/../../../../libs/libDaisy/src/dev/oled_ssd130x.h ****         pin_reset_.Write(0);
 114:../../libs/libDaisy/src/sys/../../../../libs/libDaisy/src/dev/oled_ssd130x.h ****         System::Delay(10);
 115:../../libs/libDaisy/src/sys/../../../../libs/libDaisy/src/dev/oled_ssd130x.h ****         pin_reset_.Write(1);
 116:../../libs/libDaisy/src/sys/../../../../libs/libDaisy/src/dev/oled_ssd130x.h ****         System::Delay(10);
 117:../../libs/libDaisy/src/sys/../../../../libs/libDaisy/src/dev/oled_ssd130x.h ****     };
 118:../../libs/libDaisy/src/sys/../../../../libs/libDaisy/src/dev/oled_ssd130x.h ****     void SendCommand(uint8_t cmd)
 119:../../libs/libDaisy/src/sys/../../../../libs/libDaisy/src/dev/oled_ssd130x.h ****     {
 120:../../libs/libDaisy/src/sys/../../../../libs/libDaisy/src/dev/oled_ssd130x.h ****         pin_dc_.Write(0);
 121:../../libs/libDaisy/src/sys/../../../../libs/libDaisy/src/dev/oled_ssd130x.h ****         spi_.BlockingTransmit(&cmd, 1);
 122:../../libs/libDaisy/src/sys/../../../../libs/libDaisy/src/dev/oled_ssd130x.h ****     };
 123:../../libs/libDaisy/src/sys/../../../../libs/libDaisy/src/dev/oled_ssd130x.h **** 
 124:../../libs/libDaisy/src/sys/../../../../libs/libDaisy/src/dev/oled_ssd130x.h ****     void SendData(uint8_t* buff, size_t size)
 125:../../libs/libDaisy/src/sys/../../../../libs/libDaisy/src/dev/oled_ssd130x.h ****     {
 126:../../libs/libDaisy/src/sys/../../../../libs/libDaisy/src/dev/oled_ssd130x.h ****         pin_dc_.Write(1);
 127:../../libs/libDaisy/src/sys/../../../../libs/libDaisy/src/dev/oled_ssd130x.h ****         spi_.BlockingTransmit(buff, size);
 128:../../libs/libDaisy/src/sys/../../../../libs/libDaisy/src/dev/oled_ssd130x.h ****     };
 129:../../libs/libDaisy/src/sys/../../../../libs/libDaisy/src/dev/oled_ssd130x.h **** 
 130:../../libs/libDaisy/src/sys/../../../../libs/libDaisy/src/dev/oled_ssd130x.h ****   private:
 131:../../libs/libDaisy/src/sys/../../../../libs/libDaisy/src/dev/oled_ssd130x.h ****     SpiHandle spi_;
 132:../../libs/libDaisy/src/sys/../../../../libs/libDaisy/src/dev/oled_ssd130x.h ****     GPIO      pin_reset_;
 133:../../libs/libDaisy/src/sys/../../../../libs/libDaisy/src/dev/oled_ssd130x.h ****     GPIO      pin_dc_;
 134:../../libs/libDaisy/src/sys/../../../../libs/libDaisy/src/dev/oled_ssd130x.h **** };
 135:../../libs/libDaisy/src/sys/../../../../libs/libDaisy/src/dev/oled_ssd130x.h **** 
 136:../../libs/libDaisy/src/sys/../../../../libs/libDaisy/src/dev/oled_ssd130x.h **** /**
 137:../../libs/libDaisy/src/sys/../../../../libs/libDaisy/src/dev/oled_ssd130x.h ****  * Soft SPI Transport for SSD1306 / SSD1309 OLED display devices
 138:../../libs/libDaisy/src/sys/../../../../libs/libDaisy/src/dev/oled_ssd130x.h ****  */
 139:../../libs/libDaisy/src/sys/../../../../libs/libDaisy/src/dev/oled_ssd130x.h **** class SSD130x4WireSoftSpiTransport
 140:../../libs/libDaisy/src/sys/../../../../libs/libDaisy/src/dev/oled_ssd130x.h **** {
 141:../../libs/libDaisy/src/sys/../../../../libs/libDaisy/src/dev/oled_ssd130x.h ****   public:
 142:../../libs/libDaisy/src/sys/../../../../libs/libDaisy/src/dev/oled_ssd130x.h ****     struct Config
 143:../../libs/libDaisy/src/sys/../../../../libs/libDaisy/src/dev/oled_ssd130x.h ****     {
 144:../../libs/libDaisy/src/sys/../../../../libs/libDaisy/src/dev/oled_ssd130x.h ****         Config()
 145:../../libs/libDaisy/src/sys/../../../../libs/libDaisy/src/dev/oled_ssd130x.h ****         {
 146:../../libs/libDaisy/src/sys/../../../../libs/libDaisy/src/dev/oled_ssd130x.h ****             // Initialize using defaults
 147:../../libs/libDaisy/src/sys/../../../../libs/libDaisy/src/dev/oled_ssd130x.h ****             Defaults();
 148:../../libs/libDaisy/src/sys/../../../../libs/libDaisy/src/dev/oled_ssd130x.h ****         }
 149:../../libs/libDaisy/src/sys/../../../../libs/libDaisy/src/dev/oled_ssd130x.h ****         struct
 150:../../libs/libDaisy/src/sys/../../../../libs/libDaisy/src/dev/oled_ssd130x.h ****         {
 151:../../libs/libDaisy/src/sys/../../../../libs/libDaisy/src/dev/oled_ssd130x.h ****             uint32_t sclk_delay;
 152:../../libs/libDaisy/src/sys/../../../../libs/libDaisy/src/dev/oled_ssd130x.h ****             Pin      sclk;
 153:../../libs/libDaisy/src/sys/../../../../libs/libDaisy/src/dev/oled_ssd130x.h ****             Pin      mosi;
 154:../../libs/libDaisy/src/sys/../../../../libs/libDaisy/src/dev/oled_ssd130x.h ****             Pin      dc;
 155:../../libs/libDaisy/src/sys/../../../../libs/libDaisy/src/dev/oled_ssd130x.h ****             Pin      reset;
 156:../../libs/libDaisy/src/sys/../../../../libs/libDaisy/src/dev/oled_ssd130x.h ****         } pin_config;
 157:../../libs/libDaisy/src/sys/../../../../libs/libDaisy/src/dev/oled_ssd130x.h ****         void Defaults()
 158:../../libs/libDaisy/src/sys/../../../../libs/libDaisy/src/dev/oled_ssd130x.h ****         {
 159:../../libs/libDaisy/src/sys/../../../../libs/libDaisy/src/dev/oled_ssd130x.h ****             pin_config.sclk_delay = 0; // fast as possible?!
 160:../../libs/libDaisy/src/sys/../../../../libs/libDaisy/src/dev/oled_ssd130x.h ****             // SPI peripheral config
 161:../../libs/libDaisy/src/sys/../../../../libs/libDaisy/src/dev/oled_ssd130x.h ****             pin_config.sclk = Pin(PORTD, 3); /**< D10 - SPI2 SCK  */
 162:../../libs/libDaisy/src/sys/../../../../libs/libDaisy/src/dev/oled_ssd130x.h ****             pin_config.mosi = Pin(PORTC, 3); /**< D9  - SPI2 MOSI */
 163:../../libs/libDaisy/src/sys/../../../../libs/libDaisy/src/dev/oled_ssd130x.h ****             // SSD130x control pin config
 164:../../libs/libDaisy/src/sys/../../../../libs/libDaisy/src/dev/oled_ssd130x.h ****             pin_config.dc    = Pin(PORTC, 11); //D2
 165:../../libs/libDaisy/src/sys/../../../../libs/libDaisy/src/dev/oled_ssd130x.h ****             pin_config.reset = Pin(PORTC, 10); //D3
 166:../../libs/libDaisy/src/sys/../../../../libs/libDaisy/src/dev/oled_ssd130x.h ****         }
ARM GAS  C:\Users\matte\AppData\Local\Temp\ccvehO0v.s 			page 20


 167:../../libs/libDaisy/src/sys/../../../../libs/libDaisy/src/dev/oled_ssd130x.h ****     };
 168:../../libs/libDaisy/src/sys/../../../../libs/libDaisy/src/dev/oled_ssd130x.h ****     void Init(const Config& config)
 169:../../libs/libDaisy/src/sys/../../../../libs/libDaisy/src/dev/oled_ssd130x.h ****     {
 170:../../libs/libDaisy/src/sys/../../../../libs/libDaisy/src/dev/oled_ssd130x.h ****         // Initialize both GPIO
 171:../../libs/libDaisy/src/sys/../../../../libs/libDaisy/src/dev/oled_ssd130x.h ****         pin_sclk_.Init(config.pin_config.sclk, GPIO::Mode::OUTPUT);
 172:../../libs/libDaisy/src/sys/../../../../libs/libDaisy/src/dev/oled_ssd130x.h ****         pin_sclk_.Write(1); //ClockPolarity::LOW
 173:../../libs/libDaisy/src/sys/../../../../libs/libDaisy/src/dev/oled_ssd130x.h ****         clk_delay = config.pin_config.sclk_delay;
 174:../../libs/libDaisy/src/sys/../../../../libs/libDaisy/src/dev/oled_ssd130x.h ****         pin_mosi_.Init(config.pin_config.mosi, GPIO::Mode::OUTPUT);
 175:../../libs/libDaisy/src/sys/../../../../libs/libDaisy/src/dev/oled_ssd130x.h ****         pin_mosi_.Write(0);
 176:../../libs/libDaisy/src/sys/../../../../libs/libDaisy/src/dev/oled_ssd130x.h **** 
 177:../../libs/libDaisy/src/sys/../../../../libs/libDaisy/src/dev/oled_ssd130x.h ****         pin_dc_.Init(config.pin_config.dc, GPIO::Mode::OUTPUT);
 178:../../libs/libDaisy/src/sys/../../../../libs/libDaisy/src/dev/oled_ssd130x.h ****         pin_reset_.Init(config.pin_config.reset, GPIO::Mode::OUTPUT);
 179:../../libs/libDaisy/src/sys/../../../../libs/libDaisy/src/dev/oled_ssd130x.h **** 
 180:../../libs/libDaisy/src/sys/../../../../libs/libDaisy/src/dev/oled_ssd130x.h ****         // Reset and Configure OLED.
 181:../../libs/libDaisy/src/sys/../../../../libs/libDaisy/src/dev/oled_ssd130x.h ****         pin_reset_.Write(0);
 182:../../libs/libDaisy/src/sys/../../../../libs/libDaisy/src/dev/oled_ssd130x.h ****         System::Delay(10);
 183:../../libs/libDaisy/src/sys/../../../../libs/libDaisy/src/dev/oled_ssd130x.h ****         pin_reset_.Write(1);
 184:../../libs/libDaisy/src/sys/../../../../libs/libDaisy/src/dev/oled_ssd130x.h ****         System::Delay(10);
 185:../../libs/libDaisy/src/sys/../../../../libs/libDaisy/src/dev/oled_ssd130x.h ****     };
 186:../../libs/libDaisy/src/sys/../../../../libs/libDaisy/src/dev/oled_ssd130x.h ****     void SendCommand(uint8_t cmd)
 187:../../libs/libDaisy/src/sys/../../../../libs/libDaisy/src/dev/oled_ssd130x.h ****     {
 188:../../libs/libDaisy/src/sys/../../../../libs/libDaisy/src/dev/oled_ssd130x.h ****         pin_dc_.Write(0);
 189:../../libs/libDaisy/src/sys/../../../../libs/libDaisy/src/dev/oled_ssd130x.h ****         SoftSpiTransmit(cmd);
 190:../../libs/libDaisy/src/sys/../../../../libs/libDaisy/src/dev/oled_ssd130x.h ****     };
 191:../../libs/libDaisy/src/sys/../../../../libs/libDaisy/src/dev/oled_ssd130x.h **** 
 192:../../libs/libDaisy/src/sys/../../../../libs/libDaisy/src/dev/oled_ssd130x.h ****     void SendData(uint8_t* buff, size_t size)
 193:../../libs/libDaisy/src/sys/../../../../libs/libDaisy/src/dev/oled_ssd130x.h ****     {
 194:../../libs/libDaisy/src/sys/../../../../libs/libDaisy/src/dev/oled_ssd130x.h ****         pin_dc_.Write(1);
 195:../../libs/libDaisy/src/sys/../../../../libs/libDaisy/src/dev/oled_ssd130x.h ****         for(size_t i = 0; i < size; i++)
 196:../../libs/libDaisy/src/sys/../../../../libs/libDaisy/src/dev/oled_ssd130x.h ****             SoftSpiTransmit(buff[i]);
 197:../../libs/libDaisy/src/sys/../../../../libs/libDaisy/src/dev/oled_ssd130x.h ****     };
 198:../../libs/libDaisy/src/sys/../../../../libs/libDaisy/src/dev/oled_ssd130x.h **** 
 199:../../libs/libDaisy/src/sys/../../../../libs/libDaisy/src/dev/oled_ssd130x.h ****   private:
 200:../../libs/libDaisy/src/sys/../../../../libs/libDaisy/src/dev/oled_ssd130x.h ****     void SoftSpiTransmit(uint8_t val)
 201:../../libs/libDaisy/src/sys/../../../../libs/libDaisy/src/dev/oled_ssd130x.h ****     {
 202:../../libs/libDaisy/src/sys/../../../../libs/libDaisy/src/dev/oled_ssd130x.h ****         // bit flip
 203:../../libs/libDaisy/src/sys/../../../../libs/libDaisy/src/dev/oled_ssd130x.h ****         val = ((val & 0x01) << 7) | ((val & 0x02) << 5) | ((val & 0x04) << 3)
 204:../../libs/libDaisy/src/sys/../../../../libs/libDaisy/src/dev/oled_ssd130x.h ****               | ((val & 0x08) << 1) | ((val & 0x10) >> 1) | ((val & 0x20) >> 3)
 205:../../libs/libDaisy/src/sys/../../../../libs/libDaisy/src/dev/oled_ssd130x.h ****               | ((val & 0x40) >> 5) | ((val & 0x80) >> 7);
 206:../../libs/libDaisy/src/sys/../../../../libs/libDaisy/src/dev/oled_ssd130x.h **** 
 207:../../libs/libDaisy/src/sys/../../../../libs/libDaisy/src/dev/oled_ssd130x.h ****         for(uint8_t bit = 0u; bit < 8u; bit++)
 208:../../libs/libDaisy/src/sys/../../../../libs/libDaisy/src/dev/oled_ssd130x.h ****         {
 209:../../libs/libDaisy/src/sys/../../../../libs/libDaisy/src/dev/oled_ssd130x.h ****             pin_mosi_.Write((val & (1 << bit)) ? 1 : 0);
 210:../../libs/libDaisy/src/sys/../../../../libs/libDaisy/src/dev/oled_ssd130x.h **** 
 211:../../libs/libDaisy/src/sys/../../../../libs/libDaisy/src/dev/oled_ssd130x.h ****             System::DelayTicks(clk_delay);
 212:../../libs/libDaisy/src/sys/../../../../libs/libDaisy/src/dev/oled_ssd130x.h **** 
 213:../../libs/libDaisy/src/sys/../../../../libs/libDaisy/src/dev/oled_ssd130x.h ****             pin_sclk_.Toggle();
 214:../../libs/libDaisy/src/sys/../../../../libs/libDaisy/src/dev/oled_ssd130x.h **** 
 215:../../libs/libDaisy/src/sys/../../../../libs/libDaisy/src/dev/oled_ssd130x.h ****             System::DelayTicks(clk_delay);
 216:../../libs/libDaisy/src/sys/../../../../libs/libDaisy/src/dev/oled_ssd130x.h **** 
 217:../../libs/libDaisy/src/sys/../../../../libs/libDaisy/src/dev/oled_ssd130x.h ****             pin_sclk_.Toggle();
 218:../../libs/libDaisy/src/sys/../../../../libs/libDaisy/src/dev/oled_ssd130x.h ****         }
 219:../../libs/libDaisy/src/sys/../../../../libs/libDaisy/src/dev/oled_ssd130x.h ****     }
 220:../../libs/libDaisy/src/sys/../../../../libs/libDaisy/src/dev/oled_ssd130x.h **** 
 221:../../libs/libDaisy/src/sys/../../../../libs/libDaisy/src/dev/oled_ssd130x.h ****     uint32_t clk_delay;
 222:../../libs/libDaisy/src/sys/../../../../libs/libDaisy/src/dev/oled_ssd130x.h ****     GPIO     pin_sclk_;
 223:../../libs/libDaisy/src/sys/../../../../libs/libDaisy/src/dev/oled_ssd130x.h ****     GPIO     pin_mosi_;
ARM GAS  C:\Users\matte\AppData\Local\Temp\ccvehO0v.s 			page 21


 224:../../libs/libDaisy/src/sys/../../../../libs/libDaisy/src/dev/oled_ssd130x.h ****     GPIO     pin_reset_;
 225:../../libs/libDaisy/src/sys/../../../../libs/libDaisy/src/dev/oled_ssd130x.h ****     GPIO     pin_dc_;
 226:../../libs/libDaisy/src/sys/../../../../libs/libDaisy/src/dev/oled_ssd130x.h **** };
 227:../../libs/libDaisy/src/sys/../../../../libs/libDaisy/src/dev/oled_ssd130x.h **** 
 228:../../libs/libDaisy/src/sys/../../../../libs/libDaisy/src/dev/oled_ssd130x.h **** 
 229:../../libs/libDaisy/src/sys/../../../../libs/libDaisy/src/dev/oled_ssd130x.h **** /**
 230:../../libs/libDaisy/src/sys/../../../../libs/libDaisy/src/dev/oled_ssd130x.h ****  * A driver implementation for the SSD1306/SSD1309
 231:../../libs/libDaisy/src/sys/../../../../libs/libDaisy/src/dev/oled_ssd130x.h ****  */
 232:../../libs/libDaisy/src/sys/../../../../libs/libDaisy/src/dev/oled_ssd130x.h **** template <size_t width, size_t height, typename Transport>
 233:../../libs/libDaisy/src/sys/../../../../libs/libDaisy/src/dev/oled_ssd130x.h **** class SSD130xDriver
 234:../../libs/libDaisy/src/sys/../../../../libs/libDaisy/src/dev/oled_ssd130x.h **** {
 235:../../libs/libDaisy/src/sys/../../../../libs/libDaisy/src/dev/oled_ssd130x.h ****   public:
 236:../../libs/libDaisy/src/sys/../../../../libs/libDaisy/src/dev/oled_ssd130x.h ****     struct Config
 237:../../libs/libDaisy/src/sys/../../../../libs/libDaisy/src/dev/oled_ssd130x.h ****     {
 238:../../libs/libDaisy/src/sys/../../../../libs/libDaisy/src/dev/oled_ssd130x.h ****         typename Transport::Config transport_config;
 239:../../libs/libDaisy/src/sys/../../../../libs/libDaisy/src/dev/oled_ssd130x.h ****     };
 240:../../libs/libDaisy/src/sys/../../../../libs/libDaisy/src/dev/oled_ssd130x.h **** 
 241:../../libs/libDaisy/src/sys/../../../../libs/libDaisy/src/dev/oled_ssd130x.h ****     void Init(Config config)
 242:../../libs/libDaisy/src/sys/../../../../libs/libDaisy/src/dev/oled_ssd130x.h ****     {
 243:../../libs/libDaisy/src/sys/../../../../libs/libDaisy/src/dev/oled_ssd130x.h ****         transport_.Init(config.transport_config);
 244:../../libs/libDaisy/src/sys/../../../../libs/libDaisy/src/dev/oled_ssd130x.h **** 
 245:../../libs/libDaisy/src/sys/../../../../libs/libDaisy/src/dev/oled_ssd130x.h ****         // Init routine...
 246:../../libs/libDaisy/src/sys/../../../../libs/libDaisy/src/dev/oled_ssd130x.h **** 
 247:../../libs/libDaisy/src/sys/../../../../libs/libDaisy/src/dev/oled_ssd130x.h ****         // Display Off
 248:../../libs/libDaisy/src/sys/../../../../libs/libDaisy/src/dev/oled_ssd130x.h ****         transport_.SendCommand(0xaE);
 249:../../libs/libDaisy/src/sys/../../../../libs/libDaisy/src/dev/oled_ssd130x.h ****         // Dimension dependent commands...
 250:../../libs/libDaisy/src/sys/../../../../libs/libDaisy/src/dev/oled_ssd130x.h ****         switch(height)
 251:../../libs/libDaisy/src/sys/../../../../libs/libDaisy/src/dev/oled_ssd130x.h ****         {
 252:../../libs/libDaisy/src/sys/../../../../libs/libDaisy/src/dev/oled_ssd130x.h ****             case 16:
 253:../../libs/libDaisy/src/sys/../../../../libs/libDaisy/src/dev/oled_ssd130x.h ****                 // Display Clock Divide Ratio
 254:../../libs/libDaisy/src/sys/../../../../libs/libDaisy/src/dev/oled_ssd130x.h ****                 transport_.SendCommand(0xD5);
 255:../../libs/libDaisy/src/sys/../../../../libs/libDaisy/src/dev/oled_ssd130x.h ****                 transport_.SendCommand(0x60);
 256:../../libs/libDaisy/src/sys/../../../../libs/libDaisy/src/dev/oled_ssd130x.h ****                 // Multiplex Ratio
 257:../../libs/libDaisy/src/sys/../../../../libs/libDaisy/src/dev/oled_ssd130x.h ****                 transport_.SendCommand(0xA8);
 258:../../libs/libDaisy/src/sys/../../../../libs/libDaisy/src/dev/oled_ssd130x.h ****                 transport_.SendCommand(0x0F);
 259:../../libs/libDaisy/src/sys/../../../../libs/libDaisy/src/dev/oled_ssd130x.h ****                 // COM Pins
 260:../../libs/libDaisy/src/sys/../../../../libs/libDaisy/src/dev/oled_ssd130x.h ****                 transport_.SendCommand(0xDA);
 261:../../libs/libDaisy/src/sys/../../../../libs/libDaisy/src/dev/oled_ssd130x.h ****                 transport_.SendCommand(0x02);
 262:../../libs/libDaisy/src/sys/../../../../libs/libDaisy/src/dev/oled_ssd130x.h ****                 break;
 263:../../libs/libDaisy/src/sys/../../../../libs/libDaisy/src/dev/oled_ssd130x.h ****             case 32:
 264:../../libs/libDaisy/src/sys/../../../../libs/libDaisy/src/dev/oled_ssd130x.h ****                 // Display Clock Divide Ratio
 265:../../libs/libDaisy/src/sys/../../../../libs/libDaisy/src/dev/oled_ssd130x.h ****                 transport_.SendCommand(0xD5);
 266:../../libs/libDaisy/src/sys/../../../../libs/libDaisy/src/dev/oled_ssd130x.h ****                 transport_.SendCommand(0x80);
 267:../../libs/libDaisy/src/sys/../../../../libs/libDaisy/src/dev/oled_ssd130x.h ****                 // Multiplex Ratio
 268:../../libs/libDaisy/src/sys/../../../../libs/libDaisy/src/dev/oled_ssd130x.h ****                 transport_.SendCommand(0xA8);
 269:../../libs/libDaisy/src/sys/../../../../libs/libDaisy/src/dev/oled_ssd130x.h ****                 transport_.SendCommand(0x1F);
 270:../../libs/libDaisy/src/sys/../../../../libs/libDaisy/src/dev/oled_ssd130x.h ****                 // COM Pins
 271:../../libs/libDaisy/src/sys/../../../../libs/libDaisy/src/dev/oled_ssd130x.h ****                 transport_.SendCommand(0xDA);
 272:../../libs/libDaisy/src/sys/../../../../libs/libDaisy/src/dev/oled_ssd130x.h ****                 if(width == 64)
 273:../../libs/libDaisy/src/sys/../../../../libs/libDaisy/src/dev/oled_ssd130x.h ****                 {
 274:../../libs/libDaisy/src/sys/../../../../libs/libDaisy/src/dev/oled_ssd130x.h ****                     transport_.SendCommand(0x12);
 275:../../libs/libDaisy/src/sys/../../../../libs/libDaisy/src/dev/oled_ssd130x.h ****                 }
 276:../../libs/libDaisy/src/sys/../../../../libs/libDaisy/src/dev/oled_ssd130x.h ****                 else
 277:../../libs/libDaisy/src/sys/../../../../libs/libDaisy/src/dev/oled_ssd130x.h ****                 {
 278:../../libs/libDaisy/src/sys/../../../../libs/libDaisy/src/dev/oled_ssd130x.h ****                     transport_.SendCommand(0x02);
 279:../../libs/libDaisy/src/sys/../../../../libs/libDaisy/src/dev/oled_ssd130x.h ****                 }
 280:../../libs/libDaisy/src/sys/../../../../libs/libDaisy/src/dev/oled_ssd130x.h **** 
ARM GAS  C:\Users\matte\AppData\Local\Temp\ccvehO0v.s 			page 22


 281:../../libs/libDaisy/src/sys/../../../../libs/libDaisy/src/dev/oled_ssd130x.h ****                 break;
 282:../../libs/libDaisy/src/sys/../../../../libs/libDaisy/src/dev/oled_ssd130x.h ****             case 48:
 283:../../libs/libDaisy/src/sys/../../../../libs/libDaisy/src/dev/oled_ssd130x.h ****                 // Display Clock Divide Ratio
 284:../../libs/libDaisy/src/sys/../../../../libs/libDaisy/src/dev/oled_ssd130x.h ****                 transport_.SendCommand(0xD5);
 285:../../libs/libDaisy/src/sys/../../../../libs/libDaisy/src/dev/oled_ssd130x.h ****                 transport_.SendCommand(0x80);
 286:../../libs/libDaisy/src/sys/../../../../libs/libDaisy/src/dev/oled_ssd130x.h ****                 // Multiplex Ratio
 287:../../libs/libDaisy/src/sys/../../../../libs/libDaisy/src/dev/oled_ssd130x.h ****                 transport_.SendCommand(0xA8);
 288:../../libs/libDaisy/src/sys/../../../../libs/libDaisy/src/dev/oled_ssd130x.h ****                 transport_.SendCommand(0x2F);
 289:../../libs/libDaisy/src/sys/../../../../libs/libDaisy/src/dev/oled_ssd130x.h ****                 // COM Pins
 290:../../libs/libDaisy/src/sys/../../../../libs/libDaisy/src/dev/oled_ssd130x.h ****                 transport_.SendCommand(0xDA);
 291:../../libs/libDaisy/src/sys/../../../../libs/libDaisy/src/dev/oled_ssd130x.h ****                 transport_.SendCommand(0x12);
 292:../../libs/libDaisy/src/sys/../../../../libs/libDaisy/src/dev/oled_ssd130x.h ****                 break;
 293:../../libs/libDaisy/src/sys/../../../../libs/libDaisy/src/dev/oled_ssd130x.h ****             default: // 128
 294:../../libs/libDaisy/src/sys/../../../../libs/libDaisy/src/dev/oled_ssd130x.h ****                 // Display Clock Divide Ratio
 295:../../libs/libDaisy/src/sys/../../../../libs/libDaisy/src/dev/oled_ssd130x.h ****                 transport_.SendCommand(0xD5);
 296:../../libs/libDaisy/src/sys/../../../../libs/libDaisy/src/dev/oled_ssd130x.h ****                 transport_.SendCommand(0x80);
 297:../../libs/libDaisy/src/sys/../../../../libs/libDaisy/src/dev/oled_ssd130x.h ****                 // Multiplex Ratio
 298:../../libs/libDaisy/src/sys/../../../../libs/libDaisy/src/dev/oled_ssd130x.h ****                 transport_.SendCommand(0xA8);
 299:../../libs/libDaisy/src/sys/../../../../libs/libDaisy/src/dev/oled_ssd130x.h ****                 transport_.SendCommand(0x3F);
 300:../../libs/libDaisy/src/sys/../../../../libs/libDaisy/src/dev/oled_ssd130x.h ****                 // COM Pins
 301:../../libs/libDaisy/src/sys/../../../../libs/libDaisy/src/dev/oled_ssd130x.h ****                 transport_.SendCommand(0xDA);
 302:../../libs/libDaisy/src/sys/../../../../libs/libDaisy/src/dev/oled_ssd130x.h ****                 transport_.SendCommand(0x12);
 303:../../libs/libDaisy/src/sys/../../../../libs/libDaisy/src/dev/oled_ssd130x.h ****                 break;
 304:../../libs/libDaisy/src/sys/../../../../libs/libDaisy/src/dev/oled_ssd130x.h ****         }
 305:../../libs/libDaisy/src/sys/../../../../libs/libDaisy/src/dev/oled_ssd130x.h **** 
 306:../../libs/libDaisy/src/sys/../../../../libs/libDaisy/src/dev/oled_ssd130x.h ****         // Display Offset
 307:../../libs/libDaisy/src/sys/../../../../libs/libDaisy/src/dev/oled_ssd130x.h ****         transport_.SendCommand(0xD3);
 308:../../libs/libDaisy/src/sys/../../../../libs/libDaisy/src/dev/oled_ssd130x.h ****         transport_.SendCommand(0x00);
 309:../../libs/libDaisy/src/sys/../../../../libs/libDaisy/src/dev/oled_ssd130x.h ****         // Start Line Address
 310:../../libs/libDaisy/src/sys/../../../../libs/libDaisy/src/dev/oled_ssd130x.h ****         transport_.SendCommand(0x40);
 311:../../libs/libDaisy/src/sys/../../../../libs/libDaisy/src/dev/oled_ssd130x.h ****         // Normal Display
 312:../../libs/libDaisy/src/sys/../../../../libs/libDaisy/src/dev/oled_ssd130x.h ****         transport_.SendCommand(0xA6);
 313:../../libs/libDaisy/src/sys/../../../../libs/libDaisy/src/dev/oled_ssd130x.h ****         // All On Resume
 314:../../libs/libDaisy/src/sys/../../../../libs/libDaisy/src/dev/oled_ssd130x.h ****         transport_.SendCommand(0xA4);
 315:../../libs/libDaisy/src/sys/../../../../libs/libDaisy/src/dev/oled_ssd130x.h ****         // Charge Pump
 316:../../libs/libDaisy/src/sys/../../../../libs/libDaisy/src/dev/oled_ssd130x.h ****         transport_.SendCommand(0x8D);
 317:../../libs/libDaisy/src/sys/../../../../libs/libDaisy/src/dev/oled_ssd130x.h ****         transport_.SendCommand(0x14);
 318:../../libs/libDaisy/src/sys/../../../../libs/libDaisy/src/dev/oled_ssd130x.h ****         // Set Segment Remap
 319:../../libs/libDaisy/src/sys/../../../../libs/libDaisy/src/dev/oled_ssd130x.h ****         transport_.SendCommand(0xA1);
 320:../../libs/libDaisy/src/sys/../../../../libs/libDaisy/src/dev/oled_ssd130x.h ****         // COM Output Scan Direction
 321:../../libs/libDaisy/src/sys/../../../../libs/libDaisy/src/dev/oled_ssd130x.h ****         transport_.SendCommand(0xC8);
 322:../../libs/libDaisy/src/sys/../../../../libs/libDaisy/src/dev/oled_ssd130x.h ****         // Contrast Control
 323:../../libs/libDaisy/src/sys/../../../../libs/libDaisy/src/dev/oled_ssd130x.h ****         transport_.SendCommand(0x81);
 324:../../libs/libDaisy/src/sys/../../../../libs/libDaisy/src/dev/oled_ssd130x.h ****         transport_.SendCommand(0x8F);
 325:../../libs/libDaisy/src/sys/../../../../libs/libDaisy/src/dev/oled_ssd130x.h ****         // Pre Charge
 326:../../libs/libDaisy/src/sys/../../../../libs/libDaisy/src/dev/oled_ssd130x.h ****         transport_.SendCommand(0xD9);
 327:../../libs/libDaisy/src/sys/../../../../libs/libDaisy/src/dev/oled_ssd130x.h ****         transport_.SendCommand(0x25);
 328:../../libs/libDaisy/src/sys/../../../../libs/libDaisy/src/dev/oled_ssd130x.h ****         // VCOM Detect
 329:../../libs/libDaisy/src/sys/../../../../libs/libDaisy/src/dev/oled_ssd130x.h ****         transport_.SendCommand(0xDB);
 330:../../libs/libDaisy/src/sys/../../../../libs/libDaisy/src/dev/oled_ssd130x.h ****         transport_.SendCommand(0x34);
 331:../../libs/libDaisy/src/sys/../../../../libs/libDaisy/src/dev/oled_ssd130x.h **** 
 332:../../libs/libDaisy/src/sys/../../../../libs/libDaisy/src/dev/oled_ssd130x.h **** 
 333:../../libs/libDaisy/src/sys/../../../../libs/libDaisy/src/dev/oled_ssd130x.h ****         // Display On
 334:../../libs/libDaisy/src/sys/../../../../libs/libDaisy/src/dev/oled_ssd130x.h ****         transport_.SendCommand(0xAF); //--turn on oled panel
 335:../../libs/libDaisy/src/sys/../../../../libs/libDaisy/src/dev/oled_ssd130x.h ****     };
 336:../../libs/libDaisy/src/sys/../../../../libs/libDaisy/src/dev/oled_ssd130x.h **** 
 337:../../libs/libDaisy/src/sys/../../../../libs/libDaisy/src/dev/oled_ssd130x.h ****     size_t Width() const { return width; };
ARM GAS  C:\Users\matte\AppData\Local\Temp\ccvehO0v.s 			page 23


 338:../../libs/libDaisy/src/sys/../../../../libs/libDaisy/src/dev/oled_ssd130x.h ****     size_t Height() const { return height; };
 339:../../libs/libDaisy/src/sys/../../../../libs/libDaisy/src/dev/oled_ssd130x.h **** 
 340:../../libs/libDaisy/src/sys/../../../../libs/libDaisy/src/dev/oled_ssd130x.h ****     void DrawPixel(uint_fast8_t x, uint_fast8_t y, bool on)
 341:../../libs/libDaisy/src/sys/../../../../libs/libDaisy/src/dev/oled_ssd130x.h ****     {
 342:../../libs/libDaisy/src/sys/../../../../libs/libDaisy/src/dev/oled_ssd130x.h ****         if(x >= width || y >= height)
 343:../../libs/libDaisy/src/sys/../../../../libs/libDaisy/src/dev/oled_ssd130x.h ****             return;
 344:../../libs/libDaisy/src/sys/../../../../libs/libDaisy/src/dev/oled_ssd130x.h ****         if(on)
 345:../../libs/libDaisy/src/sys/../../../../libs/libDaisy/src/dev/oled_ssd130x.h ****             buffer_[x + (y / 8) * width] |= (1 << (y % 8));
 346:../../libs/libDaisy/src/sys/../../../../libs/libDaisy/src/dev/oled_ssd130x.h ****         else
 347:../../libs/libDaisy/src/sys/../../../../libs/libDaisy/src/dev/oled_ssd130x.h ****             buffer_[x + (y / 8) * width] &= ~(1 << (y % 8));
 348:../../libs/libDaisy/src/sys/../../../../libs/libDaisy/src/dev/oled_ssd130x.h ****     }
 349:../../libs/libDaisy/src/sys/../../../../libs/libDaisy/src/dev/oled_ssd130x.h **** 
 350:../../libs/libDaisy/src/sys/../../../../libs/libDaisy/src/dev/oled_ssd130x.h ****     void Fill(bool on)
 227              		.loc 11 350 10 view .LVU28
 228              	.LBB631:
 351:../../libs/libDaisy/src/sys/../../../../libs/libDaisy/src/dev/oled_ssd130x.h ****     {
 352:../../libs/libDaisy/src/sys/../../../../libs/libDaisy/src/dev/oled_ssd130x.h ****         for(size_t i = 0; i < sizeof(buffer_); i++)
 229              		.loc 11 352 29 view .LVU29
 353:../../libs/libDaisy/src/sys/../../../../libs/libDaisy/src/dev/oled_ssd130x.h ****         {
 354:../../libs/libDaisy/src/sys/../../../../libs/libDaisy/src/dev/oled_ssd130x.h ****             buffer_[i] = on ? 0xff : 0x00;
 230              		.loc 11 354 24 is_stmt 0 view .LVU30
 231 0000 4942     		rsbs	r1, r1, #0
 232              	.LVL9:
 233              		.loc 11 354 24 view .LVU31
 234 0002 4FF48062 		mov	r2, #1024
 235 0006 1030     		adds	r0, r0, #16
 236              	.LVL10:
 237              		.loc 11 354 24 view .LVU32
 238 0008 C9B2     		uxtb	r1, r1
 239 000a FFF7FEBF 		b	memset
 240              	.LVL11:
 241              		.loc 11 354 24 view .LVU33
 242              	.LBE631:
 243              	.LBE630:
 244              		.cfi_endproc
 245              	.LFE5473:
 247 000e 00BF     		.section	.text._ZN5daisy6Mpr121INS_18Mpr121I2CTransportEED2Ev,"axG",%progbits,_ZN5daisy6Mpr121INS_
 248              		.align	1
 249              		.p2align 2,,3
 250              		.weak	_ZN5daisy6Mpr121INS_18Mpr121I2CTransportEED2Ev
 251              		.syntax unified
 252              		.thumb
 253              		.thumb_func
 254              		.fpu fpv5-d16
 256              	_ZN5daisy6Mpr121INS_18Mpr121I2CTransportEED2Ev:
 257              	.LVL12:
 258              	.LFB5483:
 259              		.file 12 "../../libs/libDaisy/src/dev/mpr121.h"
   1:../../libs/libDaisy/src/dev/mpr121.h **** #pragma once
   2:../../libs/libDaisy/src/dev/mpr121.h **** #ifndef DSY_MPR121_H
   3:../../libs/libDaisy/src/dev/mpr121.h **** #define DSY_MPR121_H
   4:../../libs/libDaisy/src/dev/mpr121.h **** 
   5:../../libs/libDaisy/src/dev/mpr121.h **** // The default I2C address
   6:../../libs/libDaisy/src/dev/mpr121.h **** #define MPR121_I2CADDR_DEFAULT 0x5A        ///< default I2C address
   7:../../libs/libDaisy/src/dev/mpr121.h **** #define MPR121_TOUCH_THRESHOLD_DEFAULT 2  ///< default touch threshold value
   8:../../libs/libDaisy/src/dev/mpr121.h **** #define MPR121_RELEASE_THRESHOLD_DEFAULT 1 ///< default relese threshold value
   9:../../libs/libDaisy/src/dev/mpr121.h **** namespace daisy
ARM GAS  C:\Users\matte\AppData\Local\Temp\ccvehO0v.s 			page 24


  10:../../libs/libDaisy/src/dev/mpr121.h **** {
  11:../../libs/libDaisy/src/dev/mpr121.h **** /** @addtogroup external 
  12:../../libs/libDaisy/src/dev/mpr121.h ****     @{ 
  13:../../libs/libDaisy/src/dev/mpr121.h **** */
  14:../../libs/libDaisy/src/dev/mpr121.h **** 
  15:../../libs/libDaisy/src/dev/mpr121.h **** /** I2C Transport for MPR121 */
  16:../../libs/libDaisy/src/dev/mpr121.h **** class Mpr121I2CTransport
  17:../../libs/libDaisy/src/dev/mpr121.h **** {
  18:../../libs/libDaisy/src/dev/mpr121.h ****   public:
  19:../../libs/libDaisy/src/dev/mpr121.h ****     Mpr121I2CTransport() {}
  20:../../libs/libDaisy/src/dev/mpr121.h ****     ~Mpr121I2CTransport() {}
  21:../../libs/libDaisy/src/dev/mpr121.h **** 
  22:../../libs/libDaisy/src/dev/mpr121.h ****     struct Config
  23:../../libs/libDaisy/src/dev/mpr121.h ****     {
  24:../../libs/libDaisy/src/dev/mpr121.h ****         I2CHandle::Config::Peripheral periph;
  25:../../libs/libDaisy/src/dev/mpr121.h ****         I2CHandle::Config::Speed      speed;
  26:../../libs/libDaisy/src/dev/mpr121.h ****         Pin                           scl;
  27:../../libs/libDaisy/src/dev/mpr121.h ****         Pin                           sda;
  28:../../libs/libDaisy/src/dev/mpr121.h **** 
  29:../../libs/libDaisy/src/dev/mpr121.h ****         I2CHandle::Config::Mode mode;
  30:../../libs/libDaisy/src/dev/mpr121.h **** 
  31:../../libs/libDaisy/src/dev/mpr121.h ****         uint8_t dev_addr;
  32:../../libs/libDaisy/src/dev/mpr121.h **** 
  33:../../libs/libDaisy/src/dev/mpr121.h ****         Config()
  34:../../libs/libDaisy/src/dev/mpr121.h ****         {
  35:../../libs/libDaisy/src/dev/mpr121.h ****             periph = I2CHandle::Config::Peripheral::I2C_1;
  36:../../libs/libDaisy/src/dev/mpr121.h ****             speed  = I2CHandle::Config::Speed::I2C_400KHZ;
  37:../../libs/libDaisy/src/dev/mpr121.h **** 
  38:../../libs/libDaisy/src/dev/mpr121.h ****             scl = Pin(PORTB, 8);
  39:../../libs/libDaisy/src/dev/mpr121.h ****             sda = Pin(PORTB, 9);
  40:../../libs/libDaisy/src/dev/mpr121.h **** 
  41:../../libs/libDaisy/src/dev/mpr121.h ****             dev_addr = MPR121_I2CADDR_DEFAULT;
  42:../../libs/libDaisy/src/dev/mpr121.h ****         }
  43:../../libs/libDaisy/src/dev/mpr121.h ****     };
  44:../../libs/libDaisy/src/dev/mpr121.h **** 
  45:../../libs/libDaisy/src/dev/mpr121.h ****     /** \return Did the transaction error? i.e. Return true if error, false if ok */
  46:../../libs/libDaisy/src/dev/mpr121.h ****     inline bool Init(Config config)
  47:../../libs/libDaisy/src/dev/mpr121.h ****     {
  48:../../libs/libDaisy/src/dev/mpr121.h ****         config_ = config;
  49:../../libs/libDaisy/src/dev/mpr121.h **** 
  50:../../libs/libDaisy/src/dev/mpr121.h ****         I2CHandle::Config i2c_conf;
  51:../../libs/libDaisy/src/dev/mpr121.h ****         i2c_conf.mode   = I2CHandle::Config::Mode::I2C_MASTER;
  52:../../libs/libDaisy/src/dev/mpr121.h ****         i2c_conf.periph = config.periph;
  53:../../libs/libDaisy/src/dev/mpr121.h ****         i2c_conf.speed  = config.speed;
  54:../../libs/libDaisy/src/dev/mpr121.h **** 
  55:../../libs/libDaisy/src/dev/mpr121.h ****         i2c_conf.pin_config.scl = config.scl;
  56:../../libs/libDaisy/src/dev/mpr121.h ****         i2c_conf.pin_config.sda = config.sda;
  57:../../libs/libDaisy/src/dev/mpr121.h **** 
  58:../../libs/libDaisy/src/dev/mpr121.h ****         return I2CHandle::Result::OK != i2c_.Init(i2c_conf);
  59:../../libs/libDaisy/src/dev/mpr121.h ****     }
  60:../../libs/libDaisy/src/dev/mpr121.h **** 
  61:../../libs/libDaisy/src/dev/mpr121.h ****     /** \return Did the transaction error? i.e. Return true if error, false if ok */
  62:../../libs/libDaisy/src/dev/mpr121.h ****     bool Write(uint8_t *data, uint16_t size)
  63:../../libs/libDaisy/src/dev/mpr121.h ****     {
  64:../../libs/libDaisy/src/dev/mpr121.h ****         return I2CHandle::Result::OK
  65:../../libs/libDaisy/src/dev/mpr121.h ****                != i2c_.TransmitBlocking(config_.dev_addr, data, size, 10);
  66:../../libs/libDaisy/src/dev/mpr121.h ****     }
ARM GAS  C:\Users\matte\AppData\Local\Temp\ccvehO0v.s 			page 25


  67:../../libs/libDaisy/src/dev/mpr121.h **** 
  68:../../libs/libDaisy/src/dev/mpr121.h ****     /** \return Did the transaction error? i.e. Return true if error, false if ok */
  69:../../libs/libDaisy/src/dev/mpr121.h ****     bool Read(uint8_t *data, uint16_t size)
  70:../../libs/libDaisy/src/dev/mpr121.h ****     {
  71:../../libs/libDaisy/src/dev/mpr121.h ****         return I2CHandle::Result::OK
  72:../../libs/libDaisy/src/dev/mpr121.h ****                != i2c_.ReceiveBlocking(config_.dev_addr, data, size, 10);
  73:../../libs/libDaisy/src/dev/mpr121.h ****     }
  74:../../libs/libDaisy/src/dev/mpr121.h ****     bool ReadMem(uint8_t *data, uint8_t memAddress, uint16_t memSize)
  75:../../libs/libDaisy/src/dev/mpr121.h ****     {
  76:../../libs/libDaisy/src/dev/mpr121.h ****        return I2CHandle::Result::OK
  77:../../libs/libDaisy/src/dev/mpr121.h ****               != i2c_.Mem_read(
  78:../../libs/libDaisy/src/dev/mpr121.h ****                    config_.dev_addr, 
  79:../../libs/libDaisy/src/dev/mpr121.h ****                    memAddress,
  80:../../libs/libDaisy/src/dev/mpr121.h ****                    1,
  81:../../libs/libDaisy/src/dev/mpr121.h ****                    data,
  82:../../libs/libDaisy/src/dev/mpr121.h ****                    memSize,
  83:../../libs/libDaisy/src/dev/mpr121.h ****                    10);
  84:../../libs/libDaisy/src/dev/mpr121.h ****    }
  85:../../libs/libDaisy/src/dev/mpr121.h ****   private:
  86:../../libs/libDaisy/src/dev/mpr121.h ****     I2CHandle i2c_;
  87:../../libs/libDaisy/src/dev/mpr121.h ****     Config    config_;
  88:../../libs/libDaisy/src/dev/mpr121.h **** };
  89:../../libs/libDaisy/src/dev/mpr121.h **** 
  90:../../libs/libDaisy/src/dev/mpr121.h **** 
  91:../../libs/libDaisy/src/dev/mpr121.h **** /** @brief Device support for MPR121 12x Capacitive Touch Sensor
  92:../../libs/libDaisy/src/dev/mpr121.h ****     @author beserge
  93:../../libs/libDaisy/src/dev/mpr121.h ****     @date December 2021
  94:../../libs/libDaisy/src/dev/mpr121.h **** */
  95:../../libs/libDaisy/src/dev/mpr121.h **** template <typename Transport>
  96:../../libs/libDaisy/src/dev/mpr121.h **** class Mpr121
  97:../../libs/libDaisy/src/dev/mpr121.h **** {
  98:../../libs/libDaisy/src/dev/mpr121.h ****   public:
  99:../../libs/libDaisy/src/dev/mpr121.h ****     Mpr121() {}
 100:../../libs/libDaisy/src/dev/mpr121.h ****     ~Mpr121() {}
 260              		.loc 12 100 5 is_stmt 1 view -0
 261              		.cfi_startproc
 262              		@ args = 0, pretend = 0, frame = 0
 263              		@ frame_needed = 0, uses_anonymous_args = 0
 264              		@ link register save eliminated.
 265              	.LBB632:
 266              	.LBI632:
  20:../../libs/libDaisy/src/dev/mpr121.h **** 
 267              		.loc 12 20 5 view .LVU35
  20:../../libs/libDaisy/src/dev/mpr121.h **** 
 268              		.loc 12 20 5 is_stmt 0 view .LVU36
 269              	.LBE632:
 270              		.loc 12 100 16 view .LVU37
 271 0000 7047     		bx	lr
 272              		.cfi_endproc
 273              	.LFE5483:
 275              		.weak	_ZN5daisy6Mpr121INS_18Mpr121I2CTransportEED1Ev
 276              		.thumb_set _ZN5daisy6Mpr121INS_18Mpr121I2CTransportEED1Ev,_ZN5daisy6Mpr121INS_18Mpr121I2CTransport
 277 0002 00BF     		.section	.text._ZL13AudioCallbackPKfPfj,"ax",%progbits
 278              		.align	1
 279              		.p2align 2,,3
 280              		.syntax unified
 281              		.thumb
ARM GAS  C:\Users\matte\AppData\Local\Temp\ccvehO0v.s 			page 26


 282              		.thumb_func
 283              		.fpu fpv5-d16
 285              	_ZL13AudioCallbackPKfPfj:
 286              	.LVL13:
 287              	.LFB4863:
 288              		.file 13 "main.cpp"
   1:main.cpp      **** // CURVE TYPE PINS ARE:
   2:main.cpp      **** // ADC0 -> 22
   3:main.cpp      **** // ADC1 -> 23
   4:main.cpp      **** 
   5:main.cpp      **** #include "../../libs/libDaisy/src/daisy_seed.h"
   6:main.cpp      **** #include "../../libs/DaisySP/Source/daisysp.h"
   7:main.cpp      **** #include "../../Classes/Temperamento/PlantConditioner.h"
   8:main.cpp      **** #include "../../Classes/Effects/AnalogDelay/src/AnalogDelay.h"
   9:main.cpp      **** #include "displayHandler.hpp"
  10:main.cpp      **** 
  11:main.cpp      **** 
  12:main.cpp      **** #ifndef _BV
  13:main.cpp      **** #define _BV(bit) (1 << (bit))
  14:main.cpp      **** #endif
  15:main.cpp      **** #define ADC_CH 2 // Numero di canali ADC da utilizzare
  16:main.cpp      **** //#define DEBUG
  17:main.cpp      **** //#define csvAcquisition
  18:main.cpp      **** 
  19:main.cpp      **** 
  20:main.cpp      **** 
  21:main.cpp      **** using namespace daisy;
  22:main.cpp      **** using namespace daisysp;
  23:main.cpp      **** 
  24:main.cpp      **** daisy::Mpr121I2C::Config mpr121ObjConf; // creates config for mpr121 (constructor sets all to deafu
  25:main.cpp      **** daisy::Mpr121I2C cap;                   // creates object for mpr121ù
  26:main.cpp      **** 
  27:main.cpp      **** DaisySeed hw;
  28:main.cpp      **** AdcChannelConfig adcConfig[ADC_CH];
  29:main.cpp      **** 
  30:main.cpp      **** PlantConditioner pc;
  31:main.cpp      **** 
  32:main.cpp      **** static Oscillator osc;     
  33:main.cpp      **** float f = 0.0f;     
  34:main.cpp      **** bool gate = false;  
  35:main.cpp      **** 
  36:main.cpp      **** 
  37:main.cpp      **** bool flag = false; // used for debug printing
  38:main.cpp      **** int k = 0;        // used for debug printing
  39:main.cpp      **** 
  40:main.cpp      **** static Adsr env;
  41:main.cpp      **** 
  42:main.cpp      **** 
  43:main.cpp      **** uint16_t lastTouched = 0;                               // last touched value
  44:main.cpp      **** uint16_t currTouched = 0;                               // current touched value                   
  45:main.cpp      **** 
  46:main.cpp      **** 
  47:main.cpp      **** float output = 0.0f; // used to store the output value
  48:main.cpp      **** 
  49:main.cpp      **** // true display object
  50:main.cpp      **** MyOledDisplay realDisp;
  51:main.cpp      **** 
ARM GAS  C:\Users\matte\AppData\Local\Temp\ccvehO0v.s 			page 27


  52:main.cpp      **** // display wrapper
  53:main.cpp      **** DisplayHandler disp1 (&realDisp);
  54:main.cpp      **** 
  55:main.cpp      **** 
  56:main.cpp      **** static void AudioCallback(AudioHandle::InterleavingInputBuffer in, AudioHandle::InterleavingOutputB
  57:main.cpp      **** {
 289              		.loc 13 57 1 is_stmt 1 view -0
 290              		.cfi_startproc
 291              		@ args = 0, pretend = 0, frame = 0
 292              		@ frame_needed = 0, uses_anonymous_args = 0
  58:main.cpp      ****   float envOut, oscOut;
 293              		.loc 13 58 3 view .LVU39
  59:main.cpp      ****   for (size_t i = 0; i < size; i += 2)
 294              		.loc 13 59 3 view .LVU40
 295              	.LBB633:
 296              		.loc 13 59 24 view .LVU41
 297 0000 62B3     		cbz	r2, .L18
 298 0002 013A     		subs	r2, r2, #1
 299              	.LVL14:
 300              		.loc 13 59 24 is_stmt 0 view .LVU42
 301              	.LBE633:
  57:main.cpp      ****   float envOut, oscOut;
 302              		.loc 13 57 1 view .LVU43
 303 0004 2DE9F041 		push	{r4, r5, r6, r7, r8, lr}
 304              		.cfi_def_cfa_offset 24
 305              		.cfi_offset 4, -24
 306              		.cfi_offset 5, -20
 307              		.cfi_offset 6, -16
 308              		.cfi_offset 7, -12
 309              		.cfi_offset 8, -8
 310              		.cfi_offset 14, -4
 311 0008 0C46     		mov	r4, r1
 312              	.LBB638:
 313              		.loc 13 59 24 view .LVU44
 314 000a 0025     		movs	r5, #0
 315 000c DFF85C80 		ldr	r8, .L21+12
 316 0010 5608     		lsrs	r6, r2, #1
 317 0012 134F     		ldr	r7, .L21
 318              	.LBE638:
  57:main.cpp      ****   float envOut, oscOut;
 319              		.loc 13 57 1 view .LVU45
 320 0014 2DED028B 		vpush.64	{d8}
 321              		.cfi_def_cfa_offset 32
 322              		.cfi_offset 80, -32
 323              		.cfi_offset 81, -28
 324              	.LVL15:
 325              	.L12:
 326              	.LBB639:
  60:main.cpp      ****   {
  61:main.cpp      **** 
  62:main.cpp      ****     envOut = env.Process(gate); 
 327              		.loc 13 62 5 is_stmt 1 discriminator 2 view .LVU46
 328              		.loc 13 62 25 is_stmt 0 discriminator 2 view .LVU47
 329 0018 98F80010 		ldrb	r1, [r8]	@ zero_extendqisi2
 330 001c 1148     		ldr	r0, .L21+4
 331 001e FFF7FEFF 		bl	_ZN7daisysp4Adsr7ProcessEb
 332              	.LVL16:
ARM GAS  C:\Users\matte\AppData\Local\Temp\ccvehO0v.s 			page 28


  63:main.cpp      ****     osc.SetAmp(envOut);
 333              		.loc 13 63 5 is_stmt 1 discriminator 2 view .LVU48
 334              	.LBB634:
 335              	.LBI634:
  25:../../libs/DaisySP/Source/Synthesis/oscillator.h ****     /** Choices for output waveforms, POLYBLEP are appropriately labeled. Others are naive forms.
  26:../../libs/DaisySP/Source/Synthesis/oscillator.h ****     */
  27:../../libs/DaisySP/Source/Synthesis/oscillator.h ****     enum
  28:../../libs/DaisySP/Source/Synthesis/oscillator.h ****     {
  29:../../libs/DaisySP/Source/Synthesis/oscillator.h ****         WAVE_SIN,
  30:../../libs/DaisySP/Source/Synthesis/oscillator.h ****         WAVE_TRI,
  31:../../libs/DaisySP/Source/Synthesis/oscillator.h ****         WAVE_SAW,
  32:../../libs/DaisySP/Source/Synthesis/oscillator.h ****         WAVE_RAMP,
  33:../../libs/DaisySP/Source/Synthesis/oscillator.h ****         WAVE_SQUARE,
  34:../../libs/DaisySP/Source/Synthesis/oscillator.h ****         WAVE_POLYBLEP_TRI,
  35:../../libs/DaisySP/Source/Synthesis/oscillator.h ****         WAVE_POLYBLEP_SAW,
  36:../../libs/DaisySP/Source/Synthesis/oscillator.h ****         WAVE_POLYBLEP_SQUARE,
  37:../../libs/DaisySP/Source/Synthesis/oscillator.h ****         WAVE_LAST,
  38:../../libs/DaisySP/Source/Synthesis/oscillator.h ****     };
  39:../../libs/DaisySP/Source/Synthesis/oscillator.h **** 
  40:../../libs/DaisySP/Source/Synthesis/oscillator.h **** 
  41:../../libs/DaisySP/Source/Synthesis/oscillator.h ****     /** Initializes the Oscillator
  42:../../libs/DaisySP/Source/Synthesis/oscillator.h **** 
  43:../../libs/DaisySP/Source/Synthesis/oscillator.h ****         \param sample_rate - sample rate of the audio engine being run, and the frequency that the 
  44:../../libs/DaisySP/Source/Synthesis/oscillator.h **** 
  45:../../libs/DaisySP/Source/Synthesis/oscillator.h ****         Defaults:
  46:../../libs/DaisySP/Source/Synthesis/oscillator.h ****         - freq_ = 100 Hz
  47:../../libs/DaisySP/Source/Synthesis/oscillator.h ****         - amp_ = 0.5
  48:../../libs/DaisySP/Source/Synthesis/oscillator.h ****         - waveform_ = sine wave.
  49:../../libs/DaisySP/Source/Synthesis/oscillator.h ****     */
  50:../../libs/DaisySP/Source/Synthesis/oscillator.h ****     void Init(float sample_rate)
  51:../../libs/DaisySP/Source/Synthesis/oscillator.h ****     {
  52:../../libs/DaisySP/Source/Synthesis/oscillator.h ****         sr_        = sample_rate;
  53:../../libs/DaisySP/Source/Synthesis/oscillator.h ****         sr_recip_  = 1.0f / sample_rate;
  54:../../libs/DaisySP/Source/Synthesis/oscillator.h ****         freq_      = 100.0f;
  55:../../libs/DaisySP/Source/Synthesis/oscillator.h ****         amp_       = 0.5f;
  56:../../libs/DaisySP/Source/Synthesis/oscillator.h ****         pw_        = 0.5f;
  57:../../libs/DaisySP/Source/Synthesis/oscillator.h ****         phase_     = 0.0f;
  58:../../libs/DaisySP/Source/Synthesis/oscillator.h ****         phase_inc_ = CalcPhaseInc(freq_);
  59:../../libs/DaisySP/Source/Synthesis/oscillator.h ****         waveform_  = WAVE_SIN;
  60:../../libs/DaisySP/Source/Synthesis/oscillator.h ****         eoc_       = true;
  61:../../libs/DaisySP/Source/Synthesis/oscillator.h ****         eor_       = true;
  62:../../libs/DaisySP/Source/Synthesis/oscillator.h ****     }
  63:../../libs/DaisySP/Source/Synthesis/oscillator.h **** 
  64:../../libs/DaisySP/Source/Synthesis/oscillator.h **** 
  65:../../libs/DaisySP/Source/Synthesis/oscillator.h ****     /** Changes the frequency of the Oscillator, and recalculates phase increment.
  66:../../libs/DaisySP/Source/Synthesis/oscillator.h ****     */
  67:../../libs/DaisySP/Source/Synthesis/oscillator.h ****     inline void SetFreq(const float f)
  68:../../libs/DaisySP/Source/Synthesis/oscillator.h ****     {
  69:../../libs/DaisySP/Source/Synthesis/oscillator.h ****         freq_      = f;
  70:../../libs/DaisySP/Source/Synthesis/oscillator.h ****         phase_inc_ = CalcPhaseInc(f);
  71:../../libs/DaisySP/Source/Synthesis/oscillator.h ****     }
  72:../../libs/DaisySP/Source/Synthesis/oscillator.h **** 
  73:../../libs/DaisySP/Source/Synthesis/oscillator.h **** 
  74:../../libs/DaisySP/Source/Synthesis/oscillator.h ****     /** Sets the amplitude of the waveform.
  75:../../libs/DaisySP/Source/Synthesis/oscillator.h ****     */
  76:../../libs/DaisySP/Source/Synthesis/oscillator.h ****     inline void SetAmp(const float a) { amp_ = a; }
 336              		.loc 8 76 17 discriminator 2 view .LVU49
ARM GAS  C:\Users\matte\AppData\Local\Temp\ccvehO0v.s 			page 29


 337              	.LBB635:
 338              		.loc 8 76 41 discriminator 2 view .LVU50
 339              	.LBE635:
 340              	.LBE634:
  64:main.cpp      **** 
  65:main.cpp      ****     oscOut = osc.Process();
 341              		.loc 13 65 25 is_stmt 0 discriminator 2 view .LVU51
 342 0022 0F48     		ldr	r0, .L21
 343              	.LBB637:
 344              	.LBB636:
 345              		.loc 8 76 46 discriminator 2 view .LVU52
 346 0024 87ED010A 		vstr.32	s0, [r7, #4]
 347              	.LVL17:
 348              		.loc 8 76 46 discriminator 2 view .LVU53
 349              	.LBE636:
 350              	.LBE637:
 351              		.loc 13 65 5 is_stmt 1 discriminator 2 view .LVU54
 352              		.loc 13 65 25 is_stmt 0 discriminator 2 view .LVU55
 353 0028 FFF7FEFF 		bl	_ZN7daisysp10Oscillator7ProcessEv
 354              	.LVL18:
  66:main.cpp      ****     disp1.pushAudioSample (oscOut/1.25);
 355              		.loc 13 66 27 discriminator 2 view .LVU56
 356 002c F7EE047A 		vmov.f32	s15, #1.25e+0
 357 0030 0D48     		ldr	r0, .L21+8
  65:main.cpp      ****     disp1.pushAudioSample (oscOut/1.25);
 358              		.loc 13 65 25 discriminator 2 view .LVU57
 359 0032 B0EE408A 		vmov.f32	s16, s0
 360              	.LVL19:
 361              		.loc 13 66 5 is_stmt 1 discriminator 2 view .LVU58
 362              		.loc 13 66 27 is_stmt 0 discriminator 2 view .LVU59
 363 0036 88EE270A 		vdiv.f32	s0, s16, s15
 364              	.LVL20:
 365              		.loc 13 66 27 discriminator 2 view .LVU60
 366 003a FFF7FEFF 		bl	_ZN14DisplayHandler15pushAudioSampleEf
 367              	.LVL21:
  67:main.cpp      ****     out[i] = out[i + 1] = oscOut;               // outputs the same value to left and right channel
 368              		.loc 13 67 5 is_stmt 1 discriminator 2 view .LVU61
 369              		.loc 13 67 12 is_stmt 0 discriminator 2 view .LVU62
 370 003e 2246     		mov	r2, r4
  59:main.cpp      ****   {
 371              		.loc 13 59 24 discriminator 2 view .LVU63
 372 0040 AE42     		cmp	r6, r5
 373              		.loc 13 67 25 discriminator 2 view .LVU64
 374 0042 84ED018A 		vstr.32	s16, [r4, #4]
  59:main.cpp      ****   {
 375              		.loc 13 59 24 discriminator 2 view .LVU65
 376 0046 05F10105 		add	r5, r5, #1
 377              	.LVL22:
 378              		.loc 13 67 12 discriminator 2 view .LVU66
 379 004a 04F10804 		add	r4, r4, #8
 380 004e 82ED008A 		vstr.32	s16, [r2]
  59:main.cpp      ****   {
 381              		.loc 13 59 3 is_stmt 1 discriminator 2 view .LVU67
 382              	.LVL23:
  59:main.cpp      ****   {
 383              		.loc 13 59 24 discriminator 2 view .LVU68
 384 0052 E1D1     		bne	.L12
ARM GAS  C:\Users\matte\AppData\Local\Temp\ccvehO0v.s 			page 30


 385              	.LBE639:
  68:main.cpp      ****   }
  69:main.cpp      **** }
 386              		.loc 13 69 1 is_stmt 0 view .LVU69
 387 0054 BDEC028B 		vldm	sp!, {d8}
 388              		.cfi_restore 80
 389              		.cfi_restore 81
 390              		.cfi_def_cfa_offset 24
 391              	.LVL24:
 392              		.loc 13 69 1 view .LVU70
 393 0058 BDE8F081 		pop	{r4, r5, r6, r7, r8, pc}
 394              	.LVL25:
 395              	.L18:
 396              		.cfi_def_cfa_offset 0
 397              		.cfi_restore 4
 398              		.cfi_restore 5
 399              		.cfi_restore 6
 400              		.cfi_restore 7
 401              		.cfi_restore 8
 402              		.cfi_restore 14
 403              		.loc 13 69 1 view .LVU71
 404 005c 7047     		bx	lr
 405              	.L22:
 406 005e 00BF     		.align	2
 407              	.L21:
 408 0060 00000000 		.word	.LANCHOR2
 409 0064 00000000 		.word	.LANCHOR1
 410 0068 00000000 		.word	.LANCHOR3
 411 006c 00000000 		.word	.LANCHOR0
 412              		.cfi_endproc
 413              	.LFE4863:
 415              		.section	.text._ZN5daisy11OledDisplayINS_13SSD130xDriverILj128ELj64ENS_19SSD130xI2CTransportEEEED0
 416              		.align	1
 417              		.p2align 2,,3
 418              		.weak	_ZN5daisy11OledDisplayINS_13SSD130xDriverILj128ELj64ENS_19SSD130xI2CTransportEEEED0Ev
 419              		.syntax unified
 420              		.thumb
 421              		.thumb_func
 422              		.fpu fpv5-d16
 424              	_ZN5daisy11OledDisplayINS_13SSD130xDriverILj128ELj64ENS_19SSD130xI2CTransportEEEED0Ev:
 425              	.LVL26:
 426              	.LFB5470:
  18:../../libs/libDaisy/src/hid/disp/oled_display.h **** 
 427              		.loc 9 18 13 is_stmt 1 view -0
 428              		.cfi_startproc
 429              		@ args = 0, pretend = 0, frame = 0
 430              		@ frame_needed = 0, uses_anonymous_args = 0
  18:../../libs/libDaisy/src/hid/disp/oled_display.h **** 
 431              		.loc 9 18 13 is_stmt 0 view .LVU73
 432 0000 10B5     		push	{r4, lr}
 433              		.cfi_def_cfa_offset 8
 434              		.cfi_offset 4, -8
 435              		.cfi_offset 14, -4
  18:../../libs/libDaisy/src/hid/disp/oled_display.h **** 
 436              		.loc 9 18 13 view .LVU74
 437 0002 0446     		mov	r4, r0
 438              	.LVL27:
ARM GAS  C:\Users\matte\AppData\Local\Temp\ccvehO0v.s 			page 31


 439              	.LBB640:
 440              	.LBI640:
  18:../../libs/libDaisy/src/hid/disp/oled_display.h **** 
 441              		.loc 9 18 13 is_stmt 1 view .LVU75
 442              	.LBB641:
 443              	.LBI641:
 444              		.loc 10 219 13 view .LVU76
 445              	.LBB642:
 446              	.LBI642:
  23:../../libs/libDaisy/src/hid/disp/display.h **** 
 447              		.loc 10 23 13 view .LVU77
  23:../../libs/libDaisy/src/hid/disp/display.h **** 
 448              		.loc 10 23 13 is_stmt 0 view .LVU78
 449              	.LBE642:
 450              	.LBE641:
 451              	.LBE640:
  18:../../libs/libDaisy/src/hid/disp/oled_display.h **** 
 452              		.loc 9 18 29 view .LVU79
 453 0004 4FF48261 		mov	r1, #1040
 454 0008 FFF7FEFF 		bl	_ZdlPvj
 455              	.LVL28:
  18:../../libs/libDaisy/src/hid/disp/oled_display.h **** 
 456              		.loc 9 18 29 view .LVU80
 457 000c 2046     		mov	r0, r4
 458 000e 10BD     		pop	{r4, pc}
  18:../../libs/libDaisy/src/hid/disp/oled_display.h **** 
 459              		.loc 9 18 29 view .LVU81
 460              		.cfi_endproc
 461              	.LFE5470:
 463              		.section	.text._ZN5daisy11OledDisplayINS_13SSD130xDriverILj128ELj64ENS_19SSD130xI2CTransportEEEE6U
 464              		.align	1
 465              		.p2align 2,,3
 466              		.weak	_ZN5daisy11OledDisplayINS_13SSD130xDriverILj128ELj64ENS_19SSD130xI2CTransportEEEE6UpdateEv
 467              		.syntax unified
 468              		.thumb
 469              		.thumb_func
 470              		.fpu fpv5-d16
 472              	_ZN5daisy11OledDisplayINS_13SSD130xDriverILj128ELj64ENS_19SSD130xI2CTransportEEEE6UpdateEv:
 473              	.LVL29:
 474              	.LFB5481:
  35:../../libs/libDaisy/src/hid/disp/oled_display.h **** 
  36:../../libs/libDaisy/src/hid/disp/oled_display.h ****     /**
  37:../../libs/libDaisy/src/hid/disp/oled_display.h ****     Sets the pixel at the specified coordinate to be on/off.
  38:../../libs/libDaisy/src/hid/disp/oled_display.h ****     \param x   x Coordinate
  39:../../libs/libDaisy/src/hid/disp/oled_display.h ****     \param y   y coordinate
  40:../../libs/libDaisy/src/hid/disp/oled_display.h ****     \param on  on or off
  41:../../libs/libDaisy/src/hid/disp/oled_display.h ****     */
  42:../../libs/libDaisy/src/hid/disp/oled_display.h ****     void DrawPixel(uint_fast8_t x, uint_fast8_t y, bool on) override
  43:../../libs/libDaisy/src/hid/disp/oled_display.h ****     {
  44:../../libs/libDaisy/src/hid/disp/oled_display.h ****         driver_.DrawPixel(x, y, on);
  45:../../libs/libDaisy/src/hid/disp/oled_display.h ****     }
  46:../../libs/libDaisy/src/hid/disp/oled_display.h **** 
  47:../../libs/libDaisy/src/hid/disp/oled_display.h ****     /** 
  48:../../libs/libDaisy/src/hid/disp/oled_display.h ****     Writes the current display buffer to the OLED device using SPI or I2C depending on 
  49:../../libs/libDaisy/src/hid/disp/oled_display.h ****     how the object was initialized.
  50:../../libs/libDaisy/src/hid/disp/oled_display.h ****     */
  51:../../libs/libDaisy/src/hid/disp/oled_display.h ****     void Update() override { driver_.Update(); }
ARM GAS  C:\Users\matte\AppData\Local\Temp\ccvehO0v.s 			page 32


 475              		.loc 9 51 10 is_stmt 1 view -0
 476              		.cfi_startproc
 477              		@ args = 0, pretend = 0, frame = 8
 478              		@ frame_needed = 0, uses_anonymous_args = 0
 479              		.loc 9 51 10 is_stmt 0 view .LVU83
 480 0000 2DE9F04F 		push	{r4, r5, r6, r7, r8, r9, r10, fp, lr}
 481              		.cfi_def_cfa_offset 36
 482              		.cfi_offset 4, -36
 483              		.cfi_offset 5, -32
 484              		.cfi_offset 6, -28
 485              		.cfi_offset 7, -24
 486              		.cfi_offset 8, -20
 487              		.cfi_offset 9, -16
 488              		.cfi_offset 10, -12
 489              		.cfi_offset 11, -8
 490              		.cfi_offset 14, -4
 491              	.LBB655:
 492              	.LBB656:
 493              	.LBB657:
 494              	.LBB658:
  45:../../libs/libDaisy/src/sys/../../../../libs/libDaisy/src/dev/oled_ssd130x.h ****     };
 495              		.loc 11 45 30 view .LVU84
 496 0004 4FF0B008 		mov	r8, #176
 497              	.LBE658:
 498              	.LBE657:
 499              	.LBE656:
 500              	.LBE655:
 501              		.loc 9 51 10 view .LVU85
 502 0008 85B0     		sub	sp, sp, #20
 503              		.cfi_def_cfa_offset 56
 504              		.loc 9 51 10 view .LVU86
 505 000a 0546     		mov	r5, r0
 506              	.LVL30:
 507              	.LBB670:
 508              	.LBI655:
 355:../../libs/libDaisy/src/sys/../../../../libs/libDaisy/src/dev/oled_ssd130x.h ****         }
 356:../../libs/libDaisy/src/sys/../../../../libs/libDaisy/src/dev/oled_ssd130x.h ****     };
 357:../../libs/libDaisy/src/sys/../../../../libs/libDaisy/src/dev/oled_ssd130x.h **** 
 358:../../libs/libDaisy/src/sys/../../../../libs/libDaisy/src/dev/oled_ssd130x.h ****     /**
 359:../../libs/libDaisy/src/sys/../../../../libs/libDaisy/src/dev/oled_ssd130x.h ****      * Update the display 
 360:../../libs/libDaisy/src/sys/../../../../libs/libDaisy/src/dev/oled_ssd130x.h ****     */
 361:../../libs/libDaisy/src/sys/../../../../libs/libDaisy/src/dev/oled_ssd130x.h ****     void Update()
 509              		.loc 11 361 10 is_stmt 1 view .LVU87
 510              	.LBB669:
 362:../../libs/libDaisy/src/sys/../../../../libs/libDaisy/src/dev/oled_ssd130x.h ****     {
 363:../../libs/libDaisy/src/sys/../../../../libs/libDaisy/src/dev/oled_ssd130x.h ****         uint8_t i;
 364:../../libs/libDaisy/src/sys/../../../../libs/libDaisy/src/dev/oled_ssd130x.h ****         uint8_t high_column_addr;
 365:../../libs/libDaisy/src/sys/../../../../libs/libDaisy/src/dev/oled_ssd130x.h ****         switch(height)
 366:../../libs/libDaisy/src/sys/../../../../libs/libDaisy/src/dev/oled_ssd130x.h ****         {
 367:../../libs/libDaisy/src/sys/../../../../libs/libDaisy/src/dev/oled_ssd130x.h ****             case 32: high_column_addr = 0x12; break;
 368:../../libs/libDaisy/src/sys/../../../../libs/libDaisy/src/dev/oled_ssd130x.h **** 
 369:../../libs/libDaisy/src/sys/../../../../libs/libDaisy/src/dev/oled_ssd130x.h ****             default: high_column_addr = 0x10; break;
 370:../../libs/libDaisy/src/sys/../../../../libs/libDaisy/src/dev/oled_ssd130x.h ****         }
 371:../../libs/libDaisy/src/sys/../../../../libs/libDaisy/src/dev/oled_ssd130x.h ****         for(i = 0; i < (height / 8); i++)
 511              		.loc 11 371 22 view .LVU88
 512              	.LBB661:
 513              	.LBB659:
ARM GAS  C:\Users\matte\AppData\Local\Temp\ccvehO0v.s 			page 33


  45:../../libs/libDaisy/src/sys/../../../../libs/libDaisy/src/dev/oled_ssd130x.h ****     };
 514              		.loc 11 45 30 is_stmt 0 view .LVU89
 515 000c 00F10807 		add	r7, r0, #8
 516              	.LVL31:
  45:../../libs/libDaisy/src/sys/../../../../libs/libDaisy/src/dev/oled_ssd130x.h ****     };
 517              		.loc 11 45 30 view .LVU90
 518 0010 00F18F06 		add	r6, r0, #143
 519 0014 00F28F49 		addw	r9, r0, #1167
 520              	.LVL32:
 521              	.L27:
  45:../../libs/libDaisy/src/sys/../../../../libs/libDaisy/src/dev/oled_ssd130x.h ****     };
 522              		.loc 11 45 30 view .LVU91
 523              	.LBE659:
 524              	.LBI657:
  42:../../libs/libDaisy/src/sys/../../../../libs/libDaisy/src/dev/oled_ssd130x.h ****     {
 525              		.loc 11 42 10 is_stmt 1 view .LVU92
 526              	.LBB660:
  44:../../libs/libDaisy/src/sys/../../../../libs/libDaisy/src/dev/oled_ssd130x.h ****         i2c_.TransmitBlocking(i2c_address_, buf, 2, 1000);
 527              		.loc 11 44 9 view .LVU93
  45:../../libs/libDaisy/src/sys/../../../../libs/libDaisy/src/dev/oled_ssd130x.h ****     };
 528              		.loc 11 45 30 is_stmt 0 view .LVU94
 529 0018 4FF47A7B 		mov	fp, #1000
  44:../../libs/libDaisy/src/sys/../../../../libs/libDaisy/src/dev/oled_ssd130x.h ****         i2c_.TransmitBlocking(i2c_address_, buf, 2, 1000);
 530              		.loc 11 44 17 view .LVU95
 531 001c 4FF0000A 		mov	r10, #0
  45:../../libs/libDaisy/src/sys/../../../../libs/libDaisy/src/dev/oled_ssd130x.h ****     };
 532              		.loc 11 45 30 view .LVU96
 533 0020 297B     		ldrb	r1, [r5, #12]	@ zero_extendqisi2
 534 0022 0223     		movs	r3, #2
 535 0024 03AA     		add	r2, sp, #12
 536 0026 3846     		mov	r0, r7
 537 0028 CDF800B0 		str	fp, [sp]
 538 002c A6F18004 		sub	r4, r6, #128
  44:../../libs/libDaisy/src/sys/../../../../libs/libDaisy/src/dev/oled_ssd130x.h ****         i2c_.TransmitBlocking(i2c_address_, buf, 2, 1000);
 539              		.loc 11 44 17 view .LVU97
 540 0030 8DF80CA0 		strb	r10, [sp, #12]
  44:../../libs/libDaisy/src/sys/../../../../libs/libDaisy/src/dev/oled_ssd130x.h ****         i2c_.TransmitBlocking(i2c_address_, buf, 2, 1000);
 541              		.loc 11 44 36 view .LVU98
 542 0034 8DF80D80 		strb	r8, [sp, #13]
  45:../../libs/libDaisy/src/sys/../../../../libs/libDaisy/src/dev/oled_ssd130x.h ****     };
 543              		.loc 11 45 9 is_stmt 1 view .LVU99
  45:../../libs/libDaisy/src/sys/../../../../libs/libDaisy/src/dev/oled_ssd130x.h ****     };
 544              		.loc 11 45 30 is_stmt 0 view .LVU100
 545 0038 FFF7FEFF 		bl	_ZN5daisy9I2CHandle16TransmitBlockingEtPhtm
 546              	.LVL33:
  45:../../libs/libDaisy/src/sys/../../../../libs/libDaisy/src/dev/oled_ssd130x.h ****     };
 547              		.loc 11 45 30 view .LVU101
 548              	.LBE660:
 549              	.LBE661:
 550              	.LBB662:
 551              	.LBI662:
  42:../../libs/libDaisy/src/sys/../../../../libs/libDaisy/src/dev/oled_ssd130x.h ****     {
 552              		.loc 11 42 10 is_stmt 1 view .LVU102
 553              	.LBB663:
  44:../../libs/libDaisy/src/sys/../../../../libs/libDaisy/src/dev/oled_ssd130x.h ****         i2c_.TransmitBlocking(i2c_address_, buf, 2, 1000);
 554              		.loc 11 44 9 view .LVU103
  45:../../libs/libDaisy/src/sys/../../../../libs/libDaisy/src/dev/oled_ssd130x.h ****     };
ARM GAS  C:\Users\matte\AppData\Local\Temp\ccvehO0v.s 			page 34


 555              		.loc 11 45 30 is_stmt 0 view .LVU104
 556 003c 297B     		ldrb	r1, [r5, #12]	@ zero_extendqisi2
 557 003e 0223     		movs	r3, #2
 558 0040 03AA     		add	r2, sp, #12
 559 0042 3846     		mov	r0, r7
 560 0044 CDF800B0 		str	fp, [sp]
  44:../../libs/libDaisy/src/sys/../../../../libs/libDaisy/src/dev/oled_ssd130x.h ****         i2c_.TransmitBlocking(i2c_address_, buf, 2, 1000);
 561              		.loc 11 44 17 view .LVU105
 562 0048 8DF80CA0 		strb	r10, [sp, #12]
  44:../../libs/libDaisy/src/sys/../../../../libs/libDaisy/src/dev/oled_ssd130x.h ****         i2c_.TransmitBlocking(i2c_address_, buf, 2, 1000);
 563              		.loc 11 44 36 view .LVU106
 564 004c 8DF80DA0 		strb	r10, [sp, #13]
  45:../../libs/libDaisy/src/sys/../../../../libs/libDaisy/src/dev/oled_ssd130x.h ****     };
 565              		.loc 11 45 9 is_stmt 1 view .LVU107
  45:../../libs/libDaisy/src/sys/../../../../libs/libDaisy/src/dev/oled_ssd130x.h ****     };
 566              		.loc 11 45 30 is_stmt 0 view .LVU108
 567 0050 FFF7FEFF 		bl	_ZN5daisy9I2CHandle16TransmitBlockingEtPhtm
 568              	.LVL34:
  45:../../libs/libDaisy/src/sys/../../../../libs/libDaisy/src/dev/oled_ssd130x.h ****     };
 569              		.loc 11 45 30 view .LVU109
 570              	.LBE663:
 571              	.LBE662:
 572              	.LBB664:
 573              	.LBI664:
  42:../../libs/libDaisy/src/sys/../../../../libs/libDaisy/src/dev/oled_ssd130x.h ****     {
 574              		.loc 11 42 10 is_stmt 1 view .LVU110
 575              	.LBB665:
  44:../../libs/libDaisy/src/sys/../../../../libs/libDaisy/src/dev/oled_ssd130x.h ****         i2c_.TransmitBlocking(i2c_address_, buf, 2, 1000);
 576              		.loc 11 44 9 view .LVU111
  44:../../libs/libDaisy/src/sys/../../../../libs/libDaisy/src/dev/oled_ssd130x.h ****         i2c_.TransmitBlocking(i2c_address_, buf, 2, 1000);
 577              		.loc 11 44 36 is_stmt 0 view .LVU112
 578 0054 4FF0100C 		mov	ip, #16
  45:../../libs/libDaisy/src/sys/../../../../libs/libDaisy/src/dev/oled_ssd130x.h ****     };
 579              		.loc 11 45 30 view .LVU113
 580 0058 297B     		ldrb	r1, [r5, #12]	@ zero_extendqisi2
 581 005a 0223     		movs	r3, #2
 582 005c 03AA     		add	r2, sp, #12
 583 005e 3846     		mov	r0, r7
 584 0060 CDF800B0 		str	fp, [sp]
  44:../../libs/libDaisy/src/sys/../../../../libs/libDaisy/src/dev/oled_ssd130x.h ****         i2c_.TransmitBlocking(i2c_address_, buf, 2, 1000);
 585              		.loc 11 44 17 view .LVU114
 586 0064 8DF80CA0 		strb	r10, [sp, #12]
  44:../../libs/libDaisy/src/sys/../../../../libs/libDaisy/src/dev/oled_ssd130x.h ****         i2c_.TransmitBlocking(i2c_address_, buf, 2, 1000);
 587              		.loc 11 44 36 view .LVU115
 588 0068 8DF80DC0 		strb	ip, [sp, #13]
  45:../../libs/libDaisy/src/sys/../../../../libs/libDaisy/src/dev/oled_ssd130x.h ****     };
 589              		.loc 11 45 9 is_stmt 1 view .LVU116
  45:../../libs/libDaisy/src/sys/../../../../libs/libDaisy/src/dev/oled_ssd130x.h ****     };
 590              		.loc 11 45 30 is_stmt 0 view .LVU117
 591 006c FFF7FEFF 		bl	_ZN5daisy9I2CHandle16TransmitBlockingEtPhtm
 592              	.LVL35:
  45:../../libs/libDaisy/src/sys/../../../../libs/libDaisy/src/dev/oled_ssd130x.h ****     };
 593              		.loc 11 45 30 view .LVU118
 594              	.LBE665:
 595              	.LBE664:
 596              	.LBB666:
 597              	.LBI666:
ARM GAS  C:\Users\matte\AppData\Local\Temp\ccvehO0v.s 			page 35


  48:../../libs/libDaisy/src/sys/../../../../libs/libDaisy/src/dev/oled_ssd130x.h ****     {
 598              		.loc 11 48 10 is_stmt 1 view .LVU119
 599              	.LBB667:
  50:../../libs/libDaisy/src/sys/../../../../libs/libDaisy/src/dev/oled_ssd130x.h ****         {
 600              		.loc 11 50 29 view .LVU120
 601              	.L26:
 602              	.LBB668:
  52:../../libs/libDaisy/src/sys/../../../../libs/libDaisy/src/dev/oled_ssd130x.h ****             i2c_.TransmitBlocking(i2c_address_, buf, 2, 1000);
 603              		.loc 11 52 13 view .LVU121
  53:../../libs/libDaisy/src/sys/../../../../libs/libDaisy/src/dev/oled_ssd130x.h ****         }
 604              		.loc 11 53 34 is_stmt 0 view .LVU122
 605 0070 4FF47A70 		mov	r0, #1000
  52:../../libs/libDaisy/src/sys/../../../../libs/libDaisy/src/dev/oled_ssd130x.h ****             i2c_.TransmitBlocking(i2c_address_, buf, 2, 1000);
 606              		.loc 11 52 44 view .LVU123
 607 0074 14F801CF 		ldrb	ip, [r4, #1]!	@ zero_extendqisi2
 608              	.LVL36:
  52:../../libs/libDaisy/src/sys/../../../../libs/libDaisy/src/dev/oled_ssd130x.h ****             i2c_.TransmitBlocking(i2c_address_, buf, 2, 1000);
 609              		.loc 11 52 21 view .LVU124
 610 0078 4FF0400E 		mov	lr, #64
  53:../../libs/libDaisy/src/sys/../../../../libs/libDaisy/src/dev/oled_ssd130x.h ****         }
 611              		.loc 11 53 34 view .LVU125
 612 007c 297B     		ldrb	r1, [r5, #12]	@ zero_extendqisi2
 613 007e 0223     		movs	r3, #2
 614 0080 0090     		str	r0, [sp]
 615 0082 03AA     		add	r2, sp, #12
 616 0084 3846     		mov	r0, r7
  52:../../libs/libDaisy/src/sys/../../../../libs/libDaisy/src/dev/oled_ssd130x.h ****             i2c_.TransmitBlocking(i2c_address_, buf, 2, 1000);
 617              		.loc 11 52 21 view .LVU126
 618 0086 8DF80CE0 		strb	lr, [sp, #12]
  52:../../libs/libDaisy/src/sys/../../../../libs/libDaisy/src/dev/oled_ssd130x.h ****             i2c_.TransmitBlocking(i2c_address_, buf, 2, 1000);
 619              		.loc 11 52 44 view .LVU127
 620 008a 8DF80DC0 		strb	ip, [sp, #13]
  53:../../libs/libDaisy/src/sys/../../../../libs/libDaisy/src/dev/oled_ssd130x.h ****         }
 621              		.loc 11 53 13 is_stmt 1 view .LVU128
  53:../../libs/libDaisy/src/sys/../../../../libs/libDaisy/src/dev/oled_ssd130x.h ****         }
 622              		.loc 11 53 34 is_stmt 0 view .LVU129
 623 008e FFF7FEFF 		bl	_ZN5daisy9I2CHandle16TransmitBlockingEtPhtm
 624              	.LVL37:
 625              	.LBE668:
  50:../../libs/libDaisy/src/sys/../../../../libs/libDaisy/src/dev/oled_ssd130x.h ****         {
 626              		.loc 11 50 9 is_stmt 1 view .LVU130
  50:../../libs/libDaisy/src/sys/../../../../libs/libDaisy/src/dev/oled_ssd130x.h ****         {
 627              		.loc 11 50 29 view .LVU131
 628 0092 B442     		cmp	r4, r6
 629 0094 ECD1     		bne	.L26
 630              	.LVL38:
  50:../../libs/libDaisy/src/sys/../../../../libs/libDaisy/src/dev/oled_ssd130x.h ****         {
 631              		.loc 11 50 29 is_stmt 0 view .LVU132
 632              	.LBE667:
 633              	.LBE666:
 634              		.loc 11 371 9 is_stmt 1 view .LVU133
 635              		.loc 11 371 22 view .LVU134
 636 0096 04F18006 		add	r6, r4, #128
 637 009a 08F10108 		add	r8, r8, #1
 638              	.LVL39:
 639              		.loc 11 371 22 is_stmt 0 view .LVU135
 640 009e 4E45     		cmp	r6, r9
ARM GAS  C:\Users\matte\AppData\Local\Temp\ccvehO0v.s 			page 36


 641 00a0 5FFA88F8 		uxtb	r8, r8
 642 00a4 B8D1     		bne	.L27
 643              	.LBE669:
 644              	.LBE670:
 645              		.loc 9 51 48 view .LVU136
 646 00a6 05B0     		add	sp, sp, #20
 647              		.cfi_def_cfa_offset 36
 648              		@ sp needed
 649 00a8 BDE8F08F 		pop	{r4, r5, r6, r7, r8, r9, r10, fp, pc}
 650              		.loc 9 51 48 view .LVU137
 651              		.cfi_endproc
 652              	.LFE5481:
 654              		.section	.text._ZN5daisy25OneBitGraphicsDisplayImplINS_11OledDisplayINS_13SSD130xDriverILj128ELj64
 655              		.align	1
 656              		.p2align 2,,3
 657              		.weak	_ZN5daisy25OneBitGraphicsDisplayImplINS_11OledDisplayINS_13SSD130xDriverILj128ELj64ENS_19SSD
 658              		.syntax unified
 659              		.thumb
 660              		.thumb_func
 661              		.fpu fpv5-d16
 663              	_ZN5daisy25OneBitGraphicsDisplayImplINS_11OledDisplayINS_13SSD130xDriverILj128ELj64ENS_19SSD130xI2C
 664              	.LVL40:
 665              	.LFB5479:
 220:../../libs/libDaisy/src/hid/disp/display.h **** 
 221:../../libs/libDaisy/src/hid/disp/display.h ****     void DrawLine(uint_fast8_t x1,
 222:../../libs/libDaisy/src/hid/disp/display.h ****                   uint_fast8_t y1,
 223:../../libs/libDaisy/src/hid/disp/display.h ****                   uint_fast8_t x2,
 224:../../libs/libDaisy/src/hid/disp/display.h ****                   uint_fast8_t y2,
 225:../../libs/libDaisy/src/hid/disp/display.h ****                   bool         on) override
 226:../../libs/libDaisy/src/hid/disp/display.h ****     {
 227:../../libs/libDaisy/src/hid/disp/display.h ****         int_fast16_t deltaX = abs((int_fast16_t)x2 - (int_fast16_t)x1);
 228:../../libs/libDaisy/src/hid/disp/display.h ****         int_fast16_t deltaY = abs((int_fast16_t)y2 - (int_fast16_t)y1);
 229:../../libs/libDaisy/src/hid/disp/display.h ****         int_fast16_t signX  = ((x1 < x2) ? 1 : -1);
 230:../../libs/libDaisy/src/hid/disp/display.h ****         int_fast16_t signY  = ((y1 < y2) ? 1 : -1);
 231:../../libs/libDaisy/src/hid/disp/display.h ****         int_fast16_t error  = deltaX - deltaY;
 232:../../libs/libDaisy/src/hid/disp/display.h ****         int_fast16_t error2;
 233:../../libs/libDaisy/src/hid/disp/display.h **** 
 234:../../libs/libDaisy/src/hid/disp/display.h ****         // If we write "ChildType::DrawPixel(x2, y2, on);", we end up with
 235:../../libs/libDaisy/src/hid/disp/display.h ****         // all sorts of weird compiler errors when the Child class is a template
 236:../../libs/libDaisy/src/hid/disp/display.h ****         // class. The only way around this is to use this very verbose syntax:
 237:../../libs/libDaisy/src/hid/disp/display.h ****         ((ChildType*)(this))->ChildType::DrawPixel(x2, y2, on);
 238:../../libs/libDaisy/src/hid/disp/display.h **** 
 239:../../libs/libDaisy/src/hid/disp/display.h ****         while((x1 != x2) || (y1 != y2))
 240:../../libs/libDaisy/src/hid/disp/display.h ****         {
 241:../../libs/libDaisy/src/hid/disp/display.h ****             ((ChildType*)(this))->ChildType::DrawPixel(x1, y1, on);
 242:../../libs/libDaisy/src/hid/disp/display.h ****             error2 = error * 2;
 243:../../libs/libDaisy/src/hid/disp/display.h ****             if(error2 > -deltaY)
 244:../../libs/libDaisy/src/hid/disp/display.h ****             {
 245:../../libs/libDaisy/src/hid/disp/display.h ****                 error -= deltaY;
 246:../../libs/libDaisy/src/hid/disp/display.h ****                 x1 += signX;
 247:../../libs/libDaisy/src/hid/disp/display.h ****             }
 248:../../libs/libDaisy/src/hid/disp/display.h **** 
 249:../../libs/libDaisy/src/hid/disp/display.h ****             if(error2 < deltaX)
 250:../../libs/libDaisy/src/hid/disp/display.h ****             {
 251:../../libs/libDaisy/src/hid/disp/display.h ****                 error += deltaX;
 252:../../libs/libDaisy/src/hid/disp/display.h ****                 y1 += signY;
 253:../../libs/libDaisy/src/hid/disp/display.h ****             }
ARM GAS  C:\Users\matte\AppData\Local\Temp\ccvehO0v.s 			page 37


 254:../../libs/libDaisy/src/hid/disp/display.h ****         }
 255:../../libs/libDaisy/src/hid/disp/display.h ****     }
 256:../../libs/libDaisy/src/hid/disp/display.h **** 
 257:../../libs/libDaisy/src/hid/disp/display.h ****     void DrawRect(uint_fast8_t x1,
 258:../../libs/libDaisy/src/hid/disp/display.h ****                   uint_fast8_t y1,
 259:../../libs/libDaisy/src/hid/disp/display.h ****                   uint_fast8_t x2,
 260:../../libs/libDaisy/src/hid/disp/display.h ****                   uint_fast8_t y2,
 261:../../libs/libDaisy/src/hid/disp/display.h ****                   bool         on,
 262:../../libs/libDaisy/src/hid/disp/display.h ****                   bool         fill = false) override
 263:../../libs/libDaisy/src/hid/disp/display.h ****     {
 264:../../libs/libDaisy/src/hid/disp/display.h ****         if(fill)
 265:../../libs/libDaisy/src/hid/disp/display.h ****         {
 266:../../libs/libDaisy/src/hid/disp/display.h ****             for(uint_fast8_t x = x1; x <= x2; x++)
 267:../../libs/libDaisy/src/hid/disp/display.h ****             {
 268:../../libs/libDaisy/src/hid/disp/display.h ****                 for(uint_fast8_t y = y1; y <= y2; y++)
 269:../../libs/libDaisy/src/hid/disp/display.h ****                 {
 270:../../libs/libDaisy/src/hid/disp/display.h ****                     ((ChildType*)(this))->ChildType::DrawPixel(x, y, on);
 271:../../libs/libDaisy/src/hid/disp/display.h ****                 }
 272:../../libs/libDaisy/src/hid/disp/display.h ****             }
 273:../../libs/libDaisy/src/hid/disp/display.h ****         }
 274:../../libs/libDaisy/src/hid/disp/display.h ****         else
 275:../../libs/libDaisy/src/hid/disp/display.h ****         {
 276:../../libs/libDaisy/src/hid/disp/display.h ****             ((ChildType*)(this))->ChildType::DrawLine(x1, y1, x2, y1, on);
 277:../../libs/libDaisy/src/hid/disp/display.h ****             ((ChildType*)(this))->ChildType::DrawLine(x2, y1, x2, y2, on);
 278:../../libs/libDaisy/src/hid/disp/display.h ****             ((ChildType*)(this))->ChildType::DrawLine(x2, y2, x1, y2, on);
 279:../../libs/libDaisy/src/hid/disp/display.h ****             ((ChildType*)(this))->ChildType::DrawLine(x1, y2, x1, y1, on);
 280:../../libs/libDaisy/src/hid/disp/display.h ****         }
 281:../../libs/libDaisy/src/hid/disp/display.h ****     }
 282:../../libs/libDaisy/src/hid/disp/display.h **** 
 283:../../libs/libDaisy/src/hid/disp/display.h ****     void DrawArc(uint_fast8_t x,
 284:../../libs/libDaisy/src/hid/disp/display.h ****                  uint_fast8_t y,
 285:../../libs/libDaisy/src/hid/disp/display.h ****                  uint_fast8_t radius,
 286:../../libs/libDaisy/src/hid/disp/display.h ****                  int_fast16_t start_angle,
 287:../../libs/libDaisy/src/hid/disp/display.h ****                  int_fast16_t sweep,
 288:../../libs/libDaisy/src/hid/disp/display.h ****                  bool         on) override
 289:../../libs/libDaisy/src/hid/disp/display.h ****     {
 290:../../libs/libDaisy/src/hid/disp/display.h ****         // Values to calculate the circle
 291:../../libs/libDaisy/src/hid/disp/display.h ****         int_fast16_t t_x, t_y, err, e2;
 292:../../libs/libDaisy/src/hid/disp/display.h **** 
 293:../../libs/libDaisy/src/hid/disp/display.h ****         // Temporary values to speed up comparisons
 294:../../libs/libDaisy/src/hid/disp/display.h ****         float t_sxy, t_syx, t_sxny, t_synx;
 295:../../libs/libDaisy/src/hid/disp/display.h ****         float t_exy, t_eyx, t_exny, t_eynx;
 296:../../libs/libDaisy/src/hid/disp/display.h **** 
 297:../../libs/libDaisy/src/hid/disp/display.h ****         float start_angle_rad, end_angle_rad;
 298:../../libs/libDaisy/src/hid/disp/display.h ****         float start_x, start_y, end_x, end_y;
 299:../../libs/libDaisy/src/hid/disp/display.h **** 
 300:../../libs/libDaisy/src/hid/disp/display.h ****         bool d1, d2, d3, d4;
 301:../../libs/libDaisy/src/hid/disp/display.h **** 
 302:../../libs/libDaisy/src/hid/disp/display.h ****         d1 = d2 = d3 = d4 = true;
 303:../../libs/libDaisy/src/hid/disp/display.h **** 
 304:../../libs/libDaisy/src/hid/disp/display.h ****         bool circle = false;
 305:../../libs/libDaisy/src/hid/disp/display.h **** 
 306:../../libs/libDaisy/src/hid/disp/display.h ****         if(sweep < 0)
 307:../../libs/libDaisy/src/hid/disp/display.h ****         {
 308:../../libs/libDaisy/src/hid/disp/display.h ****             start_angle += sweep;
 309:../../libs/libDaisy/src/hid/disp/display.h ****             sweep = -sweep;
 310:../../libs/libDaisy/src/hid/disp/display.h ****         }
ARM GAS  C:\Users\matte\AppData\Local\Temp\ccvehO0v.s 			page 38


 311:../../libs/libDaisy/src/hid/disp/display.h **** 
 312:../../libs/libDaisy/src/hid/disp/display.h ****         start_angle_rad = deg2rad(start_angle);
 313:../../libs/libDaisy/src/hid/disp/display.h ****         end_angle_rad   = deg2rad(start_angle + sweep);
 314:../../libs/libDaisy/src/hid/disp/display.h **** 
 315:../../libs/libDaisy/src/hid/disp/display.h ****         start_x = cos(start_angle_rad) * radius;
 316:../../libs/libDaisy/src/hid/disp/display.h ****         start_y = -sin(start_angle_rad) * radius;
 317:../../libs/libDaisy/src/hid/disp/display.h ****         end_x   = cos(end_angle_rad) * radius;
 318:../../libs/libDaisy/src/hid/disp/display.h ****         end_y   = -sin(end_angle_rad) * radius;
 319:../../libs/libDaisy/src/hid/disp/display.h **** 
 320:../../libs/libDaisy/src/hid/disp/display.h ****         // Check if start and endpoint are very near
 321:../../libs/libDaisy/src/hid/disp/display.h ****         if((end_x - start_x) * (end_x - start_x)
 322:../../libs/libDaisy/src/hid/disp/display.h ****                + (end_y - start_y) * (end_y - start_y)
 323:../../libs/libDaisy/src/hid/disp/display.h ****            < 2.0f)
 324:../../libs/libDaisy/src/hid/disp/display.h ****         {
 325:../../libs/libDaisy/src/hid/disp/display.h ****             if(sweep > 180)
 326:../../libs/libDaisy/src/hid/disp/display.h ****                 circle = true;
 327:../../libs/libDaisy/src/hid/disp/display.h ****             else
 328:../../libs/libDaisy/src/hid/disp/display.h ****                 // Nothing to draw
 329:../../libs/libDaisy/src/hid/disp/display.h ****                 return;
 330:../../libs/libDaisy/src/hid/disp/display.h ****         }
 331:../../libs/libDaisy/src/hid/disp/display.h **** 
 332:../../libs/libDaisy/src/hid/disp/display.h ****         t_x = -radius;
 333:../../libs/libDaisy/src/hid/disp/display.h ****         t_y = 0;
 334:../../libs/libDaisy/src/hid/disp/display.h ****         err = 2 - 2 * radius;
 335:../../libs/libDaisy/src/hid/disp/display.h **** 
 336:../../libs/libDaisy/src/hid/disp/display.h ****         do
 337:../../libs/libDaisy/src/hid/disp/display.h ****         {
 338:../../libs/libDaisy/src/hid/disp/display.h ****             if(!circle)
 339:../../libs/libDaisy/src/hid/disp/display.h ****             {
 340:../../libs/libDaisy/src/hid/disp/display.h ****                 t_sxy  = start_x * t_y;
 341:../../libs/libDaisy/src/hid/disp/display.h ****                 t_syx  = start_y * t_x;
 342:../../libs/libDaisy/src/hid/disp/display.h ****                 t_sxny = start_x * -t_y;
 343:../../libs/libDaisy/src/hid/disp/display.h ****                 t_synx = start_y * -t_x;
 344:../../libs/libDaisy/src/hid/disp/display.h ****                 t_exy  = end_x * t_y;
 345:../../libs/libDaisy/src/hid/disp/display.h ****                 t_eyx  = end_y * t_x;
 346:../../libs/libDaisy/src/hid/disp/display.h ****                 t_exny = end_x * -t_y;
 347:../../libs/libDaisy/src/hid/disp/display.h ****                 t_eynx = end_y * -t_x;
 348:../../libs/libDaisy/src/hid/disp/display.h **** 
 349:../../libs/libDaisy/src/hid/disp/display.h ****                 if(sweep > 180)
 350:../../libs/libDaisy/src/hid/disp/display.h ****                 {
 351:../../libs/libDaisy/src/hid/disp/display.h ****                     d1 = (t_sxy - t_synx < 0 || t_exy - t_eynx > 0);
 352:../../libs/libDaisy/src/hid/disp/display.h ****                     d2 = (t_sxy - t_syx < 0 || t_exy - t_eyx > 0);
 353:../../libs/libDaisy/src/hid/disp/display.h ****                     d3 = (t_sxny - t_syx < 0 || t_exny - t_eyx > 0);
 354:../../libs/libDaisy/src/hid/disp/display.h ****                     d4 = (t_sxny - t_synx < 0 || t_exny - t_eynx > 0);
 355:../../libs/libDaisy/src/hid/disp/display.h ****                 }
 356:../../libs/libDaisy/src/hid/disp/display.h ****                 else
 357:../../libs/libDaisy/src/hid/disp/display.h ****                 {
 358:../../libs/libDaisy/src/hid/disp/display.h ****                     d1 = (t_sxy - t_synx < 0 && t_exy - t_eynx > 0);
 359:../../libs/libDaisy/src/hid/disp/display.h ****                     d2 = (t_sxy - t_syx < 0 && t_exy - t_eyx > 0);
 360:../../libs/libDaisy/src/hid/disp/display.h ****                     d3 = (t_sxny - t_syx < 0 && t_exny - t_eyx > 0);
 361:../../libs/libDaisy/src/hid/disp/display.h ****                     d4 = (t_sxny - t_synx < 0 && t_exny - t_eynx > 0);
 362:../../libs/libDaisy/src/hid/disp/display.h ****                 }
 363:../../libs/libDaisy/src/hid/disp/display.h ****             }
 364:../../libs/libDaisy/src/hid/disp/display.h **** 
 365:../../libs/libDaisy/src/hid/disp/display.h ****             if(d1)
 366:../../libs/libDaisy/src/hid/disp/display.h ****                 ((ChildType*)(this))
 367:../../libs/libDaisy/src/hid/disp/display.h ****                     ->ChildType::DrawPixel(x - t_x, y + t_y, on);
ARM GAS  C:\Users\matte\AppData\Local\Temp\ccvehO0v.s 			page 39


 368:../../libs/libDaisy/src/hid/disp/display.h ****             if(d2)
 369:../../libs/libDaisy/src/hid/disp/display.h ****                 ((ChildType*)(this))
 370:../../libs/libDaisy/src/hid/disp/display.h ****                     ->ChildType::DrawPixel(x + t_x, y + t_y, on);
 371:../../libs/libDaisy/src/hid/disp/display.h ****             if(d3)
 372:../../libs/libDaisy/src/hid/disp/display.h ****                 ((ChildType*)(this))
 373:../../libs/libDaisy/src/hid/disp/display.h ****                     ->ChildType::DrawPixel(x + t_x, y - t_y, on);
 374:../../libs/libDaisy/src/hid/disp/display.h ****             if(d4)
 375:../../libs/libDaisy/src/hid/disp/display.h ****                 ((ChildType*)(this))
 376:../../libs/libDaisy/src/hid/disp/display.h ****                     ->ChildType::DrawPixel(x - t_x, y - t_y, on);
 377:../../libs/libDaisy/src/hid/disp/display.h **** 
 378:../../libs/libDaisy/src/hid/disp/display.h ****             e2 = err;
 379:../../libs/libDaisy/src/hid/disp/display.h ****             if(e2 <= t_y)
 380:../../libs/libDaisy/src/hid/disp/display.h ****             {
 381:../../libs/libDaisy/src/hid/disp/display.h ****                 t_y++;
 382:../../libs/libDaisy/src/hid/disp/display.h ****                 err = err + (t_y * 2 + 1);
 383:../../libs/libDaisy/src/hid/disp/display.h ****                 if(-t_x == t_y && e2 <= t_x)
 384:../../libs/libDaisy/src/hid/disp/display.h ****                 {
 385:../../libs/libDaisy/src/hid/disp/display.h ****                     e2 = 0;
 386:../../libs/libDaisy/src/hid/disp/display.h ****                 }
 387:../../libs/libDaisy/src/hid/disp/display.h ****             }
 388:../../libs/libDaisy/src/hid/disp/display.h ****             if(e2 > t_x)
 389:../../libs/libDaisy/src/hid/disp/display.h ****             {
 390:../../libs/libDaisy/src/hid/disp/display.h ****                 t_x++;
 391:../../libs/libDaisy/src/hid/disp/display.h ****                 err = err + (t_x * 2 + 1);
 392:../../libs/libDaisy/src/hid/disp/display.h ****             }
 393:../../libs/libDaisy/src/hid/disp/display.h ****         } while(t_x <= 0);
 394:../../libs/libDaisy/src/hid/disp/display.h ****     }
 395:../../libs/libDaisy/src/hid/disp/display.h **** 
 396:../../libs/libDaisy/src/hid/disp/display.h ****     char WriteChar(char ch, FontDef font, bool on) override
 397:../../libs/libDaisy/src/hid/disp/display.h ****     {
 398:../../libs/libDaisy/src/hid/disp/display.h ****         uint32_t i, b, j;
 399:../../libs/libDaisy/src/hid/disp/display.h **** 
 400:../../libs/libDaisy/src/hid/disp/display.h ****         // Check if character is valid
 401:../../libs/libDaisy/src/hid/disp/display.h ****         if(ch < 32 || ch > 126)
 402:../../libs/libDaisy/src/hid/disp/display.h ****             return 0;
 403:../../libs/libDaisy/src/hid/disp/display.h **** 
 404:../../libs/libDaisy/src/hid/disp/display.h ****         // Check remaining space on current line
 405:../../libs/libDaisy/src/hid/disp/display.h ****         if(Width() < (currentX_ + font.FontWidth)
 406:../../libs/libDaisy/src/hid/disp/display.h ****            || Height() < (currentY_ + font.FontHeight))
 407:../../libs/libDaisy/src/hid/disp/display.h ****         {
 408:../../libs/libDaisy/src/hid/disp/display.h ****             // Not enough space on current line
 409:../../libs/libDaisy/src/hid/disp/display.h ****             return 0;
 410:../../libs/libDaisy/src/hid/disp/display.h ****         }
 411:../../libs/libDaisy/src/hid/disp/display.h **** 
 412:../../libs/libDaisy/src/hid/disp/display.h ****         // Use the font to write
 413:../../libs/libDaisy/src/hid/disp/display.h ****         for(i = 0; i < font.FontHeight; i++)
 414:../../libs/libDaisy/src/hid/disp/display.h ****         {
 415:../../libs/libDaisy/src/hid/disp/display.h ****             b = font.data[(ch - 32) * font.FontHeight + i];
 416:../../libs/libDaisy/src/hid/disp/display.h ****             for(j = 0; j < font.FontWidth; j++)
 417:../../libs/libDaisy/src/hid/disp/display.h ****             {
 418:../../libs/libDaisy/src/hid/disp/display.h ****                 if((b << j) & 0x8000)
 419:../../libs/libDaisy/src/hid/disp/display.h ****                 {
 420:../../libs/libDaisy/src/hid/disp/display.h ****                     ((ChildType*)(this))
 421:../../libs/libDaisy/src/hid/disp/display.h ****                         ->ChildType::DrawPixel(
 422:../../libs/libDaisy/src/hid/disp/display.h ****                             currentX_ + j, (currentY_ + i), on);
 423:../../libs/libDaisy/src/hid/disp/display.h ****                 }
 424:../../libs/libDaisy/src/hid/disp/display.h ****                 else
ARM GAS  C:\Users\matte\AppData\Local\Temp\ccvehO0v.s 			page 40


 425:../../libs/libDaisy/src/hid/disp/display.h ****                 {
 426:../../libs/libDaisy/src/hid/disp/display.h ****                     ((ChildType*)(this))
 427:../../libs/libDaisy/src/hid/disp/display.h ****                         ->ChildType::DrawPixel(
 428:../../libs/libDaisy/src/hid/disp/display.h ****                             currentX_ + j, (currentY_ + i), !on);
 429:../../libs/libDaisy/src/hid/disp/display.h ****                 }
 430:../../libs/libDaisy/src/hid/disp/display.h ****             }
 431:../../libs/libDaisy/src/hid/disp/display.h ****         }
 432:../../libs/libDaisy/src/hid/disp/display.h **** 
 433:../../libs/libDaisy/src/hid/disp/display.h ****         // The current space is now taken
 434:../../libs/libDaisy/src/hid/disp/display.h ****         SetCursor(currentX_ + font.FontWidth, currentY_);
 435:../../libs/libDaisy/src/hid/disp/display.h **** 
 436:../../libs/libDaisy/src/hid/disp/display.h ****         // Return written char for validation
 437:../../libs/libDaisy/src/hid/disp/display.h ****         return ch;
 438:../../libs/libDaisy/src/hid/disp/display.h ****     }
 439:../../libs/libDaisy/src/hid/disp/display.h **** 
 440:../../libs/libDaisy/src/hid/disp/display.h ****     char WriteString(const char* str, FontDef font, bool on) override
 666              		.loc 10 440 10 is_stmt 1 view -0
 667              		.cfi_startproc
 668              		@ args = 4, pretend = 0, frame = 32
 669              		@ frame_needed = 0, uses_anonymous_args = 0
 670              		.loc 10 440 10 is_stmt 0 view .LVU139
 671 0000 2DE9F04F 		push	{r4, r5, r6, r7, r8, r9, r10, fp, lr}
 672              		.cfi_def_cfa_offset 36
 673              		.cfi_offset 4, -36
 674              		.cfi_offset 5, -32
 675              		.cfi_offset 6, -28
 676              		.cfi_offset 7, -24
 677              		.cfi_offset 8, -20
 678              		.cfi_offset 9, -16
 679              		.cfi_offset 10, -12
 680              		.cfi_offset 11, -8
 681              		.cfi_offset 14, -4
 682 0004 89B0     		sub	sp, sp, #36
 683              		.cfi_def_cfa_offset 72
 684              		.loc 10 440 10 view .LVU140
 685 0006 08AC     		add	r4, sp, #32
 686 0008 9DF84870 		ldrb	r7, [sp, #72]	@ zero_extendqisi2
 687 000c 0191     		str	r1, [sp, #4]
 688 000e 04E90C00 		stmdb	r4, {r2, r3}
 441:../../libs/libDaisy/src/hid/disp/display.h ****     {
 442:../../libs/libDaisy/src/hid/disp/display.h ****         // Write until null-byte
 443:../../libs/libDaisy/src/hid/disp/display.h ****         while(*str)
 689              		.loc 10 443 9 is_stmt 1 view .LVU141
 690 0012 0B78     		ldrb	r3, [r1]	@ zero_extendqisi2
 691 0014 002B     		cmp	r3, #0
 692 0016 00F0AB80 		beq	.L55
 693 001a 1A46     		mov	r2, r3
 694 001c 9DF81880 		ldrb	r8, [sp, #24]	@ zero_extendqisi2
 695 0020 9DF81930 		ldrb	r3, [sp, #25]	@ zero_extendqisi2
 696 0024 0646     		mov	r6, r0
 697 0026 4546     		mov	r5, r8
 698 0028 9046     		mov	r8, r2
 699 002a 0393     		str	r3, [sp, #12]
 700 002c 079B     		ldr	r3, [sp, #28]
 701 002e 0593     		str	r3, [sp, #20]
 702              	.LVL41:
 703              	.L56:
ARM GAS  C:\Users\matte\AppData\Local\Temp\ccvehO0v.s 			page 41


 704              	.LBB699:
 705              	.LBI699:
 396:../../libs/libDaisy/src/hid/disp/display.h ****     {
 706              		.loc 10 396 10 view .LVU142
 707              	.LBB700:
 401:../../libs/libDaisy/src/hid/disp/display.h ****             return 0;
 708              		.loc 10 401 20 is_stmt 0 view .LVU143
 709 0030 A8F12004 		sub	r4, r8, #32
 401:../../libs/libDaisy/src/hid/disp/display.h ****             return 0;
 710              		.loc 10 401 9 view .LVU144
 711 0034 E3B2     		uxtb	r3, r4
 712 0036 5E2B     		cmp	r3, #94
 713 0038 00F29E80 		bhi	.L37
 405:../../libs/libDaisy/src/hid/disp/display.h ****            || Height() < (currentY_ + font.FontHeight))
 714              		.loc 10 405 17 view .LVU145
 715 003c 3368     		ldr	r3, [r6]
 716 003e 5E4A     		ldr	r2, .L77
 717 0040 DB68     		ldr	r3, [r3, #12]
 718 0042 9342     		cmp	r3, r2
 719 0044 40F09B80 		bne	.L70
 720 0048 8020     		movs	r0, #128
 721              	.L36:
 405:../../libs/libDaisy/src/hid/disp/display.h ****            || Height() < (currentY_ + font.FontHeight))
 722              		.loc 10 405 23 view .LVU146
 723 004a B388     		ldrh	r3, [r6, #4]
 405:../../libs/libDaisy/src/hid/disp/display.h ****            || Height() < (currentY_ + font.FontHeight))
 724              		.loc 10 405 33 view .LVU147
 725 004c 2B44     		add	r3, r3, r5
 406:../../libs/libDaisy/src/hid/disp/display.h ****         {
 726              		.loc 10 406 12 view .LVU148
 727 004e 8342     		cmp	r3, r0
 728 0050 00F39280 		bgt	.L37
 406:../../libs/libDaisy/src/hid/disp/display.h ****         {
 729              		.loc 10 406 21 view .LVU149
 730 0054 3368     		ldr	r3, [r6]
 731 0056 594A     		ldr	r2, .L77+4
 732 0058 9B68     		ldr	r3, [r3, #8]
 733 005a 9342     		cmp	r3, r2
 734 005c 40F09280 		bne	.L71
 735 0060 4020     		movs	r0, #64
 736              	.L38:
 406:../../libs/libDaisy/src/hid/disp/display.h ****         {
 737              		.loc 10 406 27 view .LVU150
 738 0062 F188     		ldrh	r1, [r6, #6]
 406:../../libs/libDaisy/src/hid/disp/display.h ****         {
 739              		.loc 10 406 37 view .LVU151
 740 0064 039A     		ldr	r2, [sp, #12]
 406:../../libs/libDaisy/src/hid/disp/display.h ****         {
 741              		.loc 10 406 27 view .LVU152
 742 0066 0291     		str	r1, [sp, #8]
 406:../../libs/libDaisy/src/hid/disp/display.h ****         {
 743              		.loc 10 406 37 view .LVU153
 744 0068 8B18     		adds	r3, r1, r2
 406:../../libs/libDaisy/src/hid/disp/display.h ****         {
 745              		.loc 10 406 12 view .LVU154
 746 006a 8342     		cmp	r3, r0
 747 006c 00F38480 		bgt	.L37
ARM GAS  C:\Users\matte\AppData\Local\Temp\ccvehO0v.s 			page 42


 748              	.LVL42:
 413:../../libs/libDaisy/src/hid/disp/display.h ****         {
 749              		.loc 10 413 22 is_stmt 1 view .LVU155
 750 0070 002A     		cmp	r2, #0
 751 0072 00F09180 		beq	.L39
 415:../../libs/libDaisy/src/hid/disp/display.h ****             for(j = 0; j < font.FontWidth; j++)
 752              		.loc 10 415 37 is_stmt 0 view .LVU156
 753 0076 02FB04F4 		mul	r4, r2, r4
 754 007a 6FF00049 		mvn	r9, #-2147483648
 755 007e 059B     		ldr	r3, [sp, #20]
 756 0080 A144     		add	r9, r9, r4
 757 0082 1444     		add	r4, r4, r2
 434:../../libs/libDaisy/src/hid/disp/display.h **** 
 758              		.loc 10 434 19 view .LVU157
 759 0084 B6F804B0 		ldrh	fp, [r6, #4]
 760 0088 03EB4909 		add	r9, r3, r9, lsl #1
 761 008c 023B     		subs	r3, r3, #2
 762 008e CDF81080 		str	r8, [sp, #16]
 763 0092 03EB4403 		add	r3, r3, r4, lsl #1
 764 0096 0C46     		mov	r4, r1
 765 0098 9A46     		mov	r10, r3
 766              	.LVL43:
 767              	.L42:
 415:../../libs/libDaisy/src/hid/disp/display.h ****             for(j = 0; j < font.FontWidth; j++)
 768              		.loc 10 415 15 view .LVU158
 769 009a 39F802CF 		ldrh	ip, [r9, #2]!
 770              	.LVL44:
 416:../../libs/libDaisy/src/hid/disp/display.h ****             {
 771              		.loc 10 416 26 is_stmt 1 view .LVU159
 772 009e A5B3     		cbz	r5, .L47
 773              	.LBB701:
 774              	.LBB702:
 775              	.LBB703:
 776              	.LBB704:
 777              	.LBB705:
 347:../../libs/libDaisy/src/sys/../../../../libs/libDaisy/src/dev/oled_ssd130x.h ****     }
 778              		.loc 11 347 55 is_stmt 0 view .LVU160
 779 00a0 04F00703 		and	r3, r4, #7
 347:../../libs/libDaisy/src/sys/../../../../libs/libDaisy/src/dev/oled_ssd130x.h ****     }
 780              		.loc 11 347 49 view .LVU161
 781 00a4 4FF0010E 		mov	lr, #1
 347:../../libs/libDaisy/src/sys/../../../../libs/libDaisy/src/dev/oled_ssd130x.h ****     }
 782              		.loc 11 347 28 view .LVU162
 783 00a8 E208     		lsrs	r2, r4, #3
 784 00aa 5946     		mov	r1, fp
 347:../../libs/libDaisy/src/sys/../../../../libs/libDaisy/src/dev/oled_ssd130x.h ****     }
 785              		.loc 11 347 49 view .LVU163
 786 00ac 0EFA03FE 		lsl	lr, lr, r3
 787 00b0 0BF11003 		add	r3, fp, #16
 347:../../libs/libDaisy/src/sys/../../../../libs/libDaisy/src/dev/oled_ssd130x.h ****     }
 788              		.loc 11 347 42 view .LVU164
 789 00b4 4FFA8EFE 		sxtb	lr, lr
 790 00b8 03EBC212 		add	r2, r3, r2, lsl #7
 791              	.LBE705:
 792              	.LBE704:
 793              	.LBE703:
 794              	.LBE702:
ARM GAS  C:\Users\matte\AppData\Local\Temp\ccvehO0v.s 			page 43


 795              	.LBE701:
 416:../../libs/libDaisy/src/hid/disp/display.h ****             {
 796              		.loc 10 416 19 view .LVU165
 797 00bc 0023     		movs	r3, #0
 798              	.LBB723:
 799              	.LBB718:
 800              	.LBB713:
 801              	.LBB709:
 802              	.LBB706:
 347:../../libs/libDaisy/src/sys/../../../../libs/libDaisy/src/dev/oled_ssd130x.h ****     }
 803              		.loc 11 347 42 view .LVU166
 804 00be 6FEA0E08 		mvn	r8, lr
 805 00c2 3244     		add	r2, r2, r6
 806 00c4 0DE0     		b	.L48
 807              	.LVL45:
 808              	.L72:
 347:../../libs/libDaisy/src/sys/../../../../libs/libDaisy/src/dev/oled_ssd130x.h ****     }
 809              		.loc 11 347 42 view .LVU167
 810              	.LBE706:
 811              	.LBE709:
 812              	.LBE713:
 813              	.LBE718:
 814              	.LBE723:
 815              	.LBB724:
 816              	.LBI724:
  42:../../libs/libDaisy/src/hid/disp/oled_display.h ****     {
 817              		.loc 9 42 10 is_stmt 1 view .LVU168
 818              	.LBB725:
 819              	.LBI725:
 340:../../libs/libDaisy/src/sys/../../../../libs/libDaisy/src/dev/oled_ssd130x.h ****     {
 820              		.loc 11 340 10 view .LVU169
 821              	.LBB726:
 342:../../libs/libDaisy/src/sys/../../../../libs/libDaisy/src/dev/oled_ssd130x.h ****             return;
 822              		.loc 11 342 9 is_stmt 0 view .LVU170
 823 00c6 7F29     		cmp	r1, #127
 824 00c8 06D8     		bhi	.L44
 825 00ca 3F2C     		cmp	r4, #63
 826 00cc 04D8     		bhi	.L44
 345:../../libs/libDaisy/src/sys/../../../../libs/libDaisy/src/dev/oled_ssd130x.h ****         else
 827              		.loc 11 345 42 view .LVU171
 828 00ce 1078     		ldrb	r0, [r2]	@ zero_extendqisi2
 344:../../libs/libDaisy/src/sys/../../../../libs/libDaisy/src/dev/oled_ssd130x.h ****             buffer_[x + (y / 8) * width] |= (1 << (y % 8));
 829              		.loc 11 344 9 view .LVU172
 830 00d0 97B1     		cbz	r7, .L46
 831              	.L69:
 344:../../libs/libDaisy/src/sys/../../../../libs/libDaisy/src/dev/oled_ssd130x.h ****             buffer_[x + (y / 8) * width] |= (1 << (y % 8));
 832              		.loc 11 344 9 view .LVU173
 833              	.LBE726:
 834              	.LBE725:
 835              	.LBE724:
 836              	.LBB727:
 837              	.LBB719:
 838              	.LBB714:
 345:../../libs/libDaisy/src/sys/../../../../libs/libDaisy/src/dev/oled_ssd130x.h ****         else
 839              		.loc 11 345 42 view .LVU174
 840 00d2 4EEA0000 		orr	r0, lr, r0
 841 00d6 1070     		strb	r0, [r2]
ARM GAS  C:\Users\matte\AppData\Local\Temp\ccvehO0v.s 			page 44


 842              	.L44:
 843              	.LBE714:
 844              	.LBE719:
 845              	.LBE727:
 416:../../libs/libDaisy/src/hid/disp/display.h ****             {
 846              		.loc 10 416 13 is_stmt 1 view .LVU175
 847 00d8 0133     		adds	r3, r3, #1
 848              	.LVL46:
 416:../../libs/libDaisy/src/hid/disp/display.h ****             {
 849              		.loc 10 416 26 view .LVU176
 850 00da 0132     		adds	r2, r2, #1
 851 00dc 0131     		adds	r1, r1, #1
 852 00de AB42     		cmp	r3, r5
 853 00e0 13D0     		beq	.L47
 854              	.LVL47:
 855              	.L48:
 418:../../libs/libDaisy/src/hid/disp/display.h ****                 {
 856              		.loc 10 418 23 is_stmt 0 view .LVU177
 857 00e2 0CFA03F0 		lsl	r0, ip, r3
 418:../../libs/libDaisy/src/hid/disp/display.h ****                 {
 858              		.loc 10 418 17 view .LVU178
 859 00e6 0004     		lsls	r0, r0, #16
 860 00e8 EDD4     		bmi	.L72
 861              	.LVL48:
 862              	.LBB728:
 863              	.LBI701:
  42:../../libs/libDaisy/src/hid/disp/oled_display.h ****     {
 864              		.loc 9 42 10 is_stmt 1 view .LVU179
 865              	.LBB720:
 866              	.LBI702:
 340:../../libs/libDaisy/src/sys/../../../../libs/libDaisy/src/dev/oled_ssd130x.h ****     {
 867              		.loc 11 340 10 view .LVU180
 868              	.LBB715:
 342:../../libs/libDaisy/src/sys/../../../../libs/libDaisy/src/dev/oled_ssd130x.h ****             return;
 869              		.loc 11 342 9 is_stmt 0 view .LVU181
 870 00ea 7F29     		cmp	r1, #127
 871 00ec F4D8     		bhi	.L44
 872 00ee 3F2C     		cmp	r4, #63
 873 00f0 F2D8     		bhi	.L44
 345:../../libs/libDaisy/src/sys/../../../../libs/libDaisy/src/dev/oled_ssd130x.h ****         else
 874              		.loc 11 345 42 view .LVU182
 875 00f2 1078     		ldrb	r0, [r2]	@ zero_extendqisi2
 344:../../libs/libDaisy/src/sys/../../../../libs/libDaisy/src/dev/oled_ssd130x.h ****             buffer_[x + (y / 8) * width] |= (1 << (y % 8));
 876              		.loc 11 344 9 view .LVU183
 877 00f4 002F     		cmp	r7, #0
 878 00f6 ECD0     		beq	.L69
 879              	.L46:
 880              	.LVL49:
 881              	.LBB710:
 882              	.LBI704:
 340:../../libs/libDaisy/src/sys/../../../../libs/libDaisy/src/dev/oled_ssd130x.h ****     {
 883              		.loc 11 340 10 is_stmt 1 view .LVU184
 340:../../libs/libDaisy/src/sys/../../../../libs/libDaisy/src/dev/oled_ssd130x.h ****     {
 884              		.loc 11 340 10 is_stmt 0 view .LVU185
 885              	.LBE710:
 886              	.LBE715:
 887              	.LBE720:
ARM GAS  C:\Users\matte\AppData\Local\Temp\ccvehO0v.s 			page 45


 888              	.LBE728:
 416:../../libs/libDaisy/src/hid/disp/display.h ****             {
 889              		.loc 10 416 13 view .LVU186
 890 00f8 0133     		adds	r3, r3, #1
 891              	.LVL50:
 892              	.LBB729:
 893              	.LBB721:
 894              	.LBB716:
 895              	.LBB711:
 896              	.LBB707:
 347:../../libs/libDaisy/src/sys/../../../../libs/libDaisy/src/dev/oled_ssd130x.h ****     }
 897              		.loc 11 347 42 view .LVU187
 898 00fa 08EA0000 		and	r0, r8, r0
 899              	.LBE707:
 900              	.LBE711:
 901              	.LBE716:
 902              	.LBE721:
 903              	.LBE729:
 416:../../libs/libDaisy/src/hid/disp/display.h ****             {
 904              		.loc 10 416 26 view .LVU188
 905 00fe 0132     		adds	r2, r2, #1
 906 0100 0131     		adds	r1, r1, #1
 907 0102 AB42     		cmp	r3, r5
 908              	.LBB730:
 909              	.LBB722:
 910              	.LBB717:
 911              	.LBB712:
 912              	.LBB708:
 347:../../libs/libDaisy/src/sys/../../../../libs/libDaisy/src/dev/oled_ssd130x.h ****     }
 913              		.loc 11 347 42 view .LVU189
 914 0104 02F8010C 		strb	r0, [r2, #-1]
 347:../../libs/libDaisy/src/sys/../../../../libs/libDaisy/src/dev/oled_ssd130x.h ****     }
 915              		.loc 11 347 42 view .LVU190
 916              	.LBE708:
 917              	.LBE712:
 918              	.LBE717:
 919              	.LBE722:
 920              	.LBE730:
 416:../../libs/libDaisy/src/hid/disp/display.h ****             {
 921              		.loc 10 416 13 is_stmt 1 view .LVU191
 922              	.LVL51:
 416:../../libs/libDaisy/src/hid/disp/display.h ****             {
 923              		.loc 10 416 26 view .LVU192
 924 0108 EBD1     		bne	.L48
 925              	.LVL52:
 926              	.L47:
 413:../../libs/libDaisy/src/hid/disp/display.h ****         {
 927              		.loc 10 413 9 view .LVU193
 413:../../libs/libDaisy/src/hid/disp/display.h ****         {
 928              		.loc 10 413 22 view .LVU194
 929 010a D145     		cmp	r9, r10
 930 010c 04F10104 		add	r4, r4, #1
 931 0110 C3D1     		bne	.L42
 932 0112 DDF81080 		ldr	r8, [sp, #16]
 933              	.LVL53:
 934              	.L41:
 935              	.LBB731:
ARM GAS  C:\Users\matte\AppData\Local\Temp\ccvehO0v.s 			page 46


 936              	.LBB732:
 173:../../libs/libDaisy/src/hid/disp/display.h ****         currentY_ = (y >= Height()) ? Height() - 1 : y;
 937              		.loc 10 173 33 is_stmt 0 view .LVU195
 938 0116 3268     		ldr	r2, [r6]
 939              	.LBE732:
 940              	.LBE731:
 434:../../libs/libDaisy/src/hid/disp/display.h **** 
 941              		.loc 10 434 18 view .LVU196
 942 0118 0BEB0504 		add	r4, fp, r5
 943 011c 2649     		ldr	r1, .L77
 944              	.LBB737:
 945              	.LBB733:
 173:../../libs/libDaisy/src/hid/disp/display.h ****         currentY_ = (y >= Height()) ? Height() - 1 : y;
 946              		.loc 10 173 33 view .LVU197
 947 011e D368     		ldr	r3, [r2, #12]
 948              	.LBE733:
 949              	.LBE737:
 434:../../libs/libDaisy/src/hid/disp/display.h **** 
 950              		.loc 10 434 18 view .LVU198
 951 0120 A4B2     		uxth	r4, r4
 952              	.LVL54:
 953              	.LBB738:
 954              	.LBI731:
 171:../../libs/libDaisy/src/hid/disp/display.h ****     {
 955              		.loc 10 171 10 is_stmt 1 view .LVU199
 956              	.LBB734:
 173:../../libs/libDaisy/src/hid/disp/display.h ****         currentY_ = (y >= Height()) ? Height() - 1 : y;
 957              		.loc 10 173 9 view .LVU200
 958 0122 8B42     		cmp	r3, r1
 959 0124 34D1     		bne	.L73
 173:../../libs/libDaisy/src/hid/disp/display.h ****         currentY_ = (y >= Height()) ? Height() - 1 : y;
 960              		.loc 10 173 33 is_stmt 0 view .LVU201
 961 0126 8020     		movs	r0, #128
 962              	.L49:
 173:../../libs/libDaisy/src/hid/disp/display.h ****         currentY_ = (y >= Height()) ? Height() - 1 : y;
 963              		.loc 10 173 19 view .LVU202
 964 0128 8442     		cmp	r4, r0
 965 012a 04D3     		bcc	.L50
 173:../../libs/libDaisy/src/hid/disp/display.h ****         currentY_ = (y >= Height()) ? Height() - 1 : y;
 966              		.loc 10 173 44 view .LVU203
 967 012c D368     		ldr	r3, [r2, #12]
 968 012e 2249     		ldr	r1, .L77
 969 0130 8B42     		cmp	r3, r1
 970 0132 3AD1     		bne	.L74
 971 0134 7F24     		movs	r4, #127
 972              	.LVL55:
 973              	.L50:
 174:../../libs/libDaisy/src/hid/disp/display.h ****     }
 974              		.loc 10 174 34 view .LVU204
 975 0136 9368     		ldr	r3, [r2, #8]
 976 0138 204A     		ldr	r2, .L77+4
 173:../../libs/libDaisy/src/hid/disp/display.h ****         currentY_ = (y >= Height()) ? Height() - 1 : y;
 977              		.loc 10 173 19 view .LVU205
 978 013a B480     		strh	r4, [r6, #4]	@ movhi
 174:../../libs/libDaisy/src/hid/disp/display.h ****     }
 979              		.loc 10 174 9 is_stmt 1 view .LVU206
 980 013c 9342     		cmp	r3, r2
ARM GAS  C:\Users\matte\AppData\Local\Temp\ccvehO0v.s 			page 47


 981 013e 24D1     		bne	.L75
 174:../../libs/libDaisy/src/hid/disp/display.h ****     }
 982              		.loc 10 174 34 is_stmt 0 view .LVU207
 983 0140 4020     		movs	r0, #64
 984              	.L52:
 174:../../libs/libDaisy/src/hid/disp/display.h ****     }
 985              		.loc 10 174 19 view .LVU208
 986 0142 029B     		ldr	r3, [sp, #8]
 987 0144 8342     		cmp	r3, r0
 988 0146 06D3     		bcc	.L53
 174:../../libs/libDaisy/src/hid/disp/display.h ****     }
 989              		.loc 10 174 46 view .LVU209
 990 0148 3368     		ldr	r3, [r6]
 991 014a 1C4A     		ldr	r2, .L77+4
 992 014c 9B68     		ldr	r3, [r3, #8]
 993 014e 9342     		cmp	r3, r2
 994 0150 25D1     		bne	.L76
 995 0152 3F23     		movs	r3, #63
 996 0154 0293     		str	r3, [sp, #8]
 997              	.LVL56:
 998              	.L53:
 174:../../libs/libDaisy/src/hid/disp/display.h ****     }
 999              		.loc 10 174 19 view .LVU210
 1000 0156 029B     		ldr	r3, [sp, #8]
 1001 0158 F380     		strh	r3, [r6, #6]	@ movhi
 1002              	.LVL57:
 1003              	.L35:
 174:../../libs/libDaisy/src/hid/disp/display.h ****     }
 1004              		.loc 10 174 19 view .LVU211
 1005              	.LBE734:
 1006              	.LBE738:
 1007              	.LBE700:
 1008              	.LBE699:
 444:../../libs/libDaisy/src/hid/disp/display.h ****         {
 445:../../libs/libDaisy/src/hid/disp/display.h ****             if(((ChildType*)(this))->ChildType::WriteChar(*str, font, on)
 446:../../libs/libDaisy/src/hid/disp/display.h ****                != *str)
 1009              		.loc 10 446 16 view .LVU212
 1010 015a 019B     		ldr	r3, [sp, #4]
 1011 015c 1878     		ldrb	r0, [r3]	@ zero_extendqisi2
 445:../../libs/libDaisy/src/hid/disp/display.h ****                != *str)
 1012              		.loc 10 445 13 view .LVU213
 1013 015e 4045     		cmp	r0, r8
 1014 0160 07D1     		bne	.L33
 1015              	.LVL58:
 443:../../libs/libDaisy/src/hid/disp/display.h ****         {
 1016              		.loc 10 443 9 is_stmt 1 view .LVU214
 1017 0162 13F8018F 		ldrb	r8, [r3, #1]!	@ zero_extendqisi2
 1018              	.LVL59:
 443:../../libs/libDaisy/src/hid/disp/display.h ****         {
 1019              		.loc 10 443 9 is_stmt 0 view .LVU215
 1020 0166 0193     		str	r3, [sp, #4]
 1021 0168 B8F1000F 		cmp	r8, #0
 1022 016c 7FF460AF 		bne	.L56
 1023              	.LVL60:
 1024              	.L55:
 1025              	.LBB743:
 1026              	.LBB741:
ARM GAS  C:\Users\matte\AppData\Local\Temp\ccvehO0v.s 			page 48


 402:../../libs/libDaisy/src/hid/disp/display.h **** 
 1027              		.loc 10 402 20 view .LVU216
 1028 0170 0020     		movs	r0, #0
 1029              	.L33:
 1030              	.LBE741:
 1031              	.LBE743:
 447:../../libs/libDaisy/src/hid/disp/display.h ****             {
 448:../../libs/libDaisy/src/hid/disp/display.h ****                 // Char could not be written
 449:../../libs/libDaisy/src/hid/disp/display.h ****                 return *str;
 450:../../libs/libDaisy/src/hid/disp/display.h ****             }
 451:../../libs/libDaisy/src/hid/disp/display.h **** 
 452:../../libs/libDaisy/src/hid/disp/display.h ****             // Next char
 453:../../libs/libDaisy/src/hid/disp/display.h ****             str++;
 454:../../libs/libDaisy/src/hid/disp/display.h ****         }
 455:../../libs/libDaisy/src/hid/disp/display.h **** 
 456:../../libs/libDaisy/src/hid/disp/display.h ****         // Everything ok
 457:../../libs/libDaisy/src/hid/disp/display.h ****         return *str;
 458:../../libs/libDaisy/src/hid/disp/display.h ****     }
 1032              		.loc 10 458 5 view .LVU217
 1033 0172 09B0     		add	sp, sp, #36
 1034              		.cfi_remember_state
 1035              		.cfi_def_cfa_offset 36
 1036              		@ sp needed
 1037 0174 BDE8F08F 		pop	{r4, r5, r6, r7, r8, r9, r10, fp, pc}
 1038              	.LVL61:
 1039              	.L37:
 1040              		.cfi_restore_state
 1041              	.LBB744:
 1042              	.LBB742:
 402:../../libs/libDaisy/src/hid/disp/display.h **** 
 1043              		.loc 10 402 20 view .LVU218
 1044 0178 4FF00008 		mov	r8, #0
 1045              	.LVL62:
 402:../../libs/libDaisy/src/hid/disp/display.h **** 
 1046              		.loc 10 402 20 view .LVU219
 1047 017c EDE7     		b	.L35
 1048              	.LVL63:
 1049              	.L70:
 405:../../libs/libDaisy/src/hid/disp/display.h ****            || Height() < (currentY_ + font.FontHeight))
 1050              		.loc 10 405 17 view .LVU220
 1051 017e 3046     		mov	r0, r6
 1052 0180 9847     		blx	r3
 1053              	.LVL64:
 1054 0182 62E7     		b	.L36
 1055              	.L71:
 406:../../libs/libDaisy/src/hid/disp/display.h ****         {
 1056              		.loc 10 406 21 view .LVU221
 1057 0184 3046     		mov	r0, r6
 1058 0186 9847     		blx	r3
 1059              	.LVL65:
 1060 0188 6BE7     		b	.L38
 1061              	.LVL66:
 1062              	.L75:
 1063              	.LBB739:
 1064              	.LBB735:
 174:../../libs/libDaisy/src/hid/disp/display.h ****     }
 1065              		.loc 10 174 33 view .LVU222
ARM GAS  C:\Users\matte\AppData\Local\Temp\ccvehO0v.s 			page 49


 1066 018a 3046     		mov	r0, r6
 1067 018c 9847     		blx	r3
 1068              	.LVL67:
 1069 018e D8E7     		b	.L52
 1070              	.LVL68:
 1071              	.L73:
 173:../../libs/libDaisy/src/hid/disp/display.h ****         currentY_ = (y >= Height()) ? Height() - 1 : y;
 1072              		.loc 10 173 32 view .LVU223
 1073 0190 3046     		mov	r0, r6
 1074 0192 9847     		blx	r3
 1075              	.LVL69:
 173:../../libs/libDaisy/src/hid/disp/display.h ****         currentY_ = (y >= Height()) ? Height() - 1 : y;
 1076              		.loc 10 173 44 view .LVU224
 1077 0194 3268     		ldr	r2, [r6]
 1078 0196 C7E7     		b	.L49
 1079              	.LVL70:
 1080              	.L39:
 173:../../libs/libDaisy/src/hid/disp/display.h ****         currentY_ = (y >= Height()) ? Height() - 1 : y;
 1081              		.loc 10 173 44 view .LVU225
 1082              	.LBE735:
 1083              	.LBE739:
 434:../../libs/libDaisy/src/hid/disp/display.h **** 
 1084              		.loc 10 434 19 view .LVU226
 1085 0198 B6F804B0 		ldrh	fp, [r6, #4]
 1086 019c BBE7     		b	.L41
 1087              	.LVL71:
 1088              	.L76:
 1089              	.LBB740:
 1090              	.LBB736:
 174:../../libs/libDaisy/src/hid/disp/display.h ****     }
 1091              		.loc 10 174 45 view .LVU227
 1092 019e 3046     		mov	r0, r6
 1093 01a0 9847     		blx	r3
 1094              	.LVL72:
 174:../../libs/libDaisy/src/hid/disp/display.h ****     }
 1095              		.loc 10 174 19 view .LVU228
 1096 01a2 0138     		subs	r0, r0, #1
 1097 01a4 83B2     		uxth	r3, r0
 1098 01a6 0293     		str	r3, [sp, #8]
 1099              	.LVL73:
 174:../../libs/libDaisy/src/hid/disp/display.h ****     }
 1100              		.loc 10 174 19 view .LVU229
 1101 01a8 D5E7     		b	.L53
 1102              	.LVL74:
 1103              	.L74:
 173:../../libs/libDaisy/src/hid/disp/display.h ****         currentY_ = (y >= Height()) ? Height() - 1 : y;
 1104              		.loc 10 173 43 view .LVU230
 1105 01aa 3046     		mov	r0, r6
 1106 01ac 9847     		blx	r3
 1107              	.LVL75:
 173:../../libs/libDaisy/src/hid/disp/display.h ****         currentY_ = (y >= Height()) ? Height() - 1 : y;
 1108              		.loc 10 173 19 view .LVU231
 1109 01ae 0138     		subs	r0, r0, #1
 174:../../libs/libDaisy/src/hid/disp/display.h ****     }
 1110              		.loc 10 174 34 view .LVU232
 1111 01b0 3268     		ldr	r2, [r6]
 173:../../libs/libDaisy/src/hid/disp/display.h ****         currentY_ = (y >= Height()) ? Height() - 1 : y;
ARM GAS  C:\Users\matte\AppData\Local\Temp\ccvehO0v.s 			page 50


 1112              		.loc 10 173 19 view .LVU233
 1113 01b2 84B2     		uxth	r4, r0
 1114              	.LVL76:
 173:../../libs/libDaisy/src/hid/disp/display.h ****         currentY_ = (y >= Height()) ? Height() - 1 : y;
 1115              		.loc 10 173 19 view .LVU234
 1116 01b4 BFE7     		b	.L50
 1117              	.L78:
 1118 01b6 00BF     		.align	2
 1119              	.L77:
 1120 01b8 00000000 		.word	_ZNK5daisy11OledDisplayINS_13SSD130xDriverILj128ELj64ENS_19SSD130xI2CTransportEEEE5WidthEv
 1121 01bc 00000000 		.word	_ZNK5daisy11OledDisplayINS_13SSD130xDriverILj128ELj64ENS_19SSD130xI2CTransportEEEE6HeightEv
 1122              	.LBE736:
 1123              	.LBE740:
 1124              	.LBE742:
 1125              	.LBE744:
 1126              		.cfi_endproc
 1127              	.LFE5479:
 1129              		.section	.text._ZN5daisy25OneBitGraphicsDisplayImplINS_11OledDisplayINS_13SSD130xDriverILj128ELj64
 1130              		.align	1
 1131              		.p2align 2,,3
 1132              		.weak	_ZN5daisy25OneBitGraphicsDisplayImplINS_11OledDisplayINS_13SSD130xDriverILj128ELj64ENS_19SSD
 1133              		.syntax unified
 1134              		.thumb
 1135              		.thumb_func
 1136              		.fpu fpv5-d16
 1138              	_ZN5daisy25OneBitGraphicsDisplayImplINS_11OledDisplayINS_13SSD130xDriverILj128ELj64ENS_19SSD130xI2C
 1139              	.LVL77:
 1140              	.LFB5478:
 396:../../libs/libDaisy/src/hid/disp/display.h ****     {
 1141              		.loc 10 396 10 is_stmt 1 view -0
 1142              		.cfi_startproc
 1143              		@ args = 4, pretend = 0, frame = 16
 1144              		@ frame_needed = 0, uses_anonymous_args = 0
 396:../../libs/libDaisy/src/hid/disp/display.h ****     {
 1145              		.loc 10 396 10 is_stmt 0 view .LVU236
 1146 0000 2DE9F04F 		push	{r4, r5, r6, r7, r8, r9, r10, fp, lr}
 1147              		.cfi_def_cfa_offset 36
 1148              		.cfi_offset 4, -36
 1149              		.cfi_offset 5, -32
 1150              		.cfi_offset 6, -28
 1151              		.cfi_offset 7, -24
 1152              		.cfi_offset 8, -20
 1153              		.cfi_offset 9, -16
 1154              		.cfi_offset 10, -12
 1155              		.cfi_offset 11, -8
 1156              		.cfi_offset 14, -4
 1157 0004 85B0     		sub	sp, sp, #20
 1158              		.cfi_def_cfa_offset 56
 1159              	.LVL78:
 401:../../libs/libDaisy/src/hid/disp/display.h ****             return 0;
 1160              		.loc 10 401 20 view .LVU237
 1161 0006 A1F12005 		sub	r5, r1, #32
 396:../../libs/libDaisy/src/hid/disp/display.h ****     {
 1162              		.loc 10 396 10 view .LVU238
 1163 000a 04AC     		add	r4, sp, #16
 1164 000c 9DF83870 		ldrb	r7, [sp, #56]	@ zero_extendqisi2
 1165 0010 0091     		str	r1, [sp]
ARM GAS  C:\Users\matte\AppData\Local\Temp\ccvehO0v.s 			page 51


 1166 0012 04E90C00 		stmdb	r4, {r2, r3}
 1167              	.LVL79:
 401:../../libs/libDaisy/src/hid/disp/display.h ****             return 0;
 1168              		.loc 10 401 9 view .LVU239
 1169 0016 EBB2     		uxtb	r3, r5
 1170 0018 5E2B     		cmp	r3, #94
 1171 001a 00F29580 		bhi	.L83
 405:../../libs/libDaisy/src/hid/disp/display.h ****            || Height() < (currentY_ + font.FontHeight))
 1172              		.loc 10 405 17 view .LVU240
 1173 001e 0368     		ldr	r3, [r0]
 1174 0020 8046     		mov	r8, r0
 1175 0022 5D4A     		ldr	r2, .L118
 1176 0024 DB68     		ldr	r3, [r3, #12]
 1177 0026 9DF80840 		ldrb	r4, [sp, #8]	@ zero_extendqisi2
 1178 002a 9342     		cmp	r3, r2
 1179 002c 9DF80960 		ldrb	r6, [sp, #9]	@ zero_extendqisi2
 1180 0030 40F09480 		bne	.L110
 1181 0034 8020     		movs	r0, #128
 1182              	.LVL80:
 1183              	.L82:
 405:../../libs/libDaisy/src/hid/disp/display.h ****            || Height() < (currentY_ + font.FontHeight))
 1184              		.loc 10 405 23 view .LVU241
 1185 0036 B8F80430 		ldrh	r3, [r8, #4]
 405:../../libs/libDaisy/src/hid/disp/display.h ****            || Height() < (currentY_ + font.FontHeight))
 1186              		.loc 10 405 33 view .LVU242
 1187 003a 2344     		add	r3, r3, r4
 406:../../libs/libDaisy/src/hid/disp/display.h ****         {
 1188              		.loc 10 406 12 view .LVU243
 1189 003c 8342     		cmp	r3, r0
 1190 003e 00F38380 		bgt	.L83
 406:../../libs/libDaisy/src/hid/disp/display.h ****         {
 1191              		.loc 10 406 21 discriminator 2 view .LVU244
 1192 0042 D8F80030 		ldr	r3, [r8]
 1193 0046 554A     		ldr	r2, .L118+4
 1194 0048 9B68     		ldr	r3, [r3, #8]
 1195 004a 9342     		cmp	r3, r2
 1196 004c 40F08880 		bne	.L111
 406:../../libs/libDaisy/src/hid/disp/display.h ****         {
 1197              		.loc 10 406 21 view .LVU245
 1198 0050 4020     		movs	r0, #64
 1199              	.L84:
 406:../../libs/libDaisy/src/hid/disp/display.h ****         {
 1200              		.loc 10 406 27 discriminator 2 view .LVU246
 1201 0052 B8F80620 		ldrh	r2, [r8, #6]
 406:../../libs/libDaisy/src/hid/disp/display.h ****         {
 1202              		.loc 10 406 37 discriminator 2 view .LVU247
 1203 0056 9319     		adds	r3, r2, r6
 406:../../libs/libDaisy/src/hid/disp/display.h ****         {
 1204              		.loc 10 406 27 discriminator 2 view .LVU248
 1205 0058 0192     		str	r2, [sp, #4]
 406:../../libs/libDaisy/src/hid/disp/display.h ****         {
 1206              		.loc 10 406 12 discriminator 2 view .LVU249
 1207 005a 8342     		cmp	r3, r0
 1208 005c 74DC     		bgt	.L83
 1209              	.LVL81:
 413:../../libs/libDaisy/src/hid/disp/display.h ****         {
 1210              		.loc 10 413 22 is_stmt 1 view .LVU250
ARM GAS  C:\Users\matte\AppData\Local\Temp\ccvehO0v.s 			page 52


 1211 005e 002E     		cmp	r6, #0
 1212 0060 00F08980 		beq	.L85
 415:../../libs/libDaisy/src/hid/disp/display.h ****             for(j = 0; j < font.FontWidth; j++)
 1213              		.loc 10 415 37 is_stmt 0 view .LVU251
 1214 0064 06FB05F5 		mul	r5, r6, r5
 1215 0068 6FF00040 		mvn	r0, #-2147483648
 415:../../libs/libDaisy/src/hid/disp/display.h ****             for(j = 0; j < font.FontWidth; j++)
 1216              		.loc 10 415 22 view .LVU252
 1217 006c 039B     		ldr	r3, [sp, #12]
 1218 006e 9646     		mov	lr, r2
 1219 0070 2844     		add	r0, r0, r5
 1220 0072 2E44     		add	r6, r6, r5
 434:../../libs/libDaisy/src/hid/disp/display.h **** 
 1221              		.loc 10 434 19 view .LVU253
 1222 0074 B8F804A0 		ldrh	r10, [r8, #4]
 1223 0078 03EB4000 		add	r0, r3, r0, lsl #1
 1224 007c 023B     		subs	r3, r3, #2
 1225 007e 03EB460B 		add	fp, r3, r6, lsl #1
 1226              	.LVL82:
 1227              	.L88:
 415:../../libs/libDaisy/src/hid/disp/display.h ****             for(j = 0; j < font.FontWidth; j++)
 1228              		.loc 10 415 15 view .LVU254
 1229 0082 30F8026F 		ldrh	r6, [r0, #2]!
 1230              	.LVL83:
 416:../../libs/libDaisy/src/hid/disp/display.h ****             {
 1231              		.loc 10 416 26 is_stmt 1 view .LVU255
 1232 0086 BCB3     		cbz	r4, .L93
 1233              	.LBB775:
 1234              	.LBB776:
 1235              	.LBB777:
 1236              	.LBB778:
 1237              	.LBB779:
 347:../../libs/libDaisy/src/sys/../../../../libs/libDaisy/src/dev/oled_ssd130x.h ****     }
 1238              		.loc 11 347 55 is_stmt 0 view .LVU256
 1239 0088 0EF00703 		and	r3, lr, #7
 347:../../libs/libDaisy/src/sys/../../../../libs/libDaisy/src/dev/oled_ssd130x.h ****     }
 1240              		.loc 11 347 49 view .LVU257
 1241 008c 4FF0010C 		mov	ip, #1
 347:../../libs/libDaisy/src/sys/../../../../libs/libDaisy/src/dev/oled_ssd130x.h ****     }
 1242              		.loc 11 347 28 view .LVU258
 1243 0090 4FEADE02 		lsr	r2, lr, #3
 1244 0094 5146     		mov	r1, r10
 347:../../libs/libDaisy/src/sys/../../../../libs/libDaisy/src/dev/oled_ssd130x.h ****     }
 1245              		.loc 11 347 49 view .LVU259
 1246 0096 0CFA03FC 		lsl	ip, ip, r3
 1247 009a 0AF11003 		add	r3, r10, #16
 347:../../libs/libDaisy/src/sys/../../../../libs/libDaisy/src/dev/oled_ssd130x.h ****     }
 1248              		.loc 11 347 42 view .LVU260
 1249 009e 4FFA8CFC 		sxtb	ip, ip
 1250 00a2 03EBC212 		add	r2, r3, r2, lsl #7
 1251              	.LBE779:
 1252              	.LBE778:
 1253              	.LBE777:
 1254              	.LBE776:
 1255              	.LBE775:
 416:../../libs/libDaisy/src/hid/disp/display.h ****             {
 1256              		.loc 10 416 19 view .LVU261
ARM GAS  C:\Users\matte\AppData\Local\Temp\ccvehO0v.s 			page 53


 1257 00a6 0023     		movs	r3, #0
 1258              	.LBB797:
 1259              	.LBB792:
 1260              	.LBB787:
 1261              	.LBB783:
 1262              	.LBB780:
 347:../../libs/libDaisy/src/sys/../../../../libs/libDaisy/src/dev/oled_ssd130x.h ****     }
 1263              		.loc 11 347 42 view .LVU262
 1264 00a8 6FEA0C09 		mvn	r9, ip
 1265 00ac 4244     		add	r2, r2, r8
 1266 00ae 0EE0     		b	.L94
 1267              	.LVL84:
 1268              	.L112:
 347:../../libs/libDaisy/src/sys/../../../../libs/libDaisy/src/dev/oled_ssd130x.h ****     }
 1269              		.loc 11 347 42 view .LVU263
 1270              	.LBE780:
 1271              	.LBE783:
 1272              	.LBE787:
 1273              	.LBE792:
 1274              	.LBE797:
 1275              	.LBB798:
 1276              	.LBI798:
  42:../../libs/libDaisy/src/hid/disp/oled_display.h ****     {
 1277              		.loc 9 42 10 is_stmt 1 view .LVU264
 1278              	.LBB799:
 1279              	.LBI799:
 340:../../libs/libDaisy/src/sys/../../../../libs/libDaisy/src/dev/oled_ssd130x.h ****     {
 1280              		.loc 11 340 10 view .LVU265
 1281              	.LBB800:
 342:../../libs/libDaisy/src/sys/../../../../libs/libDaisy/src/dev/oled_ssd130x.h ****             return;
 1282              		.loc 11 342 9 is_stmt 0 view .LVU266
 1283 00b0 7F29     		cmp	r1, #127
 1284 00b2 07D8     		bhi	.L90
 1285 00b4 BEF13F0F 		cmp	lr, #63
 1286 00b8 04D8     		bhi	.L90
 345:../../libs/libDaisy/src/sys/../../../../libs/libDaisy/src/dev/oled_ssd130x.h ****         else
 1287              		.loc 11 345 42 view .LVU267
 1288 00ba 1578     		ldrb	r5, [r2]	@ zero_extendqisi2
 344:../../libs/libDaisy/src/sys/../../../../libs/libDaisy/src/dev/oled_ssd130x.h ****             buffer_[x + (y / 8) * width] |= (1 << (y % 8));
 1289              		.loc 11 344 9 view .LVU268
 1290 00bc 9FB1     		cbz	r7, .L92
 1291              	.L109:
 344:../../libs/libDaisy/src/sys/../../../../libs/libDaisy/src/dev/oled_ssd130x.h ****             buffer_[x + (y / 8) * width] |= (1 << (y % 8));
 1292              		.loc 11 344 9 view .LVU269
 1293              	.LBE800:
 1294              	.LBE799:
 1295              	.LBE798:
 1296              	.LBB801:
 1297              	.LBB793:
 1298              	.LBB788:
 345:../../libs/libDaisy/src/sys/../../../../libs/libDaisy/src/dev/oled_ssd130x.h ****         else
 1299              		.loc 11 345 42 view .LVU270
 1300 00be 4CEA0505 		orr	r5, ip, r5
 1301 00c2 1570     		strb	r5, [r2]
 1302              	.L90:
 1303              	.LBE788:
 1304              	.LBE793:
ARM GAS  C:\Users\matte\AppData\Local\Temp\ccvehO0v.s 			page 54


 1305              	.LBE801:
 416:../../libs/libDaisy/src/hid/disp/display.h ****             {
 1306              		.loc 10 416 13 is_stmt 1 discriminator 2 view .LVU271
 1307 00c4 0133     		adds	r3, r3, #1
 1308              	.LVL85:
 416:../../libs/libDaisy/src/hid/disp/display.h ****             {
 1309              		.loc 10 416 26 discriminator 2 view .LVU272
 1310 00c6 0132     		adds	r2, r2, #1
 1311 00c8 0131     		adds	r1, r1, #1
 1312 00ca 9C42     		cmp	r4, r3
 1313 00cc 14D0     		beq	.L93
 1314              	.LVL86:
 1315              	.L94:
 418:../../libs/libDaisy/src/hid/disp/display.h ****                 {
 1316              		.loc 10 418 23 is_stmt 0 view .LVU273
 1317 00ce 06FA03F5 		lsl	r5, r6, r3
 418:../../libs/libDaisy/src/hid/disp/display.h ****                 {
 1318              		.loc 10 418 17 view .LVU274
 1319 00d2 2D04     		lsls	r5, r5, #16
 1320 00d4 ECD4     		bmi	.L112
 1321              	.LVL87:
 1322              	.LBB802:
 1323              	.LBI775:
  42:../../libs/libDaisy/src/hid/disp/oled_display.h ****     {
 1324              		.loc 9 42 10 is_stmt 1 view .LVU275
 1325              	.LBB794:
 1326              	.LBI776:
 340:../../libs/libDaisy/src/sys/../../../../libs/libDaisy/src/dev/oled_ssd130x.h ****     {
 1327              		.loc 11 340 10 view .LVU276
 1328              	.LBB789:
 342:../../libs/libDaisy/src/sys/../../../../libs/libDaisy/src/dev/oled_ssd130x.h ****             return;
 1329              		.loc 11 342 9 is_stmt 0 view .LVU277
 1330 00d6 7F29     		cmp	r1, #127
 1331 00d8 F4D8     		bhi	.L90
 1332 00da BEF13F0F 		cmp	lr, #63
 1333 00de F1D8     		bhi	.L90
 345:../../libs/libDaisy/src/sys/../../../../libs/libDaisy/src/dev/oled_ssd130x.h ****         else
 1334              		.loc 11 345 42 view .LVU278
 1335 00e0 1578     		ldrb	r5, [r2]	@ zero_extendqisi2
 344:../../libs/libDaisy/src/sys/../../../../libs/libDaisy/src/dev/oled_ssd130x.h ****             buffer_[x + (y / 8) * width] |= (1 << (y % 8));
 1336              		.loc 11 344 9 view .LVU279
 1337 00e2 002F     		cmp	r7, #0
 1338 00e4 EBD0     		beq	.L109
 1339              	.L92:
 1340              	.LVL88:
 1341              	.LBB784:
 1342              	.LBI778:
 340:../../libs/libDaisy/src/sys/../../../../libs/libDaisy/src/dev/oled_ssd130x.h ****     {
 1343              		.loc 11 340 10 is_stmt 1 view .LVU280
 340:../../libs/libDaisy/src/sys/../../../../libs/libDaisy/src/dev/oled_ssd130x.h ****     {
 1344              		.loc 11 340 10 is_stmt 0 view .LVU281
 1345              	.LBE784:
 1346              	.LBE789:
 1347              	.LBE794:
 1348              	.LBE802:
 416:../../libs/libDaisy/src/hid/disp/display.h ****             {
 1349              		.loc 10 416 13 view .LVU282
ARM GAS  C:\Users\matte\AppData\Local\Temp\ccvehO0v.s 			page 55


 1350 00e6 0133     		adds	r3, r3, #1
 1351              	.LVL89:
 1352              	.LBB803:
 1353              	.LBB795:
 1354              	.LBB790:
 1355              	.LBB785:
 1356              	.LBB781:
 347:../../libs/libDaisy/src/sys/../../../../libs/libDaisy/src/dev/oled_ssd130x.h ****     }
 1357              		.loc 11 347 42 view .LVU283
 1358 00e8 09EA0505 		and	r5, r9, r5
 1359              	.LBE781:
 1360              	.LBE785:
 1361              	.LBE790:
 1362              	.LBE795:
 1363              	.LBE803:
 416:../../libs/libDaisy/src/hid/disp/display.h ****             {
 1364              		.loc 10 416 26 view .LVU284
 1365 00ec 0132     		adds	r2, r2, #1
 1366 00ee 0131     		adds	r1, r1, #1
 1367 00f0 9C42     		cmp	r4, r3
 1368              	.LBB804:
 1369              	.LBB796:
 1370              	.LBB791:
 1371              	.LBB786:
 1372              	.LBB782:
 347:../../libs/libDaisy/src/sys/../../../../libs/libDaisy/src/dev/oled_ssd130x.h ****     }
 1373              		.loc 11 347 42 view .LVU285
 1374 00f2 02F8015C 		strb	r5, [r2, #-1]
 347:../../libs/libDaisy/src/sys/../../../../libs/libDaisy/src/dev/oled_ssd130x.h ****     }
 1375              		.loc 11 347 42 view .LVU286
 1376              	.LBE782:
 1377              	.LBE786:
 1378              	.LBE791:
 1379              	.LBE796:
 1380              	.LBE804:
 416:../../libs/libDaisy/src/hid/disp/display.h ****             {
 1381              		.loc 10 416 13 is_stmt 1 view .LVU287
 1382              	.LVL90:
 416:../../libs/libDaisy/src/hid/disp/display.h ****             {
 1383              		.loc 10 416 26 view .LVU288
 1384 00f6 EAD1     		bne	.L94
 1385              	.LVL91:
 1386              	.L93:
 413:../../libs/libDaisy/src/hid/disp/display.h ****         {
 1387              		.loc 10 413 9 view .LVU289
 413:../../libs/libDaisy/src/hid/disp/display.h ****         {
 1388              		.loc 10 413 22 view .LVU290
 1389 00f8 5845     		cmp	r0, fp
 1390 00fa 0EF1010E 		add	lr, lr, #1
 1391 00fe C0D1     		bne	.L88
 1392              	.LVL92:
 1393              	.L87:
 1394              	.LBB805:
 1395              	.LBB806:
 173:../../libs/libDaisy/src/hid/disp/display.h ****         currentY_ = (y >= Height()) ? Height() - 1 : y;
 1396              		.loc 10 173 33 is_stmt 0 view .LVU291
 1397 0100 D8F80030 		ldr	r3, [r8]
ARM GAS  C:\Users\matte\AppData\Local\Temp\ccvehO0v.s 			page 56


 1398              	.LBE806:
 1399              	.LBE805:
 434:../../libs/libDaisy/src/hid/disp/display.h **** 
 1400              		.loc 10 434 18 view .LVU292
 1401 0104 5444     		add	r4, r4, r10
 1402 0106 2449     		ldr	r1, .L118
 1403              	.LBB812:
 1404              	.LBB807:
 173:../../libs/libDaisy/src/hid/disp/display.h ****         currentY_ = (y >= Height()) ? Height() - 1 : y;
 1405              		.loc 10 173 33 view .LVU293
 1406 0108 DA68     		ldr	r2, [r3, #12]
 1407              	.LBE807:
 1408              	.LBE812:
 434:../../libs/libDaisy/src/hid/disp/display.h **** 
 1409              		.loc 10 434 18 view .LVU294
 1410 010a A4B2     		uxth	r4, r4
 1411              	.LVL93:
 1412              	.LBB813:
 1413              	.LBI805:
 171:../../libs/libDaisy/src/hid/disp/display.h ****     {
 1414              		.loc 10 171 10 is_stmt 1 view .LVU295
 1415              	.LBB808:
 173:../../libs/libDaisy/src/hid/disp/display.h ****         currentY_ = (y >= Height()) ? Height() - 1 : y;
 1416              		.loc 10 173 9 view .LVU296
 1417 010c 8A42     		cmp	r2, r1
 1418 010e 2DD1     		bne	.L113
 173:../../libs/libDaisy/src/hid/disp/display.h ****         currentY_ = (y >= Height()) ? Height() - 1 : y;
 1419              		.loc 10 173 33 is_stmt 0 view .LVU297
 1420 0110 8020     		movs	r0, #128
 1421              	.L95:
 173:../../libs/libDaisy/src/hid/disp/display.h ****         currentY_ = (y >= Height()) ? Height() - 1 : y;
 1422              		.loc 10 173 19 view .LVU298
 1423 0112 8442     		cmp	r4, r0
 1424 0114 1CD2     		bcs	.L114
 1425              	.LVL94:
 1426              	.L96:
 174:../../libs/libDaisy/src/hid/disp/display.h ****     }
 1427              		.loc 10 174 34 view .LVU299
 1428 0116 9B68     		ldr	r3, [r3, #8]
 1429 0118 204A     		ldr	r2, .L118+4
 173:../../libs/libDaisy/src/hid/disp/display.h ****         currentY_ = (y >= Height()) ? Height() - 1 : y;
 1430              		.loc 10 173 19 view .LVU300
 1431 011a A8F80440 		strh	r4, [r8, #4]	@ movhi
 174:../../libs/libDaisy/src/hid/disp/display.h ****     }
 1432              		.loc 10 174 9 is_stmt 1 view .LVU301
 1433 011e 9342     		cmp	r3, r2
 1434 0120 21D1     		bne	.L115
 174:../../libs/libDaisy/src/hid/disp/display.h ****     }
 1435              		.loc 10 174 34 is_stmt 0 view .LVU302
 1436 0122 4020     		movs	r0, #64
 1437              	.L98:
 174:../../libs/libDaisy/src/hid/disp/display.h ****     }
 1438              		.loc 10 174 19 view .LVU303
 1439 0124 019B     		ldr	r3, [sp, #4]
 1440 0126 8342     		cmp	r3, r0
 1441 0128 07D3     		bcc	.L99
 174:../../libs/libDaisy/src/hid/disp/display.h ****     }
ARM GAS  C:\Users\matte\AppData\Local\Temp\ccvehO0v.s 			page 57


 1442              		.loc 10 174 46 view .LVU304
 1443 012a D8F80030 		ldr	r3, [r8]
 1444 012e 1B4A     		ldr	r2, .L118+4
 1445 0130 9B68     		ldr	r3, [r3, #8]
 1446 0132 9342     		cmp	r3, r2
 1447 0134 29D1     		bne	.L116
 1448 0136 3F23     		movs	r3, #63
 1449 0138 0193     		str	r3, [sp, #4]
 1450              	.LVL95:
 1451              	.L99:
 174:../../libs/libDaisy/src/hid/disp/display.h ****     }
 1452              		.loc 10 174 19 view .LVU305
 1453 013a DDE90003 		ldrd	r0, r3, [sp]
 1454 013e A8F80630 		strh	r3, [r8, #6]	@ movhi
 1455              	.LVL96:
 174:../../libs/libDaisy/src/hid/disp/display.h ****     }
 1456              		.loc 10 174 19 view .LVU306
 1457              	.LBE808:
 1458              	.LBE813:
 438:../../libs/libDaisy/src/hid/disp/display.h **** 
 1459              		.loc 10 438 5 view .LVU307
 1460 0142 05B0     		add	sp, sp, #20
 1461              		.cfi_remember_state
 1462              		.cfi_def_cfa_offset 36
 1463              		@ sp needed
 1464 0144 BDE8F08F 		pop	{r4, r5, r6, r7, r8, r9, r10, fp, pc}
 1465              	.LVL97:
 1466              	.L83:
 1467              		.cfi_restore_state
 402:../../libs/libDaisy/src/hid/disp/display.h **** 
 1468              		.loc 10 402 20 view .LVU308
 1469 0148 0020     		movs	r0, #0
 438:../../libs/libDaisy/src/hid/disp/display.h **** 
 1470              		.loc 10 438 5 view .LVU309
 1471 014a 05B0     		add	sp, sp, #20
 1472              		.cfi_remember_state
 1473              		.cfi_def_cfa_offset 36
 1474              		@ sp needed
 1475 014c BDE8F08F 		pop	{r4, r5, r6, r7, r8, r9, r10, fp, pc}
 1476              	.LVL98:
 1477              	.L114:
 1478              		.cfi_restore_state
 1479              	.LBB814:
 1480              	.LBB809:
 173:../../libs/libDaisy/src/hid/disp/display.h ****         currentY_ = (y >= Height()) ? Height() - 1 : y;
 1481              		.loc 10 173 44 view .LVU310
 1482 0150 DA68     		ldr	r2, [r3, #12]
 1483 0152 1149     		ldr	r1, .L118
 1484 0154 8A42     		cmp	r2, r1
 1485 0156 11D1     		bne	.L117
 1486 0158 7F24     		movs	r4, #127
 1487              	.LVL99:
 173:../../libs/libDaisy/src/hid/disp/display.h ****         currentY_ = (y >= Height()) ? Height() - 1 : y;
 1488              		.loc 10 173 44 view .LVU311
 1489 015a DCE7     		b	.L96
 1490              	.LVL100:
 1491              	.L110:
ARM GAS  C:\Users\matte\AppData\Local\Temp\ccvehO0v.s 			page 58


 173:../../libs/libDaisy/src/hid/disp/display.h ****         currentY_ = (y >= Height()) ? Height() - 1 : y;
 1492              		.loc 10 173 44 view .LVU312
 1493              	.LBE809:
 1494              	.LBE814:
 405:../../libs/libDaisy/src/hid/disp/display.h ****            || Height() < (currentY_ + font.FontHeight))
 1495              		.loc 10 405 17 view .LVU313
 1496 015c 9847     		blx	r3
 1497              	.LVL101:
 405:../../libs/libDaisy/src/hid/disp/display.h ****            || Height() < (currentY_ + font.FontHeight))
 1498              		.loc 10 405 17 view .LVU314
 1499 015e 6AE7     		b	.L82
 1500              	.L111:
 406:../../libs/libDaisy/src/hid/disp/display.h ****         {
 1501              		.loc 10 406 21 discriminator 2 view .LVU315
 1502 0160 4046     		mov	r0, r8
 1503 0162 9847     		blx	r3
 1504              	.LVL102:
 1505 0164 75E7     		b	.L84
 1506              	.LVL103:
 1507              	.L115:
 1508              	.LBB815:
 1509              	.LBB810:
 174:../../libs/libDaisy/src/hid/disp/display.h ****     }
 1510              		.loc 10 174 33 view .LVU316
 1511 0166 4046     		mov	r0, r8
 1512 0168 9847     		blx	r3
 1513              	.LVL104:
 1514 016a DBE7     		b	.L98
 1515              	.LVL105:
 1516              	.L113:
 173:../../libs/libDaisy/src/hid/disp/display.h ****         currentY_ = (y >= Height()) ? Height() - 1 : y;
 1517              		.loc 10 173 32 view .LVU317
 1518 016c 4046     		mov	r0, r8
 1519 016e 9047     		blx	r2
 1520              	.LVL106:
 173:../../libs/libDaisy/src/hid/disp/display.h ****         currentY_ = (y >= Height()) ? Height() - 1 : y;
 1521              		.loc 10 173 44 view .LVU318
 1522 0170 D8F80030 		ldr	r3, [r8]
 1523 0174 CDE7     		b	.L95
 1524              	.LVL107:
 1525              	.L85:
 173:../../libs/libDaisy/src/hid/disp/display.h ****         currentY_ = (y >= Height()) ? Height() - 1 : y;
 1526              		.loc 10 173 44 view .LVU319
 1527              	.LBE810:
 1528              	.LBE815:
 434:../../libs/libDaisy/src/hid/disp/display.h **** 
 1529              		.loc 10 434 19 view .LVU320
 1530 0176 B8F804A0 		ldrh	r10, [r8, #4]
 1531 017a C1E7     		b	.L87
 1532              	.LVL108:
 1533              	.L117:
 1534              	.LBB816:
 1535              	.LBB811:
 173:../../libs/libDaisy/src/hid/disp/display.h ****         currentY_ = (y >= Height()) ? Height() - 1 : y;
 1536              		.loc 10 173 43 view .LVU321
 1537 017c 4046     		mov	r0, r8
 1538 017e 9047     		blx	r2
ARM GAS  C:\Users\matte\AppData\Local\Temp\ccvehO0v.s 			page 59


 1539              	.LVL109:
 173:../../libs/libDaisy/src/hid/disp/display.h ****         currentY_ = (y >= Height()) ? Height() - 1 : y;
 1540              		.loc 10 173 19 view .LVU322
 1541 0180 0138     		subs	r0, r0, #1
 174:../../libs/libDaisy/src/hid/disp/display.h ****     }
 1542              		.loc 10 174 34 view .LVU323
 1543 0182 D8F80030 		ldr	r3, [r8]
 173:../../libs/libDaisy/src/hid/disp/display.h ****         currentY_ = (y >= Height()) ? Height() - 1 : y;
 1544              		.loc 10 173 19 view .LVU324
 1545 0186 84B2     		uxth	r4, r0
 1546              	.LVL110:
 173:../../libs/libDaisy/src/hid/disp/display.h ****         currentY_ = (y >= Height()) ? Height() - 1 : y;
 1547              		.loc 10 173 19 view .LVU325
 1548 0188 C5E7     		b	.L96
 1549              	.L116:
 174:../../libs/libDaisy/src/hid/disp/display.h ****     }
 1550              		.loc 10 174 45 view .LVU326
 1551 018a 4046     		mov	r0, r8
 1552 018c 9847     		blx	r3
 1553              	.LVL111:
 174:../../libs/libDaisy/src/hid/disp/display.h ****     }
 1554              		.loc 10 174 19 view .LVU327
 1555 018e 0138     		subs	r0, r0, #1
 1556 0190 83B2     		uxth	r3, r0
 1557 0192 0193     		str	r3, [sp, #4]
 1558              	.LVL112:
 174:../../libs/libDaisy/src/hid/disp/display.h ****     }
 1559              		.loc 10 174 19 view .LVU328
 1560 0194 D1E7     		b	.L99
 1561              	.L119:
 1562 0196 00BF     		.align	2
 1563              	.L118:
 1564 0198 00000000 		.word	_ZNK5daisy11OledDisplayINS_13SSD130xDriverILj128ELj64ENS_19SSD130xI2CTransportEEEE5WidthEv
 1565 019c 00000000 		.word	_ZNK5daisy11OledDisplayINS_13SSD130xDriverILj128ELj64ENS_19SSD130xI2CTransportEEEE6HeightEv
 1566              	.LBE811:
 1567              	.LBE816:
 1568              		.cfi_endproc
 1569              	.LFE5478:
 1571              		.section	.text._ZN5daisy25OneBitGraphicsDisplayImplINS_11OledDisplayINS_13SSD130xDriverILj128ELj64
 1572              		.align	1
 1573              		.p2align 2,,3
 1574              		.weak	_ZN5daisy25OneBitGraphicsDisplayImplINS_11OledDisplayINS_13SSD130xDriverILj128ELj64ENS_19SSD
 1575              		.syntax unified
 1576              		.thumb
 1577              		.thumb_func
 1578              		.fpu fpv5-d16
 1580              	_ZN5daisy25OneBitGraphicsDisplayImplINS_11OledDisplayINS_13SSD130xDriverILj128ELj64ENS_19SSD130xI2C
 1581              	.LVL113:
 1582              	.LFB5480:
 459:../../libs/libDaisy/src/hid/disp/display.h **** 
 460:../../libs/libDaisy/src/hid/disp/display.h ****     Rectangle WriteStringAligned(const char*    str,
 1583              		.loc 10 460 15 is_stmt 1 view -0
 1584              		.cfi_startproc
 1585              		@ args = 12, pretend = 0, frame = 32
 1586              		@ frame_needed = 0, uses_anonymous_args = 0
 1587              		.loc 10 460 15 is_stmt 0 view .LVU330
 1588 0000 2DE9F04F 		push	{r4, r5, r6, r7, r8, r9, r10, fp, lr}
ARM GAS  C:\Users\matte\AppData\Local\Temp\ccvehO0v.s 			page 60


 1589              		.cfi_def_cfa_offset 36
 1590              		.cfi_offset 4, -36
 1591              		.cfi_offset 5, -32
 1592              		.cfi_offset 6, -28
 1593              		.cfi_offset 7, -24
 1594              		.cfi_offset 8, -20
 1595              		.cfi_offset 9, -16
 1596              		.cfi_offset 10, -12
 1597              		.cfi_offset 11, -8
 1598              		.cfi_offset 14, -4
 1599 0004 89B0     		sub	sp, sp, #36
 1600              		.cfi_def_cfa_offset 72
 1601              		.loc 10 460 15 view .LVU331
 1602 0006 1D46     		mov	r5, r3
 1603 0008 8846     		mov	r8, r1
 1604              	.LVL114:
 1605              	.LBB955:
 1606              	.LBI955:
 461:../../libs/libDaisy/src/hid/disp/display.h ****                                  const FontDef& font,
 462:../../libs/libDaisy/src/hid/disp/display.h ****                                  Rectangle      boundingBox,
 463:../../libs/libDaisy/src/hid/disp/display.h ****                                  Alignment      alignment,
 464:../../libs/libDaisy/src/hid/disp/display.h ****                                  bool           on) override
 465:../../libs/libDaisy/src/hid/disp/display.h ****     {
 466:../../libs/libDaisy/src/hid/disp/display.h ****         const auto alignedRect
 467:../../libs/libDaisy/src/hid/disp/display.h ****             = GetTextRect(str, font).AlignedWithin(boundingBox, alignment);
 468:../../libs/libDaisy/src/hid/disp/display.h ****         SetCursor(alignedRect.GetX(), alignedRect.GetY());
 469:../../libs/libDaisy/src/hid/disp/display.h ****         ((ChildType*)(this))->ChildType::WriteString(str, font, on);
 470:../../libs/libDaisy/src/hid/disp/display.h ****         return alignedRect;
 471:../../libs/libDaisy/src/hid/disp/display.h ****     }
 472:../../libs/libDaisy/src/hid/disp/display.h **** 
 473:../../libs/libDaisy/src/hid/disp/display.h ****   private:
 474:../../libs/libDaisy/src/hid/disp/display.h ****     uint32_t strlen(const char* string)
 475:../../libs/libDaisy/src/hid/disp/display.h ****     {
 476:../../libs/libDaisy/src/hid/disp/display.h ****         uint32_t result = 0;
 477:../../libs/libDaisy/src/hid/disp/display.h ****         while(*string++ != '\0')
 478:../../libs/libDaisy/src/hid/disp/display.h ****             result++;
 479:../../libs/libDaisy/src/hid/disp/display.h ****         return result;
 480:../../libs/libDaisy/src/hid/disp/display.h ****     }
 481:../../libs/libDaisy/src/hid/disp/display.h **** 
 482:../../libs/libDaisy/src/hid/disp/display.h ****     Rectangle GetTextRect(const char* text, const FontDef& font)
 1607              		.loc 10 482 15 is_stmt 1 view .LVU332
 1608              	.LBB956:
 1609              	.LBB957:
 1610              	.LBI957:
 474:../../libs/libDaisy/src/hid/disp/display.h ****     {
 1611              		.loc 10 474 14 view .LVU333
 1612              	.LBB958:
 477:../../libs/libDaisy/src/hid/disp/display.h ****             result++;
 1613              		.loc 10 477 25 view .LVU334
 1614              	.LBE958:
 1615              	.LBE957:
 1616              	.LBE956:
 1617              	.LBE955:
 460:../../libs/libDaisy/src/hid/disp/display.h ****                                  const FontDef& font,
 1618              		.loc 10 460 15 is_stmt 0 view .LVU335
 1619 000a 0690     		str	r0, [sp, #24]
 1620              	.LBB973:
ARM GAS  C:\Users\matte\AppData\Local\Temp\ccvehO0v.s 			page 61


 1621              	.LBB969:
 1622              	.LBB962:
 1623              	.LBB959:
 477:../../libs/libDaisy/src/hid/disp/display.h ****             result++;
 1624              		.loc 10 477 25 view .LVU336
 1625 000c 1046     		mov	r0, r2
 1626              	.LVL115:
 477:../../libs/libDaisy/src/hid/disp/display.h ****             result++;
 1627              		.loc 10 477 25 view .LVU337
 1628              	.LBE959:
 1629              	.LBE962:
 1630              	.LBE969:
 1631              	.LBE973:
 460:../../libs/libDaisy/src/hid/disp/display.h ****                                  const FontDef& font,
 1632              		.loc 10 460 15 view .LVU338
 1633 000e 129C     		ldr	r4, [sp, #72]
 1634              	.LBB974:
 1635              	.LBB970:
 1636              	.LBB963:
 1637              	.LBB960:
 477:../../libs/libDaisy/src/hid/disp/display.h ****             result++;
 1638              		.loc 10 477 25 view .LVU339
 1639 0010 10F8013B 		ldrb	r3, [r0], #1	@ zero_extendqisi2
 1640              	.LVL116:
 477:../../libs/libDaisy/src/hid/disp/display.h ****             result++;
 1641              		.loc 10 477 25 view .LVU340
 1642              	.LBE960:
 1643              	.LBE963:
 1644              	.LBE970:
 1645              	.LBE974:
 460:../../libs/libDaisy/src/hid/disp/display.h ****                                  const FontDef& font,
 1646              		.loc 10 460 15 view .LVU341
 1647 0014 1399     		ldr	r1, [sp, #76]
 1648              	.LVL117:
 460:../../libs/libDaisy/src/hid/disp/display.h ****                                  const FontDef& font,
 1649              		.loc 10 460 15 view .LVU342
 1650 0016 9DF85060 		ldrb	r6, [sp, #80]	@ zero_extendqisi2
 1651 001a 0092     		str	r2, [sp]
 1652              	.LBB975:
 1653              	.LBB971:
 1654              	.LBB964:
 1655              	.LBB961:
 477:../../libs/libDaisy/src/hid/disp/display.h ****             result++;
 1656              		.loc 10 477 25 view .LVU343
 1657 001c 33B1     		cbz	r3, .L121
 476:../../libs/libDaisy/src/hid/disp/display.h ****         while(*string++ != '\0')
 1658              		.loc 10 476 18 view .LVU344
 1659 001e 0022     		movs	r2, #0
 1660              	.LVL118:
 1661              	.L122:
 477:../../libs/libDaisy/src/hid/disp/display.h ****             result++;
 1662              		.loc 10 477 25 view .LVU345
 1663 0020 10F8013B 		ldrb	r3, [r0], #1	@ zero_extendqisi2
 1664              	.LVL119:
 478:../../libs/libDaisy/src/hid/disp/display.h ****         return result;
 1665              		.loc 10 478 13 view .LVU346
 1666 0024 0132     		adds	r2, r2, #1
ARM GAS  C:\Users\matte\AppData\Local\Temp\ccvehO0v.s 			page 62


 1667              	.LVL120:
 477:../../libs/libDaisy/src/hid/disp/display.h ****             result++;
 1668              		.loc 10 477 25 is_stmt 1 view .LVU347
 1669 0026 002B     		cmp	r3, #0
 1670 0028 FAD1     		bne	.L122
 1671              	.LBE961:
 1672              	.LBE964:
 483:../../libs/libDaisy/src/hid/disp/display.h ****     {
 484:../../libs/libDaisy/src/hid/disp/display.h ****         const auto numChars = strlen(text);
 485:../../libs/libDaisy/src/hid/disp/display.h ****         return {int16_t(numChars * font.FontWidth), font.FontHeight};
 1673              		.loc 10 485 68 is_stmt 0 view .LVU348
 1674 002a 93B2     		uxth	r3, r2
 1675              	.LVL121:
 1676              	.L121:
 1677              		.loc 10 485 68 view .LVU349
 1678 002c 2A78     		ldrb	r2, [r5]	@ zero_extendqisi2
 1679              		.loc 10 485 58 view .LVU350
 1680 002e 6878     		ldrb	r0, [r5, #1]	@ zero_extendqisi2
 1681              		.loc 10 485 68 view .LVU351
 1682 0030 12FB03F3 		smulbb	r3, r2, r3
 1683 0034 02B2     		sxth	r2, r0
 1684              	.LVL122:
 1685              	.LBB965:
 1686              	.LBI965:
 1687              		.file 14 "../../libs/libDaisy/src/hid/disp/graphics_common.h"
   1:../../libs/libDaisy/src/hid/disp/graphics_common.h **** #pragma once
   2:../../libs/libDaisy/src/hid/disp/graphics_common.h **** 
   3:../../libs/libDaisy/src/hid/disp/graphics_common.h **** #include <cstdint>
   4:../../libs/libDaisy/src/hid/disp/graphics_common.h **** 
   5:../../libs/libDaisy/src/hid/disp/graphics_common.h **** namespace daisy
   6:../../libs/libDaisy/src/hid/disp/graphics_common.h **** {
   7:../../libs/libDaisy/src/hid/disp/graphics_common.h **** /** Justifications */
   8:../../libs/libDaisy/src/hid/disp/graphics_common.h **** enum class Alignment
   9:../../libs/libDaisy/src/hid/disp/graphics_common.h **** {
  10:../../libs/libDaisy/src/hid/disp/graphics_common.h ****     centered,
  11:../../libs/libDaisy/src/hid/disp/graphics_common.h ****     topLeft,
  12:../../libs/libDaisy/src/hid/disp/graphics_common.h ****     topCentered,
  13:../../libs/libDaisy/src/hid/disp/graphics_common.h ****     topRight,
  14:../../libs/libDaisy/src/hid/disp/graphics_common.h ****     bottomLeft,
  15:../../libs/libDaisy/src/hid/disp/graphics_common.h ****     bottomCentered,
  16:../../libs/libDaisy/src/hid/disp/graphics_common.h ****     bottomRight,
  17:../../libs/libDaisy/src/hid/disp/graphics_common.h ****     centeredLeft,
  18:../../libs/libDaisy/src/hid/disp/graphics_common.h ****     centeredRight
  19:../../libs/libDaisy/src/hid/disp/graphics_common.h **** };
  20:../../libs/libDaisy/src/hid/disp/graphics_common.h **** 
  21:../../libs/libDaisy/src/hid/disp/graphics_common.h **** class Rectangle
  22:../../libs/libDaisy/src/hid/disp/graphics_common.h **** {
  23:../../libs/libDaisy/src/hid/disp/graphics_common.h ****   public:
  24:../../libs/libDaisy/src/hid/disp/graphics_common.h ****     Rectangle() : x_(0), y_(0), width_(0), height_(0) {}
  25:../../libs/libDaisy/src/hid/disp/graphics_common.h **** 
  26:../../libs/libDaisy/src/hid/disp/graphics_common.h ****     Rectangle(int16_t width, int16_t height)
 1688              		.loc 14 26 5 is_stmt 1 view .LVU352
 1689              	.LBB966:
 1690              	.LBI966:
  27:../../libs/libDaisy/src/hid/disp/graphics_common.h ****     : x_(0), y_(0), width_(max(0, width)), height_(max(0, height))
  28:../../libs/libDaisy/src/hid/disp/graphics_common.h ****     {
  29:../../libs/libDaisy/src/hid/disp/graphics_common.h ****     }
ARM GAS  C:\Users\matte\AppData\Local\Temp\ccvehO0v.s 			page 63


  30:../../libs/libDaisy/src/hid/disp/graphics_common.h **** 
  31:../../libs/libDaisy/src/hid/disp/graphics_common.h ****     Rectangle(int16_t x, int16_t y, int16_t width, int16_t height)
  32:../../libs/libDaisy/src/hid/disp/graphics_common.h ****     : x_(x), y_(y), width_(max(0, width)), height_(max(0, height))
  33:../../libs/libDaisy/src/hid/disp/graphics_common.h ****     {
  34:../../libs/libDaisy/src/hid/disp/graphics_common.h ****     }
  35:../../libs/libDaisy/src/hid/disp/graphics_common.h **** 
  36:../../libs/libDaisy/src/hid/disp/graphics_common.h ****     Rectangle(const Rectangle& other) { *this = other; }
  37:../../libs/libDaisy/src/hid/disp/graphics_common.h **** 
  38:../../libs/libDaisy/src/hid/disp/graphics_common.h ****     Rectangle& operator=(const Rectangle& other)
  39:../../libs/libDaisy/src/hid/disp/graphics_common.h ****     {
  40:../../libs/libDaisy/src/hid/disp/graphics_common.h ****         x_      = other.x_;
  41:../../libs/libDaisy/src/hid/disp/graphics_common.h ****         y_      = other.y_;
  42:../../libs/libDaisy/src/hid/disp/graphics_common.h ****         width_  = other.width_;
  43:../../libs/libDaisy/src/hid/disp/graphics_common.h ****         height_ = other.height_;
  44:../../libs/libDaisy/src/hid/disp/graphics_common.h ****         return *this;
  45:../../libs/libDaisy/src/hid/disp/graphics_common.h ****     }
  46:../../libs/libDaisy/src/hid/disp/graphics_common.h **** 
  47:../../libs/libDaisy/src/hid/disp/graphics_common.h ****     bool operator==(const Rectangle& other) const
  48:../../libs/libDaisy/src/hid/disp/graphics_common.h ****     {
  49:../../libs/libDaisy/src/hid/disp/graphics_common.h ****         return (x_ == other.x_) && (y_ == other.y_) && (width_ == other.width_)
  50:../../libs/libDaisy/src/hid/disp/graphics_common.h ****                && (height_ == other.height_);
  51:../../libs/libDaisy/src/hid/disp/graphics_common.h ****     }
  52:../../libs/libDaisy/src/hid/disp/graphics_common.h ****     bool operator!=(const Rectangle& other) const { return !(*this == other); }
  53:../../libs/libDaisy/src/hid/disp/graphics_common.h **** 
  54:../../libs/libDaisy/src/hid/disp/graphics_common.h ****     bool IsEmpty() const { return (width_ <= 0) || (height_ <= 0); }
  55:../../libs/libDaisy/src/hid/disp/graphics_common.h **** 
  56:../../libs/libDaisy/src/hid/disp/graphics_common.h ****     int16_t GetX() const { return x_; }
  57:../../libs/libDaisy/src/hid/disp/graphics_common.h ****     int16_t GetY() const { return y_; }
  58:../../libs/libDaisy/src/hid/disp/graphics_common.h ****     int16_t GetWidth() const { return width_; }
  59:../../libs/libDaisy/src/hid/disp/graphics_common.h ****     int16_t GetHeight() const { return height_; }
  60:../../libs/libDaisy/src/hid/disp/graphics_common.h ****     int16_t GetRight() const { return x_ + width_; }
  61:../../libs/libDaisy/src/hid/disp/graphics_common.h ****     int16_t GetBottom() const { return y_ + height_; }
  62:../../libs/libDaisy/src/hid/disp/graphics_common.h ****     int16_t GetCenterX() const { return x_ + width_ / 2; }
  63:../../libs/libDaisy/src/hid/disp/graphics_common.h ****     int16_t GetCenterY() const { return y_ + height_ / 2; }
  64:../../libs/libDaisy/src/hid/disp/graphics_common.h **** 
  65:../../libs/libDaisy/src/hid/disp/graphics_common.h ****     Rectangle WithX(int16_t x) const { return {x, y_, width_, height_}; }
  66:../../libs/libDaisy/src/hid/disp/graphics_common.h ****     Rectangle WithY(int16_t y) const { return {x_, y, width_, height_}; }
  67:../../libs/libDaisy/src/hid/disp/graphics_common.h ****     Rectangle WithWidth(int16_t width) const
  68:../../libs/libDaisy/src/hid/disp/graphics_common.h ****     {
  69:../../libs/libDaisy/src/hid/disp/graphics_common.h ****         return {x_, y_, width, height_};
  70:../../libs/libDaisy/src/hid/disp/graphics_common.h ****     }
  71:../../libs/libDaisy/src/hid/disp/graphics_common.h ****     Rectangle WithHeight(int16_t height) const
  72:../../libs/libDaisy/src/hid/disp/graphics_common.h ****     {
  73:../../libs/libDaisy/src/hid/disp/graphics_common.h ****         return {x_, y_, width_, height};
  74:../../libs/libDaisy/src/hid/disp/graphics_common.h ****     }
  75:../../libs/libDaisy/src/hid/disp/graphics_common.h ****     Rectangle WithSize(int16_t width, int16_t height) const
  76:../../libs/libDaisy/src/hid/disp/graphics_common.h ****     {
  77:../../libs/libDaisy/src/hid/disp/graphics_common.h ****         return {x_, y_, width, height};
  78:../../libs/libDaisy/src/hid/disp/graphics_common.h ****     }
  79:../../libs/libDaisy/src/hid/disp/graphics_common.h ****     Rectangle WithWidthKeepingCenter(int16_t width) const
  80:../../libs/libDaisy/src/hid/disp/graphics_common.h ****     {
  81:../../libs/libDaisy/src/hid/disp/graphics_common.h ****         return Rectangle(x_, y_, width, height_)
  82:../../libs/libDaisy/src/hid/disp/graphics_common.h ****             .WithCenter(GetCenterX(), GetCenterY());
  83:../../libs/libDaisy/src/hid/disp/graphics_common.h ****     }
  84:../../libs/libDaisy/src/hid/disp/graphics_common.h ****     Rectangle WithHeightKeepingCenter(int16_t height) const
  85:../../libs/libDaisy/src/hid/disp/graphics_common.h ****     {
  86:../../libs/libDaisy/src/hid/disp/graphics_common.h ****         return Rectangle(x_, y_, width_, height)
ARM GAS  C:\Users\matte\AppData\Local\Temp\ccvehO0v.s 			page 64


  87:../../libs/libDaisy/src/hid/disp/graphics_common.h ****             .WithCenter(GetCenterX(), GetCenterY());
  88:../../libs/libDaisy/src/hid/disp/graphics_common.h ****     }
  89:../../libs/libDaisy/src/hid/disp/graphics_common.h ****     Rectangle WithSizeKeepingCenter(int16_t width, int16_t height) const
  90:../../libs/libDaisy/src/hid/disp/graphics_common.h ****     {
  91:../../libs/libDaisy/src/hid/disp/graphics_common.h ****         return Rectangle(x_, y_, width, height)
  92:../../libs/libDaisy/src/hid/disp/graphics_common.h ****             .WithCenter(GetCenterX(), GetCenterY());
  93:../../libs/libDaisy/src/hid/disp/graphics_common.h ****     }
  94:../../libs/libDaisy/src/hid/disp/graphics_common.h **** 
  95:../../libs/libDaisy/src/hid/disp/graphics_common.h ****     Rectangle Reduced(int16_t sizeToReduce) const
  96:../../libs/libDaisy/src/hid/disp/graphics_common.h ****     {
  97:../../libs/libDaisy/src/hid/disp/graphics_common.h ****         return {int16_t(x_ + sizeToReduce),
  98:../../libs/libDaisy/src/hid/disp/graphics_common.h ****                 int16_t(y_ + sizeToReduce),
  99:../../libs/libDaisy/src/hid/disp/graphics_common.h ****                 int16_t(width_ - 2 * sizeToReduce),
 100:../../libs/libDaisy/src/hid/disp/graphics_common.h ****                 int16_t(height_ - 2 * sizeToReduce)};
 101:../../libs/libDaisy/src/hid/disp/graphics_common.h ****     }
 102:../../libs/libDaisy/src/hid/disp/graphics_common.h ****     Rectangle Reduced(int16_t xToReduce, int16_t yToReduce) const
 103:../../libs/libDaisy/src/hid/disp/graphics_common.h ****     {
 104:../../libs/libDaisy/src/hid/disp/graphics_common.h ****         return {int16_t(x_ + xToReduce),
 105:../../libs/libDaisy/src/hid/disp/graphics_common.h ****                 int16_t(y_ + yToReduce),
 106:../../libs/libDaisy/src/hid/disp/graphics_common.h ****                 int16_t(width_ - 2 * xToReduce),
 107:../../libs/libDaisy/src/hid/disp/graphics_common.h ****                 int16_t(height_ - 2 * yToReduce)};
 108:../../libs/libDaisy/src/hid/disp/graphics_common.h ****     }
 109:../../libs/libDaisy/src/hid/disp/graphics_common.h **** 
 110:../../libs/libDaisy/src/hid/disp/graphics_common.h ****     Rectangle Translated(int16_t x, int16_t y) const
 111:../../libs/libDaisy/src/hid/disp/graphics_common.h ****     {
 112:../../libs/libDaisy/src/hid/disp/graphics_common.h ****         return {int16_t(x_ + x), int16_t(y_ + y), width_, height_};
 113:../../libs/libDaisy/src/hid/disp/graphics_common.h ****     }
 114:../../libs/libDaisy/src/hid/disp/graphics_common.h **** 
 115:../../libs/libDaisy/src/hid/disp/graphics_common.h ****     Rectangle WithLeft(int16_t left) const
 116:../../libs/libDaisy/src/hid/disp/graphics_common.h ****     {
 117:../../libs/libDaisy/src/hid/disp/graphics_common.h ****         const auto newWidth = int16_t((x_ - left) + width_);
 118:../../libs/libDaisy/src/hid/disp/graphics_common.h ****         return {left, y_, newWidth, height_};
 119:../../libs/libDaisy/src/hid/disp/graphics_common.h ****     }
 120:../../libs/libDaisy/src/hid/disp/graphics_common.h **** 
 121:../../libs/libDaisy/src/hid/disp/graphics_common.h ****     Rectangle WithRight(int16_t right) const
 122:../../libs/libDaisy/src/hid/disp/graphics_common.h ****     {
 123:../../libs/libDaisy/src/hid/disp/graphics_common.h ****         const auto newWidth = int16_t(right - x_);
 124:../../libs/libDaisy/src/hid/disp/graphics_common.h ****         return {x_, y_, newWidth, height_};
 125:../../libs/libDaisy/src/hid/disp/graphics_common.h ****     }
 126:../../libs/libDaisy/src/hid/disp/graphics_common.h **** 
 127:../../libs/libDaisy/src/hid/disp/graphics_common.h ****     Rectangle WithTop(int16_t top) const
 128:../../libs/libDaisy/src/hid/disp/graphics_common.h ****     {
 129:../../libs/libDaisy/src/hid/disp/graphics_common.h ****         const auto newHeight = int16_t((y_ - top) + height_);
 130:../../libs/libDaisy/src/hid/disp/graphics_common.h ****         return {x_, top, width_, newHeight};
 131:../../libs/libDaisy/src/hid/disp/graphics_common.h ****     }
 132:../../libs/libDaisy/src/hid/disp/graphics_common.h **** 
 133:../../libs/libDaisy/src/hid/disp/graphics_common.h ****     Rectangle WithBottom(int16_t bottom) const
 134:../../libs/libDaisy/src/hid/disp/graphics_common.h ****     {
 135:../../libs/libDaisy/src/hid/disp/graphics_common.h ****         const auto newHeight = int16_t(bottom - y_);
 136:../../libs/libDaisy/src/hid/disp/graphics_common.h ****         return {x_, y_, width_, newHeight};
 137:../../libs/libDaisy/src/hid/disp/graphics_common.h ****     }
 138:../../libs/libDaisy/src/hid/disp/graphics_common.h **** 
 139:../../libs/libDaisy/src/hid/disp/graphics_common.h ****     Rectangle WithTrimmedLeft(int16_t pxToTrim) const
 140:../../libs/libDaisy/src/hid/disp/graphics_common.h ****     {
 141:../../libs/libDaisy/src/hid/disp/graphics_common.h ****         return {
 142:../../libs/libDaisy/src/hid/disp/graphics_common.h ****             int16_t(x_ + pxToTrim), y_, int16_t(width_ - pxToTrim), height_};
 143:../../libs/libDaisy/src/hid/disp/graphics_common.h ****     }
ARM GAS  C:\Users\matte\AppData\Local\Temp\ccvehO0v.s 			page 65


 144:../../libs/libDaisy/src/hid/disp/graphics_common.h **** 
 145:../../libs/libDaisy/src/hid/disp/graphics_common.h ****     Rectangle WithTrimmedRight(int16_t pxToTrim) const
 146:../../libs/libDaisy/src/hid/disp/graphics_common.h ****     {
 147:../../libs/libDaisy/src/hid/disp/graphics_common.h ****         return {x_, y_, int16_t(width_ - pxToTrim), height_};
 148:../../libs/libDaisy/src/hid/disp/graphics_common.h ****     }
 149:../../libs/libDaisy/src/hid/disp/graphics_common.h **** 
 150:../../libs/libDaisy/src/hid/disp/graphics_common.h ****     Rectangle WithTrimmedTop(int16_t pxToTrim) const
 151:../../libs/libDaisy/src/hid/disp/graphics_common.h ****     {
 152:../../libs/libDaisy/src/hid/disp/graphics_common.h ****         return {
 153:../../libs/libDaisy/src/hid/disp/graphics_common.h ****             x_, int16_t(y_ + pxToTrim), width_, int16_t(height_ - pxToTrim)};
 154:../../libs/libDaisy/src/hid/disp/graphics_common.h ****     }
 155:../../libs/libDaisy/src/hid/disp/graphics_common.h **** 
 156:../../libs/libDaisy/src/hid/disp/graphics_common.h ****     Rectangle WithTrimmedBottom(int16_t pxToTrim) const
 157:../../libs/libDaisy/src/hid/disp/graphics_common.h ****     {
 158:../../libs/libDaisy/src/hid/disp/graphics_common.h ****         return {x_, y_, width_, int16_t(height_ - pxToTrim)};
 159:../../libs/libDaisy/src/hid/disp/graphics_common.h ****     }
 160:../../libs/libDaisy/src/hid/disp/graphics_common.h **** 
 161:../../libs/libDaisy/src/hid/disp/graphics_common.h ****     Rectangle WithCenterX(int16_t centerX) const
 162:../../libs/libDaisy/src/hid/disp/graphics_common.h ****     {
 163:../../libs/libDaisy/src/hid/disp/graphics_common.h ****         return {int16_t(x_ + centerX - GetCenterX()), y_, width_, height_};
 164:../../libs/libDaisy/src/hid/disp/graphics_common.h ****     }
 165:../../libs/libDaisy/src/hid/disp/graphics_common.h **** 
 166:../../libs/libDaisy/src/hid/disp/graphics_common.h ****     Rectangle WithCenterY(int16_t centerY) const
 167:../../libs/libDaisy/src/hid/disp/graphics_common.h ****     {
 168:../../libs/libDaisy/src/hid/disp/graphics_common.h ****         return {x_, int16_t(y_ + centerY - GetCenterY()), width_, height_};
 169:../../libs/libDaisy/src/hid/disp/graphics_common.h ****     }
 170:../../libs/libDaisy/src/hid/disp/graphics_common.h **** 
 171:../../libs/libDaisy/src/hid/disp/graphics_common.h ****     Rectangle WithCenter(int16_t centerX, int16_t centerY) const
 172:../../libs/libDaisy/src/hid/disp/graphics_common.h ****     {
 173:../../libs/libDaisy/src/hid/disp/graphics_common.h ****         return {int16_t(x_ + centerX - GetCenterX()),
 174:../../libs/libDaisy/src/hid/disp/graphics_common.h ****                 int16_t(y_ + centerY - GetCenterY()),
 175:../../libs/libDaisy/src/hid/disp/graphics_common.h ****                 width_,
 176:../../libs/libDaisy/src/hid/disp/graphics_common.h ****                 height_};
 177:../../libs/libDaisy/src/hid/disp/graphics_common.h ****     }
 178:../../libs/libDaisy/src/hid/disp/graphics_common.h **** 
 179:../../libs/libDaisy/src/hid/disp/graphics_common.h ****     Rectangle RemoveFromLeft(int16_t pxToRemove)
 180:../../libs/libDaisy/src/hid/disp/graphics_common.h ****     {
 181:../../libs/libDaisy/src/hid/disp/graphics_common.h ****         const auto result = this->WithWidth(min(pxToRemove, width_));
 182:../../libs/libDaisy/src/hid/disp/graphics_common.h ****         x_ += min(pxToRemove, width_);
 183:../../libs/libDaisy/src/hid/disp/graphics_common.h ****         width_ = max(int16_t(width_ - pxToRemove), 0);
 184:../../libs/libDaisy/src/hid/disp/graphics_common.h ****         return result;
 185:../../libs/libDaisy/src/hid/disp/graphics_common.h ****     }
 186:../../libs/libDaisy/src/hid/disp/graphics_common.h **** 
 187:../../libs/libDaisy/src/hid/disp/graphics_common.h ****     Rectangle RemoveFromRight(int16_t pxToRemove)
 188:../../libs/libDaisy/src/hid/disp/graphics_common.h ****     {
 189:../../libs/libDaisy/src/hid/disp/graphics_common.h ****         const auto canRemove = min(pxToRemove, width_);
 190:../../libs/libDaisy/src/hid/disp/graphics_common.h ****         width_ -= canRemove;
 191:../../libs/libDaisy/src/hid/disp/graphics_common.h ****         return {int16_t(x_ + width_), y_, canRemove, height_};
 192:../../libs/libDaisy/src/hid/disp/graphics_common.h ****     }
 193:../../libs/libDaisy/src/hid/disp/graphics_common.h **** 
 194:../../libs/libDaisy/src/hid/disp/graphics_common.h ****     Rectangle RemoveFromTop(int16_t pxToRemove)
 195:../../libs/libDaisy/src/hid/disp/graphics_common.h ****     {
 196:../../libs/libDaisy/src/hid/disp/graphics_common.h ****         const auto result = this->WithHeight(min(pxToRemove, height_));
 197:../../libs/libDaisy/src/hid/disp/graphics_common.h ****         y_ += min(pxToRemove, height_);
 198:../../libs/libDaisy/src/hid/disp/graphics_common.h ****         height_ = max(height_ - pxToRemove, 0);
 199:../../libs/libDaisy/src/hid/disp/graphics_common.h ****         return result;
 200:../../libs/libDaisy/src/hid/disp/graphics_common.h ****     }
ARM GAS  C:\Users\matte\AppData\Local\Temp\ccvehO0v.s 			page 66


 201:../../libs/libDaisy/src/hid/disp/graphics_common.h **** 
 202:../../libs/libDaisy/src/hid/disp/graphics_common.h ****     Rectangle RemoveFromBottom(int16_t pxToRemove)
 203:../../libs/libDaisy/src/hid/disp/graphics_common.h ****     {
 204:../../libs/libDaisy/src/hid/disp/graphics_common.h ****         const auto canRemove = min(pxToRemove, height_);
 205:../../libs/libDaisy/src/hid/disp/graphics_common.h ****         height_ -= canRemove;
 206:../../libs/libDaisy/src/hid/disp/graphics_common.h ****         return {x_, int16_t(y_ + height_), width_, canRemove};
 207:../../libs/libDaisy/src/hid/disp/graphics_common.h ****     }
 208:../../libs/libDaisy/src/hid/disp/graphics_common.h **** 
 209:../../libs/libDaisy/src/hid/disp/graphics_common.h ****     Rectangle AlignedWithin(const Rectangle& other, Alignment alignment) const
 210:../../libs/libDaisy/src/hid/disp/graphics_common.h ****     {
 211:../../libs/libDaisy/src/hid/disp/graphics_common.h ****         switch(alignment)
 212:../../libs/libDaisy/src/hid/disp/graphics_common.h ****         {
 213:../../libs/libDaisy/src/hid/disp/graphics_common.h ****             case Alignment::topLeft:
 214:../../libs/libDaisy/src/hid/disp/graphics_common.h ****                 return {other.x_, other.y_, width_, height_};
 215:../../libs/libDaisy/src/hid/disp/graphics_common.h ****             case Alignment::topRight:
 216:../../libs/libDaisy/src/hid/disp/graphics_common.h ****                 return {int16_t(other.GetRight() - width_),
 217:../../libs/libDaisy/src/hid/disp/graphics_common.h ****                         other.y_,
 218:../../libs/libDaisy/src/hid/disp/graphics_common.h ****                         width_,
 219:../../libs/libDaisy/src/hid/disp/graphics_common.h ****                         height_};
 220:../../libs/libDaisy/src/hid/disp/graphics_common.h ****             case Alignment::topCentered:
 221:../../libs/libDaisy/src/hid/disp/graphics_common.h ****                 return {int16_t(x_ + (other.GetCenterX() - GetCenterX())),
 222:../../libs/libDaisy/src/hid/disp/graphics_common.h ****                         other.y_,
 223:../../libs/libDaisy/src/hid/disp/graphics_common.h ****                         width_,
 224:../../libs/libDaisy/src/hid/disp/graphics_common.h ****                         height_};
 225:../../libs/libDaisy/src/hid/disp/graphics_common.h ****             case Alignment::bottomLeft:
 226:../../libs/libDaisy/src/hid/disp/graphics_common.h ****                 return {other.x_,
 227:../../libs/libDaisy/src/hid/disp/graphics_common.h ****                         int16_t(other.GetBottom() - height_),
 228:../../libs/libDaisy/src/hid/disp/graphics_common.h ****                         width_,
 229:../../libs/libDaisy/src/hid/disp/graphics_common.h ****                         height_};
 230:../../libs/libDaisy/src/hid/disp/graphics_common.h ****             case Alignment::bottomRight:
 231:../../libs/libDaisy/src/hid/disp/graphics_common.h ****                 return {int16_t(other.GetRight() - width_),
 232:../../libs/libDaisy/src/hid/disp/graphics_common.h ****                         int16_t(other.GetBottom() - height_),
 233:../../libs/libDaisy/src/hid/disp/graphics_common.h ****                         width_,
 234:../../libs/libDaisy/src/hid/disp/graphics_common.h ****                         height_};
 235:../../libs/libDaisy/src/hid/disp/graphics_common.h ****             case Alignment::bottomCentered:
 236:../../libs/libDaisy/src/hid/disp/graphics_common.h ****                 return {int16_t(x_ + (other.GetCenterX() - GetCenterX())),
 237:../../libs/libDaisy/src/hid/disp/graphics_common.h ****                         int16_t(other.GetBottom() - height_),
 238:../../libs/libDaisy/src/hid/disp/graphics_common.h ****                         width_,
 239:../../libs/libDaisy/src/hid/disp/graphics_common.h ****                         height_};
 240:../../libs/libDaisy/src/hid/disp/graphics_common.h ****             case Alignment::centeredLeft:
 241:../../libs/libDaisy/src/hid/disp/graphics_common.h ****                 return {other.x_,
 242:../../libs/libDaisy/src/hid/disp/graphics_common.h ****                         int16_t(y_ + (other.GetCenterY() - GetCenterY())),
 243:../../libs/libDaisy/src/hid/disp/graphics_common.h ****                         width_,
 244:../../libs/libDaisy/src/hid/disp/graphics_common.h ****                         height_};
 245:../../libs/libDaisy/src/hid/disp/graphics_common.h ****             case Alignment::centeredRight:
 246:../../libs/libDaisy/src/hid/disp/graphics_common.h ****                 return {int16_t(other.GetRight() - width_),
 247:../../libs/libDaisy/src/hid/disp/graphics_common.h ****                         int16_t(y_ + (other.GetCenterY() - GetCenterY())),
 248:../../libs/libDaisy/src/hid/disp/graphics_common.h ****                         width_,
 249:../../libs/libDaisy/src/hid/disp/graphics_common.h ****                         height_};
 250:../../libs/libDaisy/src/hid/disp/graphics_common.h ****             case Alignment::centered:
 251:../../libs/libDaisy/src/hid/disp/graphics_common.h ****                 return {int16_t(x_ + (other.GetCenterX() - GetCenterX())),
 252:../../libs/libDaisy/src/hid/disp/graphics_common.h ****                         int16_t(y_ + (other.GetCenterY() - GetCenterY())),
 253:../../libs/libDaisy/src/hid/disp/graphics_common.h ****                         width_,
 254:../../libs/libDaisy/src/hid/disp/graphics_common.h ****                         height_};
 255:../../libs/libDaisy/src/hid/disp/graphics_common.h ****             default: return {};
 256:../../libs/libDaisy/src/hid/disp/graphics_common.h ****         }
 257:../../libs/libDaisy/src/hid/disp/graphics_common.h ****     }
ARM GAS  C:\Users\matte\AppData\Local\Temp\ccvehO0v.s 			page 67


 258:../../libs/libDaisy/src/hid/disp/graphics_common.h **** 
 259:../../libs/libDaisy/src/hid/disp/graphics_common.h ****   private:
 260:../../libs/libDaisy/src/hid/disp/graphics_common.h ****     int16_t x_, y_, width_, height_;
 261:../../libs/libDaisy/src/hid/disp/graphics_common.h ****     int16_t max(int16_t a, int16_t b) { return (a > b) ? a : b; }
 1691              		.loc 14 261 13 view .LVU353
 1692              	.LBE966:
 1693              	.LBE965:
 1694              	.LBE971:
 1695              	.LBE975:
 1696              		.loc 14 261 41 view .LVU354
 1697              	.LBB976:
 1698              	.LBB972:
 1699              	.LBB968:
 1700              	.LBB967:
 1701              	.LBI967:
 1702              		.loc 14 261 13 view .LVU355
 1703              	.LBE967:
 1704              	.LBE968:
 1705              	.LBE972:
 1706              	.LBE976:
 1707              		.loc 14 261 41 view .LVU356
 1708              	.LBB977:
 1709              	.LBI977:
 209:../../libs/libDaisy/src/hid/disp/graphics_common.h ****     {
 1710              		.loc 14 209 15 view .LVU357
 1711              	.LBB978:
 211:../../libs/libDaisy/src/hid/disp/graphics_common.h ****         {
 1712              		.loc 14 211 9 view .LVU358
 1713 0036 1BB2     		sxth	r3, r3
 1714 0038 23EAE373 		bic	r3, r3, r3, asr #31
 1715 003c 0829     		cmp	r1, #8
 1716 003e 00F2A981 		bhi	.L123
 1717 0042 DFE811F0 		tbh	[pc, r1, lsl #1]
 1718              	.L125:
 1719 0046 0201     		.2byte	(.L133-.L125)/2
 1720 0048 1401     		.2byte	(.L132-.L125)/2
 1721 004a 2001     		.2byte	(.L131-.L125)/2
 1722 004c 3401     		.2byte	(.L130-.L125)/2
 1723 004e 4201     		.2byte	(.L129-.L125)/2
 1724 0050 5001     		.2byte	(.L128-.L125)/2
 1725 0052 6701     		.2byte	(.L127-.L125)/2
 1726 0054 7101     		.2byte	(.L126-.L125)/2
 1727 0056 0900     		.2byte	(.L124-.L125)/2
 1728              		.p2align 1
 1729              	.L124:
 245:../../libs/libDaisy/src/hid/disp/graphics_common.h ****                 return {int16_t(other.GetRight() - width_),
 1730              		.loc 14 245 13 view .LVU359
 246:../../libs/libDaisy/src/hid/disp/graphics_common.h ****                         int16_t(y_ + (other.GetCenterY() - GetCenterY())),
 1731              		.loc 14 246 17 view .LVU360
 1732              	.LVL123:
 1733              	.LBB979:
 1734              	.LBI979:
  60:../../libs/libDaisy/src/hid/disp/graphics_common.h ****     int16_t GetBottom() const { return y_ + height_; }
 1735              		.loc 14 60 13 view .LVU361
 1736              	.LBB980:
  60:../../libs/libDaisy/src/hid/disp/graphics_common.h ****     int16_t GetBottom() const { return y_ + height_; }
 1737              		.loc 14 60 32 view .LVU362
ARM GAS  C:\Users\matte\AppData\Local\Temp\ccvehO0v.s 			page 68


  60:../../libs/libDaisy/src/hid/disp/graphics_common.h ****     int16_t GetBottom() const { return y_ + height_; }
 1738              		.loc 14 60 42 is_stmt 0 view .LVU363
 1739 0058 A188     		ldrh	r1, [r4, #4]
 1740              	.LVL124:
  60:../../libs/libDaisy/src/hid/disp/graphics_common.h ****     int16_t GetBottom() const { return y_ + height_; }
 1741              		.loc 14 60 42 view .LVU364
 1742 005a 2788     		ldrh	r7, [r4]
 1743 005c 0F44     		add	r7, r7, r1
 1744              	.LBE980:
 1745              	.LBE979:
 1746              	.LBB981:
 1747              	.LBB982:
  63:../../libs/libDaisy/src/hid/disp/graphics_common.h **** 
 1748              		.loc 14 63 54 view .LVU365
 1749 005e B4F90610 		ldrsh	r1, [r4, #6]
 1750              	.LBE982:
 1751              	.LBE981:
 246:../../libs/libDaisy/src/hid/disp/graphics_common.h ****                         int16_t(y_ + (other.GetCenterY() - GetCenterY())),
 1752              		.loc 14 246 50 view .LVU366
 1753 0062 FF1A     		subs	r7, r7, r3
 1754              	.LBB986:
 1755              	.LBB983:
  63:../../libs/libDaisy/src/hid/disp/graphics_common.h **** 
 1756              		.loc 14 63 54 view .LVU367
 1757 0064 0029     		cmp	r1, #0
 1758              	.LBE983:
 1759              	.LBE986:
 246:../../libs/libDaisy/src/hid/disp/graphics_common.h ****                         int16_t(y_ + (other.GetCenterY() - GetCenterY())),
 1760              		.loc 14 246 50 view .LVU368
 1761 0066 BFB2     		uxth	r7, r7
 1762              	.LVL125:
 1763              	.LBB987:
 1764              	.LBI981:
  63:../../libs/libDaisy/src/hid/disp/graphics_common.h **** 
 1765              		.loc 14 63 13 is_stmt 1 view .LVU369
 1766              	.LBB984:
  63:../../libs/libDaisy/src/hid/disp/graphics_common.h **** 
 1767              		.loc 14 63 34 view .LVU370
  63:../../libs/libDaisy/src/hid/disp/graphics_common.h **** 
 1768              		.loc 14 63 34 is_stmt 0 view .LVU371
 1769              	.LBE984:
 1770              	.LBE987:
 1771              	.LBB988:
 1772              	.LBI988:
  63:../../libs/libDaisy/src/hid/disp/graphics_common.h **** 
 1773              		.loc 14 63 13 is_stmt 1 view .LVU372
 1774              	.LBB989:
  63:../../libs/libDaisy/src/hid/disp/graphics_common.h **** 
 1775              		.loc 14 63 34 view .LVU373
  63:../../libs/libDaisy/src/hid/disp/graphics_common.h **** 
 1776              		.loc 14 63 34 is_stmt 0 view .LVU374
 1777              	.LBE989:
 1778              	.LBE988:
 1779              	.LBB990:
 1780              	.LBB985:
  63:../../libs/libDaisy/src/hid/disp/graphics_common.h **** 
 1781              		.loc 14 63 54 view .LVU375
ARM GAS  C:\Users\matte\AppData\Local\Temp\ccvehO0v.s 			page 69


 1782 0068 C0F2FF80 		blt	.L196
 1783              	.L140:
  63:../../libs/libDaisy/src/hid/disp/graphics_common.h **** 
 1784              		.loc 14 63 54 view .LVU376
 1785              	.LBE985:
 1786              	.LBE990:
 1787              	.LBB991:
 1788              	.LBB992:
  63:../../libs/libDaisy/src/hid/disp/graphics_common.h **** 
 1789              		.loc 14 63 44 view .LVU377
 1790 006c B4F802C0 		ldrh	ip, [r4, #2]
 1791              	.LBE992:
 1792              	.LBE991:
 1793              	.LBB998:
 1794              	.LBB999:
 1795              	.LBB1000:
  32:../../libs/libDaisy/src/hid/disp/graphics_common.h ****     {
 1796              		.loc 14 32 66 view .LVU378
 1797 0070 0698     		ldr	r0, [sp, #24]
 1798              	.LBE1000:
 1799              	.LBE999:
 1800              	.LBE998:
 1801              	.LBB1011:
 1802              	.LBB993:
  63:../../libs/libDaisy/src/hid/disp/graphics_common.h **** 
 1803              		.loc 14 63 44 view .LVU379
 1804 0072 0CEB6104 		add	r4, ip, r1, asr #1
 1805              	.LVL126:
  63:../../libs/libDaisy/src/hid/disp/graphics_common.h **** 
 1806              		.loc 14 63 44 view .LVU380
 1807              	.LBE993:
 1808              	.LBE1011:
 1809              	.LBB1012:
 1810              	.LBB1007:
 1811              	.LBB1003:
  32:../../libs/libDaisy/src/hid/disp/graphics_common.h ****     {
 1812              		.loc 14 32 66 view .LVU381
 1813 0076 C280     		strh	r2, [r0, #6]	@ movhi
 1814              	.LBE1003:
 1815              	.LBE1007:
 1816              	.LBE1012:
 252:../../libs/libDaisy/src/hid/disp/graphics_common.h ****                         width_,
 1817              		.loc 14 252 58 view .LVU382
 1818 0078 A4EB5202 		sub	r2, r4, r2, lsr #1
 1819              	.LBB1013:
 1820              	.LBB1008:
 1821              	.LBB1004:
  32:../../libs/libDaisy/src/hid/disp/graphics_common.h ****     {
 1822              		.loc 14 32 66 view .LVU383
 1823 007c 8380     		strh	r3, [r0, #4]	@ movhi
 1824 007e 0780     		strh	r7, [r0]	@ movhi
 1825              	.LBE1004:
 1826              	.LBE1008:
 1827              	.LBE1013:
 252:../../libs/libDaisy/src/hid/disp/graphics_common.h ****                         width_,
 1828              		.loc 14 252 58 view .LVU384
 1829 0080 94B2     		uxth	r4, r2
ARM GAS  C:\Users\matte\AppData\Local\Temp\ccvehO0v.s 			page 70


 1830              	.LVL127:
 1831              	.LBB1014:
 1832              	.LBI998:
  31:../../libs/libDaisy/src/hid/disp/graphics_common.h ****     : x_(x), y_(y), width_(max(0, width)), height_(max(0, height))
 1833              		.loc 14 31 5 is_stmt 1 view .LVU385
 1834              	.LBB1009:
 1835              	.LBB1005:
  32:../../libs/libDaisy/src/hid/disp/graphics_common.h ****     {
 1836              		.loc 14 32 66 is_stmt 0 view .LVU386
 1837 0082 4480     		strh	r4, [r0, #2]	@ movhi
 1838              	.LVL128:
 1839              	.LBB1001:
 1840              	.LBI1001:
 1841              		.loc 14 261 13 is_stmt 1 view .LVU387
 1842              	.LBE1001:
 1843              	.LBE1005:
 1844              	.LBE1009:
 1845              	.LBE1014:
 1846              	.LBE978:
 1847              	.LBE977:
 1848              		.loc 14 261 41 view .LVU388
 1849              	.LBB1201:
 1850              	.LBB1179:
 1851              	.LBB1015:
 1852              	.LBB1010:
 1853              	.LBB1006:
 1854              	.LBB1002:
 1855              	.LBI1002:
 1856              		.loc 14 261 13 view .LVU389
 1857              	.LBE1002:
 1858              	.LBE1006:
 1859              	.LBE1010:
 1860              	.LBE1015:
 1861              	.LBE1179:
 1862              	.LBE1201:
 1863              		.loc 14 261 41 view .LVU390
 1864              	.L134:
  56:../../libs/libDaisy/src/hid/disp/graphics_common.h ****     int16_t GetY() const { return y_; }
 1865              		.loc 14 56 28 view .LVU391
  57:../../libs/libDaisy/src/hid/disp/graphics_common.h ****     int16_t GetWidth() const { return width_; }
 1866              		.loc 14 57 28 view .LVU392
 1867              	.LBB1202:
 1868              	.LBI1202:
 171:../../libs/libDaisy/src/hid/disp/display.h ****     {
 1869              		.loc 10 171 10 view .LVU393
 1870              	.LBB1203:
 173:../../libs/libDaisy/src/hid/disp/display.h ****         currentY_ = (y >= Height()) ? Height() - 1 : y;
 1871              		.loc 10 173 9 view .LVU394
 1872 0084 A64A     		ldr	r2, .L206
 173:../../libs/libDaisy/src/hid/disp/display.h ****         currentY_ = (y >= Height()) ? Height() - 1 : y;
 1873              		.loc 10 173 33 is_stmt 0 view .LVU395
 1874 0086 D8F80030 		ldr	r3, [r8]
 1875 008a 1146     		mov	r1, r2
 1876 008c 0192     		str	r2, [sp, #4]
 1877 008e DA68     		ldr	r2, [r3, #12]
 1878 0090 8A42     		cmp	r2, r1
 1879 0092 40F08D81 		bne	.L142
ARM GAS  C:\Users\matte\AppData\Local\Temp\ccvehO0v.s 			page 71


 1880 0096 8020     		movs	r0, #128
 1881              	.LVL129:
 1882              	.L143:
 173:../../libs/libDaisy/src/hid/disp/display.h ****         currentY_ = (y >= Height()) ? Height() - 1 : y;
 1883              		.loc 10 173 19 view .LVU396
 1884 0098 B842     		cmp	r0, r7
 1885 009a 05D8     		bhi	.L144
 173:../../libs/libDaisy/src/hid/disp/display.h ****         currentY_ = (y >= Height()) ? Height() - 1 : y;
 1886              		.loc 10 173 44 view .LVU397
 1887 009c DA68     		ldr	r2, [r3, #12]
 1888 009e 0199     		ldr	r1, [sp, #4]
 1889 00a0 8A42     		cmp	r2, r1
 1890 00a2 40F09A81 		bne	.L197
 1891 00a6 7F27     		movs	r7, #127
 1892              	.L144:
 1893 00a8 9E4A     		ldr	r2, .L206+4
 174:../../libs/libDaisy/src/hid/disp/display.h ****     }
 1894              		.loc 10 174 34 view .LVU398
 1895 00aa 9B68     		ldr	r3, [r3, #8]
 173:../../libs/libDaisy/src/hid/disp/display.h ****         currentY_ = (y >= Height()) ? Height() - 1 : y;
 1896              		.loc 10 173 19 view .LVU399
 1897 00ac A8F80470 		strh	r7, [r8, #4]	@ movhi
 174:../../libs/libDaisy/src/hid/disp/display.h ****     }
 1898              		.loc 10 174 9 is_stmt 1 view .LVU400
 1899 00b0 9342     		cmp	r3, r2
 1900 00b2 0392     		str	r2, [sp, #12]
 1901 00b4 40F08981 		bne	.L174
 174:../../libs/libDaisy/src/hid/disp/display.h ****     }
 1902              		.loc 10 174 34 is_stmt 0 view .LVU401
 1903 00b8 4020     		movs	r0, #64
 1904              	.L146:
 174:../../libs/libDaisy/src/hid/disp/display.h ****     }
 1905              		.loc 10 174 19 view .LVU402
 1906 00ba A042     		cmp	r0, r4
 1907 00bc 07D8     		bhi	.L148
 174:../../libs/libDaisy/src/hid/disp/display.h ****     }
 1908              		.loc 10 174 46 view .LVU403
 1909 00be D8F80030 		ldr	r3, [r8]
 1910 00c2 039A     		ldr	r2, [sp, #12]
 1911 00c4 9B68     		ldr	r3, [r3, #8]
 1912 00c6 9342     		cmp	r3, r2
 1913 00c8 40F08281 		bne	.L198
 1914 00cc 3F24     		movs	r4, #63
 1915              	.L148:
 174:../../libs/libDaisy/src/hid/disp/display.h ****     }
 1916              		.loc 10 174 46 view .LVU404
 1917              	.LBE1203:
 1918              	.LBE1202:
 1919              	.LBB1207:
 1920              	.LBB1208:
 443:../../libs/libDaisy/src/hid/disp/display.h ****         {
 1921              		.loc 10 443 9 view .LVU405
 1922 00ce 009B     		ldr	r3, [sp]
 1923              	.LBE1208:
 1924              	.LBE1207:
 1925              	.LBB1256:
 1926              	.LBB1204:
ARM GAS  C:\Users\matte\AppData\Local\Temp\ccvehO0v.s 			page 72


 174:../../libs/libDaisy/src/hid/disp/display.h ****     }
 1927              		.loc 10 174 19 view .LVU406
 1928 00d0 A8F80640 		strh	r4, [r8, #6]	@ movhi
 1929              	.LVL130:
 174:../../libs/libDaisy/src/hid/disp/display.h ****     }
 1930              		.loc 10 174 19 view .LVU407
 1931              	.LBE1204:
 1932              	.LBE1256:
 1933              	.LBB1257:
 1934              	.LBB1253:
 443:../../libs/libDaisy/src/hid/disp/display.h ****         {
 1935              		.loc 10 443 9 view .LVU408
 1936 00d4 93F800B0 		ldrb	fp, [r3]	@ zero_extendqisi2
 1937 00d8 6B78     		ldrb	r3, [r5, #1]	@ zero_extendqisi2
 1938              	.LVL131:
 443:../../libs/libDaisy/src/hid/disp/display.h ****         {
 1939              		.loc 10 443 9 view .LVU409
 1940 00da 2C78     		ldrb	r4, [r5]	@ zero_extendqisi2
 1941              	.LVL132:
 443:../../libs/libDaisy/src/hid/disp/display.h ****         {
 1942              		.loc 10 443 9 view .LVU410
 1943 00dc 0493     		str	r3, [sp, #16]
 1944              	.LVL133:
 443:../../libs/libDaisy/src/hid/disp/display.h ****         {
 1945              		.loc 10 443 9 view .LVU411
 1946 00de 6B68     		ldr	r3, [r5, #4]
 1947 00e0 0793     		str	r3, [sp, #28]
 1948              	.LVL134:
 443:../../libs/libDaisy/src/hid/disp/display.h ****         {
 1949              		.loc 10 443 9 view .LVU412
 1950              	.LBE1253:
 1951              	.LBI1207:
 440:../../libs/libDaisy/src/hid/disp/display.h ****     {
 1952              		.loc 10 440 10 is_stmt 1 view .LVU413
 1953              	.LBB1254:
 443:../../libs/libDaisy/src/hid/disp/display.h ****         {
 1954              		.loc 10 443 9 view .LVU414
 1955 00e2 BBF1000F 		cmp	fp, #0
 1956 00e6 00F0AC80 		beq	.L120
 1957              	.LVL135:
 1958              	.L150:
 1959              	.LBB1209:
 1960              	.LBI1209:
 396:../../libs/libDaisy/src/hid/disp/display.h ****     {
 1961              		.loc 10 396 10 view .LVU415
 1962              	.LBB1210:
 401:../../libs/libDaisy/src/hid/disp/display.h ****             return 0;
 1963              		.loc 10 401 20 is_stmt 0 view .LVU416
 1964 00ea ABF12005 		sub	r5, fp, #32
 401:../../libs/libDaisy/src/hid/disp/display.h ****             return 0;
 1965              		.loc 10 401 9 view .LVU417
 1966 00ee EBB2     		uxtb	r3, r5
 1967 00f0 5E2B     		cmp	r3, #94
 1968 00f2 00F22E81 		bhi	.L154
 405:../../libs/libDaisy/src/hid/disp/display.h ****            || Height() < (currentY_ + font.FontHeight))
 1969              		.loc 10 405 17 view .LVU418
 1970 00f6 D8F80030 		ldr	r3, [r8]
ARM GAS  C:\Users\matte\AppData\Local\Temp\ccvehO0v.s 			page 73


 1971 00fa 019A     		ldr	r2, [sp, #4]
 1972 00fc DB68     		ldr	r3, [r3, #12]
 1973 00fe 9342     		cmp	r3, r2
 1974 0100 40F02A81 		bne	.L199
 1975 0104 8020     		movs	r0, #128
 1976              	.L153:
 405:../../libs/libDaisy/src/hid/disp/display.h ****            || Height() < (currentY_ + font.FontHeight))
 1977              		.loc 10 405 23 view .LVU419
 1978 0106 B8F80430 		ldrh	r3, [r8, #4]
 405:../../libs/libDaisy/src/hid/disp/display.h ****            || Height() < (currentY_ + font.FontHeight))
 1979              		.loc 10 405 33 view .LVU420
 1980 010a 2344     		add	r3, r3, r4
 406:../../libs/libDaisy/src/hid/disp/display.h ****         {
 1981              		.loc 10 406 12 view .LVU421
 1982 010c 9842     		cmp	r0, r3
 1983 010e C0F22081 		blt	.L154
 406:../../libs/libDaisy/src/hid/disp/display.h ****         {
 1984              		.loc 10 406 21 view .LVU422
 1985 0112 D8F80030 		ldr	r3, [r8]
 1986 0116 039A     		ldr	r2, [sp, #12]
 1987 0118 9B68     		ldr	r3, [r3, #8]
 1988 011a 9342     		cmp	r3, r2
 1989 011c 40F01F81 		bne	.L200
 1990 0120 4020     		movs	r0, #64
 1991              	.L155:
 406:../../libs/libDaisy/src/hid/disp/display.h ****         {
 1992              		.loc 10 406 27 view .LVU423
 1993 0122 B8F80610 		ldrh	r1, [r8, #6]
 406:../../libs/libDaisy/src/hid/disp/display.h ****         {
 1994              		.loc 10 406 37 view .LVU424
 1995 0126 049A     		ldr	r2, [sp, #16]
 406:../../libs/libDaisy/src/hid/disp/display.h ****         {
 1996              		.loc 10 406 27 view .LVU425
 1997 0128 0291     		str	r1, [sp, #8]
 406:../../libs/libDaisy/src/hid/disp/display.h ****         {
 1998              		.loc 10 406 37 view .LVU426
 1999 012a 8B18     		adds	r3, r1, r2
 406:../../libs/libDaisy/src/hid/disp/display.h ****         {
 2000              		.loc 10 406 12 view .LVU427
 2001 012c 9842     		cmp	r0, r3
 2002 012e C0F21081 		blt	.L154
 2003              	.LVL136:
 413:../../libs/libDaisy/src/hid/disp/display.h ****         {
 2004              		.loc 10 413 22 is_stmt 1 view .LVU428
 2005 0132 002A     		cmp	r2, #0
 2006 0134 00F01E81 		beq	.L156
 415:../../libs/libDaisy/src/hid/disp/display.h ****             for(j = 0; j < font.FontWidth; j++)
 2007              		.loc 10 415 37 is_stmt 0 view .LVU429
 2008 0138 02FB05F5 		mul	r5, r2, r5
 2009 013c 6FF0004E 		mvn	lr, #-2147483648
 2010 0140 079B     		ldr	r3, [sp, #28]
 2011 0142 AE44     		add	lr, lr, r5
 2012 0144 1544     		add	r5, r5, r2
 2013 0146 CDF814B0 		str	fp, [sp, #20]
 2014 014a 03EB4E0E 		add	lr, r3, lr, lsl #1
 2015 014e 023B     		subs	r3, r3, #2
 434:../../libs/libDaisy/src/hid/disp/display.h **** 
ARM GAS  C:\Users\matte\AppData\Local\Temp\ccvehO0v.s 			page 74


 2016              		.loc 10 434 19 view .LVU430
 2017 0150 B8F804A0 		ldrh	r10, [r8, #4]
 2018 0154 03EB4503 		add	r3, r3, r5, lsl #1
 2019 0158 0D46     		mov	r5, r1
 2020 015a 9B46     		mov	fp, r3
 2021              	.LVL137:
 2022              	.L159:
 415:../../libs/libDaisy/src/hid/disp/display.h ****             for(j = 0; j < font.FontWidth; j++)
 2023              		.loc 10 415 15 view .LVU431
 2024 015c 3EF8027F 		ldrh	r7, [lr, #2]!
 2025              	.LVL138:
 416:../../libs/libDaisy/src/hid/disp/display.h ****             {
 2026              		.loc 10 416 26 is_stmt 1 view .LVU432
 2027 0160 A4B3     		cbz	r4, .L164
 2028              	.LBB1211:
 2029              	.LBB1212:
 2030              	.LBB1213:
 2031              	.LBB1214:
 2032              	.LBB1215:
 347:../../libs/libDaisy/src/sys/../../../../libs/libDaisy/src/dev/oled_ssd130x.h ****     }
 2033              		.loc 11 347 55 is_stmt 0 view .LVU433
 2034 0162 05F00703 		and	r3, r5, #7
 347:../../libs/libDaisy/src/sys/../../../../libs/libDaisy/src/dev/oled_ssd130x.h ****     }
 2035              		.loc 11 347 49 view .LVU434
 2036 0166 4FF0010C 		mov	ip, #1
 347:../../libs/libDaisy/src/sys/../../../../libs/libDaisy/src/dev/oled_ssd130x.h ****     }
 2037              		.loc 11 347 28 view .LVU435
 2038 016a EA08     		lsrs	r2, r5, #3
 2039 016c 5146     		mov	r1, r10
 347:../../libs/libDaisy/src/sys/../../../../libs/libDaisy/src/dev/oled_ssd130x.h ****     }
 2040              		.loc 11 347 49 view .LVU436
 2041 016e 0CFA03FC 		lsl	ip, ip, r3
 2042 0172 0AF11003 		add	r3, r10, #16
 347:../../libs/libDaisy/src/sys/../../../../libs/libDaisy/src/dev/oled_ssd130x.h ****     }
 2043              		.loc 11 347 42 view .LVU437
 2044 0176 4FFA8CFC 		sxtb	ip, ip
 2045 017a 03EBC212 		add	r2, r3, r2, lsl #7
 2046              	.LBE1215:
 2047              	.LBE1214:
 2048              	.LBE1213:
 2049              	.LBE1212:
 2050              	.LBE1211:
 416:../../libs/libDaisy/src/hid/disp/display.h ****             {
 2051              		.loc 10 416 19 view .LVU438
 2052 017e 0023     		movs	r3, #0
 2053              	.LBB1233:
 2054              	.LBB1228:
 2055              	.LBB1223:
 2056              	.LBB1219:
 2057              	.LBB1216:
 347:../../libs/libDaisy/src/sys/../../../../libs/libDaisy/src/dev/oled_ssd130x.h ****     }
 2058              		.loc 11 347 42 view .LVU439
 2059 0180 6FEA0C09 		mvn	r9, ip
 2060 0184 4244     		add	r2, r2, r8
 2061 0186 0DE0     		b	.L165
 2062              	.LVL139:
 2063              	.L201:
ARM GAS  C:\Users\matte\AppData\Local\Temp\ccvehO0v.s 			page 75


 347:../../libs/libDaisy/src/sys/../../../../libs/libDaisy/src/dev/oled_ssd130x.h ****     }
 2064              		.loc 11 347 42 view .LVU440
 2065              	.LBE1216:
 2066              	.LBE1219:
 2067              	.LBE1223:
 2068              	.LBE1228:
 2069              	.LBE1233:
 2070              	.LBB1234:
 2071              	.LBI1234:
  42:../../libs/libDaisy/src/hid/disp/oled_display.h ****     {
 2072              		.loc 9 42 10 is_stmt 1 view .LVU441
 2073              	.LBB1235:
 2074              	.LBI1235:
 340:../../libs/libDaisy/src/sys/../../../../libs/libDaisy/src/dev/oled_ssd130x.h ****     {
 2075              		.loc 11 340 10 view .LVU442
 2076              	.LBB1236:
 342:../../libs/libDaisy/src/sys/../../../../libs/libDaisy/src/dev/oled_ssd130x.h ****             return;
 2077              		.loc 11 342 9 is_stmt 0 view .LVU443
 2078 0188 7F29     		cmp	r1, #127
 2079 018a 06D8     		bhi	.L161
 2080 018c 3F2D     		cmp	r5, #63
 2081 018e 04D8     		bhi	.L161
 345:../../libs/libDaisy/src/sys/../../../../libs/libDaisy/src/dev/oled_ssd130x.h ****         else
 2082              		.loc 11 345 42 view .LVU444
 2083 0190 1078     		ldrb	r0, [r2]	@ zero_extendqisi2
 344:../../libs/libDaisy/src/sys/../../../../libs/libDaisy/src/dev/oled_ssd130x.h ****             buffer_[x + (y / 8) * width] |= (1 << (y % 8));
 2084              		.loc 11 344 9 view .LVU445
 2085 0192 96B1     		cbz	r6, .L163
 2086              	.L195:
 344:../../libs/libDaisy/src/sys/../../../../libs/libDaisy/src/dev/oled_ssd130x.h ****             buffer_[x + (y / 8) * width] |= (1 << (y % 8));
 2087              		.loc 11 344 9 view .LVU446
 2088              	.LBE1236:
 2089              	.LBE1235:
 2090              	.LBE1234:
 2091              	.LBB1237:
 2092              	.LBB1229:
 2093              	.LBB1224:
 345:../../libs/libDaisy/src/sys/../../../../libs/libDaisy/src/dev/oled_ssd130x.h ****         else
 2094              		.loc 11 345 42 view .LVU447
 2095 0194 4CEA0000 		orr	r0, ip, r0
 2096 0198 1070     		strb	r0, [r2]
 2097              	.L161:
 2098              	.LBE1224:
 2099              	.LBE1229:
 2100              	.LBE1237:
 416:../../libs/libDaisy/src/hid/disp/display.h ****             {
 2101              		.loc 10 416 13 is_stmt 1 view .LVU448
 2102 019a 0133     		adds	r3, r3, #1
 2103              	.LVL140:
 416:../../libs/libDaisy/src/hid/disp/display.h ****             {
 2104              		.loc 10 416 26 view .LVU449
 2105 019c 0132     		adds	r2, r2, #1
 2106 019e 0131     		adds	r1, r1, #1
 2107 01a0 9C42     		cmp	r4, r3
 2108 01a2 13D0     		beq	.L164
 2109              	.LVL141:
 2110              	.L165:
ARM GAS  C:\Users\matte\AppData\Local\Temp\ccvehO0v.s 			page 76


 418:../../libs/libDaisy/src/hid/disp/display.h ****                 {
 2111              		.loc 10 418 23 is_stmt 0 view .LVU450
 2112 01a4 07FA03F0 		lsl	r0, r7, r3
 418:../../libs/libDaisy/src/hid/disp/display.h ****                 {
 2113              		.loc 10 418 17 view .LVU451
 2114 01a8 0004     		lsls	r0, r0, #16
 2115 01aa EDD4     		bmi	.L201
 2116              	.LVL142:
 2117              	.LBB1238:
 2118              	.LBI1211:
  42:../../libs/libDaisy/src/hid/disp/oled_display.h ****     {
 2119              		.loc 9 42 10 is_stmt 1 view .LVU452
 2120              	.LBB1230:
 2121              	.LBI1212:
 340:../../libs/libDaisy/src/sys/../../../../libs/libDaisy/src/dev/oled_ssd130x.h ****     {
 2122              		.loc 11 340 10 view .LVU453
 2123              	.LBB1225:
 342:../../libs/libDaisy/src/sys/../../../../libs/libDaisy/src/dev/oled_ssd130x.h ****             return;
 2124              		.loc 11 342 9 is_stmt 0 view .LVU454
 2125 01ac 7F29     		cmp	r1, #127
 2126 01ae F4D8     		bhi	.L161
 2127 01b0 3F2D     		cmp	r5, #63
 2128 01b2 F2D8     		bhi	.L161
 345:../../libs/libDaisy/src/sys/../../../../libs/libDaisy/src/dev/oled_ssd130x.h ****         else
 2129              		.loc 11 345 42 view .LVU455
 2130 01b4 1078     		ldrb	r0, [r2]	@ zero_extendqisi2
 344:../../libs/libDaisy/src/sys/../../../../libs/libDaisy/src/dev/oled_ssd130x.h ****             buffer_[x + (y / 8) * width] |= (1 << (y % 8));
 2131              		.loc 11 344 9 view .LVU456
 2132 01b6 002E     		cmp	r6, #0
 2133 01b8 ECD0     		beq	.L195
 2134              	.L163:
 2135              	.LVL143:
 2136              	.LBB1220:
 2137              	.LBI1214:
 340:../../libs/libDaisy/src/sys/../../../../libs/libDaisy/src/dev/oled_ssd130x.h ****     {
 2138              		.loc 11 340 10 is_stmt 1 view .LVU457
 340:../../libs/libDaisy/src/sys/../../../../libs/libDaisy/src/dev/oled_ssd130x.h ****     {
 2139              		.loc 11 340 10 is_stmt 0 view .LVU458
 2140              	.LBE1220:
 2141              	.LBE1225:
 2142              	.LBE1230:
 2143              	.LBE1238:
 416:../../libs/libDaisy/src/hid/disp/display.h ****             {
 2144              		.loc 10 416 13 view .LVU459
 2145 01ba 0133     		adds	r3, r3, #1
 2146              	.LVL144:
 2147              	.LBB1239:
 2148              	.LBB1231:
 2149              	.LBB1226:
 2150              	.LBB1221:
 2151              	.LBB1217:
 347:../../libs/libDaisy/src/sys/../../../../libs/libDaisy/src/dev/oled_ssd130x.h ****     }
 2152              		.loc 11 347 42 view .LVU460
 2153 01bc 09EA0000 		and	r0, r9, r0
 2154              	.LBE1217:
 2155              	.LBE1221:
 2156              	.LBE1226:
ARM GAS  C:\Users\matte\AppData\Local\Temp\ccvehO0v.s 			page 77


 2157              	.LBE1231:
 2158              	.LBE1239:
 416:../../libs/libDaisy/src/hid/disp/display.h ****             {
 2159              		.loc 10 416 26 view .LVU461
 2160 01c0 0132     		adds	r2, r2, #1
 2161 01c2 0131     		adds	r1, r1, #1
 2162 01c4 9C42     		cmp	r4, r3
 2163              	.LBB1240:
 2164              	.LBB1232:
 2165              	.LBB1227:
 2166              	.LBB1222:
 2167              	.LBB1218:
 347:../../libs/libDaisy/src/sys/../../../../libs/libDaisy/src/dev/oled_ssd130x.h ****     }
 2168              		.loc 11 347 42 view .LVU462
 2169 01c6 02F8010C 		strb	r0, [r2, #-1]
 347:../../libs/libDaisy/src/sys/../../../../libs/libDaisy/src/dev/oled_ssd130x.h ****     }
 2170              		.loc 11 347 42 view .LVU463
 2171              	.LBE1218:
 2172              	.LBE1222:
 2173              	.LBE1227:
 2174              	.LBE1232:
 2175              	.LBE1240:
 416:../../libs/libDaisy/src/hid/disp/display.h ****             {
 2176              		.loc 10 416 13 is_stmt 1 view .LVU464
 2177              	.LVL145:
 416:../../libs/libDaisy/src/hid/disp/display.h ****             {
 2178              		.loc 10 416 26 view .LVU465
 2179 01ca EBD1     		bne	.L165
 2180              	.LVL146:
 2181              	.L164:
 413:../../libs/libDaisy/src/hid/disp/display.h ****         {
 2182              		.loc 10 413 9 view .LVU466
 413:../../libs/libDaisy/src/hid/disp/display.h ****         {
 2183              		.loc 10 413 22 view .LVU467
 2184 01cc F345     		cmp	fp, lr
 2185 01ce 05F10105 		add	r5, r5, #1
 2186 01d2 C3D1     		bne	.L159
 2187 01d4 DDF814B0 		ldr	fp, [sp, #20]
 2188              	.LVL147:
 2189              	.L158:
 2190              	.LBB1241:
 2191              	.LBB1242:
 173:../../libs/libDaisy/src/hid/disp/display.h ****         currentY_ = (y >= Height()) ? Height() - 1 : y;
 2192              		.loc 10 173 33 is_stmt 0 view .LVU468
 2193 01d8 D8F80020 		ldr	r2, [r8]
 2194              	.LBE1242:
 2195              	.LBE1241:
 434:../../libs/libDaisy/src/hid/disp/display.h **** 
 2196              		.loc 10 434 18 view .LVU469
 2197 01dc 0AEB0405 		add	r5, r10, r4
 2198 01e0 0199     		ldr	r1, [sp, #4]
 2199              	.LBB1247:
 2200              	.LBB1243:
 173:../../libs/libDaisy/src/hid/disp/display.h ****         currentY_ = (y >= Height()) ? Height() - 1 : y;
 2201              		.loc 10 173 33 view .LVU470
 2202 01e2 D368     		ldr	r3, [r2, #12]
 2203              	.LBE1243:
ARM GAS  C:\Users\matte\AppData\Local\Temp\ccvehO0v.s 			page 78


 2204              	.LBE1247:
 434:../../libs/libDaisy/src/hid/disp/display.h **** 
 2205              		.loc 10 434 18 view .LVU471
 2206 01e4 ADB2     		uxth	r5, r5
 2207              	.LVL148:
 2208              	.LBB1248:
 2209              	.LBI1241:
 171:../../libs/libDaisy/src/hid/disp/display.h ****     {
 2210              		.loc 10 171 10 is_stmt 1 view .LVU472
 2211              	.LBB1244:
 173:../../libs/libDaisy/src/hid/disp/display.h ****         currentY_ = (y >= Height()) ? Height() - 1 : y;
 2212              		.loc 10 173 9 view .LVU473
 2213 01e6 8B42     		cmp	r3, r1
 2214 01e8 40F0BF80 		bne	.L202
 173:../../libs/libDaisy/src/hid/disp/display.h ****         currentY_ = (y >= Height()) ? Height() - 1 : y;
 2215              		.loc 10 173 33 is_stmt 0 view .LVU474
 2216 01ec 8020     		movs	r0, #128
 2217              	.L166:
 173:../../libs/libDaisy/src/hid/disp/display.h ****         currentY_ = (y >= Height()) ? Height() - 1 : y;
 2218              		.loc 10 173 19 view .LVU475
 2219 01ee 8542     		cmp	r5, r0
 2220 01f0 05D3     		bcc	.L167
 173:../../libs/libDaisy/src/hid/disp/display.h ****         currentY_ = (y >= Height()) ? Height() - 1 : y;
 2221              		.loc 10 173 44 view .LVU476
 2222 01f2 D368     		ldr	r3, [r2, #12]
 2223 01f4 0199     		ldr	r1, [sp, #4]
 2224 01f6 8B42     		cmp	r3, r1
 2225 01f8 40F0C580 		bne	.L203
 2226 01fc 7F25     		movs	r5, #127
 2227              	.LVL149:
 2228              	.L167:
 174:../../libs/libDaisy/src/hid/disp/display.h ****     }
 2229              		.loc 10 174 34 view .LVU477
 2230 01fe 9368     		ldr	r3, [r2, #8]
 2231 0200 039A     		ldr	r2, [sp, #12]
 173:../../libs/libDaisy/src/hid/disp/display.h ****         currentY_ = (y >= Height()) ? Height() - 1 : y;
 2232              		.loc 10 173 19 view .LVU478
 2233 0202 A8F80450 		strh	r5, [r8, #4]	@ movhi
 174:../../libs/libDaisy/src/hid/disp/display.h ****     }
 2234              		.loc 10 174 9 is_stmt 1 view .LVU479
 2235 0206 9342     		cmp	r3, r2
 2236 0208 40F0AC80 		bne	.L204
 174:../../libs/libDaisy/src/hid/disp/display.h ****     }
 2237              		.loc 10 174 34 is_stmt 0 view .LVU480
 2238 020c 4020     		movs	r0, #64
 2239              	.L169:
 174:../../libs/libDaisy/src/hid/disp/display.h ****     }
 2240              		.loc 10 174 19 view .LVU481
 2241 020e 029B     		ldr	r3, [sp, #8]
 2242 0210 8342     		cmp	r3, r0
 2243 0212 08D3     		bcc	.L170
 174:../../libs/libDaisy/src/hid/disp/display.h ****     }
 2244              		.loc 10 174 46 view .LVU482
 2245 0214 D8F80030 		ldr	r3, [r8]
 2246 0218 039A     		ldr	r2, [sp, #12]
 2247 021a 9B68     		ldr	r3, [r3, #8]
 2248 021c 9342     		cmp	r3, r2
ARM GAS  C:\Users\matte\AppData\Local\Temp\ccvehO0v.s 			page 79


 2249 021e 40F0AC80 		bne	.L205
 2250 0222 3F23     		movs	r3, #63
 2251 0224 0293     		str	r3, [sp, #8]
 2252              	.LVL150:
 2253              	.L170:
 174:../../libs/libDaisy/src/hid/disp/display.h ****     }
 2254              		.loc 10 174 19 view .LVU483
 2255 0226 029B     		ldr	r3, [sp, #8]
 2256 0228 A8F80630 		strh	r3, [r8, #6]	@ movhi
 2257              	.LVL151:
 2258              	.L152:
 174:../../libs/libDaisy/src/hid/disp/display.h ****     }
 2259              		.loc 10 174 19 view .LVU484
 2260              	.LBE1244:
 2261              	.LBE1248:
 2262              	.LBE1210:
 2263              	.LBE1209:
 445:../../libs/libDaisy/src/hid/disp/display.h ****                != *str)
 2264              		.loc 10 445 13 view .LVU485
 2265 022c 009A     		ldr	r2, [sp]
 2266 022e 1378     		ldrb	r3, [r2]	@ zero_extendqisi2
 2267 0230 5B45     		cmp	r3, fp
 2268 0232 06D1     		bne	.L120
 2269              	.LVL152:
 443:../../libs/libDaisy/src/hid/disp/display.h ****         {
 2270              		.loc 10 443 9 is_stmt 1 view .LVU486
 2271 0234 12F801BF 		ldrb	fp, [r2, #1]!	@ zero_extendqisi2
 2272              	.LVL153:
 443:../../libs/libDaisy/src/hid/disp/display.h ****         {
 2273              		.loc 10 443 9 is_stmt 0 view .LVU487
 2274 0238 0092     		str	r2, [sp]
 2275 023a BBF1000F 		cmp	fp, #0
 2276 023e 7FF454AF 		bne	.L150
 2277              	.LVL154:
 2278              	.L120:
 443:../../libs/libDaisy/src/hid/disp/display.h ****         {
 2279              		.loc 10 443 9 view .LVU488
 2280              	.LBE1254:
 2281              	.LBE1257:
 471:../../libs/libDaisy/src/hid/disp/display.h **** 
 2282              		.loc 10 471 5 view .LVU489
 2283 0242 0698     		ldr	r0, [sp, #24]
 2284 0244 09B0     		add	sp, sp, #36
 2285              		.cfi_remember_state
 2286              		.cfi_def_cfa_offset 36
 2287              		@ sp needed
 2288 0246 BDE8F08F 		pop	{r4, r5, r6, r7, r8, r9, r10, fp, pc}
 2289              	.LVL155:
 2290              	.L133:
 2291              		.cfi_restore_state
 2292              	.LBB1258:
 2293              	.LBB1180:
 250:../../libs/libDaisy/src/hid/disp/graphics_common.h ****                 return {int16_t(x_ + (other.GetCenterX() - GetCenterX())),
 2294              		.loc 14 250 13 is_stmt 1 view .LVU490
 251:../../libs/libDaisy/src/hid/disp/graphics_common.h ****                         int16_t(y_ + (other.GetCenterY() - GetCenterY())),
 2295              		.loc 14 251 17 view .LVU491
 2296              	.LBB1016:
ARM GAS  C:\Users\matte\AppData\Local\Temp\ccvehO0v.s 			page 80


 2297              	.LBI1016:
  62:../../libs/libDaisy/src/hid/disp/graphics_common.h ****     int16_t GetCenterY() const { return y_ + height_ / 2; }
 2298              		.loc 14 62 13 view .LVU492
 2299              	.LBB1017:
  62:../../libs/libDaisy/src/hid/disp/graphics_common.h ****     int16_t GetCenterY() const { return y_ + height_ / 2; }
 2300              		.loc 14 62 34 view .LVU493
  62:../../libs/libDaisy/src/hid/disp/graphics_common.h ****     int16_t GetCenterY() const { return y_ + height_ / 2; }
 2301              		.loc 14 62 34 is_stmt 0 view .LVU494
 2302              	.LBE1017:
 2303              	.LBE1016:
 2304              	.LBB1019:
 2305              	.LBI1019:
  62:../../libs/libDaisy/src/hid/disp/graphics_common.h ****     int16_t GetCenterY() const { return y_ + height_ / 2; }
 2306              		.loc 14 62 13 is_stmt 1 view .LVU495
 2307              	.LBB1020:
  62:../../libs/libDaisy/src/hid/disp/graphics_common.h ****     int16_t GetCenterY() const { return y_ + height_ / 2; }
 2308              		.loc 14 62 34 view .LVU496
  62:../../libs/libDaisy/src/hid/disp/graphics_common.h ****     int16_t GetCenterY() const { return y_ + height_ / 2; }
 2309              		.loc 14 62 34 is_stmt 0 view .LVU497
 2310              	.LBE1020:
 2311              	.LBE1019:
 2312              	.LBB1021:
 2313              	.LBB1018:
  62:../../libs/libDaisy/src/hid/disp/graphics_common.h ****     int16_t GetCenterY() const { return y_ + height_ / 2; }
 2314              		.loc 14 62 53 view .LVU498
 2315 024a B4F90410 		ldrsh	r1, [r4, #4]
 2316              	.LVL156:
  62:../../libs/libDaisy/src/hid/disp/graphics_common.h ****     int16_t GetCenterY() const { return y_ + height_ / 2; }
 2317              		.loc 14 62 44 view .LVU499
 2318 024e 2788     		ldrh	r7, [r4]
  62:../../libs/libDaisy/src/hid/disp/graphics_common.h ****     int16_t GetCenterY() const { return y_ + height_ / 2; }
 2319              		.loc 14 62 53 view .LVU500
 2320 0250 0029     		cmp	r1, #0
 2321 0252 B8BF     		it	lt
 2322 0254 0131     		addlt	r1, r1, #1
  62:../../libs/libDaisy/src/hid/disp/graphics_common.h ****     int16_t GetCenterY() const { return y_ + height_ / 2; }
 2323              		.loc 14 62 44 view .LVU501
 2324 0256 07EB6107 		add	r7, r7, r1, asr #1
 2325              	.LBE1018:
 2326              	.LBE1021:
 2327              	.LBB1022:
 2328              	.LBB994:
  63:../../libs/libDaisy/src/hid/disp/graphics_common.h **** 
 2329              		.loc 14 63 54 view .LVU502
 2330 025a B4F90610 		ldrsh	r1, [r4, #6]
 2331              	.LBE994:
 2332              	.LBE1022:
 251:../../libs/libDaisy/src/hid/disp/graphics_common.h ****                         int16_t(y_ + (other.GetCenterY() - GetCenterY())),
 2333              		.loc 14 251 58 view .LVU503
 2334 025e A7EB6307 		sub	r7, r7, r3, asr #1
 2335              	.LBB1023:
 2336              	.LBB995:
  63:../../libs/libDaisy/src/hid/disp/graphics_common.h **** 
 2337              		.loc 14 63 54 view .LVU504
 2338 0262 0029     		cmp	r1, #0
 2339              	.LBE995:
 2340              	.LBE1023:
ARM GAS  C:\Users\matte\AppData\Local\Temp\ccvehO0v.s 			page 81


 251:../../libs/libDaisy/src/hid/disp/graphics_common.h ****                         int16_t(y_ + (other.GetCenterY() - GetCenterY())),
 2341              		.loc 14 251 58 view .LVU505
 2342 0264 BFB2     		uxth	r7, r7
 2343              	.LVL157:
 2344              	.LBB1024:
 2345              	.LBI991:
  63:../../libs/libDaisy/src/hid/disp/graphics_common.h **** 
 2346              		.loc 14 63 13 is_stmt 1 view .LVU506
 2347              	.LBB996:
  63:../../libs/libDaisy/src/hid/disp/graphics_common.h **** 
 2348              		.loc 14 63 34 view .LVU507
  63:../../libs/libDaisy/src/hid/disp/graphics_common.h **** 
 2349              		.loc 14 63 34 is_stmt 0 view .LVU508
 2350              	.LBE996:
 2351              	.LBE1024:
 2352              	.LBB1025:
 2353              	.LBI1025:
  63:../../libs/libDaisy/src/hid/disp/graphics_common.h **** 
 2354              		.loc 14 63 13 is_stmt 1 view .LVU509
 2355              	.LBB1026:
  63:../../libs/libDaisy/src/hid/disp/graphics_common.h **** 
 2356              		.loc 14 63 34 view .LVU510
  63:../../libs/libDaisy/src/hid/disp/graphics_common.h **** 
 2357              		.loc 14 63 34 is_stmt 0 view .LVU511
 2358              	.LBE1026:
 2359              	.LBE1025:
 2360              	.LBB1027:
 2361              	.LBB997:
  63:../../libs/libDaisy/src/hid/disp/graphics_common.h **** 
 2362              		.loc 14 63 54 view .LVU512
 2363 0266 BFF601AF 		bge	.L140
 2364              	.L196:
  63:../../libs/libDaisy/src/hid/disp/graphics_common.h **** 
 2365              		.loc 14 63 54 view .LVU513
 2366 026a 0131     		adds	r1, r1, #1
 2367 026c FEE6     		b	.L140
 2368              	.LVL158:
 2369              	.L132:
  63:../../libs/libDaisy/src/hid/disp/graphics_common.h **** 
 2370              		.loc 14 63 54 view .LVU514
 2371              	.LBE997:
 2372              	.LBE1027:
 213:../../libs/libDaisy/src/hid/disp/graphics_common.h ****                 return {other.x_, other.y_, width_, height_};
 2373              		.loc 14 213 13 is_stmt 1 view .LVU515
 214:../../libs/libDaisy/src/hid/disp/graphics_common.h ****             case Alignment::topRight:
 2374              		.loc 14 214 17 view .LVU516
 214:../../libs/libDaisy/src/hid/disp/graphics_common.h ****             case Alignment::topRight:
 2375              		.loc 14 214 31 is_stmt 0 view .LVU517
 2376 026e B4F90070 		ldrsh	r7, [r4]
 2377              	.LBB1028:
 2378              	.LBB1029:
 2379              	.LBB1030:
  32:../../libs/libDaisy/src/hid/disp/graphics_common.h ****     {
 2380              		.loc 14 32 66 view .LVU518
 2381 0272 0699     		ldr	r1, [sp, #24]
 2382              	.LVL159:
  32:../../libs/libDaisy/src/hid/disp/graphics_common.h ****     {
ARM GAS  C:\Users\matte\AppData\Local\Temp\ccvehO0v.s 			page 82


 2383              		.loc 14 32 66 view .LVU519
 2384              	.LBE1030:
 2385              	.LBE1029:
 2386              	.LBE1028:
 214:../../libs/libDaisy/src/hid/disp/graphics_common.h ****             case Alignment::topRight:
 2387              		.loc 14 214 41 view .LVU520
 2388 0274 B4F90240 		ldrsh	r4, [r4, #2]
 2389              	.LVL160:
 2390              	.LBB1043:
 2391              	.LBI1028:
  31:../../libs/libDaisy/src/hid/disp/graphics_common.h ****     : x_(x), y_(y), width_(max(0, width)), height_(max(0, height))
 2392              		.loc 14 31 5 is_stmt 1 view .LVU521
 2393              	.LBB1038:
 2394              	.LBB1033:
  32:../../libs/libDaisy/src/hid/disp/graphics_common.h ****     {
 2395              		.loc 14 32 66 is_stmt 0 view .LVU522
 2396 0278 0F80     		strh	r7, [r1]	@ movhi
 2397              	.LBE1033:
 2398              	.LBE1038:
 2399              	.LBE1043:
 2400              	.LBE1180:
 2401              	.LBE1258:
 468:../../libs/libDaisy/src/hid/disp/display.h ****         ((ChildType*)(this))->ChildType::WriteString(str, font, on);
 2402              		.loc 10 468 18 view .LVU523
 2403 027a BFB2     		uxth	r7, r7
 2404              	.LVL161:
 2405              	.LBB1259:
 2406              	.LBB1181:
 2407              	.LBB1044:
 2408              	.LBB1039:
 2409              	.LBB1034:
  32:../../libs/libDaisy/src/hid/disp/graphics_common.h ****     {
 2410              		.loc 14 32 66 view .LVU524
 2411 027c 4C80     		strh	r4, [r1, #2]	@ movhi
 2412              	.LBE1034:
 2413              	.LBE1039:
 2414              	.LBE1044:
 2415              	.LBE1181:
 2416              	.LBE1259:
 468:../../libs/libDaisy/src/hid/disp/display.h ****         ((ChildType*)(this))->ChildType::WriteString(str, font, on);
 2417              		.loc 10 468 18 view .LVU525
 2418 027e A4B2     		uxth	r4, r4
 2419              	.LVL162:
 2420              	.LBB1260:
 2421              	.LBB1182:
 2422              	.LBB1045:
 2423              	.LBB1040:
 2424              	.LBB1035:
  32:../../libs/libDaisy/src/hid/disp/graphics_common.h ****     {
 2425              		.loc 14 32 66 view .LVU526
 2426 0280 8B80     		strh	r3, [r1, #4]	@ movhi
 2427              	.LVL163:
 2428              	.LBB1031:
 2429              	.LBI1031:
 2430              		.loc 14 261 13 is_stmt 1 view .LVU527
 2431              	.LBE1031:
 2432              	.LBE1035:
ARM GAS  C:\Users\matte\AppData\Local\Temp\ccvehO0v.s 			page 83


 2433              	.LBE1040:
 2434              	.LBE1045:
 2435              	.LBE1182:
 2436              	.LBE1260:
 2437              		.loc 14 261 41 view .LVU528
 2438              	.LBB1261:
 2439              	.LBB1183:
 2440              	.LBB1046:
 2441              	.LBB1041:
 2442              	.LBB1036:
 2443              	.LBB1032:
 2444              	.LBI1032:
 2445              		.loc 14 261 13 view .LVU529
 2446              	.LBE1032:
 2447              	.LBE1036:
 2448              	.LBE1041:
 2449              	.LBE1046:
 2450              	.LBE1183:
 2451              	.LBE1261:
 2452              		.loc 14 261 41 view .LVU530
 2453              	.LBB1262:
 2454              	.LBB1184:
 2455              	.LBB1047:
 2456              	.LBB1042:
 2457              	.LBB1037:
  32:../../libs/libDaisy/src/hid/disp/graphics_common.h ****     {
 2458              		.loc 14 32 66 is_stmt 0 view .LVU531
 2459 0282 CA80     		strh	r2, [r1, #6]	@ movhi
 2460              	.LBE1037:
  34:../../libs/libDaisy/src/hid/disp/graphics_common.h **** 
 2461              		.loc 14 34 5 view .LVU532
 2462 0284 FEE6     		b	.L134
 2463              	.LVL164:
 2464              	.L131:
  34:../../libs/libDaisy/src/hid/disp/graphics_common.h **** 
 2465              		.loc 14 34 5 view .LVU533
 2466              	.LBE1042:
 2467              	.LBE1047:
 220:../../libs/libDaisy/src/hid/disp/graphics_common.h ****                 return {int16_t(x_ + (other.GetCenterX() - GetCenterX())),
 2468              		.loc 14 220 13 is_stmt 1 view .LVU534
 221:../../libs/libDaisy/src/hid/disp/graphics_common.h ****                         other.y_,
 2469              		.loc 14 221 17 view .LVU535
 2470              	.LBB1048:
 2471              	.LBI1048:
  62:../../libs/libDaisy/src/hid/disp/graphics_common.h ****     int16_t GetCenterY() const { return y_ + height_ / 2; }
 2472              		.loc 14 62 13 view .LVU536
 2473              	.LBB1049:
  62:../../libs/libDaisy/src/hid/disp/graphics_common.h ****     int16_t GetCenterY() const { return y_ + height_ / 2; }
 2474              		.loc 14 62 34 view .LVU537
  62:../../libs/libDaisy/src/hid/disp/graphics_common.h ****     int16_t GetCenterY() const { return y_ + height_ / 2; }
 2475              		.loc 14 62 34 is_stmt 0 view .LVU538
 2476              	.LBE1049:
 2477              	.LBE1048:
 2478              	.LBB1052:
 2479              	.LBI1052:
  62:../../libs/libDaisy/src/hid/disp/graphics_common.h ****     int16_t GetCenterY() const { return y_ + height_ / 2; }
 2480              		.loc 14 62 13 is_stmt 1 view .LVU539
ARM GAS  C:\Users\matte\AppData\Local\Temp\ccvehO0v.s 			page 84


 2481              	.LBB1053:
  62:../../libs/libDaisy/src/hid/disp/graphics_common.h ****     int16_t GetCenterY() const { return y_ + height_ / 2; }
 2482              		.loc 14 62 34 view .LVU540
  62:../../libs/libDaisy/src/hid/disp/graphics_common.h ****     int16_t GetCenterY() const { return y_ + height_ / 2; }
 2483              		.loc 14 62 34 is_stmt 0 view .LVU541
 2484              	.LBE1053:
 2485              	.LBE1052:
 2486              	.LBB1054:
 2487              	.LBB1050:
  62:../../libs/libDaisy/src/hid/disp/graphics_common.h ****     int16_t GetCenterY() const { return y_ + height_ / 2; }
 2488              		.loc 14 62 53 view .LVU542
 2489 0286 B4F90410 		ldrsh	r1, [r4, #4]
 2490              	.LVL165:
  62:../../libs/libDaisy/src/hid/disp/graphics_common.h ****     int16_t GetCenterY() const { return y_ + height_ / 2; }
 2491              		.loc 14 62 44 view .LVU543
 2492 028a 2788     		ldrh	r7, [r4]
  62:../../libs/libDaisy/src/hid/disp/graphics_common.h ****     int16_t GetCenterY() const { return y_ + height_ / 2; }
 2493              		.loc 14 62 53 view .LVU544
 2494 028c 0029     		cmp	r1, #0
 2495              	.LBE1050:
 2496              	.LBE1054:
 222:../../libs/libDaisy/src/hid/disp/graphics_common.h ****                         width_,
 2497              		.loc 14 222 31 view .LVU545
 2498 028e B4F90240 		ldrsh	r4, [r4, #2]
 2499              	.LVL166:
 2500              	.LBB1055:
 2501              	.LBB1051:
  62:../../libs/libDaisy/src/hid/disp/graphics_common.h ****     int16_t GetCenterY() const { return y_ + height_ / 2; }
 2502              		.loc 14 62 53 view .LVU546
 2503 0292 B8BF     		it	lt
 2504 0294 0131     		addlt	r1, r1, #1
  62:../../libs/libDaisy/src/hid/disp/graphics_common.h ****     int16_t GetCenterY() const { return y_ + height_ / 2; }
 2505              		.loc 14 62 44 view .LVU547
 2506 0296 07EB6107 		add	r7, r7, r1, asr #1
 2507              	.LBE1051:
 2508              	.LBE1055:
 2509              	.LBB1056:
 2510              	.LBB1057:
 2511              	.LBB1058:
  32:../../libs/libDaisy/src/hid/disp/graphics_common.h ****     {
 2512              		.loc 14 32 66 view .LVU548
 2513 029a 0699     		ldr	r1, [sp, #24]
 2514 029c 8B80     		strh	r3, [r1, #4]	@ movhi
 2515              	.LBE1058:
 2516              	.LBE1057:
 2517              	.LBE1056:
 221:../../libs/libDaisy/src/hid/disp/graphics_common.h ****                         other.y_,
 2518              		.loc 14 221 58 view .LVU549
 2519 029e A7EB6303 		sub	r3, r7, r3, asr #1
 2520              	.LBB1069:
 2521              	.LBB1065:
 2522              	.LBB1061:
  32:../../libs/libDaisy/src/hid/disp/graphics_common.h ****     {
 2523              		.loc 14 32 66 view .LVU550
 2524 02a2 4C80     		strh	r4, [r1, #2]	@ movhi
 2525              	.LBE1061:
 2526              	.LBE1065:
ARM GAS  C:\Users\matte\AppData\Local\Temp\ccvehO0v.s 			page 85


 2527              	.LBE1069:
 2528              	.LBE1184:
 2529              	.LBE1262:
 468:../../libs/libDaisy/src/hid/disp/display.h ****         ((ChildType*)(this))->ChildType::WriteString(str, font, on);
 2530              		.loc 10 468 18 view .LVU551
 2531 02a4 A4B2     		uxth	r4, r4
 2532              	.LBB1263:
 2533              	.LBB1185:
 221:../../libs/libDaisy/src/hid/disp/graphics_common.h ****                         other.y_,
 2534              		.loc 14 221 58 view .LVU552
 2535 02a6 9FB2     		uxth	r7, r3
 2536              	.LVL167:
 2537              	.LBB1070:
 2538              	.LBI1056:
  31:../../libs/libDaisy/src/hid/disp/graphics_common.h ****     : x_(x), y_(y), width_(max(0, width)), height_(max(0, height))
 2539              		.loc 14 31 5 is_stmt 1 view .LVU553
 2540              	.LBB1066:
 2541              	.LBB1062:
 2542              	.LBB1059:
 2543              	.LBI1059:
 2544              		.loc 14 261 13 view .LVU554
 2545              	.LBE1059:
 2546              	.LBE1062:
 2547              	.LBE1066:
 2548              	.LBE1070:
 2549              	.LBE1185:
 2550              	.LBE1263:
 2551              		.loc 14 261 41 view .LVU555
 2552              	.LBB1264:
 2553              	.LBB1186:
 2554              	.LBB1071:
 2555              	.LBB1067:
 2556              	.LBB1063:
 2557              	.LBB1060:
 2558              	.LBI1060:
 2559              		.loc 14 261 13 view .LVU556
 2560              	.LBE1060:
 2561              	.LBE1063:
 2562              	.LBE1067:
 2563              	.LBE1071:
 2564              	.LBE1186:
 2565              	.LBE1264:
 2566              		.loc 14 261 41 view .LVU557
 2567              	.LBB1265:
 2568              	.LBB1187:
 2569              	.LBB1072:
 2570              	.LBB1068:
 2571              	.LBB1064:
  32:../../libs/libDaisy/src/hid/disp/graphics_common.h ****     {
 2572              		.loc 14 32 66 is_stmt 0 view .LVU558
 2573 02a8 CA80     		strh	r2, [r1, #6]	@ movhi
 2574 02aa 0F80     		strh	r7, [r1]	@ movhi
 2575              	.LBE1064:
  34:../../libs/libDaisy/src/hid/disp/graphics_common.h **** 
 2576              		.loc 14 34 5 view .LVU559
 2577 02ac EAE6     		b	.L134
 2578              	.LVL168:
ARM GAS  C:\Users\matte\AppData\Local\Temp\ccvehO0v.s 			page 86


 2579              	.L130:
  34:../../libs/libDaisy/src/hid/disp/graphics_common.h **** 
 2580              		.loc 14 34 5 view .LVU560
 2581              	.LBE1068:
 2582              	.LBE1072:
 215:../../libs/libDaisy/src/hid/disp/graphics_common.h ****                 return {int16_t(other.GetRight() - width_),
 2583              		.loc 14 215 13 is_stmt 1 view .LVU561
 216:../../libs/libDaisy/src/hid/disp/graphics_common.h ****                         other.y_,
 2584              		.loc 14 216 17 view .LVU562
 2585              	.LBB1073:
 2586              	.LBI1073:
  60:../../libs/libDaisy/src/hid/disp/graphics_common.h ****     int16_t GetBottom() const { return y_ + height_; }
 2587              		.loc 14 60 13 view .LVU563
 2588              	.LBB1074:
  60:../../libs/libDaisy/src/hid/disp/graphics_common.h ****     int16_t GetBottom() const { return y_ + height_; }
 2589              		.loc 14 60 32 view .LVU564
  60:../../libs/libDaisy/src/hid/disp/graphics_common.h ****     int16_t GetBottom() const { return y_ + height_; }
 2590              		.loc 14 60 42 is_stmt 0 view .LVU565
 2591 02ae A188     		ldrh	r1, [r4, #4]
 2592              	.LVL169:
  60:../../libs/libDaisy/src/hid/disp/graphics_common.h ****     int16_t GetBottom() const { return y_ + height_; }
 2593              		.loc 14 60 42 view .LVU566
 2594 02b0 2788     		ldrh	r7, [r4]
 2595              	.LBE1074:
 2596              	.LBE1073:
 217:../../libs/libDaisy/src/hid/disp/graphics_common.h ****                         width_,
 2597              		.loc 14 217 31 view .LVU567
 2598 02b2 B4F90240 		ldrsh	r4, [r4, #2]
 2599              	.LVL170:
 2600              	.LBB1076:
 2601              	.LBB1075:
  60:../../libs/libDaisy/src/hid/disp/graphics_common.h ****     int16_t GetBottom() const { return y_ + height_; }
 2602              		.loc 14 60 42 view .LVU568
 2603 02b6 0F44     		add	r7, r7, r1
 2604              	.LBE1075:
 2605              	.LBE1076:
 2606              	.LBB1077:
 2607              	.LBB1078:
 2608              	.LBB1079:
  32:../../libs/libDaisy/src/hid/disp/graphics_common.h ****     {
 2609              		.loc 14 32 66 view .LVU569
 2610 02b8 0699     		ldr	r1, [sp, #24]
 2611 02ba 8B80     		strh	r3, [r1, #4]	@ movhi
 2612              	.LBE1079:
 2613              	.LBE1078:
 2614              	.LBE1077:
 216:../../libs/libDaisy/src/hid/disp/graphics_common.h ****                         other.y_,
 2615              		.loc 14 216 50 view .LVU570
 2616 02bc FB1A     		subs	r3, r7, r3
 2617              	.LBB1090:
 2618              	.LBB1086:
 2619              	.LBB1082:
  32:../../libs/libDaisy/src/hid/disp/graphics_common.h ****     {
 2620              		.loc 14 32 66 view .LVU571
 2621 02be 4C80     		strh	r4, [r1, #2]	@ movhi
 2622              	.LBE1082:
 2623              	.LBE1086:
ARM GAS  C:\Users\matte\AppData\Local\Temp\ccvehO0v.s 			page 87


 2624              	.LBE1090:
 2625              	.LBE1187:
 2626              	.LBE1265:
 468:../../libs/libDaisy/src/hid/disp/display.h ****         ((ChildType*)(this))->ChildType::WriteString(str, font, on);
 2627              		.loc 10 468 18 view .LVU572
 2628 02c0 A4B2     		uxth	r4, r4
 2629              	.LBB1266:
 2630              	.LBB1188:
 216:../../libs/libDaisy/src/hid/disp/graphics_common.h ****                         other.y_,
 2631              		.loc 14 216 50 view .LVU573
 2632 02c2 9FB2     		uxth	r7, r3
 2633              	.LVL171:
 2634              	.LBB1091:
 2635              	.LBI1077:
  31:../../libs/libDaisy/src/hid/disp/graphics_common.h ****     : x_(x), y_(y), width_(max(0, width)), height_(max(0, height))
 2636              		.loc 14 31 5 is_stmt 1 view .LVU574
 2637              	.LBB1087:
 2638              	.LBB1083:
 2639              	.LBB1080:
 2640              	.LBI1080:
 2641              		.loc 14 261 13 view .LVU575
 2642              	.LBE1080:
 2643              	.LBE1083:
 2644              	.LBE1087:
 2645              	.LBE1091:
 2646              	.LBE1188:
 2647              	.LBE1266:
 2648              		.loc 14 261 41 view .LVU576
 2649              	.LBB1267:
 2650              	.LBB1189:
 2651              	.LBB1092:
 2652              	.LBB1088:
 2653              	.LBB1084:
 2654              	.LBB1081:
 2655              	.LBI1081:
 2656              		.loc 14 261 13 view .LVU577
 2657              	.LBE1081:
 2658              	.LBE1084:
 2659              	.LBE1088:
 2660              	.LBE1092:
 2661              	.LBE1189:
 2662              	.LBE1267:
 2663              		.loc 14 261 41 view .LVU578
 2664              	.LBB1268:
 2665              	.LBB1190:
 2666              	.LBB1093:
 2667              	.LBB1089:
 2668              	.LBB1085:
  32:../../libs/libDaisy/src/hid/disp/graphics_common.h ****     {
 2669              		.loc 14 32 66 is_stmt 0 view .LVU579
 2670 02c4 CA80     		strh	r2, [r1, #6]	@ movhi
 2671 02c6 0F80     		strh	r7, [r1]	@ movhi
 2672              	.LBE1085:
  34:../../libs/libDaisy/src/hid/disp/graphics_common.h **** 
 2673              		.loc 14 34 5 view .LVU580
 2674 02c8 DCE6     		b	.L134
 2675              	.LVL172:
ARM GAS  C:\Users\matte\AppData\Local\Temp\ccvehO0v.s 			page 88


 2676              	.L129:
  34:../../libs/libDaisy/src/hid/disp/graphics_common.h **** 
 2677              		.loc 14 34 5 view .LVU581
 2678              	.LBE1089:
 2679              	.LBE1093:
 225:../../libs/libDaisy/src/hid/disp/graphics_common.h ****                 return {other.x_,
 2680              		.loc 14 225 13 is_stmt 1 view .LVU582
 226:../../libs/libDaisy/src/hid/disp/graphics_common.h ****                         int16_t(other.GetBottom() - height_),
 2681              		.loc 14 226 17 view .LVU583
 2682              	.LBB1094:
 2683              	.LBB1095:
  61:../../libs/libDaisy/src/hid/disp/graphics_common.h ****     int16_t GetCenterX() const { return x_ + width_ / 2; }
 2684              		.loc 14 61 43 is_stmt 0 view .LVU584
 2685 02ca E788     		ldrh	r7, [r4, #6]
 2686 02cc 6188     		ldrh	r1, [r4, #2]
 2687              	.LVL173:
  61:../../libs/libDaisy/src/hid/disp/graphics_common.h ****     int16_t GetCenterX() const { return x_ + width_ / 2; }
 2688              		.loc 14 61 43 view .LVU585
 2689 02ce 3944     		add	r1, r1, r7
 2690              	.LBE1095:
 2691              	.LBE1094:
 226:../../libs/libDaisy/src/hid/disp/graphics_common.h ****                         int16_t(other.GetBottom() - height_),
 2692              		.loc 14 226 31 view .LVU586
 2693 02d0 B4F90070 		ldrsh	r7, [r4]
 227:../../libs/libDaisy/src/hid/disp/graphics_common.h ****                         width_,
 2694              		.loc 14 227 51 view .LVU587
 2695 02d4 081A     		subs	r0, r1, r0
 2696              	.LVL174:
 2697              	.LBB1097:
 2698              	.LBI1094:
  61:../../libs/libDaisy/src/hid/disp/graphics_common.h ****     int16_t GetCenterX() const { return x_ + width_ / 2; }
 2699              		.loc 14 61 13 is_stmt 1 view .LVU588
 2700              	.LBB1096:
  61:../../libs/libDaisy/src/hid/disp/graphics_common.h ****     int16_t GetCenterX() const { return x_ + width_ / 2; }
 2701              		.loc 14 61 33 view .LVU589
  61:../../libs/libDaisy/src/hid/disp/graphics_common.h ****     int16_t GetCenterX() const { return x_ + width_ / 2; }
 2702              		.loc 14 61 33 is_stmt 0 view .LVU590
 2703              	.LBE1096:
 2704              	.LBE1097:
 2705              	.LBB1098:
 2706              	.LBB1099:
 2707              	.LBB1100:
  32:../../libs/libDaisy/src/hid/disp/graphics_common.h ****     {
 2708              		.loc 14 32 66 view .LVU591
 2709 02d6 0699     		ldr	r1, [sp, #24]
 2710              	.LBE1100:
 2711              	.LBE1099:
 2712              	.LBE1098:
 227:../../libs/libDaisy/src/hid/disp/graphics_common.h ****                         width_,
 2713              		.loc 14 227 51 view .LVU592
 2714 02d8 84B2     		uxth	r4, r0
 2715              	.LVL175:
 2716              	.LBB1110:
 2717              	.LBB1106:
 2718              	.LBB1103:
  32:../../libs/libDaisy/src/hid/disp/graphics_common.h ****     {
 2719              		.loc 14 32 66 view .LVU593
ARM GAS  C:\Users\matte\AppData\Local\Temp\ccvehO0v.s 			page 89


 2720 02da 0F80     		strh	r7, [r1]	@ movhi
 2721 02dc 8B80     		strh	r3, [r1, #4]	@ movhi
 2722              	.LVL176:
  32:../../libs/libDaisy/src/hid/disp/graphics_common.h ****     {
 2723              		.loc 14 32 66 view .LVU594
 2724              	.LBE1103:
 2725              	.LBE1106:
 2726              	.LBI1098:
  31:../../libs/libDaisy/src/hid/disp/graphics_common.h ****     : x_(x), y_(y), width_(max(0, width)), height_(max(0, height))
 2727              		.loc 14 31 5 is_stmt 1 view .LVU595
 2728              	.LBE1110:
 2729              	.LBE1190:
 2730              	.LBE1268:
 468:../../libs/libDaisy/src/hid/disp/display.h ****         ((ChildType*)(this))->ChildType::WriteString(str, font, on);
 2731              		.loc 10 468 18 is_stmt 0 view .LVU596
 2732 02de BFB2     		uxth	r7, r7
 2733              	.LVL177:
 2734              	.LBB1269:
 2735              	.LBB1191:
 2736              	.LBB1111:
 2737              	.LBB1107:
 2738              	.LBB1104:
  32:../../libs/libDaisy/src/hid/disp/graphics_common.h ****     {
 2739              		.loc 14 32 66 view .LVU597
 2740 02e0 CA80     		strh	r2, [r1, #6]	@ movhi
 2741 02e2 4C80     		strh	r4, [r1, #2]	@ movhi
 2742              	.LVL178:
 2743              	.LBB1101:
 2744              	.LBI1101:
 2745              		.loc 14 261 13 is_stmt 1 view .LVU598
 2746              	.LBE1101:
 2747              	.LBE1104:
 2748              	.LBE1107:
 2749              	.LBE1111:
 2750              	.LBE1191:
 2751              	.LBE1269:
 2752              		.loc 14 261 41 view .LVU599
 2753              	.LBB1270:
 2754              	.LBB1192:
 2755              	.LBB1112:
 2756              	.LBB1108:
 2757              	.LBB1105:
 2758              	.LBB1102:
 2759              	.LBI1102:
 2760              		.loc 14 261 13 view .LVU600
 2761              	.LBE1102:
 2762              	.LBE1105:
 2763              	.LBE1108:
 2764              	.LBE1112:
 2765              	.LBE1192:
 2766              	.LBE1270:
 2767              		.loc 14 261 41 view .LVU601
 2768              	.LBB1271:
 2769              	.LBB1193:
 2770              	.LBB1113:
 2771              	.LBB1109:
  34:../../libs/libDaisy/src/hid/disp/graphics_common.h **** 
ARM GAS  C:\Users\matte\AppData\Local\Temp\ccvehO0v.s 			page 90


 2772              		.loc 14 34 5 is_stmt 0 view .LVU602
 2773 02e4 CEE6     		b	.L134
 2774              	.LVL179:
 2775              	.L128:
  34:../../libs/libDaisy/src/hid/disp/graphics_common.h **** 
 2776              		.loc 14 34 5 view .LVU603
 2777              	.LBE1109:
 2778              	.LBE1113:
 235:../../libs/libDaisy/src/hid/disp/graphics_common.h ****                 return {int16_t(x_ + (other.GetCenterX() - GetCenterX())),
 2779              		.loc 14 235 13 is_stmt 1 view .LVU604
 236:../../libs/libDaisy/src/hid/disp/graphics_common.h ****                         int16_t(other.GetBottom() - height_),
 2780              		.loc 14 236 17 view .LVU605
 2781              	.LBB1114:
 2782              	.LBI1114:
  62:../../libs/libDaisy/src/hid/disp/graphics_common.h ****     int16_t GetCenterY() const { return y_ + height_ / 2; }
 2783              		.loc 14 62 13 view .LVU606
 2784              	.LBB1115:
  62:../../libs/libDaisy/src/hid/disp/graphics_common.h ****     int16_t GetCenterY() const { return y_ + height_ / 2; }
 2785              		.loc 14 62 34 view .LVU607
  62:../../libs/libDaisy/src/hid/disp/graphics_common.h ****     int16_t GetCenterY() const { return y_ + height_ / 2; }
 2786              		.loc 14 62 34 is_stmt 0 view .LVU608
 2787              	.LBE1115:
 2788              	.LBE1114:
 2789              	.LBB1117:
 2790              	.LBI1117:
  62:../../libs/libDaisy/src/hid/disp/graphics_common.h ****     int16_t GetCenterY() const { return y_ + height_ / 2; }
 2791              		.loc 14 62 13 is_stmt 1 view .LVU609
 2792              	.LBB1118:
  62:../../libs/libDaisy/src/hid/disp/graphics_common.h ****     int16_t GetCenterY() const { return y_ + height_ / 2; }
 2793              		.loc 14 62 34 view .LVU610
  62:../../libs/libDaisy/src/hid/disp/graphics_common.h ****     int16_t GetCenterY() const { return y_ + height_ / 2; }
 2794              		.loc 14 62 34 is_stmt 0 view .LVU611
 2795              	.LBE1118:
 2796              	.LBE1117:
 2797              	.LBB1119:
 2798              	.LBB1116:
  62:../../libs/libDaisy/src/hid/disp/graphics_common.h ****     int16_t GetCenterY() const { return y_ + height_ / 2; }
 2799              		.loc 14 62 53 view .LVU612
 2800 02e6 B4F90410 		ldrsh	r1, [r4, #4]
 2801              	.LVL180:
  62:../../libs/libDaisy/src/hid/disp/graphics_common.h ****     int16_t GetCenterY() const { return y_ + height_ / 2; }
 2802              		.loc 14 62 44 view .LVU613
 2803 02ea 2788     		ldrh	r7, [r4]
  62:../../libs/libDaisy/src/hid/disp/graphics_common.h ****     int16_t GetCenterY() const { return y_ + height_ / 2; }
 2804              		.loc 14 62 53 view .LVU614
 2805 02ec 0029     		cmp	r1, #0
 2806 02ee B8BF     		it	lt
 2807 02f0 0131     		addlt	r1, r1, #1
  62:../../libs/libDaisy/src/hid/disp/graphics_common.h ****     int16_t GetCenterY() const { return y_ + height_ / 2; }
 2808              		.loc 14 62 44 view .LVU615
 2809 02f2 07EB6107 		add	r7, r7, r1, asr #1
 2810              	.LBE1116:
 2811              	.LBE1119:
 236:../../libs/libDaisy/src/hid/disp/graphics_common.h ****                         int16_t(other.GetBottom() - height_),
 2812              		.loc 14 236 58 view .LVU616
 2813 02f6 A7EB6307 		sub	r7, r7, r3, asr #1
 2814              	.L194:
ARM GAS  C:\Users\matte\AppData\Local\Temp\ccvehO0v.s 			page 91


 2815              	.LBB1120:
 2816              	.LBB1121:
  61:../../libs/libDaisy/src/hid/disp/graphics_common.h ****     int16_t GetCenterX() const { return x_ + width_ / 2; }
 2817              		.loc 14 61 43 view .LVU617
 2818 02fa B4F802C0 		ldrh	ip, [r4, #2]
 2819              	.LBE1121:
 2820              	.LBE1120:
 236:../../libs/libDaisy/src/hid/disp/graphics_common.h ****                         int16_t(other.GetBottom() - height_),
 2821              		.loc 14 236 58 view .LVU618
 2822 02fe BFB2     		uxth	r7, r7
 2823              	.LVL181:
 2824              	.LBB1124:
 2825              	.LBI1120:
  61:../../libs/libDaisy/src/hid/disp/graphics_common.h ****     int16_t GetCenterX() const { return x_ + width_ / 2; }
 2826              		.loc 14 61 13 is_stmt 1 view .LVU619
 2827              	.LBB1122:
  61:../../libs/libDaisy/src/hid/disp/graphics_common.h ****     int16_t GetCenterX() const { return x_ + width_ / 2; }
 2828              		.loc 14 61 33 view .LVU620
  61:../../libs/libDaisy/src/hid/disp/graphics_common.h ****     int16_t GetCenterX() const { return x_ + width_ / 2; }
 2829              		.loc 14 61 43 is_stmt 0 view .LVU621
 2830 0300 E488     		ldrh	r4, [r4, #6]
 2831              	.LVL182:
  61:../../libs/libDaisy/src/hid/disp/graphics_common.h ****     int16_t GetCenterX() const { return x_ + width_ / 2; }
 2832              		.loc 14 61 43 view .LVU622
 2833              	.LBE1122:
 2834              	.LBE1124:
 2835              	.LBB1125:
 2836              	.LBB1126:
 2837              	.LBB1127:
  32:../../libs/libDaisy/src/hid/disp/graphics_common.h ****     {
 2838              		.loc 14 32 66 view .LVU623
 2839 0302 0699     		ldr	r1, [sp, #24]
 2840              	.LBE1127:
 2841              	.LBE1126:
 2842              	.LBE1125:
 2843              	.LBB1139:
 2844              	.LBB1123:
  61:../../libs/libDaisy/src/hid/disp/graphics_common.h ****     int16_t GetCenterX() const { return x_ + width_ / 2; }
 2845              		.loc 14 61 43 view .LVU624
 2846 0304 6444     		add	r4, r4, ip
 2847              	.LBE1123:
 2848              	.LBE1139:
 2849              	.LBB1140:
 2850              	.LBB1134:
 2851              	.LBB1130:
  32:../../libs/libDaisy/src/hid/disp/graphics_common.h ****     {
 2852              		.loc 14 32 66 view .LVU625
 2853 0306 8B80     		strh	r3, [r1, #4]	@ movhi
 2854              	.LBE1130:
 2855              	.LBE1134:
 2856              	.LBE1140:
 237:../../libs/libDaisy/src/hid/disp/graphics_common.h ****                         width_,
 2857              		.loc 14 237 51 view .LVU626
 2858 0308 201A     		subs	r0, r4, r0
 2859              	.LBB1141:
 2860              	.LBB1135:
 2861              	.LBB1131:
ARM GAS  C:\Users\matte\AppData\Local\Temp\ccvehO0v.s 			page 92


  32:../../libs/libDaisy/src/hid/disp/graphics_common.h ****     {
 2862              		.loc 14 32 66 view .LVU627
 2863 030a CA80     		strh	r2, [r1, #6]	@ movhi
 2864 030c 0F80     		strh	r7, [r1]	@ movhi
 2865              	.LBE1131:
 2866              	.LBE1135:
 2867              	.LBE1141:
 237:../../libs/libDaisy/src/hid/disp/graphics_common.h ****                         width_,
 2868              		.loc 14 237 51 view .LVU628
 2869 030e 84B2     		uxth	r4, r0
 2870              	.LVL183:
 2871              	.LBB1142:
 2872              	.LBI1125:
  31:../../libs/libDaisy/src/hid/disp/graphics_common.h ****     : x_(x), y_(y), width_(max(0, width)), height_(max(0, height))
 2873              		.loc 14 31 5 is_stmt 1 view .LVU629
 2874              	.LBB1136:
 2875              	.LBB1132:
  32:../../libs/libDaisy/src/hid/disp/graphics_common.h ****     {
 2876              		.loc 14 32 66 is_stmt 0 view .LVU630
 2877 0310 4C80     		strh	r4, [r1, #2]	@ movhi
 2878              	.LVL184:
 2879              	.LBB1128:
 2880              	.LBI1128:
 2881              		.loc 14 261 13 is_stmt 1 view .LVU631
 2882              	.LBE1128:
 2883              	.LBE1132:
 2884              	.LBE1136:
 2885              	.LBE1142:
 2886              	.LBE1193:
 2887              	.LBE1271:
 2888              		.loc 14 261 41 view .LVU632
 2889              	.LBB1272:
 2890              	.LBB1194:
 2891              	.LBB1143:
 2892              	.LBB1137:
 2893              	.LBB1133:
 2894              	.LBB1129:
 2895              	.LBI1129:
 2896              		.loc 14 261 13 view .LVU633
 2897              	.LBE1129:
 2898              	.LBE1133:
 2899              	.LBE1137:
 2900              	.LBE1143:
 2901              	.LBE1194:
 2902              	.LBE1272:
 2903              		.loc 14 261 41 view .LVU634
 2904              	.LBB1273:
 2905              	.LBB1195:
 2906              	.LBB1144:
 2907              	.LBB1138:
  34:../../libs/libDaisy/src/hid/disp/graphics_common.h **** 
 2908              		.loc 14 34 5 is_stmt 0 view .LVU635
 2909 0312 B7E6     		b	.L134
 2910              	.LVL185:
 2911              	.L127:
  34:../../libs/libDaisy/src/hid/disp/graphics_common.h **** 
 2912              		.loc 14 34 5 view .LVU636
ARM GAS  C:\Users\matte\AppData\Local\Temp\ccvehO0v.s 			page 93


 2913              	.LBE1138:
 2914              	.LBE1144:
 230:../../libs/libDaisy/src/hid/disp/graphics_common.h ****                 return {int16_t(other.GetRight() - width_),
 2915              		.loc 14 230 13 is_stmt 1 view .LVU637
 231:../../libs/libDaisy/src/hid/disp/graphics_common.h ****                         int16_t(other.GetBottom() - height_),
 2916              		.loc 14 231 17 view .LVU638
 2917              	.LBB1145:
 2918              	.LBI1145:
  60:../../libs/libDaisy/src/hid/disp/graphics_common.h ****     int16_t GetBottom() const { return y_ + height_; }
 2919              		.loc 14 60 13 view .LVU639
 2920              	.LBB1146:
  60:../../libs/libDaisy/src/hid/disp/graphics_common.h ****     int16_t GetBottom() const { return y_ + height_; }
 2921              		.loc 14 60 32 view .LVU640
  60:../../libs/libDaisy/src/hid/disp/graphics_common.h ****     int16_t GetBottom() const { return y_ + height_; }
 2922              		.loc 14 60 42 is_stmt 0 view .LVU641
 2923 0314 2788     		ldrh	r7, [r4]
 2924 0316 A188     		ldrh	r1, [r4, #4]
 2925              	.LVL186:
  60:../../libs/libDaisy/src/hid/disp/graphics_common.h ****     int16_t GetBottom() const { return y_ + height_; }
 2926              		.loc 14 60 42 view .LVU642
 2927 0318 0F44     		add	r7, r7, r1
 2928              	.LBE1146:
 2929              	.LBE1145:
 231:../../libs/libDaisy/src/hid/disp/graphics_common.h ****                         int16_t(other.GetBottom() - height_),
 2930              		.loc 14 231 50 view .LVU643
 2931 031a FF1A     		subs	r7, r7, r3
 2932 031c EDE7     		b	.L194
 2933              	.L207:
 2934 031e 00BF     		.align	2
 2935              	.L206:
 2936 0320 00000000 		.word	_ZNK5daisy11OledDisplayINS_13SSD130xDriverILj128ELj64ENS_19SSD130xI2CTransportEEEE5WidthEv
 2937 0324 00000000 		.word	_ZNK5daisy11OledDisplayINS_13SSD130xDriverILj128ELj64ENS_19SSD130xI2CTransportEEEE6HeightEv
 2938              	.LVL187:
 2939              	.L126:
 240:../../libs/libDaisy/src/hid/disp/graphics_common.h ****                 return {other.x_,
 2940              		.loc 14 240 13 is_stmt 1 view .LVU644
 241:../../libs/libDaisy/src/hid/disp/graphics_common.h ****                         int16_t(y_ + (other.GetCenterY() - GetCenterY())),
 2941              		.loc 14 241 17 view .LVU645
 2942              	.LBB1147:
 2943              	.LBB1148:
  63:../../libs/libDaisy/src/hid/disp/graphics_common.h **** 
 2944              		.loc 14 63 54 is_stmt 0 view .LVU646
 2945 0328 B4F90610 		ldrsh	r1, [r4, #6]
 2946              	.LVL188:
  63:../../libs/libDaisy/src/hid/disp/graphics_common.h **** 
 2947              		.loc 14 63 44 view .LVU647
 2948 032c B4F802C0 		ldrh	ip, [r4, #2]
  63:../../libs/libDaisy/src/hid/disp/graphics_common.h **** 
 2949              		.loc 14 63 54 view .LVU648
 2950 0330 0029     		cmp	r1, #0
 2951              	.LBE1148:
 2952              	.LBE1147:
 241:../../libs/libDaisy/src/hid/disp/graphics_common.h ****                         int16_t(y_ + (other.GetCenterY() - GetCenterY())),
 2953              		.loc 14 241 31 view .LVU649
 2954 0332 B4F90070 		ldrsh	r7, [r4]
 2955              	.LVL189:
 2956              	.LBB1152:
ARM GAS  C:\Users\matte\AppData\Local\Temp\ccvehO0v.s 			page 94


 2957              	.LBI1147:
  63:../../libs/libDaisy/src/hid/disp/graphics_common.h **** 
 2958              		.loc 14 63 13 is_stmt 1 view .LVU650
 2959              	.LBB1149:
  63:../../libs/libDaisy/src/hid/disp/graphics_common.h **** 
 2960              		.loc 14 63 34 view .LVU651
  63:../../libs/libDaisy/src/hid/disp/graphics_common.h **** 
 2961              		.loc 14 63 34 is_stmt 0 view .LVU652
 2962              	.LBE1149:
 2963              	.LBE1152:
 2964              	.LBB1153:
 2965              	.LBI1153:
  63:../../libs/libDaisy/src/hid/disp/graphics_common.h **** 
 2966              		.loc 14 63 13 is_stmt 1 view .LVU653
 2967              	.LBB1154:
  63:../../libs/libDaisy/src/hid/disp/graphics_common.h **** 
 2968              		.loc 14 63 34 view .LVU654
  63:../../libs/libDaisy/src/hid/disp/graphics_common.h **** 
 2969              		.loc 14 63 34 is_stmt 0 view .LVU655
 2970              	.LBE1154:
 2971              	.LBE1153:
 2972              	.LBB1155:
 2973              	.LBB1156:
 2974              	.LBB1157:
  32:../../libs/libDaisy/src/hid/disp/graphics_common.h ****     {
 2975              		.loc 14 32 66 view .LVU656
 2976 0336 0698     		ldr	r0, [sp, #24]
 2977              	.LBE1157:
 2978              	.LBE1156:
 2979              	.LBE1155:
 2980              	.LBB1169:
 2981              	.LBB1150:
  63:../../libs/libDaisy/src/hid/disp/graphics_common.h **** 
 2982              		.loc 14 63 54 view .LVU657
 2983 0338 B8BF     		it	lt
 2984 033a 0131     		addlt	r1, r1, #1
 2985              	.LBE1150:
 2986              	.LBE1169:
 2987              	.LBB1170:
 2988              	.LBB1164:
 2989              	.LBB1160:
  32:../../libs/libDaisy/src/hid/disp/graphics_common.h ****     {
 2990              		.loc 14 32 66 view .LVU658
 2991 033c C280     		strh	r2, [r0, #6]	@ movhi
 2992              	.LBE1160:
 2993              	.LBE1164:
 2994              	.LBE1170:
 2995              	.LBB1171:
 2996              	.LBB1151:
  63:../../libs/libDaisy/src/hid/disp/graphics_common.h **** 
 2997              		.loc 14 63 44 view .LVU659
 2998 033e 0CEB6104 		add	r4, ip, r1, asr #1
 2999              	.LVL190:
  63:../../libs/libDaisy/src/hid/disp/graphics_common.h **** 
 3000              		.loc 14 63 44 view .LVU660
 3001              	.LBE1151:
 3002              	.LBE1171:
ARM GAS  C:\Users\matte\AppData\Local\Temp\ccvehO0v.s 			page 95


 3003              	.LBB1172:
 3004              	.LBB1165:
 3005              	.LBB1161:
  32:../../libs/libDaisy/src/hid/disp/graphics_common.h ****     {
 3006              		.loc 14 32 66 view .LVU661
 3007 0342 0780     		strh	r7, [r0]	@ movhi
 3008 0344 8380     		strh	r3, [r0, #4]	@ movhi
 3009              	.LBE1161:
 3010              	.LBE1165:
 3011              	.LBE1172:
 3012              	.LBE1195:
 3013              	.LBE1273:
 468:../../libs/libDaisy/src/hid/disp/display.h ****         ((ChildType*)(this))->ChildType::WriteString(str, font, on);
 3014              		.loc 10 468 18 view .LVU662
 3015 0346 BFB2     		uxth	r7, r7
 3016              	.LBB1274:
 3017              	.LBB1196:
 242:../../libs/libDaisy/src/hid/disp/graphics_common.h ****                         width_,
 3018              		.loc 14 242 58 view .LVU663
 3019 0348 A4EB5202 		sub	r2, r4, r2, lsr #1
 3020 034c 94B2     		uxth	r4, r2
 3021              	.LVL191:
 3022              	.LBB1173:
 3023              	.LBI1155:
  31:../../libs/libDaisy/src/hid/disp/graphics_common.h ****     : x_(x), y_(y), width_(max(0, width)), height_(max(0, height))
 3024              		.loc 14 31 5 is_stmt 1 view .LVU664
 3025              	.LBB1166:
 3026              	.LBB1162:
  32:../../libs/libDaisy/src/hid/disp/graphics_common.h ****     {
 3027              		.loc 14 32 66 is_stmt 0 view .LVU665
 3028 034e 4480     		strh	r4, [r0, #2]	@ movhi
 3029              	.LVL192:
 3030              	.LBB1158:
 3031              	.LBI1158:
 3032              		.loc 14 261 13 is_stmt 1 view .LVU666
 3033              	.LBE1158:
 3034              	.LBE1162:
 3035              	.LBE1166:
 3036              	.LBE1173:
 3037              	.LBE1196:
 3038              	.LBE1274:
 3039              		.loc 14 261 41 view .LVU667
 3040              	.LBB1275:
 3041              	.LBB1197:
 3042              	.LBB1174:
 3043              	.LBB1167:
 3044              	.LBB1163:
 3045              	.LBB1159:
 3046              	.LBI1159:
 3047              		.loc 14 261 13 view .LVU668
 3048              	.LBE1159:
 3049              	.LBE1163:
 3050              	.LBE1167:
 3051              	.LBE1174:
 3052              	.LBE1197:
 3053              	.LBE1275:
 3054              		.loc 14 261 41 view .LVU669
ARM GAS  C:\Users\matte\AppData\Local\Temp\ccvehO0v.s 			page 96


 3055              	.LBB1276:
 3056              	.LBB1198:
 3057              	.LBB1175:
 3058              	.LBB1168:
  34:../../libs/libDaisy/src/hid/disp/graphics_common.h **** 
 3059              		.loc 14 34 5 is_stmt 0 view .LVU670
 3060 0350 98E6     		b	.L134
 3061              	.LVL193:
 3062              	.L154:
  34:../../libs/libDaisy/src/hid/disp/graphics_common.h **** 
 3063              		.loc 14 34 5 view .LVU671
 3064              	.LBE1168:
 3065              	.LBE1175:
 3066              	.LBE1198:
 3067              	.LBE1276:
 3068              	.LBB1277:
 3069              	.LBB1255:
 3070              	.LBB1252:
 3071              	.LBB1251:
 402:../../libs/libDaisy/src/hid/disp/display.h **** 
 3072              		.loc 10 402 20 view .LVU672
 3073 0352 4FF0000B 		mov	fp, #0
 3074              	.LVL194:
 402:../../libs/libDaisy/src/hid/disp/display.h **** 
 3075              		.loc 10 402 20 view .LVU673
 3076 0356 69E7     		b	.L152
 3077              	.LVL195:
 3078              	.L199:
 405:../../libs/libDaisy/src/hid/disp/display.h ****            || Height() < (currentY_ + font.FontHeight))
 3079              		.loc 10 405 17 view .LVU674
 3080 0358 4046     		mov	r0, r8
 3081 035a 9847     		blx	r3
 3082              	.LVL196:
 3083 035c D3E6     		b	.L153
 3084              	.L200:
 406:../../libs/libDaisy/src/hid/disp/display.h ****         {
 3085              		.loc 10 406 21 view .LVU675
 3086 035e 4046     		mov	r0, r8
 3087 0360 9847     		blx	r3
 3088              	.LVL197:
 3089 0362 DEE6     		b	.L155
 3090              	.LVL198:
 3091              	.L204:
 3092              	.LBB1249:
 3093              	.LBB1245:
 174:../../libs/libDaisy/src/hid/disp/display.h ****     }
 3094              		.loc 10 174 33 view .LVU676
 3095 0364 4046     		mov	r0, r8
 3096 0366 9847     		blx	r3
 3097              	.LVL199:
 3098 0368 51E7     		b	.L169
 3099              	.LVL200:
 3100              	.L202:
 173:../../libs/libDaisy/src/hid/disp/display.h ****         currentY_ = (y >= Height()) ? Height() - 1 : y;
 3101              		.loc 10 173 32 view .LVU677
 3102 036a 4046     		mov	r0, r8
 3103 036c 9847     		blx	r3
ARM GAS  C:\Users\matte\AppData\Local\Temp\ccvehO0v.s 			page 97


 3104              	.LVL201:
 173:../../libs/libDaisy/src/hid/disp/display.h ****         currentY_ = (y >= Height()) ? Height() - 1 : y;
 3105              		.loc 10 173 44 view .LVU678
 3106 036e D8F80020 		ldr	r2, [r8]
 3107 0372 3CE7     		b	.L166
 3108              	.LVL202:
 3109              	.L156:
 173:../../libs/libDaisy/src/hid/disp/display.h ****         currentY_ = (y >= Height()) ? Height() - 1 : y;
 3110              		.loc 10 173 44 view .LVU679
 3111              	.LBE1245:
 3112              	.LBE1249:
 434:../../libs/libDaisy/src/hid/disp/display.h **** 
 3113              		.loc 10 434 19 view .LVU680
 3114 0374 B8F804A0 		ldrh	r10, [r8, #4]
 3115 0378 2EE7     		b	.L158
 3116              	.LVL203:
 3117              	.L205:
 3118              	.LBB1250:
 3119              	.LBB1246:
 174:../../libs/libDaisy/src/hid/disp/display.h ****     }
 3120              		.loc 10 174 45 view .LVU681
 3121 037a 4046     		mov	r0, r8
 3122 037c 9847     		blx	r3
 3123              	.LVL204:
 174:../../libs/libDaisy/src/hid/disp/display.h ****     }
 3124              		.loc 10 174 19 view .LVU682
 3125 037e 0138     		subs	r0, r0, #1
 3126 0380 83B2     		uxth	r3, r0
 3127 0382 0293     		str	r3, [sp, #8]
 3128              	.LVL205:
 174:../../libs/libDaisy/src/hid/disp/display.h ****     }
 3129              		.loc 10 174 19 view .LVU683
 3130 0384 4FE7     		b	.L170
 3131              	.LVL206:
 3132              	.L203:
 173:../../libs/libDaisy/src/hid/disp/display.h ****         currentY_ = (y >= Height()) ? Height() - 1 : y;
 3133              		.loc 10 173 43 view .LVU684
 3134 0386 4046     		mov	r0, r8
 3135 0388 9847     		blx	r3
 3136              	.LVL207:
 173:../../libs/libDaisy/src/hid/disp/display.h ****         currentY_ = (y >= Height()) ? Height() - 1 : y;
 3137              		.loc 10 173 19 view .LVU685
 3138 038a 0138     		subs	r0, r0, #1
 174:../../libs/libDaisy/src/hid/disp/display.h ****     }
 3139              		.loc 10 174 34 view .LVU686
 3140 038c D8F80020 		ldr	r2, [r8]
 173:../../libs/libDaisy/src/hid/disp/display.h ****         currentY_ = (y >= Height()) ? Height() - 1 : y;
 3141              		.loc 10 173 19 view .LVU687
 3142 0390 85B2     		uxth	r5, r0
 3143              	.LVL208:
 173:../../libs/libDaisy/src/hid/disp/display.h ****         currentY_ = (y >= Height()) ? Height() - 1 : y;
 3144              		.loc 10 173 19 view .LVU688
 3145 0392 34E7     		b	.L167
 3146              	.LVL209:
 3147              	.L123:
 173:../../libs/libDaisy/src/hid/disp/display.h ****         currentY_ = (y >= Height()) ? Height() - 1 : y;
 3148              		.loc 10 173 19 view .LVU689
ARM GAS  C:\Users\matte\AppData\Local\Temp\ccvehO0v.s 			page 98


 3149              	.LBE1246:
 3150              	.LBE1250:
 3151              	.LBE1251:
 3152              	.LBE1252:
 3153              	.LBE1255:
 3154              	.LBE1277:
 3155              	.LBB1278:
 3156              	.LBB1199:
 255:../../libs/libDaisy/src/hid/disp/graphics_common.h ****         }
 3157              		.loc 14 255 13 is_stmt 1 view .LVU690
 255:../../libs/libDaisy/src/hid/disp/graphics_common.h ****         }
 3158              		.loc 14 255 22 view .LVU691
 3159              	.LBB1176:
 3160              	.LBI1176:
  24:../../libs/libDaisy/src/hid/disp/graphics_common.h **** 
 3161              		.loc 14 24 5 view .LVU692
 3162              	.LBE1176:
 3163              	.LBE1199:
 3164              	.LBE1278:
 3165              	.LBB1279:
 3166              	.LBB1205:
 173:../../libs/libDaisy/src/hid/disp/display.h ****         currentY_ = (y >= Height()) ? Height() - 1 : y;
 3167              		.loc 10 173 33 is_stmt 0 view .LVU693
 3168 0394 D8F80030 		ldr	r3, [r8]
 3169              	.LBE1205:
 3170              	.LBE1279:
 3171              	.LBB1280:
 3172              	.LBB1200:
 3173              	.LBB1178:
 3174              	.LBB1177:
  24:../../libs/libDaisy/src/hid/disp/graphics_common.h **** 
 3175              		.loc 14 24 53 view .LVU694
 3176 0398 0024     		movs	r4, #0
 3177              	.LVL210:
  24:../../libs/libDaisy/src/hid/disp/graphics_common.h **** 
 3178              		.loc 14 24 53 view .LVU695
 3179 039a 069A     		ldr	r2, [sp, #24]
 3180 039c 1249     		ldr	r1, .L208
 3181              	.LVL211:
  24:../../libs/libDaisy/src/hid/disp/graphics_common.h **** 
 3182              		.loc 14 24 53 view .LVU696
 3183 039e 1480     		strh	r4, [r2]	@ movhi
 3184 03a0 5480     		strh	r4, [r2, #2]	@ movhi
 3185 03a2 9480     		strh	r4, [r2, #4]	@ movhi
 3186 03a4 D480     		strh	r4, [r2, #6]	@ movhi
 3187              	.LVL212:
  24:../../libs/libDaisy/src/hid/disp/graphics_common.h **** 
 3188              		.loc 14 24 53 view .LVU697
 3189              	.LBE1177:
 3190              	.LBE1178:
 3191              	.LBE1200:
 3192              	.LBE1280:
  56:../../libs/libDaisy/src/hid/disp/graphics_common.h ****     int16_t GetY() const { return y_; }
 3193              		.loc 14 56 28 is_stmt 1 view .LVU698
  57:../../libs/libDaisy/src/hid/disp/graphics_common.h ****     int16_t GetWidth() const { return width_; }
 3194              		.loc 14 57 28 view .LVU699
 3195              	.LBB1281:
ARM GAS  C:\Users\matte\AppData\Local\Temp\ccvehO0v.s 			page 99


 171:../../libs/libDaisy/src/hid/disp/display.h ****     {
 3196              		.loc 10 171 10 view .LVU700
 3197              	.LBB1206:
 173:../../libs/libDaisy/src/hid/disp/display.h ****         currentY_ = (y >= Height()) ? Height() - 1 : y;
 3198              		.loc 10 173 9 view .LVU701
 173:../../libs/libDaisy/src/hid/disp/display.h ****         currentY_ = (y >= Height()) ? Height() - 1 : y;
 3199              		.loc 10 173 33 is_stmt 0 view .LVU702
 3200 03a6 DA68     		ldr	r2, [r3, #12]
 3201 03a8 0191     		str	r1, [sp, #4]
 3202 03aa 8A42     		cmp	r2, r1
 3203 03ac 05D0     		beq	.L141
 3204 03ae 2746     		mov	r7, r4
 3205              	.LVL213:
 3206              	.L142:
 173:../../libs/libDaisy/src/hid/disp/display.h ****         currentY_ = (y >= Height()) ? Height() - 1 : y;
 3207              		.loc 10 173 32 view .LVU703
 3208 03b0 4046     		mov	r0, r8
 3209 03b2 9047     		blx	r2
 3210              	.LVL214:
 173:../../libs/libDaisy/src/hid/disp/display.h ****         currentY_ = (y >= Height()) ? Height() - 1 : y;
 3211              		.loc 10 173 44 view .LVU704
 3212 03b4 D8F80030 		ldr	r3, [r8]
 3213 03b8 6EE6     		b	.L143
 3214              	.LVL215:
 3215              	.L141:
 174:../../libs/libDaisy/src/hid/disp/display.h ****     }
 3216              		.loc 10 174 34 view .LVU705
 3217 03ba 9B68     		ldr	r3, [r3, #8]
 3218 03bc 0B4A     		ldr	r2, .L208+4
 173:../../libs/libDaisy/src/hid/disp/display.h ****         currentY_ = (y >= Height()) ? Height() - 1 : y;
 3219              		.loc 10 173 19 view .LVU706
 3220 03be A8F80440 		strh	r4, [r8, #4]	@ movhi
 174:../../libs/libDaisy/src/hid/disp/display.h ****     }
 3221              		.loc 10 174 9 is_stmt 1 view .LVU707
 3222 03c2 9342     		cmp	r3, r2
 3223 03c4 0392     		str	r2, [sp, #12]
 3224 03c6 3FF482AE 		beq	.L148
 3225              	.LVL216:
 3226              	.L174:
 174:../../libs/libDaisy/src/hid/disp/display.h ****     }
 3227              		.loc 10 174 33 is_stmt 0 view .LVU708
 3228 03ca 4046     		mov	r0, r8
 3229 03cc 9847     		blx	r3
 3230              	.LVL217:
 3231 03ce 74E6     		b	.L146
 3232              	.L198:
 174:../../libs/libDaisy/src/hid/disp/display.h ****     }
 3233              		.loc 10 174 45 view .LVU709
 3234 03d0 4046     		mov	r0, r8
 3235 03d2 9847     		blx	r3
 3236              	.LVL218:
 174:../../libs/libDaisy/src/hid/disp/display.h ****     }
 3237              		.loc 10 174 19 view .LVU710
 3238 03d4 0138     		subs	r0, r0, #1
 3239 03d6 84B2     		uxth	r4, r0
 3240 03d8 79E6     		b	.L148
 3241              	.L197:
ARM GAS  C:\Users\matte\AppData\Local\Temp\ccvehO0v.s 			page 100


 173:../../libs/libDaisy/src/hid/disp/display.h ****         currentY_ = (y >= Height()) ? Height() - 1 : y;
 3242              		.loc 10 173 43 view .LVU711
 3243 03da 4046     		mov	r0, r8
 3244 03dc 9047     		blx	r2
 3245              	.LVL219:
 173:../../libs/libDaisy/src/hid/disp/display.h ****         currentY_ = (y >= Height()) ? Height() - 1 : y;
 3246              		.loc 10 173 19 view .LVU712
 3247 03de 0138     		subs	r0, r0, #1
 174:../../libs/libDaisy/src/hid/disp/display.h ****     }
 3248              		.loc 10 174 34 view .LVU713
 3249 03e0 D8F80030 		ldr	r3, [r8]
 173:../../libs/libDaisy/src/hid/disp/display.h ****         currentY_ = (y >= Height()) ? Height() - 1 : y;
 3250              		.loc 10 173 19 view .LVU714
 3251 03e4 87B2     		uxth	r7, r0
 3252 03e6 5FE6     		b	.L144
 3253              	.L209:
 3254              		.align	2
 3255              	.L208:
 3256 03e8 00000000 		.word	_ZNK5daisy11OledDisplayINS_13SSD130xDriverILj128ELj64ENS_19SSD130xI2CTransportEEEE5WidthEv
 3257 03ec 00000000 		.word	_ZNK5daisy11OledDisplayINS_13SSD130xDriverILj128ELj64ENS_19SSD130xI2CTransportEEEE6HeightEv
 3258              	.LBE1206:
 3259              	.LBE1281:
 3260              		.cfi_endproc
 3261              	.LFE5480:
 3263              		.section	.text._ZN5daisy11OledDisplayINS_13SSD130xDriverILj128ELj64ENS_19SSD130xI2CTransportEEEE9D
 3264              		.align	1
 3265              		.p2align 2,,3
 3266              		.weak	_ZN5daisy11OledDisplayINS_13SSD130xDriverILj128ELj64ENS_19SSD130xI2CTransportEEEE9DrawPixelE
 3267              		.syntax unified
 3268              		.thumb
 3269              		.thumb_func
 3270              		.fpu fpv5-d16
 3272              	_ZN5daisy11OledDisplayINS_13SSD130xDriverILj128ELj64ENS_19SSD130xI2CTransportEEEE9DrawPixelEjjb:
 3273              	.LVL220:
 3274              	.LFB5474:
  42:../../libs/libDaisy/src/hid/disp/oled_display.h ****     {
 3275              		.loc 9 42 10 is_stmt 1 view -0
 3276              		.cfi_startproc
 3277              		@ args = 0, pretend = 0, frame = 0
 3278              		@ frame_needed = 0, uses_anonymous_args = 0
 3279              		@ link register save eliminated.
 3280              	.LBB1286:
 3281              	.LBI1286:
 340:../../libs/libDaisy/src/sys/../../../../libs/libDaisy/src/dev/oled_ssd130x.h ****     {
 3282              		.loc 11 340 10 view .LVU716
 3283              	.LBB1287:
 342:../../libs/libDaisy/src/sys/../../../../libs/libDaisy/src/dev/oled_ssd130x.h ****             return;
 3284              		.loc 11 342 9 is_stmt 0 view .LVU717
 3285 0000 7F29     		cmp	r1, #127
 3286 0002 1ED8     		bhi	.L210
 3287 0004 3F2A     		cmp	r2, #63
 3288 0006 1CD8     		bhi	.L210
 344:../../libs/libDaisy/src/sys/../../../../libs/libDaisy/src/dev/oled_ssd130x.h ****             buffer_[x + (y / 8) * width] |= (1 << (y % 8));
 3289              		.loc 11 344 9 view .LVU718
 3290 0008 6BB1     		cbz	r3, .L212
 345:../../libs/libDaisy/src/sys/../../../../libs/libDaisy/src/dev/oled_ssd130x.h ****         else
 3291              		.loc 11 345 28 view .LVU719
ARM GAS  C:\Users\matte\AppData\Local\Temp\ccvehO0v.s 			page 101


 3292 000a D308     		lsrs	r3, r2, #3
 3293              	.LVL221:
 345:../../libs/libDaisy/src/sys/../../../../libs/libDaisy/src/dev/oled_ssd130x.h ****         else
 3294              		.loc 11 345 48 view .LVU720
 3295 000c 4FF0010C 		mov	ip, #1
 345:../../libs/libDaisy/src/sys/../../../../libs/libDaisy/src/dev/oled_ssd130x.h ****         else
 3296              		.loc 11 345 54 view .LVU721
 3297 0010 02F00702 		and	r2, r2, #7
 3298              	.LVL222:
 345:../../libs/libDaisy/src/sys/../../../../libs/libDaisy/src/dev/oled_ssd130x.h ****         else
 3299              		.loc 11 345 42 view .LVU722
 3300 0014 01EBC313 		add	r3, r1, r3, lsl #7
 345:../../libs/libDaisy/src/sys/../../../../libs/libDaisy/src/dev/oled_ssd130x.h ****         else
 3301              		.loc 11 345 48 view .LVU723
 3302 0018 0CFA02F2 		lsl	r2, ip, r2
 345:../../libs/libDaisy/src/sys/../../../../libs/libDaisy/src/dev/oled_ssd130x.h ****         else
 3303              		.loc 11 345 42 view .LVU724
 3304 001c C118     		adds	r1, r0, r3
 3305              	.LVL223:
 345:../../libs/libDaisy/src/sys/../../../../libs/libDaisy/src/dev/oled_ssd130x.h ****         else
 3306              		.loc 11 345 42 view .LVU725
 3307 001e 0B7C     		ldrb	r3, [r1, #16]	@ zero_extendqisi2
 3308 0020 1A43     		orrs	r2, r2, r3
 3309 0022 0A74     		strb	r2, [r1, #16]
 3310 0024 7047     		bx	lr
 3311              	.LVL224:
 3312              	.L212:
 3313              	.LBB1288:
 3314              	.LBI1288:
 340:../../libs/libDaisy/src/sys/../../../../libs/libDaisy/src/dev/oled_ssd130x.h ****     {
 3315              		.loc 11 340 10 is_stmt 1 view .LVU726
 3316              	.LBB1289:
 347:../../libs/libDaisy/src/sys/../../../../libs/libDaisy/src/dev/oled_ssd130x.h ****     }
 3317              		.loc 11 347 28 is_stmt 0 view .LVU727
 3318 0026 D308     		lsrs	r3, r2, #3
 3319              	.LVL225:
 347:../../libs/libDaisy/src/sys/../../../../libs/libDaisy/src/dev/oled_ssd130x.h ****     }
 3320              		.loc 11 347 49 view .LVU728
 3321 0028 4FF0010C 		mov	ip, #1
 347:../../libs/libDaisy/src/sys/../../../../libs/libDaisy/src/dev/oled_ssd130x.h ****     }
 3322              		.loc 11 347 55 view .LVU729
 3323 002c 02F00702 		and	r2, r2, #7
 3324              	.LVL226:
 347:../../libs/libDaisy/src/sys/../../../../libs/libDaisy/src/dev/oled_ssd130x.h ****     }
 3325              		.loc 11 347 42 view .LVU730
 3326 0030 01EBC313 		add	r3, r1, r3, lsl #7
 347:../../libs/libDaisy/src/sys/../../../../libs/libDaisy/src/dev/oled_ssd130x.h ****     }
 3327              		.loc 11 347 49 view .LVU731
 3328 0034 0CFA02FC 		lsl	ip, ip, r2
 347:../../libs/libDaisy/src/sys/../../../../libs/libDaisy/src/dev/oled_ssd130x.h ****     }
 3329              		.loc 11 347 42 view .LVU732
 3330 0038 C118     		adds	r1, r0, r3
 3331              	.LVL227:
 347:../../libs/libDaisy/src/sys/../../../../libs/libDaisy/src/dev/oled_ssd130x.h ****     }
 3332              		.loc 11 347 42 view .LVU733
 3333 003a 0A7C     		ldrb	r2, [r1, #16]	@ zero_extendqisi2
 3334 003c 22EA0C02 		bic	r2, r2, ip
ARM GAS  C:\Users\matte\AppData\Local\Temp\ccvehO0v.s 			page 102


 3335 0040 0A74     		strb	r2, [r1, #16]
 3336              	.LVL228:
 3337              	.L210:
 347:../../libs/libDaisy/src/sys/../../../../libs/libDaisy/src/dev/oled_ssd130x.h ****     }
 3338              		.loc 11 347 42 view .LVU734
 3339              	.LBE1289:
 3340              	.LBE1288:
 3341              	.LBE1287:
 3342              	.LBE1286:
  45:../../libs/libDaisy/src/hid/disp/oled_display.h **** 
 3343              		.loc 9 45 5 view .LVU735
 3344 0042 7047     		bx	lr
 3345              		.cfi_endproc
 3346              	.LFE5474:
 3348              		.section	.text._ZN5daisy25OneBitGraphicsDisplayImplINS_11OledDisplayINS_13SSD130xDriverILj128ELj64
 3349              		.align	1
 3350              		.p2align 2,,3
 3351              		.weak	_ZN5daisy25OneBitGraphicsDisplayImplINS_11OledDisplayINS_13SSD130xDriverILj128ELj64ENS_19SSD
 3352              		.syntax unified
 3353              		.thumb
 3354              		.thumb_func
 3355              		.fpu fpv5-d16
 3357              	_ZN5daisy25OneBitGraphicsDisplayImplINS_11OledDisplayINS_13SSD130xDriverILj128ELj64ENS_19SSD130xI2C
 3358              	.LVL229:
 3359              	.LFB5475:
 221:../../libs/libDaisy/src/hid/disp/display.h ****                   uint_fast8_t y1,
 3360              		.loc 10 221 10 is_stmt 1 view -0
 3361              		.cfi_startproc
 3362              		@ args = 8, pretend = 0, frame = 8
 3363              		@ frame_needed = 0, uses_anonymous_args = 0
 221:../../libs/libDaisy/src/hid/disp/display.h ****                   uint_fast8_t y1,
 3364              		.loc 10 221 10 is_stmt 0 view .LVU737
 3365 0000 2DE9F04F 		push	{r4, r5, r6, r7, r8, r9, r10, fp, lr}
 3366              		.cfi_def_cfa_offset 36
 3367              		.cfi_offset 4, -36
 3368              		.cfi_offset 5, -32
 3369              		.cfi_offset 6, -28
 3370              		.cfi_offset 7, -24
 3371              		.cfi_offset 8, -20
 3372              		.cfi_offset 9, -16
 3373              		.cfi_offset 10, -12
 3374              		.cfi_offset 11, -8
 3375              		.cfi_offset 14, -4
 3376 0004 83B0     		sub	sp, sp, #12
 3377              		.cfi_def_cfa_offset 48
 227:../../libs/libDaisy/src/hid/disp/display.h ****         int_fast16_t deltaY = abs((int_fast16_t)y2 - (int_fast16_t)y1);
 3378              		.loc 10 227 52 view .LVU738
 3379 0006 5C1A     		subs	r4, r3, r1
 221:../../libs/libDaisy/src/hid/disp/display.h ****                   uint_fast8_t y1,
 3380              		.loc 10 221 10 view .LVU739
 3381 0008 0C9E     		ldr	r6, [sp, #48]
 227:../../libs/libDaisy/src/hid/disp/display.h ****         int_fast16_t deltaY = abs((int_fast16_t)y2 - (int_fast16_t)y1);
 3382              		.loc 10 227 22 view .LVU740
 3383 000a 002C     		cmp	r4, #0
 221:../../libs/libDaisy/src/hid/disp/display.h ****                   uint_fast8_t y1,
 3384              		.loc 10 221 10 view .LVU741
 3385 000c 9DF83490 		ldrb	r9, [sp, #52]	@ zero_extendqisi2
ARM GAS  C:\Users\matte\AppData\Local\Temp\ccvehO0v.s 			page 103


 228:../../libs/libDaisy/src/hid/disp/display.h ****         int_fast16_t signX  = ((x1 < x2) ? 1 : -1);
 3386              		.loc 10 228 52 view .LVU742
 3387 0010 A6EB0208 		sub	r8, r6, r2
 227:../../libs/libDaisy/src/hid/disp/display.h ****         int_fast16_t deltaY = abs((int_fast16_t)y2 - (int_fast16_t)y1);
 3388              		.loc 10 227 22 view .LVU743
 3389 0014 B8BF     		it	lt
 3390 0016 6442     		rsblt	r4, r4, #0
 3391              	.LVL230:
 228:../../libs/libDaisy/src/hid/disp/display.h ****         int_fast16_t signX  = ((x1 < x2) ? 1 : -1);
 3392              		.loc 10 228 22 view .LVU744
 3393 0018 B8F1000F 		cmp	r8, #0
 3394 001c B8BF     		it	lt
 3395 001e C8F10008 		rsblt	r8, r8, #0
 3396              	.LVL231:
 229:../../libs/libDaisy/src/hid/disp/display.h ****         int_fast16_t signY  = ((y1 < y2) ? 1 : -1);
 3397              		.loc 10 229 42 view .LVU745
 3398 0022 8B42     		cmp	r3, r1
 3399 0024 8CBF     		ite	hi
 3400 0026 4FF0010A 		movhi	r10, #1
 3401 002a 4FF0FF3A 		movls	r10, #-1
 3402              	.LVL232:
 230:../../libs/libDaisy/src/hid/disp/display.h ****         int_fast16_t error  = deltaX - deltaY;
 3403              		.loc 10 230 42 view .LVU746
 3404 002e 9642     		cmp	r6, r2
 231:../../libs/libDaisy/src/hid/disp/display.h ****         int_fast16_t error2;
 3405              		.loc 10 231 22 view .LVU747
 3406 0030 A4EB080C 		sub	ip, r4, r8
 230:../../libs/libDaisy/src/hid/disp/display.h ****         int_fast16_t error  = deltaX - deltaY;
 3407              		.loc 10 230 42 view .LVU748
 3408 0034 51D8     		bhi	.L215
 3409              	.LVL233:
 3410              	.LBB1306:
 3411              	.LBI1306:
  42:../../libs/libDaisy/src/hid/disp/oled_display.h ****     {
 3412              		.loc 9 42 10 is_stmt 1 discriminator 4 view .LVU749
 3413              	.LBB1307:
 3414              	.LBI1307:
 340:../../libs/libDaisy/src/sys/../../../../libs/libDaisy/src/dev/oled_ssd130x.h ****     {
 3415              		.loc 11 340 10 discriminator 4 view .LVU750
 3416              	.LBE1307:
 3417              	.LBE1306:
 230:../../libs/libDaisy/src/hid/disp/display.h ****         int_fast16_t error  = deltaX - deltaY;
 3418              		.loc 10 230 42 is_stmt 0 discriminator 4 view .LVU751
 3419 0036 4FF0FF35 		mov	r5, #-1
 3420              	.LBB1323:
 3421              	.LBB1317:
 3422              	.LBB1308:
 342:../../libs/libDaisy/src/sys/../../../../libs/libDaisy/src/dev/oled_ssd130x.h ****             return;
 3423              		.loc 11 342 9 discriminator 4 view .LVU752
 3424 003a 7F2B     		cmp	r3, #127
 3425              	.LBE1308:
 3426              	.LBE1317:
 3427              	.LBE1323:
 230:../../libs/libDaisy/src/hid/disp/display.h ****         int_fast16_t error  = deltaX - deltaY;
 3428              		.loc 10 230 42 discriminator 4 view .LVU753
 3429 003c 0195     		str	r5, [sp, #4]
 3430              	.LBB1324:
ARM GAS  C:\Users\matte\AppData\Local\Temp\ccvehO0v.s 			page 104


 3431              	.LBB1318:
 3432              	.LBB1313:
 342:../../libs/libDaisy/src/sys/../../../../libs/libDaisy/src/dev/oled_ssd130x.h ****             return;
 3433              		.loc 11 342 9 discriminator 4 view .LVU754
 3434 003e 12D8     		bhi	.L216
 3435 0040 3F2E     		cmp	r6, #63
 3436 0042 10D8     		bhi	.L216
 3437              	.LVL234:
 3438              	.L227:
 345:../../libs/libDaisy/src/sys/../../../../libs/libDaisy/src/dev/oled_ssd130x.h ****         else
 3439              		.loc 11 345 28 view .LVU755
 3440 0044 F508     		lsrs	r5, r6, #3
 345:../../libs/libDaisy/src/sys/../../../../libs/libDaisy/src/dev/oled_ssd130x.h ****         else
 3441              		.loc 11 345 54 view .LVU756
 3442 0046 06F0070E 		and	lr, r6, #7
 345:../../libs/libDaisy/src/sys/../../../../libs/libDaisy/src/dev/oled_ssd130x.h ****         else
 3443              		.loc 11 345 48 view .LVU757
 3444 004a 0127     		movs	r7, #1
 345:../../libs/libDaisy/src/sys/../../../../libs/libDaisy/src/dev/oled_ssd130x.h ****         else
 3445              		.loc 11 345 42 view .LVU758
 3446 004c 03EBC515 		add	r5, r3, r5, lsl #7
 3447 0050 0544     		add	r5, r5, r0
 344:../../libs/libDaisy/src/sys/../../../../libs/libDaisy/src/dev/oled_ssd130x.h ****             buffer_[x + (y / 8) * width] |= (1 << (y % 8));
 3448              		.loc 11 344 9 view .LVU759
 3449 0052 B9F1000F 		cmp	r9, #0
 3450 0056 47D0     		beq	.L217
 345:../../libs/libDaisy/src/sys/../../../../libs/libDaisy/src/dev/oled_ssd130x.h ****         else
 3451              		.loc 11 345 48 view .LVU760
 3452 0058 07FA0EF7 		lsl	r7, r7, lr
 345:../../libs/libDaisy/src/sys/../../../../libs/libDaisy/src/dev/oled_ssd130x.h ****         else
 3453              		.loc 11 345 42 view .LVU761
 3454 005c 95F810E0 		ldrb	lr, [r5, #16]	@ zero_extendqisi2
 3455 0060 47EA0E07 		orr	r7, r7, lr
 3456 0064 2F74     		strb	r7, [r5, #16]
 3457              	.LVL235:
 3458              	.L216:
 345:../../libs/libDaisy/src/sys/../../../../libs/libDaisy/src/dev/oled_ssd130x.h ****         else
 3459              		.loc 11 345 42 view .LVU762
 3460              	.LBE1313:
 3461              	.LBE1318:
 3462              	.LBE1324:
 239:../../libs/libDaisy/src/hid/disp/display.h ****         {
 3463              		.loc 10 239 26 is_stmt 1 view .LVU763
 3464 0066 9642     		cmp	r6, r2
 3465 0068 01D1     		bne	.L220
 3466              	.L239:
 239:../../libs/libDaisy/src/hid/disp/display.h ****         {
 3467              		.loc 10 239 26 is_stmt 0 view .LVU764
 3468 006a 8B42     		cmp	r3, r1
 3469 006c 29D0     		beq	.L213
 3470              	.L220:
 3471              	.LVL236:
 243:../../libs/libDaisy/src/hid/disp/display.h ****             {
 3472              		.loc 10 243 23 view .LVU765
 3473 006e C8F10007 		rsb	r7, r8, #0
 3474              	.L222:
 3475              	.LVL237:
ARM GAS  C:\Users\matte\AppData\Local\Temp\ccvehO0v.s 			page 105


 3476              	.LBB1325:
 3477              	.LBI1325:
  42:../../libs/libDaisy/src/hid/disp/oled_display.h ****     {
 3478              		.loc 9 42 10 is_stmt 1 view .LVU766
 3479              	.LBB1326:
 3480              	.LBI1326:
 340:../../libs/libDaisy/src/sys/../../../../libs/libDaisy/src/dev/oled_ssd130x.h ****     {
 3481              		.loc 11 340 10 view .LVU767
 3482              	.LBB1327:
 342:../../libs/libDaisy/src/sys/../../../../libs/libDaisy/src/dev/oled_ssd130x.h ****             return;
 3483              		.loc 11 342 9 is_stmt 0 view .LVU768
 3484 0072 7F29     		cmp	r1, #127
 3485 0074 14D8     		bhi	.L223
 3486 0076 3F2A     		cmp	r2, #63
 3487 0078 12D8     		bhi	.L223
 345:../../libs/libDaisy/src/sys/../../../../libs/libDaisy/src/dev/oled_ssd130x.h ****         else
 3488              		.loc 11 345 28 view .LVU769
 3489 007a D508     		lsrs	r5, r2, #3
 345:../../libs/libDaisy/src/sys/../../../../libs/libDaisy/src/dev/oled_ssd130x.h ****         else
 3490              		.loc 11 345 54 view .LVU770
 3491 007c 02F0070B 		and	fp, r2, #7
 345:../../libs/libDaisy/src/sys/../../../../libs/libDaisy/src/dev/oled_ssd130x.h ****         else
 3492              		.loc 11 345 48 view .LVU771
 3493 0080 4FF0010E 		mov	lr, #1
 345:../../libs/libDaisy/src/sys/../../../../libs/libDaisy/src/dev/oled_ssd130x.h ****         else
 3494              		.loc 11 345 42 view .LVU772
 3495 0084 01EBC515 		add	r5, r1, r5, lsl #7
 3496 0088 0544     		add	r5, r5, r0
 344:../../libs/libDaisy/src/sys/../../../../libs/libDaisy/src/dev/oled_ssd130x.h ****             buffer_[x + (y / 8) * width] |= (1 << (y % 8));
 3497              		.loc 11 344 9 view .LVU773
 3498 008a B9F1000F 		cmp	r9, #0
 3499 008e 1BD0     		beq	.L224
 345:../../libs/libDaisy/src/sys/../../../../libs/libDaisy/src/dev/oled_ssd130x.h ****         else
 3500              		.loc 11 345 48 view .LVU774
 3501 0090 0EFA0BFE 		lsl	lr, lr, fp
 345:../../libs/libDaisy/src/sys/../../../../libs/libDaisy/src/dev/oled_ssd130x.h ****         else
 3502              		.loc 11 345 42 view .LVU775
 3503 0094 95F810B0 		ldrb	fp, [r5, #16]	@ zero_extendqisi2
 3504 0098 4EEA0B0E 		orr	lr, lr, fp
 3505 009c 85F810E0 		strb	lr, [r5, #16]
 3506              	.L223:
 3507              	.LVL238:
 345:../../libs/libDaisy/src/sys/../../../../libs/libDaisy/src/dev/oled_ssd130x.h ****         else
 3508              		.loc 11 345 42 view .LVU776
 3509              	.LBE1327:
 3510              	.LBE1326:
 3511              	.LBE1325:
 243:../../libs/libDaisy/src/hid/disp/display.h ****             {
 3512              		.loc 10 243 13 view .LVU777
 3513 00a0 B7EB4C0F 		cmp	r7, ip, lsl #1
 242:../../libs/libDaisy/src/hid/disp/display.h ****             if(error2 > -deltaY)
 3514              		.loc 10 242 20 view .LVU778
 3515 00a4 4FEA4C05 		lsl	r5, ip, #1
 3516              	.LVL239:
 243:../../libs/libDaisy/src/hid/disp/display.h ****             {
 3517              		.loc 10 243 13 view .LVU779
 3518 00a8 02DA     		bge	.L225
ARM GAS  C:\Users\matte\AppData\Local\Temp\ccvehO0v.s 			page 106


 245:../../libs/libDaisy/src/hid/disp/display.h ****                 x1 += signX;
 3519              		.loc 10 245 23 view .LVU780
 3520 00aa ACEB080C 		sub	ip, ip, r8
 3521              	.LVL240:
 246:../../libs/libDaisy/src/hid/disp/display.h ****             }
 3522              		.loc 10 246 20 view .LVU781
 3523 00ae 5144     		add	r1, r1, r10
 3524              	.LVL241:
 3525              	.L225:
 249:../../libs/libDaisy/src/hid/disp/display.h ****             {
 3526              		.loc 10 249 13 view .LVU782
 3527 00b0 AC42     		cmp	r4, r5
 3528 00b2 02DD     		ble	.L226
 252:../../libs/libDaisy/src/hid/disp/display.h ****             }
 3529              		.loc 10 252 20 view .LVU783
 3530 00b4 019D     		ldr	r5, [sp, #4]
 3531              	.LVL242:
 251:../../libs/libDaisy/src/hid/disp/display.h ****                 y1 += signY;
 3532              		.loc 10 251 23 view .LVU784
 3533 00b6 A444     		add	ip, ip, r4
 3534              	.LVL243:
 252:../../libs/libDaisy/src/hid/disp/display.h ****             }
 3535              		.loc 10 252 20 view .LVU785
 3536 00b8 2A44     		add	r2, r2, r5
 3537              	.LVL244:
 3538              	.L226:
 239:../../libs/libDaisy/src/hid/disp/display.h ****         {
 3539              		.loc 10 239 26 is_stmt 1 view .LVU786
 3540 00ba 9942     		cmp	r1, r3
 3541 00bc D9D1     		bne	.L222
 239:../../libs/libDaisy/src/hid/disp/display.h ****         {
 3542              		.loc 10 239 26 is_stmt 0 view .LVU787
 3543 00be 9642     		cmp	r6, r2
 3544 00c0 D7D1     		bne	.L222
 3545              	.L213:
 255:../../libs/libDaisy/src/hid/disp/display.h **** 
 3546              		.loc 10 255 5 view .LVU788
 3547 00c2 03B0     		add	sp, sp, #12
 3548              		.cfi_remember_state
 3549              		.cfi_def_cfa_offset 36
 3550              		@ sp needed
 3551 00c4 BDE8F08F 		pop	{r4, r5, r6, r7, r8, r9, r10, fp, pc}
 3552              	.LVL245:
 3553              	.L224:
 3554              		.cfi_restore_state
 3555              	.LBB1332:
 3556              	.LBB1331:
 3557              	.LBB1330:
 3558              	.LBB1328:
 3559              	.LBI1328:
 340:../../libs/libDaisy/src/sys/../../../../libs/libDaisy/src/dev/oled_ssd130x.h ****     {
 3560              		.loc 11 340 10 is_stmt 1 view .LVU789
 3561              	.LBB1329:
 347:../../libs/libDaisy/src/sys/../../../../libs/libDaisy/src/dev/oled_ssd130x.h ****     }
 3562              		.loc 11 347 49 is_stmt 0 view .LVU790
 3563 00c8 0EFA0BFB 		lsl	fp, lr, fp
 347:../../libs/libDaisy/src/sys/../../../../libs/libDaisy/src/dev/oled_ssd130x.h ****     }
ARM GAS  C:\Users\matte\AppData\Local\Temp\ccvehO0v.s 			page 107


 3564              		.loc 11 347 42 view .LVU791
 3565 00cc 95F810E0 		ldrb	lr, [r5, #16]	@ zero_extendqisi2
 3566 00d0 2EEA0B0E 		bic	lr, lr, fp
 3567 00d4 85F810E0 		strb	lr, [r5, #16]
 3568 00d8 E2E7     		b	.L223
 3569              	.LVL246:
 3570              	.L215:
 347:../../libs/libDaisy/src/sys/../../../../libs/libDaisy/src/dev/oled_ssd130x.h ****     }
 3571              		.loc 11 347 42 view .LVU792
 3572              	.LBE1329:
 3573              	.LBE1328:
 3574              	.LBE1330:
 3575              	.LBE1331:
 3576              	.LBE1332:
 3577              	.LBB1333:
  42:../../libs/libDaisy/src/hid/disp/oled_display.h ****     {
 3578              		.loc 9 42 10 is_stmt 1 view .LVU793
 3579              	.LBB1319:
 340:../../libs/libDaisy/src/sys/../../../../libs/libDaisy/src/dev/oled_ssd130x.h ****     {
 3580              		.loc 11 340 10 view .LVU794
 3581              	.LBE1319:
 3582              	.LBE1333:
 230:../../libs/libDaisy/src/hid/disp/display.h ****         int_fast16_t error  = deltaX - deltaY;
 3583              		.loc 10 230 42 is_stmt 0 view .LVU795
 3584 00da 0125     		movs	r5, #1
 3585              	.LBB1334:
 3586              	.LBB1320:
 3587              	.LBB1314:
 342:../../libs/libDaisy/src/sys/../../../../libs/libDaisy/src/dev/oled_ssd130x.h ****             return;
 3588              		.loc 11 342 9 view .LVU796
 3589 00dc 7F2B     		cmp	r3, #127
 3590              	.LBE1314:
 3591              	.LBE1320:
 3592              	.LBE1334:
 230:../../libs/libDaisy/src/hid/disp/display.h ****         int_fast16_t error  = deltaX - deltaY;
 3593              		.loc 10 230 42 view .LVU797
 3594 00de 0195     		str	r5, [sp, #4]
 3595              	.LBB1335:
 3596              	.LBB1321:
 3597              	.LBB1315:
 342:../../libs/libDaisy/src/sys/../../../../libs/libDaisy/src/dev/oled_ssd130x.h ****             return;
 3598              		.loc 11 342 9 view .LVU798
 3599 00e0 C5D8     		bhi	.L220
 3600 00e2 3F2E     		cmp	r6, #63
 3601 00e4 AED9     		bls	.L227
 3602 00e6 C2E7     		b	.L220
 3603              	.LVL247:
 3604              	.L217:
 3605              	.LBB1309:
 3606              	.LBI1309:
 340:../../libs/libDaisy/src/sys/../../../../libs/libDaisy/src/dev/oled_ssd130x.h ****     {
 3607              		.loc 11 340 10 is_stmt 1 view .LVU799
 3608              	.LBB1310:
 347:../../libs/libDaisy/src/sys/../../../../libs/libDaisy/src/dev/oled_ssd130x.h ****     }
 3609              		.loc 11 347 49 is_stmt 0 view .LVU800
 3610 00e8 07FA0EFE 		lsl	lr, r7, lr
 347:../../libs/libDaisy/src/sys/../../../../libs/libDaisy/src/dev/oled_ssd130x.h ****     }
ARM GAS  C:\Users\matte\AppData\Local\Temp\ccvehO0v.s 			page 108


 3611              		.loc 11 347 42 view .LVU801
 3612 00ec 2F7C     		ldrb	r7, [r5, #16]	@ zero_extendqisi2
 3613              	.LBE1310:
 3614              	.LBE1309:
 3615              	.LBE1315:
 3616              	.LBE1321:
 3617              	.LBE1335:
 239:../../libs/libDaisy/src/hid/disp/display.h ****         {
 3618              		.loc 10 239 26 view .LVU802
 3619 00ee 9642     		cmp	r6, r2
 3620              	.LBB1336:
 3621              	.LBB1322:
 3622              	.LBB1316:
 3623              	.LBB1312:
 3624              	.LBB1311:
 347:../../libs/libDaisy/src/sys/../../../../libs/libDaisy/src/dev/oled_ssd130x.h ****     }
 3625              		.loc 11 347 42 view .LVU803
 3626 00f0 27EA0E07 		bic	r7, r7, lr
 3627 00f4 2F74     		strb	r7, [r5, #16]
 3628              	.LVL248:
 347:../../libs/libDaisy/src/sys/../../../../libs/libDaisy/src/dev/oled_ssd130x.h ****     }
 3629              		.loc 11 347 42 view .LVU804
 3630              	.LBE1311:
 3631              	.LBE1312:
 3632              	.LBE1316:
 3633              	.LBE1322:
 3634              	.LBE1336:
 239:../../libs/libDaisy/src/hid/disp/display.h ****         {
 3635              		.loc 10 239 26 is_stmt 1 view .LVU805
 3636 00f6 B8D0     		beq	.L239
 3637 00f8 B9E7     		b	.L220
 3638              		.cfi_endproc
 3639              	.LFE5475:
 3641 00fa 00BF     		.section	.text._ZN5daisy25OneBitGraphicsDisplayImplINS_11OledDisplayINS_13SSD130xDriverILj128ELj64
 3642              		.align	1
 3643              		.p2align 2,,3
 3644              		.weak	_ZN5daisy25OneBitGraphicsDisplayImplINS_11OledDisplayINS_13SSD130xDriverILj128ELj64ENS_19SSD
 3645              		.syntax unified
 3646              		.thumb
 3647              		.thumb_func
 3648              		.fpu fpv5-d16
 3650              	_ZN5daisy25OneBitGraphicsDisplayImplINS_11OledDisplayINS_13SSD130xDriverILj128ELj64ENS_19SSD130xI2C
 3651              	.LVL249:
 3652              	.LFB5477:
 283:../../libs/libDaisy/src/hid/disp/display.h ****                  uint_fast8_t y,
 3653              		.loc 10 283 10 view -0
 3654              		.cfi_startproc
 3655              		@ args = 12, pretend = 0, frame = 8
 3656              		@ frame_needed = 0, uses_anonymous_args = 0
 283:../../libs/libDaisy/src/hid/disp/display.h ****                  uint_fast8_t y,
 3657              		.loc 10 283 10 is_stmt 0 view .LVU807
 3658 0000 2DE9F04F 		push	{r4, r5, r6, r7, r8, r9, r10, fp, lr}
 3659              		.cfi_def_cfa_offset 36
 3660              		.cfi_offset 4, -36
 3661              		.cfi_offset 5, -32
 3662              		.cfi_offset 6, -28
 3663              		.cfi_offset 7, -24
ARM GAS  C:\Users\matte\AppData\Local\Temp\ccvehO0v.s 			page 109


 3664              		.cfi_offset 8, -20
 3665              		.cfi_offset 9, -16
 3666              		.cfi_offset 10, -12
 3667              		.cfi_offset 11, -8
 3668              		.cfi_offset 14, -4
 3669 0004 2DED068B 		vpush.64	{d8, d9, d10}
 3670              		.cfi_def_cfa_offset 60
 3671              		.cfi_offset 80, -60
 3672              		.cfi_offset 81, -56
 3673              		.cfi_offset 82, -52
 3674              		.cfi_offset 83, -48
 3675              		.cfi_offset 84, -44
 3676              		.cfi_offset 85, -40
 3677 0008 83B0     		sub	sp, sp, #12
 3678              		.cfi_def_cfa_offset 72
 283:../../libs/libDaisy/src/hid/disp/display.h ****                  uint_fast8_t y,
 3679              		.loc 10 283 10 view .LVU808
 3680 000a 1F46     		mov	r7, r3
 3681 000c 8046     		mov	r8, r0
 3682 000e 0D46     		mov	r5, r1
 3683 0010 9DF85030 		ldrb	r3, [sp, #80]	@ zero_extendqisi2
 3684              	.LVL250:
 283:../../libs/libDaisy/src/hid/disp/display.h ****                  uint_fast8_t y,
 3685              		.loc 10 283 10 view .LVU809
 3686 0014 1646     		mov	r6, r2
 3687 0016 0193     		str	r3, [sp, #4]
 306:../../libs/libDaisy/src/hid/disp/display.h ****         {
 3688              		.loc 10 306 9 view .LVU810
 3689 0018 139B     		ldr	r3, [sp, #76]
 3690 001a 002B     		cmp	r3, #0
 3691 001c C0F22182 		blt	.L241
 313:../../libs/libDaisy/src/hid/disp/display.h **** 
 3692              		.loc 10 313 27 view .LVU811
 3693 0020 129A     		ldr	r2, [sp, #72]
 3694              	.LVL251:
 313:../../libs/libDaisy/src/hid/disp/display.h **** 
 3695              		.loc 10 313 27 view .LVU812
 3696 0022 1344     		add	r3, r3, r2
 3697 0024 06EE103A 		vmov	s12, r3	@ int
 3698              	.LVL252:
 3699              	.L242:
 312:../../libs/libDaisy/src/hid/disp/display.h ****         end_angle_rad   = deg2rad(start_angle + sweep);
 3700              		.loc 10 312 27 view .LVU813
 3701 0028 DDED127A 		vldr.32	s15, [sp, #72]	@ int
 313:../../libs/libDaisy/src/hid/disp/display.h **** 
 3702              		.loc 10 313 27 view .LVU814
 3703 002c B8EEC66B 		vcvt.f64.s32	d6, s12
 312:../../libs/libDaisy/src/hid/disp/display.h ****         end_angle_rad   = deg2rad(start_angle + sweep);
 3704              		.loc 10 312 27 view .LVU815
 3705 0030 9FEDCD4B 		vldr.64	d4, .L317
 3706 0034 B8EEE77B 		vcvt.f64.s32	d7, s15
 3707 0038 9FEDCD5B 		vldr.64	d5, .L317+8
 3708 003c 27EE047B 		vmul.f64	d7, d7, d4
 313:../../libs/libDaisy/src/hid/disp/display.h **** 
 3709              		.loc 10 313 27 view .LVU816
 3710 0040 26EE046B 		vmul.f64	d6, d6, d4
 312:../../libs/libDaisy/src/hid/disp/display.h ****         end_angle_rad   = deg2rad(start_angle + sweep);
ARM GAS  C:\Users\matte\AppData\Local\Temp\ccvehO0v.s 			page 110


 3711              		.loc 10 312 27 view .LVU817
 3712 0044 87EE050B 		vdiv.f64	d0, d7, d5
 313:../../libs/libDaisy/src/hid/disp/display.h **** 
 3713              		.loc 10 313 27 view .LVU818
 3714 0048 86EE05AB 		vdiv.f64	d10, d6, d5
 312:../../libs/libDaisy/src/hid/disp/display.h ****         end_angle_rad   = deg2rad(start_angle + sweep);
 3715              		.loc 10 312 25 view .LVU819
 3716 004c F7EEC08B 		vcvt.f32.f64	s17, d0
 3717              	.LVL253:
 3718              	.LBB1369:
 3719              	.LBB1370:
 3720              		.file 15 "c:\\program files\\daisytoolchain\\arm-none-eabi\\include\\c++\\10.2.1\\cmath"
   1:c:\program files\daisytoolchain\arm-none-eabi\include\c++\10.2.1\cmath **** // -*- C++ -*- C forwarding header.
   2:c:\program files\daisytoolchain\arm-none-eabi\include\c++\10.2.1\cmath **** 
   3:c:\program files\daisytoolchain\arm-none-eabi\include\c++\10.2.1\cmath **** // Copyright (C) 1997-2020 Free Software Foundation, Inc.
   4:c:\program files\daisytoolchain\arm-none-eabi\include\c++\10.2.1\cmath **** //
   5:c:\program files\daisytoolchain\arm-none-eabi\include\c++\10.2.1\cmath **** // This file is part of the GNU ISO C++ Library.  This library is free
   6:c:\program files\daisytoolchain\arm-none-eabi\include\c++\10.2.1\cmath **** // software; you can redistribute it and/or modify it under the
   7:c:\program files\daisytoolchain\arm-none-eabi\include\c++\10.2.1\cmath **** // terms of the GNU General Public License as published by the
   8:c:\program files\daisytoolchain\arm-none-eabi\include\c++\10.2.1\cmath **** // Free Software Foundation; either version 3, or (at your option)
   9:c:\program files\daisytoolchain\arm-none-eabi\include\c++\10.2.1\cmath **** // any later version.
  10:c:\program files\daisytoolchain\arm-none-eabi\include\c++\10.2.1\cmath **** 
  11:c:\program files\daisytoolchain\arm-none-eabi\include\c++\10.2.1\cmath **** // This library is distributed in the hope that it will be useful,
  12:c:\program files\daisytoolchain\arm-none-eabi\include\c++\10.2.1\cmath **** // but WITHOUT ANY WARRANTY; without even the implied warranty of
  13:c:\program files\daisytoolchain\arm-none-eabi\include\c++\10.2.1\cmath **** // MERCHANTABILITY or FITNESS FOR A PARTICULAR PURPOSE.  See the
  14:c:\program files\daisytoolchain\arm-none-eabi\include\c++\10.2.1\cmath **** // GNU General Public License for more details.
  15:c:\program files\daisytoolchain\arm-none-eabi\include\c++\10.2.1\cmath **** 
  16:c:\program files\daisytoolchain\arm-none-eabi\include\c++\10.2.1\cmath **** // Under Section 7 of GPL version 3, you are granted additional
  17:c:\program files\daisytoolchain\arm-none-eabi\include\c++\10.2.1\cmath **** // permissions described in the GCC Runtime Library Exception, version
  18:c:\program files\daisytoolchain\arm-none-eabi\include\c++\10.2.1\cmath **** // 3.1, as published by the Free Software Foundation.
  19:c:\program files\daisytoolchain\arm-none-eabi\include\c++\10.2.1\cmath **** 
  20:c:\program files\daisytoolchain\arm-none-eabi\include\c++\10.2.1\cmath **** // You should have received a copy of the GNU General Public License and
  21:c:\program files\daisytoolchain\arm-none-eabi\include\c++\10.2.1\cmath **** // a copy of the GCC Runtime Library Exception along with this program;
  22:c:\program files\daisytoolchain\arm-none-eabi\include\c++\10.2.1\cmath **** // see the files COPYING3 and COPYING.RUNTIME respectively.  If not, see
  23:c:\program files\daisytoolchain\arm-none-eabi\include\c++\10.2.1\cmath **** // <http://www.gnu.org/licenses/>.
  24:c:\program files\daisytoolchain\arm-none-eabi\include\c++\10.2.1\cmath **** 
  25:c:\program files\daisytoolchain\arm-none-eabi\include\c++\10.2.1\cmath **** /** @file include/cmath
  26:c:\program files\daisytoolchain\arm-none-eabi\include\c++\10.2.1\cmath ****  *  This is a Standard C++ Library file.  You should @c \#include this file
  27:c:\program files\daisytoolchain\arm-none-eabi\include\c++\10.2.1\cmath ****  *  in your programs, rather than any of the @a *.h implementation files.
  28:c:\program files\daisytoolchain\arm-none-eabi\include\c++\10.2.1\cmath ****  *
  29:c:\program files\daisytoolchain\arm-none-eabi\include\c++\10.2.1\cmath ****  *  This is the C++ version of the Standard C Library header @c math.h,
  30:c:\program files\daisytoolchain\arm-none-eabi\include\c++\10.2.1\cmath ****  *  and its contents are (mostly) the same as that header, but are all
  31:c:\program files\daisytoolchain\arm-none-eabi\include\c++\10.2.1\cmath ****  *  contained in the namespace @c std (except for names which are defined
  32:c:\program files\daisytoolchain\arm-none-eabi\include\c++\10.2.1\cmath ****  *  as macros in C).
  33:c:\program files\daisytoolchain\arm-none-eabi\include\c++\10.2.1\cmath ****  */
  34:c:\program files\daisytoolchain\arm-none-eabi\include\c++\10.2.1\cmath **** 
  35:c:\program files\daisytoolchain\arm-none-eabi\include\c++\10.2.1\cmath **** //
  36:c:\program files\daisytoolchain\arm-none-eabi\include\c++\10.2.1\cmath **** // ISO C++ 14882: 26.5  C library
  37:c:\program files\daisytoolchain\arm-none-eabi\include\c++\10.2.1\cmath **** //
  38:c:\program files\daisytoolchain\arm-none-eabi\include\c++\10.2.1\cmath **** 
  39:c:\program files\daisytoolchain\arm-none-eabi\include\c++\10.2.1\cmath **** #pragma GCC system_header
  40:c:\program files\daisytoolchain\arm-none-eabi\include\c++\10.2.1\cmath **** 
  41:c:\program files\daisytoolchain\arm-none-eabi\include\c++\10.2.1\cmath **** #include <bits/c++config.h>
  42:c:\program files\daisytoolchain\arm-none-eabi\include\c++\10.2.1\cmath **** #include <bits/cpp_type_traits.h>
  43:c:\program files\daisytoolchain\arm-none-eabi\include\c++\10.2.1\cmath **** #include <ext/type_traits.h>
  44:c:\program files\daisytoolchain\arm-none-eabi\include\c++\10.2.1\cmath **** #define _GLIBCXX_INCLUDE_NEXT_C_HEADERS
  45:c:\program files\daisytoolchain\arm-none-eabi\include\c++\10.2.1\cmath **** #include_next <math.h>
ARM GAS  C:\Users\matte\AppData\Local\Temp\ccvehO0v.s 			page 111


  46:c:\program files\daisytoolchain\arm-none-eabi\include\c++\10.2.1\cmath **** #undef _GLIBCXX_INCLUDE_NEXT_C_HEADERS
  47:c:\program files\daisytoolchain\arm-none-eabi\include\c++\10.2.1\cmath **** #include <bits/std_abs.h>
  48:c:\program files\daisytoolchain\arm-none-eabi\include\c++\10.2.1\cmath **** 
  49:c:\program files\daisytoolchain\arm-none-eabi\include\c++\10.2.1\cmath **** #ifndef _GLIBCXX_CMATH
  50:c:\program files\daisytoolchain\arm-none-eabi\include\c++\10.2.1\cmath **** #define _GLIBCXX_CMATH 1
  51:c:\program files\daisytoolchain\arm-none-eabi\include\c++\10.2.1\cmath **** 
  52:c:\program files\daisytoolchain\arm-none-eabi\include\c++\10.2.1\cmath **** // Get rid of those macros defined in <math.h> in lieu of real functions.
  53:c:\program files\daisytoolchain\arm-none-eabi\include\c++\10.2.1\cmath **** #undef div
  54:c:\program files\daisytoolchain\arm-none-eabi\include\c++\10.2.1\cmath **** #undef acos
  55:c:\program files\daisytoolchain\arm-none-eabi\include\c++\10.2.1\cmath **** #undef asin
  56:c:\program files\daisytoolchain\arm-none-eabi\include\c++\10.2.1\cmath **** #undef atan
  57:c:\program files\daisytoolchain\arm-none-eabi\include\c++\10.2.1\cmath **** #undef atan2
  58:c:\program files\daisytoolchain\arm-none-eabi\include\c++\10.2.1\cmath **** #undef ceil
  59:c:\program files\daisytoolchain\arm-none-eabi\include\c++\10.2.1\cmath **** #undef cos
  60:c:\program files\daisytoolchain\arm-none-eabi\include\c++\10.2.1\cmath **** #undef cosh
  61:c:\program files\daisytoolchain\arm-none-eabi\include\c++\10.2.1\cmath **** #undef exp
  62:c:\program files\daisytoolchain\arm-none-eabi\include\c++\10.2.1\cmath **** #undef fabs
  63:c:\program files\daisytoolchain\arm-none-eabi\include\c++\10.2.1\cmath **** #undef floor
  64:c:\program files\daisytoolchain\arm-none-eabi\include\c++\10.2.1\cmath **** #undef fmod
  65:c:\program files\daisytoolchain\arm-none-eabi\include\c++\10.2.1\cmath **** #undef frexp
  66:c:\program files\daisytoolchain\arm-none-eabi\include\c++\10.2.1\cmath **** #undef ldexp
  67:c:\program files\daisytoolchain\arm-none-eabi\include\c++\10.2.1\cmath **** #undef log
  68:c:\program files\daisytoolchain\arm-none-eabi\include\c++\10.2.1\cmath **** #undef log10
  69:c:\program files\daisytoolchain\arm-none-eabi\include\c++\10.2.1\cmath **** #undef modf
  70:c:\program files\daisytoolchain\arm-none-eabi\include\c++\10.2.1\cmath **** #undef pow
  71:c:\program files\daisytoolchain\arm-none-eabi\include\c++\10.2.1\cmath **** #undef sin
  72:c:\program files\daisytoolchain\arm-none-eabi\include\c++\10.2.1\cmath **** #undef sinh
  73:c:\program files\daisytoolchain\arm-none-eabi\include\c++\10.2.1\cmath **** #undef sqrt
  74:c:\program files\daisytoolchain\arm-none-eabi\include\c++\10.2.1\cmath **** #undef tan
  75:c:\program files\daisytoolchain\arm-none-eabi\include\c++\10.2.1\cmath **** #undef tanh
  76:c:\program files\daisytoolchain\arm-none-eabi\include\c++\10.2.1\cmath **** 
  77:c:\program files\daisytoolchain\arm-none-eabi\include\c++\10.2.1\cmath **** extern "C++"
  78:c:\program files\daisytoolchain\arm-none-eabi\include\c++\10.2.1\cmath **** {
  79:c:\program files\daisytoolchain\arm-none-eabi\include\c++\10.2.1\cmath **** namespace std _GLIBCXX_VISIBILITY(default)
  80:c:\program files\daisytoolchain\arm-none-eabi\include\c++\10.2.1\cmath **** {
  81:c:\program files\daisytoolchain\arm-none-eabi\include\c++\10.2.1\cmath **** _GLIBCXX_BEGIN_NAMESPACE_VERSION
  82:c:\program files\daisytoolchain\arm-none-eabi\include\c++\10.2.1\cmath **** 
  83:c:\program files\daisytoolchain\arm-none-eabi\include\c++\10.2.1\cmath ****   using ::acos;
  84:c:\program files\daisytoolchain\arm-none-eabi\include\c++\10.2.1\cmath **** 
  85:c:\program files\daisytoolchain\arm-none-eabi\include\c++\10.2.1\cmath **** #ifndef __CORRECT_ISO_CPP_MATH_H_PROTO
  86:c:\program files\daisytoolchain\arm-none-eabi\include\c++\10.2.1\cmath ****   inline _GLIBCXX_CONSTEXPR float
  87:c:\program files\daisytoolchain\arm-none-eabi\include\c++\10.2.1\cmath ****   acos(float __x)
  88:c:\program files\daisytoolchain\arm-none-eabi\include\c++\10.2.1\cmath ****   { return __builtin_acosf(__x); }
  89:c:\program files\daisytoolchain\arm-none-eabi\include\c++\10.2.1\cmath **** 
  90:c:\program files\daisytoolchain\arm-none-eabi\include\c++\10.2.1\cmath ****   inline _GLIBCXX_CONSTEXPR long double
  91:c:\program files\daisytoolchain\arm-none-eabi\include\c++\10.2.1\cmath ****   acos(long double __x)
  92:c:\program files\daisytoolchain\arm-none-eabi\include\c++\10.2.1\cmath ****   { return __builtin_acosl(__x); }
  93:c:\program files\daisytoolchain\arm-none-eabi\include\c++\10.2.1\cmath **** #endif
  94:c:\program files\daisytoolchain\arm-none-eabi\include\c++\10.2.1\cmath **** 
  95:c:\program files\daisytoolchain\arm-none-eabi\include\c++\10.2.1\cmath ****   template<typename _Tp>
  96:c:\program files\daisytoolchain\arm-none-eabi\include\c++\10.2.1\cmath ****     inline _GLIBCXX_CONSTEXPR
  97:c:\program files\daisytoolchain\arm-none-eabi\include\c++\10.2.1\cmath ****     typename __gnu_cxx::__enable_if<__is_integer<_Tp>::__value, 
  98:c:\program files\daisytoolchain\arm-none-eabi\include\c++\10.2.1\cmath ****                                     double>::__type
  99:c:\program files\daisytoolchain\arm-none-eabi\include\c++\10.2.1\cmath ****     acos(_Tp __x)
 100:c:\program files\daisytoolchain\arm-none-eabi\include\c++\10.2.1\cmath ****     { return __builtin_acos(__x); }
 101:c:\program files\daisytoolchain\arm-none-eabi\include\c++\10.2.1\cmath **** 
 102:c:\program files\daisytoolchain\arm-none-eabi\include\c++\10.2.1\cmath ****   using ::asin;
ARM GAS  C:\Users\matte\AppData\Local\Temp\ccvehO0v.s 			page 112


 103:c:\program files\daisytoolchain\arm-none-eabi\include\c++\10.2.1\cmath **** 
 104:c:\program files\daisytoolchain\arm-none-eabi\include\c++\10.2.1\cmath **** #ifndef __CORRECT_ISO_CPP_MATH_H_PROTO
 105:c:\program files\daisytoolchain\arm-none-eabi\include\c++\10.2.1\cmath ****   inline _GLIBCXX_CONSTEXPR float
 106:c:\program files\daisytoolchain\arm-none-eabi\include\c++\10.2.1\cmath ****   asin(float __x)
 107:c:\program files\daisytoolchain\arm-none-eabi\include\c++\10.2.1\cmath ****   { return __builtin_asinf(__x); }
 108:c:\program files\daisytoolchain\arm-none-eabi\include\c++\10.2.1\cmath **** 
 109:c:\program files\daisytoolchain\arm-none-eabi\include\c++\10.2.1\cmath ****   inline _GLIBCXX_CONSTEXPR long double
 110:c:\program files\daisytoolchain\arm-none-eabi\include\c++\10.2.1\cmath ****   asin(long double __x)
 111:c:\program files\daisytoolchain\arm-none-eabi\include\c++\10.2.1\cmath ****   { return __builtin_asinl(__x); }
 112:c:\program files\daisytoolchain\arm-none-eabi\include\c++\10.2.1\cmath **** #endif
 113:c:\program files\daisytoolchain\arm-none-eabi\include\c++\10.2.1\cmath **** 
 114:c:\program files\daisytoolchain\arm-none-eabi\include\c++\10.2.1\cmath ****   template<typename _Tp>
 115:c:\program files\daisytoolchain\arm-none-eabi\include\c++\10.2.1\cmath ****     inline _GLIBCXX_CONSTEXPR
 116:c:\program files\daisytoolchain\arm-none-eabi\include\c++\10.2.1\cmath ****     typename __gnu_cxx::__enable_if<__is_integer<_Tp>::__value,
 117:c:\program files\daisytoolchain\arm-none-eabi\include\c++\10.2.1\cmath ****                                     double>::__type
 118:c:\program files\daisytoolchain\arm-none-eabi\include\c++\10.2.1\cmath ****     asin(_Tp __x)
 119:c:\program files\daisytoolchain\arm-none-eabi\include\c++\10.2.1\cmath ****     { return __builtin_asin(__x); }
 120:c:\program files\daisytoolchain\arm-none-eabi\include\c++\10.2.1\cmath **** 
 121:c:\program files\daisytoolchain\arm-none-eabi\include\c++\10.2.1\cmath ****   using ::atan;
 122:c:\program files\daisytoolchain\arm-none-eabi\include\c++\10.2.1\cmath **** 
 123:c:\program files\daisytoolchain\arm-none-eabi\include\c++\10.2.1\cmath **** #ifndef __CORRECT_ISO_CPP_MATH_H_PROTO
 124:c:\program files\daisytoolchain\arm-none-eabi\include\c++\10.2.1\cmath ****   inline _GLIBCXX_CONSTEXPR float
 125:c:\program files\daisytoolchain\arm-none-eabi\include\c++\10.2.1\cmath ****   atan(float __x)
 126:c:\program files\daisytoolchain\arm-none-eabi\include\c++\10.2.1\cmath ****   { return __builtin_atanf(__x); }
 127:c:\program files\daisytoolchain\arm-none-eabi\include\c++\10.2.1\cmath **** 
 128:c:\program files\daisytoolchain\arm-none-eabi\include\c++\10.2.1\cmath ****   inline _GLIBCXX_CONSTEXPR long double
 129:c:\program files\daisytoolchain\arm-none-eabi\include\c++\10.2.1\cmath ****   atan(long double __x)
 130:c:\program files\daisytoolchain\arm-none-eabi\include\c++\10.2.1\cmath ****   { return __builtin_atanl(__x); }
 131:c:\program files\daisytoolchain\arm-none-eabi\include\c++\10.2.1\cmath **** #endif
 132:c:\program files\daisytoolchain\arm-none-eabi\include\c++\10.2.1\cmath **** 
 133:c:\program files\daisytoolchain\arm-none-eabi\include\c++\10.2.1\cmath ****   template<typename _Tp>
 134:c:\program files\daisytoolchain\arm-none-eabi\include\c++\10.2.1\cmath ****     inline _GLIBCXX_CONSTEXPR
 135:c:\program files\daisytoolchain\arm-none-eabi\include\c++\10.2.1\cmath ****     typename __gnu_cxx::__enable_if<__is_integer<_Tp>::__value,
 136:c:\program files\daisytoolchain\arm-none-eabi\include\c++\10.2.1\cmath ****                                     double>::__type
 137:c:\program files\daisytoolchain\arm-none-eabi\include\c++\10.2.1\cmath ****     atan(_Tp __x)
 138:c:\program files\daisytoolchain\arm-none-eabi\include\c++\10.2.1\cmath ****     { return __builtin_atan(__x); }
 139:c:\program files\daisytoolchain\arm-none-eabi\include\c++\10.2.1\cmath **** 
 140:c:\program files\daisytoolchain\arm-none-eabi\include\c++\10.2.1\cmath ****   using ::atan2;
 141:c:\program files\daisytoolchain\arm-none-eabi\include\c++\10.2.1\cmath **** 
 142:c:\program files\daisytoolchain\arm-none-eabi\include\c++\10.2.1\cmath **** #ifndef __CORRECT_ISO_CPP_MATH_H_PROTO
 143:c:\program files\daisytoolchain\arm-none-eabi\include\c++\10.2.1\cmath ****   inline _GLIBCXX_CONSTEXPR float
 144:c:\program files\daisytoolchain\arm-none-eabi\include\c++\10.2.1\cmath ****   atan2(float __y, float __x)
 145:c:\program files\daisytoolchain\arm-none-eabi\include\c++\10.2.1\cmath ****   { return __builtin_atan2f(__y, __x); }
 146:c:\program files\daisytoolchain\arm-none-eabi\include\c++\10.2.1\cmath **** 
 147:c:\program files\daisytoolchain\arm-none-eabi\include\c++\10.2.1\cmath ****   inline _GLIBCXX_CONSTEXPR long double
 148:c:\program files\daisytoolchain\arm-none-eabi\include\c++\10.2.1\cmath ****   atan2(long double __y, long double __x)
 149:c:\program files\daisytoolchain\arm-none-eabi\include\c++\10.2.1\cmath ****   { return __builtin_atan2l(__y, __x); }
 150:c:\program files\daisytoolchain\arm-none-eabi\include\c++\10.2.1\cmath **** #endif
 151:c:\program files\daisytoolchain\arm-none-eabi\include\c++\10.2.1\cmath **** 
 152:c:\program files\daisytoolchain\arm-none-eabi\include\c++\10.2.1\cmath ****   template<typename _Tp, typename _Up>
 153:c:\program files\daisytoolchain\arm-none-eabi\include\c++\10.2.1\cmath ****     inline _GLIBCXX_CONSTEXPR
 154:c:\program files\daisytoolchain\arm-none-eabi\include\c++\10.2.1\cmath ****     typename __gnu_cxx::__promote_2<_Tp, _Up>::__type
 155:c:\program files\daisytoolchain\arm-none-eabi\include\c++\10.2.1\cmath ****     atan2(_Tp __y, _Up __x)
 156:c:\program files\daisytoolchain\arm-none-eabi\include\c++\10.2.1\cmath ****     {
 157:c:\program files\daisytoolchain\arm-none-eabi\include\c++\10.2.1\cmath ****       typedef typename __gnu_cxx::__promote_2<_Tp, _Up>::__type __type;
 158:c:\program files\daisytoolchain\arm-none-eabi\include\c++\10.2.1\cmath ****       return atan2(__type(__y), __type(__x));
 159:c:\program files\daisytoolchain\arm-none-eabi\include\c++\10.2.1\cmath ****     }
ARM GAS  C:\Users\matte\AppData\Local\Temp\ccvehO0v.s 			page 113


 160:c:\program files\daisytoolchain\arm-none-eabi\include\c++\10.2.1\cmath **** 
 161:c:\program files\daisytoolchain\arm-none-eabi\include\c++\10.2.1\cmath ****   using ::ceil;
 162:c:\program files\daisytoolchain\arm-none-eabi\include\c++\10.2.1\cmath **** 
 163:c:\program files\daisytoolchain\arm-none-eabi\include\c++\10.2.1\cmath **** #ifndef __CORRECT_ISO_CPP_MATH_H_PROTO
 164:c:\program files\daisytoolchain\arm-none-eabi\include\c++\10.2.1\cmath ****   inline _GLIBCXX_CONSTEXPR float
 165:c:\program files\daisytoolchain\arm-none-eabi\include\c++\10.2.1\cmath ****   ceil(float __x)
 166:c:\program files\daisytoolchain\arm-none-eabi\include\c++\10.2.1\cmath ****   { return __builtin_ceilf(__x); }
 167:c:\program files\daisytoolchain\arm-none-eabi\include\c++\10.2.1\cmath **** 
 168:c:\program files\daisytoolchain\arm-none-eabi\include\c++\10.2.1\cmath ****   inline _GLIBCXX_CONSTEXPR long double
 169:c:\program files\daisytoolchain\arm-none-eabi\include\c++\10.2.1\cmath ****   ceil(long double __x)
 170:c:\program files\daisytoolchain\arm-none-eabi\include\c++\10.2.1\cmath ****   { return __builtin_ceill(__x); }
 171:c:\program files\daisytoolchain\arm-none-eabi\include\c++\10.2.1\cmath **** #endif
 172:c:\program files\daisytoolchain\arm-none-eabi\include\c++\10.2.1\cmath **** 
 173:c:\program files\daisytoolchain\arm-none-eabi\include\c++\10.2.1\cmath ****   template<typename _Tp>
 174:c:\program files\daisytoolchain\arm-none-eabi\include\c++\10.2.1\cmath ****     inline _GLIBCXX_CONSTEXPR
 175:c:\program files\daisytoolchain\arm-none-eabi\include\c++\10.2.1\cmath ****     typename __gnu_cxx::__enable_if<__is_integer<_Tp>::__value, 
 176:c:\program files\daisytoolchain\arm-none-eabi\include\c++\10.2.1\cmath ****                                     double>::__type
 177:c:\program files\daisytoolchain\arm-none-eabi\include\c++\10.2.1\cmath ****     ceil(_Tp __x)
 178:c:\program files\daisytoolchain\arm-none-eabi\include\c++\10.2.1\cmath ****     { return __builtin_ceil(__x); }
 179:c:\program files\daisytoolchain\arm-none-eabi\include\c++\10.2.1\cmath **** 
 180:c:\program files\daisytoolchain\arm-none-eabi\include\c++\10.2.1\cmath ****   using ::cos;
 181:c:\program files\daisytoolchain\arm-none-eabi\include\c++\10.2.1\cmath **** 
 182:c:\program files\daisytoolchain\arm-none-eabi\include\c++\10.2.1\cmath **** #ifndef __CORRECT_ISO_CPP_MATH_H_PROTO
 183:c:\program files\daisytoolchain\arm-none-eabi\include\c++\10.2.1\cmath ****   inline _GLIBCXX_CONSTEXPR float
 184:c:\program files\daisytoolchain\arm-none-eabi\include\c++\10.2.1\cmath ****   cos(float __x)
 185:c:\program files\daisytoolchain\arm-none-eabi\include\c++\10.2.1\cmath ****   { return __builtin_cosf(__x); }
 3721              		.loc 15 185 26 view .LVU820
 3722 0050 B0EE680A 		vmov.f32	s0, s17
 3723 0054 FFF7FEFF 		bl	cosf
 3724              	.LVL254:
 3725              		.loc 15 185 26 view .LVU821
 3726              	.LBE1370:
 3727              	.LBE1369:
 315:../../libs/libDaisy/src/hid/disp/display.h ****         start_y = -sin(start_angle_rad) * radius;
 3728              		.loc 10 315 17 view .LVU822
 3729 0058 07EE907A 		vmov	s15, r7	@ int
 313:../../libs/libDaisy/src/hid/disp/display.h **** 
 3730              		.loc 10 313 25 view .LVU823
 3731 005c B7EECAAB 		vcvt.f32.f64	s20, d10
 3732              	.LVL255:
 3733              	.LBB1373:
 3734              	.LBI1369:
 184:c:\program files\daisytoolchain\arm-none-eabi\include\c++\10.2.1\cmath ****   { return __builtin_cosf(__x); }
 3735              		.loc 15 184 3 is_stmt 1 view .LVU824
 3736              	.LBB1371:
 3737              		.loc 15 185 5 view .LVU825
 3738              		.loc 15 185 5 is_stmt 0 view .LVU826
 3739              	.LBE1371:
 3740              	.LBE1373:
 315:../../libs/libDaisy/src/hid/disp/display.h ****         start_y = -sin(start_angle_rad) * radius;
 3741              		.loc 10 315 17 view .LVU827
 3742 0060 F8EE679A 		vcvt.f32.u32	s19, s15
 3743              	.LBB1374:
 3744              	.LBB1372:
 3745              		.loc 15 185 26 view .LVU828
 3746 0064 B0EE408A 		vmov.f32	s16, s0
 3747              	.LBE1372:
ARM GAS  C:\Users\matte\AppData\Local\Temp\ccvehO0v.s 			page 114


 3748              	.LBE1374:
 3749              	.LBB1375:
 3750              	.LBB1376:
 186:c:\program files\daisytoolchain\arm-none-eabi\include\c++\10.2.1\cmath **** 
 187:c:\program files\daisytoolchain\arm-none-eabi\include\c++\10.2.1\cmath ****   inline _GLIBCXX_CONSTEXPR long double
 188:c:\program files\daisytoolchain\arm-none-eabi\include\c++\10.2.1\cmath ****   cos(long double __x)
 189:c:\program files\daisytoolchain\arm-none-eabi\include\c++\10.2.1\cmath ****   { return __builtin_cosl(__x); }
 190:c:\program files\daisytoolchain\arm-none-eabi\include\c++\10.2.1\cmath **** #endif
 191:c:\program files\daisytoolchain\arm-none-eabi\include\c++\10.2.1\cmath **** 
 192:c:\program files\daisytoolchain\arm-none-eabi\include\c++\10.2.1\cmath ****   template<typename _Tp>
 193:c:\program files\daisytoolchain\arm-none-eabi\include\c++\10.2.1\cmath ****     inline _GLIBCXX_CONSTEXPR
 194:c:\program files\daisytoolchain\arm-none-eabi\include\c++\10.2.1\cmath ****     typename __gnu_cxx::__enable_if<__is_integer<_Tp>::__value,
 195:c:\program files\daisytoolchain\arm-none-eabi\include\c++\10.2.1\cmath ****                                     double>::__type
 196:c:\program files\daisytoolchain\arm-none-eabi\include\c++\10.2.1\cmath ****     cos(_Tp __x)
 197:c:\program files\daisytoolchain\arm-none-eabi\include\c++\10.2.1\cmath ****     { return __builtin_cos(__x); }
 198:c:\program files\daisytoolchain\arm-none-eabi\include\c++\10.2.1\cmath **** 
 199:c:\program files\daisytoolchain\arm-none-eabi\include\c++\10.2.1\cmath ****   using ::cosh;
 200:c:\program files\daisytoolchain\arm-none-eabi\include\c++\10.2.1\cmath **** 
 201:c:\program files\daisytoolchain\arm-none-eabi\include\c++\10.2.1\cmath **** #ifndef __CORRECT_ISO_CPP_MATH_H_PROTO
 202:c:\program files\daisytoolchain\arm-none-eabi\include\c++\10.2.1\cmath ****   inline _GLIBCXX_CONSTEXPR float
 203:c:\program files\daisytoolchain\arm-none-eabi\include\c++\10.2.1\cmath ****   cosh(float __x)
 204:c:\program files\daisytoolchain\arm-none-eabi\include\c++\10.2.1\cmath ****   { return __builtin_coshf(__x); }
 205:c:\program files\daisytoolchain\arm-none-eabi\include\c++\10.2.1\cmath **** 
 206:c:\program files\daisytoolchain\arm-none-eabi\include\c++\10.2.1\cmath ****   inline _GLIBCXX_CONSTEXPR long double
 207:c:\program files\daisytoolchain\arm-none-eabi\include\c++\10.2.1\cmath ****   cosh(long double __x)
 208:c:\program files\daisytoolchain\arm-none-eabi\include\c++\10.2.1\cmath ****   { return __builtin_coshl(__x); }
 209:c:\program files\daisytoolchain\arm-none-eabi\include\c++\10.2.1\cmath **** #endif
 210:c:\program files\daisytoolchain\arm-none-eabi\include\c++\10.2.1\cmath **** 
 211:c:\program files\daisytoolchain\arm-none-eabi\include\c++\10.2.1\cmath ****   template<typename _Tp>
 212:c:\program files\daisytoolchain\arm-none-eabi\include\c++\10.2.1\cmath ****     inline _GLIBCXX_CONSTEXPR
 213:c:\program files\daisytoolchain\arm-none-eabi\include\c++\10.2.1\cmath ****     typename __gnu_cxx::__enable_if<__is_integer<_Tp>::__value,
 214:c:\program files\daisytoolchain\arm-none-eabi\include\c++\10.2.1\cmath ****                                     double>::__type
 215:c:\program files\daisytoolchain\arm-none-eabi\include\c++\10.2.1\cmath ****     cosh(_Tp __x)
 216:c:\program files\daisytoolchain\arm-none-eabi\include\c++\10.2.1\cmath ****     { return __builtin_cosh(__x); }
 217:c:\program files\daisytoolchain\arm-none-eabi\include\c++\10.2.1\cmath **** 
 218:c:\program files\daisytoolchain\arm-none-eabi\include\c++\10.2.1\cmath ****   using ::exp;
 219:c:\program files\daisytoolchain\arm-none-eabi\include\c++\10.2.1\cmath **** 
 220:c:\program files\daisytoolchain\arm-none-eabi\include\c++\10.2.1\cmath **** #ifndef __CORRECT_ISO_CPP_MATH_H_PROTO
 221:c:\program files\daisytoolchain\arm-none-eabi\include\c++\10.2.1\cmath ****   inline _GLIBCXX_CONSTEXPR float
 222:c:\program files\daisytoolchain\arm-none-eabi\include\c++\10.2.1\cmath ****   exp(float __x)
 223:c:\program files\daisytoolchain\arm-none-eabi\include\c++\10.2.1\cmath ****   { return __builtin_expf(__x); }
 224:c:\program files\daisytoolchain\arm-none-eabi\include\c++\10.2.1\cmath **** 
 225:c:\program files\daisytoolchain\arm-none-eabi\include\c++\10.2.1\cmath ****   inline _GLIBCXX_CONSTEXPR long double
 226:c:\program files\daisytoolchain\arm-none-eabi\include\c++\10.2.1\cmath ****   exp(long double __x)
 227:c:\program files\daisytoolchain\arm-none-eabi\include\c++\10.2.1\cmath ****   { return __builtin_expl(__x); }
 228:c:\program files\daisytoolchain\arm-none-eabi\include\c++\10.2.1\cmath **** #endif
 229:c:\program files\daisytoolchain\arm-none-eabi\include\c++\10.2.1\cmath **** 
 230:c:\program files\daisytoolchain\arm-none-eabi\include\c++\10.2.1\cmath ****   template<typename _Tp>
 231:c:\program files\daisytoolchain\arm-none-eabi\include\c++\10.2.1\cmath ****     inline _GLIBCXX_CONSTEXPR
 232:c:\program files\daisytoolchain\arm-none-eabi\include\c++\10.2.1\cmath ****     typename __gnu_cxx::__enable_if<__is_integer<_Tp>::__value,
 233:c:\program files\daisytoolchain\arm-none-eabi\include\c++\10.2.1\cmath ****                                     double>::__type
 234:c:\program files\daisytoolchain\arm-none-eabi\include\c++\10.2.1\cmath ****     exp(_Tp __x)
 235:c:\program files\daisytoolchain\arm-none-eabi\include\c++\10.2.1\cmath ****     { return __builtin_exp(__x); }
 236:c:\program files\daisytoolchain\arm-none-eabi\include\c++\10.2.1\cmath **** 
 237:c:\program files\daisytoolchain\arm-none-eabi\include\c++\10.2.1\cmath ****   using ::fabs;
 238:c:\program files\daisytoolchain\arm-none-eabi\include\c++\10.2.1\cmath **** 
 239:c:\program files\daisytoolchain\arm-none-eabi\include\c++\10.2.1\cmath **** #ifndef __CORRECT_ISO_CPP_MATH_H_PROTO
ARM GAS  C:\Users\matte\AppData\Local\Temp\ccvehO0v.s 			page 115


 240:c:\program files\daisytoolchain\arm-none-eabi\include\c++\10.2.1\cmath ****   inline _GLIBCXX_CONSTEXPR float
 241:c:\program files\daisytoolchain\arm-none-eabi\include\c++\10.2.1\cmath ****   fabs(float __x)
 242:c:\program files\daisytoolchain\arm-none-eabi\include\c++\10.2.1\cmath ****   { return __builtin_fabsf(__x); }
 243:c:\program files\daisytoolchain\arm-none-eabi\include\c++\10.2.1\cmath **** 
 244:c:\program files\daisytoolchain\arm-none-eabi\include\c++\10.2.1\cmath ****   inline _GLIBCXX_CONSTEXPR long double
 245:c:\program files\daisytoolchain\arm-none-eabi\include\c++\10.2.1\cmath ****   fabs(long double __x)
 246:c:\program files\daisytoolchain\arm-none-eabi\include\c++\10.2.1\cmath ****   { return __builtin_fabsl(__x); }
 247:c:\program files\daisytoolchain\arm-none-eabi\include\c++\10.2.1\cmath **** #endif
 248:c:\program files\daisytoolchain\arm-none-eabi\include\c++\10.2.1\cmath **** 
 249:c:\program files\daisytoolchain\arm-none-eabi\include\c++\10.2.1\cmath ****   template<typename _Tp>
 250:c:\program files\daisytoolchain\arm-none-eabi\include\c++\10.2.1\cmath ****     inline _GLIBCXX_CONSTEXPR
 251:c:\program files\daisytoolchain\arm-none-eabi\include\c++\10.2.1\cmath ****     typename __gnu_cxx::__enable_if<__is_integer<_Tp>::__value,
 252:c:\program files\daisytoolchain\arm-none-eabi\include\c++\10.2.1\cmath ****                                     double>::__type
 253:c:\program files\daisytoolchain\arm-none-eabi\include\c++\10.2.1\cmath ****     fabs(_Tp __x)
 254:c:\program files\daisytoolchain\arm-none-eabi\include\c++\10.2.1\cmath ****     { return __builtin_fabs(__x); }
 255:c:\program files\daisytoolchain\arm-none-eabi\include\c++\10.2.1\cmath **** 
 256:c:\program files\daisytoolchain\arm-none-eabi\include\c++\10.2.1\cmath ****   using ::floor;
 257:c:\program files\daisytoolchain\arm-none-eabi\include\c++\10.2.1\cmath **** 
 258:c:\program files\daisytoolchain\arm-none-eabi\include\c++\10.2.1\cmath **** #ifndef __CORRECT_ISO_CPP_MATH_H_PROTO
 259:c:\program files\daisytoolchain\arm-none-eabi\include\c++\10.2.1\cmath ****   inline _GLIBCXX_CONSTEXPR float
 260:c:\program files\daisytoolchain\arm-none-eabi\include\c++\10.2.1\cmath ****   floor(float __x)
 261:c:\program files\daisytoolchain\arm-none-eabi\include\c++\10.2.1\cmath ****   { return __builtin_floorf(__x); }
 262:c:\program files\daisytoolchain\arm-none-eabi\include\c++\10.2.1\cmath **** 
 263:c:\program files\daisytoolchain\arm-none-eabi\include\c++\10.2.1\cmath ****   inline _GLIBCXX_CONSTEXPR long double
 264:c:\program files\daisytoolchain\arm-none-eabi\include\c++\10.2.1\cmath ****   floor(long double __x)
 265:c:\program files\daisytoolchain\arm-none-eabi\include\c++\10.2.1\cmath ****   { return __builtin_floorl(__x); }
 266:c:\program files\daisytoolchain\arm-none-eabi\include\c++\10.2.1\cmath **** #endif
 267:c:\program files\daisytoolchain\arm-none-eabi\include\c++\10.2.1\cmath **** 
 268:c:\program files\daisytoolchain\arm-none-eabi\include\c++\10.2.1\cmath ****   template<typename _Tp>
 269:c:\program files\daisytoolchain\arm-none-eabi\include\c++\10.2.1\cmath ****     inline _GLIBCXX_CONSTEXPR
 270:c:\program files\daisytoolchain\arm-none-eabi\include\c++\10.2.1\cmath ****     typename __gnu_cxx::__enable_if<__is_integer<_Tp>::__value,
 271:c:\program files\daisytoolchain\arm-none-eabi\include\c++\10.2.1\cmath ****                                     double>::__type
 272:c:\program files\daisytoolchain\arm-none-eabi\include\c++\10.2.1\cmath ****     floor(_Tp __x)
 273:c:\program files\daisytoolchain\arm-none-eabi\include\c++\10.2.1\cmath ****     { return __builtin_floor(__x); }
 274:c:\program files\daisytoolchain\arm-none-eabi\include\c++\10.2.1\cmath **** 
 275:c:\program files\daisytoolchain\arm-none-eabi\include\c++\10.2.1\cmath ****   using ::fmod;
 276:c:\program files\daisytoolchain\arm-none-eabi\include\c++\10.2.1\cmath **** 
 277:c:\program files\daisytoolchain\arm-none-eabi\include\c++\10.2.1\cmath **** #ifndef __CORRECT_ISO_CPP_MATH_H_PROTO
 278:c:\program files\daisytoolchain\arm-none-eabi\include\c++\10.2.1\cmath ****   inline _GLIBCXX_CONSTEXPR float
 279:c:\program files\daisytoolchain\arm-none-eabi\include\c++\10.2.1\cmath ****   fmod(float __x, float __y)
 280:c:\program files\daisytoolchain\arm-none-eabi\include\c++\10.2.1\cmath ****   { return __builtin_fmodf(__x, __y); }
 281:c:\program files\daisytoolchain\arm-none-eabi\include\c++\10.2.1\cmath **** 
 282:c:\program files\daisytoolchain\arm-none-eabi\include\c++\10.2.1\cmath ****   inline _GLIBCXX_CONSTEXPR long double
 283:c:\program files\daisytoolchain\arm-none-eabi\include\c++\10.2.1\cmath ****   fmod(long double __x, long double __y)
 284:c:\program files\daisytoolchain\arm-none-eabi\include\c++\10.2.1\cmath ****   { return __builtin_fmodl(__x, __y); }
 285:c:\program files\daisytoolchain\arm-none-eabi\include\c++\10.2.1\cmath **** #endif
 286:c:\program files\daisytoolchain\arm-none-eabi\include\c++\10.2.1\cmath **** 
 287:c:\program files\daisytoolchain\arm-none-eabi\include\c++\10.2.1\cmath ****   template<typename _Tp, typename _Up>
 288:c:\program files\daisytoolchain\arm-none-eabi\include\c++\10.2.1\cmath ****     inline _GLIBCXX_CONSTEXPR
 289:c:\program files\daisytoolchain\arm-none-eabi\include\c++\10.2.1\cmath ****     typename __gnu_cxx::__promote_2<_Tp, _Up>::__type
 290:c:\program files\daisytoolchain\arm-none-eabi\include\c++\10.2.1\cmath ****     fmod(_Tp __x, _Up __y)
 291:c:\program files\daisytoolchain\arm-none-eabi\include\c++\10.2.1\cmath ****     {
 292:c:\program files\daisytoolchain\arm-none-eabi\include\c++\10.2.1\cmath ****       typedef typename __gnu_cxx::__promote_2<_Tp, _Up>::__type __type;
 293:c:\program files\daisytoolchain\arm-none-eabi\include\c++\10.2.1\cmath ****       return fmod(__type(__x), __type(__y));
 294:c:\program files\daisytoolchain\arm-none-eabi\include\c++\10.2.1\cmath ****     }
 295:c:\program files\daisytoolchain\arm-none-eabi\include\c++\10.2.1\cmath **** 
 296:c:\program files\daisytoolchain\arm-none-eabi\include\c++\10.2.1\cmath ****   using ::frexp;
ARM GAS  C:\Users\matte\AppData\Local\Temp\ccvehO0v.s 			page 116


 297:c:\program files\daisytoolchain\arm-none-eabi\include\c++\10.2.1\cmath **** 
 298:c:\program files\daisytoolchain\arm-none-eabi\include\c++\10.2.1\cmath **** #ifndef __CORRECT_ISO_CPP_MATH_H_PROTO
 299:c:\program files\daisytoolchain\arm-none-eabi\include\c++\10.2.1\cmath ****   inline float
 300:c:\program files\daisytoolchain\arm-none-eabi\include\c++\10.2.1\cmath ****   frexp(float __x, int* __exp)
 301:c:\program files\daisytoolchain\arm-none-eabi\include\c++\10.2.1\cmath ****   { return __builtin_frexpf(__x, __exp); }
 302:c:\program files\daisytoolchain\arm-none-eabi\include\c++\10.2.1\cmath **** 
 303:c:\program files\daisytoolchain\arm-none-eabi\include\c++\10.2.1\cmath ****   inline long double
 304:c:\program files\daisytoolchain\arm-none-eabi\include\c++\10.2.1\cmath ****   frexp(long double __x, int* __exp)
 305:c:\program files\daisytoolchain\arm-none-eabi\include\c++\10.2.1\cmath ****   { return __builtin_frexpl(__x, __exp); }
 306:c:\program files\daisytoolchain\arm-none-eabi\include\c++\10.2.1\cmath **** #endif
 307:c:\program files\daisytoolchain\arm-none-eabi\include\c++\10.2.1\cmath **** 
 308:c:\program files\daisytoolchain\arm-none-eabi\include\c++\10.2.1\cmath ****   template<typename _Tp>
 309:c:\program files\daisytoolchain\arm-none-eabi\include\c++\10.2.1\cmath ****     inline _GLIBCXX_CONSTEXPR
 310:c:\program files\daisytoolchain\arm-none-eabi\include\c++\10.2.1\cmath ****     typename __gnu_cxx::__enable_if<__is_integer<_Tp>::__value, 
 311:c:\program files\daisytoolchain\arm-none-eabi\include\c++\10.2.1\cmath ****                                     double>::__type
 312:c:\program files\daisytoolchain\arm-none-eabi\include\c++\10.2.1\cmath ****     frexp(_Tp __x, int* __exp)
 313:c:\program files\daisytoolchain\arm-none-eabi\include\c++\10.2.1\cmath ****     { return __builtin_frexp(__x, __exp); }
 314:c:\program files\daisytoolchain\arm-none-eabi\include\c++\10.2.1\cmath **** 
 315:c:\program files\daisytoolchain\arm-none-eabi\include\c++\10.2.1\cmath ****   using ::ldexp;
 316:c:\program files\daisytoolchain\arm-none-eabi\include\c++\10.2.1\cmath **** 
 317:c:\program files\daisytoolchain\arm-none-eabi\include\c++\10.2.1\cmath **** #ifndef __CORRECT_ISO_CPP_MATH_H_PROTO
 318:c:\program files\daisytoolchain\arm-none-eabi\include\c++\10.2.1\cmath ****   inline _GLIBCXX_CONSTEXPR float
 319:c:\program files\daisytoolchain\arm-none-eabi\include\c++\10.2.1\cmath ****   ldexp(float __x, int __exp)
 320:c:\program files\daisytoolchain\arm-none-eabi\include\c++\10.2.1\cmath ****   { return __builtin_ldexpf(__x, __exp); }
 321:c:\program files\daisytoolchain\arm-none-eabi\include\c++\10.2.1\cmath **** 
 322:c:\program files\daisytoolchain\arm-none-eabi\include\c++\10.2.1\cmath ****   inline _GLIBCXX_CONSTEXPR long double
 323:c:\program files\daisytoolchain\arm-none-eabi\include\c++\10.2.1\cmath ****   ldexp(long double __x, int __exp)
 324:c:\program files\daisytoolchain\arm-none-eabi\include\c++\10.2.1\cmath ****   { return __builtin_ldexpl(__x, __exp); }
 325:c:\program files\daisytoolchain\arm-none-eabi\include\c++\10.2.1\cmath **** #endif
 326:c:\program files\daisytoolchain\arm-none-eabi\include\c++\10.2.1\cmath **** 
 327:c:\program files\daisytoolchain\arm-none-eabi\include\c++\10.2.1\cmath ****   template<typename _Tp>
 328:c:\program files\daisytoolchain\arm-none-eabi\include\c++\10.2.1\cmath ****     inline _GLIBCXX_CONSTEXPR
 329:c:\program files\daisytoolchain\arm-none-eabi\include\c++\10.2.1\cmath ****     typename __gnu_cxx::__enable_if<__is_integer<_Tp>::__value, 
 330:c:\program files\daisytoolchain\arm-none-eabi\include\c++\10.2.1\cmath ****                                     double>::__type
 331:c:\program files\daisytoolchain\arm-none-eabi\include\c++\10.2.1\cmath ****     ldexp(_Tp __x, int __exp)
 332:c:\program files\daisytoolchain\arm-none-eabi\include\c++\10.2.1\cmath ****     { return __builtin_ldexp(__x, __exp); }
 333:c:\program files\daisytoolchain\arm-none-eabi\include\c++\10.2.1\cmath **** 
 334:c:\program files\daisytoolchain\arm-none-eabi\include\c++\10.2.1\cmath ****   using ::log;
 335:c:\program files\daisytoolchain\arm-none-eabi\include\c++\10.2.1\cmath **** 
 336:c:\program files\daisytoolchain\arm-none-eabi\include\c++\10.2.1\cmath **** #ifndef __CORRECT_ISO_CPP_MATH_H_PROTO
 337:c:\program files\daisytoolchain\arm-none-eabi\include\c++\10.2.1\cmath ****   inline _GLIBCXX_CONSTEXPR float
 338:c:\program files\daisytoolchain\arm-none-eabi\include\c++\10.2.1\cmath ****   log(float __x)
 339:c:\program files\daisytoolchain\arm-none-eabi\include\c++\10.2.1\cmath ****   { return __builtin_logf(__x); }
 340:c:\program files\daisytoolchain\arm-none-eabi\include\c++\10.2.1\cmath **** 
 341:c:\program files\daisytoolchain\arm-none-eabi\include\c++\10.2.1\cmath ****   inline _GLIBCXX_CONSTEXPR long double
 342:c:\program files\daisytoolchain\arm-none-eabi\include\c++\10.2.1\cmath ****   log(long double __x)
 343:c:\program files\daisytoolchain\arm-none-eabi\include\c++\10.2.1\cmath ****   { return __builtin_logl(__x); }
 344:c:\program files\daisytoolchain\arm-none-eabi\include\c++\10.2.1\cmath **** #endif
 345:c:\program files\daisytoolchain\arm-none-eabi\include\c++\10.2.1\cmath **** 
 346:c:\program files\daisytoolchain\arm-none-eabi\include\c++\10.2.1\cmath ****   template<typename _Tp>
 347:c:\program files\daisytoolchain\arm-none-eabi\include\c++\10.2.1\cmath ****     inline _GLIBCXX_CONSTEXPR
 348:c:\program files\daisytoolchain\arm-none-eabi\include\c++\10.2.1\cmath ****     typename __gnu_cxx::__enable_if<__is_integer<_Tp>::__value, 
 349:c:\program files\daisytoolchain\arm-none-eabi\include\c++\10.2.1\cmath ****                                     double>::__type
 350:c:\program files\daisytoolchain\arm-none-eabi\include\c++\10.2.1\cmath ****     log(_Tp __x)
 351:c:\program files\daisytoolchain\arm-none-eabi\include\c++\10.2.1\cmath ****     { return __builtin_log(__x); }
 352:c:\program files\daisytoolchain\arm-none-eabi\include\c++\10.2.1\cmath **** 
 353:c:\program files\daisytoolchain\arm-none-eabi\include\c++\10.2.1\cmath ****   using ::log10;
ARM GAS  C:\Users\matte\AppData\Local\Temp\ccvehO0v.s 			page 117


 354:c:\program files\daisytoolchain\arm-none-eabi\include\c++\10.2.1\cmath **** 
 355:c:\program files\daisytoolchain\arm-none-eabi\include\c++\10.2.1\cmath **** #ifndef __CORRECT_ISO_CPP_MATH_H_PROTO
 356:c:\program files\daisytoolchain\arm-none-eabi\include\c++\10.2.1\cmath ****   inline _GLIBCXX_CONSTEXPR float
 357:c:\program files\daisytoolchain\arm-none-eabi\include\c++\10.2.1\cmath ****   log10(float __x)
 358:c:\program files\daisytoolchain\arm-none-eabi\include\c++\10.2.1\cmath ****   { return __builtin_log10f(__x); }
 359:c:\program files\daisytoolchain\arm-none-eabi\include\c++\10.2.1\cmath **** 
 360:c:\program files\daisytoolchain\arm-none-eabi\include\c++\10.2.1\cmath ****   inline _GLIBCXX_CONSTEXPR long double
 361:c:\program files\daisytoolchain\arm-none-eabi\include\c++\10.2.1\cmath ****   log10(long double __x)
 362:c:\program files\daisytoolchain\arm-none-eabi\include\c++\10.2.1\cmath ****   { return __builtin_log10l(__x); }
 363:c:\program files\daisytoolchain\arm-none-eabi\include\c++\10.2.1\cmath **** #endif
 364:c:\program files\daisytoolchain\arm-none-eabi\include\c++\10.2.1\cmath **** 
 365:c:\program files\daisytoolchain\arm-none-eabi\include\c++\10.2.1\cmath ****   template<typename _Tp>
 366:c:\program files\daisytoolchain\arm-none-eabi\include\c++\10.2.1\cmath ****     inline _GLIBCXX_CONSTEXPR
 367:c:\program files\daisytoolchain\arm-none-eabi\include\c++\10.2.1\cmath ****     typename __gnu_cxx::__enable_if<__is_integer<_Tp>::__value,
 368:c:\program files\daisytoolchain\arm-none-eabi\include\c++\10.2.1\cmath ****                                     double>::__type
 369:c:\program files\daisytoolchain\arm-none-eabi\include\c++\10.2.1\cmath ****     log10(_Tp __x)
 370:c:\program files\daisytoolchain\arm-none-eabi\include\c++\10.2.1\cmath ****     { return __builtin_log10(__x); }
 371:c:\program files\daisytoolchain\arm-none-eabi\include\c++\10.2.1\cmath **** 
 372:c:\program files\daisytoolchain\arm-none-eabi\include\c++\10.2.1\cmath ****   using ::modf;
 373:c:\program files\daisytoolchain\arm-none-eabi\include\c++\10.2.1\cmath **** 
 374:c:\program files\daisytoolchain\arm-none-eabi\include\c++\10.2.1\cmath **** #ifndef __CORRECT_ISO_CPP_MATH_H_PROTO
 375:c:\program files\daisytoolchain\arm-none-eabi\include\c++\10.2.1\cmath ****   inline float
 376:c:\program files\daisytoolchain\arm-none-eabi\include\c++\10.2.1\cmath ****   modf(float __x, float* __iptr)
 377:c:\program files\daisytoolchain\arm-none-eabi\include\c++\10.2.1\cmath ****   { return __builtin_modff(__x, __iptr); }
 378:c:\program files\daisytoolchain\arm-none-eabi\include\c++\10.2.1\cmath **** 
 379:c:\program files\daisytoolchain\arm-none-eabi\include\c++\10.2.1\cmath ****   inline long double
 380:c:\program files\daisytoolchain\arm-none-eabi\include\c++\10.2.1\cmath ****   modf(long double __x, long double* __iptr)
 381:c:\program files\daisytoolchain\arm-none-eabi\include\c++\10.2.1\cmath ****   { return __builtin_modfl(__x, __iptr); }
 382:c:\program files\daisytoolchain\arm-none-eabi\include\c++\10.2.1\cmath **** #endif
 383:c:\program files\daisytoolchain\arm-none-eabi\include\c++\10.2.1\cmath **** 
 384:c:\program files\daisytoolchain\arm-none-eabi\include\c++\10.2.1\cmath ****   using ::pow;
 385:c:\program files\daisytoolchain\arm-none-eabi\include\c++\10.2.1\cmath **** 
 386:c:\program files\daisytoolchain\arm-none-eabi\include\c++\10.2.1\cmath **** #ifndef __CORRECT_ISO_CPP_MATH_H_PROTO
 387:c:\program files\daisytoolchain\arm-none-eabi\include\c++\10.2.1\cmath ****   inline _GLIBCXX_CONSTEXPR float
 388:c:\program files\daisytoolchain\arm-none-eabi\include\c++\10.2.1\cmath ****   pow(float __x, float __y)
 389:c:\program files\daisytoolchain\arm-none-eabi\include\c++\10.2.1\cmath ****   { return __builtin_powf(__x, __y); }
 390:c:\program files\daisytoolchain\arm-none-eabi\include\c++\10.2.1\cmath **** 
 391:c:\program files\daisytoolchain\arm-none-eabi\include\c++\10.2.1\cmath ****   inline _GLIBCXX_CONSTEXPR long double
 392:c:\program files\daisytoolchain\arm-none-eabi\include\c++\10.2.1\cmath ****   pow(long double __x, long double __y)
 393:c:\program files\daisytoolchain\arm-none-eabi\include\c++\10.2.1\cmath ****   { return __builtin_powl(__x, __y); }
 394:c:\program files\daisytoolchain\arm-none-eabi\include\c++\10.2.1\cmath **** 
 395:c:\program files\daisytoolchain\arm-none-eabi\include\c++\10.2.1\cmath **** #if __cplusplus < 201103L
 396:c:\program files\daisytoolchain\arm-none-eabi\include\c++\10.2.1\cmath ****   // _GLIBCXX_RESOLVE_LIB_DEFECTS
 397:c:\program files\daisytoolchain\arm-none-eabi\include\c++\10.2.1\cmath ****   // DR 550. What should the return type of pow(float,int) be?
 398:c:\program files\daisytoolchain\arm-none-eabi\include\c++\10.2.1\cmath ****   inline double
 399:c:\program files\daisytoolchain\arm-none-eabi\include\c++\10.2.1\cmath ****   pow(double __x, int __i)
 400:c:\program files\daisytoolchain\arm-none-eabi\include\c++\10.2.1\cmath ****   { return __builtin_powi(__x, __i); }
 401:c:\program files\daisytoolchain\arm-none-eabi\include\c++\10.2.1\cmath **** 
 402:c:\program files\daisytoolchain\arm-none-eabi\include\c++\10.2.1\cmath ****   inline float
 403:c:\program files\daisytoolchain\arm-none-eabi\include\c++\10.2.1\cmath ****   pow(float __x, int __n)
 404:c:\program files\daisytoolchain\arm-none-eabi\include\c++\10.2.1\cmath ****   { return __builtin_powif(__x, __n); }
 405:c:\program files\daisytoolchain\arm-none-eabi\include\c++\10.2.1\cmath **** 
 406:c:\program files\daisytoolchain\arm-none-eabi\include\c++\10.2.1\cmath ****   inline long double
 407:c:\program files\daisytoolchain\arm-none-eabi\include\c++\10.2.1\cmath ****   pow(long double __x, int __n)
 408:c:\program files\daisytoolchain\arm-none-eabi\include\c++\10.2.1\cmath ****   { return __builtin_powil(__x, __n); }
 409:c:\program files\daisytoolchain\arm-none-eabi\include\c++\10.2.1\cmath **** #endif
 410:c:\program files\daisytoolchain\arm-none-eabi\include\c++\10.2.1\cmath **** #endif
ARM GAS  C:\Users\matte\AppData\Local\Temp\ccvehO0v.s 			page 118


 411:c:\program files\daisytoolchain\arm-none-eabi\include\c++\10.2.1\cmath **** 
 412:c:\program files\daisytoolchain\arm-none-eabi\include\c++\10.2.1\cmath ****   template<typename _Tp, typename _Up>
 413:c:\program files\daisytoolchain\arm-none-eabi\include\c++\10.2.1\cmath ****     inline _GLIBCXX_CONSTEXPR
 414:c:\program files\daisytoolchain\arm-none-eabi\include\c++\10.2.1\cmath ****     typename __gnu_cxx::__promote_2<_Tp, _Up>::__type
 415:c:\program files\daisytoolchain\arm-none-eabi\include\c++\10.2.1\cmath ****     pow(_Tp __x, _Up __y)
 416:c:\program files\daisytoolchain\arm-none-eabi\include\c++\10.2.1\cmath ****     {
 417:c:\program files\daisytoolchain\arm-none-eabi\include\c++\10.2.1\cmath ****       typedef typename __gnu_cxx::__promote_2<_Tp, _Up>::__type __type;
 418:c:\program files\daisytoolchain\arm-none-eabi\include\c++\10.2.1\cmath ****       return pow(__type(__x), __type(__y));
 419:c:\program files\daisytoolchain\arm-none-eabi\include\c++\10.2.1\cmath ****     }
 420:c:\program files\daisytoolchain\arm-none-eabi\include\c++\10.2.1\cmath **** 
 421:c:\program files\daisytoolchain\arm-none-eabi\include\c++\10.2.1\cmath ****   using ::sin;
 422:c:\program files\daisytoolchain\arm-none-eabi\include\c++\10.2.1\cmath **** 
 423:c:\program files\daisytoolchain\arm-none-eabi\include\c++\10.2.1\cmath **** #ifndef __CORRECT_ISO_CPP_MATH_H_PROTO
 424:c:\program files\daisytoolchain\arm-none-eabi\include\c++\10.2.1\cmath ****   inline _GLIBCXX_CONSTEXPR float
 425:c:\program files\daisytoolchain\arm-none-eabi\include\c++\10.2.1\cmath ****   sin(float __x)
 426:c:\program files\daisytoolchain\arm-none-eabi\include\c++\10.2.1\cmath ****   { return __builtin_sinf(__x); }
 3751              		.loc 15 426 26 view .LVU829
 3752 0068 B0EE680A 		vmov.f32	s0, s17
 3753 006c FFF7FEFF 		bl	sinf
 3754              	.LVL256:
 3755              	.LBE1376:
 3756              	.LBE1375:
 316:../../libs/libDaisy/src/hid/disp/display.h ****         end_x   = cos(end_angle_rad) * radius;
 3757              		.loc 10 316 17 view .LVU830
 3758 0070 60EE698A 		vnmul.f32	s17, s0, s19
 3759              	.LVL257:
 3760              	.LBB1378:
 3761              	.LBB1379:
 185:c:\program files\daisytoolchain\arm-none-eabi\include\c++\10.2.1\cmath **** 
 3762              		.loc 15 185 26 view .LVU831
 3763 0074 B0EE4A0A 		vmov.f32	s0, s20
 3764 0078 FFF7FEFF 		bl	cosf
 3765              	.LVL258:
 3766 007c B0EE409A 		vmov.f32	s18, s0
 3767              	.LBE1379:
 3768              	.LBE1378:
 3769              	.LBB1381:
 3770              	.LBB1382:
 3771              		.loc 15 426 26 view .LVU832
 3772 0080 B0EE4A0A 		vmov.f32	s0, s20
 3773 0084 FFF7FEFF 		bl	sinf
 3774              	.LVL259:
 3775              	.LBE1382:
 3776              	.LBE1381:
 318:../../libs/libDaisy/src/hid/disp/display.h **** 
 3777              		.loc 10 318 17 view .LVU833
 3778 0088 20EE690A 		vnmul.f32	s0, s0, s19
 315:../../libs/libDaisy/src/hid/disp/display.h ****         start_y = -sin(start_angle_rad) * radius;
 3779              		.loc 10 315 17 view .LVU834
 3780 008c 29EE888A 		vmul.f32	s16, s19, s16
 3781              	.LVL260:
 3782              	.LBB1384:
 3783              	.LBI1375:
 425:c:\program files\daisytoolchain\arm-none-eabi\include\c++\10.2.1\cmath ****   { return __builtin_sinf(__x); }
 3784              		.loc 15 425 3 is_stmt 1 view .LVU835
 3785              	.LBB1377:
 3786              		.loc 15 426 5 view .LVU836
ARM GAS  C:\Users\matte\AppData\Local\Temp\ccvehO0v.s 			page 119


 3787              		.loc 15 426 5 is_stmt 0 view .LVU837
 3788              	.LBE1377:
 3789              	.LBE1384:
 3790              	.LBB1385:
 3791              	.LBI1378:
 184:c:\program files\daisytoolchain\arm-none-eabi\include\c++\10.2.1\cmath ****   { return __builtin_cosf(__x); }
 3792              		.loc 15 184 3 is_stmt 1 view .LVU838
 3793              	.LBB1380:
 185:c:\program files\daisytoolchain\arm-none-eabi\include\c++\10.2.1\cmath **** 
 3794              		.loc 15 185 5 view .LVU839
 185:c:\program files\daisytoolchain\arm-none-eabi\include\c++\10.2.1\cmath **** 
 3795              		.loc 15 185 5 is_stmt 0 view .LVU840
 3796              	.LBE1380:
 3797              	.LBE1385:
 317:../../libs/libDaisy/src/hid/disp/display.h ****         end_y   = -sin(end_angle_rad) * radius;
 3798              		.loc 10 317 17 view .LVU841
 3799 0090 29EE899A 		vmul.f32	s18, s19, s18
 3800              	.LVL261:
 3801              	.LBB1386:
 3802              	.LBI1381:
 425:c:\program files\daisytoolchain\arm-none-eabi\include\c++\10.2.1\cmath ****   { return __builtin_sinf(__x); }
 3803              		.loc 15 425 3 is_stmt 1 view .LVU842
 3804              	.LBB1383:
 3805              		.loc 15 426 5 view .LVU843
 3806              		.loc 15 426 5 is_stmt 0 view .LVU844
 3807              	.LBE1383:
 3808              	.LBE1386:
 322:../../libs/libDaisy/src/hid/disp/display.h ****            < 2.0f)
 3809              		.loc 10 322 25 view .LVU845
 3810 0094 70EE687A 		vsub.f32	s15, s0, s17
 321:../../libs/libDaisy/src/hid/disp/display.h ****                + (end_y - start_y) * (end_y - start_y)
 3811              		.loc 10 321 9 view .LVU846
 3812 0098 F0EE006A 		vmov.f32	s13, #2.0e+0
 321:../../libs/libDaisy/src/hid/disp/display.h ****                + (end_y - start_y) * (end_y - start_y)
 3813              		.loc 10 321 19 view .LVU847
 3814 009c 39EE487A 		vsub.f32	s14, s18, s16
 322:../../libs/libDaisy/src/hid/disp/display.h ****            < 2.0f)
 3815              		.loc 10 322 36 view .LVU848
 3816 00a0 67EEA77A 		vmul.f32	s15, s15, s15
 322:../../libs/libDaisy/src/hid/disp/display.h ****            < 2.0f)
 3817              		.loc 10 322 16 view .LVU849
 3818 00a4 E7EE077A 		vfma.f32	s15, s14, s14
 321:../../libs/libDaisy/src/hid/disp/display.h ****                + (end_y - start_y) * (end_y - start_y)
 3819              		.loc 10 321 9 view .LVU850
 3820 00a8 F4EEE67A 		vcmpe.f32	s15, s13
 3821 00ac F1EE10FA 		vmrs	APSR_nzcv, FPSCR
 3822 00b0 06D5     		bpl	.L299
 325:../../libs/libDaisy/src/hid/disp/display.h ****                 circle = true;
 3823              		.loc 10 325 13 view .LVU851
 3824 00b2 139B     		ldr	r3, [sp, #76]
 3825 00b4 B42B     		cmp	r3, #180
 3826 00b6 40F39680 		ble	.L240
 326:../../libs/libDaisy/src/hid/disp/display.h ****             else
 3827              		.loc 10 326 24 view .LVU852
 3828 00ba 4FF00109 		mov	r9, #1
 3829 00be 01E0     		b	.L243
 3830              	.L299:
ARM GAS  C:\Users\matte\AppData\Local\Temp\ccvehO0v.s 			page 120


 304:../../libs/libDaisy/src/hid/disp/display.h **** 
 3831              		.loc 10 304 14 view .LVU853
 3832 00c0 4FF00009 		mov	r9, #0
 3833              	.L243:
 3834              	.LVL262:
 302:../../libs/libDaisy/src/hid/disp/display.h **** 
 3835              		.loc 10 302 27 view .LVU854
 3836 00c4 0124     		movs	r4, #1
 332:../../libs/libDaisy/src/hid/disp/display.h ****         t_y = 0;
 3837              		.loc 10 332 13 view .LVU855
 3838 00c6 7842     		rsbs	r0, r7, #0
 3839              	.LVL263:
 333:../../libs/libDaisy/src/hid/disp/display.h ****         err = 2 - 2 * radius;
 3840              		.loc 10 333 13 view .LVU856
 3841 00c8 4FF0000C 		mov	ip, #0
 3842 00cc 0095     		str	r5, [sp]
 334:../../libs/libDaisy/src/hid/disp/display.h **** 
 3843              		.loc 10 334 17 view .LVU857
 3844 00ce E31B     		subs	r3, r4, r7
 302:../../libs/libDaisy/src/hid/disp/display.h **** 
 3845              		.loc 10 302 17 view .LVU858
 3846 00d0 2146     		mov	r1, r4
 302:../../libs/libDaisy/src/hid/disp/display.h **** 
 3847              		.loc 10 302 22 view .LVU859
 3848 00d2 2746     		mov	r7, r4
 3849              	.LVL264:
 302:../../libs/libDaisy/src/hid/disp/display.h **** 
 3850              		.loc 10 302 12 view .LVU860
 3851 00d4 2246     		mov	r2, r4
 334:../../libs/libDaisy/src/hid/disp/display.h **** 
 3852              		.loc 10 334 17 view .LVU861
 3853 00d6 A340     		lsls	r3, r3, r4
 3854              	.LVL265:
 3855              	.L269:
 338:../../libs/libDaisy/src/hid/disp/display.h ****             {
 3856              		.loc 10 338 13 view .LVU862
 3857 00d8 B9F1000F 		cmp	r9, #0
 3858 00dc 6AD1     		bne	.L245
 343:../../libs/libDaisy/src/hid/disp/display.h ****                 t_exy  = end_x * t_y;
 3859              		.loc 10 343 34 view .LVU863
 3860 00de 4242     		rsbs	r2, r0, #0
 3861              	.LVL266:
 340:../../libs/libDaisy/src/hid/disp/display.h ****                 t_syx  = start_y * t_x;
 3862              		.loc 10 340 24 view .LVU864
 3863 00e0 06EE90CA 		vmov	s13, ip	@ int
 342:../../libs/libDaisy/src/hid/disp/display.h ****                 t_synx = start_y * -t_x;
 3864              		.loc 10 342 34 view .LVU865
 3865 00e4 CCF10001 		rsb	r1, ip, #0
 3866              	.LVL267:
 343:../../libs/libDaisy/src/hid/disp/display.h ****                 t_exy  = end_x * t_y;
 3867              		.loc 10 343 34 view .LVU866
 3868 00e8 07EE102A 		vmov	s14, r2	@ int
 340:../../libs/libDaisy/src/hid/disp/display.h ****                 t_syx  = start_y * t_x;
 3869              		.loc 10 340 24 view .LVU867
 3870 00ec B8EEE66A 		vcvt.f32.s32	s12, s13
 342:../../libs/libDaisy/src/hid/disp/display.h ****                 t_synx = start_y * -t_x;
 3871              		.loc 10 342 34 view .LVU868
ARM GAS  C:\Users\matte\AppData\Local\Temp\ccvehO0v.s 			page 121


 3872 00f0 07EE901A 		vmov	s15, r1	@ int
 341:../../libs/libDaisy/src/hid/disp/display.h ****                 t_sxny = start_x * -t_y;
 3873              		.loc 10 341 24 view .LVU869
 3874 00f4 06EE900A 		vmov	s13, r0	@ int
 343:../../libs/libDaisy/src/hid/disp/display.h ****                 t_exy  = end_x * t_y;
 3875              		.loc 10 343 34 view .LVU870
 3876 00f8 B8EEC77A 		vcvt.f32.s32	s14, s14
 349:../../libs/libDaisy/src/hid/disp/display.h ****                 {
 3877              		.loc 10 349 17 view .LVU871
 3878 00fc 139A     		ldr	r2, [sp, #76]
 340:../../libs/libDaisy/src/hid/disp/display.h ****                 t_syx  = start_y * t_x;
 3879              		.loc 10 340 24 view .LVU872
 3880 00fe 66EE084A 		vmul.f32	s9, s12, s16
 3881              	.LVL268:
 342:../../libs/libDaisy/src/hid/disp/display.h ****                 t_synx = start_y * -t_x;
 3882              		.loc 10 342 34 view .LVU873
 3883 0102 F8EEE77A 		vcvt.f32.s32	s15, s15
 349:../../libs/libDaisy/src/hid/disp/display.h ****                 {
 3884              		.loc 10 349 17 view .LVU874
 3885 0106 B42A     		cmp	r2, #180
 343:../../libs/libDaisy/src/hid/disp/display.h ****                 t_exy  = end_x * t_y;
 3886              		.loc 10 343 24 view .LVU875
 3887 0108 27EE284A 		vmul.f32	s8, s14, s17
 341:../../libs/libDaisy/src/hid/disp/display.h ****                 t_sxny = start_x * -t_y;
 3888              		.loc 10 341 24 view .LVU876
 3889 010c F8EEE66A 		vcvt.f32.s32	s13, s13
 342:../../libs/libDaisy/src/hid/disp/display.h ****                 t_synx = start_y * -t_x;
 3890              		.loc 10 342 24 view .LVU877
 3891 0110 67EE885A 		vmul.f32	s11, s15, s16
 351:../../libs/libDaisy/src/hid/disp/display.h ****                     d2 = (t_sxy - t_syx < 0 || t_exy - t_eyx > 0);
 3892              		.loc 10 351 33 view .LVU878
 3893 0114 74EEC43A 		vsub.f32	s7, s9, s8
 341:../../libs/libDaisy/src/hid/disp/display.h ****                 t_sxny = start_x * -t_y;
 3894              		.loc 10 341 24 view .LVU879
 3895 0118 26EEA85A 		vmul.f32	s10, s13, s17
 3896              	.LVL269:
 344:../../libs/libDaisy/src/hid/disp/display.h ****                 t_eyx  = end_y * t_x;
 3897              		.loc 10 344 24 view .LVU880
 3898 011c 26EE096A 		vmul.f32	s12, s12, s18
 3899              	.LVL270:
 345:../../libs/libDaisy/src/hid/disp/display.h ****                 t_exny = end_x * -t_y;
 3900              		.loc 10 345 24 view .LVU881
 3901 0120 66EE806A 		vmul.f32	s13, s13, s0
 3902              	.LVL271:
 346:../../libs/libDaisy/src/hid/disp/display.h ****                 t_eynx = end_y * -t_x;
 3903              		.loc 10 346 24 view .LVU882
 3904 0124 67EE897A 		vmul.f32	s15, s15, s18
 3905              	.LVL272:
 347:../../libs/libDaisy/src/hid/disp/display.h **** 
 3906              		.loc 10 347 24 view .LVU883
 3907 0128 27EE007A 		vmul.f32	s14, s14, s0
 3908              	.LVL273:
 351:../../libs/libDaisy/src/hid/disp/display.h ****                     d2 = (t_sxy - t_syx < 0 || t_exy - t_eyx > 0);
 3909              		.loc 10 351 46 view .LVU884
 3910 012c F5EEC03A 		vcmpe.f32	s7, #0
 349:../../libs/libDaisy/src/hid/disp/display.h ****                 {
 3911              		.loc 10 349 17 view .LVU885
ARM GAS  C:\Users\matte\AppData\Local\Temp\ccvehO0v.s 			page 122


 3912 0130 40F3F280 		ble	.L246
 351:../../libs/libDaisy/src/hid/disp/display.h ****                     d2 = (t_sxy - t_syx < 0 || t_exy - t_eyx > 0);
 3913              		.loc 10 351 46 view .LVU886
 3914 0134 F1EE10FA 		vmrs	APSR_nzcv, FPSCR
 3915 0138 00F17F81 		bmi	.L272
 351:../../libs/libDaisy/src/hid/disp/display.h ****                     d2 = (t_sxy - t_syx < 0 || t_exy - t_eyx > 0);
 3916              		.loc 10 351 55 discriminator 2 view .LVU887
 3917 013c 76EE473A 		vsub.f32	s7, s12, s14
 352:../../libs/libDaisy/src/hid/disp/display.h ****                     d3 = (t_sxny - t_syx < 0 || t_exny - t_eyx > 0);
 3918              		.loc 10 352 33 discriminator 2 view .LVU888
 3919 0140 74EEC54A 		vsub.f32	s9, s9, s10
 3920              	.LVL274:
 351:../../libs/libDaisy/src/hid/disp/display.h ****                     d2 = (t_sxy - t_syx < 0 || t_exy - t_eyx > 0);
 3921              		.loc 10 351 46 discriminator 2 view .LVU889
 3922 0144 F5EEC03A 		vcmpe.f32	s7, #0
 3923 0148 F1EE10FA 		vmrs	APSR_nzcv, FPSCR
 352:../../libs/libDaisy/src/hid/disp/display.h ****                     d3 = (t_sxny - t_syx < 0 || t_exny - t_eyx > 0);
 3924              		.loc 10 352 45 discriminator 2 view .LVU890
 3925 014c F5EEC04A 		vcmpe.f32	s9, #0
 351:../../libs/libDaisy/src/hid/disp/display.h ****                     d2 = (t_sxy - t_syx < 0 || t_exy - t_eyx > 0);
 3926              		.loc 10 351 46 discriminator 2 view .LVU891
 3927 0150 CCBF     		ite	gt
 3928 0152 0122     		movgt	r2, #1
 3929 0154 0022     		movle	r2, #0
 3930              	.LVL275:
 352:../../libs/libDaisy/src/hid/disp/display.h ****                     d3 = (t_sxny - t_syx < 0 || t_exny - t_eyx > 0);
 3931              		.loc 10 352 45 discriminator 2 view .LVU892
 3932 0156 F1EE10FA 		vmrs	APSR_nzcv, FPSCR
 3933 015a 00F17781 		bmi	.L273
 3934              	.L315:
 352:../../libs/libDaisy/src/hid/disp/display.h ****                     d3 = (t_sxny - t_syx < 0 || t_exny - t_eyx > 0);
 3935              		.loc 10 352 54 discriminator 2 view .LVU893
 3936 015e 36EE666A 		vsub.f32	s12, s12, s13
 3937              	.LVL276:
 353:../../libs/libDaisy/src/hid/disp/display.h ****                     d4 = (t_sxny - t_synx < 0 || t_exny - t_eynx > 0);
 3938              		.loc 10 353 34 discriminator 2 view .LVU894
 3939 0162 35EEC55A 		vsub.f32	s10, s11, s10
 3940              	.LVL277:
 352:../../libs/libDaisy/src/hid/disp/display.h ****                     d3 = (t_sxny - t_syx < 0 || t_exny - t_eyx > 0);
 3941              		.loc 10 352 45 discriminator 2 view .LVU895
 3942 0166 B5EEC06A 		vcmpe.f32	s12, #0
 3943 016a F1EE10FA 		vmrs	APSR_nzcv, FPSCR
 353:../../libs/libDaisy/src/hid/disp/display.h ****                     d4 = (t_sxny - t_synx < 0 || t_exny - t_eynx > 0);
 3944              		.loc 10 353 46 discriminator 2 view .LVU896
 3945 016e B5EEC05A 		vcmpe.f32	s10, #0
 352:../../libs/libDaisy/src/hid/disp/display.h ****                     d3 = (t_sxny - t_syx < 0 || t_exny - t_eyx > 0);
 3946              		.loc 10 352 45 discriminator 2 view .LVU897
 3947 0172 CCBF     		ite	gt
 3948 0174 0121     		movgt	r1, #1
 3949 0176 0021     		movle	r1, #0
 3950              	.LVL278:
 353:../../libs/libDaisy/src/hid/disp/display.h ****                     d4 = (t_sxny - t_synx < 0 || t_exny - t_eynx > 0);
 3951              		.loc 10 353 46 discriminator 2 view .LVU898
 3952 0178 F1EE10FA 		vmrs	APSR_nzcv, FPSCR
 3953 017c 00F16F81 		bmi	.L274
 3954              	.L316:
 353:../../libs/libDaisy/src/hid/disp/display.h ****                     d4 = (t_sxny - t_synx < 0 || t_exny - t_eynx > 0);
ARM GAS  C:\Users\matte\AppData\Local\Temp\ccvehO0v.s 			page 123


 3955              		.loc 10 353 56 discriminator 2 view .LVU899
 3956 0180 77EEE66A 		vsub.f32	s13, s15, s13
 3957              	.LVL279:
 353:../../libs/libDaisy/src/hid/disp/display.h ****                     d4 = (t_sxny - t_synx < 0 || t_exny - t_eynx > 0);
 3958              		.loc 10 353 46 discriminator 2 view .LVU900
 3959 0184 F5EEC06A 		vcmpe.f32	s13, #0
 3960 0188 F1EE10FA 		vmrs	APSR_nzcv, FPSCR
 3961 018c CCBF     		ite	gt
 3962 018e 0127     		movgt	r7, #1
 3963              	.LVL280:
 353:../../libs/libDaisy/src/hid/disp/display.h ****                     d4 = (t_sxny - t_synx < 0 || t_exny - t_eynx > 0);
 3964              		.loc 10 353 46 discriminator 2 view .LVU901
 3965 0190 0027     		movle	r7, #0
 3966              	.L249:
 3967              	.LVL281:
 354:../../libs/libDaisy/src/hid/disp/display.h ****                 }
 3968              		.loc 10 354 34 discriminator 6 view .LVU902
 3969 0192 75EEC45A 		vsub.f32	s11, s11, s8
 3970              	.LVL282:
 354:../../libs/libDaisy/src/hid/disp/display.h ****                 }
 3971              		.loc 10 354 47 discriminator 6 view .LVU903
 3972 0196 F5EEC05A 		vcmpe.f32	s11, #0
 3973 019a F1EE10FA 		vmrs	APSR_nzcv, FPSCR
 3974 019e 00F14781 		bmi	.L275
 3975              	.L305:
 361:../../libs/libDaisy/src/hid/disp/display.h ****                 }
 3976              		.loc 10 361 57 discriminator 1 view .LVU904
 3977 01a2 77EEC77A 		vsub.f32	s15, s15, s14
 3978              	.LVL283:
 361:../../libs/libDaisy/src/hid/disp/display.h ****                 }
 3979              		.loc 10 361 47 discriminator 1 view .LVU905
 3980 01a6 F5EEC07A 		vcmpe.f32	s15, #0
 3981 01aa F1EE10FA 		vmrs	APSR_nzcv, FPSCR
 3982 01ae CCBF     		ite	gt
 3983 01b0 0124     		movgt	r4, #1
 3984              	.LVL284:
 361:../../libs/libDaisy/src/hid/disp/display.h ****                 }
 3985              		.loc 10 361 47 discriminator 1 view .LVU906
 3986 01b2 0024     		movle	r4, #0
 3987              	.LVL285:
 3988              	.L245:
 365:../../libs/libDaisy/src/hid/disp/display.h ****                 ((ChildType*)(this))
 3989              		.loc 10 365 13 view .LVU907
 3990 01b4 002A     		cmp	r2, #0
 3991 01b6 40F08A80 		bne	.L306
 3992              	.L257:
 368:../../libs/libDaisy/src/hid/disp/display.h ****                 ((ChildType*)(this))
 3993              		.loc 10 368 13 view .LVU908
 3994 01ba 0029     		cmp	r1, #0
 3995 01bc 64D1     		bne	.L307
 3996              	.L259:
 371:../../libs/libDaisy/src/hid/disp/display.h ****                 ((ChildType*)(this))
 3997              		.loc 10 371 13 view .LVU909
 3998 01be BFB9     		cbnz	r7, .L308
 3999              	.L261:
 374:../../libs/libDaisy/src/hid/disp/display.h ****                 ((ChildType*)(this))
 4000              		.loc 10 374 13 view .LVU910
ARM GAS  C:\Users\matte\AppData\Local\Temp\ccvehO0v.s 			page 124


 4001 01c0 C4BB     		cbnz	r4, .L309
 4002              	.L263:
 4003              	.LVL286:
 379:../../libs/libDaisy/src/hid/disp/display.h ****             {
 4004              		.loc 10 379 13 view .LVU911
 4005 01c2 9C45     		cmp	ip, r3
 4006 01c4 58DB     		blt	.L280
 4007              	.L311:
 381:../../libs/libDaisy/src/hid/disp/display.h ****                 err = err + (t_y * 2 + 1);
 4008              		.loc 10 381 17 view .LVU912
 4009 01c6 0CF1010C 		add	ip, ip, #1
 4010              	.LVL287:
 382:../../libs/libDaisy/src/hid/disp/display.h ****                 if(-t_x == t_y && e2 <= t_x)
 4011              		.loc 10 382 38 view .LVU913
 4012 01ca 03EB4C0E 		add	lr, r3, ip, lsl #1
 383:../../libs/libDaisy/src/hid/disp/display.h ****                 {
 4013              		.loc 10 383 17 view .LVU914
 4014 01ce 1CEB000F 		cmn	ip, r0
 382:../../libs/libDaisy/src/hid/disp/display.h ****                 if(-t_x == t_y && e2 <= t_x)
 4015              		.loc 10 382 21 view .LVU915
 4016 01d2 0EF1010E 		add	lr, lr, #1
 4017              	.LVL288:
 383:../../libs/libDaisy/src/hid/disp/display.h ****                 {
 4018              		.loc 10 383 17 view .LVU916
 4019 01d6 00F0C080 		beq	.L310
 4020              	.LVL289:
 4021              	.L265:
 388:../../libs/libDaisy/src/hid/disp/display.h ****             {
 4022              		.loc 10 388 13 view .LVU917
 4023 01da 9842     		cmp	r0, r3
 4024 01dc 4FDB     		blt	.L266
 4025              	.L281:
 388:../../libs/libDaisy/src/hid/disp/display.h ****             {
 4026              		.loc 10 388 13 view .LVU918
 4027 01de 7346     		mov	r3, lr
 4028              	.LVL290:
 4029              	.L267:
 393:../../libs/libDaisy/src/hid/disp/display.h ****     }
 4030              		.loc 10 393 21 is_stmt 1 view .LVU919
 4031 01e0 0028     		cmp	r0, #0
 4032 01e2 7FF779AF 		ble	.L269
 4033              	.LVL291:
 4034              	.L240:
 394:../../libs/libDaisy/src/hid/disp/display.h **** 
 4035              		.loc 10 394 5 is_stmt 0 view .LVU920
 4036 01e6 03B0     		add	sp, sp, #12
 4037              		.cfi_remember_state
 4038              		.cfi_def_cfa_offset 60
 4039              		@ sp needed
 4040 01e8 BDEC068B 		vldm	sp!, {d8-d10}
 4041              		.cfi_restore 84
 4042              		.cfi_restore 85
 4043              		.cfi_restore 82
 4044              		.cfi_restore 83
 4045              		.cfi_restore 80
 4046              		.cfi_restore 81
 4047              		.cfi_def_cfa_offset 36
ARM GAS  C:\Users\matte\AppData\Local\Temp\ccvehO0v.s 			page 125


 4048              	.LVL292:
 394:../../libs/libDaisy/src/hid/disp/display.h **** 
 4049              		.loc 10 394 5 view .LVU921
 4050 01ec BDE8F08F 		pop	{r4, r5, r6, r7, r8, r9, r10, fp, pc}
 4051              	.LVL293:
 4052              	.L308:
 4053              		.cfi_restore_state
 373:../../libs/libDaisy/src/hid/disp/display.h ****             if(d4)
 4054              		.loc 10 373 43 view .LVU922
 4055 01f0 009D     		ldr	r5, [sp]
 4056 01f2 A6EB0C0E 		sub	lr, r6, ip
 4057 01f6 00EB050A 		add	r10, r0, r5
 4058              	.LVL294:
 4059              	.LBB1387:
 4060              	.LBI1387:
  42:../../libs/libDaisy/src/hid/disp/oled_display.h ****     {
 4061              		.loc 9 42 10 is_stmt 1 view .LVU923
 4062              	.LBB1388:
 4063              	.LBI1388:
 340:../../libs/libDaisy/src/sys/../../../../libs/libDaisy/src/dev/oled_ssd130x.h ****     {
 4064              		.loc 11 340 10 view .LVU924
 4065              	.LBB1389:
 342:../../libs/libDaisy/src/sys/../../../../libs/libDaisy/src/dev/oled_ssd130x.h ****             return;
 4066              		.loc 11 342 9 is_stmt 0 view .LVU925
 4067 01fa BAF17F0F 		cmp	r10, #127
 4068 01fe DFD8     		bhi	.L261
 4069 0200 BEF13F0F 		cmp	lr, #63
 4070 0204 DCD8     		bhi	.L261
 345:../../libs/libDaisy/src/sys/../../../../libs/libDaisy/src/dev/oled_ssd130x.h ****         else
 4071              		.loc 11 345 28 view .LVU926
 4072 0206 4FEADE0B 		lsr	fp, lr, #3
 344:../../libs/libDaisy/src/sys/../../../../libs/libDaisy/src/dev/oled_ssd130x.h ****             buffer_[x + (y / 8) * width] |= (1 << (y % 8));
 4073              		.loc 11 344 9 view .LVU927
 4074 020a 019D     		ldr	r5, [sp, #4]
 345:../../libs/libDaisy/src/sys/../../../../libs/libDaisy/src/dev/oled_ssd130x.h ****         else
 4075              		.loc 11 345 42 view .LVU928
 4076 020c 0AEBCB1A 		add	r10, r10, fp, lsl #7
 4077              	.LVL295:
 344:../../libs/libDaisy/src/sys/../../../../libs/libDaisy/src/dev/oled_ssd130x.h ****             buffer_[x + (y / 8) * width] |= (1 << (y % 8));
 4078              		.loc 11 344 9 view .LVU929
 4079 0210 002D     		cmp	r5, #0
 4080 0212 00F0B180 		beq	.L262
 345:../../libs/libDaisy/src/sys/../../../../libs/libDaisy/src/dev/oled_ssd130x.h ****         else
 4081              		.loc 11 345 54 view .LVU930
 4082 0216 0EF0070B 		and	fp, lr, #7
 345:../../libs/libDaisy/src/sys/../../../../libs/libDaisy/src/dev/oled_ssd130x.h ****         else
 4083              		.loc 11 345 42 view .LVU931
 4084 021a C244     		add	r10, r10, r8
 345:../../libs/libDaisy/src/sys/../../../../libs/libDaisy/src/dev/oled_ssd130x.h ****         else
 4085              		.loc 11 345 48 view .LVU932
 4086 021c 4FF0010E 		mov	lr, #1
 4087              	.LVL296:
 345:../../libs/libDaisy/src/sys/../../../../libs/libDaisy/src/dev/oled_ssd130x.h ****         else
 4088              		.loc 11 345 48 view .LVU933
 4089 0220 0EFA0BFE 		lsl	lr, lr, fp
 345:../../libs/libDaisy/src/sys/../../../../libs/libDaisy/src/dev/oled_ssd130x.h ****         else
 4090              		.loc 11 345 42 view .LVU934
ARM GAS  C:\Users\matte\AppData\Local\Temp\ccvehO0v.s 			page 126


 4091 0224 9AF810B0 		ldrb	fp, [r10, #16]	@ zero_extendqisi2
 4092 0228 4EEA0B0E 		orr	lr, lr, fp
 4093 022c 8AF810E0 		strb	lr, [r10, #16]
 4094              	.LVL297:
 345:../../libs/libDaisy/src/sys/../../../../libs/libDaisy/src/dev/oled_ssd130x.h ****         else
 4095              		.loc 11 345 42 view .LVU935
 4096              	.LBE1389:
 4097              	.LBE1388:
 4098              	.LBE1387:
 374:../../libs/libDaisy/src/hid/disp/display.h ****                 ((ChildType*)(this))
 4099              		.loc 10 374 13 view .LVU936
 4100 0230 002C     		cmp	r4, #0
 4101 0232 C6D0     		beq	.L263
 4102              	.L309:
 376:../../libs/libDaisy/src/hid/disp/display.h **** 
 4103              		.loc 10 376 43 view .LVU937
 4104 0234 009D     		ldr	r5, [sp]
 4105 0236 A6EB0C0E 		sub	lr, r6, ip
 4106 023a A5EB000A 		sub	r10, r5, r0
 4107              	.LVL298:
 4108              	.LBB1394:
 4109              	.LBI1394:
  42:../../libs/libDaisy/src/hid/disp/oled_display.h ****     {
 4110              		.loc 9 42 10 is_stmt 1 view .LVU938
 4111              	.LBB1395:
 4112              	.LBI1395:
 340:../../libs/libDaisy/src/sys/../../../../libs/libDaisy/src/dev/oled_ssd130x.h ****     {
 4113              		.loc 11 340 10 view .LVU939
 4114              	.LBB1396:
 342:../../libs/libDaisy/src/sys/../../../../libs/libDaisy/src/dev/oled_ssd130x.h ****             return;
 4115              		.loc 11 342 9 is_stmt 0 view .LVU940
 4116 023e BAF17F0F 		cmp	r10, #127
 4117 0242 BED8     		bhi	.L263
 4118 0244 BEF13F0F 		cmp	lr, #63
 4119 0248 BBD8     		bhi	.L263
 345:../../libs/libDaisy/src/sys/../../../../libs/libDaisy/src/dev/oled_ssd130x.h ****         else
 4120              		.loc 11 345 28 view .LVU941
 4121 024a 4FEADE0B 		lsr	fp, lr, #3
 344:../../libs/libDaisy/src/sys/../../../../libs/libDaisy/src/dev/oled_ssd130x.h ****             buffer_[x + (y / 8) * width] |= (1 << (y % 8));
 4122              		.loc 11 344 9 view .LVU942
 4123 024e 019D     		ldr	r5, [sp, #4]
 345:../../libs/libDaisy/src/sys/../../../../libs/libDaisy/src/dev/oled_ssd130x.h ****         else
 4124              		.loc 11 345 42 view .LVU943
 4125 0250 0AEBCB1A 		add	r10, r10, fp, lsl #7
 4126              	.LVL299:
 344:../../libs/libDaisy/src/sys/../../../../libs/libDaisy/src/dev/oled_ssd130x.h ****             buffer_[x + (y / 8) * width] |= (1 << (y % 8));
 4127              		.loc 11 344 9 view .LVU944
 4128 0254 002D     		cmp	r5, #0
 4129 0256 00F0AE80 		beq	.L264
 345:../../libs/libDaisy/src/sys/../../../../libs/libDaisy/src/dev/oled_ssd130x.h ****         else
 4130              		.loc 11 345 54 view .LVU945
 4131 025a 0EF0070B 		and	fp, lr, #7
 345:../../libs/libDaisy/src/sys/../../../../libs/libDaisy/src/dev/oled_ssd130x.h ****         else
 4132              		.loc 11 345 42 view .LVU946
 4133 025e C244     		add	r10, r10, r8
 345:../../libs/libDaisy/src/sys/../../../../libs/libDaisy/src/dev/oled_ssd130x.h ****         else
 4134              		.loc 11 345 48 view .LVU947
ARM GAS  C:\Users\matte\AppData\Local\Temp\ccvehO0v.s 			page 127


 4135 0260 4FF0010E 		mov	lr, #1
 4136              	.LVL300:
 345:../../libs/libDaisy/src/sys/../../../../libs/libDaisy/src/dev/oled_ssd130x.h ****         else
 4137              		.loc 11 345 48 view .LVU948
 4138              	.LBE1396:
 4139              	.LBE1395:
 4140              	.LBE1394:
 379:../../libs/libDaisy/src/hid/disp/display.h ****             {
 4141              		.loc 10 379 13 view .LVU949
 4142 0264 9C45     		cmp	ip, r3
 4143              	.LBB1403:
 4144              	.LBB1401:
 4145              	.LBB1399:
 345:../../libs/libDaisy/src/sys/../../../../libs/libDaisy/src/dev/oled_ssd130x.h ****         else
 4146              		.loc 11 345 48 view .LVU950
 4147 0266 0EFA0BFE 		lsl	lr, lr, fp
 345:../../libs/libDaisy/src/sys/../../../../libs/libDaisy/src/dev/oled_ssd130x.h ****         else
 4148              		.loc 11 345 42 view .LVU951
 4149 026a 9AF810B0 		ldrb	fp, [r10, #16]	@ zero_extendqisi2
 4150 026e 4EEA0B0E 		orr	lr, lr, fp
 4151 0272 8AF810E0 		strb	lr, [r10, #16]
 4152              	.LVL301:
 345:../../libs/libDaisy/src/sys/../../../../libs/libDaisy/src/dev/oled_ssd130x.h ****         else
 4153              		.loc 11 345 42 view .LVU952
 4154              	.LBE1399:
 4155              	.LBE1401:
 4156              	.LBE1403:
 379:../../libs/libDaisy/src/hid/disp/display.h ****             {
 4157              		.loc 10 379 13 view .LVU953
 4158 0276 A6DA     		bge	.L311
 4159              	.L280:
 388:../../libs/libDaisy/src/hid/disp/display.h ****             {
 4160              		.loc 10 388 13 view .LVU954
 4161 0278 9842     		cmp	r0, r3
 4162 027a 9E46     		mov	lr, r3
 4163              	.LVL302:
 388:../../libs/libDaisy/src/hid/disp/display.h ****             {
 4164              		.loc 10 388 13 view .LVU955
 4165 027c AFDA     		bge	.L281
 4166              	.LVL303:
 4167              	.L266:
 390:../../libs/libDaisy/src/hid/disp/display.h ****                 err = err + (t_x * 2 + 1);
 4168              		.loc 10 390 17 view .LVU956
 4169 027e 0130     		adds	r0, r0, #1
 4170              	.LVL304:
 391:../../libs/libDaisy/src/hid/disp/display.h ****             }
 4171              		.loc 10 391 38 view .LVU957
 4172 0280 0EEB4003 		add	r3, lr, r0, lsl #1
 391:../../libs/libDaisy/src/hid/disp/display.h ****             }
 4173              		.loc 10 391 21 view .LVU958
 4174 0284 0133     		adds	r3, r3, #1
 4175              	.LVL305:
 391:../../libs/libDaisy/src/hid/disp/display.h ****             }
 4176              		.loc 10 391 21 view .LVU959
 4177 0286 ABE7     		b	.L267
 4178              	.L307:
 370:../../libs/libDaisy/src/hid/disp/display.h ****             if(d3)
ARM GAS  C:\Users\matte\AppData\Local\Temp\ccvehO0v.s 			page 128


 4179              		.loc 10 370 43 view .LVU960
 4180 0288 009D     		ldr	r5, [sp]
 4181 028a 0CEB060E 		add	lr, ip, r6
 4182 028e 00EB050A 		add	r10, r0, r5
 4183              	.LVL306:
 4184              	.LBB1404:
 4185              	.LBI1404:
  42:../../libs/libDaisy/src/hid/disp/oled_display.h ****     {
 4186              		.loc 9 42 10 is_stmt 1 view .LVU961
 4187              	.LBB1405:
 4188              	.LBI1405:
 340:../../libs/libDaisy/src/sys/../../../../libs/libDaisy/src/dev/oled_ssd130x.h ****     {
 4189              		.loc 11 340 10 view .LVU962
 4190              	.LBB1406:
 342:../../libs/libDaisy/src/sys/../../../../libs/libDaisy/src/dev/oled_ssd130x.h ****             return;
 4191              		.loc 11 342 9 is_stmt 0 view .LVU963
 4192 0292 BAF17F0F 		cmp	r10, #127
 4193 0296 92D8     		bhi	.L259
 4194 0298 BEF13F0F 		cmp	lr, #63
 4195 029c 8FD8     		bhi	.L259
 345:../../libs/libDaisy/src/sys/../../../../libs/libDaisy/src/dev/oled_ssd130x.h ****         else
 4196              		.loc 11 345 28 view .LVU964
 4197 029e 4FEADE0B 		lsr	fp, lr, #3
 344:../../libs/libDaisy/src/sys/../../../../libs/libDaisy/src/dev/oled_ssd130x.h ****             buffer_[x + (y / 8) * width] |= (1 << (y % 8));
 4198              		.loc 11 344 9 view .LVU965
 4199 02a2 019D     		ldr	r5, [sp, #4]
 345:../../libs/libDaisy/src/sys/../../../../libs/libDaisy/src/dev/oled_ssd130x.h ****         else
 4200              		.loc 11 345 42 view .LVU966
 4201 02a4 0AEBCB1A 		add	r10, r10, fp, lsl #7
 4202              	.LVL307:
 344:../../libs/libDaisy/src/sys/../../../../libs/libDaisy/src/dev/oled_ssd130x.h ****             buffer_[x + (y / 8) * width] |= (1 << (y % 8));
 4203              		.loc 11 344 9 view .LVU967
 4204 02a8 002D     		cmp	r5, #0
 4205 02aa 73D0     		beq	.L260
 345:../../libs/libDaisy/src/sys/../../../../libs/libDaisy/src/dev/oled_ssd130x.h ****         else
 4206              		.loc 11 345 54 view .LVU968
 4207 02ac 0EF0070B 		and	fp, lr, #7
 345:../../libs/libDaisy/src/sys/../../../../libs/libDaisy/src/dev/oled_ssd130x.h ****         else
 4208              		.loc 11 345 42 view .LVU969
 4209 02b0 C244     		add	r10, r10, r8
 345:../../libs/libDaisy/src/sys/../../../../libs/libDaisy/src/dev/oled_ssd130x.h ****         else
 4210              		.loc 11 345 48 view .LVU970
 4211 02b2 4FF0010E 		mov	lr, #1
 4212              	.LVL308:
 345:../../libs/libDaisy/src/sys/../../../../libs/libDaisy/src/dev/oled_ssd130x.h ****         else
 4213              		.loc 11 345 48 view .LVU971
 4214 02b6 0EFA0BFE 		lsl	lr, lr, fp
 345:../../libs/libDaisy/src/sys/../../../../libs/libDaisy/src/dev/oled_ssd130x.h ****         else
 4215              		.loc 11 345 42 view .LVU972
 4216 02ba 9AF810B0 		ldrb	fp, [r10, #16]	@ zero_extendqisi2
 4217 02be 4EEA0B0E 		orr	lr, lr, fp
 4218 02c2 8AF810E0 		strb	lr, [r10, #16]
 4219              	.LVL309:
 345:../../libs/libDaisy/src/sys/../../../../libs/libDaisy/src/dev/oled_ssd130x.h ****         else
 4220              		.loc 11 345 42 view .LVU973
 4221              	.LBE1406:
 4222              	.LBE1405:
ARM GAS  C:\Users\matte\AppData\Local\Temp\ccvehO0v.s 			page 129


 4223              	.LBE1404:
 371:../../libs/libDaisy/src/hid/disp/display.h ****                 ((ChildType*)(this))
 4224              		.loc 10 371 13 view .LVU974
 4225 02c6 002F     		cmp	r7, #0
 4226 02c8 3FF47AAF 		beq	.L261
 4227 02cc 90E7     		b	.L308
 4228              	.L306:
 367:../../libs/libDaisy/src/hid/disp/display.h ****             if(d2)
 4229              		.loc 10 367 43 view .LVU975
 4230 02ce 009D     		ldr	r5, [sp]
 4231 02d0 0CEB060E 		add	lr, ip, r6
 4232 02d4 A5EB000A 		sub	r10, r5, r0
 4233              	.LVL310:
 4234              	.LBB1411:
 4235              	.LBI1411:
  42:../../libs/libDaisy/src/hid/disp/oled_display.h ****     {
 4236              		.loc 9 42 10 is_stmt 1 view .LVU976
 4237              	.LBB1412:
 4238              	.LBI1412:
 340:../../libs/libDaisy/src/sys/../../../../libs/libDaisy/src/dev/oled_ssd130x.h ****     {
 4239              		.loc 11 340 10 view .LVU977
 4240              	.LBB1413:
 342:../../libs/libDaisy/src/sys/../../../../libs/libDaisy/src/dev/oled_ssd130x.h ****             return;
 4241              		.loc 11 342 9 is_stmt 0 view .LVU978
 4242 02d8 BAF17F0F 		cmp	r10, #127
 4243 02dc 3FF66DAF 		bhi	.L257
 4244 02e0 BEF13F0F 		cmp	lr, #63
 4245 02e4 3FF669AF 		bhi	.L257
 345:../../libs/libDaisy/src/sys/../../../../libs/libDaisy/src/dev/oled_ssd130x.h ****         else
 4246              		.loc 11 345 28 view .LVU979
 4247 02e8 4FEADE0B 		lsr	fp, lr, #3
 344:../../libs/libDaisy/src/sys/../../../../libs/libDaisy/src/dev/oled_ssd130x.h ****             buffer_[x + (y / 8) * width] |= (1 << (y % 8));
 4248              		.loc 11 344 9 view .LVU980
 4249 02ec 019D     		ldr	r5, [sp, #4]
 345:../../libs/libDaisy/src/sys/../../../../libs/libDaisy/src/dev/oled_ssd130x.h ****         else
 4250              		.loc 11 345 42 view .LVU981
 4251 02ee 0AEBCB1A 		add	r10, r10, fp, lsl #7
 4252              	.LVL311:
 344:../../libs/libDaisy/src/sys/../../../../libs/libDaisy/src/dev/oled_ssd130x.h ****             buffer_[x + (y / 8) * width] |= (1 << (y % 8));
 4253              		.loc 11 344 9 view .LVU982
 4254 02f2 002D     		cmp	r5, #0
 4255 02f4 6DD0     		beq	.L258
 345:../../libs/libDaisy/src/sys/../../../../libs/libDaisy/src/dev/oled_ssd130x.h ****         else
 4256              		.loc 11 345 54 view .LVU983
 4257 02f6 0EF0070B 		and	fp, lr, #7
 345:../../libs/libDaisy/src/sys/../../../../libs/libDaisy/src/dev/oled_ssd130x.h ****         else
 4258              		.loc 11 345 42 view .LVU984
 4259 02fa C244     		add	r10, r10, r8
 345:../../libs/libDaisy/src/sys/../../../../libs/libDaisy/src/dev/oled_ssd130x.h ****         else
 4260              		.loc 11 345 48 view .LVU985
 4261 02fc 4FF0010E 		mov	lr, #1
 4262              	.LVL312:
 345:../../libs/libDaisy/src/sys/../../../../libs/libDaisy/src/dev/oled_ssd130x.h ****         else
 4263              		.loc 11 345 48 view .LVU986
 4264 0300 0EFA0BFE 		lsl	lr, lr, fp
 345:../../libs/libDaisy/src/sys/../../../../libs/libDaisy/src/dev/oled_ssd130x.h ****         else
 4265              		.loc 11 345 42 view .LVU987
ARM GAS  C:\Users\matte\AppData\Local\Temp\ccvehO0v.s 			page 130


 4266 0304 9AF810B0 		ldrb	fp, [r10, #16]	@ zero_extendqisi2
 4267 0308 4EEA0B0E 		orr	lr, lr, fp
 4268 030c 8AF810E0 		strb	lr, [r10, #16]
 4269              	.LVL313:
 345:../../libs/libDaisy/src/sys/../../../../libs/libDaisy/src/dev/oled_ssd130x.h ****         else
 4270              		.loc 11 345 42 view .LVU988
 4271              	.LBE1413:
 4272              	.LBE1412:
 4273              	.LBE1411:
 368:../../libs/libDaisy/src/hid/disp/display.h ****                 ((ChildType*)(this))
 4274              		.loc 10 368 13 view .LVU989
 4275 0310 0029     		cmp	r1, #0
 4276 0312 3FF454AF 		beq	.L259
 4277 0316 B7E7     		b	.L307
 4278              	.LVL314:
 4279              	.L246:
 358:../../libs/libDaisy/src/hid/disp/display.h ****                     d2 = (t_sxy - t_syx < 0 && t_exy - t_eyx > 0);
 4280              		.loc 10 358 46 view .LVU990
 4281 0318 F1EE10FA 		vmrs	APSR_nzcv, FPSCR
 4282 031c 7ED4     		bmi	.L312
 4283 031e 4A46     		mov	r2, r9
 4284              	.L250:
 4285              	.LVL315:
 359:../../libs/libDaisy/src/hid/disp/display.h ****                     d3 = (t_sxny - t_syx < 0 && t_exny - t_eyx > 0);
 4286              		.loc 10 359 33 discriminator 6 view .LVU991
 4287 0320 74EEC54A 		vsub.f32	s9, s9, s10
 4288              	.LVL316:
 359:../../libs/libDaisy/src/hid/disp/display.h ****                     d3 = (t_sxny - t_syx < 0 && t_exny - t_eyx > 0);
 4289              		.loc 10 359 45 discriminator 6 view .LVU992
 4290 0324 F5EEC04A 		vcmpe.f32	s9, #0
 4291 0328 F1EE10FA 		vmrs	APSR_nzcv, FPSCR
 4292 032c 6CD4     		bmi	.L313
 359:../../libs/libDaisy/src/hid/disp/display.h ****                     d3 = (t_sxny - t_syx < 0 && t_exny - t_eyx > 0);
 4293              		.loc 10 359 45 view .LVU993
 4294 032e 0021     		movs	r1, #0
 4295              	.LVL317:
 4296              	.L252:
 360:../../libs/libDaisy/src/hid/disp/display.h ****                     d4 = (t_sxny - t_synx < 0 && t_exny - t_eynx > 0);
 4297              		.loc 10 360 34 discriminator 6 view .LVU994
 4298 0330 35EEC55A 		vsub.f32	s10, s11, s10
 4299              	.LVL318:
 360:../../libs/libDaisy/src/hid/disp/display.h ****                     d4 = (t_sxny - t_synx < 0 && t_exny - t_eynx > 0);
 4300              		.loc 10 360 46 discriminator 6 view .LVU995
 4301 0334 B5EEC05A 		vcmpe.f32	s10, #0
 4302 0338 F1EE10FA 		vmrs	APSR_nzcv, FPSCR
 4303 033c 5AD4     		bmi	.L314
 360:../../libs/libDaisy/src/hid/disp/display.h ****                     d4 = (t_sxny - t_synx < 0 && t_exny - t_eynx > 0);
 4304              		.loc 10 360 46 view .LVU996
 4305 033e 0027     		movs	r7, #0
 4306              	.LVL319:
 4307              	.L254:
 361:../../libs/libDaisy/src/hid/disp/display.h ****                 }
 4308              		.loc 10 361 34 discriminator 6 view .LVU997
 4309 0340 75EEC45A 		vsub.f32	s11, s11, s8
 4310              	.LVL320:
 361:../../libs/libDaisy/src/hid/disp/display.h ****                 }
 4311              		.loc 10 361 47 discriminator 6 view .LVU998
ARM GAS  C:\Users\matte\AppData\Local\Temp\ccvehO0v.s 			page 131


 4312 0344 F5EEC05A 		vcmpe.f32	s11, #0
 4313 0348 F1EE10FA 		vmrs	APSR_nzcv, FPSCR
 4314 034c 3FF529AF 		bmi	.L305
 361:../../libs/libDaisy/src/hid/disp/display.h ****                 }
 4315              		.loc 10 361 47 view .LVU999
 4316 0350 0024     		movs	r4, #0
 4317              	.LVL321:
 365:../../libs/libDaisy/src/hid/disp/display.h ****                 ((ChildType*)(this))
 4318              		.loc 10 365 13 view .LVU1000
 4319 0352 002A     		cmp	r2, #0
 4320 0354 3FF431AF 		beq	.L257
 4321 0358 B9E7     		b	.L306
 4322              	.LVL322:
 4323              	.L310:
 383:../../libs/libDaisy/src/hid/disp/display.h ****                 {
 4324              		.loc 10 383 32 discriminator 1 view .LVU1001
 4325 035a 9842     		cmp	r0, r3
 4326 035c 8FDB     		blt	.L266
 385:../../libs/libDaisy/src/hid/disp/display.h ****                 }
 4327              		.loc 10 385 24 view .LVU1002
 4328 035e 0023     		movs	r3, #0
 4329              	.LVL323:
 385:../../libs/libDaisy/src/hid/disp/display.h ****                 }
 4330              		.loc 10 385 24 view .LVU1003
 4331 0360 3BE7     		b	.L265
 4332              	.L318:
 4333 0362 00BFAFF3 		.align	3
 4333      0080
 4334              	.L317:
 4335 0368 7A008BFC 		.word	-57999238
 4336 036c FA210940 		.word	1074340346
 4337 0370 00000000 		.word	0
 4338 0374 00806640 		.word	1080459264
 4339              	.LVL324:
 4340              	.L262:
 4341              	.LBB1418:
 4342              	.LBB1393:
 4343              	.LBB1392:
 4344              	.LBB1390:
 4345              	.LBI1390:
 340:../../libs/libDaisy/src/sys/../../../../libs/libDaisy/src/dev/oled_ssd130x.h ****     {
 4346              		.loc 11 340 10 is_stmt 1 view .LVU1004
 4347              	.LBB1391:
 347:../../libs/libDaisy/src/sys/../../../../libs/libDaisy/src/dev/oled_ssd130x.h ****     }
 4348              		.loc 11 347 42 is_stmt 0 view .LVU1005
 4349 0378 C244     		add	r10, r10, r8
 4350              	.LVL325:
 347:../../libs/libDaisy/src/sys/../../../../libs/libDaisy/src/dev/oled_ssd130x.h ****     }
 4351              		.loc 11 347 49 view .LVU1006
 4352 037a 4FF0010B 		mov	fp, #1
 4353              	.LVL326:
 347:../../libs/libDaisy/src/sys/../../../../libs/libDaisy/src/dev/oled_ssd130x.h ****     }
 4354              		.loc 11 347 55 view .LVU1007
 4355 037e 0EF0070E 		and	lr, lr, #7
 4356              	.LVL327:
 347:../../libs/libDaisy/src/sys/../../../../libs/libDaisy/src/dev/oled_ssd130x.h ****     }
 4357              		.loc 11 347 49 view .LVU1008
ARM GAS  C:\Users\matte\AppData\Local\Temp\ccvehO0v.s 			page 132


 4358 0382 0BFA0EFE 		lsl	lr, fp, lr
 347:../../libs/libDaisy/src/sys/../../../../libs/libDaisy/src/dev/oled_ssd130x.h ****     }
 4359              		.loc 11 347 42 view .LVU1009
 4360 0386 9AF810B0 		ldrb	fp, [r10, #16]	@ zero_extendqisi2
 4361 038a 2BEA0E0E 		bic	lr, fp, lr
 4362 038e 8AF810E0 		strb	lr, [r10, #16]
 4363              	.LVL328:
 347:../../libs/libDaisy/src/sys/../../../../libs/libDaisy/src/dev/oled_ssd130x.h ****     }
 4364              		.loc 11 347 42 view .LVU1010
 4365 0392 15E7     		b	.L261
 4366              	.LVL329:
 4367              	.L260:
 347:../../libs/libDaisy/src/sys/../../../../libs/libDaisy/src/dev/oled_ssd130x.h ****     }
 4368              		.loc 11 347 42 view .LVU1011
 4369              	.LBE1391:
 4370              	.LBE1390:
 4371              	.LBE1392:
 4372              	.LBE1393:
 4373              	.LBE1418:
 4374              	.LBB1419:
 4375              	.LBB1410:
 4376              	.LBB1409:
 4377              	.LBB1407:
 4378              	.LBI1407:
 340:../../libs/libDaisy/src/sys/../../../../libs/libDaisy/src/dev/oled_ssd130x.h ****     {
 4379              		.loc 11 340 10 is_stmt 1 view .LVU1012
 4380              	.LBB1408:
 347:../../libs/libDaisy/src/sys/../../../../libs/libDaisy/src/dev/oled_ssd130x.h ****     }
 4381              		.loc 11 347 42 is_stmt 0 view .LVU1013
 4382 0394 C244     		add	r10, r10, r8
 4383              	.LVL330:
 347:../../libs/libDaisy/src/sys/../../../../libs/libDaisy/src/dev/oled_ssd130x.h ****     }
 4384              		.loc 11 347 49 view .LVU1014
 4385 0396 4FF0010B 		mov	fp, #1
 4386              	.LVL331:
 347:../../libs/libDaisy/src/sys/../../../../libs/libDaisy/src/dev/oled_ssd130x.h ****     }
 4387              		.loc 11 347 55 view .LVU1015
 4388 039a 0EF0070E 		and	lr, lr, #7
 4389              	.LVL332:
 347:../../libs/libDaisy/src/sys/../../../../libs/libDaisy/src/dev/oled_ssd130x.h ****     }
 4390              		.loc 11 347 49 view .LVU1016
 4391 039e 0BFA0EFE 		lsl	lr, fp, lr
 347:../../libs/libDaisy/src/sys/../../../../libs/libDaisy/src/dev/oled_ssd130x.h ****     }
 4392              		.loc 11 347 42 view .LVU1017
 4393 03a2 9AF810B0 		ldrb	fp, [r10, #16]	@ zero_extendqisi2
 4394 03a6 2BEA0E0E 		bic	lr, fp, lr
 4395 03aa 8AF810E0 		strb	lr, [r10, #16]
 4396              	.LVL333:
 347:../../libs/libDaisy/src/sys/../../../../libs/libDaisy/src/dev/oled_ssd130x.h ****     }
 4397              		.loc 11 347 42 view .LVU1018
 4398              	.LBE1408:
 4399              	.LBE1407:
 4400              	.LBE1409:
 4401              	.LBE1410:
 4402              	.LBE1419:
 371:../../libs/libDaisy/src/hid/disp/display.h ****                 ((ChildType*)(this))
 4403              		.loc 10 371 13 view .LVU1019
ARM GAS  C:\Users\matte\AppData\Local\Temp\ccvehO0v.s 			page 133


 4404 03ae 002F     		cmp	r7, #0
 4405 03b0 3FF406AF 		beq	.L261
 4406 03b4 1CE7     		b	.L308
 4407              	.LVL334:
 4408              	.L264:
 4409              	.LBB1420:
 4410              	.LBB1402:
 4411              	.LBB1400:
 4412              	.LBB1397:
 4413              	.LBI1397:
 340:../../libs/libDaisy/src/sys/../../../../libs/libDaisy/src/dev/oled_ssd130x.h ****     {
 4414              		.loc 11 340 10 is_stmt 1 view .LVU1020
 4415              	.LBB1398:
 347:../../libs/libDaisy/src/sys/../../../../libs/libDaisy/src/dev/oled_ssd130x.h ****     }
 4416              		.loc 11 347 42 is_stmt 0 view .LVU1021
 4417 03b6 C244     		add	r10, r10, r8
 4418              	.LVL335:
 347:../../libs/libDaisy/src/sys/../../../../libs/libDaisy/src/dev/oled_ssd130x.h ****     }
 4419              		.loc 11 347 49 view .LVU1022
 4420 03b8 4FF0010B 		mov	fp, #1
 4421              	.LVL336:
 347:../../libs/libDaisy/src/sys/../../../../libs/libDaisy/src/dev/oled_ssd130x.h ****     }
 4422              		.loc 11 347 55 view .LVU1023
 4423 03bc 0EF0070E 		and	lr, lr, #7
 4424              	.LVL337:
 347:../../libs/libDaisy/src/sys/../../../../libs/libDaisy/src/dev/oled_ssd130x.h ****     }
 4425              		.loc 11 347 49 view .LVU1024
 4426 03c0 0BFA0EFE 		lsl	lr, fp, lr
 347:../../libs/libDaisy/src/sys/../../../../libs/libDaisy/src/dev/oled_ssd130x.h ****     }
 4427              		.loc 11 347 42 view .LVU1025
 4428 03c4 9AF810B0 		ldrb	fp, [r10, #16]	@ zero_extendqisi2
 4429 03c8 2BEA0E0E 		bic	lr, fp, lr
 4430 03cc 8AF810E0 		strb	lr, [r10, #16]
 4431              	.LVL338:
 347:../../libs/libDaisy/src/sys/../../../../libs/libDaisy/src/dev/oled_ssd130x.h ****     }
 4432              		.loc 11 347 42 view .LVU1026
 4433 03d0 F7E6     		b	.L263
 4434              	.LVL339:
 4435              	.L258:
 347:../../libs/libDaisy/src/sys/../../../../libs/libDaisy/src/dev/oled_ssd130x.h ****     }
 4436              		.loc 11 347 42 view .LVU1027
 4437              	.LBE1398:
 4438              	.LBE1397:
 4439              	.LBE1400:
 4440              	.LBE1402:
 4441              	.LBE1420:
 4442              	.LBB1421:
 4443              	.LBB1417:
 4444              	.LBB1416:
 4445              	.LBB1414:
 4446              	.LBI1414:
 340:../../libs/libDaisy/src/sys/../../../../libs/libDaisy/src/dev/oled_ssd130x.h ****     {
 4447              		.loc 11 340 10 is_stmt 1 view .LVU1028
 4448              	.LBB1415:
 347:../../libs/libDaisy/src/sys/../../../../libs/libDaisy/src/dev/oled_ssd130x.h ****     }
 4449              		.loc 11 347 42 is_stmt 0 view .LVU1029
 4450 03d2 C244     		add	r10, r10, r8
ARM GAS  C:\Users\matte\AppData\Local\Temp\ccvehO0v.s 			page 134


 4451              	.LVL340:
 347:../../libs/libDaisy/src/sys/../../../../libs/libDaisy/src/dev/oled_ssd130x.h ****     }
 4452              		.loc 11 347 49 view .LVU1030
 4453 03d4 4FF0010B 		mov	fp, #1
 4454              	.LVL341:
 347:../../libs/libDaisy/src/sys/../../../../libs/libDaisy/src/dev/oled_ssd130x.h ****     }
 4455              		.loc 11 347 55 view .LVU1031
 4456 03d8 0EF0070E 		and	lr, lr, #7
 4457              	.LVL342:
 347:../../libs/libDaisy/src/sys/../../../../libs/libDaisy/src/dev/oled_ssd130x.h ****     }
 4458              		.loc 11 347 49 view .LVU1032
 4459 03dc 0BFA0EFE 		lsl	lr, fp, lr
 347:../../libs/libDaisy/src/sys/../../../../libs/libDaisy/src/dev/oled_ssd130x.h ****     }
 4460              		.loc 11 347 42 view .LVU1033
 4461 03e0 9AF810B0 		ldrb	fp, [r10, #16]	@ zero_extendqisi2
 4462 03e4 2BEA0E0E 		bic	lr, fp, lr
 4463 03e8 8AF810E0 		strb	lr, [r10, #16]
 4464              	.LVL343:
 347:../../libs/libDaisy/src/sys/../../../../libs/libDaisy/src/dev/oled_ssd130x.h ****     }
 4465              		.loc 11 347 42 view .LVU1034
 4466              	.LBE1415:
 4467              	.LBE1414:
 4468              	.LBE1416:
 4469              	.LBE1417:
 4470              	.LBE1421:
 368:../../libs/libDaisy/src/hid/disp/display.h ****                 ((ChildType*)(this))
 4471              		.loc 10 368 13 view .LVU1035
 4472 03ec 0029     		cmp	r1, #0
 4473 03ee 3FF4E6AE 		beq	.L259
 4474 03f2 49E7     		b	.L307
 4475              	.LVL344:
 4476              	.L314:
 360:../../libs/libDaisy/src/hid/disp/display.h ****                     d4 = (t_sxny - t_synx < 0 && t_exny - t_eynx > 0);
 4477              		.loc 10 360 56 discriminator 1 view .LVU1036
 4478 03f4 77EEE66A 		vsub.f32	s13, s15, s13
 4479              	.LVL345:
 360:../../libs/libDaisy/src/hid/disp/display.h ****                     d4 = (t_sxny - t_synx < 0 && t_exny - t_eynx > 0);
 4480              		.loc 10 360 46 discriminator 1 view .LVU1037
 4481 03f8 F5EEC06A 		vcmpe.f32	s13, #0
 4482 03fc F1EE10FA 		vmrs	APSR_nzcv, FPSCR
 4483 0400 CCBF     		ite	gt
 4484 0402 0127     		movgt	r7, #1
 4485              	.LVL346:
 360:../../libs/libDaisy/src/hid/disp/display.h ****                     d4 = (t_sxny - t_synx < 0 && t_exny - t_eynx > 0);
 4486              		.loc 10 360 46 discriminator 1 view .LVU1038
 4487 0404 0027     		movle	r7, #0
 4488 0406 9BE7     		b	.L254
 4489              	.LVL347:
 4490              	.L313:
 359:../../libs/libDaisy/src/hid/disp/display.h ****                     d3 = (t_sxny - t_syx < 0 && t_exny - t_eyx > 0);
 4491              		.loc 10 359 54 discriminator 1 view .LVU1039
 4492 0408 36EE666A 		vsub.f32	s12, s12, s13
 4493              	.LVL348:
 359:../../libs/libDaisy/src/hid/disp/display.h ****                     d3 = (t_sxny - t_syx < 0 && t_exny - t_eyx > 0);
 4494              		.loc 10 359 45 discriminator 1 view .LVU1040
 4495 040c B5EEC06A 		vcmpe.f32	s12, #0
 4496 0410 F1EE10FA 		vmrs	APSR_nzcv, FPSCR
ARM GAS  C:\Users\matte\AppData\Local\Temp\ccvehO0v.s 			page 135


 4497 0414 CCBF     		ite	gt
 4498 0416 0121     		movgt	r1, #1
 4499 0418 0021     		movle	r1, #0
 4500 041a 89E7     		b	.L252
 4501              	.LVL349:
 4502              	.L312:
 358:../../libs/libDaisy/src/hid/disp/display.h ****                     d2 = (t_sxy - t_syx < 0 && t_exy - t_eyx > 0);
 4503              		.loc 10 358 55 discriminator 1 view .LVU1041
 4504 041c 76EE473A 		vsub.f32	s7, s12, s14
 358:../../libs/libDaisy/src/hid/disp/display.h ****                     d2 = (t_sxy - t_syx < 0 && t_exy - t_eyx > 0);
 4505              		.loc 10 358 46 discriminator 1 view .LVU1042
 4506 0420 F5EEC03A 		vcmpe.f32	s7, #0
 4507 0424 F1EE10FA 		vmrs	APSR_nzcv, FPSCR
 4508 0428 CCBF     		ite	gt
 4509 042a 0122     		movgt	r2, #1
 4510 042c 0022     		movle	r2, #0
 4511 042e 77E7     		b	.L250
 4512              	.LVL350:
 4513              	.L275:
 354:../../libs/libDaisy/src/hid/disp/display.h ****                 }
 4514              		.loc 10 354 47 view .LVU1043
 4515 0430 0124     		movs	r4, #1
 4516              	.LVL351:
 365:../../libs/libDaisy/src/hid/disp/display.h ****                 ((ChildType*)(this))
 4517              		.loc 10 365 13 view .LVU1044
 4518 0432 002A     		cmp	r2, #0
 4519 0434 3FF4C1AE 		beq	.L257
 365:../../libs/libDaisy/src/hid/disp/display.h ****                 ((ChildType*)(this))
 4520              		.loc 10 365 13 view .LVU1045
 4521 0438 49E7     		b	.L306
 4522              	.LVL352:
 4523              	.L272:
 352:../../libs/libDaisy/src/hid/disp/display.h ****                     d3 = (t_sxny - t_syx < 0 || t_exny - t_eyx > 0);
 4524              		.loc 10 352 33 view .LVU1046
 4525 043a 74EEC54A 		vsub.f32	s9, s9, s10
 4526              	.LVL353:
 351:../../libs/libDaisy/src/hid/disp/display.h ****                     d2 = (t_sxy - t_syx < 0 || t_exy - t_eyx > 0);
 4527              		.loc 10 351 46 view .LVU1047
 4528 043e 0122     		movs	r2, #1
 4529              	.LVL354:
 352:../../libs/libDaisy/src/hid/disp/display.h ****                     d3 = (t_sxny - t_syx < 0 || t_exny - t_eyx > 0);
 4530              		.loc 10 352 45 view .LVU1048
 4531 0440 F5EEC04A 		vcmpe.f32	s9, #0
 4532 0444 F1EE10FA 		vmrs	APSR_nzcv, FPSCR
 4533 0448 7FF589AE 		bpl	.L315
 4534              	.L273:
 353:../../libs/libDaisy/src/hid/disp/display.h ****                     d4 = (t_sxny - t_synx < 0 || t_exny - t_eynx > 0);
 4535              		.loc 10 353 34 view .LVU1049
 4536 044c 35EEC55A 		vsub.f32	s10, s11, s10
 4537              	.LVL355:
 352:../../libs/libDaisy/src/hid/disp/display.h ****                     d3 = (t_sxny - t_syx < 0 || t_exny - t_eyx > 0);
 4538              		.loc 10 352 45 view .LVU1050
 4539 0450 0121     		movs	r1, #1
 4540              	.LVL356:
 353:../../libs/libDaisy/src/hid/disp/display.h ****                     d4 = (t_sxny - t_synx < 0 || t_exny - t_eynx > 0);
 4541              		.loc 10 353 46 view .LVU1051
 4542 0452 B5EEC05A 		vcmpe.f32	s10, #0
ARM GAS  C:\Users\matte\AppData\Local\Temp\ccvehO0v.s 			page 136


 4543 0456 F1EE10FA 		vmrs	APSR_nzcv, FPSCR
 4544 045a 7FF591AE 		bpl	.L316
 4545              	.LVL357:
 4546              	.L274:
 353:../../libs/libDaisy/src/hid/disp/display.h ****                     d4 = (t_sxny - t_synx < 0 || t_exny - t_eynx > 0);
 4547              		.loc 10 353 46 view .LVU1052
 4548 045e 0127     		movs	r7, #1
 4549              	.LVL358:
 353:../../libs/libDaisy/src/hid/disp/display.h ****                     d4 = (t_sxny - t_synx < 0 || t_exny - t_eynx > 0);
 4550              		.loc 10 353 46 view .LVU1053
 4551 0460 97E6     		b	.L249
 4552              	.LVL359:
 4553              	.L241:
 308:../../libs/libDaisy/src/hid/disp/display.h ****             sweep = -sweep;
 4554              		.loc 10 308 25 view .LVU1054
 4555 0462 DDE91223 		ldrd	r2, r3, [sp, #72]
 4556              	.LVL360:
 308:../../libs/libDaisy/src/hid/disp/display.h ****             sweep = -sweep;
 4557              		.loc 10 308 25 view .LVU1055
 4558 0466 1344     		add	r3, r3, r2
 4559              	.LVL361:
 308:../../libs/libDaisy/src/hid/disp/display.h ****             sweep = -sweep;
 4560              		.loc 10 308 25 view .LVU1056
 4561 0468 06EE102A 		vmov	s12, r2	@ int
 4562 046c 1293     		str	r3, [sp, #72]
 4563 046e 139B     		ldr	r3, [sp, #76]
 4564              	.LVL362:
 308:../../libs/libDaisy/src/hid/disp/display.h ****             sweep = -sweep;
 4565              		.loc 10 308 25 view .LVU1057
 4566 0470 5B42     		rsbs	r3, r3, #0
 4567 0472 1393     		str	r3, [sp, #76]
 4568              	.LVL363:
 308:../../libs/libDaisy/src/hid/disp/display.h ****             sweep = -sweep;
 4569              		.loc 10 308 25 view .LVU1058
 4570 0474 D8E5     		b	.L242
 4571              		.cfi_endproc
 4572              	.LFE5477:
 4574 0476 00BF     		.section	.text._ZN5daisy25OneBitGraphicsDisplayImplINS_11OledDisplayINS_13SSD130xDriverILj128ELj64
 4575              		.align	1
 4576              		.p2align 2,,3
 4577              		.weak	_ZN5daisy25OneBitGraphicsDisplayImplINS_11OledDisplayINS_13SSD130xDriverILj128ELj64ENS_19SSD
 4578              		.syntax unified
 4579              		.thumb
 4580              		.thumb_func
 4581              		.fpu fpv5-d16
 4583              	_ZN5daisy25OneBitGraphicsDisplayImplINS_11OledDisplayINS_13SSD130xDriverILj128ELj64ENS_19SSD130xI2C
 4584              	.LVL364:
 4585              	.LFB5476:
 257:../../libs/libDaisy/src/hid/disp/display.h ****                   uint_fast8_t y1,
 4586              		.loc 10 257 10 is_stmt 1 view -0
 4587              		.cfi_startproc
 4588              		@ args = 12, pretend = 0, frame = 24
 4589              		@ frame_needed = 0, uses_anonymous_args = 0
 257:../../libs/libDaisy/src/hid/disp/display.h ****                   uint_fast8_t y1,
 4590              		.loc 10 257 10 is_stmt 0 view .LVU1060
 4591 0000 2DE9F04F 		push	{r4, r5, r6, r7, r8, r9, r10, fp, lr}
 4592              		.cfi_def_cfa_offset 36
ARM GAS  C:\Users\matte\AppData\Local\Temp\ccvehO0v.s 			page 137


 4593              		.cfi_offset 4, -36
 4594              		.cfi_offset 5, -32
 4595              		.cfi_offset 6, -28
 4596              		.cfi_offset 7, -24
 4597              		.cfi_offset 8, -20
 4598              		.cfi_offset 9, -16
 4599              		.cfi_offset 10, -12
 4600              		.cfi_offset 11, -8
 4601              		.cfi_offset 14, -4
 4602 0004 87B0     		sub	sp, sp, #28
 4603              		.cfi_def_cfa_offset 64
 257:../../libs/libDaisy/src/hid/disp/display.h ****                   uint_fast8_t y1,
 4604              		.loc 10 257 10 view .LVU1061
 4605 0006 9DF84850 		ldrb	r5, [sp, #72]	@ zero_extendqisi2
 4606 000a 109C     		ldr	r4, [sp, #64]
 4607 000c 2E46     		mov	r6, r5
 4608 000e 0195     		str	r5, [sp, #4]
 4609 0010 9DF84450 		ldrb	r5, [sp, #68]	@ zero_extendqisi2
 4610              	.LBB1491:
 264:../../libs/libDaisy/src/hid/disp/display.h ****         {
 4611              		.loc 10 264 9 view .LVU1062
 4612 0014 9EB3     		cbz	r6, .L320
 4613              	.LVL365:
 264:../../libs/libDaisy/src/hid/disp/display.h ****         {
 4614              		.loc 10 264 9 view .LVU1063
 4615              	.LBE1491:
 4616              	.LBB1613:
 4617              	.LBB1614:
 266:../../libs/libDaisy/src/hid/disp/display.h ****             {
 4618              		.loc 10 266 40 is_stmt 1 view .LVU1064
 4619 0016 9942     		cmp	r1, r3
 4620 0018 2ED8     		bhi	.L319
 4621 001a 9946     		mov	r9, r3
 4622              	.LVL366:
 4623              	.L323:
 4624              	.LBB1615:
 268:../../libs/libDaisy/src/hid/disp/display.h ****                 {
 4625              		.loc 10 268 44 view .LVU1065
 4626 001c A242     		cmp	r2, r4
 4627 001e 28D8     		bhi	.L326
 4628              	.LBB1616:
 4629              	.LBB1617:
 4630              	.LBB1618:
 342:../../libs/libDaisy/src/sys/../../../../libs/libDaisy/src/dev/oled_ssd130x.h ****             return;
 4631              		.loc 11 342 14 is_stmt 0 view .LVU1066
 4632 0020 7F29     		cmp	r1, #127
 4633 0022 1646     		mov	r6, r2
 4634 0024 94BF     		ite	ls
 4635 0026 0023     		movls	r3, #0
 4636 0028 0123     		movhi	r3, #1
 4637 002a 08E0     		b	.L327
 4638              	.LVL367:
 4639              	.L410:
 345:../../libs/libDaisy/src/sys/../../../../libs/libDaisy/src/dev/oled_ssd130x.h ****         else
 4640              		.loc 11 345 42 view .LVU1067
 4641 002c 9CF81080 		ldrb	r8, [ip, #16]	@ zero_extendqisi2
 4642 0030 4EEA080E 		orr	lr, lr, r8
ARM GAS  C:\Users\matte\AppData\Local\Temp\ccvehO0v.s 			page 138


 4643 0034 8CF810E0 		strb	lr, [ip, #16]
 4644              	.LVL368:
 4645              	.L324:
 345:../../libs/libDaisy/src/sys/../../../../libs/libDaisy/src/dev/oled_ssd130x.h ****         else
 4646              		.loc 11 345 42 view .LVU1068
 4647              	.LBE1618:
 4648              	.LBE1617:
 4649              	.LBE1616:
 268:../../libs/libDaisy/src/hid/disp/display.h ****                 {
 4650              		.loc 10 268 17 is_stmt 1 view .LVU1069
 4651 0038 0136     		adds	r6, r6, #1
 4652              	.LVL369:
 268:../../libs/libDaisy/src/hid/disp/display.h ****                 {
 4653              		.loc 10 268 44 view .LVU1070
 4654 003a B442     		cmp	r4, r6
 4655 003c 19D3     		bcc	.L326
 4656              	.L327:
 4657              	.LVL370:
 4658              	.LBB1632:
 4659              	.LBI1616:
  42:../../libs/libDaisy/src/hid/disp/oled_display.h ****     {
 4660              		.loc 9 42 10 view .LVU1071
 4661              	.LBB1629:
 4662              	.LBI1617:
 340:../../libs/libDaisy/src/sys/../../../../libs/libDaisy/src/dev/oled_ssd130x.h ****     {
 4663              		.loc 11 340 10 view .LVU1072
 4664              	.LBB1626:
 342:../../libs/libDaisy/src/sys/../../../../libs/libDaisy/src/dev/oled_ssd130x.h ****             return;
 4665              		.loc 11 342 9 is_stmt 0 view .LVU1073
 4666 003e 3F2E     		cmp	r6, #63
 4667 0040 FAD8     		bhi	.L324
 342:../../libs/libDaisy/src/sys/../../../../libs/libDaisy/src/dev/oled_ssd130x.h ****             return;
 4668              		.loc 11 342 9 view .LVU1074
 4669 0042 002B     		cmp	r3, #0
 4670 0044 F8D1     		bne	.L324
 4671              	.LVL371:
 4672              	.LBB1619:
 4673              	.LBI1619:
 340:../../libs/libDaisy/src/sys/../../../../libs/libDaisy/src/dev/oled_ssd130x.h ****     {
 4674              		.loc 11 340 10 is_stmt 1 view .LVU1075
 340:../../libs/libDaisy/src/sys/../../../../libs/libDaisy/src/dev/oled_ssd130x.h ****     {
 4675              		.loc 11 340 10 is_stmt 0 view .LVU1076
 4676              	.LBE1619:
 345:../../libs/libDaisy/src/sys/../../../../libs/libDaisy/src/dev/oled_ssd130x.h ****         else
 4677              		.loc 11 345 28 view .LVU1077
 4678 0046 4FEAD60C 		lsr	ip, r6, #3
 345:../../libs/libDaisy/src/sys/../../../../libs/libDaisy/src/dev/oled_ssd130x.h ****         else
 4679              		.loc 11 345 54 view .LVU1078
 4680 004a 06F0070E 		and	lr, r6, #7
 345:../../libs/libDaisy/src/sys/../../../../libs/libDaisy/src/dev/oled_ssd130x.h ****         else
 4681              		.loc 11 345 48 view .LVU1079
 4682 004e 4FF00108 		mov	r8, #1
 345:../../libs/libDaisy/src/sys/../../../../libs/libDaisy/src/dev/oled_ssd130x.h ****         else
 4683              		.loc 11 345 42 view .LVU1080
 4684 0052 01EBCC1C 		add	ip, r1, ip, lsl #7
 345:../../libs/libDaisy/src/sys/../../../../libs/libDaisy/src/dev/oled_ssd130x.h ****         else
 4685              		.loc 11 345 48 view .LVU1081
ARM GAS  C:\Users\matte\AppData\Local\Temp\ccvehO0v.s 			page 139


 4686 0056 08FA0EFE 		lsl	lr, r8, lr
 345:../../libs/libDaisy/src/sys/../../../../libs/libDaisy/src/dev/oled_ssd130x.h ****         else
 4687              		.loc 11 345 42 view .LVU1082
 4688 005a 8444     		add	ip, ip, r0
 344:../../libs/libDaisy/src/sys/../../../../libs/libDaisy/src/dev/oled_ssd130x.h ****             buffer_[x + (y / 8) * width] |= (1 << (y % 8));
 4689              		.loc 11 344 9 view .LVU1083
 4690 005c 002D     		cmp	r5, #0
 4691 005e E5D1     		bne	.L410
 4692              	.LBB1623:
 4693              	.LBB1620:
 347:../../libs/libDaisy/src/sys/../../../../libs/libDaisy/src/dev/oled_ssd130x.h ****     }
 4694              		.loc 11 347 42 view .LVU1084
 4695 0060 9CF810B0 		ldrb	fp, [ip, #16]	@ zero_extendqisi2
 4696              	.LBE1620:
 4697              	.LBE1623:
 4698              	.LBE1626:
 4699              	.LBE1629:
 4700              	.LBE1632:
 268:../../libs/libDaisy/src/hid/disp/display.h ****                 {
 4701              		.loc 10 268 17 view .LVU1085
 4702 0064 0136     		adds	r6, r6, #1
 4703              	.LVL372:
 4704              	.LBB1633:
 4705              	.LBB1630:
 4706              	.LBB1627:
 4707              	.LBB1624:
 4708              	.LBB1621:
 347:../../libs/libDaisy/src/sys/../../../../libs/libDaisy/src/dev/oled_ssd130x.h ****     }
 4709              		.loc 11 347 42 view .LVU1086
 4710 0066 2BEA0E0A 		bic	r10, fp, lr
 4711              	.LBE1621:
 4712              	.LBE1624:
 4713              	.LBE1627:
 4714              	.LBE1630:
 4715              	.LBE1633:
 268:../../libs/libDaisy/src/hid/disp/display.h ****                 {
 4716              		.loc 10 268 44 view .LVU1087
 4717 006a B442     		cmp	r4, r6
 4718              	.LBB1634:
 4719              	.LBB1631:
 4720              	.LBB1628:
 4721              	.LBB1625:
 4722              	.LBB1622:
 347:../../libs/libDaisy/src/sys/../../../../libs/libDaisy/src/dev/oled_ssd130x.h ****     }
 4723              		.loc 11 347 42 view .LVU1088
 4724 006c 8CF810A0 		strb	r10, [ip, #16]
 4725              	.LVL373:
 347:../../libs/libDaisy/src/sys/../../../../libs/libDaisy/src/dev/oled_ssd130x.h ****     }
 4726              		.loc 11 347 42 view .LVU1089
 4727              	.LBE1622:
 4728              	.LBE1625:
 4729              	.LBE1628:
 4730              	.LBE1631:
 4731              	.LBE1634:
 268:../../libs/libDaisy/src/hid/disp/display.h ****                 {
 4732              		.loc 10 268 17 is_stmt 1 view .LVU1090
 268:../../libs/libDaisy/src/hid/disp/display.h ****                 {
ARM GAS  C:\Users\matte\AppData\Local\Temp\ccvehO0v.s 			page 140


 4733              		.loc 10 268 44 view .LVU1091
 4734 0070 E5D2     		bcs	.L327
 4735              	.LVL374:
 4736              	.L326:
 268:../../libs/libDaisy/src/hid/disp/display.h ****                 {
 4737              		.loc 10 268 44 is_stmt 0 view .LVU1092
 4738              	.LBE1615:
 266:../../libs/libDaisy/src/hid/disp/display.h ****             {
 4739              		.loc 10 266 13 is_stmt 1 view .LVU1093
 4740 0072 0131     		adds	r1, r1, #1
 4741              	.LVL375:
 266:../../libs/libDaisy/src/hid/disp/display.h ****             {
 4742              		.loc 10 266 40 view .LVU1094
 4743 0074 8945     		cmp	r9, r1
 4744 0076 D1D2     		bcs	.L323
 4745              	.LVL376:
 4746              	.L319:
 266:../../libs/libDaisy/src/hid/disp/display.h ****             {
 4747              		.loc 10 266 40 is_stmt 0 view .LVU1095
 4748              	.LBE1614:
 4749              	.LBE1613:
 281:../../libs/libDaisy/src/hid/disp/display.h **** 
 4750              		.loc 10 281 5 view .LVU1096
 4751 0078 07B0     		add	sp, sp, #28
 4752              		.cfi_remember_state
 4753              		.cfi_def_cfa_offset 36
 4754              		@ sp needed
 4755 007a BDE8F08F 		pop	{r4, r5, r6, r7, r8, r9, r10, fp, pc}
 4756              	.LVL377:
 4757              	.L320:
 4758              		.cfi_restore_state
 4759              	.LBB1635:
 4760              	.LBB1492:
 4761              	.LBI1492:
 221:../../libs/libDaisy/src/hid/disp/display.h ****                   uint_fast8_t y1,
 4762              		.loc 10 221 10 is_stmt 1 view .LVU1097
 4763              	.LBB1493:
 227:../../libs/libDaisy/src/hid/disp/display.h ****         int_fast16_t deltaY = abs((int_fast16_t)y2 - (int_fast16_t)y1);
 4764              		.loc 10 227 52 is_stmt 0 view .LVU1098
 4765 007e A3EB0108 		sub	r8, r3, r1
 227:../../libs/libDaisy/src/hid/disp/display.h ****         int_fast16_t deltaY = abs((int_fast16_t)y2 - (int_fast16_t)y1);
 4766              		.loc 10 227 22 view .LVU1099
 4767 0082 B8F1000F 		cmp	r8, #0
 4768 0086 B8BF     		it	lt
 4769 0088 C8F10008 		rsblt	r8, r8, #0
 4770              	.LVL378:
 229:../../libs/libDaisy/src/hid/disp/display.h ****         int_fast16_t signY  = ((y1 < y2) ? 1 : -1);
 4771              		.loc 10 229 42 view .LVU1100
 4772 008c 9942     		cmp	r1, r3
 4773 008e C0F04E81 		bcc	.L328
 4774              	.LVL379:
 4775              	.LBB1494:
 4776              	.LBI1494:
  42:../../libs/libDaisy/src/hid/disp/oled_display.h ****     {
 4777              		.loc 9 42 10 is_stmt 1 view .LVU1101
 4778              	.LBB1495:
 4779              	.LBI1495:
ARM GAS  C:\Users\matte\AppData\Local\Temp\ccvehO0v.s 			page 141


 340:../../libs/libDaisy/src/sys/../../../../libs/libDaisy/src/dev/oled_ssd130x.h ****     {
 4780              		.loc 11 340 10 view .LVU1102
 4781              	.LBB1496:
 342:../../libs/libDaisy/src/sys/../../../../libs/libDaisy/src/dev/oled_ssd130x.h ****             return;
 4782              		.loc 11 342 14 is_stmt 0 view .LVU1103
 4783 0092 7F2B     		cmp	r3, #127
 4784              	.LBE1496:
 4785              	.LBE1495:
 4786              	.LBE1494:
 229:../../libs/libDaisy/src/hid/disp/display.h ****         int_fast16_t signY  = ((y1 < y2) ? 1 : -1);
 4787              		.loc 10 229 42 view .LVU1104
 4788 0094 4FF0FF3A 		mov	r10, #-1
 4789              	.LBB1507:
 4790              	.LBB1503:
 4791              	.LBB1499:
 342:../../libs/libDaisy/src/sys/../../../../libs/libDaisy/src/dev/oled_ssd130x.h ****             return;
 4792              		.loc 11 342 14 view .LVU1105
 4793 0098 94BF     		ite	ls
 4794 009a 0026     		movls	r6, #0
 4795 009c 0126     		movhi	r6, #1
 342:../../libs/libDaisy/src/sys/../../../../libs/libDaisy/src/dev/oled_ssd130x.h ****             return;
 4796              		.loc 11 342 28 view .LVU1106
 4797 009e 3F2A     		cmp	r2, #63
 342:../../libs/libDaisy/src/sys/../../../../libs/libDaisy/src/dev/oled_ssd130x.h ****             return;
 4798              		.loc 11 342 14 view .LVU1107
 4799 00a0 0096     		str	r6, [sp]
 342:../../libs/libDaisy/src/sys/../../../../libs/libDaisy/src/dev/oled_ssd130x.h ****             return;
 4800              		.loc 11 342 28 view .LVU1108
 4801 00a2 94BF     		ite	ls
 4802 00a4 0027     		movls	r7, #0
 4803 00a6 0127     		movhi	r7, #1
 4804 00a8 0297     		str	r7, [sp, #8]
 342:../../libs/libDaisy/src/sys/../../../../libs/libDaisy/src/dev/oled_ssd130x.h ****             return;
 4805              		.loc 11 342 9 view .LVU1109
 4806 00aa A6B9     		cbnz	r6, .L329
 4807 00ac 9FB9     		cbnz	r7, .L329
 4808              	.LVL380:
 4809              	.L370:
 345:../../libs/libDaisy/src/sys/../../../../libs/libDaisy/src/dev/oled_ssd130x.h ****         else
 4810              		.loc 11 345 28 view .LVU1110
 4811 00ae D608     		lsrs	r6, r2, #3
 345:../../libs/libDaisy/src/sys/../../../../libs/libDaisy/src/dev/oled_ssd130x.h ****         else
 4812              		.loc 11 345 54 view .LVU1111
 4813 00b0 02F0070C 		and	ip, r2, #7
 345:../../libs/libDaisy/src/sys/../../../../libs/libDaisy/src/dev/oled_ssd130x.h ****         else
 4814              		.loc 11 345 48 view .LVU1112
 4815 00b4 0127     		movs	r7, #1
 345:../../libs/libDaisy/src/sys/../../../../libs/libDaisy/src/dev/oled_ssd130x.h ****         else
 4816              		.loc 11 345 42 view .LVU1113
 4817 00b6 03EBC616 		add	r6, r3, r6, lsl #7
 4818 00ba 0644     		add	r6, r6, r0
 344:../../libs/libDaisy/src/sys/../../../../libs/libDaisy/src/dev/oled_ssd130x.h ****             buffer_[x + (y / 8) * width] |= (1 << (y % 8));
 4819              		.loc 11 344 9 view .LVU1114
 4820 00bc 002D     		cmp	r5, #0
 4821 00be 00F09481 		beq	.L330
 345:../../libs/libDaisy/src/sys/../../../../libs/libDaisy/src/dev/oled_ssd130x.h ****         else
 4822              		.loc 11 345 48 view .LVU1115
ARM GAS  C:\Users\matte\AppData\Local\Temp\ccvehO0v.s 			page 142


 4823 00c2 07FA0CF7 		lsl	r7, r7, ip
 345:../../libs/libDaisy/src/sys/../../../../libs/libDaisy/src/dev/oled_ssd130x.h ****         else
 4824              		.loc 11 345 42 view .LVU1116
 4825 00c6 96F810C0 		ldrb	ip, [r6, #16]	@ zero_extendqisi2
 4826 00ca 47EA0C07 		orr	r7, r7, ip
 4827 00ce 3774     		strb	r7, [r6, #16]
 4828 00d0 0026     		movs	r6, #0
 4829 00d2 0296     		str	r6, [sp, #8]
 4830 00d4 0096     		str	r6, [sp]
 4831              	.L329:
 4832              	.LVL381:
 345:../../libs/libDaisy/src/sys/../../../../libs/libDaisy/src/dev/oled_ssd130x.h ****         else
 4833              		.loc 11 345 42 view .LVU1117
 4834              	.LBE1499:
 4835              	.LBE1503:
 4836              	.LBE1507:
 239:../../libs/libDaisy/src/hid/disp/display.h ****         {
 4837              		.loc 10 239 26 is_stmt 1 view .LVU1118
 4838 00d6 9942     		cmp	r1, r3
 4839 00d8 00F09781 		beq	.L411
 4840              	.L332:
 4841              	.LVL382:
 227:../../libs/libDaisy/src/hid/disp/display.h ****         int_fast16_t deltaY = abs((int_fast16_t)y2 - (int_fast16_t)y1);
 4842              		.loc 10 227 22 is_stmt 0 view .LVU1119
 4843 00dc 4646     		mov	r6, r8
 4844 00de 9446     		mov	ip, r2
 4845 00e0 8E46     		mov	lr, r1
 4846              	.LVL383:
 4847              	.L334:
 4848              	.LBB1508:
 4849              	.LBI1508:
  42:../../libs/libDaisy/src/hid/disp/oled_display.h ****     {
 4850              		.loc 9 42 10 is_stmt 1 view .LVU1120
 4851              	.LBB1509:
 4852              	.LBI1509:
 340:../../libs/libDaisy/src/sys/../../../../libs/libDaisy/src/dev/oled_ssd130x.h ****     {
 4853              		.loc 11 340 10 view .LVU1121
 4854              	.LBB1510:
 342:../../libs/libDaisy/src/sys/../../../../libs/libDaisy/src/dev/oled_ssd130x.h ****             return;
 4855              		.loc 11 342 9 is_stmt 0 view .LVU1122
 4856 00e2 BEF17F0F 		cmp	lr, #127
 4857 00e6 16D8     		bhi	.L335
 4858 00e8 BCF13F0F 		cmp	ip, #63
 4859 00ec 13D8     		bhi	.L335
 345:../../libs/libDaisy/src/sys/../../../../libs/libDaisy/src/dev/oled_ssd130x.h ****         else
 4860              		.loc 11 345 28 view .LVU1123
 4861 00ee 4FEADC07 		lsr	r7, ip, #3
 345:../../libs/libDaisy/src/sys/../../../../libs/libDaisy/src/dev/oled_ssd130x.h ****         else
 4862              		.loc 11 345 54 view .LVU1124
 4863 00f2 0CF0070B 		and	fp, ip, #7
 345:../../libs/libDaisy/src/sys/../../../../libs/libDaisy/src/dev/oled_ssd130x.h ****         else
 4864              		.loc 11 345 48 view .LVU1125
 4865 00f6 4FF00109 		mov	r9, #1
 345:../../libs/libDaisy/src/sys/../../../../libs/libDaisy/src/dev/oled_ssd130x.h ****         else
 4866              		.loc 11 345 42 view .LVU1126
 4867 00fa 0EEBC717 		add	r7, lr, r7, lsl #7
 4868 00fe 0744     		add	r7, r7, r0
ARM GAS  C:\Users\matte\AppData\Local\Temp\ccvehO0v.s 			page 143


 344:../../libs/libDaisy/src/sys/../../../../libs/libDaisy/src/dev/oled_ssd130x.h ****             buffer_[x + (y / 8) * width] |= (1 << (y % 8));
 4869              		.loc 11 344 9 view .LVU1127
 4870 0100 002D     		cmp	r5, #0
 4871 0102 00F03981 		beq	.L336
 345:../../libs/libDaisy/src/sys/../../../../libs/libDaisy/src/dev/oled_ssd130x.h ****         else
 4872              		.loc 11 345 48 view .LVU1128
 4873 0106 09FA0BF9 		lsl	r9, r9, fp
 345:../../libs/libDaisy/src/sys/../../../../libs/libDaisy/src/dev/oled_ssd130x.h ****         else
 4874              		.loc 11 345 42 view .LVU1129
 4875 010a 97F810B0 		ldrb	fp, [r7, #16]	@ zero_extendqisi2
 4876 010e 49EA0B09 		orr	r9, r9, fp
 4877 0112 87F81090 		strb	r9, [r7, #16]
 4878              	.L335:
 4879              	.LVL384:
 345:../../libs/libDaisy/src/sys/../../../../libs/libDaisy/src/dev/oled_ssd130x.h ****         else
 4880              		.loc 11 345 42 view .LVU1130
 4881              	.LBE1510:
 4882              	.LBE1509:
 4883              	.LBE1508:
 243:../../libs/libDaisy/src/hid/disp/display.h ****             {
 4884              		.loc 10 243 13 view .LVU1131
 4885 0116 7700     		lsls	r7, r6, #1
 4886              	.LVL385:
 246:../../libs/libDaisy/src/hid/disp/display.h ****             }
 4887              		.loc 10 246 20 view .LVU1132
 4888 0118 18BF     		it	ne
 4889 011a D644     		addne	lr, lr, r10
 4890              	.LVL386:
 249:../../libs/libDaisy/src/hid/disp/display.h ****             {
 4891              		.loc 10 249 13 view .LVU1133
 4892 011c B845     		cmp	r8, r7
 4893 011e 02DD     		ble	.L338
 251:../../libs/libDaisy/src/hid/disp/display.h ****                 y1 += signY;
 4894              		.loc 10 251 23 view .LVU1134
 4895 0120 4644     		add	r6, r6, r8
 4896              	.LVL387:
 252:../../libs/libDaisy/src/hid/disp/display.h ****             }
 4897              		.loc 10 252 20 view .LVU1135
 4898 0122 0CF1FF3C 		add	ip, ip, #-1
 4899              	.LVL388:
 4900              	.L338:
 239:../../libs/libDaisy/src/hid/disp/display.h ****         {
 4901              		.loc 10 239 26 is_stmt 1 view .LVU1136
 4902 0126 7345     		cmp	r3, lr
 4903 0128 DBD1     		bne	.L334
 239:../../libs/libDaisy/src/hid/disp/display.h ****         {
 4904              		.loc 10 239 26 is_stmt 0 view .LVU1137
 4905 012a 6245     		cmp	r2, ip
 4906 012c D9D1     		bne	.L334
 4907 012e 0026     		movs	r6, #0
 4908              	.LVL389:
 239:../../libs/libDaisy/src/hid/disp/display.h ****         {
 4909              		.loc 10 239 26 view .LVU1138
 4910 0130 0496     		str	r6, [sp, #16]
 4911              	.LVL390:
 4912              	.L331:
 239:../../libs/libDaisy/src/hid/disp/display.h ****         {
ARM GAS  C:\Users\matte\AppData\Local\Temp\ccvehO0v.s 			page 144


 4913              		.loc 10 239 26 view .LVU1139
 4914              	.LBE1493:
 4915              	.LBE1492:
 4916              	.LBB1523:
 4917              	.LBI1523:
 221:../../libs/libDaisy/src/hid/disp/display.h ****                   uint_fast8_t y1,
 4918              		.loc 10 221 10 is_stmt 1 view .LVU1140
 4919              	.LBB1524:
 228:../../libs/libDaisy/src/hid/disp/display.h ****         int_fast16_t signX  = ((x1 < x2) ? 1 : -1);
 4920              		.loc 10 228 52 is_stmt 0 view .LVU1141
 4921 0132 A4EB0209 		sub	r9, r4, r2
 4922              	.LBB1525:
 4923              	.LBB1526:
 4924              	.LBB1527:
 342:../../libs/libDaisy/src/sys/../../../../libs/libDaisy/src/dev/oled_ssd130x.h ****             return;
 4925              		.loc 11 342 9 view .LVU1142
 4926 0136 009F     		ldr	r7, [sp]
 4927              	.LBE1527:
 4928              	.LBE1526:
 4929              	.LBE1525:
 228:../../libs/libDaisy/src/hid/disp/display.h ****         int_fast16_t signX  = ((x1 < x2) ? 1 : -1);
 4930              		.loc 10 228 22 view .LVU1143
 4931 0138 B9F1000F 		cmp	r9, #0
 4932 013c B8BF     		it	lt
 4933 013e C9F10009 		rsblt	r9, r9, #0
 4934              	.LVL391:
 4935              	.LBB1542:
 4936              	.LBB1536:
 4937              	.LBB1530:
 342:../../libs/libDaisy/src/sys/../../../../libs/libDaisy/src/dev/oled_ssd130x.h ****             return;
 4938              		.loc 11 342 28 view .LVU1144
 4939 0142 3F2C     		cmp	r4, #63
 4940 0144 94BF     		ite	ls
 4941 0146 0026     		movls	r6, #0
 4942 0148 0126     		movhi	r6, #1
 4943              	.LBE1530:
 4944              	.LBE1536:
 4945              	.LBE1542:
 230:../../libs/libDaisy/src/hid/disp/display.h ****         int_fast16_t error  = deltaX - deltaY;
 4946              		.loc 10 230 42 view .LVU1145
 4947 014a A242     		cmp	r2, r4
 231:../../libs/libDaisy/src/hid/disp/display.h ****         int_fast16_t error2;
 4948              		.loc 10 231 22 view .LVU1146
 4949 014c C9F10008 		rsb	r8, r9, #0
 4950              	.LVL392:
 4951              	.LBB1543:
 4952              	.LBI1525:
  42:../../libs/libDaisy/src/hid/disp/oled_display.h ****     {
 4953              		.loc 9 42 10 is_stmt 1 view .LVU1147
 4954              	.LBB1537:
 4955              	.LBI1526:
 340:../../libs/libDaisy/src/sys/../../../../libs/libDaisy/src/dev/oled_ssd130x.h ****     {
 4956              		.loc 11 340 10 view .LVU1148
 4957              	.LBB1531:
 342:../../libs/libDaisy/src/sys/../../../../libs/libDaisy/src/dev/oled_ssd130x.h ****             return;
 4958              		.loc 11 342 28 is_stmt 0 view .LVU1149
 4959 0150 0396     		str	r6, [sp, #12]
ARM GAS  C:\Users\matte\AppData\Local\Temp\ccvehO0v.s 			page 145


 4960              	.LBE1531:
 4961              	.LBE1537:
 4962              	.LBE1543:
 230:../../libs/libDaisy/src/hid/disp/display.h ****         int_fast16_t error  = deltaX - deltaY;
 4963              		.loc 10 230 42 view .LVU1150
 4964 0152 C0F02381 		bcc	.L339
 4965              	.LVL393:
 4966              	.LBB1544:
 4967              	.LBB1538:
 4968              	.LBB1532:
 342:../../libs/libDaisy/src/sys/../../../../libs/libDaisy/src/dev/oled_ssd130x.h ****             return;
 4969              		.loc 11 342 9 view .LVU1151
 4970 0156 002F     		cmp	r7, #0
 4971 0158 40F05081 		bne	.L374
 4972 015c 002E     		cmp	r6, #0
 4973 015e 40F04D81 		bne	.L374
 4974              	.LBE1532:
 4975              	.LBE1538:
 4976              	.LBE1544:
 230:../../libs/libDaisy/src/hid/disp/display.h ****         int_fast16_t error  = deltaX - deltaY;
 4977              		.loc 10 230 42 view .LVU1152
 4978 0162 4FF0FF36 		mov	r6, #-1
 4979 0166 0096     		str	r6, [sp]
 4980              	.LBB1545:
 4981              	.LBB1539:
 4982              	.LBB1533:
 345:../../libs/libDaisy/src/sys/../../../../libs/libDaisy/src/dev/oled_ssd130x.h ****         else
 4983              		.loc 11 345 28 view .LVU1153
 4984 0168 E608     		lsrs	r6, r4, #3
 345:../../libs/libDaisy/src/sys/../../../../libs/libDaisy/src/dev/oled_ssd130x.h ****         else
 4985              		.loc 11 345 42 view .LVU1154
 4986 016a 03EBC616 		add	r6, r3, r6, lsl #7
 4987 016e 0644     		add	r6, r6, r0
 344:../../libs/libDaisy/src/sys/../../../../libs/libDaisy/src/dev/oled_ssd130x.h ****             buffer_[x + (y / 8) * width] |= (1 << (y % 8));
 4988              		.loc 11 344 9 view .LVU1155
 4989 0170 002D     		cmp	r5, #0
 4990 0172 00F01E81 		beq	.L341
 4991              	.LVL394:
 4992              	.L413:
 345:../../libs/libDaisy/src/sys/../../../../libs/libDaisy/src/dev/oled_ssd130x.h ****         else
 4993              		.loc 11 345 48 view .LVU1156
 4994 0176 4FF0010C 		mov	ip, #1
 345:../../libs/libDaisy/src/sys/../../../../libs/libDaisy/src/dev/oled_ssd130x.h ****         else
 4995              		.loc 11 345 54 view .LVU1157
 4996 017a 04F00707 		and	r7, r4, #7
 345:../../libs/libDaisy/src/sys/../../../../libs/libDaisy/src/dev/oled_ssd130x.h ****         else
 4997              		.loc 11 345 48 view .LVU1158
 4998 017e 0CFA07F7 		lsl	r7, ip, r7
 345:../../libs/libDaisy/src/sys/../../../../libs/libDaisy/src/dev/oled_ssd130x.h ****         else
 4999              		.loc 11 345 42 view .LVU1159
 5000 0182 96F810C0 		ldrb	ip, [r6, #16]	@ zero_extendqisi2
 5001 0186 47EA0C07 		orr	r7, r7, ip
 5002 018a 3774     		strb	r7, [r6, #16]
 5003 018c 0026     		movs	r6, #0
 5004 018e 0396     		str	r6, [sp, #12]
 5005              	.L340:
 5006              	.LVL395:
ARM GAS  C:\Users\matte\AppData\Local\Temp\ccvehO0v.s 			page 146


 345:../../libs/libDaisy/src/sys/../../../../libs/libDaisy/src/dev/oled_ssd130x.h ****         else
 5007              		.loc 11 345 42 view .LVU1160
 5008              	.LBE1533:
 5009              	.LBE1539:
 5010              	.LBE1545:
 239:../../libs/libDaisy/src/hid/disp/display.h ****         {
 5011              		.loc 10 239 26 is_stmt 1 view .LVU1161
 5012 0190 A242     		cmp	r2, r4
 5013 0192 00F03D81 		beq	.L412
 5014              	.L343:
 5015              	.LVL396:
 230:../../libs/libDaisy/src/hid/disp/display.h ****         int_fast16_t error  = deltaX - deltaY;
 5016              		.loc 10 230 42 is_stmt 0 view .LVU1162
 5017 0196 C446     		mov	ip, r8
 5018 0198 1646     		mov	r6, r2
 5019 019a 1F46     		mov	r7, r3
 5020 019c 0592     		str	r2, [sp, #20]
 5021              	.LVL397:
 5022              	.L345:
 5023              	.LBB1546:
 5024              	.LBI1546:
  42:../../libs/libDaisy/src/hid/disp/oled_display.h ****     {
 5025              		.loc 9 42 10 is_stmt 1 view .LVU1163
 5026              	.LBB1547:
 5027              	.LBI1547:
 340:../../libs/libDaisy/src/sys/../../../../libs/libDaisy/src/dev/oled_ssd130x.h ****     {
 5028              		.loc 11 340 10 view .LVU1164
 5029              	.LBB1548:
 342:../../libs/libDaisy/src/sys/../../../../libs/libDaisy/src/dev/oled_ssd130x.h ****             return;
 5030              		.loc 11 342 9 is_stmt 0 view .LVU1165
 5031 019e 7F2F     		cmp	r7, #127
 5032 01a0 15D8     		bhi	.L346
 5033 01a2 3F2E     		cmp	r6, #63
 5034 01a4 13D8     		bhi	.L346
 345:../../libs/libDaisy/src/sys/../../../../libs/libDaisy/src/dev/oled_ssd130x.h ****         else
 5035              		.loc 11 345 28 view .LVU1166
 5036 01a6 4FEAD60E 		lsr	lr, r6, #3
 345:../../libs/libDaisy/src/sys/../../../../libs/libDaisy/src/dev/oled_ssd130x.h ****         else
 5037              		.loc 11 345 54 view .LVU1167
 5038 01aa 06F0070B 		and	fp, r6, #7
 345:../../libs/libDaisy/src/sys/../../../../libs/libDaisy/src/dev/oled_ssd130x.h ****         else
 5039              		.loc 11 345 48 view .LVU1168
 5040 01ae 4FF0010A 		mov	r10, #1
 345:../../libs/libDaisy/src/sys/../../../../libs/libDaisy/src/dev/oled_ssd130x.h ****         else
 5041              		.loc 11 345 42 view .LVU1169
 5042 01b2 07EBCE1E 		add	lr, r7, lr, lsl #7
 5043 01b6 8644     		add	lr, lr, r0
 344:../../libs/libDaisy/src/sys/../../../../libs/libDaisy/src/dev/oled_ssd130x.h ****             buffer_[x + (y / 8) * width] |= (1 << (y % 8));
 5044              		.loc 11 344 9 view .LVU1170
 5045 01b8 002D     		cmp	r5, #0
 5046 01ba 00F0E680 		beq	.L347
 345:../../libs/libDaisy/src/sys/../../../../libs/libDaisy/src/dev/oled_ssd130x.h ****         else
 5047              		.loc 11 345 48 view .LVU1171
 5048 01be 0AFA0BFA 		lsl	r10, r10, fp
 345:../../libs/libDaisy/src/sys/../../../../libs/libDaisy/src/dev/oled_ssd130x.h ****         else
 5049              		.loc 11 345 42 view .LVU1172
 5050 01c2 9EF810B0 		ldrb	fp, [lr, #16]	@ zero_extendqisi2
ARM GAS  C:\Users\matte\AppData\Local\Temp\ccvehO0v.s 			page 147


 5051 01c6 4AEA0B0A 		orr	r10, r10, fp
 5052 01ca 8EF810A0 		strb	r10, [lr, #16]
 5053              	.L346:
 5054              	.LVL398:
 345:../../libs/libDaisy/src/sys/../../../../libs/libDaisy/src/dev/oled_ssd130x.h ****         else
 5055              		.loc 11 345 42 view .LVU1173
 5056              	.LBE1548:
 5057              	.LBE1547:
 5058              	.LBE1546:
 243:../../libs/libDaisy/src/hid/disp/display.h ****             {
 5059              		.loc 10 243 13 view .LVU1174
 5060 01ce B8EB4C0F 		cmp	r8, ip, lsl #1
 242:../../libs/libDaisy/src/hid/disp/display.h ****             if(error2 > -deltaY)
 5061              		.loc 10 242 20 view .LVU1175
 5062 01d2 4FEA4C0E 		lsl	lr, ip, #1
 5063              	.LVL399:
 243:../../libs/libDaisy/src/hid/disp/display.h ****             {
 5064              		.loc 10 243 13 view .LVU1176
 5065 01d6 02DA     		bge	.L348
 245:../../libs/libDaisy/src/hid/disp/display.h ****                 x1 += signX;
 5066              		.loc 10 245 23 view .LVU1177
 5067 01d8 ACEB090C 		sub	ip, ip, r9
 5068              	.LVL400:
 246:../../libs/libDaisy/src/hid/disp/display.h ****             }
 5069              		.loc 10 246 20 view .LVU1178
 5070 01dc 013F     		subs	r7, r7, #1
 5071              	.LVL401:
 5072              	.L348:
 249:../../libs/libDaisy/src/hid/disp/display.h ****             {
 5073              		.loc 10 249 13 view .LVU1179
 5074 01de BEF1000F 		cmp	lr, #0
 5075 01e2 01D0     		beq	.L349
 252:../../libs/libDaisy/src/hid/disp/display.h ****             }
 5076              		.loc 10 252 20 view .LVU1180
 5077 01e4 009A     		ldr	r2, [sp]
 5078 01e6 1644     		add	r6, r6, r2
 5079              	.LVL402:
 5080              	.L349:
 239:../../libs/libDaisy/src/hid/disp/display.h ****         {
 5081              		.loc 10 239 26 is_stmt 1 view .LVU1181
 5082 01e8 BB42     		cmp	r3, r7
 5083 01ea D8D1     		bne	.L345
 239:../../libs/libDaisy/src/hid/disp/display.h ****         {
 5084              		.loc 10 239 26 is_stmt 0 view .LVU1182
 5085 01ec B442     		cmp	r4, r6
 5086 01ee D6D1     		bne	.L345
 5087 01f0 059A     		ldr	r2, [sp, #20]
 5088              	.LVL403:
 5089              	.L342:
 239:../../libs/libDaisy/src/hid/disp/display.h ****         {
 5090              		.loc 10 239 26 view .LVU1183
 5091              	.LBE1524:
 5092              	.LBE1523:
 5093              	.LBB1559:
 5094              	.LBI1559:
 221:../../libs/libDaisy/src/hid/disp/display.h ****                   uint_fast8_t y1,
 5095              		.loc 10 221 10 is_stmt 1 view .LVU1184
ARM GAS  C:\Users\matte\AppData\Local\Temp\ccvehO0v.s 			page 148


 5096              	.LBB1560:
 227:../../libs/libDaisy/src/hid/disp/display.h ****         int_fast16_t deltaY = abs((int_fast16_t)y2 - (int_fast16_t)y1);
 5097              		.loc 10 227 52 is_stmt 0 view .LVU1185
 5098 01f2 A1EB030E 		sub	lr, r1, r3
 227:../../libs/libDaisy/src/hid/disp/display.h ****         int_fast16_t deltaY = abs((int_fast16_t)y2 - (int_fast16_t)y1);
 5099              		.loc 10 227 22 view .LVU1186
 5100 01f6 BEF1000F 		cmp	lr, #0
 5101 01fa B8BF     		it	lt
 5102 01fc CEF1000E 		rsblt	lr, lr, #0
 5103              	.LVL404:
 5104              	.LBB1561:
 5105              	.LBB1562:
 5106              	.LBB1563:
 342:../../libs/libDaisy/src/sys/../../../../libs/libDaisy/src/dev/oled_ssd130x.h ****             return;
 5107              		.loc 11 342 14 view .LVU1187
 5108 0200 7F29     		cmp	r1, #127
 5109 0202 94BF     		ite	ls
 5110 0204 4FF0000A 		movls	r10, #0
 5111 0208 4FF0010A 		movhi	r10, #1
 5112              	.LBE1563:
 5113              	.LBE1562:
 5114              	.LBE1561:
 229:../../libs/libDaisy/src/hid/disp/display.h ****         int_fast16_t signY  = ((y1 < y2) ? 1 : -1);
 5115              		.loc 10 229 42 view .LVU1188
 5116 020c 9942     		cmp	r1, r3
 5117 020e 8CBF     		ite	hi
 5118 0210 4FF00109 		movhi	r9, #1
 5119 0214 4FF0FF39 		movls	r9, #-1
 5120              	.LVL405:
 5121              	.LBB1570:
 5122              	.LBI1561:
  42:../../libs/libDaisy/src/hid/disp/oled_display.h ****     {
 5123              		.loc 9 42 10 is_stmt 1 view .LVU1189
 5124              	.LBB1568:
 5125              	.LBI1562:
 340:../../libs/libDaisy/src/sys/../../../../libs/libDaisy/src/dev/oled_ssd130x.h ****     {
 5126              		.loc 11 340 10 view .LVU1190
 5127              	.LBB1566:
 342:../../libs/libDaisy/src/sys/../../../../libs/libDaisy/src/dev/oled_ssd130x.h ****             return;
 5128              		.loc 11 342 9 is_stmt 0 view .LVU1191
 5129 0218 BAF1000F 		cmp	r10, #0
 5130 021c 13D1     		bne	.L351
 5131 021e 039E     		ldr	r6, [sp, #12]
 5132 0220 8EB9     		cbnz	r6, .L351
 345:../../libs/libDaisy/src/sys/../../../../libs/libDaisy/src/dev/oled_ssd130x.h ****         else
 5133              		.loc 11 345 28 view .LVU1192
 5134 0222 E608     		lsrs	r6, r4, #3
 345:../../libs/libDaisy/src/sys/../../../../libs/libDaisy/src/dev/oled_ssd130x.h ****         else
 5135              		.loc 11 345 42 view .LVU1193
 5136 0224 01EBC616 		add	r6, r1, r6, lsl #7
 5137 0228 0644     		add	r6, r6, r0
 344:../../libs/libDaisy/src/sys/../../../../libs/libDaisy/src/dev/oled_ssd130x.h ****             buffer_[x + (y / 8) * width] |= (1 << (y % 8));
 5138              		.loc 11 344 9 view .LVU1194
 5139 022a 002D     		cmp	r5, #0
 5140 022c 00F0D380 		beq	.L352
 345:../../libs/libDaisy/src/sys/../../../../libs/libDaisy/src/dev/oled_ssd130x.h ****         else
 5141              		.loc 11 345 48 view .LVU1195
ARM GAS  C:\Users\matte\AppData\Local\Temp\ccvehO0v.s 			page 149


 5142 0230 4FF0010C 		mov	ip, #1
 345:../../libs/libDaisy/src/sys/../../../../libs/libDaisy/src/dev/oled_ssd130x.h ****         else
 5143              		.loc 11 345 54 view .LVU1196
 5144 0234 04F00707 		and	r7, r4, #7
 345:../../libs/libDaisy/src/sys/../../../../libs/libDaisy/src/dev/oled_ssd130x.h ****         else
 5145              		.loc 11 345 48 view .LVU1197
 5146 0238 0CFA07F7 		lsl	r7, ip, r7
 345:../../libs/libDaisy/src/sys/../../../../libs/libDaisy/src/dev/oled_ssd130x.h ****         else
 5147              		.loc 11 345 42 view .LVU1198
 5148 023c 96F810C0 		ldrb	ip, [r6, #16]	@ zero_extendqisi2
 5149 0240 47EA0C07 		orr	r7, r7, ip
 5150 0244 3774     		strb	r7, [r6, #16]
 5151              	.L351:
 5152              	.LVL406:
 345:../../libs/libDaisy/src/sys/../../../../libs/libDaisy/src/dev/oled_ssd130x.h ****         else
 5153              		.loc 11 345 42 view .LVU1199
 5154              	.LBE1566:
 5155              	.LBE1568:
 5156              	.LBE1570:
 239:../../libs/libDaisy/src/hid/disp/display.h ****         {
 5157              		.loc 10 239 26 is_stmt 1 view .LVU1200
 5158 0246 049E     		ldr	r6, [sp, #16]
 5159 0248 26BB     		cbnz	r6, .L353
 227:../../libs/libDaisy/src/hid/disp/display.h ****         int_fast16_t deltaY = abs((int_fast16_t)y2 - (int_fast16_t)y1);
 5160              		.loc 10 227 22 is_stmt 0 view .LVU1201
 5161 024a 7746     		mov	r7, lr
 239:../../libs/libDaisy/src/hid/disp/display.h ****         {
 5162              		.loc 10 239 26 view .LVU1202
 5163 024c 2646     		mov	r6, r4
 5164              	.LVL407:
 5165              	.L354:
 5166              	.LBB1571:
 5167              	.LBI1571:
  42:../../libs/libDaisy/src/hid/disp/oled_display.h ****     {
 5168              		.loc 9 42 10 is_stmt 1 view .LVU1203
 5169              	.LBB1572:
 5170              	.LBI1572:
 340:../../libs/libDaisy/src/sys/../../../../libs/libDaisy/src/dev/oled_ssd130x.h ****     {
 5171              		.loc 11 340 10 view .LVU1204
 5172              	.LBB1573:
 342:../../libs/libDaisy/src/sys/../../../../libs/libDaisy/src/dev/oled_ssd130x.h ****             return;
 5173              		.loc 11 342 9 is_stmt 0 view .LVU1205
 5174 024e 7F2B     		cmp	r3, #127
 5175 0250 14D8     		bhi	.L356
 342:../../libs/libDaisy/src/sys/../../../../libs/libDaisy/src/dev/oled_ssd130x.h ****             return;
 5176              		.loc 11 342 9 view .LVU1206
 5177 0252 3F2E     		cmp	r6, #63
 5178 0254 12D8     		bhi	.L356
 345:../../libs/libDaisy/src/sys/../../../../libs/libDaisy/src/dev/oled_ssd130x.h ****         else
 5179              		.loc 11 345 28 view .LVU1207
 5180 0256 4FEAD60C 		lsr	ip, r6, #3
 345:../../libs/libDaisy/src/sys/../../../../libs/libDaisy/src/dev/oled_ssd130x.h ****         else
 5181              		.loc 11 345 54 view .LVU1208
 5182 025a 06F0070B 		and	fp, r6, #7
 345:../../libs/libDaisy/src/sys/../../../../libs/libDaisy/src/dev/oled_ssd130x.h ****         else
 5183              		.loc 11 345 48 view .LVU1209
 5184 025e 4FF00108 		mov	r8, #1
ARM GAS  C:\Users\matte\AppData\Local\Temp\ccvehO0v.s 			page 150


 345:../../libs/libDaisy/src/sys/../../../../libs/libDaisy/src/dev/oled_ssd130x.h ****         else
 5185              		.loc 11 345 42 view .LVU1210
 5186 0262 03EBCC1C 		add	ip, r3, ip, lsl #7
 5187 0266 8444     		add	ip, ip, r0
 344:../../libs/libDaisy/src/sys/../../../../libs/libDaisy/src/dev/oled_ssd130x.h ****             buffer_[x + (y / 8) * width] |= (1 << (y % 8));
 5188              		.loc 11 344 9 view .LVU1211
 5189 0268 002D     		cmp	r5, #0
 5190 026a 73D0     		beq	.L357
 345:../../libs/libDaisy/src/sys/../../../../libs/libDaisy/src/dev/oled_ssd130x.h ****         else
 5191              		.loc 11 345 48 view .LVU1212
 5192 026c 08FA0BF8 		lsl	r8, r8, fp
 345:../../libs/libDaisy/src/sys/../../../../libs/libDaisy/src/dev/oled_ssd130x.h ****         else
 5193              		.loc 11 345 42 view .LVU1213
 5194 0270 9CF810B0 		ldrb	fp, [ip, #16]	@ zero_extendqisi2
 5195 0274 48EA0B08 		orr	r8, r8, fp
 5196 0278 8CF81080 		strb	r8, [ip, #16]
 5197              	.L356:
 5198              	.LVL408:
 345:../../libs/libDaisy/src/sys/../../../../libs/libDaisy/src/dev/oled_ssd130x.h ****         else
 5199              		.loc 11 345 42 view .LVU1214
 5200              	.LBE1573:
 5201              	.LBE1572:
 5202              	.LBE1571:
 243:../../libs/libDaisy/src/hid/disp/display.h ****             {
 5203              		.loc 10 243 13 view .LVU1215
 5204 027c 5FEA470C 		lsls	ip, r7, #1
 5205              	.LVL409:
 246:../../libs/libDaisy/src/hid/disp/display.h ****             }
 5206              		.loc 10 246 20 view .LVU1216
 5207 0280 18BF     		it	ne
 5208 0282 4B44     		addne	r3, r3, r9
 5209              	.LVL410:
 249:../../libs/libDaisy/src/hid/disp/display.h ****             {
 5210              		.loc 10 249 13 view .LVU1217
 5211 0284 E645     		cmp	lr, ip
 5212 0286 01DD     		ble	.L359
 251:../../libs/libDaisy/src/hid/disp/display.h ****                 y1 += signY;
 5213              		.loc 10 251 23 view .LVU1218
 5214 0288 7744     		add	r7, r7, lr
 5215              	.LVL411:
 252:../../libs/libDaisy/src/hid/disp/display.h ****             }
 5216              		.loc 10 252 20 view .LVU1219
 5217 028a 013E     		subs	r6, r6, #1
 5218              	.LVL412:
 5219              	.L359:
 239:../../libs/libDaisy/src/hid/disp/display.h ****         {
 5220              		.loc 10 239 26 is_stmt 1 view .LVU1220
 5221 028c 9942     		cmp	r1, r3
 5222 028e DED1     		bne	.L354
 239:../../libs/libDaisy/src/hid/disp/display.h ****         {
 5223              		.loc 10 239 26 is_stmt 0 view .LVU1221
 5224 0290 B442     		cmp	r4, r6
 5225 0292 DCD1     		bne	.L354
 5226              	.LVL413:
 5227              	.L353:
 239:../../libs/libDaisy/src/hid/disp/display.h ****         {
 5228              		.loc 10 239 26 view .LVU1222
ARM GAS  C:\Users\matte\AppData\Local\Temp\ccvehO0v.s 			page 151


 5229              	.LBE1560:
 5230              	.LBE1559:
 5231              	.LBB1582:
 5232              	.LBI1582:
 221:../../libs/libDaisy/src/hid/disp/display.h ****                   uint_fast8_t y1,
 5233              		.loc 10 221 10 is_stmt 1 view .LVU1223
 5234              	.LBB1583:
 228:../../libs/libDaisy/src/hid/disp/display.h ****         int_fast16_t signX  = ((x1 < x2) ? 1 : -1);
 5235              		.loc 10 228 52 is_stmt 0 view .LVU1224
 5236 0294 A2EB040E 		sub	lr, r2, r4
 228:../../libs/libDaisy/src/hid/disp/display.h ****         int_fast16_t signX  = ((x1 < x2) ? 1 : -1);
 5237              		.loc 10 228 22 view .LVU1225
 5238 0298 BEF1000F 		cmp	lr, #0
 5239 029c B8BF     		it	lt
 5240 029e CEF1000E 		rsblt	lr, lr, #0
 5241              	.LVL414:
 230:../../libs/libDaisy/src/hid/disp/display.h ****         int_fast16_t error  = deltaX - deltaY;
 5242              		.loc 10 230 42 view .LVU1226
 5243 02a2 A242     		cmp	r2, r4
 5244 02a4 8CBF     		ite	hi
 5245 02a6 4FF00108 		movhi	r8, #1
 5246 02aa 4FF0FF38 		movls	r8, #-1
 5247              	.LVL415:
 231:../../libs/libDaisy/src/hid/disp/display.h ****         int_fast16_t error2;
 5248              		.loc 10 231 22 view .LVU1227
 5249 02ae CEF1000C 		rsb	ip, lr, #0
 5250              	.LVL416:
 5251              	.LBB1584:
 5252              	.LBI1584:
  42:../../libs/libDaisy/src/hid/disp/oled_display.h ****     {
 5253              		.loc 9 42 10 is_stmt 1 view .LVU1228
 5254              	.LBB1585:
 5255              	.LBI1585:
 340:../../libs/libDaisy/src/sys/../../../../libs/libDaisy/src/dev/oled_ssd130x.h ****     {
 5256              		.loc 11 340 10 view .LVU1229
 5257              	.LBB1586:
 342:../../libs/libDaisy/src/sys/../../../../libs/libDaisy/src/dev/oled_ssd130x.h ****             return;
 5258              		.loc 11 342 9 is_stmt 0 view .LVU1230
 5259 02b2 BAF1000F 		cmp	r10, #0
 5260 02b6 0ED1     		bne	.L361
 5261 02b8 029B     		ldr	r3, [sp, #8]
 5262 02ba 63B9     		cbnz	r3, .L361
 345:../../libs/libDaisy/src/sys/../../../../libs/libDaisy/src/dev/oled_ssd130x.h ****         else
 5263              		.loc 11 345 28 view .LVU1231
 5264 02bc D308     		lsrs	r3, r2, #3
 345:../../libs/libDaisy/src/sys/../../../../libs/libDaisy/src/dev/oled_ssd130x.h ****         else
 5265              		.loc 11 345 54 view .LVU1232
 5266 02be 02F00707 		and	r7, r2, #7
 345:../../libs/libDaisy/src/sys/../../../../libs/libDaisy/src/dev/oled_ssd130x.h ****         else
 5267              		.loc 11 345 48 view .LVU1233
 5268 02c2 0126     		movs	r6, #1
 345:../../libs/libDaisy/src/sys/../../../../libs/libDaisy/src/dev/oled_ssd130x.h ****         else
 5269              		.loc 11 345 42 view .LVU1234
 5270 02c4 01EBC313 		add	r3, r1, r3, lsl #7
 5271 02c8 0344     		add	r3, r3, r0
 344:../../libs/libDaisy/src/sys/../../../../libs/libDaisy/src/dev/oled_ssd130x.h ****             buffer_[x + (y / 8) * width] |= (1 << (y % 8));
 5272              		.loc 11 344 9 view .LVU1235
ARM GAS  C:\Users\matte\AppData\Local\Temp\ccvehO0v.s 			page 152


 5273 02ca 002D     		cmp	r5, #0
 5274 02cc 7CD0     		beq	.L362
 345:../../libs/libDaisy/src/sys/../../../../libs/libDaisy/src/dev/oled_ssd130x.h ****         else
 5275              		.loc 11 345 48 view .LVU1236
 5276 02ce BE40     		lsls	r6, r6, r7
 345:../../libs/libDaisy/src/sys/../../../../libs/libDaisy/src/dev/oled_ssd130x.h ****         else
 5277              		.loc 11 345 42 view .LVU1237
 5278 02d0 1F7C     		ldrb	r7, [r3, #16]	@ zero_extendqisi2
 5279 02d2 3E43     		orrs	r6, r6, r7
 5280 02d4 1E74     		strb	r6, [r3, #16]
 5281              	.L361:
 5282              	.LVL417:
 345:../../libs/libDaisy/src/sys/../../../../libs/libDaisy/src/dev/oled_ssd130x.h ****         else
 5283              		.loc 11 345 42 view .LVU1238
 5284              	.LBE1586:
 5285              	.LBE1585:
 5286              	.LBE1584:
 239:../../libs/libDaisy/src/hid/disp/display.h ****         {
 5287              		.loc 10 239 26 is_stmt 1 view .LVU1239
 5288 02d6 019B     		ldr	r3, [sp, #4]
 5289 02d8 002B     		cmp	r3, #0
 5290 02da 7FF4CDAE 		bne	.L319
 5291 02de 6646     		mov	r6, ip
 5292 02e0 0B46     		mov	r3, r1
 5293              	.LVL418:
 5294              	.L363:
 5295              	.LBB1591:
 5296              	.LBI1591:
  42:../../libs/libDaisy/src/hid/disp/oled_display.h ****     {
 5297              		.loc 9 42 10 view .LVU1240
 5298              	.LBB1592:
 5299              	.LBI1592:
 340:../../libs/libDaisy/src/sys/../../../../libs/libDaisy/src/dev/oled_ssd130x.h ****     {
 5300              		.loc 11 340 10 view .LVU1241
 5301              	.LBB1593:
 342:../../libs/libDaisy/src/sys/../../../../libs/libDaisy/src/dev/oled_ssd130x.h ****             return;
 5302              		.loc 11 342 9 is_stmt 0 view .LVU1242
 5303 02e2 7F2B     		cmp	r3, #127
 5304 02e4 12D8     		bhi	.L365
 342:../../libs/libDaisy/src/sys/../../../../libs/libDaisy/src/dev/oled_ssd130x.h ****             return;
 5305              		.loc 11 342 9 view .LVU1243
 5306 02e6 3F2C     		cmp	r4, #63
 5307 02e8 10D8     		bhi	.L365
 345:../../libs/libDaisy/src/sys/../../../../libs/libDaisy/src/dev/oled_ssd130x.h ****         else
 5308              		.loc 11 345 28 view .LVU1244
 5309 02ea E708     		lsrs	r7, r4, #3
 345:../../libs/libDaisy/src/sys/../../../../libs/libDaisy/src/dev/oled_ssd130x.h ****         else
 5310              		.loc 11 345 54 view .LVU1245
 5311 02ec 04F0070A 		and	r10, r4, #7
 345:../../libs/libDaisy/src/sys/../../../../libs/libDaisy/src/dev/oled_ssd130x.h ****         else
 5312              		.loc 11 345 48 view .LVU1246
 5313 02f0 4FF00109 		mov	r9, #1
 345:../../libs/libDaisy/src/sys/../../../../libs/libDaisy/src/dev/oled_ssd130x.h ****         else
 5314              		.loc 11 345 42 view .LVU1247
 5315 02f4 03EBC717 		add	r7, r3, r7, lsl #7
 5316 02f8 0744     		add	r7, r7, r0
 344:../../libs/libDaisy/src/sys/../../../../libs/libDaisy/src/dev/oled_ssd130x.h ****             buffer_[x + (y / 8) * width] |= (1 << (y % 8));
ARM GAS  C:\Users\matte\AppData\Local\Temp\ccvehO0v.s 			page 153


 5317              		.loc 11 344 9 view .LVU1248
 5318 02fa A5B3     		cbz	r5, .L366
 345:../../libs/libDaisy/src/sys/../../../../libs/libDaisy/src/dev/oled_ssd130x.h ****         else
 5319              		.loc 11 345 48 view .LVU1249
 5320 02fc 09FA0AF9 		lsl	r9, r9, r10
 345:../../libs/libDaisy/src/sys/../../../../libs/libDaisy/src/dev/oled_ssd130x.h ****         else
 5321              		.loc 11 345 42 view .LVU1250
 5322 0300 97F810A0 		ldrb	r10, [r7, #16]	@ zero_extendqisi2
 5323 0304 49EA0A09 		orr	r9, r9, r10
 5324 0308 87F81090 		strb	r9, [r7, #16]
 5325              	.L365:
 5326              	.LVL419:
 345:../../libs/libDaisy/src/sys/../../../../libs/libDaisy/src/dev/oled_ssd130x.h ****         else
 5327              		.loc 11 345 42 view .LVU1251
 5328              	.LBE1593:
 5329              	.LBE1592:
 5330              	.LBE1591:
 243:../../libs/libDaisy/src/hid/disp/display.h ****             {
 5331              		.loc 10 243 13 view .LVU1252
 5332 030c BCEB460F 		cmp	ip, r6, lsl #1
 242:../../libs/libDaisy/src/hid/disp/display.h ****             if(error2 > -deltaY)
 5333              		.loc 10 242 20 view .LVU1253
 5334 0310 4FEA4607 		lsl	r7, r6, #1
 5335              	.LVL420:
 243:../../libs/libDaisy/src/hid/disp/display.h ****             {
 5336              		.loc 10 243 13 view .LVU1254
 5337 0314 02DA     		bge	.L367
 245:../../libs/libDaisy/src/hid/disp/display.h ****                 x1 += signX;
 5338              		.loc 10 245 23 view .LVU1255
 5339 0316 A6EB0E06 		sub	r6, r6, lr
 5340              	.LVL421:
 246:../../libs/libDaisy/src/hid/disp/display.h ****             }
 5341              		.loc 10 246 20 view .LVU1256
 5342 031a 013B     		subs	r3, r3, #1
 5343              	.LVL422:
 5344              	.L367:
 249:../../libs/libDaisy/src/hid/disp/display.h ****             {
 5345              		.loc 10 249 13 view .LVU1257
 5346 031c 07B1     		cbz	r7, .L368
 252:../../libs/libDaisy/src/hid/disp/display.h ****             }
 5347              		.loc 10 252 20 view .LVU1258
 5348 031e 4444     		add	r4, r4, r8
 5349              	.LVL423:
 5350              	.L368:
 239:../../libs/libDaisy/src/hid/disp/display.h ****         {
 5351              		.loc 10 239 26 is_stmt 1 view .LVU1259
 5352 0320 9942     		cmp	r1, r3
 5353 0322 DED1     		bne	.L363
 239:../../libs/libDaisy/src/hid/disp/display.h ****         {
 5354              		.loc 10 239 26 is_stmt 0 view .LVU1260
 5355 0324 A242     		cmp	r2, r4
 5356 0326 DCD1     		bne	.L363
 5357              	.LBE1583:
 5358              	.LBE1582:
 5359              	.LBE1635:
 281:../../libs/libDaisy/src/hid/disp/display.h **** 
 5360              		.loc 10 281 5 view .LVU1261
ARM GAS  C:\Users\matte\AppData\Local\Temp\ccvehO0v.s 			page 154


 5361 0328 07B0     		add	sp, sp, #28
 5362              		.cfi_remember_state
 5363              		.cfi_def_cfa_offset 36
 5364              		@ sp needed
 5365 032a BDE8F08F 		pop	{r4, r5, r6, r7, r8, r9, r10, fp, pc}
 5366              	.LVL424:
 5367              	.L328:
 5368              		.cfi_restore_state
 5369              	.LBB1636:
 5370              	.LBB1602:
 5371              	.LBB1519:
 5372              	.LBB1515:
  42:../../libs/libDaisy/src/hid/disp/oled_display.h ****     {
 5373              		.loc 9 42 10 is_stmt 1 view .LVU1262
 5374              	.LBB1504:
 340:../../libs/libDaisy/src/sys/../../../../libs/libDaisy/src/dev/oled_ssd130x.h ****     {
 5375              		.loc 11 340 10 view .LVU1263
 5376              	.LBB1500:
 342:../../libs/libDaisy/src/sys/../../../../libs/libDaisy/src/dev/oled_ssd130x.h ****             return;
 5377              		.loc 11 342 28 is_stmt 0 view .LVU1264
 5378 032e 3F2A     		cmp	r2, #63
 5379              	.LBE1500:
 5380              	.LBE1504:
 5381              	.LBE1515:
 229:../../libs/libDaisy/src/hid/disp/display.h ****         int_fast16_t signY  = ((y1 < y2) ? 1 : -1);
 5382              		.loc 10 229 42 view .LVU1265
 5383 0330 4FF0010A 		mov	r10, #1
 5384              	.LBB1516:
 5385              	.LBB1505:
 5386              	.LBB1501:
 342:../../libs/libDaisy/src/sys/../../../../libs/libDaisy/src/dev/oled_ssd130x.h ****             return;
 5387              		.loc 11 342 28 view .LVU1266
 5388 0334 94BF     		ite	ls
 5389 0336 0026     		movls	r6, #0
 5390 0338 0126     		movhi	r6, #1
 342:../../libs/libDaisy/src/sys/../../../../libs/libDaisy/src/dev/oled_ssd130x.h ****             return;
 5391              		.loc 11 342 14 view .LVU1267
 5392 033a 7F2B     		cmp	r3, #127
 342:../../libs/libDaisy/src/sys/../../../../libs/libDaisy/src/dev/oled_ssd130x.h ****             return;
 5393              		.loc 11 342 28 view .LVU1268
 5394 033c 0296     		str	r6, [sp, #8]
 342:../../libs/libDaisy/src/sys/../../../../libs/libDaisy/src/dev/oled_ssd130x.h ****             return;
 5395              		.loc 11 342 14 view .LVU1269
 5396 033e 94BF     		ite	ls
 5397 0340 0027     		movls	r7, #0
 5398 0342 0127     		movhi	r7, #1
 5399 0344 0097     		str	r7, [sp]
 342:../../libs/libDaisy/src/sys/../../../../libs/libDaisy/src/dev/oled_ssd130x.h ****             return;
 5400              		.loc 11 342 9 view .LVU1270
 5401 0346 002E     		cmp	r6, #0
 5402 0348 7FF4C8AE 		bne	.L332
 5403 034c 002F     		cmp	r7, #0
 5404 034e 3FF4AEAE 		beq	.L370
 5405 0352 C3E6     		b	.L332
 5406              	.LVL425:
 5407              	.L357:
 342:../../libs/libDaisy/src/sys/../../../../libs/libDaisy/src/dev/oled_ssd130x.h ****             return;
ARM GAS  C:\Users\matte\AppData\Local\Temp\ccvehO0v.s 			page 155


 5408              		.loc 11 342 9 view .LVU1271
 5409              	.LBE1501:
 5410              	.LBE1505:
 5411              	.LBE1516:
 5412              	.LBE1519:
 5413              	.LBE1602:
 5414              	.LBB1603:
 5415              	.LBB1580:
 5416              	.LBB1578:
 5417              	.LBB1577:
 5418              	.LBB1576:
 5419              	.LBB1574:
 5420              	.LBI1574:
 340:../../libs/libDaisy/src/sys/../../../../libs/libDaisy/src/dev/oled_ssd130x.h ****     {
 5421              		.loc 11 340 10 is_stmt 1 view .LVU1272
 5422              	.LBB1575:
 347:../../libs/libDaisy/src/sys/../../../../libs/libDaisy/src/dev/oled_ssd130x.h ****     }
 5423              		.loc 11 347 49 is_stmt 0 view .LVU1273
 5424 0354 08FA0BFB 		lsl	fp, r8, fp
 347:../../libs/libDaisy/src/sys/../../../../libs/libDaisy/src/dev/oled_ssd130x.h ****     }
 5425              		.loc 11 347 42 view .LVU1274
 5426 0358 9CF81080 		ldrb	r8, [ip, #16]	@ zero_extendqisi2
 5427 035c 28EA0B08 		bic	r8, r8, fp
 5428 0360 8CF81080 		strb	r8, [ip, #16]
 5429 0364 8AE7     		b	.L356
 5430              	.LVL426:
 5431              	.L366:
 347:../../libs/libDaisy/src/sys/../../../../libs/libDaisy/src/dev/oled_ssd130x.h ****     }
 5432              		.loc 11 347 42 view .LVU1275
 5433              	.LBE1575:
 5434              	.LBE1574:
 5435              	.LBE1576:
 5436              	.LBE1577:
 5437              	.LBE1578:
 5438              	.LBE1580:
 5439              	.LBE1603:
 5440              	.LBB1604:
 5441              	.LBB1600:
 5442              	.LBB1598:
 5443              	.LBB1597:
 5444              	.LBB1596:
 5445              	.LBB1594:
 5446              	.LBI1594:
 340:../../libs/libDaisy/src/sys/../../../../libs/libDaisy/src/dev/oled_ssd130x.h ****     {
 5447              		.loc 11 340 10 is_stmt 1 view .LVU1276
 5448              	.LBB1595:
 347:../../libs/libDaisy/src/sys/../../../../libs/libDaisy/src/dev/oled_ssd130x.h ****     }
 5449              		.loc 11 347 49 is_stmt 0 view .LVU1277
 5450 0366 09FA0AFA 		lsl	r10, r9, r10
 347:../../libs/libDaisy/src/sys/../../../../libs/libDaisy/src/dev/oled_ssd130x.h ****     }
 5451              		.loc 11 347 42 view .LVU1278
 5452 036a 97F81090 		ldrb	r9, [r7, #16]	@ zero_extendqisi2
 5453 036e 29EA0A09 		bic	r9, r9, r10
 5454 0372 87F81090 		strb	r9, [r7, #16]
 5455 0376 C9E7     		b	.L365
 5456              	.LVL427:
 5457              	.L336:
ARM GAS  C:\Users\matte\AppData\Local\Temp\ccvehO0v.s 			page 156


 347:../../libs/libDaisy/src/sys/../../../../libs/libDaisy/src/dev/oled_ssd130x.h ****     }
 5458              		.loc 11 347 42 view .LVU1279
 5459              	.LBE1595:
 5460              	.LBE1594:
 5461              	.LBE1596:
 5462              	.LBE1597:
 5463              	.LBE1598:
 5464              	.LBE1600:
 5465              	.LBE1604:
 5466              	.LBB1605:
 5467              	.LBB1520:
 5468              	.LBB1517:
 5469              	.LBB1514:
 5470              	.LBB1513:
 5471              	.LBB1511:
 5472              	.LBI1511:
 340:../../libs/libDaisy/src/sys/../../../../libs/libDaisy/src/dev/oled_ssd130x.h ****     {
 5473              		.loc 11 340 10 is_stmt 1 view .LVU1280
 5474              	.LBB1512:
 347:../../libs/libDaisy/src/sys/../../../../libs/libDaisy/src/dev/oled_ssd130x.h ****     }
 5475              		.loc 11 347 49 is_stmt 0 view .LVU1281
 5476 0378 09FA0BFB 		lsl	fp, r9, fp
 347:../../libs/libDaisy/src/sys/../../../../libs/libDaisy/src/dev/oled_ssd130x.h ****     }
 5477              		.loc 11 347 42 view .LVU1282
 5478 037c 97F81090 		ldrb	r9, [r7, #16]	@ zero_extendqisi2
 5479 0380 29EA0B09 		bic	r9, r9, fp
 5480 0384 87F81090 		strb	r9, [r7, #16]
 5481 0388 C5E6     		b	.L335
 5482              	.LVL428:
 5483              	.L347:
 347:../../libs/libDaisy/src/sys/../../../../libs/libDaisy/src/dev/oled_ssd130x.h ****     }
 5484              		.loc 11 347 42 view .LVU1283
 5485              	.LBE1512:
 5486              	.LBE1511:
 5487              	.LBE1513:
 5488              	.LBE1514:
 5489              	.LBE1517:
 5490              	.LBE1520:
 5491              	.LBE1605:
 5492              	.LBB1606:
 5493              	.LBB1556:
 5494              	.LBB1553:
 5495              	.LBB1552:
 5496              	.LBB1551:
 5497              	.LBB1549:
 5498              	.LBI1549:
 340:../../libs/libDaisy/src/sys/../../../../libs/libDaisy/src/dev/oled_ssd130x.h ****     {
 5499              		.loc 11 340 10 is_stmt 1 view .LVU1284
 5500              	.LBB1550:
 347:../../libs/libDaisy/src/sys/../../../../libs/libDaisy/src/dev/oled_ssd130x.h ****     }
 5501              		.loc 11 347 49 is_stmt 0 view .LVU1285
 5502 038a 0AFA0BFB 		lsl	fp, r10, fp
 347:../../libs/libDaisy/src/sys/../../../../libs/libDaisy/src/dev/oled_ssd130x.h ****     }
 5503              		.loc 11 347 42 view .LVU1286
 5504 038e 9EF810A0 		ldrb	r10, [lr, #16]	@ zero_extendqisi2
 5505 0392 2AEA0B0A 		bic	r10, r10, fp
 5506 0396 8EF810A0 		strb	r10, [lr, #16]
ARM GAS  C:\Users\matte\AppData\Local\Temp\ccvehO0v.s 			page 157


 5507 039a 18E7     		b	.L346
 5508              	.LVL429:
 5509              	.L339:
 347:../../libs/libDaisy/src/sys/../../../../libs/libDaisy/src/dev/oled_ssd130x.h ****     }
 5510              		.loc 11 347 42 view .LVU1287
 5511              	.LBE1550:
 5512              	.LBE1549:
 5513              	.LBE1551:
 5514              	.LBE1552:
 5515              	.LBE1553:
 5516              	.LBB1554:
 5517              	.LBB1540:
 5518              	.LBB1534:
 342:../../libs/libDaisy/src/sys/../../../../libs/libDaisy/src/dev/oled_ssd130x.h ****             return;
 5519              		.loc 11 342 9 view .LVU1288
 5520 039c 97BB     		cbnz	r7, .L378
 5521 039e 8EBB     		cbnz	r6, .L378
 5522              	.LBE1534:
 5523              	.LBE1540:
 5524              	.LBE1554:
 230:../../libs/libDaisy/src/hid/disp/display.h ****         int_fast16_t error  = deltaX - deltaY;
 5525              		.loc 10 230 42 view .LVU1289
 5526 03a0 0126     		movs	r6, #1
 5527 03a2 0096     		str	r6, [sp]
 5528              	.LBB1555:
 5529              	.LBB1541:
 5530              	.LBB1535:
 345:../../libs/libDaisy/src/sys/../../../../libs/libDaisy/src/dev/oled_ssd130x.h ****         else
 5531              		.loc 11 345 28 view .LVU1290
 5532 03a4 E608     		lsrs	r6, r4, #3
 345:../../libs/libDaisy/src/sys/../../../../libs/libDaisy/src/dev/oled_ssd130x.h ****         else
 5533              		.loc 11 345 42 view .LVU1291
 5534 03a6 03EBC616 		add	r6, r3, r6, lsl #7
 5535 03aa 0644     		add	r6, r6, r0
 344:../../libs/libDaisy/src/sys/../../../../libs/libDaisy/src/dev/oled_ssd130x.h ****             buffer_[x + (y / 8) * width] |= (1 << (y % 8));
 5536              		.loc 11 344 9 view .LVU1292
 5537 03ac 002D     		cmp	r5, #0
 5538 03ae 7FF4E2AE 		bne	.L413
 5539              	.LVL430:
 5540              	.L341:
 5541              	.LBB1528:
 5542              	.LBI1528:
 340:../../libs/libDaisy/src/sys/../../../../libs/libDaisy/src/dev/oled_ssd130x.h ****     {
 5543              		.loc 11 340 10 is_stmt 1 view .LVU1293
 5544              	.LBB1529:
 347:../../libs/libDaisy/src/sys/../../../../libs/libDaisy/src/dev/oled_ssd130x.h ****     }
 5545              		.loc 11 347 49 is_stmt 0 view .LVU1294
 5546 03b2 0127     		movs	r7, #1
 347:../../libs/libDaisy/src/sys/../../../../libs/libDaisy/src/dev/oled_ssd130x.h ****     }
 5547              		.loc 11 347 55 view .LVU1295
 5548 03b4 04F0070C 		and	ip, r4, #7
 347:../../libs/libDaisy/src/sys/../../../../libs/libDaisy/src/dev/oled_ssd130x.h ****     }
 5549              		.loc 11 347 42 view .LVU1296
 5550 03b8 0395     		str	r5, [sp, #12]
 347:../../libs/libDaisy/src/sys/../../../../libs/libDaisy/src/dev/oled_ssd130x.h ****     }
 5551              		.loc 11 347 49 view .LVU1297
 5552 03ba 07FA0CFC 		lsl	ip, r7, ip
ARM GAS  C:\Users\matte\AppData\Local\Temp\ccvehO0v.s 			page 158


 347:../../libs/libDaisy/src/sys/../../../../libs/libDaisy/src/dev/oled_ssd130x.h ****     }
 5553              		.loc 11 347 42 view .LVU1298
 5554 03be 377C     		ldrb	r7, [r6, #16]	@ zero_extendqisi2
 5555 03c0 27EA0C07 		bic	r7, r7, ip
 5556 03c4 3774     		strb	r7, [r6, #16]
 5557 03c6 E3E6     		b	.L340
 5558              	.LVL431:
 5559              	.L362:
 347:../../libs/libDaisy/src/sys/../../../../libs/libDaisy/src/dev/oled_ssd130x.h ****     }
 5560              		.loc 11 347 42 view .LVU1299
 5561              	.LBE1529:
 5562              	.LBE1528:
 5563              	.LBE1535:
 5564              	.LBE1541:
 5565              	.LBE1555:
 5566              	.LBE1556:
 5567              	.LBE1606:
 5568              	.LBB1607:
 5569              	.LBB1601:
 5570              	.LBB1599:
 5571              	.LBB1590:
 5572              	.LBB1589:
 5573              	.LBB1587:
 5574              	.LBI1587:
 340:../../libs/libDaisy/src/sys/../../../../libs/libDaisy/src/dev/oled_ssd130x.h ****     {
 5575              		.loc 11 340 10 is_stmt 1 view .LVU1300
 5576              	.LBB1588:
 347:../../libs/libDaisy/src/sys/../../../../libs/libDaisy/src/dev/oled_ssd130x.h ****     }
 5577              		.loc 11 347 49 is_stmt 0 view .LVU1301
 5578 03c8 06FA07F7 		lsl	r7, r6, r7
 347:../../libs/libDaisy/src/sys/../../../../libs/libDaisy/src/dev/oled_ssd130x.h ****     }
 5579              		.loc 11 347 42 view .LVU1302
 5580 03cc 1E7C     		ldrb	r6, [r3, #16]	@ zero_extendqisi2
 5581 03ce 26EA0706 		bic	r6, r6, r7
 5582 03d2 1E74     		strb	r6, [r3, #16]
 5583 03d4 7FE7     		b	.L361
 5584              	.LVL432:
 5585              	.L352:
 347:../../libs/libDaisy/src/sys/../../../../libs/libDaisy/src/dev/oled_ssd130x.h ****     }
 5586              		.loc 11 347 42 view .LVU1303
 5587              	.LBE1588:
 5588              	.LBE1587:
 5589              	.LBE1589:
 5590              	.LBE1590:
 5591              	.LBE1599:
 5592              	.LBE1601:
 5593              	.LBE1607:
 5594              	.LBB1608:
 5595              	.LBB1581:
 5596              	.LBB1579:
 5597              	.LBB1569:
 5598              	.LBB1567:
 5599              	.LBB1564:
 5600              	.LBI1564:
 340:../../libs/libDaisy/src/sys/../../../../libs/libDaisy/src/dev/oled_ssd130x.h ****     {
 5601              		.loc 11 340 10 is_stmt 1 view .LVU1304
 5602              	.LBB1565:
ARM GAS  C:\Users\matte\AppData\Local\Temp\ccvehO0v.s 			page 159


 347:../../libs/libDaisy/src/sys/../../../../libs/libDaisy/src/dev/oled_ssd130x.h ****     }
 5603              		.loc 11 347 49 is_stmt 0 view .LVU1305
 5604 03d6 0127     		movs	r7, #1
 347:../../libs/libDaisy/src/sys/../../../../libs/libDaisy/src/dev/oled_ssd130x.h ****     }
 5605              		.loc 11 347 55 view .LVU1306
 5606 03d8 04F0070C 		and	ip, r4, #7
 347:../../libs/libDaisy/src/sys/../../../../libs/libDaisy/src/dev/oled_ssd130x.h ****     }
 5607              		.loc 11 347 49 view .LVU1307
 5608 03dc 07FA0CFC 		lsl	ip, r7, ip
 347:../../libs/libDaisy/src/sys/../../../../libs/libDaisy/src/dev/oled_ssd130x.h ****     }
 5609              		.loc 11 347 42 view .LVU1308
 5610 03e0 377C     		ldrb	r7, [r6, #16]	@ zero_extendqisi2
 5611 03e2 27EA0C07 		bic	r7, r7, ip
 5612 03e6 3774     		strb	r7, [r6, #16]
 5613 03e8 2DE7     		b	.L351
 5614              	.LVL433:
 5615              	.L330:
 347:../../libs/libDaisy/src/sys/../../../../libs/libDaisy/src/dev/oled_ssd130x.h ****     }
 5616              		.loc 11 347 42 view .LVU1309
 5617              	.LBE1565:
 5618              	.LBE1564:
 5619              	.LBE1567:
 5620              	.LBE1569:
 5621              	.LBE1579:
 5622              	.LBE1581:
 5623              	.LBE1608:
 5624              	.LBB1609:
 5625              	.LBB1521:
 5626              	.LBB1518:
 5627              	.LBB1506:
 5628              	.LBB1502:
 5629              	.LBB1497:
 5630              	.LBI1497:
 340:../../libs/libDaisy/src/sys/../../../../libs/libDaisy/src/dev/oled_ssd130x.h ****     {
 5631              		.loc 11 340 10 is_stmt 1 view .LVU1310
 5632              	.LBB1498:
 347:../../libs/libDaisy/src/sys/../../../../libs/libDaisy/src/dev/oled_ssd130x.h ****     }
 5633              		.loc 11 347 49 is_stmt 0 view .LVU1311
 5634 03ea 07FA0CFC 		lsl	ip, r7, ip
 347:../../libs/libDaisy/src/sys/../../../../libs/libDaisy/src/dev/oled_ssd130x.h ****     }
 5635              		.loc 11 347 42 view .LVU1312
 5636 03ee 377C     		ldrb	r7, [r6, #16]	@ zero_extendqisi2
 5637 03f0 0295     		str	r5, [sp, #8]
 5638 03f2 27EA0C07 		bic	r7, r7, ip
 5639 03f6 0095     		str	r5, [sp]
 5640 03f8 3774     		strb	r7, [r6, #16]
 5641 03fa 6CE6     		b	.L329
 5642              	.LVL434:
 5643              	.L374:
 347:../../libs/libDaisy/src/sys/../../../../libs/libDaisy/src/dev/oled_ssd130x.h ****     }
 5644              		.loc 11 347 42 view .LVU1313
 5645              	.LBE1498:
 5646              	.LBE1497:
 5647              	.LBE1502:
 5648              	.LBE1506:
 5649              	.LBE1518:
 5650              	.LBE1521:
ARM GAS  C:\Users\matte\AppData\Local\Temp\ccvehO0v.s 			page 160


 5651              	.LBE1609:
 5652              	.LBB1610:
 5653              	.LBB1557:
 230:../../libs/libDaisy/src/hid/disp/display.h ****         int_fast16_t error  = deltaX - deltaY;
 5654              		.loc 10 230 42 view .LVU1314
 5655 03fc 4FF0FF36 		mov	r6, #-1
 5656 0400 0096     		str	r6, [sp]
 5657 0402 C5E6     		b	.L340
 5658              	.LVL435:
 5659              	.L378:
 230:../../libs/libDaisy/src/hid/disp/display.h ****         int_fast16_t error  = deltaX - deltaY;
 5660              		.loc 10 230 42 view .LVU1315
 5661 0404 0126     		movs	r6, #1
 5662 0406 0096     		str	r6, [sp]
 5663 0408 C5E6     		b	.L343
 5664              	.LVL436:
 5665              	.L411:
 230:../../libs/libDaisy/src/hid/disp/display.h ****         int_fast16_t error  = deltaX - deltaY;
 5666              		.loc 10 230 42 view .LVU1316
 5667              	.LBE1557:
 5668              	.LBE1610:
 5669              	.LBB1611:
 5670              	.LBB1522:
 239:../../libs/libDaisy/src/hid/disp/display.h ****         {
 5671              		.loc 10 239 19 view .LVU1317
 5672 040a 0126     		movs	r6, #1
 5673 040c 0496     		str	r6, [sp, #16]
 5674 040e 90E6     		b	.L331
 5675              	.LVL437:
 5676              	.L412:
 239:../../libs/libDaisy/src/hid/disp/display.h ****         {
 5677              		.loc 10 239 19 view .LVU1318
 5678              	.LBE1522:
 5679              	.LBE1611:
 5680              	.LBB1612:
 5681              	.LBB1558:
 239:../../libs/libDaisy/src/hid/disp/display.h ****         {
 5682              		.loc 10 239 33 view .LVU1319
 5683 0410 0126     		movs	r6, #1
 5684 0412 0196     		str	r6, [sp, #4]
 5685 0414 EDE6     		b	.L342
 5686              	.LBE1558:
 5687              	.LBE1612:
 5688              	.LBE1636:
 5689              		.cfi_endproc
 5690              	.LFE5476:
 5692 0416 00BF     		.section	.text._ZN5daisy13SSD130xDriverILj128ELj64ENS_19SSD130xI2CTransportEE4InitENS2_6ConfigE,"a
 5693              		.align	1
 5694              		.p2align 2,,3
 5695              		.weak	_ZN5daisy13SSD130xDriverILj128ELj64ENS_19SSD130xI2CTransportEE4InitENS2_6ConfigE
 5696              		.syntax unified
 5697              		.thumb
 5698              		.thumb_func
 5699              		.fpu fpv5-d16
 5701              	_ZN5daisy13SSD130xDriverILj128ELj64ENS_19SSD130xI2CTransportEE4InitENS2_6ConfigE:
 5702              	.LVL438:
 5703              	.LFB5320:
ARM GAS  C:\Users\matte\AppData\Local\Temp\ccvehO0v.s 			page 161


 241:../../libs/libDaisy/src/sys/../../../../libs/libDaisy/src/dev/oled_ssd130x.h ****     {
 5704              		.loc 11 241 10 is_stmt 1 view -0
 5705              		.cfi_startproc
 5706              		@ args = 28, pretend = 16, frame = 8
 5707              		@ frame_needed = 0, uses_anonymous_args = 0
 241:../../libs/libDaisy/src/sys/../../../../libs/libDaisy/src/dev/oled_ssd130x.h ****     {
 5708              		.loc 11 241 10 is_stmt 0 view .LVU1321
 5709 0000 84B0     		sub	sp, sp, #16
 5710              		.cfi_def_cfa_offset 16
 5711 0002 70B5     		push	{r4, r5, r6, lr}
 5712              		.cfi_def_cfa_offset 32
 5713              		.cfi_offset 4, -32
 5714              		.cfi_offset 5, -28
 5715              		.cfi_offset 6, -24
 5716              		.cfi_offset 14, -20
 5717 0004 84B0     		sub	sp, sp, #16
 5718              		.cfi_def_cfa_offset 48
 241:../../libs/libDaisy/src/sys/../../../../libs/libDaisy/src/dev/oled_ssd130x.h ****     {
 5719              		.loc 11 241 10 view .LVU1322
 5720 0006 0446     		mov	r4, r0
 5721              	.LVL439:
 5722              	.LBB1685:
 5723              	.LBI1685:
  37:../../libs/libDaisy/src/sys/../../../../libs/libDaisy/src/dev/oled_ssd130x.h ****     {
 5724              		.loc 11 37 10 is_stmt 1 view .LVU1323
 5725              	.LBB1686:
  39:../../libs/libDaisy/src/sys/../../../../libs/libDaisy/src/dev/oled_ssd130x.h ****         i2c_.Init(config.i2c_config);
 5726              		.loc 11 39 9 view .LVU1324
 5727              	.LBE1686:
 5728              	.LBE1685:
 5729              	.LBB1689:
 5730              	.LBB1690:
  45:../../libs/libDaisy/src/sys/../../../../libs/libDaisy/src/dev/oled_ssd130x.h ****     };
 5731              		.loc 11 45 30 is_stmt 0 view .LVU1325
 5732 0008 4FF47A76 		mov	r6, #1000
 5733              	.LBE1690:
 5734              	.LBE1689:
 241:../../libs/libDaisy/src/sys/../../../../libs/libDaisy/src/dev/oled_ssd130x.h ****     {
 5735              		.loc 11 241 10 view .LVU1326
 5736 000c 09AD     		add	r5, sp, #36
 5737 000e 85E80E00 		stm	r5, {r1, r2, r3}
 5738              	.LBB1693:
 5739              	.LBB1687:
  39:../../libs/libDaisy/src/sys/../../../../libs/libDaisy/src/dev/oled_ssd130x.h ****         i2c_.Init(config.i2c_config);
 5740              		.loc 11 39 22 view .LVU1327
 5741 0012 9DF83830 		ldrb	r3, [sp, #56]	@ zero_extendqisi2
  40:../../libs/libDaisy/src/sys/../../../../libs/libDaisy/src/dev/oled_ssd130x.h ****     };
 5742              		.loc 11 40 18 view .LVU1328
 5743 0016 2946     		mov	r1, r5
 5744              	.LBE1687:
 5745              	.LBE1693:
 5746              	.LBB1694:
 5747              	.LBB1691:
  44:../../libs/libDaisy/src/sys/../../../../libs/libDaisy/src/dev/oled_ssd130x.h ****         i2c_.TransmitBlocking(i2c_address_, buf, 2, 1000);
 5748              		.loc 11 44 17 view .LVU1329
 5749 0018 0025     		movs	r5, #0
 5750              	.LBE1691:
ARM GAS  C:\Users\matte\AppData\Local\Temp\ccvehO0v.s 			page 162


 5751              	.LBE1694:
 5752              	.LBB1695:
 5753              	.LBB1688:
  39:../../libs/libDaisy/src/sys/../../../../libs/libDaisy/src/dev/oled_ssd130x.h ****         i2c_.Init(config.i2c_config);
 5754              		.loc 11 39 22 view .LVU1330
 5755 001a 0371     		strb	r3, [r0, #4]
  40:../../libs/libDaisy/src/sys/../../../../libs/libDaisy/src/dev/oled_ssd130x.h ****     };
 5756              		.loc 11 40 9 is_stmt 1 view .LVU1331
  40:../../libs/libDaisy/src/sys/../../../../libs/libDaisy/src/dev/oled_ssd130x.h ****     };
 5757              		.loc 11 40 18 is_stmt 0 view .LVU1332
 5758 001c FFF7FEFF 		bl	_ZN5daisy9I2CHandle4InitERKNS0_6ConfigE
 5759              	.LVL440:
  40:../../libs/libDaisy/src/sys/../../../../libs/libDaisy/src/dev/oled_ssd130x.h ****     };
 5760              		.loc 11 40 18 view .LVU1333
 5761              	.LBE1688:
 5762              	.LBE1695:
 5763              	.LBB1696:
 5764              	.LBI1689:
  42:../../libs/libDaisy/src/sys/../../../../libs/libDaisy/src/dev/oled_ssd130x.h ****     {
 5765              		.loc 11 42 10 is_stmt 1 view .LVU1334
 5766              	.LBB1692:
  44:../../libs/libDaisy/src/sys/../../../../libs/libDaisy/src/dev/oled_ssd130x.h ****         i2c_.TransmitBlocking(i2c_address_, buf, 2, 1000);
 5767              		.loc 11 44 9 view .LVU1335
  44:../../libs/libDaisy/src/sys/../../../../libs/libDaisy/src/dev/oled_ssd130x.h ****         i2c_.TransmitBlocking(i2c_address_, buf, 2, 1000);
 5768              		.loc 11 44 36 is_stmt 0 view .LVU1336
 5769 0020 AE23     		movs	r3, #174
  45:../../libs/libDaisy/src/sys/../../../../libs/libDaisy/src/dev/oled_ssd130x.h ****     };
 5770              		.loc 11 45 30 view .LVU1337
 5771 0022 03AA     		add	r2, sp, #12
 5772 0024 0096     		str	r6, [sp]
  44:../../libs/libDaisy/src/sys/../../../../libs/libDaisy/src/dev/oled_ssd130x.h ****         i2c_.TransmitBlocking(i2c_address_, buf, 2, 1000);
 5773              		.loc 11 44 36 view .LVU1338
 5774 0026 8DF80D30 		strb	r3, [sp, #13]
  45:../../libs/libDaisy/src/sys/../../../../libs/libDaisy/src/dev/oled_ssd130x.h ****     };
 5775              		.loc 11 45 9 is_stmt 1 view .LVU1339
  45:../../libs/libDaisy/src/sys/../../../../libs/libDaisy/src/dev/oled_ssd130x.h ****     };
 5776              		.loc 11 45 30 is_stmt 0 view .LVU1340
 5777 002a 2046     		mov	r0, r4
 5778 002c 2179     		ldrb	r1, [r4, #4]	@ zero_extendqisi2
 5779 002e 0223     		movs	r3, #2
  44:../../libs/libDaisy/src/sys/../../../../libs/libDaisy/src/dev/oled_ssd130x.h ****         i2c_.TransmitBlocking(i2c_address_, buf, 2, 1000);
 5780              		.loc 11 44 17 view .LVU1341
 5781 0030 8DF80C50 		strb	r5, [sp, #12]
  45:../../libs/libDaisy/src/sys/../../../../libs/libDaisy/src/dev/oled_ssd130x.h ****     };
 5782              		.loc 11 45 30 view .LVU1342
 5783 0034 FFF7FEFF 		bl	_ZN5daisy9I2CHandle16TransmitBlockingEtPhtm
 5784              	.LVL441:
  45:../../libs/libDaisy/src/sys/../../../../libs/libDaisy/src/dev/oled_ssd130x.h ****     };
 5785              		.loc 11 45 30 view .LVU1343
 5786              	.LBE1692:
 5787              	.LBE1696:
 5788              	.LBB1697:
 5789              	.LBI1697:
  42:../../libs/libDaisy/src/sys/../../../../libs/libDaisy/src/dev/oled_ssd130x.h ****     {
 5790              		.loc 11 42 10 is_stmt 1 view .LVU1344
 5791              	.LBB1698:
  44:../../libs/libDaisy/src/sys/../../../../libs/libDaisy/src/dev/oled_ssd130x.h ****         i2c_.TransmitBlocking(i2c_address_, buf, 2, 1000);
ARM GAS  C:\Users\matte\AppData\Local\Temp\ccvehO0v.s 			page 163


 5792              		.loc 11 44 9 view .LVU1345
  44:../../libs/libDaisy/src/sys/../../../../libs/libDaisy/src/dev/oled_ssd130x.h ****         i2c_.TransmitBlocking(i2c_address_, buf, 2, 1000);
 5793              		.loc 11 44 36 is_stmt 0 view .LVU1346
 5794 0038 D523     		movs	r3, #213
  45:../../libs/libDaisy/src/sys/../../../../libs/libDaisy/src/dev/oled_ssd130x.h ****     };
 5795              		.loc 11 45 30 view .LVU1347
 5796 003a 03AA     		add	r2, sp, #12
 5797 003c 0096     		str	r6, [sp]
 5798 003e 2046     		mov	r0, r4
 5799 0040 2179     		ldrb	r1, [r4, #4]	@ zero_extendqisi2
  44:../../libs/libDaisy/src/sys/../../../../libs/libDaisy/src/dev/oled_ssd130x.h ****         i2c_.TransmitBlocking(i2c_address_, buf, 2, 1000);
 5800              		.loc 11 44 36 view .LVU1348
 5801 0042 8DF80D30 		strb	r3, [sp, #13]
  45:../../libs/libDaisy/src/sys/../../../../libs/libDaisy/src/dev/oled_ssd130x.h ****     };
 5802              		.loc 11 45 9 is_stmt 1 view .LVU1349
  45:../../libs/libDaisy/src/sys/../../../../libs/libDaisy/src/dev/oled_ssd130x.h ****     };
 5803              		.loc 11 45 30 is_stmt 0 view .LVU1350
 5804 0046 0223     		movs	r3, #2
  44:../../libs/libDaisy/src/sys/../../../../libs/libDaisy/src/dev/oled_ssd130x.h ****         i2c_.TransmitBlocking(i2c_address_, buf, 2, 1000);
 5805              		.loc 11 44 17 view .LVU1351
 5806 0048 8DF80C50 		strb	r5, [sp, #12]
  45:../../libs/libDaisy/src/sys/../../../../libs/libDaisy/src/dev/oled_ssd130x.h ****     };
 5807              		.loc 11 45 30 view .LVU1352
 5808 004c FFF7FEFF 		bl	_ZN5daisy9I2CHandle16TransmitBlockingEtPhtm
 5809              	.LVL442:
  45:../../libs/libDaisy/src/sys/../../../../libs/libDaisy/src/dev/oled_ssd130x.h ****     };
 5810              		.loc 11 45 30 view .LVU1353
 5811              	.LBE1698:
 5812              	.LBE1697:
 5813              	.LBB1699:
 5814              	.LBI1699:
  42:../../libs/libDaisy/src/sys/../../../../libs/libDaisy/src/dev/oled_ssd130x.h ****     {
 5815              		.loc 11 42 10 is_stmt 1 view .LVU1354
 5816              	.LBB1700:
  44:../../libs/libDaisy/src/sys/../../../../libs/libDaisy/src/dev/oled_ssd130x.h ****         i2c_.TransmitBlocking(i2c_address_, buf, 2, 1000);
 5817              		.loc 11 44 9 view .LVU1355
  44:../../libs/libDaisy/src/sys/../../../../libs/libDaisy/src/dev/oled_ssd130x.h ****         i2c_.TransmitBlocking(i2c_address_, buf, 2, 1000);
 5818              		.loc 11 44 36 is_stmt 0 view .LVU1356
 5819 0050 8023     		movs	r3, #128
  45:../../libs/libDaisy/src/sys/../../../../libs/libDaisy/src/dev/oled_ssd130x.h ****     };
 5820              		.loc 11 45 30 view .LVU1357
 5821 0052 03AA     		add	r2, sp, #12
 5822 0054 0096     		str	r6, [sp]
 5823 0056 2046     		mov	r0, r4
 5824 0058 2179     		ldrb	r1, [r4, #4]	@ zero_extendqisi2
  44:../../libs/libDaisy/src/sys/../../../../libs/libDaisy/src/dev/oled_ssd130x.h ****         i2c_.TransmitBlocking(i2c_address_, buf, 2, 1000);
 5825              		.loc 11 44 36 view .LVU1358
 5826 005a 8DF80D30 		strb	r3, [sp, #13]
  45:../../libs/libDaisy/src/sys/../../../../libs/libDaisy/src/dev/oled_ssd130x.h ****     };
 5827              		.loc 11 45 9 is_stmt 1 view .LVU1359
  45:../../libs/libDaisy/src/sys/../../../../libs/libDaisy/src/dev/oled_ssd130x.h ****     };
 5828              		.loc 11 45 30 is_stmt 0 view .LVU1360
 5829 005e 0223     		movs	r3, #2
  44:../../libs/libDaisy/src/sys/../../../../libs/libDaisy/src/dev/oled_ssd130x.h ****         i2c_.TransmitBlocking(i2c_address_, buf, 2, 1000);
 5830              		.loc 11 44 17 view .LVU1361
 5831 0060 8DF80C50 		strb	r5, [sp, #12]
  45:../../libs/libDaisy/src/sys/../../../../libs/libDaisy/src/dev/oled_ssd130x.h ****     };
ARM GAS  C:\Users\matte\AppData\Local\Temp\ccvehO0v.s 			page 164


 5832              		.loc 11 45 30 view .LVU1362
 5833 0064 FFF7FEFF 		bl	_ZN5daisy9I2CHandle16TransmitBlockingEtPhtm
 5834              	.LVL443:
  45:../../libs/libDaisy/src/sys/../../../../libs/libDaisy/src/dev/oled_ssd130x.h ****     };
 5835              		.loc 11 45 30 view .LVU1363
 5836              	.LBE1700:
 5837              	.LBE1699:
 5838              	.LBB1701:
 5839              	.LBI1701:
  42:../../libs/libDaisy/src/sys/../../../../libs/libDaisy/src/dev/oled_ssd130x.h ****     {
 5840              		.loc 11 42 10 is_stmt 1 view .LVU1364
 5841              	.LBB1702:
  44:../../libs/libDaisy/src/sys/../../../../libs/libDaisy/src/dev/oled_ssd130x.h ****         i2c_.TransmitBlocking(i2c_address_, buf, 2, 1000);
 5842              		.loc 11 44 9 view .LVU1365
  44:../../libs/libDaisy/src/sys/../../../../libs/libDaisy/src/dev/oled_ssd130x.h ****         i2c_.TransmitBlocking(i2c_address_, buf, 2, 1000);
 5843              		.loc 11 44 36 is_stmt 0 view .LVU1366
 5844 0068 A823     		movs	r3, #168
  45:../../libs/libDaisy/src/sys/../../../../libs/libDaisy/src/dev/oled_ssd130x.h ****     };
 5845              		.loc 11 45 30 view .LVU1367
 5846 006a 03AA     		add	r2, sp, #12
 5847 006c 0096     		str	r6, [sp]
 5848 006e 2046     		mov	r0, r4
 5849 0070 2179     		ldrb	r1, [r4, #4]	@ zero_extendqisi2
  44:../../libs/libDaisy/src/sys/../../../../libs/libDaisy/src/dev/oled_ssd130x.h ****         i2c_.TransmitBlocking(i2c_address_, buf, 2, 1000);
 5850              		.loc 11 44 36 view .LVU1368
 5851 0072 8DF80D30 		strb	r3, [sp, #13]
  45:../../libs/libDaisy/src/sys/../../../../libs/libDaisy/src/dev/oled_ssd130x.h ****     };
 5852              		.loc 11 45 9 is_stmt 1 view .LVU1369
  45:../../libs/libDaisy/src/sys/../../../../libs/libDaisy/src/dev/oled_ssd130x.h ****     };
 5853              		.loc 11 45 30 is_stmt 0 view .LVU1370
 5854 0076 0223     		movs	r3, #2
  44:../../libs/libDaisy/src/sys/../../../../libs/libDaisy/src/dev/oled_ssd130x.h ****         i2c_.TransmitBlocking(i2c_address_, buf, 2, 1000);
 5855              		.loc 11 44 17 view .LVU1371
 5856 0078 8DF80C50 		strb	r5, [sp, #12]
  45:../../libs/libDaisy/src/sys/../../../../libs/libDaisy/src/dev/oled_ssd130x.h ****     };
 5857              		.loc 11 45 30 view .LVU1372
 5858 007c FFF7FEFF 		bl	_ZN5daisy9I2CHandle16TransmitBlockingEtPhtm
 5859              	.LVL444:
  45:../../libs/libDaisy/src/sys/../../../../libs/libDaisy/src/dev/oled_ssd130x.h ****     };
 5860              		.loc 11 45 30 view .LVU1373
 5861              	.LBE1702:
 5862              	.LBE1701:
 5863              	.LBB1703:
 5864              	.LBI1703:
  42:../../libs/libDaisy/src/sys/../../../../libs/libDaisy/src/dev/oled_ssd130x.h ****     {
 5865              		.loc 11 42 10 is_stmt 1 view .LVU1374
 5866              	.LBB1704:
  44:../../libs/libDaisy/src/sys/../../../../libs/libDaisy/src/dev/oled_ssd130x.h ****         i2c_.TransmitBlocking(i2c_address_, buf, 2, 1000);
 5867              		.loc 11 44 9 view .LVU1375
  44:../../libs/libDaisy/src/sys/../../../../libs/libDaisy/src/dev/oled_ssd130x.h ****         i2c_.TransmitBlocking(i2c_address_, buf, 2, 1000);
 5868              		.loc 11 44 36 is_stmt 0 view .LVU1376
 5869 0080 3F23     		movs	r3, #63
  45:../../libs/libDaisy/src/sys/../../../../libs/libDaisy/src/dev/oled_ssd130x.h ****     };
 5870              		.loc 11 45 30 view .LVU1377
 5871 0082 03AA     		add	r2, sp, #12
 5872 0084 0096     		str	r6, [sp]
 5873 0086 2046     		mov	r0, r4
ARM GAS  C:\Users\matte\AppData\Local\Temp\ccvehO0v.s 			page 165


 5874 0088 2179     		ldrb	r1, [r4, #4]	@ zero_extendqisi2
  44:../../libs/libDaisy/src/sys/../../../../libs/libDaisy/src/dev/oled_ssd130x.h ****         i2c_.TransmitBlocking(i2c_address_, buf, 2, 1000);
 5875              		.loc 11 44 36 view .LVU1378
 5876 008a 8DF80D30 		strb	r3, [sp, #13]
  45:../../libs/libDaisy/src/sys/../../../../libs/libDaisy/src/dev/oled_ssd130x.h ****     };
 5877              		.loc 11 45 9 is_stmt 1 view .LVU1379
  45:../../libs/libDaisy/src/sys/../../../../libs/libDaisy/src/dev/oled_ssd130x.h ****     };
 5878              		.loc 11 45 30 is_stmt 0 view .LVU1380
 5879 008e 0223     		movs	r3, #2
  44:../../libs/libDaisy/src/sys/../../../../libs/libDaisy/src/dev/oled_ssd130x.h ****         i2c_.TransmitBlocking(i2c_address_, buf, 2, 1000);
 5880              		.loc 11 44 17 view .LVU1381
 5881 0090 8DF80C50 		strb	r5, [sp, #12]
  45:../../libs/libDaisy/src/sys/../../../../libs/libDaisy/src/dev/oled_ssd130x.h ****     };
 5882              		.loc 11 45 30 view .LVU1382
 5883 0094 FFF7FEFF 		bl	_ZN5daisy9I2CHandle16TransmitBlockingEtPhtm
 5884              	.LVL445:
  45:../../libs/libDaisy/src/sys/../../../../libs/libDaisy/src/dev/oled_ssd130x.h ****     };
 5885              		.loc 11 45 30 view .LVU1383
 5886              	.LBE1704:
 5887              	.LBE1703:
 5888              	.LBB1705:
 5889              	.LBI1705:
  42:../../libs/libDaisy/src/sys/../../../../libs/libDaisy/src/dev/oled_ssd130x.h ****     {
 5890              		.loc 11 42 10 is_stmt 1 view .LVU1384
 5891              	.LBB1706:
  44:../../libs/libDaisy/src/sys/../../../../libs/libDaisy/src/dev/oled_ssd130x.h ****         i2c_.TransmitBlocking(i2c_address_, buf, 2, 1000);
 5892              		.loc 11 44 9 view .LVU1385
  44:../../libs/libDaisy/src/sys/../../../../libs/libDaisy/src/dev/oled_ssd130x.h ****         i2c_.TransmitBlocking(i2c_address_, buf, 2, 1000);
 5893              		.loc 11 44 36 is_stmt 0 view .LVU1386
 5894 0098 DA23     		movs	r3, #218
  45:../../libs/libDaisy/src/sys/../../../../libs/libDaisy/src/dev/oled_ssd130x.h ****     };
 5895              		.loc 11 45 30 view .LVU1387
 5896 009a 03AA     		add	r2, sp, #12
 5897 009c 0096     		str	r6, [sp]
 5898 009e 2046     		mov	r0, r4
 5899 00a0 2179     		ldrb	r1, [r4, #4]	@ zero_extendqisi2
  44:../../libs/libDaisy/src/sys/../../../../libs/libDaisy/src/dev/oled_ssd130x.h ****         i2c_.TransmitBlocking(i2c_address_, buf, 2, 1000);
 5900              		.loc 11 44 36 view .LVU1388
 5901 00a2 8DF80D30 		strb	r3, [sp, #13]
  45:../../libs/libDaisy/src/sys/../../../../libs/libDaisy/src/dev/oled_ssd130x.h ****     };
 5902              		.loc 11 45 9 is_stmt 1 view .LVU1389
  45:../../libs/libDaisy/src/sys/../../../../libs/libDaisy/src/dev/oled_ssd130x.h ****     };
 5903              		.loc 11 45 30 is_stmt 0 view .LVU1390
 5904 00a6 0223     		movs	r3, #2
  44:../../libs/libDaisy/src/sys/../../../../libs/libDaisy/src/dev/oled_ssd130x.h ****         i2c_.TransmitBlocking(i2c_address_, buf, 2, 1000);
 5905              		.loc 11 44 17 view .LVU1391
 5906 00a8 8DF80C50 		strb	r5, [sp, #12]
  45:../../libs/libDaisy/src/sys/../../../../libs/libDaisy/src/dev/oled_ssd130x.h ****     };
 5907              		.loc 11 45 30 view .LVU1392
 5908 00ac FFF7FEFF 		bl	_ZN5daisy9I2CHandle16TransmitBlockingEtPhtm
 5909              	.LVL446:
  45:../../libs/libDaisy/src/sys/../../../../libs/libDaisy/src/dev/oled_ssd130x.h ****     };
 5910              		.loc 11 45 30 view .LVU1393
 5911              	.LBE1706:
 5912              	.LBE1705:
 5913              	.LBB1707:
 5914              	.LBI1707:
ARM GAS  C:\Users\matte\AppData\Local\Temp\ccvehO0v.s 			page 166


  42:../../libs/libDaisy/src/sys/../../../../libs/libDaisy/src/dev/oled_ssd130x.h ****     {
 5915              		.loc 11 42 10 is_stmt 1 view .LVU1394
 5916              	.LBB1708:
  44:../../libs/libDaisy/src/sys/../../../../libs/libDaisy/src/dev/oled_ssd130x.h ****         i2c_.TransmitBlocking(i2c_address_, buf, 2, 1000);
 5917              		.loc 11 44 9 view .LVU1395
  44:../../libs/libDaisy/src/sys/../../../../libs/libDaisy/src/dev/oled_ssd130x.h ****         i2c_.TransmitBlocking(i2c_address_, buf, 2, 1000);
 5918              		.loc 11 44 36 is_stmt 0 view .LVU1396
 5919 00b0 1223     		movs	r3, #18
  45:../../libs/libDaisy/src/sys/../../../../libs/libDaisy/src/dev/oled_ssd130x.h ****     };
 5920              		.loc 11 45 30 view .LVU1397
 5921 00b2 03AA     		add	r2, sp, #12
 5922 00b4 0096     		str	r6, [sp]
 5923 00b6 2046     		mov	r0, r4
 5924 00b8 2179     		ldrb	r1, [r4, #4]	@ zero_extendqisi2
  44:../../libs/libDaisy/src/sys/../../../../libs/libDaisy/src/dev/oled_ssd130x.h ****         i2c_.TransmitBlocking(i2c_address_, buf, 2, 1000);
 5925              		.loc 11 44 36 view .LVU1398
 5926 00ba 8DF80D30 		strb	r3, [sp, #13]
  45:../../libs/libDaisy/src/sys/../../../../libs/libDaisy/src/dev/oled_ssd130x.h ****     };
 5927              		.loc 11 45 9 is_stmt 1 view .LVU1399
  45:../../libs/libDaisy/src/sys/../../../../libs/libDaisy/src/dev/oled_ssd130x.h ****     };
 5928              		.loc 11 45 30 is_stmt 0 view .LVU1400
 5929 00be 0223     		movs	r3, #2
  44:../../libs/libDaisy/src/sys/../../../../libs/libDaisy/src/dev/oled_ssd130x.h ****         i2c_.TransmitBlocking(i2c_address_, buf, 2, 1000);
 5930              		.loc 11 44 17 view .LVU1401
 5931 00c0 8DF80C50 		strb	r5, [sp, #12]
  45:../../libs/libDaisy/src/sys/../../../../libs/libDaisy/src/dev/oled_ssd130x.h ****     };
 5932              		.loc 11 45 30 view .LVU1402
 5933 00c4 FFF7FEFF 		bl	_ZN5daisy9I2CHandle16TransmitBlockingEtPhtm
 5934              	.LVL447:
  45:../../libs/libDaisy/src/sys/../../../../libs/libDaisy/src/dev/oled_ssd130x.h ****     };
 5935              		.loc 11 45 30 view .LVU1403
 5936              	.LBE1708:
 5937              	.LBE1707:
 5938              	.LBB1709:
 5939              	.LBI1709:
  42:../../libs/libDaisy/src/sys/../../../../libs/libDaisy/src/dev/oled_ssd130x.h ****     {
 5940              		.loc 11 42 10 is_stmt 1 view .LVU1404
 5941              	.LBB1710:
  44:../../libs/libDaisy/src/sys/../../../../libs/libDaisy/src/dev/oled_ssd130x.h ****         i2c_.TransmitBlocking(i2c_address_, buf, 2, 1000);
 5942              		.loc 11 44 9 view .LVU1405
  44:../../libs/libDaisy/src/sys/../../../../libs/libDaisy/src/dev/oled_ssd130x.h ****         i2c_.TransmitBlocking(i2c_address_, buf, 2, 1000);
 5943              		.loc 11 44 36 is_stmt 0 view .LVU1406
 5944 00c8 D323     		movs	r3, #211
  45:../../libs/libDaisy/src/sys/../../../../libs/libDaisy/src/dev/oled_ssd130x.h ****     };
 5945              		.loc 11 45 30 view .LVU1407
 5946 00ca 03AA     		add	r2, sp, #12
 5947 00cc 0096     		str	r6, [sp]
 5948 00ce 2046     		mov	r0, r4
 5949 00d0 2179     		ldrb	r1, [r4, #4]	@ zero_extendqisi2
  44:../../libs/libDaisy/src/sys/../../../../libs/libDaisy/src/dev/oled_ssd130x.h ****         i2c_.TransmitBlocking(i2c_address_, buf, 2, 1000);
 5950              		.loc 11 44 36 view .LVU1408
 5951 00d2 8DF80D30 		strb	r3, [sp, #13]
  45:../../libs/libDaisy/src/sys/../../../../libs/libDaisy/src/dev/oled_ssd130x.h ****     };
 5952              		.loc 11 45 9 is_stmt 1 view .LVU1409
  45:../../libs/libDaisy/src/sys/../../../../libs/libDaisy/src/dev/oled_ssd130x.h ****     };
 5953              		.loc 11 45 30 is_stmt 0 view .LVU1410
 5954 00d6 0223     		movs	r3, #2
ARM GAS  C:\Users\matte\AppData\Local\Temp\ccvehO0v.s 			page 167


  44:../../libs/libDaisy/src/sys/../../../../libs/libDaisy/src/dev/oled_ssd130x.h ****         i2c_.TransmitBlocking(i2c_address_, buf, 2, 1000);
 5955              		.loc 11 44 17 view .LVU1411
 5956 00d8 8DF80C50 		strb	r5, [sp, #12]
  45:../../libs/libDaisy/src/sys/../../../../libs/libDaisy/src/dev/oled_ssd130x.h ****     };
 5957              		.loc 11 45 30 view .LVU1412
 5958 00dc FFF7FEFF 		bl	_ZN5daisy9I2CHandle16TransmitBlockingEtPhtm
 5959              	.LVL448:
  45:../../libs/libDaisy/src/sys/../../../../libs/libDaisy/src/dev/oled_ssd130x.h ****     };
 5960              		.loc 11 45 30 view .LVU1413
 5961              	.LBE1710:
 5962              	.LBE1709:
 5963              	.LBB1711:
 5964              	.LBI1711:
  42:../../libs/libDaisy/src/sys/../../../../libs/libDaisy/src/dev/oled_ssd130x.h ****     {
 5965              		.loc 11 42 10 is_stmt 1 view .LVU1414
 5966              	.LBB1712:
  44:../../libs/libDaisy/src/sys/../../../../libs/libDaisy/src/dev/oled_ssd130x.h ****         i2c_.TransmitBlocking(i2c_address_, buf, 2, 1000);
 5967              		.loc 11 44 9 view .LVU1415
  45:../../libs/libDaisy/src/sys/../../../../libs/libDaisy/src/dev/oled_ssd130x.h ****     };
 5968              		.loc 11 45 30 is_stmt 0 view .LVU1416
 5969 00e0 03AA     		add	r2, sp, #12
 5970 00e2 0096     		str	r6, [sp]
 5971 00e4 0223     		movs	r3, #2
 5972 00e6 2179     		ldrb	r1, [r4, #4]	@ zero_extendqisi2
 5973 00e8 2046     		mov	r0, r4
  44:../../libs/libDaisy/src/sys/../../../../libs/libDaisy/src/dev/oled_ssd130x.h ****         i2c_.TransmitBlocking(i2c_address_, buf, 2, 1000);
 5974              		.loc 11 44 17 view .LVU1417
 5975 00ea 8DF80C50 		strb	r5, [sp, #12]
  44:../../libs/libDaisy/src/sys/../../../../libs/libDaisy/src/dev/oled_ssd130x.h ****         i2c_.TransmitBlocking(i2c_address_, buf, 2, 1000);
 5976              		.loc 11 44 36 view .LVU1418
 5977 00ee 8DF80D50 		strb	r5, [sp, #13]
  45:../../libs/libDaisy/src/sys/../../../../libs/libDaisy/src/dev/oled_ssd130x.h ****     };
 5978              		.loc 11 45 9 is_stmt 1 view .LVU1419
  45:../../libs/libDaisy/src/sys/../../../../libs/libDaisy/src/dev/oled_ssd130x.h ****     };
 5979              		.loc 11 45 30 is_stmt 0 view .LVU1420
 5980 00f2 FFF7FEFF 		bl	_ZN5daisy9I2CHandle16TransmitBlockingEtPhtm
 5981              	.LVL449:
  45:../../libs/libDaisy/src/sys/../../../../libs/libDaisy/src/dev/oled_ssd130x.h ****     };
 5982              		.loc 11 45 30 view .LVU1421
 5983              	.LBE1712:
 5984              	.LBE1711:
 5985              	.LBB1713:
 5986              	.LBI1713:
  42:../../libs/libDaisy/src/sys/../../../../libs/libDaisy/src/dev/oled_ssd130x.h ****     {
 5987              		.loc 11 42 10 is_stmt 1 view .LVU1422
 5988              	.LBB1714:
  44:../../libs/libDaisy/src/sys/../../../../libs/libDaisy/src/dev/oled_ssd130x.h ****         i2c_.TransmitBlocking(i2c_address_, buf, 2, 1000);
 5989              		.loc 11 44 9 view .LVU1423
  44:../../libs/libDaisy/src/sys/../../../../libs/libDaisy/src/dev/oled_ssd130x.h ****         i2c_.TransmitBlocking(i2c_address_, buf, 2, 1000);
 5990              		.loc 11 44 36 is_stmt 0 view .LVU1424
 5991 00f6 4023     		movs	r3, #64
  45:../../libs/libDaisy/src/sys/../../../../libs/libDaisy/src/dev/oled_ssd130x.h ****     };
 5992              		.loc 11 45 30 view .LVU1425
 5993 00f8 03AA     		add	r2, sp, #12
 5994 00fa 0096     		str	r6, [sp]
 5995 00fc 2046     		mov	r0, r4
 5996 00fe 2179     		ldrb	r1, [r4, #4]	@ zero_extendqisi2
ARM GAS  C:\Users\matte\AppData\Local\Temp\ccvehO0v.s 			page 168


  44:../../libs/libDaisy/src/sys/../../../../libs/libDaisy/src/dev/oled_ssd130x.h ****         i2c_.TransmitBlocking(i2c_address_, buf, 2, 1000);
 5997              		.loc 11 44 36 view .LVU1426
 5998 0100 8DF80D30 		strb	r3, [sp, #13]
  45:../../libs/libDaisy/src/sys/../../../../libs/libDaisy/src/dev/oled_ssd130x.h ****     };
 5999              		.loc 11 45 9 is_stmt 1 view .LVU1427
  45:../../libs/libDaisy/src/sys/../../../../libs/libDaisy/src/dev/oled_ssd130x.h ****     };
 6000              		.loc 11 45 30 is_stmt 0 view .LVU1428
 6001 0104 0223     		movs	r3, #2
  44:../../libs/libDaisy/src/sys/../../../../libs/libDaisy/src/dev/oled_ssd130x.h ****         i2c_.TransmitBlocking(i2c_address_, buf, 2, 1000);
 6002              		.loc 11 44 17 view .LVU1429
 6003 0106 8DF80C50 		strb	r5, [sp, #12]
  45:../../libs/libDaisy/src/sys/../../../../libs/libDaisy/src/dev/oled_ssd130x.h ****     };
 6004              		.loc 11 45 30 view .LVU1430
 6005 010a FFF7FEFF 		bl	_ZN5daisy9I2CHandle16TransmitBlockingEtPhtm
 6006              	.LVL450:
  45:../../libs/libDaisy/src/sys/../../../../libs/libDaisy/src/dev/oled_ssd130x.h ****     };
 6007              		.loc 11 45 30 view .LVU1431
 6008              	.LBE1714:
 6009              	.LBE1713:
 6010              	.LBB1715:
 6011              	.LBI1715:
  42:../../libs/libDaisy/src/sys/../../../../libs/libDaisy/src/dev/oled_ssd130x.h ****     {
 6012              		.loc 11 42 10 is_stmt 1 view .LVU1432
 6013              	.LBB1716:
  44:../../libs/libDaisy/src/sys/../../../../libs/libDaisy/src/dev/oled_ssd130x.h ****         i2c_.TransmitBlocking(i2c_address_, buf, 2, 1000);
 6014              		.loc 11 44 9 view .LVU1433
  44:../../libs/libDaisy/src/sys/../../../../libs/libDaisy/src/dev/oled_ssd130x.h ****         i2c_.TransmitBlocking(i2c_address_, buf, 2, 1000);
 6015              		.loc 11 44 36 is_stmt 0 view .LVU1434
 6016 010e A623     		movs	r3, #166
  45:../../libs/libDaisy/src/sys/../../../../libs/libDaisy/src/dev/oled_ssd130x.h ****     };
 6017              		.loc 11 45 30 view .LVU1435
 6018 0110 03AA     		add	r2, sp, #12
 6019 0112 0096     		str	r6, [sp]
 6020 0114 2046     		mov	r0, r4
 6021 0116 2179     		ldrb	r1, [r4, #4]	@ zero_extendqisi2
  44:../../libs/libDaisy/src/sys/../../../../libs/libDaisy/src/dev/oled_ssd130x.h ****         i2c_.TransmitBlocking(i2c_address_, buf, 2, 1000);
 6022              		.loc 11 44 36 view .LVU1436
 6023 0118 8DF80D30 		strb	r3, [sp, #13]
  45:../../libs/libDaisy/src/sys/../../../../libs/libDaisy/src/dev/oled_ssd130x.h ****     };
 6024              		.loc 11 45 9 is_stmt 1 view .LVU1437
  45:../../libs/libDaisy/src/sys/../../../../libs/libDaisy/src/dev/oled_ssd130x.h ****     };
 6025              		.loc 11 45 30 is_stmt 0 view .LVU1438
 6026 011c 0223     		movs	r3, #2
  44:../../libs/libDaisy/src/sys/../../../../libs/libDaisy/src/dev/oled_ssd130x.h ****         i2c_.TransmitBlocking(i2c_address_, buf, 2, 1000);
 6027              		.loc 11 44 17 view .LVU1439
 6028 011e 8DF80C50 		strb	r5, [sp, #12]
  45:../../libs/libDaisy/src/sys/../../../../libs/libDaisy/src/dev/oled_ssd130x.h ****     };
 6029              		.loc 11 45 30 view .LVU1440
 6030 0122 FFF7FEFF 		bl	_ZN5daisy9I2CHandle16TransmitBlockingEtPhtm
 6031              	.LVL451:
  45:../../libs/libDaisy/src/sys/../../../../libs/libDaisy/src/dev/oled_ssd130x.h ****     };
 6032              		.loc 11 45 30 view .LVU1441
 6033              	.LBE1716:
 6034              	.LBE1715:
 6035              	.LBB1717:
 6036              	.LBI1717:
  42:../../libs/libDaisy/src/sys/../../../../libs/libDaisy/src/dev/oled_ssd130x.h ****     {
ARM GAS  C:\Users\matte\AppData\Local\Temp\ccvehO0v.s 			page 169


 6037              		.loc 11 42 10 is_stmt 1 view .LVU1442
 6038              	.LBB1718:
  44:../../libs/libDaisy/src/sys/../../../../libs/libDaisy/src/dev/oled_ssd130x.h ****         i2c_.TransmitBlocking(i2c_address_, buf, 2, 1000);
 6039              		.loc 11 44 9 view .LVU1443
  44:../../libs/libDaisy/src/sys/../../../../libs/libDaisy/src/dev/oled_ssd130x.h ****         i2c_.TransmitBlocking(i2c_address_, buf, 2, 1000);
 6040              		.loc 11 44 36 is_stmt 0 view .LVU1444
 6041 0126 A423     		movs	r3, #164
  45:../../libs/libDaisy/src/sys/../../../../libs/libDaisy/src/dev/oled_ssd130x.h ****     };
 6042              		.loc 11 45 30 view .LVU1445
 6043 0128 03AA     		add	r2, sp, #12
 6044 012a 0096     		str	r6, [sp]
 6045 012c 2046     		mov	r0, r4
 6046 012e 2179     		ldrb	r1, [r4, #4]	@ zero_extendqisi2
  44:../../libs/libDaisy/src/sys/../../../../libs/libDaisy/src/dev/oled_ssd130x.h ****         i2c_.TransmitBlocking(i2c_address_, buf, 2, 1000);
 6047              		.loc 11 44 36 view .LVU1446
 6048 0130 8DF80D30 		strb	r3, [sp, #13]
  45:../../libs/libDaisy/src/sys/../../../../libs/libDaisy/src/dev/oled_ssd130x.h ****     };
 6049              		.loc 11 45 9 is_stmt 1 view .LVU1447
  45:../../libs/libDaisy/src/sys/../../../../libs/libDaisy/src/dev/oled_ssd130x.h ****     };
 6050              		.loc 11 45 30 is_stmt 0 view .LVU1448
 6051 0134 0223     		movs	r3, #2
  44:../../libs/libDaisy/src/sys/../../../../libs/libDaisy/src/dev/oled_ssd130x.h ****         i2c_.TransmitBlocking(i2c_address_, buf, 2, 1000);
 6052              		.loc 11 44 17 view .LVU1449
 6053 0136 8DF80C50 		strb	r5, [sp, #12]
  45:../../libs/libDaisy/src/sys/../../../../libs/libDaisy/src/dev/oled_ssd130x.h ****     };
 6054              		.loc 11 45 30 view .LVU1450
 6055 013a FFF7FEFF 		bl	_ZN5daisy9I2CHandle16TransmitBlockingEtPhtm
 6056              	.LVL452:
  45:../../libs/libDaisy/src/sys/../../../../libs/libDaisy/src/dev/oled_ssd130x.h ****     };
 6057              		.loc 11 45 30 view .LVU1451
 6058              	.LBE1718:
 6059              	.LBE1717:
 6060              	.LBB1719:
 6061              	.LBI1719:
  42:../../libs/libDaisy/src/sys/../../../../libs/libDaisy/src/dev/oled_ssd130x.h ****     {
 6062              		.loc 11 42 10 is_stmt 1 view .LVU1452
 6063              	.LBB1720:
  44:../../libs/libDaisy/src/sys/../../../../libs/libDaisy/src/dev/oled_ssd130x.h ****         i2c_.TransmitBlocking(i2c_address_, buf, 2, 1000);
 6064              		.loc 11 44 9 view .LVU1453
  44:../../libs/libDaisy/src/sys/../../../../libs/libDaisy/src/dev/oled_ssd130x.h ****         i2c_.TransmitBlocking(i2c_address_, buf, 2, 1000);
 6065              		.loc 11 44 36 is_stmt 0 view .LVU1454
 6066 013e 8D23     		movs	r3, #141
  45:../../libs/libDaisy/src/sys/../../../../libs/libDaisy/src/dev/oled_ssd130x.h ****     };
 6067              		.loc 11 45 30 view .LVU1455
 6068 0140 03AA     		add	r2, sp, #12
 6069 0142 0096     		str	r6, [sp]
 6070 0144 2046     		mov	r0, r4
 6071 0146 2179     		ldrb	r1, [r4, #4]	@ zero_extendqisi2
  44:../../libs/libDaisy/src/sys/../../../../libs/libDaisy/src/dev/oled_ssd130x.h ****         i2c_.TransmitBlocking(i2c_address_, buf, 2, 1000);
 6072              		.loc 11 44 36 view .LVU1456
 6073 0148 8DF80D30 		strb	r3, [sp, #13]
  45:../../libs/libDaisy/src/sys/../../../../libs/libDaisy/src/dev/oled_ssd130x.h ****     };
 6074              		.loc 11 45 9 is_stmt 1 view .LVU1457
  45:../../libs/libDaisy/src/sys/../../../../libs/libDaisy/src/dev/oled_ssd130x.h ****     };
 6075              		.loc 11 45 30 is_stmt 0 view .LVU1458
 6076 014c 0223     		movs	r3, #2
  44:../../libs/libDaisy/src/sys/../../../../libs/libDaisy/src/dev/oled_ssd130x.h ****         i2c_.TransmitBlocking(i2c_address_, buf, 2, 1000);
ARM GAS  C:\Users\matte\AppData\Local\Temp\ccvehO0v.s 			page 170


 6077              		.loc 11 44 17 view .LVU1459
 6078 014e 8DF80C50 		strb	r5, [sp, #12]
  45:../../libs/libDaisy/src/sys/../../../../libs/libDaisy/src/dev/oled_ssd130x.h ****     };
 6079              		.loc 11 45 30 view .LVU1460
 6080 0152 FFF7FEFF 		bl	_ZN5daisy9I2CHandle16TransmitBlockingEtPhtm
 6081              	.LVL453:
  45:../../libs/libDaisy/src/sys/../../../../libs/libDaisy/src/dev/oled_ssd130x.h ****     };
 6082              		.loc 11 45 30 view .LVU1461
 6083              	.LBE1720:
 6084              	.LBE1719:
 6085              	.LBB1721:
 6086              	.LBI1721:
  42:../../libs/libDaisy/src/sys/../../../../libs/libDaisy/src/dev/oled_ssd130x.h ****     {
 6087              		.loc 11 42 10 is_stmt 1 view .LVU1462
 6088              	.LBB1722:
  44:../../libs/libDaisy/src/sys/../../../../libs/libDaisy/src/dev/oled_ssd130x.h ****         i2c_.TransmitBlocking(i2c_address_, buf, 2, 1000);
 6089              		.loc 11 44 9 view .LVU1463
  44:../../libs/libDaisy/src/sys/../../../../libs/libDaisy/src/dev/oled_ssd130x.h ****         i2c_.TransmitBlocking(i2c_address_, buf, 2, 1000);
 6090              		.loc 11 44 36 is_stmt 0 view .LVU1464
 6091 0156 1423     		movs	r3, #20
  45:../../libs/libDaisy/src/sys/../../../../libs/libDaisy/src/dev/oled_ssd130x.h ****     };
 6092              		.loc 11 45 30 view .LVU1465
 6093 0158 03AA     		add	r2, sp, #12
 6094 015a 0096     		str	r6, [sp]
 6095 015c 2046     		mov	r0, r4
 6096 015e 2179     		ldrb	r1, [r4, #4]	@ zero_extendqisi2
  44:../../libs/libDaisy/src/sys/../../../../libs/libDaisy/src/dev/oled_ssd130x.h ****         i2c_.TransmitBlocking(i2c_address_, buf, 2, 1000);
 6097              		.loc 11 44 36 view .LVU1466
 6098 0160 8DF80D30 		strb	r3, [sp, #13]
  45:../../libs/libDaisy/src/sys/../../../../libs/libDaisy/src/dev/oled_ssd130x.h ****     };
 6099              		.loc 11 45 9 is_stmt 1 view .LVU1467
  45:../../libs/libDaisy/src/sys/../../../../libs/libDaisy/src/dev/oled_ssd130x.h ****     };
 6100              		.loc 11 45 30 is_stmt 0 view .LVU1468
 6101 0164 0223     		movs	r3, #2
  44:../../libs/libDaisy/src/sys/../../../../libs/libDaisy/src/dev/oled_ssd130x.h ****         i2c_.TransmitBlocking(i2c_address_, buf, 2, 1000);
 6102              		.loc 11 44 17 view .LVU1469
 6103 0166 8DF80C50 		strb	r5, [sp, #12]
  45:../../libs/libDaisy/src/sys/../../../../libs/libDaisy/src/dev/oled_ssd130x.h ****     };
 6104              		.loc 11 45 30 view .LVU1470
 6105 016a FFF7FEFF 		bl	_ZN5daisy9I2CHandle16TransmitBlockingEtPhtm
 6106              	.LVL454:
  45:../../libs/libDaisy/src/sys/../../../../libs/libDaisy/src/dev/oled_ssd130x.h ****     };
 6107              		.loc 11 45 30 view .LVU1471
 6108              	.LBE1722:
 6109              	.LBE1721:
 6110              	.LBB1723:
 6111              	.LBI1723:
  42:../../libs/libDaisy/src/sys/../../../../libs/libDaisy/src/dev/oled_ssd130x.h ****     {
 6112              		.loc 11 42 10 is_stmt 1 view .LVU1472
 6113              	.LBB1724:
  44:../../libs/libDaisy/src/sys/../../../../libs/libDaisy/src/dev/oled_ssd130x.h ****         i2c_.TransmitBlocking(i2c_address_, buf, 2, 1000);
 6114              		.loc 11 44 9 view .LVU1473
  44:../../libs/libDaisy/src/sys/../../../../libs/libDaisy/src/dev/oled_ssd130x.h ****         i2c_.TransmitBlocking(i2c_address_, buf, 2, 1000);
 6115              		.loc 11 44 36 is_stmt 0 view .LVU1474
 6116 016e A123     		movs	r3, #161
  45:../../libs/libDaisy/src/sys/../../../../libs/libDaisy/src/dev/oled_ssd130x.h ****     };
 6117              		.loc 11 45 30 view .LVU1475
ARM GAS  C:\Users\matte\AppData\Local\Temp\ccvehO0v.s 			page 171


 6118 0170 03AA     		add	r2, sp, #12
 6119 0172 0096     		str	r6, [sp]
 6120 0174 2046     		mov	r0, r4
 6121 0176 2179     		ldrb	r1, [r4, #4]	@ zero_extendqisi2
  44:../../libs/libDaisy/src/sys/../../../../libs/libDaisy/src/dev/oled_ssd130x.h ****         i2c_.TransmitBlocking(i2c_address_, buf, 2, 1000);
 6122              		.loc 11 44 36 view .LVU1476
 6123 0178 8DF80D30 		strb	r3, [sp, #13]
  45:../../libs/libDaisy/src/sys/../../../../libs/libDaisy/src/dev/oled_ssd130x.h ****     };
 6124              		.loc 11 45 9 is_stmt 1 view .LVU1477
  45:../../libs/libDaisy/src/sys/../../../../libs/libDaisy/src/dev/oled_ssd130x.h ****     };
 6125              		.loc 11 45 30 is_stmt 0 view .LVU1478
 6126 017c 0223     		movs	r3, #2
  44:../../libs/libDaisy/src/sys/../../../../libs/libDaisy/src/dev/oled_ssd130x.h ****         i2c_.TransmitBlocking(i2c_address_, buf, 2, 1000);
 6127              		.loc 11 44 17 view .LVU1479
 6128 017e 8DF80C50 		strb	r5, [sp, #12]
  45:../../libs/libDaisy/src/sys/../../../../libs/libDaisy/src/dev/oled_ssd130x.h ****     };
 6129              		.loc 11 45 30 view .LVU1480
 6130 0182 FFF7FEFF 		bl	_ZN5daisy9I2CHandle16TransmitBlockingEtPhtm
 6131              	.LVL455:
  45:../../libs/libDaisy/src/sys/../../../../libs/libDaisy/src/dev/oled_ssd130x.h ****     };
 6132              		.loc 11 45 30 view .LVU1481
 6133              	.LBE1724:
 6134              	.LBE1723:
 6135              	.LBB1725:
 6136              	.LBI1725:
  42:../../libs/libDaisy/src/sys/../../../../libs/libDaisy/src/dev/oled_ssd130x.h ****     {
 6137              		.loc 11 42 10 is_stmt 1 view .LVU1482
 6138              	.LBB1726:
  44:../../libs/libDaisy/src/sys/../../../../libs/libDaisy/src/dev/oled_ssd130x.h ****         i2c_.TransmitBlocking(i2c_address_, buf, 2, 1000);
 6139              		.loc 11 44 9 view .LVU1483
  44:../../libs/libDaisy/src/sys/../../../../libs/libDaisy/src/dev/oled_ssd130x.h ****         i2c_.TransmitBlocking(i2c_address_, buf, 2, 1000);
 6140              		.loc 11 44 36 is_stmt 0 view .LVU1484
 6141 0186 C823     		movs	r3, #200
  45:../../libs/libDaisy/src/sys/../../../../libs/libDaisy/src/dev/oled_ssd130x.h ****     };
 6142              		.loc 11 45 30 view .LVU1485
 6143 0188 03AA     		add	r2, sp, #12
 6144 018a 0096     		str	r6, [sp]
 6145 018c 2046     		mov	r0, r4
 6146 018e 2179     		ldrb	r1, [r4, #4]	@ zero_extendqisi2
  44:../../libs/libDaisy/src/sys/../../../../libs/libDaisy/src/dev/oled_ssd130x.h ****         i2c_.TransmitBlocking(i2c_address_, buf, 2, 1000);
 6147              		.loc 11 44 36 view .LVU1486
 6148 0190 8DF80D30 		strb	r3, [sp, #13]
  45:../../libs/libDaisy/src/sys/../../../../libs/libDaisy/src/dev/oled_ssd130x.h ****     };
 6149              		.loc 11 45 9 is_stmt 1 view .LVU1487
  45:../../libs/libDaisy/src/sys/../../../../libs/libDaisy/src/dev/oled_ssd130x.h ****     };
 6150              		.loc 11 45 30 is_stmt 0 view .LVU1488
 6151 0194 0223     		movs	r3, #2
  44:../../libs/libDaisy/src/sys/../../../../libs/libDaisy/src/dev/oled_ssd130x.h ****         i2c_.TransmitBlocking(i2c_address_, buf, 2, 1000);
 6152              		.loc 11 44 17 view .LVU1489
 6153 0196 8DF80C50 		strb	r5, [sp, #12]
  45:../../libs/libDaisy/src/sys/../../../../libs/libDaisy/src/dev/oled_ssd130x.h ****     };
 6154              		.loc 11 45 30 view .LVU1490
 6155 019a FFF7FEFF 		bl	_ZN5daisy9I2CHandle16TransmitBlockingEtPhtm
 6156              	.LVL456:
  45:../../libs/libDaisy/src/sys/../../../../libs/libDaisy/src/dev/oled_ssd130x.h ****     };
 6157              		.loc 11 45 30 view .LVU1491
 6158              	.LBE1726:
ARM GAS  C:\Users\matte\AppData\Local\Temp\ccvehO0v.s 			page 172


 6159              	.LBE1725:
 6160              	.LBB1727:
 6161              	.LBI1727:
  42:../../libs/libDaisy/src/sys/../../../../libs/libDaisy/src/dev/oled_ssd130x.h ****     {
 6162              		.loc 11 42 10 is_stmt 1 view .LVU1492
 6163              	.LBB1728:
  44:../../libs/libDaisy/src/sys/../../../../libs/libDaisy/src/dev/oled_ssd130x.h ****         i2c_.TransmitBlocking(i2c_address_, buf, 2, 1000);
 6164              		.loc 11 44 9 view .LVU1493
  44:../../libs/libDaisy/src/sys/../../../../libs/libDaisy/src/dev/oled_ssd130x.h ****         i2c_.TransmitBlocking(i2c_address_, buf, 2, 1000);
 6165              		.loc 11 44 36 is_stmt 0 view .LVU1494
 6166 019e 8123     		movs	r3, #129
  45:../../libs/libDaisy/src/sys/../../../../libs/libDaisy/src/dev/oled_ssd130x.h ****     };
 6167              		.loc 11 45 30 view .LVU1495
 6168 01a0 03AA     		add	r2, sp, #12
 6169 01a2 0096     		str	r6, [sp]
 6170 01a4 2046     		mov	r0, r4
 6171 01a6 2179     		ldrb	r1, [r4, #4]	@ zero_extendqisi2
  44:../../libs/libDaisy/src/sys/../../../../libs/libDaisy/src/dev/oled_ssd130x.h ****         i2c_.TransmitBlocking(i2c_address_, buf, 2, 1000);
 6172              		.loc 11 44 36 view .LVU1496
 6173 01a8 8DF80D30 		strb	r3, [sp, #13]
  45:../../libs/libDaisy/src/sys/../../../../libs/libDaisy/src/dev/oled_ssd130x.h ****     };
 6174              		.loc 11 45 9 is_stmt 1 view .LVU1497
  45:../../libs/libDaisy/src/sys/../../../../libs/libDaisy/src/dev/oled_ssd130x.h ****     };
 6175              		.loc 11 45 30 is_stmt 0 view .LVU1498
 6176 01ac 0223     		movs	r3, #2
  44:../../libs/libDaisy/src/sys/../../../../libs/libDaisy/src/dev/oled_ssd130x.h ****         i2c_.TransmitBlocking(i2c_address_, buf, 2, 1000);
 6177              		.loc 11 44 17 view .LVU1499
 6178 01ae 8DF80C50 		strb	r5, [sp, #12]
  45:../../libs/libDaisy/src/sys/../../../../libs/libDaisy/src/dev/oled_ssd130x.h ****     };
 6179              		.loc 11 45 30 view .LVU1500
 6180 01b2 FFF7FEFF 		bl	_ZN5daisy9I2CHandle16TransmitBlockingEtPhtm
 6181              	.LVL457:
  45:../../libs/libDaisy/src/sys/../../../../libs/libDaisy/src/dev/oled_ssd130x.h ****     };
 6182              		.loc 11 45 30 view .LVU1501
 6183              	.LBE1728:
 6184              	.LBE1727:
 6185              	.LBB1729:
 6186              	.LBI1729:
  42:../../libs/libDaisy/src/sys/../../../../libs/libDaisy/src/dev/oled_ssd130x.h ****     {
 6187              		.loc 11 42 10 is_stmt 1 view .LVU1502
 6188              	.LBB1730:
  44:../../libs/libDaisy/src/sys/../../../../libs/libDaisy/src/dev/oled_ssd130x.h ****         i2c_.TransmitBlocking(i2c_address_, buf, 2, 1000);
 6189              		.loc 11 44 9 view .LVU1503
  44:../../libs/libDaisy/src/sys/../../../../libs/libDaisy/src/dev/oled_ssd130x.h ****         i2c_.TransmitBlocking(i2c_address_, buf, 2, 1000);
 6190              		.loc 11 44 36 is_stmt 0 view .LVU1504
 6191 01b6 8F23     		movs	r3, #143
  45:../../libs/libDaisy/src/sys/../../../../libs/libDaisy/src/dev/oled_ssd130x.h ****     };
 6192              		.loc 11 45 30 view .LVU1505
 6193 01b8 03AA     		add	r2, sp, #12
 6194 01ba 0096     		str	r6, [sp]
 6195 01bc 2046     		mov	r0, r4
 6196 01be 2179     		ldrb	r1, [r4, #4]	@ zero_extendqisi2
  44:../../libs/libDaisy/src/sys/../../../../libs/libDaisy/src/dev/oled_ssd130x.h ****         i2c_.TransmitBlocking(i2c_address_, buf, 2, 1000);
 6197              		.loc 11 44 36 view .LVU1506
 6198 01c0 8DF80D30 		strb	r3, [sp, #13]
  45:../../libs/libDaisy/src/sys/../../../../libs/libDaisy/src/dev/oled_ssd130x.h ****     };
 6199              		.loc 11 45 9 is_stmt 1 view .LVU1507
ARM GAS  C:\Users\matte\AppData\Local\Temp\ccvehO0v.s 			page 173


  45:../../libs/libDaisy/src/sys/../../../../libs/libDaisy/src/dev/oled_ssd130x.h ****     };
 6200              		.loc 11 45 30 is_stmt 0 view .LVU1508
 6201 01c4 0223     		movs	r3, #2
  44:../../libs/libDaisy/src/sys/../../../../libs/libDaisy/src/dev/oled_ssd130x.h ****         i2c_.TransmitBlocking(i2c_address_, buf, 2, 1000);
 6202              		.loc 11 44 17 view .LVU1509
 6203 01c6 8DF80C50 		strb	r5, [sp, #12]
  45:../../libs/libDaisy/src/sys/../../../../libs/libDaisy/src/dev/oled_ssd130x.h ****     };
 6204              		.loc 11 45 30 view .LVU1510
 6205 01ca FFF7FEFF 		bl	_ZN5daisy9I2CHandle16TransmitBlockingEtPhtm
 6206              	.LVL458:
  45:../../libs/libDaisy/src/sys/../../../../libs/libDaisy/src/dev/oled_ssd130x.h ****     };
 6207              		.loc 11 45 30 view .LVU1511
 6208              	.LBE1730:
 6209              	.LBE1729:
 6210              	.LBB1731:
 6211              	.LBI1731:
  42:../../libs/libDaisy/src/sys/../../../../libs/libDaisy/src/dev/oled_ssd130x.h ****     {
 6212              		.loc 11 42 10 is_stmt 1 view .LVU1512
 6213              	.LBB1732:
  44:../../libs/libDaisy/src/sys/../../../../libs/libDaisy/src/dev/oled_ssd130x.h ****         i2c_.TransmitBlocking(i2c_address_, buf, 2, 1000);
 6214              		.loc 11 44 9 view .LVU1513
  44:../../libs/libDaisy/src/sys/../../../../libs/libDaisy/src/dev/oled_ssd130x.h ****         i2c_.TransmitBlocking(i2c_address_, buf, 2, 1000);
 6215              		.loc 11 44 36 is_stmt 0 view .LVU1514
 6216 01ce D923     		movs	r3, #217
  45:../../libs/libDaisy/src/sys/../../../../libs/libDaisy/src/dev/oled_ssd130x.h ****     };
 6217              		.loc 11 45 30 view .LVU1515
 6218 01d0 03AA     		add	r2, sp, #12
 6219 01d2 0096     		str	r6, [sp]
 6220 01d4 2046     		mov	r0, r4
 6221 01d6 2179     		ldrb	r1, [r4, #4]	@ zero_extendqisi2
  44:../../libs/libDaisy/src/sys/../../../../libs/libDaisy/src/dev/oled_ssd130x.h ****         i2c_.TransmitBlocking(i2c_address_, buf, 2, 1000);
 6222              		.loc 11 44 36 view .LVU1516
 6223 01d8 8DF80D30 		strb	r3, [sp, #13]
  45:../../libs/libDaisy/src/sys/../../../../libs/libDaisy/src/dev/oled_ssd130x.h ****     };
 6224              		.loc 11 45 9 is_stmt 1 view .LVU1517
  45:../../libs/libDaisy/src/sys/../../../../libs/libDaisy/src/dev/oled_ssd130x.h ****     };
 6225              		.loc 11 45 30 is_stmt 0 view .LVU1518
 6226 01dc 0223     		movs	r3, #2
  44:../../libs/libDaisy/src/sys/../../../../libs/libDaisy/src/dev/oled_ssd130x.h ****         i2c_.TransmitBlocking(i2c_address_, buf, 2, 1000);
 6227              		.loc 11 44 17 view .LVU1519
 6228 01de 8DF80C50 		strb	r5, [sp, #12]
  45:../../libs/libDaisy/src/sys/../../../../libs/libDaisy/src/dev/oled_ssd130x.h ****     };
 6229              		.loc 11 45 30 view .LVU1520
 6230 01e2 FFF7FEFF 		bl	_ZN5daisy9I2CHandle16TransmitBlockingEtPhtm
 6231              	.LVL459:
  45:../../libs/libDaisy/src/sys/../../../../libs/libDaisy/src/dev/oled_ssd130x.h ****     };
 6232              		.loc 11 45 30 view .LVU1521
 6233              	.LBE1732:
 6234              	.LBE1731:
 6235              	.LBB1733:
 6236              	.LBI1733:
  42:../../libs/libDaisy/src/sys/../../../../libs/libDaisy/src/dev/oled_ssd130x.h ****     {
 6237              		.loc 11 42 10 is_stmt 1 view .LVU1522
 6238              	.LBB1734:
  44:../../libs/libDaisy/src/sys/../../../../libs/libDaisy/src/dev/oled_ssd130x.h ****         i2c_.TransmitBlocking(i2c_address_, buf, 2, 1000);
 6239              		.loc 11 44 9 view .LVU1523
  44:../../libs/libDaisy/src/sys/../../../../libs/libDaisy/src/dev/oled_ssd130x.h ****         i2c_.TransmitBlocking(i2c_address_, buf, 2, 1000);
ARM GAS  C:\Users\matte\AppData\Local\Temp\ccvehO0v.s 			page 174


 6240              		.loc 11 44 36 is_stmt 0 view .LVU1524
 6241 01e6 2523     		movs	r3, #37
  45:../../libs/libDaisy/src/sys/../../../../libs/libDaisy/src/dev/oled_ssd130x.h ****     };
 6242              		.loc 11 45 30 view .LVU1525
 6243 01e8 03AA     		add	r2, sp, #12
 6244 01ea 0096     		str	r6, [sp]
 6245 01ec 2046     		mov	r0, r4
 6246 01ee 2179     		ldrb	r1, [r4, #4]	@ zero_extendqisi2
  44:../../libs/libDaisy/src/sys/../../../../libs/libDaisy/src/dev/oled_ssd130x.h ****         i2c_.TransmitBlocking(i2c_address_, buf, 2, 1000);
 6247              		.loc 11 44 36 view .LVU1526
 6248 01f0 8DF80D30 		strb	r3, [sp, #13]
  45:../../libs/libDaisy/src/sys/../../../../libs/libDaisy/src/dev/oled_ssd130x.h ****     };
 6249              		.loc 11 45 9 is_stmt 1 view .LVU1527
  45:../../libs/libDaisy/src/sys/../../../../libs/libDaisy/src/dev/oled_ssd130x.h ****     };
 6250              		.loc 11 45 30 is_stmt 0 view .LVU1528
 6251 01f4 0223     		movs	r3, #2
  44:../../libs/libDaisy/src/sys/../../../../libs/libDaisy/src/dev/oled_ssd130x.h ****         i2c_.TransmitBlocking(i2c_address_, buf, 2, 1000);
 6252              		.loc 11 44 17 view .LVU1529
 6253 01f6 8DF80C50 		strb	r5, [sp, #12]
  45:../../libs/libDaisy/src/sys/../../../../libs/libDaisy/src/dev/oled_ssd130x.h ****     };
 6254              		.loc 11 45 30 view .LVU1530
 6255 01fa FFF7FEFF 		bl	_ZN5daisy9I2CHandle16TransmitBlockingEtPhtm
 6256              	.LVL460:
  45:../../libs/libDaisy/src/sys/../../../../libs/libDaisy/src/dev/oled_ssd130x.h ****     };
 6257              		.loc 11 45 30 view .LVU1531
 6258              	.LBE1734:
 6259              	.LBE1733:
 6260              	.LBB1735:
 6261              	.LBI1735:
  42:../../libs/libDaisy/src/sys/../../../../libs/libDaisy/src/dev/oled_ssd130x.h ****     {
 6262              		.loc 11 42 10 is_stmt 1 view .LVU1532
 6263              	.LBB1736:
  44:../../libs/libDaisy/src/sys/../../../../libs/libDaisy/src/dev/oled_ssd130x.h ****         i2c_.TransmitBlocking(i2c_address_, buf, 2, 1000);
 6264              		.loc 11 44 9 view .LVU1533
  44:../../libs/libDaisy/src/sys/../../../../libs/libDaisy/src/dev/oled_ssd130x.h ****         i2c_.TransmitBlocking(i2c_address_, buf, 2, 1000);
 6265              		.loc 11 44 36 is_stmt 0 view .LVU1534
 6266 01fe DB23     		movs	r3, #219
  45:../../libs/libDaisy/src/sys/../../../../libs/libDaisy/src/dev/oled_ssd130x.h ****     };
 6267              		.loc 11 45 30 view .LVU1535
 6268 0200 03AA     		add	r2, sp, #12
 6269 0202 0096     		str	r6, [sp]
 6270 0204 2046     		mov	r0, r4
 6271 0206 2179     		ldrb	r1, [r4, #4]	@ zero_extendqisi2
  44:../../libs/libDaisy/src/sys/../../../../libs/libDaisy/src/dev/oled_ssd130x.h ****         i2c_.TransmitBlocking(i2c_address_, buf, 2, 1000);
 6272              		.loc 11 44 36 view .LVU1536
 6273 0208 8DF80D30 		strb	r3, [sp, #13]
  45:../../libs/libDaisy/src/sys/../../../../libs/libDaisy/src/dev/oled_ssd130x.h ****     };
 6274              		.loc 11 45 9 is_stmt 1 view .LVU1537
  45:../../libs/libDaisy/src/sys/../../../../libs/libDaisy/src/dev/oled_ssd130x.h ****     };
 6275              		.loc 11 45 30 is_stmt 0 view .LVU1538
 6276 020c 0223     		movs	r3, #2
  44:../../libs/libDaisy/src/sys/../../../../libs/libDaisy/src/dev/oled_ssd130x.h ****         i2c_.TransmitBlocking(i2c_address_, buf, 2, 1000);
 6277              		.loc 11 44 17 view .LVU1539
 6278 020e 8DF80C50 		strb	r5, [sp, #12]
  45:../../libs/libDaisy/src/sys/../../../../libs/libDaisy/src/dev/oled_ssd130x.h ****     };
 6279              		.loc 11 45 30 view .LVU1540
 6280 0212 FFF7FEFF 		bl	_ZN5daisy9I2CHandle16TransmitBlockingEtPhtm
ARM GAS  C:\Users\matte\AppData\Local\Temp\ccvehO0v.s 			page 175


 6281              	.LVL461:
  45:../../libs/libDaisy/src/sys/../../../../libs/libDaisy/src/dev/oled_ssd130x.h ****     };
 6282              		.loc 11 45 30 view .LVU1541
 6283              	.LBE1736:
 6284              	.LBE1735:
 6285              	.LBB1737:
 6286              	.LBI1737:
  42:../../libs/libDaisy/src/sys/../../../../libs/libDaisy/src/dev/oled_ssd130x.h ****     {
 6287              		.loc 11 42 10 is_stmt 1 view .LVU1542
 6288              	.LBB1738:
  44:../../libs/libDaisy/src/sys/../../../../libs/libDaisy/src/dev/oled_ssd130x.h ****         i2c_.TransmitBlocking(i2c_address_, buf, 2, 1000);
 6289              		.loc 11 44 9 view .LVU1543
  44:../../libs/libDaisy/src/sys/../../../../libs/libDaisy/src/dev/oled_ssd130x.h ****         i2c_.TransmitBlocking(i2c_address_, buf, 2, 1000);
 6290              		.loc 11 44 36 is_stmt 0 view .LVU1544
 6291 0216 3423     		movs	r3, #52
  45:../../libs/libDaisy/src/sys/../../../../libs/libDaisy/src/dev/oled_ssd130x.h ****     };
 6292              		.loc 11 45 30 view .LVU1545
 6293 0218 03AA     		add	r2, sp, #12
 6294 021a 0096     		str	r6, [sp]
 6295 021c 2046     		mov	r0, r4
 6296 021e 2179     		ldrb	r1, [r4, #4]	@ zero_extendqisi2
  44:../../libs/libDaisy/src/sys/../../../../libs/libDaisy/src/dev/oled_ssd130x.h ****         i2c_.TransmitBlocking(i2c_address_, buf, 2, 1000);
 6297              		.loc 11 44 36 view .LVU1546
 6298 0220 8DF80D30 		strb	r3, [sp, #13]
  45:../../libs/libDaisy/src/sys/../../../../libs/libDaisy/src/dev/oled_ssd130x.h ****     };
 6299              		.loc 11 45 9 is_stmt 1 view .LVU1547
  45:../../libs/libDaisy/src/sys/../../../../libs/libDaisy/src/dev/oled_ssd130x.h ****     };
 6300              		.loc 11 45 30 is_stmt 0 view .LVU1548
 6301 0224 0223     		movs	r3, #2
  44:../../libs/libDaisy/src/sys/../../../../libs/libDaisy/src/dev/oled_ssd130x.h ****         i2c_.TransmitBlocking(i2c_address_, buf, 2, 1000);
 6302              		.loc 11 44 17 view .LVU1549
 6303 0226 8DF80C50 		strb	r5, [sp, #12]
  45:../../libs/libDaisy/src/sys/../../../../libs/libDaisy/src/dev/oled_ssd130x.h ****     };
 6304              		.loc 11 45 30 view .LVU1550
 6305 022a FFF7FEFF 		bl	_ZN5daisy9I2CHandle16TransmitBlockingEtPhtm
 6306              	.LVL462:
  45:../../libs/libDaisy/src/sys/../../../../libs/libDaisy/src/dev/oled_ssd130x.h ****     };
 6307              		.loc 11 45 30 view .LVU1551
 6308              	.LBE1738:
 6309              	.LBE1737:
 6310              	.LBB1739:
 6311              	.LBI1739:
  42:../../libs/libDaisy/src/sys/../../../../libs/libDaisy/src/dev/oled_ssd130x.h ****     {
 6312              		.loc 11 42 10 is_stmt 1 view .LVU1552
 6313              	.LBB1740:
  44:../../libs/libDaisy/src/sys/../../../../libs/libDaisy/src/dev/oled_ssd130x.h ****         i2c_.TransmitBlocking(i2c_address_, buf, 2, 1000);
 6314              		.loc 11 44 9 view .LVU1553
  44:../../libs/libDaisy/src/sys/../../../../libs/libDaisy/src/dev/oled_ssd130x.h ****         i2c_.TransmitBlocking(i2c_address_, buf, 2, 1000);
 6315              		.loc 11 44 36 is_stmt 0 view .LVU1554
 6316 022e AF21     		movs	r1, #175
  45:../../libs/libDaisy/src/sys/../../../../libs/libDaisy/src/dev/oled_ssd130x.h ****     };
 6317              		.loc 11 45 30 view .LVU1555
 6318 0230 0096     		str	r6, [sp]
 6319 0232 03AA     		add	r2, sp, #12
 6320 0234 0223     		movs	r3, #2
  44:../../libs/libDaisy/src/sys/../../../../libs/libDaisy/src/dev/oled_ssd130x.h ****         i2c_.TransmitBlocking(i2c_address_, buf, 2, 1000);
 6321              		.loc 11 44 36 view .LVU1556
ARM GAS  C:\Users\matte\AppData\Local\Temp\ccvehO0v.s 			page 176


 6322 0236 8DF80D10 		strb	r1, [sp, #13]
  45:../../libs/libDaisy/src/sys/../../../../libs/libDaisy/src/dev/oled_ssd130x.h ****     };
 6323              		.loc 11 45 9 is_stmt 1 view .LVU1557
  45:../../libs/libDaisy/src/sys/../../../../libs/libDaisy/src/dev/oled_ssd130x.h ****     };
 6324              		.loc 11 45 30 is_stmt 0 view .LVU1558
 6325 023a 2046     		mov	r0, r4
 6326 023c 2179     		ldrb	r1, [r4, #4]	@ zero_extendqisi2
  44:../../libs/libDaisy/src/sys/../../../../libs/libDaisy/src/dev/oled_ssd130x.h ****         i2c_.TransmitBlocking(i2c_address_, buf, 2, 1000);
 6327              		.loc 11 44 17 view .LVU1559
 6328 023e 8DF80C50 		strb	r5, [sp, #12]
  45:../../libs/libDaisy/src/sys/../../../../libs/libDaisy/src/dev/oled_ssd130x.h ****     };
 6329              		.loc 11 45 30 view .LVU1560
 6330 0242 FFF7FEFF 		bl	_ZN5daisy9I2CHandle16TransmitBlockingEtPhtm
 6331              	.LVL463:
  45:../../libs/libDaisy/src/sys/../../../../libs/libDaisy/src/dev/oled_ssd130x.h ****     };
 6332              		.loc 11 45 30 view .LVU1561
 6333              	.LBE1740:
 6334              	.LBE1739:
 335:../../libs/libDaisy/src/sys/../../../../libs/libDaisy/src/dev/oled_ssd130x.h **** 
 6335              		.loc 11 335 5 view .LVU1562
 6336 0246 04B0     		add	sp, sp, #16
 6337              		.cfi_def_cfa_offset 32
 6338              		@ sp needed
 6339 0248 BDE87040 		pop	{r4, r5, r6, lr}
 6340              		.cfi_restore 14
 6341              		.cfi_restore 6
 6342              		.cfi_restore 5
 6343              		.cfi_restore 4
 6344              		.cfi_def_cfa_offset 16
 6345              	.LVL464:
 335:../../libs/libDaisy/src/sys/../../../../libs/libDaisy/src/dev/oled_ssd130x.h **** 
 6346              		.loc 11 335 5 view .LVU1563
 6347 024c 04B0     		add	sp, sp, #16
 6348              		.cfi_def_cfa_offset 0
 6349 024e 7047     		bx	lr
 6350              		.cfi_endproc
 6351              	.LFE5320:
 6353              		.section	.text._ZN5daisy6Mpr121INS_18Mpr121I2CTransportEE13WriteRegisterEhh,"axG",%progbits,_ZN5da
 6354              		.align	1
 6355              		.p2align 2,,3
 6356              		.weak	_ZN5daisy6Mpr121INS_18Mpr121I2CTransportEE13WriteRegisterEhh
 6357              		.syntax unified
 6358              		.thumb
 6359              		.thumb_func
 6360              		.fpu fpv5-d16
 6362              	_ZN5daisy6Mpr121INS_18Mpr121I2CTransportEE13WriteRegisterEhh:
 6363              	.LVL465:
 6364              	.LFB5322:
 101:../../libs/libDaisy/src/dev/mpr121.h **** 
 102:../../libs/libDaisy/src/dev/mpr121.h ****     struct Config
 103:../../libs/libDaisy/src/dev/mpr121.h ****     {
 104:../../libs/libDaisy/src/dev/mpr121.h ****         typename Transport::Config transport_config;
 105:../../libs/libDaisy/src/dev/mpr121.h ****         uint8_t                    touch_threshold;
 106:../../libs/libDaisy/src/dev/mpr121.h ****         uint8_t                    release_threshold;
 107:../../libs/libDaisy/src/dev/mpr121.h **** 
 108:../../libs/libDaisy/src/dev/mpr121.h ****         Config()
 109:../../libs/libDaisy/src/dev/mpr121.h ****         {
ARM GAS  C:\Users\matte\AppData\Local\Temp\ccvehO0v.s 			page 177


 110:../../libs/libDaisy/src/dev/mpr121.h ****             touch_threshold   = MPR121_TOUCH_THRESHOLD_DEFAULT;
 111:../../libs/libDaisy/src/dev/mpr121.h ****             release_threshold = MPR121_RELEASE_THRESHOLD_DEFAULT;
 112:../../libs/libDaisy/src/dev/mpr121.h ****         }
 113:../../libs/libDaisy/src/dev/mpr121.h ****     };
 114:../../libs/libDaisy/src/dev/mpr121.h **** 
 115:../../libs/libDaisy/src/dev/mpr121.h ****     enum Result
 116:../../libs/libDaisy/src/dev/mpr121.h ****     {
 117:../../libs/libDaisy/src/dev/mpr121.h ****         OK = 0,
 118:../../libs/libDaisy/src/dev/mpr121.h ****         ERR
 119:../../libs/libDaisy/src/dev/mpr121.h ****     };
 120:../../libs/libDaisy/src/dev/mpr121.h **** 
 121:../../libs/libDaisy/src/dev/mpr121.h ****     /** Initialize the MPR121 device
 122:../../libs/libDaisy/src/dev/mpr121.h ****         \param config Configuration settings
 123:../../libs/libDaisy/src/dev/mpr121.h ****     */
 124:../../libs/libDaisy/src/dev/mpr121.h ****     Result Init(Config config)
 125:../../libs/libDaisy/src/dev/mpr121.h ****     {
 126:../../libs/libDaisy/src/dev/mpr121.h ****         config_ = config;
 127:../../libs/libDaisy/src/dev/mpr121.h **** 
 128:../../libs/libDaisy/src/dev/mpr121.h ****         SetTransportErr(transport_.Init(config_.transport_config));
 129:../../libs/libDaisy/src/dev/mpr121.h **** 
 130:../../libs/libDaisy/src/dev/mpr121.h ****         // soft reset
 131:../../libs/libDaisy/src/dev/mpr121.h ****         WriteRegister(MPR121_SOFTRESET, 0x63);
 132:../../libs/libDaisy/src/dev/mpr121.h ****         System::Delay(1);
 133:../../libs/libDaisy/src/dev/mpr121.h **** 
 134:../../libs/libDaisy/src/dev/mpr121.h ****         WriteRegister(MPR121_ECR, 0x0);
 135:../../libs/libDaisy/src/dev/mpr121.h **** 
 136:../../libs/libDaisy/src/dev/mpr121.h ****         // this doesn't work for some reason...
 137:../../libs/libDaisy/src/dev/mpr121.h ****         // uint8_t c = ReadRegister8(MPR121_CONFIG2);
 138:../../libs/libDaisy/src/dev/mpr121.h **** 
 139:../../libs/libDaisy/src/dev/mpr121.h ****         // if(c != 0x24)
 140:../../libs/libDaisy/src/dev/mpr121.h ****         //     return ERR;
 141:../../libs/libDaisy/src/dev/mpr121.h **** 
 142:../../libs/libDaisy/src/dev/mpr121.h ****         SetThresholds(config_.touch_threshold, config_.release_threshold);
 143:../../libs/libDaisy/src/dev/mpr121.h ****         WriteRegister(MPR121_MHDR, 0x01);
 144:../../libs/libDaisy/src/dev/mpr121.h ****         WriteRegister(MPR121_NHDR, 0x01);
 145:../../libs/libDaisy/src/dev/mpr121.h ****         WriteRegister(MPR121_NCLR, 0x0E);
 146:../../libs/libDaisy/src/dev/mpr121.h ****         WriteRegister(MPR121_FDLR, 0x00);
 147:../../libs/libDaisy/src/dev/mpr121.h **** 
 148:../../libs/libDaisy/src/dev/mpr121.h ****         WriteRegister(MPR121_MHDF, 0x01);
 149:../../libs/libDaisy/src/dev/mpr121.h ****         WriteRegister(MPR121_NHDF, 0x05);
 150:../../libs/libDaisy/src/dev/mpr121.h ****         WriteRegister(MPR121_NCLF, 0x01);
 151:../../libs/libDaisy/src/dev/mpr121.h ****         WriteRegister(MPR121_FDLF, 0x00);
 152:../../libs/libDaisy/src/dev/mpr121.h **** 
 153:../../libs/libDaisy/src/dev/mpr121.h ****         WriteRegister(MPR121_NHDT, 0x00);
 154:../../libs/libDaisy/src/dev/mpr121.h ****         WriteRegister(MPR121_NCLT, 0x00);
 155:../../libs/libDaisy/src/dev/mpr121.h ****         WriteRegister(MPR121_FDLT, 0x00);
 156:../../libs/libDaisy/src/dev/mpr121.h **** 
 157:../../libs/libDaisy/src/dev/mpr121.h ****         WriteRegister(MPR121_DEBOUNCE, 0);
 158:../../libs/libDaisy/src/dev/mpr121.h ****         WriteRegister(MPR121_CONFIG1, 0x10); // default, 16uA charge current
 159:../../libs/libDaisy/src/dev/mpr121.h ****         WriteRegister(MPR121_CONFIG2, 0x20); // 0.5uS encoding, 1ms period
 160:../../libs/libDaisy/src/dev/mpr121.h **** 
 161:../../libs/libDaisy/src/dev/mpr121.h ****         // autoconfig
 162:../../libs/libDaisy/src/dev/mpr121.h ****         // WriteRegister(MPR121_AUTOCONFIG0, 0x0B);
 163:../../libs/libDaisy/src/dev/mpr121.h **** 
 164:../../libs/libDaisy/src/dev/mpr121.h ****         // correct values for Vdd = 3.3V
 165:../../libs/libDaisy/src/dev/mpr121.h ****         // WriteRegister(MPR121_UPLIMIT, 200);     // ((Vdd - 0.7)/Vdd) * 256
 166:../../libs/libDaisy/src/dev/mpr121.h ****         // WriteRegister(MPR121_TARGETLIMIT, 180); // UPLIMIT * 0.9
ARM GAS  C:\Users\matte\AppData\Local\Temp\ccvehO0v.s 			page 178


 167:../../libs/libDaisy/src/dev/mpr121.h ****         // WriteRegister(MPR121_LOWLIMIT, 130);    // UPLIMIT * 0.65
 168:../../libs/libDaisy/src/dev/mpr121.h ****         // autoconfig
 169:../../libs/libDaisy/src/dev/mpr121.h **** 
 170:../../libs/libDaisy/src/dev/mpr121.h ****         // enable X electrodes and start MPR121
 171:../../libs/libDaisy/src/dev/mpr121.h ****         uint8_t ECR_SETTING
 172:../../libs/libDaisy/src/dev/mpr121.h ****             = 0x80
 173:../../libs/libDaisy/src/dev/mpr121.h ****               + 12; // 5 bits for baseline tracking & proximity disabled + X
 174:../../libs/libDaisy/src/dev/mpr121.h ****                     // amount of electrodes running (12)
 175:../../libs/libDaisy/src/dev/mpr121.h ****         WriteRegister(MPR121_ECR,
 176:../../libs/libDaisy/src/dev/mpr121.h ****                       ECR_SETTING); // start with above ECR setting
 177:../../libs/libDaisy/src/dev/mpr121.h **** 
 178:../../libs/libDaisy/src/dev/mpr121.h ****         return GetTransportErr();
 179:../../libs/libDaisy/src/dev/mpr121.h ****     }
 180:../../libs/libDaisy/src/dev/mpr121.h **** 
 181:../../libs/libDaisy/src/dev/mpr121.h ****     /** Set the touch and release thresholds for all 13 channels on the
 182:../../libs/libDaisy/src/dev/mpr121.h ****         device to the passed values.
 183:../../libs/libDaisy/src/dev/mpr121.h ****         \param      touch The touch threshold value from 0 to 255.
 184:../../libs/libDaisy/src/dev/mpr121.h ****         \param      release The release threshold from 0 to 255.
 185:../../libs/libDaisy/src/dev/mpr121.h ****     */
 186:../../libs/libDaisy/src/dev/mpr121.h ****     void SetThresholds(uint8_t touch, uint8_t release)
 187:../../libs/libDaisy/src/dev/mpr121.h ****     {
 188:../../libs/libDaisy/src/dev/mpr121.h ****         // set all thresholds (the same)
 189:../../libs/libDaisy/src/dev/mpr121.h ****         for(uint8_t i = 0; i < 12; i++)
 190:../../libs/libDaisy/src/dev/mpr121.h ****         {
 191:../../libs/libDaisy/src/dev/mpr121.h ****             WriteRegister(MPR121_TOUCHTH_0 + 2 * i, touch);
 192:../../libs/libDaisy/src/dev/mpr121.h ****             WriteRegister(MPR121_RELEASETH_0 + 2 * i, release);
 193:../../libs/libDaisy/src/dev/mpr121.h ****         }
 194:../../libs/libDaisy/src/dev/mpr121.h ****     }
 195:../../libs/libDaisy/src/dev/mpr121.h ****     
 196:../../libs/libDaisy/src/dev/mpr121.h **** 
 197:../../libs/libDaisy/src/dev/mpr121.h ****     /** Read the filtered data from channel t. The ADC raw data outputs
 198:../../libs/libDaisy/src/dev/mpr121.h ****         run through 3 levels of digital filtering to filter out the high
 199:../../libs/libDaisy/src/dev/mpr121.h ****         frequency and low frequency noise encountered. For detailed information on
 200:../../libs/libDaisy/src/dev/mpr121.h ****         this filtering see page 6 of the device datasheet.
 201:../../libs/libDaisy/src/dev/mpr121.h ****         \param      t the channel to read
 202:../../libs/libDaisy/src/dev/mpr121.h ****         \returns    the filtered reading as a 10 bit unsigned value
 203:../../libs/libDaisy/src/dev/mpr121.h ****     */
 204:../../libs/libDaisy/src/dev/mpr121.h ****     uint16_t FilteredData(uint8_t t)
 205:../../libs/libDaisy/src/dev/mpr121.h ****     {
 206:../../libs/libDaisy/src/dev/mpr121.h ****         if(t > 12)
 207:../../libs/libDaisy/src/dev/mpr121.h ****             return 0;
 208:../../libs/libDaisy/src/dev/mpr121.h ****         return ReadRegister16(MPR121_FILTDATA_0L + t * 2);
 209:../../libs/libDaisy/src/dev/mpr121.h ****     }
 210:../../libs/libDaisy/src/dev/mpr121.h **** 
 211:../../libs/libDaisy/src/dev/mpr121.h ****     /** Read the baseline value for the channel. The 3rd level filtered
 212:../../libs/libDaisy/src/dev/mpr121.h ****         result is internally 10bit but only high 8 bits are readable
 213:../../libs/libDaisy/src/dev/mpr121.h ****         from registers 0x1E~0x2A as the baseline value output for each channel.
 214:../../libs/libDaisy/src/dev/mpr121.h ****         \param      t the channel to read.
 215:../../libs/libDaisy/src/dev/mpr121.h ****         \returns    the baseline data that was read
 216:../../libs/libDaisy/src/dev/mpr121.h ****     */
 217:../../libs/libDaisy/src/dev/mpr121.h ****     uint16_t BaselineData(uint8_t t)
 218:../../libs/libDaisy/src/dev/mpr121.h ****     {
 219:../../libs/libDaisy/src/dev/mpr121.h ****         if(t > 12)
 220:../../libs/libDaisy/src/dev/mpr121.h ****             return 0;
 221:../../libs/libDaisy/src/dev/mpr121.h ****         uint16_t bl = ReadRegister8(MPR121_BASELINE_0 + t);
 222:../../libs/libDaisy/src/dev/mpr121.h ****         return (bl << 2);
 223:../../libs/libDaisy/src/dev/mpr121.h ****     }
ARM GAS  C:\Users\matte\AppData\Local\Temp\ccvehO0v.s 			page 179


 224:../../libs/libDaisy/src/dev/mpr121.h **** 
 225:../../libs/libDaisy/src/dev/mpr121.h ****     /** Read the touch status of all 13 channels as bit values in a 12 bit integer.
 226:../../libs/libDaisy/src/dev/mpr121.h ****         \returns    a 12 bit integer with each bit corresponding to the touch status
 227:../../libs/libDaisy/src/dev/mpr121.h ****         of a sensor. For example, if bit 0 is set then channel 0 of the
 228:../../libs/libDaisy/src/dev/mpr121.h ****         device is currently deemed to be touched.
 229:../../libs/libDaisy/src/dev/mpr121.h ****     */
 230:../../libs/libDaisy/src/dev/mpr121.h ****     uint16_t Touched()
 231:../../libs/libDaisy/src/dev/mpr121.h ****     {
 232:../../libs/libDaisy/src/dev/mpr121.h ****         uint16_t t = ReadRegister16(MPR121_TOUCHSTATUS_L);
 233:../../libs/libDaisy/src/dev/mpr121.h ****         return t & 0x0FFF;
 234:../../libs/libDaisy/src/dev/mpr121.h ****     }
 235:../../libs/libDaisy/src/dev/mpr121.h **** 
 236:../../libs/libDaisy/src/dev/mpr121.h ****     /** Read the contents of an 8 bit device register.
 237:../../libs/libDaisy/src/dev/mpr121.h ****         \param      reg the register address to read from
 238:../../libs/libDaisy/src/dev/mpr121.h ****         \returns    the 8 bit value that was read.
 239:../../libs/libDaisy/src/dev/mpr121.h ****     */
 240:../../libs/libDaisy/src/dev/mpr121.h ****    uint8_t ReadRegister8(uint8_t reg)
 241:../../libs/libDaisy/src/dev/mpr121.h ****     {
 242:../../libs/libDaisy/src/dev/mpr121.h ****         uint8_t buff;
 243:../../libs/libDaisy/src/dev/mpr121.h ****         SetTransportErr (transport_.ReadMem (&buff, reg, 1));
 244:../../libs/libDaisy/src/dev/mpr121.h ****         return buff;
 245:../../libs/libDaisy/src/dev/mpr121.h ****     }
 246:../../libs/libDaisy/src/dev/mpr121.h **** 
 247:../../libs/libDaisy/src/dev/mpr121.h ****     uint16_t ReadRegister16(uint8_t reg)
 248:../../libs/libDaisy/src/dev/mpr121.h ****     {
 249:../../libs/libDaisy/src/dev/mpr121.h ****         uint16_t buff;
 250:../../libs/libDaisy/src/dev/mpr121.h ****         SetTransportErr (transport_.ReadMem ((uint8_t*)&buff, reg, 2));
 251:../../libs/libDaisy/src/dev/mpr121.h **** 
 252:../../libs/libDaisy/src/dev/mpr121.h **** 
 253:../../libs/libDaisy/src/dev/mpr121.h ****         return buff;
 254:../../libs/libDaisy/src/dev/mpr121.h ****     }
 255:../../libs/libDaisy/src/dev/mpr121.h **** 
 256:../../libs/libDaisy/src/dev/mpr121.h ****     /** Writes 8-bits to the specified destination register
 257:../../libs/libDaisy/src/dev/mpr121.h ****         \param  reg the register address to write to
 258:../../libs/libDaisy/src/dev/mpr121.h ****         \param  value the value to write
 259:../../libs/libDaisy/src/dev/mpr121.h ****     */
 260:../../libs/libDaisy/src/dev/mpr121.h ****     void WriteRegister(uint8_t reg, uint8_t value)
 6365              		.loc 12 260 10 is_stmt 1 view -0
 6366              		.cfi_startproc
 6367              		@ args = 0, pretend = 0, frame = 8
 6368              		@ frame_needed = 0, uses_anonymous_args = 0
 6369              		.loc 12 260 10 is_stmt 0 view .LVU1565
 6370 0000 2DE9F043 		push	{r4, r5, r6, r7, r8, r9, lr}
 6371              		.cfi_def_cfa_offset 28
 6372              		.cfi_offset 4, -28
 6373              		.cfi_offset 5, -24
 6374              		.cfi_offset 6, -20
 6375              		.cfi_offset 7, -16
 6376              		.cfi_offset 8, -12
 6377              		.cfi_offset 9, -8
 6378              		.cfi_offset 14, -4
 261:../../libs/libDaisy/src/dev/mpr121.h ****     {
 262:../../libs/libDaisy/src/dev/mpr121.h ****         // MPR121 must be put in Stop Mode to write to most registers
 263:../../libs/libDaisy/src/dev/mpr121.h ****         bool stop_required = true;
 264:../../libs/libDaisy/src/dev/mpr121.h **** 
 265:../../libs/libDaisy/src/dev/mpr121.h ****         // first get the current set value of the MPR121_ECR register
 266:../../libs/libDaisy/src/dev/mpr121.h ****         uint8_t ecr_reg = MPR121_ECR;
ARM GAS  C:\Users\matte\AppData\Local\Temp\ccvehO0v.s 			page 180


 267:../../libs/libDaisy/src/dev/mpr121.h ****         uint8_t buff[2] = {ecr_reg, 0x00};
 6379              		.loc 12 267 17 view .LVU1566
 6380 0004 0023     		movs	r3, #0
 260:../../libs/libDaisy/src/dev/mpr121.h ****     {
 6381              		.loc 12 260 10 view .LVU1567
 6382 0006 85B0     		sub	sp, sp, #20
 6383              		.cfi_def_cfa_offset 48
 6384              	.LBB1771:
 6385              	.LBB1772:
  65:../../libs/libDaisy/src/dev/mpr121.h ****     }
 6386              		.loc 12 65 40 view .LVU1568
 6387 0008 00F11806 		add	r6, r0, #24
 6388 000c 4FF00A08 		mov	r8, #10
 6389              	.LBE1772:
 6390              	.LBE1771:
 260:../../libs/libDaisy/src/dev/mpr121.h ****     {
 6391              		.loc 12 260 10 view .LVU1569
 6392 0010 0446     		mov	r4, r0
 6393              		.loc 12 267 17 view .LVU1570
 6394 0012 4FF05E09 		mov	r9, #94
 260:../../libs/libDaisy/src/dev/mpr121.h ****     {
 6395              		.loc 12 260 10 view .LVU1571
 6396 0016 0D46     		mov	r5, r1
 6397              		.loc 12 267 17 view .LVU1572
 6398 0018 8DF80D30 		strb	r3, [sp, #13]
 6399              	.LBB1776:
 6400              	.LBB1773:
  65:../../libs/libDaisy/src/dev/mpr121.h ****     }
 6401              		.loc 12 65 40 view .LVU1573
 6402 001c CDF80080 		str	r8, [sp]
 6403 0020 0123     		movs	r3, #1
 6404 0022 90F82C10 		ldrb	r1, [r0, #44]	@ zero_extendqisi2
 6405              	.LVL466:
  65:../../libs/libDaisy/src/dev/mpr121.h ****     }
 6406              		.loc 12 65 40 view .LVU1574
 6407              	.LBE1773:
 6408              	.LBE1776:
 260:../../libs/libDaisy/src/dev/mpr121.h ****     {
 6409              		.loc 12 260 10 view .LVU1575
 6410 0026 1746     		mov	r7, r2
 6411              	.LBB1777:
 6412              	.LBB1774:
  65:../../libs/libDaisy/src/dev/mpr121.h ****     }
 6413              		.loc 12 65 40 view .LVU1576
 6414 0028 3046     		mov	r0, r6
 6415              	.LVL467:
  65:../../libs/libDaisy/src/dev/mpr121.h ****     }
 6416              		.loc 12 65 40 view .LVU1577
 6417 002a 03AA     		add	r2, sp, #12
 6418              	.LVL468:
  65:../../libs/libDaisy/src/dev/mpr121.h ****     }
 6419              		.loc 12 65 40 view .LVU1578
 6420              	.LBE1774:
 6421              	.LBE1777:
 6422              		.loc 12 267 17 view .LVU1579
 6423 002c 8DF80C90 		strb	r9, [sp, #12]
 6424              	.LVL469:
ARM GAS  C:\Users\matte\AppData\Local\Temp\ccvehO0v.s 			page 181


 6425              	.LBB1778:
 6426              	.LBI1771:
  62:../../libs/libDaisy/src/dev/mpr121.h ****     {
 6427              		.loc 12 62 10 is_stmt 1 view .LVU1580
 6428              	.LBB1775:
  64:../../libs/libDaisy/src/dev/mpr121.h ****                != i2c_.TransmitBlocking(config_.dev_addr, data, size, 10);
 6429              		.loc 12 64 9 view .LVU1581
  65:../../libs/libDaisy/src/dev/mpr121.h ****     }
 6430              		.loc 12 65 40 is_stmt 0 view .LVU1582
 6431 0030 FFF7FEFF 		bl	_ZN5daisy9I2CHandle16TransmitBlockingEtPhtm
 6432              	.LVL470:
  65:../../libs/libDaisy/src/dev/mpr121.h ****     }
 6433              		.loc 12 65 40 view .LVU1583
 6434              	.LBE1775:
 6435              	.LBE1778:
 6436              	.LBB1779:
 6437              	.LBI1779:
 268:../../libs/libDaisy/src/dev/mpr121.h **** 
 269:../../libs/libDaisy/src/dev/mpr121.h ****         SetTransportErr(transport_.Write(buff, 1));
 270:../../libs/libDaisy/src/dev/mpr121.h **** 
 271:../../libs/libDaisy/src/dev/mpr121.h ****         uint8_t ecr_backup;
 272:../../libs/libDaisy/src/dev/mpr121.h ****         SetTransportErr(transport_.Read(&ecr_backup, 1));
 273:../../libs/libDaisy/src/dev/mpr121.h ****         if((reg == MPR121_ECR) || ((0x73 <= reg) && (reg <= 0x7A)))
 274:../../libs/libDaisy/src/dev/mpr121.h ****         {
 275:../../libs/libDaisy/src/dev/mpr121.h ****             stop_required = false;
 276:../../libs/libDaisy/src/dev/mpr121.h ****         }
 277:../../libs/libDaisy/src/dev/mpr121.h **** 
 278:../../libs/libDaisy/src/dev/mpr121.h ****         if(stop_required)
 279:../../libs/libDaisy/src/dev/mpr121.h ****         {
 280:../../libs/libDaisy/src/dev/mpr121.h ****             // clear this register to set stop mode
 281:../../libs/libDaisy/src/dev/mpr121.h ****             SetTransportErr(transport_.Write(buff, 2));
 282:../../libs/libDaisy/src/dev/mpr121.h ****         }
 283:../../libs/libDaisy/src/dev/mpr121.h **** 
 284:../../libs/libDaisy/src/dev/mpr121.h ****         buff[0] = reg;
 285:../../libs/libDaisy/src/dev/mpr121.h ****         buff[1] = value;
 286:../../libs/libDaisy/src/dev/mpr121.h ****         SetTransportErr(transport_.Write(buff, 2));
 287:../../libs/libDaisy/src/dev/mpr121.h **** 
 288:../../libs/libDaisy/src/dev/mpr121.h ****         if(stop_required)
 289:../../libs/libDaisy/src/dev/mpr121.h ****         {
 290:../../libs/libDaisy/src/dev/mpr121.h ****             // write back the previous set ECR settings
 291:../../libs/libDaisy/src/dev/mpr121.h ****             buff[0] = ecr_reg;
 292:../../libs/libDaisy/src/dev/mpr121.h ****             buff[1] = ecr_backup;
 293:../../libs/libDaisy/src/dev/mpr121.h ****             SetTransportErr(transport_.Write(buff, 2));
 294:../../libs/libDaisy/src/dev/mpr121.h ****         }
 295:../../libs/libDaisy/src/dev/mpr121.h ****     }
 296:../../libs/libDaisy/src/dev/mpr121.h **** 
 297:../../libs/libDaisy/src/dev/mpr121.h ****     /** Device register map */
 298:../../libs/libDaisy/src/dev/mpr121.h ****     enum RegMap
 299:../../libs/libDaisy/src/dev/mpr121.h ****     {
 300:../../libs/libDaisy/src/dev/mpr121.h ****         MPR121_TOUCHSTATUS_L = 0x00,
 301:../../libs/libDaisy/src/dev/mpr121.h ****         MPR121_TOUCHSTATUS_H = 0x01,
 302:../../libs/libDaisy/src/dev/mpr121.h ****         MPR121_FILTDATA_0L   = 0x04,
 303:../../libs/libDaisy/src/dev/mpr121.h ****         MPR121_FILTDATA_0H   = 0x05,
 304:../../libs/libDaisy/src/dev/mpr121.h ****         MPR121_BASELINE_0    = 0x1E,
 305:../../libs/libDaisy/src/dev/mpr121.h ****         MPR121_MHDR          = 0x2B,
 306:../../libs/libDaisy/src/dev/mpr121.h ****         MPR121_NHDR          = 0x2C,
 307:../../libs/libDaisy/src/dev/mpr121.h ****         MPR121_NCLR          = 0x2D,
ARM GAS  C:\Users\matte\AppData\Local\Temp\ccvehO0v.s 			page 182


 308:../../libs/libDaisy/src/dev/mpr121.h ****         MPR121_FDLR          = 0x2E,
 309:../../libs/libDaisy/src/dev/mpr121.h ****         MPR121_MHDF          = 0x2F,
 310:../../libs/libDaisy/src/dev/mpr121.h ****         MPR121_NHDF          = 0x30,
 311:../../libs/libDaisy/src/dev/mpr121.h ****         MPR121_NCLF          = 0x31,
 312:../../libs/libDaisy/src/dev/mpr121.h ****         MPR121_FDLF          = 0x32,
 313:../../libs/libDaisy/src/dev/mpr121.h ****         MPR121_NHDT          = 0x33,
 314:../../libs/libDaisy/src/dev/mpr121.h ****         MPR121_NCLT          = 0x34,
 315:../../libs/libDaisy/src/dev/mpr121.h ****         MPR121_FDLT          = 0x35,
 316:../../libs/libDaisy/src/dev/mpr121.h **** 
 317:../../libs/libDaisy/src/dev/mpr121.h ****         MPR121_TOUCHTH_0    = 0x41,
 318:../../libs/libDaisy/src/dev/mpr121.h ****         MPR121_RELEASETH_0  = 0x42,
 319:../../libs/libDaisy/src/dev/mpr121.h ****         MPR121_DEBOUNCE     = 0x5B,
 320:../../libs/libDaisy/src/dev/mpr121.h ****         MPR121_CONFIG1      = 0x5C,
 321:../../libs/libDaisy/src/dev/mpr121.h ****         MPR121_CONFIG2      = 0x5D,
 322:../../libs/libDaisy/src/dev/mpr121.h ****         MPR121_CHARGECURR_0 = 0x5F,
 323:../../libs/libDaisy/src/dev/mpr121.h ****         MPR121_CHARGETIME_1 = 0x6C,
 324:../../libs/libDaisy/src/dev/mpr121.h ****         MPR121_ECR          = 0x5E,
 325:../../libs/libDaisy/src/dev/mpr121.h ****         MPR121_AUTOCONFIG0  = 0x7B,
 326:../../libs/libDaisy/src/dev/mpr121.h ****         MPR121_AUTOCONFIG1  = 0x7C,
 327:../../libs/libDaisy/src/dev/mpr121.h ****         MPR121_UPLIMIT      = 0x7D,
 328:../../libs/libDaisy/src/dev/mpr121.h ****         MPR121_LOWLIMIT     = 0x7E,
 329:../../libs/libDaisy/src/dev/mpr121.h ****         MPR121_TARGETLIMIT  = 0x7F,
 330:../../libs/libDaisy/src/dev/mpr121.h **** 
 331:../../libs/libDaisy/src/dev/mpr121.h ****         MPR121_GPIODIR    = 0x76,
 332:../../libs/libDaisy/src/dev/mpr121.h ****         MPR121_GPIOEN     = 0x77,
 333:../../libs/libDaisy/src/dev/mpr121.h ****         MPR121_GPIOSET    = 0x78,
 334:../../libs/libDaisy/src/dev/mpr121.h ****         MPR121_GPIOCLR    = 0x79,
 335:../../libs/libDaisy/src/dev/mpr121.h ****         MPR121_GPIOTOGGLE = 0x7A,
 336:../../libs/libDaisy/src/dev/mpr121.h **** 
 337:../../libs/libDaisy/src/dev/mpr121.h ****         MPR121_SOFTRESET = 0x80,
 338:../../libs/libDaisy/src/dev/mpr121.h ****     };
 339:../../libs/libDaisy/src/dev/mpr121.h **** 
 340:../../libs/libDaisy/src/dev/mpr121.h ****   private:
 341:../../libs/libDaisy/src/dev/mpr121.h ****     Config    config_;
 342:../../libs/libDaisy/src/dev/mpr121.h ****     Transport transport_;
 343:../../libs/libDaisy/src/dev/mpr121.h ****     bool      transport_error_;
 344:../../libs/libDaisy/src/dev/mpr121.h **** 
 345:../../libs/libDaisy/src/dev/mpr121.h ****     /** Set the global transport_error_ bool */
 346:../../libs/libDaisy/src/dev/mpr121.h ****     void SetTransportErr(bool err) { transport_error_ |= err; }
 6438              		.loc 12 346 10 is_stmt 1 view .LVU1584
 6439              	.LBE1779:
 6440              	.LBB1783:
 6441              	.LBB1784:
  72:../../libs/libDaisy/src/dev/mpr121.h ****     }
 6442              		.loc 12 72 39 is_stmt 0 view .LVU1585
 6443 0034 CDF80080 		str	r8, [sp]
 6444 0038 0DF10B02 		add	r2, sp, #11
 6445              	.LBE1784:
 6446              	.LBE1783:
 6447              	.LBB1788:
 6448              	.LBB1780:
 6449              		.loc 12 346 55 view .LVU1586
 6450 003c 94F83030 		ldrb	r3, [r4, #48]	@ zero_extendqisi2
 6451              	.LBE1780:
 6452              	.LBE1788:
 6453              	.LBB1789:
 6454              	.LBB1785:
ARM GAS  C:\Users\matte\AppData\Local\Temp\ccvehO0v.s 			page 183


  72:../../libs/libDaisy/src/dev/mpr121.h ****     }
 6455              		.loc 12 72 39 view .LVU1587
 6456 0040 94F82C10 		ldrb	r1, [r4, #44]	@ zero_extendqisi2
 6457              	.LBE1785:
 6458              	.LBE1789:
 6459              	.LBB1790:
 6460              	.LBB1781:
 6461              		.loc 12 346 55 view .LVU1588
 6462 0044 0028     		cmp	r0, #0
 6463 0046 18BF     		it	ne
 6464 0048 43F00103 		orrne	r3, r3, #1
 6465              	.LBE1781:
 6466              	.LBE1790:
 6467              	.LBB1791:
 6468              	.LBB1786:
  72:../../libs/libDaisy/src/dev/mpr121.h ****     }
 6469              		.loc 12 72 39 view .LVU1589
 6470 004c 3046     		mov	r0, r6
 6471              	.LVL471:
  72:../../libs/libDaisy/src/dev/mpr121.h ****     }
 6472              		.loc 12 72 39 view .LVU1590
 6473              	.LBE1786:
 6474              	.LBE1791:
 6475              	.LBB1792:
 6476              	.LBB1782:
 6477              		.loc 12 346 55 view .LVU1591
 6478 004e 84F83030 		strb	r3, [r4, #48]
 6479              	.LVL472:
 6480              		.loc 12 346 55 view .LVU1592
 6481              	.LBE1782:
 6482              	.LBE1792:
 6483              	.LBB1793:
 6484              	.LBI1783:
  69:../../libs/libDaisy/src/dev/mpr121.h ****     {
 6485              		.loc 12 69 10 is_stmt 1 view .LVU1593
 6486              	.LBB1787:
  71:../../libs/libDaisy/src/dev/mpr121.h ****                != i2c_.ReceiveBlocking(config_.dev_addr, data, size, 10);
 6487              		.loc 12 71 9 view .LVU1594
  72:../../libs/libDaisy/src/dev/mpr121.h ****     }
 6488              		.loc 12 72 39 is_stmt 0 view .LVU1595
 6489 0052 0123     		movs	r3, #1
 6490 0054 FFF7FEFF 		bl	_ZN5daisy9I2CHandle15ReceiveBlockingEtPhtm
 6491              	.LVL473:
  72:../../libs/libDaisy/src/dev/mpr121.h ****     }
 6492              		.loc 12 72 39 view .LVU1596
 6493              	.LBE1787:
 6494              	.LBE1793:
 6495              	.LBB1794:
 6496              	.LBI1794:
 6497              		.loc 12 346 10 is_stmt 1 view .LVU1597
 6498              	.LBB1795:
 6499              		.loc 12 346 55 is_stmt 0 view .LVU1598
 6500 0058 94F83030 		ldrb	r3, [r4, #48]	@ zero_extendqisi2
 6501 005c 0028     		cmp	r0, #0
 6502 005e 18BF     		it	ne
 6503 0060 43F00103 		orrne	r3, r3, #1
 6504 0064 84F83030 		strb	r3, [r4, #48]
ARM GAS  C:\Users\matte\AppData\Local\Temp\ccvehO0v.s 			page 184


 6505              	.LVL474:
 6506              		.loc 12 346 55 view .LVU1599
 6507              	.LBE1795:
 6508              	.LBE1794:
 273:../../libs/libDaisy/src/dev/mpr121.h ****         {
 6509              		.loc 12 273 50 view .LVU1600
 6510 0068 A5F17303 		sub	r3, r5, #115
 273:../../libs/libDaisy/src/dev/mpr121.h ****         {
 6511              		.loc 12 273 9 view .LVU1601
 6512 006c 072B     		cmp	r3, #7
 6513 006e 01D9     		bls	.L417
 6514 0070 4D45     		cmp	r5, r9
 6515 0072 17D1     		bne	.L421
 6516              	.L417:
 6517              	.LVL475:
 6518              	.LBB1796:
 6519              	.LBB1797:
  65:../../libs/libDaisy/src/dev/mpr121.h ****     }
 6520              		.loc 12 65 40 view .LVU1602
 6521 0074 0A23     		movs	r3, #10
 6522 0076 03AA     		add	r2, sp, #12
 6523 0078 3046     		mov	r0, r6
 6524              	.LBE1797:
 6525              	.LBE1796:
 284:../../libs/libDaisy/src/dev/mpr121.h ****         buff[1] = value;
 6526              		.loc 12 284 17 view .LVU1603
 6527 007a 8DF80C50 		strb	r5, [sp, #12]
 6528              	.LBB1806:
 6529              	.LBB1798:
  65:../../libs/libDaisy/src/dev/mpr121.h ****     }
 6530              		.loc 12 65 40 view .LVU1604
 6531 007e 0093     		str	r3, [sp]
 6532 0080 0223     		movs	r3, #2
 6533              	.LBE1798:
 6534              	.LBE1806:
 285:../../libs/libDaisy/src/dev/mpr121.h ****         SetTransportErr(transport_.Write(buff, 2));
 6535              		.loc 12 285 17 view .LVU1605
 6536 0082 8DF80D70 		strb	r7, [sp, #13]
 6537              	.LVL476:
 6538              	.LBB1807:
 6539              	.LBI1796:
  62:../../libs/libDaisy/src/dev/mpr121.h ****     {
 6540              		.loc 12 62 10 is_stmt 1 view .LVU1606
 6541              	.LBB1799:
  64:../../libs/libDaisy/src/dev/mpr121.h ****                != i2c_.TransmitBlocking(config_.dev_addr, data, size, 10);
 6542              		.loc 12 64 9 view .LVU1607
 6543              	.L420:
  65:../../libs/libDaisy/src/dev/mpr121.h ****     }
 6544              		.loc 12 65 40 is_stmt 0 view .LVU1608
 6545 0086 94F82C10 		ldrb	r1, [r4, #44]	@ zero_extendqisi2
 6546 008a FFF7FEFF 		bl	_ZN5daisy9I2CHandle16TransmitBlockingEtPhtm
 6547              	.LVL477:
  65:../../libs/libDaisy/src/dev/mpr121.h ****     }
 6548              		.loc 12 65 40 view .LVU1609
 6549              	.LBE1799:
 6550              	.LBE1807:
 6551              	.LBB1808:
ARM GAS  C:\Users\matte\AppData\Local\Temp\ccvehO0v.s 			page 185


 6552              	.LBI1808:
 6553              		.loc 12 346 10 is_stmt 1 view .LVU1610
 6554              	.LBB1809:
 6555              		.loc 12 346 55 is_stmt 0 view .LVU1611
 6556 008e 94F83030 		ldrb	r3, [r4, #48]	@ zero_extendqisi2
 6557 0092 0028     		cmp	r0, #0
 6558 0094 18BF     		it	ne
 6559 0096 43F00103 		orrne	r3, r3, #1
 6560 009a 84F83030 		strb	r3, [r4, #48]
 6561              	.LVL478:
 6562              		.loc 12 346 55 view .LVU1612
 6563              	.LBE1809:
 6564              	.LBE1808:
 295:../../libs/libDaisy/src/dev/mpr121.h **** 
 6565              		.loc 12 295 5 view .LVU1613
 6566 009e 05B0     		add	sp, sp, #20
 6567              		.cfi_remember_state
 6568              		.cfi_def_cfa_offset 28
 6569              		@ sp needed
 6570 00a0 BDE8F083 		pop	{r4, r5, r6, r7, r8, r9, pc}
 6571              	.LVL479:
 6572              	.L421:
 6573              		.cfi_restore_state
 6574              	.LBB1813:
 6575              	.LBI1813:
  62:../../libs/libDaisy/src/dev/mpr121.h ****     {
 6576              		.loc 12 62 10 is_stmt 1 view .LVU1614
 6577              	.LBB1814:
  64:../../libs/libDaisy/src/dev/mpr121.h ****                != i2c_.TransmitBlocking(config_.dev_addr, data, size, 10);
 6578              		.loc 12 64 9 view .LVU1615
  65:../../libs/libDaisy/src/dev/mpr121.h ****     }
 6579              		.loc 12 65 40 is_stmt 0 view .LVU1616
 6580 00a4 0223     		movs	r3, #2
 6581 00a6 03AA     		add	r2, sp, #12
 6582              	.LVL480:
  65:../../libs/libDaisy/src/dev/mpr121.h ****     }
 6583              		.loc 12 65 40 view .LVU1617
 6584 00a8 CDF80080 		str	r8, [sp]
 6585 00ac 3046     		mov	r0, r6
 6586 00ae 94F82C10 		ldrb	r1, [r4, #44]	@ zero_extendqisi2
 6587 00b2 FFF7FEFF 		bl	_ZN5daisy9I2CHandle16TransmitBlockingEtPhtm
 6588              	.LVL481:
  65:../../libs/libDaisy/src/dev/mpr121.h ****     }
 6589              		.loc 12 65 40 view .LVU1618
 6590              	.LBE1814:
 6591              	.LBE1813:
 6592              	.LBB1815:
 6593              	.LBI1815:
 6594              		.loc 12 346 10 is_stmt 1 view .LVU1619
 6595              	.LBE1815:
 6596              	.LBB1819:
 6597              	.LBB1800:
  65:../../libs/libDaisy/src/dev/mpr121.h ****     }
 6598              		.loc 12 65 40 is_stmt 0 view .LVU1620
 6599 00b6 CDF80080 		str	r8, [sp]
 6600              	.LBE1800:
 6601              	.LBE1819:
ARM GAS  C:\Users\matte\AppData\Local\Temp\ccvehO0v.s 			page 186


 6602              	.LBB1820:
 6603              	.LBB1816:
 6604              		.loc 12 346 55 view .LVU1621
 6605 00ba 94F83030 		ldrb	r3, [r4, #48]	@ zero_extendqisi2
 6606              	.LBE1816:
 6607              	.LBE1820:
 6608              	.LBB1821:
 6609              	.LBB1801:
  65:../../libs/libDaisy/src/dev/mpr121.h ****     }
 6610              		.loc 12 65 40 view .LVU1622
 6611 00be 03AA     		add	r2, sp, #12
 6612 00c0 94F82C10 		ldrb	r1, [r4, #44]	@ zero_extendqisi2
 6613              	.LBE1801:
 6614              	.LBE1821:
 6615              	.LBB1822:
 6616              	.LBB1817:
 6617              		.loc 12 346 55 view .LVU1623
 6618 00c4 0028     		cmp	r0, #0
 6619 00c6 18BF     		it	ne
 6620 00c8 43F00103 		orrne	r3, r3, #1
 6621              	.LBE1817:
 6622              	.LBE1822:
 6623              	.LBB1823:
 6624              	.LBB1802:
  65:../../libs/libDaisy/src/dev/mpr121.h ****     }
 6625              		.loc 12 65 40 view .LVU1624
 6626 00cc 3046     		mov	r0, r6
 6627              	.LVL482:
  65:../../libs/libDaisy/src/dev/mpr121.h ****     }
 6628              		.loc 12 65 40 view .LVU1625
 6629              	.LBE1802:
 6630              	.LBE1823:
 284:../../libs/libDaisy/src/dev/mpr121.h ****         buff[1] = value;
 6631              		.loc 12 284 17 view .LVU1626
 6632 00ce 8DF80C50 		strb	r5, [sp, #12]
 6633              	.LBB1824:
 6634              	.LBB1818:
 6635              		.loc 12 346 55 view .LVU1627
 6636 00d2 84F83030 		strb	r3, [r4, #48]
 6637              	.LVL483:
 6638              		.loc 12 346 55 view .LVU1628
 6639              	.LBE1818:
 6640              	.LBE1824:
 6641              	.LBB1825:
  62:../../libs/libDaisy/src/dev/mpr121.h ****     {
 6642              		.loc 12 62 10 is_stmt 1 view .LVU1629
 6643              	.LBB1803:
  64:../../libs/libDaisy/src/dev/mpr121.h ****                != i2c_.TransmitBlocking(config_.dev_addr, data, size, 10);
 6644              		.loc 12 64 9 view .LVU1630
  65:../../libs/libDaisy/src/dev/mpr121.h ****     }
 6645              		.loc 12 65 40 is_stmt 0 view .LVU1631
 6646 00d6 0223     		movs	r3, #2
 6647              	.LBE1803:
 6648              	.LBE1825:
 285:../../libs/libDaisy/src/dev/mpr121.h ****         SetTransportErr(transport_.Write(buff, 2));
 6649              		.loc 12 285 17 view .LVU1632
 6650 00d8 8DF80D70 		strb	r7, [sp, #13]
ARM GAS  C:\Users\matte\AppData\Local\Temp\ccvehO0v.s 			page 187


 6651              	.LBB1826:
 6652              	.LBB1804:
  65:../../libs/libDaisy/src/dev/mpr121.h ****     }
 6653              		.loc 12 65 40 view .LVU1633
 6654 00dc FFF7FEFF 		bl	_ZN5daisy9I2CHandle16TransmitBlockingEtPhtm
 6655              	.LVL484:
  65:../../libs/libDaisy/src/dev/mpr121.h ****     }
 6656              		.loc 12 65 40 view .LVU1634
 6657              	.LBE1804:
 6658              	.LBE1826:
 6659              	.LBB1827:
 6660              	.LBB1828:
 6661 00e0 CDF80080 		str	r8, [sp]
 6662              	.LBE1828:
 6663              	.LBE1827:
 6664              	.LBB1833:
 6665              	.LBB1805:
 6666 00e4 0546     		mov	r5, r0
 6667              	.LVL485:
  65:../../libs/libDaisy/src/dev/mpr121.h ****     }
 6668              		.loc 12 65 40 view .LVU1635
 6669              	.LBE1805:
 6670              	.LBE1833:
 6671              	.LBB1834:
 6672              		.loc 12 346 10 is_stmt 1 view .LVU1636
 6673              	.LBB1810:
 6674              		.loc 12 346 55 is_stmt 0 view .LVU1637
 6675 00e6 94F83010 		ldrb	r1, [r4, #48]	@ zero_extendqisi2
 6676              	.LBE1810:
 6677              	.LBE1834:
 6678              	.LBB1835:
 6679              	.LBB1829:
  65:../../libs/libDaisy/src/dev/mpr121.h ****     }
 6680              		.loc 12 65 40 view .LVU1638
 6681 00ea 03AA     		add	r2, sp, #12
 6682              	.LBE1829:
 6683              	.LBE1835:
 292:../../libs/libDaisy/src/dev/mpr121.h ****             SetTransportErr(transport_.Write(buff, 2));
 6684              		.loc 12 292 21 view .LVU1639
 6685 00ec 9DF80B30 		ldrb	r3, [sp, #11]	@ zero_extendqisi2
 6686              	.LBB1836:
 6687              	.LBB1830:
  65:../../libs/libDaisy/src/dev/mpr121.h ****     }
 6688              		.loc 12 65 40 view .LVU1640
 6689 00f0 3046     		mov	r0, r6
 6690              	.LVL486:
  65:../../libs/libDaisy/src/dev/mpr121.h ****     }
 6691              		.loc 12 65 40 view .LVU1641
 6692              	.LBE1830:
 6693              	.LBE1836:
 6694              	.LBB1837:
 6695              	.LBB1811:
 6696              		.loc 12 346 55 view .LVU1642
 6697 00f2 002D     		cmp	r5, #0
 6698 00f4 18BF     		it	ne
 6699 00f6 41F00101 		orrne	r1, r1, #1
 6700              	.LBE1811:
ARM GAS  C:\Users\matte\AppData\Local\Temp\ccvehO0v.s 			page 188


 6701              	.LBE1837:
 291:../../libs/libDaisy/src/dev/mpr121.h ****             buff[1] = ecr_backup;
 6702              		.loc 12 291 21 view .LVU1643
 6703 00fa 8DF80C90 		strb	r9, [sp, #12]
 292:../../libs/libDaisy/src/dev/mpr121.h ****             SetTransportErr(transport_.Write(buff, 2));
 6704              		.loc 12 292 21 view .LVU1644
 6705 00fe 8DF80D30 		strb	r3, [sp, #13]
 6706              	.LBB1838:
 6707              	.LBB1831:
  65:../../libs/libDaisy/src/dev/mpr121.h ****     }
 6708              		.loc 12 65 40 view .LVU1645
 6709 0102 0223     		movs	r3, #2
 6710              	.LBE1831:
 6711              	.LBE1838:
 6712              	.LBB1839:
 6713              	.LBB1812:
 6714              		.loc 12 346 55 view .LVU1646
 6715 0104 84F83010 		strb	r1, [r4, #48]
 6716              	.LVL487:
 6717              		.loc 12 346 55 view .LVU1647
 6718              	.LBE1812:
 6719              	.LBE1839:
 6720              	.LBB1840:
 6721              	.LBI1827:
  62:../../libs/libDaisy/src/dev/mpr121.h ****     {
 6722              		.loc 12 62 10 is_stmt 1 view .LVU1648
 6723              	.LBB1832:
  64:../../libs/libDaisy/src/dev/mpr121.h ****                != i2c_.TransmitBlocking(config_.dev_addr, data, size, 10);
 6724              		.loc 12 64 9 view .LVU1649
 6725 0108 BDE7     		b	.L420
 6726              	.LBE1832:
 6727              	.LBE1840:
 6728              		.cfi_endproc
 6729              	.LFE5322:
 6731 010a 00BF     		.section	.text.startup.main,"ax",%progbits
 6732              		.align	1
 6733              		.p2align 2,,3
 6734              		.global	main
 6735              		.syntax unified
 6736              		.thumb
 6737              		.thumb_func
 6738              		.fpu fpv5-d16
 6740              	main:
 6741              	.LFB4864:
  70:main.cpp      **** 
  71:main.cpp      **** int main()
  72:main.cpp      **** {
 6742              		.loc 13 72 1 view -0
 6743              		.cfi_startproc
 6744              		@ args = 0, pretend = 0, frame = 80
 6745              		@ frame_needed = 0, uses_anonymous_args = 0
  73:main.cpp      **** 
  74:main.cpp      ****   float sampleRate;
 6746              		.loc 13 74 3 view .LVU1651
  75:main.cpp      ****   hw.Configure();
 6747              		.loc 13 75 3 view .LVU1652
  72:main.cpp      **** 
ARM GAS  C:\Users\matte\AppData\Local\Temp\ccvehO0v.s 			page 189


 6748              		.loc 13 72 1 is_stmt 0 view .LVU1653
 6749 0000 2DE9F04F 		push	{r4, r5, r6, r7, r8, r9, r10, fp, lr}
 6750              		.cfi_def_cfa_offset 36
 6751              		.cfi_offset 4, -36
 6752              		.cfi_offset 5, -32
 6753              		.cfi_offset 6, -28
 6754              		.cfi_offset 7, -24
 6755              		.cfi_offset 8, -20
 6756              		.cfi_offset 9, -16
 6757              		.cfi_offset 10, -12
 6758              		.cfi_offset 11, -8
 6759              		.cfi_offset 14, -4
 6760 0004 4FF00008 		mov	r8, #0
 6761              		.loc 13 75 15 view .LVU1654
 6762 0008 CC48     		ldr	r0, .L445
 6763 000a 0225     		movs	r5, #2
 6764              	.LBB1956:
 6765              	.LBB1957:
  77:../../libs/DaisySP/Source/Synthesis/oscillator.h ****     /** Sets the waveform to be synthesized by the Process() function.
  78:../../libs/DaisySP/Source/Synthesis/oscillator.h ****     */
  79:../../libs/DaisySP/Source/Synthesis/oscillator.h ****     inline void SetWaveform(const uint8_t wf)
  80:../../libs/DaisySP/Source/Synthesis/oscillator.h ****     {
  81:../../libs/DaisySP/Source/Synthesis/oscillator.h ****         waveform_ = wf < WAVE_LAST ? wf : WAVE_SIN;
 6766              		.loc 8 81 19 view .LVU1655
 6767 000c 4FF00109 		mov	r9, #1
 6768              	.LBE1957:
 6769              	.LBE1956:
 6770              	.LBB1960:
 6771              	.LBB1961:
  52:../../libs/DaisySP/Source/Synthesis/oscillator.h ****         sr_recip_  = 1.0f / sample_rate;
 6772              		.loc 8 52 20 view .LVU1656
 6773 0010 DFF878B3 		ldr	fp, .L445+80
 6774              	.LBE1961:
 6775              	.LBE1960:
  76:main.cpp      ****   hw.Init();
  77:main.cpp      ****   hw.SetAudioBlockSize(4);
  78:main.cpp      ****   sampleRate = hw.AudioSampleRate();
  79:main.cpp      **** 
  80:main.cpp      **** 
  81:main.cpp      ****     MyOledDisplay::Config disp_cfg;
  82:main.cpp      ****     realDisp.Init(disp_cfg);
  83:main.cpp      ****   disp1.SetState(DisplayState::WAVEFORM_VIEWER);
  84:main.cpp      **** 
  85:main.cpp      **** 
  86:main.cpp      ****   pc.Init(CapFir::ResType::HIGH); 
  87:main.cpp      ****   pc.setScale(PlantConditioner::C, PlantConditioner::MinorArm);
  88:main.cpp      ****   pc.setOctave(3);
  89:main.cpp      ****   pc.setCurve(100,1.1);
  90:main.cpp      ****   
  91:main.cpp      **** 
  92:main.cpp      ****   osc.Init(sampleRate);                  // initializes the oscillator with the sample rate
  93:main.cpp      ****   osc.SetWaveform(Oscillator::WAVE_TRI); // sets the waveform
  94:main.cpp      ****   osc.SetFreq(880.0f);                   // sets the frequency
  95:main.cpp      ****   osc.SetAmp(0.5f);                      // sets the amplitude
  96:main.cpp      **** 
  97:main.cpp      ****   env.Init(sampleRate); // initializes the envelope with the sample rate
 6776              		.loc 13 97 11 view .LVU1657
ARM GAS  C:\Users\matte\AppData\Local\Temp\ccvehO0v.s 			page 190


 6777 0014 DFF878A3 		ldr	r10, .L445+84
 6778              	.LBB1965:
 6779              	.LBB1966:
 126:../../libs/libDaisy/src/dev/mpr121.h **** 
 6780              		.loc 12 126 9 view .LVU1658
 6781 0018 C94C     		ldr	r4, .L445+4
 6782              	.LBE1966:
 6783              	.LBE1965:
  72:main.cpp      **** 
 6784              		.loc 13 72 1 view .LVU1659
 6785 001a 2DED028B 		vpush.64	{d8}
 6786              		.cfi_def_cfa_offset 44
 6787              		.cfi_offset 80, -44
 6788              		.cfi_offset 81, -40
 6789 001e 99B0     		sub	sp, sp, #100
 6790              		.cfi_def_cfa_offset 144
 6791              	.LBB2145:
 6792              	.LBB1962:
  55:../../libs/DaisySP/Source/Synthesis/oscillator.h ****         pw_        = 0.5f;
 6793              		.loc 8 55 20 view .LVU1660
 6794 0020 F6EE008A 		vmov.f32	s17, #5.0e-1
 6795              	.LBE1962:
 6796              	.LBE2145:
  75:main.cpp      ****   hw.Init();
 6797              		.loc 13 75 15 view .LVU1661
 6798 0024 FFF7FEFF 		bl	_ZN5daisy9DaisySeed9ConfigureEv
 6799              	.LVL488:
  76:main.cpp      ****   hw.SetAudioBlockSize(4);
 6800              		.loc 13 76 3 is_stmt 1 view .LVU1662
  76:main.cpp      ****   hw.SetAudioBlockSize(4);
 6801              		.loc 13 76 10 is_stmt 0 view .LVU1663
 6802 0028 4146     		mov	r1, r8
 6803 002a C448     		ldr	r0, .L445
 6804              	.LBB2146:
 6805              	.LBB2147:
  25:../../libs/libDaisy/src/hid/disp/oled_display.h **** 
 6806              		.loc 9 25 44 view .LVU1664
 6807 002c 12AE     		add	r6, sp, #72
 6808              	.LBE2147:
 6809              	.LBE2146:
  76:main.cpp      ****   hw.SetAudioBlockSize(4);
 6810              		.loc 13 76 10 view .LVU1665
 6811 002e FFF7FEFF 		bl	_ZN5daisy9DaisySeed4InitEb
 6812              	.LVL489:
  77:main.cpp      ****   sampleRate = hw.AudioSampleRate();
 6813              		.loc 13 77 3 is_stmt 1 view .LVU1666
  77:main.cpp      ****   sampleRate = hw.AudioSampleRate();
 6814              		.loc 13 77 23 is_stmt 0 view .LVU1667
 6815 0032 0421     		movs	r1, #4
 6816 0034 C148     		ldr	r0, .L445
 6817 0036 FFF7FEFF 		bl	_ZN5daisy9DaisySeed17SetAudioBlockSizeEj
 6818              	.LVL490:
  78:main.cpp      **** 
 6819              		.loc 13 78 3 is_stmt 1 view .LVU1668
  78:main.cpp      **** 
 6820              		.loc 13 78 34 is_stmt 0 view .LVU1669
 6821 003a C048     		ldr	r0, .L445
ARM GAS  C:\Users\matte\AppData\Local\Temp\ccvehO0v.s 			page 191


 6822 003c FFF7FEFF 		bl	_ZN5daisy9DaisySeed15AudioSampleRateEv
 6823              	.LVL491:
 6824 0040 4FF01003 		mov	r3, #16
 6825              	.LBB2151:
 6826              	.LBB2148:
  25:../../libs/libDaisy/src/hid/disp/oled_display.h **** 
 6827              		.loc 9 25 44 view .LVU1670
 6828 0044 18AA     		add	r2, sp, #96
 6829 0046 1495     		str	r5, [sp, #80]
 6830 0048 8DF85830 		strb	r3, [sp, #88]
 6831              	.LBE2148:
 6832              	.LBE2151:
  78:main.cpp      **** 
 6833              		.loc 13 78 34 view .LVU1671
 6834 004c B0EE408A 		vmov.f32	s16, s0
 6835              	.LVL492:
  81:main.cpp      ****     realDisp.Init(disp_cfg);
 6836              		.loc 13 81 5 is_stmt 1 view .LVU1672
 6837              	.LBB2152:
 6838              	.LBI2152:
  20:../../libs/libDaisy/src/hid/disp/oled_display.h ****     {
 6839              		.loc 9 20 12 view .LVU1673
 6840              	.LBB2153:
 6841              	.LBI2153:
 236:../../libs/libDaisy/src/sys/../../../../libs/libDaisy/src/dev/oled_ssd130x.h ****     {
 6842              		.loc 11 236 12 view .LVU1674
 6843              	.LBB2154:
 6844              	.LBI2154:
  20:../../libs/libDaisy/src/sys/../../../../libs/libDaisy/src/dev/oled_ssd130x.h ****         {
 6845              		.loc 11 20 9 view .LVU1675
 6846              	.LBB2155:
 6847              	.LBI2155:
 6848              		.file 16 "../../libs/libDaisy/src/per/i2c.h"
   1:../../libs/libDaisy/src/per/i2c.h **** #pragma once
   2:../../libs/libDaisy/src/per/i2c.h **** #include "util/hal_map.h"
   3:../../libs/libDaisy/src/per/i2c.h **** #include "daisy_core.h"
   4:../../libs/libDaisy/src/per/i2c.h **** 
   5:../../libs/libDaisy/src/per/i2c.h **** namespace daisy
   6:../../libs/libDaisy/src/per/i2c.h **** {
   7:../../libs/libDaisy/src/per/i2c.h **** /** A handle for interacting with an I2C peripheral. This is a dumb
   8:../../libs/libDaisy/src/per/i2c.h ****  *  gateway that internally points to one of the four I2C peripherals
   9:../../libs/libDaisy/src/per/i2c.h ****  *  after it was initialised. It can then be copied and passed around.
  10:../../libs/libDaisy/src/per/i2c.h ****  *  Use an I2CHandle like this:
  11:../../libs/libDaisy/src/per/i2c.h ****  *  
  12:../../libs/libDaisy/src/per/i2c.h ****  *      // setup the configuration
  13:../../libs/libDaisy/src/per/i2c.h ****  *      I2CHandle::Config i2c_conf;
  14:../../libs/libDaisy/src/per/i2c.h ****  *      i2c_conf.periph = I2CHandle::Config::Peripheral::I2C_1;
  15:../../libs/libDaisy/src/per/i2c.h ****  *      i2c_conf.speed  = I2CHandle::Config::Speed::I2C_400KHZ;
  16:../../libs/libDaisy/src/per/i2c.h ****  *      i2c_conf.mode   = I2CHandle::Config::Mode::Master;
  17:../../libs/libDaisy/src/per/i2c.h ****  *      i2c_conf.pin_config.scl  = {DSY_GPIOB, 8};
  18:../../libs/libDaisy/src/per/i2c.h ****  *      i2c_conf.pin_config.sda  = {DSY_GPIOB, 9};
  19:../../libs/libDaisy/src/per/i2c.h ****  *      // initialise the peripheral
  20:../../libs/libDaisy/src/per/i2c.h ****  *      I2CHandle i2c;
  21:../../libs/libDaisy/src/per/i2c.h ****  *      i2c.Init(i2c_conf);
  22:../../libs/libDaisy/src/per/i2c.h ****  *      // now i2c points to the corresponding peripheral and can be used.
  23:../../libs/libDaisy/src/per/i2c.h ****  *      i2c.TransmitBlocking( ... );
  24:../../libs/libDaisy/src/per/i2c.h ****  */
ARM GAS  C:\Users\matte\AppData\Local\Temp\ccvehO0v.s 			page 192


  25:../../libs/libDaisy/src/per/i2c.h **** class I2CHandle
  26:../../libs/libDaisy/src/per/i2c.h **** {
  27:../../libs/libDaisy/src/per/i2c.h ****   public:
  28:../../libs/libDaisy/src/per/i2c.h ****     /** Contains settings for initialising an I2C interface. */
  29:../../libs/libDaisy/src/per/i2c.h ****     struct Config
 6849              		.loc 16 29 12 view .LVU1676
 6850              	.LBB2156:
 6851              	.LBI2156:
  30:../../libs/libDaisy/src/per/i2c.h ****     {
  31:../../libs/libDaisy/src/per/i2c.h ****         /** Specifies whether the interface will operate in master or slave mode. */
  32:../../libs/libDaisy/src/per/i2c.h ****         enum class Mode
  33:../../libs/libDaisy/src/per/i2c.h ****         {
  34:../../libs/libDaisy/src/per/i2c.h ****             I2C_MASTER,
  35:../../libs/libDaisy/src/per/i2c.h ****             I2C_SLAVE,
  36:../../libs/libDaisy/src/per/i2c.h ****         };
  37:../../libs/libDaisy/src/per/i2c.h **** 
  38:../../libs/libDaisy/src/per/i2c.h ****         /** Specifices the internal peripheral to use (these are mapped to different pins on the ha
  39:../../libs/libDaisy/src/per/i2c.h ****         enum class Peripheral
  40:../../libs/libDaisy/src/per/i2c.h ****         {
  41:../../libs/libDaisy/src/per/i2c.h ****             I2C_1 = 0, /**< & */
  42:../../libs/libDaisy/src/per/i2c.h ****             I2C_2,     /**< & */
  43:../../libs/libDaisy/src/per/i2c.h ****             I2C_3,     /**< & */
  44:../../libs/libDaisy/src/per/i2c.h ****             I2C_4,     /**< & */
  45:../../libs/libDaisy/src/per/i2c.h ****         };
  46:../../libs/libDaisy/src/per/i2c.h **** 
  47:../../libs/libDaisy/src/per/i2c.h ****         /** Rate at which the clock/data will be sent/received. The device being used will have max
  48:../../libs/libDaisy/src/per/i2c.h ****          *  1MHZ Mode is currently 886kHz
  49:../../libs/libDaisy/src/per/i2c.h ****          */
  50:../../libs/libDaisy/src/per/i2c.h ****         enum class Speed
  51:../../libs/libDaisy/src/per/i2c.h ****         {
  52:../../libs/libDaisy/src/per/i2c.h ****             I2C_100KHZ, /**< & */
  53:../../libs/libDaisy/src/per/i2c.h ****             I2C_400KHZ, /**< & */
  54:../../libs/libDaisy/src/per/i2c.h ****             I2C_1MHZ,   /**< & */
  55:../../libs/libDaisy/src/per/i2c.h ****         };
  56:../../libs/libDaisy/src/per/i2c.h **** 
  57:../../libs/libDaisy/src/per/i2c.h ****         Peripheral periph; /**< & */
  58:../../libs/libDaisy/src/per/i2c.h ****         struct
  59:../../libs/libDaisy/src/per/i2c.h ****         {
 6852              		.loc 16 59 9 view .LVU1677
 6853              	.LBB2157:
 6854              	.LBI2157:
 6855              		.file 17 "../../libs/libDaisy/src/daisy_core.h"
   1:../../libs/libDaisy/src/daisy_core.h **** #pragma once
   2:../../libs/libDaisy/src/daisy_core.h **** #ifndef DSY_CORE_HW_H
   3:../../libs/libDaisy/src/daisy_core.h **** #define DSY_CORE_HW_H /**< & */
   4:../../libs/libDaisy/src/daisy_core.h **** #include <stdint.h>
   5:../../libs/libDaisy/src/daisy_core.h **** #include <stdlib.h>
   6:../../libs/libDaisy/src/daisy_core.h **** 
   7:../../libs/libDaisy/src/daisy_core.h **** #if defined(_MSC_VER)
   8:../../libs/libDaisy/src/daisy_core.h **** #define FORCE_INLINE __forceinline /**< & */
   9:../../libs/libDaisy/src/daisy_core.h **** #elif defined(__clang__)
  10:../../libs/libDaisy/src/daisy_core.h **** #define FORCE_INLINE inline __attribute__((always_inline)) /**< & */
  11:../../libs/libDaisy/src/daisy_core.h **** #pragma clang diagnostic ignored "-Wduplicate-decl-specifier"
  12:../../libs/libDaisy/src/daisy_core.h **** #elif defined(__GNUC__)
  13:../../libs/libDaisy/src/daisy_core.h **** #define FORCE_INLINE inline __attribute__((always_inline)) /**< & */
  14:../../libs/libDaisy/src/daisy_core.h **** #else
  15:../../libs/libDaisy/src/daisy_core.h **** #error unknown compiler
ARM GAS  C:\Users\matte\AppData\Local\Temp\ccvehO0v.s 			page 193


  16:../../libs/libDaisy/src/daisy_core.h **** #endif
  17:../../libs/libDaisy/src/daisy_core.h **** 
  18:../../libs/libDaisy/src/daisy_core.h **** /** @addtogroup utility
  19:../../libs/libDaisy/src/daisy_core.h ****     @{
  20:../../libs/libDaisy/src/daisy_core.h **** */
  21:../../libs/libDaisy/src/daisy_core.h **** 
  22:../../libs/libDaisy/src/daisy_core.h **** /** Macro for area of memory that is configured as cacheless
  23:../../libs/libDaisy/src/daisy_core.h **** This should be used primarily for DMA buffers, and the like.
  24:../../libs/libDaisy/src/daisy_core.h **** */
  25:../../libs/libDaisy/src/daisy_core.h **** #define DMA_BUFFER_MEM_SECTION __attribute__((section(".sram1_bss")))
  26:../../libs/libDaisy/src/daisy_core.h **** /** 
  27:../../libs/libDaisy/src/daisy_core.h **** THE DTCM RAM section is also non-cached. However, is not suitable 
  28:../../libs/libDaisy/src/daisy_core.h **** for DMA transfers. Performance is on par with internal SRAM w/ 
  29:../../libs/libDaisy/src/daisy_core.h **** cache enabled.
  30:../../libs/libDaisy/src/daisy_core.h **** */
  31:../../libs/libDaisy/src/daisy_core.h **** #define DTCM_MEM_SECTION __attribute__((section(".dtcmram_bss")))
  32:../../libs/libDaisy/src/daisy_core.h **** 
  33:../../libs/libDaisy/src/daisy_core.h **** #define FBIPMAX 0.999985f             /**< close to 1.0f-LSB at 16 bit */
  34:../../libs/libDaisy/src/daisy_core.h **** #define FBIPMIN (-FBIPMAX)            /**< - (1 - LSB) */
  35:../../libs/libDaisy/src/daisy_core.h **** #define U82F_SCALE 0.0078740f         /**< 1 / 127 */
  36:../../libs/libDaisy/src/daisy_core.h **** #define F2U8_SCALE 127.0f             /**< 128 - 1 */
  37:../../libs/libDaisy/src/daisy_core.h **** #define S82F_SCALE 0.0078125f         /**< 1 / (2**7) */
  38:../../libs/libDaisy/src/daisy_core.h **** #define F2S8_SCALE 127.0f             /**< (2 ** 7) - 1 */
  39:../../libs/libDaisy/src/daisy_core.h **** #define S162F_SCALE 3.0517578125e-05f /**< 1 / (2** 15) */
  40:../../libs/libDaisy/src/daisy_core.h **** #define F2S16_SCALE 32767.0f          /**< (2 ** 15) - 1 */
  41:../../libs/libDaisy/src/daisy_core.h **** #define F2S24_SCALE 8388608.0f        /**< 2 ** 23 */
  42:../../libs/libDaisy/src/daisy_core.h **** #define S242F_SCALE 1.192092896e-07f  /**< 1 / (2 ** 23) */
  43:../../libs/libDaisy/src/daisy_core.h **** #define S24SIGN 0x800000              /**< 2 ** 23 */
  44:../../libs/libDaisy/src/daisy_core.h **** #define S322F_SCALE 4.6566129e-10f    /**< 1 / (2** 31) */
  45:../../libs/libDaisy/src/daisy_core.h **** #define F2S32_SCALE 2147483647.f      /**< (2 ** 31) - 1 */
  46:../../libs/libDaisy/src/daisy_core.h **** 
  47:../../libs/libDaisy/src/daisy_core.h **** 
  48:../../libs/libDaisy/src/daisy_core.h **** /** shorthand macro for simplifying the reading of the left 
  49:../../libs/libDaisy/src/daisy_core.h ****  *  channel of a non-interleaved output buffer named out */
  50:../../libs/libDaisy/src/daisy_core.h **** #define OUT_L out[0]
  51:../../libs/libDaisy/src/daisy_core.h **** 
  52:../../libs/libDaisy/src/daisy_core.h **** /** shorthand macro for simplifying the reading of the right 
  53:../../libs/libDaisy/src/daisy_core.h ****  *  channel of a non-interleaved output buffer named out */
  54:../../libs/libDaisy/src/daisy_core.h **** #define OUT_R out[1]
  55:../../libs/libDaisy/src/daisy_core.h **** 
  56:../../libs/libDaisy/src/daisy_core.h **** /** shorthand macro for simplifying the reading of the left 
  57:../../libs/libDaisy/src/daisy_core.h ****  *  channel of a non-interleaved input buffer named in */
  58:../../libs/libDaisy/src/daisy_core.h **** #define IN_L in[0]
  59:../../libs/libDaisy/src/daisy_core.h **** 
  60:../../libs/libDaisy/src/daisy_core.h **** /** shorthand macro for simplifying the reading of the right 
  61:../../libs/libDaisy/src/daisy_core.h ****  *  channel of a non-interleaved input buffer named in */
  62:../../libs/libDaisy/src/daisy_core.h **** #define IN_R in[1]
  63:../../libs/libDaisy/src/daisy_core.h **** 
  64:../../libs/libDaisy/src/daisy_core.h **** /** 
  65:../../libs/libDaisy/src/daisy_core.h ****     Computes cube.
  66:../../libs/libDaisy/src/daisy_core.h ****     \param x Number to be cubed
  67:../../libs/libDaisy/src/daisy_core.h ****     \return x ^ 3
  68:../../libs/libDaisy/src/daisy_core.h **** */
  69:../../libs/libDaisy/src/daisy_core.h **** FORCE_INLINE float cube(float x)
  70:../../libs/libDaisy/src/daisy_core.h **** {
  71:../../libs/libDaisy/src/daisy_core.h ****     return (x * x) * x;
  72:../../libs/libDaisy/src/daisy_core.h **** }
ARM GAS  C:\Users\matte\AppData\Local\Temp\ccvehO0v.s 			page 194


  73:../../libs/libDaisy/src/daisy_core.h **** 
  74:../../libs/libDaisy/src/daisy_core.h **** /** 
  75:../../libs/libDaisy/src/daisy_core.h ****     Converts unsigned 8-bit to float
  76:../../libs/libDaisy/src/daisy_core.h ****     \param x Number to be scaled.
  77:../../libs/libDaisy/src/daisy_core.h ****     \return Scaled number.
  78:../../libs/libDaisy/src/daisy_core.h **** */
  79:../../libs/libDaisy/src/daisy_core.h **** FORCE_INLINE float u82f(uint8_t x)
  80:../../libs/libDaisy/src/daisy_core.h **** {
  81:../../libs/libDaisy/src/daisy_core.h ****     return ((float)x - 127.f) * U82F_SCALE;
  82:../../libs/libDaisy/src/daisy_core.h **** }
  83:../../libs/libDaisy/src/daisy_core.h **** 
  84:../../libs/libDaisy/src/daisy_core.h **** /**
  85:../../libs/libDaisy/src/daisy_core.h ****     Converts float to unsigned 8-bit
  86:../../libs/libDaisy/src/daisy_core.h **** */
  87:../../libs/libDaisy/src/daisy_core.h **** FORCE_INLINE uint8_t f2u8(float x)
  88:../../libs/libDaisy/src/daisy_core.h **** {
  89:../../libs/libDaisy/src/daisy_core.h ****     x = x <= FBIPMIN ? FBIPMIN : x;
  90:../../libs/libDaisy/src/daisy_core.h ****     x = x >= FBIPMAX ? FBIPMAX : x;
  91:../../libs/libDaisy/src/daisy_core.h ****     return (uint8_t)((x * F2U8_SCALE) + F2U8_SCALE);
  92:../../libs/libDaisy/src/daisy_core.h **** }
  93:../../libs/libDaisy/src/daisy_core.h **** 
  94:../../libs/libDaisy/src/daisy_core.h **** 
  95:../../libs/libDaisy/src/daisy_core.h **** /** 
  96:../../libs/libDaisy/src/daisy_core.h ****     Converts Signed 8-bit to float
  97:../../libs/libDaisy/src/daisy_core.h ****     \param x Number to be scaled.
  98:../../libs/libDaisy/src/daisy_core.h ****     \return Scaled number.
  99:../../libs/libDaisy/src/daisy_core.h **** */
 100:../../libs/libDaisy/src/daisy_core.h **** FORCE_INLINE float s82f(int8_t x)
 101:../../libs/libDaisy/src/daisy_core.h **** {
 102:../../libs/libDaisy/src/daisy_core.h ****     return (float)x * S82F_SCALE;
 103:../../libs/libDaisy/src/daisy_core.h **** }
 104:../../libs/libDaisy/src/daisy_core.h **** 
 105:../../libs/libDaisy/src/daisy_core.h **** /**
 106:../../libs/libDaisy/src/daisy_core.h ****     Converts float to Signed 8-bit
 107:../../libs/libDaisy/src/daisy_core.h **** */
 108:../../libs/libDaisy/src/daisy_core.h **** FORCE_INLINE int8_t f2s8(float x)
 109:../../libs/libDaisy/src/daisy_core.h **** {
 110:../../libs/libDaisy/src/daisy_core.h ****     x = x <= FBIPMIN ? FBIPMIN : x;
 111:../../libs/libDaisy/src/daisy_core.h ****     x = x >= FBIPMAX ? FBIPMAX : x;
 112:../../libs/libDaisy/src/daisy_core.h ****     return (int32_t)(x * F2S8_SCALE);
 113:../../libs/libDaisy/src/daisy_core.h **** }
 114:../../libs/libDaisy/src/daisy_core.h **** 
 115:../../libs/libDaisy/src/daisy_core.h **** /** 
 116:../../libs/libDaisy/src/daisy_core.h ****     Converts Signed 16-bit to float
 117:../../libs/libDaisy/src/daisy_core.h ****     \param x Number to be scaled.
 118:../../libs/libDaisy/src/daisy_core.h ****     \return Scaled number.
 119:../../libs/libDaisy/src/daisy_core.h **** */
 120:../../libs/libDaisy/src/daisy_core.h **** FORCE_INLINE float s162f(int16_t x)
 121:../../libs/libDaisy/src/daisy_core.h **** {
 122:../../libs/libDaisy/src/daisy_core.h ****     return (float)x * S162F_SCALE;
 123:../../libs/libDaisy/src/daisy_core.h **** }
 124:../../libs/libDaisy/src/daisy_core.h **** 
 125:../../libs/libDaisy/src/daisy_core.h **** /**
 126:../../libs/libDaisy/src/daisy_core.h ****     Converts float to Signed 16-bit
 127:../../libs/libDaisy/src/daisy_core.h **** */
 128:../../libs/libDaisy/src/daisy_core.h **** FORCE_INLINE int16_t f2s16(float x)
 129:../../libs/libDaisy/src/daisy_core.h **** {
ARM GAS  C:\Users\matte\AppData\Local\Temp\ccvehO0v.s 			page 195


 130:../../libs/libDaisy/src/daisy_core.h ****     x = x <= FBIPMIN ? FBIPMIN : x;
 131:../../libs/libDaisy/src/daisy_core.h ****     x = x >= FBIPMAX ? FBIPMAX : x;
 132:../../libs/libDaisy/src/daisy_core.h ****     return (int32_t)(x * F2S16_SCALE);
 133:../../libs/libDaisy/src/daisy_core.h **** }
 134:../../libs/libDaisy/src/daisy_core.h **** 
 135:../../libs/libDaisy/src/daisy_core.h **** /**
 136:../../libs/libDaisy/src/daisy_core.h ****     Converts Signed 24-bit to float
 137:../../libs/libDaisy/src/daisy_core.h ****  */
 138:../../libs/libDaisy/src/daisy_core.h **** FORCE_INLINE float s242f(int32_t x)
 139:../../libs/libDaisy/src/daisy_core.h **** {
 140:../../libs/libDaisy/src/daisy_core.h ****     x = (x ^ S24SIGN) - S24SIGN; //sign extend aka ((x<<8)>>8)
 141:../../libs/libDaisy/src/daisy_core.h ****     return (float)x * S242F_SCALE;
 142:../../libs/libDaisy/src/daisy_core.h **** }
 143:../../libs/libDaisy/src/daisy_core.h **** /**
 144:../../libs/libDaisy/src/daisy_core.h ****     Converts float to Signed 24-bit
 145:../../libs/libDaisy/src/daisy_core.h ****  */
 146:../../libs/libDaisy/src/daisy_core.h **** FORCE_INLINE int32_t f2s24(float x)
 147:../../libs/libDaisy/src/daisy_core.h **** {
 148:../../libs/libDaisy/src/daisy_core.h ****     x = x <= FBIPMIN ? FBIPMIN : x;
 149:../../libs/libDaisy/src/daisy_core.h ****     x = x >= FBIPMAX ? FBIPMAX : x;
 150:../../libs/libDaisy/src/daisy_core.h ****     return (int32_t)(x * F2S24_SCALE);
 151:../../libs/libDaisy/src/daisy_core.h **** }
 152:../../libs/libDaisy/src/daisy_core.h **** 
 153:../../libs/libDaisy/src/daisy_core.h **** /**
 154:../../libs/libDaisy/src/daisy_core.h ****     Converts Signed 32-bit to float
 155:../../libs/libDaisy/src/daisy_core.h ****  */
 156:../../libs/libDaisy/src/daisy_core.h **** FORCE_INLINE float s322f(int32_t x)
 157:../../libs/libDaisy/src/daisy_core.h **** {
 158:../../libs/libDaisy/src/daisy_core.h ****     return (float)x * S322F_SCALE;
 159:../../libs/libDaisy/src/daisy_core.h **** }
 160:../../libs/libDaisy/src/daisy_core.h **** /**
 161:../../libs/libDaisy/src/daisy_core.h ****     Converts float to Signed 24-bit
 162:../../libs/libDaisy/src/daisy_core.h ****  */
 163:../../libs/libDaisy/src/daisy_core.h **** FORCE_INLINE int32_t f2s32(float x)
 164:../../libs/libDaisy/src/daisy_core.h **** {
 165:../../libs/libDaisy/src/daisy_core.h ****     x = x <= FBIPMIN ? FBIPMIN : x;
 166:../../libs/libDaisy/src/daisy_core.h ****     x = x >= FBIPMAX ? FBIPMAX : x;
 167:../../libs/libDaisy/src/daisy_core.h ****     return (int32_t)(x * F2S32_SCALE);
 168:../../libs/libDaisy/src/daisy_core.h **** }
 169:../../libs/libDaisy/src/daisy_core.h **** 
 170:../../libs/libDaisy/src/daisy_core.h **** #ifdef __cplusplus
 171:../../libs/libDaisy/src/daisy_core.h **** 
 172:../../libs/libDaisy/src/daisy_core.h **** namespace daisy
 173:../../libs/libDaisy/src/daisy_core.h **** {
 174:../../libs/libDaisy/src/daisy_core.h **** /** @brief GPIO Port names */
 175:../../libs/libDaisy/src/daisy_core.h **** enum GPIOPort
 176:../../libs/libDaisy/src/daisy_core.h **** {
 177:../../libs/libDaisy/src/daisy_core.h ****     PORTA, /**< Port A */
 178:../../libs/libDaisy/src/daisy_core.h ****     PORTB, /**< Port B */
 179:../../libs/libDaisy/src/daisy_core.h ****     PORTC, /**< Port C */
 180:../../libs/libDaisy/src/daisy_core.h ****     PORTD, /**< Port D */
 181:../../libs/libDaisy/src/daisy_core.h ****     PORTE, /**< Port E */
 182:../../libs/libDaisy/src/daisy_core.h ****     PORTF, /**< Port F */
 183:../../libs/libDaisy/src/daisy_core.h ****     PORTG, /**< Port G */
 184:../../libs/libDaisy/src/daisy_core.h ****     PORTH, /**< Port H */
 185:../../libs/libDaisy/src/daisy_core.h ****     PORTI, /**< Port I */
 186:../../libs/libDaisy/src/daisy_core.h ****     PORTJ, /**< Port J */
ARM GAS  C:\Users\matte\AppData\Local\Temp\ccvehO0v.s 			page 196


 187:../../libs/libDaisy/src/daisy_core.h ****     PORTK, /**< Port K */
 188:../../libs/libDaisy/src/daisy_core.h ****     PORTX, /**< Used as a dummy port to signal an invalid pin. */
 189:../../libs/libDaisy/src/daisy_core.h **** };
 190:../../libs/libDaisy/src/daisy_core.h **** 
 191:../../libs/libDaisy/src/daisy_core.h **** /** @brief representation of hardware port/pin combination */
 192:../../libs/libDaisy/src/daisy_core.h **** struct Pin
 193:../../libs/libDaisy/src/daisy_core.h **** {
 194:../../libs/libDaisy/src/daisy_core.h ****     GPIOPort port;
 195:../../libs/libDaisy/src/daisy_core.h ****     uint8_t  pin;
 196:../../libs/libDaisy/src/daisy_core.h **** 
 197:../../libs/libDaisy/src/daisy_core.h ****     /** @brief Constructor creates a valid pin. 
 198:../../libs/libDaisy/src/daisy_core.h ****      *  @param pt GPIOPort between PA, and PK corresponding to STM32 Port.
 199:../../libs/libDaisy/src/daisy_core.h ****      *  @param pn pin number in range of 0-15
 200:../../libs/libDaisy/src/daisy_core.h ****     */
 201:../../libs/libDaisy/src/daisy_core.h ****     constexpr Pin(const GPIOPort pt, const uint8_t pn) : port(pt), pin(pn) {}
 202:../../libs/libDaisy/src/daisy_core.h **** 
 203:../../libs/libDaisy/src/daisy_core.h ****     /** @brief Basic Constructor creates an invalid Pin object */
 204:../../libs/libDaisy/src/daisy_core.h ****     constexpr Pin() : port(PORTX), pin(255) {}
 6856              		.loc 17 204 15 view .LVU1678
 6857              		.loc 17 204 15 is_stmt 0 view .LVU1679
 6858              	.LBE2157:
 6859              	.LBB2158:
 6860              	.LBI2158:
 6861              		.loc 17 204 15 is_stmt 1 view .LVU1680
 6862              		.loc 17 204 15 is_stmt 0 view .LVU1681
 6863              	.LBE2158:
 6864              	.LBE2156:
 6865              	.LBE2155:
 6866              	.LBE2154:
 6867              	.LBE2153:
 6868              	.LBE2152:
  23:../../libs/libDaisy/src/sys/../../../../libs/libDaisy/src/dev/oled_ssd130x.h ****         }
 6869              		.loc 11 23 13 is_stmt 1 view .LVU1682
 6870              	.LBB2170:
 6871              	.LBB2167:
 6872              	.LBB2164:
 6873              	.LBB2159:
 6874              	.LBI2159:
  27:../../libs/libDaisy/src/sys/../../../../libs/libDaisy/src/dev/oled_ssd130x.h ****         {
 6875              		.loc 11 27 27 view .LVU1683
 6876              	.LBE2159:
 6877              	.LBE2164:
 6878              	.LBE2167:
 6879              	.LBE2170:
  29:../../libs/libDaisy/src/sys/../../../../libs/libDaisy/src/dev/oled_ssd130x.h ****             i2c_config.speed          = I2CHandle::Config::Speed::I2C_1MHZ;
 6880              		.loc 11 29 13 view .LVU1684
  30:../../libs/libDaisy/src/sys/../../../../libs/libDaisy/src/dev/oled_ssd130x.h ****             i2c_config.mode           = I2CHandle::Config::Mode::I2C_MASTER;
 6881              		.loc 11 30 13 view .LVU1685
  31:../../libs/libDaisy/src/sys/../../../../libs/libDaisy/src/dev/oled_ssd130x.h ****             i2c_config.pin_config.scl = Pin(PORTB, 8);
 6882              		.loc 11 31 13 view .LVU1686
  32:../../libs/libDaisy/src/sys/../../../../libs/libDaisy/src/dev/oled_ssd130x.h ****             i2c_config.pin_config.sda = Pin(PORTB, 9);
 6883              		.loc 11 32 13 view .LVU1687
 6884              	.LBB2171:
 6885              	.LBB2168:
 6886              	.LBB2165:
 6887              	.LBB2162:
 6888              	.LBB2160:
ARM GAS  C:\Users\matte\AppData\Local\Temp\ccvehO0v.s 			page 197


 6889              	.LBI2160:
 201:../../libs/libDaisy/src/daisy_core.h **** 
 6890              		.loc 17 201 15 view .LVU1688
 201:../../libs/libDaisy/src/daisy_core.h **** 
 6891              		.loc 17 201 15 is_stmt 0 view .LVU1689
 6892              	.LBE2160:
 6893              	.LBE2162:
 6894              	.LBE2165:
 6895              	.LBE2168:
 6896              	.LBE2171:
  33:../../libs/libDaisy/src/sys/../../../../libs/libDaisy/src/dev/oled_ssd130x.h ****             i2c_address               = 0x3C;
 6897              		.loc 11 33 13 is_stmt 1 view .LVU1690
 6898              	.LBB2172:
 6899              	.LBB2169:
 6900              	.LBB2166:
 6901              	.LBB2163:
 6902              	.LBB2161:
 6903              	.LBI2161:
 201:../../libs/libDaisy/src/daisy_core.h **** 
 6904              		.loc 17 201 15 view .LVU1691
 201:../../libs/libDaisy/src/daisy_core.h **** 
 6905              		.loc 17 201 15 is_stmt 0 view .LVU1692
 6906              	.LBE2161:
 6907              	.LBE2163:
 6908              	.LBE2166:
 6909              	.LBE2169:
 6910              	.LBE2172:
  34:../../libs/libDaisy/src/sys/../../../../libs/libDaisy/src/dev/oled_ssd130x.h ****         }
 6911              		.loc 11 34 13 is_stmt 1 view .LVU1693
  82:main.cpp      ****   disp1.SetState(DisplayState::WAVEFORM_VIEWER);
 6912              		.loc 13 82 5 view .LVU1694
  82:main.cpp      ****   disp1.SetState(DisplayState::WAVEFORM_VIEWER);
 6913              		.loc 13 82 5 is_stmt 0 view .LVU1695
 6914 0050 BC4B     		ldr	r3, .L445+8
 6915 0052 CDF85480 		str	r8, [sp, #84]
 6916 0056 1393     		str	r3, [sp, #76]
 6917 0058 3C23     		movs	r3, #60
 6918 005a CDF84880 		str	r8, [sp, #72]
 6919 005e 8DF85C30 		strb	r3, [sp, #92]
 6920              	.LBB2173:
 6921              	.LBI2146:
  25:../../libs/libDaisy/src/hid/disp/oled_display.h **** 
 6922              		.loc 9 25 10 is_stmt 1 view .LVU1696
 6923              	.LBE2173:
 6924              	.LBB2174:
 6925              	.LBB2139:
 142:../../libs/libDaisy/src/dev/mpr121.h ****         WriteRegister(MPR121_MHDR, 0x01);
 6926              		.loc 12 142 22 is_stmt 0 view .LVU1697
 6927 0062 4123     		movs	r3, #65
 6928              	.LBE2139:
 6929              	.LBE2174:
 6930              	.LBB2175:
 6931              	.LBB2149:
  25:../../libs/libDaisy/src/hid/disp/oled_display.h **** 
 6932              		.loc 9 25 44 view .LVU1698
 6933 0064 12E90700 		ldmdb	r2, {r0, r1, r2}
 6934              	.LBE2149:
ARM GAS  C:\Users\matte\AppData\Local\Temp\ccvehO0v.s 			page 198


 6935              	.LBE2175:
 6936              	.LBB2176:
 6937              	.LBB2140:
 142:../../libs/libDaisy/src/dev/mpr121.h ****         WriteRegister(MPR121_MHDR, 0x01);
 6938              		.loc 12 142 22 view .LVU1699
 6939 0068 0693     		str	r3, [sp, #24]
 6940              	.LBE2140:
 6941              	.LBE2176:
 6942              	.LBB2177:
 6943              	.LBB2150:
  25:../../libs/libDaisy/src/hid/disp/oled_display.h **** 
 6944              		.loc 9 25 44 view .LVU1700
 6945 006a 8DE80700 		stm	sp, {r0, r1, r2}
 6946 006e B648     		ldr	r0, .L445+12
 6947 0070 96E80E00 		ldm	r6, {r1, r2, r3}
 6948 0074 FFF7FEFF 		bl	_ZN5daisy13SSD130xDriverILj128ELj64ENS_19SSD130xI2CTransportEE4InitENS2_6ConfigE
 6949              	.LVL493:
  25:../../libs/libDaisy/src/hid/disp/oled_display.h **** 
 6950              		.loc 9 25 44 view .LVU1701
 6951              	.LBE2150:
 6952              	.LBE2177:
  83:main.cpp      **** 
 6953              		.loc 13 83 3 is_stmt 1 view .LVU1702
  83:main.cpp      **** 
 6954              		.loc 13 83 17 is_stmt 0 view .LVU1703
 6955 0078 B448     		ldr	r0, .L445+16
 6956 007a 4946     		mov	r1, r9
 6957 007c FFF7FEFF 		bl	_ZN14DisplayHandler8SetStateE12DisplayState
 6958              	.LVL494:
  86:main.cpp      ****   pc.setScale(PlantConditioner::C, PlantConditioner::MinorArm);
 6959              		.loc 13 86 3 is_stmt 1 view .LVU1704
  86:main.cpp      ****   pc.setScale(PlantConditioner::C, PlantConditioner::MinorArm);
 6960              		.loc 13 86 10 is_stmt 0 view .LVU1705
 6961 0080 2946     		mov	r1, r5
 6962 0082 B348     		ldr	r0, .L445+20
 6963 0084 FFF7FEFF 		bl	_ZN16PlantConditioner4InitEN6CapFir7ResTypeE
 6964              	.LVL495:
  87:main.cpp      ****   pc.setOctave(3);
 6965              		.loc 13 87 3 is_stmt 1 view .LVU1706
  87:main.cpp      ****   pc.setOctave(3);
 6966              		.loc 13 87 14 is_stmt 0 view .LVU1707
 6967 0088 2A46     		mov	r2, r5
 6968 008a 4146     		mov	r1, r8
 6969 008c B048     		ldr	r0, .L445+20
 6970 008e FFF7FEFF 		bl	_ZN16PlantConditioner8setScaleENS_5NotesENS_9ScaleTypeE
 6971              	.LVL496:
  88:main.cpp      ****   pc.setCurve(100,1.1);
 6972              		.loc 13 88 3 is_stmt 1 view .LVU1708
  88:main.cpp      ****   pc.setCurve(100,1.1);
 6973              		.loc 13 88 15 is_stmt 0 view .LVU1709
 6974 0092 0321     		movs	r1, #3
 6975 0094 AE48     		ldr	r0, .L445+20
 6976 0096 FFF7FEFF 		bl	_ZN16PlantConditioner9setOctaveEh
 6977              	.LVL497:
  89:main.cpp      ****   
 6978              		.loc 13 89 3 is_stmt 1 view .LVU1710
  89:main.cpp      ****   
ARM GAS  C:\Users\matte\AppData\Local\Temp\ccvehO0v.s 			page 199


 6979              		.loc 13 89 14 is_stmt 0 view .LVU1711
 6980 009a 6421     		movs	r1, #100
 6981 009c 9FEDAD0A 		vldr.32	s0, .L445+24
 6982 00a0 AB48     		ldr	r0, .L445+20
 6983 00a2 FFF7FEFF 		bl	_ZN16PlantConditioner8setCurveEhf
 6984              	.LVL498:
  92:main.cpp      ****   osc.SetWaveform(Oscillator::WAVE_TRI); // sets the waveform
 6985              		.loc 13 92 3 is_stmt 1 view .LVU1712
 6986              	.LBB2178:
 6987              	.LBI1960:
  50:../../libs/DaisySP/Source/Synthesis/oscillator.h ****     {
 6988              		.loc 8 50 10 view .LVU1713
 6989              	.LBB1963:
  52:../../libs/DaisySP/Source/Synthesis/oscillator.h ****         sr_recip_  = 1.0f / sample_rate;
 6990              		.loc 8 52 9 view .LVU1714
  53:../../libs/DaisySP/Source/Synthesis/oscillator.h ****         freq_      = 100.0f;
 6991              		.loc 8 53 27 is_stmt 0 view .LVU1715
 6992 00a6 B7EE007A 		vmov.f32	s14, #1.0e+0
  57:../../libs/DaisySP/Source/Synthesis/oscillator.h ****         phase_inc_ = CalcPhaseInc(freq_);
 6993              		.loc 8 57 20 view .LVU1716
 6994 00aa 0023     		movs	r3, #0
  54:../../libs/DaisySP/Source/Synthesis/oscillator.h ****         amp_       = 0.5f;
 6995              		.loc 8 54 20 view .LVU1717
 6996 00ac 9FEDAA0A 		vldr.32	s0, .L445+28
  58:../../libs/DaisySP/Source/Synthesis/oscillator.h ****         waveform_  = WAVE_SIN;
 6997              		.loc 8 58 34 view .LVU1718
 6998 00b0 5846     		mov	r0, fp
  52:../../libs/DaisySP/Source/Synthesis/oscillator.h ****         sr_recip_  = 1.0f / sample_rate;
 6999              		.loc 8 52 20 view .LVU1719
 7000 00b2 8BED048A 		vstr.32	s16, [fp, #16]
  53:../../libs/DaisySP/Source/Synthesis/oscillator.h ****         freq_      = 100.0f;
 7001              		.loc 8 53 9 is_stmt 1 view .LVU1720
  53:../../libs/DaisySP/Source/Synthesis/oscillator.h ****         freq_      = 100.0f;
 7002              		.loc 8 53 27 is_stmt 0 view .LVU1721
 7003 00b6 C7EE087A 		vdiv.f32	s15, s14, s16
  57:../../libs/DaisySP/Source/Synthesis/oscillator.h ****         phase_inc_ = CalcPhaseInc(freq_);
 7004              		.loc 8 57 20 view .LVU1722
 7005 00ba CBF81830 		str	r3, [fp, #24]	@ float
  55:../../libs/DaisySP/Source/Synthesis/oscillator.h ****         pw_        = 0.5f;
 7006              		.loc 8 55 20 view .LVU1723
 7007 00be CBED018A 		vstr.32	s17, [fp, #4]
  56:../../libs/DaisySP/Source/Synthesis/oscillator.h ****         phase_     = 0.0f;
 7008              		.loc 8 56 20 view .LVU1724
 7009 00c2 CBED038A 		vstr.32	s17, [fp, #12]
  54:../../libs/DaisySP/Source/Synthesis/oscillator.h ****         amp_       = 0.5f;
 7010              		.loc 8 54 20 view .LVU1725
 7011 00c6 8BED020A 		vstr.32	s0, [fp, #8]
  53:../../libs/DaisySP/Source/Synthesis/oscillator.h ****         freq_      = 100.0f;
 7012              		.loc 8 53 20 view .LVU1726
 7013 00ca CBED057A 		vstr.32	s15, [fp, #20]
  54:../../libs/DaisySP/Source/Synthesis/oscillator.h ****         amp_       = 0.5f;
 7014              		.loc 8 54 9 is_stmt 1 view .LVU1727
  55:../../libs/DaisySP/Source/Synthesis/oscillator.h ****         pw_        = 0.5f;
 7015              		.loc 8 55 9 view .LVU1728
  56:../../libs/DaisySP/Source/Synthesis/oscillator.h ****         phase_     = 0.0f;
 7016              		.loc 8 56 9 view .LVU1729
  57:../../libs/DaisySP/Source/Synthesis/oscillator.h ****         phase_inc_ = CalcPhaseInc(freq_);
ARM GAS  C:\Users\matte\AppData\Local\Temp\ccvehO0v.s 			page 200


 7017              		.loc 8 57 9 view .LVU1730
  58:../../libs/DaisySP/Source/Synthesis/oscillator.h ****         waveform_  = WAVE_SIN;
 7018              		.loc 8 58 9 view .LVU1731
  58:../../libs/DaisySP/Source/Synthesis/oscillator.h ****         waveform_  = WAVE_SIN;
 7019              		.loc 8 58 34 is_stmt 0 view .LVU1732
 7020 00ce FFF7FEFF 		bl	_ZN7daisysp10Oscillator12CalcPhaseIncEf
 7021              	.LVL499:
  61:../../libs/DaisySP/Source/Synthesis/oscillator.h ****     }
 7022              		.loc 8 61 20 view .LVU1733
 7023 00d2 40F20113 		movw	r3, #257
  58:../../libs/DaisySP/Source/Synthesis/oscillator.h ****         waveform_  = WAVE_SIN;
 7024              		.loc 8 58 20 view .LVU1734
 7025 00d6 8BED070A 		vstr.32	s0, [fp, #28]
  59:../../libs/DaisySP/Source/Synthesis/oscillator.h ****         eoc_       = true;
 7026              		.loc 8 59 9 is_stmt 1 view .LVU1735
  60:../../libs/DaisySP/Source/Synthesis/oscillator.h ****         eor_       = true;
 7027              		.loc 8 60 9 view .LVU1736
  61:../../libs/DaisySP/Source/Synthesis/oscillator.h ****     }
 7028              		.loc 8 61 9 view .LVU1737
 7029              	.LBE1963:
 7030              	.LBE2178:
 7031              	.LBB2179:
 7032              	.LBB2180:
  69:../../libs/DaisySP/Source/Synthesis/oscillator.h ****         phase_inc_ = CalcPhaseInc(f);
 7033              		.loc 8 69 20 is_stmt 0 view .LVU1738
 7034 00da 9FEDA00A 		vldr.32	s0, .L445+32
  70:../../libs/DaisySP/Source/Synthesis/oscillator.h ****     }
 7035              		.loc 8 70 34 view .LVU1739
 7036 00de 5846     		mov	r0, fp
 7037              	.LBE2180:
 7038              	.LBE2179:
 7039              	.LBB2184:
 7040              	.LBB1964:
  61:../../libs/DaisySP/Source/Synthesis/oscillator.h ****     }
 7041              		.loc 8 61 20 view .LVU1740
 7042 00e0 ABF82830 		strh	r3, [fp, #40]	@ movhi
 7043              	.LVL500:
  61:../../libs/DaisySP/Source/Synthesis/oscillator.h ****     }
 7044              		.loc 8 61 20 view .LVU1741
 7045              	.LBE1964:
 7046              	.LBE2184:
  93:main.cpp      ****   osc.SetFreq(880.0f);                   // sets the frequency
 7047              		.loc 13 93 3 is_stmt 1 view .LVU1742
 7048              	.LBB2185:
 7049              	.LBI1956:
  79:../../libs/DaisySP/Source/Synthesis/oscillator.h ****     {
 7050              		.loc 8 79 17 view .LVU1743
 7051              	.LBB1958:
 7052              		.loc 8 81 9 view .LVU1744
 7053              		.loc 8 81 9 is_stmt 0 view .LVU1745
 7054              	.LBE1958:
 7055              	.LBE2185:
  94:main.cpp      ****   osc.SetAmp(0.5f);                      // sets the amplitude
 7056              		.loc 13 94 3 is_stmt 1 view .LVU1746
 7057              	.LBB2186:
 7058              	.LBI2179:
  67:../../libs/DaisySP/Source/Synthesis/oscillator.h ****     {
ARM GAS  C:\Users\matte\AppData\Local\Temp\ccvehO0v.s 			page 201


 7059              		.loc 8 67 17 view .LVU1747
 7060              	.LBB2181:
  69:../../libs/DaisySP/Source/Synthesis/oscillator.h ****         phase_inc_ = CalcPhaseInc(f);
 7061              		.loc 8 69 9 view .LVU1748
  70:../../libs/DaisySP/Source/Synthesis/oscillator.h ****     }
 7062              		.loc 8 70 9 view .LVU1749
 7063              	.LBE2181:
 7064              	.LBE2186:
 7065              	.LBB2187:
 7066              	.LBB1959:
 7067              		.loc 8 81 19 is_stmt 0 view .LVU1750
 7068 00e4 8BF80090 		strb	r9, [fp]
 7069              	.LBE1959:
 7070              	.LBE2187:
 7071              	.LBB2188:
 7072              	.LBB2182:
  69:../../libs/DaisySP/Source/Synthesis/oscillator.h ****         phase_inc_ = CalcPhaseInc(f);
 7073              		.loc 8 69 20 view .LVU1751
 7074 00e8 8BED020A 		vstr.32	s0, [fp, #8]
  70:../../libs/DaisySP/Source/Synthesis/oscillator.h ****     }
 7075              		.loc 8 70 34 view .LVU1752
 7076 00ec FFF7FEFF 		bl	_ZN7daisysp10Oscillator12CalcPhaseIncEf
 7077              	.LVL501:
 7078              	.LBE2182:
 7079              	.LBE2188:
 7080              		.loc 13 97 11 view .LVU1753
 7081 00f0 5046     		mov	r0, r10
 7082 00f2 4946     		mov	r1, r9
 7083              	.LBB2189:
 7084              	.LBB2183:
  70:../../libs/DaisySP/Source/Synthesis/oscillator.h ****     }
 7085              		.loc 8 70 20 view .LVU1754
 7086 00f4 8BED070A 		vstr.32	s0, [fp, #28]
 7087              	.LVL502:
  70:../../libs/DaisySP/Source/Synthesis/oscillator.h ****     }
 7088              		.loc 8 70 20 view .LVU1755
 7089              	.LBE2183:
 7090              	.LBE2189:
  95:main.cpp      **** 
 7091              		.loc 13 95 3 is_stmt 1 view .LVU1756
 7092              	.LBB2190:
 7093              	.LBI2190:
  76:../../libs/DaisySP/Source/Synthesis/oscillator.h ****     /** Sets the waveform to be synthesized by the Process() function.
 7094              		.loc 8 76 17 view .LVU1757
 7095              	.LBB2191:
  76:../../libs/DaisySP/Source/Synthesis/oscillator.h ****     /** Sets the waveform to be synthesized by the Process() function.
 7096              		.loc 8 76 41 view .LVU1758
  76:../../libs/DaisySP/Source/Synthesis/oscillator.h ****     /** Sets the waveform to be synthesized by the Process() function.
 7097              		.loc 8 76 41 is_stmt 0 view .LVU1759
 7098              	.LBE2191:
 7099              	.LBE2190:
 7100              		.loc 13 97 3 is_stmt 1 view .LVU1760
 7101              		.loc 13 97 11 is_stmt 0 view .LVU1761
 7102 00f8 B0EE480A 		vmov.f32	s0, s16
 7103              	.LBB2193:
 7104              	.LBB2192:
  76:../../libs/DaisySP/Source/Synthesis/oscillator.h ****     /** Sets the waveform to be synthesized by the Process() function.
ARM GAS  C:\Users\matte\AppData\Local\Temp\ccvehO0v.s 			page 202


 7105              		.loc 8 76 46 view .LVU1762
 7106 00fc CBED018A 		vstr.32	s17, [fp, #4]
 7107              	.LBE2192:
 7108              	.LBE2193:
 7109              		.loc 13 97 11 view .LVU1763
 7110 0100 FFF7FEFF 		bl	_ZN7daisysp4Adsr4InitEfi
 7111              	.LVL503:
  98:main.cpp      ****   env.SetTime(ADSR_SEG_ATTACK, 0.05f);
 7112              		.loc 13 98 3 is_stmt 1 view .LVU1764
 7113              		.loc 13 98 14 is_stmt 0 view .LVU1765
 7114 0104 5046     		mov	r0, r10
 7115 0106 9FED960A 		vldr.32	s0, .L445+36
 7116 010a 4946     		mov	r1, r9
 7117 010c FFF7FEFF 		bl	_ZN7daisysp4Adsr7SetTimeEif
 7118              	.LVL504:
  99:main.cpp      ****   env.SetTime(ADSR_SEG_DECAY, 0.1f);
 7119              		.loc 13 99 3 is_stmt 1 view .LVU1766
 7120              		.loc 13 99 14 is_stmt 0 view .LVU1767
 7121 0110 2946     		mov	r1, r5
 7122 0112 5046     		mov	r0, r10
 7123 0114 9FED930A 		vldr.32	s0, .L445+40
 7124 0118 FFF7FEFF 		bl	_ZN7daisysp4Adsr7SetTimeEif
 7125              	.LVL505:
 100:main.cpp      ****   env.SetSustainLevel(0.7f);
 7126              		.loc 13 100 3 is_stmt 1 view .LVU1768
 7127              	.LBB2194:
 7128              	.LBI2194:
  46:../../libs/DaisySP/Source/Control/adsr.h ****     /** Initializes the Adsr module.
  47:../../libs/DaisySP/Source/Control/adsr.h ****         \param sample_rate - The sample rate of the audio engine being run. 
  48:../../libs/DaisySP/Source/Control/adsr.h ****     */
  49:../../libs/DaisySP/Source/Control/adsr.h ****     void Init(float sample_rate, int blockSize = 1);
  50:../../libs/DaisySP/Source/Control/adsr.h ****     /**
  51:../../libs/DaisySP/Source/Control/adsr.h ****      \function Retrigger forces the envelope back to attack phase
  52:../../libs/DaisySP/Source/Control/adsr.h ****      \param hard  resets the history to zero, results in a click.
  53:../../libs/DaisySP/Source/Control/adsr.h ****      */
  54:../../libs/DaisySP/Source/Control/adsr.h ****     void Retrigger(bool hard);
  55:../../libs/DaisySP/Source/Control/adsr.h ****     /** Processes one sample through the filter and returns one sample.
  56:../../libs/DaisySP/Source/Control/adsr.h ****         \param gate - trigger the envelope, hold it to sustain 
  57:../../libs/DaisySP/Source/Control/adsr.h ****     */
  58:../../libs/DaisySP/Source/Control/adsr.h ****     float Process(bool gate);
  59:../../libs/DaisySP/Source/Control/adsr.h ****     /** Sets time
  60:../../libs/DaisySP/Source/Control/adsr.h ****         Set time per segment in seconds
  61:../../libs/DaisySP/Source/Control/adsr.h ****     */
  62:../../libs/DaisySP/Source/Control/adsr.h ****     void SetTime(int seg, float time);
  63:../../libs/DaisySP/Source/Control/adsr.h ****     void SetAttackTime(float timeInS, float shape = 0.0f);
  64:../../libs/DaisySP/Source/Control/adsr.h ****     void SetDecayTime(float timeInS);
  65:../../libs/DaisySP/Source/Control/adsr.h ****     void SetReleaseTime(float timeInS);
  66:../../libs/DaisySP/Source/Control/adsr.h **** 
  67:../../libs/DaisySP/Source/Control/adsr.h ****   private:
  68:../../libs/DaisySP/Source/Control/adsr.h ****     void SetTimeConstant(float timeInS, float& time, float& coeff);
  69:../../libs/DaisySP/Source/Control/adsr.h **** 
  70:../../libs/DaisySP/Source/Control/adsr.h ****   public:
  71:../../libs/DaisySP/Source/Control/adsr.h ****     /** Sustain level
  72:../../libs/DaisySP/Source/Control/adsr.h ****         \param sus_level - sets sustain level, 0...1.0
  73:../../libs/DaisySP/Source/Control/adsr.h ****     */
  74:../../libs/DaisySP/Source/Control/adsr.h ****     inline void SetSustainLevel(float sus_level)
 7129              		.loc 7 74 17 view .LVU1769
ARM GAS  C:\Users\matte\AppData\Local\Temp\ccvehO0v.s 			page 203


 7130              	.LBB2195:
  75:../../libs/DaisySP/Source/Control/adsr.h ****     {
  76:../../libs/DaisySP/Source/Control/adsr.h ****         sus_level = (sus_level <= 0.f) ? -0.01f // forces envelope into idle
 7131              		.loc 7 76 9 view .LVU1770
  77:../../libs/DaisySP/Source/Control/adsr.h ****                                        : (sus_level > 1.f) ? 1.f : sus_level;
  78:../../libs/DaisySP/Source/Control/adsr.h ****         sus_level_ = sus_level;
 7132              		.loc 7 78 9 view .LVU1771
 7133              		.loc 7 78 20 is_stmt 0 view .LVU1772
 7134 011c 924B     		ldr	r3, .L445+44
 7135              	.LBE2195:
 7136              	.LBE2194:
 101:main.cpp      ****   env.SetTime(ADSR_SEG_RELEASE, 0.2f);
 7137              		.loc 13 101 14 view .LVU1773
 7138 011e 9FED930A 		vldr.32	s0, .L445+48
 7139 0122 5046     		mov	r0, r10
 7140 0124 0421     		movs	r1, #4
 7141              	.LBB2197:
 7142              	.LBB2196:
 7143              		.loc 7 78 20 view .LVU1774
 7144 0126 CAF80030 		str	r3, [r10]	@ float
 7145              	.LVL506:
 7146              		.loc 7 78 20 view .LVU1775
 7147              	.LBE2196:
 7148              	.LBE2197:
 7149              		.loc 13 101 3 is_stmt 1 view .LVU1776
 7150              		.loc 13 101 14 is_stmt 0 view .LVU1777
 7151 012a FFF7FEFF 		bl	_ZN7daisysp4Adsr7SetTimeEif
 7152              	.LVL507:
 102:main.cpp      **** 
 103:main.cpp      **** 
 104:main.cpp      **** 
 105:main.cpp      **** 
 106:main.cpp      **** 
 107:main.cpp      ****   adcConfig[0].InitSingle(daisy::seed::A0); 
 7153              		.loc 13 107 3 is_stmt 1 view .LVU1778
 7154              		.loc 13 107 26 is_stmt 0 view .LVU1779
 7155 012e 904B     		ldr	r3, .L445+52
 7156 0130 2A46     		mov	r2, r5
 7157 0132 9048     		ldr	r0, .L445+56
 7158 0134 1968     		ldr	r1, [r3]
 7159              	.LBB2198:
 7160              	.LBB2141:
 7161              	.LBB1967:
 7162              	.LBB1968:
  48:../../libs/libDaisy/src/dev/mpr121.h **** 
 7163              		.loc 12 48 17 view .LVU1780
 7164 0136 04F11C0A 		add	r10, r4, #28
 7165              	.LBE1968:
 7166              	.LBE1967:
 7167              	.LBE2141:
 7168              	.LBE2198:
 7169              		.loc 13 107 26 view .LVU1781
 7170 013a FFF7FEFF 		bl	_ZN5daisy16AdcChannelConfig10InitSingleENS_3PinENS0_15ConversionSpeedE
 7171              	.LVL508:
 108:main.cpp      ****   adcConfig[1].InitSingle(daisy::seed::A1); 
 7172              		.loc 13 108 3 is_stmt 1 view .LVU1782
 7173              		.loc 13 108 26 is_stmt 0 view .LVU1783
ARM GAS  C:\Users\matte\AppData\Local\Temp\ccvehO0v.s 			page 204


 7174 013e 8E4B     		ldr	r3, .L445+60
 7175 0140 2A46     		mov	r2, r5
 7176 0142 8E48     		ldr	r0, .L445+64
 7177 0144 1968     		ldr	r1, [r3]
 7178 0146 FFF7FEFF 		bl	_ZN5daisy16AdcChannelConfig10InitSingleENS_3PinENS0_15ConversionSpeedE
 7179              	.LVL509:
 109:main.cpp      ****   hw.adc.Init(adcConfig, ADC_CH);              
 7180              		.loc 13 109 3 is_stmt 1 view .LVU1784
 7181              		.loc 13 109 14 is_stmt 0 view .LVU1785
 7182 014a 2A46     		mov	r2, r5
 7183 014c 0423     		movs	r3, #4
 7184 014e 8949     		ldr	r1, .L445+56
 7185 0150 8B48     		ldr	r0, .L445+68
 7186              	.LBB2199:
 7187              	.LBB2142:
 126:../../libs/libDaisy/src/dev/mpr121.h **** 
 7188              		.loc 12 126 9 view .LVU1786
 7189 0152 2546     		mov	r5, r4
 7190              	.LBE2142:
 7191              	.LBE2199:
 7192              		.loc 13 109 14 view .LVU1787
 7193 0154 FFF7FEFF 		bl	_ZN5daisy9AdcHandle4InitEPNS_16AdcChannelConfigEjNS0_12OverSamplingE
 7194              	.LVL510:
 110:main.cpp      ****   hw.adc.Start();                
 7195              		.loc 13 110 3 is_stmt 1 view .LVU1788
 7196              		.loc 13 110 15 is_stmt 0 view .LVU1789
 7197 0158 8948     		ldr	r0, .L445+68
 7198 015a FFF7FEFF 		bl	_ZN5daisy9AdcHandle5StartEv
 7199              	.LVL511:
 111:main.cpp      **** 
 112:main.cpp      ****   #ifdef DEBUG 
 113:main.cpp      ****     hw.StartLog(false); // starts the log to the serial port
 114:main.cpp      ****   #endif
 115:main.cpp      ****   #ifdef csvAcquisition
 116:main.cpp      ****     hw.StartLog(false); // starts the log to the serial port
 117:main.cpp      ****   #endif
 118:main.cpp      ****   
 119:main.cpp      **** 
 120:main.cpp      ****   daisy::Mpr121I2C::Result status = cap.Init(mpr121ObjConf);
 7200              		.loc 13 120 3 is_stmt 1 view .LVU1790
 7201              		.loc 13 120 3 is_stmt 0 view .LVU1791
 7202 015e 894B     		ldr	r3, .L445+72
 7203 0160 08AA     		add	r2, sp, #32
 7204 0162 B446     		mov	ip, r6
 7205 0164 1F46     		mov	r7, r3
 7206              	.LBB2200:
 7207              	.LBB2143:
 126:../../libs/libDaisy/src/dev/mpr121.h **** 
 7208              		.loc 12 126 9 view .LVU1792
 7209 0166 B646     		mov	lr, r6
 7210 0168 0592     		str	r2, [sp, #20]
 7211              	.LBB1981:
 7212              	.LBB1978:
  48:../../libs/libDaisy/src/dev/mpr121.h **** 
 7213              		.loc 12 48 17 view .LVU1793
 7214 016a 0792     		str	r2, [sp, #28]
 7215 016c 0FCF     		ldmia	r7!, {r0, r1, r2, r3}
ARM GAS  C:\Users\matte\AppData\Local\Temp\ccvehO0v.s 			page 205


 7216 016e ACE80F00 		stmia	ip!, {r0, r1, r2, r3}
 7217 0172 D7E90001 		ldrd	r0, r1, [r7]
 7218 0176 059F     		ldr	r7, [sp, #20]
 7219 0178 4CF8040B 		str	r0, [ip], #4
 7220 017c ACF80010 		strh	r1, [ip]	@ movhi
 7221              	.LBE1978:
 7222              	.LBE1981:
 7223              	.LBE2143:
 7224              	.LBI1965:
 124:../../libs/libDaisy/src/dev/mpr121.h ****     {
 7225              		.loc 12 124 12 is_stmt 1 view .LVU1794
 7226 0180 A446     		mov	ip, r4
 7227              	.LBB2144:
 126:../../libs/libDaisy/src/dev/mpr121.h **** 
 7228              		.loc 12 126 9 is_stmt 0 view .LVU1795
 7229 0182 BEE80F00 		ldmia	lr!, {r0, r1, r2, r3}
 7230 0186 0FC5     		stmia	r5!, {r0, r1, r2, r3}
 7231 0188 9EE80300 		ldm	lr, {r0, r1}
 7232 018c 45F8040B 		str	r0, [r5], #4
 7233 0190 2980     		strh	r1, [r5]	@ movhi
 7234              	.LVL512:
 126:../../libs/libDaisy/src/dev/mpr121.h **** 
 7235              		.loc 12 126 9 view .LVU1796
 7236 0192 0546     		mov	r5, r0
 7237 0194 BCE80F00 		ldmia	ip!, {r0, r1, r2, r3}
 7238 0198 0FC7     		stmia	r7!, {r0, r1, r2, r3}
 7239              	.LBB1982:
 7240              	.LBB1979:
 7241              	.LBB1969:
 7242              	.LBB1970:
  29:../../libs/libDaisy/src/per/i2c.h ****     {
 7243              		.loc 16 29 12 view .LVU1797
 7244 019a 4FF01003 		mov	r3, #16
 7245 019e 3D60     		str	r5, [r7]
 7246              	.LBE1970:
 7247              	.LBE1969:
  53:../../libs/libDaisy/src/dev/mpr121.h **** 
 7248              		.loc 12 53 25 view .LVU1798
 7249 01a0 0F91     		str	r1, [sp, #60]
  48:../../libs/libDaisy/src/dev/mpr121.h **** 
 7250              		.loc 12 48 17 view .LVU1799
 7251 01a2 0991     		str	r1, [sp, #36]
 7252              	.LBB1976:
 7253              	.LBB1974:
  29:../../libs/libDaisy/src/per/i2c.h ****     {
 7254              		.loc 16 29 12 view .LVU1800
 7255 01a4 8DF84430 		strb	r3, [sp, #68]
 7256              	.LBE1974:
 7257              	.LBE1976:
  48:../../libs/libDaisy/src/dev/mpr121.h **** 
 7258              		.loc 12 48 17 view .LVU1801
 7259 01a8 0799     		ldr	r1, [sp, #28]
  55:../../libs/libDaisy/src/dev/mpr121.h ****         i2c_conf.pin_config.sda = config.sda;
 7260              		.loc 12 55 33 view .LVU1802
 7261 01aa BDF82830 		ldrh	r3, [sp, #40]
  48:../../libs/libDaisy/src/dev/mpr121.h **** 
 7262              		.loc 12 48 17 view .LVU1803
ARM GAS  C:\Users\matte\AppData\Local\Temp\ccvehO0v.s 			page 206


 7263 01ae 0F46     		mov	r7, r1
 7264 01b0 0890     		str	r0, [sp, #32]
  55:../../libs/libDaisy/src/dev/mpr121.h ****         i2c_conf.pin_config.sda = config.sda;
 7265              		.loc 12 55 33 view .LVU1804
 7266 01b2 ADF83830 		strh	r3, [sp, #56]	@ movhi
  56:../../libs/libDaisy/src/dev/mpr121.h **** 
 7267              		.loc 12 56 33 view .LVU1805
 7268 01b6 BDF82A30 		ldrh	r3, [sp, #42]
  52:../../libs/libDaisy/src/dev/mpr121.h ****         i2c_conf.speed  = config.speed;
 7269              		.loc 12 52 25 view .LVU1806
 7270 01ba 0D90     		str	r0, [sp, #52]
  56:../../libs/libDaisy/src/dev/mpr121.h **** 
 7271              		.loc 12 56 33 view .LVU1807
 7272 01bc ADF83A30 		strh	r3, [sp, #58]	@ movhi
  51:../../libs/libDaisy/src/dev/mpr121.h ****         i2c_conf.periph = config.periph;
 7273              		.loc 12 51 25 view .LVU1808
 7274 01c0 CDF84080 		str	r8, [sp, #64]
 7275              	.LVL513:
  51:../../libs/libDaisy/src/dev/mpr121.h ****         i2c_conf.periph = config.periph;
 7276              		.loc 12 51 25 view .LVU1809
 7277              	.LBE1979:
 7278              	.LBI1967:
  46:../../libs/libDaisy/src/dev/mpr121.h ****     {
 7279              		.loc 12 46 17 is_stmt 1 view .LVU1810
 7280              	.LBB1980:
  48:../../libs/libDaisy/src/dev/mpr121.h **** 
 7281              		.loc 12 48 9 view .LVU1811
  48:../../libs/libDaisy/src/dev/mpr121.h **** 
 7282              		.loc 12 48 17 is_stmt 0 view .LVU1812
 7283 01c4 0FCF     		ldmia	r7!, {r0, r1, r2, r3}
  48:../../libs/libDaisy/src/dev/mpr121.h **** 
 7284              		.loc 12 48 17 view .LVU1813
 7285 01c6 AAE80F00 		stmia	r10!, {r0, r1, r2, r3}
  58:../../libs/libDaisy/src/dev/mpr121.h ****     }
 7286              		.loc 12 58 50 view .LVU1814
 7287 01ca 0DA9     		add	r1, sp, #52
  48:../../libs/libDaisy/src/dev/mpr121.h **** 
 7288              		.loc 12 48 17 view .LVU1815
 7289 01cc 8AF80050 		strb	r5, [r10]
  50:../../libs/libDaisy/src/dev/mpr121.h ****         i2c_conf.mode   = I2CHandle::Config::Mode::I2C_MASTER;
 7290              		.loc 12 50 9 is_stmt 1 view .LVU1816
 7291              	.LVL514:
 7292              	.LBB1977:
 7293              	.LBI1969:
  29:../../libs/libDaisy/src/per/i2c.h ****     {
 7294              		.loc 16 29 12 view .LVU1817
 7295              	.LBB1975:
 7296              	.LBB1971:
 7297              	.LBI1971:
 7298              		.loc 16 59 9 view .LVU1818
 7299              	.LBB1972:
 7300              	.LBI1972:
 7301              		.loc 17 204 15 view .LVU1819
 7302              		.loc 17 204 15 is_stmt 0 view .LVU1820
 7303              	.LBE1972:
 7304              	.LBB1973:
 7305              	.LBI1973:
ARM GAS  C:\Users\matte\AppData\Local\Temp\ccvehO0v.s 			page 207


 7306              		.loc 17 204 15 is_stmt 1 view .LVU1821
 7307              		.loc 17 204 15 is_stmt 0 view .LVU1822
 7308              	.LBE1973:
 7309              	.LBE1971:
 7310              	.LBE1975:
 7311              	.LBE1977:
  51:../../libs/libDaisy/src/dev/mpr121.h ****         i2c_conf.periph = config.periph;
 7312              		.loc 12 51 9 is_stmt 1 view .LVU1823
  52:../../libs/libDaisy/src/dev/mpr121.h ****         i2c_conf.speed  = config.speed;
 7313              		.loc 12 52 9 view .LVU1824
  53:../../libs/libDaisy/src/dev/mpr121.h **** 
 7314              		.loc 12 53 9 view .LVU1825
  55:../../libs/libDaisy/src/dev/mpr121.h ****         i2c_conf.pin_config.sda = config.sda;
 7315              		.loc 12 55 9 view .LVU1826
  56:../../libs/libDaisy/src/dev/mpr121.h **** 
 7316              		.loc 12 56 9 view .LVU1827
  58:../../libs/libDaisy/src/dev/mpr121.h ****     }
 7317              		.loc 12 58 9 view .LVU1828
  58:../../libs/libDaisy/src/dev/mpr121.h ****     }
 7318              		.loc 12 58 50 is_stmt 0 view .LVU1829
 7319 01d0 04F11800 		add	r0, r4, #24
 7320              	.LVL515:
  58:../../libs/libDaisy/src/dev/mpr121.h ****     }
 7321              		.loc 12 58 50 view .LVU1830
 7322 01d4 FFF7FEFF 		bl	_ZN5daisy9I2CHandle4InitERKNS0_6ConfigE
 7323              	.LVL516:
  58:../../libs/libDaisy/src/dev/mpr121.h ****     }
 7324              		.loc 12 58 50 view .LVU1831
 7325              	.LBE1980:
 7326              	.LBE1982:
 7327              	.LBB1983:
 7328              	.LBI1983:
 7329              		.loc 12 346 10 is_stmt 1 view .LVU1832
 7330              	.LBB1984:
 7331              		.loc 12 346 55 is_stmt 0 view .LVU1833
 7332 01d8 94F83030 		ldrb	r3, [r4, #48]	@ zero_extendqisi2
 7333              	.LBE1984:
 7334              	.LBE1983:
 131:../../libs/libDaisy/src/dev/mpr121.h ****         System::Delay(1);
 7335              		.loc 12 131 22 view .LVU1834
 7336 01dc 8021     		movs	r1, #128
 7337 01de 6322     		movs	r2, #99
 7338              	.LBB1987:
 7339              	.LBB1985:
 7340              		.loc 12 346 55 view .LVU1835
 7341 01e0 4045     		cmp	r0, r8
 7342 01e2 18BF     		it	ne
 7343 01e4 43F00103 		orrne	r3, r3, #1
 7344              	.LBE1985:
 7345              	.LBE1987:
 131:../../libs/libDaisy/src/dev/mpr121.h ****         System::Delay(1);
 7346              		.loc 12 131 22 view .LVU1836
 7347 01e8 2046     		mov	r0, r4
 7348              	.LVL517:
 7349              	.LBB1988:
 7350              	.LBB1986:
 7351              		.loc 12 346 55 view .LVU1837
ARM GAS  C:\Users\matte\AppData\Local\Temp\ccvehO0v.s 			page 208


 7352 01ea 84F83030 		strb	r3, [r4, #48]
 7353              	.LVL518:
 7354              		.loc 12 346 55 view .LVU1838
 7355              	.LBE1986:
 7356              	.LBE1988:
 131:../../libs/libDaisy/src/dev/mpr121.h ****         System::Delay(1);
 7357              		.loc 12 131 22 view .LVU1839
 7358 01ee FFF7FEFF 		bl	_ZN5daisy6Mpr121INS_18Mpr121I2CTransportEE13WriteRegisterEhh
 7359              	.LVL519:
 132:../../libs/libDaisy/src/dev/mpr121.h **** 
 7360              		.loc 12 132 22 view .LVU1840
 7361 01f2 4846     		mov	r0, r9
 7362 01f4 FFF7FEFF 		bl	_ZN5daisy6System5DelayEm
 7363              	.LVL520:
 134:../../libs/libDaisy/src/dev/mpr121.h **** 
 7364              		.loc 12 134 22 view .LVU1841
 7365 01f8 4246     		mov	r2, r8
 7366 01fa 5E21     		movs	r1, #94
 7367 01fc 2046     		mov	r0, r4
 7368 01fe FFF7FEFF 		bl	_ZN5daisy6Mpr121INS_18Mpr121I2CTransportEE13WriteRegisterEhh
 7369              	.LVL521:
 142:../../libs/libDaisy/src/dev/mpr121.h ****         WriteRegister(MPR121_MHDR, 0x01);
 7370              		.loc 12 142 22 view .LVU1842
 7371 0202 637D     		ldrb	r3, [r4, #21]	@ zero_extendqisi2
 7372 0204 94F814A0 		ldrb	r10, [r4, #20]	@ zero_extendqisi2
 7373 0208 069F     		ldr	r7, [sp, #24]
 7374 020a 0593     		str	r3, [sp, #20]
 7375              	.LVL522:
 7376              	.LBB1989:
 7377              	.LBI1989:
 186:../../libs/libDaisy/src/dev/mpr121.h ****     {
 7378              		.loc 12 186 10 is_stmt 1 view .LVU1843
 7379              	.LBB1990:
 189:../../libs/libDaisy/src/dev/mpr121.h ****         {
 7380              		.loc 12 189 30 view .LVU1844
 7381              	.L423:
 7382              	.LBB1991:
 7383              	.LBI1991:
 260:../../libs/libDaisy/src/dev/mpr121.h ****     {
 7384              		.loc 12 260 10 view .LVU1845
 7385              	.LBB1992:
 7386              	.LBB1993:
 7387              	.LBB1994:
  65:../../libs/libDaisy/src/dev/mpr121.h ****     }
 7388              		.loc 12 65 40 is_stmt 0 view .LVU1846
 7389 020c 0A25     		movs	r5, #10
 7390              	.LBE1994:
 7391              	.LBE1993:
 267:../../libs/libDaisy/src/dev/mpr121.h **** 
 7392              		.loc 12 267 17 view .LVU1847
 7393 020e 4FF00009 		mov	r9, #0
 7394 0212 4FF05E08 		mov	r8, #94
 7395              	.LBB1997:
 7396              	.LBB1995:
  65:../../libs/libDaisy/src/dev/mpr121.h ****     }
 7397              		.loc 12 65 40 view .LVU1848
 7398 0216 0123     		movs	r3, #1
ARM GAS  C:\Users\matte\AppData\Local\Temp\ccvehO0v.s 			page 209


 7399 0218 0DAA     		add	r2, sp, #52
 7400 021a 94F82C10 		ldrb	r1, [r4, #44]	@ zero_extendqisi2
 7401 021e 5A48     		ldr	r0, .L445+76
 7402 0220 0095     		str	r5, [sp]
 7403              	.LBE1995:
 7404              	.LBE1997:
 267:../../libs/libDaisy/src/dev/mpr121.h **** 
 7405              		.loc 12 267 17 view .LVU1849
 7406 0222 8DF83590 		strb	r9, [sp, #53]
 7407 0226 8DF83480 		strb	r8, [sp, #52]
 7408              	.LVL523:
 7409              	.LBB1998:
 7410              	.LBI1993:
  62:../../libs/libDaisy/src/dev/mpr121.h ****     {
 7411              		.loc 12 62 10 is_stmt 1 view .LVU1850
 7412              	.LBB1996:
  64:../../libs/libDaisy/src/dev/mpr121.h ****                != i2c_.TransmitBlocking(config_.dev_addr, data, size, 10);
 7413              		.loc 12 64 9 view .LVU1851
  65:../../libs/libDaisy/src/dev/mpr121.h ****     }
 7414              		.loc 12 65 40 is_stmt 0 view .LVU1852
 7415 022a FFF7FEFF 		bl	_ZN5daisy9I2CHandle16TransmitBlockingEtPhtm
 7416              	.LVL524:
  65:../../libs/libDaisy/src/dev/mpr121.h ****     }
 7417              		.loc 12 65 40 view .LVU1853
 7418              	.LBE1996:
 7419              	.LBE1998:
 7420              	.LBB1999:
 7421              	.LBI1999:
 7422              		.loc 12 346 10 is_stmt 1 view .LVU1854
 7423              	.LBB2000:
 7424              		.loc 12 346 55 is_stmt 0 view .LVU1855
 7425 022e 94F83020 		ldrb	r2, [r4, #48]	@ zero_extendqisi2
 7426              	.LBE2000:
 7427              	.LBE1999:
 7428              	.LBB2003:
 7429              	.LBB2004:
  72:../../libs/libDaisy/src/dev/mpr121.h ****     }
 7430              		.loc 12 72 39 view .LVU1856
 7431 0232 0123     		movs	r3, #1
 7432 0234 94F82C10 		ldrb	r1, [r4, #44]	@ zero_extendqisi2
 7433              	.LBE2004:
 7434              	.LBE2003:
 7435              	.LBB2007:
 7436              	.LBB2001:
 7437              		.loc 12 346 55 view .LVU1857
 7438 0238 4845     		cmp	r0, r9
 7439 023a 18BF     		it	ne
 7440 023c 42F00102 		orrne	r2, r2, #1
 7441              	.LBE2001:
 7442              	.LBE2007:
 7443              	.LBB2008:
 7444              	.LBB2005:
  72:../../libs/libDaisy/src/dev/mpr121.h ****     }
 7445              		.loc 12 72 39 view .LVU1858
 7446 0240 0095     		str	r5, [sp]
 7447 0242 5148     		ldr	r0, .L445+76
 7448              	.LVL525:
ARM GAS  C:\Users\matte\AppData\Local\Temp\ccvehO0v.s 			page 210


  72:../../libs/libDaisy/src/dev/mpr121.h ****     }
 7449              		.loc 12 72 39 view .LVU1859
 7450              	.LBE2005:
 7451              	.LBE2008:
 7452              	.LBB2009:
 7453              	.LBB2002:
 7454              		.loc 12 346 55 view .LVU1860
 7455 0244 84F83020 		strb	r2, [r4, #48]
 7456              	.LVL526:
 7457              		.loc 12 346 55 view .LVU1861
 7458              	.LBE2002:
 7459              	.LBE2009:
 7460              	.LBB2010:
 7461              	.LBI2003:
  69:../../libs/libDaisy/src/dev/mpr121.h ****     {
 7462              		.loc 12 69 10 is_stmt 1 view .LVU1862
 7463              	.LBB2006:
  71:../../libs/libDaisy/src/dev/mpr121.h ****                != i2c_.ReceiveBlocking(config_.dev_addr, data, size, 10);
 7464              		.loc 12 71 9 view .LVU1863
  72:../../libs/libDaisy/src/dev/mpr121.h ****     }
 7465              		.loc 12 72 39 is_stmt 0 view .LVU1864
 7466 0248 08AA     		add	r2, sp, #32
 7467 024a FFF7FEFF 		bl	_ZN5daisy9I2CHandle15ReceiveBlockingEtPhtm
 7468              	.LVL527:
  72:../../libs/libDaisy/src/dev/mpr121.h ****     }
 7469              		.loc 12 72 39 view .LVU1865
 7470              	.LBE2006:
 7471              	.LBE2010:
 7472              	.LBB2011:
 7473              	.LBI2011:
 7474              		.loc 12 346 10 is_stmt 1 view .LVU1866
 7475              	.LBB2012:
 7476              		.loc 12 346 55 is_stmt 0 view .LVU1867
 7477 024e 94F83020 		ldrb	r2, [r4, #48]	@ zero_extendqisi2
 7478              	.LBE2012:
 7479              	.LBE2011:
 7480              	.LBB2015:
 7481              	.LBB2016:
  65:../../libs/libDaisy/src/dev/mpr121.h ****     }
 7482              		.loc 12 65 40 view .LVU1868
 7483 0252 0223     		movs	r3, #2
 7484 0254 94F82C10 		ldrb	r1, [r4, #44]	@ zero_extendqisi2
 7485              	.LBE2016:
 7486              	.LBE2015:
 7487              	.LBB2019:
 7488              	.LBB2013:
 7489              		.loc 12 346 55 view .LVU1869
 7490 0258 4845     		cmp	r0, r9
 7491 025a 18BF     		it	ne
 7492 025c 42F00102 		orrne	r2, r2, #1
 7493              	.LBE2013:
 7494              	.LBE2019:
 7495              	.LBB2020:
 7496              	.LBB2017:
  65:../../libs/libDaisy/src/dev/mpr121.h ****     }
 7497              		.loc 12 65 40 view .LVU1870
 7498 0260 0095     		str	r5, [sp]
ARM GAS  C:\Users\matte\AppData\Local\Temp\ccvehO0v.s 			page 211


 7499 0262 4948     		ldr	r0, .L445+76
 7500              	.LVL528:
  65:../../libs/libDaisy/src/dev/mpr121.h ****     }
 7501              		.loc 12 65 40 view .LVU1871
 7502              	.LBE2017:
 7503              	.LBE2020:
 7504              	.LBB2021:
 7505              	.LBB2014:
 7506              		.loc 12 346 55 view .LVU1872
 7507 0264 84F83020 		strb	r2, [r4, #48]
 7508              	.LVL529:
 7509              		.loc 12 346 55 view .LVU1873
 7510              	.LBE2014:
 7511              	.LBE2021:
 7512              	.LBB2022:
 7513              	.LBI2015:
  62:../../libs/libDaisy/src/dev/mpr121.h ****     {
 7514              		.loc 12 62 10 is_stmt 1 view .LVU1874
 7515              	.LBB2018:
  64:../../libs/libDaisy/src/dev/mpr121.h ****                != i2c_.TransmitBlocking(config_.dev_addr, data, size, 10);
 7516              		.loc 12 64 9 view .LVU1875
  65:../../libs/libDaisy/src/dev/mpr121.h ****     }
 7517              		.loc 12 65 40 is_stmt 0 view .LVU1876
 7518 0268 0DAA     		add	r2, sp, #52
 7519              	.LVL530:
  65:../../libs/libDaisy/src/dev/mpr121.h ****     }
 7520              		.loc 12 65 40 view .LVU1877
 7521 026a FFF7FEFF 		bl	_ZN5daisy9I2CHandle16TransmitBlockingEtPhtm
 7522              	.LVL531:
  65:../../libs/libDaisy/src/dev/mpr121.h ****     }
 7523              		.loc 12 65 40 view .LVU1878
 7524              	.LBE2018:
 7525              	.LBE2022:
 7526              	.LBB2023:
 7527              	.LBI2023:
 7528              		.loc 12 346 10 is_stmt 1 view .LVU1879
 7529              	.LBB2024:
 7530              		.loc 12 346 55 is_stmt 0 view .LVU1880
 7531 026e 94F83020 		ldrb	r2, [r4, #48]	@ zero_extendqisi2
 7532              	.LBE2024:
 7533              	.LBE2023:
 7534              	.LBB2027:
 7535              	.LBB2028:
  65:../../libs/libDaisy/src/dev/mpr121.h ****     }
 7536              		.loc 12 65 40 view .LVU1881
 7537 0272 0223     		movs	r3, #2
 7538 0274 94F82C10 		ldrb	r1, [r4, #44]	@ zero_extendqisi2
 7539              	.LBE2028:
 7540              	.LBE2027:
 7541              	.LBB2032:
 7542              	.LBB2025:
 7543              		.loc 12 346 55 view .LVU1882
 7544 0278 4845     		cmp	r0, r9
 7545 027a 18BF     		it	ne
 7546 027c 42F00102 		orrne	r2, r2, #1
 7547              	.LBE2025:
 7548              	.LBE2032:
ARM GAS  C:\Users\matte\AppData\Local\Temp\ccvehO0v.s 			page 212


 7549              	.LBB2033:
 7550              	.LBB2029:
  65:../../libs/libDaisy/src/dev/mpr121.h ****     }
 7551              		.loc 12 65 40 view .LVU1883
 7552 0280 0095     		str	r5, [sp]
 7553 0282 4148     		ldr	r0, .L445+76
 7554              	.LVL532:
  65:../../libs/libDaisy/src/dev/mpr121.h ****     }
 7555              		.loc 12 65 40 view .LVU1884
 7556              	.LBE2029:
 7557              	.LBE2033:
 7558              	.LBB2034:
 7559              	.LBB2026:
 7560              		.loc 12 346 55 view .LVU1885
 7561 0284 84F83020 		strb	r2, [r4, #48]
 7562              	.LVL533:
 7563              		.loc 12 346 55 view .LVU1886
 7564              	.LBE2026:
 7565              	.LBE2034:
 7566              	.LBB2035:
 7567              	.LBI2027:
  62:../../libs/libDaisy/src/dev/mpr121.h ****     {
 7568              		.loc 12 62 10 is_stmt 1 view .LVU1887
 7569              	.LBB2030:
  64:../../libs/libDaisy/src/dev/mpr121.h ****                != i2c_.TransmitBlocking(config_.dev_addr, data, size, 10);
 7570              		.loc 12 64 9 view .LVU1888
  65:../../libs/libDaisy/src/dev/mpr121.h ****     }
 7571              		.loc 12 65 40 is_stmt 0 view .LVU1889
 7572 0288 0DAA     		add	r2, sp, #52
 7573              	.LVL534:
  65:../../libs/libDaisy/src/dev/mpr121.h ****     }
 7574              		.loc 12 65 40 view .LVU1890
 7575              	.LBE2030:
 7576              	.LBE2035:
 284:../../libs/libDaisy/src/dev/mpr121.h ****         buff[1] = value;
 7577              		.loc 12 284 17 view .LVU1891
 7578 028a 8DF83470 		strb	r7, [sp, #52]
 285:../../libs/libDaisy/src/dev/mpr121.h ****         SetTransportErr(transport_.Write(buff, 2));
 7579              		.loc 12 285 17 view .LVU1892
 7580 028e 8DF835A0 		strb	r10, [sp, #53]
 7581              	.LBB2036:
 7582              	.LBB2031:
  65:../../libs/libDaisy/src/dev/mpr121.h ****     }
 7583              		.loc 12 65 40 view .LVU1893
 7584 0292 FFF7FEFF 		bl	_ZN5daisy9I2CHandle16TransmitBlockingEtPhtm
 7585              	.LVL535:
  65:../../libs/libDaisy/src/dev/mpr121.h ****     }
 7586              		.loc 12 65 40 view .LVU1894
 7587              	.LBE2031:
 7588              	.LBE2036:
 7589              	.LBB2037:
 7590              	.LBI2037:
 7591              		.loc 12 346 10 is_stmt 1 view .LVU1895
 7592              	.LBB2038:
 7593              		.loc 12 346 55 is_stmt 0 view .LVU1896
 7594 0296 94F83030 		ldrb	r3, [r4, #48]	@ zero_extendqisi2
 7595              	.LBE2038:
ARM GAS  C:\Users\matte\AppData\Local\Temp\ccvehO0v.s 			page 213


 7596              	.LBE2037:
 292:../../libs/libDaisy/src/dev/mpr121.h ****             SetTransportErr(transport_.Write(buff, 2));
 7597              		.loc 12 292 21 view .LVU1897
 7598 029a 9DF82020 		ldrb	r2, [sp, #32]	@ zero_extendqisi2
 7599              	.LBB2041:
 7600              	.LBB2039:
 7601              		.loc 12 346 55 view .LVU1898
 7602 029e 4845     		cmp	r0, r9
 7603 02a0 18BF     		it	ne
 7604 02a2 43F00103 		orrne	r3, r3, #1
 7605              	.LBE2039:
 7606              	.LBE2041:
 7607              	.LBB2042:
 7608              	.LBB2043:
  65:../../libs/libDaisy/src/dev/mpr121.h ****     }
 7609              		.loc 12 65 40 view .LVU1899
 7610 02a6 94F82C10 		ldrb	r1, [r4, #44]	@ zero_extendqisi2
 7611              	.LBE2043:
 7612              	.LBE2042:
 292:../../libs/libDaisy/src/dev/mpr121.h ****             SetTransportErr(transport_.Write(buff, 2));
 7613              		.loc 12 292 21 view .LVU1900
 7614 02aa 8DF83520 		strb	r2, [sp, #53]
 7615              	.LBB2047:
 7616              	.LBB2044:
  65:../../libs/libDaisy/src/dev/mpr121.h ****     }
 7617              		.loc 12 65 40 view .LVU1901
 7618 02ae 0DAA     		add	r2, sp, #52
 7619              	.LBE2044:
 7620              	.LBE2047:
 7621              	.LBB2048:
 7622              	.LBB2040:
 7623              		.loc 12 346 55 view .LVU1902
 7624 02b0 84F83030 		strb	r3, [r4, #48]
 7625              	.LVL536:
 7626              		.loc 12 346 55 view .LVU1903
 7627              	.LBE2040:
 7628              	.LBE2048:
 7629              	.LBB2049:
 7630              	.LBI2042:
  62:../../libs/libDaisy/src/dev/mpr121.h ****     {
 7631              		.loc 12 62 10 is_stmt 1 view .LVU1904
 7632              	.LBB2045:
  64:../../libs/libDaisy/src/dev/mpr121.h ****                != i2c_.TransmitBlocking(config_.dev_addr, data, size, 10);
 7633              		.loc 12 64 9 view .LVU1905
  65:../../libs/libDaisy/src/dev/mpr121.h ****     }
 7634              		.loc 12 65 40 is_stmt 0 view .LVU1906
 7635 02b4 0223     		movs	r3, #2
 7636 02b6 3448     		ldr	r0, .L445+76
 7637 02b8 0095     		str	r5, [sp]
 7638              	.LBE2045:
 7639              	.LBE2049:
 291:../../libs/libDaisy/src/dev/mpr121.h ****             buff[1] = ecr_backup;
 7640              		.loc 12 291 21 view .LVU1907
 7641 02ba 8DF83480 		strb	r8, [sp, #52]
 7642              	.LBB2050:
 7643              	.LBB2046:
  65:../../libs/libDaisy/src/dev/mpr121.h ****     }
ARM GAS  C:\Users\matte\AppData\Local\Temp\ccvehO0v.s 			page 214


 7644              		.loc 12 65 40 view .LVU1908
 7645 02be FFF7FEFF 		bl	_ZN5daisy9I2CHandle16TransmitBlockingEtPhtm
 7646              	.LVL537:
  65:../../libs/libDaisy/src/dev/mpr121.h ****     }
 7647              		.loc 12 65 40 view .LVU1909
 7648              	.LBE2046:
 7649              	.LBE2050:
 7650              	.LBB2051:
 7651              	.LBI2051:
 7652              		.loc 12 346 10 is_stmt 1 view .LVU1910
 7653              	.LBB2052:
 7654              		.loc 12 346 55 is_stmt 0 view .LVU1911
 7655 02c2 94F83020 		ldrb	r2, [r4, #48]	@ zero_extendqisi2
 7656              	.LBE2052:
 7657              	.LBE2051:
 7658              	.LBE1992:
 7659              	.LBE1991:
 7660              	.LBB2059:
 7661              	.LBB2060:
 7662              	.LBB2061:
 7663              	.LBB2062:
  65:../../libs/libDaisy/src/dev/mpr121.h ****     }
 7664              		.loc 12 65 40 view .LVU1912
 7665 02c6 0123     		movs	r3, #1
 7666 02c8 94F82C10 		ldrb	r1, [r4, #44]	@ zero_extendqisi2
 7667              	.LBE2062:
 7668              	.LBE2061:
 7669              	.LBE2060:
 7670              	.LBE2059:
 7671              	.LBB2130:
 7672              	.LBB2057:
 7673              	.LBB2055:
 7674              	.LBB2053:
 7675              		.loc 12 346 55 view .LVU1913
 7676 02cc 4845     		cmp	r0, r9
 7677 02ce 18BF     		it	ne
 7678 02d0 42F00102 		orrne	r2, r2, #1
 7679              	.LBE2053:
 7680              	.LBE2055:
 7681              	.LBE2057:
 7682              	.LBE2130:
 7683              	.LBB2131:
 7684              	.LBB2125:
 7685              	.LBB2066:
 7686              	.LBB2063:
  65:../../libs/libDaisy/src/dev/mpr121.h ****     }
 7687              		.loc 12 65 40 view .LVU1914
 7688 02d4 0095     		str	r5, [sp]
 7689 02d6 2C48     		ldr	r0, .L445+76
 7690              	.LVL538:
  65:../../libs/libDaisy/src/dev/mpr121.h ****     }
 7691              		.loc 12 65 40 view .LVU1915
 7692              	.LBE2063:
 7693              	.LBE2066:
 7694              	.LBE2125:
 7695              	.LBE2131:
 7696              	.LBB2132:
ARM GAS  C:\Users\matte\AppData\Local\Temp\ccvehO0v.s 			page 215


 7697              	.LBB2058:
 7698              	.LBB2056:
 7699              	.LBB2054:
 7700              		.loc 12 346 55 view .LVU1916
 7701 02d8 84F83020 		strb	r2, [r4, #48]
 7702              	.LVL539:
 7703              		.loc 12 346 55 view .LVU1917
 7704              	.LBE2054:
 7705              	.LBE2056:
 7706              	.LBE2058:
 7707              	.LBE2132:
 7708              	.LBB2133:
 7709              	.LBI2059:
 260:../../libs/libDaisy/src/dev/mpr121.h ****     {
 7710              		.loc 12 260 10 is_stmt 1 view .LVU1918
 7711              	.LBB2126:
 7712              	.LBB2067:
 7713              	.LBI2061:
  62:../../libs/libDaisy/src/dev/mpr121.h ****     {
 7714              		.loc 12 62 10 view .LVU1919
 7715              	.LBB2064:
  64:../../libs/libDaisy/src/dev/mpr121.h ****                != i2c_.TransmitBlocking(config_.dev_addr, data, size, 10);
 7716              		.loc 12 64 9 view .LVU1920
  65:../../libs/libDaisy/src/dev/mpr121.h ****     }
 7717              		.loc 12 65 40 is_stmt 0 view .LVU1921
 7718 02dc 0DAA     		add	r2, sp, #52
 7719              	.LVL540:
  65:../../libs/libDaisy/src/dev/mpr121.h ****     }
 7720              		.loc 12 65 40 view .LVU1922
 7721              	.LBE2064:
 7722              	.LBE2067:
 267:../../libs/libDaisy/src/dev/mpr121.h **** 
 7723              		.loc 12 267 17 view .LVU1923
 7724 02de 8DF83590 		strb	r9, [sp, #53]
 7725 02e2 8DF83480 		strb	r8, [sp, #52]
 7726              	.LBB2068:
 7727              	.LBB2065:
  65:../../libs/libDaisy/src/dev/mpr121.h ****     }
 7728              		.loc 12 65 40 view .LVU1924
 7729 02e6 FFF7FEFF 		bl	_ZN5daisy9I2CHandle16TransmitBlockingEtPhtm
 7730              	.LVL541:
  65:../../libs/libDaisy/src/dev/mpr121.h ****     }
 7731              		.loc 12 65 40 view .LVU1925
 7732              	.LBE2065:
 7733              	.LBE2068:
 7734              	.LBB2069:
 7735              	.LBI2069:
 7736              		.loc 12 346 10 is_stmt 1 view .LVU1926
 7737              	.LBB2070:
 7738              		.loc 12 346 55 is_stmt 0 view .LVU1927
 7739 02ea 94F83020 		ldrb	r2, [r4, #48]	@ zero_extendqisi2
 7740              	.LBE2070:
 7741              	.LBE2069:
 7742              	.LBB2073:
 7743              	.LBB2074:
  72:../../libs/libDaisy/src/dev/mpr121.h ****     }
 7744              		.loc 12 72 39 view .LVU1928
ARM GAS  C:\Users\matte\AppData\Local\Temp\ccvehO0v.s 			page 216


 7745 02ee 0123     		movs	r3, #1
 7746 02f0 94F82C10 		ldrb	r1, [r4, #44]	@ zero_extendqisi2
 7747              	.LBE2074:
 7748              	.LBE2073:
 7749              	.LBB2077:
 7750              	.LBB2071:
 7751              		.loc 12 346 55 view .LVU1929
 7752 02f4 4845     		cmp	r0, r9
 7753 02f6 18BF     		it	ne
 7754 02f8 42F00102 		orrne	r2, r2, #1
 7755              	.LBE2071:
 7756              	.LBE2077:
 7757              	.LBB2078:
 7758              	.LBB2075:
  72:../../libs/libDaisy/src/dev/mpr121.h ****     }
 7759              		.loc 12 72 39 view .LVU1930
 7760 02fc 0095     		str	r5, [sp]
 7761 02fe 2248     		ldr	r0, .L445+76
 7762              	.LVL542:
  72:../../libs/libDaisy/src/dev/mpr121.h ****     }
 7763              		.loc 12 72 39 view .LVU1931
 7764              	.LBE2075:
 7765              	.LBE2078:
 7766              	.LBB2079:
 7767              	.LBB2072:
 7768              		.loc 12 346 55 view .LVU1932
 7769 0300 84F83020 		strb	r2, [r4, #48]
 7770              	.LVL543:
 7771              		.loc 12 346 55 view .LVU1933
 7772              	.LBE2072:
 7773              	.LBE2079:
 7774              	.LBB2080:
 7775              	.LBI2073:
  69:../../libs/libDaisy/src/dev/mpr121.h ****     {
 7776              		.loc 12 69 10 is_stmt 1 view .LVU1934
 7777              	.LBB2076:
  71:../../libs/libDaisy/src/dev/mpr121.h ****                != i2c_.ReceiveBlocking(config_.dev_addr, data, size, 10);
 7778              		.loc 12 71 9 view .LVU1935
  72:../../libs/libDaisy/src/dev/mpr121.h ****     }
 7779              		.loc 12 72 39 is_stmt 0 view .LVU1936
 7780 0304 08AA     		add	r2, sp, #32
 7781 0306 FFF7FEFF 		bl	_ZN5daisy9I2CHandle15ReceiveBlockingEtPhtm
 7782              	.LVL544:
  72:../../libs/libDaisy/src/dev/mpr121.h ****     }
 7783              		.loc 12 72 39 view .LVU1937
 7784              	.LBE2076:
 7785              	.LBE2080:
 7786              	.LBB2081:
 7787              	.LBI2081:
 7788              		.loc 12 346 10 is_stmt 1 view .LVU1938
 7789              	.LBB2082:
 7790              		.loc 12 346 55 is_stmt 0 view .LVU1939
 7791 030a 94F83020 		ldrb	r2, [r4, #48]	@ zero_extendqisi2
 7792              	.LBE2082:
 7793              	.LBE2081:
 7794              	.LBB2085:
 7795              	.LBB2086:
ARM GAS  C:\Users\matte\AppData\Local\Temp\ccvehO0v.s 			page 217


  65:../../libs/libDaisy/src/dev/mpr121.h ****     }
 7796              		.loc 12 65 40 view .LVU1940
 7797 030e 0223     		movs	r3, #2
 7798 0310 94F82C10 		ldrb	r1, [r4, #44]	@ zero_extendqisi2
 7799              	.LBE2086:
 7800              	.LBE2085:
 7801              	.LBB2089:
 7802              	.LBB2083:
 7803              		.loc 12 346 55 view .LVU1941
 7804 0314 4845     		cmp	r0, r9
 7805 0316 18BF     		it	ne
 7806 0318 42F00102 		orrne	r2, r2, #1
 7807              	.LBE2083:
 7808              	.LBE2089:
 7809              	.LBB2090:
 7810              	.LBB2087:
  65:../../libs/libDaisy/src/dev/mpr121.h ****     }
 7811              		.loc 12 65 40 view .LVU1942
 7812 031c 0095     		str	r5, [sp]
 7813 031e 1A48     		ldr	r0, .L445+76
 7814              	.LVL545:
  65:../../libs/libDaisy/src/dev/mpr121.h ****     }
 7815              		.loc 12 65 40 view .LVU1943
 7816              	.LBE2087:
 7817              	.LBE2090:
 7818              	.LBB2091:
 7819              	.LBB2084:
 7820              		.loc 12 346 55 view .LVU1944
 7821 0320 84F83020 		strb	r2, [r4, #48]
 7822              	.LVL546:
 7823              		.loc 12 346 55 view .LVU1945
 7824              	.LBE2084:
 7825              	.LBE2091:
 7826              	.LBB2092:
 7827              	.LBI2085:
  62:../../libs/libDaisy/src/dev/mpr121.h ****     {
 7828              		.loc 12 62 10 is_stmt 1 view .LVU1946
 7829              	.LBB2088:
  64:../../libs/libDaisy/src/dev/mpr121.h ****                != i2c_.TransmitBlocking(config_.dev_addr, data, size, 10);
 7830              		.loc 12 64 9 view .LVU1947
  65:../../libs/libDaisy/src/dev/mpr121.h ****     }
 7831              		.loc 12 65 40 is_stmt 0 view .LVU1948
 7832 0324 0DAA     		add	r2, sp, #52
 7833              	.LVL547:
  65:../../libs/libDaisy/src/dev/mpr121.h ****     }
 7834              		.loc 12 65 40 view .LVU1949
 7835 0326 FFF7FEFF 		bl	_ZN5daisy9I2CHandle16TransmitBlockingEtPhtm
 7836              	.LVL548:
  65:../../libs/libDaisy/src/dev/mpr121.h ****     }
 7837              		.loc 12 65 40 view .LVU1950
 7838              	.LBE2088:
 7839              	.LBE2092:
 7840              	.LBB2093:
 7841              	.LBI2093:
 7842              		.loc 12 346 10 is_stmt 1 view .LVU1951
 7843              	.LBB2094:
 7844              		.loc 12 346 55 is_stmt 0 view .LVU1952
ARM GAS  C:\Users\matte\AppData\Local\Temp\ccvehO0v.s 			page 218


 7845 032a 94F83030 		ldrb	r3, [r4, #48]	@ zero_extendqisi2
 7846              	.LBE2094:
 7847              	.LBE2093:
 285:../../libs/libDaisy/src/dev/mpr121.h ****         SetTransportErr(transport_.Write(buff, 2));
 7848              		.loc 12 285 17 view .LVU1953
 7849 032e 059A     		ldr	r2, [sp, #20]
 7850              	.LBB2097:
 7851              	.LBB2095:
 7852              		.loc 12 346 55 view .LVU1954
 7853 0330 4845     		cmp	r0, r9
 7854 0332 18BF     		it	ne
 7855 0334 43F00103 		orrne	r3, r3, #1
 7856 0338 2CE0     		b	.L446
 7857              	.L447:
 7858 033a 00BF     		.align	2
 7859              	.L445:
 7860 033c 00000000 		.word	.LANCHOR4
 7861 0340 00000000 		.word	.LANCHOR11
 7862 0344 01080109 		.word	151062529
 7863 0348 08000000 		.word	.LANCHOR5+8
 7864 034c 00000000 		.word	.LANCHOR3
 7865 0350 00000000 		.word	.LANCHOR6
 7866 0354 CDCC8C3F 		.word	1066192077
 7867 0358 0000C842 		.word	1120403456
 7868 035c 00005C44 		.word	1146880000
 7869 0360 CDCC4C3D 		.word	1028443341
 7870 0364 CDCCCC3D 		.word	1036831949
 7871 0368 3333333F 		.word	1060320051
 7872 036c CDCC4C3E 		.word	1045220557
 7873 0370 00000000 		.word	.LANCHOR7
 7874 0374 00000000 		.word	.LANCHOR8
 7875 0378 00000000 		.word	.LANCHOR9
 7876 037c 54000000 		.word	.LANCHOR8+84
 7877 0380 18000000 		.word	.LANCHOR4+24
 7878 0384 00000000 		.word	.LANCHOR10
 7879 0388 18000000 		.word	.LANCHOR11+24
 7880 038c 00000000 		.word	.LANCHOR2
 7881 0390 00000000 		.word	.LANCHOR1
 7882              	.L446:
 7883              	.LBE2095:
 7884              	.LBE2097:
 7885              	.LBB2098:
 7886              	.LBB2099:
  65:../../libs/libDaisy/src/dev/mpr121.h ****     }
 7887              		.loc 12 65 40 view .LVU1955
 7888 0394 94F82C10 		ldrb	r1, [r4, #44]	@ zero_extendqisi2
 7889              	.LBE2099:
 7890              	.LBE2098:
 285:../../libs/libDaisy/src/dev/mpr121.h ****         SetTransportErr(transport_.Write(buff, 2));
 7891              		.loc 12 285 17 view .LVU1956
 7892 0398 8DF83520 		strb	r2, [sp, #53]
 284:../../libs/libDaisy/src/dev/mpr121.h ****         buff[1] = value;
 7893              		.loc 12 284 17 view .LVU1957
 7894 039c 7A1C     		adds	r2, r7, #1
 7895              	.LBB2103:
 7896              	.LBB2096:
 7897              		.loc 12 346 55 view .LVU1958
ARM GAS  C:\Users\matte\AppData\Local\Temp\ccvehO0v.s 			page 219


 7898 039e 84F83030 		strb	r3, [r4, #48]
 7899              	.LVL549:
 7900              		.loc 12 346 55 view .LVU1959
 7901              	.LBE2096:
 7902              	.LBE2103:
 7903              	.LBB2104:
 7904              	.LBI2098:
  62:../../libs/libDaisy/src/dev/mpr121.h ****     {
 7905              		.loc 12 62 10 is_stmt 1 view .LVU1960
 7906              	.LBB2100:
  64:../../libs/libDaisy/src/dev/mpr121.h ****                != i2c_.TransmitBlocking(config_.dev_addr, data, size, 10);
 7907              		.loc 12 64 9 view .LVU1961
  65:../../libs/libDaisy/src/dev/mpr121.h ****     }
 7908              		.loc 12 65 40 is_stmt 0 view .LVU1962
 7909 03a2 0223     		movs	r3, #2
 7910              	.LBE2100:
 7911              	.LBE2104:
 284:../../libs/libDaisy/src/dev/mpr121.h ****         buff[1] = value;
 7912              		.loc 12 284 17 view .LVU1963
 7913 03a4 8DF83420 		strb	r2, [sp, #52]
 7914              	.LBB2105:
 7915              	.LBB2101:
  65:../../libs/libDaisy/src/dev/mpr121.h ****     }
 7916              		.loc 12 65 40 view .LVU1964
 7917 03a8 0DAA     		add	r2, sp, #52
 7918              	.LVL550:
  65:../../libs/libDaisy/src/dev/mpr121.h ****     }
 7919              		.loc 12 65 40 view .LVU1965
 7920 03aa 9B48     		ldr	r0, .L448
 7921              	.LBE2101:
 7922              	.LBE2105:
 7923              	.LBE2126:
 7924              	.LBE2133:
 189:../../libs/libDaisy/src/dev/mpr121.h ****         {
 7925              		.loc 12 189 30 view .LVU1966
 7926 03ac 0237     		adds	r7, r7, #2
 7927              	.LVL551:
 7928              	.LBB2134:
 7929              	.LBB2127:
 7930              	.LBB2106:
 7931              	.LBB2102:
  65:../../libs/libDaisy/src/dev/mpr121.h ****     }
 7932              		.loc 12 65 40 view .LVU1967
 7933 03ae 0095     		str	r5, [sp]
 7934 03b0 FFF7FEFF 		bl	_ZN5daisy9I2CHandle16TransmitBlockingEtPhtm
 7935              	.LVL552:
  65:../../libs/libDaisy/src/dev/mpr121.h ****     }
 7936              		.loc 12 65 40 view .LVU1968
 7937              	.LBE2102:
 7938              	.LBE2106:
 7939              	.LBB2107:
 7940              	.LBI2107:
 7941              		.loc 12 346 10 is_stmt 1 view .LVU1969
 7942              	.LBB2108:
 7943              		.loc 12 346 55 is_stmt 0 view .LVU1970
 7944 03b4 94F83020 		ldrb	r2, [r4, #48]	@ zero_extendqisi2
 7945              	.LBE2108:
ARM GAS  C:\Users\matte\AppData\Local\Temp\ccvehO0v.s 			page 220


 7946              	.LBE2107:
 292:../../libs/libDaisy/src/dev/mpr121.h ****             SetTransportErr(transport_.Write(buff, 2));
 7947              		.loc 12 292 21 view .LVU1971
 7948 03b8 9DF82010 		ldrb	r1, [sp, #32]	@ zero_extendqisi2
 7949              	.LBB2111:
 7950              	.LBB2112:
  65:../../libs/libDaisy/src/dev/mpr121.h ****     }
 7951              		.loc 12 65 40 view .LVU1972
 7952 03bc 0223     		movs	r3, #2
 7953              	.LBE2112:
 7954              	.LBE2111:
 7955              	.LBB2116:
 7956              	.LBB2109:
 7957              		.loc 12 346 55 view .LVU1973
 7958 03be 4845     		cmp	r0, r9
 7959 03c0 18BF     		it	ne
 7960 03c2 42F00102 		orrne	r2, r2, #1
 7961              	.LBE2109:
 7962              	.LBE2116:
 7963              	.LBB2117:
 7964              	.LBB2113:
  65:../../libs/libDaisy/src/dev/mpr121.h ****     }
 7965              		.loc 12 65 40 view .LVU1974
 7966 03c6 0095     		str	r5, [sp]
 7967              	.LBE2113:
 7968              	.LBE2117:
 292:../../libs/libDaisy/src/dev/mpr121.h ****             SetTransportErr(transport_.Write(buff, 2));
 7969              		.loc 12 292 21 view .LVU1975
 7970 03c8 8DF83510 		strb	r1, [sp, #53]
 7971              	.LBE2127:
 7972              	.LBE2134:
 189:../../libs/libDaisy/src/dev/mpr121.h ****         {
 7973              		.loc 12 189 30 view .LVU1976
 7974 03cc FFB2     		uxtb	r7, r7
 7975              	.LBB2135:
 7976              	.LBB2128:
 7977              	.LBB2118:
 7978              	.LBB2110:
 7979              		.loc 12 346 55 view .LVU1977
 7980 03ce 84F83020 		strb	r2, [r4, #48]
 7981              	.LVL553:
 7982              		.loc 12 346 55 view .LVU1978
 7983              	.LBE2110:
 7984              	.LBE2118:
 7985              	.LBB2119:
 7986              	.LBI2111:
  62:../../libs/libDaisy/src/dev/mpr121.h ****     {
 7987              		.loc 12 62 10 is_stmt 1 view .LVU1979
 7988              	.LBB2114:
  64:../../libs/libDaisy/src/dev/mpr121.h ****                != i2c_.TransmitBlocking(config_.dev_addr, data, size, 10);
 7989              		.loc 12 64 9 view .LVU1980
  65:../../libs/libDaisy/src/dev/mpr121.h ****     }
 7990              		.loc 12 65 40 is_stmt 0 view .LVU1981
 7991 03d2 0DAA     		add	r2, sp, #52
 7992              	.LVL554:
  65:../../libs/libDaisy/src/dev/mpr121.h ****     }
 7993              		.loc 12 65 40 view .LVU1982
ARM GAS  C:\Users\matte\AppData\Local\Temp\ccvehO0v.s 			page 221


 7994 03d4 94F82C10 		ldrb	r1, [r4, #44]	@ zero_extendqisi2
 7995 03d8 8F48     		ldr	r0, .L448
 7996              	.LBE2114:
 7997              	.LBE2119:
 291:../../libs/libDaisy/src/dev/mpr121.h ****             buff[1] = ecr_backup;
 7998              		.loc 12 291 21 view .LVU1983
 7999 03da 8DF83480 		strb	r8, [sp, #52]
 8000              	.LBB2120:
 8001              	.LBB2115:
  65:../../libs/libDaisy/src/dev/mpr121.h ****     }
 8002              		.loc 12 65 40 view .LVU1984
 8003 03de FFF7FEFF 		bl	_ZN5daisy9I2CHandle16TransmitBlockingEtPhtm
 8004              	.LVL555:
  65:../../libs/libDaisy/src/dev/mpr121.h ****     }
 8005              		.loc 12 65 40 view .LVU1985
 8006              	.LBE2115:
 8007              	.LBE2120:
 8008              	.LBB2121:
 8009              	.LBI2121:
 8010              		.loc 12 346 10 is_stmt 1 view .LVU1986
 8011              	.LBB2122:
 8012              		.loc 12 346 55 is_stmt 0 view .LVU1987
 8013 03e2 94F83030 		ldrb	r3, [r4, #48]	@ zero_extendqisi2
 8014 03e6 4845     		cmp	r0, r9
 8015 03e8 18BF     		it	ne
 8016 03ea 43F00103 		orrne	r3, r3, #1
 8017              	.LBE2122:
 8018              	.LBE2121:
 8019              	.LBE2128:
 8020              	.LBE2135:
 189:../../libs/libDaisy/src/dev/mpr121.h ****         {
 8021              		.loc 12 189 30 view .LVU1988
 8022 03ee 592F     		cmp	r7, #89
 8023              	.LBB2136:
 8024              	.LBB2129:
 8025              	.LBB2124:
 8026              	.LBB2123:
 8027              		.loc 12 346 55 view .LVU1989
 8028 03f0 84F83030 		strb	r3, [r4, #48]
 8029              	.LVL556:
 8030              		.loc 12 346 55 view .LVU1990
 8031              	.LBE2123:
 8032              	.LBE2124:
 8033              	.LBE2129:
 8034              	.LBE2136:
 189:../../libs/libDaisy/src/dev/mpr121.h ****         {
 8035              		.loc 12 189 9 is_stmt 1 view .LVU1991
 189:../../libs/libDaisy/src/dev/mpr121.h ****         {
 8036              		.loc 12 189 30 view .LVU1992
 8037 03f4 7FF40AAF 		bne	.L423
 8038              	.LVL557:
 189:../../libs/libDaisy/src/dev/mpr121.h ****         {
 8039              		.loc 12 189 30 is_stmt 0 view .LVU1993
 8040              	.LBE1990:
 8041              	.LBE1989:
 143:../../libs/libDaisy/src/dev/mpr121.h ****         WriteRegister(MPR121_NHDR, 0x01);
 8042              		.loc 12 143 22 view .LVU1994
ARM GAS  C:\Users\matte\AppData\Local\Temp\ccvehO0v.s 			page 222


 8043 03f8 0122     		movs	r2, #1
 8044 03fa 2B21     		movs	r1, #43
 8045 03fc 8748     		ldr	r0, .L448+4
 8046 03fe FFF7FEFF 		bl	_ZN5daisy6Mpr121INS_18Mpr121I2CTransportEE13WriteRegisterEhh
 8047              	.LVL558:
 144:../../libs/libDaisy/src/dev/mpr121.h ****         WriteRegister(MPR121_NCLR, 0x0E);
 8048              		.loc 12 144 22 view .LVU1995
 8049 0402 0122     		movs	r2, #1
 8050 0404 2C21     		movs	r1, #44
 8051 0406 8548     		ldr	r0, .L448+4
 8052 0408 FFF7FEFF 		bl	_ZN5daisy6Mpr121INS_18Mpr121I2CTransportEE13WriteRegisterEhh
 8053              	.LVL559:
 145:../../libs/libDaisy/src/dev/mpr121.h ****         WriteRegister(MPR121_FDLR, 0x00);
 8054              		.loc 12 145 22 view .LVU1996
 8055 040c 2D21     		movs	r1, #45
 8056 040e 8348     		ldr	r0, .L448+4
 8057 0410 0E22     		movs	r2, #14
 8058 0412 FFF7FEFF 		bl	_ZN5daisy6Mpr121INS_18Mpr121I2CTransportEE13WriteRegisterEhh
 8059              	.LVL560:
 146:../../libs/libDaisy/src/dev/mpr121.h **** 
 8060              		.loc 12 146 22 view .LVU1997
 8061 0416 4A46     		mov	r2, r9
 8062 0418 2E21     		movs	r1, #46
 8063 041a 8048     		ldr	r0, .L448+4
 8064 041c FFF7FEFF 		bl	_ZN5daisy6Mpr121INS_18Mpr121I2CTransportEE13WriteRegisterEhh
 8065              	.LVL561:
 148:../../libs/libDaisy/src/dev/mpr121.h ****         WriteRegister(MPR121_NHDF, 0x05);
 8066              		.loc 12 148 22 view .LVU1998
 8067 0420 0122     		movs	r2, #1
 8068 0422 2F21     		movs	r1, #47
 8069 0424 7D48     		ldr	r0, .L448+4
 8070 0426 FFF7FEFF 		bl	_ZN5daisy6Mpr121INS_18Mpr121I2CTransportEE13WriteRegisterEhh
 8071              	.LVL562:
 149:../../libs/libDaisy/src/dev/mpr121.h ****         WriteRegister(MPR121_NCLF, 0x01);
 8072              		.loc 12 149 22 view .LVU1999
 8073 042a 0522     		movs	r2, #5
 8074 042c 3021     		movs	r1, #48
 8075 042e 7B48     		ldr	r0, .L448+4
 8076 0430 FFF7FEFF 		bl	_ZN5daisy6Mpr121INS_18Mpr121I2CTransportEE13WriteRegisterEhh
 8077              	.LVL563:
 150:../../libs/libDaisy/src/dev/mpr121.h ****         WriteRegister(MPR121_FDLF, 0x00);
 8078              		.loc 12 150 22 view .LVU2000
 8079 0434 3121     		movs	r1, #49
 8080 0436 7948     		ldr	r0, .L448+4
 8081 0438 0122     		movs	r2, #1
 8082 043a FFF7FEFF 		bl	_ZN5daisy6Mpr121INS_18Mpr121I2CTransportEE13WriteRegisterEhh
 8083              	.LVL564:
 151:../../libs/libDaisy/src/dev/mpr121.h **** 
 8084              		.loc 12 151 22 view .LVU2001
 8085 043e 4A46     		mov	r2, r9
 8086 0440 3221     		movs	r1, #50
 8087 0442 7648     		ldr	r0, .L448+4
 8088 0444 FFF7FEFF 		bl	_ZN5daisy6Mpr121INS_18Mpr121I2CTransportEE13WriteRegisterEhh
 8089              	.LVL565:
 153:../../libs/libDaisy/src/dev/mpr121.h ****         WriteRegister(MPR121_NCLT, 0x00);
 8090              		.loc 12 153 22 view .LVU2002
 8091 0448 4A46     		mov	r2, r9
ARM GAS  C:\Users\matte\AppData\Local\Temp\ccvehO0v.s 			page 223


 8092 044a 3321     		movs	r1, #51
 8093 044c 7348     		ldr	r0, .L448+4
 8094 044e FFF7FEFF 		bl	_ZN5daisy6Mpr121INS_18Mpr121I2CTransportEE13WriteRegisterEhh
 8095              	.LVL566:
 154:../../libs/libDaisy/src/dev/mpr121.h ****         WriteRegister(MPR121_FDLT, 0x00);
 8096              		.loc 12 154 22 view .LVU2003
 8097 0452 4A46     		mov	r2, r9
 8098 0454 3421     		movs	r1, #52
 8099 0456 7148     		ldr	r0, .L448+4
 8100 0458 FFF7FEFF 		bl	_ZN5daisy6Mpr121INS_18Mpr121I2CTransportEE13WriteRegisterEhh
 8101              	.LVL567:
 155:../../libs/libDaisy/src/dev/mpr121.h **** 
 8102              		.loc 12 155 22 view .LVU2004
 8103 045c 4A46     		mov	r2, r9
 8104 045e 3521     		movs	r1, #53
 8105 0460 6E48     		ldr	r0, .L448+4
 8106 0462 FFF7FEFF 		bl	_ZN5daisy6Mpr121INS_18Mpr121I2CTransportEE13WriteRegisterEhh
 8107              	.LVL568:
 157:../../libs/libDaisy/src/dev/mpr121.h ****         WriteRegister(MPR121_CONFIG1, 0x10); // default, 16uA charge current
 8108              		.loc 12 157 22 view .LVU2005
 8109 0466 4A46     		mov	r2, r9
 8110 0468 5B21     		movs	r1, #91
 8111 046a 6C48     		ldr	r0, .L448+4
 8112 046c FFF7FEFF 		bl	_ZN5daisy6Mpr121INS_18Mpr121I2CTransportEE13WriteRegisterEhh
 8113              	.LVL569:
 158:../../libs/libDaisy/src/dev/mpr121.h ****         WriteRegister(MPR121_CONFIG2, 0x20); // 0.5uS encoding, 1ms period
 8114              		.loc 12 158 22 view .LVU2006
 8115 0470 1022     		movs	r2, #16
 8116 0472 5C21     		movs	r1, #92
 8117 0474 6948     		ldr	r0, .L448+4
 8118 0476 FFF7FEFF 		bl	_ZN5daisy6Mpr121INS_18Mpr121I2CTransportEE13WriteRegisterEhh
 8119              	.LVL570:
 159:../../libs/libDaisy/src/dev/mpr121.h **** 
 8120              		.loc 12 159 22 view .LVU2007
 8121 047a 2022     		movs	r2, #32
 8122 047c 5D21     		movs	r1, #93
 8123 047e 6748     		ldr	r0, .L448+4
 8124 0480 FFF7FEFF 		bl	_ZN5daisy6Mpr121INS_18Mpr121I2CTransportEE13WriteRegisterEhh
 8125              	.LVL571:
 175:../../libs/libDaisy/src/dev/mpr121.h ****                       ECR_SETTING); // start with above ECR setting
 8126              		.loc 12 175 22 view .LVU2008
 8127 0484 4146     		mov	r1, r8
 8128 0486 8C22     		movs	r2, #140
 8129 0488 6448     		ldr	r0, .L448+4
 8130 048a FFF7FEFF 		bl	_ZN5daisy6Mpr121INS_18Mpr121I2CTransportEE13WriteRegisterEhh
 8131              	.LVL572:
 8132              	.LBB2137:
 8133              	.LBI2137:
 347:../../libs/libDaisy/src/dev/mpr121.h **** 
 348:../../libs/libDaisy/src/dev/mpr121.h ****     /** Get the global transport_error_ bool (as a Result), then reset it */
 349:../../libs/libDaisy/src/dev/mpr121.h ****     Result GetTransportErr()
 8134              		.loc 12 349 12 is_stmt 1 view .LVU2009
 8135              	.LBB2138:
 350:../../libs/libDaisy/src/dev/mpr121.h ****     {
 351:../../libs/libDaisy/src/dev/mpr121.h ****         Result ret       = transport_error_ ? ERR : OK;
 8136              		.loc 12 351 45 is_stmt 0 view .LVU2010
 8137 048e 94F83030 		ldrb	r3, [r4, #48]	@ zero_extendqisi2
ARM GAS  C:\Users\matte\AppData\Local\Temp\ccvehO0v.s 			page 224


 8138 0492 A3B1     		cbz	r3, .L424
 8139              	.LVL573:
 352:../../libs/libDaisy/src/dev/mpr121.h ****         transport_error_ = false;
 8140              		.loc 12 352 26 view .LVU2011
 8141 0494 84F83090 		strb	r9, [r4, #48]
 8142              	.LVL574:
 8143              		.loc 12 352 26 view .LVU2012
 8144              	.LBE2138:
 8145              	.LBE2137:
 8146              	.LBE2144:
 8147              	.LBE2200:
 121:main.cpp      ****   if (status != daisy::Mpr121I2C::Result::OK) // initializes the mpr121 with the config and see if 
 8148              		.loc 13 121 3 is_stmt 1 view .LVU2013
 8149              	.L425:
 122:main.cpp      ****   {
 123:main.cpp      ****     while (1)
 8150              		.loc 13 123 5 discriminator 1 view .LVU2014
 124:main.cpp      ****     {
 125:main.cpp      ****       hw.SetLed(true); // blink if not ok
 8151              		.loc 13 125 7 discriminator 1 view .LVU2015
 8152              		.loc 13 125 16 is_stmt 0 discriminator 1 view .LVU2016
 8153 0498 0121     		movs	r1, #1
 8154 049a 6148     		ldr	r0, .L448+8
 8155 049c FFF7FEFF 		bl	_ZN5daisy9DaisySeed6SetLedEb
 8156              	.LVL575:
 126:main.cpp      ****       hw.DelayMs(500);
 8157              		.loc 13 126 7 is_stmt 1 discriminator 1 view .LVU2017
 8158              		.loc 13 126 17 is_stmt 0 discriminator 1 view .LVU2018
 8159 04a0 4FF4FA71 		mov	r1, #500
 8160 04a4 5E48     		ldr	r0, .L448+8
 8161 04a6 FFF7FEFF 		bl	_ZN5daisy9DaisySeed7DelayMsEj
 8162              	.LVL576:
 127:main.cpp      ****       hw.SetLed(false);
 8163              		.loc 13 127 7 is_stmt 1 discriminator 1 view .LVU2019
 8164              		.loc 13 127 16 is_stmt 0 discriminator 1 view .LVU2020
 8165 04aa 0021     		movs	r1, #0
 8166 04ac 5C48     		ldr	r0, .L448+8
 8167 04ae FFF7FEFF 		bl	_ZN5daisy9DaisySeed6SetLedEb
 8168              	.LVL577:
 128:main.cpp      ****       hw.DelayMs(500);    }
 8169              		.loc 13 128 7 is_stmt 1 discriminator 1 view .LVU2021
 8170              		.loc 13 128 17 is_stmt 0 discriminator 1 view .LVU2022
 8171 04b2 4FF4FA71 		mov	r1, #500
 8172 04b6 5A48     		ldr	r0, .L448+8
 8173 04b8 FFF7FEFF 		bl	_ZN5daisy9DaisySeed7DelayMsEj
 8174              	.LVL578:
 123:main.cpp      ****     {
 8175              		.loc 13 123 5 is_stmt 1 discriminator 1 view .LVU2023
 8176 04bc ECE7     		b	.L425
 8177              	.LVL579:
 8178              	.L424:
 121:main.cpp      ****   {
 8179              		.loc 13 121 3 view .LVU2024
 129:main.cpp      ****   }
 130:main.cpp      ****   else
 131:main.cpp      ****   {
 132:main.cpp      ****     hw.SetLed(true);
ARM GAS  C:\Users\matte\AppData\Local\Temp\ccvehO0v.s 			page 225


 8180              		.loc 13 132 5 view .LVU2025
 8181              		.loc 13 132 14 is_stmt 0 view .LVU2026
 8182 04be 0121     		movs	r1, #1
 8183 04c0 5748     		ldr	r0, .L448+8
 8184 04c2 DFF87C91 		ldr	r9, .L448+40
 8185 04c6 FFF7FEFF 		bl	_ZN5daisy9DaisySeed6SetLedEb
 8186              	.LVL580:
 133:main.cpp      ****   }
 134:main.cpp      **** 
 135:main.cpp      ****   // cap.SetThresholds(12, 6);                                           // sets the touch and rele
 136:main.cpp      ****   hw.StartAudio(AudioCallback);
 8187              		.loc 13 136 3 is_stmt 1 view .LVU2027
 8188 04ca DFF87881 		ldr	r8, .L448+44
 8189 04ce DFF878A1 		ldr	r10, .L448+48
 8190              		.loc 13 136 16 is_stmt 0 view .LVU2028
 8191 04d2 5449     		ldr	r1, .L448+12
 8192 04d4 5248     		ldr	r0, .L448+8
 8193 04d6 FFF7FEFF 		bl	_ZN5daisy9DaisySeed10StartAudioEPFvPKfPfjE
 8194              	.LVL581:
 8195              	.L426:
 137:main.cpp      **** 
 138:main.cpp      ****   while (1)
 8196              		.loc 13 138 3 is_stmt 1 view .LVU2029
 8197              	.LBB2201:
 139:main.cpp      ****   {
 140:main.cpp      ****     float curve_type = hw.adc.GetFloat(1)*2 + 1;
 8198              		.loc 13 140 5 view .LVU2030
 8199              		.loc 13 140 39 is_stmt 0 view .LVU2031
 8200 04da 0121     		movs	r1, #1
 8201 04dc 5248     		ldr	r0, .L448+16
 8202 04de FFF7FEFF 		bl	_ZNK5daisy9AdcHandle8GetFloatEh
 8203              	.LVL582:
 8204              		.loc 13 140 47 view .LVU2032
 8205 04e2 B7EE008A 		vmov.f32	s16, #1.0e+0
 8206 04e6 F0EE007A 		vmov.f32	s15, #2.0e+0
 141:main.cpp      ****     float delta_max = hw.adc.GetFloat(0)*100 + 20;
 8207              		.loc 13 141 38 view .LVU2033
 8208 04ea 0021     		movs	r1, #0
 8209 04ec 4E48     		ldr	r0, .L448+16
 142:main.cpp      ****     pc.setCurve(delta_max, curve_type);
 143:main.cpp      ****     
 144:main.cpp      **** 
 145:main.cpp      ****     currTouched = cap.Touched();                                   // reads the touched channels fr
 146:main.cpp      ****     if ((currTouched & _BV(0)) && !(lastTouched & _BV(0)) || gate) // if the channel 0 is touched a
 147:main.cpp      ****     {
 148:main.cpp      ****       gate = true; // sets the gate to true
 8210              		.loc 13 148 12 view .LVU2034
 8211 04ee 0125     		movs	r5, #1
 8212              	.LBB2202:
 8213              	.LBB2203:
 8214              	.LBB2204:
 8215              	.LBB2205:
 8216              	.LBB2206:
 8217              	.LBB2207:
 8218              	.LBB2208:
 8219              	.LBB2209:
  77:../../libs/libDaisy/src/dev/mpr121.h ****                    config_.dev_addr, 
ARM GAS  C:\Users\matte\AppData\Local\Temp\ccvehO0v.s 			page 226


 8220              		.loc 12 77 31 view .LVU2035
 8221 04f0 0A27     		movs	r7, #10
 8222              	.LBE2209:
 8223              	.LBE2208:
 8224              	.LBE2207:
 8225              	.LBE2206:
 8226              	.LBE2205:
 8227              	.LBE2204:
 8228              	.LBE2203:
 8229              	.LBE2202:
 140:main.cpp      ****     float delta_max = hw.adc.GetFloat(0)*100 + 20;
 8230              		.loc 13 140 47 view .LVU2036
 8231 04f2 A0EE278A 		vfma.f32	s16, s0, s15
 8232              	.LVL583:
 141:main.cpp      ****     pc.setCurve(delta_max, curve_type);
 8233              		.loc 13 141 5 is_stmt 1 view .LVU2037
 141:main.cpp      ****     pc.setCurve(delta_max, curve_type);
 8234              		.loc 13 141 38 is_stmt 0 view .LVU2038
 8235 04f6 FFF7FEFF 		bl	_ZNK5daisy9AdcHandle8GetFloatEh
 8236              	.LVL584:
 141:main.cpp      ****     pc.setCurve(delta_max, curve_type);
 8237              		.loc 13 141 48 view .LVU2039
 8238 04fa F3EE047A 		vmov.f32	s15, #2.0e+1
 8239 04fe 9FED4B7A 		vldr.32	s14, .L448+20
 142:main.cpp      ****     
 8240              		.loc 13 142 16 view .LVU2040
 8241 0502 4B48     		ldr	r0, .L448+24
 141:main.cpp      ****     pc.setCurve(delta_max, curve_type);
 8242              		.loc 13 141 48 view .LVU2041
 8243 0504 E0EE077A 		vfma.f32	s15, s0, s14
 8244              	.LVL585:
 142:main.cpp      ****     
 8245              		.loc 13 142 5 is_stmt 1 view .LVU2042
 142:main.cpp      ****     
 8246              		.loc 13 142 16 is_stmt 0 view .LVU2043
 8247 0508 B0EE480A 		vmov.f32	s0, s16
 8248 050c FCEEE77A 		vcvt.u32.f32	s15, s15
 8249              	.LVL586:
 142:main.cpp      ****     
 8250              		.loc 13 142 16 view .LVU2044
 8251 0510 CDED057A 		vstr.32	s15, [sp, #20]	@ int
 8252 0514 9DF81410 		ldrb	r1, [sp, #20]	@ zero_extendqisi2
 8253 0518 FFF7FEFF 		bl	_ZN16PlantConditioner8setCurveEhf
 8254              	.LVL587:
 145:main.cpp      ****     if ((currTouched & _BV(0)) && !(lastTouched & _BV(0)) || gate) // if the channel 0 is touched a
 8255              		.loc 13 145 5 is_stmt 1 view .LVU2045
 8256              	.LBB2259:
 8257              	.LBI2259:
 230:../../libs/libDaisy/src/dev/mpr121.h ****     {
 8258              		.loc 12 230 14 view .LVU2046
 8259              	.LBB2260:
 8260              	.LBB2261:
 8261              	.LBI2261:
 247:../../libs/libDaisy/src/dev/mpr121.h ****     {
 8262              		.loc 12 247 14 view .LVU2047
 8263              	.LBB2262:
 8264              	.LBB2263:
ARM GAS  C:\Users\matte\AppData\Local\Temp\ccvehO0v.s 			page 227


 8265              	.LBI2263:
  74:../../libs/libDaisy/src/dev/mpr121.h ****     {
 8266              		.loc 12 74 10 view .LVU2048
 8267              	.LBB2264:
  76:../../libs/libDaisy/src/dev/mpr121.h ****               != i2c_.Mem_read(
 8268              		.loc 12 76 8 view .LVU2049
  77:../../libs/libDaisy/src/dev/mpr121.h ****                    config_.dev_addr, 
 8269              		.loc 12 77 31 is_stmt 0 view .LVU2050
 8270 051c 0221     		movs	r1, #2
 8271 051e 2B46     		mov	r3, r5
 8272 0520 0022     		movs	r2, #0
 8273 0522 3D48     		ldr	r0, .L448
 8274 0524 0096     		str	r6, [sp]
 8275 0526 CDE90117 		strd	r1, r7, [sp, #4]
 8276 052a 94F82C10 		ldrb	r1, [r4, #44]	@ zero_extendqisi2
 8277 052e FFF7FEFF 		bl	_ZN5daisy9I2CHandle8Mem_readEtttPhtm
 8278              	.LVL588:
  77:../../libs/libDaisy/src/dev/mpr121.h ****                    config_.dev_addr, 
 8279              		.loc 12 77 31 view .LVU2051
 8280              	.LBE2264:
 8281              	.LBE2263:
 8282              	.LBE2262:
 8283              	.LBE2261:
 8284              	.LBE2260:
 8285              	.LBE2259:
 8286              		.loc 13 148 7 is_stmt 1 view .LVU2052
 8287              	.LBB2280:
 8288              	.LBB2277:
 8289              	.LBB2274:
 8290              	.LBB2271:
 8291              	.LBB2265:
 8292              	.LBI2265:
 346:../../libs/libDaisy/src/dev/mpr121.h **** 
 8293              		.loc 12 346 10 view .LVU2053
 8294              	.LBB2266:
 346:../../libs/libDaisy/src/dev/mpr121.h **** 
 8295              		.loc 12 346 55 is_stmt 0 view .LVU2054
 8296 0532 94F830C0 		ldrb	ip, [r4, #48]	@ zero_extendqisi2
 8297              	.LBE2266:
 8298              	.LBE2265:
 253:../../libs/libDaisy/src/dev/mpr121.h ****     }
 8299              		.loc 12 253 16 view .LVU2055
 8300 0536 BDF84810 		ldrh	r1, [sp, #72]
 8301              	.LBE2271:
 8302              	.LBE2274:
 8303              	.LBE2277:
 8304              	.LBE2280:
 8305              	.LBB2281:
 8306              	.LBB2252:
 8307              	.LBB2245:
 8308              	.LBB2238:
 8309              	.LBB2231:
 8310              	.LBB2224:
 8311              	.LBB2214:
 8312              	.LBB2210:
  77:../../libs/libDaisy/src/dev/mpr121.h ****                    config_.dev_addr, 
 8313              		.loc 12 77 31 view .LVU2056
ARM GAS  C:\Users\matte\AppData\Local\Temp\ccvehO0v.s 			page 228


 8314 053a 2B46     		mov	r3, r5
 8315              	.LBE2210:
 8316              	.LBE2214:
 8317              	.LBE2224:
 8318              	.LBE2231:
 8319              	.LBE2238:
 8320              	.LBE2245:
 8321              	.LBE2252:
 8322              	.LBE2281:
 8323              	.LBB2282:
 8324              	.LBB2278:
 8325              	.LBB2275:
 8326              	.LBB2272:
 8327              	.LBB2269:
 8328              	.LBB2267:
 346:../../libs/libDaisy/src/dev/mpr121.h **** 
 8329              		.loc 12 346 55 view .LVU2057
 8330 053c 0028     		cmp	r0, #0
 8331 053e 18BF     		it	ne
 8332 0540 4CF0010C 		orrne	ip, ip, #1
 8333              	.LBE2267:
 8334              	.LBE2269:
 8335              	.LBE2272:
 8336              	.LBE2275:
 8337              	.LBE2278:
 8338              	.LBE2282:
 8339              	.LBB2283:
 8340              	.LBB2253:
 8341              	.LBB2246:
 8342              	.LBB2239:
 8343              	.LBB2232:
 8344              	.LBB2225:
 8345              	.LBB2215:
 8346              	.LBB2211:
  77:../../libs/libDaisy/src/dev/mpr121.h ****                    config_.dev_addr, 
 8347              		.loc 12 77 31 view .LVU2058
 8348 0544 1E22     		movs	r2, #30
 8349 0546 3448     		ldr	r0, .L448
 8350              	.LVL589:
  77:../../libs/libDaisy/src/dev/mpr121.h ****                    config_.dev_addr, 
 8351              		.loc 12 77 31 view .LVU2059
 8352              	.LBE2211:
 8353              	.LBE2215:
 8354              	.LBE2225:
 8355              	.LBE2232:
 8356              	.LBE2239:
 8357              	.LBE2246:
 8358              	.LBE2253:
 8359              	.LBE2283:
 8360              	.LBB2284:
 8361              	.LBB2279:
 8362              	.LBB2276:
 8363              	.LBB2273:
 8364              	.LBB2270:
 8365              	.LBB2268:
 346:../../libs/libDaisy/src/dev/mpr121.h **** 
 8366              		.loc 12 346 55 view .LVU2060
ARM GAS  C:\Users\matte\AppData\Local\Temp\ccvehO0v.s 			page 229


 8367 0548 84F830C0 		strb	ip, [r4, #48]
 8368              	.LVL590:
 346:../../libs/libDaisy/src/dev/mpr121.h **** 
 8369              		.loc 12 346 55 view .LVU2061
 8370              	.LBE2268:
 8371              	.LBE2270:
 8372              	.LBE2273:
 8373              	.LBE2276:
 233:../../libs/libDaisy/src/dev/mpr121.h ****     }
 8374              		.loc 12 233 20 view .LVU2062
 8375 054c C1F30B0C 		ubfx	ip, r1, #0, #12
 8376              	.LVL591:
 233:../../libs/libDaisy/src/dev/mpr121.h ****     }
 8377              		.loc 12 233 20 view .LVU2063
 8378              	.LBE2279:
 8379              	.LBE2284:
 146:main.cpp      ****     {
 8380              		.loc 13 146 5 view .LVU2064
 8381 0550 2940     		ands	r1, r1, r5
 145:main.cpp      ****     if ((currTouched & _BV(0)) && !(lastTouched & _BV(0)) || gate) // if the channel 0 is touched a
 8382              		.loc 13 145 17 view .LVU2065
 8383 0552 A9F800C0 		strh	ip, [r9]	@ movhi
 146:main.cpp      ****     {
 8384              		.loc 13 146 5 is_stmt 1 view .LVU2066
 8385 0556 59D0     		beq	.L427
 146:main.cpp      ****     {
 8386              		.loc 13 146 32 is_stmt 0 discriminator 1 view .LVU2067
 8387 0558 B8F800E0 		ldrh	lr, [r8]
 8388 055c 1EF0010F 		tst	lr, #1
 8389 0560 54D1     		bne	.L427
 8390              	.L428:
 8391              	.LBB2285:
 8392              	.LBB2254:
 8393              	.LBB2247:
 8394              	.LBB2240:
 8395              	.LBB2233:
 8396              	.LBB2226:
 8397              	.LBB2216:
 8398              	.LBB2212:
  77:../../libs/libDaisy/src/dev/mpr121.h ****                    config_.dev_addr, 
 8399              		.loc 12 77 31 view .LVU2068
 8400 0562 94F82C10 		ldrb	r1, [r4, #44]	@ zero_extendqisi2
 8401 0566 0096     		str	r6, [sp]
 8402 0568 CDE90157 		strd	r5, r7, [sp, #4]
 8403              	.LBE2212:
 8404              	.LBE2216:
 8405              	.LBE2226:
 8406              	.LBE2233:
 8407              	.LBE2240:
 8408              	.LBE2247:
 8409              	.LBE2254:
 8410              	.LBE2285:
 8411              		.loc 13 148 12 view .LVU2069
 8412 056c 8AF80050 		strb	r5, [r10]
 149:main.cpp      ****       f = pc.Process(cap.BaselineData(0), cap.FilteredData(0));
 8413              		.loc 13 149 7 is_stmt 1 view .LVU2070
 8414              	.LVL592:
ARM GAS  C:\Users\matte\AppData\Local\Temp\ccvehO0v.s 			page 230


 8415              	.LBB2286:
 8416              	.LBI2202:
 217:../../libs/libDaisy/src/dev/mpr121.h ****     {
 8417              		.loc 12 217 14 view .LVU2071
 8418              	.LBB2255:
 8419              	.LBB2248:
 8420              	.LBI2204:
 217:../../libs/libDaisy/src/dev/mpr121.h ****     {
 8421              		.loc 12 217 14 view .LVU2072
 8422              	.LBB2241:
 8423              	.LBB2234:
 8424              	.LBI2206:
 240:../../libs/libDaisy/src/dev/mpr121.h ****     {
 8425              		.loc 12 240 12 view .LVU2073
 8426              	.LBB2227:
 8427              	.LBB2217:
 8428              	.LBI2208:
  74:../../libs/libDaisy/src/dev/mpr121.h ****     {
 8429              		.loc 12 74 10 view .LVU2074
 8430              	.LBB2213:
  76:../../libs/libDaisy/src/dev/mpr121.h ****               != i2c_.Mem_read(
 8431              		.loc 12 76 8 view .LVU2075
  77:../../libs/libDaisy/src/dev/mpr121.h ****                    config_.dev_addr, 
 8432              		.loc 12 77 31 is_stmt 0 view .LVU2076
 8433 0570 FFF7FEFF 		bl	_ZN5daisy9I2CHandle8Mem_readEtttPhtm
 8434              	.LVL593:
  77:../../libs/libDaisy/src/dev/mpr121.h ****                    config_.dev_addr, 
 8435              		.loc 12 77 31 view .LVU2077
 8436              	.LBE2213:
 8437              	.LBE2217:
 8438              	.LBB2218:
 8439              	.LBI2218:
 346:../../libs/libDaisy/src/dev/mpr121.h **** 
 8440              		.loc 12 346 10 is_stmt 1 view .LVU2078
 8441              	.LBB2219:
 346:../../libs/libDaisy/src/dev/mpr121.h **** 
 8442              		.loc 12 346 55 is_stmt 0 view .LVU2079
 8443 0574 94F830C0 		ldrb	ip, [r4, #48]	@ zero_extendqisi2
 8444              	.LBE2219:
 8445              	.LBE2218:
 8446              	.LBE2227:
 8447              	.LBE2234:
 8448              	.LBE2241:
 8449              	.LBE2248:
 8450              	.LBE2255:
 8451              	.LBE2286:
 8452              	.LBB2287:
 8453              	.LBB2288:
 8454              	.LBB2289:
 8455              	.LBB2290:
 8456              	.LBB2291:
 8457              	.LBB2292:
  77:../../libs/libDaisy/src/dev/mpr121.h ****                    config_.dev_addr, 
 8458              		.loc 12 77 31 view .LVU2080
 8459 0578 4FF0020E 		mov	lr, #2
 8460 057c 2B46     		mov	r3, r5
 8461              	.LBE2292:
ARM GAS  C:\Users\matte\AppData\Local\Temp\ccvehO0v.s 			page 231


 8462              	.LBE2291:
 8463              	.LBE2290:
 8464              	.LBE2289:
 8465              	.LBE2288:
 8466              	.LBE2287:
 8467              	.LBB2320:
 8468              	.LBB2256:
 8469              	.LBB2249:
 8470              	.LBB2242:
 8471              	.LBB2235:
 8472              	.LBB2228:
 8473              	.LBB2222:
 8474              	.LBB2220:
 346:../../libs/libDaisy/src/dev/mpr121.h **** 
 8475              		.loc 12 346 55 view .LVU2081
 8476 057e 0028     		cmp	r0, #0
 8477 0580 18BF     		it	ne
 8478 0582 4CF0010C 		orrne	ip, ip, #1
 8479              	.LBE2220:
 8480              	.LBE2222:
 8481              	.LBE2228:
 8482              	.LBE2235:
 8483              	.LBE2242:
 8484              	.LBE2249:
 8485              	.LBE2256:
 8486              	.LBE2320:
 8487              	.LBB2321:
 8488              	.LBB2315:
 8489              	.LBB2310:
 8490              	.LBB2305:
 8491              	.LBB2296:
 8492              	.LBB2293:
  77:../../libs/libDaisy/src/dev/mpr121.h ****                    config_.dev_addr, 
 8493              		.loc 12 77 31 view .LVU2082
 8494 0586 94F82C10 		ldrb	r1, [r4, #44]	@ zero_extendqisi2
 8495 058a 0422     		movs	r2, #4
 8496 058c 2248     		ldr	r0, .L448
 8497              	.LVL594:
  77:../../libs/libDaisy/src/dev/mpr121.h ****                    config_.dev_addr, 
 8498              		.loc 12 77 31 view .LVU2083
 8499 058e 0297     		str	r7, [sp, #8]
 8500              	.LBE2293:
 8501              	.LBE2296:
 8502              	.LBE2305:
 8503              	.LBE2310:
 8504              	.LBE2315:
 8505              	.LBE2321:
 8506              	.LBB2322:
 8507              	.LBB2257:
 8508              	.LBB2250:
 8509              	.LBB2243:
 8510              	.LBB2236:
 8511              	.LBB2229:
 8512              	.LBB2223:
 8513              	.LBB2221:
 346:../../libs/libDaisy/src/dev/mpr121.h **** 
 8514              		.loc 12 346 55 view .LVU2084
ARM GAS  C:\Users\matte\AppData\Local\Temp\ccvehO0v.s 			page 232


 8515 0590 84F830C0 		strb	ip, [r4, #48]
 8516              	.LVL595:
 346:../../libs/libDaisy/src/dev/mpr121.h **** 
 8517              		.loc 12 346 55 view .LVU2085
 8518              	.LBE2221:
 8519              	.LBE2223:
 8520              	.LBE2229:
 8521              	.LBE2236:
 8522              	.LBE2243:
 8523              	.LBE2250:
 8524              	.LBE2257:
 8525              	.LBE2322:
 8526              	.LBB2323:
 8527              	.LBI2287:
 204:../../libs/libDaisy/src/dev/mpr121.h ****     {
 8528              		.loc 12 204 14 is_stmt 1 view .LVU2086
 8529              	.LBB2316:
 8530              	.LBI2288:
 204:../../libs/libDaisy/src/dev/mpr121.h ****     {
 8531              		.loc 12 204 14 view .LVU2087
 8532              	.LBB2311:
 8533              	.LBI2289:
 247:../../libs/libDaisy/src/dev/mpr121.h ****     {
 8534              		.loc 12 247 14 view .LVU2088
 8535              	.LBB2306:
 8536              	.LBB2297:
 8537              	.LBI2291:
  74:../../libs/libDaisy/src/dev/mpr121.h ****     {
 8538              		.loc 12 74 10 view .LVU2089
 8539              	.LBB2294:
  76:../../libs/libDaisy/src/dev/mpr121.h ****               != i2c_.Mem_read(
 8540              		.loc 12 76 8 view .LVU2090
 8541              	.LBE2294:
 8542              	.LBE2297:
 8543              	.LBE2306:
 8544              	.LBE2311:
 8545              	.LBE2316:
 8546              	.LBE2323:
 8547              	.LBB2324:
 8548              	.LBB2258:
 8549              	.LBB2251:
 8550              	.LBB2244:
 8551              	.LBB2237:
 8552              	.LBB2230:
 244:../../libs/libDaisy/src/dev/mpr121.h ****     }
 8553              		.loc 12 244 16 is_stmt 0 view .LVU2091
 8554 0594 9DF84850 		ldrb	r5, [sp, #72]	@ zero_extendqisi2
 8555              	.LBE2230:
 8556              	.LBE2237:
 8557              	.LBE2244:
 8558              	.LBE2251:
 8559              	.LBE2258:
 8560              	.LBE2324:
 8561              	.LBB2325:
 8562              	.LBB2317:
 8563              	.LBB2312:
 8564              	.LBB2307:
ARM GAS  C:\Users\matte\AppData\Local\Temp\ccvehO0v.s 			page 233


 8565              	.LBB2298:
 8566              	.LBB2295:
  77:../../libs/libDaisy/src/dev/mpr121.h ****                    config_.dev_addr, 
 8567              		.loc 12 77 31 view .LVU2092
 8568 0598 CDE9006E 		strd	r6, lr, [sp]
 8569 059c FFF7FEFF 		bl	_ZN5daisy9I2CHandle8Mem_readEtttPhtm
 8570              	.LVL596:
  77:../../libs/libDaisy/src/dev/mpr121.h ****                    config_.dev_addr, 
 8571              		.loc 12 77 31 view .LVU2093
 8572              	.LBE2295:
 8573              	.LBE2298:
 8574              	.LBB2299:
 8575              	.LBI2299:
 346:../../libs/libDaisy/src/dev/mpr121.h **** 
 8576              		.loc 12 346 10 is_stmt 1 view .LVU2094
 8577              	.LBB2300:
 346:../../libs/libDaisy/src/dev/mpr121.h **** 
 8578              		.loc 12 346 55 is_stmt 0 view .LVU2095
 8579 05a0 94F83030 		ldrb	r3, [r4, #48]	@ zero_extendqisi2
 8580              	.LBE2300:
 8581              	.LBE2299:
 8582              	.LBE2307:
 8583              	.LBE2312:
 8584              	.LBE2317:
 8585              	.LBE2325:
 8586              		.loc 13 149 21 view .LVU2096
 8587 05a4 A900     		lsls	r1, r5, #2
 8588 05a6 BDF84820 		ldrh	r2, [sp, #72]
 8589              	.LBB2326:
 8590              	.LBB2318:
 8591              	.LBB2313:
 8592              	.LBB2308:
 8593              	.LBB2303:
 8594              	.LBB2301:
 346:../../libs/libDaisy/src/dev/mpr121.h **** 
 8595              		.loc 12 346 55 view .LVU2097
 8596 05aa 0028     		cmp	r0, #0
 8597 05ac 18BF     		it	ne
 8598 05ae 43F00103 		orrne	r3, r3, #1
 8599              	.LBE2301:
 8600              	.LBE2303:
 8601              	.LBE2308:
 8602              	.LBE2313:
 8603              	.LBE2318:
 8604              	.LBE2326:
 8605              		.loc 13 149 21 view .LVU2098
 8606 05b2 1F48     		ldr	r0, .L448+24
 8607              	.LVL597:
 8608              	.LBB2327:
 8609              	.LBB2319:
 8610              	.LBB2314:
 8611              	.LBB2309:
 8612              	.LBB2304:
 8613              	.LBB2302:
 346:../../libs/libDaisy/src/dev/mpr121.h **** 
 8614              		.loc 12 346 55 view .LVU2099
 8615 05b4 84F83030 		strb	r3, [r4, #48]
ARM GAS  C:\Users\matte\AppData\Local\Temp\ccvehO0v.s 			page 234


 8616              	.LVL598:
 346:../../libs/libDaisy/src/dev/mpr121.h **** 
 8617              		.loc 12 346 55 view .LVU2100
 8618              	.LBE2302:
 8619              	.LBE2304:
 8620              	.LBE2309:
 8621              	.LBE2314:
 8622              	.LBE2319:
 8623              	.LBE2327:
 8624              		.loc 13 149 21 view .LVU2101
 8625 05b8 FFF7FEFF 		bl	_ZN16PlantConditioner7ProcessEtt
 8626              	.LVL599:
 150:main.cpp      ****       osc.SetFreq(f*2);
 8627              		.loc 13 150 18 view .LVU2102
 8628 05bc 70EE007A 		vadd.f32	s15, s0, s0
 149:main.cpp      ****       osc.SetFreq(f*2);
 8629              		.loc 13 149 9 view .LVU2103
 8630 05c0 1C4B     		ldr	r3, .L448+28
 8631              	.LBB2328:
 8632              	.LBB2329:
  70:../../libs/DaisySP/Source/Synthesis/oscillator.h ****     }
 8633              		.loc 8 70 34 view .LVU2104
 8634 05c2 1D48     		ldr	r0, .L448+32
 8635              	.LBE2329:
 8636              	.LBE2328:
 149:main.cpp      ****       osc.SetFreq(f*2);
 8637              		.loc 13 149 9 view .LVU2105
 8638 05c4 83ED000A 		vstr.32	s0, [r3]
 8639              		.loc 13 150 7 is_stmt 1 view .LVU2106
 8640              	.LVL600:
 8641              	.LBB2332:
 8642              	.LBI2328:
  67:../../libs/DaisySP/Source/Synthesis/oscillator.h ****     {
 8643              		.loc 8 67 17 view .LVU2107
 8644              	.LBB2330:
  69:../../libs/DaisySP/Source/Synthesis/oscillator.h ****         phase_inc_ = CalcPhaseInc(f);
 8645              		.loc 8 69 9 view .LVU2108
  70:../../libs/DaisySP/Source/Synthesis/oscillator.h ****     }
 8646              		.loc 8 70 34 is_stmt 0 view .LVU2109
 8647 05c8 B0EE670A 		vmov.f32	s0, s15
  69:../../libs/DaisySP/Source/Synthesis/oscillator.h ****         phase_inc_ = CalcPhaseInc(f);
 8648              		.loc 8 69 20 view .LVU2110
 8649 05cc CBED027A 		vstr.32	s15, [fp, #8]
  70:../../libs/DaisySP/Source/Synthesis/oscillator.h ****     }
 8650              		.loc 8 70 9 is_stmt 1 view .LVU2111
  70:../../libs/DaisySP/Source/Synthesis/oscillator.h ****     }
 8651              		.loc 8 70 34 is_stmt 0 view .LVU2112
 8652 05d0 FFF7FEFF 		bl	_ZN7daisysp10Oscillator12CalcPhaseIncEf
 8653              	.LVL601:
  70:../../libs/DaisySP/Source/Synthesis/oscillator.h ****     }
 8654              		.loc 8 70 34 view .LVU2113
 8655              	.LBE2330:
 8656              	.LBE2332:
 151:main.cpp      ****       
 152:main.cpp      ****     }
 153:main.cpp      **** 
 154:main.cpp      ****     if (!(currTouched & _BV(0)) && (lastTouched & _BV(0))) // if the channel 0 was touched and it i
ARM GAS  C:\Users\matte\AppData\Local\Temp\ccvehO0v.s 			page 235


 8657              		.loc 13 154 11 view .LVU2114
 8658 05d4 B9F800C0 		ldrh	ip, [r9]
 8659              	.LBB2333:
 8660              	.LBB2331:
  70:../../libs/DaisySP/Source/Synthesis/oscillator.h ****     }
 8661              		.loc 8 70 20 view .LVU2115
 8662 05d8 8BED070A 		vstr.32	s0, [fp, #28]
 8663 05dc 0CF00101 		and	r1, ip, #1
 8664              	.LVL602:
 8665              	.L429:
  70:../../libs/DaisySP/Source/Synthesis/oscillator.h ****     }
 8666              		.loc 8 70 20 view .LVU2116
 8667              	.LBE2331:
 8668              	.LBE2333:
 8669              		.loc 13 154 5 is_stmt 1 view .LVU2117
 8670 05e0 51B9     		cbnz	r1, .L430
 155:main.cpp      ****     {
 156:main.cpp      ****       gate = false; // sets the gate to false
 8671              		.loc 13 156 7 discriminator 1 view .LVU2118
 154:main.cpp      ****     {
 8672              		.loc 13 154 33 is_stmt 0 discriminator 1 view .LVU2119
 8673 05e2 B8F80030 		ldrh	r3, [r8]
 157:main.cpp      ****       pc.setBuffer();
 8674              		.loc 13 157 19 discriminator 1 view .LVU2120
 8675 05e6 1248     		ldr	r0, .L448+24
 154:main.cpp      ****     {
 8676              		.loc 13 154 33 discriminator 1 view .LVU2121
 8677 05e8 DB07     		lsls	r3, r3, #31
 8678 05ea 05D5     		bpl	.L430
 156:main.cpp      ****       pc.setBuffer();
 8679              		.loc 13 156 12 view .LVU2122
 8680 05ec 8AF80010 		strb	r1, [r10]
 8681              		.loc 13 157 7 is_stmt 1 view .LVU2123
 8682              		.loc 13 157 19 is_stmt 0 view .LVU2124
 8683 05f0 FFF7FEFF 		bl	_ZN16PlantConditioner9setBufferEv
 8684              	.LVL603:
 158:main.cpp      ****     }
 159:main.cpp      **** 
 160:main.cpp      ****     // calculates the frequency based on the delta value
 161:main.cpp      **** 
 162:main.cpp      ****   #ifdef DEBUG
 163:main.cpp      ****     if (gate)
 164:main.cpp      ****     {
 165:main.cpp      ****       if (!flag){
 166:main.cpp      ****         hw.PrintLine("-----------------------------------------------------------------------------
 167:main.cpp      ****         hw.PrintLine("CAP touched");
 168:main.cpp      ****         flag = true;
 169:main.cpp      ****       }
 170:main.cpp      ****       hw.PrintLine("| ");
 171:main.cpp      ****       hw.PrintLine("| Delta : %f, | DeltaFiltered :  %f | Frequency : %f ", pc.getDelta(), pc.getDe
 172:main.cpp      ****       hw.PrintLine("| ");
 173:main.cpp      ****       
 174:main.cpp      ****     }
 175:main.cpp      ****     else
 176:main.cpp      ****     {
 177:main.cpp      ****       if ( flag)
 178:main.cpp      ****       {
ARM GAS  C:\Users\matte\AppData\Local\Temp\ccvehO0v.s 			page 236


 179:main.cpp      ****         hw.PrintLine("CAP released");
 180:main.cpp      ****         hw.PrintLine("-----------------------------------------------------------------------------
 181:main.cpp      ****         hw.PrintLine(" ");
 182:main.cpp      ****         flag = false;
 183:main.cpp      ****       }
 184:main.cpp      ****       k++;
 185:main.cpp      ****       if (k>50){
 186:main.cpp      ****         hw.PrintLine(" ");
 187:main.cpp      ****         hw.PrintLine("deltaMax : %f", delta_max);
 188:main.cpp      ****         hw.PrintLine("curveType : %f", curve_type);
 189:main.cpp      ****         k = 0;
 190:main.cpp      ****       }
 191:main.cpp      ****     }
 192:main.cpp      ****   #endif
 193:main.cpp      **** 
 194:main.cpp      ****   #ifdef csvAcquisition
 195:main.cpp      ****     if (gate) {
 196:main.cpp      ****       hw.PrintLine("%f, %f, 1", pc.getDelta(), pc.getDeltaFilt());
 197:main.cpp      ****     } else {
 198:main.cpp      ****       hw.PrintLine("%f, %f, 0", pc.getDelta(), pc.getDeltaFilt());
 199:main.cpp      ****     }
 200:main.cpp      ****     
 201:main.cpp      ****     //hw.PrintLine(" ");
 202:main.cpp      ****     //hw.PrintLine("%d, %d ", cap.BaselineData(0), cap.FilteredData(0));
 203:main.cpp      ****     //hw.PrintLine(" ");
 204:main.cpp      ****   #endif
 205:main.cpp      ****     
 206:main.cpp      ****   lastTouched = currTouched;
 8685              		.loc 13 206 15 view .LVU2125
 8686 05f4 B9F800C0 		ldrh	ip, [r9]
 8687              	.L430:
 8688              		.loc 13 206 3 is_stmt 1 view .LVU2126
 207:main.cpp      ****   disp1.Update();
 8689              		.loc 13 207 15 is_stmt 0 view .LVU2127
 8690 05f8 1048     		ldr	r0, .L448+36
 206:main.cpp      ****   disp1.Update();
 8691              		.loc 13 206 15 view .LVU2128
 8692 05fa A8F800C0 		strh	ip, [r8]	@ movhi
 8693              		.loc 13 207 3 is_stmt 1 view .LVU2129
 8694              		.loc 13 207 15 is_stmt 0 view .LVU2130
 8695 05fe FFF7FEFF 		bl	_ZN14DisplayHandler6UpdateEv
 8696              	.LVL604:
 208:main.cpp      ****   hw.DelayMs(10);
 8697              		.loc 13 208 3 is_stmt 1 view .LVU2131
 8698              		.loc 13 208 13 is_stmt 0 view .LVU2132
 8699 0602 0A21     		movs	r1, #10
 8700 0604 0648     		ldr	r0, .L448+8
 8701 0606 FFF7FEFF 		bl	_ZN5daisy9DaisySeed7DelayMsEj
 8702              	.LVL605:
 8703              	.LBE2201:
 138:main.cpp      ****   {
 8704              		.loc 13 138 3 is_stmt 1 view .LVU2133
 209:main.cpp      ****     
 210:main.cpp      **** 
 211:main.cpp      ****   }
 8705              		.loc 13 211 3 is_stmt 0 view .LVU2134
 8706 060a 66E7     		b	.L426
ARM GAS  C:\Users\matte\AppData\Local\Temp\ccvehO0v.s 			page 237


 8707              	.L427:
 8708              	.LBB2334:
 146:main.cpp      ****     {
 8709              		.loc 13 146 59 discriminator 3 view .LVU2135
 8710 060c 9AF800E0 		ldrb	lr, [r10]	@ zero_extendqisi2
 8711 0610 BEF1000F 		cmp	lr, #0
 8712 0614 E4D0     		beq	.L429
 8713 0616 A4E7     		b	.L428
 8714              	.L449:
 8715              		.align	2
 8716              	.L448:
 8717 0618 18000000 		.word	.LANCHOR11+24
 8718 061c 00000000 		.word	.LANCHOR11
 8719 0620 00000000 		.word	.LANCHOR4
 8720 0624 00000000 		.word	_ZL13AudioCallbackPKfPfj
 8721 0628 18000000 		.word	.LANCHOR4+24
 8722 062c 0000C842 		.word	1120403456
 8723 0630 00000000 		.word	.LANCHOR6
 8724 0634 00000000 		.word	.LANCHOR14
 8725 0638 00000000 		.word	.LANCHOR2
 8726 063c 00000000 		.word	.LANCHOR3
 8727 0640 00000000 		.word	.LANCHOR12
 8728 0644 00000000 		.word	.LANCHOR13
 8729 0648 00000000 		.word	.LANCHOR0
 8730              	.LBE2334:
 8731              		.cfi_endproc
 8732              	.LFE4864:
 8734              		.section	.text.startup._GLOBAL__sub_I_mpr121ObjConf,"ax",%progbits
 8735              		.align	1
 8736              		.p2align 2,,3
 8737              		.syntax unified
 8738              		.thumb
 8739              		.thumb_func
 8740              		.fpu fpv5-d16
 8742              	_GLOBAL__sub_I_mpr121ObjConf:
 8743              	.LFB5492:
 212:main.cpp      **** }
 8744              		.loc 13 212 1 is_stmt 1 view -0
 8745              		.cfi_startproc
 8746              		@ args = 0, pretend = 0, frame = 0
 8747              		@ frame_needed = 0, uses_anonymous_args = 0
 8748              	.LBB2476:
 8749              	.LBI2476:
 8750              		.loc 13 212 1 view .LVU2137
 8751              	.LVL606:
 8752              	.LBB2477:
 8753              	.LBB2478:
 8754              	.LBI2478:
 108:../../libs/libDaisy/src/dev/mpr121.h ****         {
 8755              		.loc 12 108 9 view .LVU2138
 8756              	.LBB2479:
 8757              	.LBB2480:
 8758              	.LBI2480:
  33:../../libs/libDaisy/src/dev/mpr121.h ****         {
 8759              		.loc 12 33 9 view .LVU2139
 8760              	.LBB2481:
 8761              	.LBB2482:
ARM GAS  C:\Users\matte\AppData\Local\Temp\ccvehO0v.s 			page 238


 8762              	.LBB2483:
 8763              	.LBI2483:
 8764              		.loc 17 204 15 view .LVU2140
 8765              		.loc 17 204 15 is_stmt 0 view .LVU2141
 8766              	.LBE2483:
 8767              	.LBB2484:
 8768              	.LBI2484:
 8769              		.loc 17 204 15 is_stmt 1 view .LVU2142
 8770              		.loc 17 204 15 is_stmt 0 view .LVU2143
 8771              	.LBE2484:
  35:../../libs/libDaisy/src/dev/mpr121.h ****             speed  = I2CHandle::Config::Speed::I2C_400KHZ;
 8772              		.loc 12 35 13 is_stmt 1 view .LVU2144
  36:../../libs/libDaisy/src/dev/mpr121.h **** 
 8773              		.loc 12 36 13 view .LVU2145
  38:../../libs/libDaisy/src/dev/mpr121.h ****             sda = Pin(PORTB, 9);
 8774              		.loc 12 38 13 view .LVU2146
 8775              	.LBB2485:
 8776              	.LBI2485:
 201:../../libs/libDaisy/src/daisy_core.h **** 
 8777              		.loc 17 201 15 view .LVU2147
 201:../../libs/libDaisy/src/daisy_core.h **** 
 8778              		.loc 17 201 15 is_stmt 0 view .LVU2148
 8779              	.LBE2485:
  39:../../libs/libDaisy/src/dev/mpr121.h **** 
 8780              		.loc 12 39 13 is_stmt 1 view .LVU2149
 8781              	.LBB2486:
 8782              	.LBI2486:
 201:../../libs/libDaisy/src/daisy_core.h **** 
 8783              		.loc 17 201 15 view .LVU2150
 201:../../libs/libDaisy/src/daisy_core.h **** 
 8784              		.loc 17 201 15 is_stmt 0 view .LVU2151
 8785              	.LBE2486:
  41:../../libs/libDaisy/src/dev/mpr121.h ****         }
 8786              		.loc 12 41 13 is_stmt 1 view .LVU2152
  41:../../libs/libDaisy/src/dev/mpr121.h ****         }
 8787              		.loc 12 41 13 is_stmt 0 view .LVU2153
 8788              	.LBE2482:
 8789              	.LBE2481:
 8790              	.LBE2480:
 8791              	.LBE2479:
 8792              	.LBE2478:
 8793              	.LBE2477:
 8794              	.LBE2476:
 8795              		.loc 13 212 1 view .LVU2154
 8796 0000 38B5     		push	{r3, r4, r5, lr}
 8797              		.cfi_def_cfa_offset 16
 8798              		.cfi_offset 3, -16
 8799              		.cfi_offset 4, -12
 8800              		.cfi_offset 5, -8
 8801              		.cfi_offset 14, -4
 8802              	.LBB2672:
 8803              	.LBB2670:
 8804              	.LBB2496:
 8805              	.LBB2497:
 8806              	.LBB2498:
 8807              	.LBB2499:
 8808              	.LBB2500:
ARM GAS  C:\Users\matte\AppData\Local\Temp\ccvehO0v.s 			page 239


 8809              	.LBB2501:
 8810              	.LBB2502:
  35:../../libs/libDaisy/src/dev/mpr121.h ****             speed  = I2CHandle::Config::Speed::I2C_400KHZ;
 8811              		.loc 12 35 20 view .LVU2155
 8812 0002 4348     		ldr	r0, .L456
 8813              	.LBE2502:
 8814              	.LBE2501:
 8815              	.LBE2500:
 8816              	.LBE2499:
 8817              	.LBE2498:
 8818              	.LBE2497:
 8819              	.LBE2496:
 8820              	.LBB2535:
 8821              	.LBB2493:
 108:../../libs/libDaisy/src/dev/mpr121.h ****         {
 8822              		.loc 12 108 9 view .LVU2156
 8823 0004 5A21     		movs	r1, #90
 8824              	.LBB2491:
 8825              	.LBB2489:
 8826              	.LBB2487:
  35:../../libs/libDaisy/src/dev/mpr121.h ****             speed  = I2CHandle::Config::Speed::I2C_400KHZ;
 8827              		.loc 12 35 20 view .LVU2157
 8828 0006 434B     		ldr	r3, .L456+4
 8829 0008 0024     		movs	r4, #0
  36:../../libs/libDaisy/src/dev/mpr121.h **** 
 8830              		.loc 12 36 20 view .LVU2158
 8831 000a 0125     		movs	r5, #1
 8832              	.LBE2487:
 8833              	.LBE2489:
 8834              	.LBE2491:
 108:../../libs/libDaisy/src/dev/mpr121.h ****         {
 8835              		.loc 12 108 9 view .LVU2159
 8836 000c 424A     		ldr	r2, .L456+8
 8837 000e 1961     		str	r1, [r3, #16]
 8838              	.LBE2493:
 8839              	.LBE2535:
 8840              	.LBB2536:
 8841              	.LBB2532:
  99:../../libs/libDaisy/src/dev/mpr121.h ****     ~Mpr121() {}
 8842              		.loc 12 99 5 view .LVU2160
 8843 0010 0161     		str	r1, [r0, #16]
 8844 0012 C162     		str	r1, [r0, #44]
 8845              	.LBE2532:
 8846              	.LBE2536:
 8847              	.LBB2537:
 8848              	.LBB2494:
 108:../../libs/libDaisy/src/dev/mpr121.h ****         {
 8849              		.loc 12 108 9 view .LVU2161
 8850 0014 4FF48171 		mov	r1, #258
 8851 0018 9A60     		str	r2, [r3, #8]
 8852 001a 9982     		strh	r1, [r3, #20]	@ movhi
 8853              	.LVL607:
 108:../../libs/libDaisy/src/dev/mpr121.h ****         {
 8854              		.loc 12 108 9 view .LVU2162
 8855              	.LBE2494:
 8856              	.LBE2537:
 8857              	.LBB2538:
ARM GAS  C:\Users\matte\AppData\Local\Temp\ccvehO0v.s 			page 240


 8858              	.LBI2496:
  99:../../libs/libDaisy/src/dev/mpr121.h ****     ~Mpr121() {}
 8859              		.loc 12 99 5 is_stmt 1 view .LVU2163
 8860              	.LBB2533:
 8861              	.LBB2515:
 8862              	.LBI2498:
 108:../../libs/libDaisy/src/dev/mpr121.h ****         {
 8863              		.loc 12 108 9 view .LVU2164
 8864              	.LBB2513:
 8865              	.LBB2511:
 8866              	.LBI2500:
  33:../../libs/libDaisy/src/dev/mpr121.h ****         {
 8867              		.loc 12 33 9 view .LVU2165
 8868              	.LBB2509:
 8869              	.LBB2507:
 8870              	.LBB2503:
 8871              	.LBI2503:
 8872              		.loc 17 204 15 view .LVU2166
 8873              		.loc 17 204 15 is_stmt 0 view .LVU2167
 8874              	.LBE2503:
 8875              	.LBB2504:
 8876              	.LBI2504:
 8877              		.loc 17 204 15 is_stmt 1 view .LVU2168
 8878              		.loc 17 204 15 is_stmt 0 view .LVU2169
 8879              	.LBE2504:
  35:../../libs/libDaisy/src/dev/mpr121.h ****             speed  = I2CHandle::Config::Speed::I2C_400KHZ;
 8880              		.loc 12 35 13 is_stmt 1 view .LVU2170
  36:../../libs/libDaisy/src/dev/mpr121.h **** 
 8881              		.loc 12 36 13 view .LVU2171
  38:../../libs/libDaisy/src/dev/mpr121.h ****             sda = Pin(PORTB, 9);
 8882              		.loc 12 38 13 view .LVU2172
 8883              	.LBB2505:
 8884              	.LBI2505:
 201:../../libs/libDaisy/src/daisy_core.h **** 
 8885              		.loc 17 201 15 view .LVU2173
 201:../../libs/libDaisy/src/daisy_core.h **** 
 8886              		.loc 17 201 15 is_stmt 0 view .LVU2174
 8887              	.LBE2505:
  39:../../libs/libDaisy/src/dev/mpr121.h **** 
 8888              		.loc 12 39 13 is_stmt 1 view .LVU2175
 8889              	.LBB2506:
 8890              	.LBI2506:
 201:../../libs/libDaisy/src/daisy_core.h **** 
 8891              		.loc 17 201 15 view .LVU2176
 201:../../libs/libDaisy/src/daisy_core.h **** 
 8892              		.loc 17 201 15 is_stmt 0 view .LVU2177
 8893              	.LBE2506:
  41:../../libs/libDaisy/src/dev/mpr121.h ****         }
 8894              		.loc 12 41 13 is_stmt 1 view .LVU2178
  41:../../libs/libDaisy/src/dev/mpr121.h ****         }
 8895              		.loc 12 41 13 is_stmt 0 view .LVU2179
 8896              	.LBE2507:
 8897              	.LBE2509:
 8898              	.LBE2511:
 8899              	.LBE2513:
 8900              	.LBE2515:
 8901              	.LBB2516:
ARM GAS  C:\Users\matte\AppData\Local\Temp\ccvehO0v.s 			page 241


 8902              	.LBI2516:
  19:../../libs/libDaisy/src/dev/mpr121.h ****     ~Mpr121I2CTransport() {}
 8903              		.loc 12 19 5 is_stmt 1 view .LVU2180
 8904              	.LBB2517:
 8905              	.LBB2518:
 8906              	.LBI2518:
  60:../../libs/libDaisy/src/per/i2c.h ****             Pin scl;  /**< & */
  61:../../libs/libDaisy/src/per/i2c.h ****             Pin sda;  /**< & */
  62:../../libs/libDaisy/src/per/i2c.h ****         } pin_config; /**< & */
  63:../../libs/libDaisy/src/per/i2c.h **** 
  64:../../libs/libDaisy/src/per/i2c.h ****         Speed speed; /**< & */
  65:../../libs/libDaisy/src/per/i2c.h ****         Mode  mode;  /**< & */
  66:../../libs/libDaisy/src/per/i2c.h ****         // 0x10 is chosen as a default to avoid conflicts with reserved addresses
  67:../../libs/libDaisy/src/per/i2c.h ****         uint8_t address = 0x10; /**< & */
  68:../../libs/libDaisy/src/per/i2c.h ****     };
  69:../../libs/libDaisy/src/per/i2c.h **** 
  70:../../libs/libDaisy/src/per/i2c.h ****     /** Return values for I2C functions. */
  71:../../libs/libDaisy/src/per/i2c.h ****     enum class Result
  72:../../libs/libDaisy/src/per/i2c.h ****     {
  73:../../libs/libDaisy/src/per/i2c.h ****         OK, /**< & */
  74:../../libs/libDaisy/src/per/i2c.h ****         ERR /**< & */
  75:../../libs/libDaisy/src/per/i2c.h ****     };
  76:../../libs/libDaisy/src/per/i2c.h **** 
  77:../../libs/libDaisy/src/per/i2c.h ****     enum class Direction
  78:../../libs/libDaisy/src/per/i2c.h ****     {
  79:../../libs/libDaisy/src/per/i2c.h ****         TRANSMIT, /**< & */
  80:../../libs/libDaisy/src/per/i2c.h ****         RECEIVE,  /**< & */
  81:../../libs/libDaisy/src/per/i2c.h ****     };
  82:../../libs/libDaisy/src/per/i2c.h **** 
  83:../../libs/libDaisy/src/per/i2c.h ****     I2CHandle() : pimpl_(nullptr) {}
 8907              		.loc 16 83 5 view .LVU2181
 8908              		.loc 16 83 5 is_stmt 0 view .LVU2182
 8909              	.LBE2518:
 8910              	.LBB2519:
 8911              	.LBI2519:
  33:../../libs/libDaisy/src/dev/mpr121.h ****         {
 8912              		.loc 12 33 9 is_stmt 1 view .LVU2183
 8913              	.LBB2520:
 8914              	.LBB2521:
 8915              	.LBB2522:
 8916              	.LBI2522:
 8917              		.loc 17 204 15 view .LVU2184
 8918              		.loc 17 204 15 is_stmt 0 view .LVU2185
 8919              	.LBE2522:
 8920              	.LBB2523:
 8921              	.LBI2523:
 8922              		.loc 17 204 15 is_stmt 1 view .LVU2186
 8923              		.loc 17 204 15 is_stmt 0 view .LVU2187
 8924              	.LBE2523:
  35:../../libs/libDaisy/src/dev/mpr121.h ****             speed  = I2CHandle::Config::Speed::I2C_400KHZ;
 8925              		.loc 12 35 13 is_stmt 1 view .LVU2188
  36:../../libs/libDaisy/src/dev/mpr121.h **** 
 8926              		.loc 12 36 13 view .LVU2189
  38:../../libs/libDaisy/src/dev/mpr121.h ****             sda = Pin(PORTB, 9);
 8927              		.loc 12 38 13 view .LVU2190
 8928              	.LBB2524:
 8929              	.LBI2524:
ARM GAS  C:\Users\matte\AppData\Local\Temp\ccvehO0v.s 			page 242


 201:../../libs/libDaisy/src/daisy_core.h **** 
 8930              		.loc 17 201 15 view .LVU2191
 201:../../libs/libDaisy/src/daisy_core.h **** 
 8931              		.loc 17 201 15 is_stmt 0 view .LVU2192
 8932              	.LBE2524:
  39:../../libs/libDaisy/src/dev/mpr121.h **** 
 8933              		.loc 12 39 13 is_stmt 1 view .LVU2193
 8934              	.LBB2525:
 8935              	.LBI2525:
 201:../../libs/libDaisy/src/daisy_core.h **** 
 8936              		.loc 17 201 15 view .LVU2194
 201:../../libs/libDaisy/src/daisy_core.h **** 
 8937              		.loc 17 201 15 is_stmt 0 view .LVU2195
 8938              	.LBE2525:
  41:../../libs/libDaisy/src/dev/mpr121.h ****         }
 8939              		.loc 12 41 13 is_stmt 1 view .LVU2196
  36:../../libs/libDaisy/src/dev/mpr121.h **** 
 8940              		.loc 12 36 20 is_stmt 0 view .LVU2197
 8941 001c 0562     		str	r5, [r0, #32]
 8942              	.LBE2521:
 8943              	.LBE2520:
 8944              	.LBE2519:
 8945              	.LBE2517:
 8946              	.LBE2516:
  99:../../libs/libDaisy/src/dev/mpr121.h ****     ~Mpr121() {}
 8947              		.loc 12 99 5 view .LVU2198
 8948 001e 8260     		str	r2, [r0, #8]
 8949 0020 4262     		str	r2, [r0, #36]
 8950 0022 4161     		str	r1, [r0, #20]
 8951              	.LBE2533:
 8952              	.LBE2538:
  25:main.cpp      **** 
 8953              		.loc 13 25 18 view .LVU2199
 8954 0024 3D4A     		ldr	r2, .L456+12
 8955 0026 3E49     		ldr	r1, .L456+16
 8956              	.LBB2539:
 8957              	.LBB2495:
 8958              	.LBB2492:
 8959              	.LBB2490:
 8960              	.LBB2488:
  36:../../libs/libDaisy/src/dev/mpr121.h **** 
 8961              		.loc 12 36 20 view .LVU2200
 8962 0028 C3E90045 		strd	r4, r5, [r3]
 8963              	.LBE2488:
 8964              	.LBE2490:
 8965              	.LBE2492:
 8966              	.LBE2495:
 8967              	.LBE2539:
 8968              	.LBB2540:
 8969              	.LBB2534:
 8970              	.LBB2530:
 8971              	.LBB2514:
 8972              	.LBB2512:
 8973              	.LBB2510:
 8974              	.LBB2508:
 8975 002c C0E90045 		strd	r4, r5, [r0]
 8976              	.LBE2508:
ARM GAS  C:\Users\matte\AppData\Local\Temp\ccvehO0v.s 			page 243


 8977              	.LBE2510:
 8978              	.LBE2512:
 8979              	.LBE2514:
 8980              	.LBE2530:
 8981              	.LBB2531:
 8982              	.LBB2529:
 8983              	.LBB2528:
 8984              	.LBB2527:
 8985              	.LBB2526:
  35:../../libs/libDaisy/src/dev/mpr121.h ****             speed  = I2CHandle::Config::Speed::I2C_400KHZ;
 8986              		.loc 12 35 20 view .LVU2201
 8987 0030 C0E90644 		strd	r4, r4, [r0, #24]
 8988              	.LBE2526:
 8989              	.LBE2527:
 8990              	.LBE2528:
 8991              	.LBE2529:
 8992              	.LBE2531:
 8993              	.LBE2534:
 8994              	.LBE2540:
  25:main.cpp      **** 
 8995              		.loc 13 25 18 view .LVU2202
 8996 0034 FFF7FEFF 		bl	__aeabi_atexit
 8997              	.LVL608:
 8998              	.LBB2541:
 8999              	.LBI2541:
  21:../../libs/libDaisy/src/daisy_seed.h ****     ~DaisySeed() {}
 9000              		.loc 1 21 5 is_stmt 1 view .LVU2203
 9001              	.LBB2542:
 9002              	.LBB2543:
 9003              	.LBI2543:
 9004              		.file 18 "../../libs/libDaisy/src/per/qspi.h"
   1:../../libs/libDaisy/src/per/qspi.h **** #ifndef DSY_QSPI
   2:../../libs/libDaisy/src/per/qspi.h **** #define DSY_QSPI /**< Macro */
   3:../../libs/libDaisy/src/per/qspi.h **** 
   4:../../libs/libDaisy/src/per/qspi.h **** #ifndef UNIT_TEST // for unit tests, a dummy implementation
   5:../../libs/libDaisy/src/per/qspi.h **** 
   6:../../libs/libDaisy/src/per/qspi.h **** #include <cstdint>
   7:../../libs/libDaisy/src/per/qspi.h **** #include "daisy_core.h"
   8:../../libs/libDaisy/src/per/qspi.h **** #include "util/hal_map.h"
   9:../../libs/libDaisy/src/per/qspi.h **** 
  10:../../libs/libDaisy/src/per/qspi.h **** #define DSY_QSPI_TEXT       \
  11:../../libs/libDaisy/src/per/qspi.h ****     __attribute__((section( \
  12:../../libs/libDaisy/src/per/qspi.h ****         ".qspiflash_text"))) /**< used for reading memory in memory_mapped mode. */
  13:../../libs/libDaisy/src/per/qspi.h **** #define DSY_QSPI_DATA       \
  14:../../libs/libDaisy/src/per/qspi.h ****     __attribute__((section( \
  15:../../libs/libDaisy/src/per/qspi.h ****         ".qspiflash_data"))) /**< used for reading memory in memory_mapped mode. */
  16:../../libs/libDaisy/src/per/qspi.h **** #define DSY_QSPI_BSS        \
  17:../../libs/libDaisy/src/per/qspi.h ****     __attribute__((section( \
  18:../../libs/libDaisy/src/per/qspi.h ****         ".qspiflash_bss"))) /**< used for reading memory in memory_mapped mode. */
  19:../../libs/libDaisy/src/per/qspi.h **** 
  20:../../libs/libDaisy/src/per/qspi.h **** namespace daisy
  21:../../libs/libDaisy/src/per/qspi.h **** {
  22:../../libs/libDaisy/src/per/qspi.h **** /** @addtogroup serial
  23:../../libs/libDaisy/src/per/qspi.h **** @{
  24:../../libs/libDaisy/src/per/qspi.h **** */
  25:../../libs/libDaisy/src/per/qspi.h **** 
  26:../../libs/libDaisy/src/per/qspi.h **** /** 
ARM GAS  C:\Users\matte\AppData\Local\Temp\ccvehO0v.s 			page 244


  27:../../libs/libDaisy/src/per/qspi.h ****  Driver for QSPI peripheral to interface with external flash memory. \n 
  28:../../libs/libDaisy/src/per/qspi.h ****     Currently supported QSPI Devices: \n 
  29:../../libs/libDaisy/src/per/qspi.h ****     * IS25LP080D
  30:../../libs/libDaisy/src/per/qspi.h **** */
  31:../../libs/libDaisy/src/per/qspi.h **** class QSPIHandle
  32:../../libs/libDaisy/src/per/qspi.h **** {
  33:../../libs/libDaisy/src/per/qspi.h ****   public:
  34:../../libs/libDaisy/src/per/qspi.h ****     enum Result
  35:../../libs/libDaisy/src/per/qspi.h ****     {
  36:../../libs/libDaisy/src/per/qspi.h ****         OK = 0,
  37:../../libs/libDaisy/src/per/qspi.h ****         ERR
  38:../../libs/libDaisy/src/per/qspi.h ****     };
  39:../../libs/libDaisy/src/per/qspi.h **** 
  40:../../libs/libDaisy/src/per/qspi.h ****     /** Indicates the current status of the module. 
  41:../../libs/libDaisy/src/per/qspi.h ****          *  Warnings are indicated by a leading W.
  42:../../libs/libDaisy/src/per/qspi.h ****          *  Errors are indicated by a leading E and cause an immediate exit.
  43:../../libs/libDaisy/src/per/qspi.h ****          * 
  44:../../libs/libDaisy/src/per/qspi.h ****          *  \param GOOD - No errors have been reported.
  45:../../libs/libDaisy/src/per/qspi.h ****          *  \param E_HAL_ERROR - HAL code did not return HAL_OK.
  46:../../libs/libDaisy/src/per/qspi.h ****          *  \param E_SWITCHING_MODES - An error was encountered while switching QSPI peripheral mod
  47:../../libs/libDaisy/src/per/qspi.h ****          *  \param E_INVALID_MODE - QSPI should not be written to while the program is executing fr
  48:../../libs/libDaisy/src/per/qspi.h ****          */
  49:../../libs/libDaisy/src/per/qspi.h ****     enum Status
  50:../../libs/libDaisy/src/per/qspi.h ****     {
  51:../../libs/libDaisy/src/per/qspi.h ****         GOOD = 0,
  52:../../libs/libDaisy/src/per/qspi.h ****         E_HAL_ERROR,
  53:../../libs/libDaisy/src/per/qspi.h ****         E_SWITCHING_MODES,
  54:../../libs/libDaisy/src/per/qspi.h ****         E_INVALID_MODE,
  55:../../libs/libDaisy/src/per/qspi.h ****     };
  56:../../libs/libDaisy/src/per/qspi.h **** 
  57:../../libs/libDaisy/src/per/qspi.h ****     /** Configuration structure for interfacing with QSPI Driver */
  58:../../libs/libDaisy/src/per/qspi.h ****     struct Config
  59:../../libs/libDaisy/src/per/qspi.h ****     {
  60:../../libs/libDaisy/src/per/qspi.h ****         /** Flash Devices supported. (Both of these are more-or-less the same, just different sizes
  61:../../libs/libDaisy/src/per/qspi.h ****         enum Device
  62:../../libs/libDaisy/src/per/qspi.h ****         {
  63:../../libs/libDaisy/src/per/qspi.h ****             IS25LP080D,  /**< & */
  64:../../libs/libDaisy/src/per/qspi.h ****             IS25LP064A,  /**< & */
  65:../../libs/libDaisy/src/per/qspi.h ****             DEVICE_LAST, /**< & */
  66:../../libs/libDaisy/src/per/qspi.h ****         };
  67:../../libs/libDaisy/src/per/qspi.h **** 
  68:../../libs/libDaisy/src/per/qspi.h ****         /** 
  69:../../libs/libDaisy/src/per/qspi.h ****         Modes of operation.
  70:../../libs/libDaisy/src/per/qspi.h ****         Memory Mapped mode: QSPI configured so that the QSPI can be
  71:../../libs/libDaisy/src/per/qspi.h ****         read from starting address 0x90000000. Writing is not
  72:../../libs/libDaisy/src/per/qspi.h ****         possible in this mode. \n 
  73:../../libs/libDaisy/src/per/qspi.h ****         Indirect Polling mode: Device driver enabled. 
  74:../../libs/libDaisy/src/per/qspi.h ****         */
  75:../../libs/libDaisy/src/per/qspi.h ****         enum Mode
  76:../../libs/libDaisy/src/per/qspi.h ****         {
  77:../../libs/libDaisy/src/per/qspi.h ****             MEMORY_MAPPED,    /**< & */
  78:../../libs/libDaisy/src/per/qspi.h ****             INDIRECT_POLLING, /**< & */
  79:../../libs/libDaisy/src/per/qspi.h ****             MODE_LAST,
  80:../../libs/libDaisy/src/per/qspi.h ****         };
  81:../../libs/libDaisy/src/per/qspi.h **** 
  82:../../libs/libDaisy/src/per/qspi.h ****         //SCK,  CE# (active low)
  83:../../libs/libDaisy/src/per/qspi.h ****         struct
ARM GAS  C:\Users\matte\AppData\Local\Temp\ccvehO0v.s 			page 245


  84:../../libs/libDaisy/src/per/qspi.h ****         {
  85:../../libs/libDaisy/src/per/qspi.h ****             Pin io0; /**< & */
  86:../../libs/libDaisy/src/per/qspi.h ****             Pin io1; /**< & */
  87:../../libs/libDaisy/src/per/qspi.h ****             Pin io2; /**< & */
  88:../../libs/libDaisy/src/per/qspi.h ****             Pin io3; /**< & */
  89:../../libs/libDaisy/src/per/qspi.h ****             Pin clk; /**< & */
  90:../../libs/libDaisy/src/per/qspi.h ****             Pin ncs; /**< & */
  91:../../libs/libDaisy/src/per/qspi.h ****         } pin_config;
  92:../../libs/libDaisy/src/per/qspi.h **** 
  93:../../libs/libDaisy/src/per/qspi.h ****         Device device;
  94:../../libs/libDaisy/src/per/qspi.h ****         Mode   mode;
  95:../../libs/libDaisy/src/per/qspi.h ****     };
  96:../../libs/libDaisy/src/per/qspi.h **** 
  97:../../libs/libDaisy/src/per/qspi.h ****     /** 
  98:../../libs/libDaisy/src/per/qspi.h ****         Initializes QSPI peripheral, and Resets, and prepares memory for access.
  99:../../libs/libDaisy/src/per/qspi.h ****         \param config should be populated with the mode, device and pin_config before calling this 
 100:../../libs/libDaisy/src/per/qspi.h ****         \return Result::OK or Result::ERR
 101:../../libs/libDaisy/src/per/qspi.h ****         */
 102:../../libs/libDaisy/src/per/qspi.h ****     Result Init(const Config& config);
 103:../../libs/libDaisy/src/per/qspi.h **** 
 104:../../libs/libDaisy/src/per/qspi.h ****     /** Returns the current config. */
 105:../../libs/libDaisy/src/per/qspi.h ****     const Config& GetConfig() const;
 106:../../libs/libDaisy/src/per/qspi.h **** 
 107:../../libs/libDaisy/src/per/qspi.h ****     // Couldn't this just be called before anything else in init? That
 108:../../libs/libDaisy/src/per/qspi.h ****     // would make manually calling it unnecessary.
 109:../../libs/libDaisy/src/per/qspi.h ****     /** 
 110:../../libs/libDaisy/src/per/qspi.h ****         Deinitializes the peripheral
 111:../../libs/libDaisy/src/per/qspi.h ****         This should be called before reinitializing QSPI in a different mode.
 112:../../libs/libDaisy/src/per/qspi.h ****         \return Result::OK or Result::ERR
 113:../../libs/libDaisy/src/per/qspi.h ****         */
 114:../../libs/libDaisy/src/per/qspi.h ****     Result DeInit();
 115:../../libs/libDaisy/src/per/qspi.h **** 
 116:../../libs/libDaisy/src/per/qspi.h ****     /** 
 117:../../libs/libDaisy/src/per/qspi.h ****         Writes a single page to to the specified address on the QSPI chip.
 118:../../libs/libDaisy/src/per/qspi.h ****         For IS25LP*, page size is 256 bytes.
 119:../../libs/libDaisy/src/per/qspi.h ****         \param address Address to write to
 120:../../libs/libDaisy/src/per/qspi.h ****         \param size Buffer size
 121:../../libs/libDaisy/src/per/qspi.h ****         \param buffer Buffer to write
 122:../../libs/libDaisy/src/per/qspi.h ****         \return Result::OK or Result::ERR
 123:../../libs/libDaisy/src/per/qspi.h ****         */
 124:../../libs/libDaisy/src/per/qspi.h ****     Result WritePage(uint32_t address, uint32_t size, uint8_t* buffer);
 125:../../libs/libDaisy/src/per/qspi.h **** 
 126:../../libs/libDaisy/src/per/qspi.h ****     /** 
 127:../../libs/libDaisy/src/per/qspi.h ****         Writes data in b
 128:../../libs/libDaisy/src/per/qspi.h ****         uffer to to the QSPI. Starting at address to address+size 
 129:../../libs/libDaisy/src/per/qspi.h ****         \param address Address to write to
 130:../../libs/libDaisy/src/per/qspi.h ****         \param size Buffer size
 131:../../libs/libDaisy/src/per/qspi.h ****         \param buffer Buffer to write
 132:../../libs/libDaisy/src/per/qspi.h ****         \return Result::OK or Result::ERR
 133:../../libs/libDaisy/src/per/qspi.h ****         */
 134:../../libs/libDaisy/src/per/qspi.h ****     Result Write(uint32_t address, uint32_t size, uint8_t* buffer);
 135:../../libs/libDaisy/src/per/qspi.h **** 
 136:../../libs/libDaisy/src/per/qspi.h ****     /** 
 137:../../libs/libDaisy/src/per/qspi.h ****         Erases the area specified on the chip.
 138:../../libs/libDaisy/src/per/qspi.h ****         Erasures will happen by 4K, 32K or 64K increments.
 139:../../libs/libDaisy/src/per/qspi.h ****         Smallest erase possible is 4kB at a time. (on IS25LP*)
 140:../../libs/libDaisy/src/per/qspi.h ****         \param start_addr Address to begin erasing from
ARM GAS  C:\Users\matte\AppData\Local\Temp\ccvehO0v.s 			page 246


 141:../../libs/libDaisy/src/per/qspi.h ****             \param end_addr  Address to stop erasing at
 142:../../libs/libDaisy/src/per/qspi.h ****         \return Result::OK or Result::ERR
 143:../../libs/libDaisy/src/per/qspi.h ****         */
 144:../../libs/libDaisy/src/per/qspi.h ****     Result Erase(uint32_t start_addr, uint32_t end_addr);
 145:../../libs/libDaisy/src/per/qspi.h **** 
 146:../../libs/libDaisy/src/per/qspi.h ****     /**  
 147:../../libs/libDaisy/src/per/qspi.h ****          Erases a single sector of the chip.  
 148:../../libs/libDaisy/src/per/qspi.h ****         TODO: Document the size of this function. 
 149:../../libs/libDaisy/src/per/qspi.h ****         \param address Address of sector to erase
 150:../../libs/libDaisy/src/per/qspi.h ****         \return Result::OK or Result::ERR
 151:../../libs/libDaisy/src/per/qspi.h ****         */
 152:../../libs/libDaisy/src/per/qspi.h ****     Result EraseSector(uint32_t address);
 153:../../libs/libDaisy/src/per/qspi.h **** 
 154:../../libs/libDaisy/src/per/qspi.h ****     /** Returns the current class status. Useful for debugging.
 155:../../libs/libDaisy/src/per/qspi.h ****      *  \returns Status
 156:../../libs/libDaisy/src/per/qspi.h ****      */
 157:../../libs/libDaisy/src/per/qspi.h ****     Status GetStatus(); 
 158:../../libs/libDaisy/src/per/qspi.h **** 
 159:../../libs/libDaisy/src/per/qspi.h ****     /** Returns a pointer to the actual memory used 
 160:../../libs/libDaisy/src/per/qspi.h ****      *  The memory at this address is read-only
 161:../../libs/libDaisy/src/per/qspi.h ****     *  to write to it use the Write function.
 162:../../libs/libDaisy/src/per/qspi.h ****      * 
 163:../../libs/libDaisy/src/per/qspi.h ****      *  \param offset returns the pointer starting this 
 164:../../libs/libDaisy/src/per/qspi.h ****      *                many bytes into the memory
 165:../../libs/libDaisy/src/per/qspi.h ****     */
 166:../../libs/libDaisy/src/per/qspi.h ****     void* GetData(uint32_t offset = 0);
 167:../../libs/libDaisy/src/per/qspi.h **** 
 168:../../libs/libDaisy/src/per/qspi.h ****     QSPIHandle() : pimpl_(nullptr) {}
 9005              		.loc 18 168 5 view .LVU2204
 9006              		.loc 18 168 5 is_stmt 0 view .LVU2205
 9007              	.LBE2543:
 9008              	.LBB2546:
 9009              	.LBI2546:
  58:../../libs/libDaisy/src/per/qspi.h ****     {
 9010              		.loc 18 58 12 is_stmt 1 view .LVU2206
 9011              	.LBB2547:
 9012              	.LBI2547:
  84:../../libs/libDaisy/src/per/qspi.h ****             Pin io0; /**< & */
 9013              		.loc 18 84 9 view .LVU2207
 9014              	.LBB2548:
 9015              	.LBI2548:
 9016              		.loc 17 204 15 view .LVU2208
 9017              		.loc 17 204 15 is_stmt 0 view .LVU2209
 9018              	.LBE2548:
 9019              	.LBB2549:
 9020              	.LBI2549:
 9021              		.loc 17 204 15 is_stmt 1 view .LVU2210
 9022              		.loc 17 204 15 is_stmt 0 view .LVU2211
 9023              	.LBE2549:
 9024              	.LBB2550:
 9025              	.LBI2550:
 9026              		.loc 17 204 15 is_stmt 1 view .LVU2212
 9027              		.loc 17 204 15 is_stmt 0 view .LVU2213
 9028              	.LBE2550:
 9029              	.LBB2551:
 9030              	.LBI2551:
 9031              		.loc 17 204 15 is_stmt 1 view .LVU2214
ARM GAS  C:\Users\matte\AppData\Local\Temp\ccvehO0v.s 			page 247


 9032              		.loc 17 204 15 is_stmt 0 view .LVU2215
 9033              	.LBE2551:
 9034              	.LBB2552:
 9035              	.LBI2552:
 9036              		.loc 17 204 15 is_stmt 1 view .LVU2216
 9037              		.loc 17 204 15 is_stmt 0 view .LVU2217
 9038              	.LBE2552:
 9039              	.LBB2553:
 9040              	.LBI2553:
 9041              		.loc 17 204 15 is_stmt 1 view .LVU2218
 9042              		.loc 17 204 15 is_stmt 0 view .LVU2219
 9043              	.LBE2553:
 9044              	.LBE2547:
 9045              	.LBE2546:
 9046              	.LBB2554:
 9047              	.LBI2554:
  87:../../libs/libDaisy/src/hid/audio.h ****     ~AudioHandle() {}
 9048              		.loc 6 87 5 is_stmt 1 view .LVU2220
  87:../../libs/libDaisy/src/hid/audio.h ****     ~AudioHandle() {}
 9049              		.loc 6 87 5 is_stmt 0 view .LVU2221
 9050              	.LBE2554:
 9051              	.LBB2557:
 9052              	.LBI2557:
 109:../../libs/libDaisy/src/per/adc.h ****     ~AdcHandle() {}
 9053              		.loc 5 109 5 is_stmt 1 view .LVU2222
 109:../../libs/libDaisy/src/per/adc.h ****     ~AdcHandle() {}
 9054              		.loc 5 109 5 is_stmt 0 view .LVU2223
 9055              	.LBE2557:
 9056              	.LBB2558:
 9057              	.LBI2558:
 9058              		.file 19 "../../libs/libDaisy/src/per/dac.h"
   1:../../libs/libDaisy/src/per/dac.h **** #pragma once
   2:../../libs/libDaisy/src/per/dac.h **** #ifndef DSY_DAC_H
   3:../../libs/libDaisy/src/per/dac.h **** #define DSY_DAC_H
   4:../../libs/libDaisy/src/per/dac.h **** #include "stm32h7xx_hal.h"
   5:../../libs/libDaisy/src/per/dac.h **** #include "daisy_core.h"
   6:../../libs/libDaisy/src/per/dac.h **** 
   7:../../libs/libDaisy/src/per/dac.h **** namespace daisy
   8:../../libs/libDaisy/src/per/dac.h **** {
   9:../../libs/libDaisy/src/per/dac.h **** /** @brief DAC handle for Built-in DAC Peripheral 
  10:../../libs/libDaisy/src/per/dac.h ****  *  @ingroup per_analog
  11:../../libs/libDaisy/src/per/dac.h ****  ** 
  12:../../libs/libDaisy/src/per/dac.h ****  ** For now only Normal Mode is supported,
  13:../../libs/libDaisy/src/per/dac.h ****  ** Sample and hold mode provides reduced power consumption, but requires a bit more setup.
  14:../../libs/libDaisy/src/per/dac.h ****  **
  15:../../libs/libDaisy/src/per/dac.h ****  ** For now connecting the DAC through other internal peripherals is also not supported.
  16:../../libs/libDaisy/src/per/dac.h ****  **
  17:../../libs/libDaisy/src/per/dac.h ****  ** Since the DAC channels have dedicated pins we don't need to pass in a pin config like with
  18:../../libs/libDaisy/src/per/dac.h ****  ** other modules. However, it is still important to not try to use the DAC pins for anything else.
  19:../../libs/libDaisy/src/per/dac.h ****  ** DAC Channel 1 is on PA4, and DAC Channel 2 is on PA5
  20:../../libs/libDaisy/src/per/dac.h ****  ***/
  21:../../libs/libDaisy/src/per/dac.h **** class DacHandle
  22:../../libs/libDaisy/src/per/dac.h **** {
  23:../../libs/libDaisy/src/per/dac.h ****   public:
  24:../../libs/libDaisy/src/per/dac.h ****     /** Return Values for the DacHandle class */
  25:../../libs/libDaisy/src/per/dac.h ****     enum class Result
  26:../../libs/libDaisy/src/per/dac.h ****     {
ARM GAS  C:\Users\matte\AppData\Local\Temp\ccvehO0v.s 			page 248


  27:../../libs/libDaisy/src/per/dac.h ****         OK,
  28:../../libs/libDaisy/src/per/dac.h ****         ERR,
  29:../../libs/libDaisy/src/per/dac.h ****     };
  30:../../libs/libDaisy/src/per/dac.h **** 
  31:../../libs/libDaisy/src/per/dac.h ****     /** Selects which channel(s) will be configured for use. */
  32:../../libs/libDaisy/src/per/dac.h ****     enum class Channel
  33:../../libs/libDaisy/src/per/dac.h ****     {
  34:../../libs/libDaisy/src/per/dac.h ****         ONE,
  35:../../libs/libDaisy/src/per/dac.h ****         TWO,
  36:../../libs/libDaisy/src/per/dac.h ****         BOTH,
  37:../../libs/libDaisy/src/per/dac.h ****     };
  38:../../libs/libDaisy/src/per/dac.h **** 
  39:../../libs/libDaisy/src/per/dac.h ****     /** Sets the Mode for the DAC channels.
  40:../../libs/libDaisy/src/per/dac.h ****      **
  41:../../libs/libDaisy/src/per/dac.h ****      ** Polling mode uses the blocking mode to transmit a single value at a time.
  42:../../libs/libDaisy/src/per/dac.h ****      **
  43:../../libs/libDaisy/src/per/dac.h ****      ** DMA mode uses a buffer, and periodically transmits it triggering a 
  44:../../libs/libDaisy/src/per/dac.h ****      ** callback to fill the buffer when it is ready for more samples.
  45:../../libs/libDaisy/src/per/dac.h ****      ***/
  46:../../libs/libDaisy/src/per/dac.h ****     enum class Mode
  47:../../libs/libDaisy/src/per/dac.h ****     {
  48:../../libs/libDaisy/src/per/dac.h ****         POLLING,
  49:../../libs/libDaisy/src/per/dac.h ****         DMA,
  50:../../libs/libDaisy/src/per/dac.h ****     };
  51:../../libs/libDaisy/src/per/dac.h **** 
  52:../../libs/libDaisy/src/per/dac.h ****     /** Sets the number of bits per sample transmitted out of the DAC.
  53:../../libs/libDaisy/src/per/dac.h ****      ** The output range will be: 0V - VDDA
  54:../../libs/libDaisy/src/per/dac.h ****      ** The resolution will be roughly: bitdepth / (VDDA - 0V) 
  55:../../libs/libDaisy/src/per/dac.h ****      ***/
  56:../../libs/libDaisy/src/per/dac.h ****     enum class BitDepth
  57:../../libs/libDaisy/src/per/dac.h ****     {
  58:../../libs/libDaisy/src/per/dac.h ****         BITS_8,
  59:../../libs/libDaisy/src/per/dac.h ****         BITS_12
  60:../../libs/libDaisy/src/per/dac.h ****     };
  61:../../libs/libDaisy/src/per/dac.h **** 
  62:../../libs/libDaisy/src/per/dac.h ****     /** Sets whether the DAC output is buffered for higher drive ability. */
  63:../../libs/libDaisy/src/per/dac.h ****     enum class BufferState
  64:../../libs/libDaisy/src/per/dac.h ****     {
  65:../../libs/libDaisy/src/per/dac.h ****         ENABLED,
  66:../../libs/libDaisy/src/per/dac.h ****         DISABLED,
  67:../../libs/libDaisy/src/per/dac.h ****     };
  68:../../libs/libDaisy/src/per/dac.h **** 
  69:../../libs/libDaisy/src/per/dac.h ****     /** Configuration structure for initializing the DAC structure. */
  70:../../libs/libDaisy/src/per/dac.h ****     struct Config
  71:../../libs/libDaisy/src/per/dac.h ****     {
  72:../../libs/libDaisy/src/per/dac.h ****         /** Target Samplerate in Hz used to configure the internal 
  73:../../libs/libDaisy/src/per/dac.h ****          ** timebase for DMA mode. Does nothing in POLLING mode.
  74:../../libs/libDaisy/src/per/dac.h ****          ** If the value is 0 at Init time this will default to 48000Hz 
  75:../../libs/libDaisy/src/per/dac.h ****          ** otherwise the driver will attempt meet the target.*/
  76:../../libs/libDaisy/src/per/dac.h ****         uint32_t target_samplerate;
  77:../../libs/libDaisy/src/per/dac.h **** 
  78:../../libs/libDaisy/src/per/dac.h ****         Channel     chn;
  79:../../libs/libDaisy/src/per/dac.h ****         Mode        mode;
  80:../../libs/libDaisy/src/per/dac.h ****         BitDepth    bitdepth;
  81:../../libs/libDaisy/src/per/dac.h ****         BufferState buff_state;
  82:../../libs/libDaisy/src/per/dac.h ****     };
  83:../../libs/libDaisy/src/per/dac.h **** 
ARM GAS  C:\Users\matte\AppData\Local\Temp\ccvehO0v.s 			page 249


  84:../../libs/libDaisy/src/per/dac.h ****     DacHandle() : pimpl_(nullptr) {}
 9059              		.loc 19 84 5 is_stmt 1 view .LVU2224
 9060              		.loc 19 84 5 is_stmt 0 view .LVU2225
 9061              	.LBE2558:
 9062              	.LBB2561:
 9063              	.LBI2561:
  40:../../libs/libDaisy/src/hid/usb.h **** 
 9064              		.loc 4 40 5 is_stmt 1 view .LVU2226
  40:../../libs/libDaisy/src/hid/usb.h **** 
 9065              		.loc 4 40 5 is_stmt 0 view .LVU2227
 9066              	.LBE2561:
 9067              	.LBB2562:
 9068              	.LBI2562:
 9069              		.file 20 "../../libs/libDaisy/src/per/gpio.h"
   1:../../libs/libDaisy/src/per/gpio.h **** #pragma once
   2:../../libs/libDaisy/src/per/gpio.h **** #ifndef DSY_GPIO_H
   3:../../libs/libDaisy/src/per/gpio.h **** #define DSY_GPIO_H
   4:../../libs/libDaisy/src/per/gpio.h **** #include "daisy_core.h"
   5:../../libs/libDaisy/src/per/gpio.h **** 
   6:../../libs/libDaisy/src/per/gpio.h **** #ifdef __cplusplus
   7:../../libs/libDaisy/src/per/gpio.h **** 
   8:../../libs/libDaisy/src/per/gpio.h **** namespace daisy
   9:../../libs/libDaisy/src/per/gpio.h **** {
  10:../../libs/libDaisy/src/per/gpio.h **** /** @brief General Purpose I/O control 
  11:../../libs/libDaisy/src/per/gpio.h ****  *  @details peripheral control over a single GPIO
  12:../../libs/libDaisy/src/per/gpio.h ****  *  @ingroup peripheral
  13:../../libs/libDaisy/src/per/gpio.h ****  *   
  14:../../libs/libDaisy/src/per/gpio.h ****  *  Button Input (with internal Pullup resistor)
  15:../../libs/libDaisy/src/per/gpio.h ****  *  @include GPIO_Input.cpp 
  16:../../libs/libDaisy/src/per/gpio.h ****  * 
  17:../../libs/libDaisy/src/per/gpio.h ****  *  Output Example (perfect for blinking an LED)
  18:../../libs/libDaisy/src/per/gpio.h ****  *  @include GPIO_Output.cpp
  19:../../libs/libDaisy/src/per/gpio.h ****  * 
  20:../../libs/libDaisy/src/per/gpio.h **** */
  21:../../libs/libDaisy/src/per/gpio.h **** class GPIO
  22:../../libs/libDaisy/src/per/gpio.h **** {
  23:../../libs/libDaisy/src/per/gpio.h ****   public:
  24:../../libs/libDaisy/src/per/gpio.h ****     /** @brief Mode of operation for the specified GPIO */
  25:../../libs/libDaisy/src/per/gpio.h ****     enum class Mode
  26:../../libs/libDaisy/src/per/gpio.h ****     {
  27:../../libs/libDaisy/src/per/gpio.h ****         INPUT,      /**< Input for reading state of pin */
  28:../../libs/libDaisy/src/per/gpio.h ****         OUTPUT,     /**< Output w/ push-pull configuration */
  29:../../libs/libDaisy/src/per/gpio.h ****         OPEN_DRAIN, /**< Output w/ open-drain configuration */
  30:../../libs/libDaisy/src/per/gpio.h ****         ANALOG,     /**< Analog for connection to ADC or DAC peripheral */
  31:../../libs/libDaisy/src/per/gpio.h ****     };
  32:../../libs/libDaisy/src/per/gpio.h **** 
  33:../../libs/libDaisy/src/per/gpio.h ****     /** @brief Configures whether an internal Pull up or Pull down resistor is used. 
  34:../../libs/libDaisy/src/per/gpio.h ****      *  
  35:../../libs/libDaisy/src/per/gpio.h ****      * Internal Pull up/down resistors are typically 40k ohms, and will be between
  36:../../libs/libDaisy/src/per/gpio.h ****      * 30k and 50k
  37:../../libs/libDaisy/src/per/gpio.h ****      * 
  38:../../libs/libDaisy/src/per/gpio.h ****      * When the Pin is configured in Analog mode, the pull up/down resistors are
  39:../../libs/libDaisy/src/per/gpio.h ****      * disabled by hardware. 
  40:../../libs/libDaisy/src/per/gpio.h ****      */
  41:../../libs/libDaisy/src/per/gpio.h ****     enum class Pull
  42:../../libs/libDaisy/src/per/gpio.h ****     {
  43:../../libs/libDaisy/src/per/gpio.h ****         NOPULL,   /**< No pull up resistor */
ARM GAS  C:\Users\matte\AppData\Local\Temp\ccvehO0v.s 			page 250


  44:../../libs/libDaisy/src/per/gpio.h ****         PULLUP,   /**< Internal pull up enabled */
  45:../../libs/libDaisy/src/per/gpio.h ****         PULLDOWN, /**< Internal pull down enabled*/
  46:../../libs/libDaisy/src/per/gpio.h ****     };
  47:../../libs/libDaisy/src/per/gpio.h **** 
  48:../../libs/libDaisy/src/per/gpio.h ****     /** @brief Output speed controls the drive strength, and slew rate of the pin */
  49:../../libs/libDaisy/src/per/gpio.h ****     enum class Speed
  50:../../libs/libDaisy/src/per/gpio.h ****     {
  51:../../libs/libDaisy/src/per/gpio.h ****         LOW,
  52:../../libs/libDaisy/src/per/gpio.h ****         MEDIUM,
  53:../../libs/libDaisy/src/per/gpio.h ****         HIGH,
  54:../../libs/libDaisy/src/per/gpio.h ****         VERY_HIGH,
  55:../../libs/libDaisy/src/per/gpio.h ****     };
  56:../../libs/libDaisy/src/per/gpio.h **** 
  57:../../libs/libDaisy/src/per/gpio.h ****     /** @brief Configuration for a given GPIO */
  58:../../libs/libDaisy/src/per/gpio.h ****     struct Config
  59:../../libs/libDaisy/src/per/gpio.h ****     {
  60:../../libs/libDaisy/src/per/gpio.h ****         Pin   pin;
  61:../../libs/libDaisy/src/per/gpio.h ****         Mode  mode;
  62:../../libs/libDaisy/src/per/gpio.h ****         Pull  pull;
  63:../../libs/libDaisy/src/per/gpio.h ****         Speed speed;
  64:../../libs/libDaisy/src/per/gpio.h **** 
  65:../../libs/libDaisy/src/per/gpio.h ****         /** Constructor with no arguments will prepare an invalid GPIO set as
  66:../../libs/libDaisy/src/per/gpio.h ****          *  an input, with no pullup. 
  67:../../libs/libDaisy/src/per/gpio.h ****          */
  68:../../libs/libDaisy/src/per/gpio.h ****         Config()
  69:../../libs/libDaisy/src/per/gpio.h ****         : pin(), mode(Mode::INPUT), pull(Pull::NOPULL), speed(Speed::LOW)
  70:../../libs/libDaisy/src/per/gpio.h ****         {
  71:../../libs/libDaisy/src/per/gpio.h ****         }
  72:../../libs/libDaisy/src/per/gpio.h ****     };
  73:../../libs/libDaisy/src/per/gpio.h **** 
  74:../../libs/libDaisy/src/per/gpio.h ****     GPIO() {}
 9070              		.loc 20 74 5 is_stmt 1 view .LVU2228
 9071              	.LBB2563:
 9072              	.LBB2564:
 9073              	.LBI2564:
  68:../../libs/libDaisy/src/per/gpio.h ****         : pin(), mode(Mode::INPUT), pull(Pull::NOPULL), speed(Speed::LOW)
 9074              		.loc 20 68 9 view .LVU2229
 9075              	.LBB2565:
 9076              	.LBB2566:
 9077              	.LBB2567:
 9078              	.LBI2567:
 9079              		.loc 17 204 15 view .LVU2230
 9080              		.loc 17 204 15 is_stmt 0 view .LVU2231
 9081              	.LBE2567:
 9082              	.LBE2566:
 9083              	.LBE2565:
 9084              	.LBE2564:
 9085              	.LBE2563:
 9086              	.LBE2562:
 9087              	.LBB2576:
 9088              	.LBI2576:
 9089              		.loc 20 74 5 is_stmt 1 view .LVU2232
 9090              	.LBB2577:
 9091              	.LBB2578:
 9092              	.LBI2578:
  68:../../libs/libDaisy/src/per/gpio.h ****         : pin(), mode(Mode::INPUT), pull(Pull::NOPULL), speed(Speed::LOW)
 9093              		.loc 20 68 9 view .LVU2233
ARM GAS  C:\Users\matte\AppData\Local\Temp\ccvehO0v.s 			page 251


 9094              	.LBB2579:
 9095              	.LBB2580:
 9096              	.LBB2581:
 9097              	.LBI2581:
 9098              		.loc 17 204 15 view .LVU2234
 9099              		.loc 17 204 15 is_stmt 0 view .LVU2235
 9100              	.LBE2581:
 9101              	.LBE2580:
 9102              	.LBE2579:
 9103              	.LBE2578:
 9104              	.LBE2577:
 9105              	.LBE2576:
 9106              	.LBB2586:
 9107              	.LBI2586:
  96:../../libs/libDaisy/src/sys/system.h ****     ~System() {}
 9108              		.loc 3 96 5 is_stmt 1 view .LVU2236
  96:../../libs/libDaisy/src/sys/system.h ****     ~System() {}
 9109              		.loc 3 96 5 is_stmt 0 view .LVU2237
 9110              	.LBE2586:
 9111              	.LBB2587:
 9112              	.LBI2587:
  20:../../libs/libDaisy/src/dev/codec_ak4556.h ****     ~Ak4556() {}
 9113              		.loc 2 20 5 is_stmt 1 view .LVU2238
 9114              	.LBB2588:
 9115              	.LBI2588:
 9116              		.loc 20 74 5 view .LVU2239
 9117              	.LBB2589:
 9118              	.LBB2590:
 9119              	.LBI2590:
  68:../../libs/libDaisy/src/per/gpio.h ****         : pin(), mode(Mode::INPUT), pull(Pull::NOPULL), speed(Speed::LOW)
 9120              		.loc 20 68 9 view .LVU2240
 9121              	.LBB2591:
 9122              	.LBB2592:
 9123              	.LBB2593:
 9124              	.LBI2593:
 9125              		.loc 17 204 15 view .LVU2241
 9126              		.loc 17 204 15 is_stmt 0 view .LVU2242
 9127              	.LBE2593:
 9128              	.LBE2592:
 9129              	.LBE2591:
 9130              	.LBE2590:
 9131              	.LBE2589:
 9132              	.LBE2588:
 9133              	.LBE2587:
 9134              	.LBB2604:
 9135              	.LBI2604:
 9136              		.file 21 "../../libs/libDaisy/src/per/sai.h"
   1:../../libs/libDaisy/src/per/sai.h **** #pragma once
   2:../../libs/libDaisy/src/per/sai.h **** #ifndef DSY_SAI_H
   3:../../libs/libDaisy/src/per/sai.h **** #define DSY_SAI_H
   4:../../libs/libDaisy/src/per/sai.h **** 
   5:../../libs/libDaisy/src/per/sai.h **** #include "util/hal_map.h"
   6:../../libs/libDaisy/src/per/sai.h **** #include "daisy_core.h"
   7:../../libs/libDaisy/src/per/sai.h **** 
   8:../../libs/libDaisy/src/per/sai.h **** namespace daisy
   9:../../libs/libDaisy/src/per/sai.h **** {
  10:../../libs/libDaisy/src/per/sai.h **** /** 
ARM GAS  C:\Users\matte\AppData\Local\Temp\ccvehO0v.s 			page 252


  11:../../libs/libDaisy/src/per/sai.h ****  * Support for I2S Audio Protocol with different bit-depth, samplerate options
  12:../../libs/libDaisy/src/per/sai.h ****  * Allows for master or slave, as well as freedom of selecting direction, 
  13:../../libs/libDaisy/src/per/sai.h ****  * and other behavior for each peripheral, and block.
  14:../../libs/libDaisy/src/per/sai.h ****  * 
  15:../../libs/libDaisy/src/per/sai.h ****  * DMA Transfer commands must use buffers located within non-cached memory or use cache maintenance
  16:../../libs/libDaisy/src/per/sai.h ****  * To declare an unitialized global element in the DMA memory section:
  17:../../libs/libDaisy/src/per/sai.h ****  *    int32_t DSY_DMA_BUFFER_SECTOR my_buffer[96];
  18:../../libs/libDaisy/src/per/sai.h ****  *
  19:../../libs/libDaisy/src/per/sai.h ****  * Callback functions will be called once per half of the buffer. In the above example, 
  20:../../libs/libDaisy/src/per/sai.h ****  * the callback function would be called once for every 48 samples.
  21:../../libs/libDaisy/src/per/sai.h ****  * 
  22:../../libs/libDaisy/src/per/sai.h ****  * Use SAI Handle like this:
  23:../../libs/libDaisy/src/per/sai.h ****  * 
  24:../../libs/libDaisy/src/per/sai.h ****  *  SaiHandle::Config sai_config;
  25:../../libs/libDaisy/src/per/sai.h ****  *  sai_config.periph          = SaiHandle::Config::Peripheral::SAI_1;
  26:../../libs/libDaisy/src/per/sai.h ****  *  sai_config.sr              = SaiHandle::Config::SampleRate::SAI_48KHZ;
  27:../../libs/libDaisy/src/per/sai.h ****  *  sai_config.bit_depth       = SaiHandle::Config::BitDepth::SAI_24BIT;
  28:../../libs/libDaisy/src/per/sai.h ****  *  sai_config.a_sync          = SaiHandle::Config::Sync::MASTER;
  29:../../libs/libDaisy/src/per/sai.h ****  *  sai_config.b_sync          = SaiHandle::Config::Sync::SLAVE;
  30:../../libs/libDaisy/src/per/sai.h ****  *  sai_config.a_dir           = SaiHandle::Config::Direction::RECEIVE;
  31:../../libs/libDaisy/src/per/sai.h ****  *  sai_config.b_dir           = SaiHandle::Config::Direction::TRANSMIT;
  32:../../libs/libDaisy/src/per/sai.h ****  *  sai_config.pin_config.fs   = {DSY_GPIOE, 4};
  33:../../libs/libDaisy/src/per/sai.h ****  *  sai_config.pin_config.mclk = {DSY_GPIOE, 2};
  34:../../libs/libDaisy/src/per/sai.h ****  *  sai_config.pin_config.sck  = {DSY_GPIOE, 5};
  35:../../libs/libDaisy/src/per/sai.h ****  *  sai_config.pin_config.sa   = {DSY_GPIOE, 6};
  36:../../libs/libDaisy/src/per/sai.h ****  *  sai_config.pin_config.sb   = {DSY_GPIOE, 3};
  37:../../libs/libDaisy/src/per/sai.h ****  *  // Then Initialize
  38:../../libs/libDaisy/src/per/sai.h ****  *  SaiHandle sai;
  39:../../libs/libDaisy/src/per/sai.h ****  *  sai.Init(sai_config);
  40:../../libs/libDaisy/src/per/sai.h ****  *  // Now you can use it:
  41:../../libs/libDaisy/src/per/sai.h ****  *  sai.StartDma(. . .);
  42:../../libs/libDaisy/src/per/sai.h ****  */
  43:../../libs/libDaisy/src/per/sai.h **** class SaiHandle
  44:../../libs/libDaisy/src/per/sai.h **** {
  45:../../libs/libDaisy/src/per/sai.h ****   public:
  46:../../libs/libDaisy/src/per/sai.h ****     /** Contains settings for initialising an SAI Interface */
  47:../../libs/libDaisy/src/per/sai.h ****     struct Config
  48:../../libs/libDaisy/src/per/sai.h ****     {
  49:../../libs/libDaisy/src/per/sai.h ****         /** Specifies the internal peripheral to use (mapped to different hardware pins) */
  50:../../libs/libDaisy/src/per/sai.h ****         enum class Peripheral
  51:../../libs/libDaisy/src/per/sai.h ****         {
  52:../../libs/libDaisy/src/per/sai.h ****             SAI_1,
  53:../../libs/libDaisy/src/per/sai.h ****             SAI_2,
  54:../../libs/libDaisy/src/per/sai.h ****         };
  55:../../libs/libDaisy/src/per/sai.h **** 
  56:../../libs/libDaisy/src/per/sai.h ****         /** Rate at which samples will be streaming to/from the device. */
  57:../../libs/libDaisy/src/per/sai.h ****         enum class SampleRate
  58:../../libs/libDaisy/src/per/sai.h ****         {
  59:../../libs/libDaisy/src/per/sai.h ****             SAI_8KHZ,
  60:../../libs/libDaisy/src/per/sai.h ****             SAI_16KHZ,
  61:../../libs/libDaisy/src/per/sai.h ****             SAI_32KHZ,
  62:../../libs/libDaisy/src/per/sai.h ****             SAI_48KHZ,
  63:../../libs/libDaisy/src/per/sai.h ****             SAI_96KHZ,
  64:../../libs/libDaisy/src/per/sai.h ****         };
  65:../../libs/libDaisy/src/per/sai.h **** 
  66:../../libs/libDaisy/src/per/sai.h ****         /** Bit Depth that the hardware expects to be transferred to/from the device. */
  67:../../libs/libDaisy/src/per/sai.h ****         enum class BitDepth
ARM GAS  C:\Users\matte\AppData\Local\Temp\ccvehO0v.s 			page 253


  68:../../libs/libDaisy/src/per/sai.h ****         {
  69:../../libs/libDaisy/src/per/sai.h ****             SAI_16BIT,
  70:../../libs/libDaisy/src/per/sai.h ****             SAI_24BIT,
  71:../../libs/libDaisy/src/per/sai.h ****             SAI_32BIT,
  72:../../libs/libDaisy/src/per/sai.h ****         };
  73:../../libs/libDaisy/src/per/sai.h **** 
  74:../../libs/libDaisy/src/per/sai.h ****         /** Specifies whether a particular block is the master or the slave 
  75:../../libs/libDaisy/src/per/sai.h ****          ** If both are set to slave, no MCLK signal will be used, and it is
  76:../../libs/libDaisy/src/per/sai.h ****          ** expected that the codec will have its own xtal.
  77:../../libs/libDaisy/src/per/sai.h ****          */
  78:../../libs/libDaisy/src/per/sai.h ****         enum class Sync
  79:../../libs/libDaisy/src/per/sai.h ****         {
  80:../../libs/libDaisy/src/per/sai.h ****             MASTER,
  81:../../libs/libDaisy/src/per/sai.h ****             SLAVE,
  82:../../libs/libDaisy/src/per/sai.h ****         };
  83:../../libs/libDaisy/src/per/sai.h **** 
  84:../../libs/libDaisy/src/per/sai.h ****         /** Specifies the direction for each peripheral block. */
  85:../../libs/libDaisy/src/per/sai.h ****         enum class Direction
  86:../../libs/libDaisy/src/per/sai.h ****         {
  87:../../libs/libDaisy/src/per/sai.h ****             TRANSMIT,
  88:../../libs/libDaisy/src/per/sai.h ****             RECEIVE,
  89:../../libs/libDaisy/src/per/sai.h ****         };
  90:../../libs/libDaisy/src/per/sai.h **** 
  91:../../libs/libDaisy/src/per/sai.h ****         Peripheral periph;
  92:../../libs/libDaisy/src/per/sai.h ****         struct
  93:../../libs/libDaisy/src/per/sai.h ****         {
  94:../../libs/libDaisy/src/per/sai.h ****             Pin mclk, fs, sck, sa, sb;
  95:../../libs/libDaisy/src/per/sai.h ****         } pin_config;
  96:../../libs/libDaisy/src/per/sai.h ****         SampleRate sr;
  97:../../libs/libDaisy/src/per/sai.h ****         BitDepth   bit_depth;
  98:../../libs/libDaisy/src/per/sai.h ****         Sync       a_sync, b_sync;
  99:../../libs/libDaisy/src/per/sai.h ****         Direction  a_dir, b_dir;
 100:../../libs/libDaisy/src/per/sai.h ****     };
 101:../../libs/libDaisy/src/per/sai.h **** 
 102:../../libs/libDaisy/src/per/sai.h ****     /** Return values for SAI functions */
 103:../../libs/libDaisy/src/per/sai.h ****     enum class Result
 104:../../libs/libDaisy/src/per/sai.h ****     {
 105:../../libs/libDaisy/src/per/sai.h ****         OK,
 106:../../libs/libDaisy/src/per/sai.h ****         ERR,
 107:../../libs/libDaisy/src/per/sai.h ****     };
 108:../../libs/libDaisy/src/per/sai.h **** 
 109:../../libs/libDaisy/src/per/sai.h ****     SaiHandle() : pimpl_(nullptr) {}
 9137              		.loc 21 109 5 is_stmt 1 view .LVU2243
 9138              	.LBE2604:
 9139              	.LBB2607:
 9140              	.LBB2544:
 9141              	.LBB2545:
 9142              		.loc 18 168 34 is_stmt 0 view .LVU2244
 9143 0038 3A48     		ldr	r0, .L456+20
 9144              	.LBE2545:
 9145              	.LBE2544:
 9146              	.LBE2607:
  21:../../libs/libDaisy/src/daisy_seed.h ****     ~DaisySeed() {}
 9147              		.loc 1 21 17 view .LVU2245
 9148 003a 4FF60B73 		movw	r3, #65291
 9149 003e 6FF0F411 		mvn	r1, #15991028
 9150              	.LBE2542:
ARM GAS  C:\Users\matte\AppData\Local\Temp\ccvehO0v.s 			page 254


 9151              	.LBE2541:
  27:main.cpp      **** AdcChannelConfig adcConfig[ADC_CH];
 9152              		.loc 13 27 11 view .LVU2246
 9153 0042 364A     		ldr	r2, .L456+12
 9154              	.LBB2618:
 9155              	.LBB2616:
 9156              	.LBB2608:
 9157              	.LBB2555:
 9158              	.LBB2556:
  87:../../libs/libDaisy/src/hid/audio.h ****     ~AudioHandle() {}
 9159              		.loc 6 87 35 view .LVU2247
 9160 0044 4461     		str	r4, [r0, #20]
 9161              	.LBE2556:
 9162              	.LBE2555:
 9163              	.LBE2608:
 9164              	.LBB2609:
 9165              	.LBB2559:
 9166              	.LBB2560:
 9167              		.loc 19 84 33 view .LVU2248
 9168 0046 0462     		str	r4, [r0, #32]
 9169              	.LBE2560:
 9170              	.LBE2559:
 9171              	.LBE2609:
  21:../../libs/libDaisy/src/daisy_seed.h ****     ~DaisySeed() {}
 9172              		.loc 1 21 17 view .LVU2249
 9173 0048 8365     		str	r3, [r0, #88]
 9174              	.LBB2610:
 9175              	.LBB2602:
 9176              	.LBB2600:
 9177              	.LBB2598:
 9178              	.LBB2596:
 9179              	.LBB2594:
  69:../../libs/libDaisy/src/per/gpio.h ****         {
 9180              		.loc 20 69 73 view .LVU2250
 9181 004a 4466     		str	r4, [r0, #100]
 9182              	.LBE2594:
 9183              	.LBE2596:
 9184              	.LBE2598:
 9185              	.LBE2600:
 9186              	.LBE2602:
 9187              	.LBE2610:
 9188              	.LBB2611:
 9189              	.LBB2605:
 9190              	.LBB2606:
 9191              		.loc 21 109 33 view .LVU2251
 9192 004c 0467     		str	r4, [r0, #112]
 9193              	.LVL609:
 9194              		.loc 21 109 33 view .LVU2252
 9195              	.LBE2606:
 9196              	.LBE2605:
 9197              	.LBE2611:
  21:../../libs/libDaisy/src/daisy_seed.h ****     ~DaisySeed() {}
 9198              		.loc 1 21 17 view .LVU2253
 9199 004e C0E90041 		strd	r4, r1, [r0]
 9200 0052 C0E90211 		strd	r1, r1, [r0, #8]
 9201              	.LBB2612:
 9202              	.LBB2574:
ARM GAS  C:\Users\matte\AppData\Local\Temp\ccvehO0v.s 			page 255


 9203              	.LBB2572:
 9204              	.LBB2570:
 9205              	.LBB2568:
  69:../../libs/libDaisy/src/per/gpio.h ****         {
 9206              		.loc 20 69 73 view .LVU2254
 9207 0056 C0E90A34 		strd	r3, r4, [r0, #40]
 9208              	.LBE2568:
 9209              	.LBE2570:
 9210              	.LBE2572:
 9211              	.LBE2574:
 9212              	.LBE2612:
 9213              	.LBE2616:
 9214              	.LBE2618:
  27:main.cpp      **** AdcChannelConfig adcConfig[ADC_CH];
 9215              		.loc 13 27 11 view .LVU2255
 9216 005a 3349     		ldr	r1, .L456+24
 9217              	.LBB2619:
 9218              	.LBB2617:
 9219              	.LBB2613:
 9220              	.LBB2575:
 9221              	.LBB2573:
 9222              	.LBB2571:
 9223              	.LBB2569:
  69:../../libs/libDaisy/src/per/gpio.h ****         {
 9224              		.loc 20 69 73 view .LVU2256
 9225 005c C0E90C44 		strd	r4, r4, [r0, #48]
 9226              	.LBE2569:
 9227              	.LBE2571:
 9228              	.LBE2573:
 9229              	.LBE2575:
 9230              	.LBE2613:
 9231              	.LBB2614:
 9232              	.LBB2585:
 9233              	.LBB2584:
 9234              	.LBB2583:
 9235              	.LBB2582:
 9236 0060 C0E90F34 		strd	r3, r4, [r0, #60]
 9237 0064 C0E91144 		strd	r4, r4, [r0, #68]
 9238              	.LBE2582:
 9239              	.LBE2583:
 9240              	.LBE2584:
 9241              	.LBE2585:
 9242              	.LBE2614:
 9243              	.LBB2615:
 9244              	.LBB2603:
 9245              	.LBB2601:
 9246              	.LBB2599:
 9247              	.LBB2597:
 9248              	.LBB2595:
 9249 0068 C0E91744 		strd	r4, r4, [r0, #92]
 9250              	.LBE2595:
 9251              	.LBE2597:
 9252              	.LBE2599:
 9253              	.LBE2601:
 9254              	.LBE2603:
 9255              	.LBE2615:
 9256              	.LBE2617:
ARM GAS  C:\Users\matte\AppData\Local\Temp\ccvehO0v.s 			page 256


 9257              	.LBE2619:
  27:main.cpp      **** AdcChannelConfig adcConfig[ADC_CH];
 9258              		.loc 13 27 11 view .LVU2257
 9259 006c FFF7FEFF 		bl	__aeabi_atexit
 9260              	.LVL610:
  28:main.cpp      **** 
 9261              		.loc 13 28 34 is_stmt 1 view .LVU2258
 9262 0070 2E4A     		ldr	r2, .L456+28
 9263 0072 02F1A805 		add	r5, r2, #168
 9264              	.L452:
 9265              	.LVL611:
 9266              	.LBB2620:
 9267              	.LBI2620:
  31:../../libs/libDaisy/src/per/adc.h **** {
 9268              		.loc 5 31 8 view .LVU2259
 9269              	.LBB2621:
 9270              	.LBB2622:
 9271              	.LBI2622:
 9272              		.loc 20 74 5 view .LVU2260
 9273              	.LBB2623:
 9274              	.LBI2623:
  68:../../libs/libDaisy/src/per/gpio.h ****         : pin(), mode(Mode::INPUT), pull(Pull::NOPULL), speed(Speed::LOW)
 9275              		.loc 20 68 9 view .LVU2261
 9276              	.LBB2624:
 9277              	.LBB2625:
 9278              	.LBI2625:
 9279              		.loc 17 204 15 view .LVU2262
 9280              	.LBE2625:
  69:../../libs/libDaisy/src/per/gpio.h ****         {
 9281              		.loc 20 69 73 is_stmt 0 view .LVU2263
 9282 0076 0021     		movs	r1, #0
 9283              	.LBB2628:
 9284              	.LBB2626:
 9285              		.loc 17 204 43 view .LVU2264
 9286 0078 0B24     		movs	r4, #11
 9287 007a FF20     		movs	r0, #255
 9288 007c A2F13C03 		sub	r3, r2, #60
 9289 0080 02F8504C 		strb	r4, [r2, #-80]
 9290              	.LBE2626:
 9291              	.LBE2628:
  69:../../libs/libDaisy/src/per/gpio.h ****         {
 9292              		.loc 20 69 73 view .LVU2265
 9293 0084 42F84C1C 		str	r1, [r2, #-76]
 9294              	.LBB2629:
 9295              	.LBB2627:
 9296              		.loc 17 204 43 view .LVU2266
 9297 0088 02F84F0C 		strb	r0, [r2, #-79]
 9298              	.LVL612:
 9299              		.loc 17 204 43 view .LVU2267
 9300              	.LBE2627:
 9301              	.LBE2629:
  69:../../libs/libDaisy/src/per/gpio.h ****         {
 9302              		.loc 20 69 73 view .LVU2268
 9303 008c 42E91211 		strd	r1, r1, [r2, #-72]
 9304              	.LVL613:
  69:../../libs/libDaisy/src/per/gpio.h ****         {
 9305              		.loc 20 69 73 view .LVU2269
ARM GAS  C:\Users\matte\AppData\Local\Temp\ccvehO0v.s 			page 257


 9306              	.LBE2624:
 9307              	.LBE2623:
 9308              	.LBE2622:
  31:../../libs/libDaisy/src/per/adc.h **** {
 9309              		.loc 5 31 8 is_stmt 1 view .LVU2270
 9310              	.L451:
 9311              	.LBB2630:
 9312              	.LBI2630:
 9313              		.loc 20 74 5 view .LVU2271
 9314              	.LBB2631:
 9315              	.LBI2631:
  68:../../libs/libDaisy/src/per/gpio.h ****         : pin(), mode(Mode::INPUT), pull(Pull::NOPULL), speed(Speed::LOW)
 9316              		.loc 20 68 9 view .LVU2272
 9317              	.LBB2632:
 9318              	.LBB2633:
 9319              	.LBI2633:
 9320              		.loc 17 204 15 view .LVU2273
 9321              	.LBE2633:
 9322              	.LBE2632:
 9323              	.LBE2631:
 9324              	.LBE2630:
  31:../../libs/libDaisy/src/per/adc.h **** {
 9325              		.loc 5 31 8 is_stmt 0 view .LVU2274
 9326 0090 1433     		adds	r3, r3, #20
 9327              	.LVL614:
 9328              	.LBB2642:
 9329              	.LBB2640:
 9330              	.LBB2638:
  69:../../libs/libDaisy/src/per/gpio.h ****         {
 9331              		.loc 20 69 73 view .LVU2275
 9332 0092 0024     		movs	r4, #0
 9333              	.LBB2636:
 9334              	.LBB2634:
 9335              		.loc 17 204 43 view .LVU2276
 9336 0094 0B20     		movs	r0, #11
 9337 0096 FF21     		movs	r1, #255
 9338              	.LBE2634:
 9339              	.LBE2636:
 9340              	.LBE2638:
 9341              	.LBE2640:
 9342              	.LBE2642:
  31:../../libs/libDaisy/src/per/adc.h **** {
 9343              		.loc 5 31 8 view .LVU2277
 9344 0098 9A42     		cmp	r2, r3
 9345              	.LBB2643:
 9346              	.LBB2641:
 9347              	.LBB2639:
  69:../../libs/libDaisy/src/per/gpio.h ****         {
 9348              		.loc 20 69 73 view .LVU2278
 9349 009a 43F8104C 		str	r4, [r3, #-16]
 9350              	.LBB2637:
 9351              	.LBB2635:
 9352              		.loc 17 204 43 view .LVU2279
 9353 009e 03F8140C 		strb	r0, [r3, #-20]
 9354 00a2 03F8131C 		strb	r1, [r3, #-19]
 9355              	.LVL615:
 9356              		.loc 17 204 43 view .LVU2280
ARM GAS  C:\Users\matte\AppData\Local\Temp\ccvehO0v.s 			page 258


 9357              	.LBE2635:
 9358              	.LBE2637:
  69:../../libs/libDaisy/src/per/gpio.h ****         {
 9359              		.loc 20 69 73 view .LVU2281
 9360 00a6 43E90344 		strd	r4, r4, [r3, #-12]
 9361              	.LVL616:
  69:../../libs/libDaisy/src/per/gpio.h ****         {
 9362              		.loc 20 69 73 view .LVU2282
 9363              	.LBE2639:
 9364              	.LBE2641:
 9365              	.LBE2643:
  31:../../libs/libDaisy/src/per/adc.h **** {
 9366              		.loc 5 31 8 is_stmt 1 view .LVU2283
  31:../../libs/libDaisy/src/per/adc.h **** {
 9367              		.loc 5 31 8 view .LVU2284
 9368 00aa F1D1     		bne	.L451
 9369              	.LVL617:
  31:../../libs/libDaisy/src/per/adc.h **** {
 9370              		.loc 5 31 8 is_stmt 0 view .LVU2285
 9371              	.LBE2621:
 9372              	.LBE2620:
  28:main.cpp      **** 
 9373              		.loc 13 28 34 is_stmt 1 view .LVU2286
  28:main.cpp      **** 
 9374              		.loc 13 28 34 view .LVU2287
 9375 00ac 5432     		adds	r2, r2, #84
 9376 00ae AA42     		cmp	r2, r5
 9377 00b0 E1D1     		bne	.L452
  30:main.cpp      **** 
 9378              		.loc 13 30 18 is_stmt 0 view .LVU2288
 9379 00b2 1F48     		ldr	r0, .L456+32
 9380 00b4 FFF7FEFF 		bl	_ZN16PlantConditionerC1Ev
 9381              	.LVL618:
 9382 00b8 184A     		ldr	r2, .L456+12
 9383 00ba 1E49     		ldr	r1, .L456+36
 9384 00bc 1C48     		ldr	r0, .L456+32
 9385 00be FFF7FEFF 		bl	__aeabi_atexit
 9386              	.LVL619:
 9387              	.LBB2644:
 9388              	.LBI2644:
  23:../../libs/DaisySP/Source/Synthesis/oscillator.h ****     ~Oscillator() {}
 9389              		.loc 8 23 5 is_stmt 1 view .LVU2289
  23:../../libs/DaisySP/Source/Synthesis/oscillator.h ****     ~Oscillator() {}
 9390              		.loc 8 23 5 is_stmt 0 view .LVU2290
 9391              	.LBE2644:
  32:main.cpp      **** float f = 0.0f;     
 9392              		.loc 13 32 19 view .LVU2291
 9393 00c2 164A     		ldr	r2, .L456+12
 9394 00c4 1C49     		ldr	r1, .L456+40
 9395 00c6 1D48     		ldr	r0, .L456+44
 9396 00c8 FFF7FEFF 		bl	__aeabi_atexit
 9397              	.LVL620:
 9398              	.LBB2645:
 9399              	.LBI2645:
  44:../../libs/DaisySP/Source/Control/adsr.h ****     ~Adsr() {}
 9400              		.loc 7 44 5 is_stmt 1 view .LVU2292
 9401              	.LBB2646:
ARM GAS  C:\Users\matte\AppData\Local\Temp\ccvehO0v.s 			page 259


 9402              	.LBB2647:
  44:../../libs/DaisySP/Source/Control/adsr.h ****     ~Adsr() {}
 9403              		.loc 7 44 12 is_stmt 0 view .LVU2293
 9404 00cc 1C48     		ldr	r0, .L456+48
 9405 00ce 0023     		movs	r3, #0
 9406 00d0 1C49     		ldr	r1, .L456+52
 9407              	.LBE2647:
 9408              	.LBE2646:
 9409              	.LBE2645:
  40:main.cpp      **** 
 9410              		.loc 13 40 13 view .LVU2294
 9411 00d2 124A     		ldr	r2, .L456+12
 9412              	.LBB2652:
 9413              	.LBB2650:
  44:../../libs/DaisySP/Source/Control/adsr.h ****     ~Adsr() {}
 9414              		.loc 7 44 12 view .LVU2295
 9415 00d4 8485     		strh	r4, [r0, #44]	@ movhi
 9416              	.LVL621:
 9417              	.LBB2648:
  44:../../libs/DaisySP/Source/Control/adsr.h ****     ~Adsr() {}
 9418              		.loc 7 44 12 view .LVU2296
 9419 00d6 0360     		str	r3, [r0]	@ float
 9420 00d8 4360     		str	r3, [r0, #4]	@ float
 9421 00da 8160     		str	r1, [r0, #8]	@ float
 9422 00dc C360     		str	r3, [r0, #12]	@ float
 9423 00de 0161     		str	r1, [r0, #16]	@ float
 9424 00e0 4161     		str	r1, [r0, #20]	@ float
 9425 00e2 8161     		str	r1, [r0, #24]	@ float
 9426 00e4 C361     		str	r3, [r0, #28]	@ float
 9427              	.LBE2648:
 9428              	.LBE2650:
 9429              	.LBE2652:
  40:main.cpp      **** 
 9430              		.loc 13 40 13 view .LVU2297
 9431 00e6 1849     		ldr	r1, .L456+56
 9432              	.LBB2653:
 9433              	.LBB2651:
 9434              	.LBB2649:
  44:../../libs/DaisySP/Source/Control/adsr.h ****     ~Adsr() {}
 9435              		.loc 7 44 12 view .LVU2298
 9436 00e8 0362     		str	r3, [r0, #32]	@ float
 9437 00ea 4362     		str	r3, [r0, #36]	@ float
 9438              	.LBE2649:
 9439              	.LBE2651:
 9440              	.LBE2653:
  40:main.cpp      **** 
 9441              		.loc 13 40 13 view .LVU2299
 9442 00ec FFF7FEFF 		bl	__aeabi_atexit
 9443              	.LVL622:
 9444              	.LBB2654:
 9445              	.LBI2654:
  17:../../libs/libDaisy/src/hid/disp/oled_display.h ****     virtual ~OledDisplay() {}
 9446              		.loc 9 17 5 is_stmt 1 view .LVU2300
 9447              	.LBB2655:
 9448              	.LBB2656:
 9449              	.LBB2657:
 9450              	.LBI2657:
ARM GAS  C:\Users\matte\AppData\Local\Temp\ccvehO0v.s 			page 260


 218:../../libs/libDaisy/src/hid/disp/display.h ****     virtual ~OneBitGraphicsDisplayImpl() {}
 9451              		.loc 10 218 5 view .LVU2301
 9452              	.LBB2658:
 9453              	.LBI2658:
  22:../../libs/libDaisy/src/hid/disp/display.h ****     virtual ~OneBitGraphicsDisplay() {}
 9454              		.loc 10 22 5 view .LVU2302
  22:../../libs/libDaisy/src/hid/disp/display.h ****     virtual ~OneBitGraphicsDisplay() {}
 9455              		.loc 10 22 5 is_stmt 0 view .LVU2303
 9456              	.LBE2658:
 9457              	.LBE2657:
  17:../../libs/libDaisy/src/hid/disp/oled_display.h ****     virtual ~OledDisplay() {}
 9458              		.loc 9 17 19 view .LVU2304
 9459 00f0 164D     		ldr	r5, .L456+60
 9460 00f2 174B     		ldr	r3, .L456+64
 9461              	.LBE2656:
 9462              	.LBE2655:
 9463              	.LBE2654:
  50:main.cpp      **** 
 9464              		.loc 13 50 15 view .LVU2305
 9465 00f4 094A     		ldr	r2, .L456+12
 9466 00f6 2846     		mov	r0, r5
 9467 00f8 1649     		ldr	r1, .L456+68
 9468              	.LBB2669:
 9469              	.LBB2668:
 9470              	.LBB2667:
 9471              	.LBB2659:
 9472              	.LBB2660:
 9473              	.LBB2661:
 9474              	.LBB2662:
 9475              	.LBB2663:
 9476              		.loc 16 83 33 view .LVU2306
 9477 00fa AC60     		str	r4, [r5, #8]
 9478              	.LBE2663:
 9479              	.LBE2662:
 9480              	.LBE2661:
 9481              	.LBE2660:
 9482              	.LBE2659:
  17:../../libs/libDaisy/src/hid/disp/oled_display.h ****     virtual ~OledDisplay() {}
 9483              		.loc 9 17 19 view .LVU2307
 9484 00fc 2B60     		str	r3, [r5]
 9485              	.LVL623:
 9486              	.LBB2666:
 9487              	.LBI2659:
 233:../../libs/libDaisy/src/sys/../../../../libs/libDaisy/src/dev/oled_ssd130x.h **** {
 9488              		.loc 11 233 7 is_stmt 1 view .LVU2308
 9489              	.LBB2665:
 9490              	.LBI2660:
  15:../../libs/libDaisy/src/sys/../../../../libs/libDaisy/src/dev/oled_ssd130x.h **** {
 9491              		.loc 11 15 7 view .LVU2309
 9492              	.LBB2664:
 9493              	.LBI2661:
 9494              		.loc 16 83 5 view .LVU2310
 9495              		.loc 16 83 5 is_stmt 0 view .LVU2311
 9496              	.LBE2664:
 9497              	.LBE2665:
 9498              	.LBE2666:
 9499              	.LBE2667:
ARM GAS  C:\Users\matte\AppData\Local\Temp\ccvehO0v.s 			page 261


 9500              	.LBE2668:
 9501              	.LBE2669:
  50:main.cpp      **** 
 9502              		.loc 13 50 15 view .LVU2312
 9503 00fe FFF7FEFF 		bl	__aeabi_atexit
 9504              	.LVL624:
  53:main.cpp      **** 
 9505              		.loc 13 53 32 view .LVU2313
 9506 0102 2946     		mov	r1, r5
 9507 0104 0122     		movs	r2, #1
 9508 0106 1448     		ldr	r0, .L456+72
 9509              	.LBE2670:
 9510              	.LBE2672:
 9511              		.loc 13 212 1 view .LVU2314
 9512 0108 BDE83840 		pop	{r3, r4, r5, lr}
 9513              		.cfi_restore 14
 9514              		.cfi_restore 5
 9515              		.cfi_restore 4
 9516              		.cfi_restore 3
 9517              		.cfi_def_cfa_offset 0
 9518              	.LBB2673:
 9519              	.LBB2671:
  53:main.cpp      **** 
 9520              		.loc 13 53 32 view .LVU2315
 9521 010c FFF7FEBF 		b	_ZN14DisplayHandlerC1EPN5daisy11OledDisplayINS0_13SSD130xDriverILj128ELj64ENS0_19SSD130xI2CTrans
 9522              	.LVL625:
 9523              	.L457:
 9524              		.align	2
 9525              	.L456:
 9526 0110 00000000 		.word	.LANCHOR11
 9527 0114 00000000 		.word	.LANCHOR10
 9528 0118 01080109 		.word	151062529
 9529 011c 00000000 		.word	__dso_handle
 9530 0120 00000000 		.word	_ZN5daisy6Mpr121INS_18Mpr121I2CTransportEED1Ev
 9531 0124 00000000 		.word	.LANCHOR4
 9532 0128 00000000 		.word	_ZN5daisy9DaisySeedD1Ev
 9533 012c 50000000 		.word	.LANCHOR8+80
 9534 0130 00000000 		.word	.LANCHOR6
 9535 0134 00000000 		.word	_ZN16PlantConditionerD1Ev
 9536 0138 00000000 		.word	_ZN7daisysp10OscillatorD1Ev
 9537 013c 00000000 		.word	.LANCHOR2
 9538 0140 00000000 		.word	.LANCHOR1
 9539 0144 000080BF 		.word	-1082130432
 9540 0148 00000000 		.word	_ZN7daisysp4AdsrD1Ev
 9541 014c 00000000 		.word	.LANCHOR5
 9542 0150 08000000 		.word	_ZTVN5daisy11OledDisplayINS_13SSD130xDriverILj128ELj64ENS_19SSD130xI2CTransportEEEEE+8
 9543 0154 00000000 		.word	_ZN5daisy11OledDisplayINS_13SSD130xDriverILj128ELj64ENS_19SSD130xI2CTransportEEEED1Ev
 9544 0158 00000000 		.word	.LANCHOR3
 9545              	.LBE2671:
 9546              	.LBE2673:
 9547              		.cfi_endproc
 9548              	.LFE5492:
 9550              		.section	.init_array,"aw",%init_array
 9551              		.align	2
 9552 0000 00000000 		.word	_GLOBAL__sub_I_mpr121ObjConf(target1)
 9553              		.weak	_ZTVN5daisy11OledDisplayINS_13SSD130xDriverILj128ELj64ENS_19SSD130xI2CTransportEEEEE
 9554              		.section	.rodata._ZTVN5daisy11OledDisplayINS_13SSD130xDriverILj128ELj64ENS_19SSD130xI2CTransportEE
ARM GAS  C:\Users\matte\AppData\Local\Temp\ccvehO0v.s 			page 262


 9555              		.align	2
 9558              	_ZTVN5daisy11OledDisplayINS_13SSD130xDriverILj128ELj64ENS_19SSD130xI2CTransportEEEEE:
 9559 0000 00000000 		.word	0
 9560 0004 00000000 		.word	0
 9561 0008 00000000 		.word	_ZN5daisy11OledDisplayINS_13SSD130xDriverILj128ELj64ENS_19SSD130xI2CTransportEEEED1Ev
 9562 000c 00000000 		.word	_ZN5daisy11OledDisplayINS_13SSD130xDriverILj128ELj64ENS_19SSD130xI2CTransportEEEED0Ev
 9563 0010 00000000 		.word	_ZNK5daisy11OledDisplayINS_13SSD130xDriverILj128ELj64ENS_19SSD130xI2CTransportEEEE6HeightEv
 9564 0014 00000000 		.word	_ZNK5daisy11OledDisplayINS_13SSD130xDriverILj128ELj64ENS_19SSD130xI2CTransportEEEE5WidthEv
 9565 0018 00000000 		.word	_ZN5daisy11OledDisplayINS_13SSD130xDriverILj128ELj64ENS_19SSD130xI2CTransportEEEE4FillEb
 9566 001c 00000000 		.word	_ZN5daisy11OledDisplayINS_13SSD130xDriverILj128ELj64ENS_19SSD130xI2CTransportEEEE9DrawPixelE
 9567 0020 00000000 		.word	_ZN5daisy25OneBitGraphicsDisplayImplINS_11OledDisplayINS_13SSD130xDriverILj128ELj64ENS_19SSD
 9568 0024 00000000 		.word	_ZN5daisy25OneBitGraphicsDisplayImplINS_11OledDisplayINS_13SSD130xDriverILj128ELj64ENS_19SSD
 9569 0028 00000000 		.word	_ZN5daisy25OneBitGraphicsDisplayImplINS_11OledDisplayINS_13SSD130xDriverILj128ELj64ENS_19SSD
 9570 002c 00000000 		.word	_ZN5daisy25OneBitGraphicsDisplayImplINS_11OledDisplayINS_13SSD130xDriverILj128ELj64ENS_19SSD
 9571 0030 00000000 		.word	_ZN5daisy25OneBitGraphicsDisplayImplINS_11OledDisplayINS_13SSD130xDriverILj128ELj64ENS_19SSD
 9572 0034 00000000 		.word	_ZN5daisy25OneBitGraphicsDisplayImplINS_11OledDisplayINS_13SSD130xDriverILj128ELj64ENS_19SSD
 9573 0038 00000000 		.word	_ZN5daisy11OledDisplayINS_13SSD130xDriverILj128ELj64ENS_19SSD130xI2CTransportEEEE6UpdateEv
 9574              		.global	disp1
 9575              		.global	realDisp
 9576              		.global	output
 9577              		.global	currTouched
 9578              		.global	lastTouched
 9579              		.global	k
 9580              		.global	flag
 9581              		.global	gate
 9582              		.global	f
 9583              		.global	pc
 9584              		.global	adcConfig
 9585              		.global	hw
 9586              		.global	cap
 9587              		.global	mpr121ObjConf
 9588              		.section	.bss._ZL3env,"aw",%nobits
 9589              		.align	2
 9590              		.set	.LANCHOR1,. + 0
 9593              	_ZL3env:
 9594 0000 00000000 		.space	48
 9594      00000000 
 9594      00000000 
 9594      00000000 
 9594      00000000 
 9595              		.section	.bss._ZL3osc,"aw",%nobits
 9596              		.align	2
 9597              		.set	.LANCHOR2,. + 0
 9600              	_ZL3osc:
 9601 0000 00000000 		.space	44
 9601      00000000 
 9601      00000000 
 9601      00000000 
 9601      00000000 
 9602              		.section	.bss.adcConfig,"aw",%nobits
 9603              		.align	2
 9604              		.set	.LANCHOR8,. + 0
 9607              	adcConfig:
 9608 0000 00000000 		.space	168
 9608      00000000 
 9608      00000000 
 9608      00000000 
ARM GAS  C:\Users\matte\AppData\Local\Temp\ccvehO0v.s 			page 263


 9608      00000000 
 9609              		.section	.bss.cap,"aw",%nobits
 9610              		.align	2
 9611              		.set	.LANCHOR11,. + 0
 9614              	cap:
 9615 0000 00000000 		.space	52
 9615      00000000 
 9615      00000000 
 9615      00000000 
 9615      00000000 
 9616              		.section	.bss.currTouched,"aw",%nobits
 9617              		.align	1
 9618              		.set	.LANCHOR12,. + 0
 9621              	currTouched:
 9622 0000 0000     		.space	2
 9623              		.section	.bss.disp1,"aw",%nobits
 9624              		.align	2
 9625              		.set	.LANCHOR3,. + 0
 9628              	disp1:
 9629 0000 00000000 		.space	2072
 9629      00000000 
 9629      00000000 
 9629      00000000 
 9629      00000000 
 9630              		.section	.bss.f,"aw",%nobits
 9631              		.align	2
 9632              		.set	.LANCHOR14,. + 0
 9635              	f:
 9636 0000 00000000 		.space	4
 9637              		.section	.bss.flag,"aw",%nobits
 9640              	flag:
 9641 0000 00       		.space	1
 9642              		.section	.bss.gate,"aw",%nobits
 9643              		.set	.LANCHOR0,. + 0
 9646              	gate:
 9647 0000 00       		.space	1
 9648              		.section	.bss.hw,"aw",%nobits
 9649              		.align	2
 9650              		.set	.LANCHOR4,. + 0
 9653              	hw:
 9654 0000 00000000 		.space	116
 9654      00000000 
 9654      00000000 
 9654      00000000 
 9654      00000000 
 9655              		.section	.bss.k,"aw",%nobits
 9656              		.align	2
 9659              	k:
 9660 0000 00000000 		.space	4
 9661              		.section	.bss.lastTouched,"aw",%nobits
 9662              		.align	1
 9663              		.set	.LANCHOR13,. + 0
 9666              	lastTouched:
 9667 0000 0000     		.space	2
 9668              		.section	.bss.mpr121ObjConf,"aw",%nobits
 9669              		.align	2
 9670              		.set	.LANCHOR10,. + 0
ARM GAS  C:\Users\matte\AppData\Local\Temp\ccvehO0v.s 			page 264


 9673              	mpr121ObjConf:
 9674 0000 00000000 		.space	24
 9674      00000000 
 9674      00000000 
 9674      00000000 
 9674      00000000 
 9675              		.section	.bss.output,"aw",%nobits
 9676              		.align	2
 9679              	output:
 9680 0000 00000000 		.space	4
 9681              		.section	.bss.pc,"aw",%nobits
 9682              		.align	2
 9683              		.set	.LANCHOR6,. + 0
 9686              	pc:
 9687 0000 00000000 		.space	3040
 9687      00000000 
 9687      00000000 
 9687      00000000 
 9687      00000000 
 9688              		.section	.bss.realDisp,"aw",%nobits
 9689              		.align	2
 9690              		.set	.LANCHOR5,. + 0
 9693              	realDisp:
 9694 0000 00000000 		.space	1040
 9694      00000000 
 9694      00000000 
 9694      00000000 
 9694      00000000 
 9695              		.section	.rodata._ZN5daisy4seedL2A0E,"a"
 9696              		.align	2
 9697              		.set	.LANCHOR7,. + 0
 9700              	_ZN5daisy4seedL2A0E:
 9701 0000 02       		.byte	2
 9702 0001 00       		.byte	0
 9703              		.section	.rodata._ZN5daisy4seedL2A1E,"a"
 9704              		.align	2
 9705              		.set	.LANCHOR9,. + 0
 9708              	_ZN5daisy4seedL2A1E:
 9709 0000 00       		.byte	0
 9710 0001 03       		.byte	3
 9711              		.text
 9712              	.Letext0:
 9713              		.file 22 "c:\\program files\\daisytoolchain\\arm-none-eabi\\include\\machine\\_default_types.h"
 9714              		.file 23 "c:\\program files\\daisytoolchain\\arm-none-eabi\\include\\sys\\_stdint.h"
 9715              		.file 24 "c:\\program files\\daisytoolchain\\arm-none-eabi\\include\\stdint.h"
 9716              		.file 25 "c:\\program files\\daisytoolchain\\lib\\gcc\\arm-none-eabi\\10.2.1\\include\\stddef.h"
 9717              		.file 26 "c:\\program files\\daisytoolchain\\arm-none-eabi\\include\\c++\\10.2.1\\bits\\std_abs.h"
 9718              		.file 27 "c:\\program files\\daisytoolchain\\arm-none-eabi\\include\\c++\\10.2.1\\cstdlib"
 9719              		.file 28 "c:\\program files\\daisytoolchain\\arm-none-eabi\\include\\c++\\10.2.1\\cstdint"
 9720              		.file 29 "c:\\program files\\daisytoolchain\\arm-none-eabi\\include\\c++\\10.2.1\\type_traits"
 9721              		.file 30 "c:\\program files\\daisytoolchain\\arm-none-eabi\\include\\c++\\10.2.1\\debug\\debug.h"
 9722              		.file 31 "c:\\program files\\daisytoolchain\\arm-none-eabi\\include\\c++\\10.2.1\\arm-none-eabi\\t
 9723              		.file 32 "c:\\program files\\daisytoolchain\\arm-none-eabi\\include\\c++\\10.2.1\\bits\\algorithmf
 9724              		.file 33 "c:\\program files\\daisytoolchain\\arm-none-eabi\\include\\c++\\10.2.1\\bits\\stl_pair.h
 9725              		.file 34 "c:\\program files\\daisytoolchain\\arm-none-eabi\\include\\c++\\10.2.1\\bits\\exception_
 9726              		.file 35 "c:\\program files\\daisytoolchain\\arm-none-eabi\\include\\c++\\10.2.1\\cstdarg"
 9727              		.file 36 "c:\\program files\\daisytoolchain\\arm-none-eabi\\include\\c++\\10.2.1\\cstdio"
ARM GAS  C:\Users\matte\AppData\Local\Temp\ccvehO0v.s 			page 265


 9728              		.file 37 "c:\\program files\\daisytoolchain\\arm-none-eabi\\include\\c++\\10.2.1\\cstring"
 9729              		.file 38 "c:\\program files\\daisytoolchain\\arm-none-eabi\\include\\c++\\10.2.1\\cwchar"
 9730              		.file 39 "c:\\program files\\daisytoolchain\\arm-none-eabi\\include\\c++\\10.2.1\\clocale"
 9731              		.file 40 "c:\\program files\\daisytoolchain\\arm-none-eabi\\include\\c++\\10.2.1\\bits\\basic_stri
 9732              		.file 41 "c:\\program files\\daisytoolchain\\arm-none-eabi\\include\\c++\\10.2.1\\bits\\stl_tempbu
 9733              		.file 42 "c:\\program files\\daisytoolchain\\arm-none-eabi\\include\\c++\\10.2.1\\bits\\predefined
 9734              		.file 43 "c:\\program files\\daisytoolchain\\arm-none-eabi\\include\\sys\\_types.h"
 9735              		.file 44 "c:\\program files\\daisytoolchain\\arm-none-eabi\\include\\sys\\reent.h"
 9736              		.file 45 "c:\\program files\\daisytoolchain\\arm-none-eabi\\include\\sys\\lock.h"
 9737              		.file 46 "c:\\program files\\daisytoolchain\\arm-none-eabi\\include\\math.h"
 9738              		.file 47 "c:\\program files\\daisytoolchain\\arm-none-eabi\\include\\stdlib.h"
 9739              		.file 48 "c:\\program files\\daisytoolchain\\arm-none-eabi\\include\\c++\\10.2.1\\math.h"
 9740              		.file 49 "c:\\program files\\daisytoolchain\\arm-none-eabi\\include\\c++\\10.2.1\\stdlib.h"
 9741              		.file 50 "../../libs/libDaisy/src/per/tim.h"
 9742              		.file 51 "../../libs/libDaisy/src/util/wav_format.h"
 9743              		.file 52 "../../libs/libDaisy/src/dev/sr_595.h"
 9744              		.file 53 "../../libs/libDaisy/src/dev/max11300.h"
 9745              		.file 54 "../../libs/libDaisy/src/dev/sdram.h"
 9746              		.file 55 "c:\\program files\\daisytoolchain\\lib\\gcc\\arm-none-eabi\\10.2.1\\include\\stdarg.h"
 9747              		.file 56 "c:\\program files\\daisytoolchain\\arm-none-eabi\\include\\stdio.h"
 9748              		.file 57 "../../libs/libDaisy/src/util/oled_fonts.h"
 9749              		.file 58 "c:\\program files\\daisytoolchain\\arm-none-eabi\\include\\string.h"
 9750              		.file 59 "../../libs/DaisySP/Source/Control/adenv.h"
 9751              		.file 60 "../../libs/DaisySP/Source/Utility/dsp.h"
 9752              		.file 61 "c:\\program files\\daisytoolchain\\arm-none-eabi\\include\\wchar.h"
 9753              		.file 62 "c:\\program files\\daisytoolchain\\arm-none-eabi\\include\\locale.h"
 9754              		.file 63 "../../Classes/Temperamento/../FIIR/CapFir.h"
 9755              		.file 64 "../../Classes/Temperamento/PlantConditioner.h"
 9756              		.file 65 "../../Classes/Effects/AnalogDelay/src/AnalogDelay.h"
 9757              		.file 66 "displayHandler.hpp"
 9758              		.file 67 "<built-in>"
 9759              		.file 68 "c:\\program files\\daisytoolchain\\arm-none-eabi\\include\\c++\\10.2.1\\new"
ARM GAS  C:\Users\matte\AppData\Local\Temp\ccvehO0v.s 			page 266


DEFINED SYMBOLS
                            *ABS*:00000000 main.cpp
C:\Users\matte\AppData\Local\Temp\ccvehO0v.s:17     .text._ZN5daisy9DaisySeedD2Ev:00000000 $t
C:\Users\matte\AppData\Local\Temp\ccvehO0v.s:26     .text._ZN5daisy9DaisySeedD2Ev:00000000 _ZN5daisy9DaisySeedD2Ev
C:\Users\matte\AppData\Local\Temp\ccvehO0v.s:26     .text._ZN5daisy9DaisySeedD2Ev:00000000 _ZN5daisy9DaisySeedD1Ev
C:\Users\matte\AppData\Local\Temp\ccvehO0v.s:73     .text._ZN7daisysp4AdsrD2Ev:00000000 $t
C:\Users\matte\AppData\Local\Temp\ccvehO0v.s:81     .text._ZN7daisysp4AdsrD2Ev:00000000 _ZN7daisysp4AdsrD2Ev
C:\Users\matte\AppData\Local\Temp\ccvehO0v.s:81     .text._ZN7daisysp4AdsrD2Ev:00000000 _ZN7daisysp4AdsrD1Ev
C:\Users\matte\AppData\Local\Temp\ccvehO0v.s:98     .text._ZN7daisysp10OscillatorD2Ev:00000000 $t
C:\Users\matte\AppData\Local\Temp\ccvehO0v.s:106    .text._ZN7daisysp10OscillatorD2Ev:00000000 _ZN7daisysp10OscillatorD2Ev
C:\Users\matte\AppData\Local\Temp\ccvehO0v.s:106    .text._ZN7daisysp10OscillatorD2Ev:00000000 _ZN7daisysp10OscillatorD1Ev
C:\Users\matte\AppData\Local\Temp\ccvehO0v.s:123    .text._ZN5daisy11OledDisplayINS_13SSD130xDriverILj128ELj64ENS_19SSD130xI2CTransportEEEED2Ev:00000000 $t
C:\Users\matte\AppData\Local\Temp\ccvehO0v.s:131    .text._ZN5daisy11OledDisplayINS_13SSD130xDriverILj128ELj64ENS_19SSD130xI2CTransportEEEED2Ev:00000000 _ZN5daisy11OledDisplayINS_13SSD130xDriverILj128ELj64ENS_19SSD130xI2CTransportEEEED2Ev
C:\Users\matte\AppData\Local\Temp\ccvehO0v.s:131    .text._ZN5daisy11OledDisplayINS_13SSD130xDriverILj128ELj64ENS_19SSD130xI2CTransportEEEED2Ev:00000000 _ZN5daisy11OledDisplayINS_13SSD130xDriverILj128ELj64ENS_19SSD130xI2CTransportEEEED1Ev
C:\Users\matte\AppData\Local\Temp\ccvehO0v.s:158    .text._ZNK5daisy11OledDisplayINS_13SSD130xDriverILj128ELj64ENS_19SSD130xI2CTransportEEEE6HeightEv:00000000 $t
C:\Users\matte\AppData\Local\Temp\ccvehO0v.s:166    .text._ZNK5daisy11OledDisplayINS_13SSD130xDriverILj128ELj64ENS_19SSD130xI2CTransportEEEE6HeightEv:00000000 _ZNK5daisy11OledDisplayINS_13SSD130xDriverILj128ELj64ENS_19SSD130xI2CTransportEEEE6HeightEv
C:\Users\matte\AppData\Local\Temp\ccvehO0v.s:183    .text._ZNK5daisy11OledDisplayINS_13SSD130xDriverILj128ELj64ENS_19SSD130xI2CTransportEEEE5WidthEv:00000000 $t
C:\Users\matte\AppData\Local\Temp\ccvehO0v.s:191    .text._ZNK5daisy11OledDisplayINS_13SSD130xDriverILj128ELj64ENS_19SSD130xI2CTransportEEEE5WidthEv:00000000 _ZNK5daisy11OledDisplayINS_13SSD130xDriverILj128ELj64ENS_19SSD130xI2CTransportEEEE5WidthEv
C:\Users\matte\AppData\Local\Temp\ccvehO0v.s:208    .text._ZN5daisy11OledDisplayINS_13SSD130xDriverILj128ELj64ENS_19SSD130xI2CTransportEEEE4FillEb:00000000 $t
C:\Users\matte\AppData\Local\Temp\ccvehO0v.s:216    .text._ZN5daisy11OledDisplayINS_13SSD130xDriverILj128ELj64ENS_19SSD130xI2CTransportEEEE4FillEb:00000000 _ZN5daisy11OledDisplayINS_13SSD130xDriverILj128ELj64ENS_19SSD130xI2CTransportEEEE4FillEb
C:\Users\matte\AppData\Local\Temp\ccvehO0v.s:248    .text._ZN5daisy6Mpr121INS_18Mpr121I2CTransportEED2Ev:00000000 $t
C:\Users\matte\AppData\Local\Temp\ccvehO0v.s:256    .text._ZN5daisy6Mpr121INS_18Mpr121I2CTransportEED2Ev:00000000 _ZN5daisy6Mpr121INS_18Mpr121I2CTransportEED2Ev
C:\Users\matte\AppData\Local\Temp\ccvehO0v.s:256    .text._ZN5daisy6Mpr121INS_18Mpr121I2CTransportEED2Ev:00000000 _ZN5daisy6Mpr121INS_18Mpr121I2CTransportEED1Ev
C:\Users\matte\AppData\Local\Temp\ccvehO0v.s:278    .text._ZL13AudioCallbackPKfPfj:00000000 $t
C:\Users\matte\AppData\Local\Temp\ccvehO0v.s:285    .text._ZL13AudioCallbackPKfPfj:00000000 _ZL13AudioCallbackPKfPfj
C:\Users\matte\AppData\Local\Temp\ccvehO0v.s:408    .text._ZL13AudioCallbackPKfPfj:00000060 $d
C:\Users\matte\AppData\Local\Temp\ccvehO0v.s:416    .text._ZN5daisy11OledDisplayINS_13SSD130xDriverILj128ELj64ENS_19SSD130xI2CTransportEEEED0Ev:00000000 $t
C:\Users\matte\AppData\Local\Temp\ccvehO0v.s:424    .text._ZN5daisy11OledDisplayINS_13SSD130xDriverILj128ELj64ENS_19SSD130xI2CTransportEEEED0Ev:00000000 _ZN5daisy11OledDisplayINS_13SSD130xDriverILj128ELj64ENS_19SSD130xI2CTransportEEEED0Ev
C:\Users\matte\AppData\Local\Temp\ccvehO0v.s:464    .text._ZN5daisy11OledDisplayINS_13SSD130xDriverILj128ELj64ENS_19SSD130xI2CTransportEEEE6UpdateEv:00000000 $t
C:\Users\matte\AppData\Local\Temp\ccvehO0v.s:472    .text._ZN5daisy11OledDisplayINS_13SSD130xDriverILj128ELj64ENS_19SSD130xI2CTransportEEEE6UpdateEv:00000000 _ZN5daisy11OledDisplayINS_13SSD130xDriverILj128ELj64ENS_19SSD130xI2CTransportEEEE6UpdateEv
C:\Users\matte\AppData\Local\Temp\ccvehO0v.s:655    .text._ZN5daisy25OneBitGraphicsDisplayImplINS_11OledDisplayINS_13SSD130xDriverILj128ELj64ENS_19SSD130xI2CTransportEEEEEE11WriteStringEPKc7FontDefb:00000000 $t
C:\Users\matte\AppData\Local\Temp\ccvehO0v.s:663    .text._ZN5daisy25OneBitGraphicsDisplayImplINS_11OledDisplayINS_13SSD130xDriverILj128ELj64ENS_19SSD130xI2CTransportEEEEEE11WriteStringEPKc7FontDefb:00000000 _ZN5daisy25OneBitGraphicsDisplayImplINS_11OledDisplayINS_13SSD130xDriverILj128ELj64ENS_19SSD130xI2CTransportEEEEEE11WriteStringEPKc7FontDefb
C:\Users\matte\AppData\Local\Temp\ccvehO0v.s:1120   .text._ZN5daisy25OneBitGraphicsDisplayImplINS_11OledDisplayINS_13SSD130xDriverILj128ELj64ENS_19SSD130xI2CTransportEEEEEE11WriteStringEPKc7FontDefb:000001b8 $d
C:\Users\matte\AppData\Local\Temp\ccvehO0v.s:1130   .text._ZN5daisy25OneBitGraphicsDisplayImplINS_11OledDisplayINS_13SSD130xDriverILj128ELj64ENS_19SSD130xI2CTransportEEEEEE9WriteCharEc7FontDefb:00000000 $t
C:\Users\matte\AppData\Local\Temp\ccvehO0v.s:1138   .text._ZN5daisy25OneBitGraphicsDisplayImplINS_11OledDisplayINS_13SSD130xDriverILj128ELj64ENS_19SSD130xI2CTransportEEEEEE9WriteCharEc7FontDefb:00000000 _ZN5daisy25OneBitGraphicsDisplayImplINS_11OledDisplayINS_13SSD130xDriverILj128ELj64ENS_19SSD130xI2CTransportEEEEEE9WriteCharEc7FontDefb
C:\Users\matte\AppData\Local\Temp\ccvehO0v.s:1564   .text._ZN5daisy25OneBitGraphicsDisplayImplINS_11OledDisplayINS_13SSD130xDriverILj128ELj64ENS_19SSD130xI2CTransportEEEEEE9WriteCharEc7FontDefb:00000198 $d
C:\Users\matte\AppData\Local\Temp\ccvehO0v.s:1572   .text._ZN5daisy25OneBitGraphicsDisplayImplINS_11OledDisplayINS_13SSD130xDriverILj128ELj64ENS_19SSD130xI2CTransportEEEEEE18WriteStringAlignedEPKcRK7FontDefNS_9RectangleENS_9AlignmentEb:00000000 $t
C:\Users\matte\AppData\Local\Temp\ccvehO0v.s:1580   .text._ZN5daisy25OneBitGraphicsDisplayImplINS_11OledDisplayINS_13SSD130xDriverILj128ELj64ENS_19SSD130xI2CTransportEEEEEE18WriteStringAlignedEPKcRK7FontDefNS_9RectangleENS_9AlignmentEb:00000000 _ZN5daisy25OneBitGraphicsDisplayImplINS_11OledDisplayINS_13SSD130xDriverILj128ELj64ENS_19SSD130xI2CTransportEEEEEE18WriteStringAlignedEPKcRK7FontDefNS_9RectangleENS_9AlignmentEb
C:\Users\matte\AppData\Local\Temp\ccvehO0v.s:1719   .text._ZN5daisy25OneBitGraphicsDisplayImplINS_11OledDisplayINS_13SSD130xDriverILj128ELj64ENS_19SSD130xI2CTransportEEEEEE18WriteStringAlignedEPKcRK7FontDefNS_9RectangleENS_9AlignmentEb:00000046 $d
C:\Users\matte\AppData\Local\Temp\ccvehO0v.s:1728   .text._ZN5daisy25OneBitGraphicsDisplayImplINS_11OledDisplayINS_13SSD130xDriverILj128ELj64ENS_19SSD130xI2CTransportEEEEEE18WriteStringAlignedEPKcRK7FontDefNS_9RectangleENS_9AlignmentEb:00000058 $t
C:\Users\matte\AppData\Local\Temp\ccvehO0v.s:2936   .text._ZN5daisy25OneBitGraphicsDisplayImplINS_11OledDisplayINS_13SSD130xDriverILj128ELj64ENS_19SSD130xI2CTransportEEEEEE18WriteStringAlignedEPKcRK7FontDefNS_9RectangleENS_9AlignmentEb:00000320 $d
C:\Users\matte\AppData\Local\Temp\ccvehO0v.s:2945   .text._ZN5daisy25OneBitGraphicsDisplayImplINS_11OledDisplayINS_13SSD130xDriverILj128ELj64ENS_19SSD130xI2CTransportEEEEEE18WriteStringAlignedEPKcRK7FontDefNS_9RectangleENS_9AlignmentEb:00000328 $t
C:\Users\matte\AppData\Local\Temp\ccvehO0v.s:3256   .text._ZN5daisy25OneBitGraphicsDisplayImplINS_11OledDisplayINS_13SSD130xDriverILj128ELj64ENS_19SSD130xI2CTransportEEEEEE18WriteStringAlignedEPKcRK7FontDefNS_9RectangleENS_9AlignmentEb:000003e8 $d
C:\Users\matte\AppData\Local\Temp\ccvehO0v.s:3264   .text._ZN5daisy11OledDisplayINS_13SSD130xDriverILj128ELj64ENS_19SSD130xI2CTransportEEEE9DrawPixelEjjb:00000000 $t
C:\Users\matte\AppData\Local\Temp\ccvehO0v.s:3272   .text._ZN5daisy11OledDisplayINS_13SSD130xDriverILj128ELj64ENS_19SSD130xI2CTransportEEEE9DrawPixelEjjb:00000000 _ZN5daisy11OledDisplayINS_13SSD130xDriverILj128ELj64ENS_19SSD130xI2CTransportEEEE9DrawPixelEjjb
C:\Users\matte\AppData\Local\Temp\ccvehO0v.s:3349   .text._ZN5daisy25OneBitGraphicsDisplayImplINS_11OledDisplayINS_13SSD130xDriverILj128ELj64ENS_19SSD130xI2CTransportEEEEEE8DrawLineEjjjjb:00000000 $t
C:\Users\matte\AppData\Local\Temp\ccvehO0v.s:3357   .text._ZN5daisy25OneBitGraphicsDisplayImplINS_11OledDisplayINS_13SSD130xDriverILj128ELj64ENS_19SSD130xI2CTransportEEEEEE8DrawLineEjjjjb:00000000 _ZN5daisy25OneBitGraphicsDisplayImplINS_11OledDisplayINS_13SSD130xDriverILj128ELj64ENS_19SSD130xI2CTransportEEEEEE8DrawLineEjjjjb
C:\Users\matte\AppData\Local\Temp\ccvehO0v.s:3642   .text._ZN5daisy25OneBitGraphicsDisplayImplINS_11OledDisplayINS_13SSD130xDriverILj128ELj64ENS_19SSD130xI2CTransportEEEEEE7DrawArcEjjjiib:00000000 $t
C:\Users\matte\AppData\Local\Temp\ccvehO0v.s:3650   .text._ZN5daisy25OneBitGraphicsDisplayImplINS_11OledDisplayINS_13SSD130xDriverILj128ELj64ENS_19SSD130xI2CTransportEEEEEE7DrawArcEjjjiib:00000000 _ZN5daisy25OneBitGraphicsDisplayImplINS_11OledDisplayINS_13SSD130xDriverILj128ELj64ENS_19SSD130xI2CTransportEEEEEE7DrawArcEjjjiib
C:\Users\matte\AppData\Local\Temp\ccvehO0v.s:4335   .text._ZN5daisy25OneBitGraphicsDisplayImplINS_11OledDisplayINS_13SSD130xDriverILj128ELj64ENS_19SSD130xI2CTransportEEEEEE7DrawArcEjjjiib:00000368 $d
C:\Users\matte\AppData\Local\Temp\ccvehO0v.s:4349   .text._ZN5daisy25OneBitGraphicsDisplayImplINS_11OledDisplayINS_13SSD130xDriverILj128ELj64ENS_19SSD130xI2CTransportEEEEEE7DrawArcEjjjiib:00000378 $t
C:\Users\matte\AppData\Local\Temp\ccvehO0v.s:4575   .text._ZN5daisy25OneBitGraphicsDisplayImplINS_11OledDisplayINS_13SSD130xDriverILj128ELj64ENS_19SSD130xI2CTransportEEEEEE8DrawRectEjjjjbb:00000000 $t
C:\Users\matte\AppData\Local\Temp\ccvehO0v.s:4583   .text._ZN5daisy25OneBitGraphicsDisplayImplINS_11OledDisplayINS_13SSD130xDriverILj128ELj64ENS_19SSD130xI2CTransportEEEEEE8DrawRectEjjjjbb:00000000 _ZN5daisy25OneBitGraphicsDisplayImplINS_11OledDisplayINS_13SSD130xDriverILj128ELj64ENS_19SSD130xI2CTransportEEEEEE8DrawRectEjjjjbb
C:\Users\matte\AppData\Local\Temp\ccvehO0v.s:5693   .text._ZN5daisy13SSD130xDriverILj128ELj64ENS_19SSD130xI2CTransportEE4InitENS2_6ConfigE:00000000 $t
C:\Users\matte\AppData\Local\Temp\ccvehO0v.s:5701   .text._ZN5daisy13SSD130xDriverILj128ELj64ENS_19SSD130xI2CTransportEE4InitENS2_6ConfigE:00000000 _ZN5daisy13SSD130xDriverILj128ELj64ENS_19SSD130xI2CTransportEE4InitENS2_6ConfigE
C:\Users\matte\AppData\Local\Temp\ccvehO0v.s:6354   .text._ZN5daisy6Mpr121INS_18Mpr121I2CTransportEE13WriteRegisterEhh:00000000 $t
C:\Users\matte\AppData\Local\Temp\ccvehO0v.s:6362   .text._ZN5daisy6Mpr121INS_18Mpr121I2CTransportEE13WriteRegisterEhh:00000000 _ZN5daisy6Mpr121INS_18Mpr121I2CTransportEE13WriteRegisterEhh
ARM GAS  C:\Users\matte\AppData\Local\Temp\ccvehO0v.s 			page 267


C:\Users\matte\AppData\Local\Temp\ccvehO0v.s:6732   .text.startup.main:00000000 $t
C:\Users\matte\AppData\Local\Temp\ccvehO0v.s:6740   .text.startup.main:00000000 main
C:\Users\matte\AppData\Local\Temp\ccvehO0v.s:7860   .text.startup.main:0000033c $d
C:\Users\matte\AppData\Local\Temp\ccvehO0v.s:7888   .text.startup.main:00000394 $t
C:\Users\matte\AppData\Local\Temp\ccvehO0v.s:8717   .text.startup.main:00000618 $d
C:\Users\matte\AppData\Local\Temp\ccvehO0v.s:8735   .text.startup._GLOBAL__sub_I_mpr121ObjConf:00000000 $t
C:\Users\matte\AppData\Local\Temp\ccvehO0v.s:8742   .text.startup._GLOBAL__sub_I_mpr121ObjConf:00000000 _GLOBAL__sub_I_mpr121ObjConf
C:\Users\matte\AppData\Local\Temp\ccvehO0v.s:9526   .text.startup._GLOBAL__sub_I_mpr121ObjConf:00000110 $d
C:\Users\matte\AppData\Local\Temp\ccvehO0v.s:9558   .rodata._ZTVN5daisy11OledDisplayINS_13SSD130xDriverILj128ELj64ENS_19SSD130xI2CTransportEEEEE:00000000 _ZTVN5daisy11OledDisplayINS_13SSD130xDriverILj128ELj64ENS_19SSD130xI2CTransportEEEEE
C:\Users\matte\AppData\Local\Temp\ccvehO0v.s:9551   .init_array:00000000 $d
C:\Users\matte\AppData\Local\Temp\ccvehO0v.s:9555   .rodata._ZTVN5daisy11OledDisplayINS_13SSD130xDriverILj128ELj64ENS_19SSD130xI2CTransportEEEEE:00000000 $d
C:\Users\matte\AppData\Local\Temp\ccvehO0v.s:9628   .bss.disp1:00000000 disp1
C:\Users\matte\AppData\Local\Temp\ccvehO0v.s:9693   .bss.realDisp:00000000 realDisp
C:\Users\matte\AppData\Local\Temp\ccvehO0v.s:9679   .bss.output:00000000 output
C:\Users\matte\AppData\Local\Temp\ccvehO0v.s:9621   .bss.currTouched:00000000 currTouched
C:\Users\matte\AppData\Local\Temp\ccvehO0v.s:9666   .bss.lastTouched:00000000 lastTouched
C:\Users\matte\AppData\Local\Temp\ccvehO0v.s:9659   .bss.k:00000000 k
C:\Users\matte\AppData\Local\Temp\ccvehO0v.s:9640   .bss.flag:00000000 flag
C:\Users\matte\AppData\Local\Temp\ccvehO0v.s:9646   .bss.gate:00000000 gate
C:\Users\matte\AppData\Local\Temp\ccvehO0v.s:9635   .bss.f:00000000 f
C:\Users\matte\AppData\Local\Temp\ccvehO0v.s:9686   .bss.pc:00000000 pc
C:\Users\matte\AppData\Local\Temp\ccvehO0v.s:9607   .bss.adcConfig:00000000 adcConfig
C:\Users\matte\AppData\Local\Temp\ccvehO0v.s:9653   .bss.hw:00000000 hw
C:\Users\matte\AppData\Local\Temp\ccvehO0v.s:9614   .bss.cap:00000000 cap
C:\Users\matte\AppData\Local\Temp\ccvehO0v.s:9673   .bss.mpr121ObjConf:00000000 mpr121ObjConf
C:\Users\matte\AppData\Local\Temp\ccvehO0v.s:9589   .bss._ZL3env:00000000 $d
C:\Users\matte\AppData\Local\Temp\ccvehO0v.s:9593   .bss._ZL3env:00000000 _ZL3env
C:\Users\matte\AppData\Local\Temp\ccvehO0v.s:9596   .bss._ZL3osc:00000000 $d
C:\Users\matte\AppData\Local\Temp\ccvehO0v.s:9600   .bss._ZL3osc:00000000 _ZL3osc
C:\Users\matte\AppData\Local\Temp\ccvehO0v.s:9603   .bss.adcConfig:00000000 $d
C:\Users\matte\AppData\Local\Temp\ccvehO0v.s:9610   .bss.cap:00000000 $d
C:\Users\matte\AppData\Local\Temp\ccvehO0v.s:9617   .bss.currTouched:00000000 $d
C:\Users\matte\AppData\Local\Temp\ccvehO0v.s:9624   .bss.disp1:00000000 $d
C:\Users\matte\AppData\Local\Temp\ccvehO0v.s:9631   .bss.f:00000000 $d
C:\Users\matte\AppData\Local\Temp\ccvehO0v.s:9641   .bss.flag:00000000 $d
C:\Users\matte\AppData\Local\Temp\ccvehO0v.s:9647   .bss.gate:00000000 $d
C:\Users\matte\AppData\Local\Temp\ccvehO0v.s:9649   .bss.hw:00000000 $d
C:\Users\matte\AppData\Local\Temp\ccvehO0v.s:9656   .bss.k:00000000 $d
C:\Users\matte\AppData\Local\Temp\ccvehO0v.s:9662   .bss.lastTouched:00000000 $d
C:\Users\matte\AppData\Local\Temp\ccvehO0v.s:9669   .bss.mpr121ObjConf:00000000 $d
C:\Users\matte\AppData\Local\Temp\ccvehO0v.s:9676   .bss.output:00000000 $d
C:\Users\matte\AppData\Local\Temp\ccvehO0v.s:9682   .bss.pc:00000000 $d
C:\Users\matte\AppData\Local\Temp\ccvehO0v.s:9689   .bss.realDisp:00000000 $d
C:\Users\matte\AppData\Local\Temp\ccvehO0v.s:9696   .rodata._ZN5daisy4seedL2A0E:00000000 $d
C:\Users\matte\AppData\Local\Temp\ccvehO0v.s:9700   .rodata._ZN5daisy4seedL2A0E:00000000 _ZN5daisy4seedL2A0E
C:\Users\matte\AppData\Local\Temp\ccvehO0v.s:9704   .rodata._ZN5daisy4seedL2A1E:00000000 $d
C:\Users\matte\AppData\Local\Temp\ccvehO0v.s:9708   .rodata._ZN5daisy4seedL2A1E:00000000 _ZN5daisy4seedL2A1E
                           .group:00000000 _ZN5daisy9DaisySeedD5Ev
                           .group:00000000 _ZN7daisysp4AdsrD5Ev
                           .group:00000000 _ZN7daisysp10OscillatorD5Ev
                           .group:00000000 _ZN5daisy11OledDisplayINS_13SSD130xDriverILj128ELj64ENS_19SSD130xI2CTransportEEEED5Ev
                           .group:00000000 _ZN5daisy6Mpr121INS_18Mpr121I2CTransportEED5Ev

UNDEFINED SYMBOLS
memset
_ZN7daisysp4Adsr7ProcessEb
_ZN7daisysp10Oscillator7ProcessEv
ARM GAS  C:\Users\matte\AppData\Local\Temp\ccvehO0v.s 			page 268


_ZN14DisplayHandler15pushAudioSampleEf
_ZdlPvj
_ZN5daisy9I2CHandle16TransmitBlockingEtPhtm
cosf
sinf
_ZN5daisy9I2CHandle4InitERKNS0_6ConfigE
_ZN5daisy9I2CHandle15ReceiveBlockingEtPhtm
_ZN5daisy9DaisySeed9ConfigureEv
_ZN5daisy9DaisySeed4InitEb
_ZN5daisy9DaisySeed17SetAudioBlockSizeEj
_ZN5daisy9DaisySeed15AudioSampleRateEv
_ZN14DisplayHandler8SetStateE12DisplayState
_ZN16PlantConditioner4InitEN6CapFir7ResTypeE
_ZN16PlantConditioner8setScaleENS_5NotesENS_9ScaleTypeE
_ZN16PlantConditioner9setOctaveEh
_ZN16PlantConditioner8setCurveEhf
_ZN7daisysp10Oscillator12CalcPhaseIncEf
_ZN7daisysp4Adsr4InitEfi
_ZN7daisysp4Adsr7SetTimeEif
_ZN5daisy16AdcChannelConfig10InitSingleENS_3PinENS0_15ConversionSpeedE
_ZN5daisy9AdcHandle4InitEPNS_16AdcChannelConfigEjNS0_12OverSamplingE
_ZN5daisy9AdcHandle5StartEv
_ZN5daisy6System5DelayEm
_ZN5daisy9DaisySeed6SetLedEb
_ZN5daisy9DaisySeed7DelayMsEj
_ZN5daisy9DaisySeed10StartAudioEPFvPKfPfjE
_ZNK5daisy9AdcHandle8GetFloatEh
_ZN5daisy9I2CHandle8Mem_readEtttPhtm
_ZN16PlantConditioner7ProcessEtt
_ZN16PlantConditioner9setBufferEv
_ZN14DisplayHandler6UpdateEv
__aeabi_atexit
_ZN16PlantConditionerC1Ev
_ZN14DisplayHandlerC1EPN5daisy11OledDisplayINS0_13SSD130xDriverILj128ELj64ENS0_19SSD130xI2CTransportEEEEEb
__dso_handle
_ZN16PlantConditionerD1Ev
