ARM GAS  C:\Users\skipi\AppData\Local\Temp\cc6ev9XQ.s 			page 1


   1              		.cpu cortex-m7
   2              		.eabi_attribute 28, 1
   3              		.eabi_attribute 20, 1
   4              		.eabi_attribute 21, 1
   5              		.eabi_attribute 23, 3
   6              		.eabi_attribute 24, 1
   7              		.eabi_attribute 25, 1
   8              		.eabi_attribute 26, 1
   9              		.eabi_attribute 30, 2
  10              		.eabi_attribute 34, 1
  11              		.eabi_attribute 18, 4
  12              		.file	"main.cpp"
  13              		.text
  14              	.Ltext0:
  15              		.cfi_sections	.debug_frame
  16              		.section	.text._ZN5daisy9DaisySeedD2Ev,"axG",%progbits,_ZN5daisy9DaisySeedD5Ev,comdat
  17              		.align	1
  18              		.p2align 2,,3
  19              		.weak	_ZN5daisy9DaisySeedD2Ev
  20              		.arch armv7e-m
  21              		.syntax unified
  22              		.thumb
  23              		.thumb_func
  24              		.fpu fpv5-d16
  26              	_ZN5daisy9DaisySeedD2Ev:
  27              	.LVL0:
  28              	.LFB2671:
  29              		.file 1 "../../libs/libDaisy/src/daisy_seed.h"
   1:../../libs/libDaisy/src/daisy_seed.h **** #pragma once
   2:../../libs/libDaisy/src/daisy_seed.h **** #ifndef DSY_SEED_H
   3:../../libs/libDaisy/src/daisy_seed.h **** #define DSY_SEED_H
   4:../../libs/libDaisy/src/daisy_seed.h **** 
   5:../../libs/libDaisy/src/daisy_seed.h **** #include "daisy.h"
   6:../../libs/libDaisy/src/daisy_seed.h **** 
   7:../../libs/libDaisy/src/daisy_seed.h **** //Uncomment this out if you're still using the rev2 hardware
   8:../../libs/libDaisy/src/daisy_seed.h **** //#define SEED_REV2
   9:../../libs/libDaisy/src/daisy_seed.h **** 
  10:../../libs/libDaisy/src/daisy_seed.h **** namespace daisy
  11:../../libs/libDaisy/src/daisy_seed.h **** {
  12:../../libs/libDaisy/src/daisy_seed.h **** /**
  13:../../libs/libDaisy/src/daisy_seed.h ****    @brief This is the higher-level interface for the Daisy board. \n 
  14:../../libs/libDaisy/src/daisy_seed.h ****     All basic peripheral configuration/initialization is setup here. \n
  15:../../libs/libDaisy/src/daisy_seed.h **** 
  16:../../libs/libDaisy/src/daisy_seed.h ****    @ingroup boards
  17:../../libs/libDaisy/src/daisy_seed.h **** */
  18:../../libs/libDaisy/src/daisy_seed.h **** class DaisySeed
  19:../../libs/libDaisy/src/daisy_seed.h **** {
  20:../../libs/libDaisy/src/daisy_seed.h ****   public:
  21:../../libs/libDaisy/src/daisy_seed.h ****     DaisySeed() {}
  22:../../libs/libDaisy/src/daisy_seed.h ****     ~DaisySeed() {}
  30              		.loc 1 22 5 view -0
  31              		.cfi_startproc
  32              		@ args = 0, pretend = 0, frame = 0
  33              		@ frame_needed = 0, uses_anonymous_args = 0
  34              		@ link register save eliminated.
  35              	.LBB349:
  36              	.LBI349:
ARM GAS  C:\Users\skipi\AppData\Local\Temp\cc6ev9XQ.s 			page 2


  37              		.file 2 "../../libs/libDaisy/src/dev/codec_ak4556.h"
   1:../../libs/libDaisy/src/dev/codec_ak4556.h **** #pragma once
   2:../../libs/libDaisy/src/dev/codec_ak4556.h **** #ifndef DSY_CODEC_AK4556_H
   3:../../libs/libDaisy/src/dev/codec_ak4556.h **** #define DSY_CODEC_AK4556_H
   4:../../libs/libDaisy/src/dev/codec_ak4556.h **** 
   5:../../libs/libDaisy/src/dev/codec_ak4556.h **** #include "daisy_core.h"
   6:../../libs/libDaisy/src/dev/codec_ak4556.h **** #include "per/gpio.h"
   7:../../libs/libDaisy/src/dev/codec_ak4556.h **** 
   8:../../libs/libDaisy/src/dev/codec_ak4556.h **** namespace daisy
   9:../../libs/libDaisy/src/dev/codec_ak4556.h **** {
  10:../../libs/libDaisy/src/dev/codec_ak4556.h **** /** @brief Ak4556 Codec support 
  11:../../libs/libDaisy/src/dev/codec_ak4556.h ****  ** @author shensley
  12:../../libs/libDaisy/src/dev/codec_ak4556.h ****  ** @addtogroup codec
  13:../../libs/libDaisy/src/dev/codec_ak4556.h ****  ** 
  14:../../libs/libDaisy/src/dev/codec_ak4556.h ****  ** I don't see any real reason to have this be more than a function, but in case we want
  15:../../libs/libDaisy/src/dev/codec_ak4556.h ****  ** to add other functions down the road I wrapped the function in a class.
  16:../../libs/libDaisy/src/dev/codec_ak4556.h ****  ***/
  17:../../libs/libDaisy/src/dev/codec_ak4556.h **** class Ak4556
  18:../../libs/libDaisy/src/dev/codec_ak4556.h **** {
  19:../../libs/libDaisy/src/dev/codec_ak4556.h ****   public:
  20:../../libs/libDaisy/src/dev/codec_ak4556.h ****     Ak4556() {}
  21:../../libs/libDaisy/src/dev/codec_ak4556.h ****     ~Ak4556() {}
  38              		.loc 2 21 5 view .LVU1
  39              		.loc 2 21 5 is_stmt 0 view .LVU2
  40              	.LBE349:
  41              	.LBB350:
  42              	.LBI350:
  43              		.file 3 "../../libs/libDaisy/src/sys/system.h"
   1:../../libs/libDaisy/src/sys/system.h **** #ifndef DSY_SYSTEM_H
   2:../../libs/libDaisy/src/sys/system.h **** #define DSY_SYSTEM_H
   3:../../libs/libDaisy/src/sys/system.h **** 
   4:../../libs/libDaisy/src/sys/system.h **** #ifndef UNIT_TEST // for unit tests, a dummy implementation is provided below
   5:../../libs/libDaisy/src/sys/system.h **** 
   6:../../libs/libDaisy/src/sys/system.h **** #include <cstdint>
   7:../../libs/libDaisy/src/sys/system.h **** #include "per/tim.h"
   8:../../libs/libDaisy/src/sys/system.h **** 
   9:../../libs/libDaisy/src/sys/system.h **** namespace daisy
  10:../../libs/libDaisy/src/sys/system.h **** {
  11:../../libs/libDaisy/src/sys/system.h **** /** A handle for interacting with the Core System.
  12:../../libs/libDaisy/src/sys/system.h ****  ** This includes the Clock tree, MPU, global DMA initialization,
  13:../../libs/libDaisy/src/sys/system.h ****  ** cache handling, and any other necessary global initiailzation
  14:../../libs/libDaisy/src/sys/system.h ****  **
  15:../../libs/libDaisy/src/sys/system.h ****  ** @author shensley
  16:../../libs/libDaisy/src/sys/system.h ****  ** @ingroup system
  17:../../libs/libDaisy/src/sys/system.h ****  */
  18:../../libs/libDaisy/src/sys/system.h **** class System
  19:../../libs/libDaisy/src/sys/system.h **** {
  20:../../libs/libDaisy/src/sys/system.h ****   public:
  21:../../libs/libDaisy/src/sys/system.h ****     /** Contains settings for initializing the System */
  22:../../libs/libDaisy/src/sys/system.h ****     struct Config
  23:../../libs/libDaisy/src/sys/system.h ****     {
  24:../../libs/libDaisy/src/sys/system.h ****         /** Specifies the system clock frequency that feeds APB/AHB clocks, etc. */
  25:../../libs/libDaisy/src/sys/system.h ****         enum class SysClkFreq
  26:../../libs/libDaisy/src/sys/system.h ****         {
  27:../../libs/libDaisy/src/sys/system.h ****             FREQ_400MHZ,
  28:../../libs/libDaisy/src/sys/system.h ****             FREQ_480MHZ,
  29:../../libs/libDaisy/src/sys/system.h ****         };
ARM GAS  C:\Users\skipi\AppData\Local\Temp\cc6ev9XQ.s 			page 3


  30:../../libs/libDaisy/src/sys/system.h **** 
  31:../../libs/libDaisy/src/sys/system.h ****         /** Method to call on the struct to set to defaults
  32:../../libs/libDaisy/src/sys/system.h ****          ** CPU Freq set to 400MHz
  33:../../libs/libDaisy/src/sys/system.h ****          ** Cache Enabled
  34:../../libs/libDaisy/src/sys/system.h ****          ** */
  35:../../libs/libDaisy/src/sys/system.h ****         void Defaults()
  36:../../libs/libDaisy/src/sys/system.h ****         {
  37:../../libs/libDaisy/src/sys/system.h ****             cpu_freq    = SysClkFreq::FREQ_400MHZ;
  38:../../libs/libDaisy/src/sys/system.h ****             use_dcache  = true;
  39:../../libs/libDaisy/src/sys/system.h ****             use_icache  = true;
  40:../../libs/libDaisy/src/sys/system.h ****             skip_clocks = false;
  41:../../libs/libDaisy/src/sys/system.h ****         }
  42:../../libs/libDaisy/src/sys/system.h **** 
  43:../../libs/libDaisy/src/sys/system.h ****         /** Method to call on the struct to set to boost mode:
  44:../../libs/libDaisy/src/sys/system.h ****          ** CPU Freq set to 480MHz
  45:../../libs/libDaisy/src/sys/system.h ****          ** Cache Enabled
  46:../../libs/libDaisy/src/sys/system.h ****          ** */
  47:../../libs/libDaisy/src/sys/system.h ****         void Boost()
  48:../../libs/libDaisy/src/sys/system.h ****         {
  49:../../libs/libDaisy/src/sys/system.h ****             cpu_freq    = SysClkFreq::FREQ_480MHZ;
  50:../../libs/libDaisy/src/sys/system.h ****             use_dcache  = true;
  51:../../libs/libDaisy/src/sys/system.h ****             use_icache  = true;
  52:../../libs/libDaisy/src/sys/system.h ****             skip_clocks = false;
  53:../../libs/libDaisy/src/sys/system.h ****         }
  54:../../libs/libDaisy/src/sys/system.h **** 
  55:../../libs/libDaisy/src/sys/system.h ****         SysClkFreq cpu_freq;
  56:../../libs/libDaisy/src/sys/system.h ****         bool       use_dcache;
  57:../../libs/libDaisy/src/sys/system.h ****         bool       use_icache;
  58:../../libs/libDaisy/src/sys/system.h ****         bool       skip_clocks;
  59:../../libs/libDaisy/src/sys/system.h ****     };
  60:../../libs/libDaisy/src/sys/system.h **** 
  61:../../libs/libDaisy/src/sys/system.h ****     /** Describes the different regions of memory available to the Daisy */
  62:../../libs/libDaisy/src/sys/system.h ****     enum MemoryRegion
  63:../../libs/libDaisy/src/sys/system.h ****     {
  64:../../libs/libDaisy/src/sys/system.h ****         INTERNAL_FLASH = 0,
  65:../../libs/libDaisy/src/sys/system.h ****         ITCMRAM,
  66:../../libs/libDaisy/src/sys/system.h ****         DTCMRAM,
  67:../../libs/libDaisy/src/sys/system.h ****         SRAM_D1,
  68:../../libs/libDaisy/src/sys/system.h ****         SRAM_D2,
  69:../../libs/libDaisy/src/sys/system.h ****         SRAM_D3,
  70:../../libs/libDaisy/src/sys/system.h ****         SDRAM,
  71:../../libs/libDaisy/src/sys/system.h ****         QSPI,
  72:../../libs/libDaisy/src/sys/system.h ****         INVALID_ADDRESS,
  73:../../libs/libDaisy/src/sys/system.h ****     };
  74:../../libs/libDaisy/src/sys/system.h **** 
  75:../../libs/libDaisy/src/sys/system.h ****     /** Bootloader struct for controlling bootloading parameters */
  76:../../libs/libDaisy/src/sys/system.h ****     struct BootInfo
  77:../../libs/libDaisy/src/sys/system.h ****     {
  78:../../libs/libDaisy/src/sys/system.h ****         enum class Type : uint32_t
  79:../../libs/libDaisy/src/sys/system.h ****         {
  80:../../libs/libDaisy/src/sys/system.h ****             INVALID      = 0x00000000,
  81:../../libs/libDaisy/src/sys/system.h ****             JUMP         = 0xDEADBEEF,
  82:../../libs/libDaisy/src/sys/system.h ****             SKIP_TIMEOUT = 0x5AFEB007,
  83:../../libs/libDaisy/src/sys/system.h ****             INF_TIMEOUT  = 0xB0074EFA,
  84:../../libs/libDaisy/src/sys/system.h ****         } status;
  85:../../libs/libDaisy/src/sys/system.h ****         uint32_t data;
  86:../../libs/libDaisy/src/sys/system.h ****         enum class Version : uint32_t
ARM GAS  C:\Users\skipi\AppData\Local\Temp\cc6ev9XQ.s 			page 4


  87:../../libs/libDaisy/src/sys/system.h ****         {
  88:../../libs/libDaisy/src/sys/system.h ****             LT_v6_0 = 0, // Less than v6.0
  89:../../libs/libDaisy/src/sys/system.h ****             NONE,        // No bootloader present
  90:../../libs/libDaisy/src/sys/system.h ****             v6_0,        // v6.0
  91:../../libs/libDaisy/src/sys/system.h ****             v6_1,        // v6.1 or greater
  92:../../libs/libDaisy/src/sys/system.h ****             LAST
  93:../../libs/libDaisy/src/sys/system.h ****         } version;
  94:../../libs/libDaisy/src/sys/system.h ****     };
  95:../../libs/libDaisy/src/sys/system.h **** 
  96:../../libs/libDaisy/src/sys/system.h ****     System() {}
  97:../../libs/libDaisy/src/sys/system.h ****     ~System() {}
  44              		.loc 3 97 5 is_stmt 1 view .LVU3
  45              		.loc 3 97 5 is_stmt 0 view .LVU4
  46              	.LBE350:
  47              	.LBB351:
  48              	.LBI351:
  49              		.file 4 "../../libs/libDaisy/src/hid/usb.h"
   1:../../libs/libDaisy/src/hid/usb.h **** #pragma once
   2:../../libs/libDaisy/src/hid/usb.h **** #ifndef DSY_HID_USB_H
   3:../../libs/libDaisy/src/hid/usb.h **** #define DSY_HID_USB_H
   4:../../libs/libDaisy/src/hid/usb.h **** #include <stdint.h>
   5:../../libs/libDaisy/src/hid/usb.h **** #include <stdlib.h>
   6:../../libs/libDaisy/src/hid/usb.h **** 
   7:../../libs/libDaisy/src/hid/usb.h **** namespace daisy
   8:../../libs/libDaisy/src/hid/usb.h **** /** @addtogroup human_interface
   9:../../libs/libDaisy/src/hid/usb.h ****     @{
  10:../../libs/libDaisy/src/hid/usb.h **** */
  11:../../libs/libDaisy/src/hid/usb.h **** 
  12:../../libs/libDaisy/src/hid/usb.h **** {
  13:../../libs/libDaisy/src/hid/usb.h **** /** 
  14:../../libs/libDaisy/src/hid/usb.h ****     @brief Interface for initializing and using the USB Peripherals on the daisy
  15:../../libs/libDaisy/src/hid/usb.h ****     @author Stephen Hensley
  16:../../libs/libDaisy/src/hid/usb.h ****     @date December 2019
  17:../../libs/libDaisy/src/hid/usb.h **** */
  18:../../libs/libDaisy/src/hid/usb.h **** class UsbHandle
  19:../../libs/libDaisy/src/hid/usb.h **** {
  20:../../libs/libDaisy/src/hid/usb.h ****   public:
  21:../../libs/libDaisy/src/hid/usb.h ****     /** Return values for USBHandle Functions */
  22:../../libs/libDaisy/src/hid/usb.h ****     enum class Result
  23:../../libs/libDaisy/src/hid/usb.h ****     {
  24:../../libs/libDaisy/src/hid/usb.h ****         OK,
  25:../../libs/libDaisy/src/hid/usb.h ****         ERR,
  26:../../libs/libDaisy/src/hid/usb.h ****     };
  27:../../libs/libDaisy/src/hid/usb.h **** 
  28:../../libs/libDaisy/src/hid/usb.h ****     /** Specified which of the two USB Peripherals to initialize. */
  29:../../libs/libDaisy/src/hid/usb.h ****     enum UsbPeriph
  30:../../libs/libDaisy/src/hid/usb.h ****     {
  31:../../libs/libDaisy/src/hid/usb.h ****         FS_INTERNAL, /**< Internal pin */
  32:../../libs/libDaisy/src/hid/usb.h ****         FS_EXTERNAL, /**< FS External D+ pin is Pin 38 (GPIO32). FS External D- pin is Pin 37 (GPIO
  33:../../libs/libDaisy/src/hid/usb.h ****         FS_BOTH,     /**< Both */
  34:../../libs/libDaisy/src/hid/usb.h ****     };
  35:../../libs/libDaisy/src/hid/usb.h **** 
  36:../../libs/libDaisy/src/hid/usb.h **** 
  37:../../libs/libDaisy/src/hid/usb.h ****     /** Function called upon reception of a buffer */
  38:../../libs/libDaisy/src/hid/usb.h ****     typedef void (*ReceiveCallback)(uint8_t* buff, uint32_t* len);
  39:../../libs/libDaisy/src/hid/usb.h **** 
  40:../../libs/libDaisy/src/hid/usb.h ****     UsbHandle() {}
ARM GAS  C:\Users\skipi\AppData\Local\Temp\cc6ev9XQ.s 			page 5


  41:../../libs/libDaisy/src/hid/usb.h **** 
  42:../../libs/libDaisy/src/hid/usb.h ****     ~UsbHandle() {}
  50              		.loc 4 42 5 is_stmt 1 view .LVU5
  51              		.loc 4 42 5 is_stmt 0 view .LVU6
  52              	.LBE351:
  53              	.LBB352:
  54              	.LBI352:
  55              		.file 5 "../../libs/libDaisy/src/per/adc.h"
   1:../../libs/libDaisy/src/per/adc.h **** #pragma once
   2:../../libs/libDaisy/src/per/adc.h **** #ifndef DSY_ADC_H
   3:../../libs/libDaisy/src/per/adc.h **** #define DSY_ADC_H /**< Macro */
   4:../../libs/libDaisy/src/per/adc.h **** #include <stdint.h>
   5:../../libs/libDaisy/src/per/adc.h **** #include <stdlib.h>
   6:../../libs/libDaisy/src/per/adc.h **** #include "daisy_core.h"
   7:../../libs/libDaisy/src/per/adc.h **** #include "per/gpio.h"
   8:../../libs/libDaisy/src/per/adc.h **** 
   9:../../libs/libDaisy/src/per/adc.h **** #define DSY_ADC_MAX_CHANNELS 16 /**< Maximum number of ADC channels */
  10:../../libs/libDaisy/src/per/adc.h **** 
  11:../../libs/libDaisy/src/per/adc.h **** namespace daisy
  12:../../libs/libDaisy/src/per/adc.h **** {
  13:../../libs/libDaisy/src/per/adc.h **** /** @addtogroup per_analog
  14:../../libs/libDaisy/src/per/adc.h ****     @{
  15:../../libs/libDaisy/src/per/adc.h **** */
  16:../../libs/libDaisy/src/per/adc.h **** 
  17:../../libs/libDaisy/src/per/adc.h **** /* While there may not be many configuration options here,
  18:../../libs/libDaisy/src/per/adc.h **** using a struct like this allows us to add more configuration
  19:../../libs/libDaisy/src/per/adc.h **** later without breaking existing functionality.
  20:../../libs/libDaisy/src/per/adc.h **** */
  21:../../libs/libDaisy/src/per/adc.h **** 
  22:../../libs/libDaisy/src/per/adc.h **** /** @brief   Configuration Structure for an ADC Channel 
  23:../../libs/libDaisy/src/per/adc.h ****  *  @details This can be used to configure a a single input, 
  24:../../libs/libDaisy/src/per/adc.h ****  *           or a multiplexed input, allowing up to 8 inputs on 
  25:../../libs/libDaisy/src/per/adc.h ****  *           one channel.
  26:../../libs/libDaisy/src/per/adc.h ****  *  @note    Sharing data lines to multiple muxes _is_ possible, but
  27:../../libs/libDaisy/src/per/adc.h ****  *           each channel sharing data lines must be set to the maximum
  28:../../libs/libDaisy/src/per/adc.h ****  *           number of channels, even if some multiplexers have fewer
  29:../../libs/libDaisy/src/per/adc.h ****  *           inputs connected.
  30:../../libs/libDaisy/src/per/adc.h **** */
  31:../../libs/libDaisy/src/per/adc.h **** struct AdcChannelConfig
  32:../../libs/libDaisy/src/per/adc.h **** {
  33:../../libs/libDaisy/src/per/adc.h ****     /** Which pin to use for multiplexing */
  34:../../libs/libDaisy/src/per/adc.h ****     enum MuxPin
  35:../../libs/libDaisy/src/per/adc.h ****     {
  36:../../libs/libDaisy/src/per/adc.h ****         MUX_SEL_0,    /**< & */
  37:../../libs/libDaisy/src/per/adc.h ****         MUX_SEL_1,    /**< & */
  38:../../libs/libDaisy/src/per/adc.h ****         MUX_SEL_2,    /**< & */
  39:../../libs/libDaisy/src/per/adc.h ****         MUX_SEL_LAST, /**< & */
  40:../../libs/libDaisy/src/per/adc.h ****     };
  41:../../libs/libDaisy/src/per/adc.h **** 
  42:../../libs/libDaisy/src/per/adc.h ****     /** \brief per channel conversion speed added to fixed time based on bitdepth, etc. */
  43:../../libs/libDaisy/src/per/adc.h ****     enum ConversionSpeed
  44:../../libs/libDaisy/src/per/adc.h ****     {
  45:../../libs/libDaisy/src/per/adc.h ****         SPEED_1CYCLES_5,
  46:../../libs/libDaisy/src/per/adc.h ****         SPEED_2CYCLES_5,
  47:../../libs/libDaisy/src/per/adc.h ****         SPEED_8CYCLES_5,
  48:../../libs/libDaisy/src/per/adc.h ****         SPEED_16CYCLES_5,
  49:../../libs/libDaisy/src/per/adc.h ****         SPEED_32CYCLES_5,
ARM GAS  C:\Users\skipi\AppData\Local\Temp\cc6ev9XQ.s 			page 6


  50:../../libs/libDaisy/src/per/adc.h ****         SPEED_64CYCLES_5,
  51:../../libs/libDaisy/src/per/adc.h ****         SPEED_387CYCLES_5,
  52:../../libs/libDaisy/src/per/adc.h ****         SPEED_810CYCLES_5,
  53:../../libs/libDaisy/src/per/adc.h ****     };
  54:../../libs/libDaisy/src/per/adc.h **** 
  55:../../libs/libDaisy/src/per/adc.h ****     /** Initializes a single ADC pin as an ADC. 
  56:../../libs/libDaisy/src/per/adc.h ****     \param pin Pin to init.
  57:../../libs/libDaisy/src/per/adc.h ****     \param speed conversion speed for this pin defaults to 8.5 cycles
  58:../../libs/libDaisy/src/per/adc.h ****      */
  59:../../libs/libDaisy/src/per/adc.h ****     void InitSingle(Pin pin, ConversionSpeed speed = SPEED_8CYCLES_5);
  60:../../libs/libDaisy/src/per/adc.h **** 
  61:../../libs/libDaisy/src/per/adc.h ****     /** 
  62:../../libs/libDaisy/src/per/adc.h ****     Initializes a single ADC pin as a Multiplexed ADC.
  63:../../libs/libDaisy/src/per/adc.h ****     Requires a CD405X Multiplexer connected to the pin.
  64:../../libs/libDaisy/src/per/adc.h ****     You only need to supply the mux pins that are required,
  65:../../libs/libDaisy/src/per/adc.h ****     e.g. a 4052 mux would only require mux_0 and mux_1.
  66:../../libs/libDaisy/src/per/adc.h ****     Internal Callbacks handle the pin addressing.
  67:../../libs/libDaisy/src/per/adc.h ****     \param adc_pin &
  68:../../libs/libDaisy/src/per/adc.h ****     \param mux_channels must be 1-8
  69:../../libs/libDaisy/src/per/adc.h ****     \param mux_0 First mux pin
  70:../../libs/libDaisy/src/per/adc.h ****     \param mux_1 Second mux pin
  71:../../libs/libDaisy/src/per/adc.h ****     \param mux_2 Third mux pin
  72:../../libs/libDaisy/src/per/adc.h ****     \param speed conversion speed for this pin defaults to 8.5 cycles
  73:../../libs/libDaisy/src/per/adc.h ****     */
  74:../../libs/libDaisy/src/per/adc.h ****     void InitMux(Pin             adc_pin,
  75:../../libs/libDaisy/src/per/adc.h ****                  size_t          mux_channels,
  76:../../libs/libDaisy/src/per/adc.h ****                  Pin             mux_0,
  77:../../libs/libDaisy/src/per/adc.h ****                  Pin             mux_1 = Pin(PORTX, 0),
  78:../../libs/libDaisy/src/per/adc.h ****                  Pin             mux_2 = Pin(PORTX, 0),
  79:../../libs/libDaisy/src/per/adc.h ****                  ConversionSpeed speed = SPEED_8CYCLES_5);
  80:../../libs/libDaisy/src/per/adc.h **** 
  81:../../libs/libDaisy/src/per/adc.h ****     GPIO            pin_;                   /**< & */
  82:../../libs/libDaisy/src/per/adc.h ****     GPIO            mux_pin_[MUX_SEL_LAST]; /**< & */
  83:../../libs/libDaisy/src/per/adc.h ****     uint8_t         mux_channels_;          /**< & */
  84:../../libs/libDaisy/src/per/adc.h ****     ConversionSpeed speed_;
  85:../../libs/libDaisy/src/per/adc.h **** };
  86:../../libs/libDaisy/src/per/adc.h **** 
  87:../../libs/libDaisy/src/per/adc.h **** /**
  88:../../libs/libDaisy/src/per/adc.h ****    @brief Handler for analog to digital conversion
  89:../../libs/libDaisy/src/per/adc.h **** */
  90:../../libs/libDaisy/src/per/adc.h **** class AdcHandle
  91:../../libs/libDaisy/src/per/adc.h **** {
  92:../../libs/libDaisy/src/per/adc.h ****   public:
  93:../../libs/libDaisy/src/per/adc.h ****     /** Supported oversampling amounts */
  94:../../libs/libDaisy/src/per/adc.h ****     enum OverSampling
  95:../../libs/libDaisy/src/per/adc.h ****     {
  96:../../libs/libDaisy/src/per/adc.h ****         OVS_NONE, /**< & */
  97:../../libs/libDaisy/src/per/adc.h ****         OVS_4,    /**< & */
  98:../../libs/libDaisy/src/per/adc.h ****         OVS_8,    /**< & */
  99:../../libs/libDaisy/src/per/adc.h ****         OVS_16,   /**< & */
 100:../../libs/libDaisy/src/per/adc.h ****         OVS_32,   /**< & */
 101:../../libs/libDaisy/src/per/adc.h ****         OVS_64,   /**< & */
 102:../../libs/libDaisy/src/per/adc.h ****         OVS_128,  /**< & */
 103:../../libs/libDaisy/src/per/adc.h ****         OVS_256,  /**< & */
 104:../../libs/libDaisy/src/per/adc.h ****         OVS_512,  /**< & */
 105:../../libs/libDaisy/src/per/adc.h ****         OVS_1024, /**< & */
 106:../../libs/libDaisy/src/per/adc.h ****         OVS_LAST, /**< & */
ARM GAS  C:\Users\skipi\AppData\Local\Temp\cc6ev9XQ.s 			page 7


 107:../../libs/libDaisy/src/per/adc.h ****     };
 108:../../libs/libDaisy/src/per/adc.h **** 
 109:../../libs/libDaisy/src/per/adc.h ****     AdcHandle() {}
 110:../../libs/libDaisy/src/per/adc.h ****     ~AdcHandle() {}
  56              		.loc 5 110 5 is_stmt 1 view .LVU7
  57              		.loc 5 110 5 is_stmt 0 view .LVU8
  58              	.LBE352:
  59              	.LBB353:
  60              	.LBI353:
  61              		.file 6 "../../libs/libDaisy/src/hid/audio.h"
   1:../../libs/libDaisy/src/hid/audio.h **** #ifndef DSY_AUDIO_H
   2:../../libs/libDaisy/src/hid/audio.h **** #define DSY_AUDIO_H /**< & */
   3:../../libs/libDaisy/src/hid/audio.h **** 
   4:../../libs/libDaisy/src/hid/audio.h **** #include "per/sai.h"
   5:../../libs/libDaisy/src/hid/audio.h **** 
   6:../../libs/libDaisy/src/hid/audio.h **** namespace daisy
   7:../../libs/libDaisy/src/hid/audio.h **** {
   8:../../libs/libDaisy/src/hid/audio.h **** /** @brief Audio Engine Handle
   9:../../libs/libDaisy/src/hid/audio.h ****  *  @ingroup audio 
  10:../../libs/libDaisy/src/hid/audio.h ****  *  @details This class allows for higher level access to an audio engine.
  11:../../libs/libDaisy/src/hid/audio.h ****  *           If you're using a SOM like the DaisySeed or DaisyPatchSM (or any 
  12:../../libs/libDaisy/src/hid/audio.h ****  *            board that includes one of those objects) then the intialization
  13:../../libs/libDaisy/src/hid/audio.h ****  *            is already taken  care of.
  14:../../libs/libDaisy/src/hid/audio.h ****  *           If you're setting up your own custom hardware, or need to make changes
  15:../../libs/libDaisy/src/hid/audio.h ****  *           you will have to take the following steps:
  16:../../libs/libDaisy/src/hid/audio.h ****  *             1. Create and Initialize an SaiHandle or two depending on your requirements
  17:../../libs/libDaisy/src/hid/audio.h ****  *             2. Initialize the Audio Handle with the desired settings and the Initialized SaiHand
  18:../../libs/libDaisy/src/hid/audio.h ****  *             3. If the connected codec requires special configuration or initialization, do so
  19:../../libs/libDaisy/src/hid/audio.h ****  *             4. Write a callback method using either the AudioCallback or the InterleavingAudioCa
  20:../../libs/libDaisy/src/hid/audio.h ****  *             5. Start the Audio using one of the StartAudio function
  21:../../libs/libDaisy/src/hid/audio.h ****  */
  22:../../libs/libDaisy/src/hid/audio.h **** class AudioHandle
  23:../../libs/libDaisy/src/hid/audio.h **** {
  24:../../libs/libDaisy/src/hid/audio.h ****   public:
  25:../../libs/libDaisy/src/hid/audio.h ****     /** Manually configurable details about the Audio Engine */
  26:../../libs/libDaisy/src/hid/audio.h ****     /** TODO: Figure out how to get samplerate in here. */
  27:../../libs/libDaisy/src/hid/audio.h ****     struct Config
  28:../../libs/libDaisy/src/hid/audio.h ****     {
  29:../../libs/libDaisy/src/hid/audio.h ****         /** number of samples to process per callback */
  30:../../libs/libDaisy/src/hid/audio.h ****         size_t blocksize = 48;
  31:../../libs/libDaisy/src/hid/audio.h **** 
  32:../../libs/libDaisy/src/hid/audio.h ****         /**< Sample rate of audio */
  33:../../libs/libDaisy/src/hid/audio.h ****         SaiHandle::Config::SampleRate samplerate
  34:../../libs/libDaisy/src/hid/audio.h ****             = SaiHandle::Config::SampleRate::SAI_48KHZ;
  35:../../libs/libDaisy/src/hid/audio.h **** 
  36:../../libs/libDaisy/src/hid/audio.h ****         /** factor for adjustment before and after callback for hardware that may have extra headro
  37:../../libs/libDaisy/src/hid/audio.h ****         float postgain = 1.f;
  38:../../libs/libDaisy/src/hid/audio.h **** 
  39:../../libs/libDaisy/src/hid/audio.h ****         /** factor for additional one-sided compensation to audio path for hardware that may
  40:../../libs/libDaisy/src/hid/audio.h ****          *  have unequal input/output ranges
  41:../../libs/libDaisy/src/hid/audio.h ****          */
  42:../../libs/libDaisy/src/hid/audio.h ****         float output_compensation = 1.f;
  43:../../libs/libDaisy/src/hid/audio.h ****     };
  44:../../libs/libDaisy/src/hid/audio.h **** 
  45:../../libs/libDaisy/src/hid/audio.h ****     enum class Result
  46:../../libs/libDaisy/src/hid/audio.h ****     {
  47:../../libs/libDaisy/src/hid/audio.h ****         OK,
ARM GAS  C:\Users\skipi\AppData\Local\Temp\cc6ev9XQ.s 			page 8


  48:../../libs/libDaisy/src/hid/audio.h ****         ERR,
  49:../../libs/libDaisy/src/hid/audio.h ****     };
  50:../../libs/libDaisy/src/hid/audio.h **** 
  51:../../libs/libDaisy/src/hid/audio.h ****     /** Non-Interleaving input buffer
  52:../../libs/libDaisy/src/hid/audio.h ****      * Buffer arranged by float[chn][sample] 
  53:../../libs/libDaisy/src/hid/audio.h ****      * const so that the user can't modify the input
  54:../../libs/libDaisy/src/hid/audio.h ****      */
  55:../../libs/libDaisy/src/hid/audio.h ****     typedef const float* const* InputBuffer;
  56:../../libs/libDaisy/src/hid/audio.h **** 
  57:../../libs/libDaisy/src/hid/audio.h ****     /** Non-Interleaving output buffer
  58:../../libs/libDaisy/src/hid/audio.h ****      * Arranged by float[chn][sample] 
  59:../../libs/libDaisy/src/hid/audio.h ****      */
  60:../../libs/libDaisy/src/hid/audio.h ****     typedef float** OutputBuffer;
  61:../../libs/libDaisy/src/hid/audio.h **** 
  62:../../libs/libDaisy/src/hid/audio.h ****     /** Type for a Non-Interleaving audio callback 
  63:../../libs/libDaisy/src/hid/audio.h ****      * Non-Interleaving audio callbacks in daisy will be of this type
  64:../../libs/libDaisy/src/hid/audio.h ****      */
  65:../../libs/libDaisy/src/hid/audio.h ****     typedef void (*AudioCallback)(InputBuffer  in,
  66:../../libs/libDaisy/src/hid/audio.h ****                                   OutputBuffer out,
  67:../../libs/libDaisy/src/hid/audio.h ****                                   size_t       size);
  68:../../libs/libDaisy/src/hid/audio.h **** 
  69:../../libs/libDaisy/src/hid/audio.h ****     /** Interleaving Input buffer
  70:../../libs/libDaisy/src/hid/audio.h ****      ** audio is prepared as { L0, R0, L1, R1, . . . LN, RN }]
  71:../../libs/libDaisy/src/hid/audio.h ****      ** this is const, as the user shouldn't modify it
  72:../../libs/libDaisy/src/hid/audio.h ****     */
  73:../../libs/libDaisy/src/hid/audio.h ****     typedef const float* InterleavingInputBuffer;
  74:../../libs/libDaisy/src/hid/audio.h **** 
  75:../../libs/libDaisy/src/hid/audio.h ****     /** Interleaving Output buffer 
  76:../../libs/libDaisy/src/hid/audio.h ****      ** audio is prepared as { L0, R0, L1, R1, . . . LN, RN }
  77:../../libs/libDaisy/src/hid/audio.h ****     */
  78:../../libs/libDaisy/src/hid/audio.h ****     typedef float* InterleavingOutputBuffer;
  79:../../libs/libDaisy/src/hid/audio.h **** 
  80:../../libs/libDaisy/src/hid/audio.h ****     /** Interleaving Audio Callback 
  81:../../libs/libDaisy/src/hid/audio.h ****      * Interleaving audio callbacks in daisy must be of this type
  82:../../libs/libDaisy/src/hid/audio.h ****      */
  83:../../libs/libDaisy/src/hid/audio.h ****     typedef void (*InterleavingAudioCallback)(InterleavingInputBuffer  in,
  84:../../libs/libDaisy/src/hid/audio.h ****                                               InterleavingOutputBuffer out,
  85:../../libs/libDaisy/src/hid/audio.h ****                                               size_t                   size);
  86:../../libs/libDaisy/src/hid/audio.h **** 
  87:../../libs/libDaisy/src/hid/audio.h ****     AudioHandle() : pimpl_(nullptr) {}
  88:../../libs/libDaisy/src/hid/audio.h ****     ~AudioHandle() {}
  62              		.loc 6 88 5 is_stmt 1 view .LVU9
  63              		.loc 6 88 5 is_stmt 0 view .LVU10
  64              	.LBE353:
  65              		.loc 1 22 19 view .LVU11
  66 0000 7047     		bx	lr
  67              		.cfi_endproc
  68              	.LFE2671:
  70              		.weak	_ZN5daisy9DaisySeedD1Ev
  71              		.thumb_set _ZN5daisy9DaisySeedD1Ev,_ZN5daisy9DaisySeedD2Ev
  72 0002 00BF     		.section	.text._ZN7daisysp4AdsrD2Ev,"axG",%progbits,_ZN7daisysp4AdsrD5Ev,comdat
  73              		.align	1
  74              		.p2align 2,,3
  75              		.weak	_ZN7daisysp4AdsrD2Ev
  76              		.syntax unified
  77              		.thumb
  78              		.thumb_func
ARM GAS  C:\Users\skipi\AppData\Local\Temp\cc6ev9XQ.s 			page 9


  79              		.fpu fpv5-d16
  81              	_ZN7daisysp4AdsrD2Ev:
  82              	.LVL1:
  83              	.LFB2694:
  84              		.file 7 "../../libs/DaisySP/Source/Control/adsr.h"
   1:../../libs/DaisySP/Source/Control/adsr.h **** /*
   2:../../libs/DaisySP/Source/Control/adsr.h **** Copyright (c) 2020 Electrosmith, Corp, Paul Batchelor
   3:../../libs/DaisySP/Source/Control/adsr.h **** 
   4:../../libs/DaisySP/Source/Control/adsr.h **** Use of this source code is governed by an MIT-style
   5:../../libs/DaisySP/Source/Control/adsr.h **** license that can be found in the LICENSE file or at
   6:../../libs/DaisySP/Source/Control/adsr.h **** https://opensource.org/licenses/MIT.
   7:../../libs/DaisySP/Source/Control/adsr.h **** */
   8:../../libs/DaisySP/Source/Control/adsr.h **** 
   9:../../libs/DaisySP/Source/Control/adsr.h **** #pragma once
  10:../../libs/DaisySP/Source/Control/adsr.h **** #ifndef DSY_ADSR_H
  11:../../libs/DaisySP/Source/Control/adsr.h **** #define DSY_ADSR_H
  12:../../libs/DaisySP/Source/Control/adsr.h **** 
  13:../../libs/DaisySP/Source/Control/adsr.h **** #include <stdint.h>
  14:../../libs/DaisySP/Source/Control/adsr.h **** #ifdef __cplusplus
  15:../../libs/DaisySP/Source/Control/adsr.h **** 
  16:../../libs/DaisySP/Source/Control/adsr.h **** namespace daisysp
  17:../../libs/DaisySP/Source/Control/adsr.h **** {
  18:../../libs/DaisySP/Source/Control/adsr.h **** /** Distinct stages that the phase of the envelope can be located in.
  19:../../libs/DaisySP/Source/Control/adsr.h **** - IDLE   = located at phase location 0, and not currently running
  20:../../libs/DaisySP/Source/Control/adsr.h **** - ATTACK  = First segment of envelope where phase moves from 0 to 1
  21:../../libs/DaisySP/Source/Control/adsr.h **** - DECAY   = Second segment of envelope where phase moves from 1 to SUSTAIN value
  22:../../libs/DaisySP/Source/Control/adsr.h **** - RELEASE =     Fourth segment of envelop where phase moves from SUSTAIN to 0
  23:../../libs/DaisySP/Source/Control/adsr.h **** */
  24:../../libs/DaisySP/Source/Control/adsr.h **** enum
  25:../../libs/DaisySP/Source/Control/adsr.h **** {
  26:../../libs/DaisySP/Source/Control/adsr.h ****     ADSR_SEG_IDLE    = 0,
  27:../../libs/DaisySP/Source/Control/adsr.h ****     ADSR_SEG_ATTACK  = 1,
  28:../../libs/DaisySP/Source/Control/adsr.h ****     ADSR_SEG_DECAY   = 2,
  29:../../libs/DaisySP/Source/Control/adsr.h ****     ADSR_SEG_RELEASE = 4
  30:../../libs/DaisySP/Source/Control/adsr.h **** };
  31:../../libs/DaisySP/Source/Control/adsr.h **** 
  32:../../libs/DaisySP/Source/Control/adsr.h **** 
  33:../../libs/DaisySP/Source/Control/adsr.h **** /** adsr envelope module
  34:../../libs/DaisySP/Source/Control/adsr.h **** 
  35:../../libs/DaisySP/Source/Control/adsr.h **** Original author(s) : Paul Batchelor
  36:../../libs/DaisySP/Source/Control/adsr.h **** 
  37:../../libs/DaisySP/Source/Control/adsr.h **** Ported from Soundpipe by Ben Sergentanis, May 2020
  38:../../libs/DaisySP/Source/Control/adsr.h ****  
  39:../../libs/DaisySP/Source/Control/adsr.h **** Remake by Steffan DIedrichsen, May 2021
  40:../../libs/DaisySP/Source/Control/adsr.h **** */
  41:../../libs/DaisySP/Source/Control/adsr.h **** class Adsr
  42:../../libs/DaisySP/Source/Control/adsr.h **** {
  43:../../libs/DaisySP/Source/Control/adsr.h ****   public:
  44:../../libs/DaisySP/Source/Control/adsr.h ****     Adsr() {}
  45:../../libs/DaisySP/Source/Control/adsr.h ****     ~Adsr() {}
  85              		.loc 7 45 5 is_stmt 1 view -0
  86              		.cfi_startproc
  87              		@ args = 0, pretend = 0, frame = 0
  88              		@ frame_needed = 0, uses_anonymous_args = 0
  89              		@ link register save eliminated.
  90              		.loc 7 45 14 is_stmt 0 view .LVU13
  91 0000 7047     		bx	lr
ARM GAS  C:\Users\skipi\AppData\Local\Temp\cc6ev9XQ.s 			page 10


  92              		.cfi_endproc
  93              	.LFE2694:
  95              		.weak	_ZN7daisysp4AdsrD1Ev
  96              		.thumb_set _ZN7daisysp4AdsrD1Ev,_ZN7daisysp4AdsrD2Ev
  97              		.section	.text._ZN7daisysp10OscillatorD2Ev,"axG",%progbits,_ZN7daisysp10OscillatorD5Ev,comdat
  98              		.align	1
  99              		.p2align 2,,3
 100              		.weak	_ZN7daisysp10OscillatorD2Ev
 101              		.syntax unified
 102              		.thumb
 103              		.thumb_func
 104              		.fpu fpv5-d16
 106              	_ZN7daisysp10OscillatorD2Ev:
 107              	.LVL2:
 108              	.LFB4356:
 109              		.file 8 "../../libs/DaisySP/Source/Synthesis/oscillator.h"
   1:../../libs/DaisySP/Source/Synthesis/oscillator.h **** /*
   2:../../libs/DaisySP/Source/Synthesis/oscillator.h **** Copyright (c) 2020 Electrosmith, Corp
   3:../../libs/DaisySP/Source/Synthesis/oscillator.h **** 
   4:../../libs/DaisySP/Source/Synthesis/oscillator.h **** Use of this source code is governed by an MIT-style
   5:../../libs/DaisySP/Source/Synthesis/oscillator.h **** license that can be found in the LICENSE file or at
   6:../../libs/DaisySP/Source/Synthesis/oscillator.h **** https://opensource.org/licenses/MIT.
   7:../../libs/DaisySP/Source/Synthesis/oscillator.h **** */
   8:../../libs/DaisySP/Source/Synthesis/oscillator.h **** 
   9:../../libs/DaisySP/Source/Synthesis/oscillator.h **** #pragma once
  10:../../libs/DaisySP/Source/Synthesis/oscillator.h **** #ifndef DSY_OSCILLATOR_H
  11:../../libs/DaisySP/Source/Synthesis/oscillator.h **** #define DSY_OSCILLATOR_H
  12:../../libs/DaisySP/Source/Synthesis/oscillator.h **** #include <stdint.h>
  13:../../libs/DaisySP/Source/Synthesis/oscillator.h **** #include "Utility/dsp.h"
  14:../../libs/DaisySP/Source/Synthesis/oscillator.h **** #ifdef __cplusplus
  15:../../libs/DaisySP/Source/Synthesis/oscillator.h **** 
  16:../../libs/DaisySP/Source/Synthesis/oscillator.h **** namespace daisysp
  17:../../libs/DaisySP/Source/Synthesis/oscillator.h **** {
  18:../../libs/DaisySP/Source/Synthesis/oscillator.h **** /** Synthesis of several waveforms, including polyBLEP bandlimited waveforms.
  19:../../libs/DaisySP/Source/Synthesis/oscillator.h **** */
  20:../../libs/DaisySP/Source/Synthesis/oscillator.h **** class Oscillator
  21:../../libs/DaisySP/Source/Synthesis/oscillator.h **** {
  22:../../libs/DaisySP/Source/Synthesis/oscillator.h ****   public:
  23:../../libs/DaisySP/Source/Synthesis/oscillator.h ****     Oscillator() {}
  24:../../libs/DaisySP/Source/Synthesis/oscillator.h ****     ~Oscillator() {}
 110              		.loc 8 24 5 is_stmt 1 view -0
 111              		.cfi_startproc
 112              		@ args = 0, pretend = 0, frame = 0
 113              		@ frame_needed = 0, uses_anonymous_args = 0
 114              		@ link register save eliminated.
 115              		.loc 8 24 20 is_stmt 0 view .LVU15
 116 0000 7047     		bx	lr
 117              		.cfi_endproc
 118              	.LFE4356:
 120              		.weak	_ZN7daisysp10OscillatorD1Ev
 121              		.thumb_set _ZN7daisysp10OscillatorD1Ev,_ZN7daisysp10OscillatorD2Ev
 122              		.section	.text._ZN5daisy6Mpr121INS_18Mpr121I2CTransportEED2Ev,"axG",%progbits,_ZN5daisy6Mpr121INS_
 123              		.align	1
 124              		.p2align 2,,3
 125              		.weak	_ZN5daisy6Mpr121INS_18Mpr121I2CTransportEED2Ev
 126              		.syntax unified
 127              		.thumb
ARM GAS  C:\Users\skipi\AppData\Local\Temp\cc6ev9XQ.s 			page 11


 128              		.thumb_func
 129              		.fpu fpv5-d16
 131              	_ZN5daisy6Mpr121INS_18Mpr121I2CTransportEED2Ev:
 132              	.LVL3:
 133              	.LFB5431:
 134              		.file 9 "../../libs/libDaisy/src/dev/mpr121.h"
   1:../../libs/libDaisy/src/dev/mpr121.h **** #pragma once
   2:../../libs/libDaisy/src/dev/mpr121.h **** #ifndef DSY_MPR121_H
   3:../../libs/libDaisy/src/dev/mpr121.h **** #define DSY_MPR121_H
   4:../../libs/libDaisy/src/dev/mpr121.h **** 
   5:../../libs/libDaisy/src/dev/mpr121.h **** // The default I2C address
   6:../../libs/libDaisy/src/dev/mpr121.h **** #define MPR121_I2CADDR_DEFAULT 0x5A        ///< default I2C address
   7:../../libs/libDaisy/src/dev/mpr121.h **** #define MPR121_TOUCH_THRESHOLD_DEFAULT 2  ///< default touch threshold value
   8:../../libs/libDaisy/src/dev/mpr121.h **** #define MPR121_RELEASE_THRESHOLD_DEFAULT 1 ///< default relese threshold value
   9:../../libs/libDaisy/src/dev/mpr121.h **** 
  10:../../libs/libDaisy/src/dev/mpr121.h **** namespace daisy
  11:../../libs/libDaisy/src/dev/mpr121.h **** {
  12:../../libs/libDaisy/src/dev/mpr121.h **** /** @addtogroup external 
  13:../../libs/libDaisy/src/dev/mpr121.h ****     @{ 
  14:../../libs/libDaisy/src/dev/mpr121.h **** */
  15:../../libs/libDaisy/src/dev/mpr121.h **** 
  16:../../libs/libDaisy/src/dev/mpr121.h **** /** I2C Transport for MPR121 */
  17:../../libs/libDaisy/src/dev/mpr121.h **** class Mpr121I2CTransport
  18:../../libs/libDaisy/src/dev/mpr121.h **** {
  19:../../libs/libDaisy/src/dev/mpr121.h ****   public:
  20:../../libs/libDaisy/src/dev/mpr121.h ****     Mpr121I2CTransport() {}
  21:../../libs/libDaisy/src/dev/mpr121.h ****     ~Mpr121I2CTransport() {}
  22:../../libs/libDaisy/src/dev/mpr121.h **** 
  23:../../libs/libDaisy/src/dev/mpr121.h ****     struct Config
  24:../../libs/libDaisy/src/dev/mpr121.h ****     {
  25:../../libs/libDaisy/src/dev/mpr121.h ****         I2CHandle::Config::Peripheral periph;
  26:../../libs/libDaisy/src/dev/mpr121.h ****         I2CHandle::Config::Speed      speed;
  27:../../libs/libDaisy/src/dev/mpr121.h ****         Pin                           scl;
  28:../../libs/libDaisy/src/dev/mpr121.h ****         Pin                           sda;
  29:../../libs/libDaisy/src/dev/mpr121.h **** 
  30:../../libs/libDaisy/src/dev/mpr121.h ****         I2CHandle::Config::Mode mode;
  31:../../libs/libDaisy/src/dev/mpr121.h **** 
  32:../../libs/libDaisy/src/dev/mpr121.h ****         uint8_t dev_addr;
  33:../../libs/libDaisy/src/dev/mpr121.h **** 
  34:../../libs/libDaisy/src/dev/mpr121.h ****         Config()
  35:../../libs/libDaisy/src/dev/mpr121.h ****         {
  36:../../libs/libDaisy/src/dev/mpr121.h ****             periph = I2CHandle::Config::Peripheral::I2C_1;
  37:../../libs/libDaisy/src/dev/mpr121.h ****             speed  = I2CHandle::Config::Speed::I2C_400KHZ;
  38:../../libs/libDaisy/src/dev/mpr121.h **** 
  39:../../libs/libDaisy/src/dev/mpr121.h ****             scl = Pin(PORTB, 8);
  40:../../libs/libDaisy/src/dev/mpr121.h ****             sda = Pin(PORTB, 9);
  41:../../libs/libDaisy/src/dev/mpr121.h **** 
  42:../../libs/libDaisy/src/dev/mpr121.h ****             dev_addr = MPR121_I2CADDR_DEFAULT;
  43:../../libs/libDaisy/src/dev/mpr121.h ****         }
  44:../../libs/libDaisy/src/dev/mpr121.h ****     };
  45:../../libs/libDaisy/src/dev/mpr121.h **** 
  46:../../libs/libDaisy/src/dev/mpr121.h ****     /** \return Did the transaction error? i.e. Return true if error, false if ok */
  47:../../libs/libDaisy/src/dev/mpr121.h ****     inline bool Init(Config config)
  48:../../libs/libDaisy/src/dev/mpr121.h ****     {
  49:../../libs/libDaisy/src/dev/mpr121.h ****         config_ = config;
  50:../../libs/libDaisy/src/dev/mpr121.h **** 
  51:../../libs/libDaisy/src/dev/mpr121.h ****         I2CHandle::Config i2c_conf;
ARM GAS  C:\Users\skipi\AppData\Local\Temp\cc6ev9XQ.s 			page 12


  52:../../libs/libDaisy/src/dev/mpr121.h ****         i2c_conf.mode   = I2CHandle::Config::Mode::I2C_MASTER;
  53:../../libs/libDaisy/src/dev/mpr121.h ****         i2c_conf.periph = config.periph;
  54:../../libs/libDaisy/src/dev/mpr121.h ****         i2c_conf.speed  = config.speed;
  55:../../libs/libDaisy/src/dev/mpr121.h **** 
  56:../../libs/libDaisy/src/dev/mpr121.h ****         i2c_conf.pin_config.scl = config.scl;
  57:../../libs/libDaisy/src/dev/mpr121.h ****         i2c_conf.pin_config.sda = config.sda;
  58:../../libs/libDaisy/src/dev/mpr121.h **** 
  59:../../libs/libDaisy/src/dev/mpr121.h ****         return I2CHandle::Result::OK != i2c_.Init(i2c_conf);
  60:../../libs/libDaisy/src/dev/mpr121.h ****     }
  61:../../libs/libDaisy/src/dev/mpr121.h **** 
  62:../../libs/libDaisy/src/dev/mpr121.h ****     /** \return Did the transaction error? i.e. Return true if error, false if ok */
  63:../../libs/libDaisy/src/dev/mpr121.h ****     bool Write(uint8_t *data, uint16_t size)
  64:../../libs/libDaisy/src/dev/mpr121.h ****     {
  65:../../libs/libDaisy/src/dev/mpr121.h ****         return I2CHandle::Result::OK
  66:../../libs/libDaisy/src/dev/mpr121.h ****                != i2c_.TransmitBlocking(config_.dev_addr, data, size, 10);
  67:../../libs/libDaisy/src/dev/mpr121.h ****     }
  68:../../libs/libDaisy/src/dev/mpr121.h **** 
  69:../../libs/libDaisy/src/dev/mpr121.h ****     /** \return Did the transaction error? i.e. Return true if error, false if ok */
  70:../../libs/libDaisy/src/dev/mpr121.h ****     bool Read(uint8_t *data, uint16_t size)
  71:../../libs/libDaisy/src/dev/mpr121.h ****     {
  72:../../libs/libDaisy/src/dev/mpr121.h ****         return I2CHandle::Result::OK
  73:../../libs/libDaisy/src/dev/mpr121.h ****                != i2c_.ReceiveBlocking(config_.dev_addr, data, size, 10);
  74:../../libs/libDaisy/src/dev/mpr121.h ****     }
  75:../../libs/libDaisy/src/dev/mpr121.h ****     bool ReadMem(uint8_t *data, uint8_t memAddress, uint16_t memSize)
  76:../../libs/libDaisy/src/dev/mpr121.h ****     {
  77:../../libs/libDaisy/src/dev/mpr121.h ****         return I2CHandle::Result::OK
  78:../../libs/libDaisy/src/dev/mpr121.h ****                != i2c_.Mem_read(
  79:../../libs/libDaisy/src/dev/mpr121.h ****                    config_.dev_addr, memAddress, 1, data, memSize, 10);
  80:../../libs/libDaisy/src/dev/mpr121.h ****     }
  81:../../libs/libDaisy/src/dev/mpr121.h **** 
  82:../../libs/libDaisy/src/dev/mpr121.h ****   private:
  83:../../libs/libDaisy/src/dev/mpr121.h ****     I2CHandle i2c_;
  84:../../libs/libDaisy/src/dev/mpr121.h ****     Config    config_;
  85:../../libs/libDaisy/src/dev/mpr121.h **** };
  86:../../libs/libDaisy/src/dev/mpr121.h **** 
  87:../../libs/libDaisy/src/dev/mpr121.h **** 
  88:../../libs/libDaisy/src/dev/mpr121.h **** /** @brief Device support for MPR121 12x Capacitive Touch Sensor
  89:../../libs/libDaisy/src/dev/mpr121.h ****     @author beserge
  90:../../libs/libDaisy/src/dev/mpr121.h ****     @date December 2021
  91:../../libs/libDaisy/src/dev/mpr121.h **** */
  92:../../libs/libDaisy/src/dev/mpr121.h **** template <typename Transport>
  93:../../libs/libDaisy/src/dev/mpr121.h **** class Mpr121
  94:../../libs/libDaisy/src/dev/mpr121.h **** {
  95:../../libs/libDaisy/src/dev/mpr121.h ****   public:
  96:../../libs/libDaisy/src/dev/mpr121.h ****     Mpr121() {}
  97:../../libs/libDaisy/src/dev/mpr121.h ****     ~Mpr121() {}
 135              		.loc 9 97 5 is_stmt 1 view -0
 136              		.cfi_startproc
 137              		@ args = 0, pretend = 0, frame = 0
 138              		@ frame_needed = 0, uses_anonymous_args = 0
 139              		@ link register save eliminated.
 140              	.LBB354:
 141              	.LBI354:
  21:../../libs/libDaisy/src/dev/mpr121.h **** 
 142              		.loc 9 21 5 view .LVU17
  21:../../libs/libDaisy/src/dev/mpr121.h **** 
 143              		.loc 9 21 5 is_stmt 0 view .LVU18
ARM GAS  C:\Users\skipi\AppData\Local\Temp\cc6ev9XQ.s 			page 13


 144              	.LBE354:
 145              		.loc 9 97 16 view .LVU19
 146 0000 7047     		bx	lr
 147              		.cfi_endproc
 148              	.LFE5431:
 150              		.weak	_ZN5daisy6Mpr121INS_18Mpr121I2CTransportEED1Ev
 151              		.thumb_set _ZN5daisy6Mpr121INS_18Mpr121I2CTransportEED1Ev,_ZN5daisy6Mpr121INS_18Mpr121I2CTransport
 152 0002 00BF     		.section	.text._ZL13AudioCallbackPKfPfj,"ax",%progbits
 153              		.align	1
 154              		.p2align 2,,3
 155              		.syntax unified
 156              		.thumb
 157              		.thumb_func
 158              		.fpu fpv5-d16
 160              	_ZL13AudioCallbackPKfPfj:
 161              	.LVL4:
 162              	.LFB4848:
 163              		.file 10 "main.cpp"
   1:main.cpp      **** #include "../../libs/libDaisy/src/daisy_seed.h"
   2:main.cpp      **** #include "../../libs/DaisySP/Source/daisysp.h"
   3:main.cpp      **** #include "../../Classes/Temperamento/PlantConditioner.h"
   4:main.cpp      **** #include "../../Classes/Effects/AnalogDelay/src/AnalogDelay.h"
   5:main.cpp      **** #include "../../Classes/SensorFilters/IIR/IIR.h"
   6:main.cpp      **** #include "../../Classes/SensorFilters/MF/MF.h"
   7:main.cpp      **** 
   8:main.cpp      **** #ifndef _BV
   9:main.cpp      **** #define _BV(bit) (1 << (bit))
  10:main.cpp      **** #endif
  11:main.cpp      **** 
  12:main.cpp      **** // DEBUG: Uncomment this line to enable serial printing via USB.
  13:main.cpp      **** // Keep commented for best audio performance.
  14:main.cpp      **** #define Debug 
  15:main.cpp      **** 
  16:main.cpp      **** #define ADC_CH 2
  17:main.cpp      **** 
  18:main.cpp      **** using namespace daisy;
  19:main.cpp      **** using namespace daisysp;
  20:main.cpp      **** 
  21:main.cpp      **** // --- GLOBAL OBJECTS ---
  22:main.cpp      **** daisy::Mpr121I2C::Config mpr121ObjConf;
  23:main.cpp      **** daisy::Mpr121I2C cap;
  24:main.cpp      **** DaisySeed hw;
  25:main.cpp      **** AdcChannelConfig adcConfig[ADC_CH];
  26:main.cpp      **** PlantConditioner pc;
  27:main.cpp      **** static Oscillator osc;
  28:main.cpp      **** static Adsr env;
  29:main.cpp      **** 
  30:main.cpp      **** // --- STATE VARIABLES ---
  31:main.cpp      **** volatile float target_freq = 440.0f; 
  32:main.cpp      **** bool gate = false;          
  33:main.cpp      **** uint16_t lastTouched = 0;   
  34:main.cpp      **** uint16_t currTouched = 0;   
  35:main.cpp      **** 
  36:main.cpp      **** float curve_type = 1.0f;
  37:main.cpp      **** float delta_max = 50.0f;
  38:main.cpp      **** 
  39:main.cpp      **** // --- AUDIO CALLBACK (High Priority) ---
ARM GAS  C:\Users\skipi\AppData\Local\Temp\cc6ev9XQ.s 			page 14


  40:main.cpp      **** static void AudioCallback(AudioHandle::InterleavingInputBuffer in, AudioHandle::InterleavingOutputB
  41:main.cpp      **** {
 164              		.loc 10 41 1 is_stmt 1 view -0
 165              		.cfi_startproc
 166              		@ args = 0, pretend = 0, frame = 0
 167              		@ frame_needed = 0, uses_anonymous_args = 0
  42:main.cpp      ****     float envOut, oscOut;
 168              		.loc 10 42 5 view .LVU21
  43:main.cpp      ****     for (size_t i = 0; i < size; i += 2)
 169              		.loc 10 43 5 view .LVU22
 170              	.LBB355:
 171              		.loc 10 43 26 view .LVU23
 172 0000 72B3     		cbz	r2, .L14
 173 0002 013A     		subs	r2, r2, #1
 174              	.LVL5:
 175              		.loc 10 43 26 is_stmt 0 view .LVU24
 176              	.LBE355:
  41:main.cpp      ****     float envOut, oscOut;
 177              		.loc 10 41 1 view .LVU25
 178 0004 2DE9F843 		push	{r3, r4, r5, r6, r7, r8, r9, lr}
 179              		.cfi_def_cfa_offset 32
 180              		.cfi_offset 3, -32
 181              		.cfi_offset 4, -28
 182              		.cfi_offset 5, -24
 183              		.cfi_offset 6, -20
 184              		.cfi_offset 7, -16
 185              		.cfi_offset 8, -12
 186              		.cfi_offset 9, -8
 187              		.cfi_offset 14, -4
 188 0008 0C46     		mov	r4, r1
 189              	.LBB364:
 190              		.loc 10 43 26 view .LVU26
 191 000a 0026     		movs	r6, #0
 192 000c DFF86080 		ldr	r8, .L17+12
 193 0010 5708     		lsrs	r7, r2, #1
 194 0012 144D     		ldr	r5, .L17
 195 0014 DFF85C90 		ldr	r9, .L17+16
 196              	.LVL6:
 197              	.L8:
  44:main.cpp      ****     {
  45:main.cpp      ****         // 1. FREQUENCY CONTROL
  46:main.cpp      ****         osc.SetFreq(target_freq);
 198              		.loc 10 46 9 is_stmt 1 discriminator 2 view .LVU27
 199              		.loc 10 46 20 is_stmt 0 discriminator 2 view .LVU28
 200 0018 98ED000A 		vldr.32	s0, [r8]
 201              	.LVL7:
 202              	.LBB356:
 203              	.LBI356:
  25:../../libs/DaisySP/Source/Synthesis/oscillator.h ****     /** Choices for output waveforms, POLYBLEP are appropriately labeled. Others are naive forms.
  26:../../libs/DaisySP/Source/Synthesis/oscillator.h ****     */
  27:../../libs/DaisySP/Source/Synthesis/oscillator.h ****     enum
  28:../../libs/DaisySP/Source/Synthesis/oscillator.h ****     {
  29:../../libs/DaisySP/Source/Synthesis/oscillator.h ****         WAVE_SIN,
  30:../../libs/DaisySP/Source/Synthesis/oscillator.h ****         WAVE_TRI,
  31:../../libs/DaisySP/Source/Synthesis/oscillator.h ****         WAVE_SAW,
  32:../../libs/DaisySP/Source/Synthesis/oscillator.h ****         WAVE_RAMP,
  33:../../libs/DaisySP/Source/Synthesis/oscillator.h ****         WAVE_SQUARE,
ARM GAS  C:\Users\skipi\AppData\Local\Temp\cc6ev9XQ.s 			page 15


  34:../../libs/DaisySP/Source/Synthesis/oscillator.h ****         WAVE_POLYBLEP_TRI,
  35:../../libs/DaisySP/Source/Synthesis/oscillator.h ****         WAVE_POLYBLEP_SAW,
  36:../../libs/DaisySP/Source/Synthesis/oscillator.h ****         WAVE_POLYBLEP_SQUARE,
  37:../../libs/DaisySP/Source/Synthesis/oscillator.h ****         WAVE_LAST,
  38:../../libs/DaisySP/Source/Synthesis/oscillator.h ****     };
  39:../../libs/DaisySP/Source/Synthesis/oscillator.h **** 
  40:../../libs/DaisySP/Source/Synthesis/oscillator.h **** 
  41:../../libs/DaisySP/Source/Synthesis/oscillator.h ****     /** Initializes the Oscillator
  42:../../libs/DaisySP/Source/Synthesis/oscillator.h **** 
  43:../../libs/DaisySP/Source/Synthesis/oscillator.h ****         \param sample_rate - sample rate of the audio engine being run, and the frequency that the 
  44:../../libs/DaisySP/Source/Synthesis/oscillator.h **** 
  45:../../libs/DaisySP/Source/Synthesis/oscillator.h ****         Defaults:
  46:../../libs/DaisySP/Source/Synthesis/oscillator.h ****         - freq_ = 100 Hz
  47:../../libs/DaisySP/Source/Synthesis/oscillator.h ****         - amp_ = 0.5
  48:../../libs/DaisySP/Source/Synthesis/oscillator.h ****         - waveform_ = sine wave.
  49:../../libs/DaisySP/Source/Synthesis/oscillator.h ****     */
  50:../../libs/DaisySP/Source/Synthesis/oscillator.h ****     void Init(float sample_rate)
  51:../../libs/DaisySP/Source/Synthesis/oscillator.h ****     {
  52:../../libs/DaisySP/Source/Synthesis/oscillator.h ****         sr_        = sample_rate;
  53:../../libs/DaisySP/Source/Synthesis/oscillator.h ****         sr_recip_  = 1.0f / sample_rate;
  54:../../libs/DaisySP/Source/Synthesis/oscillator.h ****         freq_      = 100.0f;
  55:../../libs/DaisySP/Source/Synthesis/oscillator.h ****         amp_       = 0.5f;
  56:../../libs/DaisySP/Source/Synthesis/oscillator.h ****         pw_        = 0.5f;
  57:../../libs/DaisySP/Source/Synthesis/oscillator.h ****         phase_     = 0.0f;
  58:../../libs/DaisySP/Source/Synthesis/oscillator.h ****         phase_inc_ = CalcPhaseInc(freq_);
  59:../../libs/DaisySP/Source/Synthesis/oscillator.h ****         waveform_  = WAVE_SIN;
  60:../../libs/DaisySP/Source/Synthesis/oscillator.h ****         eoc_       = true;
  61:../../libs/DaisySP/Source/Synthesis/oscillator.h ****         eor_       = true;
  62:../../libs/DaisySP/Source/Synthesis/oscillator.h ****     }
  63:../../libs/DaisySP/Source/Synthesis/oscillator.h **** 
  64:../../libs/DaisySP/Source/Synthesis/oscillator.h **** 
  65:../../libs/DaisySP/Source/Synthesis/oscillator.h ****     /** Changes the frequency of the Oscillator, and recalculates phase increment.
  66:../../libs/DaisySP/Source/Synthesis/oscillator.h ****     */
  67:../../libs/DaisySP/Source/Synthesis/oscillator.h ****     inline void SetFreq(const float f)
 204              		.loc 8 67 17 is_stmt 1 discriminator 2 view .LVU29
 205              	.LBB357:
  68:../../libs/DaisySP/Source/Synthesis/oscillator.h ****     {
  69:../../libs/DaisySP/Source/Synthesis/oscillator.h ****         freq_      = f;
 206              		.loc 8 69 9 discriminator 2 view .LVU30
  70:../../libs/DaisySP/Source/Synthesis/oscillator.h ****         phase_inc_ = CalcPhaseInc(f);
 207              		.loc 8 70 34 is_stmt 0 discriminator 2 view .LVU31
 208 001c 1148     		ldr	r0, .L17
  69:../../libs/DaisySP/Source/Synthesis/oscillator.h ****         phase_inc_ = CalcPhaseInc(f);
 209              		.loc 8 69 20 discriminator 2 view .LVU32
 210 001e 85ED020A 		vstr.32	s0, [r5, #8]
 211              		.loc 8 70 9 is_stmt 1 discriminator 2 view .LVU33
 212              		.loc 8 70 34 is_stmt 0 discriminator 2 view .LVU34
 213 0022 FFF7FEFF 		bl	_ZN7daisysp10Oscillator12CalcPhaseIncEf
 214              	.LVL8:
 215              		.loc 8 70 34 discriminator 2 view .LVU35
 216              	.LBE357:
 217              	.LBE356:
  47:main.cpp      **** 
  48:main.cpp      ****         // 2. ENVELOPE GENERATION
  49:main.cpp      ****         envOut = env.Process(gate);
 218              		.loc 10 49 29 discriminator 2 view .LVU36
 219 0026 99F80010 		ldrb	r1, [r9]	@ zero_extendqisi2
ARM GAS  C:\Users\skipi\AppData\Local\Temp\cc6ev9XQ.s 			page 16


 220 002a 0F48     		ldr	r0, .L17+4
 221              	.LBB359:
 222              	.LBB358:
 223              		.loc 8 70 20 discriminator 2 view .LVU37
 224 002c 85ED070A 		vstr.32	s0, [r5, #28]
 225              	.LVL9:
 226              		.loc 8 70 20 discriminator 2 view .LVU38
 227              	.LBE358:
 228              	.LBE359:
 229              		.loc 10 49 9 is_stmt 1 discriminator 2 view .LVU39
 230              		.loc 10 49 29 is_stmt 0 discriminator 2 view .LVU40
 231 0030 FFF7FEFF 		bl	_ZN7daisysp4Adsr7ProcessEb
 232              	.LVL10:
  50:main.cpp      ****         
  51:main.cpp      ****         // 3. GAIN STAGING
  52:main.cpp      ****         osc.SetAmp(envOut * 0.85f); 
 233              		.loc 10 52 9 is_stmt 1 discriminator 2 view .LVU41
 234              	.LBB360:
 235              	.LBI360:
  71:../../libs/DaisySP/Source/Synthesis/oscillator.h ****     }
  72:../../libs/DaisySP/Source/Synthesis/oscillator.h **** 
  73:../../libs/DaisySP/Source/Synthesis/oscillator.h **** 
  74:../../libs/DaisySP/Source/Synthesis/oscillator.h ****     /** Sets the amplitude of the waveform.
  75:../../libs/DaisySP/Source/Synthesis/oscillator.h ****     */
  76:../../libs/DaisySP/Source/Synthesis/oscillator.h ****     inline void SetAmp(const float a) { amp_ = a; }
 236              		.loc 8 76 17 discriminator 2 view .LVU42
 237              	.LBB361:
 238              		.loc 8 76 41 discriminator 2 view .LVU43
 239              	.LBE361:
 240              	.LBE360:
 241              		.loc 10 52 19 is_stmt 0 discriminator 2 view .LVU44
 242 0034 DFED0D7A 		vldr.32	s15, .L17+8
  53:main.cpp      **** 
  54:main.cpp      ****         // 4. OSCILLATOR PROCESSING
  55:main.cpp      ****         oscOut = osc.Process();
 243              		.loc 10 55 29 discriminator 2 view .LVU45
 244 0038 0A48     		ldr	r0, .L17
  52:main.cpp      **** 
 245              		.loc 10 52 19 discriminator 2 view .LVU46
 246 003a 20EE270A 		vmul.f32	s0, s0, s15
 247              	.LVL11:
 248              	.LBB363:
 249              	.LBB362:
 250              		.loc 8 76 46 discriminator 2 view .LVU47
 251 003e 85ED010A 		vstr.32	s0, [r5, #4]
 252              	.LVL12:
 253              		.loc 8 76 46 discriminator 2 view .LVU48
 254              	.LBE362:
 255              	.LBE363:
 256              		.loc 10 55 9 is_stmt 1 discriminator 2 view .LVU49
 257              		.loc 10 55 29 is_stmt 0 discriminator 2 view .LVU50
 258 0042 FFF7FEFF 		bl	_ZN7daisysp10Oscillator7ProcessEv
 259              	.LVL13:
  56:main.cpp      ****         
  57:main.cpp      ****         out[i] = out[i + 1] = oscOut;
 260              		.loc 10 57 9 is_stmt 1 discriminator 2 view .LVU51
 261              		.loc 10 57 16 is_stmt 0 discriminator 2 view .LVU52
ARM GAS  C:\Users\skipi\AppData\Local\Temp\cc6ev9XQ.s 			page 17


 262 0046 2246     		mov	r2, r4
  43:main.cpp      ****     {
 263              		.loc 10 43 26 discriminator 2 view .LVU53
 264 0048 B742     		cmp	r7, r6
 265              		.loc 10 57 29 discriminator 2 view .LVU54
 266 004a 84ED010A 		vstr.32	s0, [r4, #4]
  43:main.cpp      ****     {
 267              		.loc 10 43 26 discriminator 2 view .LVU55
 268 004e 06F10106 		add	r6, r6, #1
 269              	.LVL14:
 270              		.loc 10 57 16 discriminator 2 view .LVU56
 271 0052 04F10804 		add	r4, r4, #8
 272 0056 82ED000A 		vstr.32	s0, [r2]
  43:main.cpp      ****     {
 273              		.loc 10 43 5 is_stmt 1 discriminator 2 view .LVU57
 274              	.LVL15:
  43:main.cpp      ****     {
 275              		.loc 10 43 26 discriminator 2 view .LVU58
 276 005a DDD1     		bne	.L8
 277              	.LBE364:
  58:main.cpp      ****     }
  59:main.cpp      **** }
 278              		.loc 10 59 1 is_stmt 0 view .LVU59
 279 005c BDE8F883 		pop	{r3, r4, r5, r6, r7, r8, r9, pc}
 280              	.LVL16:
 281              	.L14:
 282              		.cfi_def_cfa_offset 0
 283              		.cfi_restore 3
 284              		.cfi_restore 4
 285              		.cfi_restore 5
 286              		.cfi_restore 6
 287              		.cfi_restore 7
 288              		.cfi_restore 8
 289              		.cfi_restore 9
 290              		.cfi_restore 14
 291              		.loc 10 59 1 view .LVU60
 292 0060 7047     		bx	lr
 293              	.L18:
 294 0062 00BF     		.align	2
 295              	.L17:
 296 0064 00000000 		.word	.LANCHOR1
 297 0068 00000000 		.word	.LANCHOR3
 298 006c 9A99593F 		.word	1062836634
 299 0070 00000000 		.word	.LANCHOR0
 300 0074 00000000 		.word	.LANCHOR2
 301              		.cfi_endproc
 302              	.LFE4848:
 304              		.section	.text._ZN5daisy6Mpr121INS_18Mpr121I2CTransportEE13WriteRegisterEhh,"axG",%progbits,_ZN5da
 305              		.align	1
 306              		.p2align 2,,3
 307              		.weak	_ZN5daisy6Mpr121INS_18Mpr121I2CTransportEE13WriteRegisterEhh
 308              		.syntax unified
 309              		.thumb
 310              		.thumb_func
 311              		.fpu fpv5-d16
 313              	_ZN5daisy6Mpr121INS_18Mpr121I2CTransportEE13WriteRegisterEhh:
 314              	.LVL17:
ARM GAS  C:\Users\skipi\AppData\Local\Temp\cc6ev9XQ.s 			page 18


 315              	.LFB5285:
  98:../../libs/libDaisy/src/dev/mpr121.h **** 
  99:../../libs/libDaisy/src/dev/mpr121.h ****     struct Config
 100:../../libs/libDaisy/src/dev/mpr121.h ****     {
 101:../../libs/libDaisy/src/dev/mpr121.h ****         typename Transport::Config transport_config;
 102:../../libs/libDaisy/src/dev/mpr121.h ****         uint8_t                    touch_threshold;
 103:../../libs/libDaisy/src/dev/mpr121.h ****         uint8_t                    release_threshold;
 104:../../libs/libDaisy/src/dev/mpr121.h **** 
 105:../../libs/libDaisy/src/dev/mpr121.h ****         Config()
 106:../../libs/libDaisy/src/dev/mpr121.h ****         {
 107:../../libs/libDaisy/src/dev/mpr121.h ****             touch_threshold   = MPR121_TOUCH_THRESHOLD_DEFAULT;
 108:../../libs/libDaisy/src/dev/mpr121.h ****             release_threshold = MPR121_RELEASE_THRESHOLD_DEFAULT;
 109:../../libs/libDaisy/src/dev/mpr121.h ****         }
 110:../../libs/libDaisy/src/dev/mpr121.h ****     };
 111:../../libs/libDaisy/src/dev/mpr121.h **** 
 112:../../libs/libDaisy/src/dev/mpr121.h ****     enum Result
 113:../../libs/libDaisy/src/dev/mpr121.h ****     {
 114:../../libs/libDaisy/src/dev/mpr121.h ****         OK = 0,
 115:../../libs/libDaisy/src/dev/mpr121.h ****         ERR
 116:../../libs/libDaisy/src/dev/mpr121.h ****     };
 117:../../libs/libDaisy/src/dev/mpr121.h **** 
 118:../../libs/libDaisy/src/dev/mpr121.h ****     /** Initialize the MPR121 device
 119:../../libs/libDaisy/src/dev/mpr121.h ****         \param config Configuration settings
 120:../../libs/libDaisy/src/dev/mpr121.h ****     */
 121:../../libs/libDaisy/src/dev/mpr121.h ****     Result Init(Config config)
 122:../../libs/libDaisy/src/dev/mpr121.h ****     {
 123:../../libs/libDaisy/src/dev/mpr121.h ****         config_ = config;
 124:../../libs/libDaisy/src/dev/mpr121.h **** 
 125:../../libs/libDaisy/src/dev/mpr121.h ****         SetTransportErr(transport_.Init(config_.transport_config));
 126:../../libs/libDaisy/src/dev/mpr121.h **** 
 127:../../libs/libDaisy/src/dev/mpr121.h ****         // soft reset
 128:../../libs/libDaisy/src/dev/mpr121.h ****         WriteRegister(MPR121_SOFTRESET, 0x63);
 129:../../libs/libDaisy/src/dev/mpr121.h ****         System::Delay(1);
 130:../../libs/libDaisy/src/dev/mpr121.h **** 
 131:../../libs/libDaisy/src/dev/mpr121.h ****         WriteRegister(MPR121_ECR, 0x0);
 132:../../libs/libDaisy/src/dev/mpr121.h **** 
 133:../../libs/libDaisy/src/dev/mpr121.h ****         // this doesn't work for some reason...
 134:../../libs/libDaisy/src/dev/mpr121.h ****         // uint8_t c = ReadRegister8(MPR121_CONFIG2);
 135:../../libs/libDaisy/src/dev/mpr121.h **** 
 136:../../libs/libDaisy/src/dev/mpr121.h ****         // if(c != 0x24)
 137:../../libs/libDaisy/src/dev/mpr121.h ****         //     return ERR;
 138:../../libs/libDaisy/src/dev/mpr121.h **** 
 139:../../libs/libDaisy/src/dev/mpr121.h ****         SetThresholds(config_.touch_threshold, config_.release_threshold);
 140:../../libs/libDaisy/src/dev/mpr121.h ****         WriteRegister(MPR121_MHDR, 0x01);
 141:../../libs/libDaisy/src/dev/mpr121.h ****         WriteRegister(MPR121_NHDR, 0x01);
 142:../../libs/libDaisy/src/dev/mpr121.h ****         WriteRegister(MPR121_NCLR, 0x0E);
 143:../../libs/libDaisy/src/dev/mpr121.h ****         WriteRegister(MPR121_FDLR, 0x00);
 144:../../libs/libDaisy/src/dev/mpr121.h **** 
 145:../../libs/libDaisy/src/dev/mpr121.h ****         WriteRegister(MPR121_MHDF, 0x01);
 146:../../libs/libDaisy/src/dev/mpr121.h ****         WriteRegister(MPR121_NHDF, 0x05);
 147:../../libs/libDaisy/src/dev/mpr121.h ****         WriteRegister(MPR121_NCLF, 0x01);
 148:../../libs/libDaisy/src/dev/mpr121.h ****         WriteRegister(MPR121_FDLF, 0x00);
 149:../../libs/libDaisy/src/dev/mpr121.h **** 
 150:../../libs/libDaisy/src/dev/mpr121.h ****         WriteRegister(MPR121_NHDT, 0x00);
 151:../../libs/libDaisy/src/dev/mpr121.h ****         WriteRegister(MPR121_NCLT, 0x00);
 152:../../libs/libDaisy/src/dev/mpr121.h ****         WriteRegister(MPR121_FDLT, 0x00);
 153:../../libs/libDaisy/src/dev/mpr121.h **** 
ARM GAS  C:\Users\skipi\AppData\Local\Temp\cc6ev9XQ.s 			page 19


 154:../../libs/libDaisy/src/dev/mpr121.h ****         WriteRegister(MPR121_DEBOUNCE, 0);
 155:../../libs/libDaisy/src/dev/mpr121.h ****         WriteRegister(MPR121_CONFIG1, 0x10); // default, 16uA charge current
 156:../../libs/libDaisy/src/dev/mpr121.h ****         WriteRegister(MPR121_CONFIG2, 0x20); // 0.5uS encoding, 1ms period
 157:../../libs/libDaisy/src/dev/mpr121.h **** 
 158:../../libs/libDaisy/src/dev/mpr121.h ****         // autoconfig
 159:../../libs/libDaisy/src/dev/mpr121.h ****         // WriteRegister(MPR121_AUTOCONFIG0, 0x0B);
 160:../../libs/libDaisy/src/dev/mpr121.h **** 
 161:../../libs/libDaisy/src/dev/mpr121.h ****         // correct values for Vdd = 3.3V
 162:../../libs/libDaisy/src/dev/mpr121.h ****         // WriteRegister(MPR121_UPLIMIT, 200);     // ((Vdd - 0.7)/Vdd) * 256
 163:../../libs/libDaisy/src/dev/mpr121.h ****         // WriteRegister(MPR121_TARGETLIMIT, 180); // UPLIMIT * 0.9
 164:../../libs/libDaisy/src/dev/mpr121.h ****         // WriteRegister(MPR121_LOWLIMIT, 130);    // UPLIMIT * 0.65
 165:../../libs/libDaisy/src/dev/mpr121.h ****         // autoconfig
 166:../../libs/libDaisy/src/dev/mpr121.h **** 
 167:../../libs/libDaisy/src/dev/mpr121.h ****         // enable X electrodes and start MPR121
 168:../../libs/libDaisy/src/dev/mpr121.h ****         uint8_t ECR_SETTING
 169:../../libs/libDaisy/src/dev/mpr121.h ****             = 0x80
 170:../../libs/libDaisy/src/dev/mpr121.h ****               + 12; // 5 bits for baseline tracking & proximity disabled + X
 171:../../libs/libDaisy/src/dev/mpr121.h ****                     // amount of electrodes running (12)
 172:../../libs/libDaisy/src/dev/mpr121.h ****         WriteRegister(MPR121_ECR,
 173:../../libs/libDaisy/src/dev/mpr121.h ****                       ECR_SETTING); // start with above ECR setting
 174:../../libs/libDaisy/src/dev/mpr121.h **** 
 175:../../libs/libDaisy/src/dev/mpr121.h ****         return GetTransportErr();
 176:../../libs/libDaisy/src/dev/mpr121.h ****     }
 177:../../libs/libDaisy/src/dev/mpr121.h **** 
 178:../../libs/libDaisy/src/dev/mpr121.h ****     /** Set the touch and release thresholds for all 13 channels on the
 179:../../libs/libDaisy/src/dev/mpr121.h ****         device to the passed values.
 180:../../libs/libDaisy/src/dev/mpr121.h ****         \param      touch The touch threshold value from 0 to 255.
 181:../../libs/libDaisy/src/dev/mpr121.h ****         \param      release The release threshold from 0 to 255.
 182:../../libs/libDaisy/src/dev/mpr121.h ****     */
 183:../../libs/libDaisy/src/dev/mpr121.h ****     void SetThresholds(uint8_t touch, uint8_t release)
 184:../../libs/libDaisy/src/dev/mpr121.h ****     {
 185:../../libs/libDaisy/src/dev/mpr121.h ****         // set all thresholds (the same)
 186:../../libs/libDaisy/src/dev/mpr121.h ****         for(uint8_t i = 0; i < 12; i++)
 187:../../libs/libDaisy/src/dev/mpr121.h ****         {
 188:../../libs/libDaisy/src/dev/mpr121.h ****             WriteRegister(MPR121_TOUCHTH_0 + 2 * i, touch);
 189:../../libs/libDaisy/src/dev/mpr121.h ****             WriteRegister(MPR121_RELEASETH_0 + 2 * i, release);
 190:../../libs/libDaisy/src/dev/mpr121.h ****         }
 191:../../libs/libDaisy/src/dev/mpr121.h ****     }
 192:../../libs/libDaisy/src/dev/mpr121.h **** 
 193:../../libs/libDaisy/src/dev/mpr121.h **** 
 194:../../libs/libDaisy/src/dev/mpr121.h ****     /** Read the filtered data from channel t. The ADC raw data outputs
 195:../../libs/libDaisy/src/dev/mpr121.h ****         run through 3 levels of digital filtering to filter out the high
 196:../../libs/libDaisy/src/dev/mpr121.h ****         frequency and low frequency noise encountered. For detailed information on
 197:../../libs/libDaisy/src/dev/mpr121.h ****         this filtering see page 6 of the device datasheet.
 198:../../libs/libDaisy/src/dev/mpr121.h ****         \param      t the channel to read
 199:../../libs/libDaisy/src/dev/mpr121.h ****         \returns    the filtered reading as a 10 bit unsigned value
 200:../../libs/libDaisy/src/dev/mpr121.h ****     */
 201:../../libs/libDaisy/src/dev/mpr121.h ****     uint16_t FilteredData(uint8_t t)
 202:../../libs/libDaisy/src/dev/mpr121.h ****     {
 203:../../libs/libDaisy/src/dev/mpr121.h ****         if(t > 12)
 204:../../libs/libDaisy/src/dev/mpr121.h ****             return 0;
 205:../../libs/libDaisy/src/dev/mpr121.h ****         return ReadRegister16(MPR121_FILTDATA_0L + t * 2);
 206:../../libs/libDaisy/src/dev/mpr121.h ****     }
 207:../../libs/libDaisy/src/dev/mpr121.h **** 
 208:../../libs/libDaisy/src/dev/mpr121.h ****     /** Read the baseline value for the channel. The 3rd level filtered
 209:../../libs/libDaisy/src/dev/mpr121.h ****         result is internally 10bit but only high 8 bits are readable
 210:../../libs/libDaisy/src/dev/mpr121.h ****         from registers 0x1E~0x2A as the baseline value output for each channel.
ARM GAS  C:\Users\skipi\AppData\Local\Temp\cc6ev9XQ.s 			page 20


 211:../../libs/libDaisy/src/dev/mpr121.h ****         \param      t the channel to read.
 212:../../libs/libDaisy/src/dev/mpr121.h ****         \returns    the baseline data that was read
 213:../../libs/libDaisy/src/dev/mpr121.h ****     */
 214:../../libs/libDaisy/src/dev/mpr121.h ****     uint16_t BaselineData(uint8_t t)
 215:../../libs/libDaisy/src/dev/mpr121.h ****     {
 216:../../libs/libDaisy/src/dev/mpr121.h ****         if(t > 12)
 217:../../libs/libDaisy/src/dev/mpr121.h ****             return 0;
 218:../../libs/libDaisy/src/dev/mpr121.h ****         uint16_t bl = ReadRegister8(MPR121_BASELINE_0 + t);
 219:../../libs/libDaisy/src/dev/mpr121.h ****         return (bl << 2);
 220:../../libs/libDaisy/src/dev/mpr121.h ****     }
 221:../../libs/libDaisy/src/dev/mpr121.h **** 
 222:../../libs/libDaisy/src/dev/mpr121.h ****     /** Read the touch status of all 13 channels as bit values in a 12 bit integer.
 223:../../libs/libDaisy/src/dev/mpr121.h ****         \returns    a 12 bit integer with each bit corresponding to the touch status
 224:../../libs/libDaisy/src/dev/mpr121.h ****         of a sensor. For example, if bit 0 is set then channel 0 of the
 225:../../libs/libDaisy/src/dev/mpr121.h ****         device is currently deemed to be touched.
 226:../../libs/libDaisy/src/dev/mpr121.h ****     */
 227:../../libs/libDaisy/src/dev/mpr121.h ****     uint16_t Touched()
 228:../../libs/libDaisy/src/dev/mpr121.h ****     {
 229:../../libs/libDaisy/src/dev/mpr121.h ****         uint16_t t = ReadRegister16(MPR121_TOUCHSTATUS_L);
 230:../../libs/libDaisy/src/dev/mpr121.h ****         return t & 0x0FFF;
 231:../../libs/libDaisy/src/dev/mpr121.h ****     }
 232:../../libs/libDaisy/src/dev/mpr121.h **** 
 233:../../libs/libDaisy/src/dev/mpr121.h ****     /** Read the contents of an 8 bit device register.
 234:../../libs/libDaisy/src/dev/mpr121.h ****         \param      reg the register address to read from
 235:../../libs/libDaisy/src/dev/mpr121.h ****         \returns    the 8 bit value that was read.
 236:../../libs/libDaisy/src/dev/mpr121.h ****     */
 237:../../libs/libDaisy/src/dev/mpr121.h ****     uint8_t ReadRegister8(uint8_t reg)
 238:../../libs/libDaisy/src/dev/mpr121.h ****     {
 239:../../libs/libDaisy/src/dev/mpr121.h ****         uint8_t buff;
 240:../../libs/libDaisy/src/dev/mpr121.h ****         SetTransportErr(transport_.ReadMem(&buff, reg, 1));
 241:../../libs/libDaisy/src/dev/mpr121.h ****         return buff;
 242:../../libs/libDaisy/src/dev/mpr121.h ****     }
 243:../../libs/libDaisy/src/dev/mpr121.h **** 
 244:../../libs/libDaisy/src/dev/mpr121.h ****     uint16_t ReadRegister16(uint8_t reg)
 245:../../libs/libDaisy/src/dev/mpr121.h ****     {
 246:../../libs/libDaisy/src/dev/mpr121.h ****         uint16_t buff;
 247:../../libs/libDaisy/src/dev/mpr121.h ****         SetTransportErr(transport_.ReadMem((uint8_t *)&buff, reg, 2));
 248:../../libs/libDaisy/src/dev/mpr121.h **** 
 249:../../libs/libDaisy/src/dev/mpr121.h **** 
 250:../../libs/libDaisy/src/dev/mpr121.h ****         return buff;
 251:../../libs/libDaisy/src/dev/mpr121.h ****     }
 252:../../libs/libDaisy/src/dev/mpr121.h **** 
 253:../../libs/libDaisy/src/dev/mpr121.h ****     /** Writes 8-bits to the specified destination register
 254:../../libs/libDaisy/src/dev/mpr121.h ****         \param  reg the register address to write to
 255:../../libs/libDaisy/src/dev/mpr121.h ****         \param  value the value to write
 256:../../libs/libDaisy/src/dev/mpr121.h ****     */
 257:../../libs/libDaisy/src/dev/mpr121.h ****     void WriteRegister(uint8_t reg, uint8_t value)
 316              		.loc 9 257 10 is_stmt 1 view -0
 317              		.cfi_startproc
 318              		@ args = 0, pretend = 0, frame = 8
 319              		@ frame_needed = 0, uses_anonymous_args = 0
 320              		.loc 9 257 10 is_stmt 0 view .LVU62
 321 0000 2DE9F043 		push	{r4, r5, r6, r7, r8, r9, lr}
 322              		.cfi_def_cfa_offset 28
 323              		.cfi_offset 4, -28
 324              		.cfi_offset 5, -24
 325              		.cfi_offset 6, -20
ARM GAS  C:\Users\skipi\AppData\Local\Temp\cc6ev9XQ.s 			page 21


 326              		.cfi_offset 7, -16
 327              		.cfi_offset 8, -12
 328              		.cfi_offset 9, -8
 329              		.cfi_offset 14, -4
 258:../../libs/libDaisy/src/dev/mpr121.h ****     {
 259:../../libs/libDaisy/src/dev/mpr121.h ****         // MPR121 must be put in Stop Mode to write to most registers
 260:../../libs/libDaisy/src/dev/mpr121.h ****         bool stop_required = true;
 261:../../libs/libDaisy/src/dev/mpr121.h **** 
 262:../../libs/libDaisy/src/dev/mpr121.h ****         // first get the current set value of the MPR121_ECR register
 263:../../libs/libDaisy/src/dev/mpr121.h ****         uint8_t ecr_reg = MPR121_ECR;
 264:../../libs/libDaisy/src/dev/mpr121.h ****         uint8_t buff[2] = {ecr_reg, 0x00};
 330              		.loc 9 264 17 view .LVU63
 331 0004 0023     		movs	r3, #0
 257:../../libs/libDaisy/src/dev/mpr121.h ****     {
 332              		.loc 9 257 10 view .LVU64
 333 0006 85B0     		sub	sp, sp, #20
 334              		.cfi_def_cfa_offset 48
 335              	.LBB395:
 336              	.LBB396:
  66:../../libs/libDaisy/src/dev/mpr121.h ****     }
 337              		.loc 9 66 40 view .LVU65
 338 0008 00F11806 		add	r6, r0, #24
 339 000c 4FF00A08 		mov	r8, #10
 340              	.LBE396:
 341              	.LBE395:
 257:../../libs/libDaisy/src/dev/mpr121.h ****     {
 342              		.loc 9 257 10 view .LVU66
 343 0010 0446     		mov	r4, r0
 344              		.loc 9 264 17 view .LVU67
 345 0012 4FF05E09 		mov	r9, #94
 257:../../libs/libDaisy/src/dev/mpr121.h ****     {
 346              		.loc 9 257 10 view .LVU68
 347 0016 0D46     		mov	r5, r1
 348              		.loc 9 264 17 view .LVU69
 349 0018 8DF80D30 		strb	r3, [sp, #13]
 350              	.LBB400:
 351              	.LBB397:
  66:../../libs/libDaisy/src/dev/mpr121.h ****     }
 352              		.loc 9 66 40 view .LVU70
 353 001c CDF80080 		str	r8, [sp]
 354 0020 0123     		movs	r3, #1
 355 0022 90F82C10 		ldrb	r1, [r0, #44]	@ zero_extendqisi2
 356              	.LVL18:
  66:../../libs/libDaisy/src/dev/mpr121.h ****     }
 357              		.loc 9 66 40 view .LVU71
 358              	.LBE397:
 359              	.LBE400:
 257:../../libs/libDaisy/src/dev/mpr121.h ****     {
 360              		.loc 9 257 10 view .LVU72
 361 0026 1746     		mov	r7, r2
 362              	.LBB401:
 363              	.LBB398:
  66:../../libs/libDaisy/src/dev/mpr121.h ****     }
 364              		.loc 9 66 40 view .LVU73
 365 0028 3046     		mov	r0, r6
 366              	.LVL19:
  66:../../libs/libDaisy/src/dev/mpr121.h ****     }
ARM GAS  C:\Users\skipi\AppData\Local\Temp\cc6ev9XQ.s 			page 22


 367              		.loc 9 66 40 view .LVU74
 368 002a 03AA     		add	r2, sp, #12
 369              	.LVL20:
  66:../../libs/libDaisy/src/dev/mpr121.h ****     }
 370              		.loc 9 66 40 view .LVU75
 371              	.LBE398:
 372              	.LBE401:
 373              		.loc 9 264 17 view .LVU76
 374 002c 8DF80C90 		strb	r9, [sp, #12]
 375              	.LVL21:
 376              	.LBB402:
 377              	.LBI395:
  63:../../libs/libDaisy/src/dev/mpr121.h ****     {
 378              		.loc 9 63 10 is_stmt 1 view .LVU77
 379              	.LBB399:
  65:../../libs/libDaisy/src/dev/mpr121.h ****                != i2c_.TransmitBlocking(config_.dev_addr, data, size, 10);
 380              		.loc 9 65 9 view .LVU78
  66:../../libs/libDaisy/src/dev/mpr121.h ****     }
 381              		.loc 9 66 40 is_stmt 0 view .LVU79
 382 0030 FFF7FEFF 		bl	_ZN5daisy9I2CHandle16TransmitBlockingEtPhtm
 383              	.LVL22:
  66:../../libs/libDaisy/src/dev/mpr121.h ****     }
 384              		.loc 9 66 40 view .LVU80
 385              	.LBE399:
 386              	.LBE402:
 387              	.LBB403:
 388              	.LBI403:
 265:../../libs/libDaisy/src/dev/mpr121.h **** 
 266:../../libs/libDaisy/src/dev/mpr121.h ****         SetTransportErr(transport_.Write(buff, 1));
 267:../../libs/libDaisy/src/dev/mpr121.h **** 
 268:../../libs/libDaisy/src/dev/mpr121.h ****         uint8_t ecr_backup;
 269:../../libs/libDaisy/src/dev/mpr121.h ****         SetTransportErr(transport_.Read(&ecr_backup, 1));
 270:../../libs/libDaisy/src/dev/mpr121.h ****         if((reg == MPR121_ECR) || ((0x73 <= reg) && (reg <= 0x7A)))
 271:../../libs/libDaisy/src/dev/mpr121.h ****         {
 272:../../libs/libDaisy/src/dev/mpr121.h ****             stop_required = false;
 273:../../libs/libDaisy/src/dev/mpr121.h ****         }
 274:../../libs/libDaisy/src/dev/mpr121.h **** 
 275:../../libs/libDaisy/src/dev/mpr121.h ****         if(stop_required)
 276:../../libs/libDaisy/src/dev/mpr121.h ****         {
 277:../../libs/libDaisy/src/dev/mpr121.h ****             // clear this register to set stop mode
 278:../../libs/libDaisy/src/dev/mpr121.h ****             SetTransportErr(transport_.Write(buff, 2));
 279:../../libs/libDaisy/src/dev/mpr121.h ****         }
 280:../../libs/libDaisy/src/dev/mpr121.h **** 
 281:../../libs/libDaisy/src/dev/mpr121.h ****         buff[0] = reg;
 282:../../libs/libDaisy/src/dev/mpr121.h ****         buff[1] = value;
 283:../../libs/libDaisy/src/dev/mpr121.h ****         SetTransportErr(transport_.Write(buff, 2));
 284:../../libs/libDaisy/src/dev/mpr121.h **** 
 285:../../libs/libDaisy/src/dev/mpr121.h ****         if(stop_required)
 286:../../libs/libDaisy/src/dev/mpr121.h ****         {
 287:../../libs/libDaisy/src/dev/mpr121.h ****             // write back the previous set ECR settings
 288:../../libs/libDaisy/src/dev/mpr121.h ****             buff[0] = ecr_reg;
 289:../../libs/libDaisy/src/dev/mpr121.h ****             buff[1] = ecr_backup;
 290:../../libs/libDaisy/src/dev/mpr121.h ****             SetTransportErr(transport_.Write(buff, 2));
 291:../../libs/libDaisy/src/dev/mpr121.h ****         }
 292:../../libs/libDaisy/src/dev/mpr121.h ****     }
 293:../../libs/libDaisy/src/dev/mpr121.h **** 
 294:../../libs/libDaisy/src/dev/mpr121.h ****     /** Device register map */
ARM GAS  C:\Users\skipi\AppData\Local\Temp\cc6ev9XQ.s 			page 23


 295:../../libs/libDaisy/src/dev/mpr121.h ****     enum RegMap
 296:../../libs/libDaisy/src/dev/mpr121.h ****     {
 297:../../libs/libDaisy/src/dev/mpr121.h ****         MPR121_TOUCHSTATUS_L = 0x00,
 298:../../libs/libDaisy/src/dev/mpr121.h ****         MPR121_TOUCHSTATUS_H = 0x01,
 299:../../libs/libDaisy/src/dev/mpr121.h ****         MPR121_FILTDATA_0L   = 0x04,
 300:../../libs/libDaisy/src/dev/mpr121.h ****         MPR121_FILTDATA_0H   = 0x05,
 301:../../libs/libDaisy/src/dev/mpr121.h ****         MPR121_BASELINE_0    = 0x1E,
 302:../../libs/libDaisy/src/dev/mpr121.h ****         MPR121_MHDR          = 0x2B,
 303:../../libs/libDaisy/src/dev/mpr121.h ****         MPR121_NHDR          = 0x2C,
 304:../../libs/libDaisy/src/dev/mpr121.h ****         MPR121_NCLR          = 0x2D,
 305:../../libs/libDaisy/src/dev/mpr121.h ****         MPR121_FDLR          = 0x2E,
 306:../../libs/libDaisy/src/dev/mpr121.h ****         MPR121_MHDF          = 0x2F,
 307:../../libs/libDaisy/src/dev/mpr121.h ****         MPR121_NHDF          = 0x30,
 308:../../libs/libDaisy/src/dev/mpr121.h ****         MPR121_NCLF          = 0x31,
 309:../../libs/libDaisy/src/dev/mpr121.h ****         MPR121_FDLF          = 0x32,
 310:../../libs/libDaisy/src/dev/mpr121.h ****         MPR121_NHDT          = 0x33,
 311:../../libs/libDaisy/src/dev/mpr121.h ****         MPR121_NCLT          = 0x34,
 312:../../libs/libDaisy/src/dev/mpr121.h ****         MPR121_FDLT          = 0x35,
 313:../../libs/libDaisy/src/dev/mpr121.h **** 
 314:../../libs/libDaisy/src/dev/mpr121.h ****         MPR121_TOUCHTH_0    = 0x41,
 315:../../libs/libDaisy/src/dev/mpr121.h ****         MPR121_RELEASETH_0  = 0x42,
 316:../../libs/libDaisy/src/dev/mpr121.h ****         MPR121_DEBOUNCE     = 0x5B,
 317:../../libs/libDaisy/src/dev/mpr121.h ****         MPR121_CONFIG1      = 0x5C,
 318:../../libs/libDaisy/src/dev/mpr121.h ****         MPR121_CONFIG2      = 0x5D,
 319:../../libs/libDaisy/src/dev/mpr121.h ****         MPR121_CHARGECURR_0 = 0x5F,
 320:../../libs/libDaisy/src/dev/mpr121.h ****         MPR121_CHARGETIME_1 = 0x6C,
 321:../../libs/libDaisy/src/dev/mpr121.h ****         MPR121_ECR          = 0x5E,
 322:../../libs/libDaisy/src/dev/mpr121.h ****         MPR121_AUTOCONFIG0  = 0x7B,
 323:../../libs/libDaisy/src/dev/mpr121.h ****         MPR121_AUTOCONFIG1  = 0x7C,
 324:../../libs/libDaisy/src/dev/mpr121.h ****         MPR121_UPLIMIT      = 0x7D,
 325:../../libs/libDaisy/src/dev/mpr121.h ****         MPR121_LOWLIMIT     = 0x7E,
 326:../../libs/libDaisy/src/dev/mpr121.h ****         MPR121_TARGETLIMIT  = 0x7F,
 327:../../libs/libDaisy/src/dev/mpr121.h **** 
 328:../../libs/libDaisy/src/dev/mpr121.h ****         MPR121_GPIODIR    = 0x76,
 329:../../libs/libDaisy/src/dev/mpr121.h ****         MPR121_GPIOEN     = 0x77,
 330:../../libs/libDaisy/src/dev/mpr121.h ****         MPR121_GPIOSET    = 0x78,
 331:../../libs/libDaisy/src/dev/mpr121.h ****         MPR121_GPIOCLR    = 0x79,
 332:../../libs/libDaisy/src/dev/mpr121.h ****         MPR121_GPIOTOGGLE = 0x7A,
 333:../../libs/libDaisy/src/dev/mpr121.h **** 
 334:../../libs/libDaisy/src/dev/mpr121.h ****         MPR121_SOFTRESET = 0x80,
 335:../../libs/libDaisy/src/dev/mpr121.h ****     };
 336:../../libs/libDaisy/src/dev/mpr121.h **** 
 337:../../libs/libDaisy/src/dev/mpr121.h ****   private:
 338:../../libs/libDaisy/src/dev/mpr121.h ****     Config    config_;
 339:../../libs/libDaisy/src/dev/mpr121.h ****     Transport transport_;
 340:../../libs/libDaisy/src/dev/mpr121.h ****     bool      transport_error_;
 341:../../libs/libDaisy/src/dev/mpr121.h **** 
 342:../../libs/libDaisy/src/dev/mpr121.h ****     /** Set the global transport_error_ bool */
 343:../../libs/libDaisy/src/dev/mpr121.h ****     void SetTransportErr(bool err) { transport_error_ |= err; }
 389              		.loc 9 343 10 is_stmt 1 view .LVU81
 390              	.LBE403:
 391              	.LBB407:
 392              	.LBB408:
  73:../../libs/libDaisy/src/dev/mpr121.h ****     }
 393              		.loc 9 73 39 is_stmt 0 view .LVU82
 394 0034 CDF80080 		str	r8, [sp]
 395 0038 0DF10B02 		add	r2, sp, #11
ARM GAS  C:\Users\skipi\AppData\Local\Temp\cc6ev9XQ.s 			page 24


 396              	.LBE408:
 397              	.LBE407:
 398              	.LBB412:
 399              	.LBB404:
 400              		.loc 9 343 55 view .LVU83
 401 003c 94F83030 		ldrb	r3, [r4, #48]	@ zero_extendqisi2
 402              	.LBE404:
 403              	.LBE412:
 404              	.LBB413:
 405              	.LBB409:
  73:../../libs/libDaisy/src/dev/mpr121.h ****     }
 406              		.loc 9 73 39 view .LVU84
 407 0040 94F82C10 		ldrb	r1, [r4, #44]	@ zero_extendqisi2
 408              	.LBE409:
 409              	.LBE413:
 410              	.LBB414:
 411              	.LBB405:
 412              		.loc 9 343 55 view .LVU85
 413 0044 0028     		cmp	r0, #0
 414 0046 18BF     		it	ne
 415 0048 43F00103 		orrne	r3, r3, #1
 416              	.LBE405:
 417              	.LBE414:
 418              	.LBB415:
 419              	.LBB410:
  73:../../libs/libDaisy/src/dev/mpr121.h ****     }
 420              		.loc 9 73 39 view .LVU86
 421 004c 3046     		mov	r0, r6
 422              	.LVL23:
  73:../../libs/libDaisy/src/dev/mpr121.h ****     }
 423              		.loc 9 73 39 view .LVU87
 424              	.LBE410:
 425              	.LBE415:
 426              	.LBB416:
 427              	.LBB406:
 428              		.loc 9 343 55 view .LVU88
 429 004e 84F83030 		strb	r3, [r4, #48]
 430              	.LVL24:
 431              		.loc 9 343 55 view .LVU89
 432              	.LBE406:
 433              	.LBE416:
 434              	.LBB417:
 435              	.LBI407:
  70:../../libs/libDaisy/src/dev/mpr121.h ****     {
 436              		.loc 9 70 10 is_stmt 1 view .LVU90
 437              	.LBB411:
  72:../../libs/libDaisy/src/dev/mpr121.h ****                != i2c_.ReceiveBlocking(config_.dev_addr, data, size, 10);
 438              		.loc 9 72 9 view .LVU91
  73:../../libs/libDaisy/src/dev/mpr121.h ****     }
 439              		.loc 9 73 39 is_stmt 0 view .LVU92
 440 0052 0123     		movs	r3, #1
 441 0054 FFF7FEFF 		bl	_ZN5daisy9I2CHandle15ReceiveBlockingEtPhtm
 442              	.LVL25:
  73:../../libs/libDaisy/src/dev/mpr121.h ****     }
 443              		.loc 9 73 39 view .LVU93
 444              	.LBE411:
 445              	.LBE417:
ARM GAS  C:\Users\skipi\AppData\Local\Temp\cc6ev9XQ.s 			page 25


 446              	.LBB418:
 447              	.LBI418:
 448              		.loc 9 343 10 is_stmt 1 view .LVU94
 449              	.LBB419:
 450              		.loc 9 343 55 is_stmt 0 view .LVU95
 451 0058 94F83030 		ldrb	r3, [r4, #48]	@ zero_extendqisi2
 452 005c 0028     		cmp	r0, #0
 453 005e 18BF     		it	ne
 454 0060 43F00103 		orrne	r3, r3, #1
 455 0064 84F83030 		strb	r3, [r4, #48]
 456              	.LVL26:
 457              		.loc 9 343 55 view .LVU96
 458              	.LBE419:
 459              	.LBE418:
 270:../../libs/libDaisy/src/dev/mpr121.h ****         {
 460              		.loc 9 270 50 view .LVU97
 461 0068 A5F17303 		sub	r3, r5, #115
 270:../../libs/libDaisy/src/dev/mpr121.h ****         {
 462              		.loc 9 270 9 view .LVU98
 463 006c 072B     		cmp	r3, #7
 464 006e 01D9     		bls	.L20
 465 0070 4D45     		cmp	r5, r9
 466 0072 17D1     		bne	.L24
 467              	.L20:
 468              	.LVL27:
 469              	.LBB420:
 470              	.LBB421:
  66:../../libs/libDaisy/src/dev/mpr121.h ****     }
 471              		.loc 9 66 40 view .LVU99
 472 0074 0A23     		movs	r3, #10
 473 0076 03AA     		add	r2, sp, #12
 474 0078 3046     		mov	r0, r6
 475              	.LBE421:
 476              	.LBE420:
 281:../../libs/libDaisy/src/dev/mpr121.h ****         buff[1] = value;
 477              		.loc 9 281 17 view .LVU100
 478 007a 8DF80C50 		strb	r5, [sp, #12]
 479              	.LBB430:
 480              	.LBB422:
  66:../../libs/libDaisy/src/dev/mpr121.h ****     }
 481              		.loc 9 66 40 view .LVU101
 482 007e 0093     		str	r3, [sp]
 483 0080 0223     		movs	r3, #2
 484              	.LBE422:
 485              	.LBE430:
 282:../../libs/libDaisy/src/dev/mpr121.h ****         SetTransportErr(transport_.Write(buff, 2));
 486              		.loc 9 282 17 view .LVU102
 487 0082 8DF80D70 		strb	r7, [sp, #13]
 488              	.LVL28:
 489              	.LBB431:
 490              	.LBI420:
  63:../../libs/libDaisy/src/dev/mpr121.h ****     {
 491              		.loc 9 63 10 is_stmt 1 view .LVU103
 492              	.LBB423:
  65:../../libs/libDaisy/src/dev/mpr121.h ****                != i2c_.TransmitBlocking(config_.dev_addr, data, size, 10);
 493              		.loc 9 65 9 view .LVU104
 494              	.L23:
ARM GAS  C:\Users\skipi\AppData\Local\Temp\cc6ev9XQ.s 			page 26


  66:../../libs/libDaisy/src/dev/mpr121.h ****     }
 495              		.loc 9 66 40 is_stmt 0 view .LVU105
 496 0086 94F82C10 		ldrb	r1, [r4, #44]	@ zero_extendqisi2
 497 008a FFF7FEFF 		bl	_ZN5daisy9I2CHandle16TransmitBlockingEtPhtm
 498              	.LVL29:
  66:../../libs/libDaisy/src/dev/mpr121.h ****     }
 499              		.loc 9 66 40 view .LVU106
 500              	.LBE423:
 501              	.LBE431:
 502              	.LBB432:
 503              	.LBI432:
 504              		.loc 9 343 10 is_stmt 1 view .LVU107
 505              	.LBB433:
 506              		.loc 9 343 55 is_stmt 0 view .LVU108
 507 008e 94F83030 		ldrb	r3, [r4, #48]	@ zero_extendqisi2
 508 0092 0028     		cmp	r0, #0
 509 0094 18BF     		it	ne
 510 0096 43F00103 		orrne	r3, r3, #1
 511 009a 84F83030 		strb	r3, [r4, #48]
 512              	.LVL30:
 513              		.loc 9 343 55 view .LVU109
 514              	.LBE433:
 515              	.LBE432:
 292:../../libs/libDaisy/src/dev/mpr121.h **** 
 516              		.loc 9 292 5 view .LVU110
 517 009e 05B0     		add	sp, sp, #20
 518              		.cfi_remember_state
 519              		.cfi_def_cfa_offset 28
 520              		@ sp needed
 521 00a0 BDE8F083 		pop	{r4, r5, r6, r7, r8, r9, pc}
 522              	.LVL31:
 523              	.L24:
 524              		.cfi_restore_state
 525              	.LBB437:
 526              	.LBI437:
  63:../../libs/libDaisy/src/dev/mpr121.h ****     {
 527              		.loc 9 63 10 is_stmt 1 view .LVU111
 528              	.LBB438:
  65:../../libs/libDaisy/src/dev/mpr121.h ****                != i2c_.TransmitBlocking(config_.dev_addr, data, size, 10);
 529              		.loc 9 65 9 view .LVU112
  66:../../libs/libDaisy/src/dev/mpr121.h ****     }
 530              		.loc 9 66 40 is_stmt 0 view .LVU113
 531 00a4 0223     		movs	r3, #2
 532 00a6 03AA     		add	r2, sp, #12
 533              	.LVL32:
  66:../../libs/libDaisy/src/dev/mpr121.h ****     }
 534              		.loc 9 66 40 view .LVU114
 535 00a8 CDF80080 		str	r8, [sp]
 536 00ac 3046     		mov	r0, r6
 537 00ae 94F82C10 		ldrb	r1, [r4, #44]	@ zero_extendqisi2
 538 00b2 FFF7FEFF 		bl	_ZN5daisy9I2CHandle16TransmitBlockingEtPhtm
 539              	.LVL33:
  66:../../libs/libDaisy/src/dev/mpr121.h ****     }
 540              		.loc 9 66 40 view .LVU115
 541              	.LBE438:
 542              	.LBE437:
 543              	.LBB439:
ARM GAS  C:\Users\skipi\AppData\Local\Temp\cc6ev9XQ.s 			page 27


 544              	.LBI439:
 545              		.loc 9 343 10 is_stmt 1 view .LVU116
 546              	.LBE439:
 547              	.LBB443:
 548              	.LBB424:
  66:../../libs/libDaisy/src/dev/mpr121.h ****     }
 549              		.loc 9 66 40 is_stmt 0 view .LVU117
 550 00b6 CDF80080 		str	r8, [sp]
 551              	.LBE424:
 552              	.LBE443:
 553              	.LBB444:
 554              	.LBB440:
 555              		.loc 9 343 55 view .LVU118
 556 00ba 94F83030 		ldrb	r3, [r4, #48]	@ zero_extendqisi2
 557              	.LBE440:
 558              	.LBE444:
 559              	.LBB445:
 560              	.LBB425:
  66:../../libs/libDaisy/src/dev/mpr121.h ****     }
 561              		.loc 9 66 40 view .LVU119
 562 00be 03AA     		add	r2, sp, #12
 563 00c0 94F82C10 		ldrb	r1, [r4, #44]	@ zero_extendqisi2
 564              	.LBE425:
 565              	.LBE445:
 566              	.LBB446:
 567              	.LBB441:
 568              		.loc 9 343 55 view .LVU120
 569 00c4 0028     		cmp	r0, #0
 570 00c6 18BF     		it	ne
 571 00c8 43F00103 		orrne	r3, r3, #1
 572              	.LBE441:
 573              	.LBE446:
 574              	.LBB447:
 575              	.LBB426:
  66:../../libs/libDaisy/src/dev/mpr121.h ****     }
 576              		.loc 9 66 40 view .LVU121
 577 00cc 3046     		mov	r0, r6
 578              	.LVL34:
  66:../../libs/libDaisy/src/dev/mpr121.h ****     }
 579              		.loc 9 66 40 view .LVU122
 580              	.LBE426:
 581              	.LBE447:
 281:../../libs/libDaisy/src/dev/mpr121.h ****         buff[1] = value;
 582              		.loc 9 281 17 view .LVU123
 583 00ce 8DF80C50 		strb	r5, [sp, #12]
 584              	.LBB448:
 585              	.LBB442:
 586              		.loc 9 343 55 view .LVU124
 587 00d2 84F83030 		strb	r3, [r4, #48]
 588              	.LVL35:
 589              		.loc 9 343 55 view .LVU125
 590              	.LBE442:
 591              	.LBE448:
 592              	.LBB449:
  63:../../libs/libDaisy/src/dev/mpr121.h ****     {
 593              		.loc 9 63 10 is_stmt 1 view .LVU126
 594              	.LBB427:
ARM GAS  C:\Users\skipi\AppData\Local\Temp\cc6ev9XQ.s 			page 28


  65:../../libs/libDaisy/src/dev/mpr121.h ****                != i2c_.TransmitBlocking(config_.dev_addr, data, size, 10);
 595              		.loc 9 65 9 view .LVU127
  66:../../libs/libDaisy/src/dev/mpr121.h ****     }
 596              		.loc 9 66 40 is_stmt 0 view .LVU128
 597 00d6 0223     		movs	r3, #2
 598              	.LBE427:
 599              	.LBE449:
 282:../../libs/libDaisy/src/dev/mpr121.h ****         SetTransportErr(transport_.Write(buff, 2));
 600              		.loc 9 282 17 view .LVU129
 601 00d8 8DF80D70 		strb	r7, [sp, #13]
 602              	.LBB450:
 603              	.LBB428:
  66:../../libs/libDaisy/src/dev/mpr121.h ****     }
 604              		.loc 9 66 40 view .LVU130
 605 00dc FFF7FEFF 		bl	_ZN5daisy9I2CHandle16TransmitBlockingEtPhtm
 606              	.LVL36:
  66:../../libs/libDaisy/src/dev/mpr121.h ****     }
 607              		.loc 9 66 40 view .LVU131
 608              	.LBE428:
 609              	.LBE450:
 610              	.LBB451:
 611              	.LBB452:
 612 00e0 CDF80080 		str	r8, [sp]
 613              	.LBE452:
 614              	.LBE451:
 615              	.LBB457:
 616              	.LBB429:
 617 00e4 0546     		mov	r5, r0
 618              	.LVL37:
  66:../../libs/libDaisy/src/dev/mpr121.h ****     }
 619              		.loc 9 66 40 view .LVU132
 620              	.LBE429:
 621              	.LBE457:
 622              	.LBB458:
 623              		.loc 9 343 10 is_stmt 1 view .LVU133
 624              	.LBB434:
 625              		.loc 9 343 55 is_stmt 0 view .LVU134
 626 00e6 94F83010 		ldrb	r1, [r4, #48]	@ zero_extendqisi2
 627              	.LBE434:
 628              	.LBE458:
 629              	.LBB459:
 630              	.LBB453:
  66:../../libs/libDaisy/src/dev/mpr121.h ****     }
 631              		.loc 9 66 40 view .LVU135
 632 00ea 03AA     		add	r2, sp, #12
 633              	.LBE453:
 634              	.LBE459:
 289:../../libs/libDaisy/src/dev/mpr121.h ****             SetTransportErr(transport_.Write(buff, 2));
 635              		.loc 9 289 21 view .LVU136
 636 00ec 9DF80B30 		ldrb	r3, [sp, #11]	@ zero_extendqisi2
 637              	.LBB460:
 638              	.LBB454:
  66:../../libs/libDaisy/src/dev/mpr121.h ****     }
 639              		.loc 9 66 40 view .LVU137
 640 00f0 3046     		mov	r0, r6
 641              	.LVL38:
  66:../../libs/libDaisy/src/dev/mpr121.h ****     }
ARM GAS  C:\Users\skipi\AppData\Local\Temp\cc6ev9XQ.s 			page 29


 642              		.loc 9 66 40 view .LVU138
 643              	.LBE454:
 644              	.LBE460:
 645              	.LBB461:
 646              	.LBB435:
 647              		.loc 9 343 55 view .LVU139
 648 00f2 002D     		cmp	r5, #0
 649 00f4 18BF     		it	ne
 650 00f6 41F00101 		orrne	r1, r1, #1
 651              	.LBE435:
 652              	.LBE461:
 288:../../libs/libDaisy/src/dev/mpr121.h ****             buff[1] = ecr_backup;
 653              		.loc 9 288 21 view .LVU140
 654 00fa 8DF80C90 		strb	r9, [sp, #12]
 289:../../libs/libDaisy/src/dev/mpr121.h ****             SetTransportErr(transport_.Write(buff, 2));
 655              		.loc 9 289 21 view .LVU141
 656 00fe 8DF80D30 		strb	r3, [sp, #13]
 657              	.LBB462:
 658              	.LBB455:
  66:../../libs/libDaisy/src/dev/mpr121.h ****     }
 659              		.loc 9 66 40 view .LVU142
 660 0102 0223     		movs	r3, #2
 661              	.LBE455:
 662              	.LBE462:
 663              	.LBB463:
 664              	.LBB436:
 665              		.loc 9 343 55 view .LVU143
 666 0104 84F83010 		strb	r1, [r4, #48]
 667              	.LVL39:
 668              		.loc 9 343 55 view .LVU144
 669              	.LBE436:
 670              	.LBE463:
 671              	.LBB464:
 672              	.LBI451:
  63:../../libs/libDaisy/src/dev/mpr121.h ****     {
 673              		.loc 9 63 10 is_stmt 1 view .LVU145
 674              	.LBB456:
  65:../../libs/libDaisy/src/dev/mpr121.h ****                != i2c_.TransmitBlocking(config_.dev_addr, data, size, 10);
 675              		.loc 9 65 9 view .LVU146
 676 0108 BDE7     		b	.L23
 677              	.LBE456:
 678              	.LBE464:
 679              		.cfi_endproc
 680              	.LFE5285:
 682 010a 00BF     		.section	.rodata.main.str1.4,"aMS",%progbits,1
 683              		.align	2
 684              	.LC0:
 685 0000 4552524F 		.ascii	"ERROR: MPR121 not found.\000"
 685      523A204D 
 685      50523132 
 685      31206E6F 
 685      7420666F 
 686 0019 000000   		.align	2
 687              	.LC1:
 688 001c 4D505231 		.ascii	"MPR121 OK @ 400kHz\000"
 688      3231204F 
 688      4B204020 
ARM GAS  C:\Users\skipi\AppData\Local\Temp\cc6ev9XQ.s 			page 30


 688      3430306B 
 688      487A00
 689 002f 00       		.align	2
 690              	.LC2:
 691 0030 544F5543 		.ascii	"TOUCH | Freq: %.2f | Delta: %.2f | DeltaFilt: %.2f\000"
 691      48207C20 
 691      46726571 
 691      3A20252E 
 691      3266207C 
 692 0063 00       		.align	2
 693              	.LC3:
 694 0064 2E2E2E2E 		.ascii	"..... | Freq: %.2f | Delta: %.2f | DeltaFilt: %.2f\000"
 694      2E207C20 
 694      46726571 
 694      3A20252E 
 694      3266207C 
 695              		.section	.text.startup.main,"ax",%progbits
 696              		.align	1
 697              		.p2align 2,,3
 698              		.global	main
 699              		.syntax unified
 700              		.thumb
 701              		.thumb_func
 702              		.fpu fpv5-d16
 704              	main:
 705              	.LFB4849:
  60:main.cpp      **** 
  61:main.cpp      **** // --- MAIN FUNCTION ---
  62:main.cpp      **** int main()
  63:main.cpp      **** {
 706              		.loc 10 63 1 view -0
 707              		.cfi_startproc
 708              		@ args = 0, pretend = 0, frame = 72
 709              		@ frame_needed = 0, uses_anonymous_args = 0
  64:main.cpp      ****     // 1. HARDWARE INIT
  65:main.cpp      ****     hw.Configure();
 710              		.loc 10 65 5 view .LVU148
  63:main.cpp      ****     // 1. HARDWARE INIT
 711              		.loc 10 63 1 is_stmt 0 view .LVU149
 712 0000 2DE9F04F 		push	{r4, r5, r6, r7, r8, r9, r10, fp, lr}
 713              		.cfi_def_cfa_offset 36
 714              		.cfi_offset 4, -36
 715              		.cfi_offset 5, -32
 716              		.cfi_offset 6, -28
 717              		.cfi_offset 7, -24
 718              		.cfi_offset 8, -20
 719              		.cfi_offset 9, -16
 720              		.cfi_offset 10, -12
 721              		.cfi_offset 11, -8
 722              		.cfi_offset 14, -4
 723              		.loc 10 65 17 view .LVU150
 724 0004 CB48     		ldr	r0, .L41
 725              	.LBB586:
 726              	.LBB587:
 139:../../libs/libDaisy/src/dev/mpr121.h ****         WriteRegister(MPR121_MHDR, 0x01);
 727              		.loc 9 139 22 view .LVU151
 728 0006 4125     		movs	r5, #65
ARM GAS  C:\Users\skipi\AppData\Local\Temp\cc6ev9XQ.s 			page 31


 123:../../libs/libDaisy/src/dev/mpr121.h **** 
 729              		.loc 9 123 9 view .LVU152
 730 0008 CB4C     		ldr	r4, .L41+4
 731              	.LBE587:
 732              	.LBE586:
  63:main.cpp      ****     // 1. HARDWARE INIT
 733              		.loc 10 63 1 view .LVU153
 734 000a 2DED028B 		vpush.64	{d8}
 735              		.cfi_def_cfa_offset 44
 736              		.cfi_offset 80, -44
 737              		.cfi_offset 81, -40
 738 000e 97B0     		sub	sp, sp, #92
 739              		.cfi_def_cfa_offset 136
 740 0010 A346     		mov	fp, r4
 741              		.loc 10 65 17 view .LVU154
 742 0012 FFF7FEFF 		bl	_ZN5daisy9DaisySeed9ConfigureEv
 743              	.LVL40:
  66:main.cpp      ****     hw.Init();
 744              		.loc 10 66 5 is_stmt 1 view .LVU155
 745              		.loc 10 66 12 is_stmt 0 view .LVU156
 746 0016 0021     		movs	r1, #0
 747 0018 C648     		ldr	r0, .L41
 748 001a 10AE     		add	r6, sp, #64
 749 001c FFF7FEFF 		bl	_ZN5daisy9DaisySeed4InitEb
 750              	.LVL41:
  67:main.cpp      ****     hw.SetAudioBlockSize(4);
 751              		.loc 10 67 5 is_stmt 1 view .LVU157
 752              		.loc 10 67 25 is_stmt 0 view .LVU158
 753 0020 0421     		movs	r1, #4
 754 0022 C448     		ldr	r0, .L41
 755              	.LBB771:
 756              	.LBB766:
 123:../../libs/libDaisy/src/dev/mpr121.h **** 
 757              		.loc 9 123 9 view .LVU159
 758 0024 3746     		mov	r7, r6
 759              	.LBE766:
 760              	.LBE771:
 761              		.loc 10 67 25 view .LVU160
 762 0026 FFF7FEFF 		bl	_ZN5daisy9DaisySeed17SetAudioBlockSizeEj
 763              	.LVL42:
  68:main.cpp      **** 
  69:main.cpp      ****     #ifdef Debug
  70:main.cpp      ****     hw.StartLog(false);
 764              		.loc 10 70 5 is_stmt 1 view .LVU161
 765              	.LBB772:
 766              	.LBI772:
  23:../../libs/libDaisy/src/daisy_seed.h **** 
  24:../../libs/libDaisy/src/daisy_seed.h ****     /** This function used to provide a pre-initialization configuraiton 
  25:../../libs/libDaisy/src/daisy_seed.h ****      *  it has since been deprecated, and does nothing.
  26:../../libs/libDaisy/src/daisy_seed.h ****      */
  27:../../libs/libDaisy/src/daisy_seed.h ****     void Configure();
  28:../../libs/libDaisy/src/daisy_seed.h **** 
  29:../../libs/libDaisy/src/daisy_seed.h ****     /** 
  30:../../libs/libDaisy/src/daisy_seed.h ****     Initializes the Daisy Seed and the following peripherals:
  31:../../libs/libDaisy/src/daisy_seed.h ****     SDRAM, QSPI, 24-bit 48kHz Audio via AK4556, Internal USB,
  32:../../libs/libDaisy/src/daisy_seed.h ****     as well as the built-in LED and Testpoint.
  33:../../libs/libDaisy/src/daisy_seed.h **** 
ARM GAS  C:\Users\skipi\AppData\Local\Temp\cc6ev9XQ.s 			page 32


  34:../../libs/libDaisy/src/daisy_seed.h ****     ADCs, DACs, and other special peripherals (such as I2C, SPI, etc.)
  35:../../libs/libDaisy/src/daisy_seed.h ****     can be initialized using their specific initializers within libdaisy
  36:../../libs/libDaisy/src/daisy_seed.h ****     for a specific application.
  37:../../libs/libDaisy/src/daisy_seed.h ****     */
  38:../../libs/libDaisy/src/daisy_seed.h ****     void Init(bool boost = false);
  39:../../libs/libDaisy/src/daisy_seed.h **** 
  40:../../libs/libDaisy/src/daisy_seed.h ****     /** 
  41:../../libs/libDaisy/src/daisy_seed.h ****     Deinitializes all peripherals automatically handled by `Init`.
  42:../../libs/libDaisy/src/daisy_seed.h ****     */
  43:../../libs/libDaisy/src/daisy_seed.h ****     void DeInit();
  44:../../libs/libDaisy/src/daisy_seed.h **** 
  45:../../libs/libDaisy/src/daisy_seed.h ****     /** 
  46:../../libs/libDaisy/src/daisy_seed.h ****     Wait some ms before going on.
  47:../../libs/libDaisy/src/daisy_seed.h ****     \param del Delay time in ms.
  48:../../libs/libDaisy/src/daisy_seed.h ****     */
  49:../../libs/libDaisy/src/daisy_seed.h ****     void DelayMs(size_t del);
  50:../../libs/libDaisy/src/daisy_seed.h **** 
  51:../../libs/libDaisy/src/daisy_seed.h ****     /** 
  52:../../libs/libDaisy/src/daisy_seed.h ****     Returns the gpio_pin corresponding to the index 0-31.
  53:../../libs/libDaisy/src/daisy_seed.h ****     For the given GPIO on the Daisy Seed (labeled 1-32 in docs).
  54:../../libs/libDaisy/src/daisy_seed.h ****     */
  55:../../libs/libDaisy/src/daisy_seed.h ****     static Pin GetPin(uint8_t pin_idx);
  56:../../libs/libDaisy/src/daisy_seed.h **** 
  57:../../libs/libDaisy/src/daisy_seed.h ****     /** Begins the audio for the seeds builtin audio.
  58:../../libs/libDaisy/src/daisy_seed.h ****     the specified callback will get called whenever
  59:../../libs/libDaisy/src/daisy_seed.h ****     new data is ready to be prepared.
  60:../../libs/libDaisy/src/daisy_seed.h ****     */
  61:../../libs/libDaisy/src/daisy_seed.h ****     void StartAudio(AudioHandle::InterleavingAudioCallback cb);
  62:../../libs/libDaisy/src/daisy_seed.h **** 
  63:../../libs/libDaisy/src/daisy_seed.h ****     /** Begins the audio for the seeds builtin audio.
  64:../../libs/libDaisy/src/daisy_seed.h ****     the specified callback will get called whenever
  65:../../libs/libDaisy/src/daisy_seed.h ****     new data is ready to be prepared.
  66:../../libs/libDaisy/src/daisy_seed.h ****     This will use the newer non-interleaved callback.
  67:../../libs/libDaisy/src/daisy_seed.h ****     */
  68:../../libs/libDaisy/src/daisy_seed.h ****     void StartAudio(AudioHandle::AudioCallback cb);
  69:../../libs/libDaisy/src/daisy_seed.h **** 
  70:../../libs/libDaisy/src/daisy_seed.h ****     /** Changes to a new interleaved callback
  71:../../libs/libDaisy/src/daisy_seed.h ****      */
  72:../../libs/libDaisy/src/daisy_seed.h ****     void ChangeAudioCallback(AudioHandle::InterleavingAudioCallback cb);
  73:../../libs/libDaisy/src/daisy_seed.h **** 
  74:../../libs/libDaisy/src/daisy_seed.h ****     /** Changes to a new multichannel callback
  75:../../libs/libDaisy/src/daisy_seed.h ****      */
  76:../../libs/libDaisy/src/daisy_seed.h ****     void ChangeAudioCallback(AudioHandle::AudioCallback cb);
  77:../../libs/libDaisy/src/daisy_seed.h **** 
  78:../../libs/libDaisy/src/daisy_seed.h ****     /** Stops the audio if it is running. */
  79:../../libs/libDaisy/src/daisy_seed.h ****     void StopAudio();
  80:../../libs/libDaisy/src/daisy_seed.h **** 
  81:../../libs/libDaisy/src/daisy_seed.h ****     /** Updates the Audio Sample Rate, and reinitializes.
  82:../../libs/libDaisy/src/daisy_seed.h ****      ** Audio must be stopped for this to work.
  83:../../libs/libDaisy/src/daisy_seed.h ****      */
  84:../../libs/libDaisy/src/daisy_seed.h ****     void SetAudioSampleRate(SaiHandle::Config::SampleRate samplerate);
  85:../../libs/libDaisy/src/daisy_seed.h **** 
  86:../../libs/libDaisy/src/daisy_seed.h ****     /** Returns the audio sample rate in Hz as a floating point number.
  87:../../libs/libDaisy/src/daisy_seed.h ****      */
  88:../../libs/libDaisy/src/daisy_seed.h ****     float AudioSampleRate();
  89:../../libs/libDaisy/src/daisy_seed.h **** 
  90:../../libs/libDaisy/src/daisy_seed.h ****     /** Sets the number of samples processed per channel by the audio callback.
ARM GAS  C:\Users\skipi\AppData\Local\Temp\cc6ev9XQ.s 			page 33


  91:../../libs/libDaisy/src/daisy_seed.h ****      */
  92:../../libs/libDaisy/src/daisy_seed.h ****     void SetAudioBlockSize(size_t blocksize);
  93:../../libs/libDaisy/src/daisy_seed.h **** 
  94:../../libs/libDaisy/src/daisy_seed.h ****     /** Returns the number of samples per channel in a block of audio. */
  95:../../libs/libDaisy/src/daisy_seed.h ****     size_t AudioBlockSize();
  96:../../libs/libDaisy/src/daisy_seed.h **** 
  97:../../libs/libDaisy/src/daisy_seed.h ****     /** Returns the rate in Hz that the Audio callback is called */
  98:../../libs/libDaisy/src/daisy_seed.h ****     float AudioCallbackRate() const;
  99:../../libs/libDaisy/src/daisy_seed.h **** 
 100:../../libs/libDaisy/src/daisy_seed.h ****     /** Returns the SAI Handle for the Daisy Seed 
 101:../../libs/libDaisy/src/daisy_seed.h ****      *  This can be useful when adding a secondary codec,
 102:../../libs/libDaisy/src/daisy_seed.h ****      *  the result of this function can be passed to the audio reinit 
 103:../../libs/libDaisy/src/daisy_seed.h ****      *  with an SAI2 configuration
 104:../../libs/libDaisy/src/daisy_seed.h ****      */
 105:../../libs/libDaisy/src/daisy_seed.h ****     const SaiHandle& AudioSaiHandle() const;
 106:../../libs/libDaisy/src/daisy_seed.h **** 
 107:../../libs/libDaisy/src/daisy_seed.h ****     /** Sets the state of the built in LED
 108:../../libs/libDaisy/src/daisy_seed.h ****      */
 109:../../libs/libDaisy/src/daisy_seed.h ****     void SetLed(bool state);
 110:../../libs/libDaisy/src/daisy_seed.h **** 
 111:../../libs/libDaisy/src/daisy_seed.h ****     /** Sets the state of the test point near pin 10
 112:../../libs/libDaisy/src/daisy_seed.h ****      */
 113:../../libs/libDaisy/src/daisy_seed.h ****     void SetTestPoint(bool state);
 114:../../libs/libDaisy/src/daisy_seed.h **** 
 115:../../libs/libDaisy/src/daisy_seed.h ****     /** Print formatted debug log message
 116:../../libs/libDaisy/src/daisy_seed.h ****      */
 117:../../libs/libDaisy/src/daisy_seed.h ****     template <typename... VA>
 118:../../libs/libDaisy/src/daisy_seed.h ****     static void Print(const char* format, VA... va)
 119:../../libs/libDaisy/src/daisy_seed.h ****     {
 120:../../libs/libDaisy/src/daisy_seed.h ****         Log::Print(format, va...);
 121:../../libs/libDaisy/src/daisy_seed.h ****     }
 122:../../libs/libDaisy/src/daisy_seed.h **** 
 123:../../libs/libDaisy/src/daisy_seed.h ****     /** Print formatted debug log message with automatic line termination
 124:../../libs/libDaisy/src/daisy_seed.h ****     */
 125:../../libs/libDaisy/src/daisy_seed.h ****     template <typename... VA>
 126:../../libs/libDaisy/src/daisy_seed.h ****     static void PrintLine(const char* format, VA... va)
 127:../../libs/libDaisy/src/daisy_seed.h ****     {
 128:../../libs/libDaisy/src/daisy_seed.h ****         Log::PrintLine(format, va...);
 129:../../libs/libDaisy/src/daisy_seed.h ****     }
 130:../../libs/libDaisy/src/daisy_seed.h **** 
 131:../../libs/libDaisy/src/daisy_seed.h ****     /** Start the logging session. Optionally wait for terminal connection before proceeding.
 132:../../libs/libDaisy/src/daisy_seed.h ****     */
 133:../../libs/libDaisy/src/daisy_seed.h ****     static void StartLog(bool wait_for_pc = false)
 767              		.loc 1 133 17 view .LVU162
 768              	.LBB773:
 134:../../libs/libDaisy/src/daisy_seed.h ****     {
 135:../../libs/libDaisy/src/daisy_seed.h ****         Log::StartLog(wait_for_pc);
 769              		.loc 1 135 9 view .LVU163
 770              		.loc 1 135 22 is_stmt 0 view .LVU164
 771 002a 0020     		movs	r0, #0
 772 002c FFF7FEFF 		bl	_ZN5daisy6LoggerILNS_17LoggerDestinationE1EE8StartLogEb
 773              	.LVL43:
 774              		.loc 1 135 22 view .LVU165
 775              	.LBE773:
 776              	.LBE772:
  71:main.cpp      ****     #endif
  72:main.cpp      **** 
ARM GAS  C:\Users\skipi\AppData\Local\Temp\cc6ev9XQ.s 			page 34


  73:main.cpp      ****     // 2. MPR121 INIT
  74:main.cpp      ****     mpr121ObjConf.transport_config.speed = daisy::I2CHandle::Config::Speed::I2C_400KHZ;
 777              		.loc 10 74 5 is_stmt 1 view .LVU166
 778              		.loc 10 74 42 is_stmt 0 view .LVU167
 779 0030 C24B     		ldr	r3, .L41+8
 780 0032 0122     		movs	r2, #1
 781              	.LBB774:
 782              	.LBB767:
 123:../../libs/libDaisy/src/dev/mpr121.h **** 
 783              		.loc 9 123 9 view .LVU168
 784 0034 A646     		mov	lr, r4
 785 0036 9846     		mov	r8, r3
 786 0038 0DF1180A 		add	r10, sp, #24
 787              	.LBE767:
 788              	.LBE774:
 789              		.loc 10 74 42 view .LVU169
 790 003c 5A60     		str	r2, [r3, #4]
  75:main.cpp      **** 
  76:main.cpp      ****     if (cap.Init(mpr121ObjConf) != daisy::Mpr121I2C::Result::OK)
 791              		.loc 10 76 5 is_stmt 1 view .LVU170
 792              	.LVL44:
 793              		.loc 10 76 5 is_stmt 0 view .LVU171
 794 003e A446     		mov	ip, r4
 795              	.LBB775:
 796              	.LBB768:
 797              	.LBB588:
 798              	.LBB589:
  49:../../libs/libDaisy/src/dev/mpr121.h **** 
 799              		.loc 9 49 17 view .LVU172
 800 0040 D146     		mov	r9, r10
 801 0042 B8E80F00 		ldmia	r8!, {r0, r1, r2, r3}
 802 0046 0FC6     		stmia	r6!, {r0, r1, r2, r3}
 803 0048 98E80300 		ldm	r8, {r0, r1}
 804 004c 46F8040B 		str	r0, [r6], #4
 805 0050 3180     		strh	r1, [r6]	@ movhi
 806              	.LBE589:
 807              	.LBE588:
 808              	.LBE768:
 809              	.LBI586:
 121:../../libs/libDaisy/src/dev/mpr121.h ****     {
 810              		.loc 9 121 12 is_stmt 1 view .LVU173
 811              	.LBB769:
 123:../../libs/libDaisy/src/dev/mpr121.h **** 
 812              		.loc 9 123 9 is_stmt 0 view .LVU174
 813 0052 0FCF     		ldmia	r7!, {r0, r1, r2, r3}
 814 0054 AEE80F00 		stmia	lr!, {r0, r1, r2, r3}
 815 0058 97E80300 		ldm	r7, {r0, r1}
 816 005c 4EF8040B 		str	r0, [lr], #4
 817 0060 0646     		mov	r6, r0
 818 0062 AEF80010 		strh	r1, [lr]	@ movhi
 819              	.LVL45:
 123:../../libs/libDaisy/src/dev/mpr121.h **** 
 820              		.loc 9 123 9 view .LVU175
 821 0066 BBE80F00 		ldmia	fp!, {r0, r1, r2, r3}
 822 006a AAE80F00 		stmia	r10!, {r0, r1, r2, r3}
 823              	.LBB601:
 824              	.LBB599:
ARM GAS  C:\Users\skipi\AppData\Local\Temp\cc6ev9XQ.s 			page 35


 825              	.LBB590:
 826              	.LBB591:
 827              		.file 11 "../../libs/libDaisy/src/per/i2c.h"
   1:../../libs/libDaisy/src/per/i2c.h **** #pragma once
   2:../../libs/libDaisy/src/per/i2c.h **** #include "util/hal_map.h"
   3:../../libs/libDaisy/src/per/i2c.h **** #include "daisy_core.h"
   4:../../libs/libDaisy/src/per/i2c.h **** 
   5:../../libs/libDaisy/src/per/i2c.h **** namespace daisy
   6:../../libs/libDaisy/src/per/i2c.h **** {
   7:../../libs/libDaisy/src/per/i2c.h **** /** A handle for interacting with an I2C peripheral. This is a dumb
   8:../../libs/libDaisy/src/per/i2c.h ****  *  gateway that internally points to one of the four I2C peripherals
   9:../../libs/libDaisy/src/per/i2c.h ****  *  after it was initialised. It can then be copied and passed around.
  10:../../libs/libDaisy/src/per/i2c.h ****  *  Use an I2CHandle like this:
  11:../../libs/libDaisy/src/per/i2c.h ****  *  
  12:../../libs/libDaisy/src/per/i2c.h ****  *      // setup the configuration
  13:../../libs/libDaisy/src/per/i2c.h ****  *      I2CHandle::Config i2c_conf;
  14:../../libs/libDaisy/src/per/i2c.h ****  *      i2c_conf.periph = I2CHandle::Config::Peripheral::I2C_1;
  15:../../libs/libDaisy/src/per/i2c.h ****  *      i2c_conf.speed  = I2CHandle::Config::Speed::I2C_400KHZ;
  16:../../libs/libDaisy/src/per/i2c.h ****  *      i2c_conf.mode   = I2CHandle::Config::Mode::Master;
  17:../../libs/libDaisy/src/per/i2c.h ****  *      i2c_conf.pin_config.scl  = {DSY_GPIOB, 8};
  18:../../libs/libDaisy/src/per/i2c.h ****  *      i2c_conf.pin_config.sda  = {DSY_GPIOB, 9};
  19:../../libs/libDaisy/src/per/i2c.h ****  *      // initialise the peripheral
  20:../../libs/libDaisy/src/per/i2c.h ****  *      I2CHandle i2c;
  21:../../libs/libDaisy/src/per/i2c.h ****  *      i2c.Init(i2c_conf);
  22:../../libs/libDaisy/src/per/i2c.h ****  *      // now i2c points to the corresponding peripheral and can be used.
  23:../../libs/libDaisy/src/per/i2c.h ****  *      i2c.TransmitBlocking( ... );
  24:../../libs/libDaisy/src/per/i2c.h ****  */
  25:../../libs/libDaisy/src/per/i2c.h **** class I2CHandle
  26:../../libs/libDaisy/src/per/i2c.h **** {
  27:../../libs/libDaisy/src/per/i2c.h ****   public:
  28:../../libs/libDaisy/src/per/i2c.h ****     /** Contains settings for initialising an I2C interface. */
  29:../../libs/libDaisy/src/per/i2c.h ****     struct Config
 828              		.loc 11 29 12 view .LVU176
 829 006e 4FF01003 		mov	r3, #16
 830              	.LBE591:
 831              	.LBE590:
  54:../../libs/libDaisy/src/dev/mpr121.h **** 
 832              		.loc 9 54 25 view .LVU177
 833 0072 0022     		movs	r2, #0
 834 0074 CAF80060 		str	r6, [r10]
 835              	.LBB597:
 836              	.LBB595:
 837              		.loc 11 29 12 view .LVU178
 838 0078 8DF83C30 		strb	r3, [sp, #60]
 839              	.LBE595:
 840              	.LBE597:
  54:../../libs/libDaisy/src/dev/mpr121.h **** 
 841              		.loc 9 54 25 view .LVU179
 842 007c 0123     		movs	r3, #1
 843 007e CDE90D32 		strd	r3, r2, [sp, #52]
 844 0082 5CF81C3B 		ldr	r3, [ip], #28
 845              	.LVL46:
  54:../../libs/libDaisy/src/dev/mpr121.h **** 
 846              		.loc 9 54 25 view .LVU180
 847              	.LBE599:
 848              	.LBI588:
  47:../../libs/libDaisy/src/dev/mpr121.h ****     {
ARM GAS  C:\Users\skipi\AppData\Local\Temp\cc6ev9XQ.s 			page 36


 849              		.loc 9 47 17 is_stmt 1 view .LVU181
 850              	.LBB600:
  49:../../libs/libDaisy/src/dev/mpr121.h **** 
 851              		.loc 9 49 9 view .LVU182
  49:../../libs/libDaisy/src/dev/mpr121.h **** 
 852              		.loc 9 49 17 is_stmt 0 view .LVU183
 853 0086 0693     		str	r3, [sp, #24]
  53:../../libs/libDaisy/src/dev/mpr121.h ****         i2c_conf.speed  = config.speed;
 854              		.loc 9 53 25 view .LVU184
 855 0088 0B93     		str	r3, [sp, #44]
  56:../../libs/libDaisy/src/dev/mpr121.h ****         i2c_conf.pin_config.sda = config.sda;
 856              		.loc 9 56 33 view .LVU185
 857 008a BDF82030 		ldrh	r3, [sp, #32]
 858 008e ADF83030 		strh	r3, [sp, #48]	@ movhi
  57:../../libs/libDaisy/src/dev/mpr121.h **** 
 859              		.loc 9 57 33 view .LVU186
 860 0092 BDF82230 		ldrh	r3, [sp, #34]
 861 0096 ADF83230 		strh	r3, [sp, #50]	@ movhi
  49:../../libs/libDaisy/src/dev/mpr121.h **** 
 862              		.loc 9 49 17 view .LVU187
 863 009a B9E80F00 		ldmia	r9!, {r0, r1, r2, r3}
  49:../../libs/libDaisy/src/dev/mpr121.h **** 
 864              		.loc 9 49 17 view .LVU188
 865 009e ACE80F00 		stmia	ip!, {r0, r1, r2, r3}
  59:../../libs/libDaisy/src/dev/mpr121.h ****     }
 866              		.loc 9 59 50 view .LVU189
 867 00a2 0BA9     		add	r1, sp, #44
  49:../../libs/libDaisy/src/dev/mpr121.h **** 
 868              		.loc 9 49 17 view .LVU190
 869 00a4 8CF80060 		strb	r6, [ip]
  51:../../libs/libDaisy/src/dev/mpr121.h ****         i2c_conf.mode   = I2CHandle::Config::Mode::I2C_MASTER;
 870              		.loc 9 51 9 is_stmt 1 view .LVU191
 871              	.LVL47:
 872              	.LBB598:
 873              	.LBI590:
 874              		.loc 11 29 12 view .LVU192
 875              	.LBB596:
 876              	.LBB592:
 877              	.LBI592:
  30:../../libs/libDaisy/src/per/i2c.h ****     {
  31:../../libs/libDaisy/src/per/i2c.h ****         /** Specifies whether the interface will operate in master or slave mode. */
  32:../../libs/libDaisy/src/per/i2c.h ****         enum class Mode
  33:../../libs/libDaisy/src/per/i2c.h ****         {
  34:../../libs/libDaisy/src/per/i2c.h ****             I2C_MASTER,
  35:../../libs/libDaisy/src/per/i2c.h ****             I2C_SLAVE,
  36:../../libs/libDaisy/src/per/i2c.h ****         };
  37:../../libs/libDaisy/src/per/i2c.h **** 
  38:../../libs/libDaisy/src/per/i2c.h ****         /** Specifices the internal peripheral to use (these are mapped to different pins on the ha
  39:../../libs/libDaisy/src/per/i2c.h ****         enum class Peripheral
  40:../../libs/libDaisy/src/per/i2c.h ****         {
  41:../../libs/libDaisy/src/per/i2c.h ****             I2C_1 = 0, /**< & */
  42:../../libs/libDaisy/src/per/i2c.h ****             I2C_2,     /**< & */
  43:../../libs/libDaisy/src/per/i2c.h ****             I2C_3,     /**< & */
  44:../../libs/libDaisy/src/per/i2c.h ****             I2C_4,     /**< & */
  45:../../libs/libDaisy/src/per/i2c.h ****         };
  46:../../libs/libDaisy/src/per/i2c.h **** 
  47:../../libs/libDaisy/src/per/i2c.h ****         /** Rate at which the clock/data will be sent/received. The device being used will have max
ARM GAS  C:\Users\skipi\AppData\Local\Temp\cc6ev9XQ.s 			page 37


  48:../../libs/libDaisy/src/per/i2c.h ****          *  1MHZ Mode is currently 886kHz
  49:../../libs/libDaisy/src/per/i2c.h ****          */
  50:../../libs/libDaisy/src/per/i2c.h ****         enum class Speed
  51:../../libs/libDaisy/src/per/i2c.h ****         {
  52:../../libs/libDaisy/src/per/i2c.h ****             I2C_100KHZ, /**< & */
  53:../../libs/libDaisy/src/per/i2c.h ****             I2C_400KHZ, /**< & */
  54:../../libs/libDaisy/src/per/i2c.h ****             I2C_1MHZ,   /**< & */
  55:../../libs/libDaisy/src/per/i2c.h ****         };
  56:../../libs/libDaisy/src/per/i2c.h **** 
  57:../../libs/libDaisy/src/per/i2c.h ****         Peripheral periph; /**< & */
  58:../../libs/libDaisy/src/per/i2c.h ****         struct
  59:../../libs/libDaisy/src/per/i2c.h ****         {
 878              		.loc 11 59 9 view .LVU193
 879              	.LBB593:
 880              	.LBI593:
 881              		.file 12 "../../libs/libDaisy/src/daisy_core.h"
   1:../../libs/libDaisy/src/daisy_core.h **** #pragma once
   2:../../libs/libDaisy/src/daisy_core.h **** #ifndef DSY_CORE_HW_H
   3:../../libs/libDaisy/src/daisy_core.h **** #define DSY_CORE_HW_H /**< & */
   4:../../libs/libDaisy/src/daisy_core.h **** #include <stdint.h>
   5:../../libs/libDaisy/src/daisy_core.h **** #include <stdlib.h>
   6:../../libs/libDaisy/src/daisy_core.h **** 
   7:../../libs/libDaisy/src/daisy_core.h **** #if defined(_MSC_VER)
   8:../../libs/libDaisy/src/daisy_core.h **** #define FORCE_INLINE __forceinline /**< & */
   9:../../libs/libDaisy/src/daisy_core.h **** #elif defined(__clang__)
  10:../../libs/libDaisy/src/daisy_core.h **** #define FORCE_INLINE inline __attribute__((always_inline)) /**< & */
  11:../../libs/libDaisy/src/daisy_core.h **** #pragma clang diagnostic ignored "-Wduplicate-decl-specifier"
  12:../../libs/libDaisy/src/daisy_core.h **** #elif defined(__GNUC__)
  13:../../libs/libDaisy/src/daisy_core.h **** #define FORCE_INLINE inline __attribute__((always_inline)) /**< & */
  14:../../libs/libDaisy/src/daisy_core.h **** #else
  15:../../libs/libDaisy/src/daisy_core.h **** #error unknown compiler
  16:../../libs/libDaisy/src/daisy_core.h **** #endif
  17:../../libs/libDaisy/src/daisy_core.h **** 
  18:../../libs/libDaisy/src/daisy_core.h **** /** @addtogroup utility
  19:../../libs/libDaisy/src/daisy_core.h ****     @{
  20:../../libs/libDaisy/src/daisy_core.h **** */
  21:../../libs/libDaisy/src/daisy_core.h **** 
  22:../../libs/libDaisy/src/daisy_core.h **** /** Macro for area of memory that is configured as cacheless
  23:../../libs/libDaisy/src/daisy_core.h **** This should be used primarily for DMA buffers, and the like.
  24:../../libs/libDaisy/src/daisy_core.h **** */
  25:../../libs/libDaisy/src/daisy_core.h **** #define DMA_BUFFER_MEM_SECTION __attribute__((section(".sram1_bss")))
  26:../../libs/libDaisy/src/daisy_core.h **** /** 
  27:../../libs/libDaisy/src/daisy_core.h **** THE DTCM RAM section is also non-cached. However, is not suitable 
  28:../../libs/libDaisy/src/daisy_core.h **** for DMA transfers. Performance is on par with internal SRAM w/ 
  29:../../libs/libDaisy/src/daisy_core.h **** cache enabled.
  30:../../libs/libDaisy/src/daisy_core.h **** */
  31:../../libs/libDaisy/src/daisy_core.h **** #define DTCM_MEM_SECTION __attribute__((section(".dtcmram_bss")))
  32:../../libs/libDaisy/src/daisy_core.h **** 
  33:../../libs/libDaisy/src/daisy_core.h **** #define FBIPMAX 0.999985f             /**< close to 1.0f-LSB at 16 bit */
  34:../../libs/libDaisy/src/daisy_core.h **** #define FBIPMIN (-FBIPMAX)            /**< - (1 - LSB) */
  35:../../libs/libDaisy/src/daisy_core.h **** #define U82F_SCALE 0.0078740f         /**< 1 / 127 */
  36:../../libs/libDaisy/src/daisy_core.h **** #define F2U8_SCALE 127.0f             /**< 128 - 1 */
  37:../../libs/libDaisy/src/daisy_core.h **** #define S82F_SCALE 0.0078125f         /**< 1 / (2**7) */
  38:../../libs/libDaisy/src/daisy_core.h **** #define F2S8_SCALE 127.0f             /**< (2 ** 7) - 1 */
  39:../../libs/libDaisy/src/daisy_core.h **** #define S162F_SCALE 3.0517578125e-05f /**< 1 / (2** 15) */
  40:../../libs/libDaisy/src/daisy_core.h **** #define F2S16_SCALE 32767.0f          /**< (2 ** 15) - 1 */
  41:../../libs/libDaisy/src/daisy_core.h **** #define F2S24_SCALE 8388608.0f        /**< 2 ** 23 */
ARM GAS  C:\Users\skipi\AppData\Local\Temp\cc6ev9XQ.s 			page 38


  42:../../libs/libDaisy/src/daisy_core.h **** #define S242F_SCALE 1.192092896e-07f  /**< 1 / (2 ** 23) */
  43:../../libs/libDaisy/src/daisy_core.h **** #define S24SIGN 0x800000              /**< 2 ** 23 */
  44:../../libs/libDaisy/src/daisy_core.h **** #define S322F_SCALE 4.6566129e-10f    /**< 1 / (2** 31) */
  45:../../libs/libDaisy/src/daisy_core.h **** #define F2S32_SCALE 2147483647.f      /**< (2 ** 31) - 1 */
  46:../../libs/libDaisy/src/daisy_core.h **** 
  47:../../libs/libDaisy/src/daisy_core.h **** 
  48:../../libs/libDaisy/src/daisy_core.h **** /** shorthand macro for simplifying the reading of the left 
  49:../../libs/libDaisy/src/daisy_core.h ****  *  channel of a non-interleaved output buffer named out */
  50:../../libs/libDaisy/src/daisy_core.h **** #define OUT_L out[0]
  51:../../libs/libDaisy/src/daisy_core.h **** 
  52:../../libs/libDaisy/src/daisy_core.h **** /** shorthand macro for simplifying the reading of the right 
  53:../../libs/libDaisy/src/daisy_core.h ****  *  channel of a non-interleaved output buffer named out */
  54:../../libs/libDaisy/src/daisy_core.h **** #define OUT_R out[1]
  55:../../libs/libDaisy/src/daisy_core.h **** 
  56:../../libs/libDaisy/src/daisy_core.h **** /** shorthand macro for simplifying the reading of the left 
  57:../../libs/libDaisy/src/daisy_core.h ****  *  channel of a non-interleaved input buffer named in */
  58:../../libs/libDaisy/src/daisy_core.h **** #define IN_L in[0]
  59:../../libs/libDaisy/src/daisy_core.h **** 
  60:../../libs/libDaisy/src/daisy_core.h **** /** shorthand macro for simplifying the reading of the right 
  61:../../libs/libDaisy/src/daisy_core.h ****  *  channel of a non-interleaved input buffer named in */
  62:../../libs/libDaisy/src/daisy_core.h **** #define IN_R in[1]
  63:../../libs/libDaisy/src/daisy_core.h **** 
  64:../../libs/libDaisy/src/daisy_core.h **** /** 
  65:../../libs/libDaisy/src/daisy_core.h ****     Computes cube.
  66:../../libs/libDaisy/src/daisy_core.h ****     \param x Number to be cubed
  67:../../libs/libDaisy/src/daisy_core.h ****     \return x ^ 3
  68:../../libs/libDaisy/src/daisy_core.h **** */
  69:../../libs/libDaisy/src/daisy_core.h **** FORCE_INLINE float cube(float x)
  70:../../libs/libDaisy/src/daisy_core.h **** {
  71:../../libs/libDaisy/src/daisy_core.h ****     return (x * x) * x;
  72:../../libs/libDaisy/src/daisy_core.h **** }
  73:../../libs/libDaisy/src/daisy_core.h **** 
  74:../../libs/libDaisy/src/daisy_core.h **** /** 
  75:../../libs/libDaisy/src/daisy_core.h ****     Converts unsigned 8-bit to float
  76:../../libs/libDaisy/src/daisy_core.h ****     \param x Number to be scaled.
  77:../../libs/libDaisy/src/daisy_core.h ****     \return Scaled number.
  78:../../libs/libDaisy/src/daisy_core.h **** */
  79:../../libs/libDaisy/src/daisy_core.h **** FORCE_INLINE float u82f(uint8_t x)
  80:../../libs/libDaisy/src/daisy_core.h **** {
  81:../../libs/libDaisy/src/daisy_core.h ****     return ((float)x - 127.f) * U82F_SCALE;
  82:../../libs/libDaisy/src/daisy_core.h **** }
  83:../../libs/libDaisy/src/daisy_core.h **** 
  84:../../libs/libDaisy/src/daisy_core.h **** /**
  85:../../libs/libDaisy/src/daisy_core.h ****     Converts float to unsigned 8-bit
  86:../../libs/libDaisy/src/daisy_core.h **** */
  87:../../libs/libDaisy/src/daisy_core.h **** FORCE_INLINE uint8_t f2u8(float x)
  88:../../libs/libDaisy/src/daisy_core.h **** {
  89:../../libs/libDaisy/src/daisy_core.h ****     x = x <= FBIPMIN ? FBIPMIN : x;
  90:../../libs/libDaisy/src/daisy_core.h ****     x = x >= FBIPMAX ? FBIPMAX : x;
  91:../../libs/libDaisy/src/daisy_core.h ****     return (uint8_t)((x * F2U8_SCALE) + F2U8_SCALE);
  92:../../libs/libDaisy/src/daisy_core.h **** }
  93:../../libs/libDaisy/src/daisy_core.h **** 
  94:../../libs/libDaisy/src/daisy_core.h **** 
  95:../../libs/libDaisy/src/daisy_core.h **** /** 
  96:../../libs/libDaisy/src/daisy_core.h ****     Converts Signed 8-bit to float
  97:../../libs/libDaisy/src/daisy_core.h ****     \param x Number to be scaled.
  98:../../libs/libDaisy/src/daisy_core.h ****     \return Scaled number.
ARM GAS  C:\Users\skipi\AppData\Local\Temp\cc6ev9XQ.s 			page 39


  99:../../libs/libDaisy/src/daisy_core.h **** */
 100:../../libs/libDaisy/src/daisy_core.h **** FORCE_INLINE float s82f(int8_t x)
 101:../../libs/libDaisy/src/daisy_core.h **** {
 102:../../libs/libDaisy/src/daisy_core.h ****     return (float)x * S82F_SCALE;
 103:../../libs/libDaisy/src/daisy_core.h **** }
 104:../../libs/libDaisy/src/daisy_core.h **** 
 105:../../libs/libDaisy/src/daisy_core.h **** /**
 106:../../libs/libDaisy/src/daisy_core.h ****     Converts float to Signed 8-bit
 107:../../libs/libDaisy/src/daisy_core.h **** */
 108:../../libs/libDaisy/src/daisy_core.h **** FORCE_INLINE int8_t f2s8(float x)
 109:../../libs/libDaisy/src/daisy_core.h **** {
 110:../../libs/libDaisy/src/daisy_core.h ****     x = x <= FBIPMIN ? FBIPMIN : x;
 111:../../libs/libDaisy/src/daisy_core.h ****     x = x >= FBIPMAX ? FBIPMAX : x;
 112:../../libs/libDaisy/src/daisy_core.h ****     return (int32_t)(x * F2S8_SCALE);
 113:../../libs/libDaisy/src/daisy_core.h **** }
 114:../../libs/libDaisy/src/daisy_core.h **** 
 115:../../libs/libDaisy/src/daisy_core.h **** /** 
 116:../../libs/libDaisy/src/daisy_core.h ****     Converts Signed 16-bit to float
 117:../../libs/libDaisy/src/daisy_core.h ****     \param x Number to be scaled.
 118:../../libs/libDaisy/src/daisy_core.h ****     \return Scaled number.
 119:../../libs/libDaisy/src/daisy_core.h **** */
 120:../../libs/libDaisy/src/daisy_core.h **** FORCE_INLINE float s162f(int16_t x)
 121:../../libs/libDaisy/src/daisy_core.h **** {
 122:../../libs/libDaisy/src/daisy_core.h ****     return (float)x * S162F_SCALE;
 123:../../libs/libDaisy/src/daisy_core.h **** }
 124:../../libs/libDaisy/src/daisy_core.h **** 
 125:../../libs/libDaisy/src/daisy_core.h **** /**
 126:../../libs/libDaisy/src/daisy_core.h ****     Converts float to Signed 16-bit
 127:../../libs/libDaisy/src/daisy_core.h **** */
 128:../../libs/libDaisy/src/daisy_core.h **** FORCE_INLINE int16_t f2s16(float x)
 129:../../libs/libDaisy/src/daisy_core.h **** {
 130:../../libs/libDaisy/src/daisy_core.h ****     x = x <= FBIPMIN ? FBIPMIN : x;
 131:../../libs/libDaisy/src/daisy_core.h ****     x = x >= FBIPMAX ? FBIPMAX : x;
 132:../../libs/libDaisy/src/daisy_core.h ****     return (int32_t)(x * F2S16_SCALE);
 133:../../libs/libDaisy/src/daisy_core.h **** }
 134:../../libs/libDaisy/src/daisy_core.h **** 
 135:../../libs/libDaisy/src/daisy_core.h **** /**
 136:../../libs/libDaisy/src/daisy_core.h ****     Converts Signed 24-bit to float
 137:../../libs/libDaisy/src/daisy_core.h ****  */
 138:../../libs/libDaisy/src/daisy_core.h **** FORCE_INLINE float s242f(int32_t x)
 139:../../libs/libDaisy/src/daisy_core.h **** {
 140:../../libs/libDaisy/src/daisy_core.h ****     x = (x ^ S24SIGN) - S24SIGN; //sign extend aka ((x<<8)>>8)
 141:../../libs/libDaisy/src/daisy_core.h ****     return (float)x * S242F_SCALE;
 142:../../libs/libDaisy/src/daisy_core.h **** }
 143:../../libs/libDaisy/src/daisy_core.h **** /**
 144:../../libs/libDaisy/src/daisy_core.h ****     Converts float to Signed 24-bit
 145:../../libs/libDaisy/src/daisy_core.h ****  */
 146:../../libs/libDaisy/src/daisy_core.h **** FORCE_INLINE int32_t f2s24(float x)
 147:../../libs/libDaisy/src/daisy_core.h **** {
 148:../../libs/libDaisy/src/daisy_core.h ****     x = x <= FBIPMIN ? FBIPMIN : x;
 149:../../libs/libDaisy/src/daisy_core.h ****     x = x >= FBIPMAX ? FBIPMAX : x;
 150:../../libs/libDaisy/src/daisy_core.h ****     return (int32_t)(x * F2S24_SCALE);
 151:../../libs/libDaisy/src/daisy_core.h **** }
 152:../../libs/libDaisy/src/daisy_core.h **** 
 153:../../libs/libDaisy/src/daisy_core.h **** /**
 154:../../libs/libDaisy/src/daisy_core.h ****     Converts Signed 32-bit to float
 155:../../libs/libDaisy/src/daisy_core.h ****  */
ARM GAS  C:\Users\skipi\AppData\Local\Temp\cc6ev9XQ.s 			page 40


 156:../../libs/libDaisy/src/daisy_core.h **** FORCE_INLINE float s322f(int32_t x)
 157:../../libs/libDaisy/src/daisy_core.h **** {
 158:../../libs/libDaisy/src/daisy_core.h ****     return (float)x * S322F_SCALE;
 159:../../libs/libDaisy/src/daisy_core.h **** }
 160:../../libs/libDaisy/src/daisy_core.h **** /**
 161:../../libs/libDaisy/src/daisy_core.h ****     Converts float to Signed 24-bit
 162:../../libs/libDaisy/src/daisy_core.h ****  */
 163:../../libs/libDaisy/src/daisy_core.h **** FORCE_INLINE int32_t f2s32(float x)
 164:../../libs/libDaisy/src/daisy_core.h **** {
 165:../../libs/libDaisy/src/daisy_core.h ****     x = x <= FBIPMIN ? FBIPMIN : x;
 166:../../libs/libDaisy/src/daisy_core.h ****     x = x >= FBIPMAX ? FBIPMAX : x;
 167:../../libs/libDaisy/src/daisy_core.h ****     return (int32_t)(x * F2S32_SCALE);
 168:../../libs/libDaisy/src/daisy_core.h **** }
 169:../../libs/libDaisy/src/daisy_core.h **** 
 170:../../libs/libDaisy/src/daisy_core.h **** #ifdef __cplusplus
 171:../../libs/libDaisy/src/daisy_core.h **** 
 172:../../libs/libDaisy/src/daisy_core.h **** namespace daisy
 173:../../libs/libDaisy/src/daisy_core.h **** {
 174:../../libs/libDaisy/src/daisy_core.h **** /** @brief GPIO Port names */
 175:../../libs/libDaisy/src/daisy_core.h **** enum GPIOPort
 176:../../libs/libDaisy/src/daisy_core.h **** {
 177:../../libs/libDaisy/src/daisy_core.h ****     PORTA, /**< Port A */
 178:../../libs/libDaisy/src/daisy_core.h ****     PORTB, /**< Port B */
 179:../../libs/libDaisy/src/daisy_core.h ****     PORTC, /**< Port C */
 180:../../libs/libDaisy/src/daisy_core.h ****     PORTD, /**< Port D */
 181:../../libs/libDaisy/src/daisy_core.h ****     PORTE, /**< Port E */
 182:../../libs/libDaisy/src/daisy_core.h ****     PORTF, /**< Port F */
 183:../../libs/libDaisy/src/daisy_core.h ****     PORTG, /**< Port G */
 184:../../libs/libDaisy/src/daisy_core.h ****     PORTH, /**< Port H */
 185:../../libs/libDaisy/src/daisy_core.h ****     PORTI, /**< Port I */
 186:../../libs/libDaisy/src/daisy_core.h ****     PORTJ, /**< Port J */
 187:../../libs/libDaisy/src/daisy_core.h ****     PORTK, /**< Port K */
 188:../../libs/libDaisy/src/daisy_core.h ****     PORTX, /**< Used as a dummy port to signal an invalid pin. */
 189:../../libs/libDaisy/src/daisy_core.h **** };
 190:../../libs/libDaisy/src/daisy_core.h **** 
 191:../../libs/libDaisy/src/daisy_core.h **** /** @brief representation of hardware port/pin combination */
 192:../../libs/libDaisy/src/daisy_core.h **** struct Pin
 193:../../libs/libDaisy/src/daisy_core.h **** {
 194:../../libs/libDaisy/src/daisy_core.h ****     GPIOPort port;
 195:../../libs/libDaisy/src/daisy_core.h ****     uint8_t  pin;
 196:../../libs/libDaisy/src/daisy_core.h **** 
 197:../../libs/libDaisy/src/daisy_core.h ****     /** @brief Constructor creates a valid pin. 
 198:../../libs/libDaisy/src/daisy_core.h ****      *  @param pt GPIOPort between PA, and PK corresponding to STM32 Port.
 199:../../libs/libDaisy/src/daisy_core.h ****      *  @param pn pin number in range of 0-15
 200:../../libs/libDaisy/src/daisy_core.h ****     */
 201:../../libs/libDaisy/src/daisy_core.h ****     constexpr Pin(const GPIOPort pt, const uint8_t pn) : port(pt), pin(pn) {}
 202:../../libs/libDaisy/src/daisy_core.h **** 
 203:../../libs/libDaisy/src/daisy_core.h ****     /** @brief Basic Constructor creates an invalid Pin object */
 204:../../libs/libDaisy/src/daisy_core.h ****     constexpr Pin() : port(PORTX), pin(255) {}
 882              		.loc 12 204 15 view .LVU194
 883              		.loc 12 204 15 is_stmt 0 view .LVU195
 884              	.LBE593:
 885              	.LBB594:
 886              	.LBI594:
 887              		.loc 12 204 15 is_stmt 1 view .LVU196
 888              		.loc 12 204 15 is_stmt 0 view .LVU197
 889              	.LBE594:
ARM GAS  C:\Users\skipi\AppData\Local\Temp\cc6ev9XQ.s 			page 41


 890              	.LBE592:
 891              	.LBE596:
 892              	.LBE598:
  52:../../libs/libDaisy/src/dev/mpr121.h ****         i2c_conf.periph = config.periph;
 893              		.loc 9 52 9 is_stmt 1 view .LVU198
  53:../../libs/libDaisy/src/dev/mpr121.h ****         i2c_conf.speed  = config.speed;
 894              		.loc 9 53 9 view .LVU199
  54:../../libs/libDaisy/src/dev/mpr121.h **** 
 895              		.loc 9 54 9 view .LVU200
  56:../../libs/libDaisy/src/dev/mpr121.h ****         i2c_conf.pin_config.sda = config.sda;
 896              		.loc 9 56 9 view .LVU201
  57:../../libs/libDaisy/src/dev/mpr121.h **** 
 897              		.loc 9 57 9 view .LVU202
  59:../../libs/libDaisy/src/dev/mpr121.h ****     }
 898              		.loc 9 59 9 view .LVU203
  59:../../libs/libDaisy/src/dev/mpr121.h ****     }
 899              		.loc 9 59 50 is_stmt 0 view .LVU204
 900 00a8 04F11800 		add	r0, r4, #24
 901              	.LVL48:
  59:../../libs/libDaisy/src/dev/mpr121.h ****     }
 902              		.loc 9 59 50 view .LVU205
 903 00ac FFF7FEFF 		bl	_ZN5daisy9I2CHandle4InitERKNS0_6ConfigE
 904              	.LVL49:
  59:../../libs/libDaisy/src/dev/mpr121.h ****     }
 905              		.loc 9 59 50 view .LVU206
 906              	.LBE600:
 907              	.LBE601:
 908              	.LBB602:
 909              	.LBI602:
 910              		.loc 9 343 10 is_stmt 1 view .LVU207
 911              	.LBB603:
 912              		.loc 9 343 55 is_stmt 0 view .LVU208
 913 00b0 94F83030 		ldrb	r3, [r4, #48]	@ zero_extendqisi2
 914              	.LBE603:
 915              	.LBE602:
 128:../../libs/libDaisy/src/dev/mpr121.h ****         System::Delay(1);
 916              		.loc 9 128 22 view .LVU209
 917 00b4 8021     		movs	r1, #128
 918 00b6 6322     		movs	r2, #99
 919              	.LBB606:
 920              	.LBB604:
 921              		.loc 9 343 55 view .LVU210
 922 00b8 0028     		cmp	r0, #0
 923 00ba 18BF     		it	ne
 924 00bc 43F00103 		orrne	r3, r3, #1
 925              	.LBE604:
 926              	.LBE606:
 128:../../libs/libDaisy/src/dev/mpr121.h ****         System::Delay(1);
 927              		.loc 9 128 22 view .LVU211
 928 00c0 2046     		mov	r0, r4
 929              	.LVL50:
 930              	.LBB607:
 931              	.LBB605:
 932              		.loc 9 343 55 view .LVU212
 933 00c2 84F83030 		strb	r3, [r4, #48]
 934              	.LVL51:
 935              		.loc 9 343 55 view .LVU213
ARM GAS  C:\Users\skipi\AppData\Local\Temp\cc6ev9XQ.s 			page 42


 936              	.LBE605:
 937              	.LBE607:
 128:../../libs/libDaisy/src/dev/mpr121.h ****         System::Delay(1);
 938              		.loc 9 128 22 view .LVU214
 939 00c6 FFF7FEFF 		bl	_ZN5daisy6Mpr121INS_18Mpr121I2CTransportEE13WriteRegisterEhh
 940              	.LVL52:
 129:../../libs/libDaisy/src/dev/mpr121.h **** 
 941              		.loc 9 129 22 view .LVU215
 942 00ca 0120     		movs	r0, #1
 943 00cc FFF7FEFF 		bl	_ZN5daisy6System5DelayEm
 944              	.LVL53:
 131:../../libs/libDaisy/src/dev/mpr121.h **** 
 945              		.loc 9 131 22 view .LVU216
 946 00d0 0022     		movs	r2, #0
 947 00d2 5E21     		movs	r1, #94
 948 00d4 2046     		mov	r0, r4
 949 00d6 FFF7FEFF 		bl	_ZN5daisy6Mpr121INS_18Mpr121I2CTransportEE13WriteRegisterEhh
 950              	.LVL54:
 139:../../libs/libDaisy/src/dev/mpr121.h ****         WriteRegister(MPR121_MHDR, 0x01);
 951              		.loc 9 139 22 view .LVU217
 952 00da 94F814A0 		ldrb	r10, [r4, #20]	@ zero_extendqisi2
 953 00de 94F81590 		ldrb	r9, [r4, #21]	@ zero_extendqisi2
 954              	.LVL55:
 955              	.LBB608:
 956              	.LBI608:
 183:../../libs/libDaisy/src/dev/mpr121.h ****     {
 957              		.loc 9 183 10 is_stmt 1 view .LVU218
 958              	.LBB609:
 186:../../libs/libDaisy/src/dev/mpr121.h ****         {
 959              		.loc 9 186 30 view .LVU219
 960              	.L26:
 961              	.LBB610:
 962              	.LBI610:
 257:../../libs/libDaisy/src/dev/mpr121.h ****     {
 963              		.loc 9 257 10 view .LVU220
 964              	.LBB611:
 965              	.LBB612:
 966              	.LBB613:
  66:../../libs/libDaisy/src/dev/mpr121.h ****     }
 967              		.loc 9 66 40 is_stmt 0 view .LVU221
 968 00e2 0A26     		movs	r6, #10
 969              	.LBE613:
 970              	.LBE612:
 264:../../libs/libDaisy/src/dev/mpr121.h **** 
 971              		.loc 9 264 17 view .LVU222
 972 00e4 4FF00008 		mov	r8, #0
 973 00e8 5E27     		movs	r7, #94
 974              	.LBB616:
 975              	.LBB614:
  66:../../libs/libDaisy/src/dev/mpr121.h ****     }
 976              		.loc 9 66 40 view .LVU223
 977 00ea 0123     		movs	r3, #1
 978 00ec 0BAA     		add	r2, sp, #44
 979 00ee 94F82C10 		ldrb	r1, [r4, #44]	@ zero_extendqisi2
 980 00f2 0096     		str	r6, [sp]
 981 00f4 9248     		ldr	r0, .L41+12
 982              	.LBE614:
ARM GAS  C:\Users\skipi\AppData\Local\Temp\cc6ev9XQ.s 			page 43


 983              	.LBE616:
 264:../../libs/libDaisy/src/dev/mpr121.h **** 
 984              		.loc 9 264 17 view .LVU224
 985 00f6 8DF82D80 		strb	r8, [sp, #45]
 986 00fa 8DF82C70 		strb	r7, [sp, #44]
 987              	.LVL56:
 988              	.LBB617:
 989              	.LBI612:
  63:../../libs/libDaisy/src/dev/mpr121.h ****     {
 990              		.loc 9 63 10 is_stmt 1 view .LVU225
 991              	.LBB615:
  65:../../libs/libDaisy/src/dev/mpr121.h ****                != i2c_.TransmitBlocking(config_.dev_addr, data, size, 10);
 992              		.loc 9 65 9 view .LVU226
  66:../../libs/libDaisy/src/dev/mpr121.h ****     }
 993              		.loc 9 66 40 is_stmt 0 view .LVU227
 994 00fe FFF7FEFF 		bl	_ZN5daisy9I2CHandle16TransmitBlockingEtPhtm
 995              	.LVL57:
  66:../../libs/libDaisy/src/dev/mpr121.h ****     }
 996              		.loc 9 66 40 view .LVU228
 997              	.LBE615:
 998              	.LBE617:
 999              	.LBB618:
 1000              	.LBI618:
 1001              		.loc 9 343 10 is_stmt 1 view .LVU229
 1002              	.LBB619:
 1003              		.loc 9 343 55 is_stmt 0 view .LVU230
 1004 0102 94F83020 		ldrb	r2, [r4, #48]	@ zero_extendqisi2
 1005              	.LBE619:
 1006              	.LBE618:
 1007              	.LBB622:
 1008              	.LBB623:
  73:../../libs/libDaisy/src/dev/mpr121.h ****     }
 1009              		.loc 9 73 39 view .LVU231
 1010 0106 0123     		movs	r3, #1
 1011 0108 94F82C10 		ldrb	r1, [r4, #44]	@ zero_extendqisi2
 1012              	.LBE623:
 1013              	.LBE622:
 1014              	.LBB626:
 1015              	.LBB620:
 1016              		.loc 9 343 55 view .LVU232
 1017 010c 4045     		cmp	r0, r8
 1018 010e 18BF     		it	ne
 1019 0110 42F00102 		orrne	r2, r2, #1
 1020              	.LBE620:
 1021              	.LBE626:
 1022              	.LBB627:
 1023              	.LBB624:
  73:../../libs/libDaisy/src/dev/mpr121.h ****     }
 1024              		.loc 9 73 39 view .LVU233
 1025 0114 0096     		str	r6, [sp]
 1026 0116 8A48     		ldr	r0, .L41+12
 1027              	.LVL58:
  73:../../libs/libDaisy/src/dev/mpr121.h ****     }
 1028              		.loc 9 73 39 view .LVU234
 1029              	.LBE624:
 1030              	.LBE627:
 1031              	.LBB628:
ARM GAS  C:\Users\skipi\AppData\Local\Temp\cc6ev9XQ.s 			page 44


 1032              	.LBB621:
 1033              		.loc 9 343 55 view .LVU235
 1034 0118 84F83020 		strb	r2, [r4, #48]
 1035              	.LVL59:
 1036              		.loc 9 343 55 view .LVU236
 1037              	.LBE621:
 1038              	.LBE628:
 1039              	.LBB629:
 1040              	.LBI622:
  70:../../libs/libDaisy/src/dev/mpr121.h ****     {
 1041              		.loc 9 70 10 is_stmt 1 view .LVU237
 1042              	.LBB625:
  72:../../libs/libDaisy/src/dev/mpr121.h ****                != i2c_.ReceiveBlocking(config_.dev_addr, data, size, 10);
 1043              		.loc 9 72 9 view .LVU238
  73:../../libs/libDaisy/src/dev/mpr121.h ****     }
 1044              		.loc 9 73 39 is_stmt 0 view .LVU239
 1045 011c 06AA     		add	r2, sp, #24
 1046              	.LVL60:
  73:../../libs/libDaisy/src/dev/mpr121.h ****     }
 1047              		.loc 9 73 39 view .LVU240
 1048 011e FFF7FEFF 		bl	_ZN5daisy9I2CHandle15ReceiveBlockingEtPhtm
 1049              	.LVL61:
  73:../../libs/libDaisy/src/dev/mpr121.h ****     }
 1050              		.loc 9 73 39 view .LVU241
 1051              	.LBE625:
 1052              	.LBE629:
 1053              	.LBB630:
 1054              	.LBI630:
 1055              		.loc 9 343 10 is_stmt 1 view .LVU242
 1056              	.LBB631:
 1057              		.loc 9 343 55 is_stmt 0 view .LVU243
 1058 0122 94F83020 		ldrb	r2, [r4, #48]	@ zero_extendqisi2
 1059              	.LBE631:
 1060              	.LBE630:
 1061              	.LBB634:
 1062              	.LBB635:
  66:../../libs/libDaisy/src/dev/mpr121.h ****     }
 1063              		.loc 9 66 40 view .LVU244
 1064 0126 0223     		movs	r3, #2
 1065 0128 94F82C10 		ldrb	r1, [r4, #44]	@ zero_extendqisi2
 1066              	.LBE635:
 1067              	.LBE634:
 1068              	.LBB638:
 1069              	.LBB632:
 1070              		.loc 9 343 55 view .LVU245
 1071 012c 4045     		cmp	r0, r8
 1072 012e 18BF     		it	ne
 1073 0130 42F00102 		orrne	r2, r2, #1
 1074              	.LBE632:
 1075              	.LBE638:
 1076              	.LBB639:
 1077              	.LBB636:
  66:../../libs/libDaisy/src/dev/mpr121.h ****     }
 1078              		.loc 9 66 40 view .LVU246
 1079 0134 0096     		str	r6, [sp]
 1080 0136 8248     		ldr	r0, .L41+12
 1081              	.LVL62:
ARM GAS  C:\Users\skipi\AppData\Local\Temp\cc6ev9XQ.s 			page 45


  66:../../libs/libDaisy/src/dev/mpr121.h ****     }
 1082              		.loc 9 66 40 view .LVU247
 1083              	.LBE636:
 1084              	.LBE639:
 1085              	.LBB640:
 1086              	.LBB633:
 1087              		.loc 9 343 55 view .LVU248
 1088 0138 84F83020 		strb	r2, [r4, #48]
 1089              	.LVL63:
 1090              		.loc 9 343 55 view .LVU249
 1091              	.LBE633:
 1092              	.LBE640:
 1093              	.LBB641:
 1094              	.LBI634:
  63:../../libs/libDaisy/src/dev/mpr121.h ****     {
 1095              		.loc 9 63 10 is_stmt 1 view .LVU250
 1096              	.LBB637:
  65:../../libs/libDaisy/src/dev/mpr121.h ****                != i2c_.TransmitBlocking(config_.dev_addr, data, size, 10);
 1097              		.loc 9 65 9 view .LVU251
  66:../../libs/libDaisy/src/dev/mpr121.h ****     }
 1098              		.loc 9 66 40 is_stmt 0 view .LVU252
 1099 013c 0BAA     		add	r2, sp, #44
 1100              	.LVL64:
  66:../../libs/libDaisy/src/dev/mpr121.h ****     }
 1101              		.loc 9 66 40 view .LVU253
 1102 013e FFF7FEFF 		bl	_ZN5daisy9I2CHandle16TransmitBlockingEtPhtm
 1103              	.LVL65:
  66:../../libs/libDaisy/src/dev/mpr121.h ****     }
 1104              		.loc 9 66 40 view .LVU254
 1105              	.LBE637:
 1106              	.LBE641:
 1107              	.LBB642:
 1108              	.LBI642:
 1109              		.loc 9 343 10 is_stmt 1 view .LVU255
 1110              	.LBB643:
 1111              		.loc 9 343 55 is_stmt 0 view .LVU256
 1112 0142 94F83020 		ldrb	r2, [r4, #48]	@ zero_extendqisi2
 1113              	.LBE643:
 1114              	.LBE642:
 1115              	.LBB646:
 1116              	.LBB647:
  66:../../libs/libDaisy/src/dev/mpr121.h ****     }
 1117              		.loc 9 66 40 view .LVU257
 1118 0146 0223     		movs	r3, #2
 1119 0148 94F82C10 		ldrb	r1, [r4, #44]	@ zero_extendqisi2
 1120              	.LBE647:
 1121              	.LBE646:
 1122              	.LBB651:
 1123              	.LBB644:
 1124              		.loc 9 343 55 view .LVU258
 1125 014c 4045     		cmp	r0, r8
 1126 014e 18BF     		it	ne
 1127 0150 42F00102 		orrne	r2, r2, #1
 1128              	.LBE644:
 1129              	.LBE651:
 1130              	.LBB652:
 1131              	.LBB648:
ARM GAS  C:\Users\skipi\AppData\Local\Temp\cc6ev9XQ.s 			page 46


  66:../../libs/libDaisy/src/dev/mpr121.h ****     }
 1132              		.loc 9 66 40 view .LVU259
 1133 0154 0096     		str	r6, [sp]
 1134 0156 7A48     		ldr	r0, .L41+12
 1135              	.LVL66:
  66:../../libs/libDaisy/src/dev/mpr121.h ****     }
 1136              		.loc 9 66 40 view .LVU260
 1137              	.LBE648:
 1138              	.LBE652:
 1139              	.LBB653:
 1140              	.LBB645:
 1141              		.loc 9 343 55 view .LVU261
 1142 0158 84F83020 		strb	r2, [r4, #48]
 1143              	.LVL67:
 1144              		.loc 9 343 55 view .LVU262
 1145              	.LBE645:
 1146              	.LBE653:
 1147              	.LBB654:
 1148              	.LBI646:
  63:../../libs/libDaisy/src/dev/mpr121.h ****     {
 1149              		.loc 9 63 10 is_stmt 1 view .LVU263
 1150              	.LBB649:
  65:../../libs/libDaisy/src/dev/mpr121.h ****                != i2c_.TransmitBlocking(config_.dev_addr, data, size, 10);
 1151              		.loc 9 65 9 view .LVU264
  66:../../libs/libDaisy/src/dev/mpr121.h ****     }
 1152              		.loc 9 66 40 is_stmt 0 view .LVU265
 1153 015c 0BAA     		add	r2, sp, #44
 1154              	.LVL68:
  66:../../libs/libDaisy/src/dev/mpr121.h ****     }
 1155              		.loc 9 66 40 view .LVU266
 1156              	.LBE649:
 1157              	.LBE654:
 281:../../libs/libDaisy/src/dev/mpr121.h ****         buff[1] = value;
 1158              		.loc 9 281 17 view .LVU267
 1159 015e 8DF82C50 		strb	r5, [sp, #44]
 282:../../libs/libDaisy/src/dev/mpr121.h ****         SetTransportErr(transport_.Write(buff, 2));
 1160              		.loc 9 282 17 view .LVU268
 1161 0162 8DF82DA0 		strb	r10, [sp, #45]
 1162              	.LBB655:
 1163              	.LBB650:
  66:../../libs/libDaisy/src/dev/mpr121.h ****     }
 1164              		.loc 9 66 40 view .LVU269
 1165 0166 FFF7FEFF 		bl	_ZN5daisy9I2CHandle16TransmitBlockingEtPhtm
 1166              	.LVL69:
  66:../../libs/libDaisy/src/dev/mpr121.h ****     }
 1167              		.loc 9 66 40 view .LVU270
 1168              	.LBE650:
 1169              	.LBE655:
 1170              	.LBB656:
 1171              	.LBI656:
 1172              		.loc 9 343 10 is_stmt 1 view .LVU271
 1173              	.LBB657:
 1174              		.loc 9 343 55 is_stmt 0 view .LVU272
 1175 016a 94F83010 		ldrb	r1, [r4, #48]	@ zero_extendqisi2
 1176              	.LBE657:
 1177              	.LBE656:
 1178              	.LBB660:
ARM GAS  C:\Users\skipi\AppData\Local\Temp\cc6ev9XQ.s 			page 47


 1179              	.LBB661:
  66:../../libs/libDaisy/src/dev/mpr121.h ****     }
 1180              		.loc 9 66 40 view .LVU273
 1181 016e 0BAA     		add	r2, sp, #44
 1182              	.LBE661:
 1183              	.LBE660:
 289:../../libs/libDaisy/src/dev/mpr121.h ****             SetTransportErr(transport_.Write(buff, 2));
 1184              		.loc 9 289 21 view .LVU274
 1185 0170 9DF81830 		ldrb	r3, [sp, #24]	@ zero_extendqisi2
 1186              	.LBB666:
 1187              	.LBB658:
 1188              		.loc 9 343 55 view .LVU275
 1189 0174 4045     		cmp	r0, r8
 1190 0176 18BF     		it	ne
 1191 0178 41F00101 		orrne	r1, r1, #1
 1192              	.LBE658:
 1193              	.LBE666:
 1194              	.LBB667:
 1195              	.LBB662:
  66:../../libs/libDaisy/src/dev/mpr121.h ****     }
 1196              		.loc 9 66 40 view .LVU276
 1197 017c 0096     		str	r6, [sp]
 1198              	.LBE662:
 1199              	.LBE667:
 289:../../libs/libDaisy/src/dev/mpr121.h ****             SetTransportErr(transport_.Write(buff, 2));
 1200              		.loc 9 289 21 view .LVU277
 1201 017e 8DF82D30 		strb	r3, [sp, #45]
 1202              	.LBB668:
 1203              	.LBB663:
  66:../../libs/libDaisy/src/dev/mpr121.h ****     }
 1204              		.loc 9 66 40 view .LVU278
 1205 0182 0223     		movs	r3, #2
 1206              	.LBE663:
 1207              	.LBE668:
 1208              	.LBB669:
 1209              	.LBB659:
 1210              		.loc 9 343 55 view .LVU279
 1211 0184 84F83010 		strb	r1, [r4, #48]
 1212              	.LVL70:
 1213              		.loc 9 343 55 view .LVU280
 1214              	.LBE659:
 1215              	.LBE669:
 1216              	.LBB670:
 1217              	.LBI660:
  63:../../libs/libDaisy/src/dev/mpr121.h ****     {
 1218              		.loc 9 63 10 is_stmt 1 view .LVU281
 1219              	.LBB664:
  65:../../libs/libDaisy/src/dev/mpr121.h ****                != i2c_.TransmitBlocking(config_.dev_addr, data, size, 10);
 1220              		.loc 9 65 9 view .LVU282
  66:../../libs/libDaisy/src/dev/mpr121.h ****     }
 1221              		.loc 9 66 40 is_stmt 0 view .LVU283
 1222 0188 6D48     		ldr	r0, .L41+12
 1223 018a 94F82C10 		ldrb	r1, [r4, #44]	@ zero_extendqisi2
 1224              	.LBE664:
 1225              	.LBE670:
 288:../../libs/libDaisy/src/dev/mpr121.h ****             buff[1] = ecr_backup;
 1226              		.loc 9 288 21 view .LVU284
ARM GAS  C:\Users\skipi\AppData\Local\Temp\cc6ev9XQ.s 			page 48


 1227 018e 8DF82C70 		strb	r7, [sp, #44]
 1228              	.LBB671:
 1229              	.LBB665:
  66:../../libs/libDaisy/src/dev/mpr121.h ****     }
 1230              		.loc 9 66 40 view .LVU285
 1231 0192 FFF7FEFF 		bl	_ZN5daisy9I2CHandle16TransmitBlockingEtPhtm
 1232              	.LVL71:
  66:../../libs/libDaisy/src/dev/mpr121.h ****     }
 1233              		.loc 9 66 40 view .LVU286
 1234              	.LBE665:
 1235              	.LBE671:
 1236              	.LBB672:
 1237              	.LBI672:
 1238              		.loc 9 343 10 is_stmt 1 view .LVU287
 1239              	.LBB673:
 1240              		.loc 9 343 55 is_stmt 0 view .LVU288
 1241 0196 94F83020 		ldrb	r2, [r4, #48]	@ zero_extendqisi2
 1242              	.LBE673:
 1243              	.LBE672:
 1244              	.LBE611:
 1245              	.LBE610:
 1246              	.LBB680:
 1247              	.LBB681:
 1248              	.LBB682:
 1249              	.LBB683:
  66:../../libs/libDaisy/src/dev/mpr121.h ****     }
 1250              		.loc 9 66 40 view .LVU289
 1251 019a 0123     		movs	r3, #1
 1252 019c 94F82C10 		ldrb	r1, [r4, #44]	@ zero_extendqisi2
 1253              	.LBE683:
 1254              	.LBE682:
 1255              	.LBE681:
 1256              	.LBE680:
 1257              	.LBB755:
 1258              	.LBB678:
 1259              	.LBB676:
 1260              	.LBB674:
 1261              		.loc 9 343 55 view .LVU290
 1262 01a0 4045     		cmp	r0, r8
 1263 01a2 18BF     		it	ne
 1264 01a4 42F00102 		orrne	r2, r2, #1
 1265              	.LBE674:
 1266              	.LBE676:
 1267              	.LBE678:
 1268              	.LBE755:
 1269              	.LBB756:
 1270              	.LBB750:
 1271              	.LBB687:
 1272              	.LBB684:
  66:../../libs/libDaisy/src/dev/mpr121.h ****     }
 1273              		.loc 9 66 40 view .LVU291
 1274 01a8 0096     		str	r6, [sp]
 1275 01aa 6548     		ldr	r0, .L41+12
 1276              	.LVL72:
  66:../../libs/libDaisy/src/dev/mpr121.h ****     }
 1277              		.loc 9 66 40 view .LVU292
 1278              	.LBE684:
ARM GAS  C:\Users\skipi\AppData\Local\Temp\cc6ev9XQ.s 			page 49


 1279              	.LBE687:
 1280              	.LBE750:
 1281              	.LBE756:
 1282              	.LBB757:
 1283              	.LBB679:
 1284              	.LBB677:
 1285              	.LBB675:
 1286              		.loc 9 343 55 view .LVU293
 1287 01ac 84F83020 		strb	r2, [r4, #48]
 1288              	.LVL73:
 1289              		.loc 9 343 55 view .LVU294
 1290              	.LBE675:
 1291              	.LBE677:
 1292              	.LBE679:
 1293              	.LBE757:
 1294              	.LBB758:
 1295              	.LBI680:
 257:../../libs/libDaisy/src/dev/mpr121.h ****     {
 1296              		.loc 9 257 10 is_stmt 1 view .LVU295
 1297              	.LBB751:
 1298              	.LBB688:
 1299              	.LBI682:
  63:../../libs/libDaisy/src/dev/mpr121.h ****     {
 1300              		.loc 9 63 10 view .LVU296
 1301              	.LBB685:
  65:../../libs/libDaisy/src/dev/mpr121.h ****                != i2c_.TransmitBlocking(config_.dev_addr, data, size, 10);
 1302              		.loc 9 65 9 view .LVU297
  66:../../libs/libDaisy/src/dev/mpr121.h ****     }
 1303              		.loc 9 66 40 is_stmt 0 view .LVU298
 1304 01b0 0BAA     		add	r2, sp, #44
 1305              	.LVL74:
  66:../../libs/libDaisy/src/dev/mpr121.h ****     }
 1306              		.loc 9 66 40 view .LVU299
 1307              	.LBE685:
 1308              	.LBE688:
 264:../../libs/libDaisy/src/dev/mpr121.h **** 
 1309              		.loc 9 264 17 view .LVU300
 1310 01b2 8DF82D80 		strb	r8, [sp, #45]
 1311 01b6 8DF82C70 		strb	r7, [sp, #44]
 1312              	.LBB689:
 1313              	.LBB686:
  66:../../libs/libDaisy/src/dev/mpr121.h ****     }
 1314              		.loc 9 66 40 view .LVU301
 1315 01ba FFF7FEFF 		bl	_ZN5daisy9I2CHandle16TransmitBlockingEtPhtm
 1316              	.LVL75:
  66:../../libs/libDaisy/src/dev/mpr121.h ****     }
 1317              		.loc 9 66 40 view .LVU302
 1318              	.LBE686:
 1319              	.LBE689:
 1320              	.LBB690:
 1321              	.LBI690:
 1322              		.loc 9 343 10 is_stmt 1 view .LVU303
 1323              	.LBB691:
 1324              		.loc 9 343 55 is_stmt 0 view .LVU304
 1325 01be 94F83020 		ldrb	r2, [r4, #48]	@ zero_extendqisi2
 1326              	.LBE691:
 1327              	.LBE690:
ARM GAS  C:\Users\skipi\AppData\Local\Temp\cc6ev9XQ.s 			page 50


 1328              	.LBB694:
 1329              	.LBB695:
  73:../../libs/libDaisy/src/dev/mpr121.h ****     }
 1330              		.loc 9 73 39 view .LVU305
 1331 01c2 0123     		movs	r3, #1
 1332 01c4 94F82C10 		ldrb	r1, [r4, #44]	@ zero_extendqisi2
 1333              	.LBE695:
 1334              	.LBE694:
 1335              	.LBB698:
 1336              	.LBB692:
 1337              		.loc 9 343 55 view .LVU306
 1338 01c8 4045     		cmp	r0, r8
 1339 01ca 18BF     		it	ne
 1340 01cc 42F00102 		orrne	r2, r2, #1
 1341              	.LBE692:
 1342              	.LBE698:
 1343              	.LBB699:
 1344              	.LBB696:
  73:../../libs/libDaisy/src/dev/mpr121.h ****     }
 1345              		.loc 9 73 39 view .LVU307
 1346 01d0 0096     		str	r6, [sp]
 1347 01d2 5B48     		ldr	r0, .L41+12
 1348              	.LVL76:
  73:../../libs/libDaisy/src/dev/mpr121.h ****     }
 1349              		.loc 9 73 39 view .LVU308
 1350              	.LBE696:
 1351              	.LBE699:
 1352              	.LBB700:
 1353              	.LBB693:
 1354              		.loc 9 343 55 view .LVU309
 1355 01d4 84F83020 		strb	r2, [r4, #48]
 1356              	.LVL77:
 1357              		.loc 9 343 55 view .LVU310
 1358              	.LBE693:
 1359              	.LBE700:
 1360              	.LBB701:
 1361              	.LBI694:
  70:../../libs/libDaisy/src/dev/mpr121.h ****     {
 1362              		.loc 9 70 10 is_stmt 1 view .LVU311
 1363              	.LBB697:
  72:../../libs/libDaisy/src/dev/mpr121.h ****                != i2c_.ReceiveBlocking(config_.dev_addr, data, size, 10);
 1364              		.loc 9 72 9 view .LVU312
  73:../../libs/libDaisy/src/dev/mpr121.h ****     }
 1365              		.loc 9 73 39 is_stmt 0 view .LVU313
 1366 01d8 06AA     		add	r2, sp, #24
 1367              	.LVL78:
  73:../../libs/libDaisy/src/dev/mpr121.h ****     }
 1368              		.loc 9 73 39 view .LVU314
 1369 01da FFF7FEFF 		bl	_ZN5daisy9I2CHandle15ReceiveBlockingEtPhtm
 1370              	.LVL79:
  73:../../libs/libDaisy/src/dev/mpr121.h ****     }
 1371              		.loc 9 73 39 view .LVU315
 1372              	.LBE697:
 1373              	.LBE701:
 1374              	.LBB702:
 1375              	.LBI702:
 1376              		.loc 9 343 10 is_stmt 1 view .LVU316
ARM GAS  C:\Users\skipi\AppData\Local\Temp\cc6ev9XQ.s 			page 51


 1377              	.LBB703:
 1378              		.loc 9 343 55 is_stmt 0 view .LVU317
 1379 01de 94F83020 		ldrb	r2, [r4, #48]	@ zero_extendqisi2
 1380              	.LBE703:
 1381              	.LBE702:
 1382              	.LBB706:
 1383              	.LBB707:
  66:../../libs/libDaisy/src/dev/mpr121.h ****     }
 1384              		.loc 9 66 40 view .LVU318
 1385 01e2 0223     		movs	r3, #2
 1386 01e4 94F82C10 		ldrb	r1, [r4, #44]	@ zero_extendqisi2
 1387              	.LBE707:
 1388              	.LBE706:
 1389              	.LBB710:
 1390              	.LBB704:
 1391              		.loc 9 343 55 view .LVU319
 1392 01e8 4045     		cmp	r0, r8
 1393 01ea 18BF     		it	ne
 1394 01ec 42F00102 		orrne	r2, r2, #1
 1395              	.LBE704:
 1396              	.LBE710:
 1397              	.LBB711:
 1398              	.LBB708:
  66:../../libs/libDaisy/src/dev/mpr121.h ****     }
 1399              		.loc 9 66 40 view .LVU320
 1400 01f0 0096     		str	r6, [sp]
 1401 01f2 5348     		ldr	r0, .L41+12
 1402              	.LVL80:
  66:../../libs/libDaisy/src/dev/mpr121.h ****     }
 1403              		.loc 9 66 40 view .LVU321
 1404              	.LBE708:
 1405              	.LBE711:
 1406              	.LBB712:
 1407              	.LBB705:
 1408              		.loc 9 343 55 view .LVU322
 1409 01f4 84F83020 		strb	r2, [r4, #48]
 1410              	.LVL81:
 1411              		.loc 9 343 55 view .LVU323
 1412              	.LBE705:
 1413              	.LBE712:
 1414              	.LBB713:
 1415              	.LBI706:
  63:../../libs/libDaisy/src/dev/mpr121.h ****     {
 1416              		.loc 9 63 10 is_stmt 1 view .LVU324
 1417              	.LBB709:
  65:../../libs/libDaisy/src/dev/mpr121.h ****                != i2c_.TransmitBlocking(config_.dev_addr, data, size, 10);
 1418              		.loc 9 65 9 view .LVU325
  66:../../libs/libDaisy/src/dev/mpr121.h ****     }
 1419              		.loc 9 66 40 is_stmt 0 view .LVU326
 1420 01f8 0BAA     		add	r2, sp, #44
 1421              	.LVL82:
  66:../../libs/libDaisy/src/dev/mpr121.h ****     }
 1422              		.loc 9 66 40 view .LVU327
 1423 01fa FFF7FEFF 		bl	_ZN5daisy9I2CHandle16TransmitBlockingEtPhtm
 1424              	.LVL83:
  66:../../libs/libDaisy/src/dev/mpr121.h ****     }
 1425              		.loc 9 66 40 view .LVU328
ARM GAS  C:\Users\skipi\AppData\Local\Temp\cc6ev9XQ.s 			page 52


 1426              	.LBE709:
 1427              	.LBE713:
 1428              	.LBB714:
 1429              	.LBI714:
 1430              		.loc 9 343 10 is_stmt 1 view .LVU329
 1431              	.LBB715:
 1432              		.loc 9 343 55 is_stmt 0 view .LVU330
 1433 01fe 94F83010 		ldrb	r1, [r4, #48]	@ zero_extendqisi2
 1434              	.LBE715:
 1435              	.LBE714:
 281:../../libs/libDaisy/src/dev/mpr121.h ****         buff[1] = value;
 1436              		.loc 9 281 17 view .LVU331
 1437 0202 6B1C     		adds	r3, r5, #1
 1438              	.LBB718:
 1439              	.LBB719:
  66:../../libs/libDaisy/src/dev/mpr121.h ****     }
 1440              		.loc 9 66 40 view .LVU332
 1441 0204 0BAA     		add	r2, sp, #44
 1442              	.LBE719:
 1443              	.LBE718:
 1444              	.LBB725:
 1445              	.LBB716:
 1446              		.loc 9 343 55 view .LVU333
 1447 0206 4045     		cmp	r0, r8
 1448 0208 18BF     		it	ne
 1449 020a 41F00101 		orrne	r1, r1, #1
 1450              	.LBE716:
 1451              	.LBE725:
 1452              	.LBB726:
 1453              	.LBB720:
  66:../../libs/libDaisy/src/dev/mpr121.h ****     }
 1454              		.loc 9 66 40 view .LVU334
 1455 020e 0096     		str	r6, [sp]
 1456              	.LBE720:
 1457              	.LBE726:
 281:../../libs/libDaisy/src/dev/mpr121.h ****         buff[1] = value;
 1458              		.loc 9 281 17 view .LVU335
 1459 0210 8DF82C30 		strb	r3, [sp, #44]
 1460              	.LBB727:
 1461              	.LBB721:
  66:../../libs/libDaisy/src/dev/mpr121.h ****     }
 1462              		.loc 9 66 40 view .LVU336
 1463 0214 0223     		movs	r3, #2
 1464              	.LBE721:
 1465              	.LBE727:
 1466              	.LBB728:
 1467              	.LBB717:
 1468              		.loc 9 343 55 view .LVU337
 1469 0216 84F83010 		strb	r1, [r4, #48]
 1470              	.LVL84:
 1471              		.loc 9 343 55 view .LVU338
 1472              	.LBE717:
 1473              	.LBE728:
 1474              	.LBB729:
 1475              	.LBI718:
  63:../../libs/libDaisy/src/dev/mpr121.h ****     {
 1476              		.loc 9 63 10 is_stmt 1 view .LVU339
ARM GAS  C:\Users\skipi\AppData\Local\Temp\cc6ev9XQ.s 			page 53


 1477              	.LBB722:
  65:../../libs/libDaisy/src/dev/mpr121.h ****                != i2c_.TransmitBlocking(config_.dev_addr, data, size, 10);
 1478              		.loc 9 65 9 view .LVU340
 1479              	.LBE722:
 1480              	.LBE729:
 1481              	.LBE751:
 1482              	.LBE758:
 186:../../libs/libDaisy/src/dev/mpr121.h ****         {
 1483              		.loc 9 186 30 is_stmt 0 view .LVU341
 1484 021a 0235     		adds	r5, r5, #2
 1485              	.LVL85:
 1486              	.LBB759:
 1487              	.LBB752:
 1488              	.LBB730:
 1489              	.LBB723:
  66:../../libs/libDaisy/src/dev/mpr121.h ****     }
 1490              		.loc 9 66 40 view .LVU342
 1491 021c 94F82C10 		ldrb	r1, [r4, #44]	@ zero_extendqisi2
 1492 0220 4748     		ldr	r0, .L41+12
 1493              	.LBE723:
 1494              	.LBE730:
 1495              	.LBE752:
 1496              	.LBE759:
 186:../../libs/libDaisy/src/dev/mpr121.h ****         {
 1497              		.loc 9 186 30 view .LVU343
 1498 0222 EDB2     		uxtb	r5, r5
 1499              	.LBB760:
 1500              	.LBB753:
 282:../../libs/libDaisy/src/dev/mpr121.h ****         SetTransportErr(transport_.Write(buff, 2));
 1501              		.loc 9 282 17 view .LVU344
 1502 0224 8DF82D90 		strb	r9, [sp, #45]
 1503              	.LBB731:
 1504              	.LBB724:
  66:../../libs/libDaisy/src/dev/mpr121.h ****     }
 1505              		.loc 9 66 40 view .LVU345
 1506 0228 FFF7FEFF 		bl	_ZN5daisy9I2CHandle16TransmitBlockingEtPhtm
 1507              	.LVL86:
  66:../../libs/libDaisy/src/dev/mpr121.h ****     }
 1508              		.loc 9 66 40 view .LVU346
 1509              	.LBE724:
 1510              	.LBE731:
 1511              	.LBB732:
 1512              	.LBI732:
 1513              		.loc 9 343 10 is_stmt 1 view .LVU347
 1514              	.LBB733:
 1515              		.loc 9 343 55 is_stmt 0 view .LVU348
 1516 022c 94F83020 		ldrb	r2, [r4, #48]	@ zero_extendqisi2
 1517              	.LBE733:
 1518              	.LBE732:
 1519              	.LBB736:
 1520              	.LBB737:
  66:../../libs/libDaisy/src/dev/mpr121.h ****     }
 1521              		.loc 9 66 40 view .LVU349
 1522 0230 0223     		movs	r3, #2
 1523              	.LBE737:
 1524              	.LBE736:
 289:../../libs/libDaisy/src/dev/mpr121.h ****             SetTransportErr(transport_.Write(buff, 2));
ARM GAS  C:\Users\skipi\AppData\Local\Temp\cc6ev9XQ.s 			page 54


 1525              		.loc 9 289 21 view .LVU350
 1526 0232 9DF81810 		ldrb	r1, [sp, #24]	@ zero_extendqisi2
 1527              	.LBB741:
 1528              	.LBB738:
  66:../../libs/libDaisy/src/dev/mpr121.h ****     }
 1529              		.loc 9 66 40 view .LVU351
 1530 0236 0096     		str	r6, [sp]
 1531              	.LBE738:
 1532              	.LBE741:
 1533              	.LBB742:
 1534              	.LBB734:
 1535              		.loc 9 343 55 view .LVU352
 1536 0238 4045     		cmp	r0, r8
 1537 023a 0CBF     		ite	eq
 1538 023c 1646     		moveq	r6, r2
 1539 023e 42F00106 		orrne	r6, r2, #1
 1540              	.LBE734:
 1541              	.LBE742:
 289:../../libs/libDaisy/src/dev/mpr121.h ****             SetTransportErr(transport_.Write(buff, 2));
 1542              		.loc 9 289 21 view .LVU353
 1543 0242 8DF82D10 		strb	r1, [sp, #45]
 1544              	.LBB743:
 1545              	.LBB739:
  66:../../libs/libDaisy/src/dev/mpr121.h ****     }
 1546              		.loc 9 66 40 view .LVU354
 1547 0246 0BAA     		add	r2, sp, #44
 1548 0248 94F82C10 		ldrb	r1, [r4, #44]	@ zero_extendqisi2
 1549 024c 3C48     		ldr	r0, .L41+12
 1550              	.LVL87:
  66:../../libs/libDaisy/src/dev/mpr121.h ****     }
 1551              		.loc 9 66 40 view .LVU355
 1552              	.LBE739:
 1553              	.LBE743:
 288:../../libs/libDaisy/src/dev/mpr121.h ****             buff[1] = ecr_backup;
 1554              		.loc 9 288 21 view .LVU356
 1555 024e 8DF82C70 		strb	r7, [sp, #44]
 1556              	.LBB744:
 1557              	.LBB735:
 1558              		.loc 9 343 55 view .LVU357
 1559 0252 84F83060 		strb	r6, [r4, #48]
 1560              	.LVL88:
 1561              		.loc 9 343 55 view .LVU358
 1562              	.LBE735:
 1563              	.LBE744:
 1564              	.LBB745:
 1565              	.LBI736:
  63:../../libs/libDaisy/src/dev/mpr121.h ****     {
 1566              		.loc 9 63 10 is_stmt 1 view .LVU359
 1567              	.LBB740:
  65:../../libs/libDaisy/src/dev/mpr121.h ****                != i2c_.TransmitBlocking(config_.dev_addr, data, size, 10);
 1568              		.loc 9 65 9 view .LVU360
  66:../../libs/libDaisy/src/dev/mpr121.h ****     }
 1569              		.loc 9 66 40 is_stmt 0 view .LVU361
 1570 0256 FFF7FEFF 		bl	_ZN5daisy9I2CHandle16TransmitBlockingEtPhtm
 1571              	.LVL89:
  66:../../libs/libDaisy/src/dev/mpr121.h ****     }
 1572              		.loc 9 66 40 view .LVU362
ARM GAS  C:\Users\skipi\AppData\Local\Temp\cc6ev9XQ.s 			page 55


 1573              	.LBE740:
 1574              	.LBE745:
 1575              	.LBB746:
 1576              	.LBI746:
 1577              		.loc 9 343 10 is_stmt 1 view .LVU363
 1578              	.LBB747:
 1579              		.loc 9 343 55 is_stmt 0 view .LVU364
 1580 025a 94F83030 		ldrb	r3, [r4, #48]	@ zero_extendqisi2
 1581 025e 4045     		cmp	r0, r8
 1582 0260 18BF     		it	ne
 1583 0262 43F00103 		orrne	r3, r3, #1
 1584              	.LBE747:
 1585              	.LBE746:
 1586              	.LBE753:
 1587              	.LBE760:
 186:../../libs/libDaisy/src/dev/mpr121.h ****         {
 1588              		.loc 9 186 30 view .LVU365
 1589 0266 592D     		cmp	r5, #89
 1590              	.LBB761:
 1591              	.LBB754:
 1592              	.LBB749:
 1593              	.LBB748:
 1594              		.loc 9 343 55 view .LVU366
 1595 0268 84F83030 		strb	r3, [r4, #48]
 1596              	.LVL90:
 1597              		.loc 9 343 55 view .LVU367
 1598              	.LBE748:
 1599              	.LBE749:
 1600              	.LBE754:
 1601              	.LBE761:
 186:../../libs/libDaisy/src/dev/mpr121.h ****         {
 1602              		.loc 9 186 9 is_stmt 1 view .LVU368
 186:../../libs/libDaisy/src/dev/mpr121.h ****         {
 1603              		.loc 9 186 30 view .LVU369
 1604 026c 7FF439AF 		bne	.L26
 1605              	.LVL91:
 186:../../libs/libDaisy/src/dev/mpr121.h ****         {
 1606              		.loc 9 186 30 is_stmt 0 view .LVU370
 1607              	.LBE609:
 1608              	.LBE608:
 140:../../libs/libDaisy/src/dev/mpr121.h ****         WriteRegister(MPR121_NHDR, 0x01);
 1609              		.loc 9 140 22 view .LVU371
 1610 0270 0122     		movs	r2, #1
 1611 0272 2B21     		movs	r1, #43
 1612 0274 3048     		ldr	r0, .L41+4
 1613 0276 FFF7FEFF 		bl	_ZN5daisy6Mpr121INS_18Mpr121I2CTransportEE13WriteRegisterEhh
 1614              	.LVL92:
 141:../../libs/libDaisy/src/dev/mpr121.h ****         WriteRegister(MPR121_NCLR, 0x0E);
 1615              		.loc 9 141 22 view .LVU372
 1616 027a 0122     		movs	r2, #1
 1617 027c 2C21     		movs	r1, #44
 1618 027e 2E48     		ldr	r0, .L41+4
 1619 0280 FFF7FEFF 		bl	_ZN5daisy6Mpr121INS_18Mpr121I2CTransportEE13WriteRegisterEhh
 1620              	.LVL93:
 142:../../libs/libDaisy/src/dev/mpr121.h ****         WriteRegister(MPR121_FDLR, 0x00);
 1621              		.loc 9 142 22 view .LVU373
 1622 0284 0E22     		movs	r2, #14
ARM GAS  C:\Users\skipi\AppData\Local\Temp\cc6ev9XQ.s 			page 56


 1623 0286 2D21     		movs	r1, #45
 1624 0288 2B48     		ldr	r0, .L41+4
 1625 028a FFF7FEFF 		bl	_ZN5daisy6Mpr121INS_18Mpr121I2CTransportEE13WriteRegisterEhh
 1626              	.LVL94:
 143:../../libs/libDaisy/src/dev/mpr121.h **** 
 1627              		.loc 9 143 22 view .LVU374
 1628 028e 4246     		mov	r2, r8
 1629 0290 2E21     		movs	r1, #46
 1630 0292 2948     		ldr	r0, .L41+4
 1631 0294 FFF7FEFF 		bl	_ZN5daisy6Mpr121INS_18Mpr121I2CTransportEE13WriteRegisterEhh
 1632              	.LVL95:
 145:../../libs/libDaisy/src/dev/mpr121.h ****         WriteRegister(MPR121_NHDF, 0x05);
 1633              		.loc 9 145 22 view .LVU375
 1634 0298 0122     		movs	r2, #1
 1635 029a 2F21     		movs	r1, #47
 1636 029c 2648     		ldr	r0, .L41+4
 1637 029e FFF7FEFF 		bl	_ZN5daisy6Mpr121INS_18Mpr121I2CTransportEE13WriteRegisterEhh
 1638              	.LVL96:
 146:../../libs/libDaisy/src/dev/mpr121.h ****         WriteRegister(MPR121_NCLF, 0x01);
 1639              		.loc 9 146 22 view .LVU376
 1640 02a2 0522     		movs	r2, #5
 1641 02a4 3021     		movs	r1, #48
 1642 02a6 2448     		ldr	r0, .L41+4
 1643 02a8 FFF7FEFF 		bl	_ZN5daisy6Mpr121INS_18Mpr121I2CTransportEE13WriteRegisterEhh
 1644              	.LVL97:
 147:../../libs/libDaisy/src/dev/mpr121.h ****         WriteRegister(MPR121_FDLF, 0x00);
 1645              		.loc 9 147 22 view .LVU377
 1646 02ac 0122     		movs	r2, #1
 1647 02ae 3121     		movs	r1, #49
 1648 02b0 2148     		ldr	r0, .L41+4
 1649 02b2 FFF7FEFF 		bl	_ZN5daisy6Mpr121INS_18Mpr121I2CTransportEE13WriteRegisterEhh
 1650              	.LVL98:
 148:../../libs/libDaisy/src/dev/mpr121.h **** 
 1651              		.loc 9 148 22 view .LVU378
 1652 02b6 4246     		mov	r2, r8
 1653 02b8 3221     		movs	r1, #50
 1654 02ba 1F48     		ldr	r0, .L41+4
 1655 02bc FFF7FEFF 		bl	_ZN5daisy6Mpr121INS_18Mpr121I2CTransportEE13WriteRegisterEhh
 1656              	.LVL99:
 150:../../libs/libDaisy/src/dev/mpr121.h ****         WriteRegister(MPR121_NCLT, 0x00);
 1657              		.loc 9 150 22 view .LVU379
 1658 02c0 4246     		mov	r2, r8
 1659 02c2 3321     		movs	r1, #51
 1660 02c4 1C48     		ldr	r0, .L41+4
 1661 02c6 FFF7FEFF 		bl	_ZN5daisy6Mpr121INS_18Mpr121I2CTransportEE13WriteRegisterEhh
 1662              	.LVL100:
 151:../../libs/libDaisy/src/dev/mpr121.h ****         WriteRegister(MPR121_FDLT, 0x00);
 1663              		.loc 9 151 22 view .LVU380
 1664 02ca 4246     		mov	r2, r8
 1665 02cc 3421     		movs	r1, #52
 1666 02ce 1A48     		ldr	r0, .L41+4
 1667 02d0 FFF7FEFF 		bl	_ZN5daisy6Mpr121INS_18Mpr121I2CTransportEE13WriteRegisterEhh
 1668              	.LVL101:
 152:../../libs/libDaisy/src/dev/mpr121.h **** 
 1669              		.loc 9 152 22 view .LVU381
 1670 02d4 4246     		mov	r2, r8
 1671 02d6 3521     		movs	r1, #53
ARM GAS  C:\Users\skipi\AppData\Local\Temp\cc6ev9XQ.s 			page 57


 1672 02d8 1748     		ldr	r0, .L41+4
 1673 02da FFF7FEFF 		bl	_ZN5daisy6Mpr121INS_18Mpr121I2CTransportEE13WriteRegisterEhh
 1674              	.LVL102:
 154:../../libs/libDaisy/src/dev/mpr121.h ****         WriteRegister(MPR121_CONFIG1, 0x10); // default, 16uA charge current
 1675              		.loc 9 154 22 view .LVU382
 1676 02de 4246     		mov	r2, r8
 1677 02e0 5B21     		movs	r1, #91
 1678 02e2 1548     		ldr	r0, .L41+4
 1679 02e4 FFF7FEFF 		bl	_ZN5daisy6Mpr121INS_18Mpr121I2CTransportEE13WriteRegisterEhh
 1680              	.LVL103:
 155:../../libs/libDaisy/src/dev/mpr121.h ****         WriteRegister(MPR121_CONFIG2, 0x20); // 0.5uS encoding, 1ms period
 1681              		.loc 9 155 22 view .LVU383
 1682 02e8 1022     		movs	r2, #16
 1683 02ea 5C21     		movs	r1, #92
 1684 02ec 1248     		ldr	r0, .L41+4
 1685 02ee FFF7FEFF 		bl	_ZN5daisy6Mpr121INS_18Mpr121I2CTransportEE13WriteRegisterEhh
 1686              	.LVL104:
 156:../../libs/libDaisy/src/dev/mpr121.h **** 
 1687              		.loc 9 156 22 view .LVU384
 1688 02f2 2022     		movs	r2, #32
 1689 02f4 5D21     		movs	r1, #93
 1690 02f6 1048     		ldr	r0, .L41+4
 1691 02f8 FFF7FEFF 		bl	_ZN5daisy6Mpr121INS_18Mpr121I2CTransportEE13WriteRegisterEhh
 1692              	.LVL105:
 172:../../libs/libDaisy/src/dev/mpr121.h ****                       ECR_SETTING); // start with above ECR setting
 1693              		.loc 9 172 22 view .LVU385
 1694 02fc 8C22     		movs	r2, #140
 1695 02fe 3946     		mov	r1, r7
 1696 0300 0D48     		ldr	r0, .L41+4
 1697 0302 FFF7FEFF 		bl	_ZN5daisy6Mpr121INS_18Mpr121I2CTransportEE13WriteRegisterEhh
 1698              	.LVL106:
 1699              	.LBB762:
 1700              	.LBI762:
 344:../../libs/libDaisy/src/dev/mpr121.h **** 
 345:../../libs/libDaisy/src/dev/mpr121.h ****     /** Get the global transport_error_ bool (as a Result), then reset it */
 346:../../libs/libDaisy/src/dev/mpr121.h ****     Result GetTransportErr()
 1701              		.loc 9 346 12 is_stmt 1 view .LVU386
 1702              	.LBB763:
 347:../../libs/libDaisy/src/dev/mpr121.h ****     {
 348:../../libs/libDaisy/src/dev/mpr121.h ****         Result ret       = transport_error_ ? ERR : OK;
 1703              		.loc 9 348 45 is_stmt 0 view .LVU387
 1704 0306 94F83060 		ldrb	r6, [r4, #48]	@ zero_extendqisi2
 1705 030a 0EB3     		cbz	r6, .L27
 1706              	.LVL107:
 1707              		.loc 9 348 45 view .LVU388
 1708              	.LBE763:
 1709              	.LBE762:
 1710              	.LBE769:
 1711              	.LBE775:
 1712              	.LBB776:
 1713              	.LBB777:
 128:../../libs/libDaisy/src/daisy_seed.h ****     }
 1714              		.loc 1 128 23 view .LVU389
 1715 030c 0D48     		ldr	r0, .L41+16
 1716              	.LBE777:
 1717              	.LBE776:
 1718              	.LBB779:
ARM GAS  C:\Users\skipi\AppData\Local\Temp\cc6ev9XQ.s 			page 58


 1719              	.LBB770:
 1720              	.LBB765:
 1721              	.LBB764:
 349:../../libs/libDaisy/src/dev/mpr121.h ****         transport_error_ = false;
 1722              		.loc 9 349 26 view .LVU390
 1723 030e 84F83080 		strb	r8, [r4, #48]
 1724              	.LVL108:
 1725              		.loc 9 349 26 view .LVU391
 1726              	.LBE764:
 1727              	.LBE765:
 1728              	.LBE770:
 1729              	.LBE779:
  77:main.cpp      ****     {
  78:main.cpp      ****         #ifdef Debug
  79:main.cpp      ****         hw.PrintLine("ERROR: MPR121 not found.");
 1730              		.loc 10 79 9 is_stmt 1 view .LVU392
 1731              	.LBB780:
 1732              	.LBI776:
 126:../../libs/libDaisy/src/daisy_seed.h ****     {
 1733              		.loc 1 126 17 view .LVU393
 1734              	.LBB778:
 128:../../libs/libDaisy/src/daisy_seed.h ****     }
 1735              		.loc 1 128 23 is_stmt 0 view .LVU394
 1736 0312 FFF7FEFF 		bl	_ZN5daisy6LoggerILNS_17LoggerDestinationE1EE9PrintLineEPKcz
 1737              	.LVL109:
 1738              	.L28:
 128:../../libs/libDaisy/src/daisy_seed.h ****     }
 1739              		.loc 1 128 23 view .LVU395
 1740              	.LBE778:
 1741              	.LBE780:
  80:main.cpp      ****         #endif
  81:main.cpp      ****         while (1) {
 1742              		.loc 10 81 9 is_stmt 1 discriminator 1 view .LVU396
  82:main.cpp      ****             hw.SetLed(true); hw.DelayMs(100);
 1743              		.loc 10 82 13 discriminator 1 view .LVU397
 1744              		.loc 10 82 22 is_stmt 0 discriminator 1 view .LVU398
 1745 0316 0121     		movs	r1, #1
 1746 0318 0648     		ldr	r0, .L41
 1747 031a FFF7FEFF 		bl	_ZN5daisy9DaisySeed6SetLedEb
 1748              	.LVL110:
 1749              		.loc 10 82 30 is_stmt 1 discriminator 1 view .LVU399
 1750              		.loc 10 82 40 is_stmt 0 discriminator 1 view .LVU400
 1751 031e 6421     		movs	r1, #100
 1752 0320 0448     		ldr	r0, .L41
 1753 0322 FFF7FEFF 		bl	_ZN5daisy9DaisySeed7DelayMsEj
 1754              	.LVL111:
  83:main.cpp      ****             hw.SetLed(false); hw.DelayMs(100);
 1755              		.loc 10 83 13 is_stmt 1 discriminator 1 view .LVU401
 1756              		.loc 10 83 22 is_stmt 0 discriminator 1 view .LVU402
 1757 0326 0021     		movs	r1, #0
 1758 0328 0248     		ldr	r0, .L41
 1759 032a FFF7FEFF 		bl	_ZN5daisy9DaisySeed6SetLedEb
 1760              	.LVL112:
 1761              		.loc 10 83 31 is_stmt 1 discriminator 1 view .LVU403
 1762              		.loc 10 83 41 is_stmt 0 discriminator 1 view .LVU404
 1763 032e 6421     		movs	r1, #100
 1764 0330 0AE0     		b	.L42
ARM GAS  C:\Users\skipi\AppData\Local\Temp\cc6ev9XQ.s 			page 59


 1765              	.L43:
 1766 0332 00BF     		.align	2
 1767              	.L41:
 1768 0334 00000000 		.word	.LANCHOR4
 1769 0338 00000000 		.word	.LANCHOR6
 1770 033c 00000000 		.word	.LANCHOR5
 1771 0340 18000000 		.word	.LANCHOR6+24
 1772 0344 00000000 		.word	.LC0
 1773              	.L42:
 1774 0348 AB48     		ldr	r0, .L44
 1775 034a FFF7FEFF 		bl	_ZN5daisy9DaisySeed7DelayMsEj
 1776              	.LVL113:
  81:main.cpp      ****             hw.SetLed(true); hw.DelayMs(100);
 1777              		.loc 10 81 9 is_stmt 1 discriminator 1 view .LVU405
 1778 034e E2E7     		b	.L28
 1779              	.LVL114:
 1780              	.L27:
  84:main.cpp      ****         }
  85:main.cpp      ****     }
  86:main.cpp      ****     
  87:main.cpp      ****     #ifdef Debug
  88:main.cpp      ****     hw.PrintLine("MPR121 OK @ 400kHz");
 1781              		.loc 10 88 5 view .LVU406
 1782              	.LBB781:
 1783              	.LBI781:
 126:../../libs/libDaisy/src/daisy_seed.h ****     {
 1784              		.loc 1 126 17 view .LVU407
 1785              	.LBB782:
 128:../../libs/libDaisy/src/daisy_seed.h ****     }
 1786              		.loc 1 128 23 is_stmt 0 view .LVU408
 1787 0350 AA48     		ldr	r0, .L44+4
 1788              	.LBE782:
 1789              	.LBE781:
 1790              	.LBB784:
 1791              	.LBB785:
  55:../../libs/DaisySP/Source/Synthesis/oscillator.h ****         pw_        = 0.5f;
 1792              		.loc 8 55 20 view .LVU409
 1793 0352 B6EE008A 		vmov.f32	s16, #5.0e-1
 1794              	.LBE785:
 1795              	.LBE784:
 1796              	.LBB790:
 1797              	.LBB783:
 128:../../libs/libDaisy/src/daisy_seed.h ****     }
 1798              		.loc 1 128 23 view .LVU410
 1799 0356 FFF7FEFF 		bl	_ZN5daisy6LoggerILNS_17LoggerDestinationE1EE9PrintLineEPKcz
 1800              	.LVL115:
 128:../../libs/libDaisy/src/daisy_seed.h ****     }
 1801              		.loc 1 128 23 view .LVU411
 1802              	.LBE783:
 1803              	.LBE790:
  89:main.cpp      ****     #endif
  90:main.cpp      ****     hw.SetLed(true);
 1804              		.loc 10 90 5 is_stmt 1 view .LVU412
 1805              		.loc 10 90 14 is_stmt 0 view .LVU413
 1806 035a 0121     		movs	r1, #1
 1807 035c A648     		ldr	r0, .L44
 1808 035e FFF7FEFF 		bl	_ZN5daisy9DaisySeed6SetLedEb
ARM GAS  C:\Users\skipi\AppData\Local\Temp\cc6ev9XQ.s 			page 60


 1809              	.LVL116:
  91:main.cpp      **** 
  92:main.cpp      ****     // 3. DSP INIT
  93:main.cpp      ****     pc.Init(IIR::Butterworth); 
 1810              		.loc 10 93 5 is_stmt 1 view .LVU414
 1811              		.loc 10 93 12 is_stmt 0 view .LVU415
 1812 0362 0121     		movs	r1, #1
 1813 0364 A648     		ldr	r0, .L44+8
 1814 0366 FFF7FEFF 		bl	_ZN16PlantConditioner4InitEN3IIR10FilterTypeE
 1815              	.LVL117:
  94:main.cpp      ****     pc.setScale(PlantConditioner::C, PlantConditioner::MinorArm);
 1816              		.loc 10 94 5 is_stmt 1 view .LVU416
 1817              		.loc 10 94 16 is_stmt 0 view .LVU417
 1818 036a 0222     		movs	r2, #2
 1819 036c 3146     		mov	r1, r6
 1820 036e A448     		ldr	r0, .L44+8
 1821 0370 FFF7FEFF 		bl	_ZN16PlantConditioner8setScaleENS_5NotesENS_9ScaleTypeE
 1822              	.LVL118:
  95:main.cpp      ****     pc.setOctave(4);
 1823              		.loc 10 95 5 is_stmt 1 view .LVU418
 1824              		.loc 10 95 17 is_stmt 0 view .LVU419
 1825 0374 0421     		movs	r1, #4
 1826 0376 A248     		ldr	r0, .L44+8
 1827 0378 FFF7FEFF 		bl	_ZN16PlantConditioner9setOctaveEh
 1828              	.LVL119:
  96:main.cpp      ****     pc.setCurve(50, 1.1);
 1829              		.loc 10 96 5 is_stmt 1 view .LVU420
 1830              		.loc 10 96 16 is_stmt 0 view .LVU421
 1831 037c 3221     		movs	r1, #50
 1832 037e 9FEDA10A 		vldr.32	s0, .L44+12
 1833 0382 9F48     		ldr	r0, .L44+8
 1834 0384 FFF7FEFF 		bl	_ZN16PlantConditioner8setCurveEhf
 1835              	.LVL120:
  97:main.cpp      **** 
  98:main.cpp      ****     osc.Init(hw.AudioSampleRate());
 1836              		.loc 10 98 5 is_stmt 1 view .LVU422
 1837              		.loc 10 98 13 is_stmt 0 view .LVU423
 1838 0388 9B48     		ldr	r0, .L44
 1839 038a FFF7FEFF 		bl	_ZN5daisy9DaisySeed15AudioSampleRateEv
 1840              	.LVL121:
 1841              	.LBB791:
 1842              	.LBB786:
  53:../../libs/DaisySP/Source/Synthesis/oscillator.h ****         freq_      = 100.0f;
 1843              		.loc 8 53 27 view .LVU424
 1844 038e F7EE006A 		vmov.f32	s13, #1.0e+0
 1845              	.LBE786:
 1846              	.LBE791:
 1847              		.loc 10 98 13 view .LVU425
 1848 0392 F0EE407A 		vmov.f32	s15, s0
 1849              	.LVL122:
 1850              	.LBB792:
 1851              	.LBI784:
  50:../../libs/DaisySP/Source/Synthesis/oscillator.h ****     {
 1852              		.loc 8 50 10 is_stmt 1 view .LVU426
 1853              	.LBB787:
  52:../../libs/DaisySP/Source/Synthesis/oscillator.h ****         sr_recip_  = 1.0f / sample_rate;
 1854              		.loc 8 52 9 view .LVU427
ARM GAS  C:\Users\skipi\AppData\Local\Temp\cc6ev9XQ.s 			page 61


  52:../../libs/DaisySP/Source/Synthesis/oscillator.h ****         sr_recip_  = 1.0f / sample_rate;
 1855              		.loc 8 52 20 is_stmt 0 view .LVU428
 1856 0396 9C4D     		ldr	r5, .L44+16
  57:../../libs/DaisySP/Source/Synthesis/oscillator.h ****         phase_inc_ = CalcPhaseInc(freq_);
 1857              		.loc 8 57 20 view .LVU429
 1858 0398 0023     		movs	r3, #0
  54:../../libs/DaisySP/Source/Synthesis/oscillator.h ****         amp_       = 0.5f;
 1859              		.loc 8 54 20 view .LVU430
 1860 039a 9FED9C0A 		vldr.32	s0, .L44+20
 1861              	.LVL123:
  58:../../libs/DaisySP/Source/Synthesis/oscillator.h ****         waveform_  = WAVE_SIN;
 1862              		.loc 8 58 34 view .LVU431
 1863 039e 2846     		mov	r0, r5
  55:../../libs/DaisySP/Source/Synthesis/oscillator.h ****         pw_        = 0.5f;
 1864              		.loc 8 55 20 view .LVU432
 1865 03a0 85ED018A 		vstr.32	s16, [r5, #4]
  53:../../libs/DaisySP/Source/Synthesis/oscillator.h ****         freq_      = 100.0f;
 1866              		.loc 8 53 27 view .LVU433
 1867 03a4 86EEA77A 		vdiv.f32	s14, s13, s15
  52:../../libs/DaisySP/Source/Synthesis/oscillator.h ****         sr_recip_  = 1.0f / sample_rate;
 1868              		.loc 8 52 20 view .LVU434
 1869 03a8 C5ED047A 		vstr.32	s15, [r5, #16]
  53:../../libs/DaisySP/Source/Synthesis/oscillator.h ****         freq_      = 100.0f;
 1870              		.loc 8 53 9 is_stmt 1 view .LVU435
  57:../../libs/DaisySP/Source/Synthesis/oscillator.h ****         phase_inc_ = CalcPhaseInc(freq_);
 1871              		.loc 8 57 20 is_stmt 0 view .LVU436
 1872 03ac AB61     		str	r3, [r5, #24]	@ float
  54:../../libs/DaisySP/Source/Synthesis/oscillator.h ****         amp_       = 0.5f;
 1873              		.loc 8 54 20 view .LVU437
 1874 03ae 85ED020A 		vstr.32	s0, [r5, #8]
  56:../../libs/DaisySP/Source/Synthesis/oscillator.h ****         phase_     = 0.0f;
 1875              		.loc 8 56 20 view .LVU438
 1876 03b2 85ED038A 		vstr.32	s16, [r5, #12]
 1877 03b6 DFF8A8A2 		ldr	r10, .L44+104
 1878 03ba DFF8A882 		ldr	r8, .L44+108
 1879 03be AAF1040B 		sub	fp, r10, #4
  53:../../libs/DaisySP/Source/Synthesis/oscillator.h ****         freq_      = 100.0f;
 1880              		.loc 8 53 20 view .LVU439
 1881 03c2 85ED057A 		vstr.32	s14, [r5, #20]
  54:../../libs/DaisySP/Source/Synthesis/oscillator.h ****         amp_       = 0.5f;
 1882              		.loc 8 54 9 is_stmt 1 view .LVU440
  55:../../libs/DaisySP/Source/Synthesis/oscillator.h ****         pw_        = 0.5f;
 1883              		.loc 8 55 9 view .LVU441
  56:../../libs/DaisySP/Source/Synthesis/oscillator.h ****         phase_     = 0.0f;
 1884              		.loc 8 56 9 view .LVU442
  57:../../libs/DaisySP/Source/Synthesis/oscillator.h ****         phase_inc_ = CalcPhaseInc(freq_);
 1885              		.loc 8 57 9 view .LVU443
  58:../../libs/DaisySP/Source/Synthesis/oscillator.h ****         waveform_  = WAVE_SIN;
 1886              		.loc 8 58 9 view .LVU444
  58:../../libs/DaisySP/Source/Synthesis/oscillator.h ****         waveform_  = WAVE_SIN;
 1887              		.loc 8 58 34 is_stmt 0 view .LVU445
 1888 03c6 FFF7FEFF 		bl	_ZN7daisysp10Oscillator12CalcPhaseIncEf
 1889              	.LVL124:
  61:../../libs/DaisySP/Source/Synthesis/oscillator.h ****     }
 1890              		.loc 8 61 20 view .LVU446
 1891 03ca 40F20113 		movw	r3, #257
  58:../../libs/DaisySP/Source/Synthesis/oscillator.h ****         waveform_  = WAVE_SIN;
ARM GAS  C:\Users\skipi\AppData\Local\Temp\cc6ev9XQ.s 			page 62


 1892              		.loc 8 58 34 view .LVU447
 1893 03ce F0EE407A 		vmov.f32	s15, s0
 1894              	.LBE787:
 1895              	.LBE792:
 1896              	.LBB793:
 1897              	.LBB794:
  69:../../libs/DaisySP/Source/Synthesis/oscillator.h ****         phase_inc_ = CalcPhaseInc(f);
 1898              		.loc 8 69 20 view .LVU448
 1899 03d2 9FED8F0A 		vldr.32	s0, .L44+24
  70:../../libs/DaisySP/Source/Synthesis/oscillator.h ****     }
 1900              		.loc 8 70 34 view .LVU449
 1901 03d6 2846     		mov	r0, r5
 1902              	.LBE794:
 1903              	.LBE793:
 1904              	.LBB798:
 1905              	.LBB788:
  61:../../libs/DaisySP/Source/Synthesis/oscillator.h ****     }
 1906              		.loc 8 61 20 view .LVU450
 1907 03d8 2B85     		strh	r3, [r5, #40]	@ movhi
  58:../../libs/DaisySP/Source/Synthesis/oscillator.h ****         waveform_  = WAVE_SIN;
 1908              		.loc 8 58 20 view .LVU451
 1909 03da C5ED077A 		vstr.32	s15, [r5, #28]
  59:../../libs/DaisySP/Source/Synthesis/oscillator.h ****         eoc_       = true;
 1910              		.loc 8 59 9 is_stmt 1 view .LVU452
  60:../../libs/DaisySP/Source/Synthesis/oscillator.h ****         eor_       = true;
 1911              		.loc 8 60 9 view .LVU453
  61:../../libs/DaisySP/Source/Synthesis/oscillator.h ****     }
 1912              		.loc 8 61 9 view .LVU454
 1913              	.LVL125:
  61:../../libs/DaisySP/Source/Synthesis/oscillator.h ****     }
 1914              		.loc 8 61 9 is_stmt 0 view .LVU455
 1915              	.LBE788:
 1916              	.LBE798:
  99:main.cpp      ****     osc.SetWaveform(Oscillator::WAVE_SIN); 
 1917              		.loc 10 99 5 is_stmt 1 view .LVU456
  77:../../libs/DaisySP/Source/Synthesis/oscillator.h ****     /** Sets the waveform to be synthesized by the Process() function.
  78:../../libs/DaisySP/Source/Synthesis/oscillator.h ****     */
  79:../../libs/DaisySP/Source/Synthesis/oscillator.h ****     inline void SetWaveform(const uint8_t wf)
  80:../../libs/DaisySP/Source/Synthesis/oscillator.h ****     {
  81:../../libs/DaisySP/Source/Synthesis/oscillator.h ****         waveform_ = wf < WAVE_LAST ? wf : WAVE_SIN;
 1918              		.loc 8 81 9 view .LVU457
 100:main.cpp      ****     osc.SetFreq(440.0f);
 1919              		.loc 10 100 5 view .LVU458
 1920              	.LBB799:
 1921              	.LBI793:
  67:../../libs/DaisySP/Source/Synthesis/oscillator.h ****     {
 1922              		.loc 8 67 17 view .LVU459
 1923              	.LBB795:
  69:../../libs/DaisySP/Source/Synthesis/oscillator.h ****         phase_inc_ = CalcPhaseInc(f);
 1924              		.loc 8 69 9 view .LVU460
 1925              	.LBE795:
 1926              	.LBE799:
 1927              	.LBB800:
 1928              	.LBB789:
  59:../../libs/DaisySP/Source/Synthesis/oscillator.h ****         eoc_       = true;
 1929              		.loc 8 59 20 is_stmt 0 view .LVU461
 1930 03de 2E70     		strb	r6, [r5]
ARM GAS  C:\Users\skipi\AppData\Local\Temp\cc6ev9XQ.s 			page 63


 1931              	.LBE789:
 1932              	.LBE800:
 1933              	.LBB801:
 1934              	.LBB796:
  69:../../libs/DaisySP/Source/Synthesis/oscillator.h ****         phase_inc_ = CalcPhaseInc(f);
 1935              		.loc 8 69 20 view .LVU462
 1936 03e0 85ED020A 		vstr.32	s0, [r5, #8]
  70:../../libs/DaisySP/Source/Synthesis/oscillator.h ****     }
 1937              		.loc 8 70 9 is_stmt 1 view .LVU463
  70:../../libs/DaisySP/Source/Synthesis/oscillator.h ****     }
 1938              		.loc 8 70 34 is_stmt 0 view .LVU464
 1939 03e4 FFF7FEFF 		bl	_ZN7daisysp10Oscillator12CalcPhaseIncEf
 1940              	.LVL126:
 1941              	.LBE796:
 1942              	.LBE801:
 101:main.cpp      ****     osc.SetAmp(0.85f); 
 102:main.cpp      **** 
 103:main.cpp      ****     env.Init(hw.AudioSampleRate());
 1943              		.loc 10 103 13 view .LVU465
 1944 03e8 8A4E     		ldr	r6, .L44+28
 1945              	.LBB802:
 1946              	.LBB803:
  76:../../libs/DaisySP/Source/Synthesis/oscillator.h ****     /** Sets the waveform to be synthesized by the Process() function.
 1947              		.loc 8 76 46 view .LVU466
 1948 03ea 8B4B     		ldr	r3, .L44+32
 1949              	.LBE803:
 1950              	.LBE802:
 1951              		.loc 10 103 13 view .LVU467
 1952 03ec 8248     		ldr	r0, .L44
 1953              	.LBB806:
 1954              	.LBB804:
  76:../../libs/DaisySP/Source/Synthesis/oscillator.h ****     /** Sets the waveform to be synthesized by the Process() function.
 1955              		.loc 8 76 46 view .LVU468
 1956 03ee 6B60     		str	r3, [r5, #4]	@ float
 1957              	.LBE804:
 1958              	.LBE806:
 1959              	.LBB807:
 1960              	.LBB797:
  70:../../libs/DaisySP/Source/Synthesis/oscillator.h ****     }
 1961              		.loc 8 70 20 view .LVU469
 1962 03f0 85ED070A 		vstr.32	s0, [r5, #28]
 1963              	.LVL127:
  70:../../libs/DaisySP/Source/Synthesis/oscillator.h ****     }
 1964              		.loc 8 70 20 view .LVU470
 1965              	.LBE797:
 1966              	.LBE807:
 101:main.cpp      ****     osc.SetAmp(0.85f); 
 1967              		.loc 10 101 5 is_stmt 1 view .LVU471
 1968              	.LBB808:
 1969              	.LBI802:
  76:../../libs/DaisySP/Source/Synthesis/oscillator.h ****     /** Sets the waveform to be synthesized by the Process() function.
 1970              		.loc 8 76 17 view .LVU472
 1971              	.LBB805:
  76:../../libs/DaisySP/Source/Synthesis/oscillator.h ****     /** Sets the waveform to be synthesized by the Process() function.
 1972              		.loc 8 76 41 view .LVU473
  76:../../libs/DaisySP/Source/Synthesis/oscillator.h ****     /** Sets the waveform to be synthesized by the Process() function.
 1973              		.loc 8 76 41 is_stmt 0 view .LVU474
ARM GAS  C:\Users\skipi\AppData\Local\Temp\cc6ev9XQ.s 			page 64


 1974              	.LBE805:
 1975              	.LBE808:
 1976              		.loc 10 103 5 is_stmt 1 view .LVU475
 1977              		.loc 10 103 13 is_stmt 0 view .LVU476
 1978 03f4 FFF7FEFF 		bl	_ZN5daisy9DaisySeed15AudioSampleRateEv
 1979              	.LVL128:
 1980 03f8 3046     		mov	r0, r6
 1981 03fa 0121     		movs	r1, #1
 1982 03fc FFF7FEFF 		bl	_ZN7daisysp4Adsr4InitEfi
 1983              	.LVL129:
 104:main.cpp      ****     env.SetTime(ADSR_SEG_ATTACK, 0.05f);
 1984              		.loc 10 104 5 is_stmt 1 view .LVU477
 1985              		.loc 10 104 16 is_stmt 0 view .LVU478
 1986 0400 3046     		mov	r0, r6
 1987 0402 9FED860A 		vldr.32	s0, .L44+36
 1988 0406 0121     		movs	r1, #1
 1989 0408 FFF7FEFF 		bl	_ZN7daisysp4Adsr7SetTimeEif
 1990              	.LVL130:
 105:main.cpp      ****     env.SetTime(ADSR_SEG_DECAY, 0.1f);
 1991              		.loc 10 105 5 is_stmt 1 view .LVU479
 1992              		.loc 10 105 16 is_stmt 0 view .LVU480
 1993 040c 3046     		mov	r0, r6
 1994 040e 9FED840A 		vldr.32	s0, .L44+40
 1995 0412 0221     		movs	r1, #2
 1996 0414 FFF7FEFF 		bl	_ZN7daisysp4Adsr7SetTimeEif
 1997              	.LVL131:
 106:main.cpp      ****     env.SetSustainLevel(0.7f);
 1998              		.loc 10 106 5 is_stmt 1 view .LVU481
 1999              	.LBB809:
 2000              	.LBI809:
  46:../../libs/DaisySP/Source/Control/adsr.h ****     /** Initializes the Adsr module.
  47:../../libs/DaisySP/Source/Control/adsr.h ****         \param sample_rate - The sample rate of the audio engine being run. 
  48:../../libs/DaisySP/Source/Control/adsr.h ****     */
  49:../../libs/DaisySP/Source/Control/adsr.h ****     void Init(float sample_rate, int blockSize = 1);
  50:../../libs/DaisySP/Source/Control/adsr.h ****     /**
  51:../../libs/DaisySP/Source/Control/adsr.h ****      \function Retrigger forces the envelope back to attack phase
  52:../../libs/DaisySP/Source/Control/adsr.h ****      \param hard  resets the history to zero, results in a click.
  53:../../libs/DaisySP/Source/Control/adsr.h ****      */
  54:../../libs/DaisySP/Source/Control/adsr.h ****     void Retrigger(bool hard);
  55:../../libs/DaisySP/Source/Control/adsr.h ****     /** Processes one sample through the filter and returns one sample.
  56:../../libs/DaisySP/Source/Control/adsr.h ****         \param gate - trigger the envelope, hold it to sustain 
  57:../../libs/DaisySP/Source/Control/adsr.h ****     */
  58:../../libs/DaisySP/Source/Control/adsr.h ****     float Process(bool gate);
  59:../../libs/DaisySP/Source/Control/adsr.h ****     /** Sets time
  60:../../libs/DaisySP/Source/Control/adsr.h ****         Set time per segment in seconds
  61:../../libs/DaisySP/Source/Control/adsr.h ****     */
  62:../../libs/DaisySP/Source/Control/adsr.h ****     void SetTime(int seg, float time);
  63:../../libs/DaisySP/Source/Control/adsr.h ****     void SetAttackTime(float timeInS, float shape = 0.0f);
  64:../../libs/DaisySP/Source/Control/adsr.h ****     void SetDecayTime(float timeInS);
  65:../../libs/DaisySP/Source/Control/adsr.h ****     void SetReleaseTime(float timeInS);
  66:../../libs/DaisySP/Source/Control/adsr.h **** 
  67:../../libs/DaisySP/Source/Control/adsr.h ****   private:
  68:../../libs/DaisySP/Source/Control/adsr.h ****     void SetTimeConstant(float timeInS, float& time, float& coeff);
  69:../../libs/DaisySP/Source/Control/adsr.h **** 
  70:../../libs/DaisySP/Source/Control/adsr.h ****   public:
  71:../../libs/DaisySP/Source/Control/adsr.h ****     /** Sustain level
  72:../../libs/DaisySP/Source/Control/adsr.h ****         \param sus_level - sets sustain level, 0...1.0
ARM GAS  C:\Users\skipi\AppData\Local\Temp\cc6ev9XQ.s 			page 65


  73:../../libs/DaisySP/Source/Control/adsr.h ****     */
  74:../../libs/DaisySP/Source/Control/adsr.h ****     inline void SetSustainLevel(float sus_level)
 2001              		.loc 7 74 17 view .LVU482
 2002              	.LBB810:
  75:../../libs/DaisySP/Source/Control/adsr.h ****     {
  76:../../libs/DaisySP/Source/Control/adsr.h ****         sus_level = (sus_level <= 0.f) ? -0.01f // forces envelope into idle
 2003              		.loc 7 76 9 view .LVU483
  77:../../libs/DaisySP/Source/Control/adsr.h ****                                        : (sus_level > 1.f) ? 1.f : sus_level;
  78:../../libs/DaisySP/Source/Control/adsr.h ****         sus_level_ = sus_level;
 2004              		.loc 7 78 9 view .LVU484
 2005              		.loc 7 78 20 is_stmt 0 view .LVU485
 2006 0418 824B     		ldr	r3, .L44+44
 2007              	.LBE810:
 2008              	.LBE809:
 107:main.cpp      ****     env.SetTime(ADSR_SEG_RELEASE, 0.5f);
 2009              		.loc 10 107 16 view .LVU486
 2010 041a B0EE480A 		vmov.f32	s0, s16
 2011 041e 3046     		mov	r0, r6
 2012 0420 0421     		movs	r1, #4
 2013              	.LBB812:
 2014              	.LBB811:
 2015              		.loc 7 78 20 view .LVU487
 2016 0422 3360     		str	r3, [r6]	@ float
 2017              	.LVL132:
 2018              		.loc 7 78 20 view .LVU488
 2019              	.LBE811:
 2020              	.LBE812:
 2021              		.loc 10 107 5 is_stmt 1 view .LVU489
 2022              		.loc 10 107 16 is_stmt 0 view .LVU490
 2023 0424 FFF7FEFF 		bl	_ZN7daisysp4Adsr7SetTimeEif
 2024              	.LVL133:
 108:main.cpp      **** 
 109:main.cpp      ****     // 4. ADC INIT
 110:main.cpp      ****     adcConfig[0].InitSingle(daisy::seed::A0);
 2025              		.loc 10 110 5 is_stmt 1 view .LVU491
 2026              		.loc 10 110 28 is_stmt 0 view .LVU492
 2027 0428 7F4B     		ldr	r3, .L44+48
 2028 042a 0222     		movs	r2, #2
 2029 042c 7F48     		ldr	r0, .L44+52
 2030 042e 1968     		ldr	r1, [r3]
 2031 0430 FFF7FEFF 		bl	_ZN5daisy16AdcChannelConfig10InitSingleENS_3PinENS0_15ConversionSpeedE
 2032              	.LVL134:
 111:main.cpp      ****     adcConfig[1].InitSingle(daisy::seed::A1);
 2033              		.loc 10 111 5 is_stmt 1 view .LVU493
 2034              		.loc 10 111 28 is_stmt 0 view .LVU494
 2035 0434 7E4B     		ldr	r3, .L44+56
 2036 0436 0222     		movs	r2, #2
 2037 0438 7E48     		ldr	r0, .L44+60
 2038 043a 1968     		ldr	r1, [r3]
 2039 043c FFF7FEFF 		bl	_ZN5daisy16AdcChannelConfig10InitSingleENS_3PinENS0_15ConversionSpeedE
 2040              	.LVL135:
 112:main.cpp      ****     hw.adc.Init(adcConfig, ADC_CH);
 2041              		.loc 10 112 5 is_stmt 1 view .LVU495
 2042              		.loc 10 112 16 is_stmt 0 view .LVU496
 2043 0440 0423     		movs	r3, #4
 2044 0442 0222     		movs	r2, #2
 2045 0444 7949     		ldr	r1, .L44+52
ARM GAS  C:\Users\skipi\AppData\Local\Temp\cc6ev9XQ.s 			page 66


 2046 0446 7C48     		ldr	r0, .L44+64
 2047 0448 FFF7FEFF 		bl	_ZN5daisy9AdcHandle4InitEPNS_16AdcChannelConfigEjNS0_12OverSamplingE
 2048              	.LVL136:
 113:main.cpp      ****     hw.adc.Start();
 2049              		.loc 10 113 5 is_stmt 1 view .LVU497
 2050              		.loc 10 113 17 is_stmt 0 view .LVU498
 2051 044c 7A48     		ldr	r0, .L44+64
 2052 044e FFF7FEFF 		bl	_ZN5daisy9AdcHandle5StartEv
 2053              	.LVL137:
 114:main.cpp      **** 
 115:main.cpp      ****     hw.StartAudio(AudioCallback);
 2054              		.loc 10 115 5 is_stmt 1 view .LVU499
 2055              		.loc 10 115 18 is_stmt 0 view .LVU500
 2056 0452 7A49     		ldr	r1, .L44+68
 2057 0454 6848     		ldr	r0, .L44
 2058 0456 FFF7FEFF 		bl	_ZN5daisy9DaisySeed10StartAudioEPFvPKfPfjE
 2059              	.LVL138:
 116:main.cpp      **** 
 117:main.cpp      ****     // --- MAIN LOOP ---
 118:main.cpp      ****     uint32_t last_tick = System::GetNow();
 2060              		.loc 10 118 5 is_stmt 1 view .LVU501
 2061              		.loc 10 118 40 is_stmt 0 view .LVU502
 2062 045a FFF7FEFF 		bl	_ZN5daisy6System6GetNowEv
 2063              	.LVL139:
 2064 045e 0746     		mov	r7, r0
 2065              	.LVL140:
 119:main.cpp      ****     #ifdef Debug
 120:main.cpp      ****         uint32_t last_print = System::GetNow();
 2066              		.loc 10 120 9 is_stmt 1 view .LVU503
 2067              		.loc 10 120 45 is_stmt 0 view .LVU504
 2068 0460 FFF7FEFF 		bl	_ZN5daisy6System6GetNowEv
 2069              	.LVL141:
 2070              		.loc 10 120 45 view .LVU505
 2071 0464 0646     		mov	r6, r0
 2072              	.LVL142:
 2073              		.loc 10 120 45 view .LVU506
 2074 0466 21E0     		b	.L29
 2075              	.LVL143:
 2076              	.L30:
 2077              	.LBB813:
 121:main.cpp      ****     #endif
 122:main.cpp      **** 
 123:main.cpp      ****     while (1)
 124:main.cpp      ****     {
 125:main.cpp      ****         uint32_t now = System::GetNow();
 126:main.cpp      **** 
 127:main.cpp      ****         // A. FAST LOOP (200Hz)
 128:main.cpp      ****         if (now - last_tick >= 5)
 129:main.cpp      ****         {
 130:main.cpp      ****             last_tick = now;
 131:main.cpp      **** 
 132:main.cpp      ****             // Read Analog Controls
 133:main.cpp      ****             curve_type = hw.adc.GetFloat(1) * 2 + 1;
 134:main.cpp      ****             delta_max = hw.adc.GetFloat(0) * 100 + 20;
 135:main.cpp      ****             pc.setCurve(delta_max, curve_type);
 136:main.cpp      **** 
 137:main.cpp      ****             // Read Digital Sensor
ARM GAS  C:\Users\skipi\AppData\Local\Temp\cc6ev9XQ.s 			page 67


 138:main.cpp      ****             currTouched = cap.Touched();
 139:main.cpp      ****             
 140:main.cpp      ****             // Calculate Frequency (but don't apply it to the oscillator yet)
 141:main.cpp      ****             float calculated_freq = pc.Process(cap.BaselineData(0), cap.FilteredData(0));
 142:main.cpp      **** 
 143:main.cpp      ****             // Update Gate and Target Frequency based on Touch State
 144:main.cpp      ****             if (currTouched & _BV(0))
 145:main.cpp      ****             {
 146:main.cpp      ****                 if (!gate) gate = true; 
 147:main.cpp      ****                 // We just update the variable here. The Audio Callback picks it up instantly.
 148:main.cpp      ****                 target_freq = calculated_freq; 
 149:main.cpp      ****             }
 150:main.cpp      ****             else
 151:main.cpp      ****             {
 152:main.cpp      ****                 if (gate) gate = false; 
 153:main.cpp      ****             }
 154:main.cpp      ****             lastTouched = currTouched;
 155:main.cpp      ****         }
 156:main.cpp      **** 
 157:main.cpp      ****         // B. DEBUG LOOP (4Hz)
 158:main.cpp      ****         #ifdef Debug
 159:main.cpp      ****         if (now - last_print >= 250)
 2078              		.loc 10 159 9 is_stmt 1 view .LVU507
 2079              		.loc 10 159 17 is_stmt 0 view .LVU508
 2080 0468 AB1B     		subs	r3, r5, r6
 2081              		.loc 10 159 9 view .LVU509
 2082 046a F92B     		cmp	r3, #249
 2083 046c 1BD9     		bls	.L34
 160:main.cpp      ****         {
 161:main.cpp      ****             last_print = now;
 2084              		.loc 10 161 13 is_stmt 1 view .LVU510
 2085              	.LVL144:
 162:main.cpp      ****             if (gate) {
 2086              		.loc 10 162 13 view .LVU511
 2087 046e 98F80030 		ldrb	r3, [r8]	@ zero_extendqisi2
 2088              	.LBB814:
 2089              	.LBB815:
 128:../../libs/libDaisy/src/daisy_seed.h ****     }
 2090              		.loc 1 128 23 is_stmt 0 view .LVU512
 2091 0472 9AED006A 		vldr.32	s12, [r10]
 2092 0476 9BED007A 		vldr.32	s14, [fp]
 2093              	.LBE815:
 2094              	.LBE814:
 2095              		.loc 10 162 13 view .LVU513
 2096 047a 002B     		cmp	r3, #0
 2097 047c 00F0A180 		beq	.L35
 163:main.cpp      ****                 hw.PrintLine("TOUCH | Freq: %.2f | Delta: %.2f | DeltaFilt: %.2f", target_freq, pc.
 2098              		.loc 10 163 17 is_stmt 1 view .LVU514
 2099              		.loc 10 163 29 is_stmt 0 view .LVU515
 2100 0480 6F4B     		ldr	r3, .L44+72
 2101              	.LBB818:
 2102              	.LBB816:
 128:../../libs/libDaisy/src/daisy_seed.h ****     }
 2103              		.loc 1 128 23 view .LVU516
 2104 0482 B7EEC77A 		vcvt.f64.f32	d7, s14
 2105 0486 B7EEC66A 		vcvt.f64.f32	d6, s12
 2106 048a 6E48     		ldr	r0, .L44+76
ARM GAS  C:\Users\skipi\AppData\Local\Temp\cc6ev9XQ.s 			page 68


 2107              	.LBE816:
 2108              	.LBE818:
 2109              		.loc 10 163 29 view .LVU517
 2110 048c D3ED005A 		vldr.32	s11, [r3]
 2111              	.LVL145:
 2112              	.LBB819:
 2113              	.LBI819:
 2114              		.file 13 "../../Classes/Temperamento/PlantConditioner.h"
   1:../../Classes/Temperamento/PlantConditioner.h **** #pragma once
   2:../../Classes/Temperamento/PlantConditioner.h **** #include <cstdint>
   3:../../Classes/Temperamento/PlantConditioner.h **** #include <cmath>
   4:../../Classes/Temperamento/PlantConditioner.h **** #include "daisysp.h"
   5:../../Classes/Temperamento/PlantConditioner.h **** #include "daisy_seed.h"
   6:../../Classes/Temperamento/PlantConditioner.h **** 
   7:../../Classes/Temperamento/PlantConditioner.h **** // Assicurati che questi percorsi siano corretti nel tuo progetto!
   8:../../Classes/Temperamento/PlantConditioner.h **** // Se i file sono nella stessa cartella, usa semplicemente #include "CapFir.h" ecc.
   9:../../Classes/Temperamento/PlantConditioner.h **** #include "../SensorFilters/FIIR/CapFir.h"
  10:../../Classes/Temperamento/PlantConditioner.h **** #include "../SensorFilters/IIR/iir.h"
  11:../../Classes/Temperamento/PlantConditioner.h **** #include "../SensorFilters/MF/MF.h"
  12:../../Classes/Temperamento/PlantConditioner.h **** 
  13:../../Classes/Temperamento/PlantConditioner.h **** // Fallback se la macro non è definita altrove
  14:../../Classes/Temperamento/PlantConditioner.h **** #ifndef MPR121_TOUCH_THRESHOLD_DEFAULT
  15:../../Classes/Temperamento/PlantConditioner.h **** #define MPR121_TOUCH_THRESHOLD_DEFAULT 12
  16:../../Classes/Temperamento/PlantConditioner.h **** #endif
  17:../../Classes/Temperamento/PlantConditioner.h **** 
  18:../../Classes/Temperamento/PlantConditioner.h **** class PlantConditioner {
  19:../../Classes/Temperamento/PlantConditioner.h **** public:
  20:../../Classes/Temperamento/PlantConditioner.h ****     PlantConditioner();
  21:../../Classes/Temperamento/PlantConditioner.h ****     ~PlantConditioner();
  22:../../Classes/Temperamento/PlantConditioner.h **** 
  23:../../Classes/Temperamento/PlantConditioner.h ****     enum ScaleType {
  24:../../Classes/Temperamento/PlantConditioner.h ****         Major = 0,
  25:../../Classes/Temperamento/PlantConditioner.h ****         MinorNat,
  26:../../Classes/Temperamento/PlantConditioner.h ****         MinorArm,
  27:../../Classes/Temperamento/PlantConditioner.h ****         MinorMel,
  28:../../Classes/Temperamento/PlantConditioner.h ****         Pentatonic,
  29:../../Classes/Temperamento/PlantConditioner.h ****         Chromatic,
  30:../../Classes/Temperamento/PlantConditioner.h ****         Esatonic,
  31:../../Classes/Temperamento/PlantConditioner.h ****     };
  32:../../Classes/Temperamento/PlantConditioner.h **** 
  33:../../Classes/Temperamento/PlantConditioner.h ****     enum Notes {
  34:../../Classes/Temperamento/PlantConditioner.h ****         C = 0,
  35:../../Classes/Temperamento/PlantConditioner.h ****         Cs,
  36:../../Classes/Temperamento/PlantConditioner.h ****         D,
  37:../../Classes/Temperamento/PlantConditioner.h ****         Ds,
  38:../../Classes/Temperamento/PlantConditioner.h ****         E,
  39:../../Classes/Temperamento/PlantConditioner.h ****         F,
  40:../../Classes/Temperamento/PlantConditioner.h ****         Fs,
  41:../../Classes/Temperamento/PlantConditioner.h ****         G,
  42:../../Classes/Temperamento/PlantConditioner.h ****         Gs,
  43:../../Classes/Temperamento/PlantConditioner.h ****         A,
  44:../../Classes/Temperamento/PlantConditioner.h ****         As,
  45:../../Classes/Temperamento/PlantConditioner.h ****         B,
  46:../../Classes/Temperamento/PlantConditioner.h ****     };
  47:../../Classes/Temperamento/PlantConditioner.h **** 
  48:../../Classes/Temperamento/PlantConditioner.h ****     void Init(IIR::FilterType filter_type);
  49:../../Classes/Temperamento/PlantConditioner.h **** 
ARM GAS  C:\Users\skipi\AppData\Local\Temp\cc6ev9XQ.s 			page 69


  50:../../Classes/Temperamento/PlantConditioner.h ****     void setCurve(uint8_t delta_max, float curve_type);
  51:../../Classes/Temperamento/PlantConditioner.h **** 
  52:../../Classes/Temperamento/PlantConditioner.h ****     void setScale(enum Notes root_note, enum ScaleType scale_type);
  53:../../Classes/Temperamento/PlantConditioner.h **** 
  54:../../Classes/Temperamento/PlantConditioner.h ****     void setOctave(uint8_t octave);
  55:../../Classes/Temperamento/PlantConditioner.h **** 
  56:../../Classes/Temperamento/PlantConditioner.h ****     float Process(uint16_t baseline, uint16_t filtered);
  57:../../Classes/Temperamento/PlantConditioner.h **** 
  58:../../Classes/Temperamento/PlantConditioner.h ****     // DEBUG FUNCTIONS
  59:../../Classes/Temperamento/PlantConditioner.h ****     float* getBin();
  60:../../Classes/Temperamento/PlantConditioner.h ****     float getDelta() { return _delta; }
 2115              		.loc 13 60 11 is_stmt 1 view .LVU518
 2116              	.LBB820:
 2117              		.loc 13 60 24 view .LVU519
 2118              		.loc 13 60 24 is_stmt 0 view .LVU520
 2119              	.LBE820:
 2120              	.LBE819:
 2121              	.LBB821:
 2122              	.LBI821:
  61:../../Classes/Temperamento/PlantConditioner.h ****     float getDeltaFilt() { return _deltaFilt; }
 2123              		.loc 13 61 11 is_stmt 1 view .LVU521
 2124              	.LBB822:
 2125              		.loc 13 61 28 view .LVU522
 2126              		.loc 13 61 28 is_stmt 0 view .LVU523
 2127              	.LBE822:
 2128              	.LBE821:
 2129              	.LBB823:
 2130              	.LBI814:
 126:../../libs/libDaisy/src/daisy_seed.h ****     {
 2131              		.loc 1 126 17 is_stmt 1 view .LVU524
 2132              	.LBE823:
 161:main.cpp      ****             if (gate) {
 2133              		.loc 10 161 24 is_stmt 0 view .LVU525
 2134 0490 2E46     		mov	r6, r5
 2135              	.LBB824:
 2136              	.LBB817:
 128:../../libs/libDaisy/src/daisy_seed.h ****     }
 2137              		.loc 1 128 23 view .LVU526
 2138 0492 8DED007B 		vstr.64	d7, [sp]
 2139 0496 B7EEE57A 		vcvt.f64.f32	d7, s11
 2140 049a 8DED026B 		vstr.64	d6, [sp, #8]
 2141 049e 53EC172B 		vmov	r2, r3, d7
 2142 04a2 FFF7FEFF 		bl	_ZN5daisy6LoggerILNS_17LoggerDestinationE1EE9PrintLineEPKcz
 2143              	.LVL146:
 2144              	.L34:
 128:../../libs/libDaisy/src/daisy_seed.h ****     }
 2145              		.loc 1 128 23 view .LVU527
 2146              	.LBE817:
 2147              	.LBE824:
 164:main.cpp      ****             } else {
 165:main.cpp      ****                 hw.PrintLine("..... | Freq: %.2f | Delta: %.2f | DeltaFilt: %.2f", target_freq, pc.
 166:main.cpp      ****             }
 167:main.cpp      ****         }
 168:main.cpp      ****         #endif
 169:main.cpp      ****         
 170:main.cpp      ****         // C. CPU REST
 171:main.cpp      ****         System::Delay(1);
ARM GAS  C:\Users\skipi\AppData\Local\Temp\cc6ev9XQ.s 			page 70


 2148              		.loc 10 171 9 is_stmt 1 view .LVU528
 2149              		.loc 10 171 22 is_stmt 0 view .LVU529
 2150 04a6 0120     		movs	r0, #1
 2151 04a8 FFF7FEFF 		bl	_ZN5daisy6System5DelayEm
 2152              	.LVL147:
 2153              	.LBE813:
 123:main.cpp      ****     {
 2154              		.loc 10 123 5 is_stmt 1 view .LVU530
 2155              	.L29:
 123:main.cpp      ****     {
 2156              		.loc 10 123 5 view .LVU531
 2157              	.LBB980:
 125:main.cpp      **** 
 2158              		.loc 10 125 9 view .LVU532
 125:main.cpp      **** 
 2159              		.loc 10 125 38 is_stmt 0 view .LVU533
 2160 04ac FFF7FEFF 		bl	_ZN5daisy6System6GetNowEv
 2161              	.LVL148:
 2162              	.LBB825:
 128:main.cpp      ****         {
 2163              		.loc 10 128 17 view .LVU534
 2164 04b0 C31B     		subs	r3, r0, r7
 2165              	.LBE825:
 125:main.cpp      **** 
 2166              		.loc 10 125 38 view .LVU535
 2167 04b2 0546     		mov	r5, r0
 2168              	.LVL149:
 128:main.cpp      ****         {
 2169              		.loc 10 128 9 is_stmt 1 view .LVU536
 2170              	.LBB969:
 2171 04b4 042B     		cmp	r3, #4
 2172 04b6 D7D9     		bls	.L30
 2173              	.LBB826:
 130:main.cpp      **** 
 2174              		.loc 10 130 13 view .LVU537
 2175              	.LVL150:
 133:main.cpp      ****             delta_max = hw.adc.GetFloat(0) * 100 + 20;
 2176              		.loc 10 133 13 view .LVU538
 133:main.cpp      ****             delta_max = hw.adc.GetFloat(0) * 100 + 20;
 2177              		.loc 10 133 41 is_stmt 0 view .LVU539
 2178 04b8 0121     		movs	r1, #1
 2179 04ba 5F48     		ldr	r0, .L44+64
 2180              	.LVL151:
 133:main.cpp      ****             delta_max = hw.adc.GetFloat(0) * 100 + 20;
 2181              		.loc 10 133 41 view .LVU540
 2182 04bc FFF7FEFF 		bl	_ZNK5daisy9AdcHandle8GetFloatEh
 2183              	.LVL152:
 133:main.cpp      ****             delta_max = hw.adc.GetFloat(0) * 100 + 20;
 2184              		.loc 10 133 49 view .LVU541
 2185 04c0 B0EE007A 		vmov.f32	s14, #2.0e+0
 2186 04c4 F7EE007A 		vmov.f32	s15, #1.0e+0
 133:main.cpp      ****             delta_max = hw.adc.GetFloat(0) * 100 + 20;
 2187              		.loc 10 133 24 view .LVU542
 2188 04c8 5F4F     		ldr	r7, .L44+80
 134:main.cpp      ****             pc.setCurve(delta_max, curve_type);
 2189              		.loc 10 134 40 view .LVU543
 2190 04ca 0021     		movs	r1, #0
ARM GAS  C:\Users\skipi\AppData\Local\Temp\cc6ev9XQ.s 			page 71


 2191 04cc 5A48     		ldr	r0, .L44+64
 2192              	.LBB827:
 2193              	.LBB828:
 2194              	.LBB829:
 2195              	.LBB830:
 2196              	.LBB831:
 2197              	.LBB832:
 2198              	.LBB833:
 2199              	.LBB834:
  78:../../libs/libDaisy/src/dev/mpr121.h ****                    config_.dev_addr, memAddress, 1, data, memSize, 10);
 2200              		.loc 9 78 32 view .LVU544
 2201 04ce 4FF00109 		mov	r9, #1
 2202              	.LBE834:
 2203              	.LBE833:
 2204              	.LBE832:
 2205              	.LBE831:
 2206              	.LBE830:
 2207              	.LBE829:
 2208              	.LBE828:
 2209              	.LBE827:
 133:main.cpp      ****             delta_max = hw.adc.GetFloat(0) * 100 + 20;
 2210              		.loc 10 133 49 view .LVU545
 2211 04d2 E0EE077A 		vfma.f32	s15, s0, s14
 133:main.cpp      ****             delta_max = hw.adc.GetFloat(0) * 100 + 20;
 2212              		.loc 10 133 24 view .LVU546
 2213 04d6 C7ED007A 		vstr.32	s15, [r7]
 134:main.cpp      ****             pc.setCurve(delta_max, curve_type);
 2214              		.loc 10 134 13 is_stmt 1 view .LVU547
 134:main.cpp      ****             pc.setCurve(delta_max, curve_type);
 2215              		.loc 10 134 40 is_stmt 0 view .LVU548
 2216 04da FFF7FEFF 		bl	_ZNK5daisy9AdcHandle8GetFloatEh
 2217              	.LVL153:
 134:main.cpp      ****             pc.setCurve(delta_max, curve_type);
 2218              		.loc 10 134 50 view .LVU549
 2219 04de F3EE047A 		vmov.f32	s15, #2.0e+1
 2220 04e2 9FED4A7A 		vldr.32	s14, .L44+20
 134:main.cpp      ****             pc.setCurve(delta_max, curve_type);
 2221              		.loc 10 134 40 view .LVU550
 2222 04e6 F0EE406A 		vmov.f32	s13, s0
 134:main.cpp      ****             pc.setCurve(delta_max, curve_type);
 2223              		.loc 10 134 23 view .LVU551
 2224 04ea 584B     		ldr	r3, .L44+84
 135:main.cpp      **** 
 2225              		.loc 10 135 24 view .LVU552
 2226 04ec 97ED000A 		vldr.32	s0, [r7]
 2227              	.LBB891:
 2228              	.LBB892:
 2229              	.LBB893:
 2230              	.LBB894:
 2231              	.LBB895:
 2232              	.LBB896:
  78:../../libs/libDaisy/src/dev/mpr121.h ****                    config_.dev_addr, memAddress, 1, data, memSize, 10);
 2233              		.loc 9 78 32 view .LVU553
 2234 04f0 0A27     		movs	r7, #10
 2235              	.LBE896:
 2236              	.LBE895:
 2237              	.LBE894:
ARM GAS  C:\Users\skipi\AppData\Local\Temp\cc6ev9XQ.s 			page 72


 2238              	.LBE893:
 2239              	.LBE892:
 2240              	.LBE891:
 135:main.cpp      **** 
 2241              		.loc 10 135 24 view .LVU554
 2242 04f2 4348     		ldr	r0, .L44+8
 134:main.cpp      ****             pc.setCurve(delta_max, curve_type);
 2243              		.loc 10 134 50 view .LVU555
 2244 04f4 E6EE877A 		vfma.f32	s15, s13, s14
 135:main.cpp      **** 
 2245              		.loc 10 135 24 view .LVU556
 2246 04f8 BCEEE77A 		vcvt.u32.f32	s14, s15
 134:main.cpp      ****             pc.setCurve(delta_max, curve_type);
 2247              		.loc 10 134 23 view .LVU557
 2248 04fc C3ED007A 		vstr.32	s15, [r3]
 135:main.cpp      **** 
 2249              		.loc 10 135 13 is_stmt 1 view .LVU558
 135:main.cpp      **** 
 2250              		.loc 10 135 24 is_stmt 0 view .LVU559
 2251 0500 8DED057A 		vstr.32	s14, [sp, #20]	@ int
 2252 0504 9DF81410 		ldrb	r1, [sp, #20]	@ zero_extendqisi2
 2253 0508 FFF7FEFF 		bl	_ZN16PlantConditioner8setCurveEhf
 2254              	.LVL154:
 138:main.cpp      ****             
 2255              		.loc 10 138 13 is_stmt 1 view .LVU560
 2256              	.LBB918:
 2257              	.LBI891:
 227:../../libs/libDaisy/src/dev/mpr121.h ****     {
 2258              		.loc 9 227 14 view .LVU561
 2259              	.LBB914:
 2260              	.LBB910:
 2261              	.LBI893:
 244:../../libs/libDaisy/src/dev/mpr121.h ****     {
 2262              		.loc 9 244 14 view .LVU562
 2263              	.LBB906:
 2264              	.LBB898:
 2265              	.LBI895:
  75:../../libs/libDaisy/src/dev/mpr121.h ****     {
 2266              		.loc 9 75 10 view .LVU563
 2267              	.LBB897:
  77:../../libs/libDaisy/src/dev/mpr121.h ****                != i2c_.Mem_read(
 2268              		.loc 9 77 9 view .LVU564
  78:../../libs/libDaisy/src/dev/mpr121.h ****                    config_.dev_addr, memAddress, 1, data, memSize, 10);
 2269              		.loc 9 78 32 is_stmt 0 view .LVU565
 2270 050c 0223     		movs	r3, #2
 2271 050e 0022     		movs	r2, #0
 2272 0510 94F82C10 		ldrb	r1, [r4, #44]	@ zero_extendqisi2
 2273 0514 0193     		str	r3, [sp, #4]
 2274 0516 10AB     		add	r3, sp, #64
 2275              	.LVL155:
  78:../../libs/libDaisy/src/dev/mpr121.h ****                    config_.dev_addr, memAddress, 1, data, memSize, 10);
 2276              		.loc 9 78 32 view .LVU566
 2277 0518 0297     		str	r7, [sp, #8]
 2278 051a 0093     		str	r3, [sp]
 2279 051c 0123     		movs	r3, #1
 2280              	.LVL156:
  78:../../libs/libDaisy/src/dev/mpr121.h ****                    config_.dev_addr, memAddress, 1, data, memSize, 10);
ARM GAS  C:\Users\skipi\AppData\Local\Temp\cc6ev9XQ.s 			page 73


 2281              		.loc 9 78 32 view .LVU567
 2282 051e 4C48     		ldr	r0, .L44+88
 2283 0520 FFF7FEFF 		bl	_ZN5daisy9I2CHandle8Mem_readEtttPhtm
 2284              	.LVL157:
  78:../../libs/libDaisy/src/dev/mpr121.h ****                    config_.dev_addr, memAddress, 1, data, memSize, 10);
 2285              		.loc 9 78 32 view .LVU568
 2286              	.LBE897:
 2287              	.LBE898:
 2288              	.LBB899:
 2289              	.LBI899:
 343:../../libs/libDaisy/src/dev/mpr121.h **** 
 2290              		.loc 9 343 10 is_stmt 1 view .LVU569
 2291              	.LBE899:
 2292              	.LBE906:
 2293              	.LBE910:
 2294              	.LBE914:
 2295              	.LBE918:
 2296              	.LBB919:
 2297              	.LBB883:
 2298              	.LBB875:
 2299              	.LBB867:
 2300              	.LBB859:
 2301              	.LBB851:
 2302              	.LBB840:
 2303              	.LBB835:
  78:../../libs/libDaisy/src/dev/mpr121.h ****                    config_.dev_addr, memAddress, 1, data, memSize, 10);
 2304              		.loc 9 78 32 is_stmt 0 view .LVU570
 2305 0524 10AB     		add	r3, sp, #64
 2306              	.LBE835:
 2307              	.LBE840:
 2308              	.LBE851:
 2309              	.LBE859:
 2310              	.LBE867:
 2311              	.LBE875:
 2312              	.LBE883:
 2313              	.LBE919:
 138:main.cpp      ****             
 2314              		.loc 10 138 25 view .LVU571
 2315 0526 4B4A     		ldr	r2, .L44+92
 2316              	.LBB920:
 2317              	.LBB884:
 2318              	.LBB876:
 2319              	.LBB868:
 2320              	.LBB860:
 2321              	.LBB852:
 2322              	.LBB841:
 2323              	.LBB836:
  78:../../libs/libDaisy/src/dev/mpr121.h ****                    config_.dev_addr, memAddress, 1, data, memSize, 10);
 2324              		.loc 9 78 32 view .LVU572
 2325 0528 0093     		str	r3, [sp]
 2326              	.LBE836:
 2327              	.LBE841:
 2328              	.LBE852:
 2329              	.LBE860:
 2330              	.LBE868:
 2331              	.LBE876:
 2332              	.LBE884:
ARM GAS  C:\Users\skipi\AppData\Local\Temp\cc6ev9XQ.s 			page 74


 2333              	.LBE920:
 2334              	.LBB921:
 2335              	.LBB915:
 2336              	.LBB911:
 2337              	.LBB907:
 2338              	.LBB903:
 2339              	.LBB900:
 343:../../libs/libDaisy/src/dev/mpr121.h **** 
 2340              		.loc 9 343 55 view .LVU573
 2341 052a 94F83030 		ldrb	r3, [r4, #48]	@ zero_extendqisi2
 2342              	.LBE900:
 2343              	.LBE903:
 2344              	.LBE907:
 2345              	.LBE911:
 2346              	.LBE915:
 2347              	.LBE921:
 2348              	.LBB922:
 2349              	.LBB885:
 2350              	.LBB877:
 2351              	.LBB869:
 2352              	.LBB861:
 2353              	.LBB853:
 2354              	.LBB842:
 2355              	.LBB837:
  78:../../libs/libDaisy/src/dev/mpr121.h ****                    config_.dev_addr, memAddress, 1, data, memSize, 10);
 2356              		.loc 9 78 32 view .LVU574
 2357 052e 0297     		str	r7, [sp, #8]
 2358              	.LBE837:
 2359              	.LBE842:
 2360              	.LBE853:
 2361              	.LBE861:
 2362              	.LBE869:
 2363              	.LBE877:
 2364              	.LBE885:
 2365              	.LBE922:
 2366              	.LBB923:
 2367              	.LBB916:
 2368              	.LBB912:
 2369              	.LBB908:
 2370              	.LBB904:
 2371              	.LBB901:
 343:../../libs/libDaisy/src/dev/mpr121.h **** 
 2372              		.loc 9 343 55 view .LVU575
 2373 0530 0028     		cmp	r0, #0
 2374 0532 18BF     		it	ne
 2375 0534 43F00103 		orrne	r3, r3, #1
 2376              	.LBE901:
 2377              	.LBE904:
 2378              	.LBE908:
 2379              	.LBE912:
 2380              	.LBE916:
 2381              	.LBE923:
 2382              	.LBB924:
 2383              	.LBB886:
 2384              	.LBB878:
 2385              	.LBB870:
 2386              	.LBB862:
ARM GAS  C:\Users\skipi\AppData\Local\Temp\cc6ev9XQ.s 			page 75


 2387              	.LBB854:
 2388              	.LBB843:
 2389              	.LBB838:
  78:../../libs/libDaisy/src/dev/mpr121.h ****                    config_.dev_addr, memAddress, 1, data, memSize, 10);
 2390              		.loc 9 78 32 view .LVU576
 2391 0538 94F82C10 		ldrb	r1, [r4, #44]	@ zero_extendqisi2
 2392 053c 4448     		ldr	r0, .L44+88
 2393              	.LVL158:
  78:../../libs/libDaisy/src/dev/mpr121.h ****                    config_.dev_addr, memAddress, 1, data, memSize, 10);
 2394              		.loc 9 78 32 view .LVU577
 2395              	.LBE838:
 2396              	.LBE843:
 2397              	.LBE854:
 2398              	.LBE862:
 2399              	.LBE870:
 2400              	.LBE878:
 2401              	.LBE886:
 2402              	.LBE924:
 2403              	.LBB925:
 2404              	.LBB917:
 2405              	.LBB913:
 2406              	.LBB909:
 2407              	.LBB905:
 2408              	.LBB902:
 343:../../libs/libDaisy/src/dev/mpr121.h **** 
 2409              		.loc 9 343 55 view .LVU578
 2410 053e 84F83030 		strb	r3, [r4, #48]
 2411              	.LVL159:
 343:../../libs/libDaisy/src/dev/mpr121.h **** 
 2412              		.loc 9 343 55 view .LVU579
 2413              	.LBE902:
 2414              	.LBE905:
 250:../../libs/libDaisy/src/dev/mpr121.h ****     }
 2415              		.loc 9 250 16 view .LVU580
 2416 0542 BDF84030 		ldrh	r3, [sp, #64]
 2417              	.LVL160:
 250:../../libs/libDaisy/src/dev/mpr121.h ****     }
 2418              		.loc 9 250 16 view .LVU581
 2419              	.LBE909:
 2420              	.LBE913:
 230:../../libs/libDaisy/src/dev/mpr121.h ****     }
 2421              		.loc 9 230 20 view .LVU582
 2422 0546 C3F30B03 		ubfx	r3, r3, #0, #12
 2423              	.LBE917:
 2424              	.LBE925:
 138:main.cpp      ****             
 2425              		.loc 10 138 25 view .LVU583
 2426 054a 1380     		strh	r3, [r2]	@ movhi
 141:main.cpp      **** 
 2427              		.loc 10 141 13 is_stmt 1 view .LVU584
 2428              	.LVL161:
 2429              	.LBB926:
 2430              	.LBI827:
 214:../../libs/libDaisy/src/dev/mpr121.h ****     {
 2431              		.loc 9 214 14 view .LVU585
 2432              	.LBB887:
 2433              	.LBB879:
ARM GAS  C:\Users\skipi\AppData\Local\Temp\cc6ev9XQ.s 			page 76


 2434              	.LBI829:
 214:../../libs/libDaisy/src/dev/mpr121.h ****     {
 2435              		.loc 9 214 14 view .LVU586
 2436              	.LBB871:
 2437              	.LBB863:
 2438              	.LBI831:
 237:../../libs/libDaisy/src/dev/mpr121.h ****     {
 2439              		.loc 9 237 13 view .LVU587
 2440              	.LBB855:
 2441              	.LBB844:
 2442              	.LBI833:
  75:../../libs/libDaisy/src/dev/mpr121.h ****     {
 2443              		.loc 9 75 10 view .LVU588
 2444              	.LBB839:
  77:../../libs/libDaisy/src/dev/mpr121.h ****                != i2c_.Mem_read(
 2445              		.loc 9 77 9 view .LVU589
  78:../../libs/libDaisy/src/dev/mpr121.h ****                    config_.dev_addr, memAddress, 1, data, memSize, 10);
 2446              		.loc 9 78 32 is_stmt 0 view .LVU590
 2447 054c 4B46     		mov	r3, r9
 2448 054e 1E22     		movs	r2, #30
 2449 0550 CDF80490 		str	r9, [sp, #4]
 2450 0554 FFF7FEFF 		bl	_ZN5daisy9I2CHandle8Mem_readEtttPhtm
 2451              	.LVL162:
  78:../../libs/libDaisy/src/dev/mpr121.h ****                    config_.dev_addr, memAddress, 1, data, memSize, 10);
 2452              		.loc 9 78 32 view .LVU591
 2453              	.LBE839:
 2454              	.LBE844:
 2455              	.LBB845:
 2456              	.LBI845:
 343:../../libs/libDaisy/src/dev/mpr121.h **** 
 2457              		.loc 9 343 10 is_stmt 1 view .LVU592
 2458              	.LBB846:
 343:../../libs/libDaisy/src/dev/mpr121.h **** 
 2459              		.loc 9 343 55 is_stmt 0 view .LVU593
 2460 0558 94F83020 		ldrb	r2, [r4, #48]	@ zero_extendqisi2
 2461              	.LBE846:
 2462              	.LBE845:
 2463              	.LBE855:
 2464              	.LBE863:
 2465              	.LBE871:
 2466              	.LBE879:
 2467              	.LBE887:
 2468              	.LBE926:
 2469              	.LBB927:
 2470              	.LBB928:
 2471              	.LBB929:
 2472              	.LBB930:
 2473              	.LBB931:
 2474              	.LBB932:
  78:../../libs/libDaisy/src/dev/mpr121.h ****                    config_.dev_addr, memAddress, 1, data, memSize, 10);
 2475              		.loc 9 78 32 view .LVU594
 2476 055c 0223     		movs	r3, #2
 2477 055e 94F82C10 		ldrb	r1, [r4, #44]	@ zero_extendqisi2
 2478              	.LBE932:
 2479              	.LBE931:
 2480              	.LBE930:
 2481              	.LBE929:
ARM GAS  C:\Users\skipi\AppData\Local\Temp\cc6ev9XQ.s 			page 77


 2482              	.LBE928:
 2483              	.LBE927:
 2484              	.LBB960:
 2485              	.LBB888:
 2486              	.LBB880:
 2487              	.LBB872:
 2488              	.LBB864:
 2489              	.LBB856:
 2490              	.LBB849:
 2491              	.LBB847:
 343:../../libs/libDaisy/src/dev/mpr121.h **** 
 2492              		.loc 9 343 55 view .LVU595
 2493 0562 0028     		cmp	r0, #0
 2494 0564 18BF     		it	ne
 2495 0566 42F00102 		orrne	r2, r2, #1
 2496              	.LBE847:
 2497              	.LBE849:
 2498              	.LBE856:
 2499              	.LBE864:
 2500              	.LBE872:
 2501              	.LBE880:
 2502              	.LBE888:
 2503              	.LBE960:
 2504              	.LBB961:
 2505              	.LBB955:
 2506              	.LBB950:
 2507              	.LBB945:
 2508              	.LBB936:
 2509              	.LBB933:
  78:../../libs/libDaisy/src/dev/mpr121.h ****                    config_.dev_addr, memAddress, 1, data, memSize, 10);
 2510              		.loc 9 78 32 view .LVU596
 2511 056a 0297     		str	r7, [sp, #8]
 2512 056c 0193     		str	r3, [sp, #4]
 2513 056e 10AB     		add	r3, sp, #64
 2514              	.LBE933:
 2515              	.LBE936:
 2516              	.LBE945:
 2517              	.LBE950:
 2518              	.LBE955:
 2519              	.LBE961:
 2520              	.LBB962:
 2521              	.LBB889:
 2522              	.LBB881:
 2523              	.LBB873:
 2524              	.LBB865:
 2525              	.LBB857:
 2526              	.LBB850:
 2527              	.LBB848:
 343:../../libs/libDaisy/src/dev/mpr121.h **** 
 2528              		.loc 9 343 55 view .LVU597
 2529 0570 84F83020 		strb	r2, [r4, #48]
 2530              	.LVL163:
 343:../../libs/libDaisy/src/dev/mpr121.h **** 
 2531              		.loc 9 343 55 view .LVU598
 2532              	.LBE848:
 2533              	.LBE850:
 2534              	.LBE857:
ARM GAS  C:\Users\skipi\AppData\Local\Temp\cc6ev9XQ.s 			page 78


 2535              	.LBE865:
 2536              	.LBE873:
 2537              	.LBE881:
 2538              	.LBE889:
 2539              	.LBE962:
 2540              	.LBB963:
 2541              	.LBB956:
 2542              	.LBB951:
 2543              	.LBB946:
 2544              	.LBB937:
 2545              	.LBB934:
  78:../../libs/libDaisy/src/dev/mpr121.h ****                    config_.dev_addr, memAddress, 1, data, memSize, 10);
 2546              		.loc 9 78 32 view .LVU599
 2547 0574 0422     		movs	r2, #4
 2548 0576 0093     		str	r3, [sp]
 2549 0578 4B46     		mov	r3, r9
 2550 057a 3548     		ldr	r0, .L44+88
 2551              	.LBE934:
 2552              	.LBE937:
 2553              	.LBE946:
 2554              	.LBE951:
 2555              	.LBE956:
 2556              	.LBE963:
 2557              	.LBB964:
 2558              	.LBB890:
 2559              	.LBB882:
 2560              	.LBB874:
 2561              	.LBB866:
 2562              	.LBB858:
 241:../../libs/libDaisy/src/dev/mpr121.h ****     }
 2563              		.loc 9 241 16 view .LVU600
 2564 057c 9DF84070 		ldrb	r7, [sp, #64]	@ zero_extendqisi2
 2565              	.LVL164:
 241:../../libs/libDaisy/src/dev/mpr121.h ****     }
 2566              		.loc 9 241 16 view .LVU601
 2567              	.LBE858:
 2568              	.LBE866:
 2569              	.LBE874:
 2570              	.LBE882:
 2571              	.LBE890:
 2572              	.LBE964:
 2573              	.LBB965:
 2574              	.LBI927:
 201:../../libs/libDaisy/src/dev/mpr121.h ****     {
 2575              		.loc 9 201 14 is_stmt 1 view .LVU602
 2576              	.LBB957:
 2577              	.LBI928:
 201:../../libs/libDaisy/src/dev/mpr121.h ****     {
 2578              		.loc 9 201 14 view .LVU603
 2579              	.LBB952:
 2580              	.LBI929:
 244:../../libs/libDaisy/src/dev/mpr121.h ****     {
 2581              		.loc 9 244 14 view .LVU604
 2582              	.LBB947:
 2583              	.LBB938:
 2584              	.LBI931:
  75:../../libs/libDaisy/src/dev/mpr121.h ****     {
ARM GAS  C:\Users\skipi\AppData\Local\Temp\cc6ev9XQ.s 			page 79


 2585              		.loc 9 75 10 view .LVU605
 2586              	.LBB935:
  77:../../libs/libDaisy/src/dev/mpr121.h ****                != i2c_.Mem_read(
 2587              		.loc 9 77 9 view .LVU606
  78:../../libs/libDaisy/src/dev/mpr121.h ****                    config_.dev_addr, memAddress, 1, data, memSize, 10);
 2588              		.loc 9 78 32 is_stmt 0 view .LVU607
 2589 0580 FFF7FEFF 		bl	_ZN5daisy9I2CHandle8Mem_readEtttPhtm
 2590              	.LVL165:
  78:../../libs/libDaisy/src/dev/mpr121.h ****                    config_.dev_addr, memAddress, 1, data, memSize, 10);
 2591              		.loc 9 78 32 view .LVU608
 2592              	.LBE935:
 2593              	.LBE938:
 2594              	.LBB939:
 2595              	.LBI939:
 343:../../libs/libDaisy/src/dev/mpr121.h **** 
 2596              		.loc 9 343 10 is_stmt 1 view .LVU609
 2597              	.LBB940:
 343:../../libs/libDaisy/src/dev/mpr121.h **** 
 2598              		.loc 9 343 55 is_stmt 0 view .LVU610
 2599 0584 94F83020 		ldrb	r2, [r4, #48]	@ zero_extendqisi2
 2600              	.LBE940:
 2601              	.LBE939:
 2602              	.LBE947:
 2603              	.LBE952:
 2604              	.LBE957:
 2605              	.LBE965:
 141:main.cpp      **** 
 2606              		.loc 10 141 47 view .LVU611
 2607 0588 B900     		lsls	r1, r7, #2
 2608              	.LBB966:
 2609              	.LBB958:
 2610              	.LBB953:
 2611              	.LBB948:
 2612              	.LBB943:
 2613              	.LBB941:
 343:../../libs/libDaisy/src/dev/mpr121.h **** 
 2614              		.loc 9 343 55 view .LVU612
 2615 058a 0028     		cmp	r0, #0
 2616 058c 18BF     		it	ne
 2617 058e 42F00102 		orrne	r2, r2, #1
 2618              	.LBE941:
 2619              	.LBE943:
 2620              	.LBE948:
 2621              	.LBE953:
 2622              	.LBE958:
 2623              	.LBE966:
 141:main.cpp      **** 
 2624              		.loc 10 141 47 view .LVU613
 2625 0592 1B48     		ldr	r0, .L44+8
 2626              	.LVL166:
 2627              	.LBB967:
 2628              	.LBB959:
 2629              	.LBB954:
 2630              	.LBB949:
 2631              	.LBB944:
 2632              	.LBB942:
 343:../../libs/libDaisy/src/dev/mpr121.h **** 
ARM GAS  C:\Users\skipi\AppData\Local\Temp\cc6ev9XQ.s 			page 80


 2633              		.loc 9 343 55 view .LVU614
 2634 0594 84F83020 		strb	r2, [r4, #48]
 2635              	.LVL167:
 343:../../libs/libDaisy/src/dev/mpr121.h **** 
 2636              		.loc 9 343 55 view .LVU615
 2637              	.LBE942:
 2638              	.LBE944:
 2639              	.LBE949:
 2640              	.LBE954:
 2641              	.LBE959:
 2642              	.LBE967:
 141:main.cpp      **** 
 2643              		.loc 10 141 47 view .LVU616
 2644 0598 BDF84020 		ldrh	r2, [sp, #64]
 2645 059c FFF7FEFF 		bl	_ZN16PlantConditioner7ProcessEtt
 2646              	.LVL168:
 144:main.cpp      ****             {
 2647              		.loc 10 144 13 is_stmt 1 view .LVU617
 144:main.cpp      ****             {
 2648              		.loc 10 144 17 is_stmt 0 view .LVU618
 2649 05a0 2C4A     		ldr	r2, .L44+92
 2650 05a2 1288     		ldrh	r2, [r2]
 144:main.cpp      ****             {
 2651              		.loc 10 144 13 view .LVU619
 2652 05a4 12EA0901 		ands	r1, r2, r9
 2653 05a8 1FD0     		beq	.L31
 146:main.cpp      ****                 // We just update the variable here. The Audio Callback picks it up instantly.
 2654              		.loc 10 146 17 is_stmt 1 view .LVU620
 2655 05aa 98F80010 		ldrb	r1, [r8]	@ zero_extendqisi2
 2656 05ae 09B9     		cbnz	r1, .L32
 146:main.cpp      ****                 // We just update the variable here. The Audio Callback picks it up instantly.
 2657              		.loc 10 146 28 discriminator 1 view .LVU621
 146:main.cpp      ****                 // We just update the variable here. The Audio Callback picks it up instantly.
 2658              		.loc 10 146 33 is_stmt 0 discriminator 1 view .LVU622
 2659 05b0 88F80090 		strb	r9, [r8]
 2660              	.L32:
 148:main.cpp      ****             }
 2661              		.loc 10 148 17 is_stmt 1 view .LVU623
 148:main.cpp      ****             }
 2662              		.loc 10 148 29 is_stmt 0 view .LVU624
 2663 05b4 224B     		ldr	r3, .L44+72
 2664 05b6 83ED000A 		vstr.32	s0, [r3]
 2665              	.L33:
 154:main.cpp      ****         }
 2666              		.loc 10 154 13 is_stmt 1 view .LVU625
 154:main.cpp      ****         }
 2667              		.loc 10 154 25 is_stmt 0 view .LVU626
 2668 05ba 274B     		ldr	r3, .L44+96
 130:main.cpp      **** 
 2669              		.loc 10 130 23 view .LVU627
 2670 05bc 2F46     		mov	r7, r5
 154:main.cpp      ****         }
 2671              		.loc 10 154 25 view .LVU628
 2672 05be 1A80     		strh	r2, [r3]	@ movhi
 2673              	.LBE826:
 2674 05c0 52E7     		b	.L30
 2675              	.LVL169:
ARM GAS  C:\Users\skipi\AppData\Local\Temp\cc6ev9XQ.s 			page 81


 2676              	.L35:
 154:main.cpp      ****         }
 2677              		.loc 10 154 25 view .LVU629
 2678              	.LBE969:
 165:main.cpp      ****             }
 2679              		.loc 10 165 17 is_stmt 1 view .LVU630
 165:main.cpp      ****             }
 2680              		.loc 10 165 29 is_stmt 0 view .LVU631
 2681 05c2 1F4B     		ldr	r3, .L44+72
 2682              	.LBB970:
 2683              	.LBB971:
 128:../../libs/libDaisy/src/daisy_seed.h ****     }
 2684              		.loc 1 128 23 view .LVU632
 2685 05c4 B7EEC77A 		vcvt.f64.f32	d7, s14
 2686 05c8 B7EEC66A 		vcvt.f64.f32	d6, s12
 2687 05cc 2348     		ldr	r0, .L44+100
 2688              	.LBE971:
 2689              	.LBE970:
 165:main.cpp      ****             }
 2690              		.loc 10 165 29 view .LVU633
 2691 05ce D3ED005A 		vldr.32	s11, [r3]
 2692              	.LVL170:
 2693              	.LBB973:
 2694              	.LBI973:
  60:../../Classes/Temperamento/PlantConditioner.h ****     float getDeltaFilt() { return _deltaFilt; }
 2695              		.loc 13 60 11 is_stmt 1 view .LVU634
 2696              	.LBB974:
  60:../../Classes/Temperamento/PlantConditioner.h ****     float getDeltaFilt() { return _deltaFilt; }
 2697              		.loc 13 60 24 view .LVU635
  60:../../Classes/Temperamento/PlantConditioner.h ****     float getDeltaFilt() { return _deltaFilt; }
 2698              		.loc 13 60 24 is_stmt 0 view .LVU636
 2699              	.LBE974:
 2700              	.LBE973:
 2701              	.LBB975:
 2702              	.LBI975:
 2703              		.loc 13 61 11 is_stmt 1 view .LVU637
 2704              	.LBB976:
 2705              		.loc 13 61 28 view .LVU638
 2706              		.loc 13 61 28 is_stmt 0 view .LVU639
 2707              	.LBE976:
 2708              	.LBE975:
 2709              	.LBB977:
 2710              	.LBI970:
 126:../../libs/libDaisy/src/daisy_seed.h ****     {
 2711              		.loc 1 126 17 is_stmt 1 view .LVU640
 2712              	.LBE977:
 161:main.cpp      ****             if (gate) {
 2713              		.loc 10 161 24 is_stmt 0 view .LVU641
 2714 05d2 2E46     		mov	r6, r5
 2715              	.LBB978:
 2716              	.LBB972:
 128:../../libs/libDaisy/src/daisy_seed.h ****     }
 2717              		.loc 1 128 23 view .LVU642
 2718 05d4 8DED007B 		vstr.64	d7, [sp]
 2719 05d8 B7EEE57A 		vcvt.f64.f32	d7, s11
 2720 05dc 8DED026B 		vstr.64	d6, [sp, #8]
 2721 05e0 53EC172B 		vmov	r2, r3, d7
ARM GAS  C:\Users\skipi\AppData\Local\Temp\cc6ev9XQ.s 			page 82


 2722 05e4 FFF7FEFF 		bl	_ZN5daisy6LoggerILNS_17LoggerDestinationE1EE9PrintLineEPKcz
 2723              	.LVL171:
 129:../../libs/libDaisy/src/daisy_seed.h **** 
 2724              		.loc 1 129 5 view .LVU643
 2725 05e8 5DE7     		b	.L34
 2726              	.LVL172:
 2727              	.L31:
 129:../../libs/libDaisy/src/daisy_seed.h **** 
 2728              		.loc 1 129 5 view .LVU644
 2729              	.LBE972:
 2730              	.LBE978:
 2731              	.LBB979:
 2732              	.LBB968:
 152:main.cpp      ****             }
 2733              		.loc 10 152 17 is_stmt 1 view .LVU645
 2734 05ea 98F80030 		ldrb	r3, [r8]	@ zero_extendqisi2
 2735 05ee 002B     		cmp	r3, #0
 2736 05f0 E3D0     		beq	.L33
 152:main.cpp      ****             }
 2737              		.loc 10 152 27 discriminator 1 view .LVU646
 152:main.cpp      ****             }
 2738              		.loc 10 152 32 is_stmt 0 discriminator 1 view .LVU647
 2739 05f2 88F80010 		strb	r1, [r8]
 2740 05f6 E0E7     		b	.L33
 2741              	.L45:
 2742              		.align	2
 2743              	.L44:
 2744 05f8 00000000 		.word	.LANCHOR4
 2745 05fc 1C000000 		.word	.LC1
 2746 0600 00000000 		.word	.LANCHOR7
 2747 0604 CDCC8C3F 		.word	1066192077
 2748 0608 00000000 		.word	.LANCHOR1
 2749 060c 0000C842 		.word	1120403456
 2750 0610 0000DC43 		.word	1138491392
 2751 0614 00000000 		.word	.LANCHOR3
 2752 0618 9A99593F 		.word	1062836634
 2753 061c CDCC4C3D 		.word	1028443341
 2754 0620 CDCCCC3D 		.word	1036831949
 2755 0624 3333333F 		.word	1060320051
 2756 0628 00000000 		.word	.LANCHOR8
 2757 062c 00000000 		.word	.LANCHOR9
 2758 0630 00000000 		.word	.LANCHOR10
 2759 0634 54000000 		.word	.LANCHOR9+84
 2760 0638 18000000 		.word	.LANCHOR4+24
 2761 063c 00000000 		.word	_ZL13AudioCallbackPKfPfj
 2762 0640 00000000 		.word	.LANCHOR0
 2763 0644 30000000 		.word	.LC2
 2764 0648 00000000 		.word	.LANCHOR11
 2765 064c 00000000 		.word	.LANCHOR12
 2766 0650 18000000 		.word	.LANCHOR6+24
 2767 0654 00000000 		.word	.LANCHOR13
 2768 0658 00000000 		.word	.LANCHOR14
 2769 065c 64000000 		.word	.LC3
 2770 0660 8C070000 		.word	.LANCHOR7+1932
 2771 0664 00000000 		.word	.LANCHOR2
 2772              	.LBE968:
 2773              	.LBE979:
ARM GAS  C:\Users\skipi\AppData\Local\Temp\cc6ev9XQ.s 			page 83


 2774              	.LBE980:
 2775              		.cfi_endproc
 2776              	.LFE4849:
 2778              		.section	.text.startup._GLOBAL__sub_I_mpr121ObjConf,"ax",%progbits
 2779              		.align	1
 2780              		.p2align 2,,3
 2781              		.syntax unified
 2782              		.thumb
 2783              		.thumb_func
 2784              		.fpu fpv5-d16
 2786              	_GLOBAL__sub_I_mpr121ObjConf:
 2787              	.LFB5433:
 172:main.cpp      ****     }
 173:main.cpp      **** }...
 2788              		.loc 10 173 1 is_stmt 1 view -0
 2789              		.cfi_startproc
 2790              		@ args = 0, pretend = 0, frame = 0
 2791              		@ frame_needed = 0, uses_anonymous_args = 0
 2792              	.LBB1111:
 2793              	.LBI1111:
 2794              		.loc 10 173 1 view .LVU649
 2795              	.LVL173:
 2796              	.LBB1112:
 2797              	.LBB1113:
 2798              	.LBI1113:
 105:../../libs/libDaisy/src/dev/mpr121.h ****         {
 2799              		.loc 9 105 9 view .LVU650
 2800              	.LBB1114:
 2801              	.LBB1115:
 2802              	.LBI1115:
  34:../../libs/libDaisy/src/dev/mpr121.h ****         {
 2803              		.loc 9 34 9 view .LVU651
 2804              	.LBB1116:
 2805              	.LBB1117:
 2806              	.LBB1118:
 2807              	.LBI1118:
 2808              		.loc 12 204 15 view .LVU652
 2809              		.loc 12 204 15 is_stmt 0 view .LVU653
 2810              	.LBE1118:
 2811              	.LBB1119:
 2812              	.LBI1119:
 2813              		.loc 12 204 15 is_stmt 1 view .LVU654
 2814              		.loc 12 204 15 is_stmt 0 view .LVU655
 2815              	.LBE1119:
  36:../../libs/libDaisy/src/dev/mpr121.h ****             speed  = I2CHandle::Config::Speed::I2C_400KHZ;
 2816              		.loc 9 36 13 is_stmt 1 view .LVU656
  37:../../libs/libDaisy/src/dev/mpr121.h **** 
 2817              		.loc 9 37 13 view .LVU657
  39:../../libs/libDaisy/src/dev/mpr121.h ****             sda = Pin(PORTB, 9);
 2818              		.loc 9 39 13 view .LVU658
 2819              	.LBB1120:
 2820              	.LBI1120:
 201:../../libs/libDaisy/src/daisy_core.h **** 
 2821              		.loc 12 201 15 view .LVU659
 201:../../libs/libDaisy/src/daisy_core.h **** 
 2822              		.loc 12 201 15 is_stmt 0 view .LVU660
 2823              	.LBE1120:
ARM GAS  C:\Users\skipi\AppData\Local\Temp\cc6ev9XQ.s 			page 84


  40:../../libs/libDaisy/src/dev/mpr121.h **** 
 2824              		.loc 9 40 13 is_stmt 1 view .LVU661
 2825              	.LBB1121:
 2826              	.LBI1121:
 201:../../libs/libDaisy/src/daisy_core.h **** 
 2827              		.loc 12 201 15 view .LVU662
 201:../../libs/libDaisy/src/daisy_core.h **** 
 2828              		.loc 12 201 15 is_stmt 0 view .LVU663
 2829              	.LBE1121:
  42:../../libs/libDaisy/src/dev/mpr121.h ****         }
 2830              		.loc 9 42 13 is_stmt 1 view .LVU664
  42:../../libs/libDaisy/src/dev/mpr121.h ****         }
 2831              		.loc 9 42 13 is_stmt 0 view .LVU665
 2832              	.LBE1117:
 2833              	.LBE1116:
 2834              	.LBE1115:
 2835              	.LBE1114:
 2836              	.LBE1113:
 2837              	.LBE1112:
 2838              	.LBE1111:
 2839              		.loc 10 173 1 view .LVU666
 2840 0000 38B5     		push	{r3, r4, r5, lr}
 2841              		.cfi_def_cfa_offset 16
 2842              		.cfi_offset 3, -16
 2843              		.cfi_offset 4, -12
 2844              		.cfi_offset 5, -8
 2845              		.cfi_offset 14, -4
 2846              	.LBB1286:
 2847              	.LBB1284:
 2848              	.LBB1131:
 2849              	.LBB1132:
 2850              	.LBB1133:
 2851              	.LBB1134:
 2852              	.LBB1135:
 2853              	.LBB1136:
 2854              	.LBB1137:
  36:../../libs/libDaisy/src/dev/mpr121.h ****             speed  = I2CHandle::Config::Speed::I2C_400KHZ;
 2855              		.loc 9 36 20 view .LVU667
 2856 0002 3C48     		ldr	r0, .L52
 2857              	.LBE1137:
 2858              	.LBE1136:
 2859              	.LBE1135:
 2860              	.LBE1134:
 2861              	.LBE1133:
 2862              	.LBE1132:
 2863              	.LBE1131:
 2864              	.LBB1170:
 2865              	.LBB1128:
 105:../../libs/libDaisy/src/dev/mpr121.h ****         {
 2866              		.loc 9 105 9 view .LVU668
 2867 0004 5A21     		movs	r1, #90
 2868              	.LBB1126:
 2869              	.LBB1124:
 2870              	.LBB1122:
  36:../../libs/libDaisy/src/dev/mpr121.h ****             speed  = I2CHandle::Config::Speed::I2C_400KHZ;
 2871              		.loc 9 36 20 view .LVU669
 2872 0006 3C4B     		ldr	r3, .L52+4
ARM GAS  C:\Users\skipi\AppData\Local\Temp\cc6ev9XQ.s 			page 85


 2873 0008 0024     		movs	r4, #0
  37:../../libs/libDaisy/src/dev/mpr121.h **** 
 2874              		.loc 9 37 20 view .LVU670
 2875 000a 0125     		movs	r5, #1
 2876              	.LBE1122:
 2877              	.LBE1124:
 2878              	.LBE1126:
 105:../../libs/libDaisy/src/dev/mpr121.h ****         {
 2879              		.loc 9 105 9 view .LVU671
 2880 000c 3B4A     		ldr	r2, .L52+8
 2881 000e 1961     		str	r1, [r3, #16]
 2882              	.LBE1128:
 2883              	.LBE1170:
 2884              	.LBB1171:
 2885              	.LBB1167:
  96:../../libs/libDaisy/src/dev/mpr121.h ****     ~Mpr121() {}
 2886              		.loc 9 96 5 view .LVU672
 2887 0010 0161     		str	r1, [r0, #16]
 2888 0012 C162     		str	r1, [r0, #44]
 2889              	.LBE1167:
 2890              	.LBE1171:
 2891              	.LBB1172:
 2892              	.LBB1129:
 105:../../libs/libDaisy/src/dev/mpr121.h ****         {
 2893              		.loc 9 105 9 view .LVU673
 2894 0014 4FF48171 		mov	r1, #258
 2895 0018 9A60     		str	r2, [r3, #8]
 2896 001a 9982     		strh	r1, [r3, #20]	@ movhi
 2897              	.LVL174:
 105:../../libs/libDaisy/src/dev/mpr121.h ****         {
 2898              		.loc 9 105 9 view .LVU674
 2899              	.LBE1129:
 2900              	.LBE1172:
 2901              	.LBB1173:
 2902              	.LBI1131:
  96:../../libs/libDaisy/src/dev/mpr121.h ****     ~Mpr121() {}
 2903              		.loc 9 96 5 is_stmt 1 view .LVU675
 2904              	.LBB1168:
 2905              	.LBB1150:
 2906              	.LBI1133:
 105:../../libs/libDaisy/src/dev/mpr121.h ****         {
 2907              		.loc 9 105 9 view .LVU676
 2908              	.LBB1148:
 2909              	.LBB1146:
 2910              	.LBI1135:
  34:../../libs/libDaisy/src/dev/mpr121.h ****         {
 2911              		.loc 9 34 9 view .LVU677
 2912              	.LBB1144:
 2913              	.LBB1142:
 2914              	.LBB1138:
 2915              	.LBI1138:
 2916              		.loc 12 204 15 view .LVU678
 2917              		.loc 12 204 15 is_stmt 0 view .LVU679
 2918              	.LBE1138:
 2919              	.LBB1139:
 2920              	.LBI1139:
 2921              		.loc 12 204 15 is_stmt 1 view .LVU680
ARM GAS  C:\Users\skipi\AppData\Local\Temp\cc6ev9XQ.s 			page 86


 2922              		.loc 12 204 15 is_stmt 0 view .LVU681
 2923              	.LBE1139:
  36:../../libs/libDaisy/src/dev/mpr121.h ****             speed  = I2CHandle::Config::Speed::I2C_400KHZ;
 2924              		.loc 9 36 13 is_stmt 1 view .LVU682
  37:../../libs/libDaisy/src/dev/mpr121.h **** 
 2925              		.loc 9 37 13 view .LVU683
  39:../../libs/libDaisy/src/dev/mpr121.h ****             sda = Pin(PORTB, 9);
 2926              		.loc 9 39 13 view .LVU684
 2927              	.LBB1140:
 2928              	.LBI1140:
 201:../../libs/libDaisy/src/daisy_core.h **** 
 2929              		.loc 12 201 15 view .LVU685
 201:../../libs/libDaisy/src/daisy_core.h **** 
 2930              		.loc 12 201 15 is_stmt 0 view .LVU686
 2931              	.LBE1140:
  40:../../libs/libDaisy/src/dev/mpr121.h **** 
 2932              		.loc 9 40 13 is_stmt 1 view .LVU687
 2933              	.LBB1141:
 2934              	.LBI1141:
 201:../../libs/libDaisy/src/daisy_core.h **** 
 2935              		.loc 12 201 15 view .LVU688
 201:../../libs/libDaisy/src/daisy_core.h **** 
 2936              		.loc 12 201 15 is_stmt 0 view .LVU689
 2937              	.LBE1141:
  42:../../libs/libDaisy/src/dev/mpr121.h ****         }
 2938              		.loc 9 42 13 is_stmt 1 view .LVU690
  42:../../libs/libDaisy/src/dev/mpr121.h ****         }
 2939              		.loc 9 42 13 is_stmt 0 view .LVU691
 2940              	.LBE1142:
 2941              	.LBE1144:
 2942              	.LBE1146:
 2943              	.LBE1148:
 2944              	.LBE1150:
 2945              	.LBB1151:
 2946              	.LBI1151:
  20:../../libs/libDaisy/src/dev/mpr121.h ****     ~Mpr121I2CTransport() {}
 2947              		.loc 9 20 5 is_stmt 1 view .LVU692
 2948              	.LBB1152:
 2949              	.LBB1153:
 2950              	.LBI1153:
  60:../../libs/libDaisy/src/per/i2c.h ****             Pin scl;  /**< & */
  61:../../libs/libDaisy/src/per/i2c.h ****             Pin sda;  /**< & */
  62:../../libs/libDaisy/src/per/i2c.h ****         } pin_config; /**< & */
  63:../../libs/libDaisy/src/per/i2c.h **** 
  64:../../libs/libDaisy/src/per/i2c.h ****         Speed speed; /**< & */
  65:../../libs/libDaisy/src/per/i2c.h ****         Mode  mode;  /**< & */
  66:../../libs/libDaisy/src/per/i2c.h ****         // 0x10 is chosen as a default to avoid conflicts with reserved addresses
  67:../../libs/libDaisy/src/per/i2c.h ****         uint8_t address = 0x10; /**< & */
  68:../../libs/libDaisy/src/per/i2c.h ****     };
  69:../../libs/libDaisy/src/per/i2c.h **** 
  70:../../libs/libDaisy/src/per/i2c.h ****     /** Return values for I2C functions. */
  71:../../libs/libDaisy/src/per/i2c.h ****     enum class Result
  72:../../libs/libDaisy/src/per/i2c.h ****     {
  73:../../libs/libDaisy/src/per/i2c.h ****         OK, /**< & */
  74:../../libs/libDaisy/src/per/i2c.h ****         ERR /**< & */
  75:../../libs/libDaisy/src/per/i2c.h ****     };
  76:../../libs/libDaisy/src/per/i2c.h **** 
ARM GAS  C:\Users\skipi\AppData\Local\Temp\cc6ev9XQ.s 			page 87


  77:../../libs/libDaisy/src/per/i2c.h ****     enum class Direction
  78:../../libs/libDaisy/src/per/i2c.h ****     {
  79:../../libs/libDaisy/src/per/i2c.h ****         TRANSMIT, /**< & */
  80:../../libs/libDaisy/src/per/i2c.h ****         RECEIVE,  /**< & */
  81:../../libs/libDaisy/src/per/i2c.h ****     };
  82:../../libs/libDaisy/src/per/i2c.h **** 
  83:../../libs/libDaisy/src/per/i2c.h ****     I2CHandle() : pimpl_(nullptr) {}
 2951              		.loc 11 83 5 view .LVU693
 2952              		.loc 11 83 5 is_stmt 0 view .LVU694
 2953              	.LBE1153:
 2954              	.LBB1154:
 2955              	.LBI1154:
  34:../../libs/libDaisy/src/dev/mpr121.h ****         {
 2956              		.loc 9 34 9 is_stmt 1 view .LVU695
 2957              	.LBB1155:
 2958              	.LBB1156:
 2959              	.LBB1157:
 2960              	.LBI1157:
 2961              		.loc 12 204 15 view .LVU696
 2962              		.loc 12 204 15 is_stmt 0 view .LVU697
 2963              	.LBE1157:
 2964              	.LBB1158:
 2965              	.LBI1158:
 2966              		.loc 12 204 15 is_stmt 1 view .LVU698
 2967              		.loc 12 204 15 is_stmt 0 view .LVU699
 2968              	.LBE1158:
  36:../../libs/libDaisy/src/dev/mpr121.h ****             speed  = I2CHandle::Config::Speed::I2C_400KHZ;
 2969              		.loc 9 36 13 is_stmt 1 view .LVU700
  37:../../libs/libDaisy/src/dev/mpr121.h **** 
 2970              		.loc 9 37 13 view .LVU701
  39:../../libs/libDaisy/src/dev/mpr121.h ****             sda = Pin(PORTB, 9);
 2971              		.loc 9 39 13 view .LVU702
 2972              	.LBB1159:
 2973              	.LBI1159:
 201:../../libs/libDaisy/src/daisy_core.h **** 
 2974              		.loc 12 201 15 view .LVU703
 201:../../libs/libDaisy/src/daisy_core.h **** 
 2975              		.loc 12 201 15 is_stmt 0 view .LVU704
 2976              	.LBE1159:
  40:../../libs/libDaisy/src/dev/mpr121.h **** 
 2977              		.loc 9 40 13 is_stmt 1 view .LVU705
 2978              	.LBB1160:
 2979              	.LBI1160:
 201:../../libs/libDaisy/src/daisy_core.h **** 
 2980              		.loc 12 201 15 view .LVU706
 201:../../libs/libDaisy/src/daisy_core.h **** 
 2981              		.loc 12 201 15 is_stmt 0 view .LVU707
 2982              	.LBE1160:
  42:../../libs/libDaisy/src/dev/mpr121.h ****         }
 2983              		.loc 9 42 13 is_stmt 1 view .LVU708
  37:../../libs/libDaisy/src/dev/mpr121.h **** 
 2984              		.loc 9 37 20 is_stmt 0 view .LVU709
 2985 001c 0562     		str	r5, [r0, #32]
 2986              	.LBE1156:
 2987              	.LBE1155:
 2988              	.LBE1154:
 2989              	.LBE1152:
ARM GAS  C:\Users\skipi\AppData\Local\Temp\cc6ev9XQ.s 			page 88


 2990              	.LBE1151:
  96:../../libs/libDaisy/src/dev/mpr121.h ****     ~Mpr121() {}
 2991              		.loc 9 96 5 view .LVU710
 2992 001e 8260     		str	r2, [r0, #8]
 2993 0020 4262     		str	r2, [r0, #36]
 2994 0022 4161     		str	r1, [r0, #20]
 2995              	.LBE1168:
 2996              	.LBE1173:
  23:main.cpp      **** daisy::Mpr121I2C cap;
 2997              		.loc 10 23 18 view .LVU711
 2998 0024 364A     		ldr	r2, .L52+12
 2999 0026 3749     		ldr	r1, .L52+16
 3000              	.LBB1174:
 3001              	.LBB1130:
 3002              	.LBB1127:
 3003              	.LBB1125:
 3004              	.LBB1123:
  37:../../libs/libDaisy/src/dev/mpr121.h **** 
 3005              		.loc 9 37 20 view .LVU712
 3006 0028 C3E90045 		strd	r4, r5, [r3]
 3007              	.LBE1123:
 3008              	.LBE1125:
 3009              	.LBE1127:
 3010              	.LBE1130:
 3011              	.LBE1174:
 3012              	.LBB1175:
 3013              	.LBB1169:
 3014              	.LBB1165:
 3015              	.LBB1149:
 3016              	.LBB1147:
 3017              	.LBB1145:
 3018              	.LBB1143:
 3019 002c C0E90045 		strd	r4, r5, [r0]
 3020              	.LBE1143:
 3021              	.LBE1145:
 3022              	.LBE1147:
 3023              	.LBE1149:
 3024              	.LBE1165:
 3025              	.LBB1166:
 3026              	.LBB1164:
 3027              	.LBB1163:
 3028              	.LBB1162:
 3029              	.LBB1161:
  36:../../libs/libDaisy/src/dev/mpr121.h ****             speed  = I2CHandle::Config::Speed::I2C_400KHZ;
 3030              		.loc 9 36 20 view .LVU713
 3031 0030 C0E90644 		strd	r4, r4, [r0, #24]
 3032              	.LBE1161:
 3033              	.LBE1162:
 3034              	.LBE1163:
 3035              	.LBE1164:
 3036              	.LBE1166:
 3037              	.LBE1169:
 3038              	.LBE1175:
  23:main.cpp      **** daisy::Mpr121I2C cap;
 3039              		.loc 10 23 18 view .LVU714
 3040 0034 FFF7FEFF 		bl	__aeabi_atexit
 3041              	.LVL175:
ARM GAS  C:\Users\skipi\AppData\Local\Temp\cc6ev9XQ.s 			page 89


 3042              	.LBB1176:
 3043              	.LBI1176:
  21:../../libs/libDaisy/src/daisy_seed.h ****     ~DaisySeed() {}
 3044              		.loc 1 21 5 is_stmt 1 view .LVU715
 3045              	.LBB1177:
 3046              	.LBB1178:
 3047              	.LBI1178:
 3048              		.file 14 "../../libs/libDaisy/src/per/qspi.h"
   1:../../libs/libDaisy/src/per/qspi.h **** #ifndef DSY_QSPI
   2:../../libs/libDaisy/src/per/qspi.h **** #define DSY_QSPI /**< Macro */
   3:../../libs/libDaisy/src/per/qspi.h **** 
   4:../../libs/libDaisy/src/per/qspi.h **** #ifndef UNIT_TEST // for unit tests, a dummy implementation
   5:../../libs/libDaisy/src/per/qspi.h **** 
   6:../../libs/libDaisy/src/per/qspi.h **** #include <cstdint>
   7:../../libs/libDaisy/src/per/qspi.h **** #include "daisy_core.h"
   8:../../libs/libDaisy/src/per/qspi.h **** #include "util/hal_map.h"
   9:../../libs/libDaisy/src/per/qspi.h **** 
  10:../../libs/libDaisy/src/per/qspi.h **** #define DSY_QSPI_TEXT       \
  11:../../libs/libDaisy/src/per/qspi.h ****     __attribute__((section( \
  12:../../libs/libDaisy/src/per/qspi.h ****         ".qspiflash_text"))) /**< used for reading memory in memory_mapped mode. */
  13:../../libs/libDaisy/src/per/qspi.h **** #define DSY_QSPI_DATA       \
  14:../../libs/libDaisy/src/per/qspi.h ****     __attribute__((section( \
  15:../../libs/libDaisy/src/per/qspi.h ****         ".qspiflash_data"))) /**< used for reading memory in memory_mapped mode. */
  16:../../libs/libDaisy/src/per/qspi.h **** #define DSY_QSPI_BSS        \
  17:../../libs/libDaisy/src/per/qspi.h ****     __attribute__((section( \
  18:../../libs/libDaisy/src/per/qspi.h ****         ".qspiflash_bss"))) /**< used for reading memory in memory_mapped mode. */
  19:../../libs/libDaisy/src/per/qspi.h **** 
  20:../../libs/libDaisy/src/per/qspi.h **** namespace daisy
  21:../../libs/libDaisy/src/per/qspi.h **** {
  22:../../libs/libDaisy/src/per/qspi.h **** /** @addtogroup serial
  23:../../libs/libDaisy/src/per/qspi.h **** @{
  24:../../libs/libDaisy/src/per/qspi.h **** */
  25:../../libs/libDaisy/src/per/qspi.h **** 
  26:../../libs/libDaisy/src/per/qspi.h **** /**
  27:../../libs/libDaisy/src/per/qspi.h ****  Driver for QSPI peripheral to interface with external flash memory. \n
  28:../../libs/libDaisy/src/per/qspi.h ****     Currently supported QSPI Devices: \n
  29:../../libs/libDaisy/src/per/qspi.h ****     * IS25LP080D
  30:../../libs/libDaisy/src/per/qspi.h **** */
  31:../../libs/libDaisy/src/per/qspi.h **** class QSPIHandle
  32:../../libs/libDaisy/src/per/qspi.h **** {
  33:../../libs/libDaisy/src/per/qspi.h ****   public:
  34:../../libs/libDaisy/src/per/qspi.h ****     enum Result
  35:../../libs/libDaisy/src/per/qspi.h ****     {
  36:../../libs/libDaisy/src/per/qspi.h ****         OK = 0,
  37:../../libs/libDaisy/src/per/qspi.h ****         ERR
  38:../../libs/libDaisy/src/per/qspi.h ****     };
  39:../../libs/libDaisy/src/per/qspi.h **** 
  40:../../libs/libDaisy/src/per/qspi.h ****     /** Indicates the current status of the module.
  41:../../libs/libDaisy/src/per/qspi.h ****          *  Warnings are indicated by a leading W.
  42:../../libs/libDaisy/src/per/qspi.h ****          *  Errors are indicated by a leading E and cause an immediate exit.
  43:../../libs/libDaisy/src/per/qspi.h ****          *
  44:../../libs/libDaisy/src/per/qspi.h ****          *  \param GOOD - No errors have been reported.
  45:../../libs/libDaisy/src/per/qspi.h ****          *  \param E_HAL_ERROR - HAL code did not return HAL_OK.
  46:../../libs/libDaisy/src/per/qspi.h ****          *  \param E_SWITCHING_MODES - An error was encountered while switching QSPI peripheral mod
  47:../../libs/libDaisy/src/per/qspi.h ****          *  \param E_INVALID_MODE - QSPI should not be written to while the program is executing fr
  48:../../libs/libDaisy/src/per/qspi.h ****          */
  49:../../libs/libDaisy/src/per/qspi.h ****     enum Status
ARM GAS  C:\Users\skipi\AppData\Local\Temp\cc6ev9XQ.s 			page 90


  50:../../libs/libDaisy/src/per/qspi.h ****     {
  51:../../libs/libDaisy/src/per/qspi.h ****         GOOD = 0,
  52:../../libs/libDaisy/src/per/qspi.h ****         E_HAL_ERROR,
  53:../../libs/libDaisy/src/per/qspi.h ****         E_SWITCHING_MODES,
  54:../../libs/libDaisy/src/per/qspi.h ****         E_INVALID_MODE,
  55:../../libs/libDaisy/src/per/qspi.h ****     };
  56:../../libs/libDaisy/src/per/qspi.h **** 
  57:../../libs/libDaisy/src/per/qspi.h ****     /** Configuration structure for interfacing with QSPI Driver */
  58:../../libs/libDaisy/src/per/qspi.h ****     struct Config
  59:../../libs/libDaisy/src/per/qspi.h ****     {
  60:../../libs/libDaisy/src/per/qspi.h ****         /** Flash Devices supported. (Both of these are more-or-less the same, just different sizes
  61:../../libs/libDaisy/src/per/qspi.h ****         enum Device
  62:../../libs/libDaisy/src/per/qspi.h ****         {
  63:../../libs/libDaisy/src/per/qspi.h ****             IS25LP080D,  /**< & */
  64:../../libs/libDaisy/src/per/qspi.h ****             IS25LP064A,  /**< & */
  65:../../libs/libDaisy/src/per/qspi.h ****             DEVICE_LAST, /**< & */
  66:../../libs/libDaisy/src/per/qspi.h ****         };
  67:../../libs/libDaisy/src/per/qspi.h **** 
  68:../../libs/libDaisy/src/per/qspi.h ****         /**
  69:../../libs/libDaisy/src/per/qspi.h ****         Modes of operation.
  70:../../libs/libDaisy/src/per/qspi.h ****         Memory Mapped mode: QSPI configured so that the QSPI can be
  71:../../libs/libDaisy/src/per/qspi.h ****         read from starting address 0x90000000. Writing is not
  72:../../libs/libDaisy/src/per/qspi.h ****         possible in this mode. \n
  73:../../libs/libDaisy/src/per/qspi.h ****         Indirect Polling mode: Device driver enabled.
  74:../../libs/libDaisy/src/per/qspi.h ****         */
  75:../../libs/libDaisy/src/per/qspi.h ****         enum Mode
  76:../../libs/libDaisy/src/per/qspi.h ****         {
  77:../../libs/libDaisy/src/per/qspi.h ****             MEMORY_MAPPED,    /**< & */
  78:../../libs/libDaisy/src/per/qspi.h ****             INDIRECT_POLLING, /**< & */
  79:../../libs/libDaisy/src/per/qspi.h ****             MODE_LAST,
  80:../../libs/libDaisy/src/per/qspi.h ****         };
  81:../../libs/libDaisy/src/per/qspi.h **** 
  82:../../libs/libDaisy/src/per/qspi.h ****         //SCK,  CE# (active low)
  83:../../libs/libDaisy/src/per/qspi.h ****         struct
  84:../../libs/libDaisy/src/per/qspi.h ****         {
  85:../../libs/libDaisy/src/per/qspi.h ****             Pin io0; /**< & */
  86:../../libs/libDaisy/src/per/qspi.h ****             Pin io1; /**< & */
  87:../../libs/libDaisy/src/per/qspi.h ****             Pin io2; /**< & */
  88:../../libs/libDaisy/src/per/qspi.h ****             Pin io3; /**< & */
  89:../../libs/libDaisy/src/per/qspi.h ****             Pin clk; /**< & */
  90:../../libs/libDaisy/src/per/qspi.h ****             Pin ncs; /**< & */
  91:../../libs/libDaisy/src/per/qspi.h ****         } pin_config;
  92:../../libs/libDaisy/src/per/qspi.h **** 
  93:../../libs/libDaisy/src/per/qspi.h ****         Device device;
  94:../../libs/libDaisy/src/per/qspi.h ****         Mode   mode;
  95:../../libs/libDaisy/src/per/qspi.h ****     };
  96:../../libs/libDaisy/src/per/qspi.h **** 
  97:../../libs/libDaisy/src/per/qspi.h ****     /**
  98:../../libs/libDaisy/src/per/qspi.h ****         Initializes QSPI peripheral, and Resets, and prepares memory for access.
  99:../../libs/libDaisy/src/per/qspi.h ****         \param config should be populated with the mode, device and pin_config before calling this 
 100:../../libs/libDaisy/src/per/qspi.h ****         \return Result::OK or Result::ERR
 101:../../libs/libDaisy/src/per/qspi.h ****         */
 102:../../libs/libDaisy/src/per/qspi.h ****     Result Init(const Config& config);
 103:../../libs/libDaisy/src/per/qspi.h **** 
 104:../../libs/libDaisy/src/per/qspi.h ****     /** Returns the current config. */
 105:../../libs/libDaisy/src/per/qspi.h ****     const Config& GetConfig() const;
 106:../../libs/libDaisy/src/per/qspi.h **** 
ARM GAS  C:\Users\skipi\AppData\Local\Temp\cc6ev9XQ.s 			page 91


 107:../../libs/libDaisy/src/per/qspi.h ****     // Couldn't this just be called before anything else in init? That
 108:../../libs/libDaisy/src/per/qspi.h ****     // would make manually calling it unnecessary.
 109:../../libs/libDaisy/src/per/qspi.h ****     /**
 110:../../libs/libDaisy/src/per/qspi.h ****         Deinitializes the peripheral
 111:../../libs/libDaisy/src/per/qspi.h ****         This should be called before reinitializing QSPI in a different mode.
 112:../../libs/libDaisy/src/per/qspi.h ****         \return Result::OK or Result::ERR
 113:../../libs/libDaisy/src/per/qspi.h ****         */
 114:../../libs/libDaisy/src/per/qspi.h ****     Result DeInit();
 115:../../libs/libDaisy/src/per/qspi.h **** 
 116:../../libs/libDaisy/src/per/qspi.h ****     /**
 117:../../libs/libDaisy/src/per/qspi.h ****         Writes a single page to to the specified address on the QSPI chip.
 118:../../libs/libDaisy/src/per/qspi.h ****         For IS25LP*, page size is 256 bytes.
 119:../../libs/libDaisy/src/per/qspi.h ****         \param address Address to write to
 120:../../libs/libDaisy/src/per/qspi.h ****         \param size Buffer size
 121:../../libs/libDaisy/src/per/qspi.h ****         \param buffer Buffer to write
 122:../../libs/libDaisy/src/per/qspi.h ****         \return Result::OK or Result::ERR
 123:../../libs/libDaisy/src/per/qspi.h ****         */
 124:../../libs/libDaisy/src/per/qspi.h ****     Result WritePage(uint32_t address, uint32_t size, uint8_t* buffer);
 125:../../libs/libDaisy/src/per/qspi.h **** 
 126:../../libs/libDaisy/src/per/qspi.h ****     /**
 127:../../libs/libDaisy/src/per/qspi.h ****         Writes data in buffer to to the QSPI. Starting at address to address+size
 128:../../libs/libDaisy/src/per/qspi.h ****         \param address Address to write to
 129:../../libs/libDaisy/src/per/qspi.h ****         \param size Buffer size
 130:../../libs/libDaisy/src/per/qspi.h ****         \param buffer Buffer to write
 131:../../libs/libDaisy/src/per/qspi.h ****         \return Result::OK or Result::ERR
 132:../../libs/libDaisy/src/per/qspi.h ****         */
 133:../../libs/libDaisy/src/per/qspi.h ****     Result Write(uint32_t address, uint32_t size, uint8_t* buffer);
 134:../../libs/libDaisy/src/per/qspi.h **** 
 135:../../libs/libDaisy/src/per/qspi.h ****     /**
 136:../../libs/libDaisy/src/per/qspi.h ****         Erases the area specified on the chip.
 137:../../libs/libDaisy/src/per/qspi.h ****         Erasures will happen by 4K, 32K or 64K increments.
 138:../../libs/libDaisy/src/per/qspi.h ****         Smallest erase possible is 4kB at a time. (on IS25LP*)
 139:../../libs/libDaisy/src/per/qspi.h ****         \param start_addr Address to begin erasing from
 140:../../libs/libDaisy/src/per/qspi.h ****         \param end_addr  Address to stop erasing at
 141:../../libs/libDaisy/src/per/qspi.h ****         \return Result::OK or Result::ERR
 142:../../libs/libDaisy/src/per/qspi.h ****         */
 143:../../libs/libDaisy/src/per/qspi.h ****     Result Erase(uint32_t start_addr, uint32_t end_addr);
 144:../../libs/libDaisy/src/per/qspi.h **** 
 145:../../libs/libDaisy/src/per/qspi.h ****     /**
 146:../../libs/libDaisy/src/per/qspi.h ****          Erases a single sector of the chip.
 147:../../libs/libDaisy/src/per/qspi.h ****         TODO: Document the size of this function.
 148:../../libs/libDaisy/src/per/qspi.h ****         \param address Address of sector to erase
 149:../../libs/libDaisy/src/per/qspi.h ****         \return Result::OK or Result::ERR
 150:../../libs/libDaisy/src/per/qspi.h ****         */
 151:../../libs/libDaisy/src/per/qspi.h ****     Result EraseSector(uint32_t address);
 152:../../libs/libDaisy/src/per/qspi.h **** 
 153:../../libs/libDaisy/src/per/qspi.h ****     /** Returns the current class status. Useful for debugging.
 154:../../libs/libDaisy/src/per/qspi.h ****      *  \returns Status
 155:../../libs/libDaisy/src/per/qspi.h ****      */
 156:../../libs/libDaisy/src/per/qspi.h ****     Status GetStatus();
 157:../../libs/libDaisy/src/per/qspi.h **** 
 158:../../libs/libDaisy/src/per/qspi.h ****     /** Returns a pointer to the actual memory used
 159:../../libs/libDaisy/src/per/qspi.h ****      *  The memory at this address is read-only
 160:../../libs/libDaisy/src/per/qspi.h ****      *  to write to it use the Write function.
 161:../../libs/libDaisy/src/per/qspi.h ****      *
 162:../../libs/libDaisy/src/per/qspi.h ****      *  \param offset returns the pointer starting this
 163:../../libs/libDaisy/src/per/qspi.h ****      *                many bytes into the memory
ARM GAS  C:\Users\skipi\AppData\Local\Temp\cc6ev9XQ.s 			page 92


 164:../../libs/libDaisy/src/per/qspi.h ****     */
 165:../../libs/libDaisy/src/per/qspi.h ****     void* GetData(uint32_t offset = 0);
 166:../../libs/libDaisy/src/per/qspi.h **** 
 167:../../libs/libDaisy/src/per/qspi.h ****     QSPIHandle() : pimpl_(nullptr) {}
 3049              		.loc 14 167 5 view .LVU716
 3050              		.loc 14 167 5 is_stmt 0 view .LVU717
 3051              	.LBE1178:
 3052              	.LBB1181:
 3053              	.LBI1181:
  58:../../libs/libDaisy/src/per/qspi.h ****     {
 3054              		.loc 14 58 12 is_stmt 1 view .LVU718
 3055              	.LBB1182:
 3056              	.LBI1182:
  84:../../libs/libDaisy/src/per/qspi.h ****             Pin io0; /**< & */
 3057              		.loc 14 84 9 view .LVU719
 3058              	.LBB1183:
 3059              	.LBI1183:
 3060              		.loc 12 204 15 view .LVU720
 3061              		.loc 12 204 15 is_stmt 0 view .LVU721
 3062              	.LBE1183:
 3063              	.LBB1184:
 3064              	.LBI1184:
 3065              		.loc 12 204 15 is_stmt 1 view .LVU722
 3066              		.loc 12 204 15 is_stmt 0 view .LVU723
 3067              	.LBE1184:
 3068              	.LBB1185:
 3069              	.LBI1185:
 3070              		.loc 12 204 15 is_stmt 1 view .LVU724
 3071              		.loc 12 204 15 is_stmt 0 view .LVU725
 3072              	.LBE1185:
 3073              	.LBB1186:
 3074              	.LBI1186:
 3075              		.loc 12 204 15 is_stmt 1 view .LVU726
 3076              		.loc 12 204 15 is_stmt 0 view .LVU727
 3077              	.LBE1186:
 3078              	.LBB1187:
 3079              	.LBI1187:
 3080              		.loc 12 204 15 is_stmt 1 view .LVU728
 3081              		.loc 12 204 15 is_stmt 0 view .LVU729
 3082              	.LBE1187:
 3083              	.LBB1188:
 3084              	.LBI1188:
 3085              		.loc 12 204 15 is_stmt 1 view .LVU730
 3086              		.loc 12 204 15 is_stmt 0 view .LVU731
 3087              	.LBE1188:
 3088              	.LBE1182:
 3089              	.LBE1181:
 3090              	.LBB1189:
 3091              	.LBI1189:
  87:../../libs/libDaisy/src/hid/audio.h ****     ~AudioHandle() {}
 3092              		.loc 6 87 5 is_stmt 1 view .LVU732
  87:../../libs/libDaisy/src/hid/audio.h ****     ~AudioHandle() {}
 3093              		.loc 6 87 5 is_stmt 0 view .LVU733
 3094              	.LBE1189:
 3095              	.LBB1192:
 3096              	.LBI1192:
 109:../../libs/libDaisy/src/per/adc.h ****     ~AdcHandle() {}
ARM GAS  C:\Users\skipi\AppData\Local\Temp\cc6ev9XQ.s 			page 93


 3097              		.loc 5 109 5 is_stmt 1 view .LVU734
 109:../../libs/libDaisy/src/per/adc.h ****     ~AdcHandle() {}
 3098              		.loc 5 109 5 is_stmt 0 view .LVU735
 3099              	.LBE1192:
 3100              	.LBB1193:
 3101              	.LBI1193:
 3102              		.file 15 "../../libs/libDaisy/src/per/dac.h"
   1:../../libs/libDaisy/src/per/dac.h **** #pragma once
   2:../../libs/libDaisy/src/per/dac.h **** #ifndef DSY_DAC_H
   3:../../libs/libDaisy/src/per/dac.h **** #define DSY_DAC_H
   4:../../libs/libDaisy/src/per/dac.h **** #include "stm32h7xx_hal.h"
   5:../../libs/libDaisy/src/per/dac.h **** #include "daisy_core.h"
   6:../../libs/libDaisy/src/per/dac.h **** 
   7:../../libs/libDaisy/src/per/dac.h **** namespace daisy
   8:../../libs/libDaisy/src/per/dac.h **** {
   9:../../libs/libDaisy/src/per/dac.h **** /** @brief DAC handle for Built-in DAC Peripheral 
  10:../../libs/libDaisy/src/per/dac.h ****  *  @ingroup per_analog
  11:../../libs/libDaisy/src/per/dac.h ****  ** 
  12:../../libs/libDaisy/src/per/dac.h ****  ** For now only Normal Mode is supported,
  13:../../libs/libDaisy/src/per/dac.h ****  ** Sample and hold mode provides reduced power consumption, but requires a bit more setup.
  14:../../libs/libDaisy/src/per/dac.h ****  **
  15:../../libs/libDaisy/src/per/dac.h ****  ** For now connecting the DAC through other internal peripherals is also not supported.
  16:../../libs/libDaisy/src/per/dac.h ****  **
  17:../../libs/libDaisy/src/per/dac.h ****  ** Since the DAC channels have dedicated pins we don't need to pass in a pin config like with
  18:../../libs/libDaisy/src/per/dac.h ****  ** other modules. However, it is still important to not try to use the DAC pins for anything else.
  19:../../libs/libDaisy/src/per/dac.h ****  ** DAC Channel 1 is on PA4, and DAC Channel 2 is on PA5
  20:../../libs/libDaisy/src/per/dac.h ****  ***/
  21:../../libs/libDaisy/src/per/dac.h **** class DacHandle
  22:../../libs/libDaisy/src/per/dac.h **** {
  23:../../libs/libDaisy/src/per/dac.h ****   public:
  24:../../libs/libDaisy/src/per/dac.h ****     /** Return Values for the DacHandle class */
  25:../../libs/libDaisy/src/per/dac.h ****     enum class Result
  26:../../libs/libDaisy/src/per/dac.h ****     {
  27:../../libs/libDaisy/src/per/dac.h ****         OK,
  28:../../libs/libDaisy/src/per/dac.h ****         ERR,
  29:../../libs/libDaisy/src/per/dac.h ****     };
  30:../../libs/libDaisy/src/per/dac.h **** 
  31:../../libs/libDaisy/src/per/dac.h ****     /** Selects which channel(s) will be configured for use. */
  32:../../libs/libDaisy/src/per/dac.h ****     enum class Channel
  33:../../libs/libDaisy/src/per/dac.h ****     {
  34:../../libs/libDaisy/src/per/dac.h ****         ONE,
  35:../../libs/libDaisy/src/per/dac.h ****         TWO,
  36:../../libs/libDaisy/src/per/dac.h ****         BOTH,
  37:../../libs/libDaisy/src/per/dac.h ****     };
  38:../../libs/libDaisy/src/per/dac.h **** 
  39:../../libs/libDaisy/src/per/dac.h ****     /** Sets the Mode for the DAC channels.
  40:../../libs/libDaisy/src/per/dac.h ****      **
  41:../../libs/libDaisy/src/per/dac.h ****      ** Polling mode uses the blocking mode to transmit a single value at a time.
  42:../../libs/libDaisy/src/per/dac.h ****      **
  43:../../libs/libDaisy/src/per/dac.h ****      ** DMA mode uses a buffer, and periodically transmits it triggering a 
  44:../../libs/libDaisy/src/per/dac.h ****      ** callback to fill the buffer when it is ready for more samples.
  45:../../libs/libDaisy/src/per/dac.h ****      ***/
  46:../../libs/libDaisy/src/per/dac.h ****     enum class Mode
  47:../../libs/libDaisy/src/per/dac.h ****     {
  48:../../libs/libDaisy/src/per/dac.h ****         POLLING,
  49:../../libs/libDaisy/src/per/dac.h ****         DMA,
  50:../../libs/libDaisy/src/per/dac.h ****     };
ARM GAS  C:\Users\skipi\AppData\Local\Temp\cc6ev9XQ.s 			page 94


  51:../../libs/libDaisy/src/per/dac.h **** 
  52:../../libs/libDaisy/src/per/dac.h ****     /** Sets the number of bits per sample transmitted out of the DAC.
  53:../../libs/libDaisy/src/per/dac.h ****      ** The output range will be: 0V - VDDA
  54:../../libs/libDaisy/src/per/dac.h ****      ** The resolution will be roughly: bitdepth / (VDDA - 0V) 
  55:../../libs/libDaisy/src/per/dac.h ****      ***/
  56:../../libs/libDaisy/src/per/dac.h ****     enum class BitDepth
  57:../../libs/libDaisy/src/per/dac.h ****     {
  58:../../libs/libDaisy/src/per/dac.h ****         BITS_8,
  59:../../libs/libDaisy/src/per/dac.h ****         BITS_12
  60:../../libs/libDaisy/src/per/dac.h ****     };
  61:../../libs/libDaisy/src/per/dac.h **** 
  62:../../libs/libDaisy/src/per/dac.h ****     /** Sets whether the DAC output is buffered for higher drive ability. */
  63:../../libs/libDaisy/src/per/dac.h ****     enum class BufferState
  64:../../libs/libDaisy/src/per/dac.h ****     {
  65:../../libs/libDaisy/src/per/dac.h ****         ENABLED,
  66:../../libs/libDaisy/src/per/dac.h ****         DISABLED,
  67:../../libs/libDaisy/src/per/dac.h ****     };
  68:../../libs/libDaisy/src/per/dac.h **** 
  69:../../libs/libDaisy/src/per/dac.h ****     /** Configuration structure for initializing the DAC structure. */
  70:../../libs/libDaisy/src/per/dac.h ****     struct Config
  71:../../libs/libDaisy/src/per/dac.h ****     {
  72:../../libs/libDaisy/src/per/dac.h ****         /** Target Samplerate in Hz used to configure the internal 
  73:../../libs/libDaisy/src/per/dac.h ****          ** timebase for DMA mode. Does nothing in POLLING mode.
  74:../../libs/libDaisy/src/per/dac.h ****          ** If the value is 0 at Init time this will default to 48000Hz 
  75:../../libs/libDaisy/src/per/dac.h ****          ** otherwise the driver will attempt meet the target.*/
  76:../../libs/libDaisy/src/per/dac.h ****         uint32_t target_samplerate;
  77:../../libs/libDaisy/src/per/dac.h **** 
  78:../../libs/libDaisy/src/per/dac.h ****         Channel     chn;
  79:../../libs/libDaisy/src/per/dac.h ****         Mode        mode;
  80:../../libs/libDaisy/src/per/dac.h ****         BitDepth    bitdepth;
  81:../../libs/libDaisy/src/per/dac.h ****         BufferState buff_state;
  82:../../libs/libDaisy/src/per/dac.h ****     };
  83:../../libs/libDaisy/src/per/dac.h **** 
  84:../../libs/libDaisy/src/per/dac.h ****     DacHandle() : pimpl_(nullptr) {}
 3103              		.loc 15 84 5 is_stmt 1 view .LVU736
 3104              		.loc 15 84 5 is_stmt 0 view .LVU737
 3105              	.LBE1193:
 3106              	.LBB1196:
 3107              	.LBI1196:
  40:../../libs/libDaisy/src/hid/usb.h **** 
 3108              		.loc 4 40 5 is_stmt 1 view .LVU738
  40:../../libs/libDaisy/src/hid/usb.h **** 
 3109              		.loc 4 40 5 is_stmt 0 view .LVU739
 3110              	.LBE1196:
 3111              	.LBB1197:
 3112              	.LBI1197:
 3113              		.file 16 "../../libs/libDaisy/src/per/gpio.h"
   1:../../libs/libDaisy/src/per/gpio.h **** #pragma once
   2:../../libs/libDaisy/src/per/gpio.h **** #ifndef DSY_GPIO_H
   3:../../libs/libDaisy/src/per/gpio.h **** #define DSY_GPIO_H
   4:../../libs/libDaisy/src/per/gpio.h **** #include "daisy_core.h"
   5:../../libs/libDaisy/src/per/gpio.h **** 
   6:../../libs/libDaisy/src/per/gpio.h **** #ifdef __cplusplus
   7:../../libs/libDaisy/src/per/gpio.h **** 
   8:../../libs/libDaisy/src/per/gpio.h **** namespace daisy
   9:../../libs/libDaisy/src/per/gpio.h **** {
  10:../../libs/libDaisy/src/per/gpio.h **** /** @brief General Purpose I/O control 
ARM GAS  C:\Users\skipi\AppData\Local\Temp\cc6ev9XQ.s 			page 95


  11:../../libs/libDaisy/src/per/gpio.h ****  *  @details peripheral control over a single GPIO
  12:../../libs/libDaisy/src/per/gpio.h ****  *  @ingroup peripheral
  13:../../libs/libDaisy/src/per/gpio.h ****  *   
  14:../../libs/libDaisy/src/per/gpio.h ****  *  Button Input (with internal Pullup resistor)
  15:../../libs/libDaisy/src/per/gpio.h ****  *  @include GPIO_Input.cpp 
  16:../../libs/libDaisy/src/per/gpio.h ****  * 
  17:../../libs/libDaisy/src/per/gpio.h ****  *  Output Example (perfect for blinking an LED)
  18:../../libs/libDaisy/src/per/gpio.h ****  *  @include GPIO_Output.cpp
  19:../../libs/libDaisy/src/per/gpio.h ****  * 
  20:../../libs/libDaisy/src/per/gpio.h **** */
  21:../../libs/libDaisy/src/per/gpio.h **** class GPIO
  22:../../libs/libDaisy/src/per/gpio.h **** {
  23:../../libs/libDaisy/src/per/gpio.h ****   public:
  24:../../libs/libDaisy/src/per/gpio.h ****     /** @brief Mode of operation for the specified GPIO */
  25:../../libs/libDaisy/src/per/gpio.h ****     enum class Mode
  26:../../libs/libDaisy/src/per/gpio.h ****     {
  27:../../libs/libDaisy/src/per/gpio.h ****         INPUT,      /**< Input for reading state of pin */
  28:../../libs/libDaisy/src/per/gpio.h ****         OUTPUT,     /**< Output w/ push-pull configuration */
  29:../../libs/libDaisy/src/per/gpio.h ****         OPEN_DRAIN, /**< Output w/ open-drain configuration */
  30:../../libs/libDaisy/src/per/gpio.h ****         ANALOG,     /**< Analog for connection to ADC or DAC peripheral */
  31:../../libs/libDaisy/src/per/gpio.h ****     };
  32:../../libs/libDaisy/src/per/gpio.h **** 
  33:../../libs/libDaisy/src/per/gpio.h ****     /** @brief Configures whether an internal Pull up or Pull down resistor is used. 
  34:../../libs/libDaisy/src/per/gpio.h ****      *  
  35:../../libs/libDaisy/src/per/gpio.h ****      * Internal Pull up/down resistors are typically 40k ohms, and will be between
  36:../../libs/libDaisy/src/per/gpio.h ****      * 30k and 50k
  37:../../libs/libDaisy/src/per/gpio.h ****      * 
  38:../../libs/libDaisy/src/per/gpio.h ****      * When the Pin is configured in Analog mode, the pull up/down resistors are
  39:../../libs/libDaisy/src/per/gpio.h ****      * disabled by hardware. 
  40:../../libs/libDaisy/src/per/gpio.h ****      */
  41:../../libs/libDaisy/src/per/gpio.h ****     enum class Pull
  42:../../libs/libDaisy/src/per/gpio.h ****     {
  43:../../libs/libDaisy/src/per/gpio.h ****         NOPULL,   /**< No pull up resistor */
  44:../../libs/libDaisy/src/per/gpio.h ****         PULLUP,   /**< Internal pull up enabled */
  45:../../libs/libDaisy/src/per/gpio.h ****         PULLDOWN, /**< Internal pull down enabled*/
  46:../../libs/libDaisy/src/per/gpio.h ****     };
  47:../../libs/libDaisy/src/per/gpio.h **** 
  48:../../libs/libDaisy/src/per/gpio.h ****     /** @brief Output speed controls the drive strength, and slew rate of the pin */
  49:../../libs/libDaisy/src/per/gpio.h ****     enum class Speed
  50:../../libs/libDaisy/src/per/gpio.h ****     {
  51:../../libs/libDaisy/src/per/gpio.h ****         LOW,
  52:../../libs/libDaisy/src/per/gpio.h ****         MEDIUM,
  53:../../libs/libDaisy/src/per/gpio.h ****         HIGH,
  54:../../libs/libDaisy/src/per/gpio.h ****         VERY_HIGH,
  55:../../libs/libDaisy/src/per/gpio.h ****     };
  56:../../libs/libDaisy/src/per/gpio.h **** 
  57:../../libs/libDaisy/src/per/gpio.h ****     /** @brief Configuration for a given GPIO */
  58:../../libs/libDaisy/src/per/gpio.h ****     struct Config
  59:../../libs/libDaisy/src/per/gpio.h ****     {
  60:../../libs/libDaisy/src/per/gpio.h ****         Pin   pin;
  61:../../libs/libDaisy/src/per/gpio.h ****         Mode  mode;
  62:../../libs/libDaisy/src/per/gpio.h ****         Pull  pull;
  63:../../libs/libDaisy/src/per/gpio.h ****         Speed speed;
  64:../../libs/libDaisy/src/per/gpio.h **** 
  65:../../libs/libDaisy/src/per/gpio.h ****         /** Constructor with no arguments will prepare an invalid GPIO set as
  66:../../libs/libDaisy/src/per/gpio.h ****          *  an input, with no pullup. 
  67:../../libs/libDaisy/src/per/gpio.h ****          */
ARM GAS  C:\Users\skipi\AppData\Local\Temp\cc6ev9XQ.s 			page 96


  68:../../libs/libDaisy/src/per/gpio.h ****         Config()
  69:../../libs/libDaisy/src/per/gpio.h ****         : pin(), mode(Mode::INPUT), pull(Pull::NOPULL), speed(Speed::LOW)
  70:../../libs/libDaisy/src/per/gpio.h ****         {
  71:../../libs/libDaisy/src/per/gpio.h ****         }
  72:../../libs/libDaisy/src/per/gpio.h ****     };
  73:../../libs/libDaisy/src/per/gpio.h **** 
  74:../../libs/libDaisy/src/per/gpio.h ****     GPIO() {}
 3114              		.loc 16 74 5 is_stmt 1 view .LVU740
 3115              	.LBB1198:
 3116              	.LBB1199:
 3117              	.LBI1199:
  68:../../libs/libDaisy/src/per/gpio.h ****         : pin(), mode(Mode::INPUT), pull(Pull::NOPULL), speed(Speed::LOW)
 3118              		.loc 16 68 9 view .LVU741
 3119              	.LBB1200:
 3120              	.LBB1201:
 3121              	.LBB1202:
 3122              	.LBI1202:
 3123              		.loc 12 204 15 view .LVU742
 3124              		.loc 12 204 15 is_stmt 0 view .LVU743
 3125              	.LBE1202:
 3126              	.LBE1201:
 3127              	.LBE1200:
 3128              	.LBE1199:
 3129              	.LBE1198:
 3130              	.LBE1197:
 3131              	.LBB1211:
 3132              	.LBI1211:
 3133              		.loc 16 74 5 is_stmt 1 view .LVU744
 3134              	.LBB1212:
 3135              	.LBB1213:
 3136              	.LBI1213:
  68:../../libs/libDaisy/src/per/gpio.h ****         : pin(), mode(Mode::INPUT), pull(Pull::NOPULL), speed(Speed::LOW)
 3137              		.loc 16 68 9 view .LVU745
 3138              	.LBB1214:
 3139              	.LBB1215:
 3140              	.LBB1216:
 3141              	.LBI1216:
 3142              		.loc 12 204 15 view .LVU746
 3143              		.loc 12 204 15 is_stmt 0 view .LVU747
 3144              	.LBE1216:
 3145              	.LBE1215:
 3146              	.LBE1214:
 3147              	.LBE1213:
 3148              	.LBE1212:
 3149              	.LBE1211:
 3150              	.LBB1221:
 3151              	.LBI1221:
  96:../../libs/libDaisy/src/sys/system.h ****     ~System() {}
 3152              		.loc 3 96 5 is_stmt 1 view .LVU748
  96:../../libs/libDaisy/src/sys/system.h ****     ~System() {}
 3153              		.loc 3 96 5 is_stmt 0 view .LVU749
 3154              	.LBE1221:
 3155              	.LBB1222:
 3156              	.LBI1222:
  20:../../libs/libDaisy/src/dev/codec_ak4556.h ****     ~Ak4556() {}
 3157              		.loc 2 20 5 is_stmt 1 view .LVU750
 3158              	.LBB1223:
ARM GAS  C:\Users\skipi\AppData\Local\Temp\cc6ev9XQ.s 			page 97


 3159              	.LBI1223:
 3160              		.loc 16 74 5 view .LVU751
 3161              	.LBB1224:
 3162              	.LBB1225:
 3163              	.LBI1225:
  68:../../libs/libDaisy/src/per/gpio.h ****         : pin(), mode(Mode::INPUT), pull(Pull::NOPULL), speed(Speed::LOW)
 3164              		.loc 16 68 9 view .LVU752
 3165              	.LBB1226:
 3166              	.LBB1227:
 3167              	.LBB1228:
 3168              	.LBI1228:
 3169              		.loc 12 204 15 view .LVU753
 3170              		.loc 12 204 15 is_stmt 0 view .LVU754
 3171              	.LBE1228:
 3172              	.LBE1227:
 3173              	.LBE1226:
 3174              	.LBE1225:
 3175              	.LBE1224:
 3176              	.LBE1223:
 3177              	.LBE1222:
 3178              	.LBB1239:
 3179              	.LBI1239:
 3180              		.file 17 "../../libs/libDaisy/src/per/sai.h"
   1:../../libs/libDaisy/src/per/sai.h **** #pragma once
   2:../../libs/libDaisy/src/per/sai.h **** #ifndef DSY_SAI_H
   3:../../libs/libDaisy/src/per/sai.h **** #define DSY_SAI_H
   4:../../libs/libDaisy/src/per/sai.h **** 
   5:../../libs/libDaisy/src/per/sai.h **** #include "util/hal_map.h"
   6:../../libs/libDaisy/src/per/sai.h **** #include "daisy_core.h"
   7:../../libs/libDaisy/src/per/sai.h **** 
   8:../../libs/libDaisy/src/per/sai.h **** namespace daisy
   9:../../libs/libDaisy/src/per/sai.h **** {
  10:../../libs/libDaisy/src/per/sai.h **** /** 
  11:../../libs/libDaisy/src/per/sai.h ****  * Support for I2S Audio Protocol with different bit-depth, samplerate options
  12:../../libs/libDaisy/src/per/sai.h ****  * Allows for master or slave, as well as freedom of selecting direction, 
  13:../../libs/libDaisy/src/per/sai.h ****  * and other behavior for each peripheral, and block.
  14:../../libs/libDaisy/src/per/sai.h ****  * 
  15:../../libs/libDaisy/src/per/sai.h ****  * DMA Transfer commands must use buffers located within non-cached memory or use cache maintenance
  16:../../libs/libDaisy/src/per/sai.h ****  * To declare an unitialized global element in the DMA memory section:
  17:../../libs/libDaisy/src/per/sai.h ****  *    int32_t DSY_DMA_BUFFER_SECTOR my_buffer[96];
  18:../../libs/libDaisy/src/per/sai.h ****  *
  19:../../libs/libDaisy/src/per/sai.h ****  * Callback functions will be called once per half of the buffer. In the above example, 
  20:../../libs/libDaisy/src/per/sai.h ****  * the callback function would be called once for every 48 samples.
  21:../../libs/libDaisy/src/per/sai.h ****  * 
  22:../../libs/libDaisy/src/per/sai.h ****  * Use SAI Handle like this:
  23:../../libs/libDaisy/src/per/sai.h ****  * 
  24:../../libs/libDaisy/src/per/sai.h ****  *  SaiHandle::Config sai_config;
  25:../../libs/libDaisy/src/per/sai.h ****  *  sai_config.periph          = SaiHandle::Config::Peripheral::SAI_1;
  26:../../libs/libDaisy/src/per/sai.h ****  *  sai_config.sr              = SaiHandle::Config::SampleRate::SAI_48KHZ;
  27:../../libs/libDaisy/src/per/sai.h ****  *  sai_config.bit_depth       = SaiHandle::Config::BitDepth::SAI_24BIT;
  28:../../libs/libDaisy/src/per/sai.h ****  *  sai_config.a_sync          = SaiHandle::Config::Sync::MASTER;
  29:../../libs/libDaisy/src/per/sai.h ****  *  sai_config.b_sync          = SaiHandle::Config::Sync::SLAVE;
  30:../../libs/libDaisy/src/per/sai.h ****  *  sai_config.a_dir           = SaiHandle::Config::Direction::RECEIVE;
  31:../../libs/libDaisy/src/per/sai.h ****  *  sai_config.b_dir           = SaiHandle::Config::Direction::TRANSMIT;
  32:../../libs/libDaisy/src/per/sai.h ****  *  sai_config.pin_config.fs   = {DSY_GPIOE, 4};
  33:../../libs/libDaisy/src/per/sai.h ****  *  sai_config.pin_config.mclk = {DSY_GPIOE, 2};
  34:../../libs/libDaisy/src/per/sai.h ****  *  sai_config.pin_config.sck  = {DSY_GPIOE, 5};
ARM GAS  C:\Users\skipi\AppData\Local\Temp\cc6ev9XQ.s 			page 98


  35:../../libs/libDaisy/src/per/sai.h ****  *  sai_config.pin_config.sa   = {DSY_GPIOE, 6};
  36:../../libs/libDaisy/src/per/sai.h ****  *  sai_config.pin_config.sb   = {DSY_GPIOE, 3};
  37:../../libs/libDaisy/src/per/sai.h ****  *  // Then Initialize
  38:../../libs/libDaisy/src/per/sai.h ****  *  SaiHandle sai;
  39:../../libs/libDaisy/src/per/sai.h ****  *  sai.Init(sai_config);
  40:../../libs/libDaisy/src/per/sai.h ****  *  // Now you can use it:
  41:../../libs/libDaisy/src/per/sai.h ****  *  sai.StartDma(. . .);
  42:../../libs/libDaisy/src/per/sai.h ****  */
  43:../../libs/libDaisy/src/per/sai.h **** class SaiHandle
  44:../../libs/libDaisy/src/per/sai.h **** {
  45:../../libs/libDaisy/src/per/sai.h ****   public:
  46:../../libs/libDaisy/src/per/sai.h ****     /** Contains settings for initialising an SAI Interface */
  47:../../libs/libDaisy/src/per/sai.h ****     struct Config
  48:../../libs/libDaisy/src/per/sai.h ****     {
  49:../../libs/libDaisy/src/per/sai.h ****         /** Specifies the internal peripheral to use (mapped to different hardware pins) */
  50:../../libs/libDaisy/src/per/sai.h ****         enum class Peripheral
  51:../../libs/libDaisy/src/per/sai.h ****         {
  52:../../libs/libDaisy/src/per/sai.h ****             SAI_1,
  53:../../libs/libDaisy/src/per/sai.h ****             SAI_2,
  54:../../libs/libDaisy/src/per/sai.h ****         };
  55:../../libs/libDaisy/src/per/sai.h **** 
  56:../../libs/libDaisy/src/per/sai.h ****         /** Rate at which samples will be streaming to/from the device. */
  57:../../libs/libDaisy/src/per/sai.h ****         enum class SampleRate
  58:../../libs/libDaisy/src/per/sai.h ****         {
  59:../../libs/libDaisy/src/per/sai.h ****             SAI_8KHZ,
  60:../../libs/libDaisy/src/per/sai.h ****             SAI_16KHZ,
  61:../../libs/libDaisy/src/per/sai.h ****             SAI_32KHZ,
  62:../../libs/libDaisy/src/per/sai.h ****             SAI_48KHZ,
  63:../../libs/libDaisy/src/per/sai.h ****             SAI_96KHZ,
  64:../../libs/libDaisy/src/per/sai.h ****         };
  65:../../libs/libDaisy/src/per/sai.h **** 
  66:../../libs/libDaisy/src/per/sai.h ****         /** Bit Depth that the hardware expects to be transferred to/from the device. */
  67:../../libs/libDaisy/src/per/sai.h ****         enum class BitDepth
  68:../../libs/libDaisy/src/per/sai.h ****         {
  69:../../libs/libDaisy/src/per/sai.h ****             SAI_16BIT,
  70:../../libs/libDaisy/src/per/sai.h ****             SAI_24BIT,
  71:../../libs/libDaisy/src/per/sai.h ****             SAI_32BIT,
  72:../../libs/libDaisy/src/per/sai.h ****         };
  73:../../libs/libDaisy/src/per/sai.h **** 
  74:../../libs/libDaisy/src/per/sai.h ****         /** Specifies whether a particular block is the master or the slave 
  75:../../libs/libDaisy/src/per/sai.h ****          ** If both are set to slave, no MCLK signal will be used, and it is
  76:../../libs/libDaisy/src/per/sai.h ****          ** expected that the codec will have its own xtal.
  77:../../libs/libDaisy/src/per/sai.h ****          */
  78:../../libs/libDaisy/src/per/sai.h ****         enum class Sync
  79:../../libs/libDaisy/src/per/sai.h ****         {
  80:../../libs/libDaisy/src/per/sai.h ****             MASTER,
  81:../../libs/libDaisy/src/per/sai.h ****             SLAVE,
  82:../../libs/libDaisy/src/per/sai.h ****         };
  83:../../libs/libDaisy/src/per/sai.h **** 
  84:../../libs/libDaisy/src/per/sai.h ****         /** Specifies the direction for each peripheral block. */
  85:../../libs/libDaisy/src/per/sai.h ****         enum class Direction
  86:../../libs/libDaisy/src/per/sai.h ****         {
  87:../../libs/libDaisy/src/per/sai.h ****             TRANSMIT,
  88:../../libs/libDaisy/src/per/sai.h ****             RECEIVE,
  89:../../libs/libDaisy/src/per/sai.h ****         };
  90:../../libs/libDaisy/src/per/sai.h **** 
  91:../../libs/libDaisy/src/per/sai.h ****         Peripheral periph;
ARM GAS  C:\Users\skipi\AppData\Local\Temp\cc6ev9XQ.s 			page 99


  92:../../libs/libDaisy/src/per/sai.h ****         struct
  93:../../libs/libDaisy/src/per/sai.h ****         {
  94:../../libs/libDaisy/src/per/sai.h ****             Pin mclk, fs, sck, sa, sb;
  95:../../libs/libDaisy/src/per/sai.h ****         } pin_config;
  96:../../libs/libDaisy/src/per/sai.h ****         SampleRate sr;
  97:../../libs/libDaisy/src/per/sai.h ****         BitDepth   bit_depth;
  98:../../libs/libDaisy/src/per/sai.h ****         Sync       a_sync, b_sync;
  99:../../libs/libDaisy/src/per/sai.h ****         Direction  a_dir, b_dir;
 100:../../libs/libDaisy/src/per/sai.h ****     };
 101:../../libs/libDaisy/src/per/sai.h **** 
 102:../../libs/libDaisy/src/per/sai.h ****     /** Return values for SAI functions */
 103:../../libs/libDaisy/src/per/sai.h ****     enum class Result
 104:../../libs/libDaisy/src/per/sai.h ****     {
 105:../../libs/libDaisy/src/per/sai.h ****         OK,
 106:../../libs/libDaisy/src/per/sai.h ****         ERR,
 107:../../libs/libDaisy/src/per/sai.h ****     };
 108:../../libs/libDaisy/src/per/sai.h **** 
 109:../../libs/libDaisy/src/per/sai.h ****     SaiHandle() : pimpl_(nullptr) {}
 3181              		.loc 17 109 5 is_stmt 1 view .LVU755
 3182              	.LBE1239:
 3183              	.LBB1242:
 3184              	.LBB1179:
 3185              	.LBB1180:
 3186              		.loc 14 167 34 is_stmt 0 view .LVU756
 3187 0038 3348     		ldr	r0, .L52+20
 3188              	.LBE1180:
 3189              	.LBE1179:
 3190              	.LBE1242:
  21:../../libs/libDaisy/src/daisy_seed.h ****     ~DaisySeed() {}
 3191              		.loc 1 21 17 view .LVU757
 3192 003a 4FF60B73 		movw	r3, #65291
 3193 003e 6FF0F411 		mvn	r1, #15991028
 3194              	.LBE1177:
 3195              	.LBE1176:
  24:main.cpp      **** DaisySeed hw;
 3196              		.loc 10 24 11 view .LVU758
 3197 0042 2F4A     		ldr	r2, .L52+12
 3198              	.LBB1253:
 3199              	.LBB1251:
 3200              	.LBB1243:
 3201              	.LBB1190:
 3202              	.LBB1191:
  87:../../libs/libDaisy/src/hid/audio.h ****     ~AudioHandle() {}
 3203              		.loc 6 87 35 view .LVU759
 3204 0044 4461     		str	r4, [r0, #20]
 3205              	.LBE1191:
 3206              	.LBE1190:
 3207              	.LBE1243:
 3208              	.LBB1244:
 3209              	.LBB1194:
 3210              	.LBB1195:
 3211              		.loc 15 84 33 view .LVU760
 3212 0046 0462     		str	r4, [r0, #32]
 3213              	.LBE1195:
 3214              	.LBE1194:
 3215              	.LBE1244:
  21:../../libs/libDaisy/src/daisy_seed.h ****     ~DaisySeed() {}
ARM GAS  C:\Users\skipi\AppData\Local\Temp\cc6ev9XQ.s 			page 100


 3216              		.loc 1 21 17 view .LVU761
 3217 0048 8365     		str	r3, [r0, #88]
 3218              	.LBB1245:
 3219              	.LBB1237:
 3220              	.LBB1235:
 3221              	.LBB1233:
 3222              	.LBB1231:
 3223              	.LBB1229:
  69:../../libs/libDaisy/src/per/gpio.h ****         {
 3224              		.loc 16 69 73 view .LVU762
 3225 004a 4466     		str	r4, [r0, #100]
 3226              	.LBE1229:
 3227              	.LBE1231:
 3228              	.LBE1233:
 3229              	.LBE1235:
 3230              	.LBE1237:
 3231              	.LBE1245:
 3232              	.LBB1246:
 3233              	.LBB1240:
 3234              	.LBB1241:
 3235              		.loc 17 109 33 view .LVU763
 3236 004c 0467     		str	r4, [r0, #112]
 3237              	.LVL176:
 3238              		.loc 17 109 33 view .LVU764
 3239              	.LBE1241:
 3240              	.LBE1240:
 3241              	.LBE1246:
  21:../../libs/libDaisy/src/daisy_seed.h ****     ~DaisySeed() {}
 3242              		.loc 1 21 17 view .LVU765
 3243 004e C0E90041 		strd	r4, r1, [r0]
 3244 0052 C0E90211 		strd	r1, r1, [r0, #8]
 3245              	.LBB1247:
 3246              	.LBB1209:
 3247              	.LBB1207:
 3248              	.LBB1205:
 3249              	.LBB1203:
  69:../../libs/libDaisy/src/per/gpio.h ****         {
 3250              		.loc 16 69 73 view .LVU766
 3251 0056 C0E90A34 		strd	r3, r4, [r0, #40]
 3252              	.LBE1203:
 3253              	.LBE1205:
 3254              	.LBE1207:
 3255              	.LBE1209:
 3256              	.LBE1247:
 3257              	.LBE1251:
 3258              	.LBE1253:
  24:main.cpp      **** DaisySeed hw;
 3259              		.loc 10 24 11 view .LVU767
 3260 005a 2C49     		ldr	r1, .L52+24
 3261              	.LBB1254:
 3262              	.LBB1252:
 3263              	.LBB1248:
 3264              	.LBB1210:
 3265              	.LBB1208:
 3266              	.LBB1206:
 3267              	.LBB1204:
  69:../../libs/libDaisy/src/per/gpio.h ****         {
ARM GAS  C:\Users\skipi\AppData\Local\Temp\cc6ev9XQ.s 			page 101


 3268              		.loc 16 69 73 view .LVU768
 3269 005c C0E90C44 		strd	r4, r4, [r0, #48]
 3270              	.LBE1204:
 3271              	.LBE1206:
 3272              	.LBE1208:
 3273              	.LBE1210:
 3274              	.LBE1248:
 3275              	.LBB1249:
 3276              	.LBB1220:
 3277              	.LBB1219:
 3278              	.LBB1218:
 3279              	.LBB1217:
 3280 0060 C0E90F34 		strd	r3, r4, [r0, #60]
 3281 0064 C0E91144 		strd	r4, r4, [r0, #68]
 3282              	.LBE1217:
 3283              	.LBE1218:
 3284              	.LBE1219:
 3285              	.LBE1220:
 3286              	.LBE1249:
 3287              	.LBB1250:
 3288              	.LBB1238:
 3289              	.LBB1236:
 3290              	.LBB1234:
 3291              	.LBB1232:
 3292              	.LBB1230:
 3293 0068 C0E91744 		strd	r4, r4, [r0, #92]
 3294              	.LBE1230:
 3295              	.LBE1232:
 3296              	.LBE1234:
 3297              	.LBE1236:
 3298              	.LBE1238:
 3299              	.LBE1250:
 3300              	.LBE1252:
 3301              	.LBE1254:
  24:main.cpp      **** DaisySeed hw;
 3302              		.loc 10 24 11 view .LVU769
 3303 006c FFF7FEFF 		bl	__aeabi_atexit
 3304              	.LVL177:
  25:main.cpp      **** AdcChannelConfig adcConfig[ADC_CH];
 3305              		.loc 10 25 34 is_stmt 1 view .LVU770
 3306 0070 274A     		ldr	r2, .L52+28
 3307 0072 02F1A805 		add	r5, r2, #168
 3308              	.L48:
 3309              	.LVL178:
 3310              	.LBB1255:
 3311              	.LBI1255:
  31:../../libs/libDaisy/src/per/adc.h **** {
 3312              		.loc 5 31 8 view .LVU771
 3313              	.LBB1256:
 3314              	.LBB1257:
 3315              	.LBI1257:
 3316              		.loc 16 74 5 view .LVU772
 3317              	.LBB1258:
 3318              	.LBI1258:
  68:../../libs/libDaisy/src/per/gpio.h ****         : pin(), mode(Mode::INPUT), pull(Pull::NOPULL), speed(Speed::LOW)
 3319              		.loc 16 68 9 view .LVU773
 3320              	.LBB1259:
ARM GAS  C:\Users\skipi\AppData\Local\Temp\cc6ev9XQ.s 			page 102


 3321              	.LBB1260:
 3322              	.LBI1260:
 3323              		.loc 12 204 15 view .LVU774
 3324              	.LBE1260:
  69:../../libs/libDaisy/src/per/gpio.h ****         {
 3325              		.loc 16 69 73 is_stmt 0 view .LVU775
 3326 0076 0021     		movs	r1, #0
 3327              	.LBB1263:
 3328              	.LBB1261:
 3329              		.loc 12 204 43 view .LVU776
 3330 0078 0B24     		movs	r4, #11
 3331 007a FF20     		movs	r0, #255
 3332 007c A2F13C03 		sub	r3, r2, #60
 3333 0080 02F8504C 		strb	r4, [r2, #-80]
 3334              	.LBE1261:
 3335              	.LBE1263:
  69:../../libs/libDaisy/src/per/gpio.h ****         {
 3336              		.loc 16 69 73 view .LVU777
 3337 0084 42F84C1C 		str	r1, [r2, #-76]
 3338              	.LBB1264:
 3339              	.LBB1262:
 3340              		.loc 12 204 43 view .LVU778
 3341 0088 02F84F0C 		strb	r0, [r2, #-79]
 3342              	.LVL179:
 3343              		.loc 12 204 43 view .LVU779
 3344              	.LBE1262:
 3345              	.LBE1264:
  69:../../libs/libDaisy/src/per/gpio.h ****         {
 3346              		.loc 16 69 73 view .LVU780
 3347 008c 42E91211 		strd	r1, r1, [r2, #-72]
 3348              	.LVL180:
  69:../../libs/libDaisy/src/per/gpio.h ****         {
 3349              		.loc 16 69 73 view .LVU781
 3350              	.LBE1259:
 3351              	.LBE1258:
 3352              	.LBE1257:
  31:../../libs/libDaisy/src/per/adc.h **** {
 3353              		.loc 5 31 8 is_stmt 1 view .LVU782
 3354              	.L47:
 3355              	.LBB1265:
 3356              	.LBI1265:
 3357              		.loc 16 74 5 view .LVU783
 3358              	.LBB1266:
 3359              	.LBI1266:
  68:../../libs/libDaisy/src/per/gpio.h ****         : pin(), mode(Mode::INPUT), pull(Pull::NOPULL), speed(Speed::LOW)
 3360              		.loc 16 68 9 view .LVU784
 3361              	.LBB1267:
 3362              	.LBB1268:
 3363              	.LBI1268:
 3364              		.loc 12 204 15 view .LVU785
 3365              	.LBE1268:
 3366              	.LBE1267:
 3367              	.LBE1266:
 3368              	.LBE1265:
  31:../../libs/libDaisy/src/per/adc.h **** {
 3369              		.loc 5 31 8 is_stmt 0 view .LVU786
 3370 0090 1433     		adds	r3, r3, #20
ARM GAS  C:\Users\skipi\AppData\Local\Temp\cc6ev9XQ.s 			page 103


 3371              	.LVL181:
 3372              	.LBB1277:
 3373              	.LBB1275:
 3374              	.LBB1273:
  69:../../libs/libDaisy/src/per/gpio.h ****         {
 3375              		.loc 16 69 73 view .LVU787
 3376 0092 0024     		movs	r4, #0
 3377              	.LBB1271:
 3378              	.LBB1269:
 3379              		.loc 12 204 43 view .LVU788
 3380 0094 0B20     		movs	r0, #11
 3381 0096 FF21     		movs	r1, #255
 3382              	.LBE1269:
 3383              	.LBE1271:
 3384              	.LBE1273:
 3385              	.LBE1275:
 3386              	.LBE1277:
  31:../../libs/libDaisy/src/per/adc.h **** {
 3387              		.loc 5 31 8 view .LVU789
 3388 0098 9A42     		cmp	r2, r3
 3389              	.LBB1278:
 3390              	.LBB1276:
 3391              	.LBB1274:
  69:../../libs/libDaisy/src/per/gpio.h ****         {
 3392              		.loc 16 69 73 view .LVU790
 3393 009a 43F8104C 		str	r4, [r3, #-16]
 3394              	.LBB1272:
 3395              	.LBB1270:
 3396              		.loc 12 204 43 view .LVU791
 3397 009e 03F8140C 		strb	r0, [r3, #-20]
 3398 00a2 03F8131C 		strb	r1, [r3, #-19]
 3399              	.LVL182:
 3400              		.loc 12 204 43 view .LVU792
 3401              	.LBE1270:
 3402              	.LBE1272:
  69:../../libs/libDaisy/src/per/gpio.h ****         {
 3403              		.loc 16 69 73 view .LVU793
 3404 00a6 43E90344 		strd	r4, r4, [r3, #-12]
 3405              	.LVL183:
  69:../../libs/libDaisy/src/per/gpio.h ****         {
 3406              		.loc 16 69 73 view .LVU794
 3407              	.LBE1274:
 3408              	.LBE1276:
 3409              	.LBE1278:
  31:../../libs/libDaisy/src/per/adc.h **** {
 3410              		.loc 5 31 8 is_stmt 1 view .LVU795
  31:../../libs/libDaisy/src/per/adc.h **** {
 3411              		.loc 5 31 8 view .LVU796
 3412 00aa F1D1     		bne	.L47
 3413              	.LVL184:
  31:../../libs/libDaisy/src/per/adc.h **** {
 3414              		.loc 5 31 8 is_stmt 0 view .LVU797
 3415              	.LBE1256:
 3416              	.LBE1255:
  25:main.cpp      **** AdcChannelConfig adcConfig[ADC_CH];
 3417              		.loc 10 25 34 is_stmt 1 view .LVU798
  25:main.cpp      **** AdcChannelConfig adcConfig[ADC_CH];
ARM GAS  C:\Users\skipi\AppData\Local\Temp\cc6ev9XQ.s 			page 104


 3418              		.loc 10 25 34 view .LVU799
 3419 00ac 5432     		adds	r2, r2, #84
 3420 00ae AA42     		cmp	r2, r5
 3421 00b0 E1D1     		bne	.L48
  26:main.cpp      **** PlantConditioner pc;
 3422              		.loc 10 26 18 is_stmt 0 view .LVU800
 3423 00b2 1848     		ldr	r0, .L52+32
 3424 00b4 FFF7FEFF 		bl	_ZN16PlantConditionerC1Ev
 3425              	.LVL185:
 3426 00b8 114A     		ldr	r2, .L52+12
 3427 00ba 1749     		ldr	r1, .L52+36
 3428 00bc 1548     		ldr	r0, .L52+32
 3429 00be FFF7FEFF 		bl	__aeabi_atexit
 3430              	.LVL186:
 3431              	.LBB1279:
 3432              	.LBI1279:
  23:../../libs/DaisySP/Source/Synthesis/oscillator.h ****     ~Oscillator() {}
 3433              		.loc 8 23 5 is_stmt 1 view .LVU801
  23:../../libs/DaisySP/Source/Synthesis/oscillator.h ****     ~Oscillator() {}
 3434              		.loc 8 23 5 is_stmt 0 view .LVU802
 3435              	.LBE1279:
  27:main.cpp      **** static Oscillator osc;
 3436              		.loc 10 27 19 view .LVU803
 3437 00c2 0F4A     		ldr	r2, .L52+12
 3438 00c4 1549     		ldr	r1, .L52+40
 3439 00c6 1648     		ldr	r0, .L52+44
 3440 00c8 FFF7FEFF 		bl	__aeabi_atexit
 3441              	.LVL187:
 3442              	.LBB1280:
 3443              	.LBI1280:
  44:../../libs/DaisySP/Source/Control/adsr.h ****     ~Adsr() {}
 3444              		.loc 7 44 5 is_stmt 1 view .LVU804
 3445              	.LBB1281:
 3446              	.LBB1282:
  44:../../libs/DaisySP/Source/Control/adsr.h ****     ~Adsr() {}
 3447              		.loc 7 44 12 is_stmt 0 view .LVU805
 3448 00cc 1548     		ldr	r0, .L52+48
 3449 00ce 0023     		movs	r3, #0
 3450 00d0 1549     		ldr	r1, .L52+52
 3451              	.LBE1282:
 3452 00d2 8485     		strh	r4, [r0, #44]	@ movhi
 3453              	.LVL188:
 3454              	.LBB1283:
  44:../../libs/DaisySP/Source/Control/adsr.h ****     ~Adsr() {}
 3455              		.loc 7 44 12 view .LVU806
 3456 00d4 0360     		str	r3, [r0]	@ float
 3457 00d6 4360     		str	r3, [r0, #4]	@ float
 3458 00d8 8160     		str	r1, [r0, #8]	@ float
 3459 00da C360     		str	r3, [r0, #12]	@ float
 3460 00dc 0161     		str	r1, [r0, #16]	@ float
 3461 00de 4161     		str	r1, [r0, #20]	@ float
 3462 00e0 8161     		str	r1, [r0, #24]	@ float
 3463 00e2 C361     		str	r3, [r0, #28]	@ float
 3464 00e4 0362     		str	r3, [r0, #32]	@ float
 3465 00e6 4362     		str	r3, [r0, #36]	@ float
 3466              	.LBE1283:
 3467              	.LBE1281:
ARM GAS  C:\Users\skipi\AppData\Local\Temp\cc6ev9XQ.s 			page 105


 3468              	.LBE1280:
  28:main.cpp      **** static Adsr env;
 3469              		.loc 10 28 13 view .LVU807
 3470 00e8 054A     		ldr	r2, .L52+12
 3471 00ea 1049     		ldr	r1, .L52+56
 3472              	.LBE1284:
 3473              	.LBE1286:
 3474              		.loc 10 173 1 view .LVU808
 3475 00ec BDE83840 		pop	{r3, r4, r5, lr}
 3476              		.cfi_restore 14
 3477              		.cfi_restore 5
 3478              		.cfi_restore 4
 3479              		.cfi_restore 3
 3480              		.cfi_def_cfa_offset 0
 3481              	.LBB1287:
 3482              	.LBB1285:
  28:main.cpp      **** static Adsr env;
 3483              		.loc 10 28 13 view .LVU809
 3484 00f0 FFF7FEBF 		b	__aeabi_atexit
 3485              	.LVL189:
 3486              	.L53:
 3487              		.align	2
 3488              	.L52:
 3489 00f4 00000000 		.word	.LANCHOR6
 3490 00f8 00000000 		.word	.LANCHOR5
 3491 00fc 01080109 		.word	151062529
 3492 0100 00000000 		.word	__dso_handle
 3493 0104 00000000 		.word	_ZN5daisy6Mpr121INS_18Mpr121I2CTransportEED1Ev
 3494 0108 00000000 		.word	.LANCHOR4
 3495 010c 00000000 		.word	_ZN5daisy9DaisySeedD1Ev
 3496 0110 50000000 		.word	.LANCHOR9+80
 3497 0114 00000000 		.word	.LANCHOR7
 3498 0118 00000000 		.word	_ZN16PlantConditionerD1Ev
 3499 011c 00000000 		.word	_ZN7daisysp10OscillatorD1Ev
 3500 0120 00000000 		.word	.LANCHOR1
 3501 0124 00000000 		.word	.LANCHOR3
 3502 0128 000080BF 		.word	-1082130432
 3503 012c 00000000 		.word	_ZN7daisysp4AdsrD1Ev
 3504              	.LBE1285:
 3505              	.LBE1287:
 3506              		.cfi_endproc
 3507              	.LFE5433:
 3509              		.section	.init_array,"aw",%init_array
 3510              		.align	2
 3511 0000 00000000 		.word	_GLOBAL__sub_I_mpr121ObjConf(target1)
 3512              		.global	delta_max
 3513              		.global	curve_type
 3514              		.global	currTouched
 3515              		.global	lastTouched
 3516              		.global	gate
 3517              		.global	target_freq
 3518              		.global	pc
 3519              		.global	adcConfig
 3520              		.global	hw
 3521              		.global	cap
 3522              		.global	mpr121ObjConf
 3523              		.section	.bss._ZL3env,"aw",%nobits
ARM GAS  C:\Users\skipi\AppData\Local\Temp\cc6ev9XQ.s 			page 106


 3524              		.align	2
 3525              		.set	.LANCHOR3,. + 0
 3528              	_ZL3env:
 3529 0000 00000000 		.space	48
 3529      00000000 
 3529      00000000 
 3529      00000000 
 3529      00000000 
 3530              		.section	.bss._ZL3osc,"aw",%nobits
 3531              		.align	2
 3532              		.set	.LANCHOR1,. + 0
 3535              	_ZL3osc:
 3536 0000 00000000 		.space	44
 3536      00000000 
 3536      00000000 
 3536      00000000 
 3536      00000000 
 3537              		.section	.bss.adcConfig,"aw",%nobits
 3538              		.align	2
 3539              		.set	.LANCHOR9,. + 0
 3542              	adcConfig:
 3543 0000 00000000 		.space	168
 3543      00000000 
 3543      00000000 
 3543      00000000 
 3543      00000000 
 3544              		.section	.bss.cap,"aw",%nobits
 3545              		.align	2
 3546              		.set	.LANCHOR6,. + 0
 3549              	cap:
 3550 0000 00000000 		.space	52
 3550      00000000 
 3550      00000000 
 3550      00000000 
 3550      00000000 
 3551              		.section	.bss.currTouched,"aw",%nobits
 3552              		.align	1
 3553              		.set	.LANCHOR13,. + 0
 3556              	currTouched:
 3557 0000 0000     		.space	2
 3558              		.section	.bss.gate,"aw",%nobits
 3559              		.set	.LANCHOR2,. + 0
 3562              	gate:
 3563 0000 00       		.space	1
 3564              		.section	.bss.hw,"aw",%nobits
 3565              		.align	2
 3566              		.set	.LANCHOR4,. + 0
 3569              	hw:
 3570 0000 00000000 		.space	116
 3570      00000000 
 3570      00000000 
 3570      00000000 
 3570      00000000 
 3571              		.section	.bss.lastTouched,"aw",%nobits
 3572              		.align	1
 3573              		.set	.LANCHOR14,. + 0
 3576              	lastTouched:
ARM GAS  C:\Users\skipi\AppData\Local\Temp\cc6ev9XQ.s 			page 107


 3577 0000 0000     		.space	2
 3578              		.section	.bss.mpr121ObjConf,"aw",%nobits
 3579              		.align	2
 3580              		.set	.LANCHOR5,. + 0
 3583              	mpr121ObjConf:
 3584 0000 00000000 		.space	24
 3584      00000000 
 3584      00000000 
 3584      00000000 
 3584      00000000 
 3585              		.section	.bss.pc,"aw",%nobits
 3586              		.align	2
 3587              		.set	.LANCHOR7,. + 0
 3590              	pc:
 3591 0000 00000000 		.space	2236
 3591      00000000 
 3591      00000000 
 3591      00000000 
 3591      00000000 
 3592              		.section	.data.curve_type,"aw"
 3593              		.align	2
 3594              		.set	.LANCHOR11,. + 0
 3597              	curve_type:
 3598 0000 0000803F 		.word	1065353216
 3599              		.section	.data.delta_max,"aw"
 3600              		.align	2
 3601              		.set	.LANCHOR12,. + 0
 3604              	delta_max:
 3605 0000 00004842 		.word	1112014848
 3606              		.section	.data.target_freq,"aw"
 3607              		.align	2
 3608              		.set	.LANCHOR0,. + 0
 3611              	target_freq:
 3612 0000 0000DC43 		.word	1138491392
 3613              		.section	.rodata._ZN5daisy4seedL2A0E,"a"
 3614              		.align	2
 3615              		.set	.LANCHOR8,. + 0
 3618              	_ZN5daisy4seedL2A0E:
 3619 0000 02       		.byte	2
 3620 0001 00       		.byte	0
 3621              		.section	.rodata._ZN5daisy4seedL2A1E,"a"
 3622              		.align	2
 3623              		.set	.LANCHOR10,. + 0
 3626              	_ZN5daisy4seedL2A1E:
 3627 0000 00       		.byte	0
 3628 0001 03       		.byte	3
 3629              		.text
 3630              	.Letext0:
 3631              		.file 18 "c:\\program files\\daisytoolchain\\arm-none-eabi\\include\\machine\\_default_types.h"
 3632              		.file 19 "c:\\program files\\daisytoolchain\\arm-none-eabi\\include\\sys\\_stdint.h"
 3633              		.file 20 "c:\\program files\\daisytoolchain\\arm-none-eabi\\include\\stdint.h"
 3634              		.file 21 "c:\\program files\\daisytoolchain\\lib\\gcc\\arm-none-eabi\\10.2.1\\include\\stddef.h"
 3635              		.file 22 "c:\\program files\\daisytoolchain\\arm-none-eabi\\include\\c++\\10.2.1\\cmath"
 3636              		.file 23 "c:\\program files\\daisytoolchain\\arm-none-eabi\\include\\c++\\10.2.1\\bits\\std_abs.h"
 3637              		.file 24 "c:\\program files\\daisytoolchain\\arm-none-eabi\\include\\c++\\10.2.1\\cstdlib"
 3638              		.file 25 "c:\\program files\\daisytoolchain\\arm-none-eabi\\include\\c++\\10.2.1\\cstdint"
 3639              		.file 26 "c:\\program files\\daisytoolchain\\arm-none-eabi\\include\\c++\\10.2.1\\type_traits"
ARM GAS  C:\Users\skipi\AppData\Local\Temp\cc6ev9XQ.s 			page 108


 3640              		.file 27 "c:\\program files\\daisytoolchain\\arm-none-eabi\\include\\c++\\10.2.1\\debug\\debug.h"
 3641              		.file 28 "c:\\program files\\daisytoolchain\\arm-none-eabi\\include\\c++\\10.2.1\\arm-none-eabi\\t
 3642              		.file 29 "c:\\program files\\daisytoolchain\\arm-none-eabi\\include\\c++\\10.2.1\\bits\\algorithmf
 3643              		.file 30 "c:\\program files\\daisytoolchain\\arm-none-eabi\\include\\c++\\10.2.1\\bits\\stl_pair.h
 3644              		.file 31 "c:\\program files\\daisytoolchain\\arm-none-eabi\\include\\c++\\10.2.1\\bits\\exception_
 3645              		.file 32 "c:\\program files\\daisytoolchain\\arm-none-eabi\\include\\c++\\10.2.1\\cstdarg"
 3646              		.file 33 "c:\\program files\\daisytoolchain\\arm-none-eabi\\include\\c++\\10.2.1\\cstdio"
 3647              		.file 34 "c:\\program files\\daisytoolchain\\arm-none-eabi\\include\\c++\\10.2.1\\cstring"
 3648              		.file 35 "c:\\program files\\daisytoolchain\\arm-none-eabi\\include\\c++\\10.2.1\\cwchar"
 3649              		.file 36 "c:\\program files\\daisytoolchain\\arm-none-eabi\\include\\c++\\10.2.1\\clocale"
 3650              		.file 37 "c:\\program files\\daisytoolchain\\arm-none-eabi\\include\\c++\\10.2.1\\bits\\basic_stri
 3651              		.file 38 "c:\\program files\\daisytoolchain\\arm-none-eabi\\include\\c++\\10.2.1\\bits\\stl_tempbu
 3652              		.file 39 "c:\\program files\\daisytoolchain\\arm-none-eabi\\include\\c++\\10.2.1\\bits\\predefined
 3653              		.file 40 "c:\\program files\\daisytoolchain\\arm-none-eabi\\include\\sys\\_types.h"
 3654              		.file 41 "c:\\program files\\daisytoolchain\\arm-none-eabi\\include\\sys\\reent.h"
 3655              		.file 42 "c:\\program files\\daisytoolchain\\arm-none-eabi\\include\\sys\\lock.h"
 3656              		.file 43 "c:\\program files\\daisytoolchain\\arm-none-eabi\\include\\math.h"
 3657              		.file 44 "c:\\program files\\daisytoolchain\\arm-none-eabi\\include\\stdlib.h"
 3658              		.file 45 "c:\\program files\\daisytoolchain\\arm-none-eabi\\include\\c++\\10.2.1\\math.h"
 3659              		.file 46 "c:\\program files\\daisytoolchain\\arm-none-eabi\\include\\c++\\10.2.1\\stdlib.h"
 3660              		.file 47 "../../libs/libDaisy/src/per/tim.h"
 3661              		.file 48 "../../libs/libDaisy/src/hid/logger_impl.h"
 3662              		.file 49 "../../libs/libDaisy/src/util/wav_format.h"
 3663              		.file 50 "../../libs/libDaisy/src/dev/sr_595.h"
 3664              		.file 51 "../../libs/libDaisy/src/dev/max11300.h"
 3665              		.file 52 "../../libs/libDaisy/src/hid/logger.h"
 3666              		.file 53 "../../libs/libDaisy/src/dev/sdram.h"
 3667              		.file 54 "c:\\program files\\daisytoolchain\\lib\\gcc\\arm-none-eabi\\10.2.1\\include\\stdarg.h"
 3668              		.file 55 "c:\\program files\\daisytoolchain\\arm-none-eabi\\include\\stdio.h"
 3669              		.file 56 "c:\\program files\\daisytoolchain\\arm-none-eabi\\include\\string.h"
 3670              		.file 57 "../../libs/DaisySP/Source/Control/adenv.h"
 3671              		.file 58 "../../libs/DaisySP/Source/Utility/dsp.h"
 3672              		.file 59 "c:\\program files\\daisytoolchain\\arm-none-eabi\\include\\wchar.h"
 3673              		.file 60 "c:\\program files\\daisytoolchain\\arm-none-eabi\\include\\locale.h"
 3674              		.file 61 "../../Classes/Temperamento/../SensorFilters/FIIR/CapFir.h"
 3675              		.file 62 "../../Classes/Temperamento/../SensorFilters/IIR/iir.h"
 3676              		.file 63 "../../Classes/Temperamento/../SensorFilters/MF/MF.h"
 3677              		.file 64 "../../Classes/Effects/AnalogDelay/src/AnalogDelay.h"
 3678              		.file 65 "<built-in>"
ARM GAS  C:\Users\skipi\AppData\Local\Temp\cc6ev9XQ.s 			page 109


DEFINED SYMBOLS
                            *ABS*:00000000 main.cpp
C:\Users\skipi\AppData\Local\Temp\cc6ev9XQ.s:17     .text._ZN5daisy9DaisySeedD2Ev:00000000 $t
C:\Users\skipi\AppData\Local\Temp\cc6ev9XQ.s:26     .text._ZN5daisy9DaisySeedD2Ev:00000000 _ZN5daisy9DaisySeedD2Ev
C:\Users\skipi\AppData\Local\Temp\cc6ev9XQ.s:26     .text._ZN5daisy9DaisySeedD2Ev:00000000 _ZN5daisy9DaisySeedD1Ev
C:\Users\skipi\AppData\Local\Temp\cc6ev9XQ.s:73     .text._ZN7daisysp4AdsrD2Ev:00000000 $t
C:\Users\skipi\AppData\Local\Temp\cc6ev9XQ.s:81     .text._ZN7daisysp4AdsrD2Ev:00000000 _ZN7daisysp4AdsrD2Ev
C:\Users\skipi\AppData\Local\Temp\cc6ev9XQ.s:81     .text._ZN7daisysp4AdsrD2Ev:00000000 _ZN7daisysp4AdsrD1Ev
C:\Users\skipi\AppData\Local\Temp\cc6ev9XQ.s:98     .text._ZN7daisysp10OscillatorD2Ev:00000000 $t
C:\Users\skipi\AppData\Local\Temp\cc6ev9XQ.s:106    .text._ZN7daisysp10OscillatorD2Ev:00000000 _ZN7daisysp10OscillatorD2Ev
C:\Users\skipi\AppData\Local\Temp\cc6ev9XQ.s:106    .text._ZN7daisysp10OscillatorD2Ev:00000000 _ZN7daisysp10OscillatorD1Ev
C:\Users\skipi\AppData\Local\Temp\cc6ev9XQ.s:123    .text._ZN5daisy6Mpr121INS_18Mpr121I2CTransportEED2Ev:00000000 $t
C:\Users\skipi\AppData\Local\Temp\cc6ev9XQ.s:131    .text._ZN5daisy6Mpr121INS_18Mpr121I2CTransportEED2Ev:00000000 _ZN5daisy6Mpr121INS_18Mpr121I2CTransportEED2Ev
C:\Users\skipi\AppData\Local\Temp\cc6ev9XQ.s:131    .text._ZN5daisy6Mpr121INS_18Mpr121I2CTransportEED2Ev:00000000 _ZN5daisy6Mpr121INS_18Mpr121I2CTransportEED1Ev
C:\Users\skipi\AppData\Local\Temp\cc6ev9XQ.s:153    .text._ZL13AudioCallbackPKfPfj:00000000 $t
C:\Users\skipi\AppData\Local\Temp\cc6ev9XQ.s:160    .text._ZL13AudioCallbackPKfPfj:00000000 _ZL13AudioCallbackPKfPfj
C:\Users\skipi\AppData\Local\Temp\cc6ev9XQ.s:296    .text._ZL13AudioCallbackPKfPfj:00000064 $d
C:\Users\skipi\AppData\Local\Temp\cc6ev9XQ.s:305    .text._ZN5daisy6Mpr121INS_18Mpr121I2CTransportEE13WriteRegisterEhh:00000000 $t
C:\Users\skipi\AppData\Local\Temp\cc6ev9XQ.s:313    .text._ZN5daisy6Mpr121INS_18Mpr121I2CTransportEE13WriteRegisterEhh:00000000 _ZN5daisy6Mpr121INS_18Mpr121I2CTransportEE13WriteRegisterEhh
C:\Users\skipi\AppData\Local\Temp\cc6ev9XQ.s:683    .rodata.main.str1.4:00000000 $d
C:\Users\skipi\AppData\Local\Temp\cc6ev9XQ.s:696    .text.startup.main:00000000 $t
C:\Users\skipi\AppData\Local\Temp\cc6ev9XQ.s:704    .text.startup.main:00000000 main
C:\Users\skipi\AppData\Local\Temp\cc6ev9XQ.s:1768   .text.startup.main:00000334 $d
C:\Users\skipi\AppData\Local\Temp\cc6ev9XQ.s:1774   .text.startup.main:00000348 $t
C:\Users\skipi\AppData\Local\Temp\cc6ev9XQ.s:2744   .text.startup.main:000005f8 $d
C:\Users\skipi\AppData\Local\Temp\cc6ev9XQ.s:2779   .text.startup._GLOBAL__sub_I_mpr121ObjConf:00000000 $t
C:\Users\skipi\AppData\Local\Temp\cc6ev9XQ.s:2786   .text.startup._GLOBAL__sub_I_mpr121ObjConf:00000000 _GLOBAL__sub_I_mpr121ObjConf
C:\Users\skipi\AppData\Local\Temp\cc6ev9XQ.s:3489   .text.startup._GLOBAL__sub_I_mpr121ObjConf:000000f4 $d
C:\Users\skipi\AppData\Local\Temp\cc6ev9XQ.s:3510   .init_array:00000000 $d
C:\Users\skipi\AppData\Local\Temp\cc6ev9XQ.s:3604   .data.delta_max:00000000 delta_max
C:\Users\skipi\AppData\Local\Temp\cc6ev9XQ.s:3597   .data.curve_type:00000000 curve_type
C:\Users\skipi\AppData\Local\Temp\cc6ev9XQ.s:3556   .bss.currTouched:00000000 currTouched
C:\Users\skipi\AppData\Local\Temp\cc6ev9XQ.s:3576   .bss.lastTouched:00000000 lastTouched
C:\Users\skipi\AppData\Local\Temp\cc6ev9XQ.s:3562   .bss.gate:00000000 gate
C:\Users\skipi\AppData\Local\Temp\cc6ev9XQ.s:3611   .data.target_freq:00000000 target_freq
C:\Users\skipi\AppData\Local\Temp\cc6ev9XQ.s:3590   .bss.pc:00000000 pc
C:\Users\skipi\AppData\Local\Temp\cc6ev9XQ.s:3542   .bss.adcConfig:00000000 adcConfig
C:\Users\skipi\AppData\Local\Temp\cc6ev9XQ.s:3569   .bss.hw:00000000 hw
C:\Users\skipi\AppData\Local\Temp\cc6ev9XQ.s:3549   .bss.cap:00000000 cap
C:\Users\skipi\AppData\Local\Temp\cc6ev9XQ.s:3583   .bss.mpr121ObjConf:00000000 mpr121ObjConf
C:\Users\skipi\AppData\Local\Temp\cc6ev9XQ.s:3524   .bss._ZL3env:00000000 $d
C:\Users\skipi\AppData\Local\Temp\cc6ev9XQ.s:3528   .bss._ZL3env:00000000 _ZL3env
C:\Users\skipi\AppData\Local\Temp\cc6ev9XQ.s:3531   .bss._ZL3osc:00000000 $d
C:\Users\skipi\AppData\Local\Temp\cc6ev9XQ.s:3535   .bss._ZL3osc:00000000 _ZL3osc
C:\Users\skipi\AppData\Local\Temp\cc6ev9XQ.s:3538   .bss.adcConfig:00000000 $d
C:\Users\skipi\AppData\Local\Temp\cc6ev9XQ.s:3545   .bss.cap:00000000 $d
C:\Users\skipi\AppData\Local\Temp\cc6ev9XQ.s:3552   .bss.currTouched:00000000 $d
C:\Users\skipi\AppData\Local\Temp\cc6ev9XQ.s:3563   .bss.gate:00000000 $d
C:\Users\skipi\AppData\Local\Temp\cc6ev9XQ.s:3565   .bss.hw:00000000 $d
C:\Users\skipi\AppData\Local\Temp\cc6ev9XQ.s:3572   .bss.lastTouched:00000000 $d
C:\Users\skipi\AppData\Local\Temp\cc6ev9XQ.s:3579   .bss.mpr121ObjConf:00000000 $d
C:\Users\skipi\AppData\Local\Temp\cc6ev9XQ.s:3586   .bss.pc:00000000 $d
C:\Users\skipi\AppData\Local\Temp\cc6ev9XQ.s:3593   .data.curve_type:00000000 $d
C:\Users\skipi\AppData\Local\Temp\cc6ev9XQ.s:3600   .data.delta_max:00000000 $d
C:\Users\skipi\AppData\Local\Temp\cc6ev9XQ.s:3607   .data.target_freq:00000000 $d
C:\Users\skipi\AppData\Local\Temp\cc6ev9XQ.s:3614   .rodata._ZN5daisy4seedL2A0E:00000000 $d
C:\Users\skipi\AppData\Local\Temp\cc6ev9XQ.s:3618   .rodata._ZN5daisy4seedL2A0E:00000000 _ZN5daisy4seedL2A0E
ARM GAS  C:\Users\skipi\AppData\Local\Temp\cc6ev9XQ.s 			page 110


C:\Users\skipi\AppData\Local\Temp\cc6ev9XQ.s:3622   .rodata._ZN5daisy4seedL2A1E:00000000 $d
C:\Users\skipi\AppData\Local\Temp\cc6ev9XQ.s:3626   .rodata._ZN5daisy4seedL2A1E:00000000 _ZN5daisy4seedL2A1E
                           .group:00000000 _ZN5daisy9DaisySeedD5Ev
                           .group:00000000 _ZN7daisysp4AdsrD5Ev
                           .group:00000000 _ZN7daisysp10OscillatorD5Ev
                           .group:00000000 _ZN5daisy6Mpr121INS_18Mpr121I2CTransportEED5Ev

UNDEFINED SYMBOLS
_ZN7daisysp10Oscillator12CalcPhaseIncEf
_ZN7daisysp4Adsr7ProcessEb
_ZN7daisysp10Oscillator7ProcessEv
_ZN5daisy9I2CHandle16TransmitBlockingEtPhtm
_ZN5daisy9I2CHandle15ReceiveBlockingEtPhtm
_ZN5daisy9DaisySeed9ConfigureEv
_ZN5daisy9DaisySeed4InitEb
_ZN5daisy9DaisySeed17SetAudioBlockSizeEj
_ZN5daisy6LoggerILNS_17LoggerDestinationE1EE8StartLogEb
_ZN5daisy9I2CHandle4InitERKNS0_6ConfigE
_ZN5daisy6System5DelayEm
_ZN5daisy6LoggerILNS_17LoggerDestinationE1EE9PrintLineEPKcz
_ZN5daisy9DaisySeed6SetLedEb
_ZN5daisy9DaisySeed7DelayMsEj
_ZN16PlantConditioner4InitEN3IIR10FilterTypeE
_ZN16PlantConditioner8setScaleENS_5NotesENS_9ScaleTypeE
_ZN16PlantConditioner9setOctaveEh
_ZN16PlantConditioner8setCurveEhf
_ZN5daisy9DaisySeed15AudioSampleRateEv
_ZN7daisysp4Adsr4InitEfi
_ZN7daisysp4Adsr7SetTimeEif
_ZN5daisy16AdcChannelConfig10InitSingleENS_3PinENS0_15ConversionSpeedE
_ZN5daisy9AdcHandle4InitEPNS_16AdcChannelConfigEjNS0_12OverSamplingE
_ZN5daisy9AdcHandle5StartEv
_ZN5daisy9DaisySeed10StartAudioEPFvPKfPfjE
_ZN5daisy6System6GetNowEv
_ZNK5daisy9AdcHandle8GetFloatEh
_ZN5daisy9I2CHandle8Mem_readEtttPhtm
_ZN16PlantConditioner7ProcessEtt
__aeabi_atexit
_ZN16PlantConditionerC1Ev
__dso_handle
_ZN16PlantConditionerD1Ev
