ARM GAS  C:\Users\skipi\AppData\Local\Temp\ccY719VG.s 			page 1


   1              		.cpu cortex-m7
   2              		.eabi_attribute 28, 1
   3              		.eabi_attribute 20, 1
   4              		.eabi_attribute 21, 1
   5              		.eabi_attribute 23, 3
   6              		.eabi_attribute 24, 1
   7              		.eabi_attribute 25, 1
   8              		.eabi_attribute 26, 1
   9              		.eabi_attribute 30, 2
  10              		.eabi_attribute 34, 1
  11              		.eabi_attribute 18, 4
  12              		.file	"main.cpp"
  13              		.text
  14              	.Ltext0:
  15              		.cfi_sections	.debug_frame
  16              		.section	.text._ZN5daisy9DaisySeedD2Ev,"axG",%progbits,_ZN5daisy9DaisySeedD5Ev,comdat
  17              		.align	1
  18              		.p2align 2,,3
  19              		.weak	_ZN5daisy9DaisySeedD2Ev
  20              		.arch armv7e-m
  21              		.syntax unified
  22              		.thumb
  23              		.thumb_func
  24              		.fpu fpv5-d16
  26              	_ZN5daisy9DaisySeedD2Ev:
  27              	.LVL0:
  28              	.LFB2671:
  29              		.file 1 "../../libs/libDaisy/src/daisy_seed.h"
   1:../../libs/libDaisy/src/daisy_seed.h **** #pragma once
   2:../../libs/libDaisy/src/daisy_seed.h **** #ifndef DSY_SEED_H
   3:../../libs/libDaisy/src/daisy_seed.h **** #define DSY_SEED_H
   4:../../libs/libDaisy/src/daisy_seed.h **** 
   5:../../libs/libDaisy/src/daisy_seed.h **** #include "daisy.h"
   6:../../libs/libDaisy/src/daisy_seed.h **** 
   7:../../libs/libDaisy/src/daisy_seed.h **** //Uncomment this out if you're still using the rev2 hardware
   8:../../libs/libDaisy/src/daisy_seed.h **** //#define SEED_REV2
   9:../../libs/libDaisy/src/daisy_seed.h **** 
  10:../../libs/libDaisy/src/daisy_seed.h **** namespace daisy
  11:../../libs/libDaisy/src/daisy_seed.h **** {
  12:../../libs/libDaisy/src/daisy_seed.h **** /**
  13:../../libs/libDaisy/src/daisy_seed.h ****    @brief This is the higher-level interface for the Daisy board. \n 
  14:../../libs/libDaisy/src/daisy_seed.h ****     All basic peripheral configuration/initialization is setup here. \n
  15:../../libs/libDaisy/src/daisy_seed.h **** 
  16:../../libs/libDaisy/src/daisy_seed.h ****    @ingroup boards
  17:../../libs/libDaisy/src/daisy_seed.h **** */
  18:../../libs/libDaisy/src/daisy_seed.h **** class DaisySeed
  19:../../libs/libDaisy/src/daisy_seed.h **** {
  20:../../libs/libDaisy/src/daisy_seed.h ****   public:
  21:../../libs/libDaisy/src/daisy_seed.h ****     DaisySeed() {}
  22:../../libs/libDaisy/src/daisy_seed.h ****     ~DaisySeed() {}
  30              		.loc 1 22 5 view -0
  31              		.cfi_startproc
  32              		@ args = 0, pretend = 0, frame = 0
  33              		@ frame_needed = 0, uses_anonymous_args = 0
  34              		@ link register save eliminated.
  35              	.LBB331:
  36              	.LBI331:
ARM GAS  C:\Users\skipi\AppData\Local\Temp\ccY719VG.s 			page 2


  37              		.file 2 "../../libs/libDaisy/src/dev/codec_ak4556.h"
   1:../../libs/libDaisy/src/dev/codec_ak4556.h **** #pragma once
   2:../../libs/libDaisy/src/dev/codec_ak4556.h **** #ifndef DSY_CODEC_AK4556_H
   3:../../libs/libDaisy/src/dev/codec_ak4556.h **** #define DSY_CODEC_AK4556_H
   4:../../libs/libDaisy/src/dev/codec_ak4556.h **** 
   5:../../libs/libDaisy/src/dev/codec_ak4556.h **** #include "daisy_core.h"
   6:../../libs/libDaisy/src/dev/codec_ak4556.h **** #include "per/gpio.h"
   7:../../libs/libDaisy/src/dev/codec_ak4556.h **** 
   8:../../libs/libDaisy/src/dev/codec_ak4556.h **** namespace daisy
   9:../../libs/libDaisy/src/dev/codec_ak4556.h **** {
  10:../../libs/libDaisy/src/dev/codec_ak4556.h **** /** @brief Ak4556 Codec support 
  11:../../libs/libDaisy/src/dev/codec_ak4556.h ****  ** @author shensley
  12:../../libs/libDaisy/src/dev/codec_ak4556.h ****  ** @addtogroup codec
  13:../../libs/libDaisy/src/dev/codec_ak4556.h ****  ** 
  14:../../libs/libDaisy/src/dev/codec_ak4556.h ****  ** I don't see any real reason to have this be more than a function, but in case we want
  15:../../libs/libDaisy/src/dev/codec_ak4556.h ****  ** to add other functions down the road I wrapped the function in a class.
  16:../../libs/libDaisy/src/dev/codec_ak4556.h ****  ***/
  17:../../libs/libDaisy/src/dev/codec_ak4556.h **** class Ak4556
  18:../../libs/libDaisy/src/dev/codec_ak4556.h **** {
  19:../../libs/libDaisy/src/dev/codec_ak4556.h ****   public:
  20:../../libs/libDaisy/src/dev/codec_ak4556.h ****     Ak4556() {}
  21:../../libs/libDaisy/src/dev/codec_ak4556.h ****     ~Ak4556() {}
  38              		.loc 2 21 5 view .LVU1
  39              		.loc 2 21 5 is_stmt 0 view .LVU2
  40              	.LBE331:
  41              	.LBB332:
  42              	.LBI332:
  43              		.file 3 "../../libs/libDaisy/src/sys/system.h"
   1:../../libs/libDaisy/src/sys/system.h **** #ifndef DSY_SYSTEM_H
   2:../../libs/libDaisy/src/sys/system.h **** #define DSY_SYSTEM_H
   3:../../libs/libDaisy/src/sys/system.h **** 
   4:../../libs/libDaisy/src/sys/system.h **** #ifndef UNIT_TEST // for unit tests, a dummy implementation is provided below
   5:../../libs/libDaisy/src/sys/system.h **** 
   6:../../libs/libDaisy/src/sys/system.h **** #include <cstdint>
   7:../../libs/libDaisy/src/sys/system.h **** #include "per/tim.h"
   8:../../libs/libDaisy/src/sys/system.h **** 
   9:../../libs/libDaisy/src/sys/system.h **** namespace daisy
  10:../../libs/libDaisy/src/sys/system.h **** {
  11:../../libs/libDaisy/src/sys/system.h **** /** A handle for interacting with the Core System.
  12:../../libs/libDaisy/src/sys/system.h ****  ** This includes the Clock tree, MPU, global DMA initialization,
  13:../../libs/libDaisy/src/sys/system.h ****  ** cache handling, and any other necessary global initiailzation
  14:../../libs/libDaisy/src/sys/system.h ****  **
  15:../../libs/libDaisy/src/sys/system.h ****  ** @author shensley
  16:../../libs/libDaisy/src/sys/system.h ****  ** @ingroup system
  17:../../libs/libDaisy/src/sys/system.h ****  */
  18:../../libs/libDaisy/src/sys/system.h **** class System
  19:../../libs/libDaisy/src/sys/system.h **** {
  20:../../libs/libDaisy/src/sys/system.h ****   public:
  21:../../libs/libDaisy/src/sys/system.h ****     /** Contains settings for initializing the System */
  22:../../libs/libDaisy/src/sys/system.h ****     struct Config
  23:../../libs/libDaisy/src/sys/system.h ****     {
  24:../../libs/libDaisy/src/sys/system.h ****         /** Specifies the system clock frequency that feeds APB/AHB clocks, etc. */
  25:../../libs/libDaisy/src/sys/system.h ****         enum class SysClkFreq
  26:../../libs/libDaisy/src/sys/system.h ****         {
  27:../../libs/libDaisy/src/sys/system.h ****             FREQ_400MHZ,
  28:../../libs/libDaisy/src/sys/system.h ****             FREQ_480MHZ,
  29:../../libs/libDaisy/src/sys/system.h ****         };
ARM GAS  C:\Users\skipi\AppData\Local\Temp\ccY719VG.s 			page 3


  30:../../libs/libDaisy/src/sys/system.h **** 
  31:../../libs/libDaisy/src/sys/system.h ****         /** Method to call on the struct to set to defaults
  32:../../libs/libDaisy/src/sys/system.h ****          ** CPU Freq set to 400MHz
  33:../../libs/libDaisy/src/sys/system.h ****          ** Cache Enabled
  34:../../libs/libDaisy/src/sys/system.h ****          ** */
  35:../../libs/libDaisy/src/sys/system.h ****         void Defaults()
  36:../../libs/libDaisy/src/sys/system.h ****         {
  37:../../libs/libDaisy/src/sys/system.h ****             cpu_freq    = SysClkFreq::FREQ_400MHZ;
  38:../../libs/libDaisy/src/sys/system.h ****             use_dcache  = true;
  39:../../libs/libDaisy/src/sys/system.h ****             use_icache  = true;
  40:../../libs/libDaisy/src/sys/system.h ****             skip_clocks = false;
  41:../../libs/libDaisy/src/sys/system.h ****         }
  42:../../libs/libDaisy/src/sys/system.h **** 
  43:../../libs/libDaisy/src/sys/system.h ****         /** Method to call on the struct to set to boost mode:
  44:../../libs/libDaisy/src/sys/system.h ****          ** CPU Freq set to 480MHz
  45:../../libs/libDaisy/src/sys/system.h ****          ** Cache Enabled
  46:../../libs/libDaisy/src/sys/system.h ****          ** */
  47:../../libs/libDaisy/src/sys/system.h ****         void Boost()
  48:../../libs/libDaisy/src/sys/system.h ****         {
  49:../../libs/libDaisy/src/sys/system.h ****             cpu_freq    = SysClkFreq::FREQ_480MHZ;
  50:../../libs/libDaisy/src/sys/system.h ****             use_dcache  = true;
  51:../../libs/libDaisy/src/sys/system.h ****             use_icache  = true;
  52:../../libs/libDaisy/src/sys/system.h ****             skip_clocks = false;
  53:../../libs/libDaisy/src/sys/system.h ****         }
  54:../../libs/libDaisy/src/sys/system.h **** 
  55:../../libs/libDaisy/src/sys/system.h ****         SysClkFreq cpu_freq;
  56:../../libs/libDaisy/src/sys/system.h ****         bool       use_dcache;
  57:../../libs/libDaisy/src/sys/system.h ****         bool       use_icache;
  58:../../libs/libDaisy/src/sys/system.h ****         bool       skip_clocks;
  59:../../libs/libDaisy/src/sys/system.h ****     };
  60:../../libs/libDaisy/src/sys/system.h **** 
  61:../../libs/libDaisy/src/sys/system.h ****     /** Describes the different regions of memory available to the Daisy */
  62:../../libs/libDaisy/src/sys/system.h ****     enum MemoryRegion
  63:../../libs/libDaisy/src/sys/system.h ****     {
  64:../../libs/libDaisy/src/sys/system.h ****         INTERNAL_FLASH = 0,
  65:../../libs/libDaisy/src/sys/system.h ****         ITCMRAM,
  66:../../libs/libDaisy/src/sys/system.h ****         DTCMRAM,
  67:../../libs/libDaisy/src/sys/system.h ****         SRAM_D1,
  68:../../libs/libDaisy/src/sys/system.h ****         SRAM_D2,
  69:../../libs/libDaisy/src/sys/system.h ****         SRAM_D3,
  70:../../libs/libDaisy/src/sys/system.h ****         SDRAM,
  71:../../libs/libDaisy/src/sys/system.h ****         QSPI,
  72:../../libs/libDaisy/src/sys/system.h ****         INVALID_ADDRESS,
  73:../../libs/libDaisy/src/sys/system.h ****     };
  74:../../libs/libDaisy/src/sys/system.h **** 
  75:../../libs/libDaisy/src/sys/system.h ****     /** Bootloader struct for controlling bootloading parameters */
  76:../../libs/libDaisy/src/sys/system.h ****     struct BootInfo
  77:../../libs/libDaisy/src/sys/system.h ****     {
  78:../../libs/libDaisy/src/sys/system.h ****         enum class Type : uint32_t
  79:../../libs/libDaisy/src/sys/system.h ****         {
  80:../../libs/libDaisy/src/sys/system.h ****             INVALID      = 0x00000000,
  81:../../libs/libDaisy/src/sys/system.h ****             JUMP         = 0xDEADBEEF,
  82:../../libs/libDaisy/src/sys/system.h ****             SKIP_TIMEOUT = 0x5AFEB007,
  83:../../libs/libDaisy/src/sys/system.h ****             INF_TIMEOUT  = 0xB0074EFA,
  84:../../libs/libDaisy/src/sys/system.h ****         } status;
  85:../../libs/libDaisy/src/sys/system.h ****         uint32_t data;
  86:../../libs/libDaisy/src/sys/system.h ****         enum class Version : uint32_t
ARM GAS  C:\Users\skipi\AppData\Local\Temp\ccY719VG.s 			page 4


  87:../../libs/libDaisy/src/sys/system.h ****         {
  88:../../libs/libDaisy/src/sys/system.h ****             LT_v6_0 = 0, // Less than v6.0
  89:../../libs/libDaisy/src/sys/system.h ****             NONE,        // No bootloader present
  90:../../libs/libDaisy/src/sys/system.h ****             v6_0,        // v6.0
  91:../../libs/libDaisy/src/sys/system.h ****             v6_1,        // v6.1 or greater
  92:../../libs/libDaisy/src/sys/system.h ****             LAST
  93:../../libs/libDaisy/src/sys/system.h ****         } version;
  94:../../libs/libDaisy/src/sys/system.h ****     };
  95:../../libs/libDaisy/src/sys/system.h **** 
  96:../../libs/libDaisy/src/sys/system.h ****     System() {}
  97:../../libs/libDaisy/src/sys/system.h ****     ~System() {}
  44              		.loc 3 97 5 is_stmt 1 view .LVU3
  45              		.loc 3 97 5 is_stmt 0 view .LVU4
  46              	.LBE332:
  47              	.LBB333:
  48              	.LBI333:
  49              		.file 4 "../../libs/libDaisy/src/hid/usb.h"
   1:../../libs/libDaisy/src/hid/usb.h **** #pragma once
   2:../../libs/libDaisy/src/hid/usb.h **** #ifndef DSY_HID_USB_H
   3:../../libs/libDaisy/src/hid/usb.h **** #define DSY_HID_USB_H
   4:../../libs/libDaisy/src/hid/usb.h **** #include <stdint.h>
   5:../../libs/libDaisy/src/hid/usb.h **** #include <stdlib.h>
   6:../../libs/libDaisy/src/hid/usb.h **** 
   7:../../libs/libDaisy/src/hid/usb.h **** namespace daisy
   8:../../libs/libDaisy/src/hid/usb.h **** /** @addtogroup human_interface
   9:../../libs/libDaisy/src/hid/usb.h ****     @{
  10:../../libs/libDaisy/src/hid/usb.h **** */
  11:../../libs/libDaisy/src/hid/usb.h **** 
  12:../../libs/libDaisy/src/hid/usb.h **** {
  13:../../libs/libDaisy/src/hid/usb.h **** /** 
  14:../../libs/libDaisy/src/hid/usb.h ****     @brief Interface for initializing and using the USB Peripherals on the daisy
  15:../../libs/libDaisy/src/hid/usb.h ****     @author Stephen Hensley
  16:../../libs/libDaisy/src/hid/usb.h ****     @date December 2019
  17:../../libs/libDaisy/src/hid/usb.h **** */
  18:../../libs/libDaisy/src/hid/usb.h **** class UsbHandle
  19:../../libs/libDaisy/src/hid/usb.h **** {
  20:../../libs/libDaisy/src/hid/usb.h ****   public:
  21:../../libs/libDaisy/src/hid/usb.h ****     /** Return values for USBHandle Functions */
  22:../../libs/libDaisy/src/hid/usb.h ****     enum class Result
  23:../../libs/libDaisy/src/hid/usb.h ****     {
  24:../../libs/libDaisy/src/hid/usb.h ****         OK,
  25:../../libs/libDaisy/src/hid/usb.h ****         ERR,
  26:../../libs/libDaisy/src/hid/usb.h ****     };
  27:../../libs/libDaisy/src/hid/usb.h **** 
  28:../../libs/libDaisy/src/hid/usb.h ****     /** Specified which of the two USB Peripherals to initialize. */
  29:../../libs/libDaisy/src/hid/usb.h ****     enum UsbPeriph
  30:../../libs/libDaisy/src/hid/usb.h ****     {
  31:../../libs/libDaisy/src/hid/usb.h ****         FS_INTERNAL, /**< Internal pin */
  32:../../libs/libDaisy/src/hid/usb.h ****         FS_EXTERNAL, /**< FS External D+ pin is Pin 38 (GPIO32). FS External D- pin is Pin 37 (GPIO
  33:../../libs/libDaisy/src/hid/usb.h ****         FS_BOTH,     /**< Both */
  34:../../libs/libDaisy/src/hid/usb.h ****     };
  35:../../libs/libDaisy/src/hid/usb.h **** 
  36:../../libs/libDaisy/src/hid/usb.h **** 
  37:../../libs/libDaisy/src/hid/usb.h ****     /** Function called upon reception of a buffer */
  38:../../libs/libDaisy/src/hid/usb.h ****     typedef void (*ReceiveCallback)(uint8_t* buff, uint32_t* len);
  39:../../libs/libDaisy/src/hid/usb.h **** 
  40:../../libs/libDaisy/src/hid/usb.h ****     UsbHandle() {}
ARM GAS  C:\Users\skipi\AppData\Local\Temp\ccY719VG.s 			page 5


  41:../../libs/libDaisy/src/hid/usb.h **** 
  42:../../libs/libDaisy/src/hid/usb.h ****     ~UsbHandle() {}
  50              		.loc 4 42 5 is_stmt 1 view .LVU5
  51              		.loc 4 42 5 is_stmt 0 view .LVU6
  52              	.LBE333:
  53              	.LBB334:
  54              	.LBI334:
  55              		.file 5 "../../libs/libDaisy/src/per/adc.h"
   1:../../libs/libDaisy/src/per/adc.h **** #pragma once
   2:../../libs/libDaisy/src/per/adc.h **** #ifndef DSY_ADC_H
   3:../../libs/libDaisy/src/per/adc.h **** #define DSY_ADC_H /**< Macro */
   4:../../libs/libDaisy/src/per/adc.h **** #include <stdint.h>
   5:../../libs/libDaisy/src/per/adc.h **** #include <stdlib.h>
   6:../../libs/libDaisy/src/per/adc.h **** #include "daisy_core.h"
   7:../../libs/libDaisy/src/per/adc.h **** #include "per/gpio.h"
   8:../../libs/libDaisy/src/per/adc.h **** 
   9:../../libs/libDaisy/src/per/adc.h **** #define DSY_ADC_MAX_CHANNELS 16 /**< Maximum number of ADC channels */
  10:../../libs/libDaisy/src/per/adc.h **** 
  11:../../libs/libDaisy/src/per/adc.h **** namespace daisy
  12:../../libs/libDaisy/src/per/adc.h **** {
  13:../../libs/libDaisy/src/per/adc.h **** /** @addtogroup per_analog
  14:../../libs/libDaisy/src/per/adc.h ****     @{
  15:../../libs/libDaisy/src/per/adc.h **** */
  16:../../libs/libDaisy/src/per/adc.h **** 
  17:../../libs/libDaisy/src/per/adc.h **** /* While there may not be many configuration options here,
  18:../../libs/libDaisy/src/per/adc.h **** using a struct like this allows us to add more configuration
  19:../../libs/libDaisy/src/per/adc.h **** later without breaking existing functionality.
  20:../../libs/libDaisy/src/per/adc.h **** */
  21:../../libs/libDaisy/src/per/adc.h **** 
  22:../../libs/libDaisy/src/per/adc.h **** /** @brief   Configuration Structure for an ADC Channel 
  23:../../libs/libDaisy/src/per/adc.h ****  *  @details This can be used to configure a a single input, 
  24:../../libs/libDaisy/src/per/adc.h ****  *           or a multiplexed input, allowing up to 8 inputs on 
  25:../../libs/libDaisy/src/per/adc.h ****  *           one channel.
  26:../../libs/libDaisy/src/per/adc.h ****  *  @note    Sharing data lines to multiple muxes _is_ possible, but
  27:../../libs/libDaisy/src/per/adc.h ****  *           each channel sharing data lines must be set to the maximum
  28:../../libs/libDaisy/src/per/adc.h ****  *           number of channels, even if some multiplexers have fewer
  29:../../libs/libDaisy/src/per/adc.h ****  *           inputs connected.
  30:../../libs/libDaisy/src/per/adc.h **** */
  31:../../libs/libDaisy/src/per/adc.h **** struct AdcChannelConfig
  32:../../libs/libDaisy/src/per/adc.h **** {
  33:../../libs/libDaisy/src/per/adc.h ****     /** Which pin to use for multiplexing */
  34:../../libs/libDaisy/src/per/adc.h ****     enum MuxPin
  35:../../libs/libDaisy/src/per/adc.h ****     {
  36:../../libs/libDaisy/src/per/adc.h ****         MUX_SEL_0,    /**< & */
  37:../../libs/libDaisy/src/per/adc.h ****         MUX_SEL_1,    /**< & */
  38:../../libs/libDaisy/src/per/adc.h ****         MUX_SEL_2,    /**< & */
  39:../../libs/libDaisy/src/per/adc.h ****         MUX_SEL_LAST, /**< & */
  40:../../libs/libDaisy/src/per/adc.h ****     };
  41:../../libs/libDaisy/src/per/adc.h **** 
  42:../../libs/libDaisy/src/per/adc.h ****     /** \brief per channel conversion speed added to fixed time based on bitdepth, etc. */
  43:../../libs/libDaisy/src/per/adc.h ****     enum ConversionSpeed
  44:../../libs/libDaisy/src/per/adc.h ****     {
  45:../../libs/libDaisy/src/per/adc.h ****         SPEED_1CYCLES_5,
  46:../../libs/libDaisy/src/per/adc.h ****         SPEED_2CYCLES_5,
  47:../../libs/libDaisy/src/per/adc.h ****         SPEED_8CYCLES_5,
  48:../../libs/libDaisy/src/per/adc.h ****         SPEED_16CYCLES_5,
  49:../../libs/libDaisy/src/per/adc.h ****         SPEED_32CYCLES_5,
ARM GAS  C:\Users\skipi\AppData\Local\Temp\ccY719VG.s 			page 6


  50:../../libs/libDaisy/src/per/adc.h ****         SPEED_64CYCLES_5,
  51:../../libs/libDaisy/src/per/adc.h ****         SPEED_387CYCLES_5,
  52:../../libs/libDaisy/src/per/adc.h ****         SPEED_810CYCLES_5,
  53:../../libs/libDaisy/src/per/adc.h ****     };
  54:../../libs/libDaisy/src/per/adc.h **** 
  55:../../libs/libDaisy/src/per/adc.h ****     /** Initializes a single ADC pin as an ADC. 
  56:../../libs/libDaisy/src/per/adc.h ****     \param pin Pin to init.
  57:../../libs/libDaisy/src/per/adc.h ****     \param speed conversion speed for this pin defaults to 8.5 cycles
  58:../../libs/libDaisy/src/per/adc.h ****      */
  59:../../libs/libDaisy/src/per/adc.h ****     void InitSingle(Pin pin, ConversionSpeed speed = SPEED_8CYCLES_5);
  60:../../libs/libDaisy/src/per/adc.h **** 
  61:../../libs/libDaisy/src/per/adc.h ****     /** 
  62:../../libs/libDaisy/src/per/adc.h ****     Initializes a single ADC pin as a Multiplexed ADC.
  63:../../libs/libDaisy/src/per/adc.h ****     Requires a CD405X Multiplexer connected to the pin.
  64:../../libs/libDaisy/src/per/adc.h ****     You only need to supply the mux pins that are required,
  65:../../libs/libDaisy/src/per/adc.h ****     e.g. a 4052 mux would only require mux_0 and mux_1.
  66:../../libs/libDaisy/src/per/adc.h ****     Internal Callbacks handle the pin addressing.
  67:../../libs/libDaisy/src/per/adc.h ****     \param adc_pin &
  68:../../libs/libDaisy/src/per/adc.h ****     \param mux_channels must be 1-8
  69:../../libs/libDaisy/src/per/adc.h ****     \param mux_0 First mux pin
  70:../../libs/libDaisy/src/per/adc.h ****     \param mux_1 Second mux pin
  71:../../libs/libDaisy/src/per/adc.h ****     \param mux_2 Third mux pin
  72:../../libs/libDaisy/src/per/adc.h ****     \param speed conversion speed for this pin defaults to 8.5 cycles
  73:../../libs/libDaisy/src/per/adc.h ****     */
  74:../../libs/libDaisy/src/per/adc.h ****     void InitMux(Pin             adc_pin,
  75:../../libs/libDaisy/src/per/adc.h ****                  size_t          mux_channels,
  76:../../libs/libDaisy/src/per/adc.h ****                  Pin             mux_0,
  77:../../libs/libDaisy/src/per/adc.h ****                  Pin             mux_1 = Pin(PORTX, 0),
  78:../../libs/libDaisy/src/per/adc.h ****                  Pin             mux_2 = Pin(PORTX, 0),
  79:../../libs/libDaisy/src/per/adc.h ****                  ConversionSpeed speed = SPEED_8CYCLES_5);
  80:../../libs/libDaisy/src/per/adc.h **** 
  81:../../libs/libDaisy/src/per/adc.h ****     GPIO            pin_;                   /**< & */
  82:../../libs/libDaisy/src/per/adc.h ****     GPIO            mux_pin_[MUX_SEL_LAST]; /**< & */
  83:../../libs/libDaisy/src/per/adc.h ****     uint8_t         mux_channels_;          /**< & */
  84:../../libs/libDaisy/src/per/adc.h ****     ConversionSpeed speed_;
  85:../../libs/libDaisy/src/per/adc.h **** };
  86:../../libs/libDaisy/src/per/adc.h **** 
  87:../../libs/libDaisy/src/per/adc.h **** /**
  88:../../libs/libDaisy/src/per/adc.h ****    @brief Handler for analog to digital conversion
  89:../../libs/libDaisy/src/per/adc.h **** */
  90:../../libs/libDaisy/src/per/adc.h **** class AdcHandle
  91:../../libs/libDaisy/src/per/adc.h **** {
  92:../../libs/libDaisy/src/per/adc.h ****   public:
  93:../../libs/libDaisy/src/per/adc.h ****     /** Supported oversampling amounts */
  94:../../libs/libDaisy/src/per/adc.h ****     enum OverSampling
  95:../../libs/libDaisy/src/per/adc.h ****     {
  96:../../libs/libDaisy/src/per/adc.h ****         OVS_NONE, /**< & */
  97:../../libs/libDaisy/src/per/adc.h ****         OVS_4,    /**< & */
  98:../../libs/libDaisy/src/per/adc.h ****         OVS_8,    /**< & */
  99:../../libs/libDaisy/src/per/adc.h ****         OVS_16,   /**< & */
 100:../../libs/libDaisy/src/per/adc.h ****         OVS_32,   /**< & */
 101:../../libs/libDaisy/src/per/adc.h ****         OVS_64,   /**< & */
 102:../../libs/libDaisy/src/per/adc.h ****         OVS_128,  /**< & */
 103:../../libs/libDaisy/src/per/adc.h ****         OVS_256,  /**< & */
 104:../../libs/libDaisy/src/per/adc.h ****         OVS_512,  /**< & */
 105:../../libs/libDaisy/src/per/adc.h ****         OVS_1024, /**< & */
 106:../../libs/libDaisy/src/per/adc.h ****         OVS_LAST, /**< & */
ARM GAS  C:\Users\skipi\AppData\Local\Temp\ccY719VG.s 			page 7


 107:../../libs/libDaisy/src/per/adc.h ****     };
 108:../../libs/libDaisy/src/per/adc.h **** 
 109:../../libs/libDaisy/src/per/adc.h ****     AdcHandle() {}
 110:../../libs/libDaisy/src/per/adc.h ****     ~AdcHandle() {}
  56              		.loc 5 110 5 is_stmt 1 view .LVU7
  57              		.loc 5 110 5 is_stmt 0 view .LVU8
  58              	.LBE334:
  59              	.LBB335:
  60              	.LBI335:
  61              		.file 6 "../../libs/libDaisy/src/hid/audio.h"
   1:../../libs/libDaisy/src/hid/audio.h **** #ifndef DSY_AUDIO_H
   2:../../libs/libDaisy/src/hid/audio.h **** #define DSY_AUDIO_H /**< & */
   3:../../libs/libDaisy/src/hid/audio.h **** 
   4:../../libs/libDaisy/src/hid/audio.h **** #include "per/sai.h"
   5:../../libs/libDaisy/src/hid/audio.h **** 
   6:../../libs/libDaisy/src/hid/audio.h **** namespace daisy
   7:../../libs/libDaisy/src/hid/audio.h **** {
   8:../../libs/libDaisy/src/hid/audio.h **** /** @brief Audio Engine Handle
   9:../../libs/libDaisy/src/hid/audio.h ****  *  @ingroup audio 
  10:../../libs/libDaisy/src/hid/audio.h ****  *  @details This class allows for higher level access to an audio engine.
  11:../../libs/libDaisy/src/hid/audio.h ****  *           If you're using a SOM like the DaisySeed or DaisyPatchSM (or any 
  12:../../libs/libDaisy/src/hid/audio.h ****  *            board that includes one of those objects) then the intialization
  13:../../libs/libDaisy/src/hid/audio.h ****  *            is already taken  care of.
  14:../../libs/libDaisy/src/hid/audio.h ****  *           If you're setting up your own custom hardware, or need to make changes
  15:../../libs/libDaisy/src/hid/audio.h ****  *           you will have to take the following steps:
  16:../../libs/libDaisy/src/hid/audio.h ****  *             1. Create and Initialize an SaiHandle or two depending on your requirements
  17:../../libs/libDaisy/src/hid/audio.h ****  *             2. Initialize the Audio Handle with the desired settings and the Initialized SaiHand
  18:../../libs/libDaisy/src/hid/audio.h ****  *             3. If the connected codec requires special configuration or initialization, do so
  19:../../libs/libDaisy/src/hid/audio.h ****  *             4. Write a callback method using either the AudioCallback or the InterleavingAudioCa
  20:../../libs/libDaisy/src/hid/audio.h ****  *             5. Start the Audio using one of the StartAudio function
  21:../../libs/libDaisy/src/hid/audio.h ****  */
  22:../../libs/libDaisy/src/hid/audio.h **** class AudioHandle
  23:../../libs/libDaisy/src/hid/audio.h **** {
  24:../../libs/libDaisy/src/hid/audio.h ****   public:
  25:../../libs/libDaisy/src/hid/audio.h ****     /** Manually configurable details about the Audio Engine */
  26:../../libs/libDaisy/src/hid/audio.h ****     /** TODO: Figure out how to get samplerate in here. */
  27:../../libs/libDaisy/src/hid/audio.h ****     struct Config
  28:../../libs/libDaisy/src/hid/audio.h ****     {
  29:../../libs/libDaisy/src/hid/audio.h ****         /** number of samples to process per callback */
  30:../../libs/libDaisy/src/hid/audio.h ****         size_t blocksize = 48;
  31:../../libs/libDaisy/src/hid/audio.h **** 
  32:../../libs/libDaisy/src/hid/audio.h ****         /**< Sample rate of audio */
  33:../../libs/libDaisy/src/hid/audio.h ****         SaiHandle::Config::SampleRate samplerate
  34:../../libs/libDaisy/src/hid/audio.h ****             = SaiHandle::Config::SampleRate::SAI_48KHZ;
  35:../../libs/libDaisy/src/hid/audio.h **** 
  36:../../libs/libDaisy/src/hid/audio.h ****         /** factor for adjustment before and after callback for hardware that may have extra headro
  37:../../libs/libDaisy/src/hid/audio.h ****         float postgain = 1.f;
  38:../../libs/libDaisy/src/hid/audio.h **** 
  39:../../libs/libDaisy/src/hid/audio.h ****         /** factor for additional one-sided compensation to audio path for hardware that may
  40:../../libs/libDaisy/src/hid/audio.h ****          *  have unequal input/output ranges
  41:../../libs/libDaisy/src/hid/audio.h ****          */
  42:../../libs/libDaisy/src/hid/audio.h ****         float output_compensation = 1.f;
  43:../../libs/libDaisy/src/hid/audio.h ****     };
  44:../../libs/libDaisy/src/hid/audio.h **** 
  45:../../libs/libDaisy/src/hid/audio.h ****     enum class Result
  46:../../libs/libDaisy/src/hid/audio.h ****     {
  47:../../libs/libDaisy/src/hid/audio.h ****         OK,
ARM GAS  C:\Users\skipi\AppData\Local\Temp\ccY719VG.s 			page 8


  48:../../libs/libDaisy/src/hid/audio.h ****         ERR,
  49:../../libs/libDaisy/src/hid/audio.h ****     };
  50:../../libs/libDaisy/src/hid/audio.h **** 
  51:../../libs/libDaisy/src/hid/audio.h ****     /** Non-Interleaving input buffer
  52:../../libs/libDaisy/src/hid/audio.h ****      * Buffer arranged by float[chn][sample] 
  53:../../libs/libDaisy/src/hid/audio.h ****      * const so that the user can't modify the input
  54:../../libs/libDaisy/src/hid/audio.h ****      */
  55:../../libs/libDaisy/src/hid/audio.h ****     typedef const float* const* InputBuffer;
  56:../../libs/libDaisy/src/hid/audio.h **** 
  57:../../libs/libDaisy/src/hid/audio.h ****     /** Non-Interleaving output buffer
  58:../../libs/libDaisy/src/hid/audio.h ****      * Arranged by float[chn][sample] 
  59:../../libs/libDaisy/src/hid/audio.h ****      */
  60:../../libs/libDaisy/src/hid/audio.h ****     typedef float** OutputBuffer;
  61:../../libs/libDaisy/src/hid/audio.h **** 
  62:../../libs/libDaisy/src/hid/audio.h ****     /** Type for a Non-Interleaving audio callback 
  63:../../libs/libDaisy/src/hid/audio.h ****      * Non-Interleaving audio callbacks in daisy will be of this type
  64:../../libs/libDaisy/src/hid/audio.h ****      */
  65:../../libs/libDaisy/src/hid/audio.h ****     typedef void (*AudioCallback)(InputBuffer  in,
  66:../../libs/libDaisy/src/hid/audio.h ****                                   OutputBuffer out,
  67:../../libs/libDaisy/src/hid/audio.h ****                                   size_t       size);
  68:../../libs/libDaisy/src/hid/audio.h **** 
  69:../../libs/libDaisy/src/hid/audio.h ****     /** Interleaving Input buffer
  70:../../libs/libDaisy/src/hid/audio.h ****      ** audio is prepared as { L0, R0, L1, R1, . . . LN, RN }]
  71:../../libs/libDaisy/src/hid/audio.h ****      ** this is const, as the user shouldn't modify it
  72:../../libs/libDaisy/src/hid/audio.h ****     */
  73:../../libs/libDaisy/src/hid/audio.h ****     typedef const float* InterleavingInputBuffer;
  74:../../libs/libDaisy/src/hid/audio.h **** 
  75:../../libs/libDaisy/src/hid/audio.h ****     /** Interleaving Output buffer 
  76:../../libs/libDaisy/src/hid/audio.h ****      ** audio is prepared as { L0, R0, L1, R1, . . . LN, RN }
  77:../../libs/libDaisy/src/hid/audio.h ****     */
  78:../../libs/libDaisy/src/hid/audio.h ****     typedef float* InterleavingOutputBuffer;
  79:../../libs/libDaisy/src/hid/audio.h **** 
  80:../../libs/libDaisy/src/hid/audio.h ****     /** Interleaving Audio Callback 
  81:../../libs/libDaisy/src/hid/audio.h ****      * Interleaving audio callbacks in daisy must be of this type
  82:../../libs/libDaisy/src/hid/audio.h ****      */
  83:../../libs/libDaisy/src/hid/audio.h ****     typedef void (*InterleavingAudioCallback)(InterleavingInputBuffer  in,
  84:../../libs/libDaisy/src/hid/audio.h ****                                               InterleavingOutputBuffer out,
  85:../../libs/libDaisy/src/hid/audio.h ****                                               size_t                   size);
  86:../../libs/libDaisy/src/hid/audio.h **** 
  87:../../libs/libDaisy/src/hid/audio.h ****     AudioHandle() : pimpl_(nullptr) {}
  88:../../libs/libDaisy/src/hid/audio.h ****     ~AudioHandle() {}
  62              		.loc 6 88 5 is_stmt 1 view .LVU9
  63              		.loc 6 88 5 is_stmt 0 view .LVU10
  64              	.LBE335:
  65              		.loc 1 22 19 view .LVU11
  66 0000 7047     		bx	lr
  67              		.cfi_endproc
  68              	.LFE2671:
  70              		.weak	_ZN5daisy9DaisySeedD1Ev
  71              		.thumb_set _ZN5daisy9DaisySeedD1Ev,_ZN5daisy9DaisySeedD2Ev
  72 0002 00BF     		.section	.text._ZN7daisysp4AdsrD2Ev,"axG",%progbits,_ZN7daisysp4AdsrD5Ev,comdat
  73              		.align	1
  74              		.p2align 2,,3
  75              		.weak	_ZN7daisysp4AdsrD2Ev
  76              		.syntax unified
  77              		.thumb
  78              		.thumb_func
ARM GAS  C:\Users\skipi\AppData\Local\Temp\ccY719VG.s 			page 9


  79              		.fpu fpv5-d16
  81              	_ZN7daisysp4AdsrD2Ev:
  82              	.LVL1:
  83              	.LFB2694:
  84              		.file 7 "../../libs/DaisySP/Source/Control/adsr.h"
   1:../../libs/DaisySP/Source/Control/adsr.h **** /*
   2:../../libs/DaisySP/Source/Control/adsr.h **** Copyright (c) 2020 Electrosmith, Corp, Paul Batchelor
   3:../../libs/DaisySP/Source/Control/adsr.h **** 
   4:../../libs/DaisySP/Source/Control/adsr.h **** Use of this source code is governed by an MIT-style
   5:../../libs/DaisySP/Source/Control/adsr.h **** license that can be found in the LICENSE file or at
   6:../../libs/DaisySP/Source/Control/adsr.h **** https://opensource.org/licenses/MIT.
   7:../../libs/DaisySP/Source/Control/adsr.h **** */
   8:../../libs/DaisySP/Source/Control/adsr.h **** 
   9:../../libs/DaisySP/Source/Control/adsr.h **** #pragma once
  10:../../libs/DaisySP/Source/Control/adsr.h **** #ifndef DSY_ADSR_H
  11:../../libs/DaisySP/Source/Control/adsr.h **** #define DSY_ADSR_H
  12:../../libs/DaisySP/Source/Control/adsr.h **** 
  13:../../libs/DaisySP/Source/Control/adsr.h **** #include <stdint.h>
  14:../../libs/DaisySP/Source/Control/adsr.h **** #ifdef __cplusplus
  15:../../libs/DaisySP/Source/Control/adsr.h **** 
  16:../../libs/DaisySP/Source/Control/adsr.h **** namespace daisysp
  17:../../libs/DaisySP/Source/Control/adsr.h **** {
  18:../../libs/DaisySP/Source/Control/adsr.h **** /** Distinct stages that the phase of the envelope can be located in.
  19:../../libs/DaisySP/Source/Control/adsr.h **** - IDLE   = located at phase location 0, and not currently running
  20:../../libs/DaisySP/Source/Control/adsr.h **** - ATTACK  = First segment of envelope where phase moves from 0 to 1
  21:../../libs/DaisySP/Source/Control/adsr.h **** - DECAY   = Second segment of envelope where phase moves from 1 to SUSTAIN value
  22:../../libs/DaisySP/Source/Control/adsr.h **** - RELEASE =     Fourth segment of envelop where phase moves from SUSTAIN to 0
  23:../../libs/DaisySP/Source/Control/adsr.h **** */
  24:../../libs/DaisySP/Source/Control/adsr.h **** enum
  25:../../libs/DaisySP/Source/Control/adsr.h **** {
  26:../../libs/DaisySP/Source/Control/adsr.h ****     ADSR_SEG_IDLE    = 0,
  27:../../libs/DaisySP/Source/Control/adsr.h ****     ADSR_SEG_ATTACK  = 1,
  28:../../libs/DaisySP/Source/Control/adsr.h ****     ADSR_SEG_DECAY   = 2,
  29:../../libs/DaisySP/Source/Control/adsr.h ****     ADSR_SEG_RELEASE = 4
  30:../../libs/DaisySP/Source/Control/adsr.h **** };
  31:../../libs/DaisySP/Source/Control/adsr.h **** 
  32:../../libs/DaisySP/Source/Control/adsr.h **** 
  33:../../libs/DaisySP/Source/Control/adsr.h **** /** adsr envelope module
  34:../../libs/DaisySP/Source/Control/adsr.h **** 
  35:../../libs/DaisySP/Source/Control/adsr.h **** Original author(s) : Paul Batchelor
  36:../../libs/DaisySP/Source/Control/adsr.h **** 
  37:../../libs/DaisySP/Source/Control/adsr.h **** Ported from Soundpipe by Ben Sergentanis, May 2020
  38:../../libs/DaisySP/Source/Control/adsr.h ****  
  39:../../libs/DaisySP/Source/Control/adsr.h **** Remake by Steffan DIedrichsen, May 2021
  40:../../libs/DaisySP/Source/Control/adsr.h **** */
  41:../../libs/DaisySP/Source/Control/adsr.h **** class Adsr
  42:../../libs/DaisySP/Source/Control/adsr.h **** {
  43:../../libs/DaisySP/Source/Control/adsr.h ****   public:
  44:../../libs/DaisySP/Source/Control/adsr.h ****     Adsr() {}
  45:../../libs/DaisySP/Source/Control/adsr.h ****     ~Adsr() {}
  85              		.loc 7 45 5 is_stmt 1 view -0
  86              		.cfi_startproc
  87              		@ args = 0, pretend = 0, frame = 0
  88              		@ frame_needed = 0, uses_anonymous_args = 0
  89              		@ link register save eliminated.
  90              		.loc 7 45 14 is_stmt 0 view .LVU13
  91 0000 7047     		bx	lr
ARM GAS  C:\Users\skipi\AppData\Local\Temp\ccY719VG.s 			page 10


  92              		.cfi_endproc
  93              	.LFE2694:
  95              		.weak	_ZN7daisysp4AdsrD1Ev
  96              		.thumb_set _ZN7daisysp4AdsrD1Ev,_ZN7daisysp4AdsrD2Ev
  97              		.section	.text._ZN7daisysp10OscillatorD2Ev,"axG",%progbits,_ZN7daisysp10OscillatorD5Ev,comdat
  98              		.align	1
  99              		.p2align 2,,3
 100              		.weak	_ZN7daisysp10OscillatorD2Ev
 101              		.syntax unified
 102              		.thumb
 103              		.thumb_func
 104              		.fpu fpv5-d16
 106              	_ZN7daisysp10OscillatorD2Ev:
 107              	.LVL2:
 108              	.LFB4356:
 109              		.file 8 "../../libs/DaisySP/Source/Synthesis/oscillator.h"
   1:../../libs/DaisySP/Source/Synthesis/oscillator.h **** /*
   2:../../libs/DaisySP/Source/Synthesis/oscillator.h **** Copyright (c) 2020 Electrosmith, Corp
   3:../../libs/DaisySP/Source/Synthesis/oscillator.h **** 
   4:../../libs/DaisySP/Source/Synthesis/oscillator.h **** Use of this source code is governed by an MIT-style
   5:../../libs/DaisySP/Source/Synthesis/oscillator.h **** license that can be found in the LICENSE file or at
   6:../../libs/DaisySP/Source/Synthesis/oscillator.h **** https://opensource.org/licenses/MIT.
   7:../../libs/DaisySP/Source/Synthesis/oscillator.h **** */
   8:../../libs/DaisySP/Source/Synthesis/oscillator.h **** 
   9:../../libs/DaisySP/Source/Synthesis/oscillator.h **** #pragma once
  10:../../libs/DaisySP/Source/Synthesis/oscillator.h **** #ifndef DSY_OSCILLATOR_H
  11:../../libs/DaisySP/Source/Synthesis/oscillator.h **** #define DSY_OSCILLATOR_H
  12:../../libs/DaisySP/Source/Synthesis/oscillator.h **** #include <stdint.h>
  13:../../libs/DaisySP/Source/Synthesis/oscillator.h **** #include "Utility/dsp.h"
  14:../../libs/DaisySP/Source/Synthesis/oscillator.h **** #ifdef __cplusplus
  15:../../libs/DaisySP/Source/Synthesis/oscillator.h **** 
  16:../../libs/DaisySP/Source/Synthesis/oscillator.h **** namespace daisysp
  17:../../libs/DaisySP/Source/Synthesis/oscillator.h **** {
  18:../../libs/DaisySP/Source/Synthesis/oscillator.h **** /** Synthesis of several waveforms, including polyBLEP bandlimited waveforms.
  19:../../libs/DaisySP/Source/Synthesis/oscillator.h **** */
  20:../../libs/DaisySP/Source/Synthesis/oscillator.h **** class Oscillator
  21:../../libs/DaisySP/Source/Synthesis/oscillator.h **** {
  22:../../libs/DaisySP/Source/Synthesis/oscillator.h ****   public:
  23:../../libs/DaisySP/Source/Synthesis/oscillator.h ****     Oscillator() {}
  24:../../libs/DaisySP/Source/Synthesis/oscillator.h ****     ~Oscillator() {}
 110              		.loc 8 24 5 is_stmt 1 view -0
 111              		.cfi_startproc
 112              		@ args = 0, pretend = 0, frame = 0
 113              		@ frame_needed = 0, uses_anonymous_args = 0
 114              		@ link register save eliminated.
 115              		.loc 8 24 20 is_stmt 0 view .LVU15
 116 0000 7047     		bx	lr
 117              		.cfi_endproc
 118              	.LFE4356:
 120              		.weak	_ZN7daisysp10OscillatorD1Ev
 121              		.thumb_set _ZN7daisysp10OscillatorD1Ev,_ZN7daisysp10OscillatorD2Ev
 122              		.section	.text._ZN5daisy6Mpr121INS_18Mpr121I2CTransportEED2Ev,"axG",%progbits,_ZN5daisy6Mpr121INS_
 123              		.align	1
 124              		.p2align 2,,3
 125              		.weak	_ZN5daisy6Mpr121INS_18Mpr121I2CTransportEED2Ev
 126              		.syntax unified
 127              		.thumb
ARM GAS  C:\Users\skipi\AppData\Local\Temp\ccY719VG.s 			page 11


 128              		.thumb_func
 129              		.fpu fpv5-d16
 131              	_ZN5daisy6Mpr121INS_18Mpr121I2CTransportEED2Ev:
 132              	.LVL3:
 133              	.LFB5429:
 134              		.file 9 "../../libs/libDaisy/src/dev/mpr121.h"
   1:../../libs/libDaisy/src/dev/mpr121.h **** #pragma once
   2:../../libs/libDaisy/src/dev/mpr121.h **** #ifndef DSY_MPR121_H
   3:../../libs/libDaisy/src/dev/mpr121.h **** #define DSY_MPR121_H
   4:../../libs/libDaisy/src/dev/mpr121.h **** 
   5:../../libs/libDaisy/src/dev/mpr121.h **** // The default I2C address
   6:../../libs/libDaisy/src/dev/mpr121.h **** #define MPR121_I2CADDR_DEFAULT 0x5A        ///< default I2C address
   7:../../libs/libDaisy/src/dev/mpr121.h **** #define MPR121_TOUCH_THRESHOLD_DEFAULT 2  ///< default touch threshold value
   8:../../libs/libDaisy/src/dev/mpr121.h **** #define MPR121_RELEASE_THRESHOLD_DEFAULT 1 ///< default relese threshold value
   9:../../libs/libDaisy/src/dev/mpr121.h **** 
  10:../../libs/libDaisy/src/dev/mpr121.h **** namespace daisy
  11:../../libs/libDaisy/src/dev/mpr121.h **** {
  12:../../libs/libDaisy/src/dev/mpr121.h **** /** @addtogroup external 
  13:../../libs/libDaisy/src/dev/mpr121.h ****     @{ 
  14:../../libs/libDaisy/src/dev/mpr121.h **** */
  15:../../libs/libDaisy/src/dev/mpr121.h **** 
  16:../../libs/libDaisy/src/dev/mpr121.h **** /** I2C Transport for MPR121 */
  17:../../libs/libDaisy/src/dev/mpr121.h **** class Mpr121I2CTransport
  18:../../libs/libDaisy/src/dev/mpr121.h **** {
  19:../../libs/libDaisy/src/dev/mpr121.h ****   public:
  20:../../libs/libDaisy/src/dev/mpr121.h ****     Mpr121I2CTransport() {}
  21:../../libs/libDaisy/src/dev/mpr121.h ****     ~Mpr121I2CTransport() {}
  22:../../libs/libDaisy/src/dev/mpr121.h **** 
  23:../../libs/libDaisy/src/dev/mpr121.h ****     struct Config
  24:../../libs/libDaisy/src/dev/mpr121.h ****     {
  25:../../libs/libDaisy/src/dev/mpr121.h ****         I2CHandle::Config::Peripheral periph;
  26:../../libs/libDaisy/src/dev/mpr121.h ****         I2CHandle::Config::Speed      speed;
  27:../../libs/libDaisy/src/dev/mpr121.h ****         Pin                           scl;
  28:../../libs/libDaisy/src/dev/mpr121.h ****         Pin                           sda;
  29:../../libs/libDaisy/src/dev/mpr121.h **** 
  30:../../libs/libDaisy/src/dev/mpr121.h ****         I2CHandle::Config::Mode mode;
  31:../../libs/libDaisy/src/dev/mpr121.h **** 
  32:../../libs/libDaisy/src/dev/mpr121.h ****         uint8_t dev_addr;
  33:../../libs/libDaisy/src/dev/mpr121.h **** 
  34:../../libs/libDaisy/src/dev/mpr121.h ****         Config()
  35:../../libs/libDaisy/src/dev/mpr121.h ****         {
  36:../../libs/libDaisy/src/dev/mpr121.h ****             periph = I2CHandle::Config::Peripheral::I2C_1;
  37:../../libs/libDaisy/src/dev/mpr121.h ****             speed  = I2CHandle::Config::Speed::I2C_400KHZ;
  38:../../libs/libDaisy/src/dev/mpr121.h **** 
  39:../../libs/libDaisy/src/dev/mpr121.h ****             scl = Pin(PORTB, 8);
  40:../../libs/libDaisy/src/dev/mpr121.h ****             sda = Pin(PORTB, 9);
  41:../../libs/libDaisy/src/dev/mpr121.h **** 
  42:../../libs/libDaisy/src/dev/mpr121.h ****             dev_addr = MPR121_I2CADDR_DEFAULT;
  43:../../libs/libDaisy/src/dev/mpr121.h ****         }
  44:../../libs/libDaisy/src/dev/mpr121.h ****     };
  45:../../libs/libDaisy/src/dev/mpr121.h **** 
  46:../../libs/libDaisy/src/dev/mpr121.h ****     /** \return Did the transaction error? i.e. Return true if error, false if ok */
  47:../../libs/libDaisy/src/dev/mpr121.h ****     inline bool Init(Config config)
  48:../../libs/libDaisy/src/dev/mpr121.h ****     {
  49:../../libs/libDaisy/src/dev/mpr121.h ****         config_ = config;
  50:../../libs/libDaisy/src/dev/mpr121.h **** 
  51:../../libs/libDaisy/src/dev/mpr121.h ****         I2CHandle::Config i2c_conf;
ARM GAS  C:\Users\skipi\AppData\Local\Temp\ccY719VG.s 			page 12


  52:../../libs/libDaisy/src/dev/mpr121.h ****         i2c_conf.mode   = I2CHandle::Config::Mode::I2C_MASTER;
  53:../../libs/libDaisy/src/dev/mpr121.h ****         i2c_conf.periph = config.periph;
  54:../../libs/libDaisy/src/dev/mpr121.h ****         i2c_conf.speed  = config.speed;
  55:../../libs/libDaisy/src/dev/mpr121.h **** 
  56:../../libs/libDaisy/src/dev/mpr121.h ****         i2c_conf.pin_config.scl = config.scl;
  57:../../libs/libDaisy/src/dev/mpr121.h ****         i2c_conf.pin_config.sda = config.sda;
  58:../../libs/libDaisy/src/dev/mpr121.h **** 
  59:../../libs/libDaisy/src/dev/mpr121.h ****         return I2CHandle::Result::OK != i2c_.Init(i2c_conf);
  60:../../libs/libDaisy/src/dev/mpr121.h ****     }
  61:../../libs/libDaisy/src/dev/mpr121.h **** 
  62:../../libs/libDaisy/src/dev/mpr121.h ****     /** \return Did the transaction error? i.e. Return true if error, false if ok */
  63:../../libs/libDaisy/src/dev/mpr121.h ****     bool Write(uint8_t *data, uint16_t size)
  64:../../libs/libDaisy/src/dev/mpr121.h ****     {
  65:../../libs/libDaisy/src/dev/mpr121.h ****         return I2CHandle::Result::OK
  66:../../libs/libDaisy/src/dev/mpr121.h ****                != i2c_.TransmitBlocking(config_.dev_addr, data, size, 10);
  67:../../libs/libDaisy/src/dev/mpr121.h ****     }
  68:../../libs/libDaisy/src/dev/mpr121.h **** 
  69:../../libs/libDaisy/src/dev/mpr121.h ****     /** \return Did the transaction error? i.e. Return true if error, false if ok */
  70:../../libs/libDaisy/src/dev/mpr121.h ****     bool Read(uint8_t *data, uint16_t size)
  71:../../libs/libDaisy/src/dev/mpr121.h ****     {
  72:../../libs/libDaisy/src/dev/mpr121.h ****         return I2CHandle::Result::OK
  73:../../libs/libDaisy/src/dev/mpr121.h ****                != i2c_.ReceiveBlocking(config_.dev_addr, data, size, 10);
  74:../../libs/libDaisy/src/dev/mpr121.h ****     }
  75:../../libs/libDaisy/src/dev/mpr121.h ****     bool ReadMem(uint8_t *data, uint8_t memAddress, uint16_t memSize)
  76:../../libs/libDaisy/src/dev/mpr121.h ****     {
  77:../../libs/libDaisy/src/dev/mpr121.h ****         return I2CHandle::Result::OK
  78:../../libs/libDaisy/src/dev/mpr121.h ****                != i2c_.Mem_read(
  79:../../libs/libDaisy/src/dev/mpr121.h ****                    config_.dev_addr, memAddress, 1, data, memSize, 10);
  80:../../libs/libDaisy/src/dev/mpr121.h ****     }
  81:../../libs/libDaisy/src/dev/mpr121.h **** 
  82:../../libs/libDaisy/src/dev/mpr121.h ****   private:
  83:../../libs/libDaisy/src/dev/mpr121.h ****     I2CHandle i2c_;
  84:../../libs/libDaisy/src/dev/mpr121.h ****     Config    config_;
  85:../../libs/libDaisy/src/dev/mpr121.h **** };
  86:../../libs/libDaisy/src/dev/mpr121.h **** 
  87:../../libs/libDaisy/src/dev/mpr121.h **** 
  88:../../libs/libDaisy/src/dev/mpr121.h **** /** @brief Device support for MPR121 12x Capacitive Touch Sensor
  89:../../libs/libDaisy/src/dev/mpr121.h ****     @author beserge
  90:../../libs/libDaisy/src/dev/mpr121.h ****     @date December 2021
  91:../../libs/libDaisy/src/dev/mpr121.h **** */
  92:../../libs/libDaisy/src/dev/mpr121.h **** template <typename Transport>
  93:../../libs/libDaisy/src/dev/mpr121.h **** class Mpr121
  94:../../libs/libDaisy/src/dev/mpr121.h **** {
  95:../../libs/libDaisy/src/dev/mpr121.h ****   public:
  96:../../libs/libDaisy/src/dev/mpr121.h ****     Mpr121() {}
  97:../../libs/libDaisy/src/dev/mpr121.h ****     ~Mpr121() {}
 135              		.loc 9 97 5 is_stmt 1 view -0
 136              		.cfi_startproc
 137              		@ args = 0, pretend = 0, frame = 0
 138              		@ frame_needed = 0, uses_anonymous_args = 0
 139              		@ link register save eliminated.
 140              	.LBB336:
 141              	.LBI336:
  21:../../libs/libDaisy/src/dev/mpr121.h **** 
 142              		.loc 9 21 5 view .LVU17
  21:../../libs/libDaisy/src/dev/mpr121.h **** 
 143              		.loc 9 21 5 is_stmt 0 view .LVU18
ARM GAS  C:\Users\skipi\AppData\Local\Temp\ccY719VG.s 			page 13


 144              	.LBE336:
 145              		.loc 9 97 16 view .LVU19
 146 0000 7047     		bx	lr
 147              		.cfi_endproc
 148              	.LFE5429:
 150              		.weak	_ZN5daisy6Mpr121INS_18Mpr121I2CTransportEED1Ev
 151              		.thumb_set _ZN5daisy6Mpr121INS_18Mpr121I2CTransportEED1Ev,_ZN5daisy6Mpr121INS_18Mpr121I2CTransport
 152 0002 00BF     		.section	.text._ZL13AudioCallbackPKfPfj,"ax",%progbits
 153              		.align	1
 154              		.p2align 2,,3
 155              		.syntax unified
 156              		.thumb
 157              		.thumb_func
 158              		.fpu fpv5-d16
 160              	_ZL13AudioCallbackPKfPfj:
 161              	.LVL4:
 162              	.LFB4848:
 163              		.file 10 "main.cpp"
   1:main.cpp      **** #include "../../libs/libDaisy/src/daisy_seed.h"
   2:main.cpp      **** #include "../../libs/DaisySP/Source/daisysp.h"
   3:main.cpp      **** #include "../../Classes/Temperamento/PlantConditioner.h"
   4:main.cpp      **** #include "../../Classes/Effects/AnalogDelay/src/AnalogDelay.h"
   5:main.cpp      **** #include "../../Classes/SensorFilters/IIR/IIR.h"
   6:main.cpp      **** #include "../../Classes/SensorFilters/MF/MF.h"
   7:main.cpp      **** 
   8:main.cpp      **** #ifndef _BV
   9:main.cpp      **** #define _BV(bit) (1 << (bit))
  10:main.cpp      **** #endif
  11:main.cpp      **** 
  12:main.cpp      **** // Configurazioni
  13:main.cpp      **** #define ADC_CH 2
  14:main.cpp      **** //#define DEBUG
  15:main.cpp      **** //#define csvAcquisition
  16:main.cpp      **** 
  17:main.cpp      **** using namespace daisy;
  18:main.cpp      **** using namespace daisysp;
  19:main.cpp      **** 
  20:main.cpp      **** // Oggetti Globali
  21:main.cpp      **** daisy::Mpr121I2C::Config mpr121ObjConf;
  22:main.cpp      **** daisy::Mpr121I2C cap;
  23:main.cpp      **** DaisySeed hw;
  24:main.cpp      **** AdcChannelConfig adcConfig[ADC_CH];
  25:main.cpp      **** PlantConditioner pc;
  26:main.cpp      **** static Oscillator osc;
  27:main.cpp      **** static Adsr env;
  28:main.cpp      **** 
  29:main.cpp      **** // Variabili di stato
  30:main.cpp      **** float f = 440.0f; // Frequenza corrente
  31:main.cpp      **** bool gate = false;
  32:main.cpp      **** uint16_t lastTouched = 0;
  33:main.cpp      **** uint16_t currTouched = 0;
  34:main.cpp      **** 
  35:main.cpp      **** // Variabili per debug/stampa
  36:main.cpp      **** bool flag = false;
  37:main.cpp      **** int k = 0;
  38:main.cpp      **** 
  39:main.cpp      **** static void AudioCallback(AudioHandle::InterleavingInputBuffer in, AudioHandle::InterleavingOutputB
ARM GAS  C:\Users\skipi\AppData\Local\Temp\ccY719VG.s 			page 14


  40:main.cpp      **** {
 164              		.loc 10 40 1 is_stmt 1 view -0
 165              		.cfi_startproc
 166              		@ args = 0, pretend = 0, frame = 0
 167              		@ frame_needed = 0, uses_anonymous_args = 0
  41:main.cpp      ****     float envOut, oscOut;
 168              		.loc 10 41 5 view .LVU21
  42:main.cpp      ****     for (size_t i = 0; i < size; i += 2)
 169              		.loc 10 42 5 view .LVU22
 170              	.LBB337:
 171              		.loc 10 42 26 view .LVU23
 172 0000 FAB1     		cbz	r2, .L14
 173 0002 013A     		subs	r2, r2, #1
 174              	.LVL5:
 175              		.loc 10 42 26 is_stmt 0 view .LVU24
 176              	.LBE337:
  40:main.cpp      ****     float envOut, oscOut;
 177              		.loc 10 40 1 view .LVU25
 178 0004 2DE9F041 		push	{r4, r5, r6, r7, r8, lr}
 179              		.cfi_def_cfa_offset 24
 180              		.cfi_offset 4, -24
 181              		.cfi_offset 5, -20
 182              		.cfi_offset 6, -16
 183              		.cfi_offset 7, -12
 184              		.cfi_offset 8, -8
 185              		.cfi_offset 14, -4
 186 0008 0C46     		mov	r4, r1
 187              	.LBB342:
 188              		.loc 10 42 26 view .LVU26
 189 000a 0025     		movs	r5, #0
 190 000c DFF83C80 		ldr	r8, .L17+8
 191 0010 5608     		lsrs	r6, r2, #1
 192 0012 0C4F     		ldr	r7, .L17
 193              	.LVL6:
 194              	.L8:
  43:main.cpp      ****     {
  44:main.cpp      ****         // Calcolo Enviluppo e Oscillatore
  45:main.cpp      ****         envOut = env.Process(gate);
 195              		.loc 10 45 9 is_stmt 1 discriminator 2 view .LVU27
 196              		.loc 10 45 29 is_stmt 0 discriminator 2 view .LVU28
 197 0014 98F80010 		ldrb	r1, [r8]	@ zero_extendqisi2
 198 0018 0B48     		ldr	r0, .L17+4
 199 001a FFF7FEFF 		bl	_ZN7daisysp4Adsr7ProcessEb
 200              	.LVL7:
  46:main.cpp      ****         osc.SetAmp(envOut);
 201              		.loc 10 46 9 is_stmt 1 discriminator 2 view .LVU29
 202              	.LBB338:
 203              	.LBI338:
  25:../../libs/DaisySP/Source/Synthesis/oscillator.h ****     /** Choices for output waveforms, POLYBLEP are appropriately labeled. Others are naive forms.
  26:../../libs/DaisySP/Source/Synthesis/oscillator.h ****     */
  27:../../libs/DaisySP/Source/Synthesis/oscillator.h ****     enum
  28:../../libs/DaisySP/Source/Synthesis/oscillator.h ****     {
  29:../../libs/DaisySP/Source/Synthesis/oscillator.h ****         WAVE_SIN,
  30:../../libs/DaisySP/Source/Synthesis/oscillator.h ****         WAVE_TRI,
  31:../../libs/DaisySP/Source/Synthesis/oscillator.h ****         WAVE_SAW,
  32:../../libs/DaisySP/Source/Synthesis/oscillator.h ****         WAVE_RAMP,
  33:../../libs/DaisySP/Source/Synthesis/oscillator.h ****         WAVE_SQUARE,
ARM GAS  C:\Users\skipi\AppData\Local\Temp\ccY719VG.s 			page 15


  34:../../libs/DaisySP/Source/Synthesis/oscillator.h ****         WAVE_POLYBLEP_TRI,
  35:../../libs/DaisySP/Source/Synthesis/oscillator.h ****         WAVE_POLYBLEP_SAW,
  36:../../libs/DaisySP/Source/Synthesis/oscillator.h ****         WAVE_POLYBLEP_SQUARE,
  37:../../libs/DaisySP/Source/Synthesis/oscillator.h ****         WAVE_LAST,
  38:../../libs/DaisySP/Source/Synthesis/oscillator.h ****     };
  39:../../libs/DaisySP/Source/Synthesis/oscillator.h **** 
  40:../../libs/DaisySP/Source/Synthesis/oscillator.h **** 
  41:../../libs/DaisySP/Source/Synthesis/oscillator.h ****     /** Initializes the Oscillator
  42:../../libs/DaisySP/Source/Synthesis/oscillator.h **** 
  43:../../libs/DaisySP/Source/Synthesis/oscillator.h ****         \param sample_rate - sample rate of the audio engine being run, and the frequency that the 
  44:../../libs/DaisySP/Source/Synthesis/oscillator.h **** 
  45:../../libs/DaisySP/Source/Synthesis/oscillator.h ****         Defaults:
  46:../../libs/DaisySP/Source/Synthesis/oscillator.h ****         - freq_ = 100 Hz
  47:../../libs/DaisySP/Source/Synthesis/oscillator.h ****         - amp_ = 0.5
  48:../../libs/DaisySP/Source/Synthesis/oscillator.h ****         - waveform_ = sine wave.
  49:../../libs/DaisySP/Source/Synthesis/oscillator.h ****     */
  50:../../libs/DaisySP/Source/Synthesis/oscillator.h ****     void Init(float sample_rate)
  51:../../libs/DaisySP/Source/Synthesis/oscillator.h ****     {
  52:../../libs/DaisySP/Source/Synthesis/oscillator.h ****         sr_        = sample_rate;
  53:../../libs/DaisySP/Source/Synthesis/oscillator.h ****         sr_recip_  = 1.0f / sample_rate;
  54:../../libs/DaisySP/Source/Synthesis/oscillator.h ****         freq_      = 100.0f;
  55:../../libs/DaisySP/Source/Synthesis/oscillator.h ****         amp_       = 0.5f;
  56:../../libs/DaisySP/Source/Synthesis/oscillator.h ****         pw_        = 0.5f;
  57:../../libs/DaisySP/Source/Synthesis/oscillator.h ****         phase_     = 0.0f;
  58:../../libs/DaisySP/Source/Synthesis/oscillator.h ****         phase_inc_ = CalcPhaseInc(freq_);
  59:../../libs/DaisySP/Source/Synthesis/oscillator.h ****         waveform_  = WAVE_SIN;
  60:../../libs/DaisySP/Source/Synthesis/oscillator.h ****         eoc_       = true;
  61:../../libs/DaisySP/Source/Synthesis/oscillator.h ****         eor_       = true;
  62:../../libs/DaisySP/Source/Synthesis/oscillator.h ****     }
  63:../../libs/DaisySP/Source/Synthesis/oscillator.h **** 
  64:../../libs/DaisySP/Source/Synthesis/oscillator.h **** 
  65:../../libs/DaisySP/Source/Synthesis/oscillator.h ****     /** Changes the frequency of the Oscillator, and recalculates phase increment.
  66:../../libs/DaisySP/Source/Synthesis/oscillator.h ****     */
  67:../../libs/DaisySP/Source/Synthesis/oscillator.h ****     inline void SetFreq(const float f)
  68:../../libs/DaisySP/Source/Synthesis/oscillator.h ****     {
  69:../../libs/DaisySP/Source/Synthesis/oscillator.h ****         freq_      = f;
  70:../../libs/DaisySP/Source/Synthesis/oscillator.h ****         phase_inc_ = CalcPhaseInc(f);
  71:../../libs/DaisySP/Source/Synthesis/oscillator.h ****     }
  72:../../libs/DaisySP/Source/Synthesis/oscillator.h **** 
  73:../../libs/DaisySP/Source/Synthesis/oscillator.h **** 
  74:../../libs/DaisySP/Source/Synthesis/oscillator.h ****     /** Sets the amplitude of the waveform.
  75:../../libs/DaisySP/Source/Synthesis/oscillator.h ****     */
  76:../../libs/DaisySP/Source/Synthesis/oscillator.h ****     inline void SetAmp(const float a) { amp_ = a; }
 204              		.loc 8 76 17 discriminator 2 view .LVU30
 205              	.LBB339:
 206              		.loc 8 76 41 discriminator 2 view .LVU31
 207              	.LBE339:
 208              	.LBE338:
  47:main.cpp      ****         oscOut = osc.Process();
 209              		.loc 10 47 29 is_stmt 0 discriminator 2 view .LVU32
 210 001e 0948     		ldr	r0, .L17
 211              	.LBB341:
 212              	.LBB340:
 213              		.loc 8 76 46 discriminator 2 view .LVU33
 214 0020 87ED010A 		vstr.32	s0, [r7, #4]
 215              	.LVL8:
 216              		.loc 8 76 46 discriminator 2 view .LVU34
ARM GAS  C:\Users\skipi\AppData\Local\Temp\ccY719VG.s 			page 16


 217              	.LBE340:
 218              	.LBE341:
 219              		.loc 10 47 9 is_stmt 1 discriminator 2 view .LVU35
 220              		.loc 10 47 29 is_stmt 0 discriminator 2 view .LVU36
 221 0024 FFF7FEFF 		bl	_ZN7daisysp10Oscillator7ProcessEv
 222              	.LVL9:
  48:main.cpp      **** 
  49:main.cpp      ****         out[i] = out[i + 1] = oscOut;
 223              		.loc 10 49 9 is_stmt 1 discriminator 2 view .LVU37
 224              		.loc 10 49 16 is_stmt 0 discriminator 2 view .LVU38
 225 0028 2246     		mov	r2, r4
  42:main.cpp      ****     {
 226              		.loc 10 42 26 discriminator 2 view .LVU39
 227 002a AE42     		cmp	r6, r5
 228              		.loc 10 49 29 discriminator 2 view .LVU40
 229 002c 84ED010A 		vstr.32	s0, [r4, #4]
  42:main.cpp      ****     {
 230              		.loc 10 42 26 discriminator 2 view .LVU41
 231 0030 05F10105 		add	r5, r5, #1
 232              	.LVL10:
 233              		.loc 10 49 16 discriminator 2 view .LVU42
 234 0034 04F10804 		add	r4, r4, #8
 235 0038 82ED000A 		vstr.32	s0, [r2]
  42:main.cpp      ****     {
 236              		.loc 10 42 5 is_stmt 1 discriminator 2 view .LVU43
 237              	.LVL11:
  42:main.cpp      ****     {
 238              		.loc 10 42 26 discriminator 2 view .LVU44
 239 003c EAD1     		bne	.L8
 240              	.LBE342:
  50:main.cpp      ****     }
  51:main.cpp      **** }
 241              		.loc 10 51 1 is_stmt 0 view .LVU45
 242 003e BDE8F081 		pop	{r4, r5, r6, r7, r8, pc}
 243              	.LVL12:
 244              	.L14:
 245              		.cfi_def_cfa_offset 0
 246              		.cfi_restore 4
 247              		.cfi_restore 5
 248              		.cfi_restore 6
 249              		.cfi_restore 7
 250              		.cfi_restore 8
 251              		.cfi_restore 14
 252              		.loc 10 51 1 view .LVU46
 253 0042 7047     		bx	lr
 254              	.L18:
 255              		.align	2
 256              	.L17:
 257 0044 00000000 		.word	.LANCHOR2
 258 0048 00000000 		.word	.LANCHOR1
 259 004c 00000000 		.word	.LANCHOR0
 260              		.cfi_endproc
 261              	.LFE4848:
 263              		.section	.text._ZN5daisy6Mpr121INS_18Mpr121I2CTransportEE13WriteRegisterEhh,"axG",%progbits,_ZN5da
 264              		.align	1
 265              		.p2align 2,,3
 266              		.weak	_ZN5daisy6Mpr121INS_18Mpr121I2CTransportEE13WriteRegisterEhh
ARM GAS  C:\Users\skipi\AppData\Local\Temp\ccY719VG.s 			page 17


 267              		.syntax unified
 268              		.thumb
 269              		.thumb_func
 270              		.fpu fpv5-d16
 272              	_ZN5daisy6Mpr121INS_18Mpr121I2CTransportEE13WriteRegisterEhh:
 273              	.LVL13:
 274              	.LFB5283:
  98:../../libs/libDaisy/src/dev/mpr121.h **** 
  99:../../libs/libDaisy/src/dev/mpr121.h ****     struct Config
 100:../../libs/libDaisy/src/dev/mpr121.h ****     {
 101:../../libs/libDaisy/src/dev/mpr121.h ****         typename Transport::Config transport_config;
 102:../../libs/libDaisy/src/dev/mpr121.h ****         uint8_t                    touch_threshold;
 103:../../libs/libDaisy/src/dev/mpr121.h ****         uint8_t                    release_threshold;
 104:../../libs/libDaisy/src/dev/mpr121.h **** 
 105:../../libs/libDaisy/src/dev/mpr121.h ****         Config()
 106:../../libs/libDaisy/src/dev/mpr121.h ****         {
 107:../../libs/libDaisy/src/dev/mpr121.h ****             touch_threshold   = MPR121_TOUCH_THRESHOLD_DEFAULT;
 108:../../libs/libDaisy/src/dev/mpr121.h ****             release_threshold = MPR121_RELEASE_THRESHOLD_DEFAULT;
 109:../../libs/libDaisy/src/dev/mpr121.h ****         }
 110:../../libs/libDaisy/src/dev/mpr121.h ****     };
 111:../../libs/libDaisy/src/dev/mpr121.h **** 
 112:../../libs/libDaisy/src/dev/mpr121.h ****     enum Result
 113:../../libs/libDaisy/src/dev/mpr121.h ****     {
 114:../../libs/libDaisy/src/dev/mpr121.h ****         OK = 0,
 115:../../libs/libDaisy/src/dev/mpr121.h ****         ERR
 116:../../libs/libDaisy/src/dev/mpr121.h ****     };
 117:../../libs/libDaisy/src/dev/mpr121.h **** 
 118:../../libs/libDaisy/src/dev/mpr121.h ****     /** Initialize the MPR121 device
 119:../../libs/libDaisy/src/dev/mpr121.h ****         \param config Configuration settings
 120:../../libs/libDaisy/src/dev/mpr121.h ****     */
 121:../../libs/libDaisy/src/dev/mpr121.h ****     Result Init(Config config)
 122:../../libs/libDaisy/src/dev/mpr121.h ****     {
 123:../../libs/libDaisy/src/dev/mpr121.h ****         config_ = config;
 124:../../libs/libDaisy/src/dev/mpr121.h **** 
 125:../../libs/libDaisy/src/dev/mpr121.h ****         SetTransportErr(transport_.Init(config_.transport_config));
 126:../../libs/libDaisy/src/dev/mpr121.h **** 
 127:../../libs/libDaisy/src/dev/mpr121.h ****         // soft reset
 128:../../libs/libDaisy/src/dev/mpr121.h ****         WriteRegister(MPR121_SOFTRESET, 0x63);
 129:../../libs/libDaisy/src/dev/mpr121.h ****         System::Delay(1);
 130:../../libs/libDaisy/src/dev/mpr121.h **** 
 131:../../libs/libDaisy/src/dev/mpr121.h ****         WriteRegister(MPR121_ECR, 0x0);
 132:../../libs/libDaisy/src/dev/mpr121.h **** 
 133:../../libs/libDaisy/src/dev/mpr121.h ****         // this doesn't work for some reason...
 134:../../libs/libDaisy/src/dev/mpr121.h ****         // uint8_t c = ReadRegister8(MPR121_CONFIG2);
 135:../../libs/libDaisy/src/dev/mpr121.h **** 
 136:../../libs/libDaisy/src/dev/mpr121.h ****         // if(c != 0x24)
 137:../../libs/libDaisy/src/dev/mpr121.h ****         //     return ERR;
 138:../../libs/libDaisy/src/dev/mpr121.h **** 
 139:../../libs/libDaisy/src/dev/mpr121.h ****         SetThresholds(config_.touch_threshold, config_.release_threshold);
 140:../../libs/libDaisy/src/dev/mpr121.h ****         WriteRegister(MPR121_MHDR, 0x01);
 141:../../libs/libDaisy/src/dev/mpr121.h ****         WriteRegister(MPR121_NHDR, 0x01);
 142:../../libs/libDaisy/src/dev/mpr121.h ****         WriteRegister(MPR121_NCLR, 0x0E);
 143:../../libs/libDaisy/src/dev/mpr121.h ****         WriteRegister(MPR121_FDLR, 0x00);
 144:../../libs/libDaisy/src/dev/mpr121.h **** 
 145:../../libs/libDaisy/src/dev/mpr121.h ****         WriteRegister(MPR121_MHDF, 0x01);
 146:../../libs/libDaisy/src/dev/mpr121.h ****         WriteRegister(MPR121_NHDF, 0x05);
 147:../../libs/libDaisy/src/dev/mpr121.h ****         WriteRegister(MPR121_NCLF, 0x01);
ARM GAS  C:\Users\skipi\AppData\Local\Temp\ccY719VG.s 			page 18


 148:../../libs/libDaisy/src/dev/mpr121.h ****         WriteRegister(MPR121_FDLF, 0x00);
 149:../../libs/libDaisy/src/dev/mpr121.h **** 
 150:../../libs/libDaisy/src/dev/mpr121.h ****         WriteRegister(MPR121_NHDT, 0x00);
 151:../../libs/libDaisy/src/dev/mpr121.h ****         WriteRegister(MPR121_NCLT, 0x00);
 152:../../libs/libDaisy/src/dev/mpr121.h ****         WriteRegister(MPR121_FDLT, 0x00);
 153:../../libs/libDaisy/src/dev/mpr121.h **** 
 154:../../libs/libDaisy/src/dev/mpr121.h ****         WriteRegister(MPR121_DEBOUNCE, 0);
 155:../../libs/libDaisy/src/dev/mpr121.h ****         WriteRegister(MPR121_CONFIG1, 0x10); // default, 16uA charge current
 156:../../libs/libDaisy/src/dev/mpr121.h ****         WriteRegister(MPR121_CONFIG2, 0x20); // 0.5uS encoding, 1ms period
 157:../../libs/libDaisy/src/dev/mpr121.h **** 
 158:../../libs/libDaisy/src/dev/mpr121.h ****         // autoconfig
 159:../../libs/libDaisy/src/dev/mpr121.h ****         // WriteRegister(MPR121_AUTOCONFIG0, 0x0B);
 160:../../libs/libDaisy/src/dev/mpr121.h **** 
 161:../../libs/libDaisy/src/dev/mpr121.h ****         // correct values for Vdd = 3.3V
 162:../../libs/libDaisy/src/dev/mpr121.h ****         // WriteRegister(MPR121_UPLIMIT, 200);     // ((Vdd - 0.7)/Vdd) * 256
 163:../../libs/libDaisy/src/dev/mpr121.h ****         // WriteRegister(MPR121_TARGETLIMIT, 180); // UPLIMIT * 0.9
 164:../../libs/libDaisy/src/dev/mpr121.h ****         // WriteRegister(MPR121_LOWLIMIT, 130);    // UPLIMIT * 0.65
 165:../../libs/libDaisy/src/dev/mpr121.h ****         // autoconfig
 166:../../libs/libDaisy/src/dev/mpr121.h **** 
 167:../../libs/libDaisy/src/dev/mpr121.h ****         // enable X electrodes and start MPR121
 168:../../libs/libDaisy/src/dev/mpr121.h ****         uint8_t ECR_SETTING
 169:../../libs/libDaisy/src/dev/mpr121.h ****             = 0x80
 170:../../libs/libDaisy/src/dev/mpr121.h ****               + 12; // 5 bits for baseline tracking & proximity disabled + X
 171:../../libs/libDaisy/src/dev/mpr121.h ****                     // amount of electrodes running (12)
 172:../../libs/libDaisy/src/dev/mpr121.h ****         WriteRegister(MPR121_ECR,
 173:../../libs/libDaisy/src/dev/mpr121.h ****                       ECR_SETTING); // start with above ECR setting
 174:../../libs/libDaisy/src/dev/mpr121.h **** 
 175:../../libs/libDaisy/src/dev/mpr121.h ****         return GetTransportErr();
 176:../../libs/libDaisy/src/dev/mpr121.h ****     }
 177:../../libs/libDaisy/src/dev/mpr121.h **** 
 178:../../libs/libDaisy/src/dev/mpr121.h ****     /** Set the touch and release thresholds for all 13 channels on the
 179:../../libs/libDaisy/src/dev/mpr121.h ****         device to the passed values.
 180:../../libs/libDaisy/src/dev/mpr121.h ****         \param      touch The touch threshold value from 0 to 255.
 181:../../libs/libDaisy/src/dev/mpr121.h ****         \param      release The release threshold from 0 to 255.
 182:../../libs/libDaisy/src/dev/mpr121.h ****     */
 183:../../libs/libDaisy/src/dev/mpr121.h ****     void SetThresholds(uint8_t touch, uint8_t release)
 184:../../libs/libDaisy/src/dev/mpr121.h ****     {
 185:../../libs/libDaisy/src/dev/mpr121.h ****         // set all thresholds (the same)
 186:../../libs/libDaisy/src/dev/mpr121.h ****         for(uint8_t i = 0; i < 12; i++)
 187:../../libs/libDaisy/src/dev/mpr121.h ****         {
 188:../../libs/libDaisy/src/dev/mpr121.h ****             WriteRegister(MPR121_TOUCHTH_0 + 2 * i, touch);
 189:../../libs/libDaisy/src/dev/mpr121.h ****             WriteRegister(MPR121_RELEASETH_0 + 2 * i, release);
 190:../../libs/libDaisy/src/dev/mpr121.h ****         }
 191:../../libs/libDaisy/src/dev/mpr121.h ****     }
 192:../../libs/libDaisy/src/dev/mpr121.h **** 
 193:../../libs/libDaisy/src/dev/mpr121.h **** 
 194:../../libs/libDaisy/src/dev/mpr121.h ****     /** Read the filtered data from channel t. The ADC raw data outputs
 195:../../libs/libDaisy/src/dev/mpr121.h ****         run through 3 levels of digital filtering to filter out the high
 196:../../libs/libDaisy/src/dev/mpr121.h ****         frequency and low frequency noise encountered. For detailed information on
 197:../../libs/libDaisy/src/dev/mpr121.h ****         this filtering see page 6 of the device datasheet.
 198:../../libs/libDaisy/src/dev/mpr121.h ****         \param      t the channel to read
 199:../../libs/libDaisy/src/dev/mpr121.h ****         \returns    the filtered reading as a 10 bit unsigned value
 200:../../libs/libDaisy/src/dev/mpr121.h ****     */
 201:../../libs/libDaisy/src/dev/mpr121.h ****     uint16_t FilteredData(uint8_t t)
 202:../../libs/libDaisy/src/dev/mpr121.h ****     {
 203:../../libs/libDaisy/src/dev/mpr121.h ****         if(t > 12)
 204:../../libs/libDaisy/src/dev/mpr121.h ****             return 0;
ARM GAS  C:\Users\skipi\AppData\Local\Temp\ccY719VG.s 			page 19


 205:../../libs/libDaisy/src/dev/mpr121.h ****         return ReadRegister16(MPR121_FILTDATA_0L + t * 2);
 206:../../libs/libDaisy/src/dev/mpr121.h ****     }
 207:../../libs/libDaisy/src/dev/mpr121.h **** 
 208:../../libs/libDaisy/src/dev/mpr121.h ****     /** Read the baseline value for the channel. The 3rd level filtered
 209:../../libs/libDaisy/src/dev/mpr121.h ****         result is internally 10bit but only high 8 bits are readable
 210:../../libs/libDaisy/src/dev/mpr121.h ****         from registers 0x1E~0x2A as the baseline value output for each channel.
 211:../../libs/libDaisy/src/dev/mpr121.h ****         \param      t the channel to read.
 212:../../libs/libDaisy/src/dev/mpr121.h ****         \returns    the baseline data that was read
 213:../../libs/libDaisy/src/dev/mpr121.h ****     */
 214:../../libs/libDaisy/src/dev/mpr121.h ****     uint16_t BaselineData(uint8_t t)
 215:../../libs/libDaisy/src/dev/mpr121.h ****     {
 216:../../libs/libDaisy/src/dev/mpr121.h ****         if(t > 12)
 217:../../libs/libDaisy/src/dev/mpr121.h ****             return 0;
 218:../../libs/libDaisy/src/dev/mpr121.h ****         uint16_t bl = ReadRegister8(MPR121_BASELINE_0 + t);
 219:../../libs/libDaisy/src/dev/mpr121.h ****         return (bl << 2);
 220:../../libs/libDaisy/src/dev/mpr121.h ****     }
 221:../../libs/libDaisy/src/dev/mpr121.h **** 
 222:../../libs/libDaisy/src/dev/mpr121.h ****     /** Read the touch status of all 13 channels as bit values in a 12 bit integer.
 223:../../libs/libDaisy/src/dev/mpr121.h ****         \returns    a 12 bit integer with each bit corresponding to the touch status
 224:../../libs/libDaisy/src/dev/mpr121.h ****         of a sensor. For example, if bit 0 is set then channel 0 of the
 225:../../libs/libDaisy/src/dev/mpr121.h ****         device is currently deemed to be touched.
 226:../../libs/libDaisy/src/dev/mpr121.h ****     */
 227:../../libs/libDaisy/src/dev/mpr121.h ****     uint16_t Touched()
 228:../../libs/libDaisy/src/dev/mpr121.h ****     {
 229:../../libs/libDaisy/src/dev/mpr121.h ****         uint16_t t = ReadRegister16(MPR121_TOUCHSTATUS_L);
 230:../../libs/libDaisy/src/dev/mpr121.h ****         return t & 0x0FFF;
 231:../../libs/libDaisy/src/dev/mpr121.h ****     }
 232:../../libs/libDaisy/src/dev/mpr121.h **** 
 233:../../libs/libDaisy/src/dev/mpr121.h ****     /** Read the contents of an 8 bit device register.
 234:../../libs/libDaisy/src/dev/mpr121.h ****         \param      reg the register address to read from
 235:../../libs/libDaisy/src/dev/mpr121.h ****         \returns    the 8 bit value that was read.
 236:../../libs/libDaisy/src/dev/mpr121.h ****     */
 237:../../libs/libDaisy/src/dev/mpr121.h ****     uint8_t ReadRegister8(uint8_t reg)
 238:../../libs/libDaisy/src/dev/mpr121.h ****     {
 239:../../libs/libDaisy/src/dev/mpr121.h ****         uint8_t buff;
 240:../../libs/libDaisy/src/dev/mpr121.h ****         SetTransportErr(transport_.ReadMem(&buff, reg, 1));
 241:../../libs/libDaisy/src/dev/mpr121.h ****         return buff;
 242:../../libs/libDaisy/src/dev/mpr121.h ****     }
 243:../../libs/libDaisy/src/dev/mpr121.h **** 
 244:../../libs/libDaisy/src/dev/mpr121.h ****     uint16_t ReadRegister16(uint8_t reg)
 245:../../libs/libDaisy/src/dev/mpr121.h ****     {
 246:../../libs/libDaisy/src/dev/mpr121.h ****         uint16_t buff;
 247:../../libs/libDaisy/src/dev/mpr121.h ****         SetTransportErr(transport_.ReadMem((uint8_t *)&buff, reg, 2));
 248:../../libs/libDaisy/src/dev/mpr121.h **** 
 249:../../libs/libDaisy/src/dev/mpr121.h **** 
 250:../../libs/libDaisy/src/dev/mpr121.h ****         return buff;
 251:../../libs/libDaisy/src/dev/mpr121.h ****     }
 252:../../libs/libDaisy/src/dev/mpr121.h **** 
 253:../../libs/libDaisy/src/dev/mpr121.h ****     /** Writes 8-bits to the specified destination register
 254:../../libs/libDaisy/src/dev/mpr121.h ****         \param  reg the register address to write to
 255:../../libs/libDaisy/src/dev/mpr121.h ****         \param  value the value to write
 256:../../libs/libDaisy/src/dev/mpr121.h ****     */
 257:../../libs/libDaisy/src/dev/mpr121.h ****     void WriteRegister(uint8_t reg, uint8_t value)
 275              		.loc 9 257 10 is_stmt 1 view -0
 276              		.cfi_startproc
 277              		@ args = 0, pretend = 0, frame = 8
 278              		@ frame_needed = 0, uses_anonymous_args = 0
ARM GAS  C:\Users\skipi\AppData\Local\Temp\ccY719VG.s 			page 20


 279              		.loc 9 257 10 is_stmt 0 view .LVU48
 280 0000 2DE9F043 		push	{r4, r5, r6, r7, r8, r9, lr}
 281              		.cfi_def_cfa_offset 28
 282              		.cfi_offset 4, -28
 283              		.cfi_offset 5, -24
 284              		.cfi_offset 6, -20
 285              		.cfi_offset 7, -16
 286              		.cfi_offset 8, -12
 287              		.cfi_offset 9, -8
 288              		.cfi_offset 14, -4
 258:../../libs/libDaisy/src/dev/mpr121.h ****     {
 259:../../libs/libDaisy/src/dev/mpr121.h ****         // MPR121 must be put in Stop Mode to write to most registers
 260:../../libs/libDaisy/src/dev/mpr121.h ****         bool stop_required = true;
 261:../../libs/libDaisy/src/dev/mpr121.h **** 
 262:../../libs/libDaisy/src/dev/mpr121.h ****         // first get the current set value of the MPR121_ECR register
 263:../../libs/libDaisy/src/dev/mpr121.h ****         uint8_t ecr_reg = MPR121_ECR;
 264:../../libs/libDaisy/src/dev/mpr121.h ****         uint8_t buff[2] = {ecr_reg, 0x00};
 289              		.loc 9 264 17 view .LVU49
 290 0004 0023     		movs	r3, #0
 257:../../libs/libDaisy/src/dev/mpr121.h ****     {
 291              		.loc 9 257 10 view .LVU50
 292 0006 85B0     		sub	sp, sp, #20
 293              		.cfi_def_cfa_offset 48
 294              	.LBB373:
 295              	.LBB374:
  66:../../libs/libDaisy/src/dev/mpr121.h ****     }
 296              		.loc 9 66 40 view .LVU51
 297 0008 00F11806 		add	r6, r0, #24
 298 000c 4FF00A08 		mov	r8, #10
 299              	.LBE374:
 300              	.LBE373:
 257:../../libs/libDaisy/src/dev/mpr121.h ****     {
 301              		.loc 9 257 10 view .LVU52
 302 0010 0446     		mov	r4, r0
 303              		.loc 9 264 17 view .LVU53
 304 0012 4FF05E09 		mov	r9, #94
 257:../../libs/libDaisy/src/dev/mpr121.h ****     {
 305              		.loc 9 257 10 view .LVU54
 306 0016 0D46     		mov	r5, r1
 307              		.loc 9 264 17 view .LVU55
 308 0018 8DF80D30 		strb	r3, [sp, #13]
 309              	.LBB378:
 310              	.LBB375:
  66:../../libs/libDaisy/src/dev/mpr121.h ****     }
 311              		.loc 9 66 40 view .LVU56
 312 001c CDF80080 		str	r8, [sp]
 313 0020 0123     		movs	r3, #1
 314 0022 90F82C10 		ldrb	r1, [r0, #44]	@ zero_extendqisi2
 315              	.LVL14:
  66:../../libs/libDaisy/src/dev/mpr121.h ****     }
 316              		.loc 9 66 40 view .LVU57
 317              	.LBE375:
 318              	.LBE378:
 257:../../libs/libDaisy/src/dev/mpr121.h ****     {
 319              		.loc 9 257 10 view .LVU58
 320 0026 1746     		mov	r7, r2
 321              	.LBB379:
ARM GAS  C:\Users\skipi\AppData\Local\Temp\ccY719VG.s 			page 21


 322              	.LBB376:
  66:../../libs/libDaisy/src/dev/mpr121.h ****     }
 323              		.loc 9 66 40 view .LVU59
 324 0028 3046     		mov	r0, r6
 325              	.LVL15:
  66:../../libs/libDaisy/src/dev/mpr121.h ****     }
 326              		.loc 9 66 40 view .LVU60
 327 002a 03AA     		add	r2, sp, #12
 328              	.LVL16:
  66:../../libs/libDaisy/src/dev/mpr121.h ****     }
 329              		.loc 9 66 40 view .LVU61
 330              	.LBE376:
 331              	.LBE379:
 332              		.loc 9 264 17 view .LVU62
 333 002c 8DF80C90 		strb	r9, [sp, #12]
 334              	.LVL17:
 335              	.LBB380:
 336              	.LBI373:
  63:../../libs/libDaisy/src/dev/mpr121.h ****     {
 337              		.loc 9 63 10 is_stmt 1 view .LVU63
 338              	.LBB377:
  65:../../libs/libDaisy/src/dev/mpr121.h ****                != i2c_.TransmitBlocking(config_.dev_addr, data, size, 10);
 339              		.loc 9 65 9 view .LVU64
  66:../../libs/libDaisy/src/dev/mpr121.h ****     }
 340              		.loc 9 66 40 is_stmt 0 view .LVU65
 341 0030 FFF7FEFF 		bl	_ZN5daisy9I2CHandle16TransmitBlockingEtPhtm
 342              	.LVL18:
  66:../../libs/libDaisy/src/dev/mpr121.h ****     }
 343              		.loc 9 66 40 view .LVU66
 344              	.LBE377:
 345              	.LBE380:
 346              	.LBB381:
 347              	.LBI381:
 265:../../libs/libDaisy/src/dev/mpr121.h **** 
 266:../../libs/libDaisy/src/dev/mpr121.h ****         SetTransportErr(transport_.Write(buff, 1));
 267:../../libs/libDaisy/src/dev/mpr121.h **** 
 268:../../libs/libDaisy/src/dev/mpr121.h ****         uint8_t ecr_backup;
 269:../../libs/libDaisy/src/dev/mpr121.h ****         SetTransportErr(transport_.Read(&ecr_backup, 1));
 270:../../libs/libDaisy/src/dev/mpr121.h ****         if((reg == MPR121_ECR) || ((0x73 <= reg) && (reg <= 0x7A)))
 271:../../libs/libDaisy/src/dev/mpr121.h ****         {
 272:../../libs/libDaisy/src/dev/mpr121.h ****             stop_required = false;
 273:../../libs/libDaisy/src/dev/mpr121.h ****         }
 274:../../libs/libDaisy/src/dev/mpr121.h **** 
 275:../../libs/libDaisy/src/dev/mpr121.h ****         if(stop_required)
 276:../../libs/libDaisy/src/dev/mpr121.h ****         {
 277:../../libs/libDaisy/src/dev/mpr121.h ****             // clear this register to set stop mode
 278:../../libs/libDaisy/src/dev/mpr121.h ****             SetTransportErr(transport_.Write(buff, 2));
 279:../../libs/libDaisy/src/dev/mpr121.h ****         }
 280:../../libs/libDaisy/src/dev/mpr121.h **** 
 281:../../libs/libDaisy/src/dev/mpr121.h ****         buff[0] = reg;
 282:../../libs/libDaisy/src/dev/mpr121.h ****         buff[1] = value;
 283:../../libs/libDaisy/src/dev/mpr121.h ****         SetTransportErr(transport_.Write(buff, 2));
 284:../../libs/libDaisy/src/dev/mpr121.h **** 
 285:../../libs/libDaisy/src/dev/mpr121.h ****         if(stop_required)
 286:../../libs/libDaisy/src/dev/mpr121.h ****         {
 287:../../libs/libDaisy/src/dev/mpr121.h ****             // write back the previous set ECR settings
 288:../../libs/libDaisy/src/dev/mpr121.h ****             buff[0] = ecr_reg;
ARM GAS  C:\Users\skipi\AppData\Local\Temp\ccY719VG.s 			page 22


 289:../../libs/libDaisy/src/dev/mpr121.h ****             buff[1] = ecr_backup;
 290:../../libs/libDaisy/src/dev/mpr121.h ****             SetTransportErr(transport_.Write(buff, 2));
 291:../../libs/libDaisy/src/dev/mpr121.h ****         }
 292:../../libs/libDaisy/src/dev/mpr121.h ****     }
 293:../../libs/libDaisy/src/dev/mpr121.h **** 
 294:../../libs/libDaisy/src/dev/mpr121.h ****     /** Device register map */
 295:../../libs/libDaisy/src/dev/mpr121.h ****     enum RegMap
 296:../../libs/libDaisy/src/dev/mpr121.h ****     {
 297:../../libs/libDaisy/src/dev/mpr121.h ****         MPR121_TOUCHSTATUS_L = 0x00,
 298:../../libs/libDaisy/src/dev/mpr121.h ****         MPR121_TOUCHSTATUS_H = 0x01,
 299:../../libs/libDaisy/src/dev/mpr121.h ****         MPR121_FILTDATA_0L   = 0x04,
 300:../../libs/libDaisy/src/dev/mpr121.h ****         MPR121_FILTDATA_0H   = 0x05,
 301:../../libs/libDaisy/src/dev/mpr121.h ****         MPR121_BASELINE_0    = 0x1E,
 302:../../libs/libDaisy/src/dev/mpr121.h ****         MPR121_MHDR          = 0x2B,
 303:../../libs/libDaisy/src/dev/mpr121.h ****         MPR121_NHDR          = 0x2C,
 304:../../libs/libDaisy/src/dev/mpr121.h ****         MPR121_NCLR          = 0x2D,
 305:../../libs/libDaisy/src/dev/mpr121.h ****         MPR121_FDLR          = 0x2E,
 306:../../libs/libDaisy/src/dev/mpr121.h ****         MPR121_MHDF          = 0x2F,
 307:../../libs/libDaisy/src/dev/mpr121.h ****         MPR121_NHDF          = 0x30,
 308:../../libs/libDaisy/src/dev/mpr121.h ****         MPR121_NCLF          = 0x31,
 309:../../libs/libDaisy/src/dev/mpr121.h ****         MPR121_FDLF          = 0x32,
 310:../../libs/libDaisy/src/dev/mpr121.h ****         MPR121_NHDT          = 0x33,
 311:../../libs/libDaisy/src/dev/mpr121.h ****         MPR121_NCLT          = 0x34,
 312:../../libs/libDaisy/src/dev/mpr121.h ****         MPR121_FDLT          = 0x35,
 313:../../libs/libDaisy/src/dev/mpr121.h **** 
 314:../../libs/libDaisy/src/dev/mpr121.h ****         MPR121_TOUCHTH_0    = 0x41,
 315:../../libs/libDaisy/src/dev/mpr121.h ****         MPR121_RELEASETH_0  = 0x42,
 316:../../libs/libDaisy/src/dev/mpr121.h ****         MPR121_DEBOUNCE     = 0x5B,
 317:../../libs/libDaisy/src/dev/mpr121.h ****         MPR121_CONFIG1      = 0x5C,
 318:../../libs/libDaisy/src/dev/mpr121.h ****         MPR121_CONFIG2      = 0x5D,
 319:../../libs/libDaisy/src/dev/mpr121.h ****         MPR121_CHARGECURR_0 = 0x5F,
 320:../../libs/libDaisy/src/dev/mpr121.h ****         MPR121_CHARGETIME_1 = 0x6C,
 321:../../libs/libDaisy/src/dev/mpr121.h ****         MPR121_ECR          = 0x5E,
 322:../../libs/libDaisy/src/dev/mpr121.h ****         MPR121_AUTOCONFIG0  = 0x7B,
 323:../../libs/libDaisy/src/dev/mpr121.h ****         MPR121_AUTOCONFIG1  = 0x7C,
 324:../../libs/libDaisy/src/dev/mpr121.h ****         MPR121_UPLIMIT      = 0x7D,
 325:../../libs/libDaisy/src/dev/mpr121.h ****         MPR121_LOWLIMIT     = 0x7E,
 326:../../libs/libDaisy/src/dev/mpr121.h ****         MPR121_TARGETLIMIT  = 0x7F,
 327:../../libs/libDaisy/src/dev/mpr121.h **** 
 328:../../libs/libDaisy/src/dev/mpr121.h ****         MPR121_GPIODIR    = 0x76,
 329:../../libs/libDaisy/src/dev/mpr121.h ****         MPR121_GPIOEN     = 0x77,
 330:../../libs/libDaisy/src/dev/mpr121.h ****         MPR121_GPIOSET    = 0x78,
 331:../../libs/libDaisy/src/dev/mpr121.h ****         MPR121_GPIOCLR    = 0x79,
 332:../../libs/libDaisy/src/dev/mpr121.h ****         MPR121_GPIOTOGGLE = 0x7A,
 333:../../libs/libDaisy/src/dev/mpr121.h **** 
 334:../../libs/libDaisy/src/dev/mpr121.h ****         MPR121_SOFTRESET = 0x80,
 335:../../libs/libDaisy/src/dev/mpr121.h ****     };
 336:../../libs/libDaisy/src/dev/mpr121.h **** 
 337:../../libs/libDaisy/src/dev/mpr121.h ****   private:
 338:../../libs/libDaisy/src/dev/mpr121.h ****     Config    config_;
 339:../../libs/libDaisy/src/dev/mpr121.h ****     Transport transport_;
 340:../../libs/libDaisy/src/dev/mpr121.h ****     bool      transport_error_;
 341:../../libs/libDaisy/src/dev/mpr121.h **** 
 342:../../libs/libDaisy/src/dev/mpr121.h ****     /** Set the global transport_error_ bool */
 343:../../libs/libDaisy/src/dev/mpr121.h ****     void SetTransportErr(bool err) { transport_error_ |= err; }
 348              		.loc 9 343 10 is_stmt 1 view .LVU67
 349              	.LBE381:
ARM GAS  C:\Users\skipi\AppData\Local\Temp\ccY719VG.s 			page 23


 350              	.LBB385:
 351              	.LBB386:
  73:../../libs/libDaisy/src/dev/mpr121.h ****     }
 352              		.loc 9 73 39 is_stmt 0 view .LVU68
 353 0034 CDF80080 		str	r8, [sp]
 354 0038 0DF10B02 		add	r2, sp, #11
 355              	.LBE386:
 356              	.LBE385:
 357              	.LBB390:
 358              	.LBB382:
 359              		.loc 9 343 55 view .LVU69
 360 003c 94F83030 		ldrb	r3, [r4, #48]	@ zero_extendqisi2
 361              	.LBE382:
 362              	.LBE390:
 363              	.LBB391:
 364              	.LBB387:
  73:../../libs/libDaisy/src/dev/mpr121.h ****     }
 365              		.loc 9 73 39 view .LVU70
 366 0040 94F82C10 		ldrb	r1, [r4, #44]	@ zero_extendqisi2
 367              	.LBE387:
 368              	.LBE391:
 369              	.LBB392:
 370              	.LBB383:
 371              		.loc 9 343 55 view .LVU71
 372 0044 0028     		cmp	r0, #0
 373 0046 18BF     		it	ne
 374 0048 43F00103 		orrne	r3, r3, #1
 375              	.LBE383:
 376              	.LBE392:
 377              	.LBB393:
 378              	.LBB388:
  73:../../libs/libDaisy/src/dev/mpr121.h ****     }
 379              		.loc 9 73 39 view .LVU72
 380 004c 3046     		mov	r0, r6
 381              	.LVL19:
  73:../../libs/libDaisy/src/dev/mpr121.h ****     }
 382              		.loc 9 73 39 view .LVU73
 383              	.LBE388:
 384              	.LBE393:
 385              	.LBB394:
 386              	.LBB384:
 387              		.loc 9 343 55 view .LVU74
 388 004e 84F83030 		strb	r3, [r4, #48]
 389              	.LVL20:
 390              		.loc 9 343 55 view .LVU75
 391              	.LBE384:
 392              	.LBE394:
 393              	.LBB395:
 394              	.LBI385:
  70:../../libs/libDaisy/src/dev/mpr121.h ****     {
 395              		.loc 9 70 10 is_stmt 1 view .LVU76
 396              	.LBB389:
  72:../../libs/libDaisy/src/dev/mpr121.h ****                != i2c_.ReceiveBlocking(config_.dev_addr, data, size, 10);
 397              		.loc 9 72 9 view .LVU77
  73:../../libs/libDaisy/src/dev/mpr121.h ****     }
 398              		.loc 9 73 39 is_stmt 0 view .LVU78
 399 0052 0123     		movs	r3, #1
ARM GAS  C:\Users\skipi\AppData\Local\Temp\ccY719VG.s 			page 24


 400 0054 FFF7FEFF 		bl	_ZN5daisy9I2CHandle15ReceiveBlockingEtPhtm
 401              	.LVL21:
  73:../../libs/libDaisy/src/dev/mpr121.h ****     }
 402              		.loc 9 73 39 view .LVU79
 403              	.LBE389:
 404              	.LBE395:
 405              	.LBB396:
 406              	.LBI396:
 407              		.loc 9 343 10 is_stmt 1 view .LVU80
 408              	.LBB397:
 409              		.loc 9 343 55 is_stmt 0 view .LVU81
 410 0058 94F83030 		ldrb	r3, [r4, #48]	@ zero_extendqisi2
 411 005c 0028     		cmp	r0, #0
 412 005e 18BF     		it	ne
 413 0060 43F00103 		orrne	r3, r3, #1
 414 0064 84F83030 		strb	r3, [r4, #48]
 415              	.LVL22:
 416              		.loc 9 343 55 view .LVU82
 417              	.LBE397:
 418              	.LBE396:
 270:../../libs/libDaisy/src/dev/mpr121.h ****         {
 419              		.loc 9 270 50 view .LVU83
 420 0068 A5F17303 		sub	r3, r5, #115
 270:../../libs/libDaisy/src/dev/mpr121.h ****         {
 421              		.loc 9 270 9 view .LVU84
 422 006c 072B     		cmp	r3, #7
 423 006e 01D9     		bls	.L20
 424 0070 4D45     		cmp	r5, r9
 425 0072 17D1     		bne	.L24
 426              	.L20:
 427              	.LVL23:
 428              	.LBB398:
 429              	.LBB399:
  66:../../libs/libDaisy/src/dev/mpr121.h ****     }
 430              		.loc 9 66 40 view .LVU85
 431 0074 0A23     		movs	r3, #10
 432 0076 03AA     		add	r2, sp, #12
 433 0078 3046     		mov	r0, r6
 434              	.LBE399:
 435              	.LBE398:
 281:../../libs/libDaisy/src/dev/mpr121.h ****         buff[1] = value;
 436              		.loc 9 281 17 view .LVU86
 437 007a 8DF80C50 		strb	r5, [sp, #12]
 438              	.LBB408:
 439              	.LBB400:
  66:../../libs/libDaisy/src/dev/mpr121.h ****     }
 440              		.loc 9 66 40 view .LVU87
 441 007e 0093     		str	r3, [sp]
 442 0080 0223     		movs	r3, #2
 443              	.LBE400:
 444              	.LBE408:
 282:../../libs/libDaisy/src/dev/mpr121.h ****         SetTransportErr(transport_.Write(buff, 2));
 445              		.loc 9 282 17 view .LVU88
 446 0082 8DF80D70 		strb	r7, [sp, #13]
 447              	.LVL24:
 448              	.LBB409:
 449              	.LBI398:
ARM GAS  C:\Users\skipi\AppData\Local\Temp\ccY719VG.s 			page 25


  63:../../libs/libDaisy/src/dev/mpr121.h ****     {
 450              		.loc 9 63 10 is_stmt 1 view .LVU89
 451              	.LBB401:
  65:../../libs/libDaisy/src/dev/mpr121.h ****                != i2c_.TransmitBlocking(config_.dev_addr, data, size, 10);
 452              		.loc 9 65 9 view .LVU90
 453              	.L23:
  66:../../libs/libDaisy/src/dev/mpr121.h ****     }
 454              		.loc 9 66 40 is_stmt 0 view .LVU91
 455 0086 94F82C10 		ldrb	r1, [r4, #44]	@ zero_extendqisi2
 456 008a FFF7FEFF 		bl	_ZN5daisy9I2CHandle16TransmitBlockingEtPhtm
 457              	.LVL25:
  66:../../libs/libDaisy/src/dev/mpr121.h ****     }
 458              		.loc 9 66 40 view .LVU92
 459              	.LBE401:
 460              	.LBE409:
 461              	.LBB410:
 462              	.LBI410:
 463              		.loc 9 343 10 is_stmt 1 view .LVU93
 464              	.LBB411:
 465              		.loc 9 343 55 is_stmt 0 view .LVU94
 466 008e 94F83030 		ldrb	r3, [r4, #48]	@ zero_extendqisi2
 467 0092 0028     		cmp	r0, #0
 468 0094 18BF     		it	ne
 469 0096 43F00103 		orrne	r3, r3, #1
 470 009a 84F83030 		strb	r3, [r4, #48]
 471              	.LVL26:
 472              		.loc 9 343 55 view .LVU95
 473              	.LBE411:
 474              	.LBE410:
 292:../../libs/libDaisy/src/dev/mpr121.h **** 
 475              		.loc 9 292 5 view .LVU96
 476 009e 05B0     		add	sp, sp, #20
 477              		.cfi_remember_state
 478              		.cfi_def_cfa_offset 28
 479              		@ sp needed
 480 00a0 BDE8F083 		pop	{r4, r5, r6, r7, r8, r9, pc}
 481              	.LVL27:
 482              	.L24:
 483              		.cfi_restore_state
 484              	.LBB415:
 485              	.LBI415:
  63:../../libs/libDaisy/src/dev/mpr121.h ****     {
 486              		.loc 9 63 10 is_stmt 1 view .LVU97
 487              	.LBB416:
  65:../../libs/libDaisy/src/dev/mpr121.h ****                != i2c_.TransmitBlocking(config_.dev_addr, data, size, 10);
 488              		.loc 9 65 9 view .LVU98
  66:../../libs/libDaisy/src/dev/mpr121.h ****     }
 489              		.loc 9 66 40 is_stmt 0 view .LVU99
 490 00a4 0223     		movs	r3, #2
 491 00a6 03AA     		add	r2, sp, #12
 492              	.LVL28:
  66:../../libs/libDaisy/src/dev/mpr121.h ****     }
 493              		.loc 9 66 40 view .LVU100
 494 00a8 CDF80080 		str	r8, [sp]
 495 00ac 3046     		mov	r0, r6
 496 00ae 94F82C10 		ldrb	r1, [r4, #44]	@ zero_extendqisi2
 497 00b2 FFF7FEFF 		bl	_ZN5daisy9I2CHandle16TransmitBlockingEtPhtm
ARM GAS  C:\Users\skipi\AppData\Local\Temp\ccY719VG.s 			page 26


 498              	.LVL29:
  66:../../libs/libDaisy/src/dev/mpr121.h ****     }
 499              		.loc 9 66 40 view .LVU101
 500              	.LBE416:
 501              	.LBE415:
 502              	.LBB417:
 503              	.LBI417:
 504              		.loc 9 343 10 is_stmt 1 view .LVU102
 505              	.LBE417:
 506              	.LBB421:
 507              	.LBB402:
  66:../../libs/libDaisy/src/dev/mpr121.h ****     }
 508              		.loc 9 66 40 is_stmt 0 view .LVU103
 509 00b6 CDF80080 		str	r8, [sp]
 510              	.LBE402:
 511              	.LBE421:
 512              	.LBB422:
 513              	.LBB418:
 514              		.loc 9 343 55 view .LVU104
 515 00ba 94F83030 		ldrb	r3, [r4, #48]	@ zero_extendqisi2
 516              	.LBE418:
 517              	.LBE422:
 518              	.LBB423:
 519              	.LBB403:
  66:../../libs/libDaisy/src/dev/mpr121.h ****     }
 520              		.loc 9 66 40 view .LVU105
 521 00be 03AA     		add	r2, sp, #12
 522 00c0 94F82C10 		ldrb	r1, [r4, #44]	@ zero_extendqisi2
 523              	.LBE403:
 524              	.LBE423:
 525              	.LBB424:
 526              	.LBB419:
 527              		.loc 9 343 55 view .LVU106
 528 00c4 0028     		cmp	r0, #0
 529 00c6 18BF     		it	ne
 530 00c8 43F00103 		orrne	r3, r3, #1
 531              	.LBE419:
 532              	.LBE424:
 533              	.LBB425:
 534              	.LBB404:
  66:../../libs/libDaisy/src/dev/mpr121.h ****     }
 535              		.loc 9 66 40 view .LVU107
 536 00cc 3046     		mov	r0, r6
 537              	.LVL30:
  66:../../libs/libDaisy/src/dev/mpr121.h ****     }
 538              		.loc 9 66 40 view .LVU108
 539              	.LBE404:
 540              	.LBE425:
 281:../../libs/libDaisy/src/dev/mpr121.h ****         buff[1] = value;
 541              		.loc 9 281 17 view .LVU109
 542 00ce 8DF80C50 		strb	r5, [sp, #12]
 543              	.LBB426:
 544              	.LBB420:
 545              		.loc 9 343 55 view .LVU110
 546 00d2 84F83030 		strb	r3, [r4, #48]
 547              	.LVL31:
 548              		.loc 9 343 55 view .LVU111
ARM GAS  C:\Users\skipi\AppData\Local\Temp\ccY719VG.s 			page 27


 549              	.LBE420:
 550              	.LBE426:
 551              	.LBB427:
  63:../../libs/libDaisy/src/dev/mpr121.h ****     {
 552              		.loc 9 63 10 is_stmt 1 view .LVU112
 553              	.LBB405:
  65:../../libs/libDaisy/src/dev/mpr121.h ****                != i2c_.TransmitBlocking(config_.dev_addr, data, size, 10);
 554              		.loc 9 65 9 view .LVU113
  66:../../libs/libDaisy/src/dev/mpr121.h ****     }
 555              		.loc 9 66 40 is_stmt 0 view .LVU114
 556 00d6 0223     		movs	r3, #2
 557              	.LBE405:
 558              	.LBE427:
 282:../../libs/libDaisy/src/dev/mpr121.h ****         SetTransportErr(transport_.Write(buff, 2));
 559              		.loc 9 282 17 view .LVU115
 560 00d8 8DF80D70 		strb	r7, [sp, #13]
 561              	.LBB428:
 562              	.LBB406:
  66:../../libs/libDaisy/src/dev/mpr121.h ****     }
 563              		.loc 9 66 40 view .LVU116
 564 00dc FFF7FEFF 		bl	_ZN5daisy9I2CHandle16TransmitBlockingEtPhtm
 565              	.LVL32:
  66:../../libs/libDaisy/src/dev/mpr121.h ****     }
 566              		.loc 9 66 40 view .LVU117
 567              	.LBE406:
 568              	.LBE428:
 569              	.LBB429:
 570              	.LBB430:
 571 00e0 CDF80080 		str	r8, [sp]
 572              	.LBE430:
 573              	.LBE429:
 574              	.LBB435:
 575              	.LBB407:
 576 00e4 0546     		mov	r5, r0
 577              	.LVL33:
  66:../../libs/libDaisy/src/dev/mpr121.h ****     }
 578              		.loc 9 66 40 view .LVU118
 579              	.LBE407:
 580              	.LBE435:
 581              	.LBB436:
 582              		.loc 9 343 10 is_stmt 1 view .LVU119
 583              	.LBB412:
 584              		.loc 9 343 55 is_stmt 0 view .LVU120
 585 00e6 94F83010 		ldrb	r1, [r4, #48]	@ zero_extendqisi2
 586              	.LBE412:
 587              	.LBE436:
 588              	.LBB437:
 589              	.LBB431:
  66:../../libs/libDaisy/src/dev/mpr121.h ****     }
 590              		.loc 9 66 40 view .LVU121
 591 00ea 03AA     		add	r2, sp, #12
 592              	.LBE431:
 593              	.LBE437:
 289:../../libs/libDaisy/src/dev/mpr121.h ****             SetTransportErr(transport_.Write(buff, 2));
 594              		.loc 9 289 21 view .LVU122
 595 00ec 9DF80B30 		ldrb	r3, [sp, #11]	@ zero_extendqisi2
 596              	.LBB438:
ARM GAS  C:\Users\skipi\AppData\Local\Temp\ccY719VG.s 			page 28


 597              	.LBB432:
  66:../../libs/libDaisy/src/dev/mpr121.h ****     }
 598              		.loc 9 66 40 view .LVU123
 599 00f0 3046     		mov	r0, r6
 600              	.LVL34:
  66:../../libs/libDaisy/src/dev/mpr121.h ****     }
 601              		.loc 9 66 40 view .LVU124
 602              	.LBE432:
 603              	.LBE438:
 604              	.LBB439:
 605              	.LBB413:
 606              		.loc 9 343 55 view .LVU125
 607 00f2 002D     		cmp	r5, #0
 608 00f4 18BF     		it	ne
 609 00f6 41F00101 		orrne	r1, r1, #1
 610              	.LBE413:
 611              	.LBE439:
 288:../../libs/libDaisy/src/dev/mpr121.h ****             buff[1] = ecr_backup;
 612              		.loc 9 288 21 view .LVU126
 613 00fa 8DF80C90 		strb	r9, [sp, #12]
 289:../../libs/libDaisy/src/dev/mpr121.h ****             SetTransportErr(transport_.Write(buff, 2));
 614              		.loc 9 289 21 view .LVU127
 615 00fe 8DF80D30 		strb	r3, [sp, #13]
 616              	.LBB440:
 617              	.LBB433:
  66:../../libs/libDaisy/src/dev/mpr121.h ****     }
 618              		.loc 9 66 40 view .LVU128
 619 0102 0223     		movs	r3, #2
 620              	.LBE433:
 621              	.LBE440:
 622              	.LBB441:
 623              	.LBB414:
 624              		.loc 9 343 55 view .LVU129
 625 0104 84F83010 		strb	r1, [r4, #48]
 626              	.LVL35:
 627              		.loc 9 343 55 view .LVU130
 628              	.LBE414:
 629              	.LBE441:
 630              	.LBB442:
 631              	.LBI429:
  63:../../libs/libDaisy/src/dev/mpr121.h ****     {
 632              		.loc 9 63 10 is_stmt 1 view .LVU131
 633              	.LBB434:
  65:../../libs/libDaisy/src/dev/mpr121.h ****                != i2c_.TransmitBlocking(config_.dev_addr, data, size, 10);
 634              		.loc 9 65 9 view .LVU132
 635 0108 BDE7     		b	.L23
 636              	.LBE434:
 637              	.LBE442:
 638              		.cfi_endproc
 639              	.LFE5283:
 641 010a 00BF     		.section	.text.startup.main,"ax",%progbits
 642              		.align	1
 643              		.p2align 2,,3
 644              		.global	main
 645              		.syntax unified
 646              		.thumb
 647              		.thumb_func
ARM GAS  C:\Users\skipi\AppData\Local\Temp\ccY719VG.s 			page 29


 648              		.fpu fpv5-d16
 650              	main:
 651              	.LFB4849:
  52:main.cpp      **** 
  53:main.cpp      **** int main()
  54:main.cpp      **** {
 652              		.loc 10 54 1 view -0
 653              		.cfi_startproc
 654              		@ args = 0, pretend = 0, frame = 72
 655              		@ frame_needed = 0, uses_anonymous_args = 0
  55:main.cpp      ****     // 1. Inizializzazione Hardware
  56:main.cpp      ****     hw.Configure();
 656              		.loc 10 56 5 view .LVU134
  54:main.cpp      ****     // 1. Inizializzazione Hardware
 657              		.loc 10 54 1 is_stmt 0 view .LVU135
 658 0000 2DE9F04F 		push	{r4, r5, r6, r7, r8, r9, r10, fp, lr}
 659              		.cfi_def_cfa_offset 36
 660              		.cfi_offset 4, -36
 661              		.cfi_offset 5, -32
 662              		.cfi_offset 6, -28
 663              		.cfi_offset 7, -24
 664              		.cfi_offset 8, -20
 665              		.cfi_offset 9, -16
 666              		.cfi_offset 10, -12
 667              		.cfi_offset 11, -8
 668              		.cfi_offset 14, -4
 669              		.loc 10 56 17 view .LVU136
 670 0004 CF48     		ldr	r0, .L40
 671              	.LBB548:
 672              	.LBB549:
  77:../../libs/DaisySP/Source/Synthesis/oscillator.h ****     /** Sets the waveform to be synthesized by the Process() function.
  78:../../libs/DaisySP/Source/Synthesis/oscillator.h ****     */
  79:../../libs/DaisySP/Source/Synthesis/oscillator.h ****     inline void SetWaveform(const uint8_t wf)
  80:../../libs/DaisySP/Source/Synthesis/oscillator.h ****     {
  81:../../libs/DaisySP/Source/Synthesis/oscillator.h ****         waveform_ = wf < WAVE_LAST ? wf : WAVE_SIN;
 673              		.loc 8 81 19 view .LVU137
 674 0006 4FF00108 		mov	r8, #1
 675              	.LBE549:
 676              	.LBE548:
  57:main.cpp      ****     hw.Init();
  58:main.cpp      ****     hw.SetAudioBlockSize(4);
  59:main.cpp      ****     float sampleRate = hw.AudioSampleRate();
  60:main.cpp      **** 
  61:main.cpp      ****     // 2. Inizializzazione DSP
  62:main.cpp      ****     pc.Init(IIR::Butterworth); // Il filtro lavora bene a 100Hz
  63:main.cpp      ****     pc.setScale(PlantConditioner::C, PlantConditioner::MinorArm);
  64:main.cpp      ****     pc.setOctave(2);
  65:main.cpp      ****     pc.setCurve(50, 1.1);
  66:main.cpp      **** 
  67:main.cpp      ****     osc.Init(sampleRate);
  68:main.cpp      ****     osc.SetWaveform(Oscillator::WAVE_TRI);
  69:main.cpp      ****     osc.SetFreq(440.0f);
  70:main.cpp      ****     osc.SetAmp(0.5f);
  71:main.cpp      **** 
  72:main.cpp      ****     env.Init(sampleRate);
 677              		.loc 10 72 13 view .LVU138
 678 000a CF4C     		ldr	r4, .L40+4
ARM GAS  C:\Users\skipi\AppData\Local\Temp\ccY719VG.s 			page 30


 679              	.LBB552:
 680              	.LBB553:
 139:../../libs/libDaisy/src/dev/mpr121.h ****         WriteRegister(MPR121_MHDR, 0x01);
 681              		.loc 9 139 22 view .LVU139
 682 000c 4126     		movs	r6, #65
 683 000e DFF87893 		ldr	r9, .L40+68
 684              	.LBE553:
 685              	.LBE552:
  54:main.cpp      ****     // 1. Inizializzazione Hardware
 686              		.loc 10 54 1 view .LVU140
 687 0012 2DED028B 		vpush.64	{d8}
 688              		.cfi_def_cfa_offset 44
 689              		.cfi_offset 80, -44
 690              		.cfi_offset 81, -40
 691 0016 97B0     		sub	sp, sp, #92
 692              		.cfi_def_cfa_offset 136
 693              	.LBB733:
 694              	.LBB734:
  55:../../libs/DaisySP/Source/Synthesis/oscillator.h ****         pw_        = 0.5f;
 695              		.loc 8 55 20 view .LVU141
 696 0018 F6EE008A 		vmov.f32	s17, #5.0e-1
 697              	.LBE734:
 698              	.LBE733:
  56:main.cpp      ****     hw.Init();
 699              		.loc 10 56 17 view .LVU142
 700 001c FFF7FEFF 		bl	_ZN5daisy9DaisySeed9ConfigureEv
 701              	.LVL36:
  57:main.cpp      ****     hw.SetAudioBlockSize(4);
 702              		.loc 10 57 5 is_stmt 1 view .LVU143
  57:main.cpp      ****     hw.SetAudioBlockSize(4);
 703              		.loc 10 57 12 is_stmt 0 view .LVU144
 704 0020 0021     		movs	r1, #0
 705 0022 C848     		ldr	r0, .L40
 706 0024 0DF1180A 		add	r10, sp, #24
 707 0028 FFF7FEFF 		bl	_ZN5daisy9DaisySeed4InitEb
 708              	.LVL37:
  58:main.cpp      ****     float sampleRate = hw.AudioSampleRate();
 709              		.loc 10 58 5 is_stmt 1 view .LVU145
  58:main.cpp      ****     float sampleRate = hw.AudioSampleRate();
 710              		.loc 10 58 25 is_stmt 0 view .LVU146
 711 002c 0421     		movs	r1, #4
 712 002e C548     		ldr	r0, .L40
 713 0030 FFF7FEFF 		bl	_ZN5daisy9DaisySeed17SetAudioBlockSizeEj
 714              	.LVL38:
  59:main.cpp      **** 
 715              		.loc 10 59 5 is_stmt 1 view .LVU147
  59:main.cpp      **** 
 716              		.loc 10 59 42 is_stmt 0 view .LVU148
 717 0034 C348     		ldr	r0, .L40
 718 0036 FFF7FEFF 		bl	_ZN5daisy9DaisySeed15AudioSampleRateEv
 719              	.LVL39:
  62:main.cpp      ****     pc.setScale(PlantConditioner::C, PlantConditioner::MinorArm);
 720              		.loc 10 62 12 view .LVU149
 721 003a 4146     		mov	r1, r8
 722 003c C348     		ldr	r0, .L40+8
  59:main.cpp      **** 
 723              		.loc 10 59 42 view .LVU150
ARM GAS  C:\Users\skipi\AppData\Local\Temp\ccY719VG.s 			page 31


 724 003e B0EE408A 		vmov.f32	s16, s0
 725              	.LVL40:
  62:main.cpp      ****     pc.setScale(PlantConditioner::C, PlantConditioner::MinorArm);
 726              		.loc 10 62 5 is_stmt 1 view .LVU151
  62:main.cpp      ****     pc.setScale(PlantConditioner::C, PlantConditioner::MinorArm);
 727              		.loc 10 62 12 is_stmt 0 view .LVU152
 728 0042 FFF7FEFF 		bl	_ZN16PlantConditioner4InitEN3IIR10FilterTypeE
 729              	.LVL41:
  63:main.cpp      ****     pc.setOctave(2);
 730              		.loc 10 63 5 is_stmt 1 view .LVU153
  63:main.cpp      ****     pc.setOctave(2);
 731              		.loc 10 63 16 is_stmt 0 view .LVU154
 732 0046 0222     		movs	r2, #2
 733 0048 0021     		movs	r1, #0
 734 004a C048     		ldr	r0, .L40+8
 735 004c FFF7FEFF 		bl	_ZN16PlantConditioner8setScaleENS_5NotesENS_9ScaleTypeE
 736              	.LVL42:
  64:main.cpp      ****     pc.setCurve(50, 1.1);
 737              		.loc 10 64 5 is_stmt 1 view .LVU155
  64:main.cpp      ****     pc.setCurve(50, 1.1);
 738              		.loc 10 64 17 is_stmt 0 view .LVU156
 739 0050 0221     		movs	r1, #2
 740 0052 BE48     		ldr	r0, .L40+8
 741 0054 FFF7FEFF 		bl	_ZN16PlantConditioner9setOctaveEh
 742              	.LVL43:
  65:main.cpp      **** 
 743              		.loc 10 65 5 is_stmt 1 view .LVU157
  65:main.cpp      **** 
 744              		.loc 10 65 16 is_stmt 0 view .LVU158
 745 0058 3221     		movs	r1, #50
 746 005a 9FEDBD0A 		vldr.32	s0, .L40+12
 747 005e BB48     		ldr	r0, .L40+8
 748 0060 FFF7FEFF 		bl	_ZN16PlantConditioner8setCurveEhf
 749              	.LVL44:
  67:main.cpp      ****     osc.SetWaveform(Oscillator::WAVE_TRI);
 750              		.loc 10 67 5 is_stmt 1 view .LVU159
 751              	.LBB737:
 752              	.LBI733:
  50:../../libs/DaisySP/Source/Synthesis/oscillator.h ****     {
 753              		.loc 8 50 10 view .LVU160
 754              	.LBB735:
  52:../../libs/DaisySP/Source/Synthesis/oscillator.h ****         sr_recip_  = 1.0f / sample_rate;
 755              		.loc 8 52 9 view .LVU161
  53:../../libs/DaisySP/Source/Synthesis/oscillator.h ****         freq_      = 100.0f;
 756              		.loc 8 53 27 is_stmt 0 view .LVU162
 757 0064 B7EE007A 		vmov.f32	s14, #1.0e+0
  58:../../libs/DaisySP/Source/Synthesis/oscillator.h ****         waveform_  = WAVE_SIN;
 758              		.loc 8 58 34 view .LVU163
 759 0068 BA48     		ldr	r0, .L40+16
  57:../../libs/DaisySP/Source/Synthesis/oscillator.h ****         phase_inc_ = CalcPhaseInc(freq_);
 760              		.loc 8 57 20 view .LVU164
 761 006a 0023     		movs	r3, #0
  54:../../libs/DaisySP/Source/Synthesis/oscillator.h ****         amp_       = 0.5f;
 762              		.loc 8 54 20 view .LVU165
 763 006c 9FEDBA0A 		vldr.32	s0, .L40+20
  53:../../libs/DaisySP/Source/Synthesis/oscillator.h ****         freq_      = 100.0f;
 764              		.loc 8 53 27 view .LVU166
ARM GAS  C:\Users\skipi\AppData\Local\Temp\ccY719VG.s 			page 32


 765 0070 C7EE087A 		vdiv.f32	s15, s14, s16
  53:../../libs/DaisySP/Source/Synthesis/oscillator.h ****         freq_      = 100.0f;
 766              		.loc 8 53 20 view .LVU167
 767 0074 0546     		mov	r5, r0
  57:../../libs/DaisySP/Source/Synthesis/oscillator.h ****         phase_inc_ = CalcPhaseInc(freq_);
 768              		.loc 8 57 20 view .LVU168
 769 0076 8361     		str	r3, [r0, #24]	@ float
  52:../../libs/DaisySP/Source/Synthesis/oscillator.h ****         sr_recip_  = 1.0f / sample_rate;
 770              		.loc 8 52 20 view .LVU169
 771 0078 80ED048A 		vstr.32	s16, [r0, #16]
  53:../../libs/DaisySP/Source/Synthesis/oscillator.h ****         freq_      = 100.0f;
 772              		.loc 8 53 9 is_stmt 1 view .LVU170
  54:../../libs/DaisySP/Source/Synthesis/oscillator.h ****         amp_       = 0.5f;
 773              		.loc 8 54 20 is_stmt 0 view .LVU171
 774 007c 80ED020A 		vstr.32	s0, [r0, #8]
  55:../../libs/DaisySP/Source/Synthesis/oscillator.h ****         pw_        = 0.5f;
 775              		.loc 8 55 20 view .LVU172
 776 0080 C0ED018A 		vstr.32	s17, [r0, #4]
  56:../../libs/DaisySP/Source/Synthesis/oscillator.h ****         phase_     = 0.0f;
 777              		.loc 8 56 20 view .LVU173
 778 0084 C0ED038A 		vstr.32	s17, [r0, #12]
  53:../../libs/DaisySP/Source/Synthesis/oscillator.h ****         freq_      = 100.0f;
 779              		.loc 8 53 20 view .LVU174
 780 0088 C0ED057A 		vstr.32	s15, [r0, #20]
  54:../../libs/DaisySP/Source/Synthesis/oscillator.h ****         amp_       = 0.5f;
 781              		.loc 8 54 9 is_stmt 1 view .LVU175
  55:../../libs/DaisySP/Source/Synthesis/oscillator.h ****         pw_        = 0.5f;
 782              		.loc 8 55 9 view .LVU176
  56:../../libs/DaisySP/Source/Synthesis/oscillator.h ****         phase_     = 0.0f;
 783              		.loc 8 56 9 view .LVU177
  57:../../libs/DaisySP/Source/Synthesis/oscillator.h ****         phase_inc_ = CalcPhaseInc(freq_);
 784              		.loc 8 57 9 view .LVU178
  58:../../libs/DaisySP/Source/Synthesis/oscillator.h ****         waveform_  = WAVE_SIN;
 785              		.loc 8 58 9 view .LVU179
  58:../../libs/DaisySP/Source/Synthesis/oscillator.h ****         waveform_  = WAVE_SIN;
 786              		.loc 8 58 34 is_stmt 0 view .LVU180
 787 008c FFF7FEFF 		bl	_ZN7daisysp10Oscillator12CalcPhaseIncEf
 788              	.LVL45:
  61:../../libs/DaisySP/Source/Synthesis/oscillator.h ****     }
 789              		.loc 8 61 20 view .LVU181
 790 0090 40F20113 		movw	r3, #257
  58:../../libs/DaisySP/Source/Synthesis/oscillator.h ****         waveform_  = WAVE_SIN;
 791              		.loc 8 58 34 view .LVU182
 792 0094 F0EE407A 		vmov.f32	s15, s0
 793              	.LBE735:
 794              	.LBE737:
 795              	.LBB738:
 796              	.LBB739:
  69:../../libs/DaisySP/Source/Synthesis/oscillator.h ****         phase_inc_ = CalcPhaseInc(f);
 797              		.loc 8 69 20 view .LVU183
 798 0098 9FEDB00A 		vldr.32	s0, .L40+24
  70:../../libs/DaisySP/Source/Synthesis/oscillator.h ****     }
 799              		.loc 8 70 34 view .LVU184
 800 009c 2846     		mov	r0, r5
 801              	.LBE739:
 802              	.LBE738:
 803              	.LBB743:
ARM GAS  C:\Users\skipi\AppData\Local\Temp\ccY719VG.s 			page 33


 804              	.LBB736:
  61:../../libs/DaisySP/Source/Synthesis/oscillator.h ****     }
 805              		.loc 8 61 20 view .LVU185
 806 009e 2B85     		strh	r3, [r5, #40]	@ movhi
  58:../../libs/DaisySP/Source/Synthesis/oscillator.h ****         waveform_  = WAVE_SIN;
 807              		.loc 8 58 20 view .LVU186
 808 00a0 C5ED077A 		vstr.32	s15, [r5, #28]
  59:../../libs/DaisySP/Source/Synthesis/oscillator.h ****         eoc_       = true;
 809              		.loc 8 59 9 is_stmt 1 view .LVU187
  60:../../libs/DaisySP/Source/Synthesis/oscillator.h ****         eor_       = true;
 810              		.loc 8 60 9 view .LVU188
  61:../../libs/DaisySP/Source/Synthesis/oscillator.h ****     }
 811              		.loc 8 61 9 view .LVU189
 812              	.LVL46:
  61:../../libs/DaisySP/Source/Synthesis/oscillator.h ****     }
 813              		.loc 8 61 9 is_stmt 0 view .LVU190
 814              	.LBE736:
 815              	.LBE743:
  68:main.cpp      ****     osc.SetFreq(440.0f);
 816              		.loc 10 68 5 is_stmt 1 view .LVU191
 817              	.LBB744:
 818              	.LBI548:
  79:../../libs/DaisySP/Source/Synthesis/oscillator.h ****     {
 819              		.loc 8 79 17 view .LVU192
 820              	.LBB550:
 821              		.loc 8 81 9 view .LVU193
 822              		.loc 8 81 9 is_stmt 0 view .LVU194
 823              	.LBE550:
 824              	.LBE744:
  69:main.cpp      ****     osc.SetAmp(0.5f);
 825              		.loc 10 69 5 is_stmt 1 view .LVU195
 826              	.LBB745:
 827              	.LBI738:
  67:../../libs/DaisySP/Source/Synthesis/oscillator.h ****     {
 828              		.loc 8 67 17 view .LVU196
 829              	.LBB740:
  69:../../libs/DaisySP/Source/Synthesis/oscillator.h ****         phase_inc_ = CalcPhaseInc(f);
 830              		.loc 8 69 9 view .LVU197
 831              	.LBE740:
 832              	.LBE745:
 833              	.LBB746:
 834              	.LBB551:
 835              		.loc 8 81 19 is_stmt 0 view .LVU198
 836 00a4 85F80080 		strb	r8, [r5]
 837              	.LBE551:
 838              	.LBE746:
 839              	.LBB747:
 840              	.LBB741:
  69:../../libs/DaisySP/Source/Synthesis/oscillator.h ****         phase_inc_ = CalcPhaseInc(f);
 841              		.loc 8 69 20 view .LVU199
 842 00a8 85ED020A 		vstr.32	s0, [r5, #8]
  70:../../libs/DaisySP/Source/Synthesis/oscillator.h ****     }
 843              		.loc 8 70 9 is_stmt 1 view .LVU200
  70:../../libs/DaisySP/Source/Synthesis/oscillator.h ****     }
 844              		.loc 8 70 34 is_stmt 0 view .LVU201
 845 00ac FFF7FEFF 		bl	_ZN7daisysp10Oscillator12CalcPhaseIncEf
 846              	.LVL47:
ARM GAS  C:\Users\skipi\AppData\Local\Temp\ccY719VG.s 			page 34


 847 00b0 F0EE407A 		vmov.f32	s15, s0
 848              	.LBE741:
 849              	.LBE747:
 850              		.loc 10 72 13 view .LVU202
 851 00b4 2046     		mov	r0, r4
 852 00b6 B0EE480A 		vmov.f32	s0, s16
 853 00ba 4146     		mov	r1, r8
 854              	.LBB748:
 855              	.LBB749:
  76:../../libs/DaisySP/Source/Synthesis/oscillator.h ****     /** Sets the waveform to be synthesized by the Process() function.
 856              		.loc 8 76 46 view .LVU203
 857 00bc C5ED018A 		vstr.32	s17, [r5, #4]
 858              	.LBE749:
 859              	.LBE748:
 860              	.LBB751:
 861              	.LBB742:
  70:../../libs/DaisySP/Source/Synthesis/oscillator.h ****     }
 862              		.loc 8 70 20 view .LVU204
 863 00c0 C5ED077A 		vstr.32	s15, [r5, #28]
 864              	.LVL48:
  70:../../libs/DaisySP/Source/Synthesis/oscillator.h ****     }
 865              		.loc 8 70 20 view .LVU205
 866              	.LBE742:
 867              	.LBE751:
  70:main.cpp      **** 
 868              		.loc 10 70 5 is_stmt 1 view .LVU206
 869              	.LBB752:
 870              	.LBI748:
  76:../../libs/DaisySP/Source/Synthesis/oscillator.h ****     /** Sets the waveform to be synthesized by the Process() function.
 871              		.loc 8 76 17 view .LVU207
 872              	.LBB750:
  76:../../libs/DaisySP/Source/Synthesis/oscillator.h ****     /** Sets the waveform to be synthesized by the Process() function.
 873              		.loc 8 76 41 view .LVU208
  76:../../libs/DaisySP/Source/Synthesis/oscillator.h ****     /** Sets the waveform to be synthesized by the Process() function.
 874              		.loc 8 76 41 is_stmt 0 view .LVU209
 875              	.LBE750:
 876              	.LBE752:
 877              		.loc 10 72 5 is_stmt 1 view .LVU210
 878              		.loc 10 72 13 is_stmt 0 view .LVU211
 879 00c4 FFF7FEFF 		bl	_ZN7daisysp4Adsr4InitEfi
 880              	.LVL49:
  73:main.cpp      ****     env.SetTime(ADSR_SEG_ATTACK, 0.05f);
 881              		.loc 10 73 5 is_stmt 1 view .LVU212
 882              		.loc 10 73 16 is_stmt 0 view .LVU213
 883 00c8 2046     		mov	r0, r4
 884 00ca 9FEDA50A 		vldr.32	s0, .L40+28
 885 00ce 4146     		mov	r1, r8
 886              	.LBB753:
 887              	.LBB728:
 123:../../libs/libDaisy/src/dev/mpr121.h **** 
 888              		.loc 9 123 9 view .LVU214
 889 00d0 A44D     		ldr	r5, .L40+32
 890              	.LBE728:
 891              	.LBE753:
 892              		.loc 10 73 16 view .LVU215
 893 00d2 FFF7FEFF 		bl	_ZN7daisysp4Adsr7SetTimeEif
 894              	.LVL50:
ARM GAS  C:\Users\skipi\AppData\Local\Temp\ccY719VG.s 			page 35


  74:main.cpp      ****     env.SetTime(ADSR_SEG_DECAY, 0.1f);
 895              		.loc 10 74 5 is_stmt 1 view .LVU216
 896              		.loc 10 74 16 is_stmt 0 view .LVU217
 897 00d6 2046     		mov	r0, r4
 898 00d8 9FEDA30A 		vldr.32	s0, .L40+36
 899 00dc 0221     		movs	r1, #2
 900 00de FFF7FEFF 		bl	_ZN7daisysp4Adsr7SetTimeEif
 901              	.LVL51:
  75:main.cpp      ****     env.SetSustainLevel(0.7f);
 902              		.loc 10 75 5 is_stmt 1 view .LVU218
 903              	.LBB754:
 904              	.LBI754:
  46:../../libs/DaisySP/Source/Control/adsr.h ****     /** Initializes the Adsr module.
  47:../../libs/DaisySP/Source/Control/adsr.h ****         \param sample_rate - The sample rate of the audio engine being run. 
  48:../../libs/DaisySP/Source/Control/adsr.h ****     */
  49:../../libs/DaisySP/Source/Control/adsr.h ****     void Init(float sample_rate, int blockSize = 1);
  50:../../libs/DaisySP/Source/Control/adsr.h ****     /**
  51:../../libs/DaisySP/Source/Control/adsr.h ****      \function Retrigger forces the envelope back to attack phase
  52:../../libs/DaisySP/Source/Control/adsr.h ****      \param hard  resets the history to zero, results in a click.
  53:../../libs/DaisySP/Source/Control/adsr.h ****      */
  54:../../libs/DaisySP/Source/Control/adsr.h ****     void Retrigger(bool hard);
  55:../../libs/DaisySP/Source/Control/adsr.h ****     /** Processes one sample through the filter and returns one sample.
  56:../../libs/DaisySP/Source/Control/adsr.h ****         \param gate - trigger the envelope, hold it to sustain 
  57:../../libs/DaisySP/Source/Control/adsr.h ****     */
  58:../../libs/DaisySP/Source/Control/adsr.h ****     float Process(bool gate);
  59:../../libs/DaisySP/Source/Control/adsr.h ****     /** Sets time
  60:../../libs/DaisySP/Source/Control/adsr.h ****         Set time per segment in seconds
  61:../../libs/DaisySP/Source/Control/adsr.h ****     */
  62:../../libs/DaisySP/Source/Control/adsr.h ****     void SetTime(int seg, float time);
  63:../../libs/DaisySP/Source/Control/adsr.h ****     void SetAttackTime(float timeInS, float shape = 0.0f);
  64:../../libs/DaisySP/Source/Control/adsr.h ****     void SetDecayTime(float timeInS);
  65:../../libs/DaisySP/Source/Control/adsr.h ****     void SetReleaseTime(float timeInS);
  66:../../libs/DaisySP/Source/Control/adsr.h **** 
  67:../../libs/DaisySP/Source/Control/adsr.h ****   private:
  68:../../libs/DaisySP/Source/Control/adsr.h ****     void SetTimeConstant(float timeInS, float& time, float& coeff);
  69:../../libs/DaisySP/Source/Control/adsr.h **** 
  70:../../libs/DaisySP/Source/Control/adsr.h ****   public:
  71:../../libs/DaisySP/Source/Control/adsr.h ****     /** Sustain level
  72:../../libs/DaisySP/Source/Control/adsr.h ****         \param sus_level - sets sustain level, 0...1.0
  73:../../libs/DaisySP/Source/Control/adsr.h ****     */
  74:../../libs/DaisySP/Source/Control/adsr.h ****     inline void SetSustainLevel(float sus_level)
 905              		.loc 7 74 17 view .LVU219
 906              	.LBB755:
  75:../../libs/DaisySP/Source/Control/adsr.h ****     {
  76:../../libs/DaisySP/Source/Control/adsr.h ****         sus_level = (sus_level <= 0.f) ? -0.01f // forces envelope into idle
 907              		.loc 7 76 9 view .LVU220
  77:../../libs/DaisySP/Source/Control/adsr.h ****                                        : (sus_level > 1.f) ? 1.f : sus_level;
  78:../../libs/DaisySP/Source/Control/adsr.h ****         sus_level_ = sus_level;
 908              		.loc 7 78 9 view .LVU221
 909              		.loc 7 78 20 is_stmt 0 view .LVU222
 910 00e2 A24B     		ldr	r3, .L40+40
 911              	.LBE755:
 912              	.LBE754:
  76:main.cpp      ****     env.SetTime(ADSR_SEG_RELEASE, 0.5f); // Aumentato leggermente per sentire la coda
 913              		.loc 10 76 16 view .LVU223
 914 00e4 B0EE680A 		vmov.f32	s0, s17
 915 00e8 2046     		mov	r0, r4
ARM GAS  C:\Users\skipi\AppData\Local\Temp\ccY719VG.s 			page 36


 916 00ea 0421     		movs	r1, #4
 917              	.LBB757:
 918              	.LBB756:
 919              		.loc 7 78 20 view .LVU224
 920 00ec 2360     		str	r3, [r4]	@ float
 921              	.LVL52:
 922              		.loc 7 78 20 view .LVU225
 923              	.LBE756:
 924              	.LBE757:
 925              		.loc 10 76 5 is_stmt 1 view .LVU226
 926              		.loc 10 76 16 is_stmt 0 view .LVU227
 927 00ee FFF7FEFF 		bl	_ZN7daisysp4Adsr7SetTimeEif
 928              	.LVL53:
  77:main.cpp      **** 
  78:main.cpp      ****     // 3. Inizializzazione ADC e Sensori
  79:main.cpp      ****     adcConfig[0].InitSingle(daisy::seed::A0);
 929              		.loc 10 79 5 is_stmt 1 view .LVU228
 930              		.loc 10 79 28 is_stmt 0 view .LVU229
 931 00f2 9F4B     		ldr	r3, .L40+44
 932 00f4 0222     		movs	r2, #2
 933 00f6 9F48     		ldr	r0, .L40+48
 934 00f8 1968     		ldr	r1, [r3]
 935              	.LBB758:
 936              	.LBB729:
 123:../../libs/libDaisy/src/dev/mpr121.h **** 
 937              		.loc 9 123 9 view .LVU230
 938 00fa 2C46     		mov	r4, r5
 939              	.LBE729:
 940              	.LBE758:
 941              		.loc 10 79 28 view .LVU231
 942 00fc FFF7FEFF 		bl	_ZN5daisy16AdcChannelConfig10InitSingleENS_3PinENS0_15ConversionSpeedE
 943              	.LVL54:
  80:main.cpp      ****     adcConfig[1].InitSingle(daisy::seed::A1);
 944              		.loc 10 80 5 is_stmt 1 view .LVU232
 945              		.loc 10 80 28 is_stmt 0 view .LVU233
 946 0100 9D4B     		ldr	r3, .L40+52
 947 0102 0222     		movs	r2, #2
 948 0104 9D48     		ldr	r0, .L40+56
 949 0106 1968     		ldr	r1, [r3]
 950              	.LBB759:
 951              	.LBB730:
 952              	.LBB554:
 953              	.LBB555:
  49:../../libs/libDaisy/src/dev/mpr121.h **** 
 954              		.loc 9 49 17 view .LVU234
 955 0108 05F11C0B 		add	fp, r5, #28
 956              	.LBE555:
 957              	.LBE554:
 958              	.LBE730:
 959              	.LBE759:
 960              		.loc 10 80 28 view .LVU235
 961 010c FFF7FEFF 		bl	_ZN5daisy16AdcChannelConfig10InitSingleENS_3PinENS0_15ConversionSpeedE
 962              	.LVL55:
  81:main.cpp      ****     hw.adc.Init(adcConfig, ADC_CH);
 963              		.loc 10 81 5 is_stmt 1 view .LVU236
 964              		.loc 10 81 16 is_stmt 0 view .LVU237
 965 0110 0423     		movs	r3, #4
ARM GAS  C:\Users\skipi\AppData\Local\Temp\ccY719VG.s 			page 37


 966 0112 0222     		movs	r2, #2
 967 0114 9749     		ldr	r1, .L40+48
 968 0116 9A48     		ldr	r0, .L40+60
 969 0118 FFF7FEFF 		bl	_ZN5daisy9AdcHandle4InitEPNS_16AdcChannelConfigEjNS0_12OverSamplingE
 970              	.LVL56:
  82:main.cpp      ****     hw.adc.Start();
 971              		.loc 10 82 5 is_stmt 1 view .LVU238
 972              		.loc 10 82 17 is_stmt 0 view .LVU239
 973 011c 9848     		ldr	r0, .L40+60
 974 011e FFF7FEFF 		bl	_ZN5daisy9AdcHandle5StartEv
 975              	.LVL57:
  83:main.cpp      **** 
  84:main.cpp      ****     #if defined(DEBUG) || defined(csvAcquisition)
  85:main.cpp      ****         hw.StartLog(false);
  86:main.cpp      ****     #endif
  87:main.cpp      **** 
  88:main.cpp      ****     // Init MPR121
  89:main.cpp      ****     if (cap.Init(mpr121ObjConf) != daisy::Mpr121I2C::Result::OK)
 976              		.loc 10 89 5 is_stmt 1 view .LVU240
 977              		.loc 10 89 5 is_stmt 0 view .LVU241
 978 0122 0DF1400C 		add	ip, sp, #64
 979              	.LBB760:
 980              	.LBB731:
 981              	.LBB568:
 982              	.LBB565:
  49:../../libs/libDaisy/src/dev/mpr121.h **** 
 983              		.loc 9 49 17 view .LVU242
 984 0126 CDF814A0 		str	r10, [sp, #20]
 985              	.LBE565:
 986              	.LBE568:
 123:../../libs/libDaisy/src/dev/mpr121.h **** 
 987              		.loc 9 123 9 view .LVU243
 988 012a E646     		mov	lr, ip
 989 012c 6746     		mov	r7, ip
 990 012e B9E80F00 		ldmia	r9!, {r0, r1, r2, r3}
 991 0132 ACE80F00 		stmia	ip!, {r0, r1, r2, r3}
 992 0136 99E80300 		ldm	r9, {r0, r1}
 993 013a 4CF8040B 		str	r0, [ip], #4
 994 013e ACF80010 		strh	r1, [ip]	@ movhi
 995              	.LBE731:
 996              	.LBI552:
 121:../../libs/libDaisy/src/dev/mpr121.h ****     {
 997              		.loc 9 121 12 is_stmt 1 view .LVU244
 998 0142 AC46     		mov	ip, r5
 999              	.LBB732:
 123:../../libs/libDaisy/src/dev/mpr121.h **** 
 1000              		.loc 9 123 9 is_stmt 0 view .LVU245
 1001 0144 BEE80F00 		ldmia	lr!, {r0, r1, r2, r3}
 1002 0148 0FC4     		stmia	r4!, {r0, r1, r2, r3}
 1003 014a 9EE80300 		ldm	lr, {r0, r1}
 1004 014e 44F8040B 		str	r0, [r4], #4
 1005 0152 2180     		strh	r1, [r4]	@ movhi
 1006              	.LVL58:
 123:../../libs/libDaisy/src/dev/mpr121.h **** 
 1007              		.loc 9 123 9 view .LVU246
 1008 0154 0446     		mov	r4, r0
 1009 0156 BCE80F00 		ldmia	ip!, {r0, r1, r2, r3}
ARM GAS  C:\Users\skipi\AppData\Local\Temp\ccY719VG.s 			page 38


 1010 015a AAE80F00 		stmia	r10!, {r0, r1, r2, r3}
 1011              	.LBB569:
 1012              	.LBB566:
  56:../../libs/libDaisy/src/dev/mpr121.h ****         i2c_conf.pin_config.sda = config.sda;
 1013              		.loc 9 56 33 view .LVU247
 1014 015e BDF82030 		ldrh	r3, [sp, #32]
 1015              	.LBB556:
 1016              	.LBB557:
 1017              		.file 11 "../../libs/libDaisy/src/per/i2c.h"
   1:../../libs/libDaisy/src/per/i2c.h **** #pragma once
   2:../../libs/libDaisy/src/per/i2c.h **** #include "util/hal_map.h"
   3:../../libs/libDaisy/src/per/i2c.h **** #include "daisy_core.h"
   4:../../libs/libDaisy/src/per/i2c.h **** 
   5:../../libs/libDaisy/src/per/i2c.h **** namespace daisy
   6:../../libs/libDaisy/src/per/i2c.h **** {
   7:../../libs/libDaisy/src/per/i2c.h **** /** A handle for interacting with an I2C peripheral. This is a dumb
   8:../../libs/libDaisy/src/per/i2c.h ****  *  gateway that internally points to one of the four I2C peripherals
   9:../../libs/libDaisy/src/per/i2c.h ****  *  after it was initialised. It can then be copied and passed around.
  10:../../libs/libDaisy/src/per/i2c.h ****  *  Use an I2CHandle like this:
  11:../../libs/libDaisy/src/per/i2c.h ****  *  
  12:../../libs/libDaisy/src/per/i2c.h ****  *      // setup the configuration
  13:../../libs/libDaisy/src/per/i2c.h ****  *      I2CHandle::Config i2c_conf;
  14:../../libs/libDaisy/src/per/i2c.h ****  *      i2c_conf.periph = I2CHandle::Config::Peripheral::I2C_1;
  15:../../libs/libDaisy/src/per/i2c.h ****  *      i2c_conf.speed  = I2CHandle::Config::Speed::I2C_400KHZ;
  16:../../libs/libDaisy/src/per/i2c.h ****  *      i2c_conf.mode   = I2CHandle::Config::Mode::Master;
  17:../../libs/libDaisy/src/per/i2c.h ****  *      i2c_conf.pin_config.scl  = {DSY_GPIOB, 8};
  18:../../libs/libDaisy/src/per/i2c.h ****  *      i2c_conf.pin_config.sda  = {DSY_GPIOB, 9};
  19:../../libs/libDaisy/src/per/i2c.h ****  *      // initialise the peripheral
  20:../../libs/libDaisy/src/per/i2c.h ****  *      I2CHandle i2c;
  21:../../libs/libDaisy/src/per/i2c.h ****  *      i2c.Init(i2c_conf);
  22:../../libs/libDaisy/src/per/i2c.h ****  *      // now i2c points to the corresponding peripheral and can be used.
  23:../../libs/libDaisy/src/per/i2c.h ****  *      i2c.TransmitBlocking( ... );
  24:../../libs/libDaisy/src/per/i2c.h ****  */
  25:../../libs/libDaisy/src/per/i2c.h **** class I2CHandle
  26:../../libs/libDaisy/src/per/i2c.h **** {
  27:../../libs/libDaisy/src/per/i2c.h ****   public:
  28:../../libs/libDaisy/src/per/i2c.h ****     /** Contains settings for initialising an I2C interface. */
  29:../../libs/libDaisy/src/per/i2c.h ****     struct Config
 1018              		.loc 11 29 12 view .LVU248
 1019 0162 4FF01002 		mov	r2, #16
 1020 0166 CAF80040 		str	r4, [r10]
 1021              	.LBE557:
 1022              	.LBE556:
  56:../../libs/libDaisy/src/dev/mpr121.h ****         i2c_conf.pin_config.sda = config.sda;
 1023              		.loc 9 56 33 view .LVU249
 1024 016a ADF83030 		strh	r3, [sp, #48]	@ movhi
  57:../../libs/libDaisy/src/dev/mpr121.h **** 
 1025              		.loc 9 57 33 view .LVU250
 1026 016e BDF82230 		ldrh	r3, [sp, #34]
 1027              	.LBB563:
 1028              	.LBB561:
 1029              		.loc 11 29 12 view .LVU251
 1030 0172 8DF83C20 		strb	r2, [sp, #60]
 1031              	.LBE561:
 1032              	.LBE563:
  52:../../libs/libDaisy/src/dev/mpr121.h ****         i2c_conf.periph = config.periph;
 1033              		.loc 9 52 25 view .LVU252
ARM GAS  C:\Users\skipi\AppData\Local\Temp\ccY719VG.s 			page 39


 1034 0176 0022     		movs	r2, #0
  57:../../libs/libDaisy/src/dev/mpr121.h **** 
 1035              		.loc 9 57 33 view .LVU253
 1036 0178 ADF83230 		strh	r3, [sp, #50]	@ movhi
  49:../../libs/libDaisy/src/dev/mpr121.h **** 
 1037              		.loc 9 49 17 view .LVU254
 1038 017c 059B     		ldr	r3, [sp, #20]
  52:../../libs/libDaisy/src/dev/mpr121.h ****         i2c_conf.periph = config.periph;
 1039              		.loc 9 52 25 view .LVU255
 1040 017e 0E92     		str	r2, [sp, #56]
 1041              	.LVL59:
  49:../../libs/libDaisy/src/dev/mpr121.h **** 
 1042              		.loc 9 49 17 view .LVU256
 1043 0180 9C46     		mov	ip, r3
 1044 0182 0690     		str	r0, [sp, #24]
  53:../../libs/libDaisy/src/dev/mpr121.h ****         i2c_conf.speed  = config.speed;
 1045              		.loc 9 53 25 view .LVU257
 1046 0184 0B90     		str	r0, [sp, #44]
 1047              	.LVL60:
  53:../../libs/libDaisy/src/dev/mpr121.h ****         i2c_conf.speed  = config.speed;
 1048              		.loc 9 53 25 view .LVU258
 1049              	.LBE566:
 1050              	.LBI554:
  47:../../libs/libDaisy/src/dev/mpr121.h ****     {
 1051              		.loc 9 47 17 is_stmt 1 view .LVU259
 1052              	.LBB567:
  49:../../libs/libDaisy/src/dev/mpr121.h **** 
 1053              		.loc 9 49 9 view .LVU260
  49:../../libs/libDaisy/src/dev/mpr121.h **** 
 1054              		.loc 9 49 17 is_stmt 0 view .LVU261
 1055 0186 0791     		str	r1, [sp, #28]
  54:../../libs/libDaisy/src/dev/mpr121.h **** 
 1056              		.loc 9 54 25 view .LVU262
 1057 0188 0D91     		str	r1, [sp, #52]
  49:../../libs/libDaisy/src/dev/mpr121.h **** 
 1058              		.loc 9 49 17 view .LVU263
 1059 018a BCE80F00 		ldmia	ip!, {r0, r1, r2, r3}
 1060              	.LVL61:
  49:../../libs/libDaisy/src/dev/mpr121.h **** 
 1061              		.loc 9 49 17 view .LVU264
 1062 018e ABE80F00 		stmia	fp!, {r0, r1, r2, r3}
  59:../../libs/libDaisy/src/dev/mpr121.h ****     }
 1063              		.loc 9 59 50 view .LVU265
 1064 0192 0BA9     		add	r1, sp, #44
  49:../../libs/libDaisy/src/dev/mpr121.h **** 
 1065              		.loc 9 49 17 view .LVU266
 1066 0194 8BF80040 		strb	r4, [fp]
  51:../../libs/libDaisy/src/dev/mpr121.h ****         i2c_conf.mode   = I2CHandle::Config::Mode::I2C_MASTER;
 1067              		.loc 9 51 9 is_stmt 1 view .LVU267
 1068              	.LVL62:
 1069              	.LBB564:
 1070              	.LBI556:
 1071              		.loc 11 29 12 view .LVU268
 1072              	.LBB562:
 1073              	.LBB558:
 1074              	.LBI558:
  30:../../libs/libDaisy/src/per/i2c.h ****     {
ARM GAS  C:\Users\skipi\AppData\Local\Temp\ccY719VG.s 			page 40


  31:../../libs/libDaisy/src/per/i2c.h ****         /** Specifies whether the interface will operate in master or slave mode. */
  32:../../libs/libDaisy/src/per/i2c.h ****         enum class Mode
  33:../../libs/libDaisy/src/per/i2c.h ****         {
  34:../../libs/libDaisy/src/per/i2c.h ****             I2C_MASTER,
  35:../../libs/libDaisy/src/per/i2c.h ****             I2C_SLAVE,
  36:../../libs/libDaisy/src/per/i2c.h ****         };
  37:../../libs/libDaisy/src/per/i2c.h **** 
  38:../../libs/libDaisy/src/per/i2c.h ****         /** Specifices the internal peripheral to use (these are mapped to different pins on the ha
  39:../../libs/libDaisy/src/per/i2c.h ****         enum class Peripheral
  40:../../libs/libDaisy/src/per/i2c.h ****         {
  41:../../libs/libDaisy/src/per/i2c.h ****             I2C_1 = 0, /**< & */
  42:../../libs/libDaisy/src/per/i2c.h ****             I2C_2,     /**< & */
  43:../../libs/libDaisy/src/per/i2c.h ****             I2C_3,     /**< & */
  44:../../libs/libDaisy/src/per/i2c.h ****             I2C_4,     /**< & */
  45:../../libs/libDaisy/src/per/i2c.h ****         };
  46:../../libs/libDaisy/src/per/i2c.h **** 
  47:../../libs/libDaisy/src/per/i2c.h ****         /** Rate at which the clock/data will be sent/received. The device being used will have max
  48:../../libs/libDaisy/src/per/i2c.h ****          *  1MHZ Mode is currently 886kHz
  49:../../libs/libDaisy/src/per/i2c.h ****          */
  50:../../libs/libDaisy/src/per/i2c.h ****         enum class Speed
  51:../../libs/libDaisy/src/per/i2c.h ****         {
  52:../../libs/libDaisy/src/per/i2c.h ****             I2C_100KHZ, /**< & */
  53:../../libs/libDaisy/src/per/i2c.h ****             I2C_400KHZ, /**< & */
  54:../../libs/libDaisy/src/per/i2c.h ****             I2C_1MHZ,   /**< & */
  55:../../libs/libDaisy/src/per/i2c.h ****         };
  56:../../libs/libDaisy/src/per/i2c.h **** 
  57:../../libs/libDaisy/src/per/i2c.h ****         Peripheral periph; /**< & */
  58:../../libs/libDaisy/src/per/i2c.h ****         struct
  59:../../libs/libDaisy/src/per/i2c.h ****         {
 1075              		.loc 11 59 9 view .LVU269
 1076              	.LBB559:
 1077              	.LBI559:
 1078              		.file 12 "../../libs/libDaisy/src/daisy_core.h"
   1:../../libs/libDaisy/src/daisy_core.h **** #pragma once
   2:../../libs/libDaisy/src/daisy_core.h **** #ifndef DSY_CORE_HW_H
   3:../../libs/libDaisy/src/daisy_core.h **** #define DSY_CORE_HW_H /**< & */
   4:../../libs/libDaisy/src/daisy_core.h **** #include <stdint.h>
   5:../../libs/libDaisy/src/daisy_core.h **** #include <stdlib.h>
   6:../../libs/libDaisy/src/daisy_core.h **** 
   7:../../libs/libDaisy/src/daisy_core.h **** #if defined(_MSC_VER)
   8:../../libs/libDaisy/src/daisy_core.h **** #define FORCE_INLINE __forceinline /**< & */
   9:../../libs/libDaisy/src/daisy_core.h **** #elif defined(__clang__)
  10:../../libs/libDaisy/src/daisy_core.h **** #define FORCE_INLINE inline __attribute__((always_inline)) /**< & */
  11:../../libs/libDaisy/src/daisy_core.h **** #pragma clang diagnostic ignored "-Wduplicate-decl-specifier"
  12:../../libs/libDaisy/src/daisy_core.h **** #elif defined(__GNUC__)
  13:../../libs/libDaisy/src/daisy_core.h **** #define FORCE_INLINE inline __attribute__((always_inline)) /**< & */
  14:../../libs/libDaisy/src/daisy_core.h **** #else
  15:../../libs/libDaisy/src/daisy_core.h **** #error unknown compiler
  16:../../libs/libDaisy/src/daisy_core.h **** #endif
  17:../../libs/libDaisy/src/daisy_core.h **** 
  18:../../libs/libDaisy/src/daisy_core.h **** /** @addtogroup utility
  19:../../libs/libDaisy/src/daisy_core.h ****     @{
  20:../../libs/libDaisy/src/daisy_core.h **** */
  21:../../libs/libDaisy/src/daisy_core.h **** 
  22:../../libs/libDaisy/src/daisy_core.h **** /** Macro for area of memory that is configured as cacheless
  23:../../libs/libDaisy/src/daisy_core.h **** This should be used primarily for DMA buffers, and the like.
  24:../../libs/libDaisy/src/daisy_core.h **** */
ARM GAS  C:\Users\skipi\AppData\Local\Temp\ccY719VG.s 			page 41


  25:../../libs/libDaisy/src/daisy_core.h **** #define DMA_BUFFER_MEM_SECTION __attribute__((section(".sram1_bss")))
  26:../../libs/libDaisy/src/daisy_core.h **** /** 
  27:../../libs/libDaisy/src/daisy_core.h **** THE DTCM RAM section is also non-cached. However, is not suitable 
  28:../../libs/libDaisy/src/daisy_core.h **** for DMA transfers. Performance is on par with internal SRAM w/ 
  29:../../libs/libDaisy/src/daisy_core.h **** cache enabled.
  30:../../libs/libDaisy/src/daisy_core.h **** */
  31:../../libs/libDaisy/src/daisy_core.h **** #define DTCM_MEM_SECTION __attribute__((section(".dtcmram_bss")))
  32:../../libs/libDaisy/src/daisy_core.h **** 
  33:../../libs/libDaisy/src/daisy_core.h **** #define FBIPMAX 0.999985f             /**< close to 1.0f-LSB at 16 bit */
  34:../../libs/libDaisy/src/daisy_core.h **** #define FBIPMIN (-FBIPMAX)            /**< - (1 - LSB) */
  35:../../libs/libDaisy/src/daisy_core.h **** #define U82F_SCALE 0.0078740f         /**< 1 / 127 */
  36:../../libs/libDaisy/src/daisy_core.h **** #define F2U8_SCALE 127.0f             /**< 128 - 1 */
  37:../../libs/libDaisy/src/daisy_core.h **** #define S82F_SCALE 0.0078125f         /**< 1 / (2**7) */
  38:../../libs/libDaisy/src/daisy_core.h **** #define F2S8_SCALE 127.0f             /**< (2 ** 7) - 1 */
  39:../../libs/libDaisy/src/daisy_core.h **** #define S162F_SCALE 3.0517578125e-05f /**< 1 / (2** 15) */
  40:../../libs/libDaisy/src/daisy_core.h **** #define F2S16_SCALE 32767.0f          /**< (2 ** 15) - 1 */
  41:../../libs/libDaisy/src/daisy_core.h **** #define F2S24_SCALE 8388608.0f        /**< 2 ** 23 */
  42:../../libs/libDaisy/src/daisy_core.h **** #define S242F_SCALE 1.192092896e-07f  /**< 1 / (2 ** 23) */
  43:../../libs/libDaisy/src/daisy_core.h **** #define S24SIGN 0x800000              /**< 2 ** 23 */
  44:../../libs/libDaisy/src/daisy_core.h **** #define S322F_SCALE 4.6566129e-10f    /**< 1 / (2** 31) */
  45:../../libs/libDaisy/src/daisy_core.h **** #define F2S32_SCALE 2147483647.f      /**< (2 ** 31) - 1 */
  46:../../libs/libDaisy/src/daisy_core.h **** 
  47:../../libs/libDaisy/src/daisy_core.h **** 
  48:../../libs/libDaisy/src/daisy_core.h **** /** shorthand macro for simplifying the reading of the left 
  49:../../libs/libDaisy/src/daisy_core.h ****  *  channel of a non-interleaved output buffer named out */
  50:../../libs/libDaisy/src/daisy_core.h **** #define OUT_L out[0]
  51:../../libs/libDaisy/src/daisy_core.h **** 
  52:../../libs/libDaisy/src/daisy_core.h **** /** shorthand macro for simplifying the reading of the right 
  53:../../libs/libDaisy/src/daisy_core.h ****  *  channel of a non-interleaved output buffer named out */
  54:../../libs/libDaisy/src/daisy_core.h **** #define OUT_R out[1]
  55:../../libs/libDaisy/src/daisy_core.h **** 
  56:../../libs/libDaisy/src/daisy_core.h **** /** shorthand macro for simplifying the reading of the left 
  57:../../libs/libDaisy/src/daisy_core.h ****  *  channel of a non-interleaved input buffer named in */
  58:../../libs/libDaisy/src/daisy_core.h **** #define IN_L in[0]
  59:../../libs/libDaisy/src/daisy_core.h **** 
  60:../../libs/libDaisy/src/daisy_core.h **** /** shorthand macro for simplifying the reading of the right 
  61:../../libs/libDaisy/src/daisy_core.h ****  *  channel of a non-interleaved input buffer named in */
  62:../../libs/libDaisy/src/daisy_core.h **** #define IN_R in[1]
  63:../../libs/libDaisy/src/daisy_core.h **** 
  64:../../libs/libDaisy/src/daisy_core.h **** /** 
  65:../../libs/libDaisy/src/daisy_core.h ****     Computes cube.
  66:../../libs/libDaisy/src/daisy_core.h ****     \param x Number to be cubed
  67:../../libs/libDaisy/src/daisy_core.h ****     \return x ^ 3
  68:../../libs/libDaisy/src/daisy_core.h **** */
  69:../../libs/libDaisy/src/daisy_core.h **** FORCE_INLINE float cube(float x)
  70:../../libs/libDaisy/src/daisy_core.h **** {
  71:../../libs/libDaisy/src/daisy_core.h ****     return (x * x) * x;
  72:../../libs/libDaisy/src/daisy_core.h **** }
  73:../../libs/libDaisy/src/daisy_core.h **** 
  74:../../libs/libDaisy/src/daisy_core.h **** /** 
  75:../../libs/libDaisy/src/daisy_core.h ****     Converts unsigned 8-bit to float
  76:../../libs/libDaisy/src/daisy_core.h ****     \param x Number to be scaled.
  77:../../libs/libDaisy/src/daisy_core.h ****     \return Scaled number.
  78:../../libs/libDaisy/src/daisy_core.h **** */
  79:../../libs/libDaisy/src/daisy_core.h **** FORCE_INLINE float u82f(uint8_t x)
  80:../../libs/libDaisy/src/daisy_core.h **** {
  81:../../libs/libDaisy/src/daisy_core.h ****     return ((float)x - 127.f) * U82F_SCALE;
ARM GAS  C:\Users\skipi\AppData\Local\Temp\ccY719VG.s 			page 42


  82:../../libs/libDaisy/src/daisy_core.h **** }
  83:../../libs/libDaisy/src/daisy_core.h **** 
  84:../../libs/libDaisy/src/daisy_core.h **** /**
  85:../../libs/libDaisy/src/daisy_core.h ****     Converts float to unsigned 8-bit
  86:../../libs/libDaisy/src/daisy_core.h **** */
  87:../../libs/libDaisy/src/daisy_core.h **** FORCE_INLINE uint8_t f2u8(float x)
  88:../../libs/libDaisy/src/daisy_core.h **** {
  89:../../libs/libDaisy/src/daisy_core.h ****     x = x <= FBIPMIN ? FBIPMIN : x;
  90:../../libs/libDaisy/src/daisy_core.h ****     x = x >= FBIPMAX ? FBIPMAX : x;
  91:../../libs/libDaisy/src/daisy_core.h ****     return (uint8_t)((x * F2U8_SCALE) + F2U8_SCALE);
  92:../../libs/libDaisy/src/daisy_core.h **** }
  93:../../libs/libDaisy/src/daisy_core.h **** 
  94:../../libs/libDaisy/src/daisy_core.h **** 
  95:../../libs/libDaisy/src/daisy_core.h **** /** 
  96:../../libs/libDaisy/src/daisy_core.h ****     Converts Signed 8-bit to float
  97:../../libs/libDaisy/src/daisy_core.h ****     \param x Number to be scaled.
  98:../../libs/libDaisy/src/daisy_core.h ****     \return Scaled number.
  99:../../libs/libDaisy/src/daisy_core.h **** */
 100:../../libs/libDaisy/src/daisy_core.h **** FORCE_INLINE float s82f(int8_t x)
 101:../../libs/libDaisy/src/daisy_core.h **** {
 102:../../libs/libDaisy/src/daisy_core.h ****     return (float)x * S82F_SCALE;
 103:../../libs/libDaisy/src/daisy_core.h **** }
 104:../../libs/libDaisy/src/daisy_core.h **** 
 105:../../libs/libDaisy/src/daisy_core.h **** /**
 106:../../libs/libDaisy/src/daisy_core.h ****     Converts float to Signed 8-bit
 107:../../libs/libDaisy/src/daisy_core.h **** */
 108:../../libs/libDaisy/src/daisy_core.h **** FORCE_INLINE int8_t f2s8(float x)
 109:../../libs/libDaisy/src/daisy_core.h **** {
 110:../../libs/libDaisy/src/daisy_core.h ****     x = x <= FBIPMIN ? FBIPMIN : x;
 111:../../libs/libDaisy/src/daisy_core.h ****     x = x >= FBIPMAX ? FBIPMAX : x;
 112:../../libs/libDaisy/src/daisy_core.h ****     return (int32_t)(x * F2S8_SCALE);
 113:../../libs/libDaisy/src/daisy_core.h **** }
 114:../../libs/libDaisy/src/daisy_core.h **** 
 115:../../libs/libDaisy/src/daisy_core.h **** /** 
 116:../../libs/libDaisy/src/daisy_core.h ****     Converts Signed 16-bit to float
 117:../../libs/libDaisy/src/daisy_core.h ****     \param x Number to be scaled.
 118:../../libs/libDaisy/src/daisy_core.h ****     \return Scaled number.
 119:../../libs/libDaisy/src/daisy_core.h **** */
 120:../../libs/libDaisy/src/daisy_core.h **** FORCE_INLINE float s162f(int16_t x)
 121:../../libs/libDaisy/src/daisy_core.h **** {
 122:../../libs/libDaisy/src/daisy_core.h ****     return (float)x * S162F_SCALE;
 123:../../libs/libDaisy/src/daisy_core.h **** }
 124:../../libs/libDaisy/src/daisy_core.h **** 
 125:../../libs/libDaisy/src/daisy_core.h **** /**
 126:../../libs/libDaisy/src/daisy_core.h ****     Converts float to Signed 16-bit
 127:../../libs/libDaisy/src/daisy_core.h **** */
 128:../../libs/libDaisy/src/daisy_core.h **** FORCE_INLINE int16_t f2s16(float x)
 129:../../libs/libDaisy/src/daisy_core.h **** {
 130:../../libs/libDaisy/src/daisy_core.h ****     x = x <= FBIPMIN ? FBIPMIN : x;
 131:../../libs/libDaisy/src/daisy_core.h ****     x = x >= FBIPMAX ? FBIPMAX : x;
 132:../../libs/libDaisy/src/daisy_core.h ****     return (int32_t)(x * F2S16_SCALE);
 133:../../libs/libDaisy/src/daisy_core.h **** }
 134:../../libs/libDaisy/src/daisy_core.h **** 
 135:../../libs/libDaisy/src/daisy_core.h **** /**
 136:../../libs/libDaisy/src/daisy_core.h ****     Converts Signed 24-bit to float
 137:../../libs/libDaisy/src/daisy_core.h ****  */
 138:../../libs/libDaisy/src/daisy_core.h **** FORCE_INLINE float s242f(int32_t x)
ARM GAS  C:\Users\skipi\AppData\Local\Temp\ccY719VG.s 			page 43


 139:../../libs/libDaisy/src/daisy_core.h **** {
 140:../../libs/libDaisy/src/daisy_core.h ****     x = (x ^ S24SIGN) - S24SIGN; //sign extend aka ((x<<8)>>8)
 141:../../libs/libDaisy/src/daisy_core.h ****     return (float)x * S242F_SCALE;
 142:../../libs/libDaisy/src/daisy_core.h **** }
 143:../../libs/libDaisy/src/daisy_core.h **** /**
 144:../../libs/libDaisy/src/daisy_core.h ****     Converts float to Signed 24-bit
 145:../../libs/libDaisy/src/daisy_core.h ****  */
 146:../../libs/libDaisy/src/daisy_core.h **** FORCE_INLINE int32_t f2s24(float x)
 147:../../libs/libDaisy/src/daisy_core.h **** {
 148:../../libs/libDaisy/src/daisy_core.h ****     x = x <= FBIPMIN ? FBIPMIN : x;
 149:../../libs/libDaisy/src/daisy_core.h ****     x = x >= FBIPMAX ? FBIPMAX : x;
 150:../../libs/libDaisy/src/daisy_core.h ****     return (int32_t)(x * F2S24_SCALE);
 151:../../libs/libDaisy/src/daisy_core.h **** }
 152:../../libs/libDaisy/src/daisy_core.h **** 
 153:../../libs/libDaisy/src/daisy_core.h **** /**
 154:../../libs/libDaisy/src/daisy_core.h ****     Converts Signed 32-bit to float
 155:../../libs/libDaisy/src/daisy_core.h ****  */
 156:../../libs/libDaisy/src/daisy_core.h **** FORCE_INLINE float s322f(int32_t x)
 157:../../libs/libDaisy/src/daisy_core.h **** {
 158:../../libs/libDaisy/src/daisy_core.h ****     return (float)x * S322F_SCALE;
 159:../../libs/libDaisy/src/daisy_core.h **** }
 160:../../libs/libDaisy/src/daisy_core.h **** /**
 161:../../libs/libDaisy/src/daisy_core.h ****     Converts float to Signed 24-bit
 162:../../libs/libDaisy/src/daisy_core.h ****  */
 163:../../libs/libDaisy/src/daisy_core.h **** FORCE_INLINE int32_t f2s32(float x)
 164:../../libs/libDaisy/src/daisy_core.h **** {
 165:../../libs/libDaisy/src/daisy_core.h ****     x = x <= FBIPMIN ? FBIPMIN : x;
 166:../../libs/libDaisy/src/daisy_core.h ****     x = x >= FBIPMAX ? FBIPMAX : x;
 167:../../libs/libDaisy/src/daisy_core.h ****     return (int32_t)(x * F2S32_SCALE);
 168:../../libs/libDaisy/src/daisy_core.h **** }
 169:../../libs/libDaisy/src/daisy_core.h **** 
 170:../../libs/libDaisy/src/daisy_core.h **** #ifdef __cplusplus
 171:../../libs/libDaisy/src/daisy_core.h **** 
 172:../../libs/libDaisy/src/daisy_core.h **** namespace daisy
 173:../../libs/libDaisy/src/daisy_core.h **** {
 174:../../libs/libDaisy/src/daisy_core.h **** /** @brief GPIO Port names */
 175:../../libs/libDaisy/src/daisy_core.h **** enum GPIOPort
 176:../../libs/libDaisy/src/daisy_core.h **** {
 177:../../libs/libDaisy/src/daisy_core.h ****     PORTA, /**< Port A */
 178:../../libs/libDaisy/src/daisy_core.h ****     PORTB, /**< Port B */
 179:../../libs/libDaisy/src/daisy_core.h ****     PORTC, /**< Port C */
 180:../../libs/libDaisy/src/daisy_core.h ****     PORTD, /**< Port D */
 181:../../libs/libDaisy/src/daisy_core.h ****     PORTE, /**< Port E */
 182:../../libs/libDaisy/src/daisy_core.h ****     PORTF, /**< Port F */
 183:../../libs/libDaisy/src/daisy_core.h ****     PORTG, /**< Port G */
 184:../../libs/libDaisy/src/daisy_core.h ****     PORTH, /**< Port H */
 185:../../libs/libDaisy/src/daisy_core.h ****     PORTI, /**< Port I */
 186:../../libs/libDaisy/src/daisy_core.h ****     PORTJ, /**< Port J */
 187:../../libs/libDaisy/src/daisy_core.h ****     PORTK, /**< Port K */
 188:../../libs/libDaisy/src/daisy_core.h ****     PORTX, /**< Used as a dummy port to signal an invalid pin. */
 189:../../libs/libDaisy/src/daisy_core.h **** };
 190:../../libs/libDaisy/src/daisy_core.h **** 
 191:../../libs/libDaisy/src/daisy_core.h **** /** @brief representation of hardware port/pin combination */
 192:../../libs/libDaisy/src/daisy_core.h **** struct Pin
 193:../../libs/libDaisy/src/daisy_core.h **** {
 194:../../libs/libDaisy/src/daisy_core.h ****     GPIOPort port;
 195:../../libs/libDaisy/src/daisy_core.h ****     uint8_t  pin;
ARM GAS  C:\Users\skipi\AppData\Local\Temp\ccY719VG.s 			page 44


 196:../../libs/libDaisy/src/daisy_core.h **** 
 197:../../libs/libDaisy/src/daisy_core.h ****     /** @brief Constructor creates a valid pin. 
 198:../../libs/libDaisy/src/daisy_core.h ****      *  @param pt GPIOPort between PA, and PK corresponding to STM32 Port.
 199:../../libs/libDaisy/src/daisy_core.h ****      *  @param pn pin number in range of 0-15
 200:../../libs/libDaisy/src/daisy_core.h ****     */
 201:../../libs/libDaisy/src/daisy_core.h ****     constexpr Pin(const GPIOPort pt, const uint8_t pn) : port(pt), pin(pn) {}
 202:../../libs/libDaisy/src/daisy_core.h **** 
 203:../../libs/libDaisy/src/daisy_core.h ****     /** @brief Basic Constructor creates an invalid Pin object */
 204:../../libs/libDaisy/src/daisy_core.h ****     constexpr Pin() : port(PORTX), pin(255) {}
 1079              		.loc 12 204 15 view .LVU270
 1080              		.loc 12 204 15 is_stmt 0 view .LVU271
 1081              	.LBE559:
 1082              	.LBB560:
 1083              	.LBI560:
 1084              		.loc 12 204 15 is_stmt 1 view .LVU272
 1085              		.loc 12 204 15 is_stmt 0 view .LVU273
 1086              	.LBE560:
 1087              	.LBE558:
 1088              	.LBE562:
 1089              	.LBE564:
  52:../../libs/libDaisy/src/dev/mpr121.h ****         i2c_conf.periph = config.periph;
 1090              		.loc 9 52 9 is_stmt 1 view .LVU274
  53:../../libs/libDaisy/src/dev/mpr121.h ****         i2c_conf.speed  = config.speed;
 1091              		.loc 9 53 9 view .LVU275
  54:../../libs/libDaisy/src/dev/mpr121.h **** 
 1092              		.loc 9 54 9 view .LVU276
  56:../../libs/libDaisy/src/dev/mpr121.h ****         i2c_conf.pin_config.sda = config.sda;
 1093              		.loc 9 56 9 view .LVU277
  57:../../libs/libDaisy/src/dev/mpr121.h **** 
 1094              		.loc 9 57 9 view .LVU278
  59:../../libs/libDaisy/src/dev/mpr121.h ****     }
 1095              		.loc 9 59 9 view .LVU279
  59:../../libs/libDaisy/src/dev/mpr121.h ****     }
 1096              		.loc 9 59 50 is_stmt 0 view .LVU280
 1097 0198 05F11800 		add	r0, r5, #24
 1098              	.LVL63:
  59:../../libs/libDaisy/src/dev/mpr121.h ****     }
 1099              		.loc 9 59 50 view .LVU281
 1100 019c FFF7FEFF 		bl	_ZN5daisy9I2CHandle4InitERKNS0_6ConfigE
 1101              	.LVL64:
  59:../../libs/libDaisy/src/dev/mpr121.h ****     }
 1102              		.loc 9 59 50 view .LVU282
 1103              	.LBE567:
 1104              	.LBE569:
 1105              	.LBB570:
 1106              	.LBI570:
 1107              		.loc 9 343 10 is_stmt 1 view .LVU283
 1108              	.LBB571:
 1109              		.loc 9 343 55 is_stmt 0 view .LVU284
 1110 01a0 95F83030 		ldrb	r3, [r5, #48]	@ zero_extendqisi2
 1111              	.LBE571:
 1112              	.LBE570:
 128:../../libs/libDaisy/src/dev/mpr121.h ****         System::Delay(1);
 1113              		.loc 9 128 22 view .LVU285
 1114 01a4 8021     		movs	r1, #128
 1115 01a6 6322     		movs	r2, #99
 1116              	.LBB574:
ARM GAS  C:\Users\skipi\AppData\Local\Temp\ccY719VG.s 			page 45


 1117              	.LBB572:
 1118              		.loc 9 343 55 view .LVU286
 1119 01a8 0028     		cmp	r0, #0
 1120 01aa 18BF     		it	ne
 1121 01ac 43F00103 		orrne	r3, r3, #1
 1122              	.LBE572:
 1123              	.LBE574:
 128:../../libs/libDaisy/src/dev/mpr121.h ****         System::Delay(1);
 1124              		.loc 9 128 22 view .LVU287
 1125 01b0 2846     		mov	r0, r5
 1126              	.LVL65:
 1127              	.LBB575:
 1128              	.LBB573:
 1129              		.loc 9 343 55 view .LVU288
 1130 01b2 85F83030 		strb	r3, [r5, #48]
 1131              	.LVL66:
 1132              		.loc 9 343 55 view .LVU289
 1133              	.LBE573:
 1134              	.LBE575:
 128:../../libs/libDaisy/src/dev/mpr121.h ****         System::Delay(1);
 1135              		.loc 9 128 22 view .LVU290
 1136 01b6 FFF7FEFF 		bl	_ZN5daisy6Mpr121INS_18Mpr121I2CTransportEE13WriteRegisterEhh
 1137              	.LVL67:
 129:../../libs/libDaisy/src/dev/mpr121.h **** 
 1138              		.loc 9 129 22 view .LVU291
 1139 01ba 4046     		mov	r0, r8
 1140 01bc FFF7FEFF 		bl	_ZN5daisy6System5DelayEm
 1141              	.LVL68:
 131:../../libs/libDaisy/src/dev/mpr121.h **** 
 1142              		.loc 9 131 22 view .LVU292
 1143 01c0 0022     		movs	r2, #0
 1144 01c2 5E21     		movs	r1, #94
 1145 01c4 2846     		mov	r0, r5
 1146 01c6 FFF7FEFF 		bl	_ZN5daisy6Mpr121INS_18Mpr121I2CTransportEE13WriteRegisterEhh
 1147              	.LVL69:
 139:../../libs/libDaisy/src/dev/mpr121.h ****         WriteRegister(MPR121_MHDR, 0x01);
 1148              		.loc 9 139 22 view .LVU293
 1149 01ca 95F814A0 		ldrb	r10, [r5, #20]	@ zero_extendqisi2
 1150 01ce 95F815B0 		ldrb	fp, [r5, #21]	@ zero_extendqisi2
 1151              	.LVL70:
 1152              	.LBB576:
 1153              	.LBI576:
 183:../../libs/libDaisy/src/dev/mpr121.h ****     {
 1154              		.loc 9 183 10 is_stmt 1 view .LVU294
 1155              	.LBB577:
 186:../../libs/libDaisy/src/dev/mpr121.h ****         {
 1156              		.loc 9 186 30 view .LVU295
 1157              	.L26:
 1158              	.LBB578:
 1159              	.LBI578:
 257:../../libs/libDaisy/src/dev/mpr121.h ****     {
 1160              		.loc 9 257 10 view .LVU296
 1161              	.LBB579:
 1162              	.LBB580:
 1163              	.LBB581:
  66:../../libs/libDaisy/src/dev/mpr121.h ****     }
 1164              		.loc 9 66 40 is_stmt 0 view .LVU297
ARM GAS  C:\Users\skipi\AppData\Local\Temp\ccY719VG.s 			page 46


 1165 01d2 0A24     		movs	r4, #10
 1166              	.LBE581:
 1167              	.LBE580:
 264:../../libs/libDaisy/src/dev/mpr121.h **** 
 1168              		.loc 9 264 17 view .LVU298
 1169 01d4 4FF00009 		mov	r9, #0
 1170 01d8 4FF05E08 		mov	r8, #94
 1171              	.LBB584:
 1172              	.LBB582:
  66:../../libs/libDaisy/src/dev/mpr121.h ****     }
 1173              		.loc 9 66 40 view .LVU299
 1174 01dc 0123     		movs	r3, #1
 1175 01de 0BAA     		add	r2, sp, #44
 1176 01e0 0094     		str	r4, [sp]
 1177 01e2 6848     		ldr	r0, .L40+64
 1178 01e4 95F82C10 		ldrb	r1, [r5, #44]	@ zero_extendqisi2
 1179              	.LBE582:
 1180              	.LBE584:
 264:../../libs/libDaisy/src/dev/mpr121.h **** 
 1181              		.loc 9 264 17 view .LVU300
 1182 01e8 8DF82D90 		strb	r9, [sp, #45]
 1183 01ec 8DF82C80 		strb	r8, [sp, #44]
 1184              	.LVL71:
 1185              	.LBB585:
 1186              	.LBI580:
  63:../../libs/libDaisy/src/dev/mpr121.h ****     {
 1187              		.loc 9 63 10 is_stmt 1 view .LVU301
 1188              	.LBB583:
  65:../../libs/libDaisy/src/dev/mpr121.h ****                != i2c_.TransmitBlocking(config_.dev_addr, data, size, 10);
 1189              		.loc 9 65 9 view .LVU302
  66:../../libs/libDaisy/src/dev/mpr121.h ****     }
 1190              		.loc 9 66 40 is_stmt 0 view .LVU303
 1191 01f0 FFF7FEFF 		bl	_ZN5daisy9I2CHandle16TransmitBlockingEtPhtm
 1192              	.LVL72:
  66:../../libs/libDaisy/src/dev/mpr121.h ****     }
 1193              		.loc 9 66 40 view .LVU304
 1194              	.LBE583:
 1195              	.LBE585:
 1196              	.LBB586:
 1197              	.LBI586:
 1198              		.loc 9 343 10 is_stmt 1 view .LVU305
 1199              	.LBB587:
 1200              		.loc 9 343 55 is_stmt 0 view .LVU306
 1201 01f4 95F83020 		ldrb	r2, [r5, #48]	@ zero_extendqisi2
 1202              	.LBE587:
 1203              	.LBE586:
 1204              	.LBB590:
 1205              	.LBB591:
  73:../../libs/libDaisy/src/dev/mpr121.h ****     }
 1206              		.loc 9 73 39 view .LVU307
 1207 01f8 0123     		movs	r3, #1
 1208 01fa 0094     		str	r4, [sp]
 1209              	.LBE591:
 1210              	.LBE590:
 1211              	.LBB594:
 1212              	.LBB588:
 1213              		.loc 9 343 55 view .LVU308
ARM GAS  C:\Users\skipi\AppData\Local\Temp\ccY719VG.s 			page 47


 1214 01fc 4845     		cmp	r0, r9
 1215 01fe 18BF     		it	ne
 1216 0200 42F00102 		orrne	r2, r2, #1
 1217              	.LBE588:
 1218              	.LBE594:
 1219              	.LBB595:
 1220              	.LBB592:
  73:../../libs/libDaisy/src/dev/mpr121.h ****     }
 1221              		.loc 9 73 39 view .LVU309
 1222 0204 95F82C10 		ldrb	r1, [r5, #44]	@ zero_extendqisi2
 1223 0208 5E48     		ldr	r0, .L40+64
 1224              	.LVL73:
  73:../../libs/libDaisy/src/dev/mpr121.h ****     }
 1225              		.loc 9 73 39 view .LVU310
 1226              	.LBE592:
 1227              	.LBE595:
 1228              	.LBB596:
 1229              	.LBB589:
 1230              		.loc 9 343 55 view .LVU311
 1231 020a 85F83020 		strb	r2, [r5, #48]
 1232              	.LVL74:
 1233              		.loc 9 343 55 view .LVU312
 1234              	.LBE589:
 1235              	.LBE596:
 1236              	.LBB597:
 1237              	.LBI590:
  70:../../libs/libDaisy/src/dev/mpr121.h ****     {
 1238              		.loc 9 70 10 is_stmt 1 view .LVU313
 1239              	.LBB593:
  72:../../libs/libDaisy/src/dev/mpr121.h ****                != i2c_.ReceiveBlocking(config_.dev_addr, data, size, 10);
 1240              		.loc 9 72 9 view .LVU314
  73:../../libs/libDaisy/src/dev/mpr121.h ****     }
 1241              		.loc 9 73 39 is_stmt 0 view .LVU315
 1242 020e 06AA     		add	r2, sp, #24
 1243 0210 FFF7FEFF 		bl	_ZN5daisy9I2CHandle15ReceiveBlockingEtPhtm
 1244              	.LVL75:
  73:../../libs/libDaisy/src/dev/mpr121.h ****     }
 1245              		.loc 9 73 39 view .LVU316
 1246              	.LBE593:
 1247              	.LBE597:
 1248              	.LBB598:
 1249              	.LBI598:
 1250              		.loc 9 343 10 is_stmt 1 view .LVU317
 1251              	.LBB599:
 1252              		.loc 9 343 55 is_stmt 0 view .LVU318
 1253 0214 95F83020 		ldrb	r2, [r5, #48]	@ zero_extendqisi2
 1254              	.LBE599:
 1255              	.LBE598:
 1256              	.LBB602:
 1257              	.LBB603:
  66:../../libs/libDaisy/src/dev/mpr121.h ****     }
 1258              		.loc 9 66 40 view .LVU319
 1259 0218 0223     		movs	r3, #2
 1260 021a 0094     		str	r4, [sp]
 1261              	.LBE603:
 1262              	.LBE602:
 1263              	.LBB606:
ARM GAS  C:\Users\skipi\AppData\Local\Temp\ccY719VG.s 			page 48


 1264              	.LBB600:
 1265              		.loc 9 343 55 view .LVU320
 1266 021c 4845     		cmp	r0, r9
 1267 021e 18BF     		it	ne
 1268 0220 42F00102 		orrne	r2, r2, #1
 1269              	.LBE600:
 1270              	.LBE606:
 1271              	.LBB607:
 1272              	.LBB604:
  66:../../libs/libDaisy/src/dev/mpr121.h ****     }
 1273              		.loc 9 66 40 view .LVU321
 1274 0224 95F82C10 		ldrb	r1, [r5, #44]	@ zero_extendqisi2
 1275 0228 5648     		ldr	r0, .L40+64
 1276              	.LVL76:
  66:../../libs/libDaisy/src/dev/mpr121.h ****     }
 1277              		.loc 9 66 40 view .LVU322
 1278              	.LBE604:
 1279              	.LBE607:
 1280              	.LBB608:
 1281              	.LBB601:
 1282              		.loc 9 343 55 view .LVU323
 1283 022a 85F83020 		strb	r2, [r5, #48]
 1284              	.LVL77:
 1285              		.loc 9 343 55 view .LVU324
 1286              	.LBE601:
 1287              	.LBE608:
 1288              	.LBB609:
 1289              	.LBI602:
  63:../../libs/libDaisy/src/dev/mpr121.h ****     {
 1290              		.loc 9 63 10 is_stmt 1 view .LVU325
 1291              	.LBB605:
  65:../../libs/libDaisy/src/dev/mpr121.h ****                != i2c_.TransmitBlocking(config_.dev_addr, data, size, 10);
 1292              		.loc 9 65 9 view .LVU326
  66:../../libs/libDaisy/src/dev/mpr121.h ****     }
 1293              		.loc 9 66 40 is_stmt 0 view .LVU327
 1294 022e 0BAA     		add	r2, sp, #44
 1295              	.LVL78:
  66:../../libs/libDaisy/src/dev/mpr121.h ****     }
 1296              		.loc 9 66 40 view .LVU328
 1297 0230 FFF7FEFF 		bl	_ZN5daisy9I2CHandle16TransmitBlockingEtPhtm
 1298              	.LVL79:
  66:../../libs/libDaisy/src/dev/mpr121.h ****     }
 1299              		.loc 9 66 40 view .LVU329
 1300              	.LBE605:
 1301              	.LBE609:
 1302              	.LBB610:
 1303              	.LBI610:
 1304              		.loc 9 343 10 is_stmt 1 view .LVU330
 1305              	.LBB611:
 1306              		.loc 9 343 55 is_stmt 0 view .LVU331
 1307 0234 95F83020 		ldrb	r2, [r5, #48]	@ zero_extendqisi2
 1308              	.LBE611:
 1309              	.LBE610:
 1310              	.LBB614:
 1311              	.LBB615:
  66:../../libs/libDaisy/src/dev/mpr121.h ****     }
 1312              		.loc 9 66 40 view .LVU332
ARM GAS  C:\Users\skipi\AppData\Local\Temp\ccY719VG.s 			page 49


 1313 0238 0223     		movs	r3, #2
 1314 023a 0094     		str	r4, [sp]
 1315              	.LBE615:
 1316              	.LBE614:
 1317              	.LBB619:
 1318              	.LBB612:
 1319              		.loc 9 343 55 view .LVU333
 1320 023c 4845     		cmp	r0, r9
 1321 023e 18BF     		it	ne
 1322 0240 42F00102 		orrne	r2, r2, #1
 1323              	.LBE612:
 1324              	.LBE619:
 1325              	.LBB620:
 1326              	.LBB616:
  66:../../libs/libDaisy/src/dev/mpr121.h ****     }
 1327              		.loc 9 66 40 view .LVU334
 1328 0244 95F82C10 		ldrb	r1, [r5, #44]	@ zero_extendqisi2
 1329 0248 4E48     		ldr	r0, .L40+64
 1330              	.LVL80:
  66:../../libs/libDaisy/src/dev/mpr121.h ****     }
 1331              		.loc 9 66 40 view .LVU335
 1332              	.LBE616:
 1333              	.LBE620:
 1334              	.LBB621:
 1335              	.LBB613:
 1336              		.loc 9 343 55 view .LVU336
 1337 024a 85F83020 		strb	r2, [r5, #48]
 1338              	.LVL81:
 1339              		.loc 9 343 55 view .LVU337
 1340              	.LBE613:
 1341              	.LBE621:
 1342              	.LBB622:
 1343              	.LBI614:
  63:../../libs/libDaisy/src/dev/mpr121.h ****     {
 1344              		.loc 9 63 10 is_stmt 1 view .LVU338
 1345              	.LBB617:
  65:../../libs/libDaisy/src/dev/mpr121.h ****                != i2c_.TransmitBlocking(config_.dev_addr, data, size, 10);
 1346              		.loc 9 65 9 view .LVU339
  66:../../libs/libDaisy/src/dev/mpr121.h ****     }
 1347              		.loc 9 66 40 is_stmt 0 view .LVU340
 1348 024e 0BAA     		add	r2, sp, #44
 1349              	.LVL82:
  66:../../libs/libDaisy/src/dev/mpr121.h ****     }
 1350              		.loc 9 66 40 view .LVU341
 1351              	.LBE617:
 1352              	.LBE622:
 281:../../libs/libDaisy/src/dev/mpr121.h ****         buff[1] = value;
 1353              		.loc 9 281 17 view .LVU342
 1354 0250 8DF82C60 		strb	r6, [sp, #44]
 282:../../libs/libDaisy/src/dev/mpr121.h ****         SetTransportErr(transport_.Write(buff, 2));
 1355              		.loc 9 282 17 view .LVU343
 1356 0254 8DF82DA0 		strb	r10, [sp, #45]
 1357              	.LBB623:
 1358              	.LBB618:
  66:../../libs/libDaisy/src/dev/mpr121.h ****     }
 1359              		.loc 9 66 40 view .LVU344
 1360 0258 FFF7FEFF 		bl	_ZN5daisy9I2CHandle16TransmitBlockingEtPhtm
ARM GAS  C:\Users\skipi\AppData\Local\Temp\ccY719VG.s 			page 50


 1361              	.LVL83:
  66:../../libs/libDaisy/src/dev/mpr121.h ****     }
 1362              		.loc 9 66 40 view .LVU345
 1363              	.LBE618:
 1364              	.LBE623:
 1365              	.LBB624:
 1366              	.LBI624:
 1367              		.loc 9 343 10 is_stmt 1 view .LVU346
 1368              	.LBB625:
 1369              		.loc 9 343 55 is_stmt 0 view .LVU347
 1370 025c 95F83030 		ldrb	r3, [r5, #48]	@ zero_extendqisi2
 1371              	.LBE625:
 1372              	.LBE624:
 289:../../libs/libDaisy/src/dev/mpr121.h ****             SetTransportErr(transport_.Write(buff, 2));
 1373              		.loc 9 289 21 view .LVU348
 1374 0260 9DF81820 		ldrb	r2, [sp, #24]	@ zero_extendqisi2
 1375              	.LBB628:
 1376              	.LBB626:
 1377              		.loc 9 343 55 view .LVU349
 1378 0264 4845     		cmp	r0, r9
 1379 0266 18BF     		it	ne
 1380 0268 43F00103 		orrne	r3, r3, #1
 1381              	.LBE626:
 1382              	.LBE628:
 1383              	.LBB629:
 1384              	.LBB630:
  66:../../libs/libDaisy/src/dev/mpr121.h ****     }
 1385              		.loc 9 66 40 view .LVU350
 1386 026c 0094     		str	r4, [sp]
 1387              	.LBE630:
 1388              	.LBE629:
 289:../../libs/libDaisy/src/dev/mpr121.h ****             SetTransportErr(transport_.Write(buff, 2));
 1389              		.loc 9 289 21 view .LVU351
 1390 026e 8DF82D20 		strb	r2, [sp, #45]
 1391              	.LBB634:
 1392              	.LBB631:
  66:../../libs/libDaisy/src/dev/mpr121.h ****     }
 1393              		.loc 9 66 40 view .LVU352
 1394 0272 0BAA     		add	r2, sp, #44
 1395 0274 95F82C10 		ldrb	r1, [r5, #44]	@ zero_extendqisi2
 1396              	.LBE631:
 1397              	.LBE634:
 1398              	.LBB635:
 1399              	.LBB627:
 1400              		.loc 9 343 55 view .LVU353
 1401 0278 85F83030 		strb	r3, [r5, #48]
 1402              	.LVL84:
 1403              		.loc 9 343 55 view .LVU354
 1404              	.LBE627:
 1405              	.LBE635:
 1406              	.LBB636:
 1407              	.LBI629:
  63:../../libs/libDaisy/src/dev/mpr121.h ****     {
 1408              		.loc 9 63 10 is_stmt 1 view .LVU355
 1409              	.LBB632:
  65:../../libs/libDaisy/src/dev/mpr121.h ****                != i2c_.TransmitBlocking(config_.dev_addr, data, size, 10);
 1410              		.loc 9 65 9 view .LVU356
ARM GAS  C:\Users\skipi\AppData\Local\Temp\ccY719VG.s 			page 51


  66:../../libs/libDaisy/src/dev/mpr121.h ****     }
 1411              		.loc 9 66 40 is_stmt 0 view .LVU357
 1412 027c 0223     		movs	r3, #2
 1413 027e 4148     		ldr	r0, .L40+64
 1414              	.LBE632:
 1415              	.LBE636:
 288:../../libs/libDaisy/src/dev/mpr121.h ****             buff[1] = ecr_backup;
 1416              		.loc 9 288 21 view .LVU358
 1417 0280 8DF82C80 		strb	r8, [sp, #44]
 1418              	.LBB637:
 1419              	.LBB633:
  66:../../libs/libDaisy/src/dev/mpr121.h ****     }
 1420              		.loc 9 66 40 view .LVU359
 1421 0284 FFF7FEFF 		bl	_ZN5daisy9I2CHandle16TransmitBlockingEtPhtm
 1422              	.LVL85:
  66:../../libs/libDaisy/src/dev/mpr121.h ****     }
 1423              		.loc 9 66 40 view .LVU360
 1424              	.LBE633:
 1425              	.LBE637:
 1426              	.LBB638:
 1427              	.LBI638:
 1428              		.loc 9 343 10 is_stmt 1 view .LVU361
 1429              	.LBB639:
 1430              		.loc 9 343 55 is_stmt 0 view .LVU362
 1431 0288 95F83020 		ldrb	r2, [r5, #48]	@ zero_extendqisi2
 1432              	.LBE639:
 1433              	.LBE638:
 1434              	.LBE579:
 1435              	.LBE578:
 1436              	.LBB646:
 1437              	.LBB647:
 1438              	.LBB648:
 1439              	.LBB649:
  66:../../libs/libDaisy/src/dev/mpr121.h ****     }
 1440              		.loc 9 66 40 view .LVU363
 1441 028c 0123     		movs	r3, #1
 1442 028e 0094     		str	r4, [sp]
 1443              	.LBE649:
 1444              	.LBE648:
 1445              	.LBE647:
 1446              	.LBE646:
 1447              	.LBB719:
 1448              	.LBB644:
 1449              	.LBB642:
 1450              	.LBB640:
 1451              		.loc 9 343 55 view .LVU364
 1452 0290 4845     		cmp	r0, r9
 1453 0292 18BF     		it	ne
 1454 0294 42F00102 		orrne	r2, r2, #1
 1455              	.LBE640:
 1456              	.LBE642:
 1457              	.LBE644:
 1458              	.LBE719:
 1459              	.LBB720:
 1460              	.LBB714:
 1461              	.LBB653:
 1462              	.LBB650:
ARM GAS  C:\Users\skipi\AppData\Local\Temp\ccY719VG.s 			page 52


  66:../../libs/libDaisy/src/dev/mpr121.h ****     }
 1463              		.loc 9 66 40 view .LVU365
 1464 0298 95F82C10 		ldrb	r1, [r5, #44]	@ zero_extendqisi2
 1465 029c 3948     		ldr	r0, .L40+64
 1466              	.LVL86:
  66:../../libs/libDaisy/src/dev/mpr121.h ****     }
 1467              		.loc 9 66 40 view .LVU366
 1468              	.LBE650:
 1469              	.LBE653:
 1470              	.LBE714:
 1471              	.LBE720:
 1472              	.LBB721:
 1473              	.LBB645:
 1474              	.LBB643:
 1475              	.LBB641:
 1476              		.loc 9 343 55 view .LVU367
 1477 029e 85F83020 		strb	r2, [r5, #48]
 1478              	.LVL87:
 1479              		.loc 9 343 55 view .LVU368
 1480              	.LBE641:
 1481              	.LBE643:
 1482              	.LBE645:
 1483              	.LBE721:
 1484              	.LBB722:
 1485              	.LBI646:
 257:../../libs/libDaisy/src/dev/mpr121.h ****     {
 1486              		.loc 9 257 10 is_stmt 1 view .LVU369
 1487              	.LBB715:
 1488              	.LBB654:
 1489              	.LBI648:
  63:../../libs/libDaisy/src/dev/mpr121.h ****     {
 1490              		.loc 9 63 10 view .LVU370
 1491              	.LBB651:
  65:../../libs/libDaisy/src/dev/mpr121.h ****                != i2c_.TransmitBlocking(config_.dev_addr, data, size, 10);
 1492              		.loc 9 65 9 view .LVU371
  66:../../libs/libDaisy/src/dev/mpr121.h ****     }
 1493              		.loc 9 66 40 is_stmt 0 view .LVU372
 1494 02a2 0BAA     		add	r2, sp, #44
 1495              	.LVL88:
  66:../../libs/libDaisy/src/dev/mpr121.h ****     }
 1496              		.loc 9 66 40 view .LVU373
 1497              	.LBE651:
 1498              	.LBE654:
 264:../../libs/libDaisy/src/dev/mpr121.h **** 
 1499              		.loc 9 264 17 view .LVU374
 1500 02a4 8DF82D90 		strb	r9, [sp, #45]
 1501 02a8 8DF82C80 		strb	r8, [sp, #44]
 1502              	.LBB655:
 1503              	.LBB652:
  66:../../libs/libDaisy/src/dev/mpr121.h ****     }
 1504              		.loc 9 66 40 view .LVU375
 1505 02ac FFF7FEFF 		bl	_ZN5daisy9I2CHandle16TransmitBlockingEtPhtm
 1506              	.LVL89:
  66:../../libs/libDaisy/src/dev/mpr121.h ****     }
 1507              		.loc 9 66 40 view .LVU376
 1508              	.LBE652:
 1509              	.LBE655:
ARM GAS  C:\Users\skipi\AppData\Local\Temp\ccY719VG.s 			page 53


 1510              	.LBB656:
 1511              	.LBI656:
 1512              		.loc 9 343 10 is_stmt 1 view .LVU377
 1513              	.LBB657:
 1514              		.loc 9 343 55 is_stmt 0 view .LVU378
 1515 02b0 95F83020 		ldrb	r2, [r5, #48]	@ zero_extendqisi2
 1516              	.LBE657:
 1517              	.LBE656:
 1518              	.LBB660:
 1519              	.LBB661:
  73:../../libs/libDaisy/src/dev/mpr121.h ****     }
 1520              		.loc 9 73 39 view .LVU379
 1521 02b4 0123     		movs	r3, #1
 1522 02b6 0094     		str	r4, [sp]
 1523              	.LBE661:
 1524              	.LBE660:
 1525              	.LBB664:
 1526              	.LBB658:
 1527              		.loc 9 343 55 view .LVU380
 1528 02b8 4845     		cmp	r0, r9
 1529 02ba 18BF     		it	ne
 1530 02bc 42F00102 		orrne	r2, r2, #1
 1531              	.LBE658:
 1532              	.LBE664:
 1533              	.LBB665:
 1534              	.LBB662:
  73:../../libs/libDaisy/src/dev/mpr121.h ****     }
 1535              		.loc 9 73 39 view .LVU381
 1536 02c0 95F82C10 		ldrb	r1, [r5, #44]	@ zero_extendqisi2
 1537 02c4 2F48     		ldr	r0, .L40+64
 1538              	.LVL90:
  73:../../libs/libDaisy/src/dev/mpr121.h ****     }
 1539              		.loc 9 73 39 view .LVU382
 1540              	.LBE662:
 1541              	.LBE665:
 1542              	.LBB666:
 1543              	.LBB659:
 1544              		.loc 9 343 55 view .LVU383
 1545 02c6 85F83020 		strb	r2, [r5, #48]
 1546              	.LVL91:
 1547              		.loc 9 343 55 view .LVU384
 1548              	.LBE659:
 1549              	.LBE666:
 1550              	.LBB667:
 1551              	.LBI660:
  70:../../libs/libDaisy/src/dev/mpr121.h ****     {
 1552              		.loc 9 70 10 is_stmt 1 view .LVU385
 1553              	.LBB663:
  72:../../libs/libDaisy/src/dev/mpr121.h ****                != i2c_.ReceiveBlocking(config_.dev_addr, data, size, 10);
 1554              		.loc 9 72 9 view .LVU386
  73:../../libs/libDaisy/src/dev/mpr121.h ****     }
 1555              		.loc 9 73 39 is_stmt 0 view .LVU387
 1556 02ca 06AA     		add	r2, sp, #24
 1557 02cc FFF7FEFF 		bl	_ZN5daisy9I2CHandle15ReceiveBlockingEtPhtm
 1558              	.LVL92:
  73:../../libs/libDaisy/src/dev/mpr121.h ****     }
 1559              		.loc 9 73 39 view .LVU388
ARM GAS  C:\Users\skipi\AppData\Local\Temp\ccY719VG.s 			page 54


 1560              	.LBE663:
 1561              	.LBE667:
 1562              	.LBB668:
 1563              	.LBI668:
 1564              		.loc 9 343 10 is_stmt 1 view .LVU389
 1565              	.LBB669:
 1566              		.loc 9 343 55 is_stmt 0 view .LVU390
 1567 02d0 95F83020 		ldrb	r2, [r5, #48]	@ zero_extendqisi2
 1568              	.LBE669:
 1569              	.LBE668:
 1570              	.LBB672:
 1571              	.LBB673:
  66:../../libs/libDaisy/src/dev/mpr121.h ****     }
 1572              		.loc 9 66 40 view .LVU391
 1573 02d4 0223     		movs	r3, #2
 1574 02d6 0094     		str	r4, [sp]
 1575              	.LBE673:
 1576              	.LBE672:
 1577              	.LBB676:
 1578              	.LBB670:
 1579              		.loc 9 343 55 view .LVU392
 1580 02d8 4845     		cmp	r0, r9
 1581 02da 18BF     		it	ne
 1582 02dc 42F00102 		orrne	r2, r2, #1
 1583              	.LBE670:
 1584              	.LBE676:
 1585              	.LBB677:
 1586              	.LBB674:
  66:../../libs/libDaisy/src/dev/mpr121.h ****     }
 1587              		.loc 9 66 40 view .LVU393
 1588 02e0 95F82C10 		ldrb	r1, [r5, #44]	@ zero_extendqisi2
 1589 02e4 2748     		ldr	r0, .L40+64
 1590              	.LVL93:
  66:../../libs/libDaisy/src/dev/mpr121.h ****     }
 1591              		.loc 9 66 40 view .LVU394
 1592              	.LBE674:
 1593              	.LBE677:
 1594              	.LBB678:
 1595              	.LBB671:
 1596              		.loc 9 343 55 view .LVU395
 1597 02e6 85F83020 		strb	r2, [r5, #48]
 1598              	.LVL94:
 1599              		.loc 9 343 55 view .LVU396
 1600              	.LBE671:
 1601              	.LBE678:
 1602              	.LBB679:
 1603              	.LBI672:
  63:../../libs/libDaisy/src/dev/mpr121.h ****     {
 1604              		.loc 9 63 10 is_stmt 1 view .LVU397
 1605              	.LBB675:
  65:../../libs/libDaisy/src/dev/mpr121.h ****                != i2c_.TransmitBlocking(config_.dev_addr, data, size, 10);
 1606              		.loc 9 65 9 view .LVU398
  66:../../libs/libDaisy/src/dev/mpr121.h ****     }
 1607              		.loc 9 66 40 is_stmt 0 view .LVU399
 1608 02ea 0BAA     		add	r2, sp, #44
 1609              	.LVL95:
  66:../../libs/libDaisy/src/dev/mpr121.h ****     }
ARM GAS  C:\Users\skipi\AppData\Local\Temp\ccY719VG.s 			page 55


 1610              		.loc 9 66 40 view .LVU400
 1611 02ec FFF7FEFF 		bl	_ZN5daisy9I2CHandle16TransmitBlockingEtPhtm
 1612              	.LVL96:
  66:../../libs/libDaisy/src/dev/mpr121.h ****     }
 1613              		.loc 9 66 40 view .LVU401
 1614              	.LBE675:
 1615              	.LBE679:
 1616              	.LBB680:
 1617              	.LBI680:
 1618              		.loc 9 343 10 is_stmt 1 view .LVU402
 1619              	.LBB681:
 1620              		.loc 9 343 55 is_stmt 0 view .LVU403
 1621 02f0 95F83030 		ldrb	r3, [r5, #48]	@ zero_extendqisi2
 1622              	.LBE681:
 1623              	.LBE680:
 281:../../libs/libDaisy/src/dev/mpr121.h ****         buff[1] = value;
 1624              		.loc 9 281 17 view .LVU404
 1625 02f4 721C     		adds	r2, r6, #1
 1626              	.LBB684:
 1627              	.LBB685:
  66:../../libs/libDaisy/src/dev/mpr121.h ****     }
 1628              		.loc 9 66 40 view .LVU405
 1629 02f6 0094     		str	r4, [sp]
 1630              	.LBE685:
 1631              	.LBE684:
 1632              	.LBB690:
 1633              	.LBB682:
 1634              		.loc 9 343 55 view .LVU406
 1635 02f8 4845     		cmp	r0, r9
 1636 02fa 18BF     		it	ne
 1637 02fc 43F00103 		orrne	r3, r3, #1
 1638              	.LBE682:
 1639              	.LBE690:
 1640              	.LBB691:
 1641              	.LBB686:
  66:../../libs/libDaisy/src/dev/mpr121.h ****     }
 1642              		.loc 9 66 40 view .LVU407
 1643 0300 95F82C10 		ldrb	r1, [r5, #44]	@ zero_extendqisi2
 1644              	.LBE686:
 1645              	.LBE691:
 281:../../libs/libDaisy/src/dev/mpr121.h ****         buff[1] = value;
 1646              		.loc 9 281 17 view .LVU408
 1647 0304 8DF82C20 		strb	r2, [sp, #44]
 1648              	.LBB692:
 1649              	.LBB687:
  66:../../libs/libDaisy/src/dev/mpr121.h ****     }
 1650              		.loc 9 66 40 view .LVU409
 1651 0308 0BAA     		add	r2, sp, #44
 1652              	.LBE687:
 1653              	.LBE692:
 1654              	.LBB693:
 1655              	.LBB683:
 1656              		.loc 9 343 55 view .LVU410
 1657 030a 85F83030 		strb	r3, [r5, #48]
 1658              	.LVL97:
 1659              		.loc 9 343 55 view .LVU411
 1660              	.LBE683:
ARM GAS  C:\Users\skipi\AppData\Local\Temp\ccY719VG.s 			page 56


 1661              	.LBE693:
 1662              	.LBB694:
 1663              	.LBI684:
  63:../../libs/libDaisy/src/dev/mpr121.h ****     {
 1664              		.loc 9 63 10 is_stmt 1 view .LVU412
 1665              	.LBB688:
  65:../../libs/libDaisy/src/dev/mpr121.h ****                != i2c_.TransmitBlocking(config_.dev_addr, data, size, 10);
 1666              		.loc 9 65 9 view .LVU413
  66:../../libs/libDaisy/src/dev/mpr121.h ****     }
 1667              		.loc 9 66 40 is_stmt 0 view .LVU414
 1668 030e 0223     		movs	r3, #2
 1669 0310 1C48     		ldr	r0, .L40+64
 1670              	.LBE688:
 1671              	.LBE694:
 1672              	.LBE715:
 1673              	.LBE722:
 186:../../libs/libDaisy/src/dev/mpr121.h ****         {
 1674              		.loc 9 186 30 view .LVU415
 1675 0312 0236     		adds	r6, r6, #2
 1676              	.LVL98:
 1677              	.LBB723:
 1678              	.LBB716:
 282:../../libs/libDaisy/src/dev/mpr121.h ****         SetTransportErr(transport_.Write(buff, 2));
 1679              		.loc 9 282 17 view .LVU416
 1680 0314 8DF82DB0 		strb	fp, [sp, #45]
 1681              	.LBB695:
 1682              	.LBB689:
  66:../../libs/libDaisy/src/dev/mpr121.h ****     }
 1683              		.loc 9 66 40 view .LVU417
 1684 0318 FFF7FEFF 		bl	_ZN5daisy9I2CHandle16TransmitBlockingEtPhtm
 1685              	.LVL99:
  66:../../libs/libDaisy/src/dev/mpr121.h ****     }
 1686              		.loc 9 66 40 view .LVU418
 1687              	.LBE689:
 1688              	.LBE695:
 1689              	.LBB696:
 1690              	.LBI696:
 1691              		.loc 9 343 10 is_stmt 1 view .LVU419
 1692              	.LBB697:
 1693              		.loc 9 343 55 is_stmt 0 view .LVU420
 1694 031c 95F83020 		ldrb	r2, [r5, #48]	@ zero_extendqisi2
 1695              	.LBE697:
 1696              	.LBE696:
 1697              	.LBB700:
 1698              	.LBB701:
  66:../../libs/libDaisy/src/dev/mpr121.h ****     }
 1699              		.loc 9 66 40 view .LVU421
 1700 0320 0223     		movs	r3, #2
 1701              	.LBE701:
 1702              	.LBE700:
 289:../../libs/libDaisy/src/dev/mpr121.h ****             SetTransportErr(transport_.Write(buff, 2));
 1703              		.loc 9 289 21 view .LVU422
 1704 0322 9DF81810 		ldrb	r1, [sp, #24]	@ zero_extendqisi2
 1705              	.LBE716:
 1706              	.LBE723:
 186:../../libs/libDaisy/src/dev/mpr121.h ****         {
 1707              		.loc 9 186 30 view .LVU423
ARM GAS  C:\Users\skipi\AppData\Local\Temp\ccY719VG.s 			page 57


 1708 0326 F6B2     		uxtb	r6, r6
 1709              	.LBB724:
 1710              	.LBB717:
 1711              	.LBB705:
 1712              	.LBB698:
 1713              		.loc 9 343 55 view .LVU424
 1714 0328 4845     		cmp	r0, r9
 1715 032a 18BF     		it	ne
 1716 032c 42F00102 		orrne	r2, r2, #1
 1717              	.LBE698:
 1718              	.LBE705:
 1719              	.LBB706:
 1720              	.LBB702:
  66:../../libs/libDaisy/src/dev/mpr121.h ****     }
 1721              		.loc 9 66 40 view .LVU425
 1722 0330 0094     		str	r4, [sp]
 1723              	.LBE702:
 1724              	.LBE706:
 289:../../libs/libDaisy/src/dev/mpr121.h ****             SetTransportErr(transport_.Write(buff, 2));
 1725              		.loc 9 289 21 view .LVU426
 1726 0332 8DF82D10 		strb	r1, [sp, #45]
 1727              	.LBB707:
 1728              	.LBB699:
 1729              		.loc 9 343 55 view .LVU427
 1730 0336 85F83020 		strb	r2, [r5, #48]
 1731              	.LVL100:
 1732              		.loc 9 343 55 view .LVU428
 1733              	.LBE699:
 1734              	.LBE707:
 1735              	.LBB708:
 1736              	.LBI700:
  63:../../libs/libDaisy/src/dev/mpr121.h ****     {
 1737              		.loc 9 63 10 is_stmt 1 view .LVU429
 1738              	.LBB703:
  65:../../libs/libDaisy/src/dev/mpr121.h ****                != i2c_.TransmitBlocking(config_.dev_addr, data, size, 10);
 1739              		.loc 9 65 9 view .LVU430
  66:../../libs/libDaisy/src/dev/mpr121.h ****     }
 1740              		.loc 9 66 40 is_stmt 0 view .LVU431
 1741 033a 0BAA     		add	r2, sp, #44
 1742              	.LVL101:
  66:../../libs/libDaisy/src/dev/mpr121.h ****     }
 1743              		.loc 9 66 40 view .LVU432
 1744 033c 95F82C10 		ldrb	r1, [r5, #44]	@ zero_extendqisi2
 1745 0340 24E0     		b	.L41
 1746              	.L42:
 1747 0342 00BF     		.align	2
 1748              	.L40:
 1749 0344 00000000 		.word	.LANCHOR3
 1750 0348 00000000 		.word	.LANCHOR1
 1751 034c 00000000 		.word	.LANCHOR4
 1752 0350 CDCC8C3F 		.word	1066192077
 1753 0354 00000000 		.word	.LANCHOR2
 1754 0358 0000C842 		.word	1120403456
 1755 035c 0000DC43 		.word	1138491392
 1756 0360 CDCC4C3D 		.word	1028443341
 1757 0364 00000000 		.word	.LANCHOR9
 1758 0368 CDCCCC3D 		.word	1036831949
ARM GAS  C:\Users\skipi\AppData\Local\Temp\ccY719VG.s 			page 58


 1759 036c 3333333F 		.word	1060320051
 1760 0370 00000000 		.word	.LANCHOR5
 1761 0374 00000000 		.word	.LANCHOR6
 1762 0378 00000000 		.word	.LANCHOR7
 1763 037c 54000000 		.word	.LANCHOR6+84
 1764 0380 18000000 		.word	.LANCHOR3+24
 1765 0384 18000000 		.word	.LANCHOR9+24
 1766 0388 00000000 		.word	.LANCHOR8
 1767              	.L41:
 1768 038c 8848     		ldr	r0, .L43
 1769              	.LBE703:
 1770              	.LBE708:
 288:../../libs/libDaisy/src/dev/mpr121.h ****             buff[1] = ecr_backup;
 1771              		.loc 9 288 21 view .LVU433
 1772 038e 8DF82C80 		strb	r8, [sp, #44]
 1773              	.LBB709:
 1774              	.LBB704:
  66:../../libs/libDaisy/src/dev/mpr121.h ****     }
 1775              		.loc 9 66 40 view .LVU434
 1776 0392 FFF7FEFF 		bl	_ZN5daisy9I2CHandle16TransmitBlockingEtPhtm
 1777              	.LVL102:
  66:../../libs/libDaisy/src/dev/mpr121.h ****     }
 1778              		.loc 9 66 40 view .LVU435
 1779              	.LBE704:
 1780              	.LBE709:
 1781              	.LBB710:
 1782              	.LBI710:
 1783              		.loc 9 343 10 is_stmt 1 view .LVU436
 1784              	.LBB711:
 1785              		.loc 9 343 55 is_stmt 0 view .LVU437
 1786 0396 95F83030 		ldrb	r3, [r5, #48]	@ zero_extendqisi2
 1787 039a 4845     		cmp	r0, r9
 1788 039c 18BF     		it	ne
 1789 039e 43F00103 		orrne	r3, r3, #1
 1790              	.LBE711:
 1791              	.LBE710:
 1792              	.LBE717:
 1793              	.LBE724:
 186:../../libs/libDaisy/src/dev/mpr121.h ****         {
 1794              		.loc 9 186 30 view .LVU438
 1795 03a2 592E     		cmp	r6, #89
 1796              	.LBB725:
 1797              	.LBB718:
 1798              	.LBB713:
 1799              	.LBB712:
 1800              		.loc 9 343 55 view .LVU439
 1801 03a4 85F83030 		strb	r3, [r5, #48]
 1802              	.LVL103:
 1803              		.loc 9 343 55 view .LVU440
 1804              	.LBE712:
 1805              	.LBE713:
 1806              	.LBE718:
 1807              	.LBE725:
 186:../../libs/libDaisy/src/dev/mpr121.h ****         {
 1808              		.loc 9 186 9 is_stmt 1 view .LVU441
 186:../../libs/libDaisy/src/dev/mpr121.h ****         {
 1809              		.loc 9 186 30 view .LVU442
ARM GAS  C:\Users\skipi\AppData\Local\Temp\ccY719VG.s 			page 59


 1810 03a8 7FF413AF 		bne	.L26
 1811              	.LVL104:
 186:../../libs/libDaisy/src/dev/mpr121.h ****         {
 1812              		.loc 9 186 30 is_stmt 0 view .LVU443
 1813              	.LBE577:
 1814              	.LBE576:
 140:../../libs/libDaisy/src/dev/mpr121.h ****         WriteRegister(MPR121_NHDR, 0x01);
 1815              		.loc 9 140 22 view .LVU444
 1816 03ac 0122     		movs	r2, #1
 1817 03ae 2B21     		movs	r1, #43
 1818 03b0 8048     		ldr	r0, .L43+4
 1819 03b2 FFF7FEFF 		bl	_ZN5daisy6Mpr121INS_18Mpr121I2CTransportEE13WriteRegisterEhh
 1820              	.LVL105:
 141:../../libs/libDaisy/src/dev/mpr121.h ****         WriteRegister(MPR121_NCLR, 0x0E);
 1821              		.loc 9 141 22 view .LVU445
 1822 03b6 0122     		movs	r2, #1
 1823 03b8 2C21     		movs	r1, #44
 1824 03ba 7E48     		ldr	r0, .L43+4
 1825 03bc FFF7FEFF 		bl	_ZN5daisy6Mpr121INS_18Mpr121I2CTransportEE13WriteRegisterEhh
 1826              	.LVL106:
 142:../../libs/libDaisy/src/dev/mpr121.h ****         WriteRegister(MPR121_FDLR, 0x00);
 1827              		.loc 9 142 22 view .LVU446
 1828 03c0 2D21     		movs	r1, #45
 1829 03c2 7C48     		ldr	r0, .L43+4
 1830 03c4 0E22     		movs	r2, #14
 1831 03c6 FFF7FEFF 		bl	_ZN5daisy6Mpr121INS_18Mpr121I2CTransportEE13WriteRegisterEhh
 1832              	.LVL107:
 143:../../libs/libDaisy/src/dev/mpr121.h **** 
 1833              		.loc 9 143 22 view .LVU447
 1834 03ca 4A46     		mov	r2, r9
 1835 03cc 2E21     		movs	r1, #46
 1836 03ce 7948     		ldr	r0, .L43+4
 1837 03d0 FFF7FEFF 		bl	_ZN5daisy6Mpr121INS_18Mpr121I2CTransportEE13WriteRegisterEhh
 1838              	.LVL108:
 145:../../libs/libDaisy/src/dev/mpr121.h ****         WriteRegister(MPR121_NHDF, 0x05);
 1839              		.loc 9 145 22 view .LVU448
 1840 03d4 0122     		movs	r2, #1
 1841 03d6 2F21     		movs	r1, #47
 1842 03d8 7648     		ldr	r0, .L43+4
 1843 03da FFF7FEFF 		bl	_ZN5daisy6Mpr121INS_18Mpr121I2CTransportEE13WriteRegisterEhh
 1844              	.LVL109:
 146:../../libs/libDaisy/src/dev/mpr121.h ****         WriteRegister(MPR121_NCLF, 0x01);
 1845              		.loc 9 146 22 view .LVU449
 1846 03de 0522     		movs	r2, #5
 1847 03e0 3021     		movs	r1, #48
 1848 03e2 7448     		ldr	r0, .L43+4
 1849 03e4 FFF7FEFF 		bl	_ZN5daisy6Mpr121INS_18Mpr121I2CTransportEE13WriteRegisterEhh
 1850              	.LVL110:
 147:../../libs/libDaisy/src/dev/mpr121.h ****         WriteRegister(MPR121_FDLF, 0x00);
 1851              		.loc 9 147 22 view .LVU450
 1852 03e8 3121     		movs	r1, #49
 1853 03ea 7248     		ldr	r0, .L43+4
 1854 03ec 0122     		movs	r2, #1
 1855 03ee FFF7FEFF 		bl	_ZN5daisy6Mpr121INS_18Mpr121I2CTransportEE13WriteRegisterEhh
 1856              	.LVL111:
 148:../../libs/libDaisy/src/dev/mpr121.h **** 
 1857              		.loc 9 148 22 view .LVU451
ARM GAS  C:\Users\skipi\AppData\Local\Temp\ccY719VG.s 			page 60


 1858 03f2 4A46     		mov	r2, r9
 1859 03f4 3221     		movs	r1, #50
 1860 03f6 6F48     		ldr	r0, .L43+4
 1861 03f8 FFF7FEFF 		bl	_ZN5daisy6Mpr121INS_18Mpr121I2CTransportEE13WriteRegisterEhh
 1862              	.LVL112:
 150:../../libs/libDaisy/src/dev/mpr121.h ****         WriteRegister(MPR121_NCLT, 0x00);
 1863              		.loc 9 150 22 view .LVU452
 1864 03fc 4A46     		mov	r2, r9
 1865 03fe 3321     		movs	r1, #51
 1866 0400 6C48     		ldr	r0, .L43+4
 1867 0402 FFF7FEFF 		bl	_ZN5daisy6Mpr121INS_18Mpr121I2CTransportEE13WriteRegisterEhh
 1868              	.LVL113:
 151:../../libs/libDaisy/src/dev/mpr121.h ****         WriteRegister(MPR121_FDLT, 0x00);
 1869              		.loc 9 151 22 view .LVU453
 1870 0406 4A46     		mov	r2, r9
 1871 0408 3421     		movs	r1, #52
 1872 040a 6A48     		ldr	r0, .L43+4
 1873 040c FFF7FEFF 		bl	_ZN5daisy6Mpr121INS_18Mpr121I2CTransportEE13WriteRegisterEhh
 1874              	.LVL114:
 152:../../libs/libDaisy/src/dev/mpr121.h **** 
 1875              		.loc 9 152 22 view .LVU454
 1876 0410 4A46     		mov	r2, r9
 1877 0412 3521     		movs	r1, #53
 1878 0414 6748     		ldr	r0, .L43+4
 1879 0416 FFF7FEFF 		bl	_ZN5daisy6Mpr121INS_18Mpr121I2CTransportEE13WriteRegisterEhh
 1880              	.LVL115:
 154:../../libs/libDaisy/src/dev/mpr121.h ****         WriteRegister(MPR121_CONFIG1, 0x10); // default, 16uA charge current
 1881              		.loc 9 154 22 view .LVU455
 1882 041a 4A46     		mov	r2, r9
 1883 041c 5B21     		movs	r1, #91
 1884 041e 6548     		ldr	r0, .L43+4
 1885 0420 FFF7FEFF 		bl	_ZN5daisy6Mpr121INS_18Mpr121I2CTransportEE13WriteRegisterEhh
 1886              	.LVL116:
 155:../../libs/libDaisy/src/dev/mpr121.h ****         WriteRegister(MPR121_CONFIG2, 0x20); // 0.5uS encoding, 1ms period
 1887              		.loc 9 155 22 view .LVU456
 1888 0424 1022     		movs	r2, #16
 1889 0426 5C21     		movs	r1, #92
 1890 0428 6248     		ldr	r0, .L43+4
 1891 042a FFF7FEFF 		bl	_ZN5daisy6Mpr121INS_18Mpr121I2CTransportEE13WriteRegisterEhh
 1892              	.LVL117:
 156:../../libs/libDaisy/src/dev/mpr121.h **** 
 1893              		.loc 9 156 22 view .LVU457
 1894 042e 2022     		movs	r2, #32
 1895 0430 5D21     		movs	r1, #93
 1896 0432 6048     		ldr	r0, .L43+4
 1897 0434 FFF7FEFF 		bl	_ZN5daisy6Mpr121INS_18Mpr121I2CTransportEE13WriteRegisterEhh
 1898              	.LVL118:
 172:../../libs/libDaisy/src/dev/mpr121.h ****                       ECR_SETTING); // start with above ECR setting
 1899              		.loc 9 172 22 view .LVU458
 1900 0438 4146     		mov	r1, r8
 1901 043a 8C22     		movs	r2, #140
 1902 043c 5D48     		ldr	r0, .L43+4
 1903 043e FFF7FEFF 		bl	_ZN5daisy6Mpr121INS_18Mpr121I2CTransportEE13WriteRegisterEhh
 1904              	.LVL119:
 1905              	.LBB726:
 1906              	.LBI726:
 344:../../libs/libDaisy/src/dev/mpr121.h **** 
ARM GAS  C:\Users\skipi\AppData\Local\Temp\ccY719VG.s 			page 61


 345:../../libs/libDaisy/src/dev/mpr121.h ****     /** Get the global transport_error_ bool (as a Result), then reset it */
 346:../../libs/libDaisy/src/dev/mpr121.h ****     Result GetTransportErr()
 1907              		.loc 9 346 12 is_stmt 1 view .LVU459
 1908              	.LBB727:
 347:../../libs/libDaisy/src/dev/mpr121.h ****     {
 348:../../libs/libDaisy/src/dev/mpr121.h ****         Result ret       = transport_error_ ? ERR : OK;
 1909              		.loc 9 348 45 is_stmt 0 view .LVU460
 1910 0442 95F83030 		ldrb	r3, [r5, #48]	@ zero_extendqisi2
 1911 0446 93B1     		cbz	r3, .L27
 1912              	.LVL120:
 349:../../libs/libDaisy/src/dev/mpr121.h ****         transport_error_ = false;
 1913              		.loc 9 349 26 view .LVU461
 1914 0448 85F83090 		strb	r9, [r5, #48]
 1915              	.LVL121:
 1916              	.L28:
 1917              		.loc 9 349 26 view .LVU462
 1918              	.LBE727:
 1919              	.LBE726:
 1920              	.LBE732:
 1921              	.LBE760:
  90:main.cpp      ****     {
  91:main.cpp      ****         // Errore: Lampeggia LED infinito
  92:main.cpp      ****         while (1) {
 1922              		.loc 10 92 9 is_stmt 1 discriminator 1 view .LVU463
  93:main.cpp      ****             hw.SetLed(true); hw.DelayMs(200);
 1923              		.loc 10 93 13 discriminator 1 view .LVU464
 1924              		.loc 10 93 22 is_stmt 0 discriminator 1 view .LVU465
 1925 044c 0121     		movs	r1, #1
 1926 044e 5A48     		ldr	r0, .L43+8
 1927 0450 FFF7FEFF 		bl	_ZN5daisy9DaisySeed6SetLedEb
 1928              	.LVL122:
 1929              		.loc 10 93 30 is_stmt 1 discriminator 1 view .LVU466
 1930              		.loc 10 93 40 is_stmt 0 discriminator 1 view .LVU467
 1931 0454 C821     		movs	r1, #200
 1932 0456 5848     		ldr	r0, .L43+8
 1933 0458 FFF7FEFF 		bl	_ZN5daisy9DaisySeed7DelayMsEj
 1934              	.LVL123:
  94:main.cpp      ****             hw.SetLed(false); hw.DelayMs(200);
 1935              		.loc 10 94 13 is_stmt 1 discriminator 1 view .LVU468
 1936              		.loc 10 94 22 is_stmt 0 discriminator 1 view .LVU469
 1937 045c 0021     		movs	r1, #0
 1938 045e 5648     		ldr	r0, .L43+8
 1939 0460 FFF7FEFF 		bl	_ZN5daisy9DaisySeed6SetLedEb
 1940              	.LVL124:
 1941              		.loc 10 94 31 is_stmt 1 discriminator 1 view .LVU470
 1942              		.loc 10 94 41 is_stmt 0 discriminator 1 view .LVU471
 1943 0464 C821     		movs	r1, #200
 1944 0466 5448     		ldr	r0, .L43+8
 1945 0468 FFF7FEFF 		bl	_ZN5daisy9DaisySeed7DelayMsEj
 1946              	.LVL125:
  92:main.cpp      ****             hw.SetLed(true); hw.DelayMs(200);
 1947              		.loc 10 92 9 is_stmt 1 discriminator 1 view .LVU472
 1948 046c EEE7     		b	.L28
 1949              	.LVL126:
 1950              	.L27:
  95:main.cpp      ****         }
  96:main.cpp      ****     }
ARM GAS  C:\Users\skipi\AppData\Local\Temp\ccY719VG.s 			page 62


  97:main.cpp      **** 
  98:main.cpp      ****     hw.StartAudio(AudioCallback);
 1951              		.loc 10 98 5 view .LVU473
 1952              		.loc 10 98 18 is_stmt 0 view .LVU474
 1953 046e 5349     		ldr	r1, .L43+12
 1954 0470 5148     		ldr	r0, .L43+8
 1955 0472 FFF7FEFF 		bl	_ZN5daisy9DaisySeed10StartAudioEPFvPKfPfjE
 1956              	.LVL127:
  99:main.cpp      **** 
 100:main.cpp      ****     // 4. Loop Principale a 100Hz (Non bloccante)
 101:main.cpp      ****     uint32_t last_tick = System::GetNow();
 1957              		.loc 10 101 5 is_stmt 1 view .LVU475
 1958 0476 DFF86091 		ldr	r9, .L43+40
 1959              		.loc 10 101 40 is_stmt 0 view .LVU476
 1960 047a FFF7FEFF 		bl	_ZN5daisy6System6GetNowEv
 1961              	.LVL128:
 1962 047e DFF85CA1 		ldr	r10, .L43+44
 1963 0482 0446     		mov	r4, r0
 1964              	.LVL129:
 1965              	.L30:
 102:main.cpp      **** 
 103:main.cpp      ****     while (1)
 1966              		.loc 10 103 5 is_stmt 1 view .LVU477
 1967              	.LBB761:
 104:main.cpp      ****     {
 105:main.cpp      ****         uint32_t now = System::GetNow();
 1968              		.loc 10 105 9 view .LVU478
 1969              		.loc 10 105 38 is_stmt 0 view .LVU479
 1970 0484 FFF7FEFF 		bl	_ZN5daisy6System6GetNowEv
 1971              	.LVL130:
 1972 0488 2346     		mov	r3, r4
 1973 048a 0446     		mov	r4, r0
 1974              	.LVL131:
 106:main.cpp      **** 
 107:main.cpp      ****         // Esegui la logica sensori ogni 10ms esatti
 108:main.cpp      ****         if (now - last_tick >= 1)
 1975              		.loc 10 108 9 is_stmt 1 view .LVU480
 1976              	.LBB762:
 1977 048c 8342     		cmp	r3, r0
 1978 048e F9D0     		beq	.L30
 1979              	.LBB763:
 109:main.cpp      ****         {
 110:main.cpp      ****             last_tick = now;
 1980              		.loc 10 110 13 view .LVU481
 1981              	.LVL132:
 111:main.cpp      **** 
 112:main.cpp      ****             // A. Lettura Parametri (Knobs)
 113:main.cpp      ****             float curve_type = hw.adc.GetFloat(1) * 2 + 1;
 1982              		.loc 10 113 13 view .LVU482
 1983              		.loc 10 113 47 is_stmt 0 view .LVU483
 1984 0490 0121     		movs	r1, #1
 1985 0492 4B48     		ldr	r0, .L43+16
 1986              	.LVL133:
 1987              		.loc 10 113 47 view .LVU484
 1988 0494 FFF7FEFF 		bl	_ZNK5daisy9AdcHandle8GetFloatEh
 1989              	.LVL134:
 1990              		.loc 10 113 57 view .LVU485
ARM GAS  C:\Users\skipi\AppData\Local\Temp\ccY719VG.s 			page 63


 1991 0498 B7EE008A 		vmov.f32	s16, #1.0e+0
 1992 049c F0EE007A 		vmov.f32	s15, #2.0e+0
 114:main.cpp      ****             float delta_max = hw.adc.GetFloat(0) * 100 + 20;
 1993              		.loc 10 114 46 view .LVU486
 1994 04a0 0021     		movs	r1, #0
 1995 04a2 4748     		ldr	r0, .L43+16
 1996              	.LBB764:
 1997              	.LBB765:
 1998              	.LBB766:
 1999              	.LBB767:
 2000              	.LBB768:
 2001              	.LBB769:
  78:../../libs/libDaisy/src/dev/mpr121.h ****                    config_.dev_addr, memAddress, 1, data, memSize, 10);
 2002              		.loc 9 78 32 view .LVU487
 2003 04a4 4FF00A08 		mov	r8, #10
 2004 04a8 4FF0020B 		mov	fp, #2
 2005              	.LBE769:
 2006              	.LBE768:
 2007              	.LBE767:
 2008              	.LBE766:
 2009              	.LBE765:
 2010              	.LBE764:
 2011              	.LBB785:
 2012              	.LBB786:
 2013              	.LBB787:
 2014              	.LBB788:
 2015              	.LBB789:
 2016              	.LBB790:
 2017              	.LBB791:
 2018              	.LBB792:
 2019 04ac 0126     		movs	r6, #1
 2020              	.LBE792:
 2021              	.LBE791:
 2022              	.LBE790:
 2023              	.LBE789:
 2024              	.LBE788:
 2025              	.LBE787:
 2026              	.LBE786:
 2027              	.LBE785:
 113:main.cpp      ****             float delta_max = hw.adc.GetFloat(0) * 100 + 20;
 2028              		.loc 10 113 57 view .LVU488
 2029 04ae A0EE278A 		vfma.f32	s16, s0, s15
 2030              	.LVL135:
 2031              		.loc 10 114 13 is_stmt 1 view .LVU489
 2032              		.loc 10 114 46 is_stmt 0 view .LVU490
 2033 04b2 FFF7FEFF 		bl	_ZNK5daisy9AdcHandle8GetFloatEh
 2034              	.LVL136:
 2035              		.loc 10 114 58 view .LVU491
 2036 04b6 F3EE047A 		vmov.f32	s15, #2.0e+1
 2037 04ba 9FED427A 		vldr.32	s14, .L43+20
 115:main.cpp      ****             pc.setCurve(delta_max, curve_type);
 2038              		.loc 10 115 24 view .LVU492
 2039 04be 4248     		ldr	r0, .L43+24
 114:main.cpp      ****             pc.setCurve(delta_max, curve_type);
 2040              		.loc 10 114 58 view .LVU493
 2041 04c0 E0EE077A 		vfma.f32	s15, s0, s14
 2042              	.LVL137:
ARM GAS  C:\Users\skipi\AppData\Local\Temp\ccY719VG.s 			page 64


 2043              		.loc 10 115 13 is_stmt 1 view .LVU494
 2044              		.loc 10 115 24 is_stmt 0 view .LVU495
 2045 04c4 B0EE480A 		vmov.f32	s0, s16
 2046 04c8 FCEEE77A 		vcvt.u32.f32	s15, s15
 2047              	.LVL138:
 2048              		.loc 10 115 24 view .LVU496
 2049 04cc CDED057A 		vstr.32	s15, [sp, #20]	@ int
 2050 04d0 9DF81410 		ldrb	r1, [sp, #20]	@ zero_extendqisi2
 2051 04d4 FFF7FEFF 		bl	_ZN16PlantConditioner8setCurveEhf
 2052              	.LVL139:
 116:main.cpp      **** 
 117:main.cpp      ****             // B. Lettura Sensore Capacitivo
 118:main.cpp      ****             currTouched = cap.Touched();
 2053              		.loc 10 118 13 is_stmt 1 view .LVU497
 2054              	.LBB842:
 2055              	.LBI764:
 227:../../libs/libDaisy/src/dev/mpr121.h ****     {
 2056              		.loc 9 227 14 view .LVU498
 2057              	.LBB782:
 2058              	.LBB780:
 2059              	.LBI766:
 244:../../libs/libDaisy/src/dev/mpr121.h ****     {
 2060              		.loc 9 244 14 view .LVU499
 2061              	.LBB778:
 2062              	.LBB771:
 2063              	.LBI768:
  75:../../libs/libDaisy/src/dev/mpr121.h ****     {
 2064              		.loc 9 75 10 view .LVU500
 2065              	.LBB770:
  77:../../libs/libDaisy/src/dev/mpr121.h ****                != i2c_.Mem_read(
 2066              		.loc 9 77 9 view .LVU501
  78:../../libs/libDaisy/src/dev/mpr121.h ****                    config_.dev_addr, memAddress, 1, data, memSize, 10);
 2067              		.loc 9 78 32 is_stmt 0 view .LVU502
 2068 04d8 95F82C10 		ldrb	r1, [r5, #44]	@ zero_extendqisi2
 2069 04dc 0123     		movs	r3, #1
 2070 04de 0022     		movs	r2, #0
 2071 04e0 3348     		ldr	r0, .L43
 2072 04e2 0097     		str	r7, [sp]
 2073 04e4 CDE901B8 		strd	fp, r8, [sp, #4]
 2074 04e8 FFF7FEFF 		bl	_ZN5daisy9I2CHandle8Mem_readEtttPhtm
 2075              	.LVL140:
  78:../../libs/libDaisy/src/dev/mpr121.h ****                    config_.dev_addr, memAddress, 1, data, memSize, 10);
 2076              		.loc 9 78 32 view .LVU503
 2077              	.LBE770:
 2078              	.LBE771:
 2079              	.LBB772:
 2080              	.LBI772:
 343:../../libs/libDaisy/src/dev/mpr121.h **** 
 2081              		.loc 9 343 10 is_stmt 1 view .LVU504
 2082              	.LBB773:
 343:../../libs/libDaisy/src/dev/mpr121.h **** 
 2083              		.loc 9 343 55 is_stmt 0 view .LVU505
 2084 04ec 95F83020 		ldrb	r2, [r5, #48]	@ zero_extendqisi2
 2085              	.LBE773:
 2086              	.LBE772:
 250:../../libs/libDaisy/src/dev/mpr121.h ****     }
 2087              		.loc 9 250 16 view .LVU506
ARM GAS  C:\Users\skipi\AppData\Local\Temp\ccY719VG.s 			page 65


 2088 04f0 BDF84030 		ldrh	r3, [sp, #64]
 2089              	.LBB776:
 2090              	.LBB774:
 343:../../libs/libDaisy/src/dev/mpr121.h **** 
 2091              		.loc 9 343 55 view .LVU507
 2092 04f4 0028     		cmp	r0, #0
 2093 04f6 18BF     		it	ne
 2094 04f8 42F00102 		orrne	r2, r2, #1
 2095              	.LBE774:
 2096              	.LBE776:
 2097              	.LBE778:
 2098              	.LBE780:
 2099              	.LBE782:
 2100              	.LBE842:
 2101              	.LBB843:
 2102              	.LBB835:
 2103              	.LBB828:
 2104              	.LBB821:
 2105              	.LBB814:
 2106              	.LBB807:
 2107              	.LBB797:
 2108              	.LBB793:
  78:../../libs/libDaisy/src/dev/mpr121.h ****                    config_.dev_addr, memAddress, 1, data, memSize, 10);
 2109              		.loc 9 78 32 view .LVU508
 2110 04fc CDF80880 		str	r8, [sp, #8]
 2111              	.LBE793:
 2112              	.LBE797:
 2113              	.LBE807:
 2114              	.LBE814:
 2115              	.LBE821:
 2116              	.LBE828:
 2117              	.LBE835:
 2118              	.LBE843:
 2119              	.LBB844:
 2120              	.LBB783:
 230:../../libs/libDaisy/src/dev/mpr121.h ****     }
 2121              		.loc 9 230 20 view .LVU509
 2122 0500 C3F30B03 		ubfx	r3, r3, #0, #12
 2123              	.LBE783:
 2124              	.LBE844:
 2125              	.LBB845:
 2126              	.LBB836:
 2127              	.LBB829:
 2128              	.LBB822:
 2129              	.LBB815:
 2130              	.LBB808:
 2131              	.LBB798:
 2132              	.LBB794:
  78:../../libs/libDaisy/src/dev/mpr121.h ****                    config_.dev_addr, memAddress, 1, data, memSize, 10);
 2133              		.loc 9 78 32 view .LVU510
 2134 0504 0097     		str	r7, [sp]
 2135 0506 2A48     		ldr	r0, .L43
 2136              	.LVL141:
  78:../../libs/libDaisy/src/dev/mpr121.h ****                    config_.dev_addr, memAddress, 1, data, memSize, 10);
 2137              		.loc 9 78 32 view .LVU511
 2138              	.LBE794:
 2139              	.LBE798:
ARM GAS  C:\Users\skipi\AppData\Local\Temp\ccY719VG.s 			page 66


 2140              	.LBE808:
 2141              	.LBE815:
 2142              	.LBE822:
 2143              	.LBE829:
 2144              	.LBE836:
 2145              	.LBE845:
 2146              	.LBB846:
 2147              	.LBB784:
 2148              	.LBB781:
 2149              	.LBB779:
 2150              	.LBB777:
 2151              	.LBB775:
 343:../../libs/libDaisy/src/dev/mpr121.h **** 
 2152              		.loc 9 343 55 view .LVU512
 2153 0508 85F83020 		strb	r2, [r5, #48]
 2154              	.LVL142:
 343:../../libs/libDaisy/src/dev/mpr121.h **** 
 2155              		.loc 9 343 55 view .LVU513
 2156              	.LBE775:
 2157              	.LBE777:
 2158              	.LBE779:
 2159              	.LBE781:
 2160              	.LBE784:
 2161              	.LBE846:
 2162              	.LBB847:
 2163              	.LBB837:
 2164              	.LBB830:
 2165              	.LBB823:
 2166              	.LBB816:
 2167              	.LBB809:
 2168              	.LBB799:
 2169              	.LBB795:
  78:../../libs/libDaisy/src/dev/mpr121.h ****                    config_.dev_addr, memAddress, 1, data, memSize, 10);
 2170              		.loc 9 78 32 view .LVU514
 2171 050c 1E22     		movs	r2, #30
 2172              	.LBE795:
 2173              	.LBE799:
 2174              	.LBE809:
 2175              	.LBE816:
 2176              	.LBE823:
 2177              	.LBE830:
 2178              	.LBE837:
 2179              	.LBE847:
 2180              		.loc 10 118 25 view .LVU515
 2181 050e A9F80030 		strh	r3, [r9]	@ movhi
 119:main.cpp      ****             
 120:main.cpp      ****             // C. Elaborazione Filtri (SEMPRE ATTIVA)
 121:main.cpp      ****             // Calcoliamo la frequenza target continuamente per tenere i filtri "caldi"
 122:main.cpp      ****             float target_freq = pc.Process(cap.BaselineData(0), cap.FilteredData(0));
 2182              		.loc 10 122 13 is_stmt 1 view .LVU516
 2183              	.LVL143:
 2184              	.LBB848:
 2185              	.LBI785:
 214:../../libs/libDaisy/src/dev/mpr121.h ****     {
 2186              		.loc 9 214 14 view .LVU517
 2187              	.LBB838:
 2188              	.LBB831:
ARM GAS  C:\Users\skipi\AppData\Local\Temp\ccY719VG.s 			page 67


 2189              	.LBI787:
 214:../../libs/libDaisy/src/dev/mpr121.h ****     {
 2190              		.loc 9 214 14 view .LVU518
 2191              	.LBB824:
 2192              	.LBB817:
 2193              	.LBI789:
 237:../../libs/libDaisy/src/dev/mpr121.h ****     {
 2194              		.loc 9 237 13 view .LVU519
 2195              	.LBB810:
 2196              	.LBB800:
 2197              	.LBI791:
  75:../../libs/libDaisy/src/dev/mpr121.h ****     {
 2198              		.loc 9 75 10 view .LVU520
 2199              	.LBB796:
  77:../../libs/libDaisy/src/dev/mpr121.h ****                != i2c_.Mem_read(
 2200              		.loc 9 77 9 view .LVU521
  78:../../libs/libDaisy/src/dev/mpr121.h ****                    config_.dev_addr, memAddress, 1, data, memSize, 10);
 2201              		.loc 9 78 32 is_stmt 0 view .LVU522
 2202 0512 3346     		mov	r3, r6
 2203 0514 0196     		str	r6, [sp, #4]
 2204 0516 95F82C10 		ldrb	r1, [r5, #44]	@ zero_extendqisi2
 2205 051a FFF7FEFF 		bl	_ZN5daisy9I2CHandle8Mem_readEtttPhtm
 2206              	.LVL144:
  78:../../libs/libDaisy/src/dev/mpr121.h ****                    config_.dev_addr, memAddress, 1, data, memSize, 10);
 2207              		.loc 9 78 32 view .LVU523
 2208              	.LBE796:
 2209              	.LBE800:
 2210              	.LBB801:
 2211              	.LBI801:
 343:../../libs/libDaisy/src/dev/mpr121.h **** 
 2212              		.loc 9 343 10 is_stmt 1 view .LVU524
 2213              	.LBB802:
 343:../../libs/libDaisy/src/dev/mpr121.h **** 
 2214              		.loc 9 343 55 is_stmt 0 view .LVU525
 2215 051e 95F830C0 		ldrb	ip, [r5, #48]	@ zero_extendqisi2
 2216              	.LBE802:
 2217              	.LBE801:
 2218              	.LBE810:
 2219              	.LBE817:
 2220              	.LBE824:
 2221              	.LBE831:
 2222              	.LBE838:
 2223              	.LBE848:
 2224              	.LBB849:
 2225              	.LBB850:
 2226              	.LBB851:
 2227              	.LBB852:
 2228              	.LBB853:
 2229              	.LBB854:
  78:../../libs/libDaisy/src/dev/mpr121.h ****                    config_.dev_addr, memAddress, 1, data, memSize, 10);
 2230              		.loc 9 78 32 view .LVU526
 2231 0522 3346     		mov	r3, r6
 2232 0524 CDF80880 		str	r8, [sp, #8]
 2233              	.LBE854:
 2234              	.LBE853:
 2235              	.LBE852:
 2236              	.LBE851:
ARM GAS  C:\Users\skipi\AppData\Local\Temp\ccY719VG.s 			page 68


 2237              	.LBE850:
 2238              	.LBE849:
 2239              	.LBB882:
 2240              	.LBB839:
 2241              	.LBB832:
 2242              	.LBB825:
 2243              	.LBB818:
 2244              	.LBB811:
 2245              	.LBB805:
 2246              	.LBB803:
 343:../../libs/libDaisy/src/dev/mpr121.h **** 
 2247              		.loc 9 343 55 view .LVU527
 2248 0528 0028     		cmp	r0, #0
 2249 052a 18BF     		it	ne
 2250 052c 4CF0010C 		orrne	ip, ip, #1
 2251              	.LBE803:
 2252              	.LBE805:
 2253              	.LBE811:
 2254              	.LBE818:
 2255              	.LBE825:
 2256              	.LBE832:
 2257              	.LBE839:
 2258              	.LBE882:
 2259              	.LBB883:
 2260              	.LBB877:
 2261              	.LBB872:
 2262              	.LBB867:
 2263              	.LBB858:
 2264              	.LBB855:
  78:../../libs/libDaisy/src/dev/mpr121.h ****                    config_.dev_addr, memAddress, 1, data, memSize, 10);
 2265              		.loc 9 78 32 view .LVU528
 2266 0530 CDF804B0 		str	fp, [sp, #4]
 2267 0534 0422     		movs	r2, #4
 2268 0536 95F82C10 		ldrb	r1, [r5, #44]	@ zero_extendqisi2
 2269 053a 1D48     		ldr	r0, .L43
 2270              	.LVL145:
  78:../../libs/libDaisy/src/dev/mpr121.h ****                    config_.dev_addr, memAddress, 1, data, memSize, 10);
 2271              		.loc 9 78 32 view .LVU529
 2272 053c 0097     		str	r7, [sp]
 2273              	.LBE855:
 2274              	.LBE858:
 2275              	.LBE867:
 2276              	.LBE872:
 2277              	.LBE877:
 2278              	.LBE883:
 2279              	.LBB884:
 2280              	.LBB840:
 2281              	.LBB833:
 2282              	.LBB826:
 2283              	.LBB819:
 2284              	.LBB812:
 2285              	.LBB806:
 2286              	.LBB804:
 343:../../libs/libDaisy/src/dev/mpr121.h **** 
 2287              		.loc 9 343 55 view .LVU530
 2288 053e 85F830C0 		strb	ip, [r5, #48]
 2289              	.LVL146:
ARM GAS  C:\Users\skipi\AppData\Local\Temp\ccY719VG.s 			page 69


 343:../../libs/libDaisy/src/dev/mpr121.h **** 
 2290              		.loc 9 343 55 view .LVU531
 2291              	.LBE804:
 2292              	.LBE806:
 2293              	.LBE812:
 2294              	.LBE819:
 2295              	.LBE826:
 2296              	.LBE833:
 2297              	.LBE840:
 2298              	.LBE884:
 2299              	.LBB885:
 2300              	.LBI849:
 201:../../libs/libDaisy/src/dev/mpr121.h ****     {
 2301              		.loc 9 201 14 is_stmt 1 view .LVU532
 2302              	.LBB878:
 2303              	.LBI850:
 201:../../libs/libDaisy/src/dev/mpr121.h ****     {
 2304              		.loc 9 201 14 view .LVU533
 2305              	.LBB873:
 2306              	.LBI851:
 244:../../libs/libDaisy/src/dev/mpr121.h ****     {
 2307              		.loc 9 244 14 view .LVU534
 2308              	.LBB868:
 2309              	.LBB859:
 2310              	.LBI853:
  75:../../libs/libDaisy/src/dev/mpr121.h ****     {
 2311              		.loc 9 75 10 view .LVU535
 2312              	.LBB856:
  77:../../libs/libDaisy/src/dev/mpr121.h ****                != i2c_.Mem_read(
 2313              		.loc 9 77 9 view .LVU536
 2314              	.LBE856:
 2315              	.LBE859:
 2316              	.LBE868:
 2317              	.LBE873:
 2318              	.LBE878:
 2319              	.LBE885:
 2320              	.LBB886:
 2321              	.LBB841:
 2322              	.LBB834:
 2323              	.LBB827:
 2324              	.LBB820:
 2325              	.LBB813:
 241:../../libs/libDaisy/src/dev/mpr121.h ****     }
 2326              		.loc 9 241 16 is_stmt 0 view .LVU537
 2327 0542 9DF84080 		ldrb	r8, [sp, #64]	@ zero_extendqisi2
 2328              	.LBE813:
 2329              	.LBE820:
 2330              	.LBE827:
 2331              	.LBE834:
 2332              	.LBE841:
 2333              	.LBE886:
 2334              	.LBB887:
 2335              	.LBB879:
 2336              	.LBB874:
 2337              	.LBB869:
 2338              	.LBB860:
 2339              	.LBB857:
ARM GAS  C:\Users\skipi\AppData\Local\Temp\ccY719VG.s 			page 70


  78:../../libs/libDaisy/src/dev/mpr121.h ****                    config_.dev_addr, memAddress, 1, data, memSize, 10);
 2340              		.loc 9 78 32 view .LVU538
 2341 0546 FFF7FEFF 		bl	_ZN5daisy9I2CHandle8Mem_readEtttPhtm
 2342              	.LVL147:
  78:../../libs/libDaisy/src/dev/mpr121.h ****                    config_.dev_addr, memAddress, 1, data, memSize, 10);
 2343              		.loc 9 78 32 view .LVU539
 2344              	.LBE857:
 2345              	.LBE860:
 2346              	.LBB861:
 2347              	.LBI861:
 343:../../libs/libDaisy/src/dev/mpr121.h **** 
 2348              		.loc 9 343 10 is_stmt 1 view .LVU540
 2349              	.LBB862:
 343:../../libs/libDaisy/src/dev/mpr121.h **** 
 2350              		.loc 9 343 55 is_stmt 0 view .LVU541
 2351 054a 95F83030 		ldrb	r3, [r5, #48]	@ zero_extendqisi2
 2352              	.LBE862:
 2353              	.LBE861:
 2354              	.LBE869:
 2355              	.LBE874:
 2356              	.LBE879:
 2357              	.LBE887:
 2358              		.loc 10 122 43 view .LVU542
 2359 054e BDF84020 		ldrh	r2, [sp, #64]
 2360 0552 08FA0BF1 		lsl	r1, r8, fp
 2361              	.LBB888:
 2362              	.LBB880:
 2363              	.LBB875:
 2364              	.LBB870:
 2365              	.LBB865:
 2366              	.LBB863:
 343:../../libs/libDaisy/src/dev/mpr121.h **** 
 2367              		.loc 9 343 55 view .LVU543
 2368 0556 0028     		cmp	r0, #0
 2369 0558 18BF     		it	ne
 2370 055a 43F00103 		orrne	r3, r3, #1
 2371              	.LBE863:
 2372              	.LBE865:
 2373              	.LBE870:
 2374              	.LBE875:
 2375              	.LBE880:
 2376              	.LBE888:
 2377              		.loc 10 122 43 view .LVU544
 2378 055e 1A48     		ldr	r0, .L43+24
 2379              	.LVL148:
 2380              	.LBB889:
 2381              	.LBB881:
 2382              	.LBB876:
 2383              	.LBB871:
 2384              	.LBB866:
 2385              	.LBB864:
 343:../../libs/libDaisy/src/dev/mpr121.h **** 
 2386              		.loc 9 343 55 view .LVU545
 2387 0560 85F83030 		strb	r3, [r5, #48]
 2388              	.LVL149:
 343:../../libs/libDaisy/src/dev/mpr121.h **** 
 2389              		.loc 9 343 55 view .LVU546
ARM GAS  C:\Users\skipi\AppData\Local\Temp\ccY719VG.s 			page 71


 2390              	.LBE864:
 2391              	.LBE866:
 2392              	.LBE871:
 2393              	.LBE876:
 2394              	.LBE881:
 2395              	.LBE889:
 2396              		.loc 10 122 43 view .LVU547
 2397 0564 FFF7FEFF 		bl	_ZN16PlantConditioner7ProcessEtt
 2398              	.LVL150:
 123:main.cpp      **** 
 124:main.cpp      ****             // D. Logica Gate e Aggiornamento Audio
 125:main.cpp      ****             bool is_touched_now = (currTouched & _BV(0));
 126:main.cpp      **** 
 127:main.cpp      ****             if (is_touched_now)
 128:main.cpp      ****             {
 129:main.cpp      ****                 // Se tocco: attivo il gate e aggiorno la frequenza
 130:main.cpp      ****                 if (!gate) gate = true;
 2399              		.loc 10 130 17 is_stmt 1 view .LVU548
 131:main.cpp      ****                 
 132:main.cpp      ****                 f = target_freq;
 2400              		.loc 10 132 17 view .LVU549
 133:main.cpp      ****                 osc.SetFreq(f);
 134:main.cpp      ****             }
 135:main.cpp      ****             else
 136:main.cpp      ****             {
 137:main.cpp      ****                 // Se rilascio: disattivo il gate MA NON aggiorno la frequenza.
 138:main.cpp      ****                 // In questo modo la "coda" (release) dell'inviluppo suona 
 139:main.cpp      ****                 // con l'ultima nota valida, invece di cadere a 0Hz o fare glitch.
 140:main.cpp      ****                 if (gate) gate = false;
 2401              		.loc 10 140 17 view .LVU550
 125:main.cpp      **** 
 2402              		.loc 10 125 36 is_stmt 0 view .LVU551
 2403 0568 B9F80020 		ldrh	r2, [r9]
 122:main.cpp      **** 
 2404              		.loc 10 122 43 view .LVU552
 2405 056c F0EE407A 		vmov.f32	s15, s0
 2406              	.LVL151:
 125:main.cpp      **** 
 2407              		.loc 10 125 13 is_stmt 1 view .LVU553
 127:main.cpp      ****             {
 2408              		.loc 10 127 13 view .LVU554
 2409              	.LBB890:
 2410              	.LBB891:
  70:../../libs/DaisySP/Source/Synthesis/oscillator.h ****     }
 2411              		.loc 8 70 34 is_stmt 0 view .LVU555
 2412 0570 1648     		ldr	r0, .L43+28
 2413              	.LBE891:
 2414              	.LBE890:
 127:main.cpp      ****             {
 2415              		.loc 10 127 13 view .LVU556
 2416 0572 12EA0603 		ands	r3, r2, r6
 2417 0576 13D0     		beq	.L31
 130:main.cpp      ****                 
 2418              		.loc 10 130 28 is_stmt 1 view .LVU557
 130:main.cpp      ****                 
 2419              		.loc 10 130 17 is_stmt 0 view .LVU558
 2420 0578 9AF80030 		ldrb	r3, [r10]	@ zero_extendqisi2
ARM GAS  C:\Users\skipi\AppData\Local\Temp\ccY719VG.s 			page 72


 2421 057c 0BB9     		cbnz	r3, .L32
 130:main.cpp      ****                 
 2422              		.loc 10 130 33 discriminator 1 view .LVU559
 2423 057e 8AF80060 		strb	r6, [r10]
 2424              	.L32:
 132:main.cpp      ****                 osc.SetFreq(f);
 2425              		.loc 10 132 19 view .LVU560
 2426 0582 134B     		ldr	r3, .L43+32
 2427              	.LBB895:
 2428              	.LBB892:
  69:../../libs/DaisySP/Source/Synthesis/oscillator.h ****         phase_inc_ = CalcPhaseInc(f);
 2429              		.loc 8 69 20 view .LVU561
 2430 0584 114E     		ldr	r6, .L43+28
 2431              	.LBE892:
 2432              	.LBE895:
 132:main.cpp      ****                 osc.SetFreq(f);
 2433              		.loc 10 132 19 view .LVU562
 2434 0586 C3ED007A 		vstr.32	s15, [r3]
 133:main.cpp      ****             }
 2435              		.loc 10 133 17 is_stmt 1 view .LVU563
 2436              	.LVL152:
 2437              	.LBB896:
 2438              	.LBI890:
  67:../../libs/DaisySP/Source/Synthesis/oscillator.h ****     {
 2439              		.loc 8 67 17 view .LVU564
 2440              	.LBB893:
  69:../../libs/DaisySP/Source/Synthesis/oscillator.h ****         phase_inc_ = CalcPhaseInc(f);
 2441              		.loc 8 69 9 view .LVU565
  69:../../libs/DaisySP/Source/Synthesis/oscillator.h ****         phase_inc_ = CalcPhaseInc(f);
 2442              		.loc 8 69 20 is_stmt 0 view .LVU566
 2443 058a C6ED027A 		vstr.32	s15, [r6, #8]
  70:../../libs/DaisySP/Source/Synthesis/oscillator.h ****     }
 2444              		.loc 8 70 9 is_stmt 1 view .LVU567
  70:../../libs/DaisySP/Source/Synthesis/oscillator.h ****     }
 2445              		.loc 8 70 34 is_stmt 0 view .LVU568
 2446 058e FFF7FEFF 		bl	_ZN7daisysp10Oscillator12CalcPhaseIncEf
 2447              	.LVL153:
  70:../../libs/DaisySP/Source/Synthesis/oscillator.h ****     }
 2448              		.loc 8 70 34 view .LVU569
 2449              	.LBE893:
 2450              	.LBE896:
 141:main.cpp      ****             }
 142:main.cpp      **** 
 143:main.cpp      ****             lastTouched = currTouched;
 2451              		.loc 10 143 25 view .LVU570
 2452 0592 B9F80020 		ldrh	r2, [r9]
 2453              	.LBB897:
 2454              	.LBB894:
  70:../../libs/DaisySP/Source/Synthesis/oscillator.h ****     }
 2455              		.loc 8 70 20 view .LVU571
 2456 0596 86ED070A 		vstr.32	s0, [r6, #28]
 2457              	.LVL154:
 2458              	.L33:
  70:../../libs/DaisySP/Source/Synthesis/oscillator.h ****     }
 2459              		.loc 8 70 20 view .LVU572
 2460              	.LBE894:
 2461              	.LBE897:
ARM GAS  C:\Users\skipi\AppData\Local\Temp\ccY719VG.s 			page 73


 2462              		.loc 10 143 13 is_stmt 1 view .LVU573
 2463              		.loc 10 143 25 is_stmt 0 view .LVU574
 2464 059a 0E4B     		ldr	r3, .L43+36
 2465 059c 1A80     		strh	r2, [r3]	@ movhi
 2466              	.LBE763:
 2467 059e 71E7     		b	.L30
 2468              	.LVL155:
 2469              	.L31:
 2470              	.LBB898:
 140:main.cpp      ****             }
 2471              		.loc 10 140 27 is_stmt 1 view .LVU575
 140:main.cpp      ****             }
 2472              		.loc 10 140 17 is_stmt 0 view .LVU576
 2473 05a0 9AF80010 		ldrb	r1, [r10]	@ zero_extendqisi2
 2474 05a4 0029     		cmp	r1, #0
 2475 05a6 F8D0     		beq	.L33
 140:main.cpp      ****             }
 2476              		.loc 10 140 32 discriminator 1 view .LVU577
 2477 05a8 8AF80030 		strb	r3, [r10]
 2478 05ac F5E7     		b	.L33
 2479              	.L44:
 2480 05ae 00BF     		.align	2
 2481              	.L43:
 2482 05b0 18000000 		.word	.LANCHOR9+24
 2483 05b4 00000000 		.word	.LANCHOR9
 2484 05b8 00000000 		.word	.LANCHOR3
 2485 05bc 00000000 		.word	_ZL13AudioCallbackPKfPfj
 2486 05c0 18000000 		.word	.LANCHOR3+24
 2487 05c4 0000C842 		.word	1120403456
 2488 05c8 00000000 		.word	.LANCHOR4
 2489 05cc 00000000 		.word	.LANCHOR2
 2490 05d0 00000000 		.word	.LANCHOR11
 2491 05d4 00000000 		.word	.LANCHOR12
 2492 05d8 00000000 		.word	.LANCHOR10
 2493 05dc 00000000 		.word	.LANCHOR0
 2494              	.LBE898:
 2495              	.LBE762:
 2496              	.LBE761:
 2497              		.cfi_endproc
 2498              	.LFE4849:
 2500              		.section	.text.startup._GLOBAL__sub_I_mpr121ObjConf,"ax",%progbits
 2501              		.align	1
 2502              		.p2align 2,,3
 2503              		.syntax unified
 2504              		.thumb
 2505              		.thumb_func
 2506              		.fpu fpv5-d16
 2508              	_GLOBAL__sub_I_mpr121ObjConf:
 2509              	.LFB5431:
 144:main.cpp      **** 
 145:main.cpp      ****             // E. Debugging (Sicuro a 100Hz)
 146:main.cpp      ****             #ifdef DEBUG
 147:main.cpp      ****                 if (gate) {
 148:main.cpp      ****                     if (!flag) { hw.PrintLine("--- TOUCH ---"); flag = true; }
 149:main.cpp      ****                     hw.PrintLine("Delta: %.2f | Freq: %.2f", pc.getDelta(), f);
 150:main.cpp      ****                 } else {
 151:main.cpp      ****                     if (flag) { hw.PrintLine("--- RELEASE ---"); flag = false; }
ARM GAS  C:\Users\skipi\AppData\Local\Temp\ccY719VG.s 			page 74


 152:main.cpp      ****                 }
 153:main.cpp      ****             #endif
 154:main.cpp      **** 
 155:main.cpp      ****             #ifdef csvAcquisition
 156:main.cpp      ****                 // Stampa CSV: DeltaRaw, DeltaFiltered, GateStatus
 157:main.cpp      ****                 hw.PrintLine("%.2f,%.2f,%d", pc.getDelta(), pc.getDeltaFilt(), gate ? 1 : 0);
 158:main.cpp      ****             #endif
 159:main.cpp      ****         }
 160:main.cpp      ****         
 161:main.cpp      ****         // Piccolo riposo per la CPU fuori dal blocco temporizzato
 162:main.cpp      ****        
 163:main.cpp      ****     }
 164:main.cpp      **** }...
 2510              		.loc 10 164 1 is_stmt 1 view -0
 2511              		.cfi_startproc
 2512              		@ args = 0, pretend = 0, frame = 0
 2513              		@ frame_needed = 0, uses_anonymous_args = 0
 2514              	.LBB1029:
 2515              	.LBI1029:
 2516              		.loc 10 164 1 view .LVU579
 2517              	.LVL156:
 2518              	.LBB1030:
 2519              	.LBB1031:
 2520              	.LBI1031:
 105:../../libs/libDaisy/src/dev/mpr121.h ****         {
 2521              		.loc 9 105 9 view .LVU580
 2522              	.LBB1032:
 2523              	.LBB1033:
 2524              	.LBI1033:
  34:../../libs/libDaisy/src/dev/mpr121.h ****         {
 2525              		.loc 9 34 9 view .LVU581
 2526              	.LBB1034:
 2527              	.LBB1035:
 2528              	.LBB1036:
 2529              	.LBI1036:
 2530              		.loc 12 204 15 view .LVU582
 2531              		.loc 12 204 15 is_stmt 0 view .LVU583
 2532              	.LBE1036:
 2533              	.LBB1037:
 2534              	.LBI1037:
 2535              		.loc 12 204 15 is_stmt 1 view .LVU584
 2536              		.loc 12 204 15 is_stmt 0 view .LVU585
 2537              	.LBE1037:
  36:../../libs/libDaisy/src/dev/mpr121.h ****             speed  = I2CHandle::Config::Speed::I2C_400KHZ;
 2538              		.loc 9 36 13 is_stmt 1 view .LVU586
  37:../../libs/libDaisy/src/dev/mpr121.h **** 
 2539              		.loc 9 37 13 view .LVU587
  39:../../libs/libDaisy/src/dev/mpr121.h ****             sda = Pin(PORTB, 9);
 2540              		.loc 9 39 13 view .LVU588
 2541              	.LBB1038:
 2542              	.LBI1038:
 201:../../libs/libDaisy/src/daisy_core.h **** 
 2543              		.loc 12 201 15 view .LVU589
 201:../../libs/libDaisy/src/daisy_core.h **** 
 2544              		.loc 12 201 15 is_stmt 0 view .LVU590
 2545              	.LBE1038:
  40:../../libs/libDaisy/src/dev/mpr121.h **** 
ARM GAS  C:\Users\skipi\AppData\Local\Temp\ccY719VG.s 			page 75


 2546              		.loc 9 40 13 is_stmt 1 view .LVU591
 2547              	.LBB1039:
 2548              	.LBI1039:
 201:../../libs/libDaisy/src/daisy_core.h **** 
 2549              		.loc 12 201 15 view .LVU592
 201:../../libs/libDaisy/src/daisy_core.h **** 
 2550              		.loc 12 201 15 is_stmt 0 view .LVU593
 2551              	.LBE1039:
  42:../../libs/libDaisy/src/dev/mpr121.h ****         }
 2552              		.loc 9 42 13 is_stmt 1 view .LVU594
  42:../../libs/libDaisy/src/dev/mpr121.h ****         }
 2553              		.loc 9 42 13 is_stmt 0 view .LVU595
 2554              	.LBE1035:
 2555              	.LBE1034:
 2556              	.LBE1033:
 2557              	.LBE1032:
 2558              	.LBE1031:
 2559              	.LBE1030:
 2560              	.LBE1029:
 2561              		.loc 10 164 1 view .LVU596
 2562 0000 38B5     		push	{r3, r4, r5, lr}
 2563              		.cfi_def_cfa_offset 16
 2564              		.cfi_offset 3, -16
 2565              		.cfi_offset 4, -12
 2566              		.cfi_offset 5, -8
 2567              		.cfi_offset 14, -4
 2568              	.LBB1204:
 2569              	.LBB1202:
 2570              	.LBB1049:
 2571              	.LBB1050:
 2572              	.LBB1051:
 2573              	.LBB1052:
 2574              	.LBB1053:
 2575              	.LBB1054:
 2576              	.LBB1055:
  36:../../libs/libDaisy/src/dev/mpr121.h ****             speed  = I2CHandle::Config::Speed::I2C_400KHZ;
 2577              		.loc 9 36 20 view .LVU597
 2578 0002 3C48     		ldr	r0, .L51
 2579              	.LBE1055:
 2580              	.LBE1054:
 2581              	.LBE1053:
 2582              	.LBE1052:
 2583              	.LBE1051:
 2584              	.LBE1050:
 2585              	.LBE1049:
 2586              	.LBB1088:
 2587              	.LBB1046:
 105:../../libs/libDaisy/src/dev/mpr121.h ****         {
 2588              		.loc 9 105 9 view .LVU598
 2589 0004 5A21     		movs	r1, #90
 2590              	.LBB1044:
 2591              	.LBB1042:
 2592              	.LBB1040:
  36:../../libs/libDaisy/src/dev/mpr121.h ****             speed  = I2CHandle::Config::Speed::I2C_400KHZ;
 2593              		.loc 9 36 20 view .LVU599
 2594 0006 3C4B     		ldr	r3, .L51+4
 2595 0008 0024     		movs	r4, #0
ARM GAS  C:\Users\skipi\AppData\Local\Temp\ccY719VG.s 			page 76


  37:../../libs/libDaisy/src/dev/mpr121.h **** 
 2596              		.loc 9 37 20 view .LVU600
 2597 000a 0125     		movs	r5, #1
 2598              	.LBE1040:
 2599              	.LBE1042:
 2600              	.LBE1044:
 105:../../libs/libDaisy/src/dev/mpr121.h ****         {
 2601              		.loc 9 105 9 view .LVU601
 2602 000c 3B4A     		ldr	r2, .L51+8
 2603 000e 1961     		str	r1, [r3, #16]
 2604              	.LBE1046:
 2605              	.LBE1088:
 2606              	.LBB1089:
 2607              	.LBB1085:
  96:../../libs/libDaisy/src/dev/mpr121.h ****     ~Mpr121() {}
 2608              		.loc 9 96 5 view .LVU602
 2609 0010 0161     		str	r1, [r0, #16]
 2610 0012 C162     		str	r1, [r0, #44]
 2611              	.LBE1085:
 2612              	.LBE1089:
 2613              	.LBB1090:
 2614              	.LBB1047:
 105:../../libs/libDaisy/src/dev/mpr121.h ****         {
 2615              		.loc 9 105 9 view .LVU603
 2616 0014 4FF48171 		mov	r1, #258
 2617 0018 9A60     		str	r2, [r3, #8]
 2618 001a 9982     		strh	r1, [r3, #20]	@ movhi
 2619              	.LVL157:
 105:../../libs/libDaisy/src/dev/mpr121.h ****         {
 2620              		.loc 9 105 9 view .LVU604
 2621              	.LBE1047:
 2622              	.LBE1090:
 2623              	.LBB1091:
 2624              	.LBI1049:
  96:../../libs/libDaisy/src/dev/mpr121.h ****     ~Mpr121() {}
 2625              		.loc 9 96 5 is_stmt 1 view .LVU605
 2626              	.LBB1086:
 2627              	.LBB1068:
 2628              	.LBI1051:
 105:../../libs/libDaisy/src/dev/mpr121.h ****         {
 2629              		.loc 9 105 9 view .LVU606
 2630              	.LBB1066:
 2631              	.LBB1064:
 2632              	.LBI1053:
  34:../../libs/libDaisy/src/dev/mpr121.h ****         {
 2633              		.loc 9 34 9 view .LVU607
 2634              	.LBB1062:
 2635              	.LBB1060:
 2636              	.LBB1056:
 2637              	.LBI1056:
 2638              		.loc 12 204 15 view .LVU608
 2639              		.loc 12 204 15 is_stmt 0 view .LVU609
 2640              	.LBE1056:
 2641              	.LBB1057:
 2642              	.LBI1057:
 2643              		.loc 12 204 15 is_stmt 1 view .LVU610
 2644              		.loc 12 204 15 is_stmt 0 view .LVU611
ARM GAS  C:\Users\skipi\AppData\Local\Temp\ccY719VG.s 			page 77


 2645              	.LBE1057:
  36:../../libs/libDaisy/src/dev/mpr121.h ****             speed  = I2CHandle::Config::Speed::I2C_400KHZ;
 2646              		.loc 9 36 13 is_stmt 1 view .LVU612
  37:../../libs/libDaisy/src/dev/mpr121.h **** 
 2647              		.loc 9 37 13 view .LVU613
  39:../../libs/libDaisy/src/dev/mpr121.h ****             sda = Pin(PORTB, 9);
 2648              		.loc 9 39 13 view .LVU614
 2649              	.LBB1058:
 2650              	.LBI1058:
 201:../../libs/libDaisy/src/daisy_core.h **** 
 2651              		.loc 12 201 15 view .LVU615
 201:../../libs/libDaisy/src/daisy_core.h **** 
 2652              		.loc 12 201 15 is_stmt 0 view .LVU616
 2653              	.LBE1058:
  40:../../libs/libDaisy/src/dev/mpr121.h **** 
 2654              		.loc 9 40 13 is_stmt 1 view .LVU617
 2655              	.LBB1059:
 2656              	.LBI1059:
 201:../../libs/libDaisy/src/daisy_core.h **** 
 2657              		.loc 12 201 15 view .LVU618
 201:../../libs/libDaisy/src/daisy_core.h **** 
 2658              		.loc 12 201 15 is_stmt 0 view .LVU619
 2659              	.LBE1059:
  42:../../libs/libDaisy/src/dev/mpr121.h ****         }
 2660              		.loc 9 42 13 is_stmt 1 view .LVU620
  42:../../libs/libDaisy/src/dev/mpr121.h ****         }
 2661              		.loc 9 42 13 is_stmt 0 view .LVU621
 2662              	.LBE1060:
 2663              	.LBE1062:
 2664              	.LBE1064:
 2665              	.LBE1066:
 2666              	.LBE1068:
 2667              	.LBB1069:
 2668              	.LBI1069:
  20:../../libs/libDaisy/src/dev/mpr121.h ****     ~Mpr121I2CTransport() {}
 2669              		.loc 9 20 5 is_stmt 1 view .LVU622
 2670              	.LBB1070:
 2671              	.LBB1071:
 2672              	.LBI1071:
  60:../../libs/libDaisy/src/per/i2c.h ****             Pin scl;  /**< & */
  61:../../libs/libDaisy/src/per/i2c.h ****             Pin sda;  /**< & */
  62:../../libs/libDaisy/src/per/i2c.h ****         } pin_config; /**< & */
  63:../../libs/libDaisy/src/per/i2c.h **** 
  64:../../libs/libDaisy/src/per/i2c.h ****         Speed speed; /**< & */
  65:../../libs/libDaisy/src/per/i2c.h ****         Mode  mode;  /**< & */
  66:../../libs/libDaisy/src/per/i2c.h ****         // 0x10 is chosen as a default to avoid conflicts with reserved addresses
  67:../../libs/libDaisy/src/per/i2c.h ****         uint8_t address = 0x10; /**< & */
  68:../../libs/libDaisy/src/per/i2c.h ****     };
  69:../../libs/libDaisy/src/per/i2c.h **** 
  70:../../libs/libDaisy/src/per/i2c.h ****     /** Return values for I2C functions. */
  71:../../libs/libDaisy/src/per/i2c.h ****     enum class Result
  72:../../libs/libDaisy/src/per/i2c.h ****     {
  73:../../libs/libDaisy/src/per/i2c.h ****         OK, /**< & */
  74:../../libs/libDaisy/src/per/i2c.h ****         ERR /**< & */
  75:../../libs/libDaisy/src/per/i2c.h ****     };
  76:../../libs/libDaisy/src/per/i2c.h **** 
  77:../../libs/libDaisy/src/per/i2c.h ****     enum class Direction
ARM GAS  C:\Users\skipi\AppData\Local\Temp\ccY719VG.s 			page 78


  78:../../libs/libDaisy/src/per/i2c.h ****     {
  79:../../libs/libDaisy/src/per/i2c.h ****         TRANSMIT, /**< & */
  80:../../libs/libDaisy/src/per/i2c.h ****         RECEIVE,  /**< & */
  81:../../libs/libDaisy/src/per/i2c.h ****     };
  82:../../libs/libDaisy/src/per/i2c.h **** 
  83:../../libs/libDaisy/src/per/i2c.h ****     I2CHandle() : pimpl_(nullptr) {}
 2673              		.loc 11 83 5 view .LVU623
 2674              		.loc 11 83 5 is_stmt 0 view .LVU624
 2675              	.LBE1071:
 2676              	.LBB1072:
 2677              	.LBI1072:
  34:../../libs/libDaisy/src/dev/mpr121.h ****         {
 2678              		.loc 9 34 9 is_stmt 1 view .LVU625
 2679              	.LBB1073:
 2680              	.LBB1074:
 2681              	.LBB1075:
 2682              	.LBI1075:
 2683              		.loc 12 204 15 view .LVU626
 2684              		.loc 12 204 15 is_stmt 0 view .LVU627
 2685              	.LBE1075:
 2686              	.LBB1076:
 2687              	.LBI1076:
 2688              		.loc 12 204 15 is_stmt 1 view .LVU628
 2689              		.loc 12 204 15 is_stmt 0 view .LVU629
 2690              	.LBE1076:
  36:../../libs/libDaisy/src/dev/mpr121.h ****             speed  = I2CHandle::Config::Speed::I2C_400KHZ;
 2691              		.loc 9 36 13 is_stmt 1 view .LVU630
  37:../../libs/libDaisy/src/dev/mpr121.h **** 
 2692              		.loc 9 37 13 view .LVU631
  39:../../libs/libDaisy/src/dev/mpr121.h ****             sda = Pin(PORTB, 9);
 2693              		.loc 9 39 13 view .LVU632
 2694              	.LBB1077:
 2695              	.LBI1077:
 201:../../libs/libDaisy/src/daisy_core.h **** 
 2696              		.loc 12 201 15 view .LVU633
 201:../../libs/libDaisy/src/daisy_core.h **** 
 2697              		.loc 12 201 15 is_stmt 0 view .LVU634
 2698              	.LBE1077:
  40:../../libs/libDaisy/src/dev/mpr121.h **** 
 2699              		.loc 9 40 13 is_stmt 1 view .LVU635
 2700              	.LBB1078:
 2701              	.LBI1078:
 201:../../libs/libDaisy/src/daisy_core.h **** 
 2702              		.loc 12 201 15 view .LVU636
 201:../../libs/libDaisy/src/daisy_core.h **** 
 2703              		.loc 12 201 15 is_stmt 0 view .LVU637
 2704              	.LBE1078:
  42:../../libs/libDaisy/src/dev/mpr121.h ****         }
 2705              		.loc 9 42 13 is_stmt 1 view .LVU638
  37:../../libs/libDaisy/src/dev/mpr121.h **** 
 2706              		.loc 9 37 20 is_stmt 0 view .LVU639
 2707 001c 0562     		str	r5, [r0, #32]
 2708              	.LBE1074:
 2709              	.LBE1073:
 2710              	.LBE1072:
 2711              	.LBE1070:
 2712              	.LBE1069:
ARM GAS  C:\Users\skipi\AppData\Local\Temp\ccY719VG.s 			page 79


  96:../../libs/libDaisy/src/dev/mpr121.h ****     ~Mpr121() {}
 2713              		.loc 9 96 5 view .LVU640
 2714 001e 8260     		str	r2, [r0, #8]
 2715 0020 4262     		str	r2, [r0, #36]
 2716 0022 4161     		str	r1, [r0, #20]
 2717              	.LBE1086:
 2718              	.LBE1091:
  22:main.cpp      **** daisy::Mpr121I2C cap;
 2719              		.loc 10 22 18 view .LVU641
 2720 0024 364A     		ldr	r2, .L51+12
 2721 0026 3749     		ldr	r1, .L51+16
 2722              	.LBB1092:
 2723              	.LBB1048:
 2724              	.LBB1045:
 2725              	.LBB1043:
 2726              	.LBB1041:
  37:../../libs/libDaisy/src/dev/mpr121.h **** 
 2727              		.loc 9 37 20 view .LVU642
 2728 0028 C3E90045 		strd	r4, r5, [r3]
 2729              	.LBE1041:
 2730              	.LBE1043:
 2731              	.LBE1045:
 2732              	.LBE1048:
 2733              	.LBE1092:
 2734              	.LBB1093:
 2735              	.LBB1087:
 2736              	.LBB1083:
 2737              	.LBB1067:
 2738              	.LBB1065:
 2739              	.LBB1063:
 2740              	.LBB1061:
 2741 002c C0E90045 		strd	r4, r5, [r0]
 2742              	.LBE1061:
 2743              	.LBE1063:
 2744              	.LBE1065:
 2745              	.LBE1067:
 2746              	.LBE1083:
 2747              	.LBB1084:
 2748              	.LBB1082:
 2749              	.LBB1081:
 2750              	.LBB1080:
 2751              	.LBB1079:
  36:../../libs/libDaisy/src/dev/mpr121.h ****             speed  = I2CHandle::Config::Speed::I2C_400KHZ;
 2752              		.loc 9 36 20 view .LVU643
 2753 0030 C0E90644 		strd	r4, r4, [r0, #24]
 2754              	.LBE1079:
 2755              	.LBE1080:
 2756              	.LBE1081:
 2757              	.LBE1082:
 2758              	.LBE1084:
 2759              	.LBE1087:
 2760              	.LBE1093:
  22:main.cpp      **** daisy::Mpr121I2C cap;
 2761              		.loc 10 22 18 view .LVU644
 2762 0034 FFF7FEFF 		bl	__aeabi_atexit
 2763              	.LVL158:
 2764              	.LBB1094:
ARM GAS  C:\Users\skipi\AppData\Local\Temp\ccY719VG.s 			page 80


 2765              	.LBI1094:
  21:../../libs/libDaisy/src/daisy_seed.h ****     ~DaisySeed() {}
 2766              		.loc 1 21 5 is_stmt 1 view .LVU645
 2767              	.LBB1095:
 2768              	.LBB1096:
 2769              	.LBI1096:
 2770              		.file 13 "../../libs/libDaisy/src/per/qspi.h"
   1:../../libs/libDaisy/src/per/qspi.h **** #ifndef DSY_QSPI
   2:../../libs/libDaisy/src/per/qspi.h **** #define DSY_QSPI /**< Macro */
   3:../../libs/libDaisy/src/per/qspi.h **** 
   4:../../libs/libDaisy/src/per/qspi.h **** #ifndef UNIT_TEST // for unit tests, a dummy implementation
   5:../../libs/libDaisy/src/per/qspi.h **** 
   6:../../libs/libDaisy/src/per/qspi.h **** #include <cstdint>
   7:../../libs/libDaisy/src/per/qspi.h **** #include "daisy_core.h"
   8:../../libs/libDaisy/src/per/qspi.h **** #include "util/hal_map.h"
   9:../../libs/libDaisy/src/per/qspi.h **** 
  10:../../libs/libDaisy/src/per/qspi.h **** #define DSY_QSPI_TEXT       \
  11:../../libs/libDaisy/src/per/qspi.h ****     __attribute__((section( \
  12:../../libs/libDaisy/src/per/qspi.h ****         ".qspiflash_text"))) /**< used for reading memory in memory_mapped mode. */
  13:../../libs/libDaisy/src/per/qspi.h **** #define DSY_QSPI_DATA       \
  14:../../libs/libDaisy/src/per/qspi.h ****     __attribute__((section( \
  15:../../libs/libDaisy/src/per/qspi.h ****         ".qspiflash_data"))) /**< used for reading memory in memory_mapped mode. */
  16:../../libs/libDaisy/src/per/qspi.h **** #define DSY_QSPI_BSS        \
  17:../../libs/libDaisy/src/per/qspi.h ****     __attribute__((section( \
  18:../../libs/libDaisy/src/per/qspi.h ****         ".qspiflash_bss"))) /**< used for reading memory in memory_mapped mode. */
  19:../../libs/libDaisy/src/per/qspi.h **** 
  20:../../libs/libDaisy/src/per/qspi.h **** namespace daisy
  21:../../libs/libDaisy/src/per/qspi.h **** {
  22:../../libs/libDaisy/src/per/qspi.h **** /** @addtogroup serial
  23:../../libs/libDaisy/src/per/qspi.h **** @{
  24:../../libs/libDaisy/src/per/qspi.h **** */
  25:../../libs/libDaisy/src/per/qspi.h **** 
  26:../../libs/libDaisy/src/per/qspi.h **** /**
  27:../../libs/libDaisy/src/per/qspi.h ****  Driver for QSPI peripheral to interface with external flash memory. \n
  28:../../libs/libDaisy/src/per/qspi.h ****     Currently supported QSPI Devices: \n
  29:../../libs/libDaisy/src/per/qspi.h ****     * IS25LP080D
  30:../../libs/libDaisy/src/per/qspi.h **** */
  31:../../libs/libDaisy/src/per/qspi.h **** class QSPIHandle
  32:../../libs/libDaisy/src/per/qspi.h **** {
  33:../../libs/libDaisy/src/per/qspi.h ****   public:
  34:../../libs/libDaisy/src/per/qspi.h ****     enum Result
  35:../../libs/libDaisy/src/per/qspi.h ****     {
  36:../../libs/libDaisy/src/per/qspi.h ****         OK = 0,
  37:../../libs/libDaisy/src/per/qspi.h ****         ERR
  38:../../libs/libDaisy/src/per/qspi.h ****     };
  39:../../libs/libDaisy/src/per/qspi.h **** 
  40:../../libs/libDaisy/src/per/qspi.h ****     /** Indicates the current status of the module.
  41:../../libs/libDaisy/src/per/qspi.h ****          *  Warnings are indicated by a leading W.
  42:../../libs/libDaisy/src/per/qspi.h ****          *  Errors are indicated by a leading E and cause an immediate exit.
  43:../../libs/libDaisy/src/per/qspi.h ****          *
  44:../../libs/libDaisy/src/per/qspi.h ****          *  \param GOOD - No errors have been reported.
  45:../../libs/libDaisy/src/per/qspi.h ****          *  \param E_HAL_ERROR - HAL code did not return HAL_OK.
  46:../../libs/libDaisy/src/per/qspi.h ****          *  \param E_SWITCHING_MODES - An error was encountered while switching QSPI peripheral mod
  47:../../libs/libDaisy/src/per/qspi.h ****          *  \param E_INVALID_MODE - QSPI should not be written to while the program is executing fr
  48:../../libs/libDaisy/src/per/qspi.h ****          */
  49:../../libs/libDaisy/src/per/qspi.h ****     enum Status
  50:../../libs/libDaisy/src/per/qspi.h ****     {
ARM GAS  C:\Users\skipi\AppData\Local\Temp\ccY719VG.s 			page 81


  51:../../libs/libDaisy/src/per/qspi.h ****         GOOD = 0,
  52:../../libs/libDaisy/src/per/qspi.h ****         E_HAL_ERROR,
  53:../../libs/libDaisy/src/per/qspi.h ****         E_SWITCHING_MODES,
  54:../../libs/libDaisy/src/per/qspi.h ****         E_INVALID_MODE,
  55:../../libs/libDaisy/src/per/qspi.h ****     };
  56:../../libs/libDaisy/src/per/qspi.h **** 
  57:../../libs/libDaisy/src/per/qspi.h ****     /** Configuration structure for interfacing with QSPI Driver */
  58:../../libs/libDaisy/src/per/qspi.h ****     struct Config
  59:../../libs/libDaisy/src/per/qspi.h ****     {
  60:../../libs/libDaisy/src/per/qspi.h ****         /** Flash Devices supported. (Both of these are more-or-less the same, just different sizes
  61:../../libs/libDaisy/src/per/qspi.h ****         enum Device
  62:../../libs/libDaisy/src/per/qspi.h ****         {
  63:../../libs/libDaisy/src/per/qspi.h ****             IS25LP080D,  /**< & */
  64:../../libs/libDaisy/src/per/qspi.h ****             IS25LP064A,  /**< & */
  65:../../libs/libDaisy/src/per/qspi.h ****             DEVICE_LAST, /**< & */
  66:../../libs/libDaisy/src/per/qspi.h ****         };
  67:../../libs/libDaisy/src/per/qspi.h **** 
  68:../../libs/libDaisy/src/per/qspi.h ****         /**
  69:../../libs/libDaisy/src/per/qspi.h ****         Modes of operation.
  70:../../libs/libDaisy/src/per/qspi.h ****         Memory Mapped mode: QSPI configured so that the QSPI can be
  71:../../libs/libDaisy/src/per/qspi.h ****         read from starting address 0x90000000. Writing is not
  72:../../libs/libDaisy/src/per/qspi.h ****         possible in this mode. \n
  73:../../libs/libDaisy/src/per/qspi.h ****         Indirect Polling mode: Device driver enabled.
  74:../../libs/libDaisy/src/per/qspi.h ****         */
  75:../../libs/libDaisy/src/per/qspi.h ****         enum Mode
  76:../../libs/libDaisy/src/per/qspi.h ****         {
  77:../../libs/libDaisy/src/per/qspi.h ****             MEMORY_MAPPED,    /**< & */
  78:../../libs/libDaisy/src/per/qspi.h ****             INDIRECT_POLLING, /**< & */
  79:../../libs/libDaisy/src/per/qspi.h ****             MODE_LAST,
  80:../../libs/libDaisy/src/per/qspi.h ****         };
  81:../../libs/libDaisy/src/per/qspi.h **** 
  82:../../libs/libDaisy/src/per/qspi.h ****         //SCK,  CE# (active low)
  83:../../libs/libDaisy/src/per/qspi.h ****         struct
  84:../../libs/libDaisy/src/per/qspi.h ****         {
  85:../../libs/libDaisy/src/per/qspi.h ****             Pin io0; /**< & */
  86:../../libs/libDaisy/src/per/qspi.h ****             Pin io1; /**< & */
  87:../../libs/libDaisy/src/per/qspi.h ****             Pin io2; /**< & */
  88:../../libs/libDaisy/src/per/qspi.h ****             Pin io3; /**< & */
  89:../../libs/libDaisy/src/per/qspi.h ****             Pin clk; /**< & */
  90:../../libs/libDaisy/src/per/qspi.h ****             Pin ncs; /**< & */
  91:../../libs/libDaisy/src/per/qspi.h ****         } pin_config;
  92:../../libs/libDaisy/src/per/qspi.h **** 
  93:../../libs/libDaisy/src/per/qspi.h ****         Device device;
  94:../../libs/libDaisy/src/per/qspi.h ****         Mode   mode;
  95:../../libs/libDaisy/src/per/qspi.h ****     };
  96:../../libs/libDaisy/src/per/qspi.h **** 
  97:../../libs/libDaisy/src/per/qspi.h ****     /**
  98:../../libs/libDaisy/src/per/qspi.h ****         Initializes QSPI peripheral, and Resets, and prepares memory for access.
  99:../../libs/libDaisy/src/per/qspi.h ****         \param config should be populated with the mode, device and pin_config before calling this 
 100:../../libs/libDaisy/src/per/qspi.h ****         \return Result::OK or Result::ERR
 101:../../libs/libDaisy/src/per/qspi.h ****         */
 102:../../libs/libDaisy/src/per/qspi.h ****     Result Init(const Config& config);
 103:../../libs/libDaisy/src/per/qspi.h **** 
 104:../../libs/libDaisy/src/per/qspi.h ****     /** Returns the current config. */
 105:../../libs/libDaisy/src/per/qspi.h ****     const Config& GetConfig() const;
 106:../../libs/libDaisy/src/per/qspi.h **** 
 107:../../libs/libDaisy/src/per/qspi.h ****     // Couldn't this just be called before anything else in init? That
ARM GAS  C:\Users\skipi\AppData\Local\Temp\ccY719VG.s 			page 82


 108:../../libs/libDaisy/src/per/qspi.h ****     // would make manually calling it unnecessary.
 109:../../libs/libDaisy/src/per/qspi.h ****     /**
 110:../../libs/libDaisy/src/per/qspi.h ****         Deinitializes the peripheral
 111:../../libs/libDaisy/src/per/qspi.h ****         This should be called before reinitializing QSPI in a different mode.
 112:../../libs/libDaisy/src/per/qspi.h ****         \return Result::OK or Result::ERR
 113:../../libs/libDaisy/src/per/qspi.h ****         */
 114:../../libs/libDaisy/src/per/qspi.h ****     Result DeInit();
 115:../../libs/libDaisy/src/per/qspi.h **** 
 116:../../libs/libDaisy/src/per/qspi.h ****     /**
 117:../../libs/libDaisy/src/per/qspi.h ****         Writes a single page to to the specified address on the QSPI chip.
 118:../../libs/libDaisy/src/per/qspi.h ****         For IS25LP*, page size is 256 bytes.
 119:../../libs/libDaisy/src/per/qspi.h ****         \param address Address to write to
 120:../../libs/libDaisy/src/per/qspi.h ****         \param size Buffer size
 121:../../libs/libDaisy/src/per/qspi.h ****         \param buffer Buffer to write
 122:../../libs/libDaisy/src/per/qspi.h ****         \return Result::OK or Result::ERR
 123:../../libs/libDaisy/src/per/qspi.h ****         */
 124:../../libs/libDaisy/src/per/qspi.h ****     Result WritePage(uint32_t address, uint32_t size, uint8_t* buffer);
 125:../../libs/libDaisy/src/per/qspi.h **** 
 126:../../libs/libDaisy/src/per/qspi.h ****     /**
 127:../../libs/libDaisy/src/per/qspi.h ****         Writes data in buffer to to the QSPI. Starting at address to address+size
 128:../../libs/libDaisy/src/per/qspi.h ****         \param address Address to write to
 129:../../libs/libDaisy/src/per/qspi.h ****         \param size Buffer size
 130:../../libs/libDaisy/src/per/qspi.h ****         \param buffer Buffer to write
 131:../../libs/libDaisy/src/per/qspi.h ****         \return Result::OK or Result::ERR
 132:../../libs/libDaisy/src/per/qspi.h ****         */
 133:../../libs/libDaisy/src/per/qspi.h ****     Result Write(uint32_t address, uint32_t size, uint8_t* buffer);
 134:../../libs/libDaisy/src/per/qspi.h **** 
 135:../../libs/libDaisy/src/per/qspi.h ****     /**
 136:../../libs/libDaisy/src/per/qspi.h ****         Erases the area specified on the chip.
 137:../../libs/libDaisy/src/per/qspi.h ****         Erasures will happen by 4K, 32K or 64K increments.
 138:../../libs/libDaisy/src/per/qspi.h ****         Smallest erase possible is 4kB at a time. (on IS25LP*)
 139:../../libs/libDaisy/src/per/qspi.h ****         \param start_addr Address to begin erasing from
 140:../../libs/libDaisy/src/per/qspi.h ****         \param end_addr  Address to stop erasing at
 141:../../libs/libDaisy/src/per/qspi.h ****         \return Result::OK or Result::ERR
 142:../../libs/libDaisy/src/per/qspi.h ****         */
 143:../../libs/libDaisy/src/per/qspi.h ****     Result Erase(uint32_t start_addr, uint32_t end_addr);
 144:../../libs/libDaisy/src/per/qspi.h **** 
 145:../../libs/libDaisy/src/per/qspi.h ****     /**
 146:../../libs/libDaisy/src/per/qspi.h ****          Erases a single sector of the chip.
 147:../../libs/libDaisy/src/per/qspi.h ****         TODO: Document the size of this function.
 148:../../libs/libDaisy/src/per/qspi.h ****         \param address Address of sector to erase
 149:../../libs/libDaisy/src/per/qspi.h ****         \return Result::OK or Result::ERR
 150:../../libs/libDaisy/src/per/qspi.h ****         */
 151:../../libs/libDaisy/src/per/qspi.h ****     Result EraseSector(uint32_t address);
 152:../../libs/libDaisy/src/per/qspi.h **** 
 153:../../libs/libDaisy/src/per/qspi.h ****     /** Returns the current class status. Useful for debugging.
 154:../../libs/libDaisy/src/per/qspi.h ****      *  \returns Status
 155:../../libs/libDaisy/src/per/qspi.h ****      */
 156:../../libs/libDaisy/src/per/qspi.h ****     Status GetStatus();
 157:../../libs/libDaisy/src/per/qspi.h **** 
 158:../../libs/libDaisy/src/per/qspi.h ****     /** Returns a pointer to the actual memory used
 159:../../libs/libDaisy/src/per/qspi.h ****      *  The memory at this address is read-only
 160:../../libs/libDaisy/src/per/qspi.h ****      *  to write to it use the Write function.
 161:../../libs/libDaisy/src/per/qspi.h ****      *
 162:../../libs/libDaisy/src/per/qspi.h ****      *  \param offset returns the pointer starting this
 163:../../libs/libDaisy/src/per/qspi.h ****      *                many bytes into the memory
 164:../../libs/libDaisy/src/per/qspi.h ****     */
ARM GAS  C:\Users\skipi\AppData\Local\Temp\ccY719VG.s 			page 83


 165:../../libs/libDaisy/src/per/qspi.h ****     void* GetData(uint32_t offset = 0);
 166:../../libs/libDaisy/src/per/qspi.h **** 
 167:../../libs/libDaisy/src/per/qspi.h ****     QSPIHandle() : pimpl_(nullptr) {}
 2771              		.loc 13 167 5 view .LVU646
 2772              		.loc 13 167 5 is_stmt 0 view .LVU647
 2773              	.LBE1096:
 2774              	.LBB1099:
 2775              	.LBI1099:
  58:../../libs/libDaisy/src/per/qspi.h ****     {
 2776              		.loc 13 58 12 is_stmt 1 view .LVU648
 2777              	.LBB1100:
 2778              	.LBI1100:
  84:../../libs/libDaisy/src/per/qspi.h ****             Pin io0; /**< & */
 2779              		.loc 13 84 9 view .LVU649
 2780              	.LBB1101:
 2781              	.LBI1101:
 2782              		.loc 12 204 15 view .LVU650
 2783              		.loc 12 204 15 is_stmt 0 view .LVU651
 2784              	.LBE1101:
 2785              	.LBB1102:
 2786              	.LBI1102:
 2787              		.loc 12 204 15 is_stmt 1 view .LVU652
 2788              		.loc 12 204 15 is_stmt 0 view .LVU653
 2789              	.LBE1102:
 2790              	.LBB1103:
 2791              	.LBI1103:
 2792              		.loc 12 204 15 is_stmt 1 view .LVU654
 2793              		.loc 12 204 15 is_stmt 0 view .LVU655
 2794              	.LBE1103:
 2795              	.LBB1104:
 2796              	.LBI1104:
 2797              		.loc 12 204 15 is_stmt 1 view .LVU656
 2798              		.loc 12 204 15 is_stmt 0 view .LVU657
 2799              	.LBE1104:
 2800              	.LBB1105:
 2801              	.LBI1105:
 2802              		.loc 12 204 15 is_stmt 1 view .LVU658
 2803              		.loc 12 204 15 is_stmt 0 view .LVU659
 2804              	.LBE1105:
 2805              	.LBB1106:
 2806              	.LBI1106:
 2807              		.loc 12 204 15 is_stmt 1 view .LVU660
 2808              		.loc 12 204 15 is_stmt 0 view .LVU661
 2809              	.LBE1106:
 2810              	.LBE1100:
 2811              	.LBE1099:
 2812              	.LBB1107:
 2813              	.LBI1107:
  87:../../libs/libDaisy/src/hid/audio.h ****     ~AudioHandle() {}
 2814              		.loc 6 87 5 is_stmt 1 view .LVU662
  87:../../libs/libDaisy/src/hid/audio.h ****     ~AudioHandle() {}
 2815              		.loc 6 87 5 is_stmt 0 view .LVU663
 2816              	.LBE1107:
 2817              	.LBB1110:
 2818              	.LBI1110:
 109:../../libs/libDaisy/src/per/adc.h ****     ~AdcHandle() {}
 2819              		.loc 5 109 5 is_stmt 1 view .LVU664
ARM GAS  C:\Users\skipi\AppData\Local\Temp\ccY719VG.s 			page 84


 109:../../libs/libDaisy/src/per/adc.h ****     ~AdcHandle() {}
 2820              		.loc 5 109 5 is_stmt 0 view .LVU665
 2821              	.LBE1110:
 2822              	.LBB1111:
 2823              	.LBI1111:
 2824              		.file 14 "../../libs/libDaisy/src/per/dac.h"
   1:../../libs/libDaisy/src/per/dac.h **** #pragma once
   2:../../libs/libDaisy/src/per/dac.h **** #ifndef DSY_DAC_H
   3:../../libs/libDaisy/src/per/dac.h **** #define DSY_DAC_H
   4:../../libs/libDaisy/src/per/dac.h **** #include "stm32h7xx_hal.h"
   5:../../libs/libDaisy/src/per/dac.h **** #include "daisy_core.h"
   6:../../libs/libDaisy/src/per/dac.h **** 
   7:../../libs/libDaisy/src/per/dac.h **** namespace daisy
   8:../../libs/libDaisy/src/per/dac.h **** {
   9:../../libs/libDaisy/src/per/dac.h **** /** @brief DAC handle for Built-in DAC Peripheral 
  10:../../libs/libDaisy/src/per/dac.h ****  *  @ingroup per_analog
  11:../../libs/libDaisy/src/per/dac.h ****  ** 
  12:../../libs/libDaisy/src/per/dac.h ****  ** For now only Normal Mode is supported,
  13:../../libs/libDaisy/src/per/dac.h ****  ** Sample and hold mode provides reduced power consumption, but requires a bit more setup.
  14:../../libs/libDaisy/src/per/dac.h ****  **
  15:../../libs/libDaisy/src/per/dac.h ****  ** For now connecting the DAC through other internal peripherals is also not supported.
  16:../../libs/libDaisy/src/per/dac.h ****  **
  17:../../libs/libDaisy/src/per/dac.h ****  ** Since the DAC channels have dedicated pins we don't need to pass in a pin config like with
  18:../../libs/libDaisy/src/per/dac.h ****  ** other modules. However, it is still important to not try to use the DAC pins for anything else.
  19:../../libs/libDaisy/src/per/dac.h ****  ** DAC Channel 1 is on PA4, and DAC Channel 2 is on PA5
  20:../../libs/libDaisy/src/per/dac.h ****  ***/
  21:../../libs/libDaisy/src/per/dac.h **** class DacHandle
  22:../../libs/libDaisy/src/per/dac.h **** {
  23:../../libs/libDaisy/src/per/dac.h ****   public:
  24:../../libs/libDaisy/src/per/dac.h ****     /** Return Values for the DacHandle class */
  25:../../libs/libDaisy/src/per/dac.h ****     enum class Result
  26:../../libs/libDaisy/src/per/dac.h ****     {
  27:../../libs/libDaisy/src/per/dac.h ****         OK,
  28:../../libs/libDaisy/src/per/dac.h ****         ERR,
  29:../../libs/libDaisy/src/per/dac.h ****     };
  30:../../libs/libDaisy/src/per/dac.h **** 
  31:../../libs/libDaisy/src/per/dac.h ****     /** Selects which channel(s) will be configured for use. */
  32:../../libs/libDaisy/src/per/dac.h ****     enum class Channel
  33:../../libs/libDaisy/src/per/dac.h ****     {
  34:../../libs/libDaisy/src/per/dac.h ****         ONE,
  35:../../libs/libDaisy/src/per/dac.h ****         TWO,
  36:../../libs/libDaisy/src/per/dac.h ****         BOTH,
  37:../../libs/libDaisy/src/per/dac.h ****     };
  38:../../libs/libDaisy/src/per/dac.h **** 
  39:../../libs/libDaisy/src/per/dac.h ****     /** Sets the Mode for the DAC channels.
  40:../../libs/libDaisy/src/per/dac.h ****      **
  41:../../libs/libDaisy/src/per/dac.h ****      ** Polling mode uses the blocking mode to transmit a single value at a time.
  42:../../libs/libDaisy/src/per/dac.h ****      **
  43:../../libs/libDaisy/src/per/dac.h ****      ** DMA mode uses a buffer, and periodically transmits it triggering a 
  44:../../libs/libDaisy/src/per/dac.h ****      ** callback to fill the buffer when it is ready for more samples.
  45:../../libs/libDaisy/src/per/dac.h ****      ***/
  46:../../libs/libDaisy/src/per/dac.h ****     enum class Mode
  47:../../libs/libDaisy/src/per/dac.h ****     {
  48:../../libs/libDaisy/src/per/dac.h ****         POLLING,
  49:../../libs/libDaisy/src/per/dac.h ****         DMA,
  50:../../libs/libDaisy/src/per/dac.h ****     };
  51:../../libs/libDaisy/src/per/dac.h **** 
ARM GAS  C:\Users\skipi\AppData\Local\Temp\ccY719VG.s 			page 85


  52:../../libs/libDaisy/src/per/dac.h ****     /** Sets the number of bits per sample transmitted out of the DAC.
  53:../../libs/libDaisy/src/per/dac.h ****      ** The output range will be: 0V - VDDA
  54:../../libs/libDaisy/src/per/dac.h ****      ** The resolution will be roughly: bitdepth / (VDDA - 0V) 
  55:../../libs/libDaisy/src/per/dac.h ****      ***/
  56:../../libs/libDaisy/src/per/dac.h ****     enum class BitDepth
  57:../../libs/libDaisy/src/per/dac.h ****     {
  58:../../libs/libDaisy/src/per/dac.h ****         BITS_8,
  59:../../libs/libDaisy/src/per/dac.h ****         BITS_12
  60:../../libs/libDaisy/src/per/dac.h ****     };
  61:../../libs/libDaisy/src/per/dac.h **** 
  62:../../libs/libDaisy/src/per/dac.h ****     /** Sets whether the DAC output is buffered for higher drive ability. */
  63:../../libs/libDaisy/src/per/dac.h ****     enum class BufferState
  64:../../libs/libDaisy/src/per/dac.h ****     {
  65:../../libs/libDaisy/src/per/dac.h ****         ENABLED,
  66:../../libs/libDaisy/src/per/dac.h ****         DISABLED,
  67:../../libs/libDaisy/src/per/dac.h ****     };
  68:../../libs/libDaisy/src/per/dac.h **** 
  69:../../libs/libDaisy/src/per/dac.h ****     /** Configuration structure for initializing the DAC structure. */
  70:../../libs/libDaisy/src/per/dac.h ****     struct Config
  71:../../libs/libDaisy/src/per/dac.h ****     {
  72:../../libs/libDaisy/src/per/dac.h ****         /** Target Samplerate in Hz used to configure the internal 
  73:../../libs/libDaisy/src/per/dac.h ****          ** timebase for DMA mode. Does nothing in POLLING mode.
  74:../../libs/libDaisy/src/per/dac.h ****          ** If the value is 0 at Init time this will default to 48000Hz 
  75:../../libs/libDaisy/src/per/dac.h ****          ** otherwise the driver will attempt meet the target.*/
  76:../../libs/libDaisy/src/per/dac.h ****         uint32_t target_samplerate;
  77:../../libs/libDaisy/src/per/dac.h **** 
  78:../../libs/libDaisy/src/per/dac.h ****         Channel     chn;
  79:../../libs/libDaisy/src/per/dac.h ****         Mode        mode;
  80:../../libs/libDaisy/src/per/dac.h ****         BitDepth    bitdepth;
  81:../../libs/libDaisy/src/per/dac.h ****         BufferState buff_state;
  82:../../libs/libDaisy/src/per/dac.h ****     };
  83:../../libs/libDaisy/src/per/dac.h **** 
  84:../../libs/libDaisy/src/per/dac.h ****     DacHandle() : pimpl_(nullptr) {}
 2825              		.loc 14 84 5 is_stmt 1 view .LVU666
 2826              		.loc 14 84 5 is_stmt 0 view .LVU667
 2827              	.LBE1111:
 2828              	.LBB1114:
 2829              	.LBI1114:
  40:../../libs/libDaisy/src/hid/usb.h **** 
 2830              		.loc 4 40 5 is_stmt 1 view .LVU668
  40:../../libs/libDaisy/src/hid/usb.h **** 
 2831              		.loc 4 40 5 is_stmt 0 view .LVU669
 2832              	.LBE1114:
 2833              	.LBB1115:
 2834              	.LBI1115:
 2835              		.file 15 "../../libs/libDaisy/src/per/gpio.h"
   1:../../libs/libDaisy/src/per/gpio.h **** #pragma once
   2:../../libs/libDaisy/src/per/gpio.h **** #ifndef DSY_GPIO_H
   3:../../libs/libDaisy/src/per/gpio.h **** #define DSY_GPIO_H
   4:../../libs/libDaisy/src/per/gpio.h **** #include "daisy_core.h"
   5:../../libs/libDaisy/src/per/gpio.h **** 
   6:../../libs/libDaisy/src/per/gpio.h **** #ifdef __cplusplus
   7:../../libs/libDaisy/src/per/gpio.h **** 
   8:../../libs/libDaisy/src/per/gpio.h **** namespace daisy
   9:../../libs/libDaisy/src/per/gpio.h **** {
  10:../../libs/libDaisy/src/per/gpio.h **** /** @brief General Purpose I/O control 
  11:../../libs/libDaisy/src/per/gpio.h ****  *  @details peripheral control over a single GPIO
ARM GAS  C:\Users\skipi\AppData\Local\Temp\ccY719VG.s 			page 86


  12:../../libs/libDaisy/src/per/gpio.h ****  *  @ingroup peripheral
  13:../../libs/libDaisy/src/per/gpio.h ****  *   
  14:../../libs/libDaisy/src/per/gpio.h ****  *  Button Input (with internal Pullup resistor)
  15:../../libs/libDaisy/src/per/gpio.h ****  *  @include GPIO_Input.cpp 
  16:../../libs/libDaisy/src/per/gpio.h ****  * 
  17:../../libs/libDaisy/src/per/gpio.h ****  *  Output Example (perfect for blinking an LED)
  18:../../libs/libDaisy/src/per/gpio.h ****  *  @include GPIO_Output.cpp
  19:../../libs/libDaisy/src/per/gpio.h ****  * 
  20:../../libs/libDaisy/src/per/gpio.h **** */
  21:../../libs/libDaisy/src/per/gpio.h **** class GPIO
  22:../../libs/libDaisy/src/per/gpio.h **** {
  23:../../libs/libDaisy/src/per/gpio.h ****   public:
  24:../../libs/libDaisy/src/per/gpio.h ****     /** @brief Mode of operation for the specified GPIO */
  25:../../libs/libDaisy/src/per/gpio.h ****     enum class Mode
  26:../../libs/libDaisy/src/per/gpio.h ****     {
  27:../../libs/libDaisy/src/per/gpio.h ****         INPUT,      /**< Input for reading state of pin */
  28:../../libs/libDaisy/src/per/gpio.h ****         OUTPUT,     /**< Output w/ push-pull configuration */
  29:../../libs/libDaisy/src/per/gpio.h ****         OPEN_DRAIN, /**< Output w/ open-drain configuration */
  30:../../libs/libDaisy/src/per/gpio.h ****         ANALOG,     /**< Analog for connection to ADC or DAC peripheral */
  31:../../libs/libDaisy/src/per/gpio.h ****     };
  32:../../libs/libDaisy/src/per/gpio.h **** 
  33:../../libs/libDaisy/src/per/gpio.h ****     /** @brief Configures whether an internal Pull up or Pull down resistor is used. 
  34:../../libs/libDaisy/src/per/gpio.h ****      *  
  35:../../libs/libDaisy/src/per/gpio.h ****      * Internal Pull up/down resistors are typically 40k ohms, and will be between
  36:../../libs/libDaisy/src/per/gpio.h ****      * 30k and 50k
  37:../../libs/libDaisy/src/per/gpio.h ****      * 
  38:../../libs/libDaisy/src/per/gpio.h ****      * When the Pin is configured in Analog mode, the pull up/down resistors are
  39:../../libs/libDaisy/src/per/gpio.h ****      * disabled by hardware. 
  40:../../libs/libDaisy/src/per/gpio.h ****      */
  41:../../libs/libDaisy/src/per/gpio.h ****     enum class Pull
  42:../../libs/libDaisy/src/per/gpio.h ****     {
  43:../../libs/libDaisy/src/per/gpio.h ****         NOPULL,   /**< No pull up resistor */
  44:../../libs/libDaisy/src/per/gpio.h ****         PULLUP,   /**< Internal pull up enabled */
  45:../../libs/libDaisy/src/per/gpio.h ****         PULLDOWN, /**< Internal pull down enabled*/
  46:../../libs/libDaisy/src/per/gpio.h ****     };
  47:../../libs/libDaisy/src/per/gpio.h **** 
  48:../../libs/libDaisy/src/per/gpio.h ****     /** @brief Output speed controls the drive strength, and slew rate of the pin */
  49:../../libs/libDaisy/src/per/gpio.h ****     enum class Speed
  50:../../libs/libDaisy/src/per/gpio.h ****     {
  51:../../libs/libDaisy/src/per/gpio.h ****         LOW,
  52:../../libs/libDaisy/src/per/gpio.h ****         MEDIUM,
  53:../../libs/libDaisy/src/per/gpio.h ****         HIGH,
  54:../../libs/libDaisy/src/per/gpio.h ****         VERY_HIGH,
  55:../../libs/libDaisy/src/per/gpio.h ****     };
  56:../../libs/libDaisy/src/per/gpio.h **** 
  57:../../libs/libDaisy/src/per/gpio.h ****     /** @brief Configuration for a given GPIO */
  58:../../libs/libDaisy/src/per/gpio.h ****     struct Config
  59:../../libs/libDaisy/src/per/gpio.h ****     {
  60:../../libs/libDaisy/src/per/gpio.h ****         Pin   pin;
  61:../../libs/libDaisy/src/per/gpio.h ****         Mode  mode;
  62:../../libs/libDaisy/src/per/gpio.h ****         Pull  pull;
  63:../../libs/libDaisy/src/per/gpio.h ****         Speed speed;
  64:../../libs/libDaisy/src/per/gpio.h **** 
  65:../../libs/libDaisy/src/per/gpio.h ****         /** Constructor with no arguments will prepare an invalid GPIO set as
  66:../../libs/libDaisy/src/per/gpio.h ****          *  an input, with no pullup. 
  67:../../libs/libDaisy/src/per/gpio.h ****          */
  68:../../libs/libDaisy/src/per/gpio.h ****         Config()
ARM GAS  C:\Users\skipi\AppData\Local\Temp\ccY719VG.s 			page 87


  69:../../libs/libDaisy/src/per/gpio.h ****         : pin(), mode(Mode::INPUT), pull(Pull::NOPULL), speed(Speed::LOW)
  70:../../libs/libDaisy/src/per/gpio.h ****         {
  71:../../libs/libDaisy/src/per/gpio.h ****         }
  72:../../libs/libDaisy/src/per/gpio.h ****     };
  73:../../libs/libDaisy/src/per/gpio.h **** 
  74:../../libs/libDaisy/src/per/gpio.h ****     GPIO() {}
 2836              		.loc 15 74 5 is_stmt 1 view .LVU670
 2837              	.LBB1116:
 2838              	.LBB1117:
 2839              	.LBI1117:
  68:../../libs/libDaisy/src/per/gpio.h ****         : pin(), mode(Mode::INPUT), pull(Pull::NOPULL), speed(Speed::LOW)
 2840              		.loc 15 68 9 view .LVU671
 2841              	.LBB1118:
 2842              	.LBB1119:
 2843              	.LBB1120:
 2844              	.LBI1120:
 2845              		.loc 12 204 15 view .LVU672
 2846              		.loc 12 204 15 is_stmt 0 view .LVU673
 2847              	.LBE1120:
 2848              	.LBE1119:
 2849              	.LBE1118:
 2850              	.LBE1117:
 2851              	.LBE1116:
 2852              	.LBE1115:
 2853              	.LBB1129:
 2854              	.LBI1129:
 2855              		.loc 15 74 5 is_stmt 1 view .LVU674
 2856              	.LBB1130:
 2857              	.LBB1131:
 2858              	.LBI1131:
  68:../../libs/libDaisy/src/per/gpio.h ****         : pin(), mode(Mode::INPUT), pull(Pull::NOPULL), speed(Speed::LOW)
 2859              		.loc 15 68 9 view .LVU675
 2860              	.LBB1132:
 2861              	.LBB1133:
 2862              	.LBB1134:
 2863              	.LBI1134:
 2864              		.loc 12 204 15 view .LVU676
 2865              		.loc 12 204 15 is_stmt 0 view .LVU677
 2866              	.LBE1134:
 2867              	.LBE1133:
 2868              	.LBE1132:
 2869              	.LBE1131:
 2870              	.LBE1130:
 2871              	.LBE1129:
 2872              	.LBB1139:
 2873              	.LBI1139:
  96:../../libs/libDaisy/src/sys/system.h ****     ~System() {}
 2874              		.loc 3 96 5 is_stmt 1 view .LVU678
  96:../../libs/libDaisy/src/sys/system.h ****     ~System() {}
 2875              		.loc 3 96 5 is_stmt 0 view .LVU679
 2876              	.LBE1139:
 2877              	.LBB1140:
 2878              	.LBI1140:
  20:../../libs/libDaisy/src/dev/codec_ak4556.h ****     ~Ak4556() {}
 2879              		.loc 2 20 5 is_stmt 1 view .LVU680
 2880              	.LBB1141:
 2881              	.LBI1141:
ARM GAS  C:\Users\skipi\AppData\Local\Temp\ccY719VG.s 			page 88


 2882              		.loc 15 74 5 view .LVU681
 2883              	.LBB1142:
 2884              	.LBB1143:
 2885              	.LBI1143:
  68:../../libs/libDaisy/src/per/gpio.h ****         : pin(), mode(Mode::INPUT), pull(Pull::NOPULL), speed(Speed::LOW)
 2886              		.loc 15 68 9 view .LVU682
 2887              	.LBB1144:
 2888              	.LBB1145:
 2889              	.LBB1146:
 2890              	.LBI1146:
 2891              		.loc 12 204 15 view .LVU683
 2892              		.loc 12 204 15 is_stmt 0 view .LVU684
 2893              	.LBE1146:
 2894              	.LBE1145:
 2895              	.LBE1144:
 2896              	.LBE1143:
 2897              	.LBE1142:
 2898              	.LBE1141:
 2899              	.LBE1140:
 2900              	.LBB1157:
 2901              	.LBI1157:
 2902              		.file 16 "../../libs/libDaisy/src/per/sai.h"
   1:../../libs/libDaisy/src/per/sai.h **** #pragma once
   2:../../libs/libDaisy/src/per/sai.h **** #ifndef DSY_SAI_H
   3:../../libs/libDaisy/src/per/sai.h **** #define DSY_SAI_H
   4:../../libs/libDaisy/src/per/sai.h **** 
   5:../../libs/libDaisy/src/per/sai.h **** #include "util/hal_map.h"
   6:../../libs/libDaisy/src/per/sai.h **** #include "daisy_core.h"
   7:../../libs/libDaisy/src/per/sai.h **** 
   8:../../libs/libDaisy/src/per/sai.h **** namespace daisy
   9:../../libs/libDaisy/src/per/sai.h **** {
  10:../../libs/libDaisy/src/per/sai.h **** /** 
  11:../../libs/libDaisy/src/per/sai.h ****  * Support for I2S Audio Protocol with different bit-depth, samplerate options
  12:../../libs/libDaisy/src/per/sai.h ****  * Allows for master or slave, as well as freedom of selecting direction, 
  13:../../libs/libDaisy/src/per/sai.h ****  * and other behavior for each peripheral, and block.
  14:../../libs/libDaisy/src/per/sai.h ****  * 
  15:../../libs/libDaisy/src/per/sai.h ****  * DMA Transfer commands must use buffers located within non-cached memory or use cache maintenance
  16:../../libs/libDaisy/src/per/sai.h ****  * To declare an unitialized global element in the DMA memory section:
  17:../../libs/libDaisy/src/per/sai.h ****  *    int32_t DSY_DMA_BUFFER_SECTOR my_buffer[96];
  18:../../libs/libDaisy/src/per/sai.h ****  *
  19:../../libs/libDaisy/src/per/sai.h ****  * Callback functions will be called once per half of the buffer. In the above example, 
  20:../../libs/libDaisy/src/per/sai.h ****  * the callback function would be called once for every 48 samples.
  21:../../libs/libDaisy/src/per/sai.h ****  * 
  22:../../libs/libDaisy/src/per/sai.h ****  * Use SAI Handle like this:
  23:../../libs/libDaisy/src/per/sai.h ****  * 
  24:../../libs/libDaisy/src/per/sai.h ****  *  SaiHandle::Config sai_config;
  25:../../libs/libDaisy/src/per/sai.h ****  *  sai_config.periph          = SaiHandle::Config::Peripheral::SAI_1;
  26:../../libs/libDaisy/src/per/sai.h ****  *  sai_config.sr              = SaiHandle::Config::SampleRate::SAI_48KHZ;
  27:../../libs/libDaisy/src/per/sai.h ****  *  sai_config.bit_depth       = SaiHandle::Config::BitDepth::SAI_24BIT;
  28:../../libs/libDaisy/src/per/sai.h ****  *  sai_config.a_sync          = SaiHandle::Config::Sync::MASTER;
  29:../../libs/libDaisy/src/per/sai.h ****  *  sai_config.b_sync          = SaiHandle::Config::Sync::SLAVE;
  30:../../libs/libDaisy/src/per/sai.h ****  *  sai_config.a_dir           = SaiHandle::Config::Direction::RECEIVE;
  31:../../libs/libDaisy/src/per/sai.h ****  *  sai_config.b_dir           = SaiHandle::Config::Direction::TRANSMIT;
  32:../../libs/libDaisy/src/per/sai.h ****  *  sai_config.pin_config.fs   = {DSY_GPIOE, 4};
  33:../../libs/libDaisy/src/per/sai.h ****  *  sai_config.pin_config.mclk = {DSY_GPIOE, 2};
  34:../../libs/libDaisy/src/per/sai.h ****  *  sai_config.pin_config.sck  = {DSY_GPIOE, 5};
  35:../../libs/libDaisy/src/per/sai.h ****  *  sai_config.pin_config.sa   = {DSY_GPIOE, 6};
ARM GAS  C:\Users\skipi\AppData\Local\Temp\ccY719VG.s 			page 89


  36:../../libs/libDaisy/src/per/sai.h ****  *  sai_config.pin_config.sb   = {DSY_GPIOE, 3};
  37:../../libs/libDaisy/src/per/sai.h ****  *  // Then Initialize
  38:../../libs/libDaisy/src/per/sai.h ****  *  SaiHandle sai;
  39:../../libs/libDaisy/src/per/sai.h ****  *  sai.Init(sai_config);
  40:../../libs/libDaisy/src/per/sai.h ****  *  // Now you can use it:
  41:../../libs/libDaisy/src/per/sai.h ****  *  sai.StartDma(. . .);
  42:../../libs/libDaisy/src/per/sai.h ****  */
  43:../../libs/libDaisy/src/per/sai.h **** class SaiHandle
  44:../../libs/libDaisy/src/per/sai.h **** {
  45:../../libs/libDaisy/src/per/sai.h ****   public:
  46:../../libs/libDaisy/src/per/sai.h ****     /** Contains settings for initialising an SAI Interface */
  47:../../libs/libDaisy/src/per/sai.h ****     struct Config
  48:../../libs/libDaisy/src/per/sai.h ****     {
  49:../../libs/libDaisy/src/per/sai.h ****         /** Specifies the internal peripheral to use (mapped to different hardware pins) */
  50:../../libs/libDaisy/src/per/sai.h ****         enum class Peripheral
  51:../../libs/libDaisy/src/per/sai.h ****         {
  52:../../libs/libDaisy/src/per/sai.h ****             SAI_1,
  53:../../libs/libDaisy/src/per/sai.h ****             SAI_2,
  54:../../libs/libDaisy/src/per/sai.h ****         };
  55:../../libs/libDaisy/src/per/sai.h **** 
  56:../../libs/libDaisy/src/per/sai.h ****         /** Rate at which samples will be streaming to/from the device. */
  57:../../libs/libDaisy/src/per/sai.h ****         enum class SampleRate
  58:../../libs/libDaisy/src/per/sai.h ****         {
  59:../../libs/libDaisy/src/per/sai.h ****             SAI_8KHZ,
  60:../../libs/libDaisy/src/per/sai.h ****             SAI_16KHZ,
  61:../../libs/libDaisy/src/per/sai.h ****             SAI_32KHZ,
  62:../../libs/libDaisy/src/per/sai.h ****             SAI_48KHZ,
  63:../../libs/libDaisy/src/per/sai.h ****             SAI_96KHZ,
  64:../../libs/libDaisy/src/per/sai.h ****         };
  65:../../libs/libDaisy/src/per/sai.h **** 
  66:../../libs/libDaisy/src/per/sai.h ****         /** Bit Depth that the hardware expects to be transferred to/from the device. */
  67:../../libs/libDaisy/src/per/sai.h ****         enum class BitDepth
  68:../../libs/libDaisy/src/per/sai.h ****         {
  69:../../libs/libDaisy/src/per/sai.h ****             SAI_16BIT,
  70:../../libs/libDaisy/src/per/sai.h ****             SAI_24BIT,
  71:../../libs/libDaisy/src/per/sai.h ****             SAI_32BIT,
  72:../../libs/libDaisy/src/per/sai.h ****         };
  73:../../libs/libDaisy/src/per/sai.h **** 
  74:../../libs/libDaisy/src/per/sai.h ****         /** Specifies whether a particular block is the master or the slave 
  75:../../libs/libDaisy/src/per/sai.h ****          ** If both are set to slave, no MCLK signal will be used, and it is
  76:../../libs/libDaisy/src/per/sai.h ****          ** expected that the codec will have its own xtal.
  77:../../libs/libDaisy/src/per/sai.h ****          */
  78:../../libs/libDaisy/src/per/sai.h ****         enum class Sync
  79:../../libs/libDaisy/src/per/sai.h ****         {
  80:../../libs/libDaisy/src/per/sai.h ****             MASTER,
  81:../../libs/libDaisy/src/per/sai.h ****             SLAVE,
  82:../../libs/libDaisy/src/per/sai.h ****         };
  83:../../libs/libDaisy/src/per/sai.h **** 
  84:../../libs/libDaisy/src/per/sai.h ****         /** Specifies the direction for each peripheral block. */
  85:../../libs/libDaisy/src/per/sai.h ****         enum class Direction
  86:../../libs/libDaisy/src/per/sai.h ****         {
  87:../../libs/libDaisy/src/per/sai.h ****             TRANSMIT,
  88:../../libs/libDaisy/src/per/sai.h ****             RECEIVE,
  89:../../libs/libDaisy/src/per/sai.h ****         };
  90:../../libs/libDaisy/src/per/sai.h **** 
  91:../../libs/libDaisy/src/per/sai.h ****         Peripheral periph;
  92:../../libs/libDaisy/src/per/sai.h ****         struct
ARM GAS  C:\Users\skipi\AppData\Local\Temp\ccY719VG.s 			page 90


  93:../../libs/libDaisy/src/per/sai.h ****         {
  94:../../libs/libDaisy/src/per/sai.h ****             Pin mclk, fs, sck, sa, sb;
  95:../../libs/libDaisy/src/per/sai.h ****         } pin_config;
  96:../../libs/libDaisy/src/per/sai.h ****         SampleRate sr;
  97:../../libs/libDaisy/src/per/sai.h ****         BitDepth   bit_depth;
  98:../../libs/libDaisy/src/per/sai.h ****         Sync       a_sync, b_sync;
  99:../../libs/libDaisy/src/per/sai.h ****         Direction  a_dir, b_dir;
 100:../../libs/libDaisy/src/per/sai.h ****     };
 101:../../libs/libDaisy/src/per/sai.h **** 
 102:../../libs/libDaisy/src/per/sai.h ****     /** Return values for SAI functions */
 103:../../libs/libDaisy/src/per/sai.h ****     enum class Result
 104:../../libs/libDaisy/src/per/sai.h ****     {
 105:../../libs/libDaisy/src/per/sai.h ****         OK,
 106:../../libs/libDaisy/src/per/sai.h ****         ERR,
 107:../../libs/libDaisy/src/per/sai.h ****     };
 108:../../libs/libDaisy/src/per/sai.h **** 
 109:../../libs/libDaisy/src/per/sai.h ****     SaiHandle() : pimpl_(nullptr) {}
 2903              		.loc 16 109 5 is_stmt 1 view .LVU685
 2904              	.LBE1157:
 2905              	.LBB1160:
 2906              	.LBB1097:
 2907              	.LBB1098:
 2908              		.loc 13 167 34 is_stmt 0 view .LVU686
 2909 0038 3348     		ldr	r0, .L51+20
 2910              	.LBE1098:
 2911              	.LBE1097:
 2912              	.LBE1160:
  21:../../libs/libDaisy/src/daisy_seed.h ****     ~DaisySeed() {}
 2913              		.loc 1 21 17 view .LVU687
 2914 003a 4FF60B73 		movw	r3, #65291
 2915 003e 6FF0F411 		mvn	r1, #15991028
 2916              	.LBE1095:
 2917              	.LBE1094:
  23:main.cpp      **** DaisySeed hw;
 2918              		.loc 10 23 11 view .LVU688
 2919 0042 2F4A     		ldr	r2, .L51+12
 2920              	.LBB1171:
 2921              	.LBB1169:
 2922              	.LBB1161:
 2923              	.LBB1108:
 2924              	.LBB1109:
  87:../../libs/libDaisy/src/hid/audio.h ****     ~AudioHandle() {}
 2925              		.loc 6 87 35 view .LVU689
 2926 0044 4461     		str	r4, [r0, #20]
 2927              	.LBE1109:
 2928              	.LBE1108:
 2929              	.LBE1161:
 2930              	.LBB1162:
 2931              	.LBB1112:
 2932              	.LBB1113:
 2933              		.loc 14 84 33 view .LVU690
 2934 0046 0462     		str	r4, [r0, #32]
 2935              	.LBE1113:
 2936              	.LBE1112:
 2937              	.LBE1162:
  21:../../libs/libDaisy/src/daisy_seed.h ****     ~DaisySeed() {}
 2938              		.loc 1 21 17 view .LVU691
ARM GAS  C:\Users\skipi\AppData\Local\Temp\ccY719VG.s 			page 91


 2939 0048 8365     		str	r3, [r0, #88]
 2940              	.LBB1163:
 2941              	.LBB1155:
 2942              	.LBB1153:
 2943              	.LBB1151:
 2944              	.LBB1149:
 2945              	.LBB1147:
  69:../../libs/libDaisy/src/per/gpio.h ****         {
 2946              		.loc 15 69 73 view .LVU692
 2947 004a 4466     		str	r4, [r0, #100]
 2948              	.LBE1147:
 2949              	.LBE1149:
 2950              	.LBE1151:
 2951              	.LBE1153:
 2952              	.LBE1155:
 2953              	.LBE1163:
 2954              	.LBB1164:
 2955              	.LBB1158:
 2956              	.LBB1159:
 2957              		.loc 16 109 33 view .LVU693
 2958 004c 0467     		str	r4, [r0, #112]
 2959              	.LVL159:
 2960              		.loc 16 109 33 view .LVU694
 2961              	.LBE1159:
 2962              	.LBE1158:
 2963              	.LBE1164:
  21:../../libs/libDaisy/src/daisy_seed.h ****     ~DaisySeed() {}
 2964              		.loc 1 21 17 view .LVU695
 2965 004e C0E90041 		strd	r4, r1, [r0]
 2966 0052 C0E90211 		strd	r1, r1, [r0, #8]
 2967              	.LBB1165:
 2968              	.LBB1127:
 2969              	.LBB1125:
 2970              	.LBB1123:
 2971              	.LBB1121:
  69:../../libs/libDaisy/src/per/gpio.h ****         {
 2972              		.loc 15 69 73 view .LVU696
 2973 0056 C0E90A34 		strd	r3, r4, [r0, #40]
 2974              	.LBE1121:
 2975              	.LBE1123:
 2976              	.LBE1125:
 2977              	.LBE1127:
 2978              	.LBE1165:
 2979              	.LBE1169:
 2980              	.LBE1171:
  23:main.cpp      **** DaisySeed hw;
 2981              		.loc 10 23 11 view .LVU697
 2982 005a 2C49     		ldr	r1, .L51+24
 2983              	.LBB1172:
 2984              	.LBB1170:
 2985              	.LBB1166:
 2986              	.LBB1128:
 2987              	.LBB1126:
 2988              	.LBB1124:
 2989              	.LBB1122:
  69:../../libs/libDaisy/src/per/gpio.h ****         {
 2990              		.loc 15 69 73 view .LVU698
ARM GAS  C:\Users\skipi\AppData\Local\Temp\ccY719VG.s 			page 92


 2991 005c C0E90C44 		strd	r4, r4, [r0, #48]
 2992              	.LBE1122:
 2993              	.LBE1124:
 2994              	.LBE1126:
 2995              	.LBE1128:
 2996              	.LBE1166:
 2997              	.LBB1167:
 2998              	.LBB1138:
 2999              	.LBB1137:
 3000              	.LBB1136:
 3001              	.LBB1135:
 3002 0060 C0E90F34 		strd	r3, r4, [r0, #60]
 3003 0064 C0E91144 		strd	r4, r4, [r0, #68]
 3004              	.LBE1135:
 3005              	.LBE1136:
 3006              	.LBE1137:
 3007              	.LBE1138:
 3008              	.LBE1167:
 3009              	.LBB1168:
 3010              	.LBB1156:
 3011              	.LBB1154:
 3012              	.LBB1152:
 3013              	.LBB1150:
 3014              	.LBB1148:
 3015 0068 C0E91744 		strd	r4, r4, [r0, #92]
 3016              	.LBE1148:
 3017              	.LBE1150:
 3018              	.LBE1152:
 3019              	.LBE1154:
 3020              	.LBE1156:
 3021              	.LBE1168:
 3022              	.LBE1170:
 3023              	.LBE1172:
  23:main.cpp      **** DaisySeed hw;
 3024              		.loc 10 23 11 view .LVU699
 3025 006c FFF7FEFF 		bl	__aeabi_atexit
 3026              	.LVL160:
  24:main.cpp      **** AdcChannelConfig adcConfig[ADC_CH];
 3027              		.loc 10 24 34 is_stmt 1 view .LVU700
 3028 0070 274A     		ldr	r2, .L51+28
 3029 0072 02F1A805 		add	r5, r2, #168
 3030              	.L47:
 3031              	.LVL161:
 3032              	.LBB1173:
 3033              	.LBI1173:
  31:../../libs/libDaisy/src/per/adc.h **** {
 3034              		.loc 5 31 8 view .LVU701
 3035              	.LBB1174:
 3036              	.LBB1175:
 3037              	.LBI1175:
 3038              		.loc 15 74 5 view .LVU702
 3039              	.LBB1176:
 3040              	.LBI1176:
  68:../../libs/libDaisy/src/per/gpio.h ****         : pin(), mode(Mode::INPUT), pull(Pull::NOPULL), speed(Speed::LOW)
 3041              		.loc 15 68 9 view .LVU703
 3042              	.LBB1177:
 3043              	.LBB1178:
ARM GAS  C:\Users\skipi\AppData\Local\Temp\ccY719VG.s 			page 93


 3044              	.LBI1178:
 3045              		.loc 12 204 15 view .LVU704
 3046              	.LBE1178:
  69:../../libs/libDaisy/src/per/gpio.h ****         {
 3047              		.loc 15 69 73 is_stmt 0 view .LVU705
 3048 0076 0021     		movs	r1, #0
 3049              	.LBB1181:
 3050              	.LBB1179:
 3051              		.loc 12 204 43 view .LVU706
 3052 0078 0B24     		movs	r4, #11
 3053 007a FF20     		movs	r0, #255
 3054 007c A2F13C03 		sub	r3, r2, #60
 3055 0080 02F8504C 		strb	r4, [r2, #-80]
 3056              	.LBE1179:
 3057              	.LBE1181:
  69:../../libs/libDaisy/src/per/gpio.h ****         {
 3058              		.loc 15 69 73 view .LVU707
 3059 0084 42F84C1C 		str	r1, [r2, #-76]
 3060              	.LBB1182:
 3061              	.LBB1180:
 3062              		.loc 12 204 43 view .LVU708
 3063 0088 02F84F0C 		strb	r0, [r2, #-79]
 3064              	.LVL162:
 3065              		.loc 12 204 43 view .LVU709
 3066              	.LBE1180:
 3067              	.LBE1182:
  69:../../libs/libDaisy/src/per/gpio.h ****         {
 3068              		.loc 15 69 73 view .LVU710
 3069 008c 42E91211 		strd	r1, r1, [r2, #-72]
 3070              	.LVL163:
  69:../../libs/libDaisy/src/per/gpio.h ****         {
 3071              		.loc 15 69 73 view .LVU711
 3072              	.LBE1177:
 3073              	.LBE1176:
 3074              	.LBE1175:
  31:../../libs/libDaisy/src/per/adc.h **** {
 3075              		.loc 5 31 8 is_stmt 1 view .LVU712
 3076              	.L46:
 3077              	.LBB1183:
 3078              	.LBI1183:
 3079              		.loc 15 74 5 view .LVU713
 3080              	.LBB1184:
 3081              	.LBI1184:
  68:../../libs/libDaisy/src/per/gpio.h ****         : pin(), mode(Mode::INPUT), pull(Pull::NOPULL), speed(Speed::LOW)
 3082              		.loc 15 68 9 view .LVU714
 3083              	.LBB1185:
 3084              	.LBB1186:
 3085              	.LBI1186:
 3086              		.loc 12 204 15 view .LVU715
 3087              	.LBE1186:
 3088              	.LBE1185:
 3089              	.LBE1184:
 3090              	.LBE1183:
  31:../../libs/libDaisy/src/per/adc.h **** {
 3091              		.loc 5 31 8 is_stmt 0 view .LVU716
 3092 0090 1433     		adds	r3, r3, #20
 3093              	.LVL164:
ARM GAS  C:\Users\skipi\AppData\Local\Temp\ccY719VG.s 			page 94


 3094              	.LBB1195:
 3095              	.LBB1193:
 3096              	.LBB1191:
  69:../../libs/libDaisy/src/per/gpio.h ****         {
 3097              		.loc 15 69 73 view .LVU717
 3098 0092 0024     		movs	r4, #0
 3099              	.LBB1189:
 3100              	.LBB1187:
 3101              		.loc 12 204 43 view .LVU718
 3102 0094 0B20     		movs	r0, #11
 3103 0096 FF21     		movs	r1, #255
 3104              	.LBE1187:
 3105              	.LBE1189:
 3106              	.LBE1191:
 3107              	.LBE1193:
 3108              	.LBE1195:
  31:../../libs/libDaisy/src/per/adc.h **** {
 3109              		.loc 5 31 8 view .LVU719
 3110 0098 9A42     		cmp	r2, r3
 3111              	.LBB1196:
 3112              	.LBB1194:
 3113              	.LBB1192:
  69:../../libs/libDaisy/src/per/gpio.h ****         {
 3114              		.loc 15 69 73 view .LVU720
 3115 009a 43F8104C 		str	r4, [r3, #-16]
 3116              	.LBB1190:
 3117              	.LBB1188:
 3118              		.loc 12 204 43 view .LVU721
 3119 009e 03F8140C 		strb	r0, [r3, #-20]
 3120 00a2 03F8131C 		strb	r1, [r3, #-19]
 3121              	.LVL165:
 3122              		.loc 12 204 43 view .LVU722
 3123              	.LBE1188:
 3124              	.LBE1190:
  69:../../libs/libDaisy/src/per/gpio.h ****         {
 3125              		.loc 15 69 73 view .LVU723
 3126 00a6 43E90344 		strd	r4, r4, [r3, #-12]
 3127              	.LVL166:
  69:../../libs/libDaisy/src/per/gpio.h ****         {
 3128              		.loc 15 69 73 view .LVU724
 3129              	.LBE1192:
 3130              	.LBE1194:
 3131              	.LBE1196:
  31:../../libs/libDaisy/src/per/adc.h **** {
 3132              		.loc 5 31 8 is_stmt 1 view .LVU725
  31:../../libs/libDaisy/src/per/adc.h **** {
 3133              		.loc 5 31 8 view .LVU726
 3134 00aa F1D1     		bne	.L46
 3135              	.LVL167:
  31:../../libs/libDaisy/src/per/adc.h **** {
 3136              		.loc 5 31 8 is_stmt 0 view .LVU727
 3137              	.LBE1174:
 3138              	.LBE1173:
  24:main.cpp      **** AdcChannelConfig adcConfig[ADC_CH];
 3139              		.loc 10 24 34 is_stmt 1 view .LVU728
  24:main.cpp      **** AdcChannelConfig adcConfig[ADC_CH];
 3140              		.loc 10 24 34 view .LVU729
ARM GAS  C:\Users\skipi\AppData\Local\Temp\ccY719VG.s 			page 95


 3141 00ac 5432     		adds	r2, r2, #84
 3142 00ae AA42     		cmp	r2, r5
 3143 00b0 E1D1     		bne	.L47
  25:main.cpp      **** PlantConditioner pc;
 3144              		.loc 10 25 18 is_stmt 0 view .LVU730
 3145 00b2 1848     		ldr	r0, .L51+32
 3146 00b4 FFF7FEFF 		bl	_ZN16PlantConditionerC1Ev
 3147              	.LVL168:
 3148 00b8 114A     		ldr	r2, .L51+12
 3149 00ba 1749     		ldr	r1, .L51+36
 3150 00bc 1548     		ldr	r0, .L51+32
 3151 00be FFF7FEFF 		bl	__aeabi_atexit
 3152              	.LVL169:
 3153              	.LBB1197:
 3154              	.LBI1197:
  23:../../libs/DaisySP/Source/Synthesis/oscillator.h ****     ~Oscillator() {}
 3155              		.loc 8 23 5 is_stmt 1 view .LVU731
  23:../../libs/DaisySP/Source/Synthesis/oscillator.h ****     ~Oscillator() {}
 3156              		.loc 8 23 5 is_stmt 0 view .LVU732
 3157              	.LBE1197:
  26:main.cpp      **** static Oscillator osc;
 3158              		.loc 10 26 19 view .LVU733
 3159 00c2 0F4A     		ldr	r2, .L51+12
 3160 00c4 1549     		ldr	r1, .L51+40
 3161 00c6 1648     		ldr	r0, .L51+44
 3162 00c8 FFF7FEFF 		bl	__aeabi_atexit
 3163              	.LVL170:
 3164              	.LBB1198:
 3165              	.LBI1198:
  44:../../libs/DaisySP/Source/Control/adsr.h ****     ~Adsr() {}
 3166              		.loc 7 44 5 is_stmt 1 view .LVU734
 3167              	.LBB1199:
 3168              	.LBB1200:
  44:../../libs/DaisySP/Source/Control/adsr.h ****     ~Adsr() {}
 3169              		.loc 7 44 12 is_stmt 0 view .LVU735
 3170 00cc 1548     		ldr	r0, .L51+48
 3171 00ce 0023     		movs	r3, #0
 3172 00d0 1549     		ldr	r1, .L51+52
 3173              	.LBE1200:
 3174 00d2 8485     		strh	r4, [r0, #44]	@ movhi
 3175              	.LVL171:
 3176              	.LBB1201:
  44:../../libs/DaisySP/Source/Control/adsr.h ****     ~Adsr() {}
 3177              		.loc 7 44 12 view .LVU736
 3178 00d4 0360     		str	r3, [r0]	@ float
 3179 00d6 4360     		str	r3, [r0, #4]	@ float
 3180 00d8 8160     		str	r1, [r0, #8]	@ float
 3181 00da C360     		str	r3, [r0, #12]	@ float
 3182 00dc 0161     		str	r1, [r0, #16]	@ float
 3183 00de 4161     		str	r1, [r0, #20]	@ float
 3184 00e0 8161     		str	r1, [r0, #24]	@ float
 3185 00e2 C361     		str	r3, [r0, #28]	@ float
 3186 00e4 0362     		str	r3, [r0, #32]	@ float
 3187 00e6 4362     		str	r3, [r0, #36]	@ float
 3188              	.LBE1201:
 3189              	.LBE1199:
 3190              	.LBE1198:
ARM GAS  C:\Users\skipi\AppData\Local\Temp\ccY719VG.s 			page 96


  27:main.cpp      **** static Adsr env;
 3191              		.loc 10 27 13 view .LVU737
 3192 00e8 054A     		ldr	r2, .L51+12
 3193 00ea 1049     		ldr	r1, .L51+56
 3194              	.LBE1202:
 3195              	.LBE1204:
 3196              		.loc 10 164 1 view .LVU738
 3197 00ec BDE83840 		pop	{r3, r4, r5, lr}
 3198              		.cfi_restore 14
 3199              		.cfi_restore 5
 3200              		.cfi_restore 4
 3201              		.cfi_restore 3
 3202              		.cfi_def_cfa_offset 0
 3203              	.LBB1205:
 3204              	.LBB1203:
  27:main.cpp      **** static Adsr env;
 3205              		.loc 10 27 13 view .LVU739
 3206 00f0 FFF7FEBF 		b	__aeabi_atexit
 3207              	.LVL172:
 3208              	.L52:
 3209              		.align	2
 3210              	.L51:
 3211 00f4 00000000 		.word	.LANCHOR9
 3212 00f8 00000000 		.word	.LANCHOR8
 3213 00fc 01080109 		.word	151062529
 3214 0100 00000000 		.word	__dso_handle
 3215 0104 00000000 		.word	_ZN5daisy6Mpr121INS_18Mpr121I2CTransportEED1Ev
 3216 0108 00000000 		.word	.LANCHOR3
 3217 010c 00000000 		.word	_ZN5daisy9DaisySeedD1Ev
 3218 0110 50000000 		.word	.LANCHOR6+80
 3219 0114 00000000 		.word	.LANCHOR4
 3220 0118 00000000 		.word	_ZN16PlantConditionerD1Ev
 3221 011c 00000000 		.word	_ZN7daisysp10OscillatorD1Ev
 3222 0120 00000000 		.word	.LANCHOR2
 3223 0124 00000000 		.word	.LANCHOR1
 3224 0128 000080BF 		.word	-1082130432
 3225 012c 00000000 		.word	_ZN7daisysp4AdsrD1Ev
 3226              	.LBE1203:
 3227              	.LBE1205:
 3228              		.cfi_endproc
 3229              	.LFE5431:
 3231              		.section	.init_array,"aw",%init_array
 3232              		.align	2
 3233 0000 00000000 		.word	_GLOBAL__sub_I_mpr121ObjConf(target1)
 3234              		.global	k
 3235              		.global	flag
 3236              		.global	currTouched
 3237              		.global	lastTouched
 3238              		.global	gate
 3239              		.global	f
 3240              		.global	pc
 3241              		.global	adcConfig
 3242              		.global	hw
 3243              		.global	cap
 3244              		.global	mpr121ObjConf
 3245              		.section	.bss._ZL3env,"aw",%nobits
 3246              		.align	2
ARM GAS  C:\Users\skipi\AppData\Local\Temp\ccY719VG.s 			page 97


 3247              		.set	.LANCHOR1,. + 0
 3250              	_ZL3env:
 3251 0000 00000000 		.space	48
 3251      00000000 
 3251      00000000 
 3251      00000000 
 3251      00000000 
 3252              		.section	.bss._ZL3osc,"aw",%nobits
 3253              		.align	2
 3254              		.set	.LANCHOR2,. + 0
 3257              	_ZL3osc:
 3258 0000 00000000 		.space	44
 3258      00000000 
 3258      00000000 
 3258      00000000 
 3258      00000000 
 3259              		.section	.bss.adcConfig,"aw",%nobits
 3260              		.align	2
 3261              		.set	.LANCHOR6,. + 0
 3264              	adcConfig:
 3265 0000 00000000 		.space	168
 3265      00000000 
 3265      00000000 
 3265      00000000 
 3265      00000000 
 3266              		.section	.bss.cap,"aw",%nobits
 3267              		.align	2
 3268              		.set	.LANCHOR9,. + 0
 3271              	cap:
 3272 0000 00000000 		.space	52
 3272      00000000 
 3272      00000000 
 3272      00000000 
 3272      00000000 
 3273              		.section	.bss.currTouched,"aw",%nobits
 3274              		.align	1
 3275              		.set	.LANCHOR10,. + 0
 3278              	currTouched:
 3279 0000 0000     		.space	2
 3280              		.section	.bss.flag,"aw",%nobits
 3283              	flag:
 3284 0000 00       		.space	1
 3285              		.section	.bss.gate,"aw",%nobits
 3286              		.set	.LANCHOR0,. + 0
 3289              	gate:
 3290 0000 00       		.space	1
 3291              		.section	.bss.hw,"aw",%nobits
 3292              		.align	2
 3293              		.set	.LANCHOR3,. + 0
 3296              	hw:
 3297 0000 00000000 		.space	116
 3297      00000000 
 3297      00000000 
 3297      00000000 
 3297      00000000 
 3298              		.section	.bss.k,"aw",%nobits
 3299              		.align	2
ARM GAS  C:\Users\skipi\AppData\Local\Temp\ccY719VG.s 			page 98


 3302              	k:
 3303 0000 00000000 		.space	4
 3304              		.section	.bss.lastTouched,"aw",%nobits
 3305              		.align	1
 3306              		.set	.LANCHOR12,. + 0
 3309              	lastTouched:
 3310 0000 0000     		.space	2
 3311              		.section	.bss.mpr121ObjConf,"aw",%nobits
 3312              		.align	2
 3313              		.set	.LANCHOR8,. + 0
 3316              	mpr121ObjConf:
 3317 0000 00000000 		.space	24
 3317      00000000 
 3317      00000000 
 3317      00000000 
 3317      00000000 
 3318              		.section	.bss.pc,"aw",%nobits
 3319              		.align	2
 3320              		.set	.LANCHOR4,. + 0
 3323              	pc:
 3324 0000 00000000 		.space	2236
 3324      00000000 
 3324      00000000 
 3324      00000000 
 3324      00000000 
 3325              		.section	.data.f,"aw"
 3326              		.align	2
 3327              		.set	.LANCHOR11,. + 0
 3330              	f:
 3331 0000 0000DC43 		.word	1138491392
 3332              		.section	.rodata._ZN5daisy4seedL2A0E,"a"
 3333              		.align	2
 3334              		.set	.LANCHOR5,. + 0
 3337              	_ZN5daisy4seedL2A0E:
 3338 0000 02       		.byte	2
 3339 0001 00       		.byte	0
 3340              		.section	.rodata._ZN5daisy4seedL2A1E,"a"
 3341              		.align	2
 3342              		.set	.LANCHOR7,. + 0
 3345              	_ZN5daisy4seedL2A1E:
 3346 0000 00       		.byte	0
 3347 0001 03       		.byte	3
 3348              		.text
 3349              	.Letext0:
 3350              		.file 17 "c:\\program files\\daisytoolchain\\arm-none-eabi\\include\\machine\\_default_types.h"
 3351              		.file 18 "c:\\program files\\daisytoolchain\\arm-none-eabi\\include\\sys\\_stdint.h"
 3352              		.file 19 "c:\\program files\\daisytoolchain\\arm-none-eabi\\include\\stdint.h"
 3353              		.file 20 "c:\\program files\\daisytoolchain\\lib\\gcc\\arm-none-eabi\\10.2.1\\include\\stddef.h"
 3354              		.file 21 "c:\\program files\\daisytoolchain\\arm-none-eabi\\include\\c++\\10.2.1\\cmath"
 3355              		.file 22 "c:\\program files\\daisytoolchain\\arm-none-eabi\\include\\c++\\10.2.1\\bits\\std_abs.h"
 3356              		.file 23 "c:\\program files\\daisytoolchain\\arm-none-eabi\\include\\c++\\10.2.1\\cstdlib"
 3357              		.file 24 "c:\\program files\\daisytoolchain\\arm-none-eabi\\include\\c++\\10.2.1\\cstdint"
 3358              		.file 25 "c:\\program files\\daisytoolchain\\arm-none-eabi\\include\\c++\\10.2.1\\type_traits"
 3359              		.file 26 "c:\\program files\\daisytoolchain\\arm-none-eabi\\include\\c++\\10.2.1\\debug\\debug.h"
 3360              		.file 27 "c:\\program files\\daisytoolchain\\arm-none-eabi\\include\\c++\\10.2.1\\arm-none-eabi\\t
 3361              		.file 28 "c:\\program files\\daisytoolchain\\arm-none-eabi\\include\\c++\\10.2.1\\bits\\algorithmf
 3362              		.file 29 "c:\\program files\\daisytoolchain\\arm-none-eabi\\include\\c++\\10.2.1\\bits\\stl_pair.h
ARM GAS  C:\Users\skipi\AppData\Local\Temp\ccY719VG.s 			page 99


 3363              		.file 30 "c:\\program files\\daisytoolchain\\arm-none-eabi\\include\\c++\\10.2.1\\bits\\exception_
 3364              		.file 31 "c:\\program files\\daisytoolchain\\arm-none-eabi\\include\\c++\\10.2.1\\cstdarg"
 3365              		.file 32 "c:\\program files\\daisytoolchain\\arm-none-eabi\\include\\c++\\10.2.1\\cstdio"
 3366              		.file 33 "c:\\program files\\daisytoolchain\\arm-none-eabi\\include\\c++\\10.2.1\\cstring"
 3367              		.file 34 "c:\\program files\\daisytoolchain\\arm-none-eabi\\include\\c++\\10.2.1\\cwchar"
 3368              		.file 35 "c:\\program files\\daisytoolchain\\arm-none-eabi\\include\\c++\\10.2.1\\clocale"
 3369              		.file 36 "c:\\program files\\daisytoolchain\\arm-none-eabi\\include\\c++\\10.2.1\\bits\\basic_stri
 3370              		.file 37 "c:\\program files\\daisytoolchain\\arm-none-eabi\\include\\c++\\10.2.1\\bits\\stl_tempbu
 3371              		.file 38 "c:\\program files\\daisytoolchain\\arm-none-eabi\\include\\c++\\10.2.1\\bits\\predefined
 3372              		.file 39 "c:\\program files\\daisytoolchain\\arm-none-eabi\\include\\sys\\_types.h"
 3373              		.file 40 "c:\\program files\\daisytoolchain\\arm-none-eabi\\include\\sys\\reent.h"
 3374              		.file 41 "c:\\program files\\daisytoolchain\\arm-none-eabi\\include\\sys\\lock.h"
 3375              		.file 42 "c:\\program files\\daisytoolchain\\arm-none-eabi\\include\\math.h"
 3376              		.file 43 "c:\\program files\\daisytoolchain\\arm-none-eabi\\include\\stdlib.h"
 3377              		.file 44 "c:\\program files\\daisytoolchain\\arm-none-eabi\\include\\c++\\10.2.1\\math.h"
 3378              		.file 45 "c:\\program files\\daisytoolchain\\arm-none-eabi\\include\\c++\\10.2.1\\stdlib.h"
 3379              		.file 46 "../../libs/libDaisy/src/per/tim.h"
 3380              		.file 47 "../../libs/libDaisy/src/util/wav_format.h"
 3381              		.file 48 "../../libs/libDaisy/src/dev/sr_595.h"
 3382              		.file 49 "../../libs/libDaisy/src/dev/max11300.h"
 3383              		.file 50 "../../libs/libDaisy/src/dev/sdram.h"
 3384              		.file 51 "c:\\program files\\daisytoolchain\\lib\\gcc\\arm-none-eabi\\10.2.1\\include\\stdarg.h"
 3385              		.file 52 "c:\\program files\\daisytoolchain\\arm-none-eabi\\include\\stdio.h"
 3386              		.file 53 "c:\\program files\\daisytoolchain\\arm-none-eabi\\include\\string.h"
 3387              		.file 54 "../../libs/DaisySP/Source/Control/adenv.h"
 3388              		.file 55 "../../libs/DaisySP/Source/Utility/dsp.h"
 3389              		.file 56 "c:\\program files\\daisytoolchain\\arm-none-eabi\\include\\wchar.h"
 3390              		.file 57 "c:\\program files\\daisytoolchain\\arm-none-eabi\\include\\locale.h"
 3391              		.file 58 "../../Classes/Temperamento/../SensorFilters/FIIR/CapFir.h"
 3392              		.file 59 "../../Classes/Temperamento/../SensorFilters/IIR/iir.h"
 3393              		.file 60 "../../Classes/Temperamento/../SensorFilters/MF/MF.h"
 3394              		.file 61 "../../Classes/Temperamento/PlantConditioner.h"
 3395              		.file 62 "../../Classes/Effects/AnalogDelay/src/AnalogDelay.h"
 3396              		.file 63 "<built-in>"
ARM GAS  C:\Users\skipi\AppData\Local\Temp\ccY719VG.s 			page 100


DEFINED SYMBOLS
                            *ABS*:00000000 main.cpp
C:\Users\skipi\AppData\Local\Temp\ccY719VG.s:17     .text._ZN5daisy9DaisySeedD2Ev:00000000 $t
C:\Users\skipi\AppData\Local\Temp\ccY719VG.s:26     .text._ZN5daisy9DaisySeedD2Ev:00000000 _ZN5daisy9DaisySeedD2Ev
C:\Users\skipi\AppData\Local\Temp\ccY719VG.s:26     .text._ZN5daisy9DaisySeedD2Ev:00000000 _ZN5daisy9DaisySeedD1Ev
C:\Users\skipi\AppData\Local\Temp\ccY719VG.s:73     .text._ZN7daisysp4AdsrD2Ev:00000000 $t
C:\Users\skipi\AppData\Local\Temp\ccY719VG.s:81     .text._ZN7daisysp4AdsrD2Ev:00000000 _ZN7daisysp4AdsrD2Ev
C:\Users\skipi\AppData\Local\Temp\ccY719VG.s:81     .text._ZN7daisysp4AdsrD2Ev:00000000 _ZN7daisysp4AdsrD1Ev
C:\Users\skipi\AppData\Local\Temp\ccY719VG.s:98     .text._ZN7daisysp10OscillatorD2Ev:00000000 $t
C:\Users\skipi\AppData\Local\Temp\ccY719VG.s:106    .text._ZN7daisysp10OscillatorD2Ev:00000000 _ZN7daisysp10OscillatorD2Ev
C:\Users\skipi\AppData\Local\Temp\ccY719VG.s:106    .text._ZN7daisysp10OscillatorD2Ev:00000000 _ZN7daisysp10OscillatorD1Ev
C:\Users\skipi\AppData\Local\Temp\ccY719VG.s:123    .text._ZN5daisy6Mpr121INS_18Mpr121I2CTransportEED2Ev:00000000 $t
C:\Users\skipi\AppData\Local\Temp\ccY719VG.s:131    .text._ZN5daisy6Mpr121INS_18Mpr121I2CTransportEED2Ev:00000000 _ZN5daisy6Mpr121INS_18Mpr121I2CTransportEED2Ev
C:\Users\skipi\AppData\Local\Temp\ccY719VG.s:131    .text._ZN5daisy6Mpr121INS_18Mpr121I2CTransportEED2Ev:00000000 _ZN5daisy6Mpr121INS_18Mpr121I2CTransportEED1Ev
C:\Users\skipi\AppData\Local\Temp\ccY719VG.s:153    .text._ZL13AudioCallbackPKfPfj:00000000 $t
C:\Users\skipi\AppData\Local\Temp\ccY719VG.s:160    .text._ZL13AudioCallbackPKfPfj:00000000 _ZL13AudioCallbackPKfPfj
C:\Users\skipi\AppData\Local\Temp\ccY719VG.s:257    .text._ZL13AudioCallbackPKfPfj:00000044 $d
C:\Users\skipi\AppData\Local\Temp\ccY719VG.s:264    .text._ZN5daisy6Mpr121INS_18Mpr121I2CTransportEE13WriteRegisterEhh:00000000 $t
C:\Users\skipi\AppData\Local\Temp\ccY719VG.s:272    .text._ZN5daisy6Mpr121INS_18Mpr121I2CTransportEE13WriteRegisterEhh:00000000 _ZN5daisy6Mpr121INS_18Mpr121I2CTransportEE13WriteRegisterEhh
C:\Users\skipi\AppData\Local\Temp\ccY719VG.s:642    .text.startup.main:00000000 $t
C:\Users\skipi\AppData\Local\Temp\ccY719VG.s:650    .text.startup.main:00000000 main
C:\Users\skipi\AppData\Local\Temp\ccY719VG.s:1749   .text.startup.main:00000344 $d
C:\Users\skipi\AppData\Local\Temp\ccY719VG.s:1768   .text.startup.main:0000038c $t
C:\Users\skipi\AppData\Local\Temp\ccY719VG.s:2482   .text.startup.main:000005b0 $d
C:\Users\skipi\AppData\Local\Temp\ccY719VG.s:2501   .text.startup._GLOBAL__sub_I_mpr121ObjConf:00000000 $t
C:\Users\skipi\AppData\Local\Temp\ccY719VG.s:2508   .text.startup._GLOBAL__sub_I_mpr121ObjConf:00000000 _GLOBAL__sub_I_mpr121ObjConf
C:\Users\skipi\AppData\Local\Temp\ccY719VG.s:3211   .text.startup._GLOBAL__sub_I_mpr121ObjConf:000000f4 $d
C:\Users\skipi\AppData\Local\Temp\ccY719VG.s:3232   .init_array:00000000 $d
C:\Users\skipi\AppData\Local\Temp\ccY719VG.s:3302   .bss.k:00000000 k
C:\Users\skipi\AppData\Local\Temp\ccY719VG.s:3283   .bss.flag:00000000 flag
C:\Users\skipi\AppData\Local\Temp\ccY719VG.s:3278   .bss.currTouched:00000000 currTouched
C:\Users\skipi\AppData\Local\Temp\ccY719VG.s:3309   .bss.lastTouched:00000000 lastTouched
C:\Users\skipi\AppData\Local\Temp\ccY719VG.s:3289   .bss.gate:00000000 gate
C:\Users\skipi\AppData\Local\Temp\ccY719VG.s:3330   .data.f:00000000 f
C:\Users\skipi\AppData\Local\Temp\ccY719VG.s:3323   .bss.pc:00000000 pc
C:\Users\skipi\AppData\Local\Temp\ccY719VG.s:3264   .bss.adcConfig:00000000 adcConfig
C:\Users\skipi\AppData\Local\Temp\ccY719VG.s:3296   .bss.hw:00000000 hw
C:\Users\skipi\AppData\Local\Temp\ccY719VG.s:3271   .bss.cap:00000000 cap
C:\Users\skipi\AppData\Local\Temp\ccY719VG.s:3316   .bss.mpr121ObjConf:00000000 mpr121ObjConf
C:\Users\skipi\AppData\Local\Temp\ccY719VG.s:3246   .bss._ZL3env:00000000 $d
C:\Users\skipi\AppData\Local\Temp\ccY719VG.s:3250   .bss._ZL3env:00000000 _ZL3env
C:\Users\skipi\AppData\Local\Temp\ccY719VG.s:3253   .bss._ZL3osc:00000000 $d
C:\Users\skipi\AppData\Local\Temp\ccY719VG.s:3257   .bss._ZL3osc:00000000 _ZL3osc
C:\Users\skipi\AppData\Local\Temp\ccY719VG.s:3260   .bss.adcConfig:00000000 $d
C:\Users\skipi\AppData\Local\Temp\ccY719VG.s:3267   .bss.cap:00000000 $d
C:\Users\skipi\AppData\Local\Temp\ccY719VG.s:3274   .bss.currTouched:00000000 $d
C:\Users\skipi\AppData\Local\Temp\ccY719VG.s:3284   .bss.flag:00000000 $d
C:\Users\skipi\AppData\Local\Temp\ccY719VG.s:3290   .bss.gate:00000000 $d
C:\Users\skipi\AppData\Local\Temp\ccY719VG.s:3292   .bss.hw:00000000 $d
C:\Users\skipi\AppData\Local\Temp\ccY719VG.s:3299   .bss.k:00000000 $d
C:\Users\skipi\AppData\Local\Temp\ccY719VG.s:3305   .bss.lastTouched:00000000 $d
C:\Users\skipi\AppData\Local\Temp\ccY719VG.s:3312   .bss.mpr121ObjConf:00000000 $d
C:\Users\skipi\AppData\Local\Temp\ccY719VG.s:3319   .bss.pc:00000000 $d
C:\Users\skipi\AppData\Local\Temp\ccY719VG.s:3326   .data.f:00000000 $d
C:\Users\skipi\AppData\Local\Temp\ccY719VG.s:3333   .rodata._ZN5daisy4seedL2A0E:00000000 $d
C:\Users\skipi\AppData\Local\Temp\ccY719VG.s:3337   .rodata._ZN5daisy4seedL2A0E:00000000 _ZN5daisy4seedL2A0E
C:\Users\skipi\AppData\Local\Temp\ccY719VG.s:3341   .rodata._ZN5daisy4seedL2A1E:00000000 $d
ARM GAS  C:\Users\skipi\AppData\Local\Temp\ccY719VG.s 			page 101


C:\Users\skipi\AppData\Local\Temp\ccY719VG.s:3345   .rodata._ZN5daisy4seedL2A1E:00000000 _ZN5daisy4seedL2A1E
                           .group:00000000 _ZN5daisy9DaisySeedD5Ev
                           .group:00000000 _ZN7daisysp4AdsrD5Ev
                           .group:00000000 _ZN7daisysp10OscillatorD5Ev
                           .group:00000000 _ZN5daisy6Mpr121INS_18Mpr121I2CTransportEED5Ev

UNDEFINED SYMBOLS
_ZN7daisysp4Adsr7ProcessEb
_ZN7daisysp10Oscillator7ProcessEv
_ZN5daisy9I2CHandle16TransmitBlockingEtPhtm
_ZN5daisy9I2CHandle15ReceiveBlockingEtPhtm
_ZN5daisy9DaisySeed9ConfigureEv
_ZN5daisy9DaisySeed4InitEb
_ZN5daisy9DaisySeed17SetAudioBlockSizeEj
_ZN5daisy9DaisySeed15AudioSampleRateEv
_ZN16PlantConditioner4InitEN3IIR10FilterTypeE
_ZN16PlantConditioner8setScaleENS_5NotesENS_9ScaleTypeE
_ZN16PlantConditioner9setOctaveEh
_ZN16PlantConditioner8setCurveEhf
_ZN7daisysp10Oscillator12CalcPhaseIncEf
_ZN7daisysp4Adsr4InitEfi
_ZN7daisysp4Adsr7SetTimeEif
_ZN5daisy16AdcChannelConfig10InitSingleENS_3PinENS0_15ConversionSpeedE
_ZN5daisy9AdcHandle4InitEPNS_16AdcChannelConfigEjNS0_12OverSamplingE
_ZN5daisy9AdcHandle5StartEv
_ZN5daisy9I2CHandle4InitERKNS0_6ConfigE
_ZN5daisy6System5DelayEm
_ZN5daisy9DaisySeed6SetLedEb
_ZN5daisy9DaisySeed7DelayMsEj
_ZN5daisy9DaisySeed10StartAudioEPFvPKfPfjE
_ZN5daisy6System6GetNowEv
_ZNK5daisy9AdcHandle8GetFloatEh
_ZN5daisy9I2CHandle8Mem_readEtttPhtm
_ZN16PlantConditioner7ProcessEtt
__aeabi_atexit
_ZN16PlantConditionerC1Ev
__dso_handle
_ZN16PlantConditionerD1Ev
