ARM GAS  C:\Users\skipi\AppData\Local\Temp\cc3AYCkc.s 			page 1


   1              		.cpu cortex-m7
   2              		.eabi_attribute 28, 1
   3              		.eabi_attribute 20, 1
   4              		.eabi_attribute 21, 1
   5              		.eabi_attribute 23, 3
   6              		.eabi_attribute 24, 1
   7              		.eabi_attribute 25, 1
   8              		.eabi_attribute 26, 1
   9              		.eabi_attribute 30, 2
  10              		.eabi_attribute 34, 1
  11              		.eabi_attribute 18, 4
  12              		.file	"main.cpp"
  13              		.text
  14              	.Ltext0:
  15              		.cfi_sections	.debug_frame
  16              		.section	.text._ZN5daisy9DaisySeedD2Ev,"axG",%progbits,_ZN5daisy9DaisySeedD5Ev,comdat
  17              		.align	1
  18              		.p2align 2,,3
  19              		.weak	_ZN5daisy9DaisySeedD2Ev
  20              		.arch armv7e-m
  21              		.syntax unified
  22              		.thumb
  23              		.thumb_func
  24              		.fpu fpv5-d16
  26              	_ZN5daisy9DaisySeedD2Ev:
  27              	.LVL0:
  28              	.LFB2671:
  29              		.file 1 "../../libs/libDaisy/src/daisy_seed.h"
   1:../../libs/libDaisy/src/daisy_seed.h **** #pragma once
   2:../../libs/libDaisy/src/daisy_seed.h **** #ifndef DSY_SEED_H
   3:../../libs/libDaisy/src/daisy_seed.h **** #define DSY_SEED_H
   4:../../libs/libDaisy/src/daisy_seed.h **** 
   5:../../libs/libDaisy/src/daisy_seed.h **** #include "daisy.h"
   6:../../libs/libDaisy/src/daisy_seed.h **** 
   7:../../libs/libDaisy/src/daisy_seed.h **** //Uncomment this out if you're still using the rev2 hardware
   8:../../libs/libDaisy/src/daisy_seed.h **** //#define SEED_REV2
   9:../../libs/libDaisy/src/daisy_seed.h **** 
  10:../../libs/libDaisy/src/daisy_seed.h **** namespace daisy
  11:../../libs/libDaisy/src/daisy_seed.h **** {
  12:../../libs/libDaisy/src/daisy_seed.h **** /**
  13:../../libs/libDaisy/src/daisy_seed.h ****    @brief This is the higher-level interface for the Daisy board. \n 
  14:../../libs/libDaisy/src/daisy_seed.h ****     All basic peripheral configuration/initialization is setup here. \n
  15:../../libs/libDaisy/src/daisy_seed.h **** 
  16:../../libs/libDaisy/src/daisy_seed.h ****    @ingroup boards
  17:../../libs/libDaisy/src/daisy_seed.h **** */
  18:../../libs/libDaisy/src/daisy_seed.h **** class DaisySeed
  19:../../libs/libDaisy/src/daisy_seed.h **** {
  20:../../libs/libDaisy/src/daisy_seed.h ****   public:
  21:../../libs/libDaisy/src/daisy_seed.h ****     DaisySeed() {}
  22:../../libs/libDaisy/src/daisy_seed.h ****     ~DaisySeed() {}
  30              		.loc 1 22 5 view -0
  31              		.cfi_startproc
  32              		@ args = 0, pretend = 0, frame = 0
  33              		@ frame_needed = 0, uses_anonymous_args = 0
  34              		@ link register save eliminated.
  35              	.LBB357:
  36              	.LBI357:
ARM GAS  C:\Users\skipi\AppData\Local\Temp\cc3AYCkc.s 			page 2


  37              		.file 2 "../../libs/libDaisy/src/dev/codec_ak4556.h"
   1:../../libs/libDaisy/src/dev/codec_ak4556.h **** #pragma once
   2:../../libs/libDaisy/src/dev/codec_ak4556.h **** #ifndef DSY_CODEC_AK4556_H
   3:../../libs/libDaisy/src/dev/codec_ak4556.h **** #define DSY_CODEC_AK4556_H
   4:../../libs/libDaisy/src/dev/codec_ak4556.h **** 
   5:../../libs/libDaisy/src/dev/codec_ak4556.h **** #include "daisy_core.h"
   6:../../libs/libDaisy/src/dev/codec_ak4556.h **** #include "per/gpio.h"
   7:../../libs/libDaisy/src/dev/codec_ak4556.h **** 
   8:../../libs/libDaisy/src/dev/codec_ak4556.h **** namespace daisy
   9:../../libs/libDaisy/src/dev/codec_ak4556.h **** {
  10:../../libs/libDaisy/src/dev/codec_ak4556.h **** /** @brief Ak4556 Codec support 
  11:../../libs/libDaisy/src/dev/codec_ak4556.h ****  ** @author shensley
  12:../../libs/libDaisy/src/dev/codec_ak4556.h ****  ** @addtogroup codec
  13:../../libs/libDaisy/src/dev/codec_ak4556.h ****  ** 
  14:../../libs/libDaisy/src/dev/codec_ak4556.h ****  ** I don't see any real reason to have this be more than a function, but in case we want
  15:../../libs/libDaisy/src/dev/codec_ak4556.h ****  ** to add other functions down the road I wrapped the function in a class.
  16:../../libs/libDaisy/src/dev/codec_ak4556.h ****  ***/
  17:../../libs/libDaisy/src/dev/codec_ak4556.h **** class Ak4556
  18:../../libs/libDaisy/src/dev/codec_ak4556.h **** {
  19:../../libs/libDaisy/src/dev/codec_ak4556.h ****   public:
  20:../../libs/libDaisy/src/dev/codec_ak4556.h ****     Ak4556() {}
  21:../../libs/libDaisy/src/dev/codec_ak4556.h ****     ~Ak4556() {}
  38              		.loc 2 21 5 view .LVU1
  39              		.loc 2 21 5 is_stmt 0 view .LVU2
  40              	.LBE357:
  41              	.LBB358:
  42              	.LBI358:
  43              		.file 3 "../../libs/libDaisy/src/sys/system.h"
   1:../../libs/libDaisy/src/sys/system.h **** #ifndef DSY_SYSTEM_H
   2:../../libs/libDaisy/src/sys/system.h **** #define DSY_SYSTEM_H
   3:../../libs/libDaisy/src/sys/system.h **** 
   4:../../libs/libDaisy/src/sys/system.h **** #ifndef UNIT_TEST // for unit tests, a dummy implementation is provided below
   5:../../libs/libDaisy/src/sys/system.h **** 
   6:../../libs/libDaisy/src/sys/system.h **** #include <cstdint>
   7:../../libs/libDaisy/src/sys/system.h **** #include "per/tim.h"
   8:../../libs/libDaisy/src/sys/system.h **** 
   9:../../libs/libDaisy/src/sys/system.h **** namespace daisy
  10:../../libs/libDaisy/src/sys/system.h **** {
  11:../../libs/libDaisy/src/sys/system.h **** /** A handle for interacting with the Core System.
  12:../../libs/libDaisy/src/sys/system.h ****  ** This includes the Clock tree, MPU, global DMA initialization,
  13:../../libs/libDaisy/src/sys/system.h ****  ** cache handling, and any other necessary global initiailzation
  14:../../libs/libDaisy/src/sys/system.h ****  **
  15:../../libs/libDaisy/src/sys/system.h ****  ** @author shensley
  16:../../libs/libDaisy/src/sys/system.h ****  ** @ingroup system
  17:../../libs/libDaisy/src/sys/system.h ****  */
  18:../../libs/libDaisy/src/sys/system.h **** class System
  19:../../libs/libDaisy/src/sys/system.h **** {
  20:../../libs/libDaisy/src/sys/system.h ****   public:
  21:../../libs/libDaisy/src/sys/system.h ****     /** Contains settings for initializing the System */
  22:../../libs/libDaisy/src/sys/system.h ****     struct Config
  23:../../libs/libDaisy/src/sys/system.h ****     {
  24:../../libs/libDaisy/src/sys/system.h ****         /** Specifies the system clock frequency that feeds APB/AHB clocks, etc. */
  25:../../libs/libDaisy/src/sys/system.h ****         enum class SysClkFreq
  26:../../libs/libDaisy/src/sys/system.h ****         {
  27:../../libs/libDaisy/src/sys/system.h ****             FREQ_400MHZ,
  28:../../libs/libDaisy/src/sys/system.h ****             FREQ_480MHZ,
  29:../../libs/libDaisy/src/sys/system.h ****         };
ARM GAS  C:\Users\skipi\AppData\Local\Temp\cc3AYCkc.s 			page 3


  30:../../libs/libDaisy/src/sys/system.h **** 
  31:../../libs/libDaisy/src/sys/system.h ****         /** Method to call on the struct to set to defaults
  32:../../libs/libDaisy/src/sys/system.h ****          ** CPU Freq set to 400MHz
  33:../../libs/libDaisy/src/sys/system.h ****          ** Cache Enabled
  34:../../libs/libDaisy/src/sys/system.h ****          ** */
  35:../../libs/libDaisy/src/sys/system.h ****         void Defaults()
  36:../../libs/libDaisy/src/sys/system.h ****         {
  37:../../libs/libDaisy/src/sys/system.h ****             cpu_freq    = SysClkFreq::FREQ_400MHZ;
  38:../../libs/libDaisy/src/sys/system.h ****             use_dcache  = true;
  39:../../libs/libDaisy/src/sys/system.h ****             use_icache  = true;
  40:../../libs/libDaisy/src/sys/system.h ****             skip_clocks = false;
  41:../../libs/libDaisy/src/sys/system.h ****         }
  42:../../libs/libDaisy/src/sys/system.h **** 
  43:../../libs/libDaisy/src/sys/system.h ****         /** Method to call on the struct to set to boost mode:
  44:../../libs/libDaisy/src/sys/system.h ****          ** CPU Freq set to 480MHz
  45:../../libs/libDaisy/src/sys/system.h ****          ** Cache Enabled
  46:../../libs/libDaisy/src/sys/system.h ****          ** */
  47:../../libs/libDaisy/src/sys/system.h ****         void Boost()
  48:../../libs/libDaisy/src/sys/system.h ****         {
  49:../../libs/libDaisy/src/sys/system.h ****             cpu_freq    = SysClkFreq::FREQ_480MHZ;
  50:../../libs/libDaisy/src/sys/system.h ****             use_dcache  = true;
  51:../../libs/libDaisy/src/sys/system.h ****             use_icache  = true;
  52:../../libs/libDaisy/src/sys/system.h ****             skip_clocks = false;
  53:../../libs/libDaisy/src/sys/system.h ****         }
  54:../../libs/libDaisy/src/sys/system.h **** 
  55:../../libs/libDaisy/src/sys/system.h ****         SysClkFreq cpu_freq;
  56:../../libs/libDaisy/src/sys/system.h ****         bool       use_dcache;
  57:../../libs/libDaisy/src/sys/system.h ****         bool       use_icache;
  58:../../libs/libDaisy/src/sys/system.h ****         bool       skip_clocks;
  59:../../libs/libDaisy/src/sys/system.h ****     };
  60:../../libs/libDaisy/src/sys/system.h **** 
  61:../../libs/libDaisy/src/sys/system.h ****     /** Describes the different regions of memory available to the Daisy */
  62:../../libs/libDaisy/src/sys/system.h ****     enum MemoryRegion
  63:../../libs/libDaisy/src/sys/system.h ****     {
  64:../../libs/libDaisy/src/sys/system.h ****         INTERNAL_FLASH = 0,
  65:../../libs/libDaisy/src/sys/system.h ****         ITCMRAM,
  66:../../libs/libDaisy/src/sys/system.h ****         DTCMRAM,
  67:../../libs/libDaisy/src/sys/system.h ****         SRAM_D1,
  68:../../libs/libDaisy/src/sys/system.h ****         SRAM_D2,
  69:../../libs/libDaisy/src/sys/system.h ****         SRAM_D3,
  70:../../libs/libDaisy/src/sys/system.h ****         SDRAM,
  71:../../libs/libDaisy/src/sys/system.h ****         QSPI,
  72:../../libs/libDaisy/src/sys/system.h ****         INVALID_ADDRESS,
  73:../../libs/libDaisy/src/sys/system.h ****     };
  74:../../libs/libDaisy/src/sys/system.h **** 
  75:../../libs/libDaisy/src/sys/system.h ****     /** Bootloader struct for controlling bootloading parameters */
  76:../../libs/libDaisy/src/sys/system.h ****     struct BootInfo
  77:../../libs/libDaisy/src/sys/system.h ****     {
  78:../../libs/libDaisy/src/sys/system.h ****         enum class Type : uint32_t
  79:../../libs/libDaisy/src/sys/system.h ****         {
  80:../../libs/libDaisy/src/sys/system.h ****             INVALID      = 0x00000000,
  81:../../libs/libDaisy/src/sys/system.h ****             JUMP         = 0xDEADBEEF,
  82:../../libs/libDaisy/src/sys/system.h ****             SKIP_TIMEOUT = 0x5AFEB007,
  83:../../libs/libDaisy/src/sys/system.h ****             INF_TIMEOUT  = 0xB0074EFA,
  84:../../libs/libDaisy/src/sys/system.h ****         } status;
  85:../../libs/libDaisy/src/sys/system.h ****         uint32_t data;
  86:../../libs/libDaisy/src/sys/system.h ****         enum class Version : uint32_t
ARM GAS  C:\Users\skipi\AppData\Local\Temp\cc3AYCkc.s 			page 4


  87:../../libs/libDaisy/src/sys/system.h ****         {
  88:../../libs/libDaisy/src/sys/system.h ****             LT_v6_0 = 0, // Less than v6.0
  89:../../libs/libDaisy/src/sys/system.h ****             NONE,        // No bootloader present
  90:../../libs/libDaisy/src/sys/system.h ****             v6_0,        // v6.0
  91:../../libs/libDaisy/src/sys/system.h ****             v6_1,        // v6.1 or greater
  92:../../libs/libDaisy/src/sys/system.h ****             LAST
  93:../../libs/libDaisy/src/sys/system.h ****         } version;
  94:../../libs/libDaisy/src/sys/system.h ****     };
  95:../../libs/libDaisy/src/sys/system.h **** 
  96:../../libs/libDaisy/src/sys/system.h ****     System() {}
  97:../../libs/libDaisy/src/sys/system.h ****     ~System() {}
  44              		.loc 3 97 5 is_stmt 1 view .LVU3
  45              		.loc 3 97 5 is_stmt 0 view .LVU4
  46              	.LBE358:
  47              	.LBB359:
  48              	.LBI359:
  49              		.file 4 "../../libs/libDaisy/src/hid/usb.h"
   1:../../libs/libDaisy/src/hid/usb.h **** #pragma once
   2:../../libs/libDaisy/src/hid/usb.h **** #ifndef DSY_HID_USB_H
   3:../../libs/libDaisy/src/hid/usb.h **** #define DSY_HID_USB_H
   4:../../libs/libDaisy/src/hid/usb.h **** #include <stdint.h>
   5:../../libs/libDaisy/src/hid/usb.h **** #include <stdlib.h>
   6:../../libs/libDaisy/src/hid/usb.h **** 
   7:../../libs/libDaisy/src/hid/usb.h **** namespace daisy
   8:../../libs/libDaisy/src/hid/usb.h **** /** @addtogroup human_interface
   9:../../libs/libDaisy/src/hid/usb.h ****     @{
  10:../../libs/libDaisy/src/hid/usb.h **** */
  11:../../libs/libDaisy/src/hid/usb.h **** 
  12:../../libs/libDaisy/src/hid/usb.h **** {
  13:../../libs/libDaisy/src/hid/usb.h **** /** 
  14:../../libs/libDaisy/src/hid/usb.h ****     @brief Interface for initializing and using the USB Peripherals on the daisy
  15:../../libs/libDaisy/src/hid/usb.h ****     @author Stephen Hensley
  16:../../libs/libDaisy/src/hid/usb.h ****     @date December 2019
  17:../../libs/libDaisy/src/hid/usb.h **** */
  18:../../libs/libDaisy/src/hid/usb.h **** class UsbHandle
  19:../../libs/libDaisy/src/hid/usb.h **** {
  20:../../libs/libDaisy/src/hid/usb.h ****   public:
  21:../../libs/libDaisy/src/hid/usb.h ****     /** Return values for USBHandle Functions */
  22:../../libs/libDaisy/src/hid/usb.h ****     enum class Result
  23:../../libs/libDaisy/src/hid/usb.h ****     {
  24:../../libs/libDaisy/src/hid/usb.h ****         OK,
  25:../../libs/libDaisy/src/hid/usb.h ****         ERR,
  26:../../libs/libDaisy/src/hid/usb.h ****     };
  27:../../libs/libDaisy/src/hid/usb.h **** 
  28:../../libs/libDaisy/src/hid/usb.h ****     /** Specified which of the two USB Peripherals to initialize. */
  29:../../libs/libDaisy/src/hid/usb.h ****     enum UsbPeriph
  30:../../libs/libDaisy/src/hid/usb.h ****     {
  31:../../libs/libDaisy/src/hid/usb.h ****         FS_INTERNAL, /**< Internal pin */
  32:../../libs/libDaisy/src/hid/usb.h ****         FS_EXTERNAL, /**< FS External D+ pin is Pin 38 (GPIO32). FS External D- pin is Pin 37 (GPIO
  33:../../libs/libDaisy/src/hid/usb.h ****         FS_BOTH,     /**< Both */
  34:../../libs/libDaisy/src/hid/usb.h ****     };
  35:../../libs/libDaisy/src/hid/usb.h **** 
  36:../../libs/libDaisy/src/hid/usb.h **** 
  37:../../libs/libDaisy/src/hid/usb.h ****     /** Function called upon reception of a buffer */
  38:../../libs/libDaisy/src/hid/usb.h ****     typedef void (*ReceiveCallback)(uint8_t* buff, uint32_t* len);
  39:../../libs/libDaisy/src/hid/usb.h **** 
  40:../../libs/libDaisy/src/hid/usb.h ****     UsbHandle() {}
ARM GAS  C:\Users\skipi\AppData\Local\Temp\cc3AYCkc.s 			page 5


  41:../../libs/libDaisy/src/hid/usb.h **** 
  42:../../libs/libDaisy/src/hid/usb.h ****     ~UsbHandle() {}
  50              		.loc 4 42 5 is_stmt 1 view .LVU5
  51              		.loc 4 42 5 is_stmt 0 view .LVU6
  52              	.LBE359:
  53              	.LBB360:
  54              	.LBI360:
  55              		.file 5 "../../libs/libDaisy/src/per/adc.h"
   1:../../libs/libDaisy/src/per/adc.h **** #pragma once
   2:../../libs/libDaisy/src/per/adc.h **** #ifndef DSY_ADC_H
   3:../../libs/libDaisy/src/per/adc.h **** #define DSY_ADC_H /**< Macro */
   4:../../libs/libDaisy/src/per/adc.h **** #include <stdint.h>
   5:../../libs/libDaisy/src/per/adc.h **** #include <stdlib.h>
   6:../../libs/libDaisy/src/per/adc.h **** #include "daisy_core.h"
   7:../../libs/libDaisy/src/per/adc.h **** #include "per/gpio.h"
   8:../../libs/libDaisy/src/per/adc.h **** 
   9:../../libs/libDaisy/src/per/adc.h **** #define DSY_ADC_MAX_CHANNELS 16 /**< Maximum number of ADC channels */
  10:../../libs/libDaisy/src/per/adc.h **** 
  11:../../libs/libDaisy/src/per/adc.h **** namespace daisy
  12:../../libs/libDaisy/src/per/adc.h **** {
  13:../../libs/libDaisy/src/per/adc.h **** /** @addtogroup per_analog
  14:../../libs/libDaisy/src/per/adc.h ****     @{
  15:../../libs/libDaisy/src/per/adc.h **** */
  16:../../libs/libDaisy/src/per/adc.h **** 
  17:../../libs/libDaisy/src/per/adc.h **** /* While there may not be many configuration options here,
  18:../../libs/libDaisy/src/per/adc.h **** using a struct like this allows us to add more configuration
  19:../../libs/libDaisy/src/per/adc.h **** later without breaking existing functionality.
  20:../../libs/libDaisy/src/per/adc.h **** */
  21:../../libs/libDaisy/src/per/adc.h **** 
  22:../../libs/libDaisy/src/per/adc.h **** /** @brief   Configuration Structure for an ADC Channel 
  23:../../libs/libDaisy/src/per/adc.h ****  *  @details This can be used to configure a a single input, 
  24:../../libs/libDaisy/src/per/adc.h ****  *           or a multiplexed input, allowing up to 8 inputs on 
  25:../../libs/libDaisy/src/per/adc.h ****  *           one channel.
  26:../../libs/libDaisy/src/per/adc.h ****  *  @note    Sharing data lines to multiple muxes _is_ possible, but
  27:../../libs/libDaisy/src/per/adc.h ****  *           each channel sharing data lines must be set to the maximum
  28:../../libs/libDaisy/src/per/adc.h ****  *           number of channels, even if some multiplexers have fewer
  29:../../libs/libDaisy/src/per/adc.h ****  *           inputs connected.
  30:../../libs/libDaisy/src/per/adc.h **** */
  31:../../libs/libDaisy/src/per/adc.h **** struct AdcChannelConfig
  32:../../libs/libDaisy/src/per/adc.h **** {
  33:../../libs/libDaisy/src/per/adc.h ****     /** Which pin to use for multiplexing */
  34:../../libs/libDaisy/src/per/adc.h ****     enum MuxPin
  35:../../libs/libDaisy/src/per/adc.h ****     {
  36:../../libs/libDaisy/src/per/adc.h ****         MUX_SEL_0,    /**< & */
  37:../../libs/libDaisy/src/per/adc.h ****         MUX_SEL_1,    /**< & */
  38:../../libs/libDaisy/src/per/adc.h ****         MUX_SEL_2,    /**< & */
  39:../../libs/libDaisy/src/per/adc.h ****         MUX_SEL_LAST, /**< & */
  40:../../libs/libDaisy/src/per/adc.h ****     };
  41:../../libs/libDaisy/src/per/adc.h **** 
  42:../../libs/libDaisy/src/per/adc.h ****     /** \brief per channel conversion speed added to fixed time based on bitdepth, etc. */
  43:../../libs/libDaisy/src/per/adc.h ****     enum ConversionSpeed
  44:../../libs/libDaisy/src/per/adc.h ****     {
  45:../../libs/libDaisy/src/per/adc.h ****         SPEED_1CYCLES_5,
  46:../../libs/libDaisy/src/per/adc.h ****         SPEED_2CYCLES_5,
  47:../../libs/libDaisy/src/per/adc.h ****         SPEED_8CYCLES_5,
  48:../../libs/libDaisy/src/per/adc.h ****         SPEED_16CYCLES_5,
  49:../../libs/libDaisy/src/per/adc.h ****         SPEED_32CYCLES_5,
ARM GAS  C:\Users\skipi\AppData\Local\Temp\cc3AYCkc.s 			page 6


  50:../../libs/libDaisy/src/per/adc.h ****         SPEED_64CYCLES_5,
  51:../../libs/libDaisy/src/per/adc.h ****         SPEED_387CYCLES_5,
  52:../../libs/libDaisy/src/per/adc.h ****         SPEED_810CYCLES_5,
  53:../../libs/libDaisy/src/per/adc.h ****     };
  54:../../libs/libDaisy/src/per/adc.h **** 
  55:../../libs/libDaisy/src/per/adc.h ****     /** Initializes a single ADC pin as an ADC. 
  56:../../libs/libDaisy/src/per/adc.h ****     \param pin Pin to init.
  57:../../libs/libDaisy/src/per/adc.h ****     \param speed conversion speed for this pin defaults to 8.5 cycles
  58:../../libs/libDaisy/src/per/adc.h ****      */
  59:../../libs/libDaisy/src/per/adc.h ****     void InitSingle(Pin pin, ConversionSpeed speed = SPEED_8CYCLES_5);
  60:../../libs/libDaisy/src/per/adc.h **** 
  61:../../libs/libDaisy/src/per/adc.h ****     /** 
  62:../../libs/libDaisy/src/per/adc.h ****     Initializes a single ADC pin as a Multiplexed ADC.
  63:../../libs/libDaisy/src/per/adc.h ****     Requires a CD405X Multiplexer connected to the pin.
  64:../../libs/libDaisy/src/per/adc.h ****     You only need to supply the mux pins that are required,
  65:../../libs/libDaisy/src/per/adc.h ****     e.g. a 4052 mux would only require mux_0 and mux_1.
  66:../../libs/libDaisy/src/per/adc.h ****     Internal Callbacks handle the pin addressing.
  67:../../libs/libDaisy/src/per/adc.h ****     \param adc_pin &
  68:../../libs/libDaisy/src/per/adc.h ****     \param mux_channels must be 1-8
  69:../../libs/libDaisy/src/per/adc.h ****     \param mux_0 First mux pin
  70:../../libs/libDaisy/src/per/adc.h ****     \param mux_1 Second mux pin
  71:../../libs/libDaisy/src/per/adc.h ****     \param mux_2 Third mux pin
  72:../../libs/libDaisy/src/per/adc.h ****     \param speed conversion speed for this pin defaults to 8.5 cycles
  73:../../libs/libDaisy/src/per/adc.h ****     */
  74:../../libs/libDaisy/src/per/adc.h ****     void InitMux(Pin             adc_pin,
  75:../../libs/libDaisy/src/per/adc.h ****                  size_t          mux_channels,
  76:../../libs/libDaisy/src/per/adc.h ****                  Pin             mux_0,
  77:../../libs/libDaisy/src/per/adc.h ****                  Pin             mux_1 = Pin(PORTX, 0),
  78:../../libs/libDaisy/src/per/adc.h ****                  Pin             mux_2 = Pin(PORTX, 0),
  79:../../libs/libDaisy/src/per/adc.h ****                  ConversionSpeed speed = SPEED_8CYCLES_5);
  80:../../libs/libDaisy/src/per/adc.h **** 
  81:../../libs/libDaisy/src/per/adc.h ****     GPIO            pin_;                   /**< & */
  82:../../libs/libDaisy/src/per/adc.h ****     GPIO            mux_pin_[MUX_SEL_LAST]; /**< & */
  83:../../libs/libDaisy/src/per/adc.h ****     uint8_t         mux_channels_;          /**< & */
  84:../../libs/libDaisy/src/per/adc.h ****     ConversionSpeed speed_;
  85:../../libs/libDaisy/src/per/adc.h **** };
  86:../../libs/libDaisy/src/per/adc.h **** 
  87:../../libs/libDaisy/src/per/adc.h **** /**
  88:../../libs/libDaisy/src/per/adc.h ****    @brief Handler for analog to digital conversion
  89:../../libs/libDaisy/src/per/adc.h **** */
  90:../../libs/libDaisy/src/per/adc.h **** class AdcHandle
  91:../../libs/libDaisy/src/per/adc.h **** {
  92:../../libs/libDaisy/src/per/adc.h ****   public:
  93:../../libs/libDaisy/src/per/adc.h ****     /** Supported oversampling amounts */
  94:../../libs/libDaisy/src/per/adc.h ****     enum OverSampling
  95:../../libs/libDaisy/src/per/adc.h ****     {
  96:../../libs/libDaisy/src/per/adc.h ****         OVS_NONE, /**< & */
  97:../../libs/libDaisy/src/per/adc.h ****         OVS_4,    /**< & */
  98:../../libs/libDaisy/src/per/adc.h ****         OVS_8,    /**< & */
  99:../../libs/libDaisy/src/per/adc.h ****         OVS_16,   /**< & */
 100:../../libs/libDaisy/src/per/adc.h ****         OVS_32,   /**< & */
 101:../../libs/libDaisy/src/per/adc.h ****         OVS_64,   /**< & */
 102:../../libs/libDaisy/src/per/adc.h ****         OVS_128,  /**< & */
 103:../../libs/libDaisy/src/per/adc.h ****         OVS_256,  /**< & */
 104:../../libs/libDaisy/src/per/adc.h ****         OVS_512,  /**< & */
 105:../../libs/libDaisy/src/per/adc.h ****         OVS_1024, /**< & */
 106:../../libs/libDaisy/src/per/adc.h ****         OVS_LAST, /**< & */
ARM GAS  C:\Users\skipi\AppData\Local\Temp\cc3AYCkc.s 			page 7


 107:../../libs/libDaisy/src/per/adc.h ****     };
 108:../../libs/libDaisy/src/per/adc.h **** 
 109:../../libs/libDaisy/src/per/adc.h ****     AdcHandle() {}
 110:../../libs/libDaisy/src/per/adc.h ****     ~AdcHandle() {}
  56              		.loc 5 110 5 is_stmt 1 view .LVU7
  57              		.loc 5 110 5 is_stmt 0 view .LVU8
  58              	.LBE360:
  59              	.LBB361:
  60              	.LBI361:
  61              		.file 6 "../../libs/libDaisy/src/hid/audio.h"
   1:../../libs/libDaisy/src/hid/audio.h **** #ifndef DSY_AUDIO_H
   2:../../libs/libDaisy/src/hid/audio.h **** #define DSY_AUDIO_H /**< & */
   3:../../libs/libDaisy/src/hid/audio.h **** 
   4:../../libs/libDaisy/src/hid/audio.h **** #include "per/sai.h"
   5:../../libs/libDaisy/src/hid/audio.h **** 
   6:../../libs/libDaisy/src/hid/audio.h **** namespace daisy
   7:../../libs/libDaisy/src/hid/audio.h **** {
   8:../../libs/libDaisy/src/hid/audio.h **** /** @brief Audio Engine Handle
   9:../../libs/libDaisy/src/hid/audio.h ****  *  @ingroup audio 
  10:../../libs/libDaisy/src/hid/audio.h ****  *  @details This class allows for higher level access to an audio engine.
  11:../../libs/libDaisy/src/hid/audio.h ****  *           If you're using a SOM like the DaisySeed or DaisyPatchSM (or any 
  12:../../libs/libDaisy/src/hid/audio.h ****  *            board that includes one of those objects) then the intialization
  13:../../libs/libDaisy/src/hid/audio.h ****  *            is already taken  care of.
  14:../../libs/libDaisy/src/hid/audio.h ****  *           If you're setting up your own custom hardware, or need to make changes
  15:../../libs/libDaisy/src/hid/audio.h ****  *           you will have to take the following steps:
  16:../../libs/libDaisy/src/hid/audio.h ****  *             1. Create and Initialize an SaiHandle or two depending on your requirements
  17:../../libs/libDaisy/src/hid/audio.h ****  *             2. Initialize the Audio Handle with the desired settings and the Initialized SaiHand
  18:../../libs/libDaisy/src/hid/audio.h ****  *             3. If the connected codec requires special configuration or initialization, do so
  19:../../libs/libDaisy/src/hid/audio.h ****  *             4. Write a callback method using either the AudioCallback or the InterleavingAudioCa
  20:../../libs/libDaisy/src/hid/audio.h ****  *             5. Start the Audio using one of the StartAudio function
  21:../../libs/libDaisy/src/hid/audio.h ****  */
  22:../../libs/libDaisy/src/hid/audio.h **** class AudioHandle
  23:../../libs/libDaisy/src/hid/audio.h **** {
  24:../../libs/libDaisy/src/hid/audio.h ****   public:
  25:../../libs/libDaisy/src/hid/audio.h ****     /** Manually configurable details about the Audio Engine */
  26:../../libs/libDaisy/src/hid/audio.h ****     /** TODO: Figure out how to get samplerate in here. */
  27:../../libs/libDaisy/src/hid/audio.h ****     struct Config
  28:../../libs/libDaisy/src/hid/audio.h ****     {
  29:../../libs/libDaisy/src/hid/audio.h ****         /** number of samples to process per callback */
  30:../../libs/libDaisy/src/hid/audio.h ****         size_t blocksize = 48;
  31:../../libs/libDaisy/src/hid/audio.h **** 
  32:../../libs/libDaisy/src/hid/audio.h ****         /**< Sample rate of audio */
  33:../../libs/libDaisy/src/hid/audio.h ****         SaiHandle::Config::SampleRate samplerate
  34:../../libs/libDaisy/src/hid/audio.h ****             = SaiHandle::Config::SampleRate::SAI_48KHZ;
  35:../../libs/libDaisy/src/hid/audio.h **** 
  36:../../libs/libDaisy/src/hid/audio.h ****         /** factor for adjustment before and after callback for hardware that may have extra headro
  37:../../libs/libDaisy/src/hid/audio.h ****         float postgain = 1.f;
  38:../../libs/libDaisy/src/hid/audio.h **** 
  39:../../libs/libDaisy/src/hid/audio.h ****         /** factor for additional one-sided compensation to audio path for hardware that may
  40:../../libs/libDaisy/src/hid/audio.h ****          *  have unequal input/output ranges
  41:../../libs/libDaisy/src/hid/audio.h ****          */
  42:../../libs/libDaisy/src/hid/audio.h ****         float output_compensation = 1.f;
  43:../../libs/libDaisy/src/hid/audio.h ****     };
  44:../../libs/libDaisy/src/hid/audio.h **** 
  45:../../libs/libDaisy/src/hid/audio.h ****     enum class Result
  46:../../libs/libDaisy/src/hid/audio.h ****     {
  47:../../libs/libDaisy/src/hid/audio.h ****         OK,
ARM GAS  C:\Users\skipi\AppData\Local\Temp\cc3AYCkc.s 			page 8


  48:../../libs/libDaisy/src/hid/audio.h ****         ERR,
  49:../../libs/libDaisy/src/hid/audio.h ****     };
  50:../../libs/libDaisy/src/hid/audio.h **** 
  51:../../libs/libDaisy/src/hid/audio.h ****     /** Non-Interleaving input buffer
  52:../../libs/libDaisy/src/hid/audio.h ****      * Buffer arranged by float[chn][sample] 
  53:../../libs/libDaisy/src/hid/audio.h ****      * const so that the user can't modify the input
  54:../../libs/libDaisy/src/hid/audio.h ****      */
  55:../../libs/libDaisy/src/hid/audio.h ****     typedef const float* const* InputBuffer;
  56:../../libs/libDaisy/src/hid/audio.h **** 
  57:../../libs/libDaisy/src/hid/audio.h ****     /** Non-Interleaving output buffer
  58:../../libs/libDaisy/src/hid/audio.h ****      * Arranged by float[chn][sample] 
  59:../../libs/libDaisy/src/hid/audio.h ****      */
  60:../../libs/libDaisy/src/hid/audio.h ****     typedef float** OutputBuffer;
  61:../../libs/libDaisy/src/hid/audio.h **** 
  62:../../libs/libDaisy/src/hid/audio.h ****     /** Type for a Non-Interleaving audio callback 
  63:../../libs/libDaisy/src/hid/audio.h ****      * Non-Interleaving audio callbacks in daisy will be of this type
  64:../../libs/libDaisy/src/hid/audio.h ****      */
  65:../../libs/libDaisy/src/hid/audio.h ****     typedef void (*AudioCallback)(InputBuffer  in,
  66:../../libs/libDaisy/src/hid/audio.h ****                                   OutputBuffer out,
  67:../../libs/libDaisy/src/hid/audio.h ****                                   size_t       size);
  68:../../libs/libDaisy/src/hid/audio.h **** 
  69:../../libs/libDaisy/src/hid/audio.h ****     /** Interleaving Input buffer
  70:../../libs/libDaisy/src/hid/audio.h ****      ** audio is prepared as { L0, R0, L1, R1, . . . LN, RN }]
  71:../../libs/libDaisy/src/hid/audio.h ****      ** this is const, as the user shouldn't modify it
  72:../../libs/libDaisy/src/hid/audio.h ****     */
  73:../../libs/libDaisy/src/hid/audio.h ****     typedef const float* InterleavingInputBuffer;
  74:../../libs/libDaisy/src/hid/audio.h **** 
  75:../../libs/libDaisy/src/hid/audio.h ****     /** Interleaving Output buffer 
  76:../../libs/libDaisy/src/hid/audio.h ****      ** audio is prepared as { L0, R0, L1, R1, . . . LN, RN }
  77:../../libs/libDaisy/src/hid/audio.h ****     */
  78:../../libs/libDaisy/src/hid/audio.h ****     typedef float* InterleavingOutputBuffer;
  79:../../libs/libDaisy/src/hid/audio.h **** 
  80:../../libs/libDaisy/src/hid/audio.h ****     /** Interleaving Audio Callback 
  81:../../libs/libDaisy/src/hid/audio.h ****      * Interleaving audio callbacks in daisy must be of this type
  82:../../libs/libDaisy/src/hid/audio.h ****      */
  83:../../libs/libDaisy/src/hid/audio.h ****     typedef void (*InterleavingAudioCallback)(InterleavingInputBuffer  in,
  84:../../libs/libDaisy/src/hid/audio.h ****                                               InterleavingOutputBuffer out,
  85:../../libs/libDaisy/src/hid/audio.h ****                                               size_t                   size);
  86:../../libs/libDaisy/src/hid/audio.h **** 
  87:../../libs/libDaisy/src/hid/audio.h ****     AudioHandle() : pimpl_(nullptr) {}
  88:../../libs/libDaisy/src/hid/audio.h ****     ~AudioHandle() {}
  62              		.loc 6 88 5 is_stmt 1 view .LVU9
  63              		.loc 6 88 5 is_stmt 0 view .LVU10
  64              	.LBE361:
  65              		.loc 1 22 19 view .LVU11
  66 0000 7047     		bx	lr
  67              		.cfi_endproc
  68              	.LFE2671:
  70              		.weak	_ZN5daisy9DaisySeedD1Ev
  71              		.thumb_set _ZN5daisy9DaisySeedD1Ev,_ZN5daisy9DaisySeedD2Ev
  72 0002 00BF     		.section	.text._ZN7daisysp4AdsrD2Ev,"axG",%progbits,_ZN7daisysp4AdsrD5Ev,comdat
  73              		.align	1
  74              		.p2align 2,,3
  75              		.weak	_ZN7daisysp4AdsrD2Ev
  76              		.syntax unified
  77              		.thumb
  78              		.thumb_func
ARM GAS  C:\Users\skipi\AppData\Local\Temp\cc3AYCkc.s 			page 9


  79              		.fpu fpv5-d16
  81              	_ZN7daisysp4AdsrD2Ev:
  82              	.LVL1:
  83              	.LFB2694:
  84              		.file 7 "../../libs/DaisySP/Source/Control/adsr.h"
   1:../../libs/DaisySP/Source/Control/adsr.h **** /*
   2:../../libs/DaisySP/Source/Control/adsr.h **** Copyright (c) 2020 Electrosmith, Corp, Paul Batchelor
   3:../../libs/DaisySP/Source/Control/adsr.h **** 
   4:../../libs/DaisySP/Source/Control/adsr.h **** Use of this source code is governed by an MIT-style
   5:../../libs/DaisySP/Source/Control/adsr.h **** license that can be found in the LICENSE file or at
   6:../../libs/DaisySP/Source/Control/adsr.h **** https://opensource.org/licenses/MIT.
   7:../../libs/DaisySP/Source/Control/adsr.h **** */
   8:../../libs/DaisySP/Source/Control/adsr.h **** 
   9:../../libs/DaisySP/Source/Control/adsr.h **** #pragma once
  10:../../libs/DaisySP/Source/Control/adsr.h **** #ifndef DSY_ADSR_H
  11:../../libs/DaisySP/Source/Control/adsr.h **** #define DSY_ADSR_H
  12:../../libs/DaisySP/Source/Control/adsr.h **** 
  13:../../libs/DaisySP/Source/Control/adsr.h **** #include <stdint.h>
  14:../../libs/DaisySP/Source/Control/adsr.h **** #ifdef __cplusplus
  15:../../libs/DaisySP/Source/Control/adsr.h **** 
  16:../../libs/DaisySP/Source/Control/adsr.h **** namespace daisysp
  17:../../libs/DaisySP/Source/Control/adsr.h **** {
  18:../../libs/DaisySP/Source/Control/adsr.h **** /** Distinct stages that the phase of the envelope can be located in.
  19:../../libs/DaisySP/Source/Control/adsr.h **** - IDLE   = located at phase location 0, and not currently running
  20:../../libs/DaisySP/Source/Control/adsr.h **** - ATTACK  = First segment of envelope where phase moves from 0 to 1
  21:../../libs/DaisySP/Source/Control/adsr.h **** - DECAY   = Second segment of envelope where phase moves from 1 to SUSTAIN value
  22:../../libs/DaisySP/Source/Control/adsr.h **** - RELEASE =     Fourth segment of envelop where phase moves from SUSTAIN to 0
  23:../../libs/DaisySP/Source/Control/adsr.h **** */
  24:../../libs/DaisySP/Source/Control/adsr.h **** enum
  25:../../libs/DaisySP/Source/Control/adsr.h **** {
  26:../../libs/DaisySP/Source/Control/adsr.h ****     ADSR_SEG_IDLE    = 0,
  27:../../libs/DaisySP/Source/Control/adsr.h ****     ADSR_SEG_ATTACK  = 1,
  28:../../libs/DaisySP/Source/Control/adsr.h ****     ADSR_SEG_DECAY   = 2,
  29:../../libs/DaisySP/Source/Control/adsr.h ****     ADSR_SEG_RELEASE = 4
  30:../../libs/DaisySP/Source/Control/adsr.h **** };
  31:../../libs/DaisySP/Source/Control/adsr.h **** 
  32:../../libs/DaisySP/Source/Control/adsr.h **** 
  33:../../libs/DaisySP/Source/Control/adsr.h **** /** adsr envelope module
  34:../../libs/DaisySP/Source/Control/adsr.h **** 
  35:../../libs/DaisySP/Source/Control/adsr.h **** Original author(s) : Paul Batchelor
  36:../../libs/DaisySP/Source/Control/adsr.h **** 
  37:../../libs/DaisySP/Source/Control/adsr.h **** Ported from Soundpipe by Ben Sergentanis, May 2020
  38:../../libs/DaisySP/Source/Control/adsr.h ****  
  39:../../libs/DaisySP/Source/Control/adsr.h **** Remake by Steffan DIedrichsen, May 2021
  40:../../libs/DaisySP/Source/Control/adsr.h **** */
  41:../../libs/DaisySP/Source/Control/adsr.h **** class Adsr
  42:../../libs/DaisySP/Source/Control/adsr.h **** {
  43:../../libs/DaisySP/Source/Control/adsr.h ****   public:
  44:../../libs/DaisySP/Source/Control/adsr.h ****     Adsr() {}
  45:../../libs/DaisySP/Source/Control/adsr.h ****     ~Adsr() {}
  85              		.loc 7 45 5 is_stmt 1 view -0
  86              		.cfi_startproc
  87              		@ args = 0, pretend = 0, frame = 0
  88              		@ frame_needed = 0, uses_anonymous_args = 0
  89              		@ link register save eliminated.
  90              		.loc 7 45 14 is_stmt 0 view .LVU13
  91 0000 7047     		bx	lr
ARM GAS  C:\Users\skipi\AppData\Local\Temp\cc3AYCkc.s 			page 10


  92              		.cfi_endproc
  93              	.LFE2694:
  95              		.weak	_ZN7daisysp4AdsrD1Ev
  96              		.thumb_set _ZN7daisysp4AdsrD1Ev,_ZN7daisysp4AdsrD2Ev
  97              		.section	.text._ZN7daisysp10OscillatorD2Ev,"axG",%progbits,_ZN7daisysp10OscillatorD5Ev,comdat
  98              		.align	1
  99              		.p2align 2,,3
 100              		.weak	_ZN7daisysp10OscillatorD2Ev
 101              		.syntax unified
 102              		.thumb
 103              		.thumb_func
 104              		.fpu fpv5-d16
 106              	_ZN7daisysp10OscillatorD2Ev:
 107              	.LVL2:
 108              	.LFB4356:
 109              		.file 8 "../../libs/DaisySP/Source/Synthesis/oscillator.h"
   1:../../libs/DaisySP/Source/Synthesis/oscillator.h **** /*
   2:../../libs/DaisySP/Source/Synthesis/oscillator.h **** Copyright (c) 2020 Electrosmith, Corp
   3:../../libs/DaisySP/Source/Synthesis/oscillator.h **** 
   4:../../libs/DaisySP/Source/Synthesis/oscillator.h **** Use of this source code is governed by an MIT-style
   5:../../libs/DaisySP/Source/Synthesis/oscillator.h **** license that can be found in the LICENSE file or at
   6:../../libs/DaisySP/Source/Synthesis/oscillator.h **** https://opensource.org/licenses/MIT.
   7:../../libs/DaisySP/Source/Synthesis/oscillator.h **** */
   8:../../libs/DaisySP/Source/Synthesis/oscillator.h **** 
   9:../../libs/DaisySP/Source/Synthesis/oscillator.h **** #pragma once
  10:../../libs/DaisySP/Source/Synthesis/oscillator.h **** #ifndef DSY_OSCILLATOR_H
  11:../../libs/DaisySP/Source/Synthesis/oscillator.h **** #define DSY_OSCILLATOR_H
  12:../../libs/DaisySP/Source/Synthesis/oscillator.h **** #include <stdint.h>
  13:../../libs/DaisySP/Source/Synthesis/oscillator.h **** #include "Utility/dsp.h"
  14:../../libs/DaisySP/Source/Synthesis/oscillator.h **** #ifdef __cplusplus
  15:../../libs/DaisySP/Source/Synthesis/oscillator.h **** 
  16:../../libs/DaisySP/Source/Synthesis/oscillator.h **** namespace daisysp
  17:../../libs/DaisySP/Source/Synthesis/oscillator.h **** {
  18:../../libs/DaisySP/Source/Synthesis/oscillator.h **** /** Synthesis of several waveforms, including polyBLEP bandlimited waveforms.
  19:../../libs/DaisySP/Source/Synthesis/oscillator.h **** */
  20:../../libs/DaisySP/Source/Synthesis/oscillator.h **** class Oscillator
  21:../../libs/DaisySP/Source/Synthesis/oscillator.h **** {
  22:../../libs/DaisySP/Source/Synthesis/oscillator.h ****   public:
  23:../../libs/DaisySP/Source/Synthesis/oscillator.h ****     Oscillator() {}
  24:../../libs/DaisySP/Source/Synthesis/oscillator.h ****     ~Oscillator() {}
 110              		.loc 8 24 5 is_stmt 1 view -0
 111              		.cfi_startproc
 112              		@ args = 0, pretend = 0, frame = 0
 113              		@ frame_needed = 0, uses_anonymous_args = 0
 114              		@ link register save eliminated.
 115              		.loc 8 24 20 is_stmt 0 view .LVU15
 116 0000 7047     		bx	lr
 117              		.cfi_endproc
 118              	.LFE4356:
 120              		.weak	_ZN7daisysp10OscillatorD1Ev
 121              		.thumb_set _ZN7daisysp10OscillatorD1Ev,_ZN7daisysp10OscillatorD2Ev
 122              		.section	.text._ZN5daisy6Mpr121INS_18Mpr121I2CTransportEED2Ev,"axG",%progbits,_ZN5daisy6Mpr121INS_
 123              		.align	1
 124              		.p2align 2,,3
 125              		.weak	_ZN5daisy6Mpr121INS_18Mpr121I2CTransportEED2Ev
 126              		.syntax unified
 127              		.thumb
ARM GAS  C:\Users\skipi\AppData\Local\Temp\cc3AYCkc.s 			page 11


 128              		.thumb_func
 129              		.fpu fpv5-d16
 131              	_ZN5daisy6Mpr121INS_18Mpr121I2CTransportEED2Ev:
 132              	.LVL3:
 133              	.LFB5432:
 134              		.file 9 "../../libs/libDaisy/src/dev/mpr121.h"
   1:../../libs/libDaisy/src/dev/mpr121.h **** #pragma once
   2:../../libs/libDaisy/src/dev/mpr121.h **** #ifndef DSY_MPR121_H
   3:../../libs/libDaisy/src/dev/mpr121.h **** #define DSY_MPR121_H
   4:../../libs/libDaisy/src/dev/mpr121.h **** 
   5:../../libs/libDaisy/src/dev/mpr121.h **** // The default I2C address
   6:../../libs/libDaisy/src/dev/mpr121.h **** #define MPR121_I2CADDR_DEFAULT 0x5A        ///< default I2C address
   7:../../libs/libDaisy/src/dev/mpr121.h **** #define MPR121_TOUCH_THRESHOLD_DEFAULT 2  ///< default touch threshold value
   8:../../libs/libDaisy/src/dev/mpr121.h **** #define MPR121_RELEASE_THRESHOLD_DEFAULT 1 ///< default relese threshold value
   9:../../libs/libDaisy/src/dev/mpr121.h **** 
  10:../../libs/libDaisy/src/dev/mpr121.h **** namespace daisy
  11:../../libs/libDaisy/src/dev/mpr121.h **** {
  12:../../libs/libDaisy/src/dev/mpr121.h **** /** @addtogroup external 
  13:../../libs/libDaisy/src/dev/mpr121.h ****     @{ 
  14:../../libs/libDaisy/src/dev/mpr121.h **** */
  15:../../libs/libDaisy/src/dev/mpr121.h **** 
  16:../../libs/libDaisy/src/dev/mpr121.h **** /** I2C Transport for MPR121 */
  17:../../libs/libDaisy/src/dev/mpr121.h **** class Mpr121I2CTransport
  18:../../libs/libDaisy/src/dev/mpr121.h **** {
  19:../../libs/libDaisy/src/dev/mpr121.h ****   public:
  20:../../libs/libDaisy/src/dev/mpr121.h ****     Mpr121I2CTransport() {}
  21:../../libs/libDaisy/src/dev/mpr121.h ****     ~Mpr121I2CTransport() {}
  22:../../libs/libDaisy/src/dev/mpr121.h **** 
  23:../../libs/libDaisy/src/dev/mpr121.h ****     struct Config
  24:../../libs/libDaisy/src/dev/mpr121.h ****     {
  25:../../libs/libDaisy/src/dev/mpr121.h ****         I2CHandle::Config::Peripheral periph;
  26:../../libs/libDaisy/src/dev/mpr121.h ****         I2CHandle::Config::Speed      speed;
  27:../../libs/libDaisy/src/dev/mpr121.h ****         Pin                           scl;
  28:../../libs/libDaisy/src/dev/mpr121.h ****         Pin                           sda;
  29:../../libs/libDaisy/src/dev/mpr121.h **** 
  30:../../libs/libDaisy/src/dev/mpr121.h ****         I2CHandle::Config::Mode mode;
  31:../../libs/libDaisy/src/dev/mpr121.h **** 
  32:../../libs/libDaisy/src/dev/mpr121.h ****         uint8_t dev_addr;
  33:../../libs/libDaisy/src/dev/mpr121.h **** 
  34:../../libs/libDaisy/src/dev/mpr121.h ****         Config()
  35:../../libs/libDaisy/src/dev/mpr121.h ****         {
  36:../../libs/libDaisy/src/dev/mpr121.h ****             periph = I2CHandle::Config::Peripheral::I2C_1;
  37:../../libs/libDaisy/src/dev/mpr121.h ****             speed  = I2CHandle::Config::Speed::I2C_400KHZ;
  38:../../libs/libDaisy/src/dev/mpr121.h **** 
  39:../../libs/libDaisy/src/dev/mpr121.h ****             scl = Pin(PORTB, 8);
  40:../../libs/libDaisy/src/dev/mpr121.h ****             sda = Pin(PORTB, 9);
  41:../../libs/libDaisy/src/dev/mpr121.h **** 
  42:../../libs/libDaisy/src/dev/mpr121.h ****             dev_addr = MPR121_I2CADDR_DEFAULT;
  43:../../libs/libDaisy/src/dev/mpr121.h ****         }
  44:../../libs/libDaisy/src/dev/mpr121.h ****     };
  45:../../libs/libDaisy/src/dev/mpr121.h **** 
  46:../../libs/libDaisy/src/dev/mpr121.h ****     /** \return Did the transaction error? i.e. Return true if error, false if ok */
  47:../../libs/libDaisy/src/dev/mpr121.h ****     inline bool Init(Config config)
  48:../../libs/libDaisy/src/dev/mpr121.h ****     {
  49:../../libs/libDaisy/src/dev/mpr121.h ****         config_ = config;
  50:../../libs/libDaisy/src/dev/mpr121.h **** 
  51:../../libs/libDaisy/src/dev/mpr121.h ****         I2CHandle::Config i2c_conf;
ARM GAS  C:\Users\skipi\AppData\Local\Temp\cc3AYCkc.s 			page 12


  52:../../libs/libDaisy/src/dev/mpr121.h ****         i2c_conf.mode   = I2CHandle::Config::Mode::I2C_MASTER;
  53:../../libs/libDaisy/src/dev/mpr121.h ****         i2c_conf.periph = config.periph;
  54:../../libs/libDaisy/src/dev/mpr121.h ****         i2c_conf.speed  = config.speed;
  55:../../libs/libDaisy/src/dev/mpr121.h **** 
  56:../../libs/libDaisy/src/dev/mpr121.h ****         i2c_conf.pin_config.scl = config.scl;
  57:../../libs/libDaisy/src/dev/mpr121.h ****         i2c_conf.pin_config.sda = config.sda;
  58:../../libs/libDaisy/src/dev/mpr121.h **** 
  59:../../libs/libDaisy/src/dev/mpr121.h ****         return I2CHandle::Result::OK != i2c_.Init(i2c_conf);
  60:../../libs/libDaisy/src/dev/mpr121.h ****     }
  61:../../libs/libDaisy/src/dev/mpr121.h **** 
  62:../../libs/libDaisy/src/dev/mpr121.h ****     /** \return Did the transaction error? i.e. Return true if error, false if ok */
  63:../../libs/libDaisy/src/dev/mpr121.h ****     bool Write(uint8_t *data, uint16_t size)
  64:../../libs/libDaisy/src/dev/mpr121.h ****     {
  65:../../libs/libDaisy/src/dev/mpr121.h ****         return I2CHandle::Result::OK
  66:../../libs/libDaisy/src/dev/mpr121.h ****                != i2c_.TransmitBlocking(config_.dev_addr, data, size, 10);
  67:../../libs/libDaisy/src/dev/mpr121.h ****     }
  68:../../libs/libDaisy/src/dev/mpr121.h **** 
  69:../../libs/libDaisy/src/dev/mpr121.h ****     /** \return Did the transaction error? i.e. Return true if error, false if ok */
  70:../../libs/libDaisy/src/dev/mpr121.h ****     bool Read(uint8_t *data, uint16_t size)
  71:../../libs/libDaisy/src/dev/mpr121.h ****     {
  72:../../libs/libDaisy/src/dev/mpr121.h ****         return I2CHandle::Result::OK
  73:../../libs/libDaisy/src/dev/mpr121.h ****                != i2c_.ReceiveBlocking(config_.dev_addr, data, size, 10);
  74:../../libs/libDaisy/src/dev/mpr121.h ****     }
  75:../../libs/libDaisy/src/dev/mpr121.h ****     bool ReadMem(uint8_t *data, uint8_t memAddress, uint16_t memSize)
  76:../../libs/libDaisy/src/dev/mpr121.h ****     {
  77:../../libs/libDaisy/src/dev/mpr121.h ****         return I2CHandle::Result::OK
  78:../../libs/libDaisy/src/dev/mpr121.h ****                != i2c_.Mem_read(
  79:../../libs/libDaisy/src/dev/mpr121.h ****                    config_.dev_addr, memAddress, 1, data, memSize, 10);
  80:../../libs/libDaisy/src/dev/mpr121.h ****     }
  81:../../libs/libDaisy/src/dev/mpr121.h **** 
  82:../../libs/libDaisy/src/dev/mpr121.h ****   private:
  83:../../libs/libDaisy/src/dev/mpr121.h ****     I2CHandle i2c_;
  84:../../libs/libDaisy/src/dev/mpr121.h ****     Config    config_;
  85:../../libs/libDaisy/src/dev/mpr121.h **** };
  86:../../libs/libDaisy/src/dev/mpr121.h **** 
  87:../../libs/libDaisy/src/dev/mpr121.h **** 
  88:../../libs/libDaisy/src/dev/mpr121.h **** /** @brief Device support for MPR121 12x Capacitive Touch Sensor
  89:../../libs/libDaisy/src/dev/mpr121.h ****     @author beserge
  90:../../libs/libDaisy/src/dev/mpr121.h ****     @date December 2021
  91:../../libs/libDaisy/src/dev/mpr121.h **** */
  92:../../libs/libDaisy/src/dev/mpr121.h **** template <typename Transport>
  93:../../libs/libDaisy/src/dev/mpr121.h **** class Mpr121
  94:../../libs/libDaisy/src/dev/mpr121.h **** {
  95:../../libs/libDaisy/src/dev/mpr121.h ****   public:
  96:../../libs/libDaisy/src/dev/mpr121.h ****     Mpr121() {}
  97:../../libs/libDaisy/src/dev/mpr121.h ****     ~Mpr121() {}
 135              		.loc 9 97 5 is_stmt 1 view -0
 136              		.cfi_startproc
 137              		@ args = 0, pretend = 0, frame = 0
 138              		@ frame_needed = 0, uses_anonymous_args = 0
 139              		@ link register save eliminated.
 140              	.LBB362:
 141              	.LBI362:
  21:../../libs/libDaisy/src/dev/mpr121.h **** 
 142              		.loc 9 21 5 view .LVU17
  21:../../libs/libDaisy/src/dev/mpr121.h **** 
 143              		.loc 9 21 5 is_stmt 0 view .LVU18
ARM GAS  C:\Users\skipi\AppData\Local\Temp\cc3AYCkc.s 			page 13


 144              	.LBE362:
 145              		.loc 9 97 16 view .LVU19
 146 0000 7047     		bx	lr
 147              		.cfi_endproc
 148              	.LFE5432:
 150              		.weak	_ZN5daisy6Mpr121INS_18Mpr121I2CTransportEED1Ev
 151              		.thumb_set _ZN5daisy6Mpr121INS_18Mpr121I2CTransportEED1Ev,_ZN5daisy6Mpr121INS_18Mpr121I2CTransport
 152 0002 00BF     		.section	.text._ZL13AudioCallbackPKfPfj,"ax",%progbits
 153              		.align	1
 154              		.p2align 2,,3
 155              		.syntax unified
 156              		.thumb
 157              		.thumb_func
 158              		.fpu fpv5-d16
 160              	_ZL13AudioCallbackPKfPfj:
 161              	.LVL4:
 162              	.LFB4848:
 163              		.file 10 "main.cpp"
   1:main.cpp      **** #include "../../libs/libDaisy/src/daisy_seed.h"
   2:main.cpp      **** #include "../../libs/DaisySP/Source/daisysp.h"
   3:main.cpp      **** #include "../../Classes/Temperamento/PlantConditioner.h"
   4:main.cpp      **** #include "../../Classes/Effects/AnalogDelay/src/AnalogDelay.h"
   5:main.cpp      **** 
   6:main.cpp      **** #ifndef _BV
   7:main.cpp      **** #define _BV(bit) (1 << (bit))
   8:main.cpp      **** #endif
   9:main.cpp      **** #define ADC_CH 2 // Numero di canali ADC da utilizzare
  10:main.cpp      **** #define DEBUG
  11:main.cpp      **** //#define csvAcquisition
  12:main.cpp      **** 
  13:main.cpp      **** 
  14:main.cpp      **** 
  15:main.cpp      **** using namespace daisy;
  16:main.cpp      **** using namespace daisysp;
  17:main.cpp      **** 
  18:main.cpp      **** daisy::Mpr121I2C::Config mpr121ObjConf; // creates config for mpr121 (constructor sets all to deafu
  19:main.cpp      **** daisy::Mpr121I2C cap;                   // creates object for mpr121ù
  20:main.cpp      **** 
  21:main.cpp      **** DaisySeed hw;
  22:main.cpp      **** AdcChannelConfig adcConfig[ADC_CH];
  23:main.cpp      **** 
  24:main.cpp      **** PlantConditioner pc;
  25:main.cpp      **** 
  26:main.cpp      **** static Oscillator osc;     
  27:main.cpp      **** float f = 0.0f;     
  28:main.cpp      **** bool gate = false;  
  29:main.cpp      **** ////////////////////////////////////////roba momentanea per notte ricercatori
  30:main.cpp      **** 
  31:main.cpp      **** static AnalogDelay delay; // delay effect
  32:main.cpp      **** 
  33:main.cpp      **** 
  34:main.cpp      **** ////////////////////////////////////////////////////////
  35:main.cpp      **** 
  36:main.cpp      **** bool flag = false; // used for debug printing
  37:main.cpp      **** int k = 0;        // used for debug printing
  38:main.cpp      **** 
  39:main.cpp      **** static Adsr env;
ARM GAS  C:\Users\skipi\AppData\Local\Temp\cc3AYCkc.s 			page 14


  40:main.cpp      **** 
  41:main.cpp      **** 
  42:main.cpp      **** uint16_t lastTouched = 0;                               // last touched value
  43:main.cpp      **** uint16_t currTouched = 0;                               // current touched value                   
  44:main.cpp      **** 
  45:main.cpp      **** 
  46:main.cpp      **** float output = 0.0f; // used to store the output value
  47:main.cpp      **** 
  48:main.cpp      **** static void AudioCallback(AudioHandle::InterleavingInputBuffer in, AudioHandle::InterleavingOutputB
  49:main.cpp      **** {
 164              		.loc 10 49 1 is_stmt 1 view -0
 165              		.cfi_startproc
 166              		@ args = 0, pretend = 0, frame = 0
 167              		@ frame_needed = 0, uses_anonymous_args = 0
  50:main.cpp      ****   float envOut, oscOut, wetOut;
 168              		.loc 10 50 3 view .LVU21
  51:main.cpp      ****   for (size_t i = 0; i < size; i += 2)
 169              		.loc 10 51 3 view .LVU22
 170              	.LBB363:
 171              		.loc 10 51 24 view .LVU23
 172 0000 12B3     		cbz	r2, .L14
 173 0002 013A     		subs	r2, r2, #1
 174              	.LVL5:
 175              		.loc 10 51 24 is_stmt 0 view .LVU24
 176              	.LBE363:
  49:main.cpp      ****   float envOut, oscOut, wetOut;
 177              		.loc 10 49 1 view .LVU25
 178 0004 2DE9F041 		push	{r4, r5, r6, r7, r8, lr}
 179              		.cfi_def_cfa_offset 24
 180              		.cfi_offset 4, -24
 181              		.cfi_offset 5, -20
 182              		.cfi_offset 6, -16
 183              		.cfi_offset 7, -12
 184              		.cfi_offset 8, -8
 185              		.cfi_offset 14, -4
 186 0008 0C46     		mov	r4, r1
 187              	.LBB368:
 188              		.loc 10 51 24 view .LVU26
 189 000a 0025     		movs	r5, #0
 190 000c DFF84880 		ldr	r8, .L17+12
 191 0010 5608     		lsrs	r6, r2, #1
 192 0012 0E4F     		ldr	r7, .L17
 193              	.LVL6:
 194              	.L8:
  52:main.cpp      ****   {
  53:main.cpp      **** 
  54:main.cpp      ****     envOut = env.Process(gate); 
 195              		.loc 10 54 5 is_stmt 1 discriminator 2 view .LVU27
 196              		.loc 10 54 25 is_stmt 0 discriminator 2 view .LVU28
 197 0014 98F80010 		ldrb	r1, [r8]	@ zero_extendqisi2
 198 0018 0D48     		ldr	r0, .L17+4
 199 001a FFF7FEFF 		bl	_ZN7daisysp4Adsr7ProcessEb
 200              	.LVL7:
  55:main.cpp      ****     osc.SetAmp(envOut);
 201              		.loc 10 55 5 is_stmt 1 discriminator 2 view .LVU29
 202              	.LBB364:
 203              	.LBI364:
ARM GAS  C:\Users\skipi\AppData\Local\Temp\cc3AYCkc.s 			page 15


  25:../../libs/DaisySP/Source/Synthesis/oscillator.h ****     /** Choices for output waveforms, POLYBLEP are appropriately labeled. Others are naive forms.
  26:../../libs/DaisySP/Source/Synthesis/oscillator.h ****     */
  27:../../libs/DaisySP/Source/Synthesis/oscillator.h ****     enum
  28:../../libs/DaisySP/Source/Synthesis/oscillator.h ****     {
  29:../../libs/DaisySP/Source/Synthesis/oscillator.h ****         WAVE_SIN,
  30:../../libs/DaisySP/Source/Synthesis/oscillator.h ****         WAVE_TRI,
  31:../../libs/DaisySP/Source/Synthesis/oscillator.h ****         WAVE_SAW,
  32:../../libs/DaisySP/Source/Synthesis/oscillator.h ****         WAVE_RAMP,
  33:../../libs/DaisySP/Source/Synthesis/oscillator.h ****         WAVE_SQUARE,
  34:../../libs/DaisySP/Source/Synthesis/oscillator.h ****         WAVE_POLYBLEP_TRI,
  35:../../libs/DaisySP/Source/Synthesis/oscillator.h ****         WAVE_POLYBLEP_SAW,
  36:../../libs/DaisySP/Source/Synthesis/oscillator.h ****         WAVE_POLYBLEP_SQUARE,
  37:../../libs/DaisySP/Source/Synthesis/oscillator.h ****         WAVE_LAST,
  38:../../libs/DaisySP/Source/Synthesis/oscillator.h ****     };
  39:../../libs/DaisySP/Source/Synthesis/oscillator.h **** 
  40:../../libs/DaisySP/Source/Synthesis/oscillator.h **** 
  41:../../libs/DaisySP/Source/Synthesis/oscillator.h ****     /** Initializes the Oscillator
  42:../../libs/DaisySP/Source/Synthesis/oscillator.h **** 
  43:../../libs/DaisySP/Source/Synthesis/oscillator.h ****         \param sample_rate - sample rate of the audio engine being run, and the frequency that the 
  44:../../libs/DaisySP/Source/Synthesis/oscillator.h **** 
  45:../../libs/DaisySP/Source/Synthesis/oscillator.h ****         Defaults:
  46:../../libs/DaisySP/Source/Synthesis/oscillator.h ****         - freq_ = 100 Hz
  47:../../libs/DaisySP/Source/Synthesis/oscillator.h ****         - amp_ = 0.5
  48:../../libs/DaisySP/Source/Synthesis/oscillator.h ****         - waveform_ = sine wave.
  49:../../libs/DaisySP/Source/Synthesis/oscillator.h ****     */
  50:../../libs/DaisySP/Source/Synthesis/oscillator.h ****     void Init(float sample_rate)
  51:../../libs/DaisySP/Source/Synthesis/oscillator.h ****     {
  52:../../libs/DaisySP/Source/Synthesis/oscillator.h ****         sr_        = sample_rate;
  53:../../libs/DaisySP/Source/Synthesis/oscillator.h ****         sr_recip_  = 1.0f / sample_rate;
  54:../../libs/DaisySP/Source/Synthesis/oscillator.h ****         freq_      = 100.0f;
  55:../../libs/DaisySP/Source/Synthesis/oscillator.h ****         amp_       = 0.5f;
  56:../../libs/DaisySP/Source/Synthesis/oscillator.h ****         pw_        = 0.5f;
  57:../../libs/DaisySP/Source/Synthesis/oscillator.h ****         phase_     = 0.0f;
  58:../../libs/DaisySP/Source/Synthesis/oscillator.h ****         phase_inc_ = CalcPhaseInc(freq_);
  59:../../libs/DaisySP/Source/Synthesis/oscillator.h ****         waveform_  = WAVE_SIN;
  60:../../libs/DaisySP/Source/Synthesis/oscillator.h ****         eoc_       = true;
  61:../../libs/DaisySP/Source/Synthesis/oscillator.h ****         eor_       = true;
  62:../../libs/DaisySP/Source/Synthesis/oscillator.h ****     }
  63:../../libs/DaisySP/Source/Synthesis/oscillator.h **** 
  64:../../libs/DaisySP/Source/Synthesis/oscillator.h **** 
  65:../../libs/DaisySP/Source/Synthesis/oscillator.h ****     /** Changes the frequency of the Oscillator, and recalculates phase increment.
  66:../../libs/DaisySP/Source/Synthesis/oscillator.h ****     */
  67:../../libs/DaisySP/Source/Synthesis/oscillator.h ****     inline void SetFreq(const float f)
  68:../../libs/DaisySP/Source/Synthesis/oscillator.h ****     {
  69:../../libs/DaisySP/Source/Synthesis/oscillator.h ****         freq_      = f;
  70:../../libs/DaisySP/Source/Synthesis/oscillator.h ****         phase_inc_ = CalcPhaseInc(f);
  71:../../libs/DaisySP/Source/Synthesis/oscillator.h ****     }
  72:../../libs/DaisySP/Source/Synthesis/oscillator.h **** 
  73:../../libs/DaisySP/Source/Synthesis/oscillator.h **** 
  74:../../libs/DaisySP/Source/Synthesis/oscillator.h ****     /** Sets the amplitude of the waveform.
  75:../../libs/DaisySP/Source/Synthesis/oscillator.h ****     */
  76:../../libs/DaisySP/Source/Synthesis/oscillator.h ****     inline void SetAmp(const float a) { amp_ = a; }
 204              		.loc 8 76 17 discriminator 2 view .LVU30
 205              	.LBB365:
 206              		.loc 8 76 41 discriminator 2 view .LVU31
 207              	.LBE365:
 208              	.LBE364:
ARM GAS  C:\Users\skipi\AppData\Local\Temp\cc3AYCkc.s 			page 16


  56:main.cpp      **** 
  57:main.cpp      ****     oscOut = osc.Process();
 209              		.loc 10 57 25 is_stmt 0 discriminator 2 view .LVU32
 210 001e 0B48     		ldr	r0, .L17
 211              	.LBB367:
 212              	.LBB366:
 213              		.loc 8 76 46 discriminator 2 view .LVU33
 214 0020 87ED010A 		vstr.32	s0, [r7, #4]
 215              	.LVL8:
 216              		.loc 8 76 46 discriminator 2 view .LVU34
 217              	.LBE366:
 218              	.LBE367:
 219              		.loc 10 57 5 is_stmt 1 discriminator 2 view .LVU35
 220              		.loc 10 57 25 is_stmt 0 discriminator 2 view .LVU36
 221 0024 FFF7FEFF 		bl	_ZN7daisysp10Oscillator7ProcessEv
 222              	.LVL9:
  58:main.cpp      ****     wetOut = delay.Process(oscOut);
 223              		.loc 10 58 5 is_stmt 1 discriminator 2 view .LVU37
 224              		.loc 10 58 27 is_stmt 0 discriminator 2 view .LVU38
 225 0028 0A48     		ldr	r0, .L17+8
 226 002a FFF7FEFF 		bl	_ZN11AnalogDelay7ProcessEf
 227              	.LVL10:
  59:main.cpp      ****     out[i] = out[i + 1] = wetOut;               // outputs the same value to left and right channel
 228              		.loc 10 59 5 is_stmt 1 discriminator 2 view .LVU39
 229              		.loc 10 59 12 is_stmt 0 discriminator 2 view .LVU40
 230 002e 2246     		mov	r2, r4
  51:main.cpp      ****   {
 231              		.loc 10 51 24 discriminator 2 view .LVU41
 232 0030 AE42     		cmp	r6, r5
 233              		.loc 10 59 25 discriminator 2 view .LVU42
 234 0032 84ED010A 		vstr.32	s0, [r4, #4]
  51:main.cpp      ****   {
 235              		.loc 10 51 24 discriminator 2 view .LVU43
 236 0036 05F10105 		add	r5, r5, #1
 237              	.LVL11:
 238              		.loc 10 59 12 discriminator 2 view .LVU44
 239 003a 04F10804 		add	r4, r4, #8
 240 003e 82ED000A 		vstr.32	s0, [r2]
  51:main.cpp      ****   {
 241              		.loc 10 51 3 is_stmt 1 discriminator 2 view .LVU45
 242              	.LVL12:
  51:main.cpp      ****   {
 243              		.loc 10 51 24 discriminator 2 view .LVU46
 244 0042 E7D1     		bne	.L8
 245              	.LBE368:
  60:main.cpp      ****   }
  61:main.cpp      **** }
 246              		.loc 10 61 1 is_stmt 0 view .LVU47
 247 0044 BDE8F081 		pop	{r4, r5, r6, r7, r8, pc}
 248              	.LVL13:
 249              	.L14:
 250              		.cfi_def_cfa_offset 0
 251              		.cfi_restore 4
 252              		.cfi_restore 5
 253              		.cfi_restore 6
 254              		.cfi_restore 7
 255              		.cfi_restore 8
ARM GAS  C:\Users\skipi\AppData\Local\Temp\cc3AYCkc.s 			page 17


 256              		.cfi_restore 14
 257              		.loc 10 61 1 view .LVU48
 258 0048 7047     		bx	lr
 259              	.L18:
 260 004a 00BF     		.align	2
 261              	.L17:
 262 004c 00000000 		.word	.LANCHOR2
 263 0050 00000000 		.word	.LANCHOR1
 264 0054 00000000 		.word	_ZL5delay
 265 0058 00000000 		.word	.LANCHOR0
 266              		.cfi_endproc
 267              	.LFE4848:
 269              		.section	.text._ZN5daisy6Mpr121INS_18Mpr121I2CTransportEE13WriteRegisterEhh,"axG",%progbits,_ZN5da
 270              		.align	1
 271              		.p2align 2,,3
 272              		.weak	_ZN5daisy6Mpr121INS_18Mpr121I2CTransportEE13WriteRegisterEhh
 273              		.syntax unified
 274              		.thumb
 275              		.thumb_func
 276              		.fpu fpv5-d16
 278              	_ZN5daisy6Mpr121INS_18Mpr121I2CTransportEE13WriteRegisterEhh:
 279              	.LVL14:
 280              	.LFB5286:
  98:../../libs/libDaisy/src/dev/mpr121.h **** 
  99:../../libs/libDaisy/src/dev/mpr121.h ****     struct Config
 100:../../libs/libDaisy/src/dev/mpr121.h ****     {
 101:../../libs/libDaisy/src/dev/mpr121.h ****         typename Transport::Config transport_config;
 102:../../libs/libDaisy/src/dev/mpr121.h ****         uint8_t                    touch_threshold;
 103:../../libs/libDaisy/src/dev/mpr121.h ****         uint8_t                    release_threshold;
 104:../../libs/libDaisy/src/dev/mpr121.h **** 
 105:../../libs/libDaisy/src/dev/mpr121.h ****         Config()
 106:../../libs/libDaisy/src/dev/mpr121.h ****         {
 107:../../libs/libDaisy/src/dev/mpr121.h ****             touch_threshold   = MPR121_TOUCH_THRESHOLD_DEFAULT;
 108:../../libs/libDaisy/src/dev/mpr121.h ****             release_threshold = MPR121_RELEASE_THRESHOLD_DEFAULT;
 109:../../libs/libDaisy/src/dev/mpr121.h ****         }
 110:../../libs/libDaisy/src/dev/mpr121.h ****     };
 111:../../libs/libDaisy/src/dev/mpr121.h **** 
 112:../../libs/libDaisy/src/dev/mpr121.h ****     enum Result
 113:../../libs/libDaisy/src/dev/mpr121.h ****     {
 114:../../libs/libDaisy/src/dev/mpr121.h ****         OK = 0,
 115:../../libs/libDaisy/src/dev/mpr121.h ****         ERR
 116:../../libs/libDaisy/src/dev/mpr121.h ****     };
 117:../../libs/libDaisy/src/dev/mpr121.h **** 
 118:../../libs/libDaisy/src/dev/mpr121.h ****     /** Initialize the MPR121 device
 119:../../libs/libDaisy/src/dev/mpr121.h ****         \param config Configuration settings
 120:../../libs/libDaisy/src/dev/mpr121.h ****     */
 121:../../libs/libDaisy/src/dev/mpr121.h ****     Result Init(Config config)
 122:../../libs/libDaisy/src/dev/mpr121.h ****     {
 123:../../libs/libDaisy/src/dev/mpr121.h ****         config_ = config;
 124:../../libs/libDaisy/src/dev/mpr121.h **** 
 125:../../libs/libDaisy/src/dev/mpr121.h ****         SetTransportErr(transport_.Init(config_.transport_config));
 126:../../libs/libDaisy/src/dev/mpr121.h **** 
 127:../../libs/libDaisy/src/dev/mpr121.h ****         // soft reset
 128:../../libs/libDaisy/src/dev/mpr121.h ****         WriteRegister(MPR121_SOFTRESET, 0x63);
 129:../../libs/libDaisy/src/dev/mpr121.h ****         System::Delay(1);
 130:../../libs/libDaisy/src/dev/mpr121.h **** 
 131:../../libs/libDaisy/src/dev/mpr121.h ****         WriteRegister(MPR121_ECR, 0x0);
ARM GAS  C:\Users\skipi\AppData\Local\Temp\cc3AYCkc.s 			page 18


 132:../../libs/libDaisy/src/dev/mpr121.h **** 
 133:../../libs/libDaisy/src/dev/mpr121.h ****         // this doesn't work for some reason...
 134:../../libs/libDaisy/src/dev/mpr121.h ****         // uint8_t c = ReadRegister8(MPR121_CONFIG2);
 135:../../libs/libDaisy/src/dev/mpr121.h **** 
 136:../../libs/libDaisy/src/dev/mpr121.h ****         // if(c != 0x24)
 137:../../libs/libDaisy/src/dev/mpr121.h ****         //     return ERR;
 138:../../libs/libDaisy/src/dev/mpr121.h **** 
 139:../../libs/libDaisy/src/dev/mpr121.h ****         SetThresholds(config_.touch_threshold, config_.release_threshold);
 140:../../libs/libDaisy/src/dev/mpr121.h ****         WriteRegister(MPR121_MHDR, 0x01);
 141:../../libs/libDaisy/src/dev/mpr121.h ****         WriteRegister(MPR121_NHDR, 0x01);
 142:../../libs/libDaisy/src/dev/mpr121.h ****         WriteRegister(MPR121_NCLR, 0x0E);
 143:../../libs/libDaisy/src/dev/mpr121.h ****         WriteRegister(MPR121_FDLR, 0x00);
 144:../../libs/libDaisy/src/dev/mpr121.h **** 
 145:../../libs/libDaisy/src/dev/mpr121.h ****         WriteRegister(MPR121_MHDF, 0x01);
 146:../../libs/libDaisy/src/dev/mpr121.h ****         WriteRegister(MPR121_NHDF, 0x05);
 147:../../libs/libDaisy/src/dev/mpr121.h ****         WriteRegister(MPR121_NCLF, 0x01);
 148:../../libs/libDaisy/src/dev/mpr121.h ****         WriteRegister(MPR121_FDLF, 0x00);
 149:../../libs/libDaisy/src/dev/mpr121.h **** 
 150:../../libs/libDaisy/src/dev/mpr121.h ****         WriteRegister(MPR121_NHDT, 0x00);
 151:../../libs/libDaisy/src/dev/mpr121.h ****         WriteRegister(MPR121_NCLT, 0x00);
 152:../../libs/libDaisy/src/dev/mpr121.h ****         WriteRegister(MPR121_FDLT, 0x00);
 153:../../libs/libDaisy/src/dev/mpr121.h **** 
 154:../../libs/libDaisy/src/dev/mpr121.h ****         WriteRegister(MPR121_DEBOUNCE, 0);
 155:../../libs/libDaisy/src/dev/mpr121.h ****         WriteRegister(MPR121_CONFIG1, 0x10); // default, 16uA charge current
 156:../../libs/libDaisy/src/dev/mpr121.h ****         WriteRegister(MPR121_CONFIG2, 0x20); // 0.5uS encoding, 1ms period
 157:../../libs/libDaisy/src/dev/mpr121.h **** 
 158:../../libs/libDaisy/src/dev/mpr121.h ****         // autoconfig
 159:../../libs/libDaisy/src/dev/mpr121.h ****         // WriteRegister(MPR121_AUTOCONFIG0, 0x0B);
 160:../../libs/libDaisy/src/dev/mpr121.h **** 
 161:../../libs/libDaisy/src/dev/mpr121.h ****         // correct values for Vdd = 3.3V
 162:../../libs/libDaisy/src/dev/mpr121.h ****         // WriteRegister(MPR121_UPLIMIT, 200);     // ((Vdd - 0.7)/Vdd) * 256
 163:../../libs/libDaisy/src/dev/mpr121.h ****         // WriteRegister(MPR121_TARGETLIMIT, 180); // UPLIMIT * 0.9
 164:../../libs/libDaisy/src/dev/mpr121.h ****         // WriteRegister(MPR121_LOWLIMIT, 130);    // UPLIMIT * 0.65
 165:../../libs/libDaisy/src/dev/mpr121.h ****         // autoconfig
 166:../../libs/libDaisy/src/dev/mpr121.h **** 
 167:../../libs/libDaisy/src/dev/mpr121.h ****         // enable X electrodes and start MPR121
 168:../../libs/libDaisy/src/dev/mpr121.h ****         uint8_t ECR_SETTING
 169:../../libs/libDaisy/src/dev/mpr121.h ****             = 0x80
 170:../../libs/libDaisy/src/dev/mpr121.h ****               + 12; // 5 bits for baseline tracking & proximity disabled + X
 171:../../libs/libDaisy/src/dev/mpr121.h ****                     // amount of electrodes running (12)
 172:../../libs/libDaisy/src/dev/mpr121.h ****         WriteRegister(MPR121_ECR,
 173:../../libs/libDaisy/src/dev/mpr121.h ****                       ECR_SETTING); // start with above ECR setting
 174:../../libs/libDaisy/src/dev/mpr121.h **** 
 175:../../libs/libDaisy/src/dev/mpr121.h ****         return GetTransportErr();
 176:../../libs/libDaisy/src/dev/mpr121.h ****     }
 177:../../libs/libDaisy/src/dev/mpr121.h **** 
 178:../../libs/libDaisy/src/dev/mpr121.h ****     /** Set the touch and release thresholds for all 13 channels on the
 179:../../libs/libDaisy/src/dev/mpr121.h ****         device to the passed values.
 180:../../libs/libDaisy/src/dev/mpr121.h ****         \param      touch The touch threshold value from 0 to 255.
 181:../../libs/libDaisy/src/dev/mpr121.h ****         \param      release The release threshold from 0 to 255.
 182:../../libs/libDaisy/src/dev/mpr121.h ****     */
 183:../../libs/libDaisy/src/dev/mpr121.h ****     void SetThresholds(uint8_t touch, uint8_t release)
 184:../../libs/libDaisy/src/dev/mpr121.h ****     {
 185:../../libs/libDaisy/src/dev/mpr121.h ****         // set all thresholds (the same)
 186:../../libs/libDaisy/src/dev/mpr121.h ****         for(uint8_t i = 0; i < 12; i++)
 187:../../libs/libDaisy/src/dev/mpr121.h ****         {
 188:../../libs/libDaisy/src/dev/mpr121.h ****             WriteRegister(MPR121_TOUCHTH_0 + 2 * i, touch);
ARM GAS  C:\Users\skipi\AppData\Local\Temp\cc3AYCkc.s 			page 19


 189:../../libs/libDaisy/src/dev/mpr121.h ****             WriteRegister(MPR121_RELEASETH_0 + 2 * i, release);
 190:../../libs/libDaisy/src/dev/mpr121.h ****         }
 191:../../libs/libDaisy/src/dev/mpr121.h ****     }
 192:../../libs/libDaisy/src/dev/mpr121.h **** 
 193:../../libs/libDaisy/src/dev/mpr121.h **** 
 194:../../libs/libDaisy/src/dev/mpr121.h ****     /** Read the filtered data from channel t. The ADC raw data outputs
 195:../../libs/libDaisy/src/dev/mpr121.h ****         run through 3 levels of digital filtering to filter out the high
 196:../../libs/libDaisy/src/dev/mpr121.h ****         frequency and low frequency noise encountered. For detailed information on
 197:../../libs/libDaisy/src/dev/mpr121.h ****         this filtering see page 6 of the device datasheet.
 198:../../libs/libDaisy/src/dev/mpr121.h ****         \param      t the channel to read
 199:../../libs/libDaisy/src/dev/mpr121.h ****         \returns    the filtered reading as a 10 bit unsigned value
 200:../../libs/libDaisy/src/dev/mpr121.h ****     */
 201:../../libs/libDaisy/src/dev/mpr121.h ****     uint16_t FilteredData(uint8_t t)
 202:../../libs/libDaisy/src/dev/mpr121.h ****     {
 203:../../libs/libDaisy/src/dev/mpr121.h ****         if(t > 12)
 204:../../libs/libDaisy/src/dev/mpr121.h ****             return 0;
 205:../../libs/libDaisy/src/dev/mpr121.h ****         return ReadRegister16(MPR121_FILTDATA_0L + t * 2);
 206:../../libs/libDaisy/src/dev/mpr121.h ****     }
 207:../../libs/libDaisy/src/dev/mpr121.h **** 
 208:../../libs/libDaisy/src/dev/mpr121.h ****     /** Read the baseline value for the channel. The 3rd level filtered
 209:../../libs/libDaisy/src/dev/mpr121.h ****         result is internally 10bit but only high 8 bits are readable
 210:../../libs/libDaisy/src/dev/mpr121.h ****         from registers 0x1E~0x2A as the baseline value output for each channel.
 211:../../libs/libDaisy/src/dev/mpr121.h ****         \param      t the channel to read.
 212:../../libs/libDaisy/src/dev/mpr121.h ****         \returns    the baseline data that was read
 213:../../libs/libDaisy/src/dev/mpr121.h ****     */
 214:../../libs/libDaisy/src/dev/mpr121.h ****     uint16_t BaselineData(uint8_t t)
 215:../../libs/libDaisy/src/dev/mpr121.h ****     {
 216:../../libs/libDaisy/src/dev/mpr121.h ****         if(t > 12)
 217:../../libs/libDaisy/src/dev/mpr121.h ****             return 0;
 218:../../libs/libDaisy/src/dev/mpr121.h ****         uint16_t bl = ReadRegister8(MPR121_BASELINE_0 + t);
 219:../../libs/libDaisy/src/dev/mpr121.h ****         return (bl << 2);
 220:../../libs/libDaisy/src/dev/mpr121.h ****     }
 221:../../libs/libDaisy/src/dev/mpr121.h **** 
 222:../../libs/libDaisy/src/dev/mpr121.h ****     /** Read the touch status of all 13 channels as bit values in a 12 bit integer.
 223:../../libs/libDaisy/src/dev/mpr121.h ****         \returns    a 12 bit integer with each bit corresponding to the touch status
 224:../../libs/libDaisy/src/dev/mpr121.h ****         of a sensor. For example, if bit 0 is set then channel 0 of the
 225:../../libs/libDaisy/src/dev/mpr121.h ****         device is currently deemed to be touched.
 226:../../libs/libDaisy/src/dev/mpr121.h ****     */
 227:../../libs/libDaisy/src/dev/mpr121.h ****     uint16_t Touched()
 228:../../libs/libDaisy/src/dev/mpr121.h ****     {
 229:../../libs/libDaisy/src/dev/mpr121.h ****         uint16_t t = ReadRegister16(MPR121_TOUCHSTATUS_L);
 230:../../libs/libDaisy/src/dev/mpr121.h ****         return t & 0x0FFF;
 231:../../libs/libDaisy/src/dev/mpr121.h ****     }
 232:../../libs/libDaisy/src/dev/mpr121.h **** 
 233:../../libs/libDaisy/src/dev/mpr121.h ****     /** Read the contents of an 8 bit device register.
 234:../../libs/libDaisy/src/dev/mpr121.h ****         \param      reg the register address to read from
 235:../../libs/libDaisy/src/dev/mpr121.h ****         \returns    the 8 bit value that was read.
 236:../../libs/libDaisy/src/dev/mpr121.h ****     */
 237:../../libs/libDaisy/src/dev/mpr121.h ****     uint8_t ReadRegister8(uint8_t reg)
 238:../../libs/libDaisy/src/dev/mpr121.h ****     {
 239:../../libs/libDaisy/src/dev/mpr121.h ****         uint8_t buff;
 240:../../libs/libDaisy/src/dev/mpr121.h ****         SetTransportErr(transport_.ReadMem(&buff, reg, 1));
 241:../../libs/libDaisy/src/dev/mpr121.h ****         return buff;
 242:../../libs/libDaisy/src/dev/mpr121.h ****     }
 243:../../libs/libDaisy/src/dev/mpr121.h **** 
 244:../../libs/libDaisy/src/dev/mpr121.h ****     uint16_t ReadRegister16(uint8_t reg)
 245:../../libs/libDaisy/src/dev/mpr121.h ****     {
ARM GAS  C:\Users\skipi\AppData\Local\Temp\cc3AYCkc.s 			page 20


 246:../../libs/libDaisy/src/dev/mpr121.h ****         uint16_t buff;
 247:../../libs/libDaisy/src/dev/mpr121.h ****         SetTransportErr(transport_.ReadMem((uint8_t *)&buff, reg, 2));
 248:../../libs/libDaisy/src/dev/mpr121.h **** 
 249:../../libs/libDaisy/src/dev/mpr121.h **** 
 250:../../libs/libDaisy/src/dev/mpr121.h ****         return buff;
 251:../../libs/libDaisy/src/dev/mpr121.h ****     }
 252:../../libs/libDaisy/src/dev/mpr121.h **** 
 253:../../libs/libDaisy/src/dev/mpr121.h ****     /** Writes 8-bits to the specified destination register
 254:../../libs/libDaisy/src/dev/mpr121.h ****         \param  reg the register address to write to
 255:../../libs/libDaisy/src/dev/mpr121.h ****         \param  value the value to write
 256:../../libs/libDaisy/src/dev/mpr121.h ****     */
 257:../../libs/libDaisy/src/dev/mpr121.h ****     void WriteRegister(uint8_t reg, uint8_t value)
 281              		.loc 9 257 10 is_stmt 1 view -0
 282              		.cfi_startproc
 283              		@ args = 0, pretend = 0, frame = 8
 284              		@ frame_needed = 0, uses_anonymous_args = 0
 285              		.loc 9 257 10 is_stmt 0 view .LVU50
 286 0000 2DE9F043 		push	{r4, r5, r6, r7, r8, r9, lr}
 287              		.cfi_def_cfa_offset 28
 288              		.cfi_offset 4, -28
 289              		.cfi_offset 5, -24
 290              		.cfi_offset 6, -20
 291              		.cfi_offset 7, -16
 292              		.cfi_offset 8, -12
 293              		.cfi_offset 9, -8
 294              		.cfi_offset 14, -4
 258:../../libs/libDaisy/src/dev/mpr121.h ****     {
 259:../../libs/libDaisy/src/dev/mpr121.h ****         // MPR121 must be put in Stop Mode to write to most registers
 260:../../libs/libDaisy/src/dev/mpr121.h ****         bool stop_required = true;
 261:../../libs/libDaisy/src/dev/mpr121.h **** 
 262:../../libs/libDaisy/src/dev/mpr121.h ****         // first get the current set value of the MPR121_ECR register
 263:../../libs/libDaisy/src/dev/mpr121.h ****         uint8_t ecr_reg = MPR121_ECR;
 264:../../libs/libDaisy/src/dev/mpr121.h ****         uint8_t buff[2] = {ecr_reg, 0x00};
 295              		.loc 9 264 17 view .LVU51
 296 0004 0023     		movs	r3, #0
 257:../../libs/libDaisy/src/dev/mpr121.h ****     {
 297              		.loc 9 257 10 view .LVU52
 298 0006 85B0     		sub	sp, sp, #20
 299              		.cfi_def_cfa_offset 48
 300              	.LBB399:
 301              	.LBB400:
  66:../../libs/libDaisy/src/dev/mpr121.h ****     }
 302              		.loc 9 66 40 view .LVU53
 303 0008 00F11806 		add	r6, r0, #24
 304 000c 4FF00A08 		mov	r8, #10
 305              	.LBE400:
 306              	.LBE399:
 257:../../libs/libDaisy/src/dev/mpr121.h ****     {
 307              		.loc 9 257 10 view .LVU54
 308 0010 0446     		mov	r4, r0
 309              		.loc 9 264 17 view .LVU55
 310 0012 4FF05E09 		mov	r9, #94
 257:../../libs/libDaisy/src/dev/mpr121.h ****     {
 311              		.loc 9 257 10 view .LVU56
 312 0016 0D46     		mov	r5, r1
 313              		.loc 9 264 17 view .LVU57
 314 0018 8DF80D30 		strb	r3, [sp, #13]
ARM GAS  C:\Users\skipi\AppData\Local\Temp\cc3AYCkc.s 			page 21


 315              	.LBB404:
 316              	.LBB401:
  66:../../libs/libDaisy/src/dev/mpr121.h ****     }
 317              		.loc 9 66 40 view .LVU58
 318 001c CDF80080 		str	r8, [sp]
 319 0020 0123     		movs	r3, #1
 320 0022 90F82C10 		ldrb	r1, [r0, #44]	@ zero_extendqisi2
 321              	.LVL15:
  66:../../libs/libDaisy/src/dev/mpr121.h ****     }
 322              		.loc 9 66 40 view .LVU59
 323              	.LBE401:
 324              	.LBE404:
 257:../../libs/libDaisy/src/dev/mpr121.h ****     {
 325              		.loc 9 257 10 view .LVU60
 326 0026 1746     		mov	r7, r2
 327              	.LBB405:
 328              	.LBB402:
  66:../../libs/libDaisy/src/dev/mpr121.h ****     }
 329              		.loc 9 66 40 view .LVU61
 330 0028 3046     		mov	r0, r6
 331              	.LVL16:
  66:../../libs/libDaisy/src/dev/mpr121.h ****     }
 332              		.loc 9 66 40 view .LVU62
 333 002a 03AA     		add	r2, sp, #12
 334              	.LVL17:
  66:../../libs/libDaisy/src/dev/mpr121.h ****     }
 335              		.loc 9 66 40 view .LVU63
 336              	.LBE402:
 337              	.LBE405:
 338              		.loc 9 264 17 view .LVU64
 339 002c 8DF80C90 		strb	r9, [sp, #12]
 340              	.LVL18:
 341              	.LBB406:
 342              	.LBI399:
  63:../../libs/libDaisy/src/dev/mpr121.h ****     {
 343              		.loc 9 63 10 is_stmt 1 view .LVU65
 344              	.LBB403:
  65:../../libs/libDaisy/src/dev/mpr121.h ****                != i2c_.TransmitBlocking(config_.dev_addr, data, size, 10);
 345              		.loc 9 65 9 view .LVU66
  66:../../libs/libDaisy/src/dev/mpr121.h ****     }
 346              		.loc 9 66 40 is_stmt 0 view .LVU67
 347 0030 FFF7FEFF 		bl	_ZN5daisy9I2CHandle16TransmitBlockingEtPhtm
 348              	.LVL19:
  66:../../libs/libDaisy/src/dev/mpr121.h ****     }
 349              		.loc 9 66 40 view .LVU68
 350              	.LBE403:
 351              	.LBE406:
 352              	.LBB407:
 353              	.LBI407:
 265:../../libs/libDaisy/src/dev/mpr121.h **** 
 266:../../libs/libDaisy/src/dev/mpr121.h ****         SetTransportErr(transport_.Write(buff, 1));
 267:../../libs/libDaisy/src/dev/mpr121.h **** 
 268:../../libs/libDaisy/src/dev/mpr121.h ****         uint8_t ecr_backup;
 269:../../libs/libDaisy/src/dev/mpr121.h ****         SetTransportErr(transport_.Read(&ecr_backup, 1));
 270:../../libs/libDaisy/src/dev/mpr121.h ****         if((reg == MPR121_ECR) || ((0x73 <= reg) && (reg <= 0x7A)))
 271:../../libs/libDaisy/src/dev/mpr121.h ****         {
 272:../../libs/libDaisy/src/dev/mpr121.h ****             stop_required = false;
ARM GAS  C:\Users\skipi\AppData\Local\Temp\cc3AYCkc.s 			page 22


 273:../../libs/libDaisy/src/dev/mpr121.h ****         }
 274:../../libs/libDaisy/src/dev/mpr121.h **** 
 275:../../libs/libDaisy/src/dev/mpr121.h ****         if(stop_required)
 276:../../libs/libDaisy/src/dev/mpr121.h ****         {
 277:../../libs/libDaisy/src/dev/mpr121.h ****             // clear this register to set stop mode
 278:../../libs/libDaisy/src/dev/mpr121.h ****             SetTransportErr(transport_.Write(buff, 2));
 279:../../libs/libDaisy/src/dev/mpr121.h ****         }
 280:../../libs/libDaisy/src/dev/mpr121.h **** 
 281:../../libs/libDaisy/src/dev/mpr121.h ****         buff[0] = reg;
 282:../../libs/libDaisy/src/dev/mpr121.h ****         buff[1] = value;
 283:../../libs/libDaisy/src/dev/mpr121.h ****         SetTransportErr(transport_.Write(buff, 2));
 284:../../libs/libDaisy/src/dev/mpr121.h **** 
 285:../../libs/libDaisy/src/dev/mpr121.h ****         if(stop_required)
 286:../../libs/libDaisy/src/dev/mpr121.h ****         {
 287:../../libs/libDaisy/src/dev/mpr121.h ****             // write back the previous set ECR settings
 288:../../libs/libDaisy/src/dev/mpr121.h ****             buff[0] = ecr_reg;
 289:../../libs/libDaisy/src/dev/mpr121.h ****             buff[1] = ecr_backup;
 290:../../libs/libDaisy/src/dev/mpr121.h ****             SetTransportErr(transport_.Write(buff, 2));
 291:../../libs/libDaisy/src/dev/mpr121.h ****         }
 292:../../libs/libDaisy/src/dev/mpr121.h ****     }
 293:../../libs/libDaisy/src/dev/mpr121.h **** 
 294:../../libs/libDaisy/src/dev/mpr121.h ****     /** Device register map */
 295:../../libs/libDaisy/src/dev/mpr121.h ****     enum RegMap
 296:../../libs/libDaisy/src/dev/mpr121.h ****     {
 297:../../libs/libDaisy/src/dev/mpr121.h ****         MPR121_TOUCHSTATUS_L = 0x00,
 298:../../libs/libDaisy/src/dev/mpr121.h ****         MPR121_TOUCHSTATUS_H = 0x01,
 299:../../libs/libDaisy/src/dev/mpr121.h ****         MPR121_FILTDATA_0L   = 0x04,
 300:../../libs/libDaisy/src/dev/mpr121.h ****         MPR121_FILTDATA_0H   = 0x05,
 301:../../libs/libDaisy/src/dev/mpr121.h ****         MPR121_BASELINE_0    = 0x1E,
 302:../../libs/libDaisy/src/dev/mpr121.h ****         MPR121_MHDR          = 0x2B,
 303:../../libs/libDaisy/src/dev/mpr121.h ****         MPR121_NHDR          = 0x2C,
 304:../../libs/libDaisy/src/dev/mpr121.h ****         MPR121_NCLR          = 0x2D,
 305:../../libs/libDaisy/src/dev/mpr121.h ****         MPR121_FDLR          = 0x2E,
 306:../../libs/libDaisy/src/dev/mpr121.h ****         MPR121_MHDF          = 0x2F,
 307:../../libs/libDaisy/src/dev/mpr121.h ****         MPR121_NHDF          = 0x30,
 308:../../libs/libDaisy/src/dev/mpr121.h ****         MPR121_NCLF          = 0x31,
 309:../../libs/libDaisy/src/dev/mpr121.h ****         MPR121_FDLF          = 0x32,
 310:../../libs/libDaisy/src/dev/mpr121.h ****         MPR121_NHDT          = 0x33,
 311:../../libs/libDaisy/src/dev/mpr121.h ****         MPR121_NCLT          = 0x34,
 312:../../libs/libDaisy/src/dev/mpr121.h ****         MPR121_FDLT          = 0x35,
 313:../../libs/libDaisy/src/dev/mpr121.h **** 
 314:../../libs/libDaisy/src/dev/mpr121.h ****         MPR121_TOUCHTH_0    = 0x41,
 315:../../libs/libDaisy/src/dev/mpr121.h ****         MPR121_RELEASETH_0  = 0x42,
 316:../../libs/libDaisy/src/dev/mpr121.h ****         MPR121_DEBOUNCE     = 0x5B,
 317:../../libs/libDaisy/src/dev/mpr121.h ****         MPR121_CONFIG1      = 0x5C,
 318:../../libs/libDaisy/src/dev/mpr121.h ****         MPR121_CONFIG2      = 0x5D,
 319:../../libs/libDaisy/src/dev/mpr121.h ****         MPR121_CHARGECURR_0 = 0x5F,
 320:../../libs/libDaisy/src/dev/mpr121.h ****         MPR121_CHARGETIME_1 = 0x6C,
 321:../../libs/libDaisy/src/dev/mpr121.h ****         MPR121_ECR          = 0x5E,
 322:../../libs/libDaisy/src/dev/mpr121.h ****         MPR121_AUTOCONFIG0  = 0x7B,
 323:../../libs/libDaisy/src/dev/mpr121.h ****         MPR121_AUTOCONFIG1  = 0x7C,
 324:../../libs/libDaisy/src/dev/mpr121.h ****         MPR121_UPLIMIT      = 0x7D,
 325:../../libs/libDaisy/src/dev/mpr121.h ****         MPR121_LOWLIMIT     = 0x7E,
 326:../../libs/libDaisy/src/dev/mpr121.h ****         MPR121_TARGETLIMIT  = 0x7F,
 327:../../libs/libDaisy/src/dev/mpr121.h **** 
 328:../../libs/libDaisy/src/dev/mpr121.h ****         MPR121_GPIODIR    = 0x76,
 329:../../libs/libDaisy/src/dev/mpr121.h ****         MPR121_GPIOEN     = 0x77,
ARM GAS  C:\Users\skipi\AppData\Local\Temp\cc3AYCkc.s 			page 23


 330:../../libs/libDaisy/src/dev/mpr121.h ****         MPR121_GPIOSET    = 0x78,
 331:../../libs/libDaisy/src/dev/mpr121.h ****         MPR121_GPIOCLR    = 0x79,
 332:../../libs/libDaisy/src/dev/mpr121.h ****         MPR121_GPIOTOGGLE = 0x7A,
 333:../../libs/libDaisy/src/dev/mpr121.h **** 
 334:../../libs/libDaisy/src/dev/mpr121.h ****         MPR121_SOFTRESET = 0x80,
 335:../../libs/libDaisy/src/dev/mpr121.h ****     };
 336:../../libs/libDaisy/src/dev/mpr121.h **** 
 337:../../libs/libDaisy/src/dev/mpr121.h ****   private:
 338:../../libs/libDaisy/src/dev/mpr121.h ****     Config    config_;
 339:../../libs/libDaisy/src/dev/mpr121.h ****     Transport transport_;
 340:../../libs/libDaisy/src/dev/mpr121.h ****     bool      transport_error_;
 341:../../libs/libDaisy/src/dev/mpr121.h **** 
 342:../../libs/libDaisy/src/dev/mpr121.h ****     /** Set the global transport_error_ bool */
 343:../../libs/libDaisy/src/dev/mpr121.h ****     void SetTransportErr(bool err) { transport_error_ |= err; }
 354              		.loc 9 343 10 is_stmt 1 view .LVU69
 355              	.LBE407:
 356              	.LBB411:
 357              	.LBB412:
  73:../../libs/libDaisy/src/dev/mpr121.h ****     }
 358              		.loc 9 73 39 is_stmt 0 view .LVU70
 359 0034 CDF80080 		str	r8, [sp]
 360 0038 0DF10B02 		add	r2, sp, #11
 361              	.LBE412:
 362              	.LBE411:
 363              	.LBB416:
 364              	.LBB408:
 365              		.loc 9 343 55 view .LVU71
 366 003c 94F83030 		ldrb	r3, [r4, #48]	@ zero_extendqisi2
 367              	.LBE408:
 368              	.LBE416:
 369              	.LBB417:
 370              	.LBB413:
  73:../../libs/libDaisy/src/dev/mpr121.h ****     }
 371              		.loc 9 73 39 view .LVU72
 372 0040 94F82C10 		ldrb	r1, [r4, #44]	@ zero_extendqisi2
 373              	.LBE413:
 374              	.LBE417:
 375              	.LBB418:
 376              	.LBB409:
 377              		.loc 9 343 55 view .LVU73
 378 0044 0028     		cmp	r0, #0
 379 0046 18BF     		it	ne
 380 0048 43F00103 		orrne	r3, r3, #1
 381              	.LBE409:
 382              	.LBE418:
 383              	.LBB419:
 384              	.LBB414:
  73:../../libs/libDaisy/src/dev/mpr121.h ****     }
 385              		.loc 9 73 39 view .LVU74
 386 004c 3046     		mov	r0, r6
 387              	.LVL20:
  73:../../libs/libDaisy/src/dev/mpr121.h ****     }
 388              		.loc 9 73 39 view .LVU75
 389              	.LBE414:
 390              	.LBE419:
 391              	.LBB420:
 392              	.LBB410:
ARM GAS  C:\Users\skipi\AppData\Local\Temp\cc3AYCkc.s 			page 24


 393              		.loc 9 343 55 view .LVU76
 394 004e 84F83030 		strb	r3, [r4, #48]
 395              	.LVL21:
 396              		.loc 9 343 55 view .LVU77
 397              	.LBE410:
 398              	.LBE420:
 399              	.LBB421:
 400              	.LBI411:
  70:../../libs/libDaisy/src/dev/mpr121.h ****     {
 401              		.loc 9 70 10 is_stmt 1 view .LVU78
 402              	.LBB415:
  72:../../libs/libDaisy/src/dev/mpr121.h ****                != i2c_.ReceiveBlocking(config_.dev_addr, data, size, 10);
 403              		.loc 9 72 9 view .LVU79
  73:../../libs/libDaisy/src/dev/mpr121.h ****     }
 404              		.loc 9 73 39 is_stmt 0 view .LVU80
 405 0052 0123     		movs	r3, #1
 406 0054 FFF7FEFF 		bl	_ZN5daisy9I2CHandle15ReceiveBlockingEtPhtm
 407              	.LVL22:
  73:../../libs/libDaisy/src/dev/mpr121.h ****     }
 408              		.loc 9 73 39 view .LVU81
 409              	.LBE415:
 410              	.LBE421:
 411              	.LBB422:
 412              	.LBI422:
 413              		.loc 9 343 10 is_stmt 1 view .LVU82
 414              	.LBB423:
 415              		.loc 9 343 55 is_stmt 0 view .LVU83
 416 0058 94F83030 		ldrb	r3, [r4, #48]	@ zero_extendqisi2
 417 005c 0028     		cmp	r0, #0
 418 005e 18BF     		it	ne
 419 0060 43F00103 		orrne	r3, r3, #1
 420 0064 84F83030 		strb	r3, [r4, #48]
 421              	.LVL23:
 422              		.loc 9 343 55 view .LVU84
 423              	.LBE423:
 424              	.LBE422:
 270:../../libs/libDaisy/src/dev/mpr121.h ****         {
 425              		.loc 9 270 50 view .LVU85
 426 0068 A5F17303 		sub	r3, r5, #115
 270:../../libs/libDaisy/src/dev/mpr121.h ****         {
 427              		.loc 9 270 9 view .LVU86
 428 006c 072B     		cmp	r3, #7
 429 006e 01D9     		bls	.L20
 430 0070 4D45     		cmp	r5, r9
 431 0072 17D1     		bne	.L24
 432              	.L20:
 433              	.LVL24:
 434              	.LBB424:
 435              	.LBB425:
  66:../../libs/libDaisy/src/dev/mpr121.h ****     }
 436              		.loc 9 66 40 view .LVU87
 437 0074 0A23     		movs	r3, #10
 438 0076 03AA     		add	r2, sp, #12
 439 0078 3046     		mov	r0, r6
 440              	.LBE425:
 441              	.LBE424:
 281:../../libs/libDaisy/src/dev/mpr121.h ****         buff[1] = value;
ARM GAS  C:\Users\skipi\AppData\Local\Temp\cc3AYCkc.s 			page 25


 442              		.loc 9 281 17 view .LVU88
 443 007a 8DF80C50 		strb	r5, [sp, #12]
 444              	.LBB434:
 445              	.LBB426:
  66:../../libs/libDaisy/src/dev/mpr121.h ****     }
 446              		.loc 9 66 40 view .LVU89
 447 007e 0093     		str	r3, [sp]
 448 0080 0223     		movs	r3, #2
 449              	.LBE426:
 450              	.LBE434:
 282:../../libs/libDaisy/src/dev/mpr121.h ****         SetTransportErr(transport_.Write(buff, 2));
 451              		.loc 9 282 17 view .LVU90
 452 0082 8DF80D70 		strb	r7, [sp, #13]
 453              	.LVL25:
 454              	.LBB435:
 455              	.LBI424:
  63:../../libs/libDaisy/src/dev/mpr121.h ****     {
 456              		.loc 9 63 10 is_stmt 1 view .LVU91
 457              	.LBB427:
  65:../../libs/libDaisy/src/dev/mpr121.h ****                != i2c_.TransmitBlocking(config_.dev_addr, data, size, 10);
 458              		.loc 9 65 9 view .LVU92
 459              	.L23:
  66:../../libs/libDaisy/src/dev/mpr121.h ****     }
 460              		.loc 9 66 40 is_stmt 0 view .LVU93
 461 0086 94F82C10 		ldrb	r1, [r4, #44]	@ zero_extendqisi2
 462 008a FFF7FEFF 		bl	_ZN5daisy9I2CHandle16TransmitBlockingEtPhtm
 463              	.LVL26:
  66:../../libs/libDaisy/src/dev/mpr121.h ****     }
 464              		.loc 9 66 40 view .LVU94
 465              	.LBE427:
 466              	.LBE435:
 467              	.LBB436:
 468              	.LBI436:
 469              		.loc 9 343 10 is_stmt 1 view .LVU95
 470              	.LBB437:
 471              		.loc 9 343 55 is_stmt 0 view .LVU96
 472 008e 94F83030 		ldrb	r3, [r4, #48]	@ zero_extendqisi2
 473 0092 0028     		cmp	r0, #0
 474 0094 18BF     		it	ne
 475 0096 43F00103 		orrne	r3, r3, #1
 476 009a 84F83030 		strb	r3, [r4, #48]
 477              	.LVL27:
 478              		.loc 9 343 55 view .LVU97
 479              	.LBE437:
 480              	.LBE436:
 292:../../libs/libDaisy/src/dev/mpr121.h **** 
 481              		.loc 9 292 5 view .LVU98
 482 009e 05B0     		add	sp, sp, #20
 483              		.cfi_remember_state
 484              		.cfi_def_cfa_offset 28
 485              		@ sp needed
 486 00a0 BDE8F083 		pop	{r4, r5, r6, r7, r8, r9, pc}
 487              	.LVL28:
 488              	.L24:
 489              		.cfi_restore_state
 490              	.LBB441:
 491              	.LBI441:
ARM GAS  C:\Users\skipi\AppData\Local\Temp\cc3AYCkc.s 			page 26


  63:../../libs/libDaisy/src/dev/mpr121.h ****     {
 492              		.loc 9 63 10 is_stmt 1 view .LVU99
 493              	.LBB442:
  65:../../libs/libDaisy/src/dev/mpr121.h ****                != i2c_.TransmitBlocking(config_.dev_addr, data, size, 10);
 494              		.loc 9 65 9 view .LVU100
  66:../../libs/libDaisy/src/dev/mpr121.h ****     }
 495              		.loc 9 66 40 is_stmt 0 view .LVU101
 496 00a4 0223     		movs	r3, #2
 497 00a6 03AA     		add	r2, sp, #12
 498              	.LVL29:
  66:../../libs/libDaisy/src/dev/mpr121.h ****     }
 499              		.loc 9 66 40 view .LVU102
 500 00a8 CDF80080 		str	r8, [sp]
 501 00ac 3046     		mov	r0, r6
 502 00ae 94F82C10 		ldrb	r1, [r4, #44]	@ zero_extendqisi2
 503 00b2 FFF7FEFF 		bl	_ZN5daisy9I2CHandle16TransmitBlockingEtPhtm
 504              	.LVL30:
  66:../../libs/libDaisy/src/dev/mpr121.h ****     }
 505              		.loc 9 66 40 view .LVU103
 506              	.LBE442:
 507              	.LBE441:
 508              	.LBB443:
 509              	.LBI443:
 510              		.loc 9 343 10 is_stmt 1 view .LVU104
 511              	.LBE443:
 512              	.LBB447:
 513              	.LBB428:
  66:../../libs/libDaisy/src/dev/mpr121.h ****     }
 514              		.loc 9 66 40 is_stmt 0 view .LVU105
 515 00b6 CDF80080 		str	r8, [sp]
 516              	.LBE428:
 517              	.LBE447:
 518              	.LBB448:
 519              	.LBB444:
 520              		.loc 9 343 55 view .LVU106
 521 00ba 94F83030 		ldrb	r3, [r4, #48]	@ zero_extendqisi2
 522              	.LBE444:
 523              	.LBE448:
 524              	.LBB449:
 525              	.LBB429:
  66:../../libs/libDaisy/src/dev/mpr121.h ****     }
 526              		.loc 9 66 40 view .LVU107
 527 00be 03AA     		add	r2, sp, #12
 528 00c0 94F82C10 		ldrb	r1, [r4, #44]	@ zero_extendqisi2
 529              	.LBE429:
 530              	.LBE449:
 531              	.LBB450:
 532              	.LBB445:
 533              		.loc 9 343 55 view .LVU108
 534 00c4 0028     		cmp	r0, #0
 535 00c6 18BF     		it	ne
 536 00c8 43F00103 		orrne	r3, r3, #1
 537              	.LBE445:
 538              	.LBE450:
 539              	.LBB451:
 540              	.LBB430:
  66:../../libs/libDaisy/src/dev/mpr121.h ****     }
ARM GAS  C:\Users\skipi\AppData\Local\Temp\cc3AYCkc.s 			page 27


 541              		.loc 9 66 40 view .LVU109
 542 00cc 3046     		mov	r0, r6
 543              	.LVL31:
  66:../../libs/libDaisy/src/dev/mpr121.h ****     }
 544              		.loc 9 66 40 view .LVU110
 545              	.LBE430:
 546              	.LBE451:
 281:../../libs/libDaisy/src/dev/mpr121.h ****         buff[1] = value;
 547              		.loc 9 281 17 view .LVU111
 548 00ce 8DF80C50 		strb	r5, [sp, #12]
 549              	.LBB452:
 550              	.LBB446:
 551              		.loc 9 343 55 view .LVU112
 552 00d2 84F83030 		strb	r3, [r4, #48]
 553              	.LVL32:
 554              		.loc 9 343 55 view .LVU113
 555              	.LBE446:
 556              	.LBE452:
 557              	.LBB453:
  63:../../libs/libDaisy/src/dev/mpr121.h ****     {
 558              		.loc 9 63 10 is_stmt 1 view .LVU114
 559              	.LBB431:
  65:../../libs/libDaisy/src/dev/mpr121.h ****                != i2c_.TransmitBlocking(config_.dev_addr, data, size, 10);
 560              		.loc 9 65 9 view .LVU115
  66:../../libs/libDaisy/src/dev/mpr121.h ****     }
 561              		.loc 9 66 40 is_stmt 0 view .LVU116
 562 00d6 0223     		movs	r3, #2
 563              	.LBE431:
 564              	.LBE453:
 282:../../libs/libDaisy/src/dev/mpr121.h ****         SetTransportErr(transport_.Write(buff, 2));
 565              		.loc 9 282 17 view .LVU117
 566 00d8 8DF80D70 		strb	r7, [sp, #13]
 567              	.LBB454:
 568              	.LBB432:
  66:../../libs/libDaisy/src/dev/mpr121.h ****     }
 569              		.loc 9 66 40 view .LVU118
 570 00dc FFF7FEFF 		bl	_ZN5daisy9I2CHandle16TransmitBlockingEtPhtm
 571              	.LVL33:
  66:../../libs/libDaisy/src/dev/mpr121.h ****     }
 572              		.loc 9 66 40 view .LVU119
 573              	.LBE432:
 574              	.LBE454:
 575              	.LBB455:
 576              	.LBB456:
 577 00e0 CDF80080 		str	r8, [sp]
 578              	.LBE456:
 579              	.LBE455:
 580              	.LBB461:
 581              	.LBB433:
 582 00e4 0546     		mov	r5, r0
 583              	.LVL34:
  66:../../libs/libDaisy/src/dev/mpr121.h ****     }
 584              		.loc 9 66 40 view .LVU120
 585              	.LBE433:
 586              	.LBE461:
 587              	.LBB462:
 588              		.loc 9 343 10 is_stmt 1 view .LVU121
ARM GAS  C:\Users\skipi\AppData\Local\Temp\cc3AYCkc.s 			page 28


 589              	.LBB438:
 590              		.loc 9 343 55 is_stmt 0 view .LVU122
 591 00e6 94F83010 		ldrb	r1, [r4, #48]	@ zero_extendqisi2
 592              	.LBE438:
 593              	.LBE462:
 594              	.LBB463:
 595              	.LBB457:
  66:../../libs/libDaisy/src/dev/mpr121.h ****     }
 596              		.loc 9 66 40 view .LVU123
 597 00ea 03AA     		add	r2, sp, #12
 598              	.LBE457:
 599              	.LBE463:
 289:../../libs/libDaisy/src/dev/mpr121.h ****             SetTransportErr(transport_.Write(buff, 2));
 600              		.loc 9 289 21 view .LVU124
 601 00ec 9DF80B30 		ldrb	r3, [sp, #11]	@ zero_extendqisi2
 602              	.LBB464:
 603              	.LBB458:
  66:../../libs/libDaisy/src/dev/mpr121.h ****     }
 604              		.loc 9 66 40 view .LVU125
 605 00f0 3046     		mov	r0, r6
 606              	.LVL35:
  66:../../libs/libDaisy/src/dev/mpr121.h ****     }
 607              		.loc 9 66 40 view .LVU126
 608              	.LBE458:
 609              	.LBE464:
 610              	.LBB465:
 611              	.LBB439:
 612              		.loc 9 343 55 view .LVU127
 613 00f2 002D     		cmp	r5, #0
 614 00f4 18BF     		it	ne
 615 00f6 41F00101 		orrne	r1, r1, #1
 616              	.LBE439:
 617              	.LBE465:
 288:../../libs/libDaisy/src/dev/mpr121.h ****             buff[1] = ecr_backup;
 618              		.loc 9 288 21 view .LVU128
 619 00fa 8DF80C90 		strb	r9, [sp, #12]
 289:../../libs/libDaisy/src/dev/mpr121.h ****             SetTransportErr(transport_.Write(buff, 2));
 620              		.loc 9 289 21 view .LVU129
 621 00fe 8DF80D30 		strb	r3, [sp, #13]
 622              	.LBB466:
 623              	.LBB459:
  66:../../libs/libDaisy/src/dev/mpr121.h ****     }
 624              		.loc 9 66 40 view .LVU130
 625 0102 0223     		movs	r3, #2
 626              	.LBE459:
 627              	.LBE466:
 628              	.LBB467:
 629              	.LBB440:
 630              		.loc 9 343 55 view .LVU131
 631 0104 84F83010 		strb	r1, [r4, #48]
 632              	.LVL36:
 633              		.loc 9 343 55 view .LVU132
 634              	.LBE440:
 635              	.LBE467:
 636              	.LBB468:
 637              	.LBI455:
  63:../../libs/libDaisy/src/dev/mpr121.h ****     {
ARM GAS  C:\Users\skipi\AppData\Local\Temp\cc3AYCkc.s 			page 29


 638              		.loc 9 63 10 is_stmt 1 view .LVU133
 639              	.LBB460:
  65:../../libs/libDaisy/src/dev/mpr121.h ****                != i2c_.TransmitBlocking(config_.dev_addr, data, size, 10);
 640              		.loc 9 65 9 view .LVU134
 641 0108 BDE7     		b	.L23
 642              	.LBE460:
 643              	.LBE468:
 644              		.cfi_endproc
 645              	.LFE5286:
 647 010a 00BF     		.section	.rodata.main.str1.4,"aMS",%progbits,1
 648              		.align	2
 649              	.LC0:
 650 0000 2D2D2D2D 		.ascii	"---------------------------------------------------"
 650      2D2D2D2D 
 650      2D2D2D2D 
 650      2D2D2D2D 
 650      2D2D2D2D 
 651 0033 2D2D2D2D 		.ascii	"-----------------------------\000"
 651      2D2D2D2D 
 651      2D2D2D2D 
 651      2D2D2D2D 
 651      2D2D2D2D 
 652 0051 000000   		.align	2
 653              	.LC1:
 654 0054 43415020 		.ascii	"CAP touched\000"
 654      746F7563 
 654      68656400 
 655              		.align	2
 656              	.LC2:
 657 0060 7C2000   		.ascii	"| \000"
 658 0063 00       		.align	2
 659              	.LC3:
 660 0064 7C204465 		.ascii	"| Delta : %f, | DeltaFiltered :  %f | Frequency : %"
 660      6C746120 
 660      3A202566 
 660      2C207C20 
 660      44656C74 
 661 0097 662000   		.ascii	"f \000"
 662 009a 0000     		.align	2
 663              	.LC4:
 664 009c 43415020 		.ascii	"CAP released\000"
 664      72656C65 
 664      61736564 
 664      00
 665 00a9 000000   		.align	2
 666              	.LC5:
 667 00ac 2000     		.ascii	" \000"
 668 00ae 0000     		.align	2
 669              	.LC6:
 670 00b0 64656C74 		.ascii	"deltaMax : %f\000"
 670      614D6178 
 670      203A2025 
 670      6600
 671 00be 0000     		.align	2
 672              	.LC7:
 673 00c0 63757276 		.ascii	"curveType : %f\000"
 673      65547970 
ARM GAS  C:\Users\skipi\AppData\Local\Temp\cc3AYCkc.s 			page 30


 673      65203A20 
 673      256600
 674              		.section	.text.startup.main,"ax",%progbits
 675              		.align	1
 676              		.p2align 2,,3
 677              		.global	main
 678              		.syntax unified
 679              		.thumb
 680              		.thumb_func
 681              		.fpu fpv5-d16
 683              	main:
 684              	.LFB4849:
  62:main.cpp      **** 
  63:main.cpp      **** int main()
  64:main.cpp      **** {
 685              		.loc 10 64 1 view -0
 686              		.cfi_startproc
 687              		@ args = 0, pretend = 0, frame = 72
 688              		@ frame_needed = 0, uses_anonymous_args = 0
  65:main.cpp      **** 
  66:main.cpp      ****   float sampleRate;
 689              		.loc 10 66 3 view .LVU136
  67:main.cpp      ****   hw.Configure();
 690              		.loc 10 67 3 view .LVU137
  64:main.cpp      **** 
 691              		.loc 10 64 1 is_stmt 0 view .LVU138
 692 0000 2DE9F04F 		push	{r4, r5, r6, r7, r8, r9, r10, fp, lr}
 693              		.cfi_def_cfa_offset 36
 694              		.cfi_offset 4, -36
 695              		.cfi_offset 5, -32
 696              		.cfi_offset 6, -28
 697              		.cfi_offset 7, -24
 698              		.cfi_offset 8, -20
 699              		.cfi_offset 9, -16
 700              		.cfi_offset 10, -12
 701              		.cfi_offset 11, -8
 702              		.cfi_offset 14, -4
 703              		.loc 10 67 15 view .LVU139
 704 0004 CC48     		ldr	r0, .L59
 705              	.LBB600:
 706              	.LBB601:
  55:../../libs/DaisySP/Source/Synthesis/oscillator.h ****         pw_        = 0.5f;
 707              		.loc 8 55 20 view .LVU140
 708 0006 4FF07C55 		mov	r5, #1056964608
 709              	.LBE601:
 710              	.LBE600:
 711              	.LBB604:
 712              	.LBB605:
  77:../../libs/DaisySP/Source/Synthesis/oscillator.h ****     /** Sets the waveform to be synthesized by the Process() function.
  78:../../libs/DaisySP/Source/Synthesis/oscillator.h ****     */
  79:../../libs/DaisySP/Source/Synthesis/oscillator.h ****     inline void SetWaveform(const uint8_t wf)
  80:../../libs/DaisySP/Source/Synthesis/oscillator.h ****     {
  81:../../libs/DaisySP/Source/Synthesis/oscillator.h ****         waveform_ = wf < WAVE_LAST ? wf : WAVE_SIN;
 713              		.loc 8 81 19 view .LVU141
 714 000a 4FF00108 		mov	r8, #1
 715              	.LBE605:
 716              	.LBE604:
ARM GAS  C:\Users\skipi\AppData\Local\Temp\cc3AYCkc.s 			page 31


  68:main.cpp      ****   hw.Init();
  69:main.cpp      ****   hw.SetAudioBlockSize(4);
  70:main.cpp      ****   sampleRate = hw.AudioSampleRate();
  71:main.cpp      **** 
  72:main.cpp      ****   pc.Init(CapFir::ResType::HIGH); 
  73:main.cpp      ****   pc.setScale(PlantConditioner::C, PlantConditioner::MinorArm);
  74:main.cpp      ****   pc.setOctave(3);
  75:main.cpp      ****   pc.setCurve(100,1.1);
  76:main.cpp      ****   
  77:main.cpp      **** 
  78:main.cpp      ****   osc.Init(sampleRate);                  // initializes the oscillator with the sample rate
  79:main.cpp      ****   osc.SetWaveform(Oscillator::WAVE_TRI); // sets the waveform
  80:main.cpp      ****   osc.SetFreq(440.0f);                   // sets the frequency
  81:main.cpp      ****   osc.SetAmp(0.5f);                      // sets the amplitude
  82:main.cpp      **** 
  83:main.cpp      ****   env.Init(sampleRate); // initializes the envelope with the sample rate
 717              		.loc 10 83 11 view .LVU142
 718 000e CB4C     		ldr	r4, .L59+4
  64:main.cpp      **** 
 719              		.loc 10 64 1 view .LVU143
 720 0010 2DED028B 		vpush.64	{d8}
 721              		.cfi_def_cfa_offset 44
 722              		.cfi_offset 80, -44
 723              		.cfi_offset 81, -40
 724 0014 97B0     		sub	sp, sp, #92
 725              		.cfi_def_cfa_offset 136
  67:main.cpp      ****   hw.Init();
 726              		.loc 10 67 15 view .LVU144
 727 0016 FFF7FEFF 		bl	_ZN5daisy9DaisySeed9ConfigureEv
 728              	.LVL37:
  68:main.cpp      ****   hw.Init();
 729              		.loc 10 68 3 is_stmt 1 view .LVU145
  68:main.cpp      ****   hw.Init();
 730              		.loc 10 68 10 is_stmt 0 view .LVU146
 731 001a 0021     		movs	r1, #0
 732 001c C648     		ldr	r0, .L59
 733 001e 10AF     		add	r7, sp, #64
 734 0020 FFF7FEFF 		bl	_ZN5daisy9DaisySeed4InitEb
 735              	.LVL38:
  69:main.cpp      ****   sampleRate = hw.AudioSampleRate();
 736              		.loc 10 69 3 is_stmt 1 view .LVU147
  69:main.cpp      ****   sampleRate = hw.AudioSampleRate();
 737              		.loc 10 69 23 is_stmt 0 view .LVU148
 738 0024 0421     		movs	r1, #4
 739 0026 C448     		ldr	r0, .L59
 740              	.LBB608:
 741              	.LBB609:
 123:../../libs/libDaisy/src/dev/mpr121.h **** 
 742              		.loc 9 123 9 view .LVU149
 743 0028 BB46     		mov	fp, r7
 744              	.LBE609:
 745              	.LBE608:
  69:main.cpp      ****   sampleRate = hw.AudioSampleRate();
 746              		.loc 10 69 23 view .LVU150
 747 002a FFF7FEFF 		bl	_ZN5daisy9DaisySeed17SetAudioBlockSizeEj
 748              	.LVL39:
  70:main.cpp      **** 
ARM GAS  C:\Users\skipi\AppData\Local\Temp\cc3AYCkc.s 			page 32


 749              		.loc 10 70 3 is_stmt 1 view .LVU151
  70:main.cpp      **** 
 750              		.loc 10 70 34 is_stmt 0 view .LVU152
 751 002e C248     		ldr	r0, .L59
 752 0030 FFF7FEFF 		bl	_ZN5daisy9DaisySeed15AudioSampleRateEv
 753              	.LVL40:
  72:main.cpp      ****   pc.setScale(PlantConditioner::C, PlantConditioner::MinorArm);
 754              		.loc 10 72 10 view .LVU153
 755 0034 0221     		movs	r1, #2
 756 0036 C248     		ldr	r0, .L59+8
  70:main.cpp      **** 
 757              		.loc 10 70 34 view .LVU154
 758 0038 B0EE408A 		vmov.f32	s16, s0
 759              	.LVL41:
  72:main.cpp      ****   pc.setScale(PlantConditioner::C, PlantConditioner::MinorArm);
 760              		.loc 10 72 3 is_stmt 1 view .LVU155
  72:main.cpp      ****   pc.setScale(PlantConditioner::C, PlantConditioner::MinorArm);
 761              		.loc 10 72 10 is_stmt 0 view .LVU156
 762 003c FFF7FEFF 		bl	_ZN16PlantConditioner4InitEN6CapFir7ResTypeE
 763              	.LVL42:
  73:main.cpp      ****   pc.setOctave(3);
 764              		.loc 10 73 3 is_stmt 1 view .LVU157
  73:main.cpp      ****   pc.setOctave(3);
 765              		.loc 10 73 14 is_stmt 0 view .LVU158
 766 0040 0222     		movs	r2, #2
 767 0042 0021     		movs	r1, #0
 768 0044 BE48     		ldr	r0, .L59+8
 769 0046 FFF7FEFF 		bl	_ZN16PlantConditioner8setScaleENS_5NotesENS_9ScaleTypeE
 770              	.LVL43:
  74:main.cpp      ****   pc.setCurve(100,1.1);
 771              		.loc 10 74 3 is_stmt 1 view .LVU159
  74:main.cpp      ****   pc.setCurve(100,1.1);
 772              		.loc 10 74 15 is_stmt 0 view .LVU160
 773 004a 0321     		movs	r1, #3
 774 004c BC48     		ldr	r0, .L59+8
 775 004e 0DF11809 		add	r9, sp, #24
 776 0052 FFF7FEFF 		bl	_ZN16PlantConditioner9setOctaveEh
 777              	.LVL44:
  75:main.cpp      ****   
 778              		.loc 10 75 3 is_stmt 1 view .LVU161
  75:main.cpp      ****   
 779              		.loc 10 75 14 is_stmt 0 view .LVU162
 780 0056 6421     		movs	r1, #100
 781 0058 9FEDBA0A 		vldr.32	s0, .L59+12
 782 005c B848     		ldr	r0, .L59+8
 783 005e FFF7FEFF 		bl	_ZN16PlantConditioner8setCurveEhf
 784              	.LVL45:
  78:main.cpp      ****   osc.SetWaveform(Oscillator::WAVE_TRI); // sets the waveform
 785              		.loc 10 78 3 is_stmt 1 view .LVU163
 786              	.LBB787:
 787              	.LBI600:
  50:../../libs/DaisySP/Source/Synthesis/oscillator.h ****     {
 788              		.loc 8 50 10 view .LVU164
 789              	.LBB602:
  52:../../libs/DaisySP/Source/Synthesis/oscillator.h ****         sr_recip_  = 1.0f / sample_rate;
 790              		.loc 8 52 9 view .LVU165
  53:../../libs/DaisySP/Source/Synthesis/oscillator.h ****         freq_      = 100.0f;
ARM GAS  C:\Users\skipi\AppData\Local\Temp\cc3AYCkc.s 			page 33


 791              		.loc 8 53 27 is_stmt 0 view .LVU166
 792 0062 B7EE007A 		vmov.f32	s14, #1.0e+0
  58:../../libs/DaisySP/Source/Synthesis/oscillator.h ****         waveform_  = WAVE_SIN;
 793              		.loc 8 58 34 view .LVU167
 794 0066 B848     		ldr	r0, .L59+16
  57:../../libs/DaisySP/Source/Synthesis/oscillator.h ****         phase_inc_ = CalcPhaseInc(freq_);
 795              		.loc 8 57 20 view .LVU168
 796 0068 0023     		movs	r3, #0
  54:../../libs/DaisySP/Source/Synthesis/oscillator.h ****         amp_       = 0.5f;
 797              		.loc 8 54 20 view .LVU169
 798 006a 9FEDB80A 		vldr.32	s0, .L59+20
  53:../../libs/DaisySP/Source/Synthesis/oscillator.h ****         freq_      = 100.0f;
 799              		.loc 8 53 27 view .LVU170
 800 006e C7EE087A 		vdiv.f32	s15, s14, s16
  56:../../libs/DaisySP/Source/Synthesis/oscillator.h ****         phase_     = 0.0f;
 801              		.loc 8 56 20 view .LVU171
 802 0072 0646     		mov	r6, r0
  55:../../libs/DaisySP/Source/Synthesis/oscillator.h ****         pw_        = 0.5f;
 803              		.loc 8 55 20 view .LVU172
 804 0074 4560     		str	r5, [r0, #4]	@ float
  56:../../libs/DaisySP/Source/Synthesis/oscillator.h ****         phase_     = 0.0f;
 805              		.loc 8 56 20 view .LVU173
 806 0076 C560     		str	r5, [r0, #12]	@ float
  57:../../libs/DaisySP/Source/Synthesis/oscillator.h ****         phase_inc_ = CalcPhaseInc(freq_);
 807              		.loc 8 57 20 view .LVU174
 808 0078 8361     		str	r3, [r0, #24]	@ float
  52:../../libs/DaisySP/Source/Synthesis/oscillator.h ****         sr_recip_  = 1.0f / sample_rate;
 809              		.loc 8 52 20 view .LVU175
 810 007a 80ED048A 		vstr.32	s16, [r0, #16]
  53:../../libs/DaisySP/Source/Synthesis/oscillator.h ****         freq_      = 100.0f;
 811              		.loc 8 53 9 is_stmt 1 view .LVU176
  54:../../libs/DaisySP/Source/Synthesis/oscillator.h ****         amp_       = 0.5f;
 812              		.loc 8 54 20 is_stmt 0 view .LVU177
 813 007e 80ED020A 		vstr.32	s0, [r0, #8]
  53:../../libs/DaisySP/Source/Synthesis/oscillator.h ****         freq_      = 100.0f;
 814              		.loc 8 53 20 view .LVU178
 815 0082 C0ED057A 		vstr.32	s15, [r0, #20]
  54:../../libs/DaisySP/Source/Synthesis/oscillator.h ****         amp_       = 0.5f;
 816              		.loc 8 54 9 is_stmt 1 view .LVU179
  55:../../libs/DaisySP/Source/Synthesis/oscillator.h ****         pw_        = 0.5f;
 817              		.loc 8 55 9 view .LVU180
  56:../../libs/DaisySP/Source/Synthesis/oscillator.h ****         phase_     = 0.0f;
 818              		.loc 8 56 9 view .LVU181
  57:../../libs/DaisySP/Source/Synthesis/oscillator.h ****         phase_inc_ = CalcPhaseInc(freq_);
 819              		.loc 8 57 9 view .LVU182
  58:../../libs/DaisySP/Source/Synthesis/oscillator.h ****         waveform_  = WAVE_SIN;
 820              		.loc 8 58 9 view .LVU183
  58:../../libs/DaisySP/Source/Synthesis/oscillator.h ****         waveform_  = WAVE_SIN;
 821              		.loc 8 58 34 is_stmt 0 view .LVU184
 822 0086 FFF7FEFF 		bl	_ZN7daisysp10Oscillator12CalcPhaseIncEf
 823              	.LVL46:
  61:../../libs/DaisySP/Source/Synthesis/oscillator.h ****     }
 824              		.loc 8 61 20 view .LVU185
 825 008a 40F20113 		movw	r3, #257
  58:../../libs/DaisySP/Source/Synthesis/oscillator.h ****         waveform_  = WAVE_SIN;
 826              		.loc 8 58 34 view .LVU186
 827 008e F0EE407A 		vmov.f32	s15, s0
ARM GAS  C:\Users\skipi\AppData\Local\Temp\cc3AYCkc.s 			page 34


 828              	.LBE602:
 829              	.LBE787:
 830              	.LBB788:
 831              	.LBB789:
  69:../../libs/DaisySP/Source/Synthesis/oscillator.h ****         phase_inc_ = CalcPhaseInc(f);
 832              		.loc 8 69 20 view .LVU187
 833 0092 9FEDAF0A 		vldr.32	s0, .L59+24
  70:../../libs/DaisySP/Source/Synthesis/oscillator.h ****     }
 834              		.loc 8 70 34 view .LVU188
 835 0096 3046     		mov	r0, r6
 836              	.LBE789:
 837              	.LBE788:
 838              	.LBB793:
 839              	.LBB603:
  61:../../libs/DaisySP/Source/Synthesis/oscillator.h ****     }
 840              		.loc 8 61 20 view .LVU189
 841 0098 3385     		strh	r3, [r6, #40]	@ movhi
  58:../../libs/DaisySP/Source/Synthesis/oscillator.h ****         waveform_  = WAVE_SIN;
 842              		.loc 8 58 20 view .LVU190
 843 009a C6ED077A 		vstr.32	s15, [r6, #28]
  59:../../libs/DaisySP/Source/Synthesis/oscillator.h ****         eoc_       = true;
 844              		.loc 8 59 9 is_stmt 1 view .LVU191
  60:../../libs/DaisySP/Source/Synthesis/oscillator.h ****         eor_       = true;
 845              		.loc 8 60 9 view .LVU192
  61:../../libs/DaisySP/Source/Synthesis/oscillator.h ****     }
 846              		.loc 8 61 9 view .LVU193
 847              	.LVL47:
  61:../../libs/DaisySP/Source/Synthesis/oscillator.h ****     }
 848              		.loc 8 61 9 is_stmt 0 view .LVU194
 849              	.LBE603:
 850              	.LBE793:
  79:main.cpp      ****   osc.SetFreq(440.0f);                   // sets the frequency
 851              		.loc 10 79 3 is_stmt 1 view .LVU195
 852              	.LBB794:
 853              	.LBI604:
  79:../../libs/DaisySP/Source/Synthesis/oscillator.h ****     {
 854              		.loc 8 79 17 view .LVU196
 855              	.LBB606:
 856              		.loc 8 81 9 view .LVU197
 857              		.loc 8 81 9 is_stmt 0 view .LVU198
 858              	.LBE606:
 859              	.LBE794:
  80:main.cpp      ****   osc.SetAmp(0.5f);                      // sets the amplitude
 860              		.loc 10 80 3 is_stmt 1 view .LVU199
 861              	.LBB795:
 862              	.LBI788:
  67:../../libs/DaisySP/Source/Synthesis/oscillator.h ****     {
 863              		.loc 8 67 17 view .LVU200
 864              	.LBB790:
  69:../../libs/DaisySP/Source/Synthesis/oscillator.h ****         phase_inc_ = CalcPhaseInc(f);
 865              		.loc 8 69 9 view .LVU201
  70:../../libs/DaisySP/Source/Synthesis/oscillator.h ****     }
 866              		.loc 8 70 9 view .LVU202
 867              	.LBE790:
 868              	.LBE795:
 869              	.LBB796:
 870              	.LBB607:
ARM GAS  C:\Users\skipi\AppData\Local\Temp\cc3AYCkc.s 			page 35


 871              		.loc 8 81 19 is_stmt 0 view .LVU203
 872 009e 86F80080 		strb	r8, [r6]
 873              	.LBE607:
 874              	.LBE796:
 875              	.LBB797:
 876              	.LBB791:
  69:../../libs/DaisySP/Source/Synthesis/oscillator.h ****         phase_inc_ = CalcPhaseInc(f);
 877              		.loc 8 69 20 view .LVU204
 878 00a2 86ED020A 		vstr.32	s0, [r6, #8]
  70:../../libs/DaisySP/Source/Synthesis/oscillator.h ****     }
 879              		.loc 8 70 34 view .LVU205
 880 00a6 FFF7FEFF 		bl	_ZN7daisysp10Oscillator12CalcPhaseIncEf
 881              	.LVL48:
 882 00aa F0EE407A 		vmov.f32	s15, s0
 883              	.LBE791:
 884              	.LBE797:
 885              		.loc 10 83 11 view .LVU206
 886 00ae 2046     		mov	r0, r4
 887 00b0 B0EE480A 		vmov.f32	s0, s16
 888 00b4 4146     		mov	r1, r8
 889              	.LBB798:
 890              	.LBB799:
  76:../../libs/DaisySP/Source/Synthesis/oscillator.h ****     /** Sets the waveform to be synthesized by the Process() function.
 891              		.loc 8 76 46 view .LVU207
 892 00b6 7560     		str	r5, [r6, #4]	@ float
 893              	.LBE799:
 894              	.LBE798:
 895              	.LBB801:
 896              	.LBB792:
  70:../../libs/DaisySP/Source/Synthesis/oscillator.h ****     }
 897              		.loc 8 70 20 view .LVU208
 898 00b8 C6ED077A 		vstr.32	s15, [r6, #28]
 899              	.LVL49:
  70:../../libs/DaisySP/Source/Synthesis/oscillator.h ****     }
 900              		.loc 8 70 20 view .LVU209
 901              	.LBE792:
 902              	.LBE801:
  81:main.cpp      **** 
 903              		.loc 10 81 3 is_stmt 1 view .LVU210
 904              	.LBB802:
 905              	.LBI798:
  76:../../libs/DaisySP/Source/Synthesis/oscillator.h ****     /** Sets the waveform to be synthesized by the Process() function.
 906              		.loc 8 76 17 view .LVU211
 907              	.LBB800:
  76:../../libs/DaisySP/Source/Synthesis/oscillator.h ****     /** Sets the waveform to be synthesized by the Process() function.
 908              		.loc 8 76 41 view .LVU212
  76:../../libs/DaisySP/Source/Synthesis/oscillator.h ****     /** Sets the waveform to be synthesized by the Process() function.
 909              		.loc 8 76 41 is_stmt 0 view .LVU213
 910              	.LBE800:
 911              	.LBE802:
 912              		.loc 10 83 3 is_stmt 1 view .LVU214
 913              		.loc 10 83 11 is_stmt 0 view .LVU215
 914 00bc FFF7FEFF 		bl	_ZN7daisysp4Adsr4InitEfi
 915              	.LVL50:
  84:main.cpp      ****   env.SetTime(ADSR_SEG_ATTACK, 0.05f);
 916              		.loc 10 84 3 is_stmt 1 view .LVU216
 917              		.loc 10 84 14 is_stmt 0 view .LVU217
ARM GAS  C:\Users\skipi\AppData\Local\Temp\cc3AYCkc.s 			page 36


 918 00c0 2046     		mov	r0, r4
 919 00c2 9FEDA40A 		vldr.32	s0, .L59+28
 920 00c6 4146     		mov	r1, r8
 921              	.LBB803:
 922              	.LBB784:
 139:../../libs/libDaisy/src/dev/mpr121.h ****         WriteRegister(MPR121_MHDR, 0x01);
 923              		.loc 9 139 22 view .LVU218
 924 00c8 4126     		movs	r6, #65
 925              	.LBE784:
 926              	.LBE803:
 927              		.loc 10 84 14 view .LVU219
 928 00ca FFF7FEFF 		bl	_ZN7daisysp4Adsr7SetTimeEif
 929              	.LVL51:
  85:main.cpp      ****   env.SetTime(ADSR_SEG_DECAY, 0.1f);
 930              		.loc 10 85 3 is_stmt 1 view .LVU220
 931              		.loc 10 85 14 is_stmt 0 view .LVU221
 932 00ce 2046     		mov	r0, r4
 933 00d0 9FEDA10A 		vldr.32	s0, .L59+32
 934 00d4 0221     		movs	r1, #2
 935 00d6 FFF7FEFF 		bl	_ZN7daisysp4Adsr7SetTimeEif
 936              	.LVL52:
  86:main.cpp      ****   env.SetSustainLevel(0.7f);
 937              		.loc 10 86 3 is_stmt 1 view .LVU222
 938              	.LBB804:
 939              	.LBI804:
  46:../../libs/DaisySP/Source/Control/adsr.h ****     /** Initializes the Adsr module.
  47:../../libs/DaisySP/Source/Control/adsr.h ****         \param sample_rate - The sample rate of the audio engine being run. 
  48:../../libs/DaisySP/Source/Control/adsr.h ****     */
  49:../../libs/DaisySP/Source/Control/adsr.h ****     void Init(float sample_rate, int blockSize = 1);
  50:../../libs/DaisySP/Source/Control/adsr.h ****     /**
  51:../../libs/DaisySP/Source/Control/adsr.h ****      \function Retrigger forces the envelope back to attack phase
  52:../../libs/DaisySP/Source/Control/adsr.h ****      \param hard  resets the history to zero, results in a click.
  53:../../libs/DaisySP/Source/Control/adsr.h ****      */
  54:../../libs/DaisySP/Source/Control/adsr.h ****     void Retrigger(bool hard);
  55:../../libs/DaisySP/Source/Control/adsr.h ****     /** Processes one sample through the filter and returns one sample.
  56:../../libs/DaisySP/Source/Control/adsr.h ****         \param gate - trigger the envelope, hold it to sustain 
  57:../../libs/DaisySP/Source/Control/adsr.h ****     */
  58:../../libs/DaisySP/Source/Control/adsr.h ****     float Process(bool gate);
  59:../../libs/DaisySP/Source/Control/adsr.h ****     /** Sets time
  60:../../libs/DaisySP/Source/Control/adsr.h ****         Set time per segment in seconds
  61:../../libs/DaisySP/Source/Control/adsr.h ****     */
  62:../../libs/DaisySP/Source/Control/adsr.h ****     void SetTime(int seg, float time);
  63:../../libs/DaisySP/Source/Control/adsr.h ****     void SetAttackTime(float timeInS, float shape = 0.0f);
  64:../../libs/DaisySP/Source/Control/adsr.h ****     void SetDecayTime(float timeInS);
  65:../../libs/DaisySP/Source/Control/adsr.h ****     void SetReleaseTime(float timeInS);
  66:../../libs/DaisySP/Source/Control/adsr.h **** 
  67:../../libs/DaisySP/Source/Control/adsr.h ****   private:
  68:../../libs/DaisySP/Source/Control/adsr.h ****     void SetTimeConstant(float timeInS, float& time, float& coeff);
  69:../../libs/DaisySP/Source/Control/adsr.h **** 
  70:../../libs/DaisySP/Source/Control/adsr.h ****   public:
  71:../../libs/DaisySP/Source/Control/adsr.h ****     /** Sustain level
  72:../../libs/DaisySP/Source/Control/adsr.h ****         \param sus_level - sets sustain level, 0...1.0
  73:../../libs/DaisySP/Source/Control/adsr.h ****     */
  74:../../libs/DaisySP/Source/Control/adsr.h ****     inline void SetSustainLevel(float sus_level)
 940              		.loc 7 74 17 view .LVU223
 941              	.LBB805:
  75:../../libs/DaisySP/Source/Control/adsr.h ****     {
ARM GAS  C:\Users\skipi\AppData\Local\Temp\cc3AYCkc.s 			page 37


  76:../../libs/DaisySP/Source/Control/adsr.h ****         sus_level = (sus_level <= 0.f) ? -0.01f // forces envelope into idle
 942              		.loc 7 76 9 view .LVU224
  77:../../libs/DaisySP/Source/Control/adsr.h ****                                        : (sus_level > 1.f) ? 1.f : sus_level;
  78:../../libs/DaisySP/Source/Control/adsr.h ****         sus_level_ = sus_level;
 943              		.loc 7 78 9 view .LVU225
 944              		.loc 7 78 20 is_stmt 0 view .LVU226
 945 00da A04B     		ldr	r3, .L59+36
 946              	.LBE805:
 947              	.LBE804:
  87:main.cpp      ****   env.SetTime(ADSR_SEG_RELEASE, 0.2f);
 948              		.loc 10 87 14 view .LVU227
 949 00dc 0421     		movs	r1, #4
 950 00de 2046     		mov	r0, r4
 951 00e0 9FED9F0A 		vldr.32	s0, .L59+40
 952              	.LBB807:
 953              	.LBB806:
 954              		.loc 7 78 20 view .LVU228
 955 00e4 2360     		str	r3, [r4]	@ float
 956              	.LVL53:
 957              		.loc 7 78 20 view .LVU229
 958              	.LBE806:
 959              	.LBE807:
 960              		.loc 10 87 3 is_stmt 1 view .LVU230
 961              		.loc 10 87 14 is_stmt 0 view .LVU231
 962 00e6 FFF7FEFF 		bl	_ZN7daisysp4Adsr7SetTimeEif
 963              	.LVL54:
  88:main.cpp      **** /////////////////////////////////////////////////////roba momentanea per notte ricercatori
  89:main.cpp      ****   delay.Init(sampleRate);
 964              		.loc 10 89 3 is_stmt 1 view .LVU232
 965              		.loc 10 89 13 is_stmt 0 view .LVU233
 966 00ea B0EE480A 		vmov.f32	s0, s16
 967 00ee 9D48     		ldr	r0, .L59+44
 968 00f0 FFF7FEFF 		bl	_ZN11AnalogDelay4InitEf
 969              	.LVL55:
  90:main.cpp      ****   delay.setDelayTime(0.25f); // sets initial delay time to 500ms
 970              		.loc 10 90 3 is_stmt 1 view .LVU234
 971              		.loc 10 90 21 is_stmt 0 view .LVU235
 972 00f4 B5EE000A 		vmov.f32	s0, #2.5e-1
 973 00f8 9A48     		ldr	r0, .L59+44
 974 00fa FFF7FEFF 		bl	_ZN11AnalogDelay12setDelayTimeEf
 975              	.LVL56:
  91:main.cpp      ****   delay.setFeedback(0.25f);  // sets initial feedback to 50%
 976              		.loc 10 91 3 is_stmt 1 view .LVU236
 977              		.loc 10 91 20 is_stmt 0 view .LVU237
 978 00fe B5EE000A 		vmov.f32	s0, #2.5e-1
 979 0102 9848     		ldr	r0, .L59+44
 980 0104 FFF7FEFF 		bl	_ZN11AnalogDelay11setFeedbackEf
 981              	.LVL57:
  92:main.cpp      ****   delay.setMix(0.2f);       // sets initial mix to 50%
 982              		.loc 10 92 3 is_stmt 1 view .LVU238
 983              		.loc 10 92 15 is_stmt 0 view .LVU239
 984 0108 9FED950A 		vldr.32	s0, .L59+40
 985 010c 9548     		ldr	r0, .L59+44
 986 010e FFF7FEFF 		bl	_ZN11AnalogDelay6setMixEf
 987              	.LVL58:
  93:main.cpp      ****   delay.setDepth(0.01f);   // sets initial depth to 2ms
 988              		.loc 10 93 3 is_stmt 1 view .LVU240
ARM GAS  C:\Users\skipi\AppData\Local\Temp\cc3AYCkc.s 			page 38


 989              		.loc 10 93 17 is_stmt 0 view .LVU241
 990 0112 9FED950A 		vldr.32	s0, .L59+48
 991 0116 9348     		ldr	r0, .L59+44
 992 0118 FFF7FEFF 		bl	_ZN11AnalogDelay8setDepthEf
 993              	.LVL59:
  94:main.cpp      **** 
  95:main.cpp      **** /////////////////////////////////////////////////////7
  96:main.cpp      **** 
  97:main.cpp      **** 
  98:main.cpp      **** 
  99:main.cpp      **** 
 100:main.cpp      ****   adcConfig[0].InitSingle(daisy::seed::A0); 
 994              		.loc 10 100 3 is_stmt 1 view .LVU242
 995              		.loc 10 100 26 is_stmt 0 view .LVU243
 996 011c 934B     		ldr	r3, .L59+52
 997 011e 0222     		movs	r2, #2
 998 0120 9348     		ldr	r0, .L59+56
 999 0122 1968     		ldr	r1, [r3]
 1000 0124 FFF7FEFF 		bl	_ZN5daisy16AdcChannelConfig10InitSingleENS_3PinENS0_15ConversionSpeedE
 1001              	.LVL60:
 101:main.cpp      ****   adcConfig[1].InitSingle(daisy::seed::A1); 
 1002              		.loc 10 101 3 is_stmt 1 view .LVU244
 1003              		.loc 10 101 26 is_stmt 0 view .LVU245
 1004 0128 924B     		ldr	r3, .L59+60
 1005 012a 0222     		movs	r2, #2
 1006 012c 9248     		ldr	r0, .L59+64
 1007 012e 1968     		ldr	r1, [r3]
 1008 0130 FFF7FEFF 		bl	_ZN5daisy16AdcChannelConfig10InitSingleENS_3PinENS0_15ConversionSpeedE
 1009              	.LVL61:
 102:main.cpp      ****   hw.adc.Init(adcConfig, ADC_CH);              
 1010              		.loc 10 102 3 is_stmt 1 view .LVU246
 1011              		.loc 10 102 14 is_stmt 0 view .LVU247
 1012 0134 0423     		movs	r3, #4
 1013 0136 0222     		movs	r2, #2
 1014 0138 8D49     		ldr	r1, .L59+56
 1015 013a 9048     		ldr	r0, .L59+68
 1016 013c FFF7FEFF 		bl	_ZN5daisy9AdcHandle4InitEPNS_16AdcChannelConfigEjNS0_12OverSamplingE
 1017              	.LVL62:
 103:main.cpp      ****   hw.adc.Start();                
 1018              		.loc 10 103 3 is_stmt 1 view .LVU248
 1019              		.loc 10 103 15 is_stmt 0 view .LVU249
 1020 0140 8E48     		ldr	r0, .L59+68
 1021 0142 FFF7FEFF 		bl	_ZN5daisy9AdcHandle5StartEv
 1022              	.LVL63:
 104:main.cpp      **** 
 105:main.cpp      ****   #ifdef DEBUG 
 106:main.cpp      ****     hw.StartLog(false); // starts the log to the serial port
 1023              		.loc 10 106 5 is_stmt 1 view .LVU250
 1024              	.LBB808:
 1025              	.LBI808:
  23:../../libs/libDaisy/src/daisy_seed.h **** 
  24:../../libs/libDaisy/src/daisy_seed.h ****     /** This function used to provide a pre-initialization configuraiton 
  25:../../libs/libDaisy/src/daisy_seed.h ****      *  it has since been deprecated, and does nothing.
  26:../../libs/libDaisy/src/daisy_seed.h ****      */
  27:../../libs/libDaisy/src/daisy_seed.h ****     void Configure();
  28:../../libs/libDaisy/src/daisy_seed.h **** 
  29:../../libs/libDaisy/src/daisy_seed.h ****     /** 
ARM GAS  C:\Users\skipi\AppData\Local\Temp\cc3AYCkc.s 			page 39


  30:../../libs/libDaisy/src/daisy_seed.h ****     Initializes the Daisy Seed and the following peripherals:
  31:../../libs/libDaisy/src/daisy_seed.h ****     SDRAM, QSPI, 24-bit 48kHz Audio via AK4556, Internal USB,
  32:../../libs/libDaisy/src/daisy_seed.h ****     as well as the built-in LED and Testpoint.
  33:../../libs/libDaisy/src/daisy_seed.h **** 
  34:../../libs/libDaisy/src/daisy_seed.h ****     ADCs, DACs, and other special peripherals (such as I2C, SPI, etc.)
  35:../../libs/libDaisy/src/daisy_seed.h ****     can be initialized using their specific initializers within libdaisy
  36:../../libs/libDaisy/src/daisy_seed.h ****     for a specific application.
  37:../../libs/libDaisy/src/daisy_seed.h ****     */
  38:../../libs/libDaisy/src/daisy_seed.h ****     void Init(bool boost = false);
  39:../../libs/libDaisy/src/daisy_seed.h **** 
  40:../../libs/libDaisy/src/daisy_seed.h ****     /** 
  41:../../libs/libDaisy/src/daisy_seed.h ****     Deinitializes all peripherals automatically handled by `Init`.
  42:../../libs/libDaisy/src/daisy_seed.h ****     */
  43:../../libs/libDaisy/src/daisy_seed.h ****     void DeInit();
  44:../../libs/libDaisy/src/daisy_seed.h **** 
  45:../../libs/libDaisy/src/daisy_seed.h ****     /** 
  46:../../libs/libDaisy/src/daisy_seed.h ****     Wait some ms before going on.
  47:../../libs/libDaisy/src/daisy_seed.h ****     \param del Delay time in ms.
  48:../../libs/libDaisy/src/daisy_seed.h ****     */
  49:../../libs/libDaisy/src/daisy_seed.h ****     void DelayMs(size_t del);
  50:../../libs/libDaisy/src/daisy_seed.h **** 
  51:../../libs/libDaisy/src/daisy_seed.h ****     /** 
  52:../../libs/libDaisy/src/daisy_seed.h ****     Returns the gpio_pin corresponding to the index 0-31.
  53:../../libs/libDaisy/src/daisy_seed.h ****     For the given GPIO on the Daisy Seed (labeled 1-32 in docs).
  54:../../libs/libDaisy/src/daisy_seed.h ****     */
  55:../../libs/libDaisy/src/daisy_seed.h ****     static Pin GetPin(uint8_t pin_idx);
  56:../../libs/libDaisy/src/daisy_seed.h **** 
  57:../../libs/libDaisy/src/daisy_seed.h ****     /** Begins the audio for the seeds builtin audio.
  58:../../libs/libDaisy/src/daisy_seed.h ****     the specified callback will get called whenever
  59:../../libs/libDaisy/src/daisy_seed.h ****     new data is ready to be prepared.
  60:../../libs/libDaisy/src/daisy_seed.h ****     */
  61:../../libs/libDaisy/src/daisy_seed.h ****     void StartAudio(AudioHandle::InterleavingAudioCallback cb);
  62:../../libs/libDaisy/src/daisy_seed.h **** 
  63:../../libs/libDaisy/src/daisy_seed.h ****     /** Begins the audio for the seeds builtin audio.
  64:../../libs/libDaisy/src/daisy_seed.h ****     the specified callback will get called whenever
  65:../../libs/libDaisy/src/daisy_seed.h ****     new data is ready to be prepared.
  66:../../libs/libDaisy/src/daisy_seed.h ****     This will use the newer non-interleaved callback.
  67:../../libs/libDaisy/src/daisy_seed.h ****     */
  68:../../libs/libDaisy/src/daisy_seed.h ****     void StartAudio(AudioHandle::AudioCallback cb);
  69:../../libs/libDaisy/src/daisy_seed.h **** 
  70:../../libs/libDaisy/src/daisy_seed.h ****     /** Changes to a new interleaved callback
  71:../../libs/libDaisy/src/daisy_seed.h ****      */
  72:../../libs/libDaisy/src/daisy_seed.h ****     void ChangeAudioCallback(AudioHandle::InterleavingAudioCallback cb);
  73:../../libs/libDaisy/src/daisy_seed.h **** 
  74:../../libs/libDaisy/src/daisy_seed.h ****     /** Changes to a new multichannel callback
  75:../../libs/libDaisy/src/daisy_seed.h ****      */
  76:../../libs/libDaisy/src/daisy_seed.h ****     void ChangeAudioCallback(AudioHandle::AudioCallback cb);
  77:../../libs/libDaisy/src/daisy_seed.h **** 
  78:../../libs/libDaisy/src/daisy_seed.h ****     /** Stops the audio if it is running. */
  79:../../libs/libDaisy/src/daisy_seed.h ****     void StopAudio();
  80:../../libs/libDaisy/src/daisy_seed.h **** 
  81:../../libs/libDaisy/src/daisy_seed.h ****     /** Updates the Audio Sample Rate, and reinitializes.
  82:../../libs/libDaisy/src/daisy_seed.h ****      ** Audio must be stopped for this to work.
  83:../../libs/libDaisy/src/daisy_seed.h ****      */
  84:../../libs/libDaisy/src/daisy_seed.h ****     void SetAudioSampleRate(SaiHandle::Config::SampleRate samplerate);
  85:../../libs/libDaisy/src/daisy_seed.h **** 
  86:../../libs/libDaisy/src/daisy_seed.h ****     /** Returns the audio sample rate in Hz as a floating point number.
ARM GAS  C:\Users\skipi\AppData\Local\Temp\cc3AYCkc.s 			page 40


  87:../../libs/libDaisy/src/daisy_seed.h ****      */
  88:../../libs/libDaisy/src/daisy_seed.h ****     float AudioSampleRate();
  89:../../libs/libDaisy/src/daisy_seed.h **** 
  90:../../libs/libDaisy/src/daisy_seed.h ****     /** Sets the number of samples processed per channel by the audio callback.
  91:../../libs/libDaisy/src/daisy_seed.h ****      */
  92:../../libs/libDaisy/src/daisy_seed.h ****     void SetAudioBlockSize(size_t blocksize);
  93:../../libs/libDaisy/src/daisy_seed.h **** 
  94:../../libs/libDaisy/src/daisy_seed.h ****     /** Returns the number of samples per channel in a block of audio. */
  95:../../libs/libDaisy/src/daisy_seed.h ****     size_t AudioBlockSize();
  96:../../libs/libDaisy/src/daisy_seed.h **** 
  97:../../libs/libDaisy/src/daisy_seed.h ****     /** Returns the rate in Hz that the Audio callback is called */
  98:../../libs/libDaisy/src/daisy_seed.h ****     float AudioCallbackRate() const;
  99:../../libs/libDaisy/src/daisy_seed.h **** 
 100:../../libs/libDaisy/src/daisy_seed.h ****     /** Returns the SAI Handle for the Daisy Seed 
 101:../../libs/libDaisy/src/daisy_seed.h ****      *  This can be useful when adding a secondary codec,
 102:../../libs/libDaisy/src/daisy_seed.h ****      *  the result of this function can be passed to the audio reinit 
 103:../../libs/libDaisy/src/daisy_seed.h ****      *  with an SAI2 configuration
 104:../../libs/libDaisy/src/daisy_seed.h ****      */
 105:../../libs/libDaisy/src/daisy_seed.h ****     const SaiHandle& AudioSaiHandle() const;
 106:../../libs/libDaisy/src/daisy_seed.h **** 
 107:../../libs/libDaisy/src/daisy_seed.h ****     /** Sets the state of the built in LED
 108:../../libs/libDaisy/src/daisy_seed.h ****      */
 109:../../libs/libDaisy/src/daisy_seed.h ****     void SetLed(bool state);
 110:../../libs/libDaisy/src/daisy_seed.h **** 
 111:../../libs/libDaisy/src/daisy_seed.h ****     /** Sets the state of the test point near pin 10
 112:../../libs/libDaisy/src/daisy_seed.h ****      */
 113:../../libs/libDaisy/src/daisy_seed.h ****     void SetTestPoint(bool state);
 114:../../libs/libDaisy/src/daisy_seed.h **** 
 115:../../libs/libDaisy/src/daisy_seed.h ****     /** Print formatted debug log message
 116:../../libs/libDaisy/src/daisy_seed.h ****      */
 117:../../libs/libDaisy/src/daisy_seed.h ****     template <typename... VA>
 118:../../libs/libDaisy/src/daisy_seed.h ****     static void Print(const char* format, VA... va)
 119:../../libs/libDaisy/src/daisy_seed.h ****     {
 120:../../libs/libDaisy/src/daisy_seed.h ****         Log::Print(format, va...);
 121:../../libs/libDaisy/src/daisy_seed.h ****     }
 122:../../libs/libDaisy/src/daisy_seed.h **** 
 123:../../libs/libDaisy/src/daisy_seed.h ****     /** Print formatted debug log message with automatic line termination
 124:../../libs/libDaisy/src/daisy_seed.h ****     */
 125:../../libs/libDaisy/src/daisy_seed.h ****     template <typename... VA>
 126:../../libs/libDaisy/src/daisy_seed.h ****     static void PrintLine(const char* format, VA... va)
 127:../../libs/libDaisy/src/daisy_seed.h ****     {
 128:../../libs/libDaisy/src/daisy_seed.h ****         Log::PrintLine(format, va...);
 129:../../libs/libDaisy/src/daisy_seed.h ****     }
 130:../../libs/libDaisy/src/daisy_seed.h **** 
 131:../../libs/libDaisy/src/daisy_seed.h ****     /** Start the logging session. Optionally wait for terminal connection before proceeding.
 132:../../libs/libDaisy/src/daisy_seed.h ****     */
 133:../../libs/libDaisy/src/daisy_seed.h ****     static void StartLog(bool wait_for_pc = false)
 1026              		.loc 1 133 17 view .LVU251
 1027              	.LBB809:
 134:../../libs/libDaisy/src/daisy_seed.h ****     {
 135:../../libs/libDaisy/src/daisy_seed.h ****         Log::StartLog(wait_for_pc);
 1028              		.loc 1 135 9 view .LVU252
 1029              		.loc 1 135 22 is_stmt 0 view .LVU253
 1030 0146 0020     		movs	r0, #0
 1031 0148 FFF7FEFF 		bl	_ZN5daisy6LoggerILNS_17LoggerDestinationE1EE8StartLogEb
 1032              	.LVL64:
 1033              		.loc 1 135 22 view .LVU254
ARM GAS  C:\Users\skipi\AppData\Local\Temp\cc3AYCkc.s 			page 41


 1034              	.LBE809:
 1035              	.LBE808:
 107:main.cpp      ****   #endif
 108:main.cpp      ****   #ifdef csvAcquisition
 109:main.cpp      ****     hw.StartLog(false); // starts the log to the serial port
 110:main.cpp      ****   #endif
 111:main.cpp      ****   
 112:main.cpp      **** 
 113:main.cpp      ****   daisy::Mpr121I2C::Result status = cap.Init(mpr121ObjConf);
 1036              		.loc 10 113 3 is_stmt 1 view .LVU255
 1037              		.loc 10 113 3 is_stmt 0 view .LVU256
 1038 014c DFF838E2 		ldr	lr, .L59+80
 1039              	.LBB810:
 1040              	.LBB785:
 123:../../libs/libDaisy/src/dev/mpr121.h **** 
 1041              		.loc 9 123 9 view .LVU257
 1042 0150 8B4C     		ldr	r4, .L59+72
 1043 0152 BC46     		mov	ip, r7
 1044              	.LBB610:
 1045              	.LBB611:
  49:../../libs/libDaisy/src/dev/mpr121.h **** 
 1046              		.loc 9 49 17 view .LVU258
 1047 0154 CDF81490 		str	r9, [sp, #20]
 1048              	.LBE611:
 1049              	.LBE610:
 123:../../libs/libDaisy/src/dev/mpr121.h **** 
 1050              		.loc 9 123 9 view .LVU259
 1051 0158 2546     		mov	r5, r4
 1052              	.LBB624:
 1053              	.LBB621:
  49:../../libs/libDaisy/src/dev/mpr121.h **** 
 1054              		.loc 9 49 17 view .LVU260
 1055 015a 04F11C0A 		add	r10, r4, #28
 1056 015e BEE80F00 		ldmia	lr!, {r0, r1, r2, r3}
 1057 0162 0FC7     		stmia	r7!, {r0, r1, r2, r3}
 1058 0164 9EE80300 		ldm	lr, {r0, r1}
 1059 0168 47F8040B 		str	r0, [r7], #4
 1060 016c 3980     		strh	r1, [r7]	@ movhi
 1061              	.LBE621:
 1062              	.LBE624:
 1063              	.LBE785:
 1064              	.LBI608:
 121:../../libs/libDaisy/src/dev/mpr121.h ****     {
 1065              		.loc 9 121 12 is_stmt 1 view .LVU261
 1066 016e 2746     		mov	r7, r4
 1067              	.LBB786:
 123:../../libs/libDaisy/src/dev/mpr121.h **** 
 1068              		.loc 9 123 9 is_stmt 0 view .LVU262
 1069 0170 BCE80F00 		ldmia	ip!, {r0, r1, r2, r3}
 1070 0174 0FC5     		stmia	r5!, {r0, r1, r2, r3}
 1071 0176 9CE80300 		ldm	ip, {r0, r1}
 1072 017a 45F8040B 		str	r0, [r5], #4
 1073 017e 2980     		strh	r1, [r5]	@ movhi
 1074              	.LVL65:
 123:../../libs/libDaisy/src/dev/mpr121.h **** 
 1075              		.loc 9 123 9 view .LVU263
 1076 0180 0546     		mov	r5, r0
ARM GAS  C:\Users\skipi\AppData\Local\Temp\cc3AYCkc.s 			page 42


 1077 0182 0FCF     		ldmia	r7!, {r0, r1, r2, r3}
 1078 0184 A9E80F00 		stmia	r9!, {r0, r1, r2, r3}
 1079              	.LBB625:
 1080              	.LBB622:
  56:../../libs/libDaisy/src/dev/mpr121.h ****         i2c_conf.pin_config.sda = config.sda;
 1081              		.loc 9 56 33 view .LVU264
 1082 0188 BDF82030 		ldrh	r3, [sp, #32]
 1083              	.LBB612:
 1084              	.LBB613:
 1085              		.file 11 "../../libs/libDaisy/src/per/i2c.h"
   1:../../libs/libDaisy/src/per/i2c.h **** #pragma once
   2:../../libs/libDaisy/src/per/i2c.h **** #include "util/hal_map.h"
   3:../../libs/libDaisy/src/per/i2c.h **** #include "daisy_core.h"
   4:../../libs/libDaisy/src/per/i2c.h **** 
   5:../../libs/libDaisy/src/per/i2c.h **** namespace daisy
   6:../../libs/libDaisy/src/per/i2c.h **** {
   7:../../libs/libDaisy/src/per/i2c.h **** /** A handle for interacting with an I2C peripheral. This is a dumb
   8:../../libs/libDaisy/src/per/i2c.h ****  *  gateway that internally points to one of the four I2C peripherals
   9:../../libs/libDaisy/src/per/i2c.h ****  *  after it was initialised. It can then be copied and passed around.
  10:../../libs/libDaisy/src/per/i2c.h ****  *  Use an I2CHandle like this:
  11:../../libs/libDaisy/src/per/i2c.h ****  *  
  12:../../libs/libDaisy/src/per/i2c.h ****  *      // setup the configuration
  13:../../libs/libDaisy/src/per/i2c.h ****  *      I2CHandle::Config i2c_conf;
  14:../../libs/libDaisy/src/per/i2c.h ****  *      i2c_conf.periph = I2CHandle::Config::Peripheral::I2C_1;
  15:../../libs/libDaisy/src/per/i2c.h ****  *      i2c_conf.speed  = I2CHandle::Config::Speed::I2C_400KHZ;
  16:../../libs/libDaisy/src/per/i2c.h ****  *      i2c_conf.mode   = I2CHandle::Config::Mode::Master;
  17:../../libs/libDaisy/src/per/i2c.h ****  *      i2c_conf.pin_config.scl  = {DSY_GPIOB, 8};
  18:../../libs/libDaisy/src/per/i2c.h ****  *      i2c_conf.pin_config.sda  = {DSY_GPIOB, 9};
  19:../../libs/libDaisy/src/per/i2c.h ****  *      // initialise the peripheral
  20:../../libs/libDaisy/src/per/i2c.h ****  *      I2CHandle i2c;
  21:../../libs/libDaisy/src/per/i2c.h ****  *      i2c.Init(i2c_conf);
  22:../../libs/libDaisy/src/per/i2c.h ****  *      // now i2c points to the corresponding peripheral and can be used.
  23:../../libs/libDaisy/src/per/i2c.h ****  *      i2c.TransmitBlocking( ... );
  24:../../libs/libDaisy/src/per/i2c.h ****  */
  25:../../libs/libDaisy/src/per/i2c.h **** class I2CHandle
  26:../../libs/libDaisy/src/per/i2c.h **** {
  27:../../libs/libDaisy/src/per/i2c.h ****   public:
  28:../../libs/libDaisy/src/per/i2c.h ****     /** Contains settings for initialising an I2C interface. */
  29:../../libs/libDaisy/src/per/i2c.h ****     struct Config
 1086              		.loc 11 29 12 view .LVU265
 1087 018c 4FF01002 		mov	r2, #16
 1088 0190 C9F80050 		str	r5, [r9]
 1089              	.LBE613:
 1090              	.LBE612:
  56:../../libs/libDaisy/src/dev/mpr121.h ****         i2c_conf.pin_config.sda = config.sda;
 1091              		.loc 9 56 33 view .LVU266
 1092 0194 ADF83030 		strh	r3, [sp, #48]	@ movhi
  57:../../libs/libDaisy/src/dev/mpr121.h **** 
 1093              		.loc 9 57 33 view .LVU267
 1094 0198 BDF82230 		ldrh	r3, [sp, #34]
 1095              	.LBB619:
 1096              	.LBB617:
 1097              		.loc 11 29 12 view .LVU268
 1098 019c 8DF83C20 		strb	r2, [sp, #60]
 1099              	.LBE617:
 1100              	.LBE619:
  52:../../libs/libDaisy/src/dev/mpr121.h ****         i2c_conf.periph = config.periph;
ARM GAS  C:\Users\skipi\AppData\Local\Temp\cc3AYCkc.s 			page 43


 1101              		.loc 9 52 25 view .LVU269
 1102 01a0 0022     		movs	r2, #0
  57:../../libs/libDaisy/src/dev/mpr121.h **** 
 1103              		.loc 9 57 33 view .LVU270
 1104 01a2 ADF83230 		strh	r3, [sp, #50]	@ movhi
  49:../../libs/libDaisy/src/dev/mpr121.h **** 
 1105              		.loc 9 49 17 view .LVU271
 1106 01a6 059B     		ldr	r3, [sp, #20]
  52:../../libs/libDaisy/src/dev/mpr121.h ****         i2c_conf.periph = config.periph;
 1107              		.loc 9 52 25 view .LVU272
 1108 01a8 0E92     		str	r2, [sp, #56]
 1109              	.LVL66:
  49:../../libs/libDaisy/src/dev/mpr121.h **** 
 1110              		.loc 9 49 17 view .LVU273
 1111 01aa 1F46     		mov	r7, r3
 1112 01ac 0690     		str	r0, [sp, #24]
  53:../../libs/libDaisy/src/dev/mpr121.h ****         i2c_conf.speed  = config.speed;
 1113              		.loc 9 53 25 view .LVU274
 1114 01ae 0B90     		str	r0, [sp, #44]
 1115              	.LVL67:
  53:../../libs/libDaisy/src/dev/mpr121.h ****         i2c_conf.speed  = config.speed;
 1116              		.loc 9 53 25 view .LVU275
 1117              	.LBE622:
 1118              	.LBI610:
  47:../../libs/libDaisy/src/dev/mpr121.h ****     {
 1119              		.loc 9 47 17 is_stmt 1 view .LVU276
 1120              	.LBB623:
  49:../../libs/libDaisy/src/dev/mpr121.h **** 
 1121              		.loc 9 49 9 view .LVU277
  49:../../libs/libDaisy/src/dev/mpr121.h **** 
 1122              		.loc 9 49 17 is_stmt 0 view .LVU278
 1123 01b0 0791     		str	r1, [sp, #28]
  54:../../libs/libDaisy/src/dev/mpr121.h **** 
 1124              		.loc 9 54 25 view .LVU279
 1125 01b2 0D91     		str	r1, [sp, #52]
  49:../../libs/libDaisy/src/dev/mpr121.h **** 
 1126              		.loc 9 49 17 view .LVU280
 1127 01b4 0FCF     		ldmia	r7!, {r0, r1, r2, r3}
 1128              	.LVL68:
  49:../../libs/libDaisy/src/dev/mpr121.h **** 
 1129              		.loc 9 49 17 view .LVU281
 1130 01b6 AAE80F00 		stmia	r10!, {r0, r1, r2, r3}
  59:../../libs/libDaisy/src/dev/mpr121.h ****     }
 1131              		.loc 9 59 50 view .LVU282
 1132 01ba 0BA9     		add	r1, sp, #44
  49:../../libs/libDaisy/src/dev/mpr121.h **** 
 1133              		.loc 9 49 17 view .LVU283
 1134 01bc 8AF80050 		strb	r5, [r10]
  51:../../libs/libDaisy/src/dev/mpr121.h ****         i2c_conf.mode   = I2CHandle::Config::Mode::I2C_MASTER;
 1135              		.loc 9 51 9 is_stmt 1 view .LVU284
 1136              	.LVL69:
 1137              	.LBB620:
 1138              	.LBI612:
 1139              		.loc 11 29 12 view .LVU285
 1140              	.LBB618:
 1141              	.LBB614:
 1142              	.LBI614:
ARM GAS  C:\Users\skipi\AppData\Local\Temp\cc3AYCkc.s 			page 44


  30:../../libs/libDaisy/src/per/i2c.h ****     {
  31:../../libs/libDaisy/src/per/i2c.h ****         /** Specifies whether the interface will operate in master or slave mode. */
  32:../../libs/libDaisy/src/per/i2c.h ****         enum class Mode
  33:../../libs/libDaisy/src/per/i2c.h ****         {
  34:../../libs/libDaisy/src/per/i2c.h ****             I2C_MASTER,
  35:../../libs/libDaisy/src/per/i2c.h ****             I2C_SLAVE,
  36:../../libs/libDaisy/src/per/i2c.h ****         };
  37:../../libs/libDaisy/src/per/i2c.h **** 
  38:../../libs/libDaisy/src/per/i2c.h ****         /** Specifices the internal peripheral to use (these are mapped to different pins on the ha
  39:../../libs/libDaisy/src/per/i2c.h ****         enum class Peripheral
  40:../../libs/libDaisy/src/per/i2c.h ****         {
  41:../../libs/libDaisy/src/per/i2c.h ****             I2C_1 = 0, /**< & */
  42:../../libs/libDaisy/src/per/i2c.h ****             I2C_2,     /**< & */
  43:../../libs/libDaisy/src/per/i2c.h ****             I2C_3,     /**< & */
  44:../../libs/libDaisy/src/per/i2c.h ****             I2C_4,     /**< & */
  45:../../libs/libDaisy/src/per/i2c.h ****         };
  46:../../libs/libDaisy/src/per/i2c.h **** 
  47:../../libs/libDaisy/src/per/i2c.h ****         /** Rate at which the clock/data will be sent/received. The device being used will have max
  48:../../libs/libDaisy/src/per/i2c.h ****          *  1MHZ Mode is currently 886kHz
  49:../../libs/libDaisy/src/per/i2c.h ****          */
  50:../../libs/libDaisy/src/per/i2c.h ****         enum class Speed
  51:../../libs/libDaisy/src/per/i2c.h ****         {
  52:../../libs/libDaisy/src/per/i2c.h ****             I2C_100KHZ, /**< & */
  53:../../libs/libDaisy/src/per/i2c.h ****             I2C_400KHZ, /**< & */
  54:../../libs/libDaisy/src/per/i2c.h ****             I2C_1MHZ,   /**< & */
  55:../../libs/libDaisy/src/per/i2c.h ****         };
  56:../../libs/libDaisy/src/per/i2c.h **** 
  57:../../libs/libDaisy/src/per/i2c.h ****         Peripheral periph; /**< & */
  58:../../libs/libDaisy/src/per/i2c.h ****         struct
  59:../../libs/libDaisy/src/per/i2c.h ****         {
 1143              		.loc 11 59 9 view .LVU286
 1144              	.LBB615:
 1145              	.LBI615:
 1146              		.file 12 "../../libs/libDaisy/src/daisy_core.h"
   1:../../libs/libDaisy/src/daisy_core.h **** #pragma once
   2:../../libs/libDaisy/src/daisy_core.h **** #ifndef DSY_CORE_HW_H
   3:../../libs/libDaisy/src/daisy_core.h **** #define DSY_CORE_HW_H /**< & */
   4:../../libs/libDaisy/src/daisy_core.h **** #include <stdint.h>
   5:../../libs/libDaisy/src/daisy_core.h **** #include <stdlib.h>
   6:../../libs/libDaisy/src/daisy_core.h **** 
   7:../../libs/libDaisy/src/daisy_core.h **** #if defined(_MSC_VER)
   8:../../libs/libDaisy/src/daisy_core.h **** #define FORCE_INLINE __forceinline /**< & */
   9:../../libs/libDaisy/src/daisy_core.h **** #elif defined(__clang__)
  10:../../libs/libDaisy/src/daisy_core.h **** #define FORCE_INLINE inline __attribute__((always_inline)) /**< & */
  11:../../libs/libDaisy/src/daisy_core.h **** #pragma clang diagnostic ignored "-Wduplicate-decl-specifier"
  12:../../libs/libDaisy/src/daisy_core.h **** #elif defined(__GNUC__)
  13:../../libs/libDaisy/src/daisy_core.h **** #define FORCE_INLINE inline __attribute__((always_inline)) /**< & */
  14:../../libs/libDaisy/src/daisy_core.h **** #else
  15:../../libs/libDaisy/src/daisy_core.h **** #error unknown compiler
  16:../../libs/libDaisy/src/daisy_core.h **** #endif
  17:../../libs/libDaisy/src/daisy_core.h **** 
  18:../../libs/libDaisy/src/daisy_core.h **** /** @addtogroup utility
  19:../../libs/libDaisy/src/daisy_core.h ****     @{
  20:../../libs/libDaisy/src/daisy_core.h **** */
  21:../../libs/libDaisy/src/daisy_core.h **** 
  22:../../libs/libDaisy/src/daisy_core.h **** /** Macro for area of memory that is configured as cacheless
  23:../../libs/libDaisy/src/daisy_core.h **** This should be used primarily for DMA buffers, and the like.
ARM GAS  C:\Users\skipi\AppData\Local\Temp\cc3AYCkc.s 			page 45


  24:../../libs/libDaisy/src/daisy_core.h **** */
  25:../../libs/libDaisy/src/daisy_core.h **** #define DMA_BUFFER_MEM_SECTION __attribute__((section(".sram1_bss")))
  26:../../libs/libDaisy/src/daisy_core.h **** /** 
  27:../../libs/libDaisy/src/daisy_core.h **** THE DTCM RAM section is also non-cached. However, is not suitable 
  28:../../libs/libDaisy/src/daisy_core.h **** for DMA transfers. Performance is on par with internal SRAM w/ 
  29:../../libs/libDaisy/src/daisy_core.h **** cache enabled.
  30:../../libs/libDaisy/src/daisy_core.h **** */
  31:../../libs/libDaisy/src/daisy_core.h **** #define DTCM_MEM_SECTION __attribute__((section(".dtcmram_bss")))
  32:../../libs/libDaisy/src/daisy_core.h **** 
  33:../../libs/libDaisy/src/daisy_core.h **** #define FBIPMAX 0.999985f             /**< close to 1.0f-LSB at 16 bit */
  34:../../libs/libDaisy/src/daisy_core.h **** #define FBIPMIN (-FBIPMAX)            /**< - (1 - LSB) */
  35:../../libs/libDaisy/src/daisy_core.h **** #define U82F_SCALE 0.0078740f         /**< 1 / 127 */
  36:../../libs/libDaisy/src/daisy_core.h **** #define F2U8_SCALE 127.0f             /**< 128 - 1 */
  37:../../libs/libDaisy/src/daisy_core.h **** #define S82F_SCALE 0.0078125f         /**< 1 / (2**7) */
  38:../../libs/libDaisy/src/daisy_core.h **** #define F2S8_SCALE 127.0f             /**< (2 ** 7) - 1 */
  39:../../libs/libDaisy/src/daisy_core.h **** #define S162F_SCALE 3.0517578125e-05f /**< 1 / (2** 15) */
  40:../../libs/libDaisy/src/daisy_core.h **** #define F2S16_SCALE 32767.0f          /**< (2 ** 15) - 1 */
  41:../../libs/libDaisy/src/daisy_core.h **** #define F2S24_SCALE 8388608.0f        /**< 2 ** 23 */
  42:../../libs/libDaisy/src/daisy_core.h **** #define S242F_SCALE 1.192092896e-07f  /**< 1 / (2 ** 23) */
  43:../../libs/libDaisy/src/daisy_core.h **** #define S24SIGN 0x800000              /**< 2 ** 23 */
  44:../../libs/libDaisy/src/daisy_core.h **** #define S322F_SCALE 4.6566129e-10f    /**< 1 / (2** 31) */
  45:../../libs/libDaisy/src/daisy_core.h **** #define F2S32_SCALE 2147483647.f      /**< (2 ** 31) - 1 */
  46:../../libs/libDaisy/src/daisy_core.h **** 
  47:../../libs/libDaisy/src/daisy_core.h **** 
  48:../../libs/libDaisy/src/daisy_core.h **** /** shorthand macro for simplifying the reading of the left 
  49:../../libs/libDaisy/src/daisy_core.h ****  *  channel of a non-interleaved output buffer named out */
  50:../../libs/libDaisy/src/daisy_core.h **** #define OUT_L out[0]
  51:../../libs/libDaisy/src/daisy_core.h **** 
  52:../../libs/libDaisy/src/daisy_core.h **** /** shorthand macro for simplifying the reading of the right 
  53:../../libs/libDaisy/src/daisy_core.h ****  *  channel of a non-interleaved output buffer named out */
  54:../../libs/libDaisy/src/daisy_core.h **** #define OUT_R out[1]
  55:../../libs/libDaisy/src/daisy_core.h **** 
  56:../../libs/libDaisy/src/daisy_core.h **** /** shorthand macro for simplifying the reading of the left 
  57:../../libs/libDaisy/src/daisy_core.h ****  *  channel of a non-interleaved input buffer named in */
  58:../../libs/libDaisy/src/daisy_core.h **** #define IN_L in[0]
  59:../../libs/libDaisy/src/daisy_core.h **** 
  60:../../libs/libDaisy/src/daisy_core.h **** /** shorthand macro for simplifying the reading of the right 
  61:../../libs/libDaisy/src/daisy_core.h ****  *  channel of a non-interleaved input buffer named in */
  62:../../libs/libDaisy/src/daisy_core.h **** #define IN_R in[1]
  63:../../libs/libDaisy/src/daisy_core.h **** 
  64:../../libs/libDaisy/src/daisy_core.h **** /** 
  65:../../libs/libDaisy/src/daisy_core.h ****     Computes cube.
  66:../../libs/libDaisy/src/daisy_core.h ****     \param x Number to be cubed
  67:../../libs/libDaisy/src/daisy_core.h ****     \return x ^ 3
  68:../../libs/libDaisy/src/daisy_core.h **** */
  69:../../libs/libDaisy/src/daisy_core.h **** FORCE_INLINE float cube(float x)
  70:../../libs/libDaisy/src/daisy_core.h **** {
  71:../../libs/libDaisy/src/daisy_core.h ****     return (x * x) * x;
  72:../../libs/libDaisy/src/daisy_core.h **** }
  73:../../libs/libDaisy/src/daisy_core.h **** 
  74:../../libs/libDaisy/src/daisy_core.h **** /** 
  75:../../libs/libDaisy/src/daisy_core.h ****     Converts unsigned 8-bit to float
  76:../../libs/libDaisy/src/daisy_core.h ****     \param x Number to be scaled.
  77:../../libs/libDaisy/src/daisy_core.h ****     \return Scaled number.
  78:../../libs/libDaisy/src/daisy_core.h **** */
  79:../../libs/libDaisy/src/daisy_core.h **** FORCE_INLINE float u82f(uint8_t x)
  80:../../libs/libDaisy/src/daisy_core.h **** {
ARM GAS  C:\Users\skipi\AppData\Local\Temp\cc3AYCkc.s 			page 46


  81:../../libs/libDaisy/src/daisy_core.h ****     return ((float)x - 127.f) * U82F_SCALE;
  82:../../libs/libDaisy/src/daisy_core.h **** }
  83:../../libs/libDaisy/src/daisy_core.h **** 
  84:../../libs/libDaisy/src/daisy_core.h **** /**
  85:../../libs/libDaisy/src/daisy_core.h ****     Converts float to unsigned 8-bit
  86:../../libs/libDaisy/src/daisy_core.h **** */
  87:../../libs/libDaisy/src/daisy_core.h **** FORCE_INLINE uint8_t f2u8(float x)
  88:../../libs/libDaisy/src/daisy_core.h **** {
  89:../../libs/libDaisy/src/daisy_core.h ****     x = x <= FBIPMIN ? FBIPMIN : x;
  90:../../libs/libDaisy/src/daisy_core.h ****     x = x >= FBIPMAX ? FBIPMAX : x;
  91:../../libs/libDaisy/src/daisy_core.h ****     return (uint8_t)((x * F2U8_SCALE) + F2U8_SCALE);
  92:../../libs/libDaisy/src/daisy_core.h **** }
  93:../../libs/libDaisy/src/daisy_core.h **** 
  94:../../libs/libDaisy/src/daisy_core.h **** 
  95:../../libs/libDaisy/src/daisy_core.h **** /** 
  96:../../libs/libDaisy/src/daisy_core.h ****     Converts Signed 8-bit to float
  97:../../libs/libDaisy/src/daisy_core.h ****     \param x Number to be scaled.
  98:../../libs/libDaisy/src/daisy_core.h ****     \return Scaled number.
  99:../../libs/libDaisy/src/daisy_core.h **** */
 100:../../libs/libDaisy/src/daisy_core.h **** FORCE_INLINE float s82f(int8_t x)
 101:../../libs/libDaisy/src/daisy_core.h **** {
 102:../../libs/libDaisy/src/daisy_core.h ****     return (float)x * S82F_SCALE;
 103:../../libs/libDaisy/src/daisy_core.h **** }
 104:../../libs/libDaisy/src/daisy_core.h **** 
 105:../../libs/libDaisy/src/daisy_core.h **** /**
 106:../../libs/libDaisy/src/daisy_core.h ****     Converts float to Signed 8-bit
 107:../../libs/libDaisy/src/daisy_core.h **** */
 108:../../libs/libDaisy/src/daisy_core.h **** FORCE_INLINE int8_t f2s8(float x)
 109:../../libs/libDaisy/src/daisy_core.h **** {
 110:../../libs/libDaisy/src/daisy_core.h ****     x = x <= FBIPMIN ? FBIPMIN : x;
 111:../../libs/libDaisy/src/daisy_core.h ****     x = x >= FBIPMAX ? FBIPMAX : x;
 112:../../libs/libDaisy/src/daisy_core.h ****     return (int32_t)(x * F2S8_SCALE);
 113:../../libs/libDaisy/src/daisy_core.h **** }
 114:../../libs/libDaisy/src/daisy_core.h **** 
 115:../../libs/libDaisy/src/daisy_core.h **** /** 
 116:../../libs/libDaisy/src/daisy_core.h ****     Converts Signed 16-bit to float
 117:../../libs/libDaisy/src/daisy_core.h ****     \param x Number to be scaled.
 118:../../libs/libDaisy/src/daisy_core.h ****     \return Scaled number.
 119:../../libs/libDaisy/src/daisy_core.h **** */
 120:../../libs/libDaisy/src/daisy_core.h **** FORCE_INLINE float s162f(int16_t x)
 121:../../libs/libDaisy/src/daisy_core.h **** {
 122:../../libs/libDaisy/src/daisy_core.h ****     return (float)x * S162F_SCALE;
 123:../../libs/libDaisy/src/daisy_core.h **** }
 124:../../libs/libDaisy/src/daisy_core.h **** 
 125:../../libs/libDaisy/src/daisy_core.h **** /**
 126:../../libs/libDaisy/src/daisy_core.h ****     Converts float to Signed 16-bit
 127:../../libs/libDaisy/src/daisy_core.h **** */
 128:../../libs/libDaisy/src/daisy_core.h **** FORCE_INLINE int16_t f2s16(float x)
 129:../../libs/libDaisy/src/daisy_core.h **** {
 130:../../libs/libDaisy/src/daisy_core.h ****     x = x <= FBIPMIN ? FBIPMIN : x;
 131:../../libs/libDaisy/src/daisy_core.h ****     x = x >= FBIPMAX ? FBIPMAX : x;
 132:../../libs/libDaisy/src/daisy_core.h ****     return (int32_t)(x * F2S16_SCALE);
 133:../../libs/libDaisy/src/daisy_core.h **** }
 134:../../libs/libDaisy/src/daisy_core.h **** 
 135:../../libs/libDaisy/src/daisy_core.h **** /**
 136:../../libs/libDaisy/src/daisy_core.h ****     Converts Signed 24-bit to float
 137:../../libs/libDaisy/src/daisy_core.h ****  */
ARM GAS  C:\Users\skipi\AppData\Local\Temp\cc3AYCkc.s 			page 47


 138:../../libs/libDaisy/src/daisy_core.h **** FORCE_INLINE float s242f(int32_t x)
 139:../../libs/libDaisy/src/daisy_core.h **** {
 140:../../libs/libDaisy/src/daisy_core.h ****     x = (x ^ S24SIGN) - S24SIGN; //sign extend aka ((x<<8)>>8)
 141:../../libs/libDaisy/src/daisy_core.h ****     return (float)x * S242F_SCALE;
 142:../../libs/libDaisy/src/daisy_core.h **** }
 143:../../libs/libDaisy/src/daisy_core.h **** /**
 144:../../libs/libDaisy/src/daisy_core.h ****     Converts float to Signed 24-bit
 145:../../libs/libDaisy/src/daisy_core.h ****  */
 146:../../libs/libDaisy/src/daisy_core.h **** FORCE_INLINE int32_t f2s24(float x)
 147:../../libs/libDaisy/src/daisy_core.h **** {
 148:../../libs/libDaisy/src/daisy_core.h ****     x = x <= FBIPMIN ? FBIPMIN : x;
 149:../../libs/libDaisy/src/daisy_core.h ****     x = x >= FBIPMAX ? FBIPMAX : x;
 150:../../libs/libDaisy/src/daisy_core.h ****     return (int32_t)(x * F2S24_SCALE);
 151:../../libs/libDaisy/src/daisy_core.h **** }
 152:../../libs/libDaisy/src/daisy_core.h **** 
 153:../../libs/libDaisy/src/daisy_core.h **** /**
 154:../../libs/libDaisy/src/daisy_core.h ****     Converts Signed 32-bit to float
 155:../../libs/libDaisy/src/daisy_core.h ****  */
 156:../../libs/libDaisy/src/daisy_core.h **** FORCE_INLINE float s322f(int32_t x)
 157:../../libs/libDaisy/src/daisy_core.h **** {
 158:../../libs/libDaisy/src/daisy_core.h ****     return (float)x * S322F_SCALE;
 159:../../libs/libDaisy/src/daisy_core.h **** }
 160:../../libs/libDaisy/src/daisy_core.h **** /**
 161:../../libs/libDaisy/src/daisy_core.h ****     Converts float to Signed 24-bit
 162:../../libs/libDaisy/src/daisy_core.h ****  */
 163:../../libs/libDaisy/src/daisy_core.h **** FORCE_INLINE int32_t f2s32(float x)
 164:../../libs/libDaisy/src/daisy_core.h **** {
 165:../../libs/libDaisy/src/daisy_core.h ****     x = x <= FBIPMIN ? FBIPMIN : x;
 166:../../libs/libDaisy/src/daisy_core.h ****     x = x >= FBIPMAX ? FBIPMAX : x;
 167:../../libs/libDaisy/src/daisy_core.h ****     return (int32_t)(x * F2S32_SCALE);
 168:../../libs/libDaisy/src/daisy_core.h **** }
 169:../../libs/libDaisy/src/daisy_core.h **** 
 170:../../libs/libDaisy/src/daisy_core.h **** #ifdef __cplusplus
 171:../../libs/libDaisy/src/daisy_core.h **** 
 172:../../libs/libDaisy/src/daisy_core.h **** namespace daisy
 173:../../libs/libDaisy/src/daisy_core.h **** {
 174:../../libs/libDaisy/src/daisy_core.h **** /** @brief GPIO Port names */
 175:../../libs/libDaisy/src/daisy_core.h **** enum GPIOPort
 176:../../libs/libDaisy/src/daisy_core.h **** {
 177:../../libs/libDaisy/src/daisy_core.h ****     PORTA, /**< Port A */
 178:../../libs/libDaisy/src/daisy_core.h ****     PORTB, /**< Port B */
 179:../../libs/libDaisy/src/daisy_core.h ****     PORTC, /**< Port C */
 180:../../libs/libDaisy/src/daisy_core.h ****     PORTD, /**< Port D */
 181:../../libs/libDaisy/src/daisy_core.h ****     PORTE, /**< Port E */
 182:../../libs/libDaisy/src/daisy_core.h ****     PORTF, /**< Port F */
 183:../../libs/libDaisy/src/daisy_core.h ****     PORTG, /**< Port G */
 184:../../libs/libDaisy/src/daisy_core.h ****     PORTH, /**< Port H */
 185:../../libs/libDaisy/src/daisy_core.h ****     PORTI, /**< Port I */
 186:../../libs/libDaisy/src/daisy_core.h ****     PORTJ, /**< Port J */
 187:../../libs/libDaisy/src/daisy_core.h ****     PORTK, /**< Port K */
 188:../../libs/libDaisy/src/daisy_core.h ****     PORTX, /**< Used as a dummy port to signal an invalid pin. */
 189:../../libs/libDaisy/src/daisy_core.h **** };
 190:../../libs/libDaisy/src/daisy_core.h **** 
 191:../../libs/libDaisy/src/daisy_core.h **** /** @brief representation of hardware port/pin combination */
 192:../../libs/libDaisy/src/daisy_core.h **** struct Pin
 193:../../libs/libDaisy/src/daisy_core.h **** {
 194:../../libs/libDaisy/src/daisy_core.h ****     GPIOPort port;
ARM GAS  C:\Users\skipi\AppData\Local\Temp\cc3AYCkc.s 			page 48


 195:../../libs/libDaisy/src/daisy_core.h ****     uint8_t  pin;
 196:../../libs/libDaisy/src/daisy_core.h **** 
 197:../../libs/libDaisy/src/daisy_core.h ****     /** @brief Constructor creates a valid pin. 
 198:../../libs/libDaisy/src/daisy_core.h ****      *  @param pt GPIOPort between PA, and PK corresponding to STM32 Port.
 199:../../libs/libDaisy/src/daisy_core.h ****      *  @param pn pin number in range of 0-15
 200:../../libs/libDaisy/src/daisy_core.h ****     */
 201:../../libs/libDaisy/src/daisy_core.h ****     constexpr Pin(const GPIOPort pt, const uint8_t pn) : port(pt), pin(pn) {}
 202:../../libs/libDaisy/src/daisy_core.h **** 
 203:../../libs/libDaisy/src/daisy_core.h ****     /** @brief Basic Constructor creates an invalid Pin object */
 204:../../libs/libDaisy/src/daisy_core.h ****     constexpr Pin() : port(PORTX), pin(255) {}
 1147              		.loc 12 204 15 view .LVU287
 1148              		.loc 12 204 15 is_stmt 0 view .LVU288
 1149              	.LBE615:
 1150              	.LBB616:
 1151              	.LBI616:
 1152              		.loc 12 204 15 is_stmt 1 view .LVU289
 1153              		.loc 12 204 15 is_stmt 0 view .LVU290
 1154              	.LBE616:
 1155              	.LBE614:
 1156              	.LBE618:
 1157              	.LBE620:
  52:../../libs/libDaisy/src/dev/mpr121.h ****         i2c_conf.periph = config.periph;
 1158              		.loc 9 52 9 is_stmt 1 view .LVU291
  53:../../libs/libDaisy/src/dev/mpr121.h ****         i2c_conf.speed  = config.speed;
 1159              		.loc 9 53 9 view .LVU292
  54:../../libs/libDaisy/src/dev/mpr121.h **** 
 1160              		.loc 9 54 9 view .LVU293
  56:../../libs/libDaisy/src/dev/mpr121.h ****         i2c_conf.pin_config.sda = config.sda;
 1161              		.loc 9 56 9 view .LVU294
  57:../../libs/libDaisy/src/dev/mpr121.h **** 
 1162              		.loc 9 57 9 view .LVU295
  59:../../libs/libDaisy/src/dev/mpr121.h ****     }
 1163              		.loc 9 59 9 view .LVU296
  59:../../libs/libDaisy/src/dev/mpr121.h ****     }
 1164              		.loc 9 59 50 is_stmt 0 view .LVU297
 1165 01c0 04F11800 		add	r0, r4, #24
 1166              	.LVL70:
  59:../../libs/libDaisy/src/dev/mpr121.h ****     }
 1167              		.loc 9 59 50 view .LVU298
 1168 01c4 FFF7FEFF 		bl	_ZN5daisy9I2CHandle4InitERKNS0_6ConfigE
 1169              	.LVL71:
  59:../../libs/libDaisy/src/dev/mpr121.h ****     }
 1170              		.loc 9 59 50 view .LVU299
 1171              	.LBE623:
 1172              	.LBE625:
 1173              	.LBB626:
 1174              	.LBI626:
 1175              		.loc 9 343 10 is_stmt 1 view .LVU300
 1176              	.LBB627:
 1177              		.loc 9 343 55 is_stmt 0 view .LVU301
 1178 01c8 94F83030 		ldrb	r3, [r4, #48]	@ zero_extendqisi2
 1179              	.LBE627:
 1180              	.LBE626:
 128:../../libs/libDaisy/src/dev/mpr121.h ****         System::Delay(1);
 1181              		.loc 9 128 22 view .LVU302
 1182 01cc 8021     		movs	r1, #128
 1183 01ce 6322     		movs	r2, #99
ARM GAS  C:\Users\skipi\AppData\Local\Temp\cc3AYCkc.s 			page 49


 1184              	.LBB630:
 1185              	.LBB628:
 1186              		.loc 9 343 55 view .LVU303
 1187 01d0 0028     		cmp	r0, #0
 1188 01d2 18BF     		it	ne
 1189 01d4 43F00103 		orrne	r3, r3, #1
 1190              	.LBE628:
 1191              	.LBE630:
 128:../../libs/libDaisy/src/dev/mpr121.h ****         System::Delay(1);
 1192              		.loc 9 128 22 view .LVU304
 1193 01d8 2046     		mov	r0, r4
 1194              	.LVL72:
 1195              	.LBB631:
 1196              	.LBB629:
 1197              		.loc 9 343 55 view .LVU305
 1198 01da 84F83030 		strb	r3, [r4, #48]
 1199              	.LVL73:
 1200              		.loc 9 343 55 view .LVU306
 1201              	.LBE629:
 1202              	.LBE631:
 128:../../libs/libDaisy/src/dev/mpr121.h ****         System::Delay(1);
 1203              		.loc 9 128 22 view .LVU307
 1204 01de FFF7FEFF 		bl	_ZN5daisy6Mpr121INS_18Mpr121I2CTransportEE13WriteRegisterEhh
 1205              	.LVL74:
 129:../../libs/libDaisy/src/dev/mpr121.h **** 
 1206              		.loc 9 129 22 view .LVU308
 1207 01e2 4046     		mov	r0, r8
 1208 01e4 FFF7FEFF 		bl	_ZN5daisy6System5DelayEm
 1209              	.LVL75:
 131:../../libs/libDaisy/src/dev/mpr121.h **** 
 1210              		.loc 9 131 22 view .LVU309
 1211 01e8 0022     		movs	r2, #0
 1212 01ea 5E21     		movs	r1, #94
 1213 01ec 2046     		mov	r0, r4
 1214 01ee FFF7FEFF 		bl	_ZN5daisy6Mpr121INS_18Mpr121I2CTransportEE13WriteRegisterEhh
 1215              	.LVL76:
 139:../../libs/libDaisy/src/dev/mpr121.h ****         WriteRegister(MPR121_MHDR, 0x01);
 1216              		.loc 9 139 22 view .LVU310
 1217 01f2 94F814A0 		ldrb	r10, [r4, #20]	@ zero_extendqisi2
 1218 01f6 94F81590 		ldrb	r9, [r4, #21]	@ zero_extendqisi2
 1219              	.LVL77:
 1220              	.LBB632:
 1221              	.LBI632:
 183:../../libs/libDaisy/src/dev/mpr121.h ****     {
 1222              		.loc 9 183 10 is_stmt 1 view .LVU311
 1223              	.LBB633:
 186:../../libs/libDaisy/src/dev/mpr121.h ****         {
 1224              		.loc 9 186 30 view .LVU312
 1225              	.L26:
 1226              	.LBB634:
 1227              	.LBI634:
 257:../../libs/libDaisy/src/dev/mpr121.h ****     {
 1228              		.loc 9 257 10 view .LVU313
 1229              	.LBB635:
 1230              	.LBB636:
 1231              	.LBB637:
  66:../../libs/libDaisy/src/dev/mpr121.h ****     }
ARM GAS  C:\Users\skipi\AppData\Local\Temp\cc3AYCkc.s 			page 50


 1232              		.loc 9 66 40 is_stmt 0 view .LVU314
 1233 01fa 0A25     		movs	r5, #10
 1234              	.LBE637:
 1235              	.LBE636:
 264:../../libs/libDaisy/src/dev/mpr121.h **** 
 1236              		.loc 9 264 17 view .LVU315
 1237 01fc 4FF00008 		mov	r8, #0
 1238 0200 5E27     		movs	r7, #94
 1239              	.LBB640:
 1240              	.LBB638:
  66:../../libs/libDaisy/src/dev/mpr121.h ****     }
 1241              		.loc 9 66 40 view .LVU316
 1242 0202 0123     		movs	r3, #1
 1243 0204 0BAA     		add	r2, sp, #44
 1244 0206 0095     		str	r5, [sp]
 1245 0208 5E48     		ldr	r0, .L59+76
 1246 020a 94F82C10 		ldrb	r1, [r4, #44]	@ zero_extendqisi2
 1247              	.LBE638:
 1248              	.LBE640:
 264:../../libs/libDaisy/src/dev/mpr121.h **** 
 1249              		.loc 9 264 17 view .LVU317
 1250 020e 8DF82D80 		strb	r8, [sp, #45]
 1251 0212 8DF82C70 		strb	r7, [sp, #44]
 1252              	.LVL78:
 1253              	.LBB641:
 1254              	.LBI636:
  63:../../libs/libDaisy/src/dev/mpr121.h ****     {
 1255              		.loc 9 63 10 is_stmt 1 view .LVU318
 1256              	.LBB639:
  65:../../libs/libDaisy/src/dev/mpr121.h ****                != i2c_.TransmitBlocking(config_.dev_addr, data, size, 10);
 1257              		.loc 9 65 9 view .LVU319
  66:../../libs/libDaisy/src/dev/mpr121.h ****     }
 1258              		.loc 9 66 40 is_stmt 0 view .LVU320
 1259 0216 FFF7FEFF 		bl	_ZN5daisy9I2CHandle16TransmitBlockingEtPhtm
 1260              	.LVL79:
  66:../../libs/libDaisy/src/dev/mpr121.h ****     }
 1261              		.loc 9 66 40 view .LVU321
 1262              	.LBE639:
 1263              	.LBE641:
 1264              	.LBB642:
 1265              	.LBI642:
 1266              		.loc 9 343 10 is_stmt 1 view .LVU322
 1267              	.LBB643:
 1268              		.loc 9 343 55 is_stmt 0 view .LVU323
 1269 021a 94F83020 		ldrb	r2, [r4, #48]	@ zero_extendqisi2
 1270              	.LBE643:
 1271              	.LBE642:
 1272              	.LBB646:
 1273              	.LBB647:
  73:../../libs/libDaisy/src/dev/mpr121.h ****     }
 1274              		.loc 9 73 39 view .LVU324
 1275 021e 0123     		movs	r3, #1
 1276 0220 0095     		str	r5, [sp]
 1277              	.LBE647:
 1278              	.LBE646:
 1279              	.LBB650:
 1280              	.LBB644:
ARM GAS  C:\Users\skipi\AppData\Local\Temp\cc3AYCkc.s 			page 51


 1281              		.loc 9 343 55 view .LVU325
 1282 0222 4045     		cmp	r0, r8
 1283 0224 18BF     		it	ne
 1284 0226 42F00102 		orrne	r2, r2, #1
 1285              	.LBE644:
 1286              	.LBE650:
 1287              	.LBB651:
 1288              	.LBB648:
  73:../../libs/libDaisy/src/dev/mpr121.h ****     }
 1289              		.loc 9 73 39 view .LVU326
 1290 022a 94F82C10 		ldrb	r1, [r4, #44]	@ zero_extendqisi2
 1291 022e 5548     		ldr	r0, .L59+76
 1292              	.LVL80:
  73:../../libs/libDaisy/src/dev/mpr121.h ****     }
 1293              		.loc 9 73 39 view .LVU327
 1294              	.LBE648:
 1295              	.LBE651:
 1296              	.LBB652:
 1297              	.LBB645:
 1298              		.loc 9 343 55 view .LVU328
 1299 0230 84F83020 		strb	r2, [r4, #48]
 1300              	.LVL81:
 1301              		.loc 9 343 55 view .LVU329
 1302              	.LBE645:
 1303              	.LBE652:
 1304              	.LBB653:
 1305              	.LBI646:
  70:../../libs/libDaisy/src/dev/mpr121.h ****     {
 1306              		.loc 9 70 10 is_stmt 1 view .LVU330
 1307              	.LBB649:
  72:../../libs/libDaisy/src/dev/mpr121.h ****                != i2c_.ReceiveBlocking(config_.dev_addr, data, size, 10);
 1308              		.loc 9 72 9 view .LVU331
  73:../../libs/libDaisy/src/dev/mpr121.h ****     }
 1309              		.loc 9 73 39 is_stmt 0 view .LVU332
 1310 0234 06AA     		add	r2, sp, #24
 1311 0236 FFF7FEFF 		bl	_ZN5daisy9I2CHandle15ReceiveBlockingEtPhtm
 1312              	.LVL82:
  73:../../libs/libDaisy/src/dev/mpr121.h ****     }
 1313              		.loc 9 73 39 view .LVU333
 1314              	.LBE649:
 1315              	.LBE653:
 1316              	.LBB654:
 1317              	.LBI654:
 1318              		.loc 9 343 10 is_stmt 1 view .LVU334
 1319              	.LBB655:
 1320              		.loc 9 343 55 is_stmt 0 view .LVU335
 1321 023a 94F83020 		ldrb	r2, [r4, #48]	@ zero_extendqisi2
 1322              	.LBE655:
 1323              	.LBE654:
 1324              	.LBB658:
 1325              	.LBB659:
  66:../../libs/libDaisy/src/dev/mpr121.h ****     }
 1326              		.loc 9 66 40 view .LVU336
 1327 023e 0223     		movs	r3, #2
 1328 0240 0095     		str	r5, [sp]
 1329              	.LBE659:
 1330              	.LBE658:
ARM GAS  C:\Users\skipi\AppData\Local\Temp\cc3AYCkc.s 			page 52


 1331              	.LBB662:
 1332              	.LBB656:
 1333              		.loc 9 343 55 view .LVU337
 1334 0242 4045     		cmp	r0, r8
 1335 0244 18BF     		it	ne
 1336 0246 42F00102 		orrne	r2, r2, #1
 1337              	.LBE656:
 1338              	.LBE662:
 1339              	.LBB663:
 1340              	.LBB660:
  66:../../libs/libDaisy/src/dev/mpr121.h ****     }
 1341              		.loc 9 66 40 view .LVU338
 1342 024a 94F82C10 		ldrb	r1, [r4, #44]	@ zero_extendqisi2
 1343 024e 4D48     		ldr	r0, .L59+76
 1344              	.LVL83:
  66:../../libs/libDaisy/src/dev/mpr121.h ****     }
 1345              		.loc 9 66 40 view .LVU339
 1346              	.LBE660:
 1347              	.LBE663:
 1348              	.LBB664:
 1349              	.LBB657:
 1350              		.loc 9 343 55 view .LVU340
 1351 0250 84F83020 		strb	r2, [r4, #48]
 1352              	.LVL84:
 1353              		.loc 9 343 55 view .LVU341
 1354              	.LBE657:
 1355              	.LBE664:
 1356              	.LBB665:
 1357              	.LBI658:
  63:../../libs/libDaisy/src/dev/mpr121.h ****     {
 1358              		.loc 9 63 10 is_stmt 1 view .LVU342
 1359              	.LBB661:
  65:../../libs/libDaisy/src/dev/mpr121.h ****                != i2c_.TransmitBlocking(config_.dev_addr, data, size, 10);
 1360              		.loc 9 65 9 view .LVU343
  66:../../libs/libDaisy/src/dev/mpr121.h ****     }
 1361              		.loc 9 66 40 is_stmt 0 view .LVU344
 1362 0254 0BAA     		add	r2, sp, #44
 1363              	.LVL85:
  66:../../libs/libDaisy/src/dev/mpr121.h ****     }
 1364              		.loc 9 66 40 view .LVU345
 1365 0256 FFF7FEFF 		bl	_ZN5daisy9I2CHandle16TransmitBlockingEtPhtm
 1366              	.LVL86:
  66:../../libs/libDaisy/src/dev/mpr121.h ****     }
 1367              		.loc 9 66 40 view .LVU346
 1368              	.LBE661:
 1369              	.LBE665:
 1370              	.LBB666:
 1371              	.LBI666:
 1372              		.loc 9 343 10 is_stmt 1 view .LVU347
 1373              	.LBB667:
 1374              		.loc 9 343 55 is_stmt 0 view .LVU348
 1375 025a 94F83020 		ldrb	r2, [r4, #48]	@ zero_extendqisi2
 1376              	.LBE667:
 1377              	.LBE666:
 1378              	.LBB670:
 1379              	.LBB671:
  66:../../libs/libDaisy/src/dev/mpr121.h ****     }
ARM GAS  C:\Users\skipi\AppData\Local\Temp\cc3AYCkc.s 			page 53


 1380              		.loc 9 66 40 view .LVU349
 1381 025e 0223     		movs	r3, #2
 1382 0260 0095     		str	r5, [sp]
 1383              	.LBE671:
 1384              	.LBE670:
 1385              	.LBB675:
 1386              	.LBB668:
 1387              		.loc 9 343 55 view .LVU350
 1388 0262 4045     		cmp	r0, r8
 1389 0264 18BF     		it	ne
 1390 0266 42F00102 		orrne	r2, r2, #1
 1391              	.LBE668:
 1392              	.LBE675:
 1393              	.LBB676:
 1394              	.LBB672:
  66:../../libs/libDaisy/src/dev/mpr121.h ****     }
 1395              		.loc 9 66 40 view .LVU351
 1396 026a 94F82C10 		ldrb	r1, [r4, #44]	@ zero_extendqisi2
 1397 026e 4548     		ldr	r0, .L59+76
 1398              	.LVL87:
  66:../../libs/libDaisy/src/dev/mpr121.h ****     }
 1399              		.loc 9 66 40 view .LVU352
 1400              	.LBE672:
 1401              	.LBE676:
 1402              	.LBB677:
 1403              	.LBB669:
 1404              		.loc 9 343 55 view .LVU353
 1405 0270 84F83020 		strb	r2, [r4, #48]
 1406              	.LVL88:
 1407              		.loc 9 343 55 view .LVU354
 1408              	.LBE669:
 1409              	.LBE677:
 1410              	.LBB678:
 1411              	.LBI670:
  63:../../libs/libDaisy/src/dev/mpr121.h ****     {
 1412              		.loc 9 63 10 is_stmt 1 view .LVU355
 1413              	.LBB673:
  65:../../libs/libDaisy/src/dev/mpr121.h ****                != i2c_.TransmitBlocking(config_.dev_addr, data, size, 10);
 1414              		.loc 9 65 9 view .LVU356
  66:../../libs/libDaisy/src/dev/mpr121.h ****     }
 1415              		.loc 9 66 40 is_stmt 0 view .LVU357
 1416 0274 0BAA     		add	r2, sp, #44
 1417              	.LVL89:
  66:../../libs/libDaisy/src/dev/mpr121.h ****     }
 1418              		.loc 9 66 40 view .LVU358
 1419              	.LBE673:
 1420              	.LBE678:
 281:../../libs/libDaisy/src/dev/mpr121.h ****         buff[1] = value;
 1421              		.loc 9 281 17 view .LVU359
 1422 0276 8DF82C60 		strb	r6, [sp, #44]
 282:../../libs/libDaisy/src/dev/mpr121.h ****         SetTransportErr(transport_.Write(buff, 2));
 1423              		.loc 9 282 17 view .LVU360
 1424 027a 8DF82DA0 		strb	r10, [sp, #45]
 1425              	.LBB679:
 1426              	.LBB674:
  66:../../libs/libDaisy/src/dev/mpr121.h ****     }
 1427              		.loc 9 66 40 view .LVU361
ARM GAS  C:\Users\skipi\AppData\Local\Temp\cc3AYCkc.s 			page 54


 1428 027e FFF7FEFF 		bl	_ZN5daisy9I2CHandle16TransmitBlockingEtPhtm
 1429              	.LVL90:
  66:../../libs/libDaisy/src/dev/mpr121.h ****     }
 1430              		.loc 9 66 40 view .LVU362
 1431              	.LBE674:
 1432              	.LBE679:
 1433              	.LBB680:
 1434              	.LBI680:
 1435              		.loc 9 343 10 is_stmt 1 view .LVU363
 1436              	.LBB681:
 1437              		.loc 9 343 55 is_stmt 0 view .LVU364
 1438 0282 94F83030 		ldrb	r3, [r4, #48]	@ zero_extendqisi2
 1439              	.LBE681:
 1440              	.LBE680:
 289:../../libs/libDaisy/src/dev/mpr121.h ****             SetTransportErr(transport_.Write(buff, 2));
 1441              		.loc 9 289 21 view .LVU365
 1442 0286 9DF81820 		ldrb	r2, [sp, #24]	@ zero_extendqisi2
 1443              	.LBB684:
 1444              	.LBB682:
 1445              		.loc 9 343 55 view .LVU366
 1446 028a 4045     		cmp	r0, r8
 1447 028c 18BF     		it	ne
 1448 028e 43F00103 		orrne	r3, r3, #1
 1449              	.LBE682:
 1450              	.LBE684:
 1451              	.LBB685:
 1452              	.LBB686:
  66:../../libs/libDaisy/src/dev/mpr121.h ****     }
 1453              		.loc 9 66 40 view .LVU367
 1454 0292 0095     		str	r5, [sp]
 1455              	.LBE686:
 1456              	.LBE685:
 289:../../libs/libDaisy/src/dev/mpr121.h ****             SetTransportErr(transport_.Write(buff, 2));
 1457              		.loc 9 289 21 view .LVU368
 1458 0294 8DF82D20 		strb	r2, [sp, #45]
 1459              	.LBB690:
 1460              	.LBB687:
  66:../../libs/libDaisy/src/dev/mpr121.h ****     }
 1461              		.loc 9 66 40 view .LVU369
 1462 0298 0BAA     		add	r2, sp, #44
 1463 029a 94F82C10 		ldrb	r1, [r4, #44]	@ zero_extendqisi2
 1464              	.LBE687:
 1465              	.LBE690:
 1466              	.LBB691:
 1467              	.LBB683:
 1468              		.loc 9 343 55 view .LVU370
 1469 029e 84F83030 		strb	r3, [r4, #48]
 1470              	.LVL91:
 1471              		.loc 9 343 55 view .LVU371
 1472              	.LBE683:
 1473              	.LBE691:
 1474              	.LBB692:
 1475              	.LBI685:
  63:../../libs/libDaisy/src/dev/mpr121.h ****     {
 1476              		.loc 9 63 10 is_stmt 1 view .LVU372
 1477              	.LBB688:
  65:../../libs/libDaisy/src/dev/mpr121.h ****                != i2c_.TransmitBlocking(config_.dev_addr, data, size, 10);
ARM GAS  C:\Users\skipi\AppData\Local\Temp\cc3AYCkc.s 			page 55


 1478              		.loc 9 65 9 view .LVU373
  66:../../libs/libDaisy/src/dev/mpr121.h ****     }
 1479              		.loc 9 66 40 is_stmt 0 view .LVU374
 1480 02a2 0223     		movs	r3, #2
 1481 02a4 3748     		ldr	r0, .L59+76
 1482              	.LBE688:
 1483              	.LBE692:
 288:../../libs/libDaisy/src/dev/mpr121.h ****             buff[1] = ecr_backup;
 1484              		.loc 9 288 21 view .LVU375
 1485 02a6 8DF82C70 		strb	r7, [sp, #44]
 1486              	.LBB693:
 1487              	.LBB689:
  66:../../libs/libDaisy/src/dev/mpr121.h ****     }
 1488              		.loc 9 66 40 view .LVU376
 1489 02aa FFF7FEFF 		bl	_ZN5daisy9I2CHandle16TransmitBlockingEtPhtm
 1490              	.LVL92:
  66:../../libs/libDaisy/src/dev/mpr121.h ****     }
 1491              		.loc 9 66 40 view .LVU377
 1492              	.LBE689:
 1493              	.LBE693:
 1494              	.LBB694:
 1495              	.LBI694:
 1496              		.loc 9 343 10 is_stmt 1 view .LVU378
 1497              	.LBB695:
 1498              		.loc 9 343 55 is_stmt 0 view .LVU379
 1499 02ae 94F83020 		ldrb	r2, [r4, #48]	@ zero_extendqisi2
 1500              	.LBE695:
 1501              	.LBE694:
 1502              	.LBE635:
 1503              	.LBE634:
 1504              	.LBB702:
 1505              	.LBB703:
 1506              	.LBB704:
 1507              	.LBB705:
  66:../../libs/libDaisy/src/dev/mpr121.h ****     }
 1508              		.loc 9 66 40 view .LVU380
 1509 02b2 0123     		movs	r3, #1
 1510 02b4 0095     		str	r5, [sp]
 1511              	.LBE705:
 1512              	.LBE704:
 1513              	.LBE703:
 1514              	.LBE702:
 1515              	.LBB775:
 1516              	.LBB700:
 1517              	.LBB698:
 1518              	.LBB696:
 1519              		.loc 9 343 55 view .LVU381
 1520 02b6 4045     		cmp	r0, r8
 1521 02b8 18BF     		it	ne
 1522 02ba 42F00102 		orrne	r2, r2, #1
 1523              	.LBE696:
 1524              	.LBE698:
 1525              	.LBE700:
 1526              	.LBE775:
 1527              	.LBB776:
 1528              	.LBB770:
 1529              	.LBB709:
ARM GAS  C:\Users\skipi\AppData\Local\Temp\cc3AYCkc.s 			page 56


 1530              	.LBB706:
  66:../../libs/libDaisy/src/dev/mpr121.h ****     }
 1531              		.loc 9 66 40 view .LVU382
 1532 02be 94F82C10 		ldrb	r1, [r4, #44]	@ zero_extendqisi2
 1533 02c2 3048     		ldr	r0, .L59+76
 1534              	.LVL93:
  66:../../libs/libDaisy/src/dev/mpr121.h ****     }
 1535              		.loc 9 66 40 view .LVU383
 1536              	.LBE706:
 1537              	.LBE709:
 1538              	.LBE770:
 1539              	.LBE776:
 1540              	.LBB777:
 1541              	.LBB701:
 1542              	.LBB699:
 1543              	.LBB697:
 1544              		.loc 9 343 55 view .LVU384
 1545 02c4 84F83020 		strb	r2, [r4, #48]
 1546              	.LVL94:
 1547              		.loc 9 343 55 view .LVU385
 1548              	.LBE697:
 1549              	.LBE699:
 1550              	.LBE701:
 1551              	.LBE777:
 1552              	.LBB778:
 1553              	.LBI702:
 257:../../libs/libDaisy/src/dev/mpr121.h ****     {
 1554              		.loc 9 257 10 is_stmt 1 view .LVU386
 1555              	.LBB771:
 1556              	.LBB710:
 1557              	.LBI704:
  63:../../libs/libDaisy/src/dev/mpr121.h ****     {
 1558              		.loc 9 63 10 view .LVU387
 1559              	.LBB707:
  65:../../libs/libDaisy/src/dev/mpr121.h ****                != i2c_.TransmitBlocking(config_.dev_addr, data, size, 10);
 1560              		.loc 9 65 9 view .LVU388
  66:../../libs/libDaisy/src/dev/mpr121.h ****     }
 1561              		.loc 9 66 40 is_stmt 0 view .LVU389
 1562 02c8 0BAA     		add	r2, sp, #44
 1563              	.LVL95:
  66:../../libs/libDaisy/src/dev/mpr121.h ****     }
 1564              		.loc 9 66 40 view .LVU390
 1565              	.LBE707:
 1566              	.LBE710:
 264:../../libs/libDaisy/src/dev/mpr121.h **** 
 1567              		.loc 9 264 17 view .LVU391
 1568 02ca 8DF82D80 		strb	r8, [sp, #45]
 1569 02ce 8DF82C70 		strb	r7, [sp, #44]
 1570              	.LBB711:
 1571              	.LBB708:
  66:../../libs/libDaisy/src/dev/mpr121.h ****     }
 1572              		.loc 9 66 40 view .LVU392
 1573 02d2 FFF7FEFF 		bl	_ZN5daisy9I2CHandle16TransmitBlockingEtPhtm
 1574              	.LVL96:
  66:../../libs/libDaisy/src/dev/mpr121.h ****     }
 1575              		.loc 9 66 40 view .LVU393
 1576              	.LBE708:
ARM GAS  C:\Users\skipi\AppData\Local\Temp\cc3AYCkc.s 			page 57


 1577              	.LBE711:
 1578              	.LBB712:
 1579              	.LBI712:
 1580              		.loc 9 343 10 is_stmt 1 view .LVU394
 1581              	.LBB713:
 1582              		.loc 9 343 55 is_stmt 0 view .LVU395
 1583 02d6 94F83020 		ldrb	r2, [r4, #48]	@ zero_extendqisi2
 1584              	.LBE713:
 1585              	.LBE712:
 1586              	.LBB716:
 1587              	.LBB717:
  73:../../libs/libDaisy/src/dev/mpr121.h ****     }
 1588              		.loc 9 73 39 view .LVU396
 1589 02da 0123     		movs	r3, #1
 1590 02dc 0095     		str	r5, [sp]
 1591              	.LBE717:
 1592              	.LBE716:
 1593              	.LBB720:
 1594              	.LBB714:
 1595              		.loc 9 343 55 view .LVU397
 1596 02de 4045     		cmp	r0, r8
 1597 02e0 18BF     		it	ne
 1598 02e2 42F00102 		orrne	r2, r2, #1
 1599              	.LBE714:
 1600              	.LBE720:
 1601              	.LBB721:
 1602              	.LBB718:
  73:../../libs/libDaisy/src/dev/mpr121.h ****     }
 1603              		.loc 9 73 39 view .LVU398
 1604 02e6 94F82C10 		ldrb	r1, [r4, #44]	@ zero_extendqisi2
 1605 02ea 2648     		ldr	r0, .L59+76
 1606              	.LVL97:
  73:../../libs/libDaisy/src/dev/mpr121.h ****     }
 1607              		.loc 9 73 39 view .LVU399
 1608              	.LBE718:
 1609              	.LBE721:
 1610              	.LBB722:
 1611              	.LBB715:
 1612              		.loc 9 343 55 view .LVU400
 1613 02ec 84F83020 		strb	r2, [r4, #48]
 1614              	.LVL98:
 1615              		.loc 9 343 55 view .LVU401
 1616              	.LBE715:
 1617              	.LBE722:
 1618              	.LBB723:
 1619              	.LBI716:
  70:../../libs/libDaisy/src/dev/mpr121.h ****     {
 1620              		.loc 9 70 10 is_stmt 1 view .LVU402
 1621              	.LBB719:
  72:../../libs/libDaisy/src/dev/mpr121.h ****                != i2c_.ReceiveBlocking(config_.dev_addr, data, size, 10);
 1622              		.loc 9 72 9 view .LVU403
  73:../../libs/libDaisy/src/dev/mpr121.h ****     }
 1623              		.loc 9 73 39 is_stmt 0 view .LVU404
 1624 02f0 06AA     		add	r2, sp, #24
 1625 02f2 FFF7FEFF 		bl	_ZN5daisy9I2CHandle15ReceiveBlockingEtPhtm
 1626              	.LVL99:
  73:../../libs/libDaisy/src/dev/mpr121.h ****     }
ARM GAS  C:\Users\skipi\AppData\Local\Temp\cc3AYCkc.s 			page 58


 1627              		.loc 9 73 39 view .LVU405
 1628              	.LBE719:
 1629              	.LBE723:
 1630              	.LBB724:
 1631              	.LBI724:
 1632              		.loc 9 343 10 is_stmt 1 view .LVU406
 1633              	.LBB725:
 1634              		.loc 9 343 55 is_stmt 0 view .LVU407
 1635 02f6 94F83020 		ldrb	r2, [r4, #48]	@ zero_extendqisi2
 1636              	.LBE725:
 1637              	.LBE724:
 1638              	.LBB728:
 1639              	.LBB729:
  66:../../libs/libDaisy/src/dev/mpr121.h ****     }
 1640              		.loc 9 66 40 view .LVU408
 1641 02fa 0223     		movs	r3, #2
 1642 02fc 0095     		str	r5, [sp]
 1643              	.LBE729:
 1644              	.LBE728:
 1645              	.LBB732:
 1646              	.LBB726:
 1647              		.loc 9 343 55 view .LVU409
 1648 02fe 4045     		cmp	r0, r8
 1649 0300 18BF     		it	ne
 1650 0302 42F00102 		orrne	r2, r2, #1
 1651              	.LBE726:
 1652              	.LBE732:
 1653              	.LBB733:
 1654              	.LBB730:
  66:../../libs/libDaisy/src/dev/mpr121.h ****     }
 1655              		.loc 9 66 40 view .LVU410
 1656 0306 94F82C10 		ldrb	r1, [r4, #44]	@ zero_extendqisi2
 1657 030a 1E48     		ldr	r0, .L59+76
 1658              	.LVL100:
  66:../../libs/libDaisy/src/dev/mpr121.h ****     }
 1659              		.loc 9 66 40 view .LVU411
 1660              	.LBE730:
 1661              	.LBE733:
 1662              	.LBB734:
 1663              	.LBB727:
 1664              		.loc 9 343 55 view .LVU412
 1665 030c 84F83020 		strb	r2, [r4, #48]
 1666              	.LVL101:
 1667              		.loc 9 343 55 view .LVU413
 1668              	.LBE727:
 1669              	.LBE734:
 1670              	.LBB735:
 1671              	.LBI728:
  63:../../libs/libDaisy/src/dev/mpr121.h ****     {
 1672              		.loc 9 63 10 is_stmt 1 view .LVU414
 1673              	.LBB731:
  65:../../libs/libDaisy/src/dev/mpr121.h ****                != i2c_.TransmitBlocking(config_.dev_addr, data, size, 10);
 1674              		.loc 9 65 9 view .LVU415
  66:../../libs/libDaisy/src/dev/mpr121.h ****     }
 1675              		.loc 9 66 40 is_stmt 0 view .LVU416
 1676 0310 0BAA     		add	r2, sp, #44
 1677              	.LVL102:
ARM GAS  C:\Users\skipi\AppData\Local\Temp\cc3AYCkc.s 			page 59


  66:../../libs/libDaisy/src/dev/mpr121.h ****     }
 1678              		.loc 9 66 40 view .LVU417
 1679 0312 FFF7FEFF 		bl	_ZN5daisy9I2CHandle16TransmitBlockingEtPhtm
 1680              	.LVL103:
  66:../../libs/libDaisy/src/dev/mpr121.h ****     }
 1681              		.loc 9 66 40 view .LVU418
 1682              	.LBE731:
 1683              	.LBE735:
 1684              	.LBB736:
 1685              	.LBI736:
 1686              		.loc 9 343 10 is_stmt 1 view .LVU419
 1687              	.LBB737:
 1688              		.loc 9 343 55 is_stmt 0 view .LVU420
 1689 0316 94F83030 		ldrb	r3, [r4, #48]	@ zero_extendqisi2
 1690              	.LBE737:
 1691              	.LBE736:
 281:../../libs/libDaisy/src/dev/mpr121.h ****         buff[1] = value;
 1692              		.loc 9 281 17 view .LVU421
 1693 031a 721C     		adds	r2, r6, #1
 1694              	.LBB740:
 1695              	.LBB741:
  66:../../libs/libDaisy/src/dev/mpr121.h ****     }
 1696              		.loc 9 66 40 view .LVU422
 1697 031c 0095     		str	r5, [sp]
 1698              	.LBE741:
 1699              	.LBE740:
 1700              	.LBB746:
 1701              	.LBB738:
 1702              		.loc 9 343 55 view .LVU423
 1703 031e 4045     		cmp	r0, r8
 1704 0320 18BF     		it	ne
 1705 0322 43F00103 		orrne	r3, r3, #1
 1706              	.LBE738:
 1707              	.LBE746:
 1708              	.LBB747:
 1709              	.LBB742:
  66:../../libs/libDaisy/src/dev/mpr121.h ****     }
 1710              		.loc 9 66 40 view .LVU424
 1711 0326 94F82C10 		ldrb	r1, [r4, #44]	@ zero_extendqisi2
 1712              	.LBE742:
 1713              	.LBE747:
 281:../../libs/libDaisy/src/dev/mpr121.h ****         buff[1] = value;
 1714              		.loc 9 281 17 view .LVU425
 1715 032a 8DF82C20 		strb	r2, [sp, #44]
 1716              	.LBB748:
 1717              	.LBB743:
  66:../../libs/libDaisy/src/dev/mpr121.h ****     }
 1718              		.loc 9 66 40 view .LVU426
 1719 032e 0BAA     		add	r2, sp, #44
 1720              	.LBE743:
 1721              	.LBE748:
 1722              	.LBB749:
 1723              	.LBB739:
 1724              		.loc 9 343 55 view .LVU427
 1725 0330 84F83030 		strb	r3, [r4, #48]
 1726 0334 2AE0     		b	.L60
 1727              	.L61:
ARM GAS  C:\Users\skipi\AppData\Local\Temp\cc3AYCkc.s 			page 60


 1728 0336 00BF     		.align	2
 1729              	.L59:
 1730 0338 00000000 		.word	.LANCHOR3
 1731 033c 00000000 		.word	.LANCHOR1
 1732 0340 00000000 		.word	.LANCHOR4
 1733 0344 CDCC8C3F 		.word	1066192077
 1734 0348 00000000 		.word	.LANCHOR2
 1735 034c 0000C842 		.word	1120403456
 1736 0350 0000DC43 		.word	1138491392
 1737 0354 CDCC4C3D 		.word	1028443341
 1738 0358 CDCCCC3D 		.word	1036831949
 1739 035c 3333333F 		.word	1060320051
 1740 0360 CDCC4C3E 		.word	1045220557
 1741 0364 00000000 		.word	_ZL5delay
 1742 0368 0AD7233C 		.word	1008981770
 1743 036c 00000000 		.word	.LANCHOR5
 1744 0370 00000000 		.word	.LANCHOR6
 1745 0374 00000000 		.word	.LANCHOR7
 1746 0378 54000000 		.word	.LANCHOR6+84
 1747 037c 18000000 		.word	.LANCHOR3+24
 1748 0380 00000000 		.word	.LANCHOR9
 1749 0384 18000000 		.word	.LANCHOR9+24
 1750 0388 00000000 		.word	.LANCHOR8
 1751              	.L60:
 1752              	.LVL104:
 1753              		.loc 9 343 55 view .LVU428
 1754              	.LBE739:
 1755              	.LBE749:
 1756              	.LBB750:
 1757              	.LBI740:
  63:../../libs/libDaisy/src/dev/mpr121.h ****     {
 1758              		.loc 9 63 10 is_stmt 1 view .LVU429
 1759              	.LBB744:
  65:../../libs/libDaisy/src/dev/mpr121.h ****                != i2c_.TransmitBlocking(config_.dev_addr, data, size, 10);
 1760              		.loc 9 65 9 view .LVU430
  66:../../libs/libDaisy/src/dev/mpr121.h ****     }
 1761              		.loc 9 66 40 is_stmt 0 view .LVU431
 1762 038c 0223     		movs	r3, #2
 1763 038e C448     		ldr	r0, .L62
 1764              	.LBE744:
 1765              	.LBE750:
 1766              	.LBE771:
 1767              	.LBE778:
 186:../../libs/libDaisy/src/dev/mpr121.h ****         {
 1768              		.loc 9 186 30 view .LVU432
 1769 0390 0236     		adds	r6, r6, #2
 1770              	.LVL105:
 1771              	.LBB779:
 1772              	.LBB772:
 282:../../libs/libDaisy/src/dev/mpr121.h ****         SetTransportErr(transport_.Write(buff, 2));
 1773              		.loc 9 282 17 view .LVU433
 1774 0392 8DF82D90 		strb	r9, [sp, #45]
 1775              	.LBB751:
 1776              	.LBB745:
  66:../../libs/libDaisy/src/dev/mpr121.h ****     }
 1777              		.loc 9 66 40 view .LVU434
 1778 0396 FFF7FEFF 		bl	_ZN5daisy9I2CHandle16TransmitBlockingEtPhtm
ARM GAS  C:\Users\skipi\AppData\Local\Temp\cc3AYCkc.s 			page 61


 1779              	.LVL106:
  66:../../libs/libDaisy/src/dev/mpr121.h ****     }
 1780              		.loc 9 66 40 view .LVU435
 1781              	.LBE745:
 1782              	.LBE751:
 1783              	.LBB752:
 1784              	.LBI752:
 1785              		.loc 9 343 10 is_stmt 1 view .LVU436
 1786              	.LBB753:
 1787              		.loc 9 343 55 is_stmt 0 view .LVU437
 1788 039a 94F83020 		ldrb	r2, [r4, #48]	@ zero_extendqisi2
 1789              	.LBE753:
 1790              	.LBE752:
 1791              	.LBB756:
 1792              	.LBB757:
  66:../../libs/libDaisy/src/dev/mpr121.h ****     }
 1793              		.loc 9 66 40 view .LVU438
 1794 039e 0223     		movs	r3, #2
 1795              	.LBE757:
 1796              	.LBE756:
 289:../../libs/libDaisy/src/dev/mpr121.h ****             SetTransportErr(transport_.Write(buff, 2));
 1797              		.loc 9 289 21 view .LVU439
 1798 03a0 9DF81810 		ldrb	r1, [sp, #24]	@ zero_extendqisi2
 1799              	.LBE772:
 1800              	.LBE779:
 186:../../libs/libDaisy/src/dev/mpr121.h ****         {
 1801              		.loc 9 186 30 view .LVU440
 1802 03a4 F6B2     		uxtb	r6, r6
 1803              	.LBB780:
 1804              	.LBB773:
 1805              	.LBB761:
 1806              	.LBB754:
 1807              		.loc 9 343 55 view .LVU441
 1808 03a6 4045     		cmp	r0, r8
 1809 03a8 18BF     		it	ne
 1810 03aa 42F00102 		orrne	r2, r2, #1
 1811              	.LBE754:
 1812              	.LBE761:
 1813              	.LBB762:
 1814              	.LBB758:
  66:../../libs/libDaisy/src/dev/mpr121.h ****     }
 1815              		.loc 9 66 40 view .LVU442
 1816 03ae 0095     		str	r5, [sp]
 1817              	.LBE758:
 1818              	.LBE762:
 289:../../libs/libDaisy/src/dev/mpr121.h ****             SetTransportErr(transport_.Write(buff, 2));
 1819              		.loc 9 289 21 view .LVU443
 1820 03b0 8DF82D10 		strb	r1, [sp, #45]
 1821              	.LBB763:
 1822              	.LBB755:
 1823              		.loc 9 343 55 view .LVU444
 1824 03b4 84F83020 		strb	r2, [r4, #48]
 1825              	.LVL107:
 1826              		.loc 9 343 55 view .LVU445
 1827              	.LBE755:
 1828              	.LBE763:
 1829              	.LBB764:
ARM GAS  C:\Users\skipi\AppData\Local\Temp\cc3AYCkc.s 			page 62


 1830              	.LBI756:
  63:../../libs/libDaisy/src/dev/mpr121.h ****     {
 1831              		.loc 9 63 10 is_stmt 1 view .LVU446
 1832              	.LBB759:
  65:../../libs/libDaisy/src/dev/mpr121.h ****                != i2c_.TransmitBlocking(config_.dev_addr, data, size, 10);
 1833              		.loc 9 65 9 view .LVU447
  66:../../libs/libDaisy/src/dev/mpr121.h ****     }
 1834              		.loc 9 66 40 is_stmt 0 view .LVU448
 1835 03b8 0BAA     		add	r2, sp, #44
 1836              	.LVL108:
  66:../../libs/libDaisy/src/dev/mpr121.h ****     }
 1837              		.loc 9 66 40 view .LVU449
 1838 03ba 94F82C10 		ldrb	r1, [r4, #44]	@ zero_extendqisi2
 1839 03be B848     		ldr	r0, .L62
 1840              	.LBE759:
 1841              	.LBE764:
 288:../../libs/libDaisy/src/dev/mpr121.h ****             buff[1] = ecr_backup;
 1842              		.loc 9 288 21 view .LVU450
 1843 03c0 8DF82C70 		strb	r7, [sp, #44]
 1844              	.LBB765:
 1845              	.LBB760:
  66:../../libs/libDaisy/src/dev/mpr121.h ****     }
 1846              		.loc 9 66 40 view .LVU451
 1847 03c4 FFF7FEFF 		bl	_ZN5daisy9I2CHandle16TransmitBlockingEtPhtm
 1848              	.LVL109:
  66:../../libs/libDaisy/src/dev/mpr121.h ****     }
 1849              		.loc 9 66 40 view .LVU452
 1850              	.LBE760:
 1851              	.LBE765:
 1852              	.LBB766:
 1853              	.LBI766:
 1854              		.loc 9 343 10 is_stmt 1 view .LVU453
 1855              	.LBB767:
 1856              		.loc 9 343 55 is_stmt 0 view .LVU454
 1857 03c8 94F83030 		ldrb	r3, [r4, #48]	@ zero_extendqisi2
 1858 03cc 4045     		cmp	r0, r8
 1859 03ce 18BF     		it	ne
 1860 03d0 43F00103 		orrne	r3, r3, #1
 1861              	.LBE767:
 1862              	.LBE766:
 1863              	.LBE773:
 1864              	.LBE780:
 186:../../libs/libDaisy/src/dev/mpr121.h ****         {
 1865              		.loc 9 186 30 view .LVU455
 1866 03d4 592E     		cmp	r6, #89
 1867              	.LBB781:
 1868              	.LBB774:
 1869              	.LBB769:
 1870              	.LBB768:
 1871              		.loc 9 343 55 view .LVU456
 1872 03d6 84F83030 		strb	r3, [r4, #48]
 1873              	.LVL110:
 1874              		.loc 9 343 55 view .LVU457
 1875              	.LBE768:
 1876              	.LBE769:
 1877              	.LBE774:
 1878              	.LBE781:
ARM GAS  C:\Users\skipi\AppData\Local\Temp\cc3AYCkc.s 			page 63


 186:../../libs/libDaisy/src/dev/mpr121.h ****         {
 1879              		.loc 9 186 9 is_stmt 1 view .LVU458
 186:../../libs/libDaisy/src/dev/mpr121.h ****         {
 1880              		.loc 9 186 30 view .LVU459
 1881 03da 7FF40EAF 		bne	.L26
 1882              	.LVL111:
 186:../../libs/libDaisy/src/dev/mpr121.h ****         {
 1883              		.loc 9 186 30 is_stmt 0 view .LVU460
 1884              	.LBE633:
 1885              	.LBE632:
 140:../../libs/libDaisy/src/dev/mpr121.h ****         WriteRegister(MPR121_NHDR, 0x01);
 1886              		.loc 9 140 22 view .LVU461
 1887 03de 0122     		movs	r2, #1
 1888 03e0 2B21     		movs	r1, #43
 1889 03e2 B048     		ldr	r0, .L62+4
 1890 03e4 FFF7FEFF 		bl	_ZN5daisy6Mpr121INS_18Mpr121I2CTransportEE13WriteRegisterEhh
 1891              	.LVL112:
 141:../../libs/libDaisy/src/dev/mpr121.h ****         WriteRegister(MPR121_NCLR, 0x0E);
 1892              		.loc 9 141 22 view .LVU462
 1893 03e8 0122     		movs	r2, #1
 1894 03ea 2C21     		movs	r1, #44
 1895 03ec AD48     		ldr	r0, .L62+4
 1896 03ee FFF7FEFF 		bl	_ZN5daisy6Mpr121INS_18Mpr121I2CTransportEE13WriteRegisterEhh
 1897              	.LVL113:
 142:../../libs/libDaisy/src/dev/mpr121.h ****         WriteRegister(MPR121_FDLR, 0x00);
 1898              		.loc 9 142 22 view .LVU463
 1899 03f2 2D21     		movs	r1, #45
 1900 03f4 AB48     		ldr	r0, .L62+4
 1901 03f6 0E22     		movs	r2, #14
 1902 03f8 FFF7FEFF 		bl	_ZN5daisy6Mpr121INS_18Mpr121I2CTransportEE13WriteRegisterEhh
 1903              	.LVL114:
 143:../../libs/libDaisy/src/dev/mpr121.h **** 
 1904              		.loc 9 143 22 view .LVU464
 1905 03fc 4246     		mov	r2, r8
 1906 03fe 2E21     		movs	r1, #46
 1907 0400 A848     		ldr	r0, .L62+4
 1908 0402 FFF7FEFF 		bl	_ZN5daisy6Mpr121INS_18Mpr121I2CTransportEE13WriteRegisterEhh
 1909              	.LVL115:
 145:../../libs/libDaisy/src/dev/mpr121.h ****         WriteRegister(MPR121_NHDF, 0x05);
 1910              		.loc 9 145 22 view .LVU465
 1911 0406 0122     		movs	r2, #1
 1912 0408 2F21     		movs	r1, #47
 1913 040a A648     		ldr	r0, .L62+4
 1914 040c FFF7FEFF 		bl	_ZN5daisy6Mpr121INS_18Mpr121I2CTransportEE13WriteRegisterEhh
 1915              	.LVL116:
 146:../../libs/libDaisy/src/dev/mpr121.h ****         WriteRegister(MPR121_NCLF, 0x01);
 1916              		.loc 9 146 22 view .LVU466
 1917 0410 0522     		movs	r2, #5
 1918 0412 3021     		movs	r1, #48
 1919 0414 A348     		ldr	r0, .L62+4
 1920 0416 FFF7FEFF 		bl	_ZN5daisy6Mpr121INS_18Mpr121I2CTransportEE13WriteRegisterEhh
 1921              	.LVL117:
 147:../../libs/libDaisy/src/dev/mpr121.h ****         WriteRegister(MPR121_FDLF, 0x00);
 1922              		.loc 9 147 22 view .LVU467
 1923 041a 3121     		movs	r1, #49
 1924 041c A148     		ldr	r0, .L62+4
 1925 041e 0122     		movs	r2, #1
ARM GAS  C:\Users\skipi\AppData\Local\Temp\cc3AYCkc.s 			page 64


 1926 0420 FFF7FEFF 		bl	_ZN5daisy6Mpr121INS_18Mpr121I2CTransportEE13WriteRegisterEhh
 1927              	.LVL118:
 148:../../libs/libDaisy/src/dev/mpr121.h **** 
 1928              		.loc 9 148 22 view .LVU468
 1929 0424 4246     		mov	r2, r8
 1930 0426 3221     		movs	r1, #50
 1931 0428 9E48     		ldr	r0, .L62+4
 1932 042a FFF7FEFF 		bl	_ZN5daisy6Mpr121INS_18Mpr121I2CTransportEE13WriteRegisterEhh
 1933              	.LVL119:
 150:../../libs/libDaisy/src/dev/mpr121.h ****         WriteRegister(MPR121_NCLT, 0x00);
 1934              		.loc 9 150 22 view .LVU469
 1935 042e 4246     		mov	r2, r8
 1936 0430 3321     		movs	r1, #51
 1937 0432 9C48     		ldr	r0, .L62+4
 1938 0434 FFF7FEFF 		bl	_ZN5daisy6Mpr121INS_18Mpr121I2CTransportEE13WriteRegisterEhh
 1939              	.LVL120:
 151:../../libs/libDaisy/src/dev/mpr121.h ****         WriteRegister(MPR121_FDLT, 0x00);
 1940              		.loc 9 151 22 view .LVU470
 1941 0438 4246     		mov	r2, r8
 1942 043a 3421     		movs	r1, #52
 1943 043c 9948     		ldr	r0, .L62+4
 1944 043e FFF7FEFF 		bl	_ZN5daisy6Mpr121INS_18Mpr121I2CTransportEE13WriteRegisterEhh
 1945              	.LVL121:
 152:../../libs/libDaisy/src/dev/mpr121.h **** 
 1946              		.loc 9 152 22 view .LVU471
 1947 0442 4246     		mov	r2, r8
 1948 0444 3521     		movs	r1, #53
 1949 0446 9748     		ldr	r0, .L62+4
 1950 0448 FFF7FEFF 		bl	_ZN5daisy6Mpr121INS_18Mpr121I2CTransportEE13WriteRegisterEhh
 1951              	.LVL122:
 154:../../libs/libDaisy/src/dev/mpr121.h ****         WriteRegister(MPR121_CONFIG1, 0x10); // default, 16uA charge current
 1952              		.loc 9 154 22 view .LVU472
 1953 044c 4246     		mov	r2, r8
 1954 044e 5B21     		movs	r1, #91
 1955 0450 9448     		ldr	r0, .L62+4
 1956 0452 FFF7FEFF 		bl	_ZN5daisy6Mpr121INS_18Mpr121I2CTransportEE13WriteRegisterEhh
 1957              	.LVL123:
 155:../../libs/libDaisy/src/dev/mpr121.h ****         WriteRegister(MPR121_CONFIG2, 0x20); // 0.5uS encoding, 1ms period
 1958              		.loc 9 155 22 view .LVU473
 1959 0456 1022     		movs	r2, #16
 1960 0458 5C21     		movs	r1, #92
 1961 045a 9248     		ldr	r0, .L62+4
 1962 045c FFF7FEFF 		bl	_ZN5daisy6Mpr121INS_18Mpr121I2CTransportEE13WriteRegisterEhh
 1963              	.LVL124:
 156:../../libs/libDaisy/src/dev/mpr121.h **** 
 1964              		.loc 9 156 22 view .LVU474
 1965 0460 2022     		movs	r2, #32
 1966 0462 5D21     		movs	r1, #93
 1967 0464 8F48     		ldr	r0, .L62+4
 1968 0466 FFF7FEFF 		bl	_ZN5daisy6Mpr121INS_18Mpr121I2CTransportEE13WriteRegisterEhh
 1969              	.LVL125:
 172:../../libs/libDaisy/src/dev/mpr121.h ****                       ECR_SETTING); // start with above ECR setting
 1970              		.loc 9 172 22 view .LVU475
 1971 046a 3946     		mov	r1, r7
 1972 046c 8C22     		movs	r2, #140
 1973 046e 8D48     		ldr	r0, .L62+4
 1974 0470 FFF7FEFF 		bl	_ZN5daisy6Mpr121INS_18Mpr121I2CTransportEE13WriteRegisterEhh
ARM GAS  C:\Users\skipi\AppData\Local\Temp\cc3AYCkc.s 			page 65


 1975              	.LVL126:
 1976              	.LBB782:
 1977              	.LBI782:
 344:../../libs/libDaisy/src/dev/mpr121.h **** 
 345:../../libs/libDaisy/src/dev/mpr121.h ****     /** Get the global transport_error_ bool (as a Result), then reset it */
 346:../../libs/libDaisy/src/dev/mpr121.h ****     Result GetTransportErr()
 1978              		.loc 9 346 12 is_stmt 1 view .LVU476
 1979              	.LBB783:
 347:../../libs/libDaisy/src/dev/mpr121.h ****     {
 348:../../libs/libDaisy/src/dev/mpr121.h ****         Result ret       = transport_error_ ? ERR : OK;
 1980              		.loc 9 348 45 is_stmt 0 view .LVU477
 1981 0474 94F83030 		ldrb	r3, [r4, #48]	@ zero_extendqisi2
 1982 0478 A3B1     		cbz	r3, .L27
 1983              	.LVL127:
 349:../../libs/libDaisy/src/dev/mpr121.h ****         transport_error_ = false;
 1984              		.loc 9 349 26 view .LVU478
 1985 047a 84F83080 		strb	r8, [r4, #48]
 1986              	.LVL128:
 1987              		.loc 9 349 26 view .LVU479
 1988              	.LBE783:
 1989              	.LBE782:
 1990              	.LBE786:
 1991              	.LBE810:
 114:main.cpp      ****   if (status != daisy::Mpr121I2C::Result::OK) // initializes the mpr121 with the config and see if 
 1992              		.loc 10 114 3 is_stmt 1 view .LVU480
 1993              	.L28:
 115:main.cpp      ****   {
 116:main.cpp      ****     while (1)
 1994              		.loc 10 116 5 discriminator 1 view .LVU481
 117:main.cpp      ****     {
 118:main.cpp      ****       hw.SetLed(true); // blink if not ok
 1995              		.loc 10 118 7 discriminator 1 view .LVU482
 1996              		.loc 10 118 16 is_stmt 0 discriminator 1 view .LVU483
 1997 047e 0121     		movs	r1, #1
 1998 0480 8948     		ldr	r0, .L62+8
 1999 0482 FFF7FEFF 		bl	_ZN5daisy9DaisySeed6SetLedEb
 2000              	.LVL129:
 119:main.cpp      ****       hw.DelayMs(500);
 2001              		.loc 10 119 7 is_stmt 1 discriminator 1 view .LVU484
 2002              		.loc 10 119 17 is_stmt 0 discriminator 1 view .LVU485
 2003 0486 4FF4FA71 		mov	r1, #500
 2004 048a 8748     		ldr	r0, .L62+8
 2005 048c FFF7FEFF 		bl	_ZN5daisy9DaisySeed7DelayMsEj
 2006              	.LVL130:
 120:main.cpp      ****       hw.SetLed(false);
 2007              		.loc 10 120 7 is_stmt 1 discriminator 1 view .LVU486
 2008              		.loc 10 120 16 is_stmt 0 discriminator 1 view .LVU487
 2009 0490 0021     		movs	r1, #0
 2010 0492 8548     		ldr	r0, .L62+8
 2011 0494 FFF7FEFF 		bl	_ZN5daisy9DaisySeed6SetLedEb
 2012              	.LVL131:
 121:main.cpp      ****       hw.DelayMs(500);    }
 2013              		.loc 10 121 7 is_stmt 1 discriminator 1 view .LVU488
 2014              		.loc 10 121 17 is_stmt 0 discriminator 1 view .LVU489
 2015 0498 4FF4FA71 		mov	r1, #500
 2016 049c 8248     		ldr	r0, .L62+8
 2017 049e FFF7FEFF 		bl	_ZN5daisy9DaisySeed7DelayMsEj
ARM GAS  C:\Users\skipi\AppData\Local\Temp\cc3AYCkc.s 			page 66


 2018              	.LVL132:
 116:main.cpp      ****     {
 2019              		.loc 10 116 5 is_stmt 1 discriminator 1 view .LVU490
 2020 04a2 ECE7     		b	.L28
 2021              	.LVL133:
 2022              	.L27:
 114:main.cpp      ****   {
 2023              		.loc 10 114 3 view .LVU491
 122:main.cpp      ****   }
 123:main.cpp      ****   else
 124:main.cpp      ****   {
 125:main.cpp      ****     hw.SetLed(true);
 2024              		.loc 10 125 5 view .LVU492
 2025              		.loc 10 125 14 is_stmt 0 view .LVU493
 2026 04a4 0121     		movs	r1, #1
 2027 04a6 8048     		ldr	r0, .L62+8
 2028 04a8 FFF7FEFF 		bl	_ZN5daisy9DaisySeed6SetLedEb
 2029              	.LVL134:
 126:main.cpp      ****   }
 127:main.cpp      **** 
 128:main.cpp      ****   // cap.SetThresholds(12, 6);                                           // sets the touch and rele
 129:main.cpp      ****   hw.StartAudio(AudioCallback);
 2030              		.loc 10 129 3 is_stmt 1 view .LVU494
 2031              		.loc 10 129 16 is_stmt 0 view .LVU495
 2032 04ac 7F49     		ldr	r1, .L62+12
 2033 04ae 7E48     		ldr	r0, .L62+8
 2034 04b0 7F4D     		ldr	r5, .L62+16
 2035 04b2 FFF7FEFF 		bl	_ZN5daisy9DaisySeed10StartAudioEPFvPKfPfjE
 2036              	.LVL135:
 2037 04b6 7F4F     		ldr	r7, .L62+20
 2038 04b8 7F4E     		ldr	r6, .L62+24
 2039 04ba DFF83892 		ldr	r9, .L62+84
 2040 04be DFF838A2 		ldr	r10, .L62+88
 2041 04c2 18E0     		b	.L29
 2042              	.LVL136:
 2043              	.L56:
 2044              	.LBB811:
 130:main.cpp      **** 
 131:main.cpp      ****   while (1)
 132:main.cpp      ****   {
 133:main.cpp      ****     float curve_type = hw.adc.GetFloat(1)*2 + 1;
 134:main.cpp      ****     float delta_max = hw.adc.GetFloat(0)*100 + 20;
 135:main.cpp      ****     pc.setCurve(delta_max, curve_type);
 136:main.cpp      ****     
 137:main.cpp      **** 
 138:main.cpp      ****     currTouched = cap.Touched();                                   // reads the touched channels fr
 139:main.cpp      ****     if ((currTouched & _BV(0)) && !(lastTouched & _BV(0)) || gate) // if the channel 0 is touched a
 2045              		.loc 10 139 32 discriminator 1 view .LVU496
 2046 04c4 3B88     		ldrh	r3, [r7]
 2047 04c6 D907     		lsls	r1, r3, #31
 2048 04c8 53D5     		bpl	.L39
 2049              		.loc 10 139 59 view .LVU497
 2050 04ca 3378     		ldrb	r3, [r6]	@ zero_extendqisi2
 2051 04cc 002B     		cmp	r3, #0
 2052 04ce 50D1     		bne	.L39
 2053              	.L35:
 140:main.cpp      ****     {
ARM GAS  C:\Users\skipi\AppData\Local\Temp\cc3AYCkc.s 			page 67


 141:main.cpp      ****       gate = true; // sets the gate to true
 142:main.cpp      ****       f = pc.Process(cap.BaselineData(0), cap.FilteredData(0));
 143:main.cpp      ****       osc.SetFreq(f);
 144:main.cpp      ****       
 145:main.cpp      ****     }
 146:main.cpp      **** 
 147:main.cpp      ****     if (!(currTouched & _BV(0)) && (lastTouched & _BV(0))) // if the channel 0 was touched and it i
 148:main.cpp      ****     {
 149:main.cpp      ****       gate = false; // sets the gate to false
 150:main.cpp      ****       
 151:main.cpp      ****       pc.setDelta();
 152:main.cpp      ****     }
 153:main.cpp      **** 
 154:main.cpp      ****     // calculates the frequency based on the delta value
 155:main.cpp      **** 
 156:main.cpp      ****   #ifdef DEBUG
 157:main.cpp      ****     if (gate)
 158:main.cpp      ****     {
 159:main.cpp      ****       if (!flag){
 160:main.cpp      ****         hw.PrintLine("-----------------------------------------------------------------------------
 161:main.cpp      ****         hw.PrintLine("CAP touched");
 162:main.cpp      ****         flag = true;
 163:main.cpp      ****       }
 164:main.cpp      ****       hw.PrintLine("| ");
 165:main.cpp      ****       hw.PrintLine("| Delta : %f, | DeltaFiltered :  %f | Frequency : %f ", pc.getDelta(), pc.getDe
 166:main.cpp      ****       hw.PrintLine("| ");
 167:main.cpp      ****       
 168:main.cpp      ****     }
 169:main.cpp      ****     else
 170:main.cpp      ****     {
 171:main.cpp      ****       if ( flag)
 2054              		.loc 10 171 7 is_stmt 1 view .LVU498
 2055 04d0 99F80030 		ldrb	r3, [r9]	@ zero_extendqisi2
 2056 04d4 002B     		cmp	r3, #0
 2057 04d6 40F0D580 		bne	.L54
 2058              	.L38:
 172:main.cpp      ****       {
 173:main.cpp      ****         hw.PrintLine("CAP released");
 174:main.cpp      ****         hw.PrintLine("-----------------------------------------------------------------------------
 175:main.cpp      ****         hw.PrintLine(" ");
 176:main.cpp      ****         flag = false;
 177:main.cpp      ****       }
 178:main.cpp      ****       k++;
 2059              		.loc 10 178 7 view .LVU499
 2060              		.loc 10 178 8 is_stmt 0 view .LVU500
 2061 04da DAF80030 		ldr	r3, [r10]
 2062 04de 0133     		adds	r3, r3, #1
 179:main.cpp      ****       if (k>50){
 2063              		.loc 10 179 7 view .LVU501
 2064 04e0 322B     		cmp	r3, #50
 178:main.cpp      ****       if (k>50){
 2065              		.loc 10 178 8 view .LVU502
 2066 04e2 CAF80030 		str	r3, [r10]
 2067              		.loc 10 179 7 is_stmt 1 view .LVU503
 2068 04e6 00F3AE80 		bgt	.L55
 2069              	.L37:
 180:main.cpp      ****         hw.PrintLine(" ");
ARM GAS  C:\Users\skipi\AppData\Local\Temp\cc3AYCkc.s 			page 68


 181:main.cpp      ****         hw.PrintLine("deltaMax : %f", delta_max);
 182:main.cpp      ****         hw.PrintLine("curveType : %f", curve_type);
 183:main.cpp      ****         k = 0;
 184:main.cpp      ****       }
 185:main.cpp      ****     }
 186:main.cpp      ****   #endif
 187:main.cpp      **** 
 188:main.cpp      ****   #ifdef csvAcquisition
 189:main.cpp      ****     hw.PrintLine("%f, %f, %f, %d", f, pc.getDelta(), pc.getDeltaFilt());
 190:main.cpp      ****     //hw.PrintLine(" ");
 191:main.cpp      ****     //hw.PrintLine("%d, %d ", cap.BaselineData(0), cap.FilteredData(0));
 192:main.cpp      ****     //hw.PrintLine(" ");
 193:main.cpp      ****   #endif
 194:main.cpp      ****     
 195:main.cpp      ****   lastTouched = currTouched;
 2070              		.loc 10 195 3 view .LVU504
 2071              		.loc 10 195 15 is_stmt 0 view .LVU505
 2072 04ea 2B88     		ldrh	r3, [r5]
 196:main.cpp      ****   hw.DelayMs(10);
 2073              		.loc 10 196 13 view .LVU506
 2074 04ec 0A21     		movs	r1, #10
 2075 04ee 6E48     		ldr	r0, .L62+8
 195:main.cpp      ****   hw.DelayMs(10);
 2076              		.loc 10 195 15 view .LVU507
 2077 04f0 3B80     		strh	r3, [r7]	@ movhi
 2078              		.loc 10 196 3 is_stmt 1 view .LVU508
 2079              		.loc 10 196 13 is_stmt 0 view .LVU509
 2080 04f2 FFF7FEFF 		bl	_ZN5daisy9DaisySeed7DelayMsEj
 2081              	.LVL137:
 2082              	.LBE811:
 131:main.cpp      ****   {
 2083              		.loc 10 131 3 is_stmt 1 view .LVU510
 2084              	.L29:
 131:main.cpp      ****   {
 2085              		.loc 10 131 3 view .LVU511
 2086              	.LBB927:
 133:main.cpp      ****     float delta_max = hw.adc.GetFloat(0)*100 + 20;
 2087              		.loc 10 133 5 view .LVU512
 133:main.cpp      ****     float delta_max = hw.adc.GetFloat(0)*100 + 20;
 2088              		.loc 10 133 39 is_stmt 0 view .LVU513
 2089 04f6 0121     		movs	r1, #1
 2090 04f8 7048     		ldr	r0, .L62+28
 2091 04fa FFF7FEFF 		bl	_ZNK5daisy9AdcHandle8GetFloatEh
 2092              	.LVL138:
 133:main.cpp      ****     float delta_max = hw.adc.GetFloat(0)*100 + 20;
 2093              		.loc 10 133 47 view .LVU514
 2094 04fe B7EE008A 		vmov.f32	s16, #1.0e+0
 2095 0502 F0EE007A 		vmov.f32	s15, #2.0e+0
 134:main.cpp      ****     pc.setCurve(delta_max, curve_type);
 2096              		.loc 10 134 38 view .LVU515
 2097 0506 0021     		movs	r1, #0
 2098 0508 6C48     		ldr	r0, .L62+28
 134:main.cpp      ****     pc.setCurve(delta_max, curve_type);
 2099              		.loc 10 134 48 view .LVU516
 2100 050a F3EE048A 		vmov.f32	s17, #2.0e+1
 133:main.cpp      ****     float delta_max = hw.adc.GetFloat(0)*100 + 20;
 2101              		.loc 10 133 47 view .LVU517
ARM GAS  C:\Users\skipi\AppData\Local\Temp\cc3AYCkc.s 			page 69


 2102 050e A0EE278A 		vfma.f32	s16, s0, s15
 2103              	.LVL139:
 134:main.cpp      ****     pc.setCurve(delta_max, curve_type);
 2104              		.loc 10 134 5 is_stmt 1 view .LVU518
 134:main.cpp      ****     pc.setCurve(delta_max, curve_type);
 2105              		.loc 10 134 38 is_stmt 0 view .LVU519
 2106 0512 FFF7FEFF 		bl	_ZNK5daisy9AdcHandle8GetFloatEh
 2107              	.LVL140:
 134:main.cpp      ****     pc.setCurve(delta_max, curve_type);
 2108              		.loc 10 134 48 view .LVU520
 2109 0516 DFED6A7A 		vldr.32	s15, .L62+32
 135:main.cpp      ****     
 2110              		.loc 10 135 16 view .LVU521
 2111 051a 6A48     		ldr	r0, .L62+36
 134:main.cpp      ****     pc.setCurve(delta_max, curve_type);
 2112              		.loc 10 134 48 view .LVU522
 2113 051c E0EE278A 		vfma.f32	s17, s0, s15
 2114              	.LVL141:
 135:main.cpp      ****     
 2115              		.loc 10 135 5 is_stmt 1 view .LVU523
 135:main.cpp      ****     
 2116              		.loc 10 135 16 is_stmt 0 view .LVU524
 2117 0520 B0EE480A 		vmov.f32	s0, s16
 2118 0524 FCEEE87A 		vcvt.u32.f32	s15, s17
 2119 0528 CDED057A 		vstr.32	s15, [sp, #20]	@ int
 2120 052c 9DF81410 		ldrb	r1, [sp, #20]	@ zero_extendqisi2
 2121 0530 FFF7FEFF 		bl	_ZN16PlantConditioner8setCurveEhf
 2122              	.LVL142:
 138:main.cpp      ****     if ((currTouched & _BV(0)) && !(lastTouched & _BV(0)) || gate) // if the channel 0 is touched a
 2123              		.loc 10 138 5 is_stmt 1 view .LVU525
 2124              	.LBB812:
 2125              	.LBI812:
 227:../../libs/libDaisy/src/dev/mpr121.h ****     {
 2126              		.loc 9 227 14 view .LVU526
 2127              	.LBB813:
 2128              	.LBB814:
 2129              	.LBI814:
 244:../../libs/libDaisy/src/dev/mpr121.h ****     {
 2130              		.loc 9 244 14 view .LVU527
 2131              	.LBB815:
 2132              	.LBB816:
 2133              	.LBI816:
  75:../../libs/libDaisy/src/dev/mpr121.h ****     {
 2134              		.loc 9 75 10 view .LVU528
 2135              	.LBB817:
  77:../../libs/libDaisy/src/dev/mpr121.h ****                != i2c_.Mem_read(
 2136              		.loc 9 77 9 view .LVU529
  78:../../libs/libDaisy/src/dev/mpr121.h ****                    config_.dev_addr, memAddress, 1, data, memSize, 10);
 2137              		.loc 9 78 32 is_stmt 0 view .LVU530
 2138 0534 0A22     		movs	r2, #10
 2139 0536 0223     		movs	r3, #2
 2140 0538 CDF800B0 		str	fp, [sp]
 2141 053c 5848     		ldr	r0, .L62
 2142 053e CDE90132 		strd	r3, r2, [sp, #4]
 2143 0542 0123     		movs	r3, #1
 2144 0544 0022     		movs	r2, #0
 2145 0546 94F82C10 		ldrb	r1, [r4, #44]	@ zero_extendqisi2
ARM GAS  C:\Users\skipi\AppData\Local\Temp\cc3AYCkc.s 			page 70


 2146 054a FFF7FEFF 		bl	_ZN5daisy9I2CHandle8Mem_readEtttPhtm
 2147              	.LVL143:
  78:../../libs/libDaisy/src/dev/mpr121.h ****                    config_.dev_addr, memAddress, 1, data, memSize, 10);
 2148              		.loc 9 78 32 view .LVU531
 2149              	.LBE817:
 2150              	.LBE816:
 2151              	.LBB818:
 2152              	.LBI818:
 343:../../libs/libDaisy/src/dev/mpr121.h **** 
 2153              		.loc 9 343 10 is_stmt 1 view .LVU532
 2154              	.LBB819:
 343:../../libs/libDaisy/src/dev/mpr121.h **** 
 2155              		.loc 9 343 55 is_stmt 0 view .LVU533
 2156 054e 94F83030 		ldrb	r3, [r4, #48]	@ zero_extendqisi2
 2157              	.LBE819:
 2158              	.LBE818:
 250:../../libs/libDaisy/src/dev/mpr121.h ****     }
 2159              		.loc 9 250 16 view .LVU534
 2160 0552 BDF84020 		ldrh	r2, [sp, #64]
 2161              	.LBB822:
 2162              	.LBB820:
 343:../../libs/libDaisy/src/dev/mpr121.h **** 
 2163              		.loc 9 343 55 view .LVU535
 2164 0556 0028     		cmp	r0, #0
 2165 0558 18BF     		it	ne
 2166 055a 43F00103 		orrne	r3, r3, #1
 2167              	.LBE820:
 2168              	.LBE822:
 2169              	.LBE815:
 2170              	.LBE814:
 2171              	.LBE813:
 2172              	.LBE812:
 139:main.cpp      ****     {
 2173              		.loc 10 139 5 view .LVU536
 2174 055e D007     		lsls	r0, r2, #31
 2175              	.LVL144:
 2176              	.LBB827:
 2177              	.LBB826:
 2178              	.LBB825:
 2179              	.LBB824:
 2180              	.LBB823:
 2181              	.LBB821:
 343:../../libs/libDaisy/src/dev/mpr121.h **** 
 2182              		.loc 9 343 55 view .LVU537
 2183 0560 84F83030 		strb	r3, [r4, #48]
 2184              	.LVL145:
 343:../../libs/libDaisy/src/dev/mpr121.h **** 
 2185              		.loc 9 343 55 view .LVU538
 2186              	.LBE821:
 2187              	.LBE823:
 2188              	.LBE824:
 2189              	.LBE825:
 230:../../libs/libDaisy/src/dev/mpr121.h ****     }
 2190              		.loc 9 230 20 view .LVU539
 2191 0564 C2F30B03 		ubfx	r3, r2, #0, #12
 2192              	.LBE826:
 2193              	.LBE827:
ARM GAS  C:\Users\skipi\AppData\Local\Temp\cc3AYCkc.s 			page 71


 138:main.cpp      ****     if ((currTouched & _BV(0)) && !(lastTouched & _BV(0)) || gate) // if the channel 0 is touched a
 2194              		.loc 10 138 17 view .LVU540
 2195 0568 2B80     		strh	r3, [r5]	@ movhi
 139:main.cpp      ****     {
 2196              		.loc 10 139 5 is_stmt 1 view .LVU541
 2197 056a ABD4     		bmi	.L56
 139:main.cpp      ****     {
 2198              		.loc 10 139 59 is_stmt 0 view .LVU542
 2199 056c 3378     		ldrb	r3, [r6]	@ zero_extendqisi2
 2200 056e 002B     		cmp	r3, #0
 2201 0570 41D0     		beq	.L32
 2202              	.L39:
 141:main.cpp      ****       f = pc.Process(cap.BaselineData(0), cap.FilteredData(0));
 2203              		.loc 10 141 7 is_stmt 1 view .LVU543
 141:main.cpp      ****       f = pc.Process(cap.BaselineData(0), cap.FilteredData(0));
 2204              		.loc 10 141 12 is_stmt 0 view .LVU544
 2205 0572 0123     		movs	r3, #1
 2206              	.LBB828:
 2207              	.LBB829:
 2208              	.LBB830:
 2209              	.LBB831:
 2210              	.LBB832:
 2211              	.LBB833:
 2212              	.LBB834:
 2213              	.LBB835:
  78:../../libs/libDaisy/src/dev/mpr121.h ****                    config_.dev_addr, memAddress, 1, data, memSize, 10);
 2214              		.loc 9 78 32 view .LVU545
 2215 0574 4FF00A08 		mov	r8, #10
 2216 0578 CDF800B0 		str	fp, [sp]
 2217 057c 1E22     		movs	r2, #30
 2218 057e 4848     		ldr	r0, .L62
 2219 0580 CDE90138 		strd	r3, r8, [sp, #4]
 2220              	.LBE835:
 2221              	.LBE834:
 2222              	.LBE833:
 2223              	.LBE832:
 2224              	.LBE831:
 2225              	.LBE830:
 2226              	.LBE829:
 2227              	.LBE828:
 141:main.cpp      ****       f = pc.Process(cap.BaselineData(0), cap.FilteredData(0));
 2228              		.loc 10 141 12 view .LVU546
 2229 0584 3370     		strb	r3, [r6]
 142:main.cpp      ****       osc.SetFreq(f);
 2230              		.loc 10 142 7 is_stmt 1 view .LVU547
 2231              	.LVL146:
 2232              	.LBB860:
 2233              	.LBI828:
 214:../../libs/libDaisy/src/dev/mpr121.h ****     {
 2234              		.loc 9 214 14 view .LVU548
 2235              	.LBB857:
 2236              	.LBB854:
 2237              	.LBI830:
 214:../../libs/libDaisy/src/dev/mpr121.h ****     {
 2238              		.loc 9 214 14 view .LVU549
 2239              	.LBB851:
 2240              	.LBB848:
ARM GAS  C:\Users\skipi\AppData\Local\Temp\cc3AYCkc.s 			page 72


 2241              	.LBI832:
 237:../../libs/libDaisy/src/dev/mpr121.h ****     {
 2242              		.loc 9 237 13 view .LVU550
 2243              	.LBB845:
 2244              	.LBB837:
 2245              	.LBI834:
  75:../../libs/libDaisy/src/dev/mpr121.h ****     {
 2246              		.loc 9 75 10 view .LVU551
 2247              	.LBB836:
  77:../../libs/libDaisy/src/dev/mpr121.h ****                != i2c_.Mem_read(
 2248              		.loc 9 77 9 view .LVU552
  78:../../libs/libDaisy/src/dev/mpr121.h ****                    config_.dev_addr, memAddress, 1, data, memSize, 10);
 2249              		.loc 9 78 32 is_stmt 0 view .LVU553
 2250 0586 94F82C10 		ldrb	r1, [r4, #44]	@ zero_extendqisi2
 2251 058a FFF7FEFF 		bl	_ZN5daisy9I2CHandle8Mem_readEtttPhtm
 2252              	.LVL147:
  78:../../libs/libDaisy/src/dev/mpr121.h ****                    config_.dev_addr, memAddress, 1, data, memSize, 10);
 2253              		.loc 9 78 32 view .LVU554
 2254              	.LBE836:
 2255              	.LBE837:
 2256              	.LBB838:
 2257              	.LBI838:
 343:../../libs/libDaisy/src/dev/mpr121.h **** 
 2258              		.loc 9 343 10 is_stmt 1 view .LVU555
 2259              	.LBE838:
 2260              	.LBE845:
 2261              	.LBE848:
 2262              	.LBE851:
 2263              	.LBE854:
 2264              	.LBE857:
 2265              	.LBE860:
 2266              	.LBB861:
 2267              	.LBB862:
 2268              	.LBB863:
 2269              	.LBB864:
 2270              	.LBB865:
 2271              	.LBB866:
  78:../../libs/libDaisy/src/dev/mpr121.h ****                    config_.dev_addr, memAddress, 1, data, memSize, 10);
 2272              		.loc 9 78 32 is_stmt 0 view .LVU556
 2273 058e CDF80880 		str	r8, [sp, #8]
 2274 0592 CDF800B0 		str	fp, [sp]
 2275 0596 0123     		movs	r3, #1
 2276              	.LBE866:
 2277              	.LBE865:
 2278              	.LBE864:
 2279              	.LBE863:
 2280              	.LBE862:
 2281              	.LBE861:
 2282              	.LBB889:
 2283              	.LBB858:
 2284              	.LBB855:
 2285              	.LBB852:
 2286              	.LBB849:
 2287              	.LBB846:
 2288              	.LBB842:
 2289              	.LBB839:
 343:../../libs/libDaisy/src/dev/mpr121.h **** 
ARM GAS  C:\Users\skipi\AppData\Local\Temp\cc3AYCkc.s 			page 73


 2290              		.loc 9 343 55 view .LVU557
 2291 0598 94F83020 		ldrb	r2, [r4, #48]	@ zero_extendqisi2
 2292              	.LBE839:
 2293              	.LBE842:
 241:../../libs/libDaisy/src/dev/mpr121.h ****     }
 2294              		.loc 9 241 16 view .LVU558
 2295 059c 9DF84080 		ldrb	r8, [sp, #64]	@ zero_extendqisi2
 2296              	.LBB843:
 2297              	.LBB840:
 343:../../libs/libDaisy/src/dev/mpr121.h **** 
 2298              		.loc 9 343 55 view .LVU559
 2299 05a0 0028     		cmp	r0, #0
 2300 05a2 18BF     		it	ne
 2301 05a4 42F00102 		orrne	r2, r2, #1
 2302              	.LBE840:
 2303              	.LBE843:
 2304              	.LBE846:
 2305              	.LBE849:
 2306              	.LBE852:
 2307              	.LBE855:
 2308              	.LBE858:
 2309              	.LBE889:
 2310              	.LBB890:
 2311              	.LBB885:
 2312              	.LBB881:
 2313              	.LBB877:
 2314              	.LBB869:
 2315              	.LBB867:
  78:../../libs/libDaisy/src/dev/mpr121.h ****                    config_.dev_addr, memAddress, 1, data, memSize, 10);
 2316              		.loc 9 78 32 view .LVU560
 2317 05a8 3D48     		ldr	r0, .L62
 2318              	.LVL148:
  78:../../libs/libDaisy/src/dev/mpr121.h ****                    config_.dev_addr, memAddress, 1, data, memSize, 10);
 2319              		.loc 9 78 32 view .LVU561
 2320              	.LBE867:
 2321              	.LBE869:
 2322              	.LBE877:
 2323              	.LBE881:
 2324              	.LBE885:
 2325              	.LBE890:
 2326              	.LBB891:
 2327              	.LBB859:
 2328              	.LBB856:
 2329              	.LBB853:
 2330              	.LBB850:
 2331              	.LBB847:
 2332              	.LBB844:
 2333              	.LBB841:
 343:../../libs/libDaisy/src/dev/mpr121.h **** 
 2334              		.loc 9 343 55 view .LVU562
 2335 05aa 84F83020 		strb	r2, [r4, #48]
 2336              	.LVL149:
 343:../../libs/libDaisy/src/dev/mpr121.h **** 
 2337              		.loc 9 343 55 view .LVU563
 2338              	.LBE841:
 2339              	.LBE844:
 2340              	.LBE847:
ARM GAS  C:\Users\skipi\AppData\Local\Temp\cc3AYCkc.s 			page 74


 2341              	.LBE850:
 2342              	.LBE853:
 2343              	.LBE856:
 2344              	.LBE859:
 2345              	.LBE891:
 2346              	.LBB892:
 2347              	.LBI861:
 201:../../libs/libDaisy/src/dev/mpr121.h ****     {
 2348              		.loc 9 201 14 is_stmt 1 view .LVU564
 2349              	.LBB886:
 2350              	.LBI862:
 201:../../libs/libDaisy/src/dev/mpr121.h ****     {
 2351              		.loc 9 201 14 view .LVU565
 2352              	.LBB882:
 2353              	.LBI863:
 244:../../libs/libDaisy/src/dev/mpr121.h ****     {
 2354              		.loc 9 244 14 view .LVU566
 2355              	.LBB878:
 2356              	.LBB870:
 2357              	.LBI865:
  75:../../libs/libDaisy/src/dev/mpr121.h ****     {
 2358              		.loc 9 75 10 view .LVU567
 2359              	.LBB868:
  77:../../libs/libDaisy/src/dev/mpr121.h ****                != i2c_.Mem_read(
 2360              		.loc 9 77 9 view .LVU568
  78:../../libs/libDaisy/src/dev/mpr121.h ****                    config_.dev_addr, memAddress, 1, data, memSize, 10);
 2361              		.loc 9 78 32 is_stmt 0 view .LVU569
 2362 05ae 0222     		movs	r2, #2
 2363 05b0 0192     		str	r2, [sp, #4]
 2364 05b2 0422     		movs	r2, #4
 2365 05b4 94F82C10 		ldrb	r1, [r4, #44]	@ zero_extendqisi2
 2366 05b8 FFF7FEFF 		bl	_ZN5daisy9I2CHandle8Mem_readEtttPhtm
 2367              	.LVL150:
  78:../../libs/libDaisy/src/dev/mpr121.h ****                    config_.dev_addr, memAddress, 1, data, memSize, 10);
 2368              		.loc 9 78 32 view .LVU570
 2369              	.LBE868:
 2370              	.LBE870:
 2371              	.LBB871:
 2372              	.LBI871:
 343:../../libs/libDaisy/src/dev/mpr121.h **** 
 2373              		.loc 9 343 10 is_stmt 1 view .LVU571
 2374              	.LBB872:
 343:../../libs/libDaisy/src/dev/mpr121.h **** 
 2375              		.loc 9 343 55 is_stmt 0 view .LVU572
 2376 05bc 94F83030 		ldrb	r3, [r4, #48]	@ zero_extendqisi2
 2377              	.LBE872:
 2378              	.LBE871:
 2379              	.LBE878:
 2380              	.LBE882:
 2381              	.LBE886:
 2382              	.LBE892:
 142:main.cpp      ****       osc.SetFreq(f);
 2383              		.loc 10 142 21 view .LVU573
 2384 05c0 BDF84020 		ldrh	r2, [sp, #64]
 2385 05c4 4FEA8801 		lsl	r1, r8, #2
 2386              	.LBB893:
 2387              	.LBB887:
ARM GAS  C:\Users\skipi\AppData\Local\Temp\cc3AYCkc.s 			page 75


 2388              	.LBB883:
 2389              	.LBB879:
 2390              	.LBB875:
 2391              	.LBB873:
 343:../../libs/libDaisy/src/dev/mpr121.h **** 
 2392              		.loc 9 343 55 view .LVU574
 2393 05c8 0028     		cmp	r0, #0
 2394 05ca 18BF     		it	ne
 2395 05cc 43F00103 		orrne	r3, r3, #1
 2396              	.LBE873:
 2397              	.LBE875:
 2398              	.LBE879:
 2399              	.LBE883:
 2400              	.LBE887:
 2401              	.LBE893:
 142:main.cpp      ****       osc.SetFreq(f);
 2402              		.loc 10 142 21 view .LVU575
 2403 05d0 3C48     		ldr	r0, .L62+36
 2404              	.LVL151:
 2405              	.LBB894:
 2406              	.LBB888:
 2407              	.LBB884:
 2408              	.LBB880:
 2409              	.LBB876:
 2410              	.LBB874:
 343:../../libs/libDaisy/src/dev/mpr121.h **** 
 2411              		.loc 9 343 55 view .LVU576
 2412 05d2 84F83030 		strb	r3, [r4, #48]
 2413              	.LVL152:
 343:../../libs/libDaisy/src/dev/mpr121.h **** 
 2414              		.loc 9 343 55 view .LVU577
 2415              	.LBE874:
 2416              	.LBE876:
 2417              	.LBE880:
 2418              	.LBE884:
 2419              	.LBE888:
 2420              	.LBE894:
 142:main.cpp      ****       osc.SetFreq(f);
 2421              		.loc 10 142 21 view .LVU578
 2422 05d6 FFF7FEFF 		bl	_ZN16PlantConditioner7ProcessEtt
 2423              	.LVL153:
 142:main.cpp      ****       osc.SetFreq(f);
 2424              		.loc 10 142 9 view .LVU579
 2425 05da 3B4B     		ldr	r3, .L62+40
 2426              	.LBB895:
 2427              	.LBB896:
  70:../../libs/DaisySP/Source/Synthesis/oscillator.h ****     }
 2428              		.loc 8 70 34 view .LVU580
 2429 05dc 3B48     		ldr	r0, .L62+44
 2430              	.LBE896:
 2431              	.LBE895:
 142:main.cpp      ****       osc.SetFreq(f);
 2432              		.loc 10 142 9 view .LVU581
 2433 05de 83ED000A 		vstr.32	s0, [r3]
 143:main.cpp      ****       
 2434              		.loc 10 143 7 is_stmt 1 view .LVU582
 2435              	.LVL154:
ARM GAS  C:\Users\skipi\AppData\Local\Temp\cc3AYCkc.s 			page 76


 2436              	.LBB899:
 2437              	.LBI895:
  67:../../libs/DaisySP/Source/Synthesis/oscillator.h ****     {
 2438              		.loc 8 67 17 view .LVU583
 2439              	.LBB897:
  69:../../libs/DaisySP/Source/Synthesis/oscillator.h ****         phase_inc_ = CalcPhaseInc(f);
 2440              		.loc 8 69 9 view .LVU584
  69:../../libs/DaisySP/Source/Synthesis/oscillator.h ****         phase_inc_ = CalcPhaseInc(f);
 2441              		.loc 8 69 20 is_stmt 0 view .LVU585
 2442 05e2 80ED020A 		vstr.32	s0, [r0, #8]
  70:../../libs/DaisySP/Source/Synthesis/oscillator.h ****     }
 2443              		.loc 8 70 9 is_stmt 1 view .LVU586
  70:../../libs/DaisySP/Source/Synthesis/oscillator.h ****     }
 2444              		.loc 8 70 34 is_stmt 0 view .LVU587
 2445 05e6 FFF7FEFF 		bl	_ZN7daisysp10Oscillator12CalcPhaseIncEf
 2446              	.LVL155:
  70:../../libs/DaisySP/Source/Synthesis/oscillator.h ****     }
 2447              		.loc 8 70 20 view .LVU588
 2448 05ea 384A     		ldr	r2, .L62+44
 2449              	.LBE897:
 2450              	.LBE899:
 147:main.cpp      ****     {
 2451              		.loc 10 147 5 view .LVU589
 2452 05ec 2B88     		ldrh	r3, [r5]
 2453              	.LBB900:
 2454              	.LBB898:
  70:../../libs/DaisySP/Source/Synthesis/oscillator.h ****     }
 2455              		.loc 8 70 20 view .LVU590
 2456 05ee 82ED070A 		vstr.32	s0, [r2, #28]
 2457              	.LVL156:
  70:../../libs/DaisySP/Source/Synthesis/oscillator.h ****     }
 2458              		.loc 8 70 20 view .LVU591
 2459              	.LBE898:
 2460              	.LBE900:
 147:main.cpp      ****     {
 2461              		.loc 10 147 5 is_stmt 1 view .LVU592
 2462 05f2 DA07     		lsls	r2, r3, #31
 2463 05f4 02D4     		bmi	.L33
 2464              	.L32:
 147:main.cpp      ****     {
 2465              		.loc 10 147 33 is_stmt 0 view .LVU593
 2466 05f6 3B88     		ldrh	r3, [r7]
 2467 05f8 DB07     		lsls	r3, r3, #31
 2468 05fa 7FD4     		bmi	.L57
 2469              	.L33:
 157:main.cpp      ****     {
 2470              		.loc 10 157 5 is_stmt 1 view .LVU594
 2471 05fc 3378     		ldrb	r3, [r6]	@ zero_extendqisi2
 2472 05fe 002B     		cmp	r3, #0
 2473 0600 3FF466AF 		beq	.L35
 159:main.cpp      ****         hw.PrintLine("-----------------------------------------------------------------------------
 2474              		.loc 10 159 7 view .LVU595
 2475 0604 99F80030 		ldrb	r3, [r9]	@ zero_extendqisi2
 2476 0608 93B3     		cbz	r3, .L58
 2477              	.L36:
 164:main.cpp      ****       hw.PrintLine("| Delta : %f, | DeltaFiltered :  %f | Frequency : %f ", pc.getDelta(), pc.getDe
 2478              		.loc 10 164 7 view .LVU596
ARM GAS  C:\Users\skipi\AppData\Local\Temp\cc3AYCkc.s 			page 77


 2479              	.LVL157:
 2480              	.LBB901:
 2481              	.LBI901:
 126:../../libs/libDaisy/src/daisy_seed.h ****     {
 2482              		.loc 1 126 17 view .LVU597
 2483              	.LBB902:
 128:../../libs/libDaisy/src/daisy_seed.h ****     }
 2484              		.loc 1 128 23 is_stmt 0 view .LVU598
 2485 060a 3148     		ldr	r0, .L62+48
 2486 060c FFF7FEFF 		bl	_ZN5daisy6LoggerILNS_17LoggerDestinationE1EE9PrintLineEPKcz
 2487              	.LVL158:
 128:../../libs/libDaisy/src/daisy_seed.h ****     }
 2488              		.loc 1 128 23 view .LVU599
 2489              	.LBE902:
 2490              	.LBE901:
 165:main.cpp      ****       hw.PrintLine("| ");
 2491              		.loc 10 165 7 is_stmt 1 view .LVU600
 2492              	.LBB903:
 2493              	.LBI903:
 2494              		.file 13 "../../Classes/Temperamento/PlantConditioner.h"
   1:../../Classes/Temperamento/PlantConditioner.h **** #pragma once
   2:../../Classes/Temperamento/PlantConditioner.h **** #include "daisysp.h"
   3:../../Classes/Temperamento/PlantConditioner.h **** #include "daisy_seed.h"
   4:../../Classes/Temperamento/PlantConditioner.h **** #include "../FIIR/CapFir.h"
   5:../../Classes/Temperamento/PlantConditioner.h **** #include <cstdint>
   6:../../Classes/Temperamento/PlantConditioner.h **** 
   7:../../Classes/Temperamento/PlantConditioner.h **** 
   8:../../Classes/Temperamento/PlantConditioner.h **** 
   9:../../Classes/Temperamento/PlantConditioner.h **** class PlantConditioner {
  10:../../Classes/Temperamento/PlantConditioner.h **** public:
  11:../../Classes/Temperamento/PlantConditioner.h ****     PlantConditioner();
  12:../../Classes/Temperamento/PlantConditioner.h ****     ~PlantConditioner();
  13:../../Classes/Temperamento/PlantConditioner.h **** 
  14:../../Classes/Temperamento/PlantConditioner.h ****     enum ScaleType {
  15:../../Classes/Temperamento/PlantConditioner.h ****         Major = 0,
  16:../../Classes/Temperamento/PlantConditioner.h ****         MinorNat,
  17:../../Classes/Temperamento/PlantConditioner.h ****         MinorArm,
  18:../../Classes/Temperamento/PlantConditioner.h ****         MinorMel,
  19:../../Classes/Temperamento/PlantConditioner.h ****         Pentatonic,
  20:../../Classes/Temperamento/PlantConditioner.h ****         Chromatic,
  21:../../Classes/Temperamento/PlantConditioner.h ****         Esatonic,
  22:../../Classes/Temperamento/PlantConditioner.h ****     };
  23:../../Classes/Temperamento/PlantConditioner.h **** 
  24:../../Classes/Temperamento/PlantConditioner.h ****     enum Notes {
  25:../../Classes/Temperamento/PlantConditioner.h ****         C = 0,
  26:../../Classes/Temperamento/PlantConditioner.h ****         Cs,
  27:../../Classes/Temperamento/PlantConditioner.h ****         D,
  28:../../Classes/Temperamento/PlantConditioner.h ****         Ds,
  29:../../Classes/Temperamento/PlantConditioner.h ****         E,
  30:../../Classes/Temperamento/PlantConditioner.h ****         F,
  31:../../Classes/Temperamento/PlantConditioner.h ****         Fs,
  32:../../Classes/Temperamento/PlantConditioner.h ****         G,
  33:../../Classes/Temperamento/PlantConditioner.h ****         Gs,
  34:../../Classes/Temperamento/PlantConditioner.h ****         A,
  35:../../Classes/Temperamento/PlantConditioner.h ****         As,
  36:../../Classes/Temperamento/PlantConditioner.h ****         B,
  37:../../Classes/Temperamento/PlantConditioner.h ****     };
ARM GAS  C:\Users\skipi\AppData\Local\Temp\cc3AYCkc.s 			page 78


  38:../../Classes/Temperamento/PlantConditioner.h ****         
  39:../../Classes/Temperamento/PlantConditioner.h **** 
  40:../../Classes/Temperamento/PlantConditioner.h **** 
  41:../../Classes/Temperamento/PlantConditioner.h ****     void Init(CapFir::ResType res_type);
  42:../../Classes/Temperamento/PlantConditioner.h **** 
  43:../../Classes/Temperamento/PlantConditioner.h ****     void setCurve(uint8_t delta_max, float curve_type);
  44:../../Classes/Temperamento/PlantConditioner.h **** 
  45:../../Classes/Temperamento/PlantConditioner.h ****     void setScale( enum Notes root_note, enum ScaleType scale_type);
  46:../../Classes/Temperamento/PlantConditioner.h **** 
  47:../../Classes/Temperamento/PlantConditioner.h ****     void setOctave(uint8_t octave);
  48:../../Classes/Temperamento/PlantConditioner.h **** 
  49:../../Classes/Temperamento/PlantConditioner.h ****     float* getBin();
  50:../../Classes/Temperamento/PlantConditioner.h **** 
  51:../../Classes/Temperamento/PlantConditioner.h ****     float Process(uint16_t baseline, uint16_t filtered);
  52:../../Classes/Temperamento/PlantConditioner.h **** 
  53:../../Classes/Temperamento/PlantConditioner.h ****     float getDelta(){return _delta;}
 2495              		.loc 13 53 11 view .LVU601
 2496              	.LBB904:
 2497              		.loc 13 53 22 view .LVU602
 2498              		.loc 13 53 22 is_stmt 0 view .LVU603
 2499              	.LBE904:
 2500              	.LBE903:
 2501              	.LBB905:
 2502              	.LBI905:
  54:../../Classes/Temperamento/PlantConditioner.h **** 
  55:../../Classes/Temperamento/PlantConditioner.h ****     float getDeltaFilt(){return _deltaFilt;}
 2503              		.loc 13 55 11 is_stmt 1 view .LVU604
 2504              	.LBB906:
 2505              		.loc 13 55 26 view .LVU605
 2506              		.loc 13 55 26 is_stmt 0 view .LVU606
 2507              	.LBE906:
 2508              	.LBE905:
 2509              	.LBB907:
 2510              	.LBI907:
 126:../../libs/libDaisy/src/daisy_seed.h ****     {
 2511              		.loc 1 126 17 is_stmt 1 view .LVU607
 2512              	.LBB908:
 128:../../libs/libDaisy/src/daisy_seed.h ****     }
 2513              		.loc 1 128 23 is_stmt 0 view .LVU608
 2514 0610 2D4B     		ldr	r3, .L62+40
 2515 0612 3048     		ldr	r0, .L62+52
 2516 0614 93ED006A 		vldr.32	s12, [r3]
 2517 0618 2F4B     		ldr	r3, .L62+56
 2518 061a B7EEC66A 		vcvt.f64.f32	d6, s12
 2519 061e 93ED007A 		vldr.32	s14, [r3]
 2520 0622 53ED015A 		vldr.32	s11, [r3, #-4]
 2521 0626 B7EEC77A 		vcvt.f64.f32	d7, s14
 2522 062a B7EEE55A 		vcvt.f64.f32	d5, s11
 2523 062e 8DED026B 		vstr.64	d6, [sp, #8]
 2524 0632 53EC152B 		vmov	r2, r3, d5
 2525 0636 8DED007B 		vstr.64	d7, [sp]
 2526 063a FFF7FEFF 		bl	_ZN5daisy6LoggerILNS_17LoggerDestinationE1EE9PrintLineEPKcz
 2527              	.LVL159:
 128:../../libs/libDaisy/src/daisy_seed.h ****     }
 2528              		.loc 1 128 23 view .LVU609
 2529              	.LBE908:
 2530              	.LBE907:
ARM GAS  C:\Users\skipi\AppData\Local\Temp\cc3AYCkc.s 			page 79


 166:main.cpp      ****       
 2531              		.loc 10 166 7 is_stmt 1 view .LVU610
 2532              	.LBB909:
 2533              	.LBI909:
 126:../../libs/libDaisy/src/daisy_seed.h ****     {
 2534              		.loc 1 126 17 view .LVU611
 2535              	.LBB910:
 128:../../libs/libDaisy/src/daisy_seed.h ****     }
 2536              		.loc 1 128 23 is_stmt 0 view .LVU612
 2537 063e 2448     		ldr	r0, .L62+48
 2538 0640 FFF7FEFF 		bl	_ZN5daisy6LoggerILNS_17LoggerDestinationE1EE9PrintLineEPKcz
 2539              	.LVL160:
 129:../../libs/libDaisy/src/daisy_seed.h **** 
 2540              		.loc 1 129 5 view .LVU613
 2541 0644 51E7     		b	.L37
 2542              	.LVL161:
 2543              	.L55:
 129:../../libs/libDaisy/src/daisy_seed.h **** 
 2544              		.loc 1 129 5 view .LVU614
 2545              	.LBE910:
 2546              	.LBE909:
 180:main.cpp      ****         hw.PrintLine("deltaMax : %f", delta_max);
 2547              		.loc 10 180 9 is_stmt 1 view .LVU615
 2548              	.LBB911:
 2549              	.LBI911:
 126:../../libs/libDaisy/src/daisy_seed.h ****     {
 2550              		.loc 1 126 17 view .LVU616
 2551              	.LBB912:
 128:../../libs/libDaisy/src/daisy_seed.h ****     }
 2552              		.loc 1 128 23 is_stmt 0 view .LVU617
 2553 0646 2548     		ldr	r0, .L62+60
 2554 0648 FFF7FEFF 		bl	_ZN5daisy6LoggerILNS_17LoggerDestinationE1EE9PrintLineEPKcz
 2555              	.LVL162:
 128:../../libs/libDaisy/src/daisy_seed.h ****     }
 2556              		.loc 1 128 23 view .LVU618
 2557              	.LBE912:
 2558              	.LBE911:
 181:main.cpp      ****         hw.PrintLine("curveType : %f", curve_type);
 2559              		.loc 10 181 9 is_stmt 1 view .LVU619
 2560              	.LBB913:
 2561              	.LBI913:
 126:../../libs/libDaisy/src/daisy_seed.h ****     {
 2562              		.loc 1 126 17 view .LVU620
 2563              	.LBB914:
 128:../../libs/libDaisy/src/daisy_seed.h ****     }
 2564              		.loc 1 128 23 is_stmt 0 view .LVU621
 2565 064c B7EEE87A 		vcvt.f64.f32	d7, s17
 2566 0650 2348     		ldr	r0, .L62+64
 2567 0652 53EC172B 		vmov	r2, r3, d7
 2568 0656 FFF7FEFF 		bl	_ZN5daisy6LoggerILNS_17LoggerDestinationE1EE9PrintLineEPKcz
 2569              	.LVL163:
 128:../../libs/libDaisy/src/daisy_seed.h ****     }
 2570              		.loc 1 128 23 view .LVU622
 2571              	.LBE914:
 2572              	.LBE913:
 182:main.cpp      ****         k = 0;
 2573              		.loc 10 182 9 is_stmt 1 view .LVU623
ARM GAS  C:\Users\skipi\AppData\Local\Temp\cc3AYCkc.s 			page 80


 2574              	.LBB915:
 2575              	.LBI915:
 126:../../libs/libDaisy/src/daisy_seed.h ****     {
 2576              		.loc 1 126 17 view .LVU624
 2577              	.LBB916:
 128:../../libs/libDaisy/src/daisy_seed.h ****     }
 2578              		.loc 1 128 23 is_stmt 0 view .LVU625
 2579 065a B7EEC87A 		vcvt.f64.f32	d7, s16
 2580 065e 2148     		ldr	r0, .L62+68
 2581 0660 53EC172B 		vmov	r2, r3, d7
 2582 0664 FFF7FEFF 		bl	_ZN5daisy6LoggerILNS_17LoggerDestinationE1EE9PrintLineEPKcz
 2583              	.LVL164:
 128:../../libs/libDaisy/src/daisy_seed.h ****     }
 2584              		.loc 1 128 23 view .LVU626
 2585              	.LBE916:
 2586              	.LBE915:
 183:main.cpp      ****       }
 2587              		.loc 10 183 9 is_stmt 1 view .LVU627
 183:main.cpp      ****       }
 2588              		.loc 10 183 11 is_stmt 0 view .LVU628
 2589 0668 0023     		movs	r3, #0
 2590 066a CAF80030 		str	r3, [r10]
 2591 066e 3CE7     		b	.L37
 2592              	.L58:
 160:main.cpp      ****         hw.PrintLine("CAP touched");
 2593              		.loc 10 160 9 is_stmt 1 view .LVU629
 2594              	.LVL165:
 2595              	.LBB917:
 2596              	.LBI917:
 126:../../libs/libDaisy/src/daisy_seed.h ****     {
 2597              		.loc 1 126 17 view .LVU630
 2598              	.LBB918:
 128:../../libs/libDaisy/src/daisy_seed.h ****     }
 2599              		.loc 1 128 23 is_stmt 0 view .LVU631
 2600 0670 1D48     		ldr	r0, .L62+72
 2601 0672 FFF7FEFF 		bl	_ZN5daisy6LoggerILNS_17LoggerDestinationE1EE9PrintLineEPKcz
 2602              	.LVL166:
 128:../../libs/libDaisy/src/daisy_seed.h ****     }
 2603              		.loc 1 128 23 view .LVU632
 2604              	.LBE918:
 2605              	.LBE917:
 161:main.cpp      ****         flag = true;
 2606              		.loc 10 161 9 is_stmt 1 view .LVU633
 2607              	.LBB919:
 2608              	.LBI919:
 126:../../libs/libDaisy/src/daisy_seed.h ****     {
 2609              		.loc 1 126 17 view .LVU634
 2610              	.LBB920:
 128:../../libs/libDaisy/src/daisy_seed.h ****     }
 2611              		.loc 1 128 23 is_stmt 0 view .LVU635
 2612 0676 1D48     		ldr	r0, .L62+76
 2613 0678 FFF7FEFF 		bl	_ZN5daisy6LoggerILNS_17LoggerDestinationE1EE9PrintLineEPKcz
 2614              	.LVL167:
 128:../../libs/libDaisy/src/daisy_seed.h ****     }
 2615              		.loc 1 128 23 view .LVU636
 2616              	.LBE920:
 2617              	.LBE919:
ARM GAS  C:\Users\skipi\AppData\Local\Temp\cc3AYCkc.s 			page 81


 162:main.cpp      ****       }
 2618              		.loc 10 162 9 is_stmt 1 view .LVU637
 162:main.cpp      ****       }
 2619              		.loc 10 162 14 is_stmt 0 view .LVU638
 2620 067c 0123     		movs	r3, #1
 2621 067e 89F80030 		strb	r3, [r9]
 2622 0682 C2E7     		b	.L36
 2623              	.L54:
 173:main.cpp      ****         hw.PrintLine("-----------------------------------------------------------------------------
 2624              		.loc 10 173 9 is_stmt 1 view .LVU639
 2625              	.LVL168:
 2626              	.LBB921:
 2627              	.LBI921:
 126:../../libs/libDaisy/src/daisy_seed.h ****     {
 2628              		.loc 1 126 17 view .LVU640
 2629              	.LBB922:
 128:../../libs/libDaisy/src/daisy_seed.h ****     }
 2630              		.loc 1 128 23 is_stmt 0 view .LVU641
 2631 0684 1A48     		ldr	r0, .L62+80
 2632 0686 FFF7FEFF 		bl	_ZN5daisy6LoggerILNS_17LoggerDestinationE1EE9PrintLineEPKcz
 2633              	.LVL169:
 128:../../libs/libDaisy/src/daisy_seed.h ****     }
 2634              		.loc 1 128 23 view .LVU642
 2635              	.LBE922:
 2636              	.LBE921:
 174:main.cpp      ****         hw.PrintLine(" ");
 2637              		.loc 10 174 9 is_stmt 1 view .LVU643
 2638              	.LBB923:
 2639              	.LBI923:
 126:../../libs/libDaisy/src/daisy_seed.h ****     {
 2640              		.loc 1 126 17 view .LVU644
 2641              	.LBB924:
 128:../../libs/libDaisy/src/daisy_seed.h ****     }
 2642              		.loc 1 128 23 is_stmt 0 view .LVU645
 2643 068a 1748     		ldr	r0, .L62+72
 2644 068c FFF7FEFF 		bl	_ZN5daisy6LoggerILNS_17LoggerDestinationE1EE9PrintLineEPKcz
 2645              	.LVL170:
 128:../../libs/libDaisy/src/daisy_seed.h ****     }
 2646              		.loc 1 128 23 view .LVU646
 2647              	.LBE924:
 2648              	.LBE923:
 175:main.cpp      ****         flag = false;
 2649              		.loc 10 175 9 is_stmt 1 view .LVU647
 2650              	.LBB925:
 2651              	.LBI925:
 126:../../libs/libDaisy/src/daisy_seed.h ****     {
 2652              		.loc 1 126 17 view .LVU648
 2653              	.LBB926:
 128:../../libs/libDaisy/src/daisy_seed.h ****     }
 2654              		.loc 1 128 23 is_stmt 0 view .LVU649
 2655 0690 1248     		ldr	r0, .L62+60
 2656 0692 FFF7FEFF 		bl	_ZN5daisy6LoggerILNS_17LoggerDestinationE1EE9PrintLineEPKcz
 2657              	.LVL171:
 128:../../libs/libDaisy/src/daisy_seed.h ****     }
 2658              		.loc 1 128 23 view .LVU650
 2659              	.LBE926:
 2660              	.LBE925:
ARM GAS  C:\Users\skipi\AppData\Local\Temp\cc3AYCkc.s 			page 82


 176:main.cpp      ****       }
 2661              		.loc 10 176 9 is_stmt 1 view .LVU651
 176:main.cpp      ****       }
 2662              		.loc 10 176 14 is_stmt 0 view .LVU652
 2663 0696 0023     		movs	r3, #0
 2664 0698 89F80030 		strb	r3, [r9]
 2665 069c 1DE7     		b	.L38
 2666              	.L63:
 2667 069e 00BF     		.align	2
 2668              	.L62:
 2669 06a0 18000000 		.word	.LANCHOR9+24
 2670 06a4 00000000 		.word	.LANCHOR9
 2671 06a8 00000000 		.word	.LANCHOR3
 2672 06ac 00000000 		.word	_ZL13AudioCallbackPKfPfj
 2673 06b0 00000000 		.word	.LANCHOR10
 2674 06b4 00000000 		.word	.LANCHOR11
 2675 06b8 00000000 		.word	.LANCHOR0
 2676 06bc 18000000 		.word	.LANCHOR3+24
 2677 06c0 0000C842 		.word	1120403456
 2678 06c4 00000000 		.word	.LANCHOR4
 2679 06c8 00000000 		.word	.LANCHOR12
 2680 06cc 00000000 		.word	.LANCHOR2
 2681 06d0 60000000 		.word	.LC2
 2682 06d4 64000000 		.word	.LC3
 2683 06d8 A00A0000 		.word	.LANCHOR4+2720
 2684 06dc AC000000 		.word	.LC5
 2685 06e0 B0000000 		.word	.LC6
 2686 06e4 C0000000 		.word	.LC7
 2687 06e8 00000000 		.word	.LC0
 2688 06ec 54000000 		.word	.LC1
 2689 06f0 9C000000 		.word	.LC4
 2690 06f4 00000000 		.word	.LANCHOR13
 2691 06f8 00000000 		.word	.LANCHOR14
 2692              	.L57:
 149:main.cpp      ****       
 2693              		.loc 10 149 7 is_stmt 1 view .LVU653
 149:main.cpp      ****       
 2694              		.loc 10 149 12 is_stmt 0 view .LVU654
 2695 06fc 0023     		movs	r3, #0
 151:main.cpp      ****     }
 2696              		.loc 10 151 18 view .LVU655
 2697 06fe 0248     		ldr	r0, .L64
 149:main.cpp      ****       
 2698              		.loc 10 149 12 view .LVU656
 2699 0700 3370     		strb	r3, [r6]
 151:main.cpp      ****     }
 2700              		.loc 10 151 7 is_stmt 1 view .LVU657
 151:main.cpp      ****     }
 2701              		.loc 10 151 18 is_stmt 0 view .LVU658
 2702 0702 FFF7FEFF 		bl	_ZN16PlantConditioner8setDeltaEv
 2703              	.LVL172:
 2704 0706 79E7     		b	.L33
 2705              	.L65:
 2706              		.align	2
 2707              	.L64:
 2708 0708 00000000 		.word	.LANCHOR4
 2709              	.LBE927:
ARM GAS  C:\Users\skipi\AppData\Local\Temp\cc3AYCkc.s 			page 83


 2710              		.cfi_endproc
 2711              	.LFE4849:
 2713              		.section	.text.startup._GLOBAL__sub_I_mpr121ObjConf,"ax",%progbits
 2714              		.align	1
 2715              		.p2align 2,,3
 2716              		.syntax unified
 2717              		.thumb
 2718              		.thumb_func
 2719              		.fpu fpv5-d16
 2721              	_GLOBAL__sub_I_mpr121ObjConf:
 2722              	.LFB5434:
 197:main.cpp      ****     
 198:main.cpp      **** 
 199:main.cpp      ****   }
 200:main.cpp      **** }
 2723              		.loc 10 200 1 is_stmt 1 view -0
 2724              		.cfi_startproc
 2725              		@ args = 0, pretend = 0, frame = 0
 2726              		@ frame_needed = 0, uses_anonymous_args = 0
 2727              	.LBB1058:
 2728              	.LBI1058:
 2729              		.loc 10 200 1 view .LVU660
 2730              	.LVL173:
 2731              	.LBB1059:
 2732              	.LBB1060:
 2733              	.LBI1060:
 105:../../libs/libDaisy/src/dev/mpr121.h ****         {
 2734              		.loc 9 105 9 view .LVU661
 2735              	.LBB1061:
 2736              	.LBB1062:
 2737              	.LBI1062:
  34:../../libs/libDaisy/src/dev/mpr121.h ****         {
 2738              		.loc 9 34 9 view .LVU662
 2739              	.LBB1063:
 2740              	.LBB1064:
 2741              	.LBB1065:
 2742              	.LBI1065:
 2743              		.loc 12 204 15 view .LVU663
 2744              		.loc 12 204 15 is_stmt 0 view .LVU664
 2745              	.LBE1065:
 2746              	.LBB1066:
 2747              	.LBI1066:
 2748              		.loc 12 204 15 is_stmt 1 view .LVU665
 2749              		.loc 12 204 15 is_stmt 0 view .LVU666
 2750              	.LBE1066:
  36:../../libs/libDaisy/src/dev/mpr121.h ****             speed  = I2CHandle::Config::Speed::I2C_400KHZ;
 2751              		.loc 9 36 13 is_stmt 1 view .LVU667
  37:../../libs/libDaisy/src/dev/mpr121.h **** 
 2752              		.loc 9 37 13 view .LVU668
  39:../../libs/libDaisy/src/dev/mpr121.h ****             sda = Pin(PORTB, 9);
 2753              		.loc 9 39 13 view .LVU669
 2754              	.LBB1067:
 2755              	.LBI1067:
 201:../../libs/libDaisy/src/daisy_core.h **** 
 2756              		.loc 12 201 15 view .LVU670
 201:../../libs/libDaisy/src/daisy_core.h **** 
 2757              		.loc 12 201 15 is_stmt 0 view .LVU671
ARM GAS  C:\Users\skipi\AppData\Local\Temp\cc3AYCkc.s 			page 84


 2758              	.LBE1067:
  40:../../libs/libDaisy/src/dev/mpr121.h **** 
 2759              		.loc 9 40 13 is_stmt 1 view .LVU672
 2760              	.LBB1068:
 2761              	.LBI1068:
 201:../../libs/libDaisy/src/daisy_core.h **** 
 2762              		.loc 12 201 15 view .LVU673
 201:../../libs/libDaisy/src/daisy_core.h **** 
 2763              		.loc 12 201 15 is_stmt 0 view .LVU674
 2764              	.LBE1068:
  42:../../libs/libDaisy/src/dev/mpr121.h ****         }
 2765              		.loc 9 42 13 is_stmt 1 view .LVU675
  42:../../libs/libDaisy/src/dev/mpr121.h ****         }
 2766              		.loc 9 42 13 is_stmt 0 view .LVU676
 2767              	.LBE1064:
 2768              	.LBE1063:
 2769              	.LBE1062:
 2770              	.LBE1061:
 2771              	.LBE1060:
 2772              	.LBE1059:
 2773              	.LBE1058:
 2774              		.loc 10 200 1 view .LVU677
 2775 0000 38B5     		push	{r3, r4, r5, lr}
 2776              		.cfi_def_cfa_offset 16
 2777              		.cfi_offset 3, -16
 2778              		.cfi_offset 4, -12
 2779              		.cfi_offset 5, -8
 2780              		.cfi_offset 14, -4
 2781              	.LBB1233:
 2782              	.LBB1231:
 2783              	.LBB1078:
 2784              	.LBB1079:
 2785              	.LBB1080:
 2786              	.LBB1081:
 2787              	.LBB1082:
 2788              	.LBB1083:
 2789              	.LBB1084:
  36:../../libs/libDaisy/src/dev/mpr121.h ****             speed  = I2CHandle::Config::Speed::I2C_400KHZ;
 2790              		.loc 9 36 20 view .LVU678
 2791 0002 4048     		ldr	r0, .L72
 2792              	.LBE1084:
 2793              	.LBE1083:
 2794              	.LBE1082:
 2795              	.LBE1081:
 2796              	.LBE1080:
 2797              	.LBE1079:
 2798              	.LBE1078:
 2799              	.LBB1117:
 2800              	.LBB1075:
 105:../../libs/libDaisy/src/dev/mpr121.h ****         {
 2801              		.loc 9 105 9 view .LVU679
 2802 0004 5A21     		movs	r1, #90
 2803              	.LBB1073:
 2804              	.LBB1071:
 2805              	.LBB1069:
  36:../../libs/libDaisy/src/dev/mpr121.h ****             speed  = I2CHandle::Config::Speed::I2C_400KHZ;
 2806              		.loc 9 36 20 view .LVU680
ARM GAS  C:\Users\skipi\AppData\Local\Temp\cc3AYCkc.s 			page 85


 2807 0006 404B     		ldr	r3, .L72+4
 2808 0008 0024     		movs	r4, #0
  37:../../libs/libDaisy/src/dev/mpr121.h **** 
 2809              		.loc 9 37 20 view .LVU681
 2810 000a 0125     		movs	r5, #1
 2811              	.LBE1069:
 2812              	.LBE1071:
 2813              	.LBE1073:
 105:../../libs/libDaisy/src/dev/mpr121.h ****         {
 2814              		.loc 9 105 9 view .LVU682
 2815 000c 3F4A     		ldr	r2, .L72+8
 2816 000e 1961     		str	r1, [r3, #16]
 2817              	.LBE1075:
 2818              	.LBE1117:
 2819              	.LBB1118:
 2820              	.LBB1114:
  96:../../libs/libDaisy/src/dev/mpr121.h ****     ~Mpr121() {}
 2821              		.loc 9 96 5 view .LVU683
 2822 0010 0161     		str	r1, [r0, #16]
 2823 0012 C162     		str	r1, [r0, #44]
 2824              	.LBE1114:
 2825              	.LBE1118:
 2826              	.LBB1119:
 2827              	.LBB1076:
 105:../../libs/libDaisy/src/dev/mpr121.h ****         {
 2828              		.loc 9 105 9 view .LVU684
 2829 0014 4FF48171 		mov	r1, #258
 2830 0018 9A60     		str	r2, [r3, #8]
 2831 001a 9982     		strh	r1, [r3, #20]	@ movhi
 2832              	.LVL174:
 105:../../libs/libDaisy/src/dev/mpr121.h ****         {
 2833              		.loc 9 105 9 view .LVU685
 2834              	.LBE1076:
 2835              	.LBE1119:
 2836              	.LBB1120:
 2837              	.LBI1078:
  96:../../libs/libDaisy/src/dev/mpr121.h ****     ~Mpr121() {}
 2838              		.loc 9 96 5 is_stmt 1 view .LVU686
 2839              	.LBB1115:
 2840              	.LBB1097:
 2841              	.LBI1080:
 105:../../libs/libDaisy/src/dev/mpr121.h ****         {
 2842              		.loc 9 105 9 view .LVU687
 2843              	.LBB1095:
 2844              	.LBB1093:
 2845              	.LBI1082:
  34:../../libs/libDaisy/src/dev/mpr121.h ****         {
 2846              		.loc 9 34 9 view .LVU688
 2847              	.LBB1091:
 2848              	.LBB1089:
 2849              	.LBB1085:
 2850              	.LBI1085:
 2851              		.loc 12 204 15 view .LVU689
 2852              		.loc 12 204 15 is_stmt 0 view .LVU690
 2853              	.LBE1085:
 2854              	.LBB1086:
 2855              	.LBI1086:
ARM GAS  C:\Users\skipi\AppData\Local\Temp\cc3AYCkc.s 			page 86


 2856              		.loc 12 204 15 is_stmt 1 view .LVU691
 2857              		.loc 12 204 15 is_stmt 0 view .LVU692
 2858              	.LBE1086:
  36:../../libs/libDaisy/src/dev/mpr121.h ****             speed  = I2CHandle::Config::Speed::I2C_400KHZ;
 2859              		.loc 9 36 13 is_stmt 1 view .LVU693
  37:../../libs/libDaisy/src/dev/mpr121.h **** 
 2860              		.loc 9 37 13 view .LVU694
  39:../../libs/libDaisy/src/dev/mpr121.h ****             sda = Pin(PORTB, 9);
 2861              		.loc 9 39 13 view .LVU695
 2862              	.LBB1087:
 2863              	.LBI1087:
 201:../../libs/libDaisy/src/daisy_core.h **** 
 2864              		.loc 12 201 15 view .LVU696
 201:../../libs/libDaisy/src/daisy_core.h **** 
 2865              		.loc 12 201 15 is_stmt 0 view .LVU697
 2866              	.LBE1087:
  40:../../libs/libDaisy/src/dev/mpr121.h **** 
 2867              		.loc 9 40 13 is_stmt 1 view .LVU698
 2868              	.LBB1088:
 2869              	.LBI1088:
 201:../../libs/libDaisy/src/daisy_core.h **** 
 2870              		.loc 12 201 15 view .LVU699
 201:../../libs/libDaisy/src/daisy_core.h **** 
 2871              		.loc 12 201 15 is_stmt 0 view .LVU700
 2872              	.LBE1088:
  42:../../libs/libDaisy/src/dev/mpr121.h ****         }
 2873              		.loc 9 42 13 is_stmt 1 view .LVU701
  42:../../libs/libDaisy/src/dev/mpr121.h ****         }
 2874              		.loc 9 42 13 is_stmt 0 view .LVU702
 2875              	.LBE1089:
 2876              	.LBE1091:
 2877              	.LBE1093:
 2878              	.LBE1095:
 2879              	.LBE1097:
 2880              	.LBB1098:
 2881              	.LBI1098:
  20:../../libs/libDaisy/src/dev/mpr121.h ****     ~Mpr121I2CTransport() {}
 2882              		.loc 9 20 5 is_stmt 1 view .LVU703
 2883              	.LBB1099:
 2884              	.LBB1100:
 2885              	.LBI1100:
  60:../../libs/libDaisy/src/per/i2c.h ****             Pin scl;  /**< & */
  61:../../libs/libDaisy/src/per/i2c.h ****             Pin sda;  /**< & */
  62:../../libs/libDaisy/src/per/i2c.h ****         } pin_config; /**< & */
  63:../../libs/libDaisy/src/per/i2c.h **** 
  64:../../libs/libDaisy/src/per/i2c.h ****         Speed speed; /**< & */
  65:../../libs/libDaisy/src/per/i2c.h ****         Mode  mode;  /**< & */
  66:../../libs/libDaisy/src/per/i2c.h ****         // 0x10 is chosen as a default to avoid conflicts with reserved addresses
  67:../../libs/libDaisy/src/per/i2c.h ****         uint8_t address = 0x10; /**< & */
  68:../../libs/libDaisy/src/per/i2c.h ****     };
  69:../../libs/libDaisy/src/per/i2c.h **** 
  70:../../libs/libDaisy/src/per/i2c.h ****     /** Return values for I2C functions. */
  71:../../libs/libDaisy/src/per/i2c.h ****     enum class Result
  72:../../libs/libDaisy/src/per/i2c.h ****     {
  73:../../libs/libDaisy/src/per/i2c.h ****         OK, /**< & */
  74:../../libs/libDaisy/src/per/i2c.h ****         ERR /**< & */
  75:../../libs/libDaisy/src/per/i2c.h ****     };
ARM GAS  C:\Users\skipi\AppData\Local\Temp\cc3AYCkc.s 			page 87


  76:../../libs/libDaisy/src/per/i2c.h **** 
  77:../../libs/libDaisy/src/per/i2c.h ****     enum class Direction
  78:../../libs/libDaisy/src/per/i2c.h ****     {
  79:../../libs/libDaisy/src/per/i2c.h ****         TRANSMIT, /**< & */
  80:../../libs/libDaisy/src/per/i2c.h ****         RECEIVE,  /**< & */
  81:../../libs/libDaisy/src/per/i2c.h ****     };
  82:../../libs/libDaisy/src/per/i2c.h **** 
  83:../../libs/libDaisy/src/per/i2c.h ****     I2CHandle() : pimpl_(nullptr) {}
 2886              		.loc 11 83 5 view .LVU704
 2887              		.loc 11 83 5 is_stmt 0 view .LVU705
 2888              	.LBE1100:
 2889              	.LBB1101:
 2890              	.LBI1101:
  34:../../libs/libDaisy/src/dev/mpr121.h ****         {
 2891              		.loc 9 34 9 is_stmt 1 view .LVU706
 2892              	.LBB1102:
 2893              	.LBB1103:
 2894              	.LBB1104:
 2895              	.LBI1104:
 2896              		.loc 12 204 15 view .LVU707
 2897              		.loc 12 204 15 is_stmt 0 view .LVU708
 2898              	.LBE1104:
 2899              	.LBB1105:
 2900              	.LBI1105:
 2901              		.loc 12 204 15 is_stmt 1 view .LVU709
 2902              		.loc 12 204 15 is_stmt 0 view .LVU710
 2903              	.LBE1105:
  36:../../libs/libDaisy/src/dev/mpr121.h ****             speed  = I2CHandle::Config::Speed::I2C_400KHZ;
 2904              		.loc 9 36 13 is_stmt 1 view .LVU711
  37:../../libs/libDaisy/src/dev/mpr121.h **** 
 2905              		.loc 9 37 13 view .LVU712
  39:../../libs/libDaisy/src/dev/mpr121.h ****             sda = Pin(PORTB, 9);
 2906              		.loc 9 39 13 view .LVU713
 2907              	.LBB1106:
 2908              	.LBI1106:
 201:../../libs/libDaisy/src/daisy_core.h **** 
 2909              		.loc 12 201 15 view .LVU714
 201:../../libs/libDaisy/src/daisy_core.h **** 
 2910              		.loc 12 201 15 is_stmt 0 view .LVU715
 2911              	.LBE1106:
  40:../../libs/libDaisy/src/dev/mpr121.h **** 
 2912              		.loc 9 40 13 is_stmt 1 view .LVU716
 2913              	.LBB1107:
 2914              	.LBI1107:
 201:../../libs/libDaisy/src/daisy_core.h **** 
 2915              		.loc 12 201 15 view .LVU717
 201:../../libs/libDaisy/src/daisy_core.h **** 
 2916              		.loc 12 201 15 is_stmt 0 view .LVU718
 2917              	.LBE1107:
  42:../../libs/libDaisy/src/dev/mpr121.h ****         }
 2918              		.loc 9 42 13 is_stmt 1 view .LVU719
  37:../../libs/libDaisy/src/dev/mpr121.h **** 
 2919              		.loc 9 37 20 is_stmt 0 view .LVU720
 2920 001c 0562     		str	r5, [r0, #32]
 2921              	.LBE1103:
 2922              	.LBE1102:
 2923              	.LBE1101:
ARM GAS  C:\Users\skipi\AppData\Local\Temp\cc3AYCkc.s 			page 88


 2924              	.LBE1099:
 2925              	.LBE1098:
  96:../../libs/libDaisy/src/dev/mpr121.h ****     ~Mpr121() {}
 2926              		.loc 9 96 5 view .LVU721
 2927 001e 8260     		str	r2, [r0, #8]
 2928 0020 4262     		str	r2, [r0, #36]
 2929 0022 4161     		str	r1, [r0, #20]
 2930              	.LBE1115:
 2931              	.LBE1120:
  19:main.cpp      **** 
 2932              		.loc 10 19 18 view .LVU722
 2933 0024 3A4A     		ldr	r2, .L72+12
 2934 0026 3B49     		ldr	r1, .L72+16
 2935              	.LBB1121:
 2936              	.LBB1077:
 2937              	.LBB1074:
 2938              	.LBB1072:
 2939              	.LBB1070:
  37:../../libs/libDaisy/src/dev/mpr121.h **** 
 2940              		.loc 9 37 20 view .LVU723
 2941 0028 C3E90045 		strd	r4, r5, [r3]
 2942              	.LBE1070:
 2943              	.LBE1072:
 2944              	.LBE1074:
 2945              	.LBE1077:
 2946              	.LBE1121:
 2947              	.LBB1122:
 2948              	.LBB1116:
 2949              	.LBB1112:
 2950              	.LBB1096:
 2951              	.LBB1094:
 2952              	.LBB1092:
 2953              	.LBB1090:
 2954 002c C0E90045 		strd	r4, r5, [r0]
 2955              	.LBE1090:
 2956              	.LBE1092:
 2957              	.LBE1094:
 2958              	.LBE1096:
 2959              	.LBE1112:
 2960              	.LBB1113:
 2961              	.LBB1111:
 2962              	.LBB1110:
 2963              	.LBB1109:
 2964              	.LBB1108:
  36:../../libs/libDaisy/src/dev/mpr121.h ****             speed  = I2CHandle::Config::Speed::I2C_400KHZ;
 2965              		.loc 9 36 20 view .LVU724
 2966 0030 C0E90644 		strd	r4, r4, [r0, #24]
 2967              	.LBE1108:
 2968              	.LBE1109:
 2969              	.LBE1110:
 2970              	.LBE1111:
 2971              	.LBE1113:
 2972              	.LBE1116:
 2973              	.LBE1122:
  19:main.cpp      **** 
 2974              		.loc 10 19 18 view .LVU725
 2975 0034 FFF7FEFF 		bl	__aeabi_atexit
ARM GAS  C:\Users\skipi\AppData\Local\Temp\cc3AYCkc.s 			page 89


 2976              	.LVL175:
 2977              	.LBB1123:
 2978              	.LBI1123:
  21:../../libs/libDaisy/src/daisy_seed.h ****     ~DaisySeed() {}
 2979              		.loc 1 21 5 is_stmt 1 view .LVU726
 2980              	.LBB1124:
 2981              	.LBB1125:
 2982              	.LBI1125:
 2983              		.file 14 "../../libs/libDaisy/src/per/qspi.h"
   1:../../libs/libDaisy/src/per/qspi.h **** #ifndef DSY_QSPI
   2:../../libs/libDaisy/src/per/qspi.h **** #define DSY_QSPI /**< Macro */
   3:../../libs/libDaisy/src/per/qspi.h **** 
   4:../../libs/libDaisy/src/per/qspi.h **** #ifndef UNIT_TEST // for unit tests, a dummy implementation
   5:../../libs/libDaisy/src/per/qspi.h **** 
   6:../../libs/libDaisy/src/per/qspi.h **** #include <cstdint>
   7:../../libs/libDaisy/src/per/qspi.h **** #include "daisy_core.h"
   8:../../libs/libDaisy/src/per/qspi.h **** #include "util/hal_map.h"
   9:../../libs/libDaisy/src/per/qspi.h **** 
  10:../../libs/libDaisy/src/per/qspi.h **** #define DSY_QSPI_TEXT       \
  11:../../libs/libDaisy/src/per/qspi.h ****     __attribute__((section( \
  12:../../libs/libDaisy/src/per/qspi.h ****         ".qspiflash_text"))) /**< used for reading memory in memory_mapped mode. */
  13:../../libs/libDaisy/src/per/qspi.h **** #define DSY_QSPI_DATA       \
  14:../../libs/libDaisy/src/per/qspi.h ****     __attribute__((section( \
  15:../../libs/libDaisy/src/per/qspi.h ****         ".qspiflash_data"))) /**< used for reading memory in memory_mapped mode. */
  16:../../libs/libDaisy/src/per/qspi.h **** #define DSY_QSPI_BSS        \
  17:../../libs/libDaisy/src/per/qspi.h ****     __attribute__((section( \
  18:../../libs/libDaisy/src/per/qspi.h ****         ".qspiflash_bss"))) /**< used for reading memory in memory_mapped mode. */
  19:../../libs/libDaisy/src/per/qspi.h **** 
  20:../../libs/libDaisy/src/per/qspi.h **** namespace daisy
  21:../../libs/libDaisy/src/per/qspi.h **** {
  22:../../libs/libDaisy/src/per/qspi.h **** /** @addtogroup serial
  23:../../libs/libDaisy/src/per/qspi.h **** @{
  24:../../libs/libDaisy/src/per/qspi.h **** */
  25:../../libs/libDaisy/src/per/qspi.h **** 
  26:../../libs/libDaisy/src/per/qspi.h **** /**
  27:../../libs/libDaisy/src/per/qspi.h ****  Driver for QSPI peripheral to interface with external flash memory. \n
  28:../../libs/libDaisy/src/per/qspi.h ****     Currently supported QSPI Devices: \n
  29:../../libs/libDaisy/src/per/qspi.h ****     * IS25LP080D
  30:../../libs/libDaisy/src/per/qspi.h **** */
  31:../../libs/libDaisy/src/per/qspi.h **** class QSPIHandle
  32:../../libs/libDaisy/src/per/qspi.h **** {
  33:../../libs/libDaisy/src/per/qspi.h ****   public:
  34:../../libs/libDaisy/src/per/qspi.h ****     enum Result
  35:../../libs/libDaisy/src/per/qspi.h ****     {
  36:../../libs/libDaisy/src/per/qspi.h ****         OK = 0,
  37:../../libs/libDaisy/src/per/qspi.h ****         ERR
  38:../../libs/libDaisy/src/per/qspi.h ****     };
  39:../../libs/libDaisy/src/per/qspi.h **** 
  40:../../libs/libDaisy/src/per/qspi.h ****     /** Indicates the current status of the module.
  41:../../libs/libDaisy/src/per/qspi.h ****          *  Warnings are indicated by a leading W.
  42:../../libs/libDaisy/src/per/qspi.h ****          *  Errors are indicated by a leading E and cause an immediate exit.
  43:../../libs/libDaisy/src/per/qspi.h ****          *
  44:../../libs/libDaisy/src/per/qspi.h ****          *  \param GOOD - No errors have been reported.
  45:../../libs/libDaisy/src/per/qspi.h ****          *  \param E_HAL_ERROR - HAL code did not return HAL_OK.
  46:../../libs/libDaisy/src/per/qspi.h ****          *  \param E_SWITCHING_MODES - An error was encountered while switching QSPI peripheral mod
  47:../../libs/libDaisy/src/per/qspi.h ****          *  \param E_INVALID_MODE - QSPI should not be written to while the program is executing fr
  48:../../libs/libDaisy/src/per/qspi.h ****          */
ARM GAS  C:\Users\skipi\AppData\Local\Temp\cc3AYCkc.s 			page 90


  49:../../libs/libDaisy/src/per/qspi.h ****     enum Status
  50:../../libs/libDaisy/src/per/qspi.h ****     {
  51:../../libs/libDaisy/src/per/qspi.h ****         GOOD = 0,
  52:../../libs/libDaisy/src/per/qspi.h ****         E_HAL_ERROR,
  53:../../libs/libDaisy/src/per/qspi.h ****         E_SWITCHING_MODES,
  54:../../libs/libDaisy/src/per/qspi.h ****         E_INVALID_MODE,
  55:../../libs/libDaisy/src/per/qspi.h ****     };
  56:../../libs/libDaisy/src/per/qspi.h **** 
  57:../../libs/libDaisy/src/per/qspi.h ****     /** Configuration structure for interfacing with QSPI Driver */
  58:../../libs/libDaisy/src/per/qspi.h ****     struct Config
  59:../../libs/libDaisy/src/per/qspi.h ****     {
  60:../../libs/libDaisy/src/per/qspi.h ****         /** Flash Devices supported. (Both of these are more-or-less the same, just different sizes
  61:../../libs/libDaisy/src/per/qspi.h ****         enum Device
  62:../../libs/libDaisy/src/per/qspi.h ****         {
  63:../../libs/libDaisy/src/per/qspi.h ****             IS25LP080D,  /**< & */
  64:../../libs/libDaisy/src/per/qspi.h ****             IS25LP064A,  /**< & */
  65:../../libs/libDaisy/src/per/qspi.h ****             DEVICE_LAST, /**< & */
  66:../../libs/libDaisy/src/per/qspi.h ****         };
  67:../../libs/libDaisy/src/per/qspi.h **** 
  68:../../libs/libDaisy/src/per/qspi.h ****         /**
  69:../../libs/libDaisy/src/per/qspi.h ****         Modes of operation.
  70:../../libs/libDaisy/src/per/qspi.h ****         Memory Mapped mode: QSPI configured so that the QSPI can be
  71:../../libs/libDaisy/src/per/qspi.h ****         read from starting address 0x90000000. Writing is not
  72:../../libs/libDaisy/src/per/qspi.h ****         possible in this mode. \n
  73:../../libs/libDaisy/src/per/qspi.h ****         Indirect Polling mode: Device driver enabled.
  74:../../libs/libDaisy/src/per/qspi.h ****         */
  75:../../libs/libDaisy/src/per/qspi.h ****         enum Mode
  76:../../libs/libDaisy/src/per/qspi.h ****         {
  77:../../libs/libDaisy/src/per/qspi.h ****             MEMORY_MAPPED,    /**< & */
  78:../../libs/libDaisy/src/per/qspi.h ****             INDIRECT_POLLING, /**< & */
  79:../../libs/libDaisy/src/per/qspi.h ****             MODE_LAST,
  80:../../libs/libDaisy/src/per/qspi.h ****         };
  81:../../libs/libDaisy/src/per/qspi.h **** 
  82:../../libs/libDaisy/src/per/qspi.h ****         //SCK,  CE# (active low)
  83:../../libs/libDaisy/src/per/qspi.h ****         struct
  84:../../libs/libDaisy/src/per/qspi.h ****         {
  85:../../libs/libDaisy/src/per/qspi.h ****             Pin io0; /**< & */
  86:../../libs/libDaisy/src/per/qspi.h ****             Pin io1; /**< & */
  87:../../libs/libDaisy/src/per/qspi.h ****             Pin io2; /**< & */
  88:../../libs/libDaisy/src/per/qspi.h ****             Pin io3; /**< & */
  89:../../libs/libDaisy/src/per/qspi.h ****             Pin clk; /**< & */
  90:../../libs/libDaisy/src/per/qspi.h ****             Pin ncs; /**< & */
  91:../../libs/libDaisy/src/per/qspi.h ****         } pin_config;
  92:../../libs/libDaisy/src/per/qspi.h **** 
  93:../../libs/libDaisy/src/per/qspi.h ****         Device device;
  94:../../libs/libDaisy/src/per/qspi.h ****         Mode   mode;
  95:../../libs/libDaisy/src/per/qspi.h ****     };
  96:../../libs/libDaisy/src/per/qspi.h **** 
  97:../../libs/libDaisy/src/per/qspi.h ****     /**
  98:../../libs/libDaisy/src/per/qspi.h ****         Initializes QSPI peripheral, and Resets, and prepares memory for access.
  99:../../libs/libDaisy/src/per/qspi.h ****         \param config should be populated with the mode, device and pin_config before calling this 
 100:../../libs/libDaisy/src/per/qspi.h ****         \return Result::OK or Result::ERR
 101:../../libs/libDaisy/src/per/qspi.h ****         */
 102:../../libs/libDaisy/src/per/qspi.h ****     Result Init(const Config& config);
 103:../../libs/libDaisy/src/per/qspi.h **** 
 104:../../libs/libDaisy/src/per/qspi.h ****     /** Returns the current config. */
 105:../../libs/libDaisy/src/per/qspi.h ****     const Config& GetConfig() const;
ARM GAS  C:\Users\skipi\AppData\Local\Temp\cc3AYCkc.s 			page 91


 106:../../libs/libDaisy/src/per/qspi.h **** 
 107:../../libs/libDaisy/src/per/qspi.h ****     // Couldn't this just be called before anything else in init? That
 108:../../libs/libDaisy/src/per/qspi.h ****     // would make manually calling it unnecessary.
 109:../../libs/libDaisy/src/per/qspi.h ****     /**
 110:../../libs/libDaisy/src/per/qspi.h ****         Deinitializes the peripheral
 111:../../libs/libDaisy/src/per/qspi.h ****         This should be called before reinitializing QSPI in a different mode.
 112:../../libs/libDaisy/src/per/qspi.h ****         \return Result::OK or Result::ERR
 113:../../libs/libDaisy/src/per/qspi.h ****         */
 114:../../libs/libDaisy/src/per/qspi.h ****     Result DeInit();
 115:../../libs/libDaisy/src/per/qspi.h **** 
 116:../../libs/libDaisy/src/per/qspi.h ****     /**
 117:../../libs/libDaisy/src/per/qspi.h ****         Writes a single page to to the specified address on the QSPI chip.
 118:../../libs/libDaisy/src/per/qspi.h ****         For IS25LP*, page size is 256 bytes.
 119:../../libs/libDaisy/src/per/qspi.h ****         \param address Address to write to
 120:../../libs/libDaisy/src/per/qspi.h ****         \param size Buffer size
 121:../../libs/libDaisy/src/per/qspi.h ****         \param buffer Buffer to write
 122:../../libs/libDaisy/src/per/qspi.h ****         \return Result::OK or Result::ERR
 123:../../libs/libDaisy/src/per/qspi.h ****         */
 124:../../libs/libDaisy/src/per/qspi.h ****     Result WritePage(uint32_t address, uint32_t size, uint8_t* buffer);
 125:../../libs/libDaisy/src/per/qspi.h **** 
 126:../../libs/libDaisy/src/per/qspi.h ****     /**
 127:../../libs/libDaisy/src/per/qspi.h ****         Writes data in buffer to to the QSPI. Starting at address to address+size
 128:../../libs/libDaisy/src/per/qspi.h ****         \param address Address to write to
 129:../../libs/libDaisy/src/per/qspi.h ****         \param size Buffer size
 130:../../libs/libDaisy/src/per/qspi.h ****         \param buffer Buffer to write
 131:../../libs/libDaisy/src/per/qspi.h ****         \return Result::OK or Result::ERR
 132:../../libs/libDaisy/src/per/qspi.h ****         */
 133:../../libs/libDaisy/src/per/qspi.h ****     Result Write(uint32_t address, uint32_t size, uint8_t* buffer);
 134:../../libs/libDaisy/src/per/qspi.h **** 
 135:../../libs/libDaisy/src/per/qspi.h ****     /**
 136:../../libs/libDaisy/src/per/qspi.h ****         Erases the area specified on the chip.
 137:../../libs/libDaisy/src/per/qspi.h ****         Erasures will happen by 4K, 32K or 64K increments.
 138:../../libs/libDaisy/src/per/qspi.h ****         Smallest erase possible is 4kB at a time. (on IS25LP*)
 139:../../libs/libDaisy/src/per/qspi.h ****         \param start_addr Address to begin erasing from
 140:../../libs/libDaisy/src/per/qspi.h ****         \param end_addr  Address to stop erasing at
 141:../../libs/libDaisy/src/per/qspi.h ****         \return Result::OK or Result::ERR
 142:../../libs/libDaisy/src/per/qspi.h ****         */
 143:../../libs/libDaisy/src/per/qspi.h ****     Result Erase(uint32_t start_addr, uint32_t end_addr);
 144:../../libs/libDaisy/src/per/qspi.h **** 
 145:../../libs/libDaisy/src/per/qspi.h ****     /**
 146:../../libs/libDaisy/src/per/qspi.h ****          Erases a single sector of the chip.
 147:../../libs/libDaisy/src/per/qspi.h ****         TODO: Document the size of this function.
 148:../../libs/libDaisy/src/per/qspi.h ****         \param address Address of sector to erase
 149:../../libs/libDaisy/src/per/qspi.h ****         \return Result::OK or Result::ERR
 150:../../libs/libDaisy/src/per/qspi.h ****         */
 151:../../libs/libDaisy/src/per/qspi.h ****     Result EraseSector(uint32_t address);
 152:../../libs/libDaisy/src/per/qspi.h **** 
 153:../../libs/libDaisy/src/per/qspi.h ****     /** Returns the current class status. Useful for debugging.
 154:../../libs/libDaisy/src/per/qspi.h ****      *  \returns Status
 155:../../libs/libDaisy/src/per/qspi.h ****      */
 156:../../libs/libDaisy/src/per/qspi.h ****     Status GetStatus();
 157:../../libs/libDaisy/src/per/qspi.h **** 
 158:../../libs/libDaisy/src/per/qspi.h ****     /** Returns a pointer to the actual memory used
 159:../../libs/libDaisy/src/per/qspi.h ****      *  The memory at this address is read-only
 160:../../libs/libDaisy/src/per/qspi.h ****      *  to write to it use the Write function.
 161:../../libs/libDaisy/src/per/qspi.h ****      *
 162:../../libs/libDaisy/src/per/qspi.h ****      *  \param offset returns the pointer starting this
ARM GAS  C:\Users\skipi\AppData\Local\Temp\cc3AYCkc.s 			page 92


 163:../../libs/libDaisy/src/per/qspi.h ****      *                many bytes into the memory
 164:../../libs/libDaisy/src/per/qspi.h ****     */
 165:../../libs/libDaisy/src/per/qspi.h ****     void* GetData(uint32_t offset = 0);
 166:../../libs/libDaisy/src/per/qspi.h **** 
 167:../../libs/libDaisy/src/per/qspi.h ****     QSPIHandle() : pimpl_(nullptr) {}
 2984              		.loc 14 167 5 view .LVU727
 2985              		.loc 14 167 5 is_stmt 0 view .LVU728
 2986              	.LBE1125:
 2987              	.LBB1128:
 2988              	.LBI1128:
  58:../../libs/libDaisy/src/per/qspi.h ****     {
 2989              		.loc 14 58 12 is_stmt 1 view .LVU729
 2990              	.LBB1129:
 2991              	.LBI1129:
  84:../../libs/libDaisy/src/per/qspi.h ****             Pin io0; /**< & */
 2992              		.loc 14 84 9 view .LVU730
 2993              	.LBB1130:
 2994              	.LBI1130:
 2995              		.loc 12 204 15 view .LVU731
 2996              		.loc 12 204 15 is_stmt 0 view .LVU732
 2997              	.LBE1130:
 2998              	.LBB1131:
 2999              	.LBI1131:
 3000              		.loc 12 204 15 is_stmt 1 view .LVU733
 3001              		.loc 12 204 15 is_stmt 0 view .LVU734
 3002              	.LBE1131:
 3003              	.LBB1132:
 3004              	.LBI1132:
 3005              		.loc 12 204 15 is_stmt 1 view .LVU735
 3006              		.loc 12 204 15 is_stmt 0 view .LVU736
 3007              	.LBE1132:
 3008              	.LBB1133:
 3009              	.LBI1133:
 3010              		.loc 12 204 15 is_stmt 1 view .LVU737
 3011              		.loc 12 204 15 is_stmt 0 view .LVU738
 3012              	.LBE1133:
 3013              	.LBB1134:
 3014              	.LBI1134:
 3015              		.loc 12 204 15 is_stmt 1 view .LVU739
 3016              		.loc 12 204 15 is_stmt 0 view .LVU740
 3017              	.LBE1134:
 3018              	.LBB1135:
 3019              	.LBI1135:
 3020              		.loc 12 204 15 is_stmt 1 view .LVU741
 3021              		.loc 12 204 15 is_stmt 0 view .LVU742
 3022              	.LBE1135:
 3023              	.LBE1129:
 3024              	.LBE1128:
 3025              	.LBB1136:
 3026              	.LBI1136:
  87:../../libs/libDaisy/src/hid/audio.h ****     ~AudioHandle() {}
 3027              		.loc 6 87 5 is_stmt 1 view .LVU743
  87:../../libs/libDaisy/src/hid/audio.h ****     ~AudioHandle() {}
 3028              		.loc 6 87 5 is_stmt 0 view .LVU744
 3029              	.LBE1136:
 3030              	.LBB1139:
 3031              	.LBI1139:
ARM GAS  C:\Users\skipi\AppData\Local\Temp\cc3AYCkc.s 			page 93


 109:../../libs/libDaisy/src/per/adc.h ****     ~AdcHandle() {}
 3032              		.loc 5 109 5 is_stmt 1 view .LVU745
 109:../../libs/libDaisy/src/per/adc.h ****     ~AdcHandle() {}
 3033              		.loc 5 109 5 is_stmt 0 view .LVU746
 3034              	.LBE1139:
 3035              	.LBB1140:
 3036              	.LBI1140:
 3037              		.file 15 "../../libs/libDaisy/src/per/dac.h"
   1:../../libs/libDaisy/src/per/dac.h **** #pragma once
   2:../../libs/libDaisy/src/per/dac.h **** #ifndef DSY_DAC_H
   3:../../libs/libDaisy/src/per/dac.h **** #define DSY_DAC_H
   4:../../libs/libDaisy/src/per/dac.h **** #include "stm32h7xx_hal.h"
   5:../../libs/libDaisy/src/per/dac.h **** #include "daisy_core.h"
   6:../../libs/libDaisy/src/per/dac.h **** 
   7:../../libs/libDaisy/src/per/dac.h **** namespace daisy
   8:../../libs/libDaisy/src/per/dac.h **** {
   9:../../libs/libDaisy/src/per/dac.h **** /** @brief DAC handle for Built-in DAC Peripheral 
  10:../../libs/libDaisy/src/per/dac.h ****  *  @ingroup per_analog
  11:../../libs/libDaisy/src/per/dac.h ****  ** 
  12:../../libs/libDaisy/src/per/dac.h ****  ** For now only Normal Mode is supported,
  13:../../libs/libDaisy/src/per/dac.h ****  ** Sample and hold mode provides reduced power consumption, but requires a bit more setup.
  14:../../libs/libDaisy/src/per/dac.h ****  **
  15:../../libs/libDaisy/src/per/dac.h ****  ** For now connecting the DAC through other internal peripherals is also not supported.
  16:../../libs/libDaisy/src/per/dac.h ****  **
  17:../../libs/libDaisy/src/per/dac.h ****  ** Since the DAC channels have dedicated pins we don't need to pass in a pin config like with
  18:../../libs/libDaisy/src/per/dac.h ****  ** other modules. However, it is still important to not try to use the DAC pins for anything else.
  19:../../libs/libDaisy/src/per/dac.h ****  ** DAC Channel 1 is on PA4, and DAC Channel 2 is on PA5
  20:../../libs/libDaisy/src/per/dac.h ****  ***/
  21:../../libs/libDaisy/src/per/dac.h **** class DacHandle
  22:../../libs/libDaisy/src/per/dac.h **** {
  23:../../libs/libDaisy/src/per/dac.h ****   public:
  24:../../libs/libDaisy/src/per/dac.h ****     /** Return Values for the DacHandle class */
  25:../../libs/libDaisy/src/per/dac.h ****     enum class Result
  26:../../libs/libDaisy/src/per/dac.h ****     {
  27:../../libs/libDaisy/src/per/dac.h ****         OK,
  28:../../libs/libDaisy/src/per/dac.h ****         ERR,
  29:../../libs/libDaisy/src/per/dac.h ****     };
  30:../../libs/libDaisy/src/per/dac.h **** 
  31:../../libs/libDaisy/src/per/dac.h ****     /** Selects which channel(s) will be configured for use. */
  32:../../libs/libDaisy/src/per/dac.h ****     enum class Channel
  33:../../libs/libDaisy/src/per/dac.h ****     {
  34:../../libs/libDaisy/src/per/dac.h ****         ONE,
  35:../../libs/libDaisy/src/per/dac.h ****         TWO,
  36:../../libs/libDaisy/src/per/dac.h ****         BOTH,
  37:../../libs/libDaisy/src/per/dac.h ****     };
  38:../../libs/libDaisy/src/per/dac.h **** 
  39:../../libs/libDaisy/src/per/dac.h ****     /** Sets the Mode for the DAC channels.
  40:../../libs/libDaisy/src/per/dac.h ****      **
  41:../../libs/libDaisy/src/per/dac.h ****      ** Polling mode uses the blocking mode to transmit a single value at a time.
  42:../../libs/libDaisy/src/per/dac.h ****      **
  43:../../libs/libDaisy/src/per/dac.h ****      ** DMA mode uses a buffer, and periodically transmits it triggering a 
  44:../../libs/libDaisy/src/per/dac.h ****      ** callback to fill the buffer when it is ready for more samples.
  45:../../libs/libDaisy/src/per/dac.h ****      ***/
  46:../../libs/libDaisy/src/per/dac.h ****     enum class Mode
  47:../../libs/libDaisy/src/per/dac.h ****     {
  48:../../libs/libDaisy/src/per/dac.h ****         POLLING,
  49:../../libs/libDaisy/src/per/dac.h ****         DMA,
ARM GAS  C:\Users\skipi\AppData\Local\Temp\cc3AYCkc.s 			page 94


  50:../../libs/libDaisy/src/per/dac.h ****     };
  51:../../libs/libDaisy/src/per/dac.h **** 
  52:../../libs/libDaisy/src/per/dac.h ****     /** Sets the number of bits per sample transmitted out of the DAC.
  53:../../libs/libDaisy/src/per/dac.h ****      ** The output range will be: 0V - VDDA
  54:../../libs/libDaisy/src/per/dac.h ****      ** The resolution will be roughly: bitdepth / (VDDA - 0V) 
  55:../../libs/libDaisy/src/per/dac.h ****      ***/
  56:../../libs/libDaisy/src/per/dac.h ****     enum class BitDepth
  57:../../libs/libDaisy/src/per/dac.h ****     {
  58:../../libs/libDaisy/src/per/dac.h ****         BITS_8,
  59:../../libs/libDaisy/src/per/dac.h ****         BITS_12
  60:../../libs/libDaisy/src/per/dac.h ****     };
  61:../../libs/libDaisy/src/per/dac.h **** 
  62:../../libs/libDaisy/src/per/dac.h ****     /** Sets whether the DAC output is buffered for higher drive ability. */
  63:../../libs/libDaisy/src/per/dac.h ****     enum class BufferState
  64:../../libs/libDaisy/src/per/dac.h ****     {
  65:../../libs/libDaisy/src/per/dac.h ****         ENABLED,
  66:../../libs/libDaisy/src/per/dac.h ****         DISABLED,
  67:../../libs/libDaisy/src/per/dac.h ****     };
  68:../../libs/libDaisy/src/per/dac.h **** 
  69:../../libs/libDaisy/src/per/dac.h ****     /** Configuration structure for initializing the DAC structure. */
  70:../../libs/libDaisy/src/per/dac.h ****     struct Config
  71:../../libs/libDaisy/src/per/dac.h ****     {
  72:../../libs/libDaisy/src/per/dac.h ****         /** Target Samplerate in Hz used to configure the internal 
  73:../../libs/libDaisy/src/per/dac.h ****          ** timebase for DMA mode. Does nothing in POLLING mode.
  74:../../libs/libDaisy/src/per/dac.h ****          ** If the value is 0 at Init time this will default to 48000Hz 
  75:../../libs/libDaisy/src/per/dac.h ****          ** otherwise the driver will attempt meet the target.*/
  76:../../libs/libDaisy/src/per/dac.h ****         uint32_t target_samplerate;
  77:../../libs/libDaisy/src/per/dac.h **** 
  78:../../libs/libDaisy/src/per/dac.h ****         Channel     chn;
  79:../../libs/libDaisy/src/per/dac.h ****         Mode        mode;
  80:../../libs/libDaisy/src/per/dac.h ****         BitDepth    bitdepth;
  81:../../libs/libDaisy/src/per/dac.h ****         BufferState buff_state;
  82:../../libs/libDaisy/src/per/dac.h ****     };
  83:../../libs/libDaisy/src/per/dac.h **** 
  84:../../libs/libDaisy/src/per/dac.h ****     DacHandle() : pimpl_(nullptr) {}
 3038              		.loc 15 84 5 is_stmt 1 view .LVU747
 3039              		.loc 15 84 5 is_stmt 0 view .LVU748
 3040              	.LBE1140:
 3041              	.LBB1143:
 3042              	.LBI1143:
  40:../../libs/libDaisy/src/hid/usb.h **** 
 3043              		.loc 4 40 5 is_stmt 1 view .LVU749
  40:../../libs/libDaisy/src/hid/usb.h **** 
 3044              		.loc 4 40 5 is_stmt 0 view .LVU750
 3045              	.LBE1143:
 3046              	.LBB1144:
 3047              	.LBI1144:
 3048              		.file 16 "../../libs/libDaisy/src/per/gpio.h"
   1:../../libs/libDaisy/src/per/gpio.h **** #pragma once
   2:../../libs/libDaisy/src/per/gpio.h **** #ifndef DSY_GPIO_H
   3:../../libs/libDaisy/src/per/gpio.h **** #define DSY_GPIO_H
   4:../../libs/libDaisy/src/per/gpio.h **** #include "daisy_core.h"
   5:../../libs/libDaisy/src/per/gpio.h **** 
   6:../../libs/libDaisy/src/per/gpio.h **** #ifdef __cplusplus
   7:../../libs/libDaisy/src/per/gpio.h **** 
   8:../../libs/libDaisy/src/per/gpio.h **** namespace daisy
   9:../../libs/libDaisy/src/per/gpio.h **** {
ARM GAS  C:\Users\skipi\AppData\Local\Temp\cc3AYCkc.s 			page 95


  10:../../libs/libDaisy/src/per/gpio.h **** /** @brief General Purpose I/O control 
  11:../../libs/libDaisy/src/per/gpio.h ****  *  @details peripheral control over a single GPIO
  12:../../libs/libDaisy/src/per/gpio.h ****  *  @ingroup peripheral
  13:../../libs/libDaisy/src/per/gpio.h ****  *   
  14:../../libs/libDaisy/src/per/gpio.h ****  *  Button Input (with internal Pullup resistor)
  15:../../libs/libDaisy/src/per/gpio.h ****  *  @include GPIO_Input.cpp 
  16:../../libs/libDaisy/src/per/gpio.h ****  * 
  17:../../libs/libDaisy/src/per/gpio.h ****  *  Output Example (perfect for blinking an LED)
  18:../../libs/libDaisy/src/per/gpio.h ****  *  @include GPIO_Output.cpp
  19:../../libs/libDaisy/src/per/gpio.h ****  * 
  20:../../libs/libDaisy/src/per/gpio.h **** */
  21:../../libs/libDaisy/src/per/gpio.h **** class GPIO
  22:../../libs/libDaisy/src/per/gpio.h **** {
  23:../../libs/libDaisy/src/per/gpio.h ****   public:
  24:../../libs/libDaisy/src/per/gpio.h ****     /** @brief Mode of operation for the specified GPIO */
  25:../../libs/libDaisy/src/per/gpio.h ****     enum class Mode
  26:../../libs/libDaisy/src/per/gpio.h ****     {
  27:../../libs/libDaisy/src/per/gpio.h ****         INPUT,      /**< Input for reading state of pin */
  28:../../libs/libDaisy/src/per/gpio.h ****         OUTPUT,     /**< Output w/ push-pull configuration */
  29:../../libs/libDaisy/src/per/gpio.h ****         OPEN_DRAIN, /**< Output w/ open-drain configuration */
  30:../../libs/libDaisy/src/per/gpio.h ****         ANALOG,     /**< Analog for connection to ADC or DAC peripheral */
  31:../../libs/libDaisy/src/per/gpio.h ****     };
  32:../../libs/libDaisy/src/per/gpio.h **** 
  33:../../libs/libDaisy/src/per/gpio.h ****     /** @brief Configures whether an internal Pull up or Pull down resistor is used. 
  34:../../libs/libDaisy/src/per/gpio.h ****      *  
  35:../../libs/libDaisy/src/per/gpio.h ****      * Internal Pull up/down resistors are typically 40k ohms, and will be between
  36:../../libs/libDaisy/src/per/gpio.h ****      * 30k and 50k
  37:../../libs/libDaisy/src/per/gpio.h ****      * 
  38:../../libs/libDaisy/src/per/gpio.h ****      * When the Pin is configured in Analog mode, the pull up/down resistors are
  39:../../libs/libDaisy/src/per/gpio.h ****      * disabled by hardware. 
  40:../../libs/libDaisy/src/per/gpio.h ****      */
  41:../../libs/libDaisy/src/per/gpio.h ****     enum class Pull
  42:../../libs/libDaisy/src/per/gpio.h ****     {
  43:../../libs/libDaisy/src/per/gpio.h ****         NOPULL,   /**< No pull up resistor */
  44:../../libs/libDaisy/src/per/gpio.h ****         PULLUP,   /**< Internal pull up enabled */
  45:../../libs/libDaisy/src/per/gpio.h ****         PULLDOWN, /**< Internal pull down enabled*/
  46:../../libs/libDaisy/src/per/gpio.h ****     };
  47:../../libs/libDaisy/src/per/gpio.h **** 
  48:../../libs/libDaisy/src/per/gpio.h ****     /** @brief Output speed controls the drive strength, and slew rate of the pin */
  49:../../libs/libDaisy/src/per/gpio.h ****     enum class Speed
  50:../../libs/libDaisy/src/per/gpio.h ****     {
  51:../../libs/libDaisy/src/per/gpio.h ****         LOW,
  52:../../libs/libDaisy/src/per/gpio.h ****         MEDIUM,
  53:../../libs/libDaisy/src/per/gpio.h ****         HIGH,
  54:../../libs/libDaisy/src/per/gpio.h ****         VERY_HIGH,
  55:../../libs/libDaisy/src/per/gpio.h ****     };
  56:../../libs/libDaisy/src/per/gpio.h **** 
  57:../../libs/libDaisy/src/per/gpio.h ****     /** @brief Configuration for a given GPIO */
  58:../../libs/libDaisy/src/per/gpio.h ****     struct Config
  59:../../libs/libDaisy/src/per/gpio.h ****     {
  60:../../libs/libDaisy/src/per/gpio.h ****         Pin   pin;
  61:../../libs/libDaisy/src/per/gpio.h ****         Mode  mode;
  62:../../libs/libDaisy/src/per/gpio.h ****         Pull  pull;
  63:../../libs/libDaisy/src/per/gpio.h ****         Speed speed;
  64:../../libs/libDaisy/src/per/gpio.h **** 
  65:../../libs/libDaisy/src/per/gpio.h ****         /** Constructor with no arguments will prepare an invalid GPIO set as
  66:../../libs/libDaisy/src/per/gpio.h ****          *  an input, with no pullup. 
ARM GAS  C:\Users\skipi\AppData\Local\Temp\cc3AYCkc.s 			page 96


  67:../../libs/libDaisy/src/per/gpio.h ****          */
  68:../../libs/libDaisy/src/per/gpio.h ****         Config()
  69:../../libs/libDaisy/src/per/gpio.h ****         : pin(), mode(Mode::INPUT), pull(Pull::NOPULL), speed(Speed::LOW)
  70:../../libs/libDaisy/src/per/gpio.h ****         {
  71:../../libs/libDaisy/src/per/gpio.h ****         }
  72:../../libs/libDaisy/src/per/gpio.h ****     };
  73:../../libs/libDaisy/src/per/gpio.h **** 
  74:../../libs/libDaisy/src/per/gpio.h ****     GPIO() {}
 3049              		.loc 16 74 5 is_stmt 1 view .LVU751
 3050              	.LBB1145:
 3051              	.LBB1146:
 3052              	.LBI1146:
  68:../../libs/libDaisy/src/per/gpio.h ****         : pin(), mode(Mode::INPUT), pull(Pull::NOPULL), speed(Speed::LOW)
 3053              		.loc 16 68 9 view .LVU752
 3054              	.LBB1147:
 3055              	.LBB1148:
 3056              	.LBB1149:
 3057              	.LBI1149:
 3058              		.loc 12 204 15 view .LVU753
 3059              		.loc 12 204 15 is_stmt 0 view .LVU754
 3060              	.LBE1149:
 3061              	.LBE1148:
 3062              	.LBE1147:
 3063              	.LBE1146:
 3064              	.LBE1145:
 3065              	.LBE1144:
 3066              	.LBB1158:
 3067              	.LBI1158:
 3068              		.loc 16 74 5 is_stmt 1 view .LVU755
 3069              	.LBB1159:
 3070              	.LBB1160:
 3071              	.LBI1160:
  68:../../libs/libDaisy/src/per/gpio.h ****         : pin(), mode(Mode::INPUT), pull(Pull::NOPULL), speed(Speed::LOW)
 3072              		.loc 16 68 9 view .LVU756
 3073              	.LBB1161:
 3074              	.LBB1162:
 3075              	.LBB1163:
 3076              	.LBI1163:
 3077              		.loc 12 204 15 view .LVU757
 3078              		.loc 12 204 15 is_stmt 0 view .LVU758
 3079              	.LBE1163:
 3080              	.LBE1162:
 3081              	.LBE1161:
 3082              	.LBE1160:
 3083              	.LBE1159:
 3084              	.LBE1158:
 3085              	.LBB1168:
 3086              	.LBI1168:
  96:../../libs/libDaisy/src/sys/system.h ****     ~System() {}
 3087              		.loc 3 96 5 is_stmt 1 view .LVU759
  96:../../libs/libDaisy/src/sys/system.h ****     ~System() {}
 3088              		.loc 3 96 5 is_stmt 0 view .LVU760
 3089              	.LBE1168:
 3090              	.LBB1169:
 3091              	.LBI1169:
  20:../../libs/libDaisy/src/dev/codec_ak4556.h ****     ~Ak4556() {}
 3092              		.loc 2 20 5 is_stmt 1 view .LVU761
ARM GAS  C:\Users\skipi\AppData\Local\Temp\cc3AYCkc.s 			page 97


 3093              	.LBB1170:
 3094              	.LBI1170:
 3095              		.loc 16 74 5 view .LVU762
 3096              	.LBB1171:
 3097              	.LBB1172:
 3098              	.LBI1172:
  68:../../libs/libDaisy/src/per/gpio.h ****         : pin(), mode(Mode::INPUT), pull(Pull::NOPULL), speed(Speed::LOW)
 3099              		.loc 16 68 9 view .LVU763
 3100              	.LBB1173:
 3101              	.LBB1174:
 3102              	.LBB1175:
 3103              	.LBI1175:
 3104              		.loc 12 204 15 view .LVU764
 3105              		.loc 12 204 15 is_stmt 0 view .LVU765
 3106              	.LBE1175:
 3107              	.LBE1174:
 3108              	.LBE1173:
 3109              	.LBE1172:
 3110              	.LBE1171:
 3111              	.LBE1170:
 3112              	.LBE1169:
 3113              	.LBB1186:
 3114              	.LBI1186:
 3115              		.file 17 "../../libs/libDaisy/src/per/sai.h"
   1:../../libs/libDaisy/src/per/sai.h **** #pragma once
   2:../../libs/libDaisy/src/per/sai.h **** #ifndef DSY_SAI_H
   3:../../libs/libDaisy/src/per/sai.h **** #define DSY_SAI_H
   4:../../libs/libDaisy/src/per/sai.h **** 
   5:../../libs/libDaisy/src/per/sai.h **** #include "util/hal_map.h"
   6:../../libs/libDaisy/src/per/sai.h **** #include "daisy_core.h"
   7:../../libs/libDaisy/src/per/sai.h **** 
   8:../../libs/libDaisy/src/per/sai.h **** namespace daisy
   9:../../libs/libDaisy/src/per/sai.h **** {
  10:../../libs/libDaisy/src/per/sai.h **** /** 
  11:../../libs/libDaisy/src/per/sai.h ****  * Support for I2S Audio Protocol with different bit-depth, samplerate options
  12:../../libs/libDaisy/src/per/sai.h ****  * Allows for master or slave, as well as freedom of selecting direction, 
  13:../../libs/libDaisy/src/per/sai.h ****  * and other behavior for each peripheral, and block.
  14:../../libs/libDaisy/src/per/sai.h ****  * 
  15:../../libs/libDaisy/src/per/sai.h ****  * DMA Transfer commands must use buffers located within non-cached memory or use cache maintenance
  16:../../libs/libDaisy/src/per/sai.h ****  * To declare an unitialized global element in the DMA memory section:
  17:../../libs/libDaisy/src/per/sai.h ****  *    int32_t DSY_DMA_BUFFER_SECTOR my_buffer[96];
  18:../../libs/libDaisy/src/per/sai.h ****  *
  19:../../libs/libDaisy/src/per/sai.h ****  * Callback functions will be called once per half of the buffer. In the above example, 
  20:../../libs/libDaisy/src/per/sai.h ****  * the callback function would be called once for every 48 samples.
  21:../../libs/libDaisy/src/per/sai.h ****  * 
  22:../../libs/libDaisy/src/per/sai.h ****  * Use SAI Handle like this:
  23:../../libs/libDaisy/src/per/sai.h ****  * 
  24:../../libs/libDaisy/src/per/sai.h ****  *  SaiHandle::Config sai_config;
  25:../../libs/libDaisy/src/per/sai.h ****  *  sai_config.periph          = SaiHandle::Config::Peripheral::SAI_1;
  26:../../libs/libDaisy/src/per/sai.h ****  *  sai_config.sr              = SaiHandle::Config::SampleRate::SAI_48KHZ;
  27:../../libs/libDaisy/src/per/sai.h ****  *  sai_config.bit_depth       = SaiHandle::Config::BitDepth::SAI_24BIT;
  28:../../libs/libDaisy/src/per/sai.h ****  *  sai_config.a_sync          = SaiHandle::Config::Sync::MASTER;
  29:../../libs/libDaisy/src/per/sai.h ****  *  sai_config.b_sync          = SaiHandle::Config::Sync::SLAVE;
  30:../../libs/libDaisy/src/per/sai.h ****  *  sai_config.a_dir           = SaiHandle::Config::Direction::RECEIVE;
  31:../../libs/libDaisy/src/per/sai.h ****  *  sai_config.b_dir           = SaiHandle::Config::Direction::TRANSMIT;
  32:../../libs/libDaisy/src/per/sai.h ****  *  sai_config.pin_config.fs   = {DSY_GPIOE, 4};
  33:../../libs/libDaisy/src/per/sai.h ****  *  sai_config.pin_config.mclk = {DSY_GPIOE, 2};
ARM GAS  C:\Users\skipi\AppData\Local\Temp\cc3AYCkc.s 			page 98


  34:../../libs/libDaisy/src/per/sai.h ****  *  sai_config.pin_config.sck  = {DSY_GPIOE, 5};
  35:../../libs/libDaisy/src/per/sai.h ****  *  sai_config.pin_config.sa   = {DSY_GPIOE, 6};
  36:../../libs/libDaisy/src/per/sai.h ****  *  sai_config.pin_config.sb   = {DSY_GPIOE, 3};
  37:../../libs/libDaisy/src/per/sai.h ****  *  // Then Initialize
  38:../../libs/libDaisy/src/per/sai.h ****  *  SaiHandle sai;
  39:../../libs/libDaisy/src/per/sai.h ****  *  sai.Init(sai_config);
  40:../../libs/libDaisy/src/per/sai.h ****  *  // Now you can use it:
  41:../../libs/libDaisy/src/per/sai.h ****  *  sai.StartDma(. . .);
  42:../../libs/libDaisy/src/per/sai.h ****  */
  43:../../libs/libDaisy/src/per/sai.h **** class SaiHandle
  44:../../libs/libDaisy/src/per/sai.h **** {
  45:../../libs/libDaisy/src/per/sai.h ****   public:
  46:../../libs/libDaisy/src/per/sai.h ****     /** Contains settings for initialising an SAI Interface */
  47:../../libs/libDaisy/src/per/sai.h ****     struct Config
  48:../../libs/libDaisy/src/per/sai.h ****     {
  49:../../libs/libDaisy/src/per/sai.h ****         /** Specifies the internal peripheral to use (mapped to different hardware pins) */
  50:../../libs/libDaisy/src/per/sai.h ****         enum class Peripheral
  51:../../libs/libDaisy/src/per/sai.h ****         {
  52:../../libs/libDaisy/src/per/sai.h ****             SAI_1,
  53:../../libs/libDaisy/src/per/sai.h ****             SAI_2,
  54:../../libs/libDaisy/src/per/sai.h ****         };
  55:../../libs/libDaisy/src/per/sai.h **** 
  56:../../libs/libDaisy/src/per/sai.h ****         /** Rate at which samples will be streaming to/from the device. */
  57:../../libs/libDaisy/src/per/sai.h ****         enum class SampleRate
  58:../../libs/libDaisy/src/per/sai.h ****         {
  59:../../libs/libDaisy/src/per/sai.h ****             SAI_8KHZ,
  60:../../libs/libDaisy/src/per/sai.h ****             SAI_16KHZ,
  61:../../libs/libDaisy/src/per/sai.h ****             SAI_32KHZ,
  62:../../libs/libDaisy/src/per/sai.h ****             SAI_48KHZ,
  63:../../libs/libDaisy/src/per/sai.h ****             SAI_96KHZ,
  64:../../libs/libDaisy/src/per/sai.h ****         };
  65:../../libs/libDaisy/src/per/sai.h **** 
  66:../../libs/libDaisy/src/per/sai.h ****         /** Bit Depth that the hardware expects to be transferred to/from the device. */
  67:../../libs/libDaisy/src/per/sai.h ****         enum class BitDepth
  68:../../libs/libDaisy/src/per/sai.h ****         {
  69:../../libs/libDaisy/src/per/sai.h ****             SAI_16BIT,
  70:../../libs/libDaisy/src/per/sai.h ****             SAI_24BIT,
  71:../../libs/libDaisy/src/per/sai.h ****             SAI_32BIT,
  72:../../libs/libDaisy/src/per/sai.h ****         };
  73:../../libs/libDaisy/src/per/sai.h **** 
  74:../../libs/libDaisy/src/per/sai.h ****         /** Specifies whether a particular block is the master or the slave 
  75:../../libs/libDaisy/src/per/sai.h ****          ** If both are set to slave, no MCLK signal will be used, and it is
  76:../../libs/libDaisy/src/per/sai.h ****          ** expected that the codec will have its own xtal.
  77:../../libs/libDaisy/src/per/sai.h ****          */
  78:../../libs/libDaisy/src/per/sai.h ****         enum class Sync
  79:../../libs/libDaisy/src/per/sai.h ****         {
  80:../../libs/libDaisy/src/per/sai.h ****             MASTER,
  81:../../libs/libDaisy/src/per/sai.h ****             SLAVE,
  82:../../libs/libDaisy/src/per/sai.h ****         };
  83:../../libs/libDaisy/src/per/sai.h **** 
  84:../../libs/libDaisy/src/per/sai.h ****         /** Specifies the direction for each peripheral block. */
  85:../../libs/libDaisy/src/per/sai.h ****         enum class Direction
  86:../../libs/libDaisy/src/per/sai.h ****         {
  87:../../libs/libDaisy/src/per/sai.h ****             TRANSMIT,
  88:../../libs/libDaisy/src/per/sai.h ****             RECEIVE,
  89:../../libs/libDaisy/src/per/sai.h ****         };
  90:../../libs/libDaisy/src/per/sai.h **** 
ARM GAS  C:\Users\skipi\AppData\Local\Temp\cc3AYCkc.s 			page 99


  91:../../libs/libDaisy/src/per/sai.h ****         Peripheral periph;
  92:../../libs/libDaisy/src/per/sai.h ****         struct
  93:../../libs/libDaisy/src/per/sai.h ****         {
  94:../../libs/libDaisy/src/per/sai.h ****             Pin mclk, fs, sck, sa, sb;
  95:../../libs/libDaisy/src/per/sai.h ****         } pin_config;
  96:../../libs/libDaisy/src/per/sai.h ****         SampleRate sr;
  97:../../libs/libDaisy/src/per/sai.h ****         BitDepth   bit_depth;
  98:../../libs/libDaisy/src/per/sai.h ****         Sync       a_sync, b_sync;
  99:../../libs/libDaisy/src/per/sai.h ****         Direction  a_dir, b_dir;
 100:../../libs/libDaisy/src/per/sai.h ****     };
 101:../../libs/libDaisy/src/per/sai.h **** 
 102:../../libs/libDaisy/src/per/sai.h ****     /** Return values for SAI functions */
 103:../../libs/libDaisy/src/per/sai.h ****     enum class Result
 104:../../libs/libDaisy/src/per/sai.h ****     {
 105:../../libs/libDaisy/src/per/sai.h ****         OK,
 106:../../libs/libDaisy/src/per/sai.h ****         ERR,
 107:../../libs/libDaisy/src/per/sai.h ****     };
 108:../../libs/libDaisy/src/per/sai.h **** 
 109:../../libs/libDaisy/src/per/sai.h ****     SaiHandle() : pimpl_(nullptr) {}
 3116              		.loc 17 109 5 is_stmt 1 view .LVU766
 3117              	.LBE1186:
 3118              	.LBB1189:
 3119              	.LBB1126:
 3120              	.LBB1127:
 3121              		.loc 14 167 34 is_stmt 0 view .LVU767
 3122 0038 3748     		ldr	r0, .L72+20
 3123              	.LBE1127:
 3124              	.LBE1126:
 3125              	.LBE1189:
  21:../../libs/libDaisy/src/daisy_seed.h ****     ~DaisySeed() {}
 3126              		.loc 1 21 17 view .LVU768
 3127 003a 4FF60B73 		movw	r3, #65291
 3128 003e 6FF0F411 		mvn	r1, #15991028
 3129              	.LBE1124:
 3130              	.LBE1123:
  21:main.cpp      **** AdcChannelConfig adcConfig[ADC_CH];
 3131              		.loc 10 21 11 view .LVU769
 3132 0042 334A     		ldr	r2, .L72+12
 3133              	.LBB1200:
 3134              	.LBB1198:
 3135              	.LBB1190:
 3136              	.LBB1137:
 3137              	.LBB1138:
  87:../../libs/libDaisy/src/hid/audio.h ****     ~AudioHandle() {}
 3138              		.loc 6 87 35 view .LVU770
 3139 0044 4461     		str	r4, [r0, #20]
 3140              	.LBE1138:
 3141              	.LBE1137:
 3142              	.LBE1190:
 3143              	.LBB1191:
 3144              	.LBB1141:
 3145              	.LBB1142:
 3146              		.loc 15 84 33 view .LVU771
 3147 0046 0462     		str	r4, [r0, #32]
 3148              	.LBE1142:
 3149              	.LBE1141:
 3150              	.LBE1191:
ARM GAS  C:\Users\skipi\AppData\Local\Temp\cc3AYCkc.s 			page 100


  21:../../libs/libDaisy/src/daisy_seed.h ****     ~DaisySeed() {}
 3151              		.loc 1 21 17 view .LVU772
 3152 0048 8365     		str	r3, [r0, #88]
 3153              	.LBB1192:
 3154              	.LBB1184:
 3155              	.LBB1182:
 3156              	.LBB1180:
 3157              	.LBB1178:
 3158              	.LBB1176:
  69:../../libs/libDaisy/src/per/gpio.h ****         {
 3159              		.loc 16 69 73 view .LVU773
 3160 004a 4466     		str	r4, [r0, #100]
 3161              	.LBE1176:
 3162              	.LBE1178:
 3163              	.LBE1180:
 3164              	.LBE1182:
 3165              	.LBE1184:
 3166              	.LBE1192:
 3167              	.LBB1193:
 3168              	.LBB1187:
 3169              	.LBB1188:
 3170              		.loc 17 109 33 view .LVU774
 3171 004c 0467     		str	r4, [r0, #112]
 3172              	.LVL176:
 3173              		.loc 17 109 33 view .LVU775
 3174              	.LBE1188:
 3175              	.LBE1187:
 3176              	.LBE1193:
  21:../../libs/libDaisy/src/daisy_seed.h ****     ~DaisySeed() {}
 3177              		.loc 1 21 17 view .LVU776
 3178 004e C0E90041 		strd	r4, r1, [r0]
 3179 0052 C0E90211 		strd	r1, r1, [r0, #8]
 3180              	.LBB1194:
 3181              	.LBB1156:
 3182              	.LBB1154:
 3183              	.LBB1152:
 3184              	.LBB1150:
  69:../../libs/libDaisy/src/per/gpio.h ****         {
 3185              		.loc 16 69 73 view .LVU777
 3186 0056 C0E90A34 		strd	r3, r4, [r0, #40]
 3187              	.LBE1150:
 3188              	.LBE1152:
 3189              	.LBE1154:
 3190              	.LBE1156:
 3191              	.LBE1194:
 3192              	.LBE1198:
 3193              	.LBE1200:
  21:main.cpp      **** AdcChannelConfig adcConfig[ADC_CH];
 3194              		.loc 10 21 11 view .LVU778
 3195 005a 3049     		ldr	r1, .L72+24
 3196              	.LBB1201:
 3197              	.LBB1199:
 3198              	.LBB1195:
 3199              	.LBB1157:
 3200              	.LBB1155:
 3201              	.LBB1153:
 3202              	.LBB1151:
ARM GAS  C:\Users\skipi\AppData\Local\Temp\cc3AYCkc.s 			page 101


  69:../../libs/libDaisy/src/per/gpio.h ****         {
 3203              		.loc 16 69 73 view .LVU779
 3204 005c C0E90C44 		strd	r4, r4, [r0, #48]
 3205              	.LBE1151:
 3206              	.LBE1153:
 3207              	.LBE1155:
 3208              	.LBE1157:
 3209              	.LBE1195:
 3210              	.LBB1196:
 3211              	.LBB1167:
 3212              	.LBB1166:
 3213              	.LBB1165:
 3214              	.LBB1164:
 3215 0060 C0E90F34 		strd	r3, r4, [r0, #60]
 3216 0064 C0E91144 		strd	r4, r4, [r0, #68]
 3217              	.LBE1164:
 3218              	.LBE1165:
 3219              	.LBE1166:
 3220              	.LBE1167:
 3221              	.LBE1196:
 3222              	.LBB1197:
 3223              	.LBB1185:
 3224              	.LBB1183:
 3225              	.LBB1181:
 3226              	.LBB1179:
 3227              	.LBB1177:
 3228 0068 C0E91744 		strd	r4, r4, [r0, #92]
 3229              	.LBE1177:
 3230              	.LBE1179:
 3231              	.LBE1181:
 3232              	.LBE1183:
 3233              	.LBE1185:
 3234              	.LBE1197:
 3235              	.LBE1199:
 3236              	.LBE1201:
  21:main.cpp      **** AdcChannelConfig adcConfig[ADC_CH];
 3237              		.loc 10 21 11 view .LVU780
 3238 006c FFF7FEFF 		bl	__aeabi_atexit
 3239              	.LVL177:
  22:main.cpp      **** 
 3240              		.loc 10 22 34 is_stmt 1 view .LVU781
 3241 0070 2B4A     		ldr	r2, .L72+28
 3242 0072 02F1A805 		add	r5, r2, #168
 3243              	.L68:
 3244              	.LVL178:
 3245              	.LBB1202:
 3246              	.LBI1202:
  31:../../libs/libDaisy/src/per/adc.h **** {
 3247              		.loc 5 31 8 view .LVU782
 3248              	.LBB1203:
 3249              	.LBB1204:
 3250              	.LBI1204:
 3251              		.loc 16 74 5 view .LVU783
 3252              	.LBB1205:
 3253              	.LBI1205:
  68:../../libs/libDaisy/src/per/gpio.h ****         : pin(), mode(Mode::INPUT), pull(Pull::NOPULL), speed(Speed::LOW)
 3254              		.loc 16 68 9 view .LVU784
ARM GAS  C:\Users\skipi\AppData\Local\Temp\cc3AYCkc.s 			page 102


 3255              	.LBB1206:
 3256              	.LBB1207:
 3257              	.LBI1207:
 3258              		.loc 12 204 15 view .LVU785
 3259              	.LBE1207:
  69:../../libs/libDaisy/src/per/gpio.h ****         {
 3260              		.loc 16 69 73 is_stmt 0 view .LVU786
 3261 0076 0021     		movs	r1, #0
 3262              	.LBB1210:
 3263              	.LBB1208:
 3264              		.loc 12 204 43 view .LVU787
 3265 0078 0B24     		movs	r4, #11
 3266 007a FF20     		movs	r0, #255
 3267 007c A2F13C03 		sub	r3, r2, #60
 3268 0080 02F8504C 		strb	r4, [r2, #-80]
 3269              	.LBE1208:
 3270              	.LBE1210:
  69:../../libs/libDaisy/src/per/gpio.h ****         {
 3271              		.loc 16 69 73 view .LVU788
 3272 0084 42F84C1C 		str	r1, [r2, #-76]
 3273              	.LBB1211:
 3274              	.LBB1209:
 3275              		.loc 12 204 43 view .LVU789
 3276 0088 02F84F0C 		strb	r0, [r2, #-79]
 3277              	.LVL179:
 3278              		.loc 12 204 43 view .LVU790
 3279              	.LBE1209:
 3280              	.LBE1211:
  69:../../libs/libDaisy/src/per/gpio.h ****         {
 3281              		.loc 16 69 73 view .LVU791
 3282 008c 42E91211 		strd	r1, r1, [r2, #-72]
 3283              	.LVL180:
  69:../../libs/libDaisy/src/per/gpio.h ****         {
 3284              		.loc 16 69 73 view .LVU792
 3285              	.LBE1206:
 3286              	.LBE1205:
 3287              	.LBE1204:
  31:../../libs/libDaisy/src/per/adc.h **** {
 3288              		.loc 5 31 8 is_stmt 1 view .LVU793
 3289              	.L67:
 3290              	.LBB1212:
 3291              	.LBI1212:
 3292              		.loc 16 74 5 view .LVU794
 3293              	.LBB1213:
 3294              	.LBI1213:
  68:../../libs/libDaisy/src/per/gpio.h ****         : pin(), mode(Mode::INPUT), pull(Pull::NOPULL), speed(Speed::LOW)
 3295              		.loc 16 68 9 view .LVU795
 3296              	.LBB1214:
 3297              	.LBB1215:
 3298              	.LBI1215:
 3299              		.loc 12 204 15 view .LVU796
 3300              	.LBE1215:
 3301              	.LBE1214:
 3302              	.LBE1213:
 3303              	.LBE1212:
  31:../../libs/libDaisy/src/per/adc.h **** {
 3304              		.loc 5 31 8 is_stmt 0 view .LVU797
ARM GAS  C:\Users\skipi\AppData\Local\Temp\cc3AYCkc.s 			page 103


 3305 0090 1433     		adds	r3, r3, #20
 3306              	.LVL181:
 3307              	.LBB1224:
 3308              	.LBB1222:
 3309              	.LBB1220:
  69:../../libs/libDaisy/src/per/gpio.h ****         {
 3310              		.loc 16 69 73 view .LVU798
 3311 0092 0024     		movs	r4, #0
 3312              	.LBB1218:
 3313              	.LBB1216:
 3314              		.loc 12 204 43 view .LVU799
 3315 0094 0B20     		movs	r0, #11
 3316 0096 FF21     		movs	r1, #255
 3317              	.LBE1216:
 3318              	.LBE1218:
 3319              	.LBE1220:
 3320              	.LBE1222:
 3321              	.LBE1224:
  31:../../libs/libDaisy/src/per/adc.h **** {
 3322              		.loc 5 31 8 view .LVU800
 3323 0098 9A42     		cmp	r2, r3
 3324              	.LBB1225:
 3325              	.LBB1223:
 3326              	.LBB1221:
  69:../../libs/libDaisy/src/per/gpio.h ****         {
 3327              		.loc 16 69 73 view .LVU801
 3328 009a 43F8104C 		str	r4, [r3, #-16]
 3329              	.LBB1219:
 3330              	.LBB1217:
 3331              		.loc 12 204 43 view .LVU802
 3332 009e 03F8140C 		strb	r0, [r3, #-20]
 3333 00a2 03F8131C 		strb	r1, [r3, #-19]
 3334              	.LVL182:
 3335              		.loc 12 204 43 view .LVU803
 3336              	.LBE1217:
 3337              	.LBE1219:
  69:../../libs/libDaisy/src/per/gpio.h ****         {
 3338              		.loc 16 69 73 view .LVU804
 3339 00a6 43E90344 		strd	r4, r4, [r3, #-12]
 3340              	.LVL183:
  69:../../libs/libDaisy/src/per/gpio.h ****         {
 3341              		.loc 16 69 73 view .LVU805
 3342              	.LBE1221:
 3343              	.LBE1223:
 3344              	.LBE1225:
  31:../../libs/libDaisy/src/per/adc.h **** {
 3345              		.loc 5 31 8 is_stmt 1 view .LVU806
  31:../../libs/libDaisy/src/per/adc.h **** {
 3346              		.loc 5 31 8 view .LVU807
 3347 00aa F1D1     		bne	.L67
 3348              	.LVL184:
  31:../../libs/libDaisy/src/per/adc.h **** {
 3349              		.loc 5 31 8 is_stmt 0 view .LVU808
 3350              	.LBE1203:
 3351              	.LBE1202:
  22:main.cpp      **** 
 3352              		.loc 10 22 34 is_stmt 1 view .LVU809
ARM GAS  C:\Users\skipi\AppData\Local\Temp\cc3AYCkc.s 			page 104


  22:main.cpp      **** 
 3353              		.loc 10 22 34 view .LVU810
 3354 00ac 5432     		adds	r2, r2, #84
 3355 00ae AA42     		cmp	r2, r5
 3356 00b0 E1D1     		bne	.L68
  24:main.cpp      **** 
 3357              		.loc 10 24 18 is_stmt 0 view .LVU811
 3358 00b2 1C48     		ldr	r0, .L72+32
 3359 00b4 FFF7FEFF 		bl	_ZN16PlantConditionerC1Ev
 3360              	.LVL185:
 3361 00b8 154A     		ldr	r2, .L72+12
 3362 00ba 1B49     		ldr	r1, .L72+36
 3363 00bc 1948     		ldr	r0, .L72+32
 3364 00be FFF7FEFF 		bl	__aeabi_atexit
 3365              	.LVL186:
 3366              	.LBB1226:
 3367              	.LBI1226:
  23:../../libs/DaisySP/Source/Synthesis/oscillator.h ****     ~Oscillator() {}
 3368              		.loc 8 23 5 is_stmt 1 view .LVU812
  23:../../libs/DaisySP/Source/Synthesis/oscillator.h ****     ~Oscillator() {}
 3369              		.loc 8 23 5 is_stmt 0 view .LVU813
 3370              	.LBE1226:
  26:main.cpp      **** float f = 0.0f;     
 3371              		.loc 10 26 19 view .LVU814
 3372 00c2 134A     		ldr	r2, .L72+12
 3373 00c4 1949     		ldr	r1, .L72+40
 3374 00c6 1A48     		ldr	r0, .L72+44
 3375 00c8 FFF7FEFF 		bl	__aeabi_atexit
 3376              	.LVL187:
  31:main.cpp      **** 
 3377              		.loc 10 31 20 view .LVU815
 3378 00cc 1948     		ldr	r0, .L72+48
 3379 00ce FFF7FEFF 		bl	_ZN11AnalogDelayC1Ev
 3380              	.LVL188:
 3381 00d2 0F4A     		ldr	r2, .L72+12
 3382 00d4 1849     		ldr	r1, .L72+52
 3383 00d6 1748     		ldr	r0, .L72+48
 3384 00d8 FFF7FEFF 		bl	__aeabi_atexit
 3385              	.LVL189:
 3386              	.LBB1227:
 3387              	.LBI1227:
  44:../../libs/DaisySP/Source/Control/adsr.h ****     ~Adsr() {}
 3388              		.loc 7 44 5 is_stmt 1 view .LVU816
 3389              	.LBB1228:
 3390              	.LBB1229:
  44:../../libs/DaisySP/Source/Control/adsr.h ****     ~Adsr() {}
 3391              		.loc 7 44 12 is_stmt 0 view .LVU817
 3392 00dc 1748     		ldr	r0, .L72+56
 3393 00de 0023     		movs	r3, #0
 3394 00e0 1749     		ldr	r1, .L72+60
 3395              	.LBE1229:
 3396 00e2 8485     		strh	r4, [r0, #44]	@ movhi
 3397              	.LVL190:
 3398              	.LBB1230:
  44:../../libs/DaisySP/Source/Control/adsr.h ****     ~Adsr() {}
 3399              		.loc 7 44 12 view .LVU818
 3400 00e4 0360     		str	r3, [r0]	@ float
ARM GAS  C:\Users\skipi\AppData\Local\Temp\cc3AYCkc.s 			page 105


 3401 00e6 4360     		str	r3, [r0, #4]	@ float
 3402 00e8 8160     		str	r1, [r0, #8]	@ float
 3403 00ea C360     		str	r3, [r0, #12]	@ float
 3404 00ec 0161     		str	r1, [r0, #16]	@ float
 3405 00ee 4161     		str	r1, [r0, #20]	@ float
 3406 00f0 8161     		str	r1, [r0, #24]	@ float
 3407 00f2 C361     		str	r3, [r0, #28]	@ float
 3408 00f4 0362     		str	r3, [r0, #32]	@ float
 3409 00f6 4362     		str	r3, [r0, #36]	@ float
 3410              	.LBE1230:
 3411              	.LBE1228:
 3412              	.LBE1227:
  39:main.cpp      **** 
 3413              		.loc 10 39 13 view .LVU819
 3414 00f8 054A     		ldr	r2, .L72+12
 3415 00fa 1249     		ldr	r1, .L72+64
 3416              	.LBE1231:
 3417              	.LBE1233:
 3418              		.loc 10 200 1 view .LVU820
 3419 00fc BDE83840 		pop	{r3, r4, r5, lr}
 3420              		.cfi_restore 14
 3421              		.cfi_restore 5
 3422              		.cfi_restore 4
 3423              		.cfi_restore 3
 3424              		.cfi_def_cfa_offset 0
 3425              	.LBB1234:
 3426              	.LBB1232:
  39:main.cpp      **** 
 3427              		.loc 10 39 13 view .LVU821
 3428 0100 FFF7FEBF 		b	__aeabi_atexit
 3429              	.LVL191:
 3430              	.L73:
 3431              		.align	2
 3432              	.L72:
 3433 0104 00000000 		.word	.LANCHOR9
 3434 0108 00000000 		.word	.LANCHOR8
 3435 010c 01080109 		.word	151062529
 3436 0110 00000000 		.word	__dso_handle
 3437 0114 00000000 		.word	_ZN5daisy6Mpr121INS_18Mpr121I2CTransportEED1Ev
 3438 0118 00000000 		.word	.LANCHOR3
 3439 011c 00000000 		.word	_ZN5daisy9DaisySeedD1Ev
 3440 0120 50000000 		.word	.LANCHOR6+80
 3441 0124 00000000 		.word	.LANCHOR4
 3442 0128 00000000 		.word	_ZN16PlantConditionerD1Ev
 3443 012c 00000000 		.word	_ZN7daisysp10OscillatorD1Ev
 3444 0130 00000000 		.word	.LANCHOR2
 3445 0134 00000000 		.word	_ZL5delay
 3446 0138 00000000 		.word	_ZN11AnalogDelayD1Ev
 3447 013c 00000000 		.word	.LANCHOR1
 3448 0140 000080BF 		.word	-1082130432
 3449 0144 00000000 		.word	_ZN7daisysp4AdsrD1Ev
 3450              	.LBE1232:
 3451              	.LBE1234:
 3452              		.cfi_endproc
 3453              	.LFE5434:
 3455              		.section	.init_array,"aw",%init_array
 3456              		.align	2
ARM GAS  C:\Users\skipi\AppData\Local\Temp\cc3AYCkc.s 			page 106


 3457 0000 00000000 		.word	_GLOBAL__sub_I_mpr121ObjConf(target1)
 3458              		.global	output
 3459              		.global	currTouched
 3460              		.global	lastTouched
 3461              		.global	k
 3462              		.global	flag
 3463              		.global	gate
 3464              		.global	f
 3465              		.global	pc
 3466              		.global	adcConfig
 3467              		.global	hw
 3468              		.global	cap
 3469              		.global	mpr121ObjConf
 3470              		.section	.bss._ZL3env,"aw",%nobits
 3471              		.align	2
 3472              		.set	.LANCHOR1,. + 0
 3475              	_ZL3env:
 3476 0000 00000000 		.space	48
 3476      00000000 
 3476      00000000 
 3476      00000000 
 3476      00000000 
 3477              		.section	.bss._ZL3osc,"aw",%nobits
 3478              		.align	2
 3479              		.set	.LANCHOR2,. + 0
 3482              	_ZL3osc:
 3483 0000 00000000 		.space	44
 3483      00000000 
 3483      00000000 
 3483      00000000 
 3483      00000000 
 3484              		.section	.bss._ZL5delay,"aw",%nobits
 3485              		.align	2
 3488              	_ZL5delay:
 3489 0000 00000000 		.space	323344
 3489      00000000 
 3489      00000000 
 3489      00000000 
 3489      00000000 
 3490              		.section	.bss.adcConfig,"aw",%nobits
 3491              		.align	2
 3492              		.set	.LANCHOR6,. + 0
 3495              	adcConfig:
 3496 0000 00000000 		.space	168
 3496      00000000 
 3496      00000000 
 3496      00000000 
 3496      00000000 
 3497              		.section	.bss.cap,"aw",%nobits
 3498              		.align	2
 3499              		.set	.LANCHOR9,. + 0
 3502              	cap:
 3503 0000 00000000 		.space	52
 3503      00000000 
 3503      00000000 
 3503      00000000 
 3503      00000000 
ARM GAS  C:\Users\skipi\AppData\Local\Temp\cc3AYCkc.s 			page 107


 3504              		.section	.bss.currTouched,"aw",%nobits
 3505              		.align	1
 3506              		.set	.LANCHOR10,. + 0
 3509              	currTouched:
 3510 0000 0000     		.space	2
 3511              		.section	.bss.f,"aw",%nobits
 3512              		.align	2
 3513              		.set	.LANCHOR12,. + 0
 3516              	f:
 3517 0000 00000000 		.space	4
 3518              		.section	.bss.flag,"aw",%nobits
 3519              		.set	.LANCHOR13,. + 0
 3522              	flag:
 3523 0000 00       		.space	1
 3524              		.section	.bss.gate,"aw",%nobits
 3525              		.set	.LANCHOR0,. + 0
 3528              	gate:
 3529 0000 00       		.space	1
 3530              		.section	.bss.hw,"aw",%nobits
 3531              		.align	2
 3532              		.set	.LANCHOR3,. + 0
 3535              	hw:
 3536 0000 00000000 		.space	116
 3536      00000000 
 3536      00000000 
 3536      00000000 
 3536      00000000 
 3537              		.section	.bss.k,"aw",%nobits
 3538              		.align	2
 3539              		.set	.LANCHOR14,. + 0
 3542              	k:
 3543 0000 00000000 		.space	4
 3544              		.section	.bss.lastTouched,"aw",%nobits
 3545              		.align	1
 3546              		.set	.LANCHOR11,. + 0
 3549              	lastTouched:
 3550 0000 0000     		.space	2
 3551              		.section	.bss.mpr121ObjConf,"aw",%nobits
 3552              		.align	2
 3553              		.set	.LANCHOR8,. + 0
 3556              	mpr121ObjConf:
 3557 0000 00000000 		.space	24
 3557      00000000 
 3557      00000000 
 3557      00000000 
 3557      00000000 
 3558              		.section	.bss.output,"aw",%nobits
 3559              		.align	2
 3562              	output:
 3563 0000 00000000 		.space	4
 3564              		.section	.bss.pc,"aw",%nobits
 3565              		.align	2
 3566              		.set	.LANCHOR4,. + 0
 3569              	pc:
 3570 0000 00000000 		.space	3028
 3570      00000000 
 3570      00000000 
ARM GAS  C:\Users\skipi\AppData\Local\Temp\cc3AYCkc.s 			page 108


 3570      00000000 
 3570      00000000 
 3571              		.section	.rodata._ZN5daisy4seedL2A0E,"a"
 3572              		.align	2
 3573              		.set	.LANCHOR5,. + 0
 3576              	_ZN5daisy4seedL2A0E:
 3577 0000 02       		.byte	2
 3578 0001 00       		.byte	0
 3579              		.section	.rodata._ZN5daisy4seedL2A1E,"a"
 3580              		.align	2
 3581              		.set	.LANCHOR7,. + 0
 3584              	_ZN5daisy4seedL2A1E:
 3585 0000 00       		.byte	0
 3586 0001 03       		.byte	3
 3587              		.text
 3588              	.Letext0:
 3589              		.file 18 "c:\\program files\\daisytoolchain\\arm-none-eabi\\include\\machine\\_default_types.h"
 3590              		.file 19 "c:\\program files\\daisytoolchain\\arm-none-eabi\\include\\sys\\_stdint.h"
 3591              		.file 20 "c:\\program files\\daisytoolchain\\arm-none-eabi\\include\\stdint.h"
 3592              		.file 21 "c:\\program files\\daisytoolchain\\lib\\gcc\\arm-none-eabi\\10.2.1\\include\\stddef.h"
 3593              		.file 22 "c:\\program files\\daisytoolchain\\arm-none-eabi\\include\\c++\\10.2.1\\cmath"
 3594              		.file 23 "c:\\program files\\daisytoolchain\\arm-none-eabi\\include\\c++\\10.2.1\\bits\\std_abs.h"
 3595              		.file 24 "c:\\program files\\daisytoolchain\\arm-none-eabi\\include\\c++\\10.2.1\\cstdlib"
 3596              		.file 25 "c:\\program files\\daisytoolchain\\arm-none-eabi\\include\\c++\\10.2.1\\cstdint"
 3597              		.file 26 "c:\\program files\\daisytoolchain\\arm-none-eabi\\include\\c++\\10.2.1\\type_traits"
 3598              		.file 27 "c:\\program files\\daisytoolchain\\arm-none-eabi\\include\\c++\\10.2.1\\debug\\debug.h"
 3599              		.file 28 "c:\\program files\\daisytoolchain\\arm-none-eabi\\include\\c++\\10.2.1\\arm-none-eabi\\t
 3600              		.file 29 "c:\\program files\\daisytoolchain\\arm-none-eabi\\include\\c++\\10.2.1\\bits\\algorithmf
 3601              		.file 30 "c:\\program files\\daisytoolchain\\arm-none-eabi\\include\\c++\\10.2.1\\bits\\stl_pair.h
 3602              		.file 31 "c:\\program files\\daisytoolchain\\arm-none-eabi\\include\\c++\\10.2.1\\bits\\exception_
 3603              		.file 32 "c:\\program files\\daisytoolchain\\arm-none-eabi\\include\\c++\\10.2.1\\cstdarg"
 3604              		.file 33 "c:\\program files\\daisytoolchain\\arm-none-eabi\\include\\c++\\10.2.1\\cstdio"
 3605              		.file 34 "c:\\program files\\daisytoolchain\\arm-none-eabi\\include\\c++\\10.2.1\\cstring"
 3606              		.file 35 "c:\\program files\\daisytoolchain\\arm-none-eabi\\include\\c++\\10.2.1\\cwchar"
 3607              		.file 36 "c:\\program files\\daisytoolchain\\arm-none-eabi\\include\\c++\\10.2.1\\clocale"
 3608              		.file 37 "c:\\program files\\daisytoolchain\\arm-none-eabi\\include\\c++\\10.2.1\\bits\\basic_stri
 3609              		.file 38 "c:\\program files\\daisytoolchain\\arm-none-eabi\\include\\c++\\10.2.1\\bits\\stl_tempbu
 3610              		.file 39 "c:\\program files\\daisytoolchain\\arm-none-eabi\\include\\c++\\10.2.1\\bits\\predefined
 3611              		.file 40 "c:\\program files\\daisytoolchain\\arm-none-eabi\\include\\sys\\_types.h"
 3612              		.file 41 "c:\\program files\\daisytoolchain\\arm-none-eabi\\include\\sys\\reent.h"
 3613              		.file 42 "c:\\program files\\daisytoolchain\\arm-none-eabi\\include\\sys\\lock.h"
 3614              		.file 43 "c:\\program files\\daisytoolchain\\arm-none-eabi\\include\\math.h"
 3615              		.file 44 "c:\\program files\\daisytoolchain\\arm-none-eabi\\include\\stdlib.h"
 3616              		.file 45 "c:\\program files\\daisytoolchain\\arm-none-eabi\\include\\c++\\10.2.1\\math.h"
 3617              		.file 46 "c:\\program files\\daisytoolchain\\arm-none-eabi\\include\\c++\\10.2.1\\stdlib.h"
 3618              		.file 47 "../../libs/libDaisy/src/per/tim.h"
 3619              		.file 48 "../../libs/libDaisy/src/hid/logger_impl.h"
 3620              		.file 49 "../../libs/libDaisy/src/util/wav_format.h"
 3621              		.file 50 "../../libs/libDaisy/src/dev/sr_595.h"
 3622              		.file 51 "../../libs/libDaisy/src/dev/max11300.h"
 3623              		.file 52 "../../libs/libDaisy/src/hid/logger.h"
 3624              		.file 53 "../../libs/libDaisy/src/dev/sdram.h"
 3625              		.file 54 "c:\\program files\\daisytoolchain\\lib\\gcc\\arm-none-eabi\\10.2.1\\include\\stdarg.h"
 3626              		.file 55 "c:\\program files\\daisytoolchain\\arm-none-eabi\\include\\stdio.h"
 3627              		.file 56 "c:\\program files\\daisytoolchain\\arm-none-eabi\\include\\string.h"
 3628              		.file 57 "../../libs/DaisySP/Source/Control/adenv.h"
 3629              		.file 58 "../../libs/DaisySP/Source/Control/phasor.h"
ARM GAS  C:\Users\skipi\AppData\Local\Temp\cc3AYCkc.s 			page 109


 3630              		.file 59 "../../libs/DaisySP/Source/Utility/dsp.h"
 3631              		.file 60 "../../libs/DaisySP/Source/Dynamics/crossfade.h"
 3632              		.file 61 "../../libs/DaisySP/Source/Utility/delayline.h"
 3633              		.file 62 "../../libs/DaisySP/Source/Effects/pitchshifter.h"
 3634              		.file 63 "c:\\program files\\daisytoolchain\\arm-none-eabi\\include\\wchar.h"
 3635              		.file 64 "c:\\program files\\daisytoolchain\\arm-none-eabi\\include\\locale.h"
 3636              		.file 65 "../../Classes/Temperamento/../FIIR/CapFir.h"
 3637              		.file 66 "../../Classes/Effects/AnalogDelay/src/AnalogDelay.h"
 3638              		.file 67 "<built-in>"
ARM GAS  C:\Users\skipi\AppData\Local\Temp\cc3AYCkc.s 			page 110


DEFINED SYMBOLS
                            *ABS*:00000000 main.cpp
C:\Users\skipi\AppData\Local\Temp\cc3AYCkc.s:17     .text._ZN5daisy9DaisySeedD2Ev:00000000 $t
C:\Users\skipi\AppData\Local\Temp\cc3AYCkc.s:26     .text._ZN5daisy9DaisySeedD2Ev:00000000 _ZN5daisy9DaisySeedD2Ev
C:\Users\skipi\AppData\Local\Temp\cc3AYCkc.s:26     .text._ZN5daisy9DaisySeedD2Ev:00000000 _ZN5daisy9DaisySeedD1Ev
C:\Users\skipi\AppData\Local\Temp\cc3AYCkc.s:73     .text._ZN7daisysp4AdsrD2Ev:00000000 $t
C:\Users\skipi\AppData\Local\Temp\cc3AYCkc.s:81     .text._ZN7daisysp4AdsrD2Ev:00000000 _ZN7daisysp4AdsrD2Ev
C:\Users\skipi\AppData\Local\Temp\cc3AYCkc.s:81     .text._ZN7daisysp4AdsrD2Ev:00000000 _ZN7daisysp4AdsrD1Ev
C:\Users\skipi\AppData\Local\Temp\cc3AYCkc.s:98     .text._ZN7daisysp10OscillatorD2Ev:00000000 $t
C:\Users\skipi\AppData\Local\Temp\cc3AYCkc.s:106    .text._ZN7daisysp10OscillatorD2Ev:00000000 _ZN7daisysp10OscillatorD2Ev
C:\Users\skipi\AppData\Local\Temp\cc3AYCkc.s:106    .text._ZN7daisysp10OscillatorD2Ev:00000000 _ZN7daisysp10OscillatorD1Ev
C:\Users\skipi\AppData\Local\Temp\cc3AYCkc.s:123    .text._ZN5daisy6Mpr121INS_18Mpr121I2CTransportEED2Ev:00000000 $t
C:\Users\skipi\AppData\Local\Temp\cc3AYCkc.s:131    .text._ZN5daisy6Mpr121INS_18Mpr121I2CTransportEED2Ev:00000000 _ZN5daisy6Mpr121INS_18Mpr121I2CTransportEED2Ev
C:\Users\skipi\AppData\Local\Temp\cc3AYCkc.s:131    .text._ZN5daisy6Mpr121INS_18Mpr121I2CTransportEED2Ev:00000000 _ZN5daisy6Mpr121INS_18Mpr121I2CTransportEED1Ev
C:\Users\skipi\AppData\Local\Temp\cc3AYCkc.s:153    .text._ZL13AudioCallbackPKfPfj:00000000 $t
C:\Users\skipi\AppData\Local\Temp\cc3AYCkc.s:160    .text._ZL13AudioCallbackPKfPfj:00000000 _ZL13AudioCallbackPKfPfj
C:\Users\skipi\AppData\Local\Temp\cc3AYCkc.s:262    .text._ZL13AudioCallbackPKfPfj:0000004c $d
C:\Users\skipi\AppData\Local\Temp\cc3AYCkc.s:3488   .bss._ZL5delay:00000000 _ZL5delay
C:\Users\skipi\AppData\Local\Temp\cc3AYCkc.s:270    .text._ZN5daisy6Mpr121INS_18Mpr121I2CTransportEE13WriteRegisterEhh:00000000 $t
C:\Users\skipi\AppData\Local\Temp\cc3AYCkc.s:278    .text._ZN5daisy6Mpr121INS_18Mpr121I2CTransportEE13WriteRegisterEhh:00000000 _ZN5daisy6Mpr121INS_18Mpr121I2CTransportEE13WriteRegisterEhh
C:\Users\skipi\AppData\Local\Temp\cc3AYCkc.s:648    .rodata.main.str1.4:00000000 $d
C:\Users\skipi\AppData\Local\Temp\cc3AYCkc.s:675    .text.startup.main:00000000 $t
C:\Users\skipi\AppData\Local\Temp\cc3AYCkc.s:683    .text.startup.main:00000000 main
C:\Users\skipi\AppData\Local\Temp\cc3AYCkc.s:1730   .text.startup.main:00000338 $d
C:\Users\skipi\AppData\Local\Temp\cc3AYCkc.s:1762   .text.startup.main:0000038c $t
C:\Users\skipi\AppData\Local\Temp\cc3AYCkc.s:2669   .text.startup.main:000006a0 $d
C:\Users\skipi\AppData\Local\Temp\cc3AYCkc.s:2695   .text.startup.main:000006fc $t
C:\Users\skipi\AppData\Local\Temp\cc3AYCkc.s:2708   .text.startup.main:00000708 $d
C:\Users\skipi\AppData\Local\Temp\cc3AYCkc.s:2714   .text.startup._GLOBAL__sub_I_mpr121ObjConf:00000000 $t
C:\Users\skipi\AppData\Local\Temp\cc3AYCkc.s:2721   .text.startup._GLOBAL__sub_I_mpr121ObjConf:00000000 _GLOBAL__sub_I_mpr121ObjConf
C:\Users\skipi\AppData\Local\Temp\cc3AYCkc.s:3433   .text.startup._GLOBAL__sub_I_mpr121ObjConf:00000104 $d
C:\Users\skipi\AppData\Local\Temp\cc3AYCkc.s:3456   .init_array:00000000 $d
C:\Users\skipi\AppData\Local\Temp\cc3AYCkc.s:3562   .bss.output:00000000 output
C:\Users\skipi\AppData\Local\Temp\cc3AYCkc.s:3509   .bss.currTouched:00000000 currTouched
C:\Users\skipi\AppData\Local\Temp\cc3AYCkc.s:3549   .bss.lastTouched:00000000 lastTouched
C:\Users\skipi\AppData\Local\Temp\cc3AYCkc.s:3542   .bss.k:00000000 k
C:\Users\skipi\AppData\Local\Temp\cc3AYCkc.s:3522   .bss.flag:00000000 flag
C:\Users\skipi\AppData\Local\Temp\cc3AYCkc.s:3528   .bss.gate:00000000 gate
C:\Users\skipi\AppData\Local\Temp\cc3AYCkc.s:3516   .bss.f:00000000 f
C:\Users\skipi\AppData\Local\Temp\cc3AYCkc.s:3569   .bss.pc:00000000 pc
C:\Users\skipi\AppData\Local\Temp\cc3AYCkc.s:3495   .bss.adcConfig:00000000 adcConfig
C:\Users\skipi\AppData\Local\Temp\cc3AYCkc.s:3535   .bss.hw:00000000 hw
C:\Users\skipi\AppData\Local\Temp\cc3AYCkc.s:3502   .bss.cap:00000000 cap
C:\Users\skipi\AppData\Local\Temp\cc3AYCkc.s:3556   .bss.mpr121ObjConf:00000000 mpr121ObjConf
C:\Users\skipi\AppData\Local\Temp\cc3AYCkc.s:3471   .bss._ZL3env:00000000 $d
C:\Users\skipi\AppData\Local\Temp\cc3AYCkc.s:3475   .bss._ZL3env:00000000 _ZL3env
C:\Users\skipi\AppData\Local\Temp\cc3AYCkc.s:3478   .bss._ZL3osc:00000000 $d
C:\Users\skipi\AppData\Local\Temp\cc3AYCkc.s:3482   .bss._ZL3osc:00000000 _ZL3osc
C:\Users\skipi\AppData\Local\Temp\cc3AYCkc.s:3485   .bss._ZL5delay:00000000 $d
C:\Users\skipi\AppData\Local\Temp\cc3AYCkc.s:3491   .bss.adcConfig:00000000 $d
C:\Users\skipi\AppData\Local\Temp\cc3AYCkc.s:3498   .bss.cap:00000000 $d
C:\Users\skipi\AppData\Local\Temp\cc3AYCkc.s:3505   .bss.currTouched:00000000 $d
C:\Users\skipi\AppData\Local\Temp\cc3AYCkc.s:3512   .bss.f:00000000 $d
C:\Users\skipi\AppData\Local\Temp\cc3AYCkc.s:3523   .bss.flag:00000000 $d
C:\Users\skipi\AppData\Local\Temp\cc3AYCkc.s:3529   .bss.gate:00000000 $d
C:\Users\skipi\AppData\Local\Temp\cc3AYCkc.s:3531   .bss.hw:00000000 $d
C:\Users\skipi\AppData\Local\Temp\cc3AYCkc.s:3538   .bss.k:00000000 $d
ARM GAS  C:\Users\skipi\AppData\Local\Temp\cc3AYCkc.s 			page 111


C:\Users\skipi\AppData\Local\Temp\cc3AYCkc.s:3545   .bss.lastTouched:00000000 $d
C:\Users\skipi\AppData\Local\Temp\cc3AYCkc.s:3552   .bss.mpr121ObjConf:00000000 $d
C:\Users\skipi\AppData\Local\Temp\cc3AYCkc.s:3559   .bss.output:00000000 $d
C:\Users\skipi\AppData\Local\Temp\cc3AYCkc.s:3565   .bss.pc:00000000 $d
C:\Users\skipi\AppData\Local\Temp\cc3AYCkc.s:3572   .rodata._ZN5daisy4seedL2A0E:00000000 $d
C:\Users\skipi\AppData\Local\Temp\cc3AYCkc.s:3576   .rodata._ZN5daisy4seedL2A0E:00000000 _ZN5daisy4seedL2A0E
C:\Users\skipi\AppData\Local\Temp\cc3AYCkc.s:3580   .rodata._ZN5daisy4seedL2A1E:00000000 $d
C:\Users\skipi\AppData\Local\Temp\cc3AYCkc.s:3584   .rodata._ZN5daisy4seedL2A1E:00000000 _ZN5daisy4seedL2A1E
                           .group:00000000 _ZN5daisy9DaisySeedD5Ev
                           .group:00000000 _ZN7daisysp4AdsrD5Ev
                           .group:00000000 _ZN7daisysp10OscillatorD5Ev
                           .group:00000000 _ZN5daisy6Mpr121INS_18Mpr121I2CTransportEED5Ev

UNDEFINED SYMBOLS
_ZN7daisysp4Adsr7ProcessEb
_ZN7daisysp10Oscillator7ProcessEv
_ZN11AnalogDelay7ProcessEf
_ZN5daisy9I2CHandle16TransmitBlockingEtPhtm
_ZN5daisy9I2CHandle15ReceiveBlockingEtPhtm
_ZN5daisy9DaisySeed9ConfigureEv
_ZN5daisy9DaisySeed4InitEb
_ZN5daisy9DaisySeed17SetAudioBlockSizeEj
_ZN5daisy9DaisySeed15AudioSampleRateEv
_ZN16PlantConditioner4InitEN6CapFir7ResTypeE
_ZN16PlantConditioner8setScaleENS_5NotesENS_9ScaleTypeE
_ZN16PlantConditioner9setOctaveEh
_ZN16PlantConditioner8setCurveEhf
_ZN7daisysp10Oscillator12CalcPhaseIncEf
_ZN7daisysp4Adsr4InitEfi
_ZN7daisysp4Adsr7SetTimeEif
_ZN11AnalogDelay4InitEf
_ZN11AnalogDelay12setDelayTimeEf
_ZN11AnalogDelay11setFeedbackEf
_ZN11AnalogDelay6setMixEf
_ZN11AnalogDelay8setDepthEf
_ZN5daisy16AdcChannelConfig10InitSingleENS_3PinENS0_15ConversionSpeedE
_ZN5daisy9AdcHandle4InitEPNS_16AdcChannelConfigEjNS0_12OverSamplingE
_ZN5daisy9AdcHandle5StartEv
_ZN5daisy6LoggerILNS_17LoggerDestinationE1EE8StartLogEb
_ZN5daisy9I2CHandle4InitERKNS0_6ConfigE
_ZN5daisy6System5DelayEm
_ZN5daisy9DaisySeed6SetLedEb
_ZN5daisy9DaisySeed7DelayMsEj
_ZN5daisy9DaisySeed10StartAudioEPFvPKfPfjE
_ZNK5daisy9AdcHandle8GetFloatEh
_ZN5daisy9I2CHandle8Mem_readEtttPhtm
_ZN16PlantConditioner7ProcessEtt
_ZN5daisy6LoggerILNS_17LoggerDestinationE1EE9PrintLineEPKcz
_ZN16PlantConditioner8setDeltaEv
__aeabi_atexit
_ZN16PlantConditionerC1Ev
_ZN11AnalogDelayC1Ev
__dso_handle
_ZN16PlantConditionerD1Ev
_ZN11AnalogDelayD1Ev
