ARM GAS  C:\Users\skipi\AppData\Local\Temp\ccuD6iNw.s 			page 1


   1              		.cpu cortex-m7
   2              		.eabi_attribute 28, 1
   3              		.eabi_attribute 20, 1
   4              		.eabi_attribute 21, 1
   5              		.eabi_attribute 23, 3
   6              		.eabi_attribute 24, 1
   7              		.eabi_attribute 25, 1
   8              		.eabi_attribute 26, 1
   9              		.eabi_attribute 30, 2
  10              		.eabi_attribute 34, 1
  11              		.eabi_attribute 18, 4
  12              		.file	"PlantConditioner.cpp"
  13              		.text
  14              	.Ltext0:
  15              		.cfi_sections	.debug_frame
  16              		.section	.text._ZN16PlantConditionerC2Ev,"ax",%progbits
  17              		.align	1
  18              		.p2align 2,,3
  19              		.global	_ZN16PlantConditionerC2Ev
  20              		.arch armv7e-m
  21              		.syntax unified
  22              		.thumb
  23              		.thumb_func
  24              		.fpu fpv5-d16
  26              	_ZN16PlantConditionerC2Ev:
  27              	.LVL0:
  28              	.LFB4846:
  29              		.file 1 "../../Classes/Temperamento/PlantConditioner.cpp"
   1:../../Classes/Temperamento/PlantConditioner.cpp **** #include "PlantConditioner.h"
   2:../../Classes/Temperamento/PlantConditioner.cpp **** 
   3:../../Classes/Temperamento/PlantConditioner.cpp **** PlantConditioner::PlantConditioner() {}
  30              		.loc 1 3 1 view -0
  31              		.cfi_startproc
  32              		@ args = 0, pretend = 0, frame = 24
  33              		@ frame_needed = 0, uses_anonymous_args = 0
  34              	.LBB2:
  35              		.loc 1 3 36 is_stmt 0 view .LVU1
  36 0000 0223     		movs	r3, #2
  37              	.LBE2:
  38              		.loc 1 3 1 view .LVU2
  39 0002 2DE9F04F 		push	{r4, r5, r6, r7, r8, r9, r10, fp, lr}
  40              		.cfi_def_cfa_offset 36
  41              		.cfi_offset 4, -36
  42              		.cfi_offset 5, -32
  43              		.cfi_offset 6, -28
  44              		.cfi_offset 7, -24
  45              		.cfi_offset 8, -20
  46              		.cfi_offset 9, -16
  47              		.cfi_offset 10, -12
  48              		.cfi_offset 11, -8
  49              		.cfi_offset 14, -4
  50 0006 0446     		mov	r4, r0
  51 0008 87B0     		sub	sp, sp, #28
  52              		.cfi_def_cfa_offset 64
  53              	.LBB3:
  54              		.loc 1 3 36 view .LVU3
  55 000a 00F8043B 		strb	r3, [r0], #4
ARM GAS  C:\Users\skipi\AppData\Local\Temp\ccuD6iNw.s 			page 2


  56              	.LVL1:
  57              		.loc 1 3 36 view .LVU4
  58 000e FFF7FEFF 		bl	_ZN3IIRC1Ev
  59              	.LVL2:
  60 0012 04F14C00 		add	r0, r4, #76
  61 0016 FFF7FEFF 		bl	_ZN2MFC1Ev
  62              	.LVL3:
  63 001a 04F16400 		add	r0, r4, #100
  64 001e FFF7FEFF 		bl	_ZN6CapFirC1Ev
  65              	.LVL4:
  66 0022 04F57A70 		add	r0, r4, #1000
  67 0026 FFF7FEFF 		bl	_ZN6CapFirC1Ev
  68              	.LVL5:
  69 002a 04F26C72 		addw	r2, r4, #1900
  70 002e 4FF08040 		mov	r0, #1073741824
  71 0032 0023     		movs	r3, #0
  72 0034 4FF07E51 		mov	r1, #1065353216
  73 0038 3D4D     		ldr	r5, .L4
  74 003a 1060     		str	r0, [r2]	@ float
  75 003c 4FF0FF32 		mov	r2, #-1
  76 0040 05F1B400 		add	r0, r5, #180
  77 0044 04F5FE6A 		add	r10, r4, #2032
  78 0048 C4F87027 		str	r2, [r4, #1904]
  79 004c 04F27472 		addw	r2, r4, #1908
  80 0050 0590     		str	r0, [sp, #20]
  81 0052 05F11C09 		add	r9, r5, #28
  82 0056 1360     		str	r3, [r2]	@ float
  83 0058 40F20472 		movw	r2, #1796
  84 005c 05F13807 		add	r7, r5, #56
  85 0060 05F1700B 		add	fp, r5, #112
  86 0064 A4F87827 		strh	r2, [r4, #1912]	@ movhi
  87 0068 04F27C72 		addw	r2, r4, #1916
  88 006c 05F1840E 		add	lr, r5, #132
  89 0070 04F60C08 		addw	r8, r4, #2060
  90 0074 1160     		str	r1, [r2]	@ float
  91 0076 04F5F062 		add	r2, r4, #1920
  92 007a 2E49     		ldr	r1, .L4+4
  93 007c 04F62806 		addw	r6, r4, #2088
  94 0080 04F6740C 		addw	ip, r4, #2164
  95 0084 1160     		str	r1, [r2]	@ float
  96 0086 04F28472 		addw	r2, r4, #1924
  97 008a 2B49     		ldr	r1, .L4+8
  98 008c 1160     		str	r1, [r2]	@ float
  99 008e 04F5F162 		add	r2, r4, #1928
 100 0092 04F50661 		add	r1, r4, #2144
 101 0096 1360     		str	r3, [r2]	@ float
 102 0098 04F28C72 		addw	r2, r4, #1932
 103 009c 0391     		str	r1, [sp, #12]
 104 009e 1360     		str	r3, [r2]	@ float
 105 00a0 04F64402 		addw	r2, r4, #2116
 106 00a4 05F15403 		add	r3, r5, #84
 107 00a8 0192     		str	r2, [sp, #4]
 108 00aa 04F6A402 		addw	r2, r4, #2212
 109 00ae 0293     		str	r3, [sp, #8]
 110 00b0 0492     		str	r2, [sp, #16]
 111 00b2 0FCD     		ldmia	r5!, {r0, r1, r2, r3}
 112 00b4 AAE80F00 		stmia	r10!, {r0, r1, r2, r3}
ARM GAS  C:\Users\skipi\AppData\Local\Temp\ccuD6iNw.s 			page 3


 113 00b8 95E80700 		ldm	r5, {r0, r1, r2}
 114 00bc 8AE80700 		stm	r10, {r0, r1, r2}
 115 00c0 B9E80F00 		ldmia	r9!, {r0, r1, r2, r3}
 116 00c4 A8E80F00 		stmia	r8!, {r0, r1, r2, r3}
 117 00c8 99E80700 		ldm	r9, {r0, r1, r2}
 118 00cc 88E80700 		stm	r8, {r0, r1, r2}
 119 00d0 0FCF     		ldmia	r7!, {r0, r1, r2, r3}
 120 00d2 0FC6     		stmia	r6!, {r0, r1, r2, r3}
 121 00d4 97E80700 		ldm	r7, {r0, r1, r2}
 122 00d8 029B     		ldr	r3, [sp, #8]
 123 00da 019D     		ldr	r5, [sp, #4]
 124 00dc 86E80700 		stm	r6, {r0, r1, r2}
 125 00e0 1E46     		mov	r6, r3
 126 00e2 2F46     		mov	r7, r5
 127 00e4 0FCE     		ldmia	r6!, {r0, r1, r2, r3}
 128 00e6 0FC7     		stmia	r7!, {r0, r1, r2, r3}
 129 00e8 96E80700 		ldm	r6, {r0, r1, r2}
 130 00ec 039D     		ldr	r5, [sp, #12]
 131 00ee 87E80700 		stm	r7, {r0, r1, r2}
 132 00f2 BBE80F00 		ldmia	fp!, {r0, r1, r2, r3}
 133 00f6 0FC5     		stmia	r5!, {r0, r1, r2, r3}
 134 00f8 DBF80030 		ldr	r3, [fp]
 135 00fc 2B60     		str	r3, [r5]
 136 00fe BEE80F00 		ldmia	lr!, {r0, r1, r2, r3}
 137 0102 ACE80F00 		stmia	ip!, {r0, r1, r2, r3}
 138 0106 BEE80F00 		ldmia	lr!, {r0, r1, r2, r3}
 139 010a ACE80F00 		stmia	ip!, {r0, r1, r2, r3}
 140 010e 9EE80F00 		ldm	lr, {r0, r1, r2, r3}
 141 0112 8CE80F00 		stm	ip, {r0, r1, r2, r3}
 142 0116 0598     		ldr	r0, [sp, #20]
 143 0118 049D     		ldr	r5, [sp, #16]
 144 011a 0646     		mov	r6, r0
 145 011c 0FCE     		ldmia	r6!, {r0, r1, r2, r3}
 146 011e 0FC5     		stmia	r5!, {r0, r1, r2, r3}
 147 0120 96E80300 		ldm	r6, {r0, r1}
 148 0124 85E80300 		stm	r5, {r0, r1}
 149              	.LBE3:
 150              		.loc 1 3 39 view .LVU5
 151 0128 2046     		mov	r0, r4
 152 012a 07B0     		add	sp, sp, #28
 153              		.cfi_def_cfa_offset 36
 154              		@ sp needed
 155 012c BDE8F08F 		pop	{r4, r5, r6, r7, r8, r9, r10, fp, pc}
 156              	.LVL6:
 157              	.L5:
 158              		.loc 1 3 39 view .LVU6
 159              		.align	2
 160              	.L4:
 161 0130 00000000 		.word	.LANCHOR0
 162 0134 0000C842 		.word	1120403456
 163 0138 0000C642 		.word	1120272384
 164              		.cfi_endproc
 165              	.LFE4846:
 167              		.global	_ZN16PlantConditionerC1Ev
 168              		.thumb_set _ZN16PlantConditionerC1Ev,_ZN16PlantConditionerC2Ev
 169              		.section	.text._ZN16PlantConditionerD2Ev,"ax",%progbits
 170              		.align	1
ARM GAS  C:\Users\skipi\AppData\Local\Temp\ccuD6iNw.s 			page 4


 171              		.p2align 2,,3
 172              		.global	_ZN16PlantConditionerD2Ev
 173              		.syntax unified
 174              		.thumb
 175              		.thumb_func
 176              		.fpu fpv5-d16
 178              	_ZN16PlantConditionerD2Ev:
 179              	.LVL7:
 180              	.LFB4849:
   4:../../Classes/Temperamento/PlantConditioner.cpp **** PlantConditioner::~PlantConditioner() {}
 181              		.loc 1 4 1 is_stmt 1 view -0
 182              		.cfi_startproc
 183              		@ args = 0, pretend = 0, frame = 0
 184              		@ frame_needed = 0, uses_anonymous_args = 0
 185              		.loc 1 4 1 is_stmt 0 view .LVU8
 186 0000 10B5     		push	{r4, lr}
 187              		.cfi_def_cfa_offset 8
 188              		.cfi_offset 4, -8
 189              		.cfi_offset 14, -4
 190              		.loc 1 4 1 view .LVU9
 191 0002 0446     		mov	r4, r0
 192              	.LBB4:
 193              		.loc 1 4 37 view .LVU10
 194 0004 00F57A70 		add	r0, r0, #1000
 195              	.LVL8:
 196              		.loc 1 4 37 view .LVU11
 197 0008 FFF7FEFF 		bl	_ZN6CapFirD1Ev
 198              	.LVL9:
 199 000c 04F16400 		add	r0, r4, #100
 200 0010 FFF7FEFF 		bl	_ZN6CapFirD1Ev
 201              	.LVL10:
 202 0014 04F14C00 		add	r0, r4, #76
 203 0018 FFF7FEFF 		bl	_ZN2MFD1Ev
 204              	.LVL11:
 205 001c 201D     		adds	r0, r4, #4
 206 001e FFF7FEFF 		bl	_ZN3IIRD1Ev
 207              	.LVL12:
 208              	.LBE4:
 209              		.loc 1 4 40 view .LVU12
 210 0022 2046     		mov	r0, r4
 211 0024 10BD     		pop	{r4, pc}
 212              		.loc 1 4 40 view .LVU13
 213              		.cfi_endproc
 214              	.LFE4849:
 216              		.global	_ZN16PlantConditionerD1Ev
 217              		.thumb_set _ZN16PlantConditionerD1Ev,_ZN16PlantConditionerD2Ev
 218              		.section	.text._ZN16PlantConditioner4InitEN3IIR10FilterTypeE,"ax",%progbits
 219              		.align	1
 220              		.p2align 2,,3
 221              		.global	_ZN16PlantConditioner4InitEN3IIR10FilterTypeE
 222              		.syntax unified
 223              		.thumb
 224              		.thumb_func
 225              		.fpu fpv5-d16
 227              	_ZN16PlantConditioner4InitEN3IIR10FilterTypeE:
 228              	.LVL13:
 229              	.LFB4851:
ARM GAS  C:\Users\skipi\AppData\Local\Temp\ccuD6iNw.s 			page 5


   5:../../Classes/Temperamento/PlantConditioner.cpp **** 
   6:../../Classes/Temperamento/PlantConditioner.cpp **** void PlantConditioner::Init(IIR::FilterType filter_type) {
 230              		.loc 1 6 58 is_stmt 1 view -0
 231              		.cfi_startproc
 232              		@ args = 0, pretend = 0, frame = 0
 233              		@ frame_needed = 0, uses_anonymous_args = 0
   7:../../Classes/Temperamento/PlantConditioner.cpp ****     _deltaFilter.Init(filter_type);
 234              		.loc 1 7 5 view .LVU15
   6:../../Classes/Temperamento/PlantConditioner.cpp ****     _deltaFilter.Init(filter_type);
 235              		.loc 1 6 58 is_stmt 0 view .LVU16
 236 0000 10B5     		push	{r4, lr}
 237              		.cfi_def_cfa_offset 8
 238              		.cfi_offset 4, -8
 239              		.cfi_offset 14, -4
   6:../../Classes/Temperamento/PlantConditioner.cpp ****     _deltaFilter.Init(filter_type);
 240              		.loc 1 6 58 view .LVU17
 241 0002 0446     		mov	r4, r0
 242              		.loc 1 7 22 view .LVU18
 243 0004 0430     		adds	r0, r0, #4
 244              	.LVL14:
 245              		.loc 1 7 22 view .LVU19
 246 0006 FFF7FEFF 		bl	_ZN3IIR4InitENS_10FilterTypeE
 247              	.LVL15:
   8:../../Classes/Temperamento/PlantConditioner.cpp ****     _deltaFilterMF.Init();
 248              		.loc 1 8 5 is_stmt 1 view .LVU20
 249              		.loc 1 8 24 is_stmt 0 view .LVU21
 250 000a 04F14C00 		add	r0, r4, #76
 251 000e FFF7FEFF 		bl	_ZN2MF4InitEv
 252              	.LVL16:
   9:../../Classes/Temperamento/PlantConditioner.cpp ****     _maxFir.Init(CapFir::ResType::HIGH);
 253              		.loc 1 9 5 is_stmt 1 view .LVU22
 254              		.loc 1 9 17 is_stmt 0 view .LVU23
 255 0012 0221     		movs	r1, #2
 256 0014 04F16400 		add	r0, r4, #100
 257 0018 FFF7FEFF 		bl	_ZN6CapFir4InitENS_7ResTypeE
 258              	.LVL17:
  10:../../Classes/Temperamento/PlantConditioner.cpp ****     _curveFir.Init(CapFir::ResType::HIGH);
 259              		.loc 1 10 5 is_stmt 1 view .LVU24
 260              		.loc 1 10 19 is_stmt 0 view .LVU25
 261 001c 0221     		movs	r1, #2
 262 001e 04F57A70 		add	r0, r4, #1000
 263 0022 FFF7FEFF 		bl	_ZN6CapFir4InitENS_7ResTypeE
 264              	.LVL18:
  11:../../Classes/Temperamento/PlantConditioner.cpp ****     _delta = 0;
 265              		.loc 1 11 5 is_stmt 1 view .LVU26
 266              		.loc 1 11 12 is_stmt 0 view .LVU27
 267 0026 0023     		movs	r3, #0
 268 0028 04F5F160 		add	r0, r4, #1928
  12:../../Classes/Temperamento/PlantConditioner.cpp ****     _deltaFilt = 0;
 269              		.loc 1 12 16 view .LVU28
 270 002c 04F28C71 		addw	r1, r4, #1932
  13:../../Classes/Temperamento/PlantConditioner.cpp ****     _octave = 4;
 271              		.loc 1 13 13 view .LVU29
 272 0030 0422     		movs	r2, #4
  11:../../Classes/Temperamento/PlantConditioner.cpp ****     _delta = 0;
 273              		.loc 1 11 12 view .LVU30
 274 0032 0360     		str	r3, [r0]	@ float
ARM GAS  C:\Users\skipi\AppData\Local\Temp\ccuD6iNw.s 			page 6


  12:../../Classes/Temperamento/PlantConditioner.cpp ****     _deltaFilt = 0;
 275              		.loc 1 12 5 is_stmt 1 view .LVU31
  12:../../Classes/Temperamento/PlantConditioner.cpp ****     _deltaFilt = 0;
 276              		.loc 1 12 16 is_stmt 0 view .LVU32
 277 0034 0B60     		str	r3, [r1]	@ float
 278              		.loc 1 13 5 is_stmt 1 view .LVU33
  14:../../Classes/Temperamento/PlantConditioner.cpp ****     _lastNoteIndex = -1; // Reset indice nota
 279              		.loc 1 14 20 is_stmt 0 view .LVU34
 280 0036 4FF0FF33 		mov	r3, #-1
  13:../../Classes/Temperamento/PlantConditioner.cpp ****     _octave = 4;
 281              		.loc 1 13 13 view .LVU35
 282 003a 84F87827 		strb	r2, [r4, #1912]
 283              		.loc 1 14 5 is_stmt 1 view .LVU36
 284              		.loc 1 14 20 is_stmt 0 view .LVU37
 285 003e C4F87037 		str	r3, [r4, #1904]
  15:../../Classes/Temperamento/PlantConditioner.cpp **** }
 286              		.loc 1 15 1 view .LVU38
 287 0042 10BD     		pop	{r4, pc}
 288              		.loc 1 15 1 view .LVU39
 289              		.cfi_endproc
 290              	.LFE4851:
 292              		.section	.text._ZN16PlantConditioner8setScaleENS_5NotesENS_9ScaleTypeE,"ax",%progbits
 293              		.align	1
 294              		.p2align 2,,3
 295              		.global	_ZN16PlantConditioner8setScaleENS_5NotesENS_9ScaleTypeE
 296              		.syntax unified
 297              		.thumb
 298              		.thumb_func
 299              		.fpu fpv5-d16
 301              	_ZN16PlantConditioner8setScaleENS_5NotesENS_9ScaleTypeE:
 302              	.LVL19:
 303              	.LFB4852:
  16:../../Classes/Temperamento/PlantConditioner.cpp **** 
  17:../../Classes/Temperamento/PlantConditioner.cpp **** void PlantConditioner::setScale(enum Notes root_note, enum ScaleType scale_type) {
 304              		.loc 1 17 82 is_stmt 1 view -0
 305              		.cfi_startproc
 306              		@ args = 0, pretend = 0, frame = 0
 307              		@ frame_needed = 0, uses_anonymous_args = 0
  18:../../Classes/Temperamento/PlantConditioner.cpp ****     // Copia della scala base
  19:../../Classes/Temperamento/PlantConditioner.cpp ****     switch (scale_type) 
 308              		.loc 1 19 5 view .LVU41
  17:../../Classes/Temperamento/PlantConditioner.cpp ****     // Copia della scala base
 309              		.loc 1 17 82 is_stmt 0 view .LVU42
 310 0000 70B5     		push	{r4, r5, r6, lr}
 311              		.cfi_def_cfa_offset 16
 312              		.cfi_offset 4, -16
 313              		.cfi_offset 5, -12
 314              		.cfi_offset 6, -8
 315              		.cfi_offset 14, -4
  17:../../Classes/Temperamento/PlantConditioner.cpp ****     // Copia della scala base
 316              		.loc 1 17 82 view .LVU43
 317 0002 07EE901A 		vmov	s15, r1	@ int
 318 0006 0546     		mov	r5, r0
 319 0008 062A     		cmp	r2, #6
 320 000a 24D8     		bhi	.L11
 321 000c DFE802F0 		tbb	[pc, r2]
 322              	.L13:
ARM GAS  C:\Users\skipi\AppData\Local\Temp\ccuD6iNw.s 			page 7


 323 0010 23       		.byte	(.L11-.L13)/2
 324 0011 7B       		.byte	(.L18-.L13)/2
 325 0012 9D       		.byte	(.L17-.L13)/2
 326 0013 BF       		.byte	(.L16-.L13)/2
 327 0014 E1       		.byte	(.L15-.L13)/2
 328 0015 04       		.byte	(.L14-.L13)/2
 329 0016 5D       		.byte	(.L12-.L13)/2
 330 0017 00       		.p2align 1
 331              	.L14:
 332              	.LBB5:
  20:../../Classes/Temperamento/PlantConditioner.cpp ****     {
  21:../../Classes/Temperamento/PlantConditioner.cpp ****     case Major:
  22:../../Classes/Temperamento/PlantConditioner.cpp ****         _scaleLength = 7;
  23:../../Classes/Temperamento/PlantConditioner.cpp ****         for (int i = 0; i < 7; i++) _scale[i] = _majorScale[i];
  24:../../Classes/Temperamento/PlantConditioner.cpp ****         break;
  25:../../Classes/Temperamento/PlantConditioner.cpp ****     case MinorNat:
  26:../../Classes/Temperamento/PlantConditioner.cpp ****         _scaleLength = 7;
  27:../../Classes/Temperamento/PlantConditioner.cpp ****         for (int i = 0; i < 7; i++) _scale[i] = _minorNScale[i];
  28:../../Classes/Temperamento/PlantConditioner.cpp ****         break;
  29:../../Classes/Temperamento/PlantConditioner.cpp ****     case MinorArm:
  30:../../Classes/Temperamento/PlantConditioner.cpp ****         _scaleLength = 7;
  31:../../Classes/Temperamento/PlantConditioner.cpp ****         for (int i = 0; i < 7; i++) _scale[i] = _minorAScale[i];
  32:../../Classes/Temperamento/PlantConditioner.cpp ****         break;
  33:../../Classes/Temperamento/PlantConditioner.cpp ****     case MinorMel:
  34:../../Classes/Temperamento/PlantConditioner.cpp ****         _scaleLength = 7;
  35:../../Classes/Temperamento/PlantConditioner.cpp ****         for (int i = 0; i < 7; i++) _scale[i] = _minorMScale[i];
  36:../../Classes/Temperamento/PlantConditioner.cpp ****         break;
  37:../../Classes/Temperamento/PlantConditioner.cpp ****     case Pentatonic:
  38:../../Classes/Temperamento/PlantConditioner.cpp ****         _scaleLength = 5;
  39:../../Classes/Temperamento/PlantConditioner.cpp ****         for (int i = 0; i < 5; i++) _scale[i] = _pentatonicScale[i];
  40:../../Classes/Temperamento/PlantConditioner.cpp ****         break;
  41:../../Classes/Temperamento/PlantConditioner.cpp ****     case Chromatic:
 333              		.loc 1 41 5 is_stmt 1 view .LVU44
  42:../../Classes/Temperamento/PlantConditioner.cpp ****         _scaleLength = 12;
 334              		.loc 1 42 9 view .LVU45
 335              	.LBB6:
  43:../../Classes/Temperamento/PlantConditioner.cpp ****         for (int i = 0; i < 12; i++) _scale[i] = _chromaticScale[i];
 336              		.loc 1 43 48 is_stmt 0 view .LVU46
 337 0018 00F5F864 		add	r4, r0, #1984
 338              	.LBE6:
  42:../../Classes/Temperamento/PlantConditioner.cpp ****         _scaleLength = 12;
 339              		.loc 1 42 22 view .LVU47
 340 001c 0C21     		movs	r1, #12
 341              	.LVL20:
 342              	.LBB7:
 343              		.loc 1 43 48 view .LVU48
 344 001e 00F67403 		addw	r3, r0, #2164
 345 0022 00F6A406 		addw	r6, r0, #2212
 346 0026 2246     		mov	r2, r4
 347              	.LVL21:
 348              		.loc 1 43 48 view .LVU49
 349              	.LBE7:
  42:../../Classes/Temperamento/PlantConditioner.cpp ****         _scaleLength = 12;
 350              		.loc 1 42 22 view .LVU50
 351 0028 80F87917 		strb	r1, [r0, #1913]
 352              		.loc 1 43 9 is_stmt 1 view .LVU51
 353              	.LVL22:
ARM GAS  C:\Users\skipi\AppData\Local\Temp\ccuD6iNw.s 			page 8


 354              	.LBB8:
 355              		.loc 1 43 27 view .LVU52
 356              	.L21:
 357              		.loc 1 43 48 is_stmt 0 view .LVU53
 358 002c D3F800E0 		ldr	lr, [r3]	@ unaligned
 359 0030 1033     		adds	r3, r3, #16
 360 0032 53F80CCC 		ldr	ip, [r3, #-12]	@ unaligned
 361 0036 1032     		adds	r2, r2, #16
 362 0038 53F8080C 		ldr	r0, [r3, #-8]	@ unaligned
 363 003c 53F8041C 		ldr	r1, [r3, #-4]	@ unaligned
 364 0040 B342     		cmp	r3, r6
 365 0042 42F810EC 		str	lr, [r2, #-16]	@ unaligned
 366 0046 42F80CCC 		str	ip, [r2, #-12]	@ unaligned
 367 004a 42F8080C 		str	r0, [r2, #-8]	@ unaligned
 368 004e 42F8041C 		str	r1, [r2, #-4]	@ unaligned
 369 0052 EBD1     		bne	.L21
 370 0054 20E0     		b	.L20
 371              	.LVL23:
 372              	.L11:
 373              		.loc 1 43 48 view .LVU54
 374              	.LBE8:
  44:../../Classes/Temperamento/PlantConditioner.cpp ****         break;
  45:../../Classes/Temperamento/PlantConditioner.cpp ****     case Esatonic:
  46:../../Classes/Temperamento/PlantConditioner.cpp ****         _scaleLength = 6;
  47:../../Classes/Temperamento/PlantConditioner.cpp ****         for (int i = 0; i < 6; i++) _scale[i] = _esatonic[i];
  48:../../Classes/Temperamento/PlantConditioner.cpp ****         break;
  49:../../Classes/Temperamento/PlantConditioner.cpp ****     default:
 375              		.loc 1 49 5 is_stmt 1 view .LVU55
  50:../../Classes/Temperamento/PlantConditioner.cpp ****         _scaleLength = 7;
 376              		.loc 1 50 9 view .LVU56
 377              	.LBB9:
  51:../../Classes/Temperamento/PlantConditioner.cpp ****         for (int i = 0; i < 7; i++) _scale[i] = _majorScale[i];
 378              		.loc 1 51 47 is_stmt 0 view .LVU57
 379 0056 D0F8F837 		ldr	r3, [r0, #2040]	@ unaligned
 380 005a 05F5F864 		add	r4, r5, #1984
 381 005e D0F8F017 		ldr	r1, [r0, #2032]	@ unaligned
 382              	.LVL24:
 383              		.loc 1 51 47 view .LVU58
 384 0062 D0F8F427 		ldr	r2, [r0, #2036]	@ unaligned
 385              	.LVL25:
 386              		.loc 1 51 47 view .LVU59
 387              	.LBE9:
  50:../../Classes/Temperamento/PlantConditioner.cpp ****         _scaleLength = 7;
 388              		.loc 1 50 22 view .LVU60
 389 0066 0720     		movs	r0, #7
 390              	.LVL26:
 391              	.LBB10:
 392              		.loc 1 51 47 view .LVU61
 393 0068 C5F8C837 		str	r3, [r5, #1992]	@ unaligned
 394 006c D5F8FC37 		ldr	r3, [r5, #2044]	@ unaligned
 395 0070 C5F8C017 		str	r1, [r5, #1984]	@ unaligned
 396 0074 C5F8C427 		str	r2, [r5, #1988]	@ unaligned
 397 0078 D5F80018 		ldr	r1, [r5, #2048]	@ unaligned
 398 007c D5F80428 		ldr	r2, [r5, #2052]	@ unaligned
 399 0080 C5F8CC37 		str	r3, [r5, #1996]	@ unaligned
 400 0084 D5F80838 		ldr	r3, [r5, #2056]	@ unaligned
 401              	.LBE10:
ARM GAS  C:\Users\skipi\AppData\Local\Temp\ccuD6iNw.s 			page 9


  50:../../Classes/Temperamento/PlantConditioner.cpp ****         _scaleLength = 7;
 402              		.loc 1 50 22 view .LVU62
 403 0088 85F87907 		strb	r0, [r5, #1913]
 404              		.loc 1 51 9 is_stmt 1 view .LVU63
 405              	.LVL27:
 406              	.LBB11:
 407              		.loc 1 51 27 view .LVU64
 408              		.loc 1 51 47 is_stmt 0 view .LVU65
 409 008c C5F8D017 		str	r1, [r5, #2000]	@ unaligned
 410 0090 C5F8D427 		str	r2, [r5, #2004]	@ unaligned
 411 0094 C5F8D837 		str	r3, [r5, #2008]	@ unaligned
 412              	.LVL28:
 413              	.L20:
 414              		.loc 1 51 47 view .LVU66
 415              	.LBE11:
 416              	.LBE5:
  52:../../Classes/Temperamento/PlantConditioner.cpp ****         break;
  53:../../Classes/Temperamento/PlantConditioner.cpp ****     }
  54:../../Classes/Temperamento/PlantConditioner.cpp **** 
  55:../../Classes/Temperamento/PlantConditioner.cpp ****     // Trasposizione (Pitch Shifting) in base alla nota fondamentale
  56:../../Classes/Temperamento/PlantConditioner.cpp ****     // powf(2, n/12) calcola il rapporto semitonale
  57:../../Classes/Temperamento/PlantConditioner.cpp ****     float transposition = powf(2.0f, (float)root_note / 12.0f);
 417              		.loc 1 57 5 is_stmt 1 view .LVU67
 418              		.loc 1 57 38 is_stmt 0 view .LVU68
 419 0098 F8EE677A 		vcvt.f32.u32	s15, s15
 420              		.loc 1 57 31 view .LVU69
 421 009c F2EE080A 		vmov.f32	s1, #1.2e+1
 422 00a0 B0EE000A 		vmov.f32	s0, #2.0e+0
 423 00a4 C7EEA00A 		vdiv.f32	s1, s15, s1
 424 00a8 FFF7FEFF 		bl	powf
 425              	.LVL29:
 426              	.LBB27:
  58:../../Classes/Temperamento/PlantConditioner.cpp ****     for (int i = 0; i < _scaleLength; i++) {
 427              		.loc 1 58 25 view .LVU70
 428 00ac 95F87927 		ldrb	r2, [r5, #1913]	@ zero_extendqisi2
 429              	.LVL30:
 430              		.loc 1 58 25 view .LVU71
 431              	.LBE27:
 432              		.loc 1 58 5 is_stmt 1 view .LVU72
 433              	.LBB28:
 434              		.loc 1 58 23 view .LVU73
 435 00b0 52B1     		cbz	r2, .L10
 436 00b2 2346     		mov	r3, r4
 437 00b4 04EB8202 		add	r2, r4, r2, lsl #2
 438              	.LVL31:
 439              	.L23:
  59:../../Classes/Temperamento/PlantConditioner.cpp ****         _scale[i] = _scale[i] * transposition; 
 440              		.loc 1 59 9 discriminator 2 view .LVU74
 441              		.loc 1 59 29 is_stmt 0 discriminator 2 view .LVU75
 442 00b8 D3ED007A 		vldr.32	s15, [r3]
 443              		.loc 1 59 31 discriminator 2 view .LVU76
 444 00bc 67EE807A 		vmul.f32	s15, s15, s0
 445              		.loc 1 59 19 discriminator 2 view .LVU77
 446 00c0 E3EC017A 		vstmia.32	r3!, {s15}
  58:../../Classes/Temperamento/PlantConditioner.cpp ****     for (int i = 0; i < _scaleLength; i++) {
 447              		.loc 1 58 5 is_stmt 1 discriminator 2 view .LVU78
  58:../../Classes/Temperamento/PlantConditioner.cpp ****     for (int i = 0; i < _scaleLength; i++) {
ARM GAS  C:\Users\skipi\AppData\Local\Temp\ccuD6iNw.s 			page 10


 448              		.loc 1 58 23 discriminator 2 view .LVU79
 449 00c4 9A42     		cmp	r2, r3
 450 00c6 F7D1     		bne	.L23
 451              	.L10:
  58:../../Classes/Temperamento/PlantConditioner.cpp ****     for (int i = 0; i < _scaleLength; i++) {
 452              		.loc 1 58 23 is_stmt 0 discriminator 2 view .LVU80
 453              	.LBE28:
  60:../../Classes/Temperamento/PlantConditioner.cpp ****     }
  61:../../Classes/Temperamento/PlantConditioner.cpp **** }
 454              		.loc 1 61 1 view .LVU81
 455 00c8 70BD     		pop	{r4, r5, r6, pc}
 456              	.LVL32:
 457              	.L12:
 458              	.LBB29:
  45:../../Classes/Temperamento/PlantConditioner.cpp ****         _scaleLength = 6;
 459              		.loc 1 45 5 is_stmt 1 view .LVU82
  46:../../Classes/Temperamento/PlantConditioner.cpp ****         for (int i = 0; i < 6; i++) _scale[i] = _esatonic[i];
 460              		.loc 1 46 9 view .LVU83
 461              	.LBB12:
  47:../../Classes/Temperamento/PlantConditioner.cpp ****         break;
 462              		.loc 1 47 47 is_stmt 0 view .LVU84
 463 00ca D0F8A428 		ldr	r2, [r0, #2212]	@ unaligned
 464              	.LVL33:
  47:../../Classes/Temperamento/PlantConditioner.cpp ****         break;
 465              		.loc 1 47 47 view .LVU85
 466 00ce 05F5F864 		add	r4, r5, #1984
 467 00d2 D0F8A838 		ldr	r3, [r0, #2216]	@ unaligned
 468              	.LBE12:
  46:../../Classes/Temperamento/PlantConditioner.cpp ****         for (int i = 0; i < 6; i++) _scale[i] = _esatonic[i];
 469              		.loc 1 46 22 view .LVU86
 470 00d6 0620     		movs	r0, #6
 471              	.LVL34:
 472              	.LBB13:
  47:../../Classes/Temperamento/PlantConditioner.cpp ****         break;
 473              		.loc 1 47 47 view .LVU87
 474 00d8 D5F8AC68 		ldr	r6, [r5, #2220]	@ unaligned
 475 00dc D5F8B018 		ldr	r1, [r5, #2224]	@ unaligned
 476              	.LVL35:
  47:../../Classes/Temperamento/PlantConditioner.cpp ****         break;
 477              		.loc 1 47 47 view .LVU88
 478 00e0 C5F8C027 		str	r2, [r5, #1984]	@ unaligned
 479 00e4 C5F8C437 		str	r3, [r5, #1988]	@ unaligned
 480 00e8 D5F8B428 		ldr	r2, [r5, #2228]	@ unaligned
 481 00ec D5F8B838 		ldr	r3, [r5, #2232]	@ unaligned
 482 00f0 C5F8D027 		str	r2, [r5, #2000]	@ unaligned
 483 00f4 C5F8C867 		str	r6, [r5, #1992]	@ unaligned
 484              	.LBE13:
  46:../../Classes/Temperamento/PlantConditioner.cpp ****         for (int i = 0; i < 6; i++) _scale[i] = _esatonic[i];
 485              		.loc 1 46 22 view .LVU89
 486 00f8 85F87907 		strb	r0, [r5, #1913]
  47:../../Classes/Temperamento/PlantConditioner.cpp ****         break;
 487              		.loc 1 47 9 is_stmt 1 view .LVU90
 488              	.LVL36:
 489              	.LBB14:
  47:../../Classes/Temperamento/PlantConditioner.cpp ****         break;
 490              		.loc 1 47 27 view .LVU91
  47:../../Classes/Temperamento/PlantConditioner.cpp ****         break;
ARM GAS  C:\Users\skipi\AppData\Local\Temp\ccuD6iNw.s 			page 11


 491              		.loc 1 47 47 is_stmt 0 view .LVU92
 492 00fc C5F8CC17 		str	r1, [r5, #1996]	@ unaligned
 493 0100 C5F8D437 		str	r3, [r5, #2004]	@ unaligned
 494 0104 C8E7     		b	.L20
 495              	.LVL37:
 496              	.L18:
  47:../../Classes/Temperamento/PlantConditioner.cpp ****         break;
 497              		.loc 1 47 47 view .LVU93
 498              	.LBE14:
  25:../../Classes/Temperamento/PlantConditioner.cpp ****         _scaleLength = 7;
 499              		.loc 1 25 5 is_stmt 1 view .LVU94
  26:../../Classes/Temperamento/PlantConditioner.cpp ****         for (int i = 0; i < 7; i++) _scale[i] = _minorNScale[i];
 500              		.loc 1 26 9 view .LVU95
 501              	.LBB15:
  27:../../Classes/Temperamento/PlantConditioner.cpp ****         break;
 502              		.loc 1 27 47 is_stmt 0 view .LVU96
 503 0106 D0F81438 		ldr	r3, [r0, #2068]	@ unaligned
 504 010a 05F5F864 		add	r4, r5, #1984
 505 010e D0F80C18 		ldr	r1, [r0, #2060]	@ unaligned
 506              	.LVL38:
  27:../../Classes/Temperamento/PlantConditioner.cpp ****         break;
 507              		.loc 1 27 47 view .LVU97
 508 0112 D0F81028 		ldr	r2, [r0, #2064]	@ unaligned
 509              	.LVL39:
  27:../../Classes/Temperamento/PlantConditioner.cpp ****         break;
 510              		.loc 1 27 47 view .LVU98
 511              	.LBE15:
  26:../../Classes/Temperamento/PlantConditioner.cpp ****         for (int i = 0; i < 7; i++) _scale[i] = _minorNScale[i];
 512              		.loc 1 26 22 view .LVU99
 513 0116 0720     		movs	r0, #7
 514              	.LVL40:
 515              	.LBB16:
  27:../../Classes/Temperamento/PlantConditioner.cpp ****         break;
 516              		.loc 1 27 47 view .LVU100
 517 0118 C5F8C837 		str	r3, [r5, #1992]	@ unaligned
 518 011c D5F81838 		ldr	r3, [r5, #2072]	@ unaligned
 519 0120 C5F8C017 		str	r1, [r5, #1984]	@ unaligned
 520 0124 C5F8C427 		str	r2, [r5, #1988]	@ unaligned
 521 0128 D5F81C18 		ldr	r1, [r5, #2076]	@ unaligned
 522 012c D5F82028 		ldr	r2, [r5, #2080]	@ unaligned
 523 0130 C5F8CC37 		str	r3, [r5, #1996]	@ unaligned
 524 0134 D5F82438 		ldr	r3, [r5, #2084]	@ unaligned
 525              	.LBE16:
  26:../../Classes/Temperamento/PlantConditioner.cpp ****         for (int i = 0; i < 7; i++) _scale[i] = _minorNScale[i];
 526              		.loc 1 26 22 view .LVU101
 527 0138 85F87907 		strb	r0, [r5, #1913]
  27:../../Classes/Temperamento/PlantConditioner.cpp ****         break;
 528              		.loc 1 27 9 is_stmt 1 view .LVU102
 529              	.LVL41:
 530              	.LBB17:
  27:../../Classes/Temperamento/PlantConditioner.cpp ****         break;
 531              		.loc 1 27 27 view .LVU103
  27:../../Classes/Temperamento/PlantConditioner.cpp ****         break;
 532              		.loc 1 27 47 is_stmt 0 view .LVU104
 533 013c C5F8D017 		str	r1, [r5, #2000]	@ unaligned
 534 0140 C5F8D427 		str	r2, [r5, #2004]	@ unaligned
 535 0144 C5F8D837 		str	r3, [r5, #2008]	@ unaligned
ARM GAS  C:\Users\skipi\AppData\Local\Temp\ccuD6iNw.s 			page 12


 536 0148 A6E7     		b	.L20
 537              	.LVL42:
 538              	.L17:
  27:../../Classes/Temperamento/PlantConditioner.cpp ****         break;
 539              		.loc 1 27 47 view .LVU105
 540              	.LBE17:
  29:../../Classes/Temperamento/PlantConditioner.cpp ****         _scaleLength = 7;
 541              		.loc 1 29 5 is_stmt 1 view .LVU106
  30:../../Classes/Temperamento/PlantConditioner.cpp ****         for (int i = 0; i < 7; i++) _scale[i] = _minorAScale[i];
 542              		.loc 1 30 9 view .LVU107
 543              	.LBB18:
  31:../../Classes/Temperamento/PlantConditioner.cpp ****         break;
 544              		.loc 1 31 47 is_stmt 0 view .LVU108
 545 014a D0F83038 		ldr	r3, [r0, #2096]	@ unaligned
 546 014e 05F5F864 		add	r4, r5, #1984
 547 0152 D0F82818 		ldr	r1, [r0, #2088]	@ unaligned
 548              	.LVL43:
  31:../../Classes/Temperamento/PlantConditioner.cpp ****         break;
 549              		.loc 1 31 47 view .LVU109
 550 0156 D0F82C28 		ldr	r2, [r0, #2092]	@ unaligned
 551              	.LVL44:
  31:../../Classes/Temperamento/PlantConditioner.cpp ****         break;
 552              		.loc 1 31 47 view .LVU110
 553              	.LBE18:
  30:../../Classes/Temperamento/PlantConditioner.cpp ****         for (int i = 0; i < 7; i++) _scale[i] = _minorAScale[i];
 554              		.loc 1 30 22 view .LVU111
 555 015a 0720     		movs	r0, #7
 556              	.LVL45:
 557              	.LBB19:
  31:../../Classes/Temperamento/PlantConditioner.cpp ****         break;
 558              		.loc 1 31 47 view .LVU112
 559 015c C5F8C837 		str	r3, [r5, #1992]	@ unaligned
 560 0160 D5F83438 		ldr	r3, [r5, #2100]	@ unaligned
 561 0164 C5F8C017 		str	r1, [r5, #1984]	@ unaligned
 562 0168 C5F8C427 		str	r2, [r5, #1988]	@ unaligned
 563 016c D5F83818 		ldr	r1, [r5, #2104]	@ unaligned
 564 0170 D5F83C28 		ldr	r2, [r5, #2108]	@ unaligned
 565 0174 C5F8CC37 		str	r3, [r5, #1996]	@ unaligned
 566 0178 D5F84038 		ldr	r3, [r5, #2112]	@ unaligned
 567              	.LBE19:
  30:../../Classes/Temperamento/PlantConditioner.cpp ****         for (int i = 0; i < 7; i++) _scale[i] = _minorAScale[i];
 568              		.loc 1 30 22 view .LVU113
 569 017c 85F87907 		strb	r0, [r5, #1913]
  31:../../Classes/Temperamento/PlantConditioner.cpp ****         break;
 570              		.loc 1 31 9 is_stmt 1 view .LVU114
 571              	.LVL46:
 572              	.LBB20:
  31:../../Classes/Temperamento/PlantConditioner.cpp ****         break;
 573              		.loc 1 31 27 view .LVU115
  31:../../Classes/Temperamento/PlantConditioner.cpp ****         break;
 574              		.loc 1 31 47 is_stmt 0 view .LVU116
 575 0180 C5F8D017 		str	r1, [r5, #2000]	@ unaligned
 576 0184 C5F8D427 		str	r2, [r5, #2004]	@ unaligned
 577 0188 C5F8D837 		str	r3, [r5, #2008]	@ unaligned
 578 018c 84E7     		b	.L20
 579              	.LVL47:
 580              	.L16:
ARM GAS  C:\Users\skipi\AppData\Local\Temp\ccuD6iNw.s 			page 13


  31:../../Classes/Temperamento/PlantConditioner.cpp ****         break;
 581              		.loc 1 31 47 view .LVU117
 582              	.LBE20:
  33:../../Classes/Temperamento/PlantConditioner.cpp ****         _scaleLength = 7;
 583              		.loc 1 33 5 is_stmt 1 view .LVU118
  34:../../Classes/Temperamento/PlantConditioner.cpp ****         for (int i = 0; i < 7; i++) _scale[i] = _minorMScale[i];
 584              		.loc 1 34 9 view .LVU119
 585              	.LBB21:
  35:../../Classes/Temperamento/PlantConditioner.cpp ****         break;
 586              		.loc 1 35 47 is_stmt 0 view .LVU120
 587 018e D0F84C38 		ldr	r3, [r0, #2124]	@ unaligned
 588 0192 05F5F864 		add	r4, r5, #1984
 589 0196 D0F84418 		ldr	r1, [r0, #2116]	@ unaligned
 590              	.LVL48:
  35:../../Classes/Temperamento/PlantConditioner.cpp ****         break;
 591              		.loc 1 35 47 view .LVU121
 592 019a D0F84828 		ldr	r2, [r0, #2120]	@ unaligned
 593              	.LVL49:
  35:../../Classes/Temperamento/PlantConditioner.cpp ****         break;
 594              		.loc 1 35 47 view .LVU122
 595              	.LBE21:
  34:../../Classes/Temperamento/PlantConditioner.cpp ****         for (int i = 0; i < 7; i++) _scale[i] = _minorMScale[i];
 596              		.loc 1 34 22 view .LVU123
 597 019e 0720     		movs	r0, #7
 598              	.LVL50:
 599              	.LBB22:
  35:../../Classes/Temperamento/PlantConditioner.cpp ****         break;
 600              		.loc 1 35 47 view .LVU124
 601 01a0 C5F8C837 		str	r3, [r5, #1992]	@ unaligned
 602 01a4 D5F85038 		ldr	r3, [r5, #2128]	@ unaligned
 603 01a8 C5F8C017 		str	r1, [r5, #1984]	@ unaligned
 604 01ac C5F8C427 		str	r2, [r5, #1988]	@ unaligned
 605 01b0 D5F85418 		ldr	r1, [r5, #2132]	@ unaligned
 606 01b4 D5F85828 		ldr	r2, [r5, #2136]	@ unaligned
 607 01b8 C5F8CC37 		str	r3, [r5, #1996]	@ unaligned
 608 01bc D5F85C38 		ldr	r3, [r5, #2140]	@ unaligned
 609              	.LBE22:
  34:../../Classes/Temperamento/PlantConditioner.cpp ****         for (int i = 0; i < 7; i++) _scale[i] = _minorMScale[i];
 610              		.loc 1 34 22 view .LVU125
 611 01c0 85F87907 		strb	r0, [r5, #1913]
  35:../../Classes/Temperamento/PlantConditioner.cpp ****         break;
 612              		.loc 1 35 9 is_stmt 1 view .LVU126
 613              	.LVL51:
 614              	.LBB23:
  35:../../Classes/Temperamento/PlantConditioner.cpp ****         break;
 615              		.loc 1 35 27 view .LVU127
  35:../../Classes/Temperamento/PlantConditioner.cpp ****         break;
 616              		.loc 1 35 47 is_stmt 0 view .LVU128
 617 01c4 C5F8D017 		str	r1, [r5, #2000]	@ unaligned
 618 01c8 C5F8D427 		str	r2, [r5, #2004]	@ unaligned
 619 01cc C5F8D837 		str	r3, [r5, #2008]	@ unaligned
 620 01d0 62E7     		b	.L20
 621              	.LVL52:
 622              	.L15:
  35:../../Classes/Temperamento/PlantConditioner.cpp ****         break;
 623              		.loc 1 35 47 view .LVU129
 624              	.LBE23:
ARM GAS  C:\Users\skipi\AppData\Local\Temp\ccuD6iNw.s 			page 14


  37:../../Classes/Temperamento/PlantConditioner.cpp ****         _scaleLength = 5;
 625              		.loc 1 37 5 is_stmt 1 view .LVU130
  38:../../Classes/Temperamento/PlantConditioner.cpp ****         for (int i = 0; i < 5; i++) _scale[i] = _pentatonicScale[i];
 626              		.loc 1 38 9 view .LVU131
 627              	.LBB24:
  39:../../Classes/Temperamento/PlantConditioner.cpp ****         break;
 628              		.loc 1 39 47 is_stmt 0 view .LVU132
 629 01d2 D0F86038 		ldr	r3, [r0, #2144]	@ unaligned
 630              	.LBE24:
  38:../../Classes/Temperamento/PlantConditioner.cpp ****         for (int i = 0; i < 5; i++) _scale[i] = _pentatonicScale[i];
 631              		.loc 1 38 22 view .LVU133
 632 01d6 0521     		movs	r1, #5
 633              	.LVL53:
 634              	.LBB25:
  39:../../Classes/Temperamento/PlantConditioner.cpp ****         break;
 635              		.loc 1 39 47 view .LVU134
 636 01d8 05F5F864 		add	r4, r5, #1984
 637 01dc C0F8C037 		str	r3, [r0, #1984]	@ unaligned
 638 01e0 D5F86838 		ldr	r3, [r5, #2152]	@ unaligned
 639 01e4 D0F86408 		ldr	r0, [r0, #2148]	@ unaligned
 640              	.LVL54:
  39:../../Classes/Temperamento/PlantConditioner.cpp ****         break;
 641              		.loc 1 39 47 view .LVU135
 642 01e8 D5F86C28 		ldr	r2, [r5, #2156]	@ unaligned
 643              	.LVL55:
  39:../../Classes/Temperamento/PlantConditioner.cpp ****         break;
 644              		.loc 1 39 47 view .LVU136
 645 01ec C5F8C837 		str	r3, [r5, #1992]	@ unaligned
 646 01f0 D5F87038 		ldr	r3, [r5, #2160]	@ unaligned
 647 01f4 C5F8C407 		str	r0, [r5, #1988]	@ unaligned
 648              	.LBE25:
  38:../../Classes/Temperamento/PlantConditioner.cpp ****         for (int i = 0; i < 5; i++) _scale[i] = _pentatonicScale[i];
 649              		.loc 1 38 22 view .LVU137
 650 01f8 85F87917 		strb	r1, [r5, #1913]
  39:../../Classes/Temperamento/PlantConditioner.cpp ****         break;
 651              		.loc 1 39 9 is_stmt 1 view .LVU138
 652              	.LVL56:
 653              	.LBB26:
  39:../../Classes/Temperamento/PlantConditioner.cpp ****         break;
 654              		.loc 1 39 27 view .LVU139
  39:../../Classes/Temperamento/PlantConditioner.cpp ****         break;
 655              		.loc 1 39 47 is_stmt 0 view .LVU140
 656 01fc C5F8CC27 		str	r2, [r5, #1996]	@ unaligned
 657 0200 C5F8D037 		str	r3, [r5, #2000]	@ unaligned
 658 0204 48E7     		b	.L20
 659              	.LBE26:
 660              	.LBE29:
 661              		.cfi_endproc
 662              	.LFE4852:
 664 0206 00BF     		.section	.text._ZN16PlantConditioner9setOctaveEh,"ax",%progbits
 665              		.align	1
 666              		.p2align 2,,3
 667              		.global	_ZN16PlantConditioner9setOctaveEh
 668              		.syntax unified
 669              		.thumb
 670              		.thumb_func
 671              		.fpu fpv5-d16
ARM GAS  C:\Users\skipi\AppData\Local\Temp\ccuD6iNw.s 			page 15


 673              	_ZN16PlantConditioner9setOctaveEh:
 674              	.LVL57:
 675              	.LFB4853:
  62:../../Classes/Temperamento/PlantConditioner.cpp **** 
  63:../../Classes/Temperamento/PlantConditioner.cpp **** void PlantConditioner::setOctave(uint8_t octave) {
 676              		.loc 1 63 50 is_stmt 1 view -0
 677              		.cfi_startproc
 678              		@ args = 0, pretend = 0, frame = 0
 679              		@ frame_needed = 0, uses_anonymous_args = 0
 680              		@ link register save eliminated.
  64:../../Classes/Temperamento/PlantConditioner.cpp ****     _octave = octave;
 681              		.loc 1 64 5 view .LVU142
 682              		.loc 1 64 13 is_stmt 0 view .LVU143
 683 0000 80F87817 		strb	r1, [r0, #1912]
  65:../../Classes/Temperamento/PlantConditioner.cpp **** }
 684              		.loc 1 65 1 view .LVU144
 685 0004 7047     		bx	lr
 686              		.cfi_endproc
 687              	.LFE4853:
 689 0006 00BF     		.section	.text._ZN16PlantConditioner7ProcessEtt,"ax",%progbits
 690              		.align	1
 691              		.p2align 2,,3
 692              		.global	_ZN16PlantConditioner7ProcessEtt
 693              		.syntax unified
 694              		.thumb
 695              		.thumb_func
 696              		.fpu fpv5-d16
 698              	_ZN16PlantConditioner7ProcessEtt:
 699              	.LVL58:
 700              	.LFB4854:
  66:../../Classes/Temperamento/PlantConditioner.cpp **** 
  67:../../Classes/Temperamento/PlantConditioner.cpp **** float PlantConditioner::Process(uint16_t baseline, uint16_t filtered) {
 701              		.loc 1 67 71 is_stmt 1 view -0
 702              		.cfi_startproc
 703              		@ args = 0, pretend = 0, frame = 0
 704              		@ frame_needed = 0, uses_anonymous_args = 0
  68:../../Classes/Temperamento/PlantConditioner.cpp ****     float out = 0.0f;
 705              		.loc 1 68 5 view .LVU146
  69:../../Classes/Temperamento/PlantConditioner.cpp ****     
  70:../../Classes/Temperamento/PlantConditioner.cpp ****     // Calcolo Delta
  71:../../Classes/Temperamento/PlantConditioner.cpp ****     // Nota: cast a int per gestire numeri negativi prima del float
  72:../../Classes/Temperamento/PlantConditioner.cpp ****     _delta = (float)baseline - (float)filtered - (float)_touchThreshold;
 706              		.loc 1 72 5 view .LVU147
 707              		.loc 1 72 14 is_stmt 0 view .LVU148
 708 0000 07EE901A 		vmov	s15, r1	@ int
 709              		.loc 1 72 32 view .LVU149
 710 0004 07EE102A 		vmov	s14, r2	@ int
  67:../../Classes/Temperamento/PlantConditioner.cpp ****     float out = 0.0f;
 711              		.loc 1 67 71 view .LVU150
 712 0008 2DE9F84F 		push	{r3, r4, r5, r6, r7, r8, r9, r10, fp, lr}
 713              		.cfi_def_cfa_offset 40
 714              		.cfi_offset 3, -40
 715              		.cfi_offset 4, -36
 716              		.cfi_offset 5, -32
 717              		.cfi_offset 6, -28
 718              		.cfi_offset 7, -24
 719              		.cfi_offset 8, -20
ARM GAS  C:\Users\skipi\AppData\Local\Temp\ccuD6iNw.s 			page 16


 720              		.cfi_offset 9, -16
 721              		.cfi_offset 10, -12
 722              		.cfi_offset 11, -8
 723              		.cfi_offset 14, -4
 724 000c 2DED048B 		vpush.64	{d8, d9}
 725              		.cfi_def_cfa_offset 56
 726              		.cfi_offset 80, -56
 727              		.cfi_offset 81, -52
 728              		.cfi_offset 82, -48
 729              		.cfi_offset 83, -44
 730              		.loc 1 72 50 view .LVU151
 731 0010 0378     		ldrb	r3, [r0]	@ zero_extendqisi2
 732              		.loc 1 72 32 view .LVU152
 733 0012 B8EE477A 		vcvt.f32.u32	s14, s14
 734              		.loc 1 72 14 view .LVU153
 735 0016 F8EE677A 		vcvt.f32.u32	s15, s15
  67:../../Classes/Temperamento/PlantConditioner.cpp ****     float out = 0.0f;
 736              		.loc 1 67 71 view .LVU154
 737 001a 0446     		mov	r4, r0
 738              		.loc 1 72 50 view .LVU155
 739 001c 00EE103A 		vmov	s0, r3	@ int
 740              		.loc 1 72 12 view .LVU156
 741 0020 00F5F163 		add	r3, r0, #1928
 742              	.LBB30:
  73:../../Classes/Temperamento/PlantConditioner.cpp ****     
  74:../../Classes/Temperamento/PlantConditioner.cpp ****     // Filtraggio
  75:../../Classes/Temperamento/PlantConditioner.cpp ****     _deltaFilt = _deltaFilter.Process(_deltaFilterMF.Process(_delta));
  76:../../Classes/Temperamento/PlantConditioner.cpp **** 
  77:../../Classes/Temperamento/PlantConditioner.cpp ****     // Saturazione limiti
  78:../../Classes/Temperamento/PlantConditioner.cpp ****     if (_deltaFilt < _deltaMin) {
 743              		.loc 1 78 22 view .LVU157
 744 0024 04F27C77 		addw	r7, r4, #1916
 745              	.LBE30:
  75:../../Classes/Temperamento/PlantConditioner.cpp **** 
 746              		.loc 1 75 38 view .LVU158
 747 0028 4C30     		adds	r0, r0, #76
 748              	.LVL59:
  72:../../Classes/Temperamento/PlantConditioner.cpp ****     
 749              		.loc 1 72 30 view .LVU159
 750 002a 77EEC77A 		vsub.f32	s15, s15, s14
  75:../../Classes/Temperamento/PlantConditioner.cpp **** 
 751              		.loc 1 75 16 view .LVU160
 752 002e 04F28C79 		addw	r9, r4, #1932
  72:../../Classes/Temperamento/PlantConditioner.cpp ****     
 753              		.loc 1 72 50 view .LVU161
 754 0032 B8EE400A 		vcvt.f32.u32	s0, s0
  72:../../Classes/Temperamento/PlantConditioner.cpp ****     
 755              		.loc 1 72 48 view .LVU162
 756 0036 37EEC00A 		vsub.f32	s0, s15, s0
  72:../../Classes/Temperamento/PlantConditioner.cpp ****     
 757              		.loc 1 72 12 view .LVU163
 758 003a 83ED000A 		vstr.32	s0, [r3]
  75:../../Classes/Temperamento/PlantConditioner.cpp **** 
 759              		.loc 1 75 5 is_stmt 1 view .LVU164
  75:../../Classes/Temperamento/PlantConditioner.cpp **** 
 760              		.loc 1 75 38 is_stmt 0 view .LVU165
 761 003e FFF7FEFF 		bl	_ZN2MF7ProcessEf
ARM GAS  C:\Users\skipi\AppData\Local\Temp\ccuD6iNw.s 			page 17


 762              	.LVL60:
  75:../../Classes/Temperamento/PlantConditioner.cpp **** 
 763              		.loc 1 75 38 view .LVU166
 764 0042 201D     		adds	r0, r4, #4
 765 0044 FFF7FEFF 		bl	_ZN3IIR7ProcessEf
 766              	.LVL61:
 767              	.LBB40:
 768              		.loc 1 78 22 view .LVU167
 769 0048 97ED008A 		vldr.32	s16, [r7]
 770              	.LBE40:
  75:../../Classes/Temperamento/PlantConditioner.cpp **** 
 771              		.loc 1 75 16 view .LVU168
 772 004c 89ED000A 		vstr.32	s0, [r9]
 773              		.loc 1 78 5 is_stmt 1 view .LVU169
 774              	.LBB41:
 775 0050 B4EEC80A 		vcmpe.f32	s0, s16
 776 0054 F1EE10FA 		vmrs	APSR_nzcv, FPSCR
 777 0058 14D5     		bpl	.L46
  79:../../Classes/Temperamento/PlantConditioner.cpp ****         // Sotto il minimo: suona la nota più bassa o silenzio? 
  80:../../Classes/Temperamento/PlantConditioner.cpp ****         // Dal tuo codice sembra suonare la prima nota scale[0]
  81:../../Classes/Temperamento/PlantConditioner.cpp ****         out = _scale[0] * (1 << _octave); 
 778              		.loc 1 81 9 view .LVU170
 779              		.loc 1 81 33 is_stmt 0 view .LVU171
 780 005a 94F87807 		ldrb	r0, [r4, #1912]	@ zero_extendqisi2
 781              		.loc 1 81 30 view .LVU172
 782 005e 0123     		movs	r3, #1
 783              		.loc 1 81 23 view .LVU173
 784 0060 04F5F861 		add	r1, r4, #1984
  82:../../Classes/Temperamento/PlantConditioner.cpp ****         _lastNoteIndex = 0;
 785              		.loc 1 82 24 view .LVU174
 786 0064 0022     		movs	r2, #0
  81:../../Classes/Temperamento/PlantConditioner.cpp ****         _lastNoteIndex = 0;
 787              		.loc 1 81 30 view .LVU175
 788 0066 8340     		lsls	r3, r3, r0
  81:../../Classes/Temperamento/PlantConditioner.cpp ****         _lastNoteIndex = 0;
 789              		.loc 1 81 13 view .LVU176
 790 0068 D1ED007A 		vldr.32	s15, [r1]
  81:../../Classes/Temperamento/PlantConditioner.cpp ****         _lastNoteIndex = 0;
 791              		.loc 1 81 30 view .LVU177
 792 006c 00EE103A 		vmov	s0, r3	@ int
 793              		.loc 1 82 24 view .LVU178
 794 0070 C4F87027 		str	r2, [r4, #1904]
  81:../../Classes/Temperamento/PlantConditioner.cpp ****         _lastNoteIndex = 0;
 795              		.loc 1 81 25 view .LVU179
 796 0074 B8EEC00A 		vcvt.f32.s32	s0, s0
  81:../../Classes/Temperamento/PlantConditioner.cpp ****         _lastNoteIndex = 0;
 797              		.loc 1 81 13 view .LVU180
 798 0078 20EE270A 		vmul.f32	s0, s0, s15
 799              	.LVL62:
 800              		.loc 1 82 9 is_stmt 1 view .LVU181
 801              	.L31:
 802              		.loc 1 82 9 is_stmt 0 view .LVU182
 803              	.LBE41:
  83:../../Classes/Temperamento/PlantConditioner.cpp ****     }
  84:../../Classes/Temperamento/PlantConditioner.cpp ****     else if (_deltaFilt > _deltaMax) {
  85:../../Classes/Temperamento/PlantConditioner.cpp ****         // Sopra il massimo: suona l'ultima nota
  86:../../Classes/Temperamento/PlantConditioner.cpp ****         out = _scale[_scaleLength - 1] * (1 << _octave);
ARM GAS  C:\Users\skipi\AppData\Local\Temp\ccuD6iNw.s 			page 18


  87:../../Classes/Temperamento/PlantConditioner.cpp ****         _lastNoteIndex = _scaleLength - 1;
  88:../../Classes/Temperamento/PlantConditioner.cpp ****     }
  89:../../Classes/Temperamento/PlantConditioner.cpp ****     else {
  90:../../Classes/Temperamento/PlantConditioner.cpp ****         // Ricerca del Bin corretto
  91:../../Classes/Temperamento/PlantConditioner.cpp ****         for (int i = 0; i < _scaleLength; i++) {
  92:../../Classes/Temperamento/PlantConditioner.cpp **** 
  93:../../Classes/Temperamento/PlantConditioner.cpp ****             // Calcolo limiti del bin corrente
  94:../../Classes/Temperamento/PlantConditioner.cpp ****             float lower = _deltaMin + _range * powf((float)i / _scaleLength, _curveType);
  95:../../Classes/Temperamento/PlantConditioner.cpp ****             float upper = _deltaMin + _range * powf((float)(i+1) / _scaleLength, _curveType);
  96:../../Classes/Temperamento/PlantConditioner.cpp ****             
  97:../../Classes/Temperamento/PlantConditioner.cpp ****             // Calcolo Isteresi dinamica (più grande per note alte)
  98:../../Classes/Temperamento/PlantConditioner.cpp ****             float currentHisteresis = _histeresis * powf((float)(i+1) / _scaleLength, _curveType); 
  99:../../Classes/Temperamento/PlantConditioner.cpp **** 
 100:../../Classes/Temperamento/PlantConditioner.cpp ****             // --- LOGICA ISTERESI APPLICATA ---
 101:../../Classes/Temperamento/PlantConditioner.cpp ****             // Se questa è la nota che stiamo già suonando, allarghiamo i suoi confini
 102:../../Classes/Temperamento/PlantConditioner.cpp ****             // per renderla "appiccicosa" e non farla cambiare per piccoli rumori.
 103:../../Classes/Temperamento/PlantConditioner.cpp ****             if (i == _lastNoteIndex) {
 104:../../Classes/Temperamento/PlantConditioner.cpp ****                 lower -= currentHisteresis;
 105:../../Classes/Temperamento/PlantConditioner.cpp ****                 upper += currentHisteresis;
 106:../../Classes/Temperamento/PlantConditioner.cpp ****             }
 107:../../Classes/Temperamento/PlantConditioner.cpp **** 
 108:../../Classes/Temperamento/PlantConditioner.cpp ****             // Check se siamo dentro il bin
 109:../../Classes/Temperamento/PlantConditioner.cpp ****             if (_deltaFilt >= lower && _deltaFilt < upper) {
 110:../../Classes/Temperamento/PlantConditioner.cpp ****                 out = _scale[i] * (1 << _octave); // Frequenza base * 2^ottava
 111:../../Classes/Temperamento/PlantConditioner.cpp ****                 _lastNoteIndex = i; // Memorizza questa nota come attiva
 112:../../Classes/Temperamento/PlantConditioner.cpp ****                 break;
 113:../../Classes/Temperamento/PlantConditioner.cpp ****             }
 114:../../Classes/Temperamento/PlantConditioner.cpp ****         }
 115:../../Classes/Temperamento/PlantConditioner.cpp ****     }
 116:../../Classes/Temperamento/PlantConditioner.cpp ****     
 117:../../Classes/Temperamento/PlantConditioner.cpp ****     return out;
 118:../../Classes/Temperamento/PlantConditioner.cpp **** }
 804              		.loc 1 118 1 view .LVU183
 805 007c BDEC048B 		vldm	sp!, {d8-d9}
 806              		.cfi_remember_state
 807              		.cfi_restore 82
 808              		.cfi_restore 83
 809              		.cfi_restore 80
 810              		.cfi_restore 81
 811              		.cfi_def_cfa_offset 40
 812 0080 BDE8F88F 		pop	{r3, r4, r5, r6, r7, r8, r9, r10, fp, pc}
 813              	.LVL63:
 814              	.L46:
 815              		.cfi_restore_state
  84:../../Classes/Temperamento/PlantConditioner.cpp ****         // Sopra il massimo: suona l'ultima nota
 816              		.loc 1 84 10 is_stmt 1 view .LVU184
 817              	.LBB42:
 818              	.LBB31:
  84:../../Classes/Temperamento/PlantConditioner.cpp ****         // Sopra il massimo: suona l'ultima nota
 819              		.loc 1 84 27 is_stmt 0 view .LVU185
 820 0084 04F5F063 		add	r3, r4, #1920
  84:../../Classes/Temperamento/PlantConditioner.cpp ****         // Sopra il massimo: suona l'ultima nota
 821              		.loc 1 84 10 view .LVU186
 822 0088 D3ED007A 		vldr.32	s15, [r3]
 823 008c B4EEE70A 		vcmpe.f32	s0, s15
 824 0090 F1EE10FA 		vmrs	APSR_nzcv, FPSCR
 825 0094 65DC     		bgt	.L35
ARM GAS  C:\Users\skipi\AppData\Local\Temp\ccuD6iNw.s 			page 19


 826              	.LVL64:
 827              	.LBB32:
  91:../../Classes/Temperamento/PlantConditioner.cpp **** 
 828              		.loc 1 91 27 is_stmt 1 view .LVU187
  91:../../Classes/Temperamento/PlantConditioner.cpp **** 
 829              		.loc 1 91 29 is_stmt 0 view .LVU188
 830 0096 94F87937 		ldrb	r3, [r4, #1913]	@ zero_extendqisi2
  91:../../Classes/Temperamento/PlantConditioner.cpp **** 
 831              		.loc 1 91 27 view .LVU189
 832 009a 002B     		cmp	r3, #0
 833 009c 5BD0     		beq	.L37
  91:../../Classes/Temperamento/PlantConditioner.cpp **** 
 834              		.loc 1 91 18 view .LVU190
 835 009e 4FF0000B 		mov	fp, #0
 836 00a2 04F28478 		addw	r8, r4, #1924
 837 00a6 04F27476 		addw	r6, r4, #1908
 838 00aa 04F26C7A 		addw	r10, r4, #1900
 839 00ae 01E0     		b	.L36
 840              	.LVL65:
 841              	.L49:
 842              	.LBB33:
  94:../../Classes/Temperamento/PlantConditioner.cpp ****             float upper = _deltaMin + _range * powf((float)(i+1) / _scaleLength, _curveType);
 843              		.loc 1 94 27 view .LVU191
 844 00b0 97ED008A 		vldr.32	s16, [r7]
 845              	.LVL66:
 846              	.L36:
  94:../../Classes/Temperamento/PlantConditioner.cpp ****             float upper = _deltaMin + _range * powf((float)(i+1) / _scaleLength, _curveType);
 847              		.loc 1 94 13 is_stmt 1 view .LVU192
  94:../../Classes/Temperamento/PlantConditioner.cpp ****             float upper = _deltaMin + _range * powf((float)(i+1) / _scaleLength, _curveType);
 848              		.loc 1 94 52 is_stmt 0 view .LVU193
 849 00b4 07EE10BA 		vmov	s14, fp	@ int
 850 00b8 07EE903A 		vmov	s15, r3	@ int
  95:../../Classes/Temperamento/PlantConditioner.cpp ****             
 851              		.loc 1 95 62 view .LVU194
 852 00bc 0BF10105 		add	r5, fp, #1
  94:../../Classes/Temperamento/PlantConditioner.cpp ****             float upper = _deltaMin + _range * powf((float)(i+1) / _scaleLength, _curveType);
 853              		.loc 1 94 52 view .LVU195
 854 00c0 D6ED000A 		vldr.32	s1, [r6]
 855 00c4 B8EEC70A 		vcvt.f32.s32	s0, s14
  94:../../Classes/Temperamento/PlantConditioner.cpp ****             float upper = _deltaMin + _range * powf((float)(i+1) / _scaleLength, _curveType);
 856              		.loc 1 94 39 view .LVU196
 857 00c8 D8ED008A 		vldr.32	s17, [r8]
  94:../../Classes/Temperamento/PlantConditioner.cpp ****             float upper = _deltaMin + _range * powf((float)(i+1) / _scaleLength, _curveType);
 858              		.loc 1 94 52 view .LVU197
 859 00cc F8EEE77A 		vcvt.f32.s32	s15, s15
 860 00d0 80EE270A 		vdiv.f32	s0, s0, s15
 861 00d4 FFF7FEFF 		bl	powf
 862              	.LVL67:
  95:../../Classes/Temperamento/PlantConditioner.cpp ****             
 863              		.loc 1 95 68 view .LVU198
 864 00d8 94F87937 		ldrb	r3, [r4, #1913]	@ zero_extendqisi2
  95:../../Classes/Temperamento/PlantConditioner.cpp ****             
 865              		.loc 1 95 53 view .LVU199
 866 00dc 07EE905A 		vmov	s15, r5	@ int
  95:../../Classes/Temperamento/PlantConditioner.cpp ****             
 867              		.loc 1 95 52 view .LVU200
 868 00e0 D6ED000A 		vldr.32	s1, [r6]
ARM GAS  C:\Users\skipi\AppData\Local\Temp\ccuD6iNw.s 			page 20


  95:../../Classes/Temperamento/PlantConditioner.cpp ****             
 869              		.loc 1 95 39 view .LVU201
 870 00e4 D8ED009A 		vldr.32	s19, [r8]
  95:../../Classes/Temperamento/PlantConditioner.cpp ****             
 871              		.loc 1 95 53 view .LVU202
 872 00e8 B8EEE79A 		vcvt.f32.s32	s18, s15
  95:../../Classes/Temperamento/PlantConditioner.cpp ****             
 873              		.loc 1 95 52 view .LVU203
 874 00ec 07EE903A 		vmov	s15, r3	@ int
  94:../../Classes/Temperamento/PlantConditioner.cpp ****             float upper = _deltaMin + _range * powf((float)(i+1) / _scaleLength, _curveType);
 875              		.loc 1 94 88 view .LVU204
 876 00f0 A8EE808A 		vfma.f32	s16, s17, s0
 877              	.LVL68:
  95:../../Classes/Temperamento/PlantConditioner.cpp ****             
 878              		.loc 1 95 13 is_stmt 1 view .LVU205
  95:../../Classes/Temperamento/PlantConditioner.cpp ****             
 879              		.loc 1 95 27 is_stmt 0 view .LVU206
 880 00f4 D7ED008A 		vldr.32	s17, [r7]
  95:../../Classes/Temperamento/PlantConditioner.cpp ****             
 881              		.loc 1 95 52 view .LVU207
 882 00f8 B8EEE70A 		vcvt.f32.s32	s0, s15
 883 00fc 89EE000A 		vdiv.f32	s0, s18, s0
 884 0100 FFF7FEFF 		bl	powf
 885              	.LVL69:
  98:../../Classes/Temperamento/PlantConditioner.cpp **** 
 886              		.loc 1 98 73 view .LVU208
 887 0104 94F87937 		ldrb	r3, [r4, #1913]	@ zero_extendqisi2
  98:../../Classes/Temperamento/PlantConditioner.cpp **** 
 888              		.loc 1 98 57 view .LVU209
 889 0108 D6ED000A 		vldr.32	s1, [r6]
 890 010c 07EE903A 		vmov	s15, r3	@ int
  95:../../Classes/Temperamento/PlantConditioner.cpp ****             
 891              		.loc 1 95 92 view .LVU210
 892 0110 E9EE808A 		vfma.f32	s17, s19, s0
 893              	.LVL70:
  98:../../Classes/Temperamento/PlantConditioner.cpp **** 
 894              		.loc 1 98 13 is_stmt 1 view .LVU211
  98:../../Classes/Temperamento/PlantConditioner.cpp **** 
 895              		.loc 1 98 39 is_stmt 0 view .LVU212
 896 0114 DAED009A 		vldr.32	s19, [r10]
  98:../../Classes/Temperamento/PlantConditioner.cpp **** 
 897              		.loc 1 98 57 view .LVU213
 898 0118 B8EEE70A 		vcvt.f32.s32	s0, s15
 899 011c 89EE000A 		vdiv.f32	s0, s18, s0
 900 0120 FFF7FEFF 		bl	powf
 901              	.LVL71:
  98:../../Classes/Temperamento/PlantConditioner.cpp **** 
 902              		.loc 1 98 57 view .LVU214
 903              	.LBE33:
  91:../../Classes/Temperamento/PlantConditioner.cpp **** 
 904              		.loc 1 91 27 is_stmt 1 view .LVU215
 905              	.LBB34:
 103:../../Classes/Temperamento/PlantConditioner.cpp ****                 lower -= currentHisteresis;
 906              		.loc 1 103 13 is_stmt 0 view .LVU216
 907 0124 D4F87037 		ldr	r3, [r4, #1904]
 908              	.LVL72:
 103:../../Classes/Temperamento/PlantConditioner.cpp ****                 lower -= currentHisteresis;
ARM GAS  C:\Users\skipi\AppData\Local\Temp\ccuD6iNw.s 			page 21


 909              		.loc 1 103 13 is_stmt 1 view .LVU217
 910 0128 5B45     		cmp	r3, fp
 911 012a 03D1     		bne	.L38
 104:../../Classes/Temperamento/PlantConditioner.cpp ****                 upper += currentHisteresis;
 912              		.loc 1 104 17 view .LVU218
 104:../../Classes/Temperamento/PlantConditioner.cpp ****                 upper += currentHisteresis;
 913              		.loc 1 104 23 is_stmt 0 view .LVU219
 914 012c A9EEC08A 		vfms.f32	s16, s19, s0
 915              	.LVL73:
 105:../../Classes/Temperamento/PlantConditioner.cpp ****             }
 916              		.loc 1 105 17 is_stmt 1 view .LVU220
 105:../../Classes/Temperamento/PlantConditioner.cpp ****             }
 917              		.loc 1 105 23 is_stmt 0 view .LVU221
 918 0130 E9EE808A 		vfma.f32	s17, s19, s0
 919              	.LVL74:
 920              	.L38:
 109:../../Classes/Temperamento/PlantConditioner.cpp ****                 out = _scale[i] * (1 << _octave); // Frequenza base * 2^ottava
 921              		.loc 1 109 13 is_stmt 1 view .LVU222
 109:../../Classes/Temperamento/PlantConditioner.cpp ****                 out = _scale[i] * (1 << _octave); // Frequenza base * 2^ottava
 922              		.loc 1 109 17 is_stmt 0 view .LVU223
 923 0134 D9ED007A 		vldr.32	s15, [r9]
 109:../../Classes/Temperamento/PlantConditioner.cpp ****                 out = _scale[i] * (1 << _octave); // Frequenza base * 2^ottava
 924              		.loc 1 109 13 view .LVU224
 925 0138 F4EEC87A 		vcmpe.f32	s15, s16
 926 013c F1EE10FA 		vmrs	APSR_nzcv, FPSCR
 927 0140 04DB     		blt	.L39
 109:../../Classes/Temperamento/PlantConditioner.cpp ****                 out = _scale[i] * (1 << _octave); // Frequenza base * 2^ottava
 928              		.loc 1 109 37 discriminator 1 view .LVU225
 929 0142 F4EEE87A 		vcmpe.f32	s15, s17
 930 0146 F1EE10FA 		vmrs	APSR_nzcv, FPSCR
 931 014a 23D4     		bmi	.L48
 932              	.L39:
 933              	.LBE34:
  91:../../Classes/Temperamento/PlantConditioner.cpp **** 
 934              		.loc 1 91 29 discriminator 1 view .LVU226
 935 014c 94F87937 		ldrb	r3, [r4, #1913]	@ zero_extendqisi2
 936              	.LBB35:
  94:../../Classes/Temperamento/PlantConditioner.cpp ****             float upper = _deltaMin + _range * powf((float)(i+1) / _scaleLength, _curveType);
 937              		.loc 1 94 27 discriminator 1 view .LVU227
 938 0150 AB46     		mov	fp, r5
 939              	.LBE35:
  91:../../Classes/Temperamento/PlantConditioner.cpp **** 
 940              		.loc 1 91 27 discriminator 1 view .LVU228
 941 0152 AB42     		cmp	r3, r5
 942 0154 ACDC     		bgt	.L49
 943              	.LVL75:
 944              	.L37:
  91:../../Classes/Temperamento/PlantConditioner.cpp **** 
 945              		.loc 1 91 27 discriminator 1 view .LVU229
 946              	.LBE32:
 947              	.LBE31:
 948              	.LBE42:
 949              		.loc 1 118 1 view .LVU230
 950 0156 BDEC048B 		vldm	sp!, {d8-d9}
 951              		.cfi_remember_state
 952              		.cfi_restore 82
 953              		.cfi_restore 83
ARM GAS  C:\Users\skipi\AppData\Local\Temp\ccuD6iNw.s 			page 22


 954              		.cfi_restore 80
 955              		.cfi_restore 81
 956              		.cfi_def_cfa_offset 40
  68:../../Classes/Temperamento/PlantConditioner.cpp ****     
 957              		.loc 1 68 11 view .LVU231
 958 015a 9FED180A 		vldr.32	s0, .L50
 959              		.loc 1 118 1 view .LVU232
 960 015e BDE8F88F 		pop	{r3, r4, r5, r6, r7, r8, r9, r10, fp, pc}
 961              	.LVL76:
 962              	.L35:
 963              		.cfi_restore_state
 964              	.LBB43:
 965              	.LBB38:
  86:../../Classes/Temperamento/PlantConditioner.cpp ****         _lastNoteIndex = _scaleLength - 1;
 966              		.loc 1 86 9 is_stmt 1 view .LVU233
  86:../../Classes/Temperamento/PlantConditioner.cpp ****         _lastNoteIndex = _scaleLength - 1;
 967              		.loc 1 86 48 is_stmt 0 view .LVU234
 968 0162 94F87807 		ldrb	r0, [r4, #1912]	@ zero_extendqisi2
  86:../../Classes/Temperamento/PlantConditioner.cpp ****         _lastNoteIndex = _scaleLength - 1;
 969              		.loc 1 86 45 view .LVU235
 970 0166 0123     		movs	r3, #1
  86:../../Classes/Temperamento/PlantConditioner.cpp ****         _lastNoteIndex = _scaleLength - 1;
 971              		.loc 1 86 22 view .LVU236
 972 0168 94F87927 		ldrb	r2, [r4, #1913]	@ zero_extendqisi2
  86:../../Classes/Temperamento/PlantConditioner.cpp ****         _lastNoteIndex = _scaleLength - 1;
 973              		.loc 1 86 45 view .LVU237
 974 016c 8340     		lsls	r3, r3, r0
  86:../../Classes/Temperamento/PlantConditioner.cpp ****         _lastNoteIndex = _scaleLength - 1;
 975              		.loc 1 86 38 view .LVU238
 976 016e 02F2EF11 		addw	r1, r2, #495
  86:../../Classes/Temperamento/PlantConditioner.cpp ****         _lastNoteIndex = _scaleLength - 1;
 977              		.loc 1 86 35 view .LVU239
 978 0172 013A     		subs	r2, r2, #1
  86:../../Classes/Temperamento/PlantConditioner.cpp ****         _lastNoteIndex = _scaleLength - 1;
 979              		.loc 1 86 45 view .LVU240
 980 0174 00EE103A 		vmov	s0, r3	@ int
  86:../../Classes/Temperamento/PlantConditioner.cpp ****         _lastNoteIndex = _scaleLength - 1;
 981              		.loc 1 86 38 view .LVU241
 982 0178 04EB8103 		add	r3, r4, r1, lsl #2
  86:../../Classes/Temperamento/PlantConditioner.cpp ****         _lastNoteIndex = _scaleLength - 1;
 983              		.loc 1 86 40 view .LVU242
 984 017c B8EEC00A 		vcvt.f32.s32	s0, s0
  86:../../Classes/Temperamento/PlantConditioner.cpp ****         _lastNoteIndex = _scaleLength - 1;
 985              		.loc 1 86 13 view .LVU243
 986 0180 D3ED007A 		vldr.32	s15, [r3]
  87:../../Classes/Temperamento/PlantConditioner.cpp ****     }
 987              		.loc 1 87 24 view .LVU244
 988 0184 C4F87027 		str	r2, [r4, #1904]
  86:../../Classes/Temperamento/PlantConditioner.cpp ****         _lastNoteIndex = _scaleLength - 1;
 989              		.loc 1 86 13 view .LVU245
 990 0188 20EE270A 		vmul.f32	s0, s0, s15
 991              	.LVL77:
  87:../../Classes/Temperamento/PlantConditioner.cpp ****     }
 992              		.loc 1 87 9 is_stmt 1 view .LVU246
 993              	.LBE38:
 994              	.LBE43:
 995              		.loc 1 118 1 is_stmt 0 view .LVU247
ARM GAS  C:\Users\skipi\AppData\Local\Temp\ccuD6iNw.s 			page 23


 996 018c BDEC048B 		vldm	sp!, {d8-d9}
 997              		.cfi_remember_state
 998              		.cfi_restore 82
 999              		.cfi_restore 83
 1000              		.cfi_restore 80
 1001              		.cfi_restore 81
 1002              		.cfi_def_cfa_offset 40
 1003 0190 BDE8F88F 		pop	{r3, r4, r5, r6, r7, r8, r9, r10, fp, pc}
 1004              	.LVL78:
 1005              	.L48:
 1006              		.cfi_restore_state
 1007              	.LBB44:
 1008              	.LBB39:
 1009              	.LBB37:
 1010              	.LBB36:
 110:../../Classes/Temperamento/PlantConditioner.cpp ****                 _lastNoteIndex = i; // Memorizza questa nota come attiva
 1011              		.loc 1 110 17 is_stmt 1 view .LVU248
 110:../../Classes/Temperamento/PlantConditioner.cpp ****                 _lastNoteIndex = i; // Memorizza questa nota come attiva
 1012              		.loc 1 110 41 is_stmt 0 view .LVU249
 1013 0194 94F87817 		ldrb	r1, [r4, #1912]	@ zero_extendqisi2
 110:../../Classes/Temperamento/PlantConditioner.cpp ****                 _lastNoteIndex = i; // Memorizza questa nota come attiva
 1014              		.loc 1 110 38 view .LVU250
 1015 0198 0123     		movs	r3, #1
 110:../../Classes/Temperamento/PlantConditioner.cpp ****                 _lastNoteIndex = i; // Memorizza questa nota come attiva
 1016              		.loc 1 110 31 view .LVU251
 1017 019a 0BF5F872 		add	r2, fp, #496
 110:../../Classes/Temperamento/PlantConditioner.cpp ****                 _lastNoteIndex = i; // Memorizza questa nota come attiva
 1018              		.loc 1 110 38 view .LVU252
 1019 019e 8B40     		lsls	r3, r3, r1
 1020 01a0 00EE103A 		vmov	s0, r3	@ int
 1021              	.LVL79:
 110:../../Classes/Temperamento/PlantConditioner.cpp ****                 _lastNoteIndex = i; // Memorizza questa nota come attiva
 1022              		.loc 1 110 31 view .LVU253
 1023 01a4 04EB8203 		add	r3, r4, r2, lsl #2
 110:../../Classes/Temperamento/PlantConditioner.cpp ****                 _lastNoteIndex = i; // Memorizza questa nota come attiva
 1024              		.loc 1 110 33 view .LVU254
 1025 01a8 B8EEC00A 		vcvt.f32.s32	s0, s0
 110:../../Classes/Temperamento/PlantConditioner.cpp ****                 _lastNoteIndex = i; // Memorizza questa nota come attiva
 1026              		.loc 1 110 21 view .LVU255
 1027 01ac D3ED007A 		vldr.32	s15, [r3]
 111:../../Classes/Temperamento/PlantConditioner.cpp ****                 break;
 1028              		.loc 1 111 32 view .LVU256
 1029 01b0 C4F870B7 		str	fp, [r4, #1904]
 110:../../Classes/Temperamento/PlantConditioner.cpp ****                 _lastNoteIndex = i; // Memorizza questa nota come attiva
 1030              		.loc 1 110 21 view .LVU257
 1031 01b4 20EE270A 		vmul.f32	s0, s0, s15
 1032              	.LVL80:
 111:../../Classes/Temperamento/PlantConditioner.cpp ****                 break;
 1033              		.loc 1 111 17 is_stmt 1 view .LVU258
 112:../../Classes/Temperamento/PlantConditioner.cpp ****             }
 1034              		.loc 1 112 17 view .LVU259
 112:../../Classes/Temperamento/PlantConditioner.cpp ****             }
 1035              		.loc 1 112 17 is_stmt 0 view .LVU260
 1036              	.LBE36:
 1037              	.LBE37:
 1038              	.LBE39:
 1039              	.LBE44:
ARM GAS  C:\Users\skipi\AppData\Local\Temp\ccuD6iNw.s 			page 24


 117:../../Classes/Temperamento/PlantConditioner.cpp **** }
 1040              		.loc 1 117 5 is_stmt 1 view .LVU261
 117:../../Classes/Temperamento/PlantConditioner.cpp **** }
 1041              		.loc 1 117 12 is_stmt 0 view .LVU262
 1042 01b8 60E7     		b	.L31
 1043              	.L51:
 1044 01ba 00BF     		.align	2
 1045              	.L50:
 1046 01bc 00000000 		.word	0
 1047              		.cfi_endproc
 1048              	.LFE4854:
 1050              		.section	.text._ZN16PlantConditioner8setCurveEhf,"ax",%progbits
 1051              		.align	1
 1052              		.p2align 2,,3
 1053              		.global	_ZN16PlantConditioner8setCurveEhf
 1054              		.syntax unified
 1055              		.thumb
 1056              		.thumb_func
 1057              		.fpu fpv5-d16
 1059              	_ZN16PlantConditioner8setCurveEhf:
 1060              	.LVL81:
 1061              	.LFB4855:
 119:../../Classes/Temperamento/PlantConditioner.cpp **** 
 120:../../Classes/Temperamento/PlantConditioner.cpp **** void PlantConditioner::setCurve(uint8_t delta_max, float curve_type) {
 1062              		.loc 1 120 70 is_stmt 1 view -0
 1063              		.cfi_startproc
 1064              		@ args = 0, pretend = 0, frame = 0
 1065              		@ frame_needed = 0, uses_anonymous_args = 0
 121:../../Classes/Temperamento/PlantConditioner.cpp ****     _curveType = _curveFir.Process(curve_type);
 1066              		.loc 1 121 5 view .LVU264
 120:../../Classes/Temperamento/PlantConditioner.cpp ****     _curveType = _curveFir.Process(curve_type);
 1067              		.loc 1 120 70 is_stmt 0 view .LVU265
 1068 0000 10B5     		push	{r4, lr}
 1069              		.cfi_def_cfa_offset 8
 1070              		.cfi_offset 4, -8
 1071              		.cfi_offset 14, -4
 1072 0002 0446     		mov	r4, r0
 1073              		.loc 1 121 35 view .LVU266
 1074 0004 00F57A70 		add	r0, r0, #1000
 1075              	.LVL82:
 120:../../Classes/Temperamento/PlantConditioner.cpp ****     _curveType = _curveFir.Process(curve_type);
 1076              		.loc 1 120 70 view .LVU267
 1077 0008 2DED028B 		vpush.64	{d8}
 1078              		.cfi_def_cfa_offset 16
 1079              		.cfi_offset 80, -16
 1080              		.cfi_offset 81, -12
 120:../../Classes/Temperamento/PlantConditioner.cpp ****     _curveType = _curveFir.Process(curve_type);
 1081              		.loc 1 120 70 view .LVU268
 1082 000c 08EE101A 		vmov	s16, r1	@ int
 1083              		.loc 1 121 35 view .LVU269
 1084 0010 FFF7FEFF 		bl	_ZN6CapFir7ProcessEf
 1085              	.LVL83:
 1086              		.loc 1 121 35 view .LVU270
 1087 0014 F0EE407A 		vmov.f32	s15, s0
 1088              		.loc 1 121 16 view .LVU271
 1089 0018 04F27473 		addw	r3, r4, #1908
 122:../../Classes/Temperamento/PlantConditioner.cpp ****     
ARM GAS  C:\Users\skipi\AppData\Local\Temp\ccuD6iNw.s 			page 25


 123:../../Classes/Temperamento/PlantConditioner.cpp ****     // Assicuriamoci che deltaMax sia sempre maggiore di deltaMin
 124:../../Classes/Temperamento/PlantConditioner.cpp ****     float newMax = _maxFir.Process((float)delta_max);
 1090              		.loc 1 124 35 view .LVU272
 1091 001c B8EE480A 		vcvt.f32.u32	s0, s16
 1092 0020 04F16400 		add	r0, r4, #100
 121:../../Classes/Temperamento/PlantConditioner.cpp ****     
 1093              		.loc 1 121 16 view .LVU273
 1094 0024 C3ED007A 		vstr.32	s15, [r3]
 1095              		.loc 1 124 5 is_stmt 1 view .LVU274
 1096              		.loc 1 124 35 is_stmt 0 view .LVU275
 1097 0028 FFF7FEFF 		bl	_ZN6CapFir7ProcessEf
 1098              	.LVL84:
 125:../../Classes/Temperamento/PlantConditioner.cpp ****     if (newMax <= _deltaMin) newMax = _deltaMin + 1.0f;
 1099              		.loc 1 125 19 view .LVU276
 1100 002c 04F27C73 		addw	r3, r4, #1916
 1101              	.LVL85:
 1102              		.loc 1 125 5 is_stmt 1 view .LVU277
 1103              		.loc 1 125 19 is_stmt 0 view .LVU278
 1104 0030 D3ED007A 		vldr.32	s15, [r3]
 1105              		.loc 1 125 5 view .LVU279
 1106 0034 F4EEC07A 		vcmpe.f32	s15, s0
 1107 0038 F1EE10FA 		vmrs	APSR_nzcv, FPSCR
 1108 003c 03DB     		blt	.L53
 1109              		.loc 1 125 30 is_stmt 1 discriminator 1 view .LVU280
 1110              		.loc 1 125 37 is_stmt 0 discriminator 1 view .LVU281
 1111 003e B7EE000A 		vmov.f32	s0, #1.0e+0
 1112              	.LVL86:
 1113              		.loc 1 125 37 discriminator 1 view .LVU282
 1114 0042 37EE800A 		vadd.f32	s0, s15, s0
 1115              	.LVL87:
 1116              	.L53:
 126:../../Classes/Temperamento/PlantConditioner.cpp ****     
 127:../../Classes/Temperamento/PlantConditioner.cpp ****     _deltaMax = newMax;
 1117              		.loc 1 127 5 is_stmt 1 view .LVU283
 128:../../Classes/Temperamento/PlantConditioner.cpp ****     _range = _deltaMax - _deltaMin;
 1118              		.loc 1 128 24 is_stmt 0 view .LVU284
 1119 0046 70EE677A 		vsub.f32	s15, s0, s15
 127:../../Classes/Temperamento/PlantConditioner.cpp ****     _range = _deltaMax - _deltaMin;
 1120              		.loc 1 127 15 view .LVU285
 1121 004a 04F5F063 		add	r3, r4, #1920
 1122              		.loc 1 128 12 view .LVU286
 1123 004e 04F28474 		addw	r4, r4, #1924
 1124              	.LVL88:
 127:../../Classes/Temperamento/PlantConditioner.cpp ****     _range = _deltaMax - _deltaMin;
 1125              		.loc 1 127 15 view .LVU287
 1126 0052 83ED000A 		vstr.32	s0, [r3]
 1127              		.loc 1 128 5 is_stmt 1 view .LVU288
 1128              		.loc 1 128 12 is_stmt 0 view .LVU289
 1129 0056 C4ED007A 		vstr.32	s15, [r4]
 129:../../Classes/Temperamento/PlantConditioner.cpp **** }
 1130              		.loc 1 129 1 view .LVU290
 1131 005a BDEC028B 		vldm	sp!, {d8}
 1132              		.cfi_restore 80
 1133              		.cfi_restore 81
 1134              		.cfi_def_cfa_offset 8
 1135 005e 10BD     		pop	{r4, pc}
 1136              		.loc 1 129 1 view .LVU291
ARM GAS  C:\Users\skipi\AppData\Local\Temp\ccuD6iNw.s 			page 26


 1137              		.cfi_endproc
 1138              	.LFE4855:
 1140              		.section	.text._ZN16PlantConditioner6getBinEv,"ax",%progbits
 1141              		.align	1
 1142              		.p2align 2,,3
 1143              		.global	_ZN16PlantConditioner6getBinEv
 1144              		.syntax unified
 1145              		.thumb
 1146              		.thumb_func
 1147              		.fpu fpv5-d16
 1149              	_ZN16PlantConditioner6getBinEv:
 1150              	.LVL89:
 1151              	.LFB4856:
 130:../../Classes/Temperamento/PlantConditioner.cpp **** 
 131:../../Classes/Temperamento/PlantConditioner.cpp **** // DEBUG FUNCTIONS
 132:../../Classes/Temperamento/PlantConditioner.cpp **** float* PlantConditioner::getBin() {
 1152              		.loc 1 132 35 is_stmt 1 view -0
 1153              		.cfi_startproc
 1154              		@ args = 0, pretend = 0, frame = 0
 1155              		@ frame_needed = 0, uses_anonymous_args = 0
 133:../../Classes/Temperamento/PlantConditioner.cpp ****     for (int i = 0; i < _scaleLength; i++) {
 1156              		.loc 1 133 5 view .LVU293
 1157              	.LBB45:
 1158              		.loc 1 133 23 view .LVU294
 1159              	.LBE45:
 132:../../Classes/Temperamento/PlantConditioner.cpp ****     for (int i = 0; i < _scaleLength; i++) {
 1160              		.loc 1 132 35 is_stmt 0 view .LVU295
 1161 0000 2DE9F047 		push	{r4, r5, r6, r7, r8, r9, r10, lr}
 1162              		.cfi_def_cfa_offset 32
 1163              		.cfi_offset 4, -32
 1164              		.cfi_offset 5, -28
 1165              		.cfi_offset 6, -24
 1166              		.cfi_offset 7, -20
 1167              		.cfi_offset 8, -16
 1168              		.cfi_offset 9, -12
 1169              		.cfi_offset 10, -8
 1170              		.cfi_offset 14, -4
 1171 0004 2DED048B 		vpush.64	{d8, d9}
 1172              		.cfi_def_cfa_offset 48
 1173              		.cfi_offset 80, -48
 1174              		.cfi_offset 81, -44
 1175              		.cfi_offset 82, -40
 1176              		.cfi_offset 83, -36
 1177              	.LBB47:
 1178              		.loc 1 133 25 view .LVU296
 1179 0008 90F87937 		ldrb	r3, [r0, #1913]	@ zero_extendqisi2
 1180              	.LBE47:
 132:../../Classes/Temperamento/PlantConditioner.cpp ****     for (int i = 0; i < _scaleLength; i++) {
 1181              		.loc 1 132 35 view .LVU297
 1182 000c 0546     		mov	r5, r0
 1183 000e 00F5F269 		add	r9, r0, #1936
 1184              	.LBB48:
 1185              		.loc 1 133 23 view .LVU298
 1186 0012 C3B3     		cbz	r3, .L58
 1187              		.loc 1 133 14 view .LVU299
 1188 0014 0024     		movs	r4, #0
 1189 0016 00F27C78 		addw	r8, r0, #1916
ARM GAS  C:\Users\skipi\AppData\Local\Temp\ccuD6iNw.s 			page 27


 1190 001a 9FED1D9A 		vldr.32	s18, .L65
 1191 001e CA46     		mov	r10, r9
 1192 0020 00F28477 		addw	r7, r0, #1924
 1193 0024 00F27476 		addw	r6, r0, #1908
 1194              	.LVL90:
 1195              	.L59:
 1196              	.LBB46:
 134:../../Classes/Temperamento/PlantConditioner.cpp ****         float lower = _deltaMin + _range * powf((float)i / _scaleLength, _curveType);
 1197              		.loc 1 134 9 is_stmt 1 discriminator 2 view .LVU300
 1198              		.loc 1 134 48 is_stmt 0 discriminator 2 view .LVU301
 1199 0028 07EE903A 		vmov	s15, r3	@ int
 135:../../Classes/Temperamento/PlantConditioner.cpp ****         float upper = _deltaMin + _range * powf((float)(i+1) / _scaleLength, _curveType);
 1200              		.loc 1 135 58 discriminator 2 view .LVU302
 1201 002c 0134     		adds	r4, r4, #1
 1202              	.LVL91:
 134:../../Classes/Temperamento/PlantConditioner.cpp ****         float lower = _deltaMin + _range * powf((float)i / _scaleLength, _curveType);
 1203              		.loc 1 134 48 discriminator 2 view .LVU303
 1204 002e D6ED000A 		vldr.32	s1, [r6]
 1205 0032 B8EEE70A 		vcvt.f32.s32	s0, s15
 134:../../Classes/Temperamento/PlantConditioner.cpp ****         float lower = _deltaMin + _range * powf((float)i / _scaleLength, _curveType);
 1206              		.loc 1 134 35 discriminator 2 view .LVU304
 1207 0036 D7ED009A 		vldr.32	s19, [r7]
 134:../../Classes/Temperamento/PlantConditioner.cpp ****         float lower = _deltaMin + _range * powf((float)i / _scaleLength, _curveType);
 1208              		.loc 1 134 23 discriminator 2 view .LVU305
 1209 003a D8ED008A 		vldr.32	s17, [r8]
 134:../../Classes/Temperamento/PlantConditioner.cpp ****         float lower = _deltaMin + _range * powf((float)i / _scaleLength, _curveType);
 1210              		.loc 1 134 48 discriminator 2 view .LVU306
 1211 003e 89EE000A 		vdiv.f32	s0, s18, s0
 1212 0042 FFF7FEFF 		bl	powf
 1213              	.LVL92:
 1214              		.loc 1 135 64 discriminator 2 view .LVU307
 1215 0046 95F87937 		ldrb	r3, [r5, #1913]	@ zero_extendqisi2
 1216              		.loc 1 135 49 discriminator 2 view .LVU308
 1217 004a 07EE904A 		vmov	s15, r4	@ int
 1218              		.loc 1 135 23 discriminator 2 view .LVU309
 1219 004e 98ED008A 		vldr.32	s16, [r8]
 1220              		.loc 1 135 48 discriminator 2 view .LVU310
 1221 0052 D6ED000A 		vldr.32	s1, [r6]
 1222              		.loc 1 135 49 discriminator 2 view .LVU311
 1223 0056 B8EEE79A 		vcvt.f32.s32	s18, s15
 1224              		.loc 1 135 48 discriminator 2 view .LVU312
 1225 005a 07EE903A 		vmov	s15, r3	@ int
 134:../../Classes/Temperamento/PlantConditioner.cpp ****         float lower = _deltaMin + _range * powf((float)i / _scaleLength, _curveType);
 1226              		.loc 1 134 84 discriminator 2 view .LVU313
 1227 005e E9EE808A 		vfma.f32	s17, s19, s0
 1228              	.LVL93:
 1229              		.loc 1 135 9 is_stmt 1 discriminator 2 view .LVU314
 1230              		.loc 1 135 35 is_stmt 0 discriminator 2 view .LVU315
 1231 0062 D7ED009A 		vldr.32	s19, [r7]
 1232              		.loc 1 135 48 discriminator 2 view .LVU316
 1233 0066 B8EEE70A 		vcvt.f32.s32	s0, s15
 1234 006a 89EE000A 		vdiv.f32	s0, s18, s0
 1235 006e FFF7FEFF 		bl	powf
 1236              	.LVL94:
 1237              		.loc 1 135 88 discriminator 2 view .LVU317
 1238 0072 A9EE808A 		vfma.f32	s16, s19, s0
 1239              	.LVL95:
ARM GAS  C:\Users\skipi\AppData\Local\Temp\ccuD6iNw.s 			page 28


 136:../../Classes/Temperamento/PlantConditioner.cpp ****         _bin[i] = upper - lower; 
 1240              		.loc 1 136 9 is_stmt 1 discriminator 2 view .LVU318
 1241              		.loc 1 136 25 is_stmt 0 discriminator 2 view .LVU319
 1242 0076 38EE688A 		vsub.f32	s16, s16, s17
 1243              	.LVL96:
 1244              		.loc 1 136 17 discriminator 2 view .LVU320
 1245 007a AAEC018A 		vstmia.32	r10!, {s16}
 1246              	.LBE46:
 133:../../Classes/Temperamento/PlantConditioner.cpp ****         float lower = _deltaMin + _range * powf((float)i / _scaleLength, _curveType);
 1247              		.loc 1 133 5 is_stmt 1 discriminator 2 view .LVU321
 1248              	.LVL97:
 133:../../Classes/Temperamento/PlantConditioner.cpp ****         float lower = _deltaMin + _range * powf((float)i / _scaleLength, _curveType);
 1249              		.loc 1 133 23 discriminator 2 view .LVU322
 133:../../Classes/Temperamento/PlantConditioner.cpp ****         float lower = _deltaMin + _range * powf((float)i / _scaleLength, _curveType);
 1250              		.loc 1 133 25 is_stmt 0 discriminator 2 view .LVU323
 1251 007e 95F87937 		ldrb	r3, [r5, #1913]	@ zero_extendqisi2
 133:../../Classes/Temperamento/PlantConditioner.cpp ****         float lower = _deltaMin + _range * powf((float)i / _scaleLength, _curveType);
 1252              		.loc 1 133 23 discriminator 2 view .LVU324
 1253 0082 A342     		cmp	r3, r4
 1254 0084 D0DC     		bgt	.L59
 1255              	.LVL98:
 1256              	.L58:
 133:../../Classes/Temperamento/PlantConditioner.cpp ****         float lower = _deltaMin + _range * powf((float)i / _scaleLength, _curveType);
 1257              		.loc 1 133 23 discriminator 2 view .LVU325
 1258              	.LBE48:
 137:../../Classes/Temperamento/PlantConditioner.cpp ****     }
 138:../../Classes/Temperamento/PlantConditioner.cpp ****     return _bin;
 1259              		.loc 1 138 5 is_stmt 1 view .LVU326
 139:../../Classes/Temperamento/PlantConditioner.cpp **** }
 1260              		.loc 1 139 1 is_stmt 0 view .LVU327
 1261 0086 4846     		mov	r0, r9
 1262 0088 BDEC048B 		vldm	sp!, {d8-d9}
 1263              		.cfi_restore 82
 1264              		.cfi_restore 83
 1265              		.cfi_restore 80
 1266              		.cfi_restore 81
 1267              		.cfi_def_cfa_offset 32
 1268 008c BDE8F087 		pop	{r4, r5, r6, r7, r8, r9, r10, pc}
 1269              	.LVL99:
 1270              	.L66:
 1271              		.loc 1 139 1 view .LVU328
 1272              		.align	2
 1273              	.L65:
 1274 0090 00000000 		.word	0
 1275              		.cfi_endproc
 1276              	.LFE4856:
 1278              		.section	.text._ZN16PlantConditioner9setBufferEv,"ax",%progbits
 1279              		.align	1
 1280              		.p2align 2,,3
 1281              		.global	_ZN16PlantConditioner9setBufferEv
 1282              		.syntax unified
 1283              		.thumb
 1284              		.thumb_func
 1285              		.fpu fpv5-d16
 1287              	_ZN16PlantConditioner9setBufferEv:
 1288              	.LVL100:
 1289              	.LFB4857:
ARM GAS  C:\Users\skipi\AppData\Local\Temp\ccuD6iNw.s 			page 29


 140:../../Classes/Temperamento/PlantConditioner.cpp **** 
 141:../../Classes/Temperamento/PlantConditioner.cpp **** void PlantConditioner::setBuffer() {
 1290              		.loc 1 141 36 is_stmt 1 view -0
 1291              		.cfi_startproc
 1292              		@ args = 0, pretend = 0, frame = 0
 1293              		@ frame_needed = 0, uses_anonymous_args = 0
 1294              		@ link register save eliminated.
 142:../../Classes/Temperamento/PlantConditioner.cpp ****     _delta = _deltaFilt;
 1295              		.loc 1 142 5 view .LVU330
 1296              		.loc 1 142 14 is_stmt 0 view .LVU331
 1297 0000 00F28C73 		addw	r3, r0, #1932
 1298              		.loc 1 142 12 view .LVU332
 1299 0004 00F5F160 		add	r0, r0, #1928
 1300              	.LVL101:
 1301              		.loc 1 142 12 view .LVU333
 1302 0008 1B68     		ldr	r3, [r3]	@ float
 1303 000a 0360     		str	r3, [r0]	@ float
 143:../../Classes/Temperamento/PlantConditioner.cpp **** }...
 1304              		.loc 1 143 1 view .LVU334
 1305 000c 7047     		bx	lr
 1306              		.cfi_endproc
 1307              	.LFE4857:
 1309 000e 00BF     		.section	.rodata
 1310              		.align	2
 1311              		.set	.LANCHOR0,. + 0
 1312              	.LC0:
 1313 0000 CDCC8241 		.word	1099091149
 1314 0004 CDCC9241 		.word	1100139725
 1315 0008 CDCCA441 		.word	1101319373
 1316 000c D7A3AE41 		.word	1101964247
 1317 0010 0000C441 		.word	1103364096
 1318 0014 0000DC41 		.word	1104936960
 1319 0018 C3F5F641 		.word	1106703811
 1320              	.LC1:
 1321 001c CDCC8241 		.word	1099091149
 1322 0020 CDCC9241 		.word	1100139725
 1323 0024 9A999B41 		.word	1100716442
 1324 0028 D7A3AE41 		.word	1101964247
 1325 002c 0000C441 		.word	1103364096
 1326 0030 14AECF41 		.word	1104129556
 1327 0034 B81EE941 		.word	1105796792
 1328              	.LC2:
 1329 0038 CDCC8241 		.word	1099091149
 1330 003c CDCC9241 		.word	1100139725
 1331 0040 9A999B41 		.word	1100716442
 1332 0044 D7A3AE41 		.word	1101964247
 1333 0048 0000C441 		.word	1103364096
 1334 004c 14AECF41 		.word	1104129556
 1335 0050 C3F5F641 		.word	1106703811
 1336              	.LC3:
 1337 0054 CDCC8241 		.word	1099091149
 1338 0058 CDCC9241 		.word	1100139725
 1339 005c 9A999B41 		.word	1100716442
 1340 0060 D7A3AE41 		.word	1101964247
 1341 0064 C3F5B841 		.word	1102640579
 1342 0068 0000DC41 		.word	1104936960
 1343 006c C3F5F641 		.word	1106703811
ARM GAS  C:\Users\skipi\AppData\Local\Temp\ccuD6iNw.s 			page 30


 1344              	.LC4:
 1345 0070 CDCC8241 		.word	1099091149
 1346 0074 CDCC9241 		.word	1100139725
 1347 0078 D7A3AE41 		.word	1101964247
 1348 007c 0000C441 		.word	1103364096
 1349 0080 0000DC41 		.word	1104936960
 1350              	.LC5:
 1351 0084 CDCC8241 		.word	1099091149
 1352 0088 5C8F8A41 		.word	1099599708
 1353 008c CDCC9241 		.word	1100139725
 1354 0090 9A999B41 		.word	1100716442
 1355 0094 CDCCA441 		.word	1101319373
 1356 0098 D7A3AE41 		.word	1101964247
 1357 009c C3F5B841 		.word	1102640579
 1358 00a0 0000C441 		.word	1103364096
 1359 00a4 14AECF41 		.word	1104129556
 1360 00a8 0000DC41 		.word	1104936960
 1361 00ac B81EE941 		.word	1105796792
 1362 00b0 C3F5F641 		.word	1106703811
 1363              	.LC6:
 1364 00b4 CDCC8241 		.word	1099091149
 1365 00b8 CDCC9241 		.word	1100139725
 1366 00bc CDCCA441 		.word	1101319373
 1367 00c0 D7A3AE41 		.word	1101964247
 1368 00c4 0000C441 		.word	1103364096
 1369 00c8 0000DC41 		.word	1104936960
 1370              		.text
 1371              	.Letext0:
 1372              		.file 2 "c:\\program files\\daisytoolchain\\arm-none-eabi\\include\\machine\\_default_types.h"
 1373              		.file 3 "c:\\program files\\daisytoolchain\\arm-none-eabi\\include\\sys\\_stdint.h"
 1374              		.file 4 "c:\\program files\\daisytoolchain\\arm-none-eabi\\include\\stdint.h"
 1375              		.file 5 "c:\\program files\\daisytoolchain\\lib\\gcc\\arm-none-eabi\\10.2.1\\include\\stddef.h"
 1376              		.file 6 "c:\\program files\\daisytoolchain\\arm-none-eabi\\include\\c++\\10.2.1\\cmath"
 1377              		.file 7 "c:\\program files\\daisytoolchain\\arm-none-eabi\\include\\c++\\10.2.1\\bits\\std_abs.h"
 1378              		.file 8 "c:\\program files\\daisytoolchain\\arm-none-eabi\\include\\c++\\10.2.1\\cstdint"
 1379              		.file 9 "c:\\program files\\daisytoolchain\\arm-none-eabi\\include\\c++\\10.2.1\\cstdlib"
 1380              		.file 10 "c:\\program files\\daisytoolchain\\arm-none-eabi\\include\\c++\\10.2.1\\type_traits"
 1381              		.file 11 "c:\\program files\\daisytoolchain\\arm-none-eabi\\include\\c++\\10.2.1\\debug\\debug.h"
 1382              		.file 12 "c:\\program files\\daisytoolchain\\arm-none-eabi\\include\\c++\\10.2.1\\cwchar"
 1383              		.file 13 "c:\\program files\\daisytoolchain\\arm-none-eabi\\include\\c++\\10.2.1\\bits\\stl_pair.h
 1384              		.file 14 "c:\\program files\\daisytoolchain\\arm-none-eabi\\include\\c++\\10.2.1\\bits\\exception_
 1385              		.file 15 "c:\\program files\\daisytoolchain\\arm-none-eabi\\include\\c++\\10.2.1\\arm-none-eabi\\t
 1386              		.file 16 "c:\\program files\\daisytoolchain\\arm-none-eabi\\include\\c++\\10.2.1\\clocale"
 1387              		.file 17 "c:\\program files\\daisytoolchain\\arm-none-eabi\\include\\c++\\10.2.1\\cstdio"
 1388              		.file 18 "c:\\program files\\daisytoolchain\\arm-none-eabi\\include\\c++\\10.2.1\\bits\\basic_stri
 1389              		.file 19 "c:\\program files\\daisytoolchain\\arm-none-eabi\\include\\c++\\10.2.1\\bits\\charconv.h
 1390              		.file 20 "c:\\program files\\daisytoolchain\\arm-none-eabi\\include\\c++\\10.2.1\\bits\\algorithmf
 1391              		.file 21 "c:\\program files\\daisytoolchain\\arm-none-eabi\\include\\c++\\10.2.1\\cstring"
 1392              		.file 22 "c:\\program files\\daisytoolchain\\arm-none-eabi\\include\\c++\\10.2.1\\cstdarg"
 1393              		.file 23 "c:\\program files\\daisytoolchain\\arm-none-eabi\\include\\c++\\10.2.1\\bits\\predefined
 1394              		.file 24 "c:\\program files\\daisytoolchain\\arm-none-eabi\\include\\sys\\_types.h"
 1395              		.file 25 "c:\\program files\\daisytoolchain\\arm-none-eabi\\include\\sys\\reent.h"
 1396              		.file 26 "c:\\program files\\daisytoolchain\\arm-none-eabi\\include\\sys\\lock.h"
 1397              		.file 27 "c:\\program files\\daisytoolchain\\arm-none-eabi\\include\\math.h"
 1398              		.file 28 "c:\\program files\\daisytoolchain\\arm-none-eabi\\include\\stdlib.h"
 1399              		.file 29 "c:\\program files\\daisytoolchain\\arm-none-eabi\\include\\c++\\10.2.1\\math.h"
 1400              		.file 30 "../../libs/DaisySP/Source/Control/adenv.h"
ARM GAS  C:\Users\skipi\AppData\Local\Temp\ccuD6iNw.s 			page 31


 1401              		.file 31 "../../libs/DaisySP/Source/Utility/dsp.h"
 1402              		.file 32 "c:\\program files\\daisytoolchain\\lib\\gcc\\arm-none-eabi\\10.2.1\\include\\stdarg.h"
 1403              		.file 33 "c:\\program files\\daisytoolchain\\arm-none-eabi\\include\\wchar.h"
 1404              		.file 34 "c:\\program files\\daisytoolchain\\arm-none-eabi\\include\\locale.h"
 1405              		.file 35 "c:\\program files\\daisytoolchain\\arm-none-eabi\\include\\stdio.h"
 1406              		.file 36 "c:\\program files\\daisytoolchain\\arm-none-eabi\\include\\c++\\10.2.1\\stdlib.h"
 1407              		.file 37 "c:\\program files\\daisytoolchain\\arm-none-eabi\\include\\string.h"
 1408              		.file 38 "../../libs/libDaisy/src/daisy_core.h"
 1409              		.file 39 "../../libs/libDaisy/src/util/wav_format.h"
 1410              		.file 40 "../../libs/libDaisy/src/dev/sr_595.h"
 1411              		.file 41 "../../libs/libDaisy/src/dev/max11300.h"
 1412              		.file 42 "../../libs/libDaisy/src/daisy_seed.h"
 1413              		.file 43 "../../Classes/Temperamento/../SensorFilters/FIIR/CapFir.h"
 1414              		.file 44 "../../Classes/Temperamento/../SensorFilters/IIR/iir.h"
 1415              		.file 45 "../../Classes/Temperamento/../SensorFilters/MF/MF.h"
 1416              		.file 46 "../../Classes/Temperamento/PlantConditioner.h"
 1417              		.file 47 "<built-in>"
ARM GAS  C:\Users\skipi\AppData\Local\Temp\ccuD6iNw.s 			page 32


DEFINED SYMBOLS
                            *ABS*:00000000 PlantConditioner.cpp
C:\Users\skipi\AppData\Local\Temp\ccuD6iNw.s:17     .text._ZN16PlantConditionerC2Ev:00000000 $t
C:\Users\skipi\AppData\Local\Temp\ccuD6iNw.s:26     .text._ZN16PlantConditionerC2Ev:00000000 _ZN16PlantConditionerC2Ev
C:\Users\skipi\AppData\Local\Temp\ccuD6iNw.s:161    .text._ZN16PlantConditionerC2Ev:00000130 $d
C:\Users\skipi\AppData\Local\Temp\ccuD6iNw.s:26     .text._ZN16PlantConditionerC2Ev:00000000 _ZN16PlantConditionerC1Ev
C:\Users\skipi\AppData\Local\Temp\ccuD6iNw.s:170    .text._ZN16PlantConditionerD2Ev:00000000 $t
C:\Users\skipi\AppData\Local\Temp\ccuD6iNw.s:178    .text._ZN16PlantConditionerD2Ev:00000000 _ZN16PlantConditionerD2Ev
C:\Users\skipi\AppData\Local\Temp\ccuD6iNw.s:178    .text._ZN16PlantConditionerD2Ev:00000000 _ZN16PlantConditionerD1Ev
C:\Users\skipi\AppData\Local\Temp\ccuD6iNw.s:219    .text._ZN16PlantConditioner4InitEN3IIR10FilterTypeE:00000000 $t
C:\Users\skipi\AppData\Local\Temp\ccuD6iNw.s:227    .text._ZN16PlantConditioner4InitEN3IIR10FilterTypeE:00000000 _ZN16PlantConditioner4InitEN3IIR10FilterTypeE
C:\Users\skipi\AppData\Local\Temp\ccuD6iNw.s:293    .text._ZN16PlantConditioner8setScaleENS_5NotesENS_9ScaleTypeE:00000000 $t
C:\Users\skipi\AppData\Local\Temp\ccuD6iNw.s:301    .text._ZN16PlantConditioner8setScaleENS_5NotesENS_9ScaleTypeE:00000000 _ZN16PlantConditioner8setScaleENS_5NotesENS_9ScaleTypeE
C:\Users\skipi\AppData\Local\Temp\ccuD6iNw.s:323    .text._ZN16PlantConditioner8setScaleENS_5NotesENS_9ScaleTypeE:00000010 $d
C:\Users\skipi\AppData\Local\Temp\ccuD6iNw.s:665    .text._ZN16PlantConditioner9setOctaveEh:00000000 $t
C:\Users\skipi\AppData\Local\Temp\ccuD6iNw.s:673    .text._ZN16PlantConditioner9setOctaveEh:00000000 _ZN16PlantConditioner9setOctaveEh
C:\Users\skipi\AppData\Local\Temp\ccuD6iNw.s:690    .text._ZN16PlantConditioner7ProcessEtt:00000000 $t
C:\Users\skipi\AppData\Local\Temp\ccuD6iNw.s:698    .text._ZN16PlantConditioner7ProcessEtt:00000000 _ZN16PlantConditioner7ProcessEtt
C:\Users\skipi\AppData\Local\Temp\ccuD6iNw.s:1046   .text._ZN16PlantConditioner7ProcessEtt:000001bc $d
C:\Users\skipi\AppData\Local\Temp\ccuD6iNw.s:1051   .text._ZN16PlantConditioner8setCurveEhf:00000000 $t
C:\Users\skipi\AppData\Local\Temp\ccuD6iNw.s:1059   .text._ZN16PlantConditioner8setCurveEhf:00000000 _ZN16PlantConditioner8setCurveEhf
C:\Users\skipi\AppData\Local\Temp\ccuD6iNw.s:1141   .text._ZN16PlantConditioner6getBinEv:00000000 $t
C:\Users\skipi\AppData\Local\Temp\ccuD6iNw.s:1149   .text._ZN16PlantConditioner6getBinEv:00000000 _ZN16PlantConditioner6getBinEv
C:\Users\skipi\AppData\Local\Temp\ccuD6iNw.s:1274   .text._ZN16PlantConditioner6getBinEv:00000090 $d
C:\Users\skipi\AppData\Local\Temp\ccuD6iNw.s:1279   .text._ZN16PlantConditioner9setBufferEv:00000000 $t
C:\Users\skipi\AppData\Local\Temp\ccuD6iNw.s:1287   .text._ZN16PlantConditioner9setBufferEv:00000000 _ZN16PlantConditioner9setBufferEv
C:\Users\skipi\AppData\Local\Temp\ccuD6iNw.s:1310   .rodata:00000000 $d
C:\Users\skipi\AppData\Local\Temp\ccuD6iNw.s:330    .text._ZN16PlantConditioner8setScaleENS_5NotesENS_9ScaleTypeE:00000017 $d
C:\Users\skipi\AppData\Local\Temp\ccuD6iNw.s:330    .text._ZN16PlantConditioner8setScaleENS_5NotesENS_9ScaleTypeE:00000018 $t

UNDEFINED SYMBOLS
_ZN3IIRC1Ev
_ZN2MFC1Ev
_ZN6CapFirC1Ev
_ZN6CapFirD1Ev
_ZN2MFD1Ev
_ZN3IIRD1Ev
_ZN3IIR4InitENS_10FilterTypeE
_ZN2MF4InitEv
_ZN6CapFir4InitENS_7ResTypeE
powf
_ZN2MF7ProcessEf
_ZN3IIR7ProcessEf
_ZN6CapFir7ProcessEf
