ARM GAS  C:\Users\skipi\AppData\Local\Temp\ccTwk1u0.s 			page 1


   1              		.cpu cortex-m7
   2              		.eabi_attribute 28, 1
   3              		.eabi_attribute 20, 1
   4              		.eabi_attribute 21, 1
   5              		.eabi_attribute 23, 3
   6              		.eabi_attribute 24, 1
   7              		.eabi_attribute 25, 1
   8              		.eabi_attribute 26, 1
   9              		.eabi_attribute 30, 2
  10              		.eabi_attribute 34, 1
  11              		.eabi_attribute 18, 4
  12              		.file	"PlantConditioner.cpp"
  13              		.text
  14              	.Ltext0:
  15              		.cfi_sections	.debug_frame
  16              		.section	.text._ZN16PlantConditionerC2Ev,"ax",%progbits
  17              		.align	1
  18              		.p2align 2,,3
  19              		.global	_ZN16PlantConditionerC2Ev
  20              		.arch armv7e-m
  21              		.syntax unified
  22              		.thumb
  23              		.thumb_func
  24              		.fpu fpv5-d16
  26              	_ZN16PlantConditionerC2Ev:
  27              	.LVL0:
  28              	.LFB4846:
  29              		.file 1 "../../Classes/Temperamento/PlantConditioner.cpp"
   1:../../Classes/Temperamento/PlantConditioner.cpp **** #include "PlantConditioner.h"
   2:../../Classes/Temperamento/PlantConditioner.cpp **** #include "../../libs/DaisySP/Source/utility/dsp.h"
   3:../../Classes/Temperamento/PlantConditioner.cpp **** 
   4:../../Classes/Temperamento/PlantConditioner.cpp **** using namespace daisysp;
   5:../../Classes/Temperamento/PlantConditioner.cpp **** 
   6:../../Classes/Temperamento/PlantConditioner.cpp **** PlantConditioner::PlantConditioner() {}
  30              		.loc 1 6 1 view -0
  31              		.cfi_startproc
  32              		@ args = 0, pretend = 0, frame = 24
  33              		@ frame_needed = 0, uses_anonymous_args = 0
  34              	.LBB16:
  35              		.loc 1 6 36 is_stmt 0 view .LVU1
  36 0000 0323     		movs	r3, #3
  37              	.LBE16:
  38              		.loc 1 6 1 view .LVU2
  39 0002 2DE9F04F 		push	{r4, r5, r6, r7, r8, r9, r10, fp, lr}
  40              		.cfi_def_cfa_offset 36
  41              		.cfi_offset 4, -36
  42              		.cfi_offset 5, -32
  43              		.cfi_offset 6, -28
  44              		.cfi_offset 7, -24
  45              		.cfi_offset 8, -20
  46              		.cfi_offset 9, -16
  47              		.cfi_offset 10, -12
  48              		.cfi_offset 11, -8
  49              		.cfi_offset 14, -4
  50 0006 0446     		mov	r4, r0
  51 0008 87B0     		sub	sp, sp, #28
  52              		.cfi_def_cfa_offset 64
ARM GAS  C:\Users\skipi\AppData\Local\Temp\ccTwk1u0.s 			page 2


  53              	.LBB17:
  54              		.loc 1 6 36 view .LVU3
  55 000a 00F8043B 		strb	r3, [r0], #4
  56              	.LVL1:
  57              		.loc 1 6 36 view .LVU4
  58 000e FFF7FEFF 		bl	_ZN3IIRC1Ev
  59              	.LVL2:
  60 0012 04F14C00 		add	r0, r4, #76
  61 0016 FFF7FEFF 		bl	_ZN2MFC1Ev
  62              	.LVL3:
  63 001a 04F16400 		add	r0, r4, #100
  64 001e FFF7FEFF 		bl	_ZN6CapFirC1Ev
  65              	.LVL4:
  66 0022 04F57A70 		add	r0, r4, #1000
  67 0026 FFF7FEFF 		bl	_ZN6CapFirC1Ev
  68              	.LVL5:
  69 002a 04F26C72 		addw	r2, r4, #1900
  70 002e 4FF08040 		mov	r0, #1073741824
  71 0032 0023     		movs	r3, #0
  72 0034 4FF07E51 		mov	r1, #1065353216
  73 0038 3F4D     		ldr	r5, .L4
  74 003a 1060     		str	r0, [r2]	@ float
  75 003c 4FF0FF32 		mov	r2, #-1
  76 0040 05F1B400 		add	r0, r5, #180
  77 0044 04F2F47A 		addw	r10, r4, #2036
  78 0048 C4F87027 		str	r2, [r4, #1904]
  79 004c 04F27472 		addw	r2, r4, #1908
  80 0050 0590     		str	r0, [sp, #20]
  81 0052 05F11C09 		add	r9, r5, #28
  82 0056 1360     		str	r3, [r2]	@ float
  83 0058 04F5EF62 		add	r2, r4, #1912
  84 005c 05F13807 		add	r7, r5, #56
  85 0060 05F1700B 		add	fp, r5, #112
  86 0064 1360     		str	r3, [r2]	@ float
  87 0066 40F20472 		movw	r2, #1796
  88 006a 05F1840E 		add	lr, r5, #132
  89 006e 04F50168 		add	r8, r4, #2064
  90 0072 A4F87C27 		strh	r2, [r4, #1916]	@ movhi
  91 0076 04F5F062 		add	r2, r4, #1920
  92 007a 04F62C06 		addw	r6, r4, #2092
  93 007e 04F6780C 		addw	ip, r4, #2168
  94 0082 1160     		str	r1, [r2]	@ float
  95 0084 04F28472 		addw	r2, r4, #1924
  96 0088 2C49     		ldr	r1, .L4+4
  97 008a 1160     		str	r1, [r2]	@ float
  98 008c 04F5F162 		add	r2, r4, #1928
  99 0090 2B49     		ldr	r1, .L4+8
 100 0092 1160     		str	r1, [r2]	@ float
 101 0094 04F28C72 		addw	r2, r4, #1932
 102 0098 04F66401 		addw	r1, r4, #2148
 103 009c 1360     		str	r3, [r2]	@ float
 104 009e 04F5F262 		add	r2, r4, #1936
 105 00a2 0391     		str	r1, [sp, #12]
 106 00a4 1360     		str	r3, [r2]	@ float
 107 00a6 04F64802 		addw	r2, r4, #2120
 108 00aa 05F15403 		add	r3, r5, #84
 109 00ae 0192     		str	r2, [sp, #4]
ARM GAS  C:\Users\skipi\AppData\Local\Temp\ccTwk1u0.s 			page 3


 110 00b0 04F6A802 		addw	r2, r4, #2216
 111 00b4 0293     		str	r3, [sp, #8]
 112 00b6 0492     		str	r2, [sp, #16]
 113 00b8 0FCD     		ldmia	r5!, {r0, r1, r2, r3}
 114 00ba AAE80F00 		stmia	r10!, {r0, r1, r2, r3}
 115 00be 95E80700 		ldm	r5, {r0, r1, r2}
 116 00c2 8AE80700 		stm	r10, {r0, r1, r2}
 117 00c6 B9E80F00 		ldmia	r9!, {r0, r1, r2, r3}
 118 00ca A8E80F00 		stmia	r8!, {r0, r1, r2, r3}
 119 00ce 99E80700 		ldm	r9, {r0, r1, r2}
 120 00d2 88E80700 		stm	r8, {r0, r1, r2}
 121 00d6 0FCF     		ldmia	r7!, {r0, r1, r2, r3}
 122 00d8 0FC6     		stmia	r6!, {r0, r1, r2, r3}
 123 00da 97E80700 		ldm	r7, {r0, r1, r2}
 124 00de 029B     		ldr	r3, [sp, #8]
 125 00e0 019D     		ldr	r5, [sp, #4]
 126 00e2 86E80700 		stm	r6, {r0, r1, r2}
 127 00e6 1E46     		mov	r6, r3
 128 00e8 2F46     		mov	r7, r5
 129 00ea 0FCE     		ldmia	r6!, {r0, r1, r2, r3}
 130 00ec 0FC7     		stmia	r7!, {r0, r1, r2, r3}
 131 00ee 96E80700 		ldm	r6, {r0, r1, r2}
 132 00f2 039D     		ldr	r5, [sp, #12]
 133 00f4 87E80700 		stm	r7, {r0, r1, r2}
 134 00f8 BBE80F00 		ldmia	fp!, {r0, r1, r2, r3}
 135 00fc 0FC5     		stmia	r5!, {r0, r1, r2, r3}
 136 00fe DBF80030 		ldr	r3, [fp]
 137 0102 2B60     		str	r3, [r5]
 138 0104 BEE80F00 		ldmia	lr!, {r0, r1, r2, r3}
 139 0108 ACE80F00 		stmia	ip!, {r0, r1, r2, r3}
 140 010c BEE80F00 		ldmia	lr!, {r0, r1, r2, r3}
 141 0110 ACE80F00 		stmia	ip!, {r0, r1, r2, r3}
 142 0114 9EE80F00 		ldm	lr, {r0, r1, r2, r3}
 143 0118 8CE80F00 		stm	ip, {r0, r1, r2, r3}
 144 011c 0598     		ldr	r0, [sp, #20]
 145 011e 049D     		ldr	r5, [sp, #16]
 146 0120 0646     		mov	r6, r0
 147 0122 0FCE     		ldmia	r6!, {r0, r1, r2, r3}
 148 0124 0FC5     		stmia	r5!, {r0, r1, r2, r3}
 149 0126 96E80300 		ldm	r6, {r0, r1}
 150 012a 85E80300 		stm	r5, {r0, r1}
 151              	.LBE17:
 152              		.loc 1 6 39 view .LVU5
 153 012e 2046     		mov	r0, r4
 154 0130 07B0     		add	sp, sp, #28
 155              		.cfi_def_cfa_offset 36
 156              		@ sp needed
 157 0132 BDE8F08F 		pop	{r4, r5, r6, r7, r8, r9, r10, fp, pc}
 158              	.LVL6:
 159              	.L5:
 160              		.loc 1 6 39 view .LVU6
 161 0136 00BF     		.align	2
 162              	.L4:
 163 0138 00000000 		.word	.LANCHOR0
 164 013c 0000C842 		.word	1120403456
 165 0140 0000C642 		.word	1120272384
 166              		.cfi_endproc
ARM GAS  C:\Users\skipi\AppData\Local\Temp\ccTwk1u0.s 			page 4


 167              	.LFE4846:
 169              		.global	_ZN16PlantConditionerC1Ev
 170              		.thumb_set _ZN16PlantConditionerC1Ev,_ZN16PlantConditionerC2Ev
 171              		.section	.text._ZN16PlantConditionerD2Ev,"ax",%progbits
 172              		.align	1
 173              		.p2align 2,,3
 174              		.global	_ZN16PlantConditionerD2Ev
 175              		.syntax unified
 176              		.thumb
 177              		.thumb_func
 178              		.fpu fpv5-d16
 180              	_ZN16PlantConditionerD2Ev:
 181              	.LVL7:
 182              	.LFB4849:
   7:../../Classes/Temperamento/PlantConditioner.cpp **** PlantConditioner::~PlantConditioner() {}
 183              		.loc 1 7 1 is_stmt 1 view -0
 184              		.cfi_startproc
 185              		@ args = 0, pretend = 0, frame = 0
 186              		@ frame_needed = 0, uses_anonymous_args = 0
 187              		.loc 1 7 1 is_stmt 0 view .LVU8
 188 0000 10B5     		push	{r4, lr}
 189              		.cfi_def_cfa_offset 8
 190              		.cfi_offset 4, -8
 191              		.cfi_offset 14, -4
 192              		.loc 1 7 1 view .LVU9
 193 0002 0446     		mov	r4, r0
 194              	.LBB18:
 195              		.loc 1 7 37 view .LVU10
 196 0004 00F57A70 		add	r0, r0, #1000
 197              	.LVL8:
 198              		.loc 1 7 37 view .LVU11
 199 0008 FFF7FEFF 		bl	_ZN6CapFirD1Ev
 200              	.LVL9:
 201 000c 04F16400 		add	r0, r4, #100
 202 0010 FFF7FEFF 		bl	_ZN6CapFirD1Ev
 203              	.LVL10:
 204 0014 04F14C00 		add	r0, r4, #76
 205 0018 FFF7FEFF 		bl	_ZN2MFD1Ev
 206              	.LVL11:
 207 001c 201D     		adds	r0, r4, #4
 208 001e FFF7FEFF 		bl	_ZN3IIRD1Ev
 209              	.LVL12:
 210              	.LBE18:
 211              		.loc 1 7 40 view .LVU12
 212 0022 2046     		mov	r0, r4
 213 0024 10BD     		pop	{r4, pc}
 214              		.loc 1 7 40 view .LVU13
 215              		.cfi_endproc
 216              	.LFE4849:
 218              		.global	_ZN16PlantConditionerD1Ev
 219              		.thumb_set _ZN16PlantConditionerD1Ev,_ZN16PlantConditionerD2Ev
 220              		.section	.text._ZN16PlantConditioner4InitEN3IIR10FilterTypeE,"ax",%progbits
 221              		.align	1
 222              		.p2align 2,,3
 223              		.global	_ZN16PlantConditioner4InitEN3IIR10FilterTypeE
 224              		.syntax unified
 225              		.thumb
ARM GAS  C:\Users\skipi\AppData\Local\Temp\ccTwk1u0.s 			page 5


 226              		.thumb_func
 227              		.fpu fpv5-d16
 229              	_ZN16PlantConditioner4InitEN3IIR10FilterTypeE:
 230              	.LVL13:
 231              	.LFB4851:
   8:../../Classes/Temperamento/PlantConditioner.cpp **** 
   9:../../Classes/Temperamento/PlantConditioner.cpp **** void PlantConditioner::Init(IIR::FilterType filter_type) {
 232              		.loc 1 9 58 is_stmt 1 view -0
 233              		.cfi_startproc
 234              		@ args = 0, pretend = 0, frame = 0
 235              		@ frame_needed = 0, uses_anonymous_args = 0
  10:../../Classes/Temperamento/PlantConditioner.cpp ****     _deltaFilter.Init(filter_type);
 236              		.loc 1 10 5 view .LVU15
   9:../../Classes/Temperamento/PlantConditioner.cpp ****     _deltaFilter.Init(filter_type);
 237              		.loc 1 9 58 is_stmt 0 view .LVU16
 238 0000 10B5     		push	{r4, lr}
 239              		.cfi_def_cfa_offset 8
 240              		.cfi_offset 4, -8
 241              		.cfi_offset 14, -4
   9:../../Classes/Temperamento/PlantConditioner.cpp ****     _deltaFilter.Init(filter_type);
 242              		.loc 1 9 58 view .LVU17
 243 0002 0446     		mov	r4, r0
 244              		.loc 1 10 22 view .LVU18
 245 0004 0430     		adds	r0, r0, #4
 246              	.LVL14:
 247              		.loc 1 10 22 view .LVU19
 248 0006 FFF7FEFF 		bl	_ZN3IIR4InitENS_10FilterTypeE
 249              	.LVL15:
  11:../../Classes/Temperamento/PlantConditioner.cpp ****     _deltaFilterMF.Init();
 250              		.loc 1 11 5 is_stmt 1 view .LVU20
 251              		.loc 1 11 24 is_stmt 0 view .LVU21
 252 000a 04F14C00 		add	r0, r4, #76
 253 000e FFF7FEFF 		bl	_ZN2MF4InitEv
 254              	.LVL16:
  12:../../Classes/Temperamento/PlantConditioner.cpp ****     _maxFir.Init(CapFir::ResType::HIGH);
 255              		.loc 1 12 5 is_stmt 1 view .LVU22
 256              		.loc 1 12 17 is_stmt 0 view .LVU23
 257 0012 0221     		movs	r1, #2
 258 0014 04F16400 		add	r0, r4, #100
 259 0018 FFF7FEFF 		bl	_ZN6CapFir4InitENS_7ResTypeE
 260              	.LVL17:
  13:../../Classes/Temperamento/PlantConditioner.cpp ****     _curveFir.Init(CapFir::ResType::HIGH);
 261              		.loc 1 13 5 is_stmt 1 view .LVU24
 262              		.loc 1 13 19 is_stmt 0 view .LVU25
 263 001c 0221     		movs	r1, #2
 264 001e 04F57A70 		add	r0, r4, #1000
 265 0022 FFF7FEFF 		bl	_ZN6CapFir4InitENS_7ResTypeE
 266              	.LVL18:
  14:../../Classes/Temperamento/PlantConditioner.cpp ****     _delta = 0;
 267              		.loc 1 14 5 is_stmt 1 view .LVU26
 268              		.loc 1 14 12 is_stmt 0 view .LVU27
 269 0026 0023     		movs	r3, #0
 270 0028 04F28C71 		addw	r1, r4, #1932
  15:../../Classes/Temperamento/PlantConditioner.cpp ****     _deltaFilt = 0;
 271              		.loc 1 15 16 view .LVU28
 272 002c 04F5F262 		add	r2, r4, #1936
  16:../../Classes/Temperamento/PlantConditioner.cpp ****     _octave = 4;
ARM GAS  C:\Users\skipi\AppData\Local\Temp\ccTwk1u0.s 			page 6


 273              		.loc 1 16 13 view .LVU29
 274 0030 0420     		movs	r0, #4
  14:../../Classes/Temperamento/PlantConditioner.cpp ****     _delta = 0;
 275              		.loc 1 14 12 view .LVU30
 276 0032 0B60     		str	r3, [r1]	@ float
  15:../../Classes/Temperamento/PlantConditioner.cpp ****     _deltaFilt = 0;
 277              		.loc 1 15 5 is_stmt 1 view .LVU31
  15:../../Classes/Temperamento/PlantConditioner.cpp ****     _deltaFilt = 0;
 278              		.loc 1 15 16 is_stmt 0 view .LVU32
 279 0034 1360     		str	r3, [r2]	@ float
 280              		.loc 1 16 5 is_stmt 1 view .LVU33
  17:../../Classes/Temperamento/PlantConditioner.cpp ****     _lastFreq = 440.0f;
 281              		.loc 1 17 15 is_stmt 0 view .LVU34
 282 0036 04F27472 		addw	r2, r4, #1908
 283 003a 0449     		ldr	r1, .L10
  18:../../Classes/Temperamento/PlantConditioner.cpp ****     _lastNoteIndex = -1; // Reset indice nota
 284              		.loc 1 18 20 view .LVU35
 285 003c 4FF0FF33 		mov	r3, #-1
  16:../../Classes/Temperamento/PlantConditioner.cpp ****     _octave = 4;
 286              		.loc 1 16 13 view .LVU36
 287 0040 84F87C07 		strb	r0, [r4, #1916]
  17:../../Classes/Temperamento/PlantConditioner.cpp ****     _lastFreq = 440.0f;
 288              		.loc 1 17 5 is_stmt 1 view .LVU37
  17:../../Classes/Temperamento/PlantConditioner.cpp ****     _lastFreq = 440.0f;
 289              		.loc 1 17 15 is_stmt 0 view .LVU38
 290 0044 1160     		str	r1, [r2]	@ float
 291              		.loc 1 18 5 is_stmt 1 view .LVU39
 292              		.loc 1 18 20 is_stmt 0 view .LVU40
 293 0046 C4F87037 		str	r3, [r4, #1904]
  19:../../Classes/Temperamento/PlantConditioner.cpp **** }
 294              		.loc 1 19 1 view .LVU41
 295 004a 10BD     		pop	{r4, pc}
 296              	.LVL19:
 297              	.L11:
 298              		.loc 1 19 1 view .LVU42
 299              		.align	2
 300              	.L10:
 301 004c 0000DC43 		.word	1138491392
 302              		.cfi_endproc
 303              	.LFE4851:
 305              		.section	.text._ZN16PlantConditioner8setScaleENS_5NotesENS_9ScaleTypeE,"ax",%progbits
 306              		.align	1
 307              		.p2align 2,,3
 308              		.global	_ZN16PlantConditioner8setScaleENS_5NotesENS_9ScaleTypeE
 309              		.syntax unified
 310              		.thumb
 311              		.thumb_func
 312              		.fpu fpv5-d16
 314              	_ZN16PlantConditioner8setScaleENS_5NotesENS_9ScaleTypeE:
 315              	.LVL20:
 316              	.LFB4852:
  20:../../Classes/Temperamento/PlantConditioner.cpp **** 
  21:../../Classes/Temperamento/PlantConditioner.cpp **** void PlantConditioner::setScale(enum Notes root_note, enum ScaleType scale_type) {
 317              		.loc 1 21 82 is_stmt 1 view -0
 318              		.cfi_startproc
 319              		@ args = 0, pretend = 0, frame = 0
 320              		@ frame_needed = 0, uses_anonymous_args = 0
ARM GAS  C:\Users\skipi\AppData\Local\Temp\ccTwk1u0.s 			page 7


  22:../../Classes/Temperamento/PlantConditioner.cpp ****     // Copia della scala base
  23:../../Classes/Temperamento/PlantConditioner.cpp ****     switch (scale_type) 
 321              		.loc 1 23 5 view .LVU44
  21:../../Classes/Temperamento/PlantConditioner.cpp ****     // Copia della scala base
 322              		.loc 1 21 82 is_stmt 0 view .LVU45
 323 0000 70B5     		push	{r4, r5, r6, lr}
 324              		.cfi_def_cfa_offset 16
 325              		.cfi_offset 4, -16
 326              		.cfi_offset 5, -12
 327              		.cfi_offset 6, -8
 328              		.cfi_offset 14, -4
  21:../../Classes/Temperamento/PlantConditioner.cpp ****     // Copia della scala base
 329              		.loc 1 21 82 view .LVU46
 330 0002 07EE901A 		vmov	s15, r1	@ int
 331 0006 0546     		mov	r5, r0
 332 0008 062A     		cmp	r2, #6
 333 000a 24D8     		bhi	.L13
 334 000c DFE802F0 		tbb	[pc, r2]
 335              	.L15:
 336 0010 23       		.byte	(.L13-.L15)/2
 337 0011 7B       		.byte	(.L20-.L15)/2
 338 0012 9D       		.byte	(.L19-.L15)/2
 339 0013 BF       		.byte	(.L18-.L15)/2
 340 0014 E1       		.byte	(.L17-.L15)/2
 341 0015 04       		.byte	(.L16-.L15)/2
 342 0016 5D       		.byte	(.L14-.L15)/2
 343 0017 00       		.p2align 1
 344              	.L16:
 345              	.LBB19:
  24:../../Classes/Temperamento/PlantConditioner.cpp ****     {
  25:../../Classes/Temperamento/PlantConditioner.cpp ****     case Major:
  26:../../Classes/Temperamento/PlantConditioner.cpp ****         _scaleLength = 7;
  27:../../Classes/Temperamento/PlantConditioner.cpp ****         for (int i = 0; i < 7; i++) _scale[i] = _majorScale[i];
  28:../../Classes/Temperamento/PlantConditioner.cpp ****         break;
  29:../../Classes/Temperamento/PlantConditioner.cpp ****     case MinorNat:
  30:../../Classes/Temperamento/PlantConditioner.cpp ****         _scaleLength = 7;
  31:../../Classes/Temperamento/PlantConditioner.cpp ****         for (int i = 0; i < 7; i++) _scale[i] = _minorNScale[i];
  32:../../Classes/Temperamento/PlantConditioner.cpp ****         break;
  33:../../Classes/Temperamento/PlantConditioner.cpp ****     case MinorArm:
  34:../../Classes/Temperamento/PlantConditioner.cpp ****         _scaleLength = 7;
  35:../../Classes/Temperamento/PlantConditioner.cpp ****         for (int i = 0; i < 7; i++) _scale[i] = _minorAScale[i];
  36:../../Classes/Temperamento/PlantConditioner.cpp ****         break;
  37:../../Classes/Temperamento/PlantConditioner.cpp ****     case MinorMel:
  38:../../Classes/Temperamento/PlantConditioner.cpp ****         _scaleLength = 7;
  39:../../Classes/Temperamento/PlantConditioner.cpp ****         for (int i = 0; i < 7; i++) _scale[i] = _minorMScale[i];
  40:../../Classes/Temperamento/PlantConditioner.cpp ****         break;
  41:../../Classes/Temperamento/PlantConditioner.cpp ****     case Pentatonic:
  42:../../Classes/Temperamento/PlantConditioner.cpp ****         _scaleLength = 5;
  43:../../Classes/Temperamento/PlantConditioner.cpp ****         for (int i = 0; i < 5; i++) _scale[i] = _pentatonicScale[i];
  44:../../Classes/Temperamento/PlantConditioner.cpp ****         break;
  45:../../Classes/Temperamento/PlantConditioner.cpp ****     case Chromatic:
 346              		.loc 1 45 5 is_stmt 1 view .LVU47
  46:../../Classes/Temperamento/PlantConditioner.cpp ****         _scaleLength = 12;
 347              		.loc 1 46 9 view .LVU48
 348              	.LBB20:
  47:../../Classes/Temperamento/PlantConditioner.cpp ****         for (int i = 0; i < 12; i++) _scale[i] = _chromaticScale[i];
 349              		.loc 1 47 48 is_stmt 0 view .LVU49
ARM GAS  C:\Users\skipi\AppData\Local\Temp\ccTwk1u0.s 			page 8


 350 0018 00F2C474 		addw	r4, r0, #1988
 351              	.LBE20:
  46:../../Classes/Temperamento/PlantConditioner.cpp ****         _scaleLength = 12;
 352              		.loc 1 46 22 view .LVU50
 353 001c 0C21     		movs	r1, #12
 354              	.LVL21:
 355              	.LBB21:
 356              		.loc 1 47 48 view .LVU51
 357 001e 00F67803 		addw	r3, r0, #2168
 358 0022 00F6A806 		addw	r6, r0, #2216
 359 0026 2246     		mov	r2, r4
 360              	.LVL22:
 361              		.loc 1 47 48 view .LVU52
 362              	.LBE21:
  46:../../Classes/Temperamento/PlantConditioner.cpp ****         _scaleLength = 12;
 363              		.loc 1 46 22 view .LVU53
 364 0028 80F87D17 		strb	r1, [r0, #1917]
 365              		.loc 1 47 9 is_stmt 1 view .LVU54
 366              	.LVL23:
 367              	.LBB22:
 368              		.loc 1 47 27 view .LVU55
 369              	.L23:
 370              		.loc 1 47 48 is_stmt 0 view .LVU56
 371 002c D3F800E0 		ldr	lr, [r3]	@ unaligned
 372 0030 1033     		adds	r3, r3, #16
 373 0032 53F80CCC 		ldr	ip, [r3, #-12]	@ unaligned
 374 0036 1032     		adds	r2, r2, #16
 375 0038 53F8080C 		ldr	r0, [r3, #-8]	@ unaligned
 376 003c 53F8041C 		ldr	r1, [r3, #-4]	@ unaligned
 377 0040 B342     		cmp	r3, r6
 378 0042 42F810EC 		str	lr, [r2, #-16]	@ unaligned
 379 0046 42F80CCC 		str	ip, [r2, #-12]	@ unaligned
 380 004a 42F8080C 		str	r0, [r2, #-8]	@ unaligned
 381 004e 42F8041C 		str	r1, [r2, #-4]	@ unaligned
 382 0052 EBD1     		bne	.L23
 383 0054 20E0     		b	.L22
 384              	.LVL24:
 385              	.L13:
 386              		.loc 1 47 48 view .LVU57
 387              	.LBE22:
  48:../../Classes/Temperamento/PlantConditioner.cpp ****         break;
  49:../../Classes/Temperamento/PlantConditioner.cpp ****     case Esatonic:
  50:../../Classes/Temperamento/PlantConditioner.cpp ****         _scaleLength = 6;
  51:../../Classes/Temperamento/PlantConditioner.cpp ****         for (int i = 0; i < 6; i++) _scale[i] = _esatonic[i];
  52:../../Classes/Temperamento/PlantConditioner.cpp ****         break;
  53:../../Classes/Temperamento/PlantConditioner.cpp ****     default:
 388              		.loc 1 53 5 is_stmt 1 view .LVU58
  54:../../Classes/Temperamento/PlantConditioner.cpp ****         _scaleLength = 7;
 389              		.loc 1 54 9 view .LVU59
 390              	.LBB23:
  55:../../Classes/Temperamento/PlantConditioner.cpp ****         for (int i = 0; i < 7; i++) _scale[i] = _majorScale[i];
 391              		.loc 1 55 47 is_stmt 0 view .LVU60
 392 0056 D0F8FC37 		ldr	r3, [r0, #2044]	@ unaligned
 393 005a 05F2C474 		addw	r4, r5, #1988
 394 005e D0F8F417 		ldr	r1, [r0, #2036]	@ unaligned
 395              	.LVL25:
 396              		.loc 1 55 47 view .LVU61
ARM GAS  C:\Users\skipi\AppData\Local\Temp\ccTwk1u0.s 			page 9


 397 0062 D0F8F827 		ldr	r2, [r0, #2040]	@ unaligned
 398              	.LVL26:
 399              		.loc 1 55 47 view .LVU62
 400              	.LBE23:
  54:../../Classes/Temperamento/PlantConditioner.cpp ****         _scaleLength = 7;
 401              		.loc 1 54 22 view .LVU63
 402 0066 0720     		movs	r0, #7
 403              	.LVL27:
 404              	.LBB24:
 405              		.loc 1 55 47 view .LVU64
 406 0068 C5F8CC37 		str	r3, [r5, #1996]	@ unaligned
 407 006c D5F80038 		ldr	r3, [r5, #2048]	@ unaligned
 408 0070 C5F8C417 		str	r1, [r5, #1988]	@ unaligned
 409 0074 C5F8C827 		str	r2, [r5, #1992]	@ unaligned
 410 0078 D5F80418 		ldr	r1, [r5, #2052]	@ unaligned
 411 007c D5F80828 		ldr	r2, [r5, #2056]	@ unaligned
 412 0080 C5F8D037 		str	r3, [r5, #2000]	@ unaligned
 413 0084 D5F80C38 		ldr	r3, [r5, #2060]	@ unaligned
 414              	.LBE24:
  54:../../Classes/Temperamento/PlantConditioner.cpp ****         _scaleLength = 7;
 415              		.loc 1 54 22 view .LVU65
 416 0088 85F87D07 		strb	r0, [r5, #1917]
 417              		.loc 1 55 9 is_stmt 1 view .LVU66
 418              	.LVL28:
 419              	.LBB25:
 420              		.loc 1 55 27 view .LVU67
 421              		.loc 1 55 47 is_stmt 0 view .LVU68
 422 008c C5F8D417 		str	r1, [r5, #2004]	@ unaligned
 423 0090 C5F8D827 		str	r2, [r5, #2008]	@ unaligned
 424 0094 C5F8DC37 		str	r3, [r5, #2012]	@ unaligned
 425              	.LVL29:
 426              	.L22:
 427              		.loc 1 55 47 view .LVU69
 428              	.LBE25:
 429              	.LBE19:
  56:../../Classes/Temperamento/PlantConditioner.cpp ****         break;
  57:../../Classes/Temperamento/PlantConditioner.cpp ****     }
  58:../../Classes/Temperamento/PlantConditioner.cpp **** 
  59:../../Classes/Temperamento/PlantConditioner.cpp ****     // Trasposizione (Pitch Shifting) in base alla nota fondamentale
  60:../../Classes/Temperamento/PlantConditioner.cpp ****     // powf(2, n/12) calcola il rapporto semitonale
  61:../../Classes/Temperamento/PlantConditioner.cpp ****     float transposition = powf(2.0f, (float)root_note / 12.0f);
 430              		.loc 1 61 5 is_stmt 1 view .LVU70
 431              		.loc 1 61 38 is_stmt 0 view .LVU71
 432 0098 F8EE677A 		vcvt.f32.u32	s15, s15
 433              		.loc 1 61 31 view .LVU72
 434 009c F2EE080A 		vmov.f32	s1, #1.2e+1
 435 00a0 B0EE000A 		vmov.f32	s0, #2.0e+0
 436 00a4 C7EEA00A 		vdiv.f32	s1, s15, s1
 437 00a8 FFF7FEFF 		bl	powf
 438              	.LVL30:
 439              	.LBB41:
  62:../../Classes/Temperamento/PlantConditioner.cpp ****     for (int i = 0; i < _scaleLength; i++) {
 440              		.loc 1 62 25 view .LVU73
 441 00ac 95F87D27 		ldrb	r2, [r5, #1917]	@ zero_extendqisi2
 442              	.LVL31:
 443              		.loc 1 62 25 view .LVU74
 444              	.LBE41:
ARM GAS  C:\Users\skipi\AppData\Local\Temp\ccTwk1u0.s 			page 10


 445              		.loc 1 62 5 is_stmt 1 view .LVU75
 446              	.LBB42:
 447              		.loc 1 62 23 view .LVU76
 448 00b0 52B1     		cbz	r2, .L12
 449 00b2 2346     		mov	r3, r4
 450 00b4 04EB8202 		add	r2, r4, r2, lsl #2
 451              	.LVL32:
 452              	.L25:
  63:../../Classes/Temperamento/PlantConditioner.cpp ****         _scale[i] = _scale[i] * transposition; 
 453              		.loc 1 63 9 discriminator 2 view .LVU77
 454              		.loc 1 63 29 is_stmt 0 discriminator 2 view .LVU78
 455 00b8 D3ED007A 		vldr.32	s15, [r3]
 456              		.loc 1 63 31 discriminator 2 view .LVU79
 457 00bc 67EE807A 		vmul.f32	s15, s15, s0
 458              		.loc 1 63 19 discriminator 2 view .LVU80
 459 00c0 E3EC017A 		vstmia.32	r3!, {s15}
  62:../../Classes/Temperamento/PlantConditioner.cpp ****     for (int i = 0; i < _scaleLength; i++) {
 460              		.loc 1 62 5 is_stmt 1 discriminator 2 view .LVU81
  62:../../Classes/Temperamento/PlantConditioner.cpp ****     for (int i = 0; i < _scaleLength; i++) {
 461              		.loc 1 62 23 discriminator 2 view .LVU82
 462 00c4 9A42     		cmp	r2, r3
 463 00c6 F7D1     		bne	.L25
 464              	.L12:
  62:../../Classes/Temperamento/PlantConditioner.cpp ****     for (int i = 0; i < _scaleLength; i++) {
 465              		.loc 1 62 23 is_stmt 0 discriminator 2 view .LVU83
 466              	.LBE42:
  64:../../Classes/Temperamento/PlantConditioner.cpp ****     }
  65:../../Classes/Temperamento/PlantConditioner.cpp **** }
 467              		.loc 1 65 1 view .LVU84
 468 00c8 70BD     		pop	{r4, r5, r6, pc}
 469              	.LVL33:
 470              	.L14:
 471              	.LBB43:
  49:../../Classes/Temperamento/PlantConditioner.cpp ****         _scaleLength = 6;
 472              		.loc 1 49 5 is_stmt 1 view .LVU85
  50:../../Classes/Temperamento/PlantConditioner.cpp ****         for (int i = 0; i < 6; i++) _scale[i] = _esatonic[i];
 473              		.loc 1 50 9 view .LVU86
 474              	.LBB26:
  51:../../Classes/Temperamento/PlantConditioner.cpp ****         break;
 475              		.loc 1 51 47 is_stmt 0 view .LVU87
 476 00ca D0F8A828 		ldr	r2, [r0, #2216]	@ unaligned
 477              	.LVL34:
  51:../../Classes/Temperamento/PlantConditioner.cpp ****         break;
 478              		.loc 1 51 47 view .LVU88
 479 00ce 05F2C474 		addw	r4, r5, #1988
 480 00d2 D0F8AC38 		ldr	r3, [r0, #2220]	@ unaligned
 481              	.LBE26:
  50:../../Classes/Temperamento/PlantConditioner.cpp ****         for (int i = 0; i < 6; i++) _scale[i] = _esatonic[i];
 482              		.loc 1 50 22 view .LVU89
 483 00d6 0620     		movs	r0, #6
 484              	.LVL35:
 485              	.LBB27:
  51:../../Classes/Temperamento/PlantConditioner.cpp ****         break;
 486              		.loc 1 51 47 view .LVU90
 487 00d8 D5F8B068 		ldr	r6, [r5, #2224]	@ unaligned
 488 00dc D5F8B418 		ldr	r1, [r5, #2228]	@ unaligned
 489              	.LVL36:
ARM GAS  C:\Users\skipi\AppData\Local\Temp\ccTwk1u0.s 			page 11


  51:../../Classes/Temperamento/PlantConditioner.cpp ****         break;
 490              		.loc 1 51 47 view .LVU91
 491 00e0 C5F8C427 		str	r2, [r5, #1988]	@ unaligned
 492 00e4 C5F8C837 		str	r3, [r5, #1992]	@ unaligned
 493 00e8 D5F8B828 		ldr	r2, [r5, #2232]	@ unaligned
 494 00ec D5F8BC38 		ldr	r3, [r5, #2236]	@ unaligned
 495 00f0 C5F8D427 		str	r2, [r5, #2004]	@ unaligned
 496 00f4 C5F8CC67 		str	r6, [r5, #1996]	@ unaligned
 497              	.LBE27:
  50:../../Classes/Temperamento/PlantConditioner.cpp ****         for (int i = 0; i < 6; i++) _scale[i] = _esatonic[i];
 498              		.loc 1 50 22 view .LVU92
 499 00f8 85F87D07 		strb	r0, [r5, #1917]
  51:../../Classes/Temperamento/PlantConditioner.cpp ****         break;
 500              		.loc 1 51 9 is_stmt 1 view .LVU93
 501              	.LVL37:
 502              	.LBB28:
  51:../../Classes/Temperamento/PlantConditioner.cpp ****         break;
 503              		.loc 1 51 27 view .LVU94
  51:../../Classes/Temperamento/PlantConditioner.cpp ****         break;
 504              		.loc 1 51 47 is_stmt 0 view .LVU95
 505 00fc C5F8D017 		str	r1, [r5, #2000]	@ unaligned
 506 0100 C5F8D837 		str	r3, [r5, #2008]	@ unaligned
 507 0104 C8E7     		b	.L22
 508              	.LVL38:
 509              	.L20:
  51:../../Classes/Temperamento/PlantConditioner.cpp ****         break;
 510              		.loc 1 51 47 view .LVU96
 511              	.LBE28:
  29:../../Classes/Temperamento/PlantConditioner.cpp ****         _scaleLength = 7;
 512              		.loc 1 29 5 is_stmt 1 view .LVU97
  30:../../Classes/Temperamento/PlantConditioner.cpp ****         for (int i = 0; i < 7; i++) _scale[i] = _minorNScale[i];
 513              		.loc 1 30 9 view .LVU98
 514              	.LBB29:
  31:../../Classes/Temperamento/PlantConditioner.cpp ****         break;
 515              		.loc 1 31 47 is_stmt 0 view .LVU99
 516 0106 D0F81838 		ldr	r3, [r0, #2072]	@ unaligned
 517 010a 05F2C474 		addw	r4, r5, #1988
 518 010e D0F81018 		ldr	r1, [r0, #2064]	@ unaligned
 519              	.LVL39:
  31:../../Classes/Temperamento/PlantConditioner.cpp ****         break;
 520              		.loc 1 31 47 view .LVU100
 521 0112 D0F81428 		ldr	r2, [r0, #2068]	@ unaligned
 522              	.LVL40:
  31:../../Classes/Temperamento/PlantConditioner.cpp ****         break;
 523              		.loc 1 31 47 view .LVU101
 524              	.LBE29:
  30:../../Classes/Temperamento/PlantConditioner.cpp ****         for (int i = 0; i < 7; i++) _scale[i] = _minorNScale[i];
 525              		.loc 1 30 22 view .LVU102
 526 0116 0720     		movs	r0, #7
 527              	.LVL41:
 528              	.LBB30:
  31:../../Classes/Temperamento/PlantConditioner.cpp ****         break;
 529              		.loc 1 31 47 view .LVU103
 530 0118 C5F8CC37 		str	r3, [r5, #1996]	@ unaligned
 531 011c D5F81C38 		ldr	r3, [r5, #2076]	@ unaligned
 532 0120 C5F8C417 		str	r1, [r5, #1988]	@ unaligned
 533 0124 C5F8C827 		str	r2, [r5, #1992]	@ unaligned
ARM GAS  C:\Users\skipi\AppData\Local\Temp\ccTwk1u0.s 			page 12


 534 0128 D5F82018 		ldr	r1, [r5, #2080]	@ unaligned
 535 012c D5F82428 		ldr	r2, [r5, #2084]	@ unaligned
 536 0130 C5F8D037 		str	r3, [r5, #2000]	@ unaligned
 537 0134 D5F82838 		ldr	r3, [r5, #2088]	@ unaligned
 538              	.LBE30:
  30:../../Classes/Temperamento/PlantConditioner.cpp ****         for (int i = 0; i < 7; i++) _scale[i] = _minorNScale[i];
 539              		.loc 1 30 22 view .LVU104
 540 0138 85F87D07 		strb	r0, [r5, #1917]
  31:../../Classes/Temperamento/PlantConditioner.cpp ****         break;
 541              		.loc 1 31 9 is_stmt 1 view .LVU105
 542              	.LVL42:
 543              	.LBB31:
  31:../../Classes/Temperamento/PlantConditioner.cpp ****         break;
 544              		.loc 1 31 27 view .LVU106
  31:../../Classes/Temperamento/PlantConditioner.cpp ****         break;
 545              		.loc 1 31 47 is_stmt 0 view .LVU107
 546 013c C5F8D417 		str	r1, [r5, #2004]	@ unaligned
 547 0140 C5F8D827 		str	r2, [r5, #2008]	@ unaligned
 548 0144 C5F8DC37 		str	r3, [r5, #2012]	@ unaligned
 549 0148 A6E7     		b	.L22
 550              	.LVL43:
 551              	.L19:
  31:../../Classes/Temperamento/PlantConditioner.cpp ****         break;
 552              		.loc 1 31 47 view .LVU108
 553              	.LBE31:
  33:../../Classes/Temperamento/PlantConditioner.cpp ****         _scaleLength = 7;
 554              		.loc 1 33 5 is_stmt 1 view .LVU109
  34:../../Classes/Temperamento/PlantConditioner.cpp ****         for (int i = 0; i < 7; i++) _scale[i] = _minorAScale[i];
 555              		.loc 1 34 9 view .LVU110
 556              	.LBB32:
  35:../../Classes/Temperamento/PlantConditioner.cpp ****         break;
 557              		.loc 1 35 47 is_stmt 0 view .LVU111
 558 014a D0F83438 		ldr	r3, [r0, #2100]	@ unaligned
 559 014e 05F2C474 		addw	r4, r5, #1988
 560 0152 D0F82C18 		ldr	r1, [r0, #2092]	@ unaligned
 561              	.LVL44:
  35:../../Classes/Temperamento/PlantConditioner.cpp ****         break;
 562              		.loc 1 35 47 view .LVU112
 563 0156 D0F83028 		ldr	r2, [r0, #2096]	@ unaligned
 564              	.LVL45:
  35:../../Classes/Temperamento/PlantConditioner.cpp ****         break;
 565              		.loc 1 35 47 view .LVU113
 566              	.LBE32:
  34:../../Classes/Temperamento/PlantConditioner.cpp ****         for (int i = 0; i < 7; i++) _scale[i] = _minorAScale[i];
 567              		.loc 1 34 22 view .LVU114
 568 015a 0720     		movs	r0, #7
 569              	.LVL46:
 570              	.LBB33:
  35:../../Classes/Temperamento/PlantConditioner.cpp ****         break;
 571              		.loc 1 35 47 view .LVU115
 572 015c C5F8CC37 		str	r3, [r5, #1996]	@ unaligned
 573 0160 D5F83838 		ldr	r3, [r5, #2104]	@ unaligned
 574 0164 C5F8C417 		str	r1, [r5, #1988]	@ unaligned
 575 0168 C5F8C827 		str	r2, [r5, #1992]	@ unaligned
 576 016c D5F83C18 		ldr	r1, [r5, #2108]	@ unaligned
 577 0170 D5F84028 		ldr	r2, [r5, #2112]	@ unaligned
 578 0174 C5F8D037 		str	r3, [r5, #2000]	@ unaligned
ARM GAS  C:\Users\skipi\AppData\Local\Temp\ccTwk1u0.s 			page 13


 579 0178 D5F84438 		ldr	r3, [r5, #2116]	@ unaligned
 580              	.LBE33:
  34:../../Classes/Temperamento/PlantConditioner.cpp ****         for (int i = 0; i < 7; i++) _scale[i] = _minorAScale[i];
 581              		.loc 1 34 22 view .LVU116
 582 017c 85F87D07 		strb	r0, [r5, #1917]
  35:../../Classes/Temperamento/PlantConditioner.cpp ****         break;
 583              		.loc 1 35 9 is_stmt 1 view .LVU117
 584              	.LVL47:
 585              	.LBB34:
  35:../../Classes/Temperamento/PlantConditioner.cpp ****         break;
 586              		.loc 1 35 27 view .LVU118
  35:../../Classes/Temperamento/PlantConditioner.cpp ****         break;
 587              		.loc 1 35 47 is_stmt 0 view .LVU119
 588 0180 C5F8D417 		str	r1, [r5, #2004]	@ unaligned
 589 0184 C5F8D827 		str	r2, [r5, #2008]	@ unaligned
 590 0188 C5F8DC37 		str	r3, [r5, #2012]	@ unaligned
 591 018c 84E7     		b	.L22
 592              	.LVL48:
 593              	.L18:
  35:../../Classes/Temperamento/PlantConditioner.cpp ****         break;
 594              		.loc 1 35 47 view .LVU120
 595              	.LBE34:
  37:../../Classes/Temperamento/PlantConditioner.cpp ****         _scaleLength = 7;
 596              		.loc 1 37 5 is_stmt 1 view .LVU121
  38:../../Classes/Temperamento/PlantConditioner.cpp ****         for (int i = 0; i < 7; i++) _scale[i] = _minorMScale[i];
 597              		.loc 1 38 9 view .LVU122
 598              	.LBB35:
  39:../../Classes/Temperamento/PlantConditioner.cpp ****         break;
 599              		.loc 1 39 47 is_stmt 0 view .LVU123
 600 018e D0F85038 		ldr	r3, [r0, #2128]	@ unaligned
 601 0192 05F2C474 		addw	r4, r5, #1988
 602 0196 D0F84818 		ldr	r1, [r0, #2120]	@ unaligned
 603              	.LVL49:
  39:../../Classes/Temperamento/PlantConditioner.cpp ****         break;
 604              		.loc 1 39 47 view .LVU124
 605 019a D0F84C28 		ldr	r2, [r0, #2124]	@ unaligned
 606              	.LVL50:
  39:../../Classes/Temperamento/PlantConditioner.cpp ****         break;
 607              		.loc 1 39 47 view .LVU125
 608              	.LBE35:
  38:../../Classes/Temperamento/PlantConditioner.cpp ****         for (int i = 0; i < 7; i++) _scale[i] = _minorMScale[i];
 609              		.loc 1 38 22 view .LVU126
 610 019e 0720     		movs	r0, #7
 611              	.LVL51:
 612              	.LBB36:
  39:../../Classes/Temperamento/PlantConditioner.cpp ****         break;
 613              		.loc 1 39 47 view .LVU127
 614 01a0 C5F8CC37 		str	r3, [r5, #1996]	@ unaligned
 615 01a4 D5F85438 		ldr	r3, [r5, #2132]	@ unaligned
 616 01a8 C5F8C417 		str	r1, [r5, #1988]	@ unaligned
 617 01ac C5F8C827 		str	r2, [r5, #1992]	@ unaligned
 618 01b0 D5F85818 		ldr	r1, [r5, #2136]	@ unaligned
 619 01b4 D5F85C28 		ldr	r2, [r5, #2140]	@ unaligned
 620 01b8 C5F8D037 		str	r3, [r5, #2000]	@ unaligned
 621 01bc D5F86038 		ldr	r3, [r5, #2144]	@ unaligned
 622              	.LBE36:
  38:../../Classes/Temperamento/PlantConditioner.cpp ****         for (int i = 0; i < 7; i++) _scale[i] = _minorMScale[i];
ARM GAS  C:\Users\skipi\AppData\Local\Temp\ccTwk1u0.s 			page 14


 623              		.loc 1 38 22 view .LVU128
 624 01c0 85F87D07 		strb	r0, [r5, #1917]
  39:../../Classes/Temperamento/PlantConditioner.cpp ****         break;
 625              		.loc 1 39 9 is_stmt 1 view .LVU129
 626              	.LVL52:
 627              	.LBB37:
  39:../../Classes/Temperamento/PlantConditioner.cpp ****         break;
 628              		.loc 1 39 27 view .LVU130
  39:../../Classes/Temperamento/PlantConditioner.cpp ****         break;
 629              		.loc 1 39 47 is_stmt 0 view .LVU131
 630 01c4 C5F8D417 		str	r1, [r5, #2004]	@ unaligned
 631 01c8 C5F8D827 		str	r2, [r5, #2008]	@ unaligned
 632 01cc C5F8DC37 		str	r3, [r5, #2012]	@ unaligned
 633 01d0 62E7     		b	.L22
 634              	.LVL53:
 635              	.L17:
  39:../../Classes/Temperamento/PlantConditioner.cpp ****         break;
 636              		.loc 1 39 47 view .LVU132
 637              	.LBE37:
  41:../../Classes/Temperamento/PlantConditioner.cpp ****         _scaleLength = 5;
 638              		.loc 1 41 5 is_stmt 1 view .LVU133
  42:../../Classes/Temperamento/PlantConditioner.cpp ****         for (int i = 0; i < 5; i++) _scale[i] = _pentatonicScale[i];
 639              		.loc 1 42 9 view .LVU134
 640              	.LBB38:
  43:../../Classes/Temperamento/PlantConditioner.cpp ****         break;
 641              		.loc 1 43 47 is_stmt 0 view .LVU135
 642 01d2 D0F86438 		ldr	r3, [r0, #2148]	@ unaligned
 643              	.LBE38:
  42:../../Classes/Temperamento/PlantConditioner.cpp ****         for (int i = 0; i < 5; i++) _scale[i] = _pentatonicScale[i];
 644              		.loc 1 42 22 view .LVU136
 645 01d6 0521     		movs	r1, #5
 646              	.LVL54:
 647              	.LBB39:
  43:../../Classes/Temperamento/PlantConditioner.cpp ****         break;
 648              		.loc 1 43 47 view .LVU137
 649 01d8 05F2C474 		addw	r4, r5, #1988
 650 01dc C0F8C437 		str	r3, [r0, #1988]	@ unaligned
 651 01e0 D5F86C38 		ldr	r3, [r5, #2156]	@ unaligned
 652 01e4 D0F86808 		ldr	r0, [r0, #2152]	@ unaligned
 653              	.LVL55:
  43:../../Classes/Temperamento/PlantConditioner.cpp ****         break;
 654              		.loc 1 43 47 view .LVU138
 655 01e8 D5F87028 		ldr	r2, [r5, #2160]	@ unaligned
 656              	.LVL56:
  43:../../Classes/Temperamento/PlantConditioner.cpp ****         break;
 657              		.loc 1 43 47 view .LVU139
 658 01ec C5F8CC37 		str	r3, [r5, #1996]	@ unaligned
 659 01f0 D5F87438 		ldr	r3, [r5, #2164]	@ unaligned
 660 01f4 C5F8C807 		str	r0, [r5, #1992]	@ unaligned
 661              	.LBE39:
  42:../../Classes/Temperamento/PlantConditioner.cpp ****         for (int i = 0; i < 5; i++) _scale[i] = _pentatonicScale[i];
 662              		.loc 1 42 22 view .LVU140
 663 01f8 85F87D17 		strb	r1, [r5, #1917]
  43:../../Classes/Temperamento/PlantConditioner.cpp ****         break;
 664              		.loc 1 43 9 is_stmt 1 view .LVU141
 665              	.LVL57:
 666              	.LBB40:
ARM GAS  C:\Users\skipi\AppData\Local\Temp\ccTwk1u0.s 			page 15


  43:../../Classes/Temperamento/PlantConditioner.cpp ****         break;
 667              		.loc 1 43 27 view .LVU142
  43:../../Classes/Temperamento/PlantConditioner.cpp ****         break;
 668              		.loc 1 43 47 is_stmt 0 view .LVU143
 669 01fc C5F8D027 		str	r2, [r5, #2000]	@ unaligned
 670 0200 C5F8D437 		str	r3, [r5, #2004]	@ unaligned
 671 0204 48E7     		b	.L22
 672              	.LBE40:
 673              	.LBE43:
 674              		.cfi_endproc
 675              	.LFE4852:
 677 0206 00BF     		.section	.text._ZN16PlantConditioner9setOctaveEh,"ax",%progbits
 678              		.align	1
 679              		.p2align 2,,3
 680              		.global	_ZN16PlantConditioner9setOctaveEh
 681              		.syntax unified
 682              		.thumb
 683              		.thumb_func
 684              		.fpu fpv5-d16
 686              	_ZN16PlantConditioner9setOctaveEh:
 687              	.LVL58:
 688              	.LFB4853:
  66:../../Classes/Temperamento/PlantConditioner.cpp **** 
  67:../../Classes/Temperamento/PlantConditioner.cpp **** void PlantConditioner::setOctave(uint8_t octave) {
 689              		.loc 1 67 50 is_stmt 1 view -0
 690              		.cfi_startproc
 691              		@ args = 0, pretend = 0, frame = 0
 692              		@ frame_needed = 0, uses_anonymous_args = 0
 693              		@ link register save eliminated.
  68:../../Classes/Temperamento/PlantConditioner.cpp ****     _octave = octave;
 694              		.loc 1 68 5 view .LVU145
 695              		.loc 1 68 13 is_stmt 0 view .LVU146
 696 0000 80F87C17 		strb	r1, [r0, #1916]
  69:../../Classes/Temperamento/PlantConditioner.cpp **** }
 697              		.loc 1 69 1 view .LVU147
 698 0004 7047     		bx	lr
 699              		.cfi_endproc
 700              	.LFE4853:
 702 0006 00BF     		.section	.text._ZN16PlantConditioner7ProcessEtt,"ax",%progbits
 703              		.align	1
 704              		.p2align 2,,3
 705              		.global	_ZN16PlantConditioner7ProcessEtt
 706              		.syntax unified
 707              		.thumb
 708              		.thumb_func
 709              		.fpu fpv5-d16
 711              	_ZN16PlantConditioner7ProcessEtt:
 712              	.LVL59:
 713              	.LFB4854:
  70:../../Classes/Temperamento/PlantConditioner.cpp **** 
  71:../../Classes/Temperamento/PlantConditioner.cpp **** float PlantConditioner::Process(uint16_t baseline, uint16_t filtered) {
 714              		.loc 1 71 71 is_stmt 1 view -0
 715              		.cfi_startproc
 716              		@ args = 0, pretend = 0, frame = 0
 717              		@ frame_needed = 0, uses_anonymous_args = 0
  72:../../Classes/Temperamento/PlantConditioner.cpp ****     float out = _lastFreq;
 718              		.loc 1 72 5 view .LVU149
ARM GAS  C:\Users\skipi\AppData\Local\Temp\ccTwk1u0.s 			page 16


  73:../../Classes/Temperamento/PlantConditioner.cpp ****     
  74:../../Classes/Temperamento/PlantConditioner.cpp ****     // Calcolo Delta
  75:../../Classes/Temperamento/PlantConditioner.cpp ****     _delta = (float)baseline - (float)filtered - (float)_touchThreshold;
 719              		.loc 1 75 32 is_stmt 0 view .LVU150
 720 0000 07EE102A 		vmov	s14, r2	@ int
 721              		.loc 1 75 14 view .LVU151
 722 0004 07EE901A 		vmov	s15, r1	@ int
  71:../../Classes/Temperamento/PlantConditioner.cpp ****     float out = _lastFreq;
 723              		.loc 1 71 71 view .LVU152
 724 0008 2DE9F84F 		push	{r3, r4, r5, r6, r7, r8, r9, r10, fp, lr}
 725              		.cfi_def_cfa_offset 40
 726              		.cfi_offset 3, -40
 727              		.cfi_offset 4, -36
 728              		.cfi_offset 5, -32
 729              		.cfi_offset 6, -28
 730              		.cfi_offset 7, -24
 731              		.cfi_offset 8, -20
 732              		.cfi_offset 9, -16
 733              		.cfi_offset 10, -12
 734              		.cfi_offset 11, -8
 735              		.cfi_offset 14, -4
 736 000c 2DED068B 		vpush.64	{d8, d9, d10}
 737              		.cfi_def_cfa_offset 64
 738              		.cfi_offset 80, -64
 739              		.cfi_offset 81, -60
 740              		.cfi_offset 82, -56
 741              		.cfi_offset 83, -52
 742              		.cfi_offset 84, -48
 743              		.cfi_offset 85, -44
 744              		.loc 1 75 50 view .LVU153
 745 0010 0378     		ldrb	r3, [r0]	@ zero_extendqisi2
 746              		.loc 1 75 32 view .LVU154
 747 0012 B8EE477A 		vcvt.f32.u32	s14, s14
 748              		.loc 1 75 14 view .LVU155
 749 0016 F8EE677A 		vcvt.f32.u32	s15, s15
  72:../../Classes/Temperamento/PlantConditioner.cpp ****     float out = _lastFreq;
 750              		.loc 1 72 11 view .LVU156
 751 001a 00F2747A 		addw	r10, r0, #1908
 752              		.loc 1 75 50 view .LVU157
 753 001e 00EE103A 		vmov	s0, r3	@ int
 754              		.loc 1 75 12 view .LVU158
 755 0022 00F28C73 		addw	r3, r0, #1932
  71:../../Classes/Temperamento/PlantConditioner.cpp ****     float out = _lastFreq;
 756              		.loc 1 71 71 view .LVU159
 757 0026 0546     		mov	r5, r0
  72:../../Classes/Temperamento/PlantConditioner.cpp ****     float out = _lastFreq;
 758              		.loc 1 72 11 view .LVU160
 759 0028 9AED00AA 		vldr.32	s20, [r10]
 760              	.LVL60:
 761              		.loc 1 75 5 is_stmt 1 view .LVU161
 762              		.loc 1 75 30 is_stmt 0 view .LVU162
 763 002c 77EEC77A 		vsub.f32	s15, s15, s14
  76:../../Classes/Temperamento/PlantConditioner.cpp ****     
  77:../../Classes/Temperamento/PlantConditioner.cpp ****     // Filtraggio e Clamp
  78:../../Classes/Temperamento/PlantConditioner.cpp ****     _deltaFilt = _deltaFilter.Process(_deltaFilterMF.Process(_delta));
 764              		.loc 1 78 38 view .LVU163
 765 0030 4C30     		adds	r0, r0, #76
ARM GAS  C:\Users\skipi\AppData\Local\Temp\ccTwk1u0.s 			page 17


 766              	.LVL61:
  75:../../Classes/Temperamento/PlantConditioner.cpp ****     
 767              		.loc 1 75 50 view .LVU164
 768 0032 B8EE400A 		vcvt.f32.u32	s0, s0
  79:../../Classes/Temperamento/PlantConditioner.cpp ****     _deltaFilt = fclamp(_deltaFilt, _deltaMin, _deltaMax - 0.001f);
 769              		.loc 1 79 24 view .LVU165
 770 0036 05F5F066 		add	r6, r5, #1920
 771              		.loc 1 79 16 view .LVU166
 772 003a 05F5F269 		add	r9, r5, #1936
  75:../../Classes/Temperamento/PlantConditioner.cpp ****     
 773              		.loc 1 75 48 view .LVU167
 774 003e 37EEC00A 		vsub.f32	s0, s15, s0
  75:../../Classes/Temperamento/PlantConditioner.cpp ****     
 775              		.loc 1 75 12 view .LVU168
 776 0042 83ED000A 		vstr.32	s0, [r3]
  78:../../Classes/Temperamento/PlantConditioner.cpp ****     _deltaFilt = fclamp(_deltaFilt, _deltaMin, _deltaMax - 0.001f);
 777              		.loc 1 78 5 is_stmt 1 view .LVU169
  78:../../Classes/Temperamento/PlantConditioner.cpp ****     _deltaFilt = fclamp(_deltaFilt, _deltaMin, _deltaMax - 0.001f);
 778              		.loc 1 78 38 is_stmt 0 view .LVU170
 779 0046 FFF7FEFF 		bl	_ZN2MF7ProcessEf
 780              	.LVL62:
  78:../../Classes/Temperamento/PlantConditioner.cpp ****     _deltaFilt = fclamp(_deltaFilt, _deltaMin, _deltaMax - 0.001f);
 781              		.loc 1 78 38 view .LVU171
 782 004a 281D     		adds	r0, r5, #4
 783 004c FFF7FEFF 		bl	_ZN3IIR7ProcessEf
 784              	.LVL63:
 785              		.loc 1 79 5 is_stmt 1 view .LVU172
 786              		.loc 1 79 48 is_stmt 0 view .LVU173
 787 0050 05F28473 		addw	r3, r5, #1924
 788              	.LBB44:
  80:../../Classes/Temperamento/PlantConditioner.cpp ****     
  81:../../Classes/Temperamento/PlantConditioner.cpp ****     // ---------------------------------------------------------
  82:../../Classes/Temperamento/PlantConditioner.cpp ****     // FASE 1: STICKY CHECK (Priorità alla nota corrente)
  83:../../Classes/Temperamento/PlantConditioner.cpp ****     // Controlliamo subito se possiamo rimanere sulla nota attuale
  84:../../Classes/Temperamento/PlantConditioner.cpp ****     // ---------------------------------------------------------
  85:../../Classes/Temperamento/PlantConditioner.cpp ****     if (_lastNoteIndex >= 0 && _lastNoteIndex < _scaleLength) {
 789              		.loc 1 85 9 view .LVU174
 790 0054 D5F87027 		ldr	r2, [r5, #1904]
 791              	.LBE44:
  79:../../Classes/Temperamento/PlantConditioner.cpp ****     
 792              		.loc 1 79 24 view .LVU175
 793 0058 D3ED007A 		vldr.32	s15, [r3]
 794 005c 9FED5F7A 		vldr.32	s14, .L54
 795              	.LBB47:
 796              		.loc 1 85 5 view .LVU176
 797 0060 002A     		cmp	r2, #0
 798              	.LBE47:
  79:../../Classes/Temperamento/PlantConditioner.cpp ****     
 799              		.loc 1 79 24 view .LVU177
 800 0062 96ED008A 		vldr.32	s16, [r6]
 801              	.LVL64:
 802              	.LBB48:
 803              	.LBI48:
 804              		.file 2 "../../libs/DaisySP/Source/Utility/dsp.h"
   1:../../libs/DaisySP/Source/Utility/dsp.h **** /*
   2:../../libs/DaisySP/Source/Utility/dsp.h **** Copyright (c) 2020 Electrosmith, Corp, Emilie Gillet
   3:../../libs/DaisySP/Source/Utility/dsp.h **** 
ARM GAS  C:\Users\skipi\AppData\Local\Temp\ccTwk1u0.s 			page 18


   4:../../libs/DaisySP/Source/Utility/dsp.h **** Use of this source code is governed by an MIT-style
   5:../../libs/DaisySP/Source/Utility/dsp.h **** license that can be found in the LICENSE file or at
   6:../../libs/DaisySP/Source/Utility/dsp.h **** https://opensource.org/licenses/MIT.
   7:../../libs/DaisySP/Source/Utility/dsp.h **** */
   8:../../libs/DaisySP/Source/Utility/dsp.h **** 
   9:../../libs/DaisySP/Source/Utility/dsp.h **** /** Helpful defines, functions, and other utilities for use in/with daisysp modules.
  10:../../libs/DaisySP/Source/Utility/dsp.h **** */
  11:../../libs/DaisySP/Source/Utility/dsp.h **** #pragma once
  12:../../libs/DaisySP/Source/Utility/dsp.h **** #ifndef DSY_CORE_DSP
  13:../../libs/DaisySP/Source/Utility/dsp.h **** #define DSY_CORE_DSP
  14:../../libs/DaisySP/Source/Utility/dsp.h **** #include <cassert>
  15:../../libs/DaisySP/Source/Utility/dsp.h **** #include <cstdint>
  16:../../libs/DaisySP/Source/Utility/dsp.h **** #include <random>
  17:../../libs/DaisySP/Source/Utility/dsp.h **** #include <cmath>
  18:../../libs/DaisySP/Source/Utility/dsp.h **** #include "dsp.h"
  19:../../libs/DaisySP/Source/Utility/dsp.h **** /** PIs
  20:../../libs/DaisySP/Source/Utility/dsp.h **** */
  21:../../libs/DaisySP/Source/Utility/dsp.h **** #define PI_F 3.1415927410125732421875f
  22:../../libs/DaisySP/Source/Utility/dsp.h **** #define TWOPI_F (2.0f * PI_F)
  23:../../libs/DaisySP/Source/Utility/dsp.h **** #define HALFPI_F (PI_F * 0.5f)
  24:../../libs/DaisySP/Source/Utility/dsp.h **** #define DSY_MIN(in, mn) (in < mn ? in : mn)
  25:../../libs/DaisySP/Source/Utility/dsp.h **** #define DSY_MAX(in, mx) (in > mx ? in : mx)
  26:../../libs/DaisySP/Source/Utility/dsp.h **** #define DSY_CLAMP(in, mn, mx) (DSY_MIN(DSY_MAX(in, mn), mx))
  27:../../libs/DaisySP/Source/Utility/dsp.h **** #define DSY_COUNTOF(_arr) (sizeof(_arr) / sizeof(_arr[0]))
  28:../../libs/DaisySP/Source/Utility/dsp.h **** 
  29:../../libs/DaisySP/Source/Utility/dsp.h **** namespace daisysp
  30:../../libs/DaisySP/Source/Utility/dsp.h **** {
  31:../../libs/DaisySP/Source/Utility/dsp.h **** //Avoids division for random floats. e.g. rand() * kRandFrac
  32:../../libs/DaisySP/Source/Utility/dsp.h **** static constexpr float kRandFrac = 1.f / (float)RAND_MAX;
  33:../../libs/DaisySP/Source/Utility/dsp.h **** 
  34:../../libs/DaisySP/Source/Utility/dsp.h **** //Convert from semitones to other units. e.g. 2 ^ (kOneTwelfth * x)
  35:../../libs/DaisySP/Source/Utility/dsp.h **** static constexpr float kOneTwelfth = 1.f / 12.f;
  36:../../libs/DaisySP/Source/Utility/dsp.h **** 
  37:../../libs/DaisySP/Source/Utility/dsp.h **** /** efficient floating point min/max
  38:../../libs/DaisySP/Source/Utility/dsp.h **** c/o stephen mccaul
  39:../../libs/DaisySP/Source/Utility/dsp.h **** */
  40:../../libs/DaisySP/Source/Utility/dsp.h **** inline float fmax(float a, float b)
  41:../../libs/DaisySP/Source/Utility/dsp.h **** {
  42:../../libs/DaisySP/Source/Utility/dsp.h ****     float r;
  43:../../libs/DaisySP/Source/Utility/dsp.h **** #ifdef __arm__
  44:../../libs/DaisySP/Source/Utility/dsp.h ****     asm("vmaxnm.f32 %[d], %[n], %[m]" : [d] "=t"(r) : [n] "t"(a), [m] "t"(b) :);
  45:../../libs/DaisySP/Source/Utility/dsp.h **** #else
  46:../../libs/DaisySP/Source/Utility/dsp.h ****     r = (a > b) ? a : b;
  47:../../libs/DaisySP/Source/Utility/dsp.h **** #endif // __arm__
  48:../../libs/DaisySP/Source/Utility/dsp.h ****     return r;
  49:../../libs/DaisySP/Source/Utility/dsp.h **** }
  50:../../libs/DaisySP/Source/Utility/dsp.h **** 
  51:../../libs/DaisySP/Source/Utility/dsp.h **** inline float fmin(float a, float b)
  52:../../libs/DaisySP/Source/Utility/dsp.h **** {
  53:../../libs/DaisySP/Source/Utility/dsp.h ****     float r;
  54:../../libs/DaisySP/Source/Utility/dsp.h **** #ifdef __arm__
  55:../../libs/DaisySP/Source/Utility/dsp.h ****     asm("vminnm.f32 %[d], %[n], %[m]" : [d] "=t"(r) : [n] "t"(a), [m] "t"(b) :);
  56:../../libs/DaisySP/Source/Utility/dsp.h **** #else
  57:../../libs/DaisySP/Source/Utility/dsp.h ****     r = (a < b) ? a : b;
  58:../../libs/DaisySP/Source/Utility/dsp.h **** #endif // __arm__
  59:../../libs/DaisySP/Source/Utility/dsp.h ****     return r;
  60:../../libs/DaisySP/Source/Utility/dsp.h **** }
ARM GAS  C:\Users\skipi\AppData\Local\Temp\ccTwk1u0.s 			page 19


  61:../../libs/DaisySP/Source/Utility/dsp.h **** 
  62:../../libs/DaisySP/Source/Utility/dsp.h **** /** quick fp clamp
  63:../../libs/DaisySP/Source/Utility/dsp.h **** */
  64:../../libs/DaisySP/Source/Utility/dsp.h **** inline float fclamp(float in, float min, float max)
 805              		.loc 2 64 14 is_stmt 1 view .LVU178
 806              	.LBE48:
  65:../../libs/DaisySP/Source/Utility/dsp.h **** {
  66:../../libs/DaisySP/Source/Utility/dsp.h ****     return fmin(fmax(in, min), max);
 807              		.loc 2 66 5 view .LVU179
 808              	.LBB55:
 809              	.LBB49:
 810              	.LBI49:
  40:../../libs/DaisySP/Source/Utility/dsp.h **** {
 811              		.loc 2 40 14 view .LVU180
 812              	.LBB50:
  42:../../libs/DaisySP/Source/Utility/dsp.h **** #ifdef __arm__
 813              		.loc 2 42 5 view .LVU181
  44:../../libs/DaisySP/Source/Utility/dsp.h **** #else
 814              		.loc 2 44 5 view .LVU182
 815              	.LBE50:
 816              	.LBE49:
 817              	.LBE55:
  79:../../Classes/Temperamento/PlantConditioner.cpp ****     
 818              		.loc 1 79 24 is_stmt 0 view .LVU183
 819 0066 77EEC77A 		vsub.f32	s15, s15, s14
 820              	.LVL65:
 821              	.LBB56:
 822              	.LBB52:
 823              	.LBB51:
  44:../../libs/DaisySP/Source/Utility/dsp.h **** #else
 824              		.loc 2 44 5 view .LVU184
 825              		.syntax unified
 826              	@ 44 "../../libs/DaisySP/Source/Utility/dsp.h" 1
 827 006a 80FE080A 		vmaxnm.f32 s0, s0, s16
 828              	@ 0 "" 2
 829              	.LVL66:
  48:../../libs/DaisySP/Source/Utility/dsp.h **** }
 830              		.loc 2 48 5 is_stmt 1 view .LVU185
  48:../../libs/DaisySP/Source/Utility/dsp.h **** }
 831              		.loc 2 48 5 is_stmt 0 view .LVU186
 832              		.thumb
 833              		.syntax unified
 834              	.LBE51:
 835              	.LBE52:
 836              	.LBB53:
 837              	.LBI53:
  51:../../libs/DaisySP/Source/Utility/dsp.h **** {
 838              		.loc 2 51 14 is_stmt 1 view .LVU187
 839              	.LBB54:
  53:../../libs/DaisySP/Source/Utility/dsp.h **** #ifdef __arm__
 840              		.loc 2 53 5 view .LVU188
  55:../../libs/DaisySP/Source/Utility/dsp.h **** #else
 841              		.loc 2 55 5 view .LVU189
 842              		.syntax unified
 843              	@ 55 "../../libs/DaisySP/Source/Utility/dsp.h" 1
 844 006e 80FE670A 		vminnm.f32 s0, s0, s15
 845              	@ 0 "" 2
ARM GAS  C:\Users\skipi\AppData\Local\Temp\ccTwk1u0.s 			page 20


 846              	.LVL67:
  59:../../libs/DaisySP/Source/Utility/dsp.h **** }
 847              		.loc 2 59 5 view .LVU190
  59:../../libs/DaisySP/Source/Utility/dsp.h **** }
 848              		.loc 2 59 5 is_stmt 0 view .LVU191
 849              		.thumb
 850              		.syntax unified
 851              	.LBE54:
 852              	.LBE53:
 853              	.LBE56:
  79:../../Classes/Temperamento/PlantConditioner.cpp ****     
 854              		.loc 1 79 16 view .LVU192
 855 0072 89ED000A 		vstr.32	s0, [r9]
 856              		.loc 1 85 5 is_stmt 1 view .LVU193
 857              	.LBB57:
 858              		.loc 1 85 49 is_stmt 0 view .LVU194
 859 0076 95F87D37 		ldrb	r3, [r5, #1917]	@ zero_extendqisi2
 860              		.loc 1 85 5 view .LVU195
 861 007a 01DB     		blt	.L35
 862              		.loc 1 85 29 discriminator 1 view .LVU196
 863 007c 9A42     		cmp	r2, r3
 864 007e 5FDB     		blt	.L36
 865              	.L35:
 866              	.LVL68:
 867              		.loc 1 85 29 discriminator 1 view .LVU197
 868              	.LBE57:
 869              	.LBB58:
  86:../../Classes/Temperamento/PlantConditioner.cpp ****         int i = _lastNoteIndex;
  87:../../Classes/Temperamento/PlantConditioner.cpp ****         
  88:../../Classes/Temperamento/PlantConditioner.cpp ****         // Ricalcoliamo i limiti SOLO per la nota corrente
  89:../../Classes/Temperamento/PlantConditioner.cpp ****         float pct_lower = (float)i / _scaleLength;
  90:../../Classes/Temperamento/PlantConditioner.cpp ****         float pct_upper = (float)(i+1) / _scaleLength;
  91:../../Classes/Temperamento/PlantConditioner.cpp ****         
  92:../../Classes/Temperamento/PlantConditioner.cpp ****         float lower = _deltaMin + _range * powf(pct_lower, _curveType);
  93:../../Classes/Temperamento/PlantConditioner.cpp ****         float upper = _deltaMin + _range * powf(pct_upper, _curveType);
  94:../../Classes/Temperamento/PlantConditioner.cpp ****         float hyst  = _histeresis * powf(pct_upper, _curveType); // Isteresi corretta
  95:../../Classes/Temperamento/PlantConditioner.cpp **** 
  96:../../Classes/Temperamento/PlantConditioner.cpp ****         // Allarghiamo i confini
  97:../../Classes/Temperamento/PlantConditioner.cpp ****         lower -= hyst;
  98:../../Classes/Temperamento/PlantConditioner.cpp ****         upper += hyst;
  99:../../Classes/Temperamento/PlantConditioner.cpp **** 
 100:../../Classes/Temperamento/PlantConditioner.cpp ****         // Se siamo ancora dentro questi confini allargati, NON cambiare nulla!
 101:../../Classes/Temperamento/PlantConditioner.cpp ****         if (_deltaFilt >= lower && _deltaFilt < upper) {
 102:../../Classes/Temperamento/PlantConditioner.cpp ****             return _lastFreq; // Ritorna subito, ignora il loop sotto
 103:../../Classes/Temperamento/PlantConditioner.cpp ****         }
 104:../../Classes/Temperamento/PlantConditioner.cpp ****     }
 105:../../Classes/Temperamento/PlantConditioner.cpp **** 
 106:../../Classes/Temperamento/PlantConditioner.cpp ****     // ---------------------------------------------------------
 107:../../Classes/Temperamento/PlantConditioner.cpp ****     // FASE 2: RICERCA (Se siamo usciti dalla nota corrente)
 108:../../Classes/Temperamento/PlantConditioner.cpp ****     // ---------------------------------------------------------
 109:../../Classes/Temperamento/PlantConditioner.cpp ****     for (int i = 0; i < _scaleLength; i++) {
 870              		.loc 1 109 23 is_stmt 1 discriminator 1 view .LVU198
 871 0080 F3B3     		cbz	r3, .L33
 872 0082 DFED578A 		vldr.32	s17, .L54+4
 873              		.loc 1 109 23 is_stmt 0 view .LVU199
 874 0086 0024     		movs	r4, #0
 875 0088 05F5F168 		add	r8, r5, #1928
ARM GAS  C:\Users\skipi\AppData\Local\Temp\ccTwk1u0.s 			page 21


 876 008c 05F5EF67 		add	r7, r5, #1912
 877              	.LVL69:
 878              	.L38:
 879              	.LBB59:
 110:../../Classes/Temperamento/PlantConditioner.cpp ****         // Se siamo qui, non siamo nella nota corrente, quindi calcoliamo
 111:../../Classes/Temperamento/PlantConditioner.cpp ****         // i bin "puliti" senza isteresi (o con isteresi minima standard)
 112:../../Classes/Temperamento/PlantConditioner.cpp ****         
 113:../../Classes/Temperamento/PlantConditioner.cpp ****         float lower = _deltaMin + _range * powf((float)i / _scaleLength, _curveType);
 880              		.loc 1 113 9 is_stmt 1 view .LVU200
 881              		.loc 1 113 48 is_stmt 0 view .LVU201
 882 0090 07EE903A 		vmov	s15, r3	@ int
 883 0094 A346     		mov	fp, r4
 114:../../Classes/Temperamento/PlantConditioner.cpp ****         float upper = _deltaMin + _range * powf((float)(i+1) / _scaleLength, _curveType);
 884              		.loc 1 114 58 view .LVU202
 885 0096 0134     		adds	r4, r4, #1
 886              	.LVL70:
 113:../../Classes/Temperamento/PlantConditioner.cpp ****         float upper = _deltaMin + _range * powf((float)(i+1) / _scaleLength, _curveType);
 887              		.loc 1 113 48 view .LVU203
 888 0098 D7ED000A 		vldr.32	s1, [r7]
 889 009c B8EEE70A 		vcvt.f32.s32	s0, s15
 113:../../Classes/Temperamento/PlantConditioner.cpp ****         float upper = _deltaMin + _range * powf((float)(i+1) / _scaleLength, _curveType);
 890              		.loc 1 113 35 view .LVU204
 891 00a0 98ED009A 		vldr.32	s18, [r8]
 113:../../Classes/Temperamento/PlantConditioner.cpp ****         float upper = _deltaMin + _range * powf((float)(i+1) / _scaleLength, _curveType);
 892              		.loc 1 113 23 view .LVU205
 893 00a4 96ED008A 		vldr.32	s16, [r6]
 113:../../Classes/Temperamento/PlantConditioner.cpp ****         float upper = _deltaMin + _range * powf((float)(i+1) / _scaleLength, _curveType);
 894              		.loc 1 113 48 view .LVU206
 895 00a8 88EE800A 		vdiv.f32	s0, s17, s0
 896 00ac FFF7FEFF 		bl	powf
 897              	.LVL71:
 898              		.loc 1 114 64 view .LVU207
 899 00b0 95F87D37 		ldrb	r3, [r5, #1917]	@ zero_extendqisi2
 900              		.loc 1 114 49 view .LVU208
 901 00b4 07EE904A 		vmov	s15, r4	@ int
 902              		.loc 1 114 48 view .LVU209
 903 00b8 D7ED000A 		vldr.32	s1, [r7]
 904              		.loc 1 114 35 view .LVU210
 905 00bc D8ED009A 		vldr.32	s19, [r8]
 906              		.loc 1 114 49 view .LVU211
 907 00c0 F8EEE78A 		vcvt.f32.s32	s17, s15
 908              		.loc 1 114 48 view .LVU212
 909 00c4 07EE903A 		vmov	s15, r3	@ int
 113:../../Classes/Temperamento/PlantConditioner.cpp ****         float upper = _deltaMin + _range * powf((float)(i+1) / _scaleLength, _curveType);
 910              		.loc 1 113 84 view .LVU213
 911 00c8 A9EE008A 		vfma.f32	s16, s18, s0
 912              	.LVL72:
 913              		.loc 1 114 9 is_stmt 1 view .LVU214
 914              		.loc 1 114 23 is_stmt 0 view .LVU215
 915 00cc 96ED009A 		vldr.32	s18, [r6]
 916              		.loc 1 114 48 view .LVU216
 917 00d0 B8EEE70A 		vcvt.f32.s32	s0, s15
 918 00d4 88EE800A 		vdiv.f32	s0, s17, s0
 919 00d8 FFF7FEFF 		bl	powf
 920              	.LVL73:
 921              		.loc 1 114 48 view .LVU217
 922              	.LBE59:
ARM GAS  C:\Users\skipi\AppData\Local\Temp\ccTwk1u0.s 			page 22


 109:../../Classes/Temperamento/PlantConditioner.cpp ****         // Se siamo qui, non siamo nella nota corrente, quindi calcoliamo
 923              		.loc 1 109 23 is_stmt 1 view .LVU218
 924              	.LBB60:
 115:../../Classes/Temperamento/PlantConditioner.cpp ****         
 116:../../Classes/Temperamento/PlantConditioner.cpp ****         if (_deltaFilt >= lower && _deltaFilt < upper) {
 925              		.loc 1 116 13 is_stmt 0 view .LVU219
 926 00dc D9ED007A 		vldr.32	s15, [r9]
 927              	.LVL74:
 928              		.loc 1 116 9 is_stmt 1 view .LVU220
 929 00e0 F4EEC87A 		vcmpe.f32	s15, s16
 930 00e4 F1EE10FA 		vmrs	APSR_nzcv, FPSCR
 931 00e8 06DB     		blt	.L42
 114:../../Classes/Temperamento/PlantConditioner.cpp ****         
 932              		.loc 1 114 88 is_stmt 0 discriminator 1 view .LVU221
 933 00ea A9EE809A 		vfma.f32	s18, s19, s0
 934              	.LVL75:
 935              		.loc 1 116 33 discriminator 1 view .LVU222
 936 00ee F4EEC97A 		vcmpe.f32	s15, s18
 937 00f2 F1EE10FA 		vmrs	APSR_nzcv, FPSCR
 938 00f6 09D4     		bmi	.L52
 939              	.L42:
 940              	.LBE60:
 109:../../Classes/Temperamento/PlantConditioner.cpp ****         // Se siamo qui, non siamo nella nota corrente, quindi calcoliamo
 941              		.loc 1 109 25 discriminator 1 view .LVU223
 942 00f8 95F87D37 		ldrb	r3, [r5, #1917]	@ zero_extendqisi2
 109:../../Classes/Temperamento/PlantConditioner.cpp ****         // Se siamo qui, non siamo nella nota corrente, quindi calcoliamo
 943              		.loc 1 109 23 discriminator 1 view .LVU224
 944 00fc A342     		cmp	r3, r4
 945 00fe C7DC     		bgt	.L38
 946              	.LVL76:
 947              	.L33:
 109:../../Classes/Temperamento/PlantConditioner.cpp ****         // Se siamo qui, non siamo nella nota corrente, quindi calcoliamo
 948              		.loc 1 109 23 discriminator 1 view .LVU225
 949              	.LBE58:
 117:../../Classes/Temperamento/PlantConditioner.cpp ****             out = _scale[i] * (1 << _octave);
 118:../../Classes/Temperamento/PlantConditioner.cpp ****             _lastNoteIndex = i; // Aggiorna la nuova nota corrente
 119:../../Classes/Temperamento/PlantConditioner.cpp ****             _lastFreq = out;    // Aggiorna la frequenza
 120:../../Classes/Temperamento/PlantConditioner.cpp ****             break;
 121:../../Classes/Temperamento/PlantConditioner.cpp ****         }
 122:../../Classes/Temperamento/PlantConditioner.cpp ****     }
 123:../../Classes/Temperamento/PlantConditioner.cpp ****     
 124:../../Classes/Temperamento/PlantConditioner.cpp ****     return out;
 125:../../Classes/Temperamento/PlantConditioner.cpp **** }
 950              		.loc 1 125 1 view .LVU226
 951 0100 B0EE4A0A 		vmov.f32	s0, s20
 952 0104 BDEC068B 		vldm	sp!, {d8-d10}
 953              		.cfi_remember_state
 954              		.cfi_restore 84
 955              		.cfi_restore 85
 956              		.cfi_restore 82
 957              		.cfi_restore 83
 958              		.cfi_restore 80
 959              		.cfi_restore 81
 960              		.cfi_def_cfa_offset 40
 961 0108 BDE8F88F 		pop	{r3, r4, r5, r6, r7, r8, r9, r10, fp, pc}
 962              	.LVL77:
 963              	.L52:
ARM GAS  C:\Users\skipi\AppData\Local\Temp\ccTwk1u0.s 			page 23


 964              		.cfi_restore_state
 965              	.LBB63:
 966              	.LBB61:
 117:../../Classes/Temperamento/PlantConditioner.cpp ****             out = _scale[i] * (1 << _octave);
 967              		.loc 1 117 13 is_stmt 1 view .LVU227
 117:../../Classes/Temperamento/PlantConditioner.cpp ****             out = _scale[i] * (1 << _octave);
 968              		.loc 1 117 37 is_stmt 0 view .LVU228
 969 010c 95F87C27 		ldrb	r2, [r5, #1916]	@ zero_extendqisi2
 117:../../Classes/Temperamento/PlantConditioner.cpp ****             out = _scale[i] * (1 << _octave);
 970              		.loc 1 117 34 view .LVU229
 971 0110 0123     		movs	r3, #1
 972 0112 9340     		lsls	r3, r3, r2
 973 0114 0AEE103A 		vmov	s20, r3	@ int
 974              	.LVL78:
 117:../../Classes/Temperamento/PlantConditioner.cpp ****             out = _scale[i] * (1 << _octave);
 975              		.loc 1 117 27 view .LVU230
 976 0118 0BF5F873 		add	r3, fp, #496
 977 011c 05EB8303 		add	r3, r5, r3, lsl #2
 117:../../Classes/Temperamento/PlantConditioner.cpp ****             out = _scale[i] * (1 << _octave);
 978              		.loc 1 117 29 view .LVU231
 979 0120 B8EECAAA 		vcvt.f32.s32	s20, s20
 117:../../Classes/Temperamento/PlantConditioner.cpp ****             out = _scale[i] * (1 << _octave);
 980              		.loc 1 117 17 view .LVU232
 981 0124 D3ED017A 		vldr.32	s15, [r3, #4]
 118:../../Classes/Temperamento/PlantConditioner.cpp ****             _lastFreq = out;    // Aggiorna la frequenza
 982              		.loc 1 118 28 view .LVU233
 983 0128 C5F870B7 		str	fp, [r5, #1904]
 117:../../Classes/Temperamento/PlantConditioner.cpp ****             out = _scale[i] * (1 << _octave);
 984              		.loc 1 117 17 view .LVU234
 985 012c 2AEE27AA 		vmul.f32	s20, s20, s15
 986              	.LVL79:
 118:../../Classes/Temperamento/PlantConditioner.cpp ****             _lastFreq = out;    // Aggiorna la frequenza
 987              		.loc 1 118 13 is_stmt 1 view .LVU235
 119:../../Classes/Temperamento/PlantConditioner.cpp ****             break;
 988              		.loc 1 119 13 view .LVU236
 989              	.LBE61:
 990              	.LBE63:
 991              		.loc 1 125 1 is_stmt 0 view .LVU237
 992 0130 B0EE4A0A 		vmov.f32	s0, s20
 993              	.LBB64:
 994              	.LBB62:
 119:../../Classes/Temperamento/PlantConditioner.cpp ****             break;
 995              		.loc 1 119 23 view .LVU238
 996 0134 8AED00AA 		vstr.32	s20, [r10]
 120:../../Classes/Temperamento/PlantConditioner.cpp ****         }
 997              		.loc 1 120 13 is_stmt 1 view .LVU239
 998              	.LVL80:
 120:../../Classes/Temperamento/PlantConditioner.cpp ****         }
 999              		.loc 1 120 13 is_stmt 0 view .LVU240
 1000              	.LBE62:
 1001              	.LBE64:
 1002              		.loc 1 125 1 view .LVU241
 1003 0138 BDEC068B 		vldm	sp!, {d8-d10}
 1004              		.cfi_remember_state
 1005              		.cfi_restore 84
 1006              		.cfi_restore 85
 1007              		.cfi_restore 82
ARM GAS  C:\Users\skipi\AppData\Local\Temp\ccTwk1u0.s 			page 24


 1008              		.cfi_restore 83
 1009              		.cfi_restore 80
 1010              		.cfi_restore 81
 1011              		.cfi_def_cfa_offset 40
 1012              	.LVL81:
 1013              		.loc 1 125 1 view .LVU242
 1014 013c BDE8F88F 		pop	{r3, r4, r5, r6, r7, r8, r9, r10, fp, pc}
 1015              	.LVL82:
 1016              	.L36:
 1017              		.cfi_restore_state
 1018              	.LBB65:
 1019              	.LBB45:
  86:../../Classes/Temperamento/PlantConditioner.cpp ****         
 1020              		.loc 1 86 9 is_stmt 1 view .LVU243
  89:../../Classes/Temperamento/PlantConditioner.cpp ****         float pct_upper = (float)(i+1) / _scaleLength;
 1021              		.loc 1 89 9 view .LVU244
  89:../../Classes/Temperamento/PlantConditioner.cpp ****         float pct_upper = (float)(i+1) / _scaleLength;
 1022              		.loc 1 89 27 is_stmt 0 view .LVU245
 1023 0140 07EE102A 		vmov	s14, r2	@ int
  90:../../Classes/Temperamento/PlantConditioner.cpp ****         
 1024              		.loc 1 90 36 view .LVU246
 1025 0144 0132     		adds	r2, r2, #1
 1026              	.LVL83:
  89:../../Classes/Temperamento/PlantConditioner.cpp ****         float pct_upper = (float)(i+1) / _scaleLength;
 1027              		.loc 1 89 36 view .LVU247
 1028 0146 07EE903A 		vmov	s15, r3	@ int
  92:../../Classes/Temperamento/PlantConditioner.cpp ****         float upper = _deltaMin + _range * powf(pct_upper, _curveType);
 1029              		.loc 1 92 35 view .LVU248
 1030 014a 05F5F168 		add	r8, r5, #1928
  89:../../Classes/Temperamento/PlantConditioner.cpp ****         float pct_upper = (float)(i+1) / _scaleLength;
 1031              		.loc 1 89 27 view .LVU249
 1032 014e B8EEC70A 		vcvt.f32.s32	s0, s14
  90:../../Classes/Temperamento/PlantConditioner.cpp ****         
 1033              		.loc 1 90 27 view .LVU250
 1034 0152 07EE102A 		vmov	s14, r2	@ int
 1035              	.LVL84:
  89:../../Classes/Temperamento/PlantConditioner.cpp ****         float pct_upper = (float)(i+1) / _scaleLength;
 1036              		.loc 1 89 36 view .LVU251
 1037 0156 F8EEE77A 		vcvt.f32.s32	s15, s15
  90:../../Classes/Temperamento/PlantConditioner.cpp ****         
 1038              		.loc 1 90 9 is_stmt 1 view .LVU252
  92:../../Classes/Temperamento/PlantConditioner.cpp ****         float upper = _deltaMin + _range * powf(pct_upper, _curveType);
 1039              		.loc 1 92 48 is_stmt 0 view .LVU253
 1040 015a 05F5EF67 		add	r7, r5, #1912
  90:../../Classes/Temperamento/PlantConditioner.cpp ****         
 1041              		.loc 1 90 27 view .LVU254
 1042 015e B8EEC77A 		vcvt.f32.s32	s14, s14
  92:../../Classes/Temperamento/PlantConditioner.cpp ****         float upper = _deltaMin + _range * powf(pct_upper, _curveType);
 1043              		.loc 1 92 35 view .LVU255
 1044 0162 98ED009A 		vldr.32	s18, [r8]
  92:../../Classes/Temperamento/PlantConditioner.cpp ****         float upper = _deltaMin + _range * powf(pct_upper, _curveType);
 1045              		.loc 1 92 48 view .LVU256
 1046 0166 D7ED000A 		vldr.32	s1, [r7]
 1047 016a 80EE270A 		vdiv.f32	s0, s0, s15
  90:../../Classes/Temperamento/PlantConditioner.cpp ****         
 1048              		.loc 1 90 15 view .LVU257
 1049 016e C7EE278A 		vdiv.f32	s17, s14, s15
ARM GAS  C:\Users\skipi\AppData\Local\Temp\ccTwk1u0.s 			page 25


 1050              	.LVL85:
  92:../../Classes/Temperamento/PlantConditioner.cpp ****         float upper = _deltaMin + _range * powf(pct_upper, _curveType);
 1051              		.loc 1 92 9 is_stmt 1 view .LVU258
  92:../../Classes/Temperamento/PlantConditioner.cpp ****         float upper = _deltaMin + _range * powf(pct_upper, _curveType);
 1052              		.loc 1 92 48 is_stmt 0 view .LVU259
 1053 0172 FFF7FEFF 		bl	powf
 1054              	.LVL86:
  93:../../Classes/Temperamento/PlantConditioner.cpp ****         float hyst  = _histeresis * powf(pct_upper, _curveType); // Isteresi corretta
 1055              		.loc 1 93 48 view .LVU260
 1056 0176 D7ED000A 		vldr.32	s1, [r7]
  93:../../Classes/Temperamento/PlantConditioner.cpp ****         float hyst  = _histeresis * powf(pct_upper, _curveType); // Isteresi corretta
 1057              		.loc 1 93 35 view .LVU261
 1058 017a D8ED00AA 		vldr.32	s21, [r8]
  92:../../Classes/Temperamento/PlantConditioner.cpp ****         float upper = _deltaMin + _range * powf(pct_upper, _curveType);
 1059              		.loc 1 92 70 view .LVU262
 1060 017e A9EE008A 		vfma.f32	s16, s18, s0
 1061              	.LVL87:
  93:../../Classes/Temperamento/PlantConditioner.cpp ****         float hyst  = _histeresis * powf(pct_upper, _curveType); // Isteresi corretta
 1062              		.loc 1 93 9 is_stmt 1 view .LVU263
  93:../../Classes/Temperamento/PlantConditioner.cpp ****         float hyst  = _histeresis * powf(pct_upper, _curveType); // Isteresi corretta
 1063              		.loc 1 93 23 is_stmt 0 view .LVU264
 1064 0182 96ED009A 		vldr.32	s18, [r6]
  93:../../Classes/Temperamento/PlantConditioner.cpp ****         float hyst  = _histeresis * powf(pct_upper, _curveType); // Isteresi corretta
 1065              		.loc 1 93 48 view .LVU265
 1066 0186 B0EE680A 		vmov.f32	s0, s17
 1067 018a FFF7FEFF 		bl	powf
 1068              	.LVL88:
  94:../../Classes/Temperamento/PlantConditioner.cpp **** 
 1069              		.loc 1 94 23 view .LVU266
 1070 018e 05F26C73 		addw	r3, r5, #1900
  93:../../Classes/Temperamento/PlantConditioner.cpp ****         float hyst  = _histeresis * powf(pct_upper, _curveType); // Isteresi corretta
 1071              		.loc 1 93 48 view .LVU267
 1072 0192 F0EE409A 		vmov.f32	s19, s0
  94:../../Classes/Temperamento/PlantConditioner.cpp **** 
 1073              		.loc 1 94 41 view .LVU268
 1074 0196 D7ED000A 		vldr.32	s1, [r7]
 1075 019a B0EE680A 		vmov.f32	s0, s17
 1076              	.LVL89:
  94:../../Classes/Temperamento/PlantConditioner.cpp **** 
 1077              		.loc 1 94 9 is_stmt 1 view .LVU269
  94:../../Classes/Temperamento/PlantConditioner.cpp **** 
 1078              		.loc 1 94 23 is_stmt 0 view .LVU270
 1079 019e D3ED008A 		vldr.32	s17, [r3]
 1080              	.LVL90:
  94:../../Classes/Temperamento/PlantConditioner.cpp **** 
 1081              		.loc 1 94 41 view .LVU271
 1082 01a2 FFF7FEFF 		bl	powf
 1083              	.LVL91:
 101:../../Classes/Temperamento/PlantConditioner.cpp ****             return _lastFreq; // Ritorna subito, ignora il loop sotto
 1084              		.loc 1 101 13 view .LVU272
 1085 01a6 99ED007A 		vldr.32	s14, [r9]
  94:../../Classes/Temperamento/PlantConditioner.cpp **** 
 1086              		.loc 1 94 63 view .LVU273
 1087 01aa 68EE807A 		vmul.f32	s15, s17, s0
 1088              	.LVL92:
  97:../../Classes/Temperamento/PlantConditioner.cpp ****         upper += hyst;
 1089              		.loc 1 97 9 is_stmt 1 view .LVU274
ARM GAS  C:\Users\skipi\AppData\Local\Temp\ccTwk1u0.s 			page 26


  98:../../Classes/Temperamento/PlantConditioner.cpp **** 
 1090              		.loc 1 98 9 view .LVU275
 101:../../Classes/Temperamento/PlantConditioner.cpp ****             return _lastFreq; // Ritorna subito, ignora il loop sotto
 1091              		.loc 1 101 9 view .LVU276
  97:../../Classes/Temperamento/PlantConditioner.cpp ****         upper += hyst;
 1092              		.loc 1 97 15 is_stmt 0 view .LVU277
 1093 01ae 38EE678A 		vsub.f32	s16, s16, s15
 1094              	.LVL93:
 101:../../Classes/Temperamento/PlantConditioner.cpp ****             return _lastFreq; // Ritorna subito, ignora il loop sotto
 1095              		.loc 1 101 9 view .LVU278
 1096 01b2 B4EEC87A 		vcmpe.f32	s14, s16
 1097 01b6 F1EE10FA 		vmrs	APSR_nzcv, FPSCR
 1098 01ba 08DB     		blt	.L40
  93:../../Classes/Temperamento/PlantConditioner.cpp ****         float hyst  = _histeresis * powf(pct_upper, _curveType); // Isteresi corretta
 1099              		.loc 1 93 70 discriminator 1 view .LVU279
 1100 01bc AAEEA99A 		vfma.f32	s18, s21, s19
 1101              	.LVL94:
  98:../../Classes/Temperamento/PlantConditioner.cpp **** 
 1102              		.loc 1 98 15 discriminator 1 view .LVU280
 1103 01c0 79EE277A 		vadd.f32	s15, s18, s15
 1104              	.LVL95:
 101:../../Classes/Temperamento/PlantConditioner.cpp ****             return _lastFreq; // Ritorna subito, ignora il loop sotto
 1105              		.loc 1 101 33 discriminator 1 view .LVU281
 1106 01c4 B4EEE77A 		vcmpe.f32	s14, s15
 1107 01c8 F1EE10FA 		vmrs	APSR_nzcv, FPSCR
 1108 01cc 02D4     		bmi	.L53
 1109              	.L40:
 101:../../Classes/Temperamento/PlantConditioner.cpp ****             return _lastFreq; // Ritorna subito, ignora il loop sotto
 1110              		.loc 1 101 33 discriminator 1 view .LVU282
 1111              	.LBE45:
 1112              	.LBE65:
 1113              	.LBB66:
 109:../../Classes/Temperamento/PlantConditioner.cpp ****         // Se siamo qui, non siamo nella nota corrente, quindi calcoliamo
 1114              		.loc 1 109 25 view .LVU283
 1115 01ce 95F87D37 		ldrb	r3, [r5, #1917]	@ zero_extendqisi2
 1116 01d2 55E7     		b	.L35
 1117              	.L53:
 109:../../Classes/Temperamento/PlantConditioner.cpp ****         // Se siamo qui, non siamo nella nota corrente, quindi calcoliamo
 1118              		.loc 1 109 25 view .LVU284
 1119              	.LBE66:
 1120              	.LBB67:
 1121              	.LBB46:
 102:../../Classes/Temperamento/PlantConditioner.cpp ****         }
 1122              		.loc 1 102 13 is_stmt 1 view .LVU285
 102:../../Classes/Temperamento/PlantConditioner.cpp ****         }
 1123              		.loc 1 102 20 is_stmt 0 view .LVU286
 1124 01d4 9AED00AA 		vldr.32	s20, [r10]
 1125              	.LVL96:
 102:../../Classes/Temperamento/PlantConditioner.cpp ****         }
 1126              		.loc 1 102 20 view .LVU287
 1127 01d8 92E7     		b	.L33
 1128              	.L55:
 1129 01da 00BF     		.align	2
 1130              	.L54:
 1131 01dc 6F12833A 		.word	981668463
 1132 01e0 00000000 		.word	0
 1133              	.LBE46:
ARM GAS  C:\Users\skipi\AppData\Local\Temp\ccTwk1u0.s 			page 27


 1134              	.LBE67:
 1135              		.cfi_endproc
 1136              	.LFE4854:
 1138              		.section	.text._ZN16PlantConditioner8setCurveEhf,"ax",%progbits
 1139              		.align	1
 1140              		.p2align 2,,3
 1141              		.global	_ZN16PlantConditioner8setCurveEhf
 1142              		.syntax unified
 1143              		.thumb
 1144              		.thumb_func
 1145              		.fpu fpv5-d16
 1147              	_ZN16PlantConditioner8setCurveEhf:
 1148              	.LVL97:
 1149              	.LFB4855:
 126:../../Classes/Temperamento/PlantConditioner.cpp **** 
 127:../../Classes/Temperamento/PlantConditioner.cpp **** void PlantConditioner::setCurve(uint8_t delta_max, float curve_type) {
 1150              		.loc 1 127 70 is_stmt 1 view -0
 1151              		.cfi_startproc
 1152              		@ args = 0, pretend = 0, frame = 0
 1153              		@ frame_needed = 0, uses_anonymous_args = 0
 128:../../Classes/Temperamento/PlantConditioner.cpp ****     _curveType = _curveFir.Process(curve_type);
 1154              		.loc 1 128 5 view .LVU289
 127:../../Classes/Temperamento/PlantConditioner.cpp ****     _curveType = _curveFir.Process(curve_type);
 1155              		.loc 1 127 70 is_stmt 0 view .LVU290
 1156 0000 10B5     		push	{r4, lr}
 1157              		.cfi_def_cfa_offset 8
 1158              		.cfi_offset 4, -8
 1159              		.cfi_offset 14, -4
 1160 0002 0446     		mov	r4, r0
 1161              		.loc 1 128 35 view .LVU291
 1162 0004 00F57A70 		add	r0, r0, #1000
 1163              	.LVL98:
 127:../../Classes/Temperamento/PlantConditioner.cpp ****     _curveType = _curveFir.Process(curve_type);
 1164              		.loc 1 127 70 view .LVU292
 1165 0008 2DED028B 		vpush.64	{d8}
 1166              		.cfi_def_cfa_offset 16
 1167              		.cfi_offset 80, -16
 1168              		.cfi_offset 81, -12
 127:../../Classes/Temperamento/PlantConditioner.cpp ****     _curveType = _curveFir.Process(curve_type);
 1169              		.loc 1 127 70 view .LVU293
 1170 000c 08EE101A 		vmov	s16, r1	@ int
 1171              		.loc 1 128 35 view .LVU294
 1172 0010 FFF7FEFF 		bl	_ZN6CapFir7ProcessEf
 1173              	.LVL99:
 1174              		.loc 1 128 35 view .LVU295
 1175 0014 F0EE407A 		vmov.f32	s15, s0
 1176              		.loc 1 128 16 view .LVU296
 1177 0018 04F5EF63 		add	r3, r4, #1912
 129:../../Classes/Temperamento/PlantConditioner.cpp ****     
 130:../../Classes/Temperamento/PlantConditioner.cpp ****     // Assicuriamoci che deltaMax sia sempre maggiore di deltaMin
 131:../../Classes/Temperamento/PlantConditioner.cpp ****     float newMax = _maxFir.Process((float)delta_max);
 1178              		.loc 1 131 35 view .LVU297
 1179 001c B8EE480A 		vcvt.f32.u32	s0, s16
 1180 0020 04F16400 		add	r0, r4, #100
 128:../../Classes/Temperamento/PlantConditioner.cpp ****     
 1181              		.loc 1 128 16 view .LVU298
 1182 0024 C3ED007A 		vstr.32	s15, [r3]
ARM GAS  C:\Users\skipi\AppData\Local\Temp\ccTwk1u0.s 			page 28


 1183              		.loc 1 131 5 is_stmt 1 view .LVU299
 1184              		.loc 1 131 35 is_stmt 0 view .LVU300
 1185 0028 FFF7FEFF 		bl	_ZN6CapFir7ProcessEf
 1186              	.LVL100:
 132:../../Classes/Temperamento/PlantConditioner.cpp ****     if (newMax <= _deltaMin) newMax = _deltaMin + 1.0f;
 1187              		.loc 1 132 19 view .LVU301
 1188 002c 04F5F063 		add	r3, r4, #1920
 1189              	.LVL101:
 1190              		.loc 1 132 5 is_stmt 1 view .LVU302
 1191              		.loc 1 132 19 is_stmt 0 view .LVU303
 1192 0030 D3ED007A 		vldr.32	s15, [r3]
 1193              		.loc 1 132 5 view .LVU304
 1194 0034 F4EEC07A 		vcmpe.f32	s15, s0
 1195 0038 F1EE10FA 		vmrs	APSR_nzcv, FPSCR
 1196 003c 03DB     		blt	.L57
 1197              		.loc 1 132 30 is_stmt 1 discriminator 1 view .LVU305
 1198              		.loc 1 132 37 is_stmt 0 discriminator 1 view .LVU306
 1199 003e B7EE000A 		vmov.f32	s0, #1.0e+0
 1200              	.LVL102:
 1201              		.loc 1 132 37 discriminator 1 view .LVU307
 1202 0042 37EE800A 		vadd.f32	s0, s15, s0
 1203              	.LVL103:
 1204              	.L57:
 133:../../Classes/Temperamento/PlantConditioner.cpp ****     
 134:../../Classes/Temperamento/PlantConditioner.cpp ****     _deltaMax = newMax;
 1205              		.loc 1 134 5 is_stmt 1 view .LVU308
 135:../../Classes/Temperamento/PlantConditioner.cpp ****     _range = _deltaMax - _deltaMin;
 1206              		.loc 1 135 24 is_stmt 0 view .LVU309
 1207 0046 70EE677A 		vsub.f32	s15, s0, s15
 134:../../Classes/Temperamento/PlantConditioner.cpp ****     _range = _deltaMax - _deltaMin;
 1208              		.loc 1 134 15 view .LVU310
 1209 004a 04F28473 		addw	r3, r4, #1924
 1210              		.loc 1 135 12 view .LVU311
 1211 004e 04F5F164 		add	r4, r4, #1928
 1212              	.LVL104:
 134:../../Classes/Temperamento/PlantConditioner.cpp ****     _range = _deltaMax - _deltaMin;
 1213              		.loc 1 134 15 view .LVU312
 1214 0052 83ED000A 		vstr.32	s0, [r3]
 1215              		.loc 1 135 5 is_stmt 1 view .LVU313
 1216              		.loc 1 135 12 is_stmt 0 view .LVU314
 1217 0056 C4ED007A 		vstr.32	s15, [r4]
 136:../../Classes/Temperamento/PlantConditioner.cpp **** }
 1218              		.loc 1 136 1 view .LVU315
 1219 005a BDEC028B 		vldm	sp!, {d8}
 1220              		.cfi_restore 80
 1221              		.cfi_restore 81
 1222              		.cfi_def_cfa_offset 8
 1223 005e 10BD     		pop	{r4, pc}
 1224              		.loc 1 136 1 view .LVU316
 1225              		.cfi_endproc
 1226              	.LFE4855:
 1228              		.section	.text._ZN16PlantConditioner6getBinEv,"ax",%progbits
 1229              		.align	1
 1230              		.p2align 2,,3
 1231              		.global	_ZN16PlantConditioner6getBinEv
 1232              		.syntax unified
 1233              		.thumb
ARM GAS  C:\Users\skipi\AppData\Local\Temp\ccTwk1u0.s 			page 29


 1234              		.thumb_func
 1235              		.fpu fpv5-d16
 1237              	_ZN16PlantConditioner6getBinEv:
 1238              	.LVL105:
 1239              	.LFB4856:
 137:../../Classes/Temperamento/PlantConditioner.cpp **** 
 138:../../Classes/Temperamento/PlantConditioner.cpp **** // DEBUG FUNCTIONS
 139:../../Classes/Temperamento/PlantConditioner.cpp **** float* PlantConditioner::getBin() {
 1240              		.loc 1 139 35 is_stmt 1 view -0
 1241              		.cfi_startproc
 1242              		@ args = 0, pretend = 0, frame = 0
 1243              		@ frame_needed = 0, uses_anonymous_args = 0
 140:../../Classes/Temperamento/PlantConditioner.cpp ****     for (int i = 0; i < _scaleLength; i++) {
 1244              		.loc 1 140 5 view .LVU318
 1245              	.LBB68:
 1246              		.loc 1 140 23 view .LVU319
 1247              	.LBE68:
 139:../../Classes/Temperamento/PlantConditioner.cpp ****     for (int i = 0; i < _scaleLength; i++) {
 1248              		.loc 1 139 35 is_stmt 0 view .LVU320
 1249 0000 2DE9F047 		push	{r4, r5, r6, r7, r8, r9, r10, lr}
 1250              		.cfi_def_cfa_offset 32
 1251              		.cfi_offset 4, -32
 1252              		.cfi_offset 5, -28
 1253              		.cfi_offset 6, -24
 1254              		.cfi_offset 7, -20
 1255              		.cfi_offset 8, -16
 1256              		.cfi_offset 9, -12
 1257              		.cfi_offset 10, -8
 1258              		.cfi_offset 14, -4
 1259 0004 2DED048B 		vpush.64	{d8, d9}
 1260              		.cfi_def_cfa_offset 48
 1261              		.cfi_offset 80, -48
 1262              		.cfi_offset 81, -44
 1263              		.cfi_offset 82, -40
 1264              		.cfi_offset 83, -36
 1265              	.LBB70:
 1266              		.loc 1 140 25 view .LVU321
 1267 0008 90F87D37 		ldrb	r3, [r0, #1917]	@ zero_extendqisi2
 1268              	.LBE70:
 139:../../Classes/Temperamento/PlantConditioner.cpp ****     for (int i = 0; i < _scaleLength; i++) {
 1269              		.loc 1 139 35 view .LVU322
 1270 000c 0546     		mov	r5, r0
 1271 000e 00F29479 		addw	r9, r0, #1940
 1272              	.LBB71:
 1273              		.loc 1 140 23 view .LVU323
 1274 0012 C3B3     		cbz	r3, .L62
 1275              		.loc 1 140 14 view .LVU324
 1276 0014 0024     		movs	r4, #0
 1277 0016 00F5F068 		add	r8, r0, #1920
 1278 001a 9FED1D9A 		vldr.32	s18, .L69
 1279 001e CA46     		mov	r10, r9
 1280 0020 00F5F167 		add	r7, r0, #1928
 1281 0024 00F5EF66 		add	r6, r0, #1912
 1282              	.LVL106:
 1283              	.L63:
 1284              	.LBB69:
 141:../../Classes/Temperamento/PlantConditioner.cpp ****         float lower = _deltaMin + _range * powf((float)i / _scaleLength, _curveType);
ARM GAS  C:\Users\skipi\AppData\Local\Temp\ccTwk1u0.s 			page 30


 1285              		.loc 1 141 9 is_stmt 1 discriminator 2 view .LVU325
 1286              		.loc 1 141 48 is_stmt 0 discriminator 2 view .LVU326
 1287 0028 07EE903A 		vmov	s15, r3	@ int
 142:../../Classes/Temperamento/PlantConditioner.cpp ****         float upper = _deltaMin + _range * powf((float)(i+1) / _scaleLength, _curveType);
 1288              		.loc 1 142 58 discriminator 2 view .LVU327
 1289 002c 0134     		adds	r4, r4, #1
 1290              	.LVL107:
 141:../../Classes/Temperamento/PlantConditioner.cpp ****         float lower = _deltaMin + _range * powf((float)i / _scaleLength, _curveType);
 1291              		.loc 1 141 48 discriminator 2 view .LVU328
 1292 002e D6ED000A 		vldr.32	s1, [r6]
 1293 0032 B8EEE70A 		vcvt.f32.s32	s0, s15
 141:../../Classes/Temperamento/PlantConditioner.cpp ****         float lower = _deltaMin + _range * powf((float)i / _scaleLength, _curveType);
 1294              		.loc 1 141 35 discriminator 2 view .LVU329
 1295 0036 D7ED009A 		vldr.32	s19, [r7]
 141:../../Classes/Temperamento/PlantConditioner.cpp ****         float lower = _deltaMin + _range * powf((float)i / _scaleLength, _curveType);
 1296              		.loc 1 141 23 discriminator 2 view .LVU330
 1297 003a D8ED008A 		vldr.32	s17, [r8]
 141:../../Classes/Temperamento/PlantConditioner.cpp ****         float lower = _deltaMin + _range * powf((float)i / _scaleLength, _curveType);
 1298              		.loc 1 141 48 discriminator 2 view .LVU331
 1299 003e 89EE000A 		vdiv.f32	s0, s18, s0
 1300 0042 FFF7FEFF 		bl	powf
 1301              	.LVL108:
 1302              		.loc 1 142 64 discriminator 2 view .LVU332
 1303 0046 95F87D37 		ldrb	r3, [r5, #1917]	@ zero_extendqisi2
 1304              		.loc 1 142 49 discriminator 2 view .LVU333
 1305 004a 07EE904A 		vmov	s15, r4	@ int
 1306              		.loc 1 142 23 discriminator 2 view .LVU334
 1307 004e 98ED008A 		vldr.32	s16, [r8]
 1308              		.loc 1 142 48 discriminator 2 view .LVU335
 1309 0052 D6ED000A 		vldr.32	s1, [r6]
 1310              		.loc 1 142 49 discriminator 2 view .LVU336
 1311 0056 B8EEE79A 		vcvt.f32.s32	s18, s15
 1312              		.loc 1 142 48 discriminator 2 view .LVU337
 1313 005a 07EE903A 		vmov	s15, r3	@ int
 141:../../Classes/Temperamento/PlantConditioner.cpp ****         float lower = _deltaMin + _range * powf((float)i / _scaleLength, _curveType);
 1314              		.loc 1 141 84 discriminator 2 view .LVU338
 1315 005e E9EE808A 		vfma.f32	s17, s19, s0
 1316              	.LVL109:
 1317              		.loc 1 142 9 is_stmt 1 discriminator 2 view .LVU339
 1318              		.loc 1 142 35 is_stmt 0 discriminator 2 view .LVU340
 1319 0062 D7ED009A 		vldr.32	s19, [r7]
 1320              		.loc 1 142 48 discriminator 2 view .LVU341
 1321 0066 B8EEE70A 		vcvt.f32.s32	s0, s15
 1322 006a 89EE000A 		vdiv.f32	s0, s18, s0
 1323 006e FFF7FEFF 		bl	powf
 1324              	.LVL110:
 1325              		.loc 1 142 88 discriminator 2 view .LVU342
 1326 0072 A9EE808A 		vfma.f32	s16, s19, s0
 1327              	.LVL111:
 143:../../Classes/Temperamento/PlantConditioner.cpp ****         _bin[i] = upper - lower; 
 1328              		.loc 1 143 9 is_stmt 1 discriminator 2 view .LVU343
 1329              		.loc 1 143 25 is_stmt 0 discriminator 2 view .LVU344
 1330 0076 38EE688A 		vsub.f32	s16, s16, s17
 1331              	.LVL112:
 1332              		.loc 1 143 17 discriminator 2 view .LVU345
 1333 007a AAEC018A 		vstmia.32	r10!, {s16}
 1334              	.LBE69:
ARM GAS  C:\Users\skipi\AppData\Local\Temp\ccTwk1u0.s 			page 31


 140:../../Classes/Temperamento/PlantConditioner.cpp ****         float lower = _deltaMin + _range * powf((float)i / _scaleLength, _curveType);
 1335              		.loc 1 140 5 is_stmt 1 discriminator 2 view .LVU346
 1336              	.LVL113:
 140:../../Classes/Temperamento/PlantConditioner.cpp ****         float lower = _deltaMin + _range * powf((float)i / _scaleLength, _curveType);
 1337              		.loc 1 140 23 discriminator 2 view .LVU347
 140:../../Classes/Temperamento/PlantConditioner.cpp ****         float lower = _deltaMin + _range * powf((float)i / _scaleLength, _curveType);
 1338              		.loc 1 140 25 is_stmt 0 discriminator 2 view .LVU348
 1339 007e 95F87D37 		ldrb	r3, [r5, #1917]	@ zero_extendqisi2
 140:../../Classes/Temperamento/PlantConditioner.cpp ****         float lower = _deltaMin + _range * powf((float)i / _scaleLength, _curveType);
 1340              		.loc 1 140 23 discriminator 2 view .LVU349
 1341 0082 A342     		cmp	r3, r4
 1342 0084 D0DC     		bgt	.L63
 1343              	.LVL114:
 1344              	.L62:
 140:../../Classes/Temperamento/PlantConditioner.cpp ****         float lower = _deltaMin + _range * powf((float)i / _scaleLength, _curveType);
 1345              		.loc 1 140 23 discriminator 2 view .LVU350
 1346              	.LBE71:
 144:../../Classes/Temperamento/PlantConditioner.cpp ****     }
 145:../../Classes/Temperamento/PlantConditioner.cpp ****     return _bin;
 1347              		.loc 1 145 5 is_stmt 1 view .LVU351
 146:../../Classes/Temperamento/PlantConditioner.cpp **** }
 1348              		.loc 1 146 1 is_stmt 0 view .LVU352
 1349 0086 4846     		mov	r0, r9
 1350 0088 BDEC048B 		vldm	sp!, {d8-d9}
 1351              		.cfi_restore 82
 1352              		.cfi_restore 83
 1353              		.cfi_restore 80
 1354              		.cfi_restore 81
 1355              		.cfi_def_cfa_offset 32
 1356 008c BDE8F087 		pop	{r4, r5, r6, r7, r8, r9, r10, pc}
 1357              	.LVL115:
 1358              	.L70:
 1359              		.loc 1 146 1 view .LVU353
 1360              		.align	2
 1361              	.L69:
 1362 0090 00000000 		.word	0
 1363              		.cfi_endproc
 1364              	.LFE4856:
 1366              		.section	.text._ZN16PlantConditioner9setBufferEv,"ax",%progbits
 1367              		.align	1
 1368              		.p2align 2,,3
 1369              		.global	_ZN16PlantConditioner9setBufferEv
 1370              		.syntax unified
 1371              		.thumb
 1372              		.thumb_func
 1373              		.fpu fpv5-d16
 1375              	_ZN16PlantConditioner9setBufferEv:
 1376              	.LVL116:
 1377              	.LFB4857:
 147:../../Classes/Temperamento/PlantConditioner.cpp **** 
 148:../../Classes/Temperamento/PlantConditioner.cpp **** void PlantConditioner::setBuffer() {
 1378              		.loc 1 148 36 is_stmt 1 view -0
 1379              		.cfi_startproc
 1380              		@ args = 0, pretend = 0, frame = 0
 1381              		@ frame_needed = 0, uses_anonymous_args = 0
 1382              		@ link register save eliminated.
 149:../../Classes/Temperamento/PlantConditioner.cpp ****     _delta = _deltaFilt;
ARM GAS  C:\Users\skipi\AppData\Local\Temp\ccTwk1u0.s 			page 32


 1383              		.loc 1 149 5 view .LVU355
 1384              		.loc 1 149 14 is_stmt 0 view .LVU356
 1385 0000 00F5F263 		add	r3, r0, #1936
 1386              		.loc 1 149 12 view .LVU357
 1387 0004 00F28C70 		addw	r0, r0, #1932
 1388              	.LVL117:
 1389              		.loc 1 149 12 view .LVU358
 1390 0008 1B68     		ldr	r3, [r3]	@ float
 1391 000a 0360     		str	r3, [r0]	@ float
 150:../../Classes/Temperamento/PlantConditioner.cpp **** }...
 1392              		.loc 1 150 1 view .LVU359
 1393 000c 7047     		bx	lr
 1394              		.cfi_endproc
 1395              	.LFE4857:
 1397 000e 00BF     		.section	.rodata
 1398              		.align	2
 1399              		.set	.LANCHOR0,. + 0
 1400              	.LC0:
 1401 0000 CDCC8241 		.word	1099091149
 1402 0004 CDCC9241 		.word	1100139725
 1403 0008 CDCCA441 		.word	1101319373
 1404 000c D7A3AE41 		.word	1101964247
 1405 0010 0000C441 		.word	1103364096
 1406 0014 0000DC41 		.word	1104936960
 1407 0018 C3F5F641 		.word	1106703811
 1408              	.LC1:
 1409 001c CDCC8241 		.word	1099091149
 1410 0020 CDCC9241 		.word	1100139725
 1411 0024 9A999B41 		.word	1100716442
 1412 0028 D7A3AE41 		.word	1101964247
 1413 002c 0000C441 		.word	1103364096
 1414 0030 14AECF41 		.word	1104129556
 1415 0034 B81EE941 		.word	1105796792
 1416              	.LC2:
 1417 0038 CDCC8241 		.word	1099091149
 1418 003c CDCC9241 		.word	1100139725
 1419 0040 9A999B41 		.word	1100716442
 1420 0044 D7A3AE41 		.word	1101964247
 1421 0048 0000C441 		.word	1103364096
 1422 004c 14AECF41 		.word	1104129556
 1423 0050 C3F5F641 		.word	1106703811
 1424              	.LC3:
 1425 0054 CDCC8241 		.word	1099091149
 1426 0058 CDCC9241 		.word	1100139725
 1427 005c 9A999B41 		.word	1100716442
 1428 0060 D7A3AE41 		.word	1101964247
 1429 0064 C3F5B841 		.word	1102640579
 1430 0068 0000DC41 		.word	1104936960
 1431 006c C3F5F641 		.word	1106703811
 1432              	.LC4:
 1433 0070 CDCC8241 		.word	1099091149
 1434 0074 CDCC9241 		.word	1100139725
 1435 0078 D7A3AE41 		.word	1101964247
 1436 007c 0000C441 		.word	1103364096
 1437 0080 0000DC41 		.word	1104936960
 1438              	.LC5:
 1439 0084 CDCC8241 		.word	1099091149
ARM GAS  C:\Users\skipi\AppData\Local\Temp\ccTwk1u0.s 			page 33


 1440 0088 5C8F8A41 		.word	1099599708
 1441 008c CDCC9241 		.word	1100139725
 1442 0090 9A999B41 		.word	1100716442
 1443 0094 CDCCA441 		.word	1101319373
 1444 0098 D7A3AE41 		.word	1101964247
 1445 009c C3F5B841 		.word	1102640579
 1446 00a0 0000C441 		.word	1103364096
 1447 00a4 14AECF41 		.word	1104129556
 1448 00a8 0000DC41 		.word	1104936960
 1449 00ac B81EE941 		.word	1105796792
 1450 00b0 C3F5F641 		.word	1106703811
 1451              	.LC6:
 1452 00b4 CDCC8241 		.word	1099091149
 1453 00b8 CDCC9241 		.word	1100139725
 1454 00bc CDCCA441 		.word	1101319373
 1455 00c0 D7A3AE41 		.word	1101964247
 1456 00c4 0000C441 		.word	1103364096
 1457 00c8 0000DC41 		.word	1104936960
 1458              		.text
 1459              	.Letext0:
 1460              		.file 3 "c:\\program files\\daisytoolchain\\arm-none-eabi\\include\\machine\\_default_types.h"
 1461              		.file 4 "c:\\program files\\daisytoolchain\\arm-none-eabi\\include\\sys\\_stdint.h"
 1462              		.file 5 "c:\\program files\\daisytoolchain\\arm-none-eabi\\include\\stdint.h"
 1463              		.file 6 "c:\\program files\\daisytoolchain\\lib\\gcc\\arm-none-eabi\\10.2.1\\include\\stddef.h"
 1464              		.file 7 "c:\\program files\\daisytoolchain\\arm-none-eabi\\include\\c++\\10.2.1\\cmath"
 1465              		.file 8 "c:\\program files\\daisytoolchain\\arm-none-eabi\\include\\c++\\10.2.1\\bits\\std_abs.h"
 1466              		.file 9 "c:\\program files\\daisytoolchain\\arm-none-eabi\\include\\c++\\10.2.1\\cstdint"
 1467              		.file 10 "c:\\program files\\daisytoolchain\\arm-none-eabi\\include\\c++\\10.2.1\\cstdlib"
 1468              		.file 11 "c:\\program files\\daisytoolchain\\arm-none-eabi\\include\\c++\\10.2.1\\type_traits"
 1469              		.file 12 "c:\\program files\\daisytoolchain\\arm-none-eabi\\include\\c++\\10.2.1\\debug\\debug.h"
 1470              		.file 13 "c:\\program files\\daisytoolchain\\arm-none-eabi\\include\\c++\\10.2.1\\cwchar"
 1471              		.file 14 "c:\\program files\\daisytoolchain\\arm-none-eabi\\include\\c++\\10.2.1\\bits\\stl_pair.h
 1472              		.file 15 "c:\\program files\\daisytoolchain\\arm-none-eabi\\include\\c++\\10.2.1\\bits\\exception_
 1473              		.file 16 "c:\\program files\\daisytoolchain\\arm-none-eabi\\include\\c++\\10.2.1\\arm-none-eabi\\t
 1474              		.file 17 "c:\\program files\\daisytoolchain\\arm-none-eabi\\include\\c++\\10.2.1\\clocale"
 1475              		.file 18 "c:\\program files\\daisytoolchain\\arm-none-eabi\\include\\c++\\10.2.1\\cstdio"
 1476              		.file 19 "c:\\program files\\daisytoolchain\\arm-none-eabi\\include\\c++\\10.2.1\\bits\\basic_stri
 1477              		.file 20 "c:\\program files\\daisytoolchain\\arm-none-eabi\\include\\c++\\10.2.1\\bits\\charconv.h
 1478              		.file 21 "c:\\program files\\daisytoolchain\\arm-none-eabi\\include\\c++\\10.2.1\\bits\\algorithmf
 1479              		.file 22 "c:\\program files\\daisytoolchain\\arm-none-eabi\\include\\c++\\10.2.1\\cstring"
 1480              		.file 23 "c:\\program files\\daisytoolchain\\arm-none-eabi\\include\\c++\\10.2.1\\cstdarg"
 1481              		.file 24 "c:\\program files\\daisytoolchain\\arm-none-eabi\\include\\c++\\10.2.1\\bits\\predefined
 1482              		.file 25 "c:\\program files\\daisytoolchain\\arm-none-eabi\\include\\sys\\_types.h"
 1483              		.file 26 "c:\\program files\\daisytoolchain\\arm-none-eabi\\include\\sys\\reent.h"
 1484              		.file 27 "c:\\program files\\daisytoolchain\\arm-none-eabi\\include\\sys\\lock.h"
 1485              		.file 28 "c:\\program files\\daisytoolchain\\arm-none-eabi\\include\\math.h"
 1486              		.file 29 "c:\\program files\\daisytoolchain\\arm-none-eabi\\include\\stdlib.h"
 1487              		.file 30 "c:\\program files\\daisytoolchain\\arm-none-eabi\\include\\c++\\10.2.1\\math.h"
 1488              		.file 31 "../../libs/DaisySP/Source/Control/adenv.h"
 1489              		.file 32 "c:\\program files\\daisytoolchain\\lib\\gcc\\arm-none-eabi\\10.2.1\\include\\stdarg.h"
 1490              		.file 33 "c:\\program files\\daisytoolchain\\arm-none-eabi\\include\\wchar.h"
 1491              		.file 34 "c:\\program files\\daisytoolchain\\arm-none-eabi\\include\\locale.h"
 1492              		.file 35 "c:\\program files\\daisytoolchain\\arm-none-eabi\\include\\stdio.h"
 1493              		.file 36 "c:\\program files\\daisytoolchain\\arm-none-eabi\\include\\c++\\10.2.1\\stdlib.h"
 1494              		.file 37 "c:\\program files\\daisytoolchain\\arm-none-eabi\\include\\string.h"
 1495              		.file 38 "../../libs/libDaisy/src/daisy_core.h"
 1496              		.file 39 "../../libs/libDaisy/src/util/wav_format.h"
ARM GAS  C:\Users\skipi\AppData\Local\Temp\ccTwk1u0.s 			page 34


 1497              		.file 40 "../../libs/libDaisy/src/dev/sr_595.h"
 1498              		.file 41 "../../libs/libDaisy/src/dev/max11300.h"
 1499              		.file 42 "../../libs/libDaisy/src/daisy_seed.h"
 1500              		.file 43 "../../Classes/Temperamento/../SensorFilters/FIIR/CapFir.h"
 1501              		.file 44 "../../Classes/Temperamento/../SensorFilters/IIR/iir.h"
 1502              		.file 45 "../../Classes/Temperamento/../SensorFilters/MF/MF.h"
 1503              		.file 46 "../../Classes/Temperamento/PlantConditioner.h"
 1504              		.file 47 "<built-in>"
ARM GAS  C:\Users\skipi\AppData\Local\Temp\ccTwk1u0.s 			page 35


DEFINED SYMBOLS
                            *ABS*:00000000 PlantConditioner.cpp
C:\Users\skipi\AppData\Local\Temp\ccTwk1u0.s:17     .text._ZN16PlantConditionerC2Ev:00000000 $t
C:\Users\skipi\AppData\Local\Temp\ccTwk1u0.s:26     .text._ZN16PlantConditionerC2Ev:00000000 _ZN16PlantConditionerC2Ev
C:\Users\skipi\AppData\Local\Temp\ccTwk1u0.s:163    .text._ZN16PlantConditionerC2Ev:00000138 $d
C:\Users\skipi\AppData\Local\Temp\ccTwk1u0.s:26     .text._ZN16PlantConditionerC2Ev:00000000 _ZN16PlantConditionerC1Ev
C:\Users\skipi\AppData\Local\Temp\ccTwk1u0.s:172    .text._ZN16PlantConditionerD2Ev:00000000 $t
C:\Users\skipi\AppData\Local\Temp\ccTwk1u0.s:180    .text._ZN16PlantConditionerD2Ev:00000000 _ZN16PlantConditionerD2Ev
C:\Users\skipi\AppData\Local\Temp\ccTwk1u0.s:180    .text._ZN16PlantConditionerD2Ev:00000000 _ZN16PlantConditionerD1Ev
C:\Users\skipi\AppData\Local\Temp\ccTwk1u0.s:221    .text._ZN16PlantConditioner4InitEN3IIR10FilterTypeE:00000000 $t
C:\Users\skipi\AppData\Local\Temp\ccTwk1u0.s:229    .text._ZN16PlantConditioner4InitEN3IIR10FilterTypeE:00000000 _ZN16PlantConditioner4InitEN3IIR10FilterTypeE
C:\Users\skipi\AppData\Local\Temp\ccTwk1u0.s:301    .text._ZN16PlantConditioner4InitEN3IIR10FilterTypeE:0000004c $d
C:\Users\skipi\AppData\Local\Temp\ccTwk1u0.s:306    .text._ZN16PlantConditioner8setScaleENS_5NotesENS_9ScaleTypeE:00000000 $t
C:\Users\skipi\AppData\Local\Temp\ccTwk1u0.s:314    .text._ZN16PlantConditioner8setScaleENS_5NotesENS_9ScaleTypeE:00000000 _ZN16PlantConditioner8setScaleENS_5NotesENS_9ScaleTypeE
C:\Users\skipi\AppData\Local\Temp\ccTwk1u0.s:336    .text._ZN16PlantConditioner8setScaleENS_5NotesENS_9ScaleTypeE:00000010 $d
C:\Users\skipi\AppData\Local\Temp\ccTwk1u0.s:678    .text._ZN16PlantConditioner9setOctaveEh:00000000 $t
C:\Users\skipi\AppData\Local\Temp\ccTwk1u0.s:686    .text._ZN16PlantConditioner9setOctaveEh:00000000 _ZN16PlantConditioner9setOctaveEh
C:\Users\skipi\AppData\Local\Temp\ccTwk1u0.s:703    .text._ZN16PlantConditioner7ProcessEtt:00000000 $t
C:\Users\skipi\AppData\Local\Temp\ccTwk1u0.s:711    .text._ZN16PlantConditioner7ProcessEtt:00000000 _ZN16PlantConditioner7ProcessEtt
C:\Users\skipi\AppData\Local\Temp\ccTwk1u0.s:1131   .text._ZN16PlantConditioner7ProcessEtt:000001dc $d
C:\Users\skipi\AppData\Local\Temp\ccTwk1u0.s:1139   .text._ZN16PlantConditioner8setCurveEhf:00000000 $t
C:\Users\skipi\AppData\Local\Temp\ccTwk1u0.s:1147   .text._ZN16PlantConditioner8setCurveEhf:00000000 _ZN16PlantConditioner8setCurveEhf
C:\Users\skipi\AppData\Local\Temp\ccTwk1u0.s:1229   .text._ZN16PlantConditioner6getBinEv:00000000 $t
C:\Users\skipi\AppData\Local\Temp\ccTwk1u0.s:1237   .text._ZN16PlantConditioner6getBinEv:00000000 _ZN16PlantConditioner6getBinEv
C:\Users\skipi\AppData\Local\Temp\ccTwk1u0.s:1362   .text._ZN16PlantConditioner6getBinEv:00000090 $d
C:\Users\skipi\AppData\Local\Temp\ccTwk1u0.s:1367   .text._ZN16PlantConditioner9setBufferEv:00000000 $t
C:\Users\skipi\AppData\Local\Temp\ccTwk1u0.s:1375   .text._ZN16PlantConditioner9setBufferEv:00000000 _ZN16PlantConditioner9setBufferEv
C:\Users\skipi\AppData\Local\Temp\ccTwk1u0.s:1398   .rodata:00000000 $d
C:\Users\skipi\AppData\Local\Temp\ccTwk1u0.s:343    .text._ZN16PlantConditioner8setScaleENS_5NotesENS_9ScaleTypeE:00000017 $d
C:\Users\skipi\AppData\Local\Temp\ccTwk1u0.s:343    .text._ZN16PlantConditioner8setScaleENS_5NotesENS_9ScaleTypeE:00000018 $t

UNDEFINED SYMBOLS
_ZN3IIRC1Ev
_ZN2MFC1Ev
_ZN6CapFirC1Ev
_ZN6CapFirD1Ev
_ZN2MFD1Ev
_ZN3IIRD1Ev
_ZN3IIR4InitENS_10FilterTypeE
_ZN2MF4InitEv
_ZN6CapFir4InitENS_7ResTypeE
powf
_ZN2MF7ProcessEf
_ZN3IIR7ProcessEf
_ZN6CapFir7ProcessEf
