ARM GAS  C:\Users\skipi\AppData\Local\Temp\ccBrn9lC.s 			page 1


   1              		.cpu cortex-m7
   2              		.eabi_attribute 28, 1
   3              		.eabi_attribute 20, 1
   4              		.eabi_attribute 21, 1
   5              		.eabi_attribute 23, 3
   6              		.eabi_attribute 24, 1
   7              		.eabi_attribute 25, 1
   8              		.eabi_attribute 26, 1
   9              		.eabi_attribute 30, 2
  10              		.eabi_attribute 34, 1
  11              		.eabi_attribute 18, 4
  12              		.file	"PlantConditioner.cpp"
  13              		.text
  14              	.Ltext0:
  15              		.cfi_sections	.debug_frame
  16              		.section	.text._ZN16PlantConditionerC2Ev,"ax",%progbits
  17              		.align	1
  18              		.p2align 2,,3
  19              		.global	_ZN16PlantConditionerC2Ev
  20              		.arch armv7e-m
  21              		.syntax unified
  22              		.thumb
  23              		.thumb_func
  24              		.fpu fpv5-d16
  26              	_ZN16PlantConditionerC2Ev:
  27              	.LVL0:
  28              	.LFB4846:
  29              		.file 1 "../../Classes/Temperamento/PlantConditioner.cpp"
   1:../../Classes/Temperamento/PlantConditioner.cpp **** # include "PlantConditioner.h"
   2:../../Classes/Temperamento/PlantConditioner.cpp **** 
   3:../../Classes/Temperamento/PlantConditioner.cpp **** PlantConditioner::PlantConditioner() {}
  30              		.loc 1 3 1 view -0
  31              		.cfi_startproc
  32              		@ args = 0, pretend = 0, frame = 24
  33              		@ frame_needed = 0, uses_anonymous_args = 0
  34              	.LBB2:
  35              		.loc 1 3 36 is_stmt 0 view .LVU1
  36 0000 0223     		movs	r3, #2
  37              	.LBE2:
  38              		.loc 1 3 1 view .LVU2
  39 0002 2DE9F04F 		push	{r4, r5, r6, r7, r8, r9, r10, fp, lr}
  40              		.cfi_def_cfa_offset 36
  41              		.cfi_offset 4, -36
  42              		.cfi_offset 5, -32
  43              		.cfi_offset 6, -28
  44              		.cfi_offset 7, -24
  45              		.cfi_offset 8, -20
  46              		.cfi_offset 9, -16
  47              		.cfi_offset 10, -12
  48              		.cfi_offset 11, -8
  49              		.cfi_offset 14, -4
  50 0006 0446     		mov	r4, r0
  51 0008 87B0     		sub	sp, sp, #28
  52              		.cfi_def_cfa_offset 64
  53              	.LBB3:
  54              		.loc 1 3 36 view .LVU3
  55 000a 00F8043B 		strb	r3, [r0], #4
ARM GAS  C:\Users\skipi\AppData\Local\Temp\ccBrn9lC.s 			page 2


  56              	.LVL1:
  57              		.loc 1 3 36 view .LVU4
  58 000e FFF7FEFF 		bl	_ZN3IIRC1Ev
  59              	.LVL2:
  60 0012 04F14C00 		add	r0, r4, #76
  61 0016 FFF7FEFF 		bl	_ZN2MFC1Ev
  62              	.LVL3:
  63 001a 04F16400 		add	r0, r4, #100
  64 001e FFF7FEFF 		bl	_ZN6CapFirC1Ev
  65              	.LVL4:
  66 0022 04F57A70 		add	r0, r4, #1000
  67 0026 FFF7FEFF 		bl	_ZN6CapFirC1Ev
  68              	.LVL5:
  69 002a 0023     		movs	r3, #0
  70 002c 04F26C71 		addw	r1, r4, #1900
  71 0030 04F27472 		addw	r2, r4, #1908
  72 0034 4FF08040 		mov	r0, #1073741824
  73 0038 374D     		ldr	r5, .L4
  74 003a 04F60C08 		addw	r8, r4, #2060
  75 003e 04F5066A 		add	r10, r4, #2144
  76 0042 0860     		str	r0, [r1]	@ float
  77 0044 04F64401 		addw	r1, r4, #2116
  78 0048 1360     		str	r3, [r2]	@ float
  79 004a 04F5EF62 		add	r2, r4, #1912
  80 004e 05F1B400 		add	r0, r5, #180
  81 0052 0291     		str	r1, [sp, #8]
  82 0054 1360     		str	r3, [r2]	@ float
  83 0056 46F20153 		movw	r3, #25857
  84 005a 0722     		movs	r2, #7
  85 005c 0590     		str	r0, [sp, #20]
  86 005e A4F87E37 		strh	r3, [r4, #1918]	@ movhi
  87 0062 6423     		movs	r3, #100
  88 0064 84F87D27 		strb	r2, [r4, #1917]
  89 0068 04F5FE62 		add	r2, r4, #2032
  90 006c 84F88037 		strb	r3, [r4, #1920]
  91 0070 04F62803 		addw	r3, r4, #2088
  92 0074 1646     		mov	r6, r2
  93 0076 04F6A402 		addw	r2, r4, #2212
  94 007a 0193     		str	r3, [sp, #4]
  95 007c 05F15403 		add	r3, r5, #84
  96 0080 0492     		str	r2, [sp, #16]
  97 0082 05F11C09 		add	r9, r5, #28
  98 0086 0393     		str	r3, [sp, #12]
  99 0088 05F13807 		add	r7, r5, #56
 100 008c 05F1700B 		add	fp, r5, #112
 101 0090 05F1840E 		add	lr, r5, #132
 102 0094 04F6740C 		addw	ip, r4, #2164
 103 0098 0FCD     		ldmia	r5!, {r0, r1, r2, r3}
 104 009a 0FC6     		stmia	r6!, {r0, r1, r2, r3}
 105 009c 95E80700 		ldm	r5, {r0, r1, r2}
 106 00a0 86E80700 		stm	r6, {r0, r1, r2}
 107 00a4 B9E80F00 		ldmia	r9!, {r0, r1, r2, r3}
 108 00a8 A8E80F00 		stmia	r8!, {r0, r1, r2, r3}
 109 00ac 99E80700 		ldm	r9, {r0, r1, r2}
 110 00b0 019D     		ldr	r5, [sp, #4]
 111 00b2 88E80700 		stm	r8, {r0, r1, r2}
 112 00b6 0FCF     		ldmia	r7!, {r0, r1, r2, r3}
ARM GAS  C:\Users\skipi\AppData\Local\Temp\ccBrn9lC.s 			page 3


 113 00b8 0FC5     		stmia	r5!, {r0, r1, r2, r3}
 114 00ba 97E80700 		ldm	r7, {r0, r1, r2}
 115 00be 039B     		ldr	r3, [sp, #12]
 116 00c0 85E80700 		stm	r5, {r0, r1, r2}
 117 00c4 1E46     		mov	r6, r3
 118 00c6 029D     		ldr	r5, [sp, #8]
 119 00c8 0FCE     		ldmia	r6!, {r0, r1, r2, r3}
 120 00ca 2F46     		mov	r7, r5
 121 00cc 0FC7     		stmia	r7!, {r0, r1, r2, r3}
 122 00ce 96E80700 		ldm	r6, {r0, r1, r2}
 123 00d2 87E80700 		stm	r7, {r0, r1, r2}
 124 00d6 BBE80F00 		ldmia	fp!, {r0, r1, r2, r3}
 125 00da AAE80F00 		stmia	r10!, {r0, r1, r2, r3}
 126 00de DBF80030 		ldr	r3, [fp]
 127 00e2 CAF80030 		str	r3, [r10]
 128 00e6 BEE80F00 		ldmia	lr!, {r0, r1, r2, r3}
 129 00ea ACE80F00 		stmia	ip!, {r0, r1, r2, r3}
 130 00ee BEE80F00 		ldmia	lr!, {r0, r1, r2, r3}
 131 00f2 ACE80F00 		stmia	ip!, {r0, r1, r2, r3}
 132 00f6 9EE80F00 		ldm	lr, {r0, r1, r2, r3}
 133 00fa 8CE80F00 		stm	ip, {r0, r1, r2, r3}
 134 00fe 0598     		ldr	r0, [sp, #20]
 135 0100 049D     		ldr	r5, [sp, #16]
 136 0102 0646     		mov	r6, r0
 137 0104 0FCE     		ldmia	r6!, {r0, r1, r2, r3}
 138 0106 0FC5     		stmia	r5!, {r0, r1, r2, r3}
 139 0108 96E80300 		ldm	r6, {r0, r1}
 140 010c 85E80300 		stm	r5, {r0, r1}
 141              	.LBE3:
 142              		.loc 1 3 39 view .LVU5
 143 0110 2046     		mov	r0, r4
 144 0112 07B0     		add	sp, sp, #28
 145              		.cfi_def_cfa_offset 36
 146              		@ sp needed
 147 0114 BDE8F08F 		pop	{r4, r5, r6, r7, r8, r9, r10, fp, pc}
 148              	.LVL6:
 149              	.L5:
 150              		.loc 1 3 39 view .LVU6
 151              		.align	2
 152              	.L4:
 153 0118 00000000 		.word	.LANCHOR0
 154              		.cfi_endproc
 155              	.LFE4846:
 157              		.global	_ZN16PlantConditionerC1Ev
 158              		.thumb_set _ZN16PlantConditionerC1Ev,_ZN16PlantConditionerC2Ev
 159              		.section	.text._ZN16PlantConditionerD2Ev,"ax",%progbits
 160              		.align	1
 161              		.p2align 2,,3
 162              		.global	_ZN16PlantConditionerD2Ev
 163              		.syntax unified
 164              		.thumb
 165              		.thumb_func
 166              		.fpu fpv5-d16
 168              	_ZN16PlantConditionerD2Ev:
 169              	.LVL7:
 170              	.LFB4849:
   4:../../Classes/Temperamento/PlantConditioner.cpp **** PlantConditioner::~PlantConditioner() {}
ARM GAS  C:\Users\skipi\AppData\Local\Temp\ccBrn9lC.s 			page 4


 171              		.loc 1 4 1 is_stmt 1 view -0
 172              		.cfi_startproc
 173              		@ args = 0, pretend = 0, frame = 0
 174              		@ frame_needed = 0, uses_anonymous_args = 0
 175              		.loc 1 4 1 is_stmt 0 view .LVU8
 176 0000 10B5     		push	{r4, lr}
 177              		.cfi_def_cfa_offset 8
 178              		.cfi_offset 4, -8
 179              		.cfi_offset 14, -4
 180              		.loc 1 4 1 view .LVU9
 181 0002 0446     		mov	r4, r0
 182              	.LBB4:
 183              		.loc 1 4 37 view .LVU10
 184 0004 00F57A70 		add	r0, r0, #1000
 185              	.LVL8:
 186              		.loc 1 4 37 view .LVU11
 187 0008 FFF7FEFF 		bl	_ZN6CapFirD1Ev
 188              	.LVL9:
 189 000c 04F16400 		add	r0, r4, #100
 190 0010 FFF7FEFF 		bl	_ZN6CapFirD1Ev
 191              	.LVL10:
 192 0014 04F14C00 		add	r0, r4, #76
 193 0018 FFF7FEFF 		bl	_ZN2MFD1Ev
 194              	.LVL11:
 195 001c 201D     		adds	r0, r4, #4
 196 001e FFF7FEFF 		bl	_ZN3IIRD1Ev
 197              	.LVL12:
 198              	.LBE4:
 199              		.loc 1 4 40 view .LVU12
 200 0022 2046     		mov	r0, r4
 201 0024 10BD     		pop	{r4, pc}
 202              		.loc 1 4 40 view .LVU13
 203              		.cfi_endproc
 204              	.LFE4849:
 206              		.global	_ZN16PlantConditionerD1Ev
 207              		.thumb_set _ZN16PlantConditionerD1Ev,_ZN16PlantConditionerD2Ev
 208              		.section	.text._ZN16PlantConditioner4InitEN3IIR10FilterTypeE,"ax",%progbits
 209              		.align	1
 210              		.p2align 2,,3
 211              		.global	_ZN16PlantConditioner4InitEN3IIR10FilterTypeE
 212              		.syntax unified
 213              		.thumb
 214              		.thumb_func
 215              		.fpu fpv5-d16
 217              	_ZN16PlantConditioner4InitEN3IIR10FilterTypeE:
 218              	.LVL13:
 219              	.LFB4851:
   5:../../Classes/Temperamento/PlantConditioner.cpp **** 
   6:../../Classes/Temperamento/PlantConditioner.cpp **** void PlantConditioner::Init(IIR::FilterType filter_type) {
 220              		.loc 1 6 58 is_stmt 1 view -0
 221              		.cfi_startproc
 222              		@ args = 0, pretend = 0, frame = 0
 223              		@ frame_needed = 0, uses_anonymous_args = 0
   7:../../Classes/Temperamento/PlantConditioner.cpp ****     _deltaFilter.Init(filter_type);
 224              		.loc 1 7 5 view .LVU15
   6:../../Classes/Temperamento/PlantConditioner.cpp ****     _deltaFilter.Init(filter_type);
 225              		.loc 1 6 58 is_stmt 0 view .LVU16
ARM GAS  C:\Users\skipi\AppData\Local\Temp\ccBrn9lC.s 			page 5


 226 0000 10B5     		push	{r4, lr}
 227              		.cfi_def_cfa_offset 8
 228              		.cfi_offset 4, -8
 229              		.cfi_offset 14, -4
   6:../../Classes/Temperamento/PlantConditioner.cpp ****     _deltaFilter.Init(filter_type);
 230              		.loc 1 6 58 view .LVU17
 231 0002 0446     		mov	r4, r0
 232              		.loc 1 7 22 view .LVU18
 233 0004 0430     		adds	r0, r0, #4
 234              	.LVL14:
 235              		.loc 1 7 22 view .LVU19
 236 0006 FFF7FEFF 		bl	_ZN3IIR4InitENS_10FilterTypeE
 237              	.LVL15:
   8:../../Classes/Temperamento/PlantConditioner.cpp ****     _deltaFilterMF.Init();
 238              		.loc 1 8 5 is_stmt 1 view .LVU20
 239              		.loc 1 8 24 is_stmt 0 view .LVU21
 240 000a 04F14C00 		add	r0, r4, #76
 241 000e FFF7FEFF 		bl	_ZN2MF4InitEv
 242              	.LVL16:
   9:../../Classes/Temperamento/PlantConditioner.cpp ****     _maxFir.Init(CapFir::ResType::HIGH);
 243              		.loc 1 9 5 is_stmt 1 view .LVU22
 244              		.loc 1 9 17 is_stmt 0 view .LVU23
 245 0012 0221     		movs	r1, #2
 246 0014 04F16400 		add	r0, r4, #100
 247 0018 FFF7FEFF 		bl	_ZN6CapFir4InitENS_7ResTypeE
 248              	.LVL17:
  10:../../Classes/Temperamento/PlantConditioner.cpp ****     _curveFir.Init(CapFir::ResType::HIGH);
 249              		.loc 1 10 5 is_stmt 1 view .LVU24
 250              		.loc 1 10 19 is_stmt 0 view .LVU25
 251 001c 0221     		movs	r1, #2
 252 001e 04F57A70 		add	r0, r4, #1000
 253 0022 FFF7FEFF 		bl	_ZN6CapFir4InitENS_7ResTypeE
 254              	.LVL18:
  11:../../Classes/Temperamento/PlantConditioner.cpp ****     _delta = 0;
 255              		.loc 1 11 5 is_stmt 1 view .LVU26
 256              		.loc 1 11 12 is_stmt 0 view .LVU27
 257 0026 0023     		movs	r3, #0
 258 0028 04F28470 		addw	r0, r4, #1924
  12:../../Classes/Temperamento/PlantConditioner.cpp ****     _deltaFilt = 0;
 259              		.loc 1 12 16 view .LVU28
 260 002c 04F5F161 		add	r1, r4, #1928
  13:../../Classes/Temperamento/PlantConditioner.cpp ****     _octave = 4;
 261              		.loc 1 13 13 view .LVU29
 262 0030 0422     		movs	r2, #4
  11:../../Classes/Temperamento/PlantConditioner.cpp ****     _delta = 0;
 263              		.loc 1 11 12 view .LVU30
 264 0032 0360     		str	r3, [r0]	@ float
  12:../../Classes/Temperamento/PlantConditioner.cpp ****     _deltaFilt = 0;
 265              		.loc 1 12 5 is_stmt 1 view .LVU31
  12:../../Classes/Temperamento/PlantConditioner.cpp ****     _deltaFilt = 0;
 266              		.loc 1 12 16 is_stmt 0 view .LVU32
 267 0034 0B60     		str	r3, [r1]	@ float
 268              		.loc 1 13 5 is_stmt 1 view .LVU33
 269              		.loc 1 13 13 is_stmt 0 view .LVU34
 270 0036 84F87C27 		strb	r2, [r4, #1916]
  14:../../Classes/Temperamento/PlantConditioner.cpp **** }
 271              		.loc 1 14 1 view .LVU35
ARM GAS  C:\Users\skipi\AppData\Local\Temp\ccBrn9lC.s 			page 6


 272 003a 10BD     		pop	{r4, pc}
 273              		.loc 1 14 1 view .LVU36
 274              		.cfi_endproc
 275              	.LFE4851:
 277              		.section	.text._ZN16PlantConditioner8setScaleENS_5NotesENS_9ScaleTypeE,"ax",%progbits
 278              		.align	1
 279              		.p2align 2,,3
 280              		.global	_ZN16PlantConditioner8setScaleENS_5NotesENS_9ScaleTypeE
 281              		.syntax unified
 282              		.thumb
 283              		.thumb_func
 284              		.fpu fpv5-d16
 286              	_ZN16PlantConditioner8setScaleENS_5NotesENS_9ScaleTypeE:
 287              	.LVL19:
 288              	.LFB4852:
  15:../../Classes/Temperamento/PlantConditioner.cpp **** void PlantConditioner::setScale( enum Notes root_note, enum ScaleType scale_type) {
 289              		.loc 1 15 83 is_stmt 1 view -0
 290              		.cfi_startproc
 291              		@ args = 0, pretend = 0, frame = 0
 292              		@ frame_needed = 0, uses_anonymous_args = 0
  16:../../Classes/Temperamento/PlantConditioner.cpp ****     switch (scale_type) 
 293              		.loc 1 16 5 view .LVU38
  15:../../Classes/Temperamento/PlantConditioner.cpp **** void PlantConditioner::setScale( enum Notes root_note, enum ScaleType scale_type) {
 294              		.loc 1 15 83 is_stmt 0 view .LVU39
 295 0000 70B5     		push	{r4, r5, r6, lr}
 296              		.cfi_def_cfa_offset 16
 297              		.cfi_offset 4, -16
 298              		.cfi_offset 5, -12
 299              		.cfi_offset 6, -8
 300              		.cfi_offset 14, -4
 301 0002 07EE901A 		vmov	s15, r1	@ int
 302 0006 0646     		mov	r6, r0
 303 0008 2DED028B 		vpush.64	{d8}
 304              		.cfi_def_cfa_offset 24
 305              		.cfi_offset 80, -24
 306              		.cfi_offset 81, -20
 307 000c 062A     		cmp	r2, #6
 308 000e 24D8     		bhi	.L11
 309 0010 DFE802F0 		tbb	[pc, r2]
 310              	.L13:
 311 0014 23       		.byte	(.L11-.L13)/2
 312 0015 7D       		.byte	(.L18-.L13)/2
 313 0016 9F       		.byte	(.L17-.L13)/2
 314 0017 C1       		.byte	(.L16-.L13)/2
 315 0018 E3       		.byte	(.L15-.L13)/2
 316 0019 04       		.byte	(.L14-.L13)/2
 317 001a 5F       		.byte	(.L12-.L13)/2
 318 001b 00       		.p2align 1
 319              	.L14:
 320              	.LBB5:
  17:../../Classes/Temperamento/PlantConditioner.cpp ****     {
  18:../../Classes/Temperamento/PlantConditioner.cpp ****     case Major:
  19:../../Classes/Temperamento/PlantConditioner.cpp ****         _scaleLength = 7;
  20:../../Classes/Temperamento/PlantConditioner.cpp ****         for (int i = 0; i < 7; i++) {
  21:../../Classes/Temperamento/PlantConditioner.cpp ****             _scale[i] = _majorScale[i];
  22:../../Classes/Temperamento/PlantConditioner.cpp ****         }
  23:../../Classes/Temperamento/PlantConditioner.cpp ****         break;
ARM GAS  C:\Users\skipi\AppData\Local\Temp\ccBrn9lC.s 			page 7


  24:../../Classes/Temperamento/PlantConditioner.cpp ****     case MinorNat:
  25:../../Classes/Temperamento/PlantConditioner.cpp ****         _scaleLength = 7;
  26:../../Classes/Temperamento/PlantConditioner.cpp ****         for (int i = 0; i < 7; i++) {
  27:../../Classes/Temperamento/PlantConditioner.cpp ****             _scale[i] = _minorNScale[i];
  28:../../Classes/Temperamento/PlantConditioner.cpp ****         }
  29:../../Classes/Temperamento/PlantConditioner.cpp ****         break;
  30:../../Classes/Temperamento/PlantConditioner.cpp ****     case MinorArm:
  31:../../Classes/Temperamento/PlantConditioner.cpp ****         _scaleLength = 7;
  32:../../Classes/Temperamento/PlantConditioner.cpp ****         for (int i = 0; i < 7; i++) {
  33:../../Classes/Temperamento/PlantConditioner.cpp ****             _scale[i] = _minorAScale[i];
  34:../../Classes/Temperamento/PlantConditioner.cpp ****         }
  35:../../Classes/Temperamento/PlantConditioner.cpp ****         break;
  36:../../Classes/Temperamento/PlantConditioner.cpp ****     case MinorMel:
  37:../../Classes/Temperamento/PlantConditioner.cpp ****         _scaleLength = 7;
  38:../../Classes/Temperamento/PlantConditioner.cpp ****         for (int i = 0; i < 7; i++) {
  39:../../Classes/Temperamento/PlantConditioner.cpp ****             _scale[i] = _minorMScale[i];
  40:../../Classes/Temperamento/PlantConditioner.cpp ****         }
  41:../../Classes/Temperamento/PlantConditioner.cpp ****         break;
  42:../../Classes/Temperamento/PlantConditioner.cpp ****     case Pentatonic:
  43:../../Classes/Temperamento/PlantConditioner.cpp ****         _scaleLength = 5;
  44:../../Classes/Temperamento/PlantConditioner.cpp ****         for (int i = 0; i < 5; i++) {
  45:../../Classes/Temperamento/PlantConditioner.cpp ****             _scale[i] = _pentatonicScale[i];
  46:../../Classes/Temperamento/PlantConditioner.cpp ****         }
  47:../../Classes/Temperamento/PlantConditioner.cpp ****         break;
  48:../../Classes/Temperamento/PlantConditioner.cpp ****     case Chromatic:
 321              		.loc 1 48 5 is_stmt 1 view .LVU40
  49:../../Classes/Temperamento/PlantConditioner.cpp ****         _scaleLength = 12;
 322              		.loc 1 49 9 view .LVU41
 323              	.LBB6:
  50:../../Classes/Temperamento/PlantConditioner.cpp ****         for (int i = 0; i < 12; i++) {
  51:../../Classes/Temperamento/PlantConditioner.cpp ****             _scale[i] = _chromaticScale[i];
 324              		.loc 1 51 23 is_stmt 0 view .LVU42
 325 001c 00F5F864 		add	r4, r0, #1984
 326              	.LBE6:
  49:../../Classes/Temperamento/PlantConditioner.cpp ****         _scaleLength = 12;
 327              		.loc 1 49 22 view .LVU43
 328 0020 0C21     		movs	r1, #12
 329              	.LVL20:
 330              	.LBB7:
 331              		.loc 1 51 23 view .LVU44
 332 0022 00F67403 		addw	r3, r0, #2164
 333 0026 00F6A40E 		addw	lr, r0, #2212
 334 002a 2246     		mov	r2, r4
 335              	.LVL21:
 336              		.loc 1 51 23 view .LVU45
 337              	.LBE7:
  49:../../Classes/Temperamento/PlantConditioner.cpp ****         _scaleLength = 12;
 338              		.loc 1 49 22 view .LVU46
 339 002c 80F87D17 		strb	r1, [r0, #1917]
  50:../../Classes/Temperamento/PlantConditioner.cpp ****         for (int i = 0; i < 12; i++) {
 340              		.loc 1 50 9 is_stmt 1 view .LVU47
 341              	.LVL22:
 342              	.LBB8:
  50:../../Classes/Temperamento/PlantConditioner.cpp ****         for (int i = 0; i < 12; i++) {
 343              		.loc 1 50 27 view .LVU48
 344              	.L21:
 345              		.loc 1 51 23 is_stmt 0 view .LVU49
ARM GAS  C:\Users\skipi\AppData\Local\Temp\ccBrn9lC.s 			page 8


 346 0030 D3F800C0 		ldr	ip, [r3]	@ unaligned
 347 0034 1033     		adds	r3, r3, #16
 348 0036 53F80C5C 		ldr	r5, [r3, #-12]	@ unaligned
 349 003a 1032     		adds	r2, r2, #16
 350 003c 53F8080C 		ldr	r0, [r3, #-8]	@ unaligned
 351 0040 53F8041C 		ldr	r1, [r3, #-4]	@ unaligned
 352 0044 7345     		cmp	r3, lr
 353 0046 42F810CC 		str	ip, [r2, #-16]	@ unaligned
 354 004a 42F80C5C 		str	r5, [r2, #-12]	@ unaligned
 355 004e 42F8080C 		str	r0, [r2, #-8]	@ unaligned
 356 0052 42F8041C 		str	r1, [r2, #-4]	@ unaligned
 357 0056 EBD1     		bne	.L21
 358 0058 20E0     		b	.L20
 359              	.LVL23:
 360              	.L11:
 361              		.loc 1 51 23 view .LVU50
 362              	.LBE8:
  52:../../Classes/Temperamento/PlantConditioner.cpp ****         }
  53:../../Classes/Temperamento/PlantConditioner.cpp ****         break;
  54:../../Classes/Temperamento/PlantConditioner.cpp ****     case Esatonic:
  55:../../Classes/Temperamento/PlantConditioner.cpp ****         _scaleLength = 6;
  56:../../Classes/Temperamento/PlantConditioner.cpp ****         for (int i = 0; i < 6; i++) {
  57:../../Classes/Temperamento/PlantConditioner.cpp ****             _scale[i] = _esatonic[i];
  58:../../Classes/Temperamento/PlantConditioner.cpp ****         }
  59:../../Classes/Temperamento/PlantConditioner.cpp ****         break;
  60:../../Classes/Temperamento/PlantConditioner.cpp ****     default:
 363              		.loc 1 60 5 is_stmt 1 view .LVU51
  61:../../Classes/Temperamento/PlantConditioner.cpp ****         _scaleLength = 7;
 364              		.loc 1 61 9 view .LVU52
 365              	.LBB9:
  62:../../Classes/Temperamento/PlantConditioner.cpp ****         for (int i = 0; i < 7; i++) {
  63:../../Classes/Temperamento/PlantConditioner.cpp ****             _scale[i] = _majorScale[i];
 366              		.loc 1 63 23 is_stmt 0 view .LVU53
 367 005a D0F8F837 		ldr	r3, [r0, #2040]	@ unaligned
 368 005e 06F5F864 		add	r4, r6, #1984
 369 0062 D0F8F017 		ldr	r1, [r0, #2032]	@ unaligned
 370              	.LVL24:
 371              		.loc 1 63 23 view .LVU54
 372 0066 D0F8F427 		ldr	r2, [r0, #2036]	@ unaligned
 373              	.LVL25:
 374              		.loc 1 63 23 view .LVU55
 375              	.LBE9:
  61:../../Classes/Temperamento/PlantConditioner.cpp ****         _scaleLength = 7;
 376              		.loc 1 61 22 view .LVU56
 377 006a 0720     		movs	r0, #7
 378              	.LVL26:
 379              	.LBB10:
 380              		.loc 1 63 23 view .LVU57
 381 006c C6F8C837 		str	r3, [r6, #1992]	@ unaligned
 382 0070 D6F8FC37 		ldr	r3, [r6, #2044]	@ unaligned
 383 0074 C6F8C017 		str	r1, [r6, #1984]	@ unaligned
 384 0078 C6F8C427 		str	r2, [r6, #1988]	@ unaligned
 385 007c D6F80018 		ldr	r1, [r6, #2048]	@ unaligned
 386 0080 D6F80428 		ldr	r2, [r6, #2052]	@ unaligned
 387 0084 C6F8CC37 		str	r3, [r6, #1996]	@ unaligned
 388 0088 D6F80838 		ldr	r3, [r6, #2056]	@ unaligned
 389              	.LBE10:
ARM GAS  C:\Users\skipi\AppData\Local\Temp\ccBrn9lC.s 			page 9


  61:../../Classes/Temperamento/PlantConditioner.cpp ****         _scaleLength = 7;
 390              		.loc 1 61 22 view .LVU58
 391 008c 86F87D07 		strb	r0, [r6, #1917]
  62:../../Classes/Temperamento/PlantConditioner.cpp ****         for (int i = 0; i < 7; i++) {
 392              		.loc 1 62 9 is_stmt 1 view .LVU59
 393              	.LVL27:
 394              	.LBB11:
  62:../../Classes/Temperamento/PlantConditioner.cpp ****         for (int i = 0; i < 7; i++) {
 395              		.loc 1 62 27 view .LVU60
 396              		.loc 1 63 23 is_stmt 0 view .LVU61
 397 0090 C6F8D017 		str	r1, [r6, #2000]	@ unaligned
 398 0094 C6F8D427 		str	r2, [r6, #2004]	@ unaligned
 399 0098 C6F8D837 		str	r3, [r6, #2008]	@ unaligned
 400              	.LVL28:
 401              	.L20:
 402              		.loc 1 63 23 view .LVU62
 403              	.LBE11:
 404              	.LBE5:
 405              	.LBB27:
  64:../../Classes/Temperamento/PlantConditioner.cpp ****         }
  65:../../Classes/Temperamento/PlantConditioner.cpp ****         break;
  66:../../Classes/Temperamento/PlantConditioner.cpp ****     }
  67:../../Classes/Temperamento/PlantConditioner.cpp **** 
  68:../../Classes/Temperamento/PlantConditioner.cpp ****     for (int i = 0; i < _scaleLength; i++) {
 406              		.loc 1 68 23 is_stmt 1 view .LVU63
  69:../../Classes/Temperamento/PlantConditioner.cpp ****         _scale[i] = _scale[i] * powf(2.0f, (float) root_note / 12.0f); 
 407              		.loc 1 69 44 is_stmt 0 view .LVU64
 408 009c F8EE677A 		vcvt.f32.u32	s15, s15
 409              		.loc 1 69 37 view .LVU65
 410 00a0 0025     		movs	r5, #0
 411 00a2 B2EE087A 		vmov.f32	s14, #1.2e+1
 412 00a6 C7EE878A 		vdiv.f32	s17, s15, s14
 413              	.LVL29:
 414              	.L22:
 415              		.loc 1 69 9 is_stmt 1 discriminator 2 view .LVU66
 416              		.loc 1 69 29 is_stmt 0 discriminator 2 view .LVU67
 417 00aa 94ED008A 		vldr.32	s16, [r4]
  68:../../Classes/Temperamento/PlantConditioner.cpp ****         _scale[i] = _scale[i] * powf(2.0f, (float) root_note / 12.0f); 
 418              		.loc 1 68 5 discriminator 2 view .LVU68
 419 00ae 0135     		adds	r5, r5, #1
 420              	.LVL30:
 421              		.loc 1 69 37 discriminator 2 view .LVU69
 422 00b0 B0EE000A 		vmov.f32	s0, #2.0e+0
 423 00b4 F0EE680A 		vmov.f32	s1, s17
 424 00b8 FFF7FEFF 		bl	powf
 425              	.LVL31:
 426              		.loc 1 69 31 discriminator 2 view .LVU70
 427 00bc 28EE000A 		vmul.f32	s0, s16, s0
 428              		.loc 1 69 19 discriminator 2 view .LVU71
 429 00c0 A4EC010A 		vstmia.32	r4!, {s0}
  68:../../Classes/Temperamento/PlantConditioner.cpp ****         _scale[i] = _scale[i] * powf(2.0f, (float) root_note / 12.0f); 
 430              		.loc 1 68 5 is_stmt 1 discriminator 2 view .LVU72
 431              	.LVL32:
  68:../../Classes/Temperamento/PlantConditioner.cpp ****         _scale[i] = _scale[i] * powf(2.0f, (float) root_note / 12.0f); 
 432              		.loc 1 68 23 discriminator 2 view .LVU73
  68:../../Classes/Temperamento/PlantConditioner.cpp ****         _scale[i] = _scale[i] * powf(2.0f, (float) root_note / 12.0f); 
 433              		.loc 1 68 25 is_stmt 0 discriminator 2 view .LVU74
ARM GAS  C:\Users\skipi\AppData\Local\Temp\ccBrn9lC.s 			page 10


 434 00c4 96F87D37 		ldrb	r3, [r6, #1917]	@ zero_extendqisi2
  68:../../Classes/Temperamento/PlantConditioner.cpp ****         _scale[i] = _scale[i] * powf(2.0f, (float) root_note / 12.0f); 
 435              		.loc 1 68 23 discriminator 2 view .LVU75
 436 00c8 AB42     		cmp	r3, r5
 437 00ca EEDC     		bgt	.L22
 438              	.LBE27:
  70:../../Classes/Temperamento/PlantConditioner.cpp ****     }
  71:../../Classes/Temperamento/PlantConditioner.cpp **** }
 439              		.loc 1 71 1 view .LVU76
 440 00cc BDEC028B 		vldm	sp!, {d8}
 441              		.cfi_remember_state
 442              		.cfi_restore 80
 443              		.cfi_restore 81
 444              		.cfi_def_cfa_offset 16
 445 00d0 70BD     		pop	{r4, r5, r6, pc}
 446              	.LVL33:
 447              	.L12:
 448              		.cfi_restore_state
 449              	.LBB28:
  54:../../Classes/Temperamento/PlantConditioner.cpp ****         _scaleLength = 6;
 450              		.loc 1 54 5 is_stmt 1 view .LVU77
  55:../../Classes/Temperamento/PlantConditioner.cpp ****         for (int i = 0; i < 6; i++) {
 451              		.loc 1 55 9 view .LVU78
 452              	.LBB12:
  57:../../Classes/Temperamento/PlantConditioner.cpp ****         }
 453              		.loc 1 57 23 is_stmt 0 view .LVU79
 454 00d2 D0F8A428 		ldr	r2, [r0, #2212]	@ unaligned
 455              	.LVL34:
  57:../../Classes/Temperamento/PlantConditioner.cpp ****         }
 456              		.loc 1 57 23 view .LVU80
 457 00d6 06F5F864 		add	r4, r6, #1984
 458 00da D0F8A838 		ldr	r3, [r0, #2216]	@ unaligned
 459              	.LBE12:
  55:../../Classes/Temperamento/PlantConditioner.cpp ****         for (int i = 0; i < 6; i++) {
 460              		.loc 1 55 22 view .LVU81
 461 00de 0620     		movs	r0, #6
 462              	.LVL35:
 463              	.LBB13:
  57:../../Classes/Temperamento/PlantConditioner.cpp ****         }
 464              		.loc 1 57 23 view .LVU82
 465 00e0 D6F8AC58 		ldr	r5, [r6, #2220]	@ unaligned
 466 00e4 D6F8B018 		ldr	r1, [r6, #2224]	@ unaligned
 467              	.LVL36:
  57:../../Classes/Temperamento/PlantConditioner.cpp ****         }
 468              		.loc 1 57 23 view .LVU83
 469 00e8 C6F8C027 		str	r2, [r6, #1984]	@ unaligned
 470 00ec C6F8C437 		str	r3, [r6, #1988]	@ unaligned
 471 00f0 D6F8B428 		ldr	r2, [r6, #2228]	@ unaligned
 472 00f4 D6F8B838 		ldr	r3, [r6, #2232]	@ unaligned
 473 00f8 C6F8D027 		str	r2, [r6, #2000]	@ unaligned
 474 00fc C6F8C857 		str	r5, [r6, #1992]	@ unaligned
 475              	.LBE13:
  55:../../Classes/Temperamento/PlantConditioner.cpp ****         for (int i = 0; i < 6; i++) {
 476              		.loc 1 55 22 view .LVU84
 477 0100 86F87D07 		strb	r0, [r6, #1917]
  56:../../Classes/Temperamento/PlantConditioner.cpp ****             _scale[i] = _esatonic[i];
 478              		.loc 1 56 9 is_stmt 1 view .LVU85
ARM GAS  C:\Users\skipi\AppData\Local\Temp\ccBrn9lC.s 			page 11


 479              	.LVL37:
 480              	.LBB14:
  56:../../Classes/Temperamento/PlantConditioner.cpp ****             _scale[i] = _esatonic[i];
 481              		.loc 1 56 27 view .LVU86
  57:../../Classes/Temperamento/PlantConditioner.cpp ****         }
 482              		.loc 1 57 23 is_stmt 0 view .LVU87
 483 0104 C6F8CC17 		str	r1, [r6, #1996]	@ unaligned
 484 0108 C6F8D437 		str	r3, [r6, #2004]	@ unaligned
 485 010c C6E7     		b	.L20
 486              	.LVL38:
 487              	.L18:
  57:../../Classes/Temperamento/PlantConditioner.cpp ****         }
 488              		.loc 1 57 23 view .LVU88
 489              	.LBE14:
  24:../../Classes/Temperamento/PlantConditioner.cpp ****         _scaleLength = 7;
 490              		.loc 1 24 5 is_stmt 1 view .LVU89
  25:../../Classes/Temperamento/PlantConditioner.cpp ****         for (int i = 0; i < 7; i++) {
 491              		.loc 1 25 9 view .LVU90
 492              	.LBB15:
  27:../../Classes/Temperamento/PlantConditioner.cpp ****         }
 493              		.loc 1 27 23 is_stmt 0 view .LVU91
 494 010e D0F81438 		ldr	r3, [r0, #2068]	@ unaligned
 495 0112 06F5F864 		add	r4, r6, #1984
 496 0116 D0F80C18 		ldr	r1, [r0, #2060]	@ unaligned
 497              	.LVL39:
  27:../../Classes/Temperamento/PlantConditioner.cpp ****         }
 498              		.loc 1 27 23 view .LVU92
 499 011a D0F81028 		ldr	r2, [r0, #2064]	@ unaligned
 500              	.LVL40:
  27:../../Classes/Temperamento/PlantConditioner.cpp ****         }
 501              		.loc 1 27 23 view .LVU93
 502              	.LBE15:
  25:../../Classes/Temperamento/PlantConditioner.cpp ****         for (int i = 0; i < 7; i++) {
 503              		.loc 1 25 22 view .LVU94
 504 011e 0720     		movs	r0, #7
 505              	.LVL41:
 506              	.LBB16:
  27:../../Classes/Temperamento/PlantConditioner.cpp ****         }
 507              		.loc 1 27 23 view .LVU95
 508 0120 C6F8C837 		str	r3, [r6, #1992]	@ unaligned
 509 0124 D6F81838 		ldr	r3, [r6, #2072]	@ unaligned
 510 0128 C6F8C017 		str	r1, [r6, #1984]	@ unaligned
 511 012c C6F8C427 		str	r2, [r6, #1988]	@ unaligned
 512 0130 D6F81C18 		ldr	r1, [r6, #2076]	@ unaligned
 513 0134 D6F82028 		ldr	r2, [r6, #2080]	@ unaligned
 514 0138 C6F8CC37 		str	r3, [r6, #1996]	@ unaligned
 515 013c D6F82438 		ldr	r3, [r6, #2084]	@ unaligned
 516              	.LBE16:
  25:../../Classes/Temperamento/PlantConditioner.cpp ****         for (int i = 0; i < 7; i++) {
 517              		.loc 1 25 22 view .LVU96
 518 0140 86F87D07 		strb	r0, [r6, #1917]
  26:../../Classes/Temperamento/PlantConditioner.cpp ****             _scale[i] = _minorNScale[i];
 519              		.loc 1 26 9 is_stmt 1 view .LVU97
 520              	.LVL42:
 521              	.LBB17:
  26:../../Classes/Temperamento/PlantConditioner.cpp ****             _scale[i] = _minorNScale[i];
 522              		.loc 1 26 27 view .LVU98
ARM GAS  C:\Users\skipi\AppData\Local\Temp\ccBrn9lC.s 			page 12


  27:../../Classes/Temperamento/PlantConditioner.cpp ****         }
 523              		.loc 1 27 23 is_stmt 0 view .LVU99
 524 0144 C6F8D017 		str	r1, [r6, #2000]	@ unaligned
 525 0148 C6F8D427 		str	r2, [r6, #2004]	@ unaligned
 526 014c C6F8D837 		str	r3, [r6, #2008]	@ unaligned
 527 0150 A4E7     		b	.L20
 528              	.LVL43:
 529              	.L17:
  27:../../Classes/Temperamento/PlantConditioner.cpp ****         }
 530              		.loc 1 27 23 view .LVU100
 531              	.LBE17:
  30:../../Classes/Temperamento/PlantConditioner.cpp ****         _scaleLength = 7;
 532              		.loc 1 30 5 is_stmt 1 view .LVU101
  31:../../Classes/Temperamento/PlantConditioner.cpp ****         for (int i = 0; i < 7; i++) {
 533              		.loc 1 31 9 view .LVU102
 534              	.LBB18:
  33:../../Classes/Temperamento/PlantConditioner.cpp ****         }
 535              		.loc 1 33 23 is_stmt 0 view .LVU103
 536 0152 D0F83038 		ldr	r3, [r0, #2096]	@ unaligned
 537 0156 06F5F864 		add	r4, r6, #1984
 538 015a D0F82818 		ldr	r1, [r0, #2088]	@ unaligned
 539              	.LVL44:
  33:../../Classes/Temperamento/PlantConditioner.cpp ****         }
 540              		.loc 1 33 23 view .LVU104
 541 015e D0F82C28 		ldr	r2, [r0, #2092]	@ unaligned
 542              	.LVL45:
  33:../../Classes/Temperamento/PlantConditioner.cpp ****         }
 543              		.loc 1 33 23 view .LVU105
 544              	.LBE18:
  31:../../Classes/Temperamento/PlantConditioner.cpp ****         for (int i = 0; i < 7; i++) {
 545              		.loc 1 31 22 view .LVU106
 546 0162 0720     		movs	r0, #7
 547              	.LVL46:
 548              	.LBB19:
  33:../../Classes/Temperamento/PlantConditioner.cpp ****         }
 549              		.loc 1 33 23 view .LVU107
 550 0164 C6F8C837 		str	r3, [r6, #1992]	@ unaligned
 551 0168 D6F83438 		ldr	r3, [r6, #2100]	@ unaligned
 552 016c C6F8C017 		str	r1, [r6, #1984]	@ unaligned
 553 0170 C6F8C427 		str	r2, [r6, #1988]	@ unaligned
 554 0174 D6F83818 		ldr	r1, [r6, #2104]	@ unaligned
 555 0178 D6F83C28 		ldr	r2, [r6, #2108]	@ unaligned
 556 017c C6F8CC37 		str	r3, [r6, #1996]	@ unaligned
 557 0180 D6F84038 		ldr	r3, [r6, #2112]	@ unaligned
 558              	.LBE19:
  31:../../Classes/Temperamento/PlantConditioner.cpp ****         for (int i = 0; i < 7; i++) {
 559              		.loc 1 31 22 view .LVU108
 560 0184 86F87D07 		strb	r0, [r6, #1917]
  32:../../Classes/Temperamento/PlantConditioner.cpp ****             _scale[i] = _minorAScale[i];
 561              		.loc 1 32 9 is_stmt 1 view .LVU109
 562              	.LVL47:
 563              	.LBB20:
  32:../../Classes/Temperamento/PlantConditioner.cpp ****             _scale[i] = _minorAScale[i];
 564              		.loc 1 32 27 view .LVU110
  33:../../Classes/Temperamento/PlantConditioner.cpp ****         }
 565              		.loc 1 33 23 is_stmt 0 view .LVU111
 566 0188 C6F8D017 		str	r1, [r6, #2000]	@ unaligned
ARM GAS  C:\Users\skipi\AppData\Local\Temp\ccBrn9lC.s 			page 13


 567 018c C6F8D427 		str	r2, [r6, #2004]	@ unaligned
 568 0190 C6F8D837 		str	r3, [r6, #2008]	@ unaligned
 569 0194 82E7     		b	.L20
 570              	.LVL48:
 571              	.L16:
  33:../../Classes/Temperamento/PlantConditioner.cpp ****         }
 572              		.loc 1 33 23 view .LVU112
 573              	.LBE20:
  36:../../Classes/Temperamento/PlantConditioner.cpp ****         _scaleLength = 7;
 574              		.loc 1 36 5 is_stmt 1 view .LVU113
  37:../../Classes/Temperamento/PlantConditioner.cpp ****         for (int i = 0; i < 7; i++) {
 575              		.loc 1 37 9 view .LVU114
 576              	.LBB21:
  39:../../Classes/Temperamento/PlantConditioner.cpp ****         }
 577              		.loc 1 39 23 is_stmt 0 view .LVU115
 578 0196 D0F84C38 		ldr	r3, [r0, #2124]	@ unaligned
 579 019a 06F5F864 		add	r4, r6, #1984
 580 019e D0F84418 		ldr	r1, [r0, #2116]	@ unaligned
 581              	.LVL49:
  39:../../Classes/Temperamento/PlantConditioner.cpp ****         }
 582              		.loc 1 39 23 view .LVU116
 583 01a2 D0F84828 		ldr	r2, [r0, #2120]	@ unaligned
 584              	.LVL50:
  39:../../Classes/Temperamento/PlantConditioner.cpp ****         }
 585              		.loc 1 39 23 view .LVU117
 586              	.LBE21:
  37:../../Classes/Temperamento/PlantConditioner.cpp ****         for (int i = 0; i < 7; i++) {
 587              		.loc 1 37 22 view .LVU118
 588 01a6 0720     		movs	r0, #7
 589              	.LVL51:
 590              	.LBB22:
  39:../../Classes/Temperamento/PlantConditioner.cpp ****         }
 591              		.loc 1 39 23 view .LVU119
 592 01a8 C6F8C837 		str	r3, [r6, #1992]	@ unaligned
 593 01ac D6F85038 		ldr	r3, [r6, #2128]	@ unaligned
 594 01b0 C6F8C017 		str	r1, [r6, #1984]	@ unaligned
 595 01b4 C6F8C427 		str	r2, [r6, #1988]	@ unaligned
 596 01b8 D6F85418 		ldr	r1, [r6, #2132]	@ unaligned
 597 01bc D6F85828 		ldr	r2, [r6, #2136]	@ unaligned
 598 01c0 C6F8CC37 		str	r3, [r6, #1996]	@ unaligned
 599 01c4 D6F85C38 		ldr	r3, [r6, #2140]	@ unaligned
 600              	.LBE22:
  37:../../Classes/Temperamento/PlantConditioner.cpp ****         for (int i = 0; i < 7; i++) {
 601              		.loc 1 37 22 view .LVU120
 602 01c8 86F87D07 		strb	r0, [r6, #1917]
  38:../../Classes/Temperamento/PlantConditioner.cpp ****             _scale[i] = _minorMScale[i];
 603              		.loc 1 38 9 is_stmt 1 view .LVU121
 604              	.LVL52:
 605              	.LBB23:
  38:../../Classes/Temperamento/PlantConditioner.cpp ****             _scale[i] = _minorMScale[i];
 606              		.loc 1 38 27 view .LVU122
  39:../../Classes/Temperamento/PlantConditioner.cpp ****         }
 607              		.loc 1 39 23 is_stmt 0 view .LVU123
 608 01cc C6F8D017 		str	r1, [r6, #2000]	@ unaligned
 609 01d0 C6F8D427 		str	r2, [r6, #2004]	@ unaligned
 610 01d4 C6F8D837 		str	r3, [r6, #2008]	@ unaligned
 611 01d8 60E7     		b	.L20
ARM GAS  C:\Users\skipi\AppData\Local\Temp\ccBrn9lC.s 			page 14


 612              	.LVL53:
 613              	.L15:
  39:../../Classes/Temperamento/PlantConditioner.cpp ****         }
 614              		.loc 1 39 23 view .LVU124
 615              	.LBE23:
  42:../../Classes/Temperamento/PlantConditioner.cpp ****         _scaleLength = 5;
 616              		.loc 1 42 5 is_stmt 1 view .LVU125
  43:../../Classes/Temperamento/PlantConditioner.cpp ****         for (int i = 0; i < 5; i++) {
 617              		.loc 1 43 9 view .LVU126
 618              	.LBB24:
  45:../../Classes/Temperamento/PlantConditioner.cpp ****         }
 619              		.loc 1 45 23 is_stmt 0 view .LVU127
 620 01da D0F86038 		ldr	r3, [r0, #2144]	@ unaligned
 621              	.LBE24:
  43:../../Classes/Temperamento/PlantConditioner.cpp ****         for (int i = 0; i < 5; i++) {
 622              		.loc 1 43 22 view .LVU128
 623 01de 0521     		movs	r1, #5
 624              	.LVL54:
 625              	.LBB25:
  45:../../Classes/Temperamento/PlantConditioner.cpp ****         }
 626              		.loc 1 45 23 view .LVU129
 627 01e0 06F5F864 		add	r4, r6, #1984
 628 01e4 C0F8C037 		str	r3, [r0, #1984]	@ unaligned
 629 01e8 D6F86838 		ldr	r3, [r6, #2152]	@ unaligned
 630 01ec D0F86408 		ldr	r0, [r0, #2148]	@ unaligned
 631              	.LVL55:
  45:../../Classes/Temperamento/PlantConditioner.cpp ****         }
 632              		.loc 1 45 23 view .LVU130
 633 01f0 D6F86C28 		ldr	r2, [r6, #2156]	@ unaligned
 634              	.LVL56:
  45:../../Classes/Temperamento/PlantConditioner.cpp ****         }
 635              		.loc 1 45 23 view .LVU131
 636 01f4 C6F8C837 		str	r3, [r6, #1992]	@ unaligned
 637 01f8 D6F87038 		ldr	r3, [r6, #2160]	@ unaligned
 638 01fc C6F8C407 		str	r0, [r6, #1988]	@ unaligned
 639              	.LBE25:
  43:../../Classes/Temperamento/PlantConditioner.cpp ****         for (int i = 0; i < 5; i++) {
 640              		.loc 1 43 22 view .LVU132
 641 0200 86F87D17 		strb	r1, [r6, #1917]
  44:../../Classes/Temperamento/PlantConditioner.cpp ****             _scale[i] = _pentatonicScale[i];
 642              		.loc 1 44 9 is_stmt 1 view .LVU133
 643              	.LVL57:
 644              	.LBB26:
  44:../../Classes/Temperamento/PlantConditioner.cpp ****             _scale[i] = _pentatonicScale[i];
 645              		.loc 1 44 27 view .LVU134
  45:../../Classes/Temperamento/PlantConditioner.cpp ****         }
 646              		.loc 1 45 23 is_stmt 0 view .LVU135
 647 0204 C6F8CC27 		str	r2, [r6, #1996]	@ unaligned
 648 0208 C6F8D037 		str	r3, [r6, #2000]	@ unaligned
 649 020c 46E7     		b	.L20
 650              	.LBE26:
 651              	.LBE28:
 652              		.cfi_endproc
 653              	.LFE4852:
 655 020e 00BF     		.section	.text._ZN16PlantConditioner9setOctaveEh,"ax",%progbits
 656              		.align	1
 657              		.p2align 2,,3
ARM GAS  C:\Users\skipi\AppData\Local\Temp\ccBrn9lC.s 			page 15


 658              		.global	_ZN16PlantConditioner9setOctaveEh
 659              		.syntax unified
 660              		.thumb
 661              		.thumb_func
 662              		.fpu fpv5-d16
 664              	_ZN16PlantConditioner9setOctaveEh:
 665              	.LVL58:
 666              	.LFB4853:
  72:../../Classes/Temperamento/PlantConditioner.cpp **** 
  73:../../Classes/Temperamento/PlantConditioner.cpp **** void PlantConditioner::setOctave(uint8_t octave) {
 667              		.loc 1 73 50 is_stmt 1 view -0
 668              		.cfi_startproc
 669              		@ args = 0, pretend = 0, frame = 0
 670              		@ frame_needed = 0, uses_anonymous_args = 0
 671              		@ link register save eliminated.
  74:../../Classes/Temperamento/PlantConditioner.cpp ****     _octave = octave;
 672              		.loc 1 74 5 view .LVU137
 673              		.loc 1 74 13 is_stmt 0 view .LVU138
 674 0000 80F87C17 		strb	r1, [r0, #1916]
  75:../../Classes/Temperamento/PlantConditioner.cpp **** }
 675              		.loc 1 75 1 view .LVU139
 676 0004 7047     		bx	lr
 677              		.cfi_endproc
 678              	.LFE4853:
 680 0006 00BF     		.section	.text._ZN16PlantConditioner7ProcessEtt,"ax",%progbits
 681              		.align	1
 682              		.p2align 2,,3
 683              		.global	_ZN16PlantConditioner7ProcessEtt
 684              		.syntax unified
 685              		.thumb
 686              		.thumb_func
 687              		.fpu fpv5-d16
 689              	_ZN16PlantConditioner7ProcessEtt:
 690              	.LVL59:
 691              	.LFB4854:
  76:../../Classes/Temperamento/PlantConditioner.cpp **** 
  77:../../Classes/Temperamento/PlantConditioner.cpp **** float PlantConditioner::Process(uint16_t baseline, uint16_t filtered) {
 692              		.loc 1 77 71 is_stmt 1 view -0
 693              		.cfi_startproc
 694              		@ args = 0, pretend = 0, frame = 0
 695              		@ frame_needed = 0, uses_anonymous_args = 0
  78:../../Classes/Temperamento/PlantConditioner.cpp ****     float out = 0.0f;
 696              		.loc 1 78 5 view .LVU141
  79:../../Classes/Temperamento/PlantConditioner.cpp ****     _delta = baseline - filtered - touchTreshold;
 697              		.loc 1 79 5 view .LVU142
  77:../../Classes/Temperamento/PlantConditioner.cpp ****     float out = 0.0f;
 698              		.loc 1 77 71 is_stmt 0 view .LVU143
 699 0000 2DE9F047 		push	{r4, r5, r6, r7, r8, r9, r10, lr}
 700              		.cfi_def_cfa_offset 32
 701              		.cfi_offset 4, -32
 702              		.cfi_offset 5, -28
 703              		.cfi_offset 6, -24
 704              		.cfi_offset 7, -20
 705              		.cfi_offset 8, -16
 706              		.cfi_offset 9, -12
 707              		.cfi_offset 10, -8
 708              		.cfi_offset 14, -4
ARM GAS  C:\Users\skipi\AppData\Local\Temp\ccBrn9lC.s 			page 16


 709              		.loc 1 79 23 view .LVU144
 710 0004 8A1A     		subs	r2, r1, r2
 711              	.LVL60:
 712              		.loc 1 79 12 view .LVU145
 713 0006 00F28473 		addw	r3, r0, #1924
  77:../../Classes/Temperamento/PlantConditioner.cpp ****     float out = 0.0f;
 714              		.loc 1 77 71 view .LVU146
 715 000a 0446     		mov	r4, r0
  80:../../Classes/Temperamento/PlantConditioner.cpp ****     _deltaFilt = _deltaFilter.Process(_deltaFilterMF.Process(_delta));
 716              		.loc 1 80 38 view .LVU147
 717 000c 4C30     		adds	r0, r0, #76
 718              	.LVL61:
  77:../../Classes/Temperamento/PlantConditioner.cpp ****     float out = 0.0f;
 719              		.loc 1 77 71 view .LVU148
 720 000e 2DED048B 		vpush.64	{d8, d9}
 721              		.cfi_def_cfa_offset 48
 722              		.cfi_offset 80, -48
 723              		.cfi_offset 81, -44
 724              		.cfi_offset 82, -40
 725              		.cfi_offset 83, -36
  79:../../Classes/Temperamento/PlantConditioner.cpp ****     _delta = baseline - filtered - touchTreshold;
 726              		.loc 1 79 36 view .LVU149
 727 0012 10F84C1C 		ldrb	r1, [r0, #-76]	@ zero_extendqisi2
 728              	.LVL62:
 729              		.loc 1 80 16 view .LVU150
 730 0016 04F5F167 		add	r7, r4, #1928
  79:../../Classes/Temperamento/PlantConditioner.cpp ****     _delta = baseline - filtered - touchTreshold;
 731              		.loc 1 79 34 view .LVU151
 732 001a 511A     		subs	r1, r2, r1
  79:../../Classes/Temperamento/PlantConditioner.cpp ****     _delta = baseline - filtered - touchTreshold;
 733              		.loc 1 79 12 view .LVU152
 734 001c 07EE901A 		vmov	s15, r1	@ int
 735 0020 B8EEE70A 		vcvt.f32.s32	s0, s15
 736 0024 83ED000A 		vstr.32	s0, [r3]
 737              		.loc 1 80 5 is_stmt 1 view .LVU153
 738              		.loc 1 80 38 is_stmt 0 view .LVU154
 739 0028 FFF7FEFF 		bl	_ZN2MF7ProcessEf
 740              	.LVL63:
 741 002c 201D     		adds	r0, r4, #4
 742 002e FFF7FEFF 		bl	_ZN3IIR7ProcessEf
 743              	.LVL64:
 744              		.loc 1 80 16 view .LVU155
 745 0032 87ED000A 		vstr.32	s0, [r7]
  81:../../Classes/Temperamento/PlantConditioner.cpp ****     if (_deltaFilt < _deltaMin) out = _scale[0] * (1 << _octave);
 746              		.loc 1 81 5 is_stmt 1 view .LVU156
 747              	.LBB29:
 748              		.loc 1 81 22 is_stmt 0 view .LVU157
 749 0036 94F87E37 		ldrb	r3, [r4, #1918]	@ zero_extendqisi2
 750 003a 08EE103A 		vmov	s16, r3	@ int
 751              		.loc 1 81 20 view .LVU158
 752 003e B8EEC88A 		vcvt.f32.s32	s16, s16
 753              		.loc 1 81 5 view .LVU159
 754 0042 B4EEC80A 		vcmpe.f32	s0, s16
 755 0046 F1EE10FA 		vmrs	APSR_nzcv, FPSCR
 756 004a 11D5     		bpl	.L42
 757              		.loc 1 81 33 is_stmt 1 discriminator 1 view .LVU160
 758              		.loc 1 81 57 is_stmt 0 discriminator 1 view .LVU161
ARM GAS  C:\Users\skipi\AppData\Local\Temp\ccBrn9lC.s 			page 17


 759 004c 94F87C27 		ldrb	r2, [r4, #1916]	@ zero_extendqisi2
 760              		.loc 1 81 54 discriminator 1 view .LVU162
 761 0050 0123     		movs	r3, #1
 762              		.loc 1 81 47 discriminator 1 view .LVU163
 763 0052 04F5F864 		add	r4, r4, #1984
 764              	.LVL65:
 765              		.loc 1 81 54 discriminator 1 view .LVU164
 766 0056 9340     		lsls	r3, r3, r2
 767              		.loc 1 81 37 discriminator 1 view .LVU165
 768 0058 D4ED007A 		vldr.32	s15, [r4]
 769              		.loc 1 81 54 discriminator 1 view .LVU166
 770 005c 00EE103A 		vmov	s0, r3	@ int
 771              		.loc 1 81 49 discriminator 1 view .LVU167
 772 0060 B8EEC00A 		vcvt.f32.s32	s0, s0
 773              		.loc 1 81 37 discriminator 1 view .LVU168
 774 0064 20EE270A 		vmul.f32	s0, s0, s15
 775              	.LVL66:
 776              	.L28:
 777              		.loc 1 81 37 discriminator 1 view .LVU169
 778              	.LBE29:
  82:../../Classes/Temperamento/PlantConditioner.cpp ****     else if (_deltaFilt > _deltaMax) out = _scale[_scaleLength - 1] * (1 << _octave);
  83:../../Classes/Temperamento/PlantConditioner.cpp ****     else {
  84:../../Classes/Temperamento/PlantConditioner.cpp ****         for (int i = 0; i < _scaleLength; i++) {
  85:../../Classes/Temperamento/PlantConditioner.cpp **** 
  86:../../Classes/Temperamento/PlantConditioner.cpp ****         //Dimensione Crescente Bin
  87:../../Classes/Temperamento/PlantConditioner.cpp ****         float lower = _deltaMin + _range * powf((float)i / _scaleLength, _curveType);
  88:../../Classes/Temperamento/PlantConditioner.cpp ****         float upper = _deltaMin + _range * powf((float)(i+1) / _scaleLength, _curveType);
  89:../../Classes/Temperamento/PlantConditioner.cpp ****         float histeresis = _histeresis * powf((float)(i+1) / _scaleLength, _curveType); //histeresi
  90:../../Classes/Temperamento/PlantConditioner.cpp **** 
  91:../../Classes/Temperamento/PlantConditioner.cpp ****         //Dimensione Decrescente Bin
  92:../../Classes/Temperamento/PlantConditioner.cpp ****         //float lower = _deltaMin + _range * (1.0f - powf(1.0f - (float)i / _scaleLength, _curveTyp
  93:../../Classes/Temperamento/PlantConditioner.cpp ****         //float upper = _deltaMin + _range * (1.0f - powf(1.0f - (float)(i + 1) / _scaleLength, _cu
  94:../../Classes/Temperamento/PlantConditioner.cpp ****             
  95:../../Classes/Temperamento/PlantConditioner.cpp ****             if (_deltaFilt >= lower && _deltaFilt < upper) {
  96:../../Classes/Temperamento/PlantConditioner.cpp ****                 out = _scale[i] * (1 << _octave);
  97:../../Classes/Temperamento/PlantConditioner.cpp ****                 break;
  98:../../Classes/Temperamento/PlantConditioner.cpp ****             }
  99:../../Classes/Temperamento/PlantConditioner.cpp ****         }
 100:../../Classes/Temperamento/PlantConditioner.cpp ****     }
 101:../../Classes/Temperamento/PlantConditioner.cpp ****     
 102:../../Classes/Temperamento/PlantConditioner.cpp ****     
 103:../../Classes/Temperamento/PlantConditioner.cpp ****     return out;
 104:../../Classes/Temperamento/PlantConditioner.cpp **** }
 779              		.loc 1 104 1 view .LVU170
 780 0068 BDEC048B 		vldm	sp!, {d8-d9}
 781              		.cfi_remember_state
 782              		.cfi_restore 82
 783              		.cfi_restore 83
 784              		.cfi_restore 80
 785              		.cfi_restore 81
 786              		.cfi_def_cfa_offset 32
 787 006c BDE8F087 		pop	{r4, r5, r6, r7, r8, r9, r10, pc}
 788              	.LVL67:
 789              	.L42:
 790              		.cfi_restore_state
  82:../../Classes/Temperamento/PlantConditioner.cpp ****     else if (_deltaFilt > _deltaMax) out = _scale[_scaleLength - 1] * (1 << _octave);
 791              		.loc 1 82 10 is_stmt 1 view .LVU171
ARM GAS  C:\Users\skipi\AppData\Local\Temp\ccBrn9lC.s 			page 18


 792              	.LBB40:
 793              	.LBB30:
  82:../../Classes/Temperamento/PlantConditioner.cpp ****     else if (_deltaFilt > _deltaMax) out = _scale[_scaleLength - 1] * (1 << _octave);
 794              		.loc 1 82 27 is_stmt 0 view .LVU172
 795 0070 94F87F37 		ldrb	r3, [r4, #1919]	@ zero_extendqisi2
 796 0074 07EE903A 		vmov	s15, r3	@ int
  82:../../Classes/Temperamento/PlantConditioner.cpp ****     else if (_deltaFilt > _deltaMax) out = _scale[_scaleLength - 1] * (1 << _octave);
 797              		.loc 1 82 25 view .LVU173
 798 0078 F8EEE77A 		vcvt.f32.s32	s15, s15
  82:../../Classes/Temperamento/PlantConditioner.cpp ****     else if (_deltaFilt > _deltaMax) out = _scale[_scaleLength - 1] * (1 << _octave);
 799              		.loc 1 82 10 view .LVU174
 800 007c B4EEE70A 		vcmpe.f32	s0, s15
 801 0080 F1EE10FA 		vmrs	APSR_nzcv, FPSCR
 802 0084 68DC     		bgt	.L32
 803              	.LVL68:
 804              	.LBB31:
  84:../../Classes/Temperamento/PlantConditioner.cpp **** 
 805              		.loc 1 84 27 is_stmt 1 view .LVU175
  84:../../Classes/Temperamento/PlantConditioner.cpp **** 
 806              		.loc 1 84 29 is_stmt 0 view .LVU176
 807 0086 94F87D37 		ldrb	r3, [r4, #1917]	@ zero_extendqisi2
  84:../../Classes/Temperamento/PlantConditioner.cpp **** 
 808              		.loc 1 84 27 view .LVU177
 809 008a 002B     		cmp	r3, #0
 810 008c 5ED0     		beq	.L34
  84:../../Classes/Temperamento/PlantConditioner.cpp **** 
 811              		.loc 1 84 18 view .LVU178
 812 008e 0025     		movs	r5, #0
 813 0090 04F5EF66 		add	r6, r4, #1912
 814 0094 05E0     		b	.L33
 815              	.LVL69:
 816              	.L45:
 817              	.LBB32:
  87:../../Classes/Temperamento/PlantConditioner.cpp ****         float upper = _deltaMin + _range * powf((float)(i+1) / _scaleLength, _curveType);
 818              		.loc 1 87 23 view .LVU179
 819 0096 94F87E27 		ldrb	r2, [r4, #1918]	@ zero_extendqisi2
 820 009a 08EE102A 		vmov	s16, r2	@ int
 821              	.LVL70:
  87:../../Classes/Temperamento/PlantConditioner.cpp ****         float upper = _deltaMin + _range * powf((float)(i+1) / _scaleLength, _curveType);
 822              		.loc 1 87 23 view .LVU180
 823 009e B8EEC88A 		vcvt.f32.s32	s16, s16
 824              	.LVL71:
 825              	.L33:
  87:../../Classes/Temperamento/PlantConditioner.cpp ****         float upper = _deltaMin + _range * powf((float)(i+1) / _scaleLength, _curveType);
 826              		.loc 1 87 9 is_stmt 1 view .LVU181
  87:../../Classes/Temperamento/PlantConditioner.cpp ****         float upper = _deltaMin + _range * powf((float)(i+1) / _scaleLength, _curveType);
 827              		.loc 1 87 48 is_stmt 0 view .LVU182
 828 00a2 07EE105A 		vmov	s14, r5	@ int
 829 00a6 07EE903A 		vmov	s15, r3	@ int
  87:../../Classes/Temperamento/PlantConditioner.cpp ****         float upper = _deltaMin + _range * powf((float)(i+1) / _scaleLength, _curveType);
 830              		.loc 1 87 35 view .LVU183
 831 00aa 94F88037 		ldrb	r3, [r4, #1920]	@ zero_extendqisi2
  88:../../Classes/Temperamento/PlantConditioner.cpp ****         float histeresis = _histeresis * powf((float)(i+1) / _scaleLength, _curveType); //histeresi
 832              		.loc 1 88 58 view .LVU184
 833 00ae 05F10108 		add	r8, r5, #1
  87:../../Classes/Temperamento/PlantConditioner.cpp ****         float upper = _deltaMin + _range * powf((float)(i+1) / _scaleLength, _curveType);
 834              		.loc 1 87 48 view .LVU185
ARM GAS  C:\Users\skipi\AppData\Local\Temp\ccBrn9lC.s 			page 19


 835 00b2 B8EEC70A 		vcvt.f32.s32	s0, s14
 836 00b6 D6ED000A 		vldr.32	s1, [r6]
 837 00ba F8EEE77A 		vcvt.f32.s32	s15, s15
  87:../../Classes/Temperamento/PlantConditioner.cpp ****         float upper = _deltaMin + _range * powf((float)(i+1) / _scaleLength, _curveType);
 838              		.loc 1 87 35 view .LVU186
 839 00be 08EE903A 		vmov	s17, r3	@ int
  87:../../Classes/Temperamento/PlantConditioner.cpp ****         float upper = _deltaMin + _range * powf((float)(i+1) / _scaleLength, _curveType);
 840              		.loc 1 87 42 view .LVU187
 841 00c2 F8EEE88A 		vcvt.f32.s32	s17, s17
  87:../../Classes/Temperamento/PlantConditioner.cpp ****         float upper = _deltaMin + _range * powf((float)(i+1) / _scaleLength, _curveType);
 842              		.loc 1 87 48 view .LVU188
 843 00c6 80EE270A 		vdiv.f32	s0, s0, s15
 844 00ca FFF7FEFF 		bl	powf
 845              	.LVL72:
  88:../../Classes/Temperamento/PlantConditioner.cpp ****         float histeresis = _histeresis * powf((float)(i+1) / _scaleLength, _curveType); //histeresi
 846              		.loc 1 88 64 view .LVU189
 847 00ce 94F87D37 		ldrb	r3, [r4, #1917]	@ zero_extendqisi2
  88:../../Classes/Temperamento/PlantConditioner.cpp ****         float histeresis = _histeresis * powf((float)(i+1) / _scaleLength, _curveType); //histeresi
 848              		.loc 1 88 49 view .LVU190
 849 00d2 07EE908A 		vmov	s15, r8	@ int
  88:../../Classes/Temperamento/PlantConditioner.cpp ****         float histeresis = _histeresis * powf((float)(i+1) / _scaleLength, _curveType); //histeresi
 850              		.loc 1 88 48 view .LVU191
 851 00d6 D6ED000A 		vldr.32	s1, [r6]
  88:../../Classes/Temperamento/PlantConditioner.cpp ****         float histeresis = _histeresis * powf((float)(i+1) / _scaleLength, _curveType); //histeresi
 852              		.loc 1 88 23 view .LVU192
 853 00da 94F87E97 		ldrb	r9, [r4, #1918]	@ zero_extendqisi2
  88:../../Classes/Temperamento/PlantConditioner.cpp ****         float histeresis = _histeresis * powf((float)(i+1) / _scaleLength, _curveType); //histeresi
 854              		.loc 1 88 35 view .LVU193
 855 00de 94F880A7 		ldrb	r10, [r4, #1920]	@ zero_extendqisi2
  88:../../Classes/Temperamento/PlantConditioner.cpp ****         float histeresis = _histeresis * powf((float)(i+1) / _scaleLength, _curveType); //histeresi
 856              		.loc 1 88 49 view .LVU194
 857 00e2 B8EEE79A 		vcvt.f32.s32	s18, s15
  88:../../Classes/Temperamento/PlantConditioner.cpp ****         float histeresis = _histeresis * powf((float)(i+1) / _scaleLength, _curveType); //histeresi
 858              		.loc 1 88 48 view .LVU195
 859 00e6 07EE903A 		vmov	s15, r3	@ int
  87:../../Classes/Temperamento/PlantConditioner.cpp ****         float upper = _deltaMin + _range * powf((float)(i+1) / _scaleLength, _curveType);
 860              		.loc 1 87 84 view .LVU196
 861 00ea A8EE808A 		vfma.f32	s16, s17, s0
 862              	.LVL73:
  88:../../Classes/Temperamento/PlantConditioner.cpp ****         float histeresis = _histeresis * powf((float)(i+1) / _scaleLength, _curveType); //histeresi
 863              		.loc 1 88 9 is_stmt 1 view .LVU197
  88:../../Classes/Temperamento/PlantConditioner.cpp ****         float histeresis = _histeresis * powf((float)(i+1) / _scaleLength, _curveType); //histeresi
 864              		.loc 1 88 48 is_stmt 0 view .LVU198
 865 00ee B8EEE70A 		vcvt.f32.s32	s0, s15
 866 00f2 89EE000A 		vdiv.f32	s0, s18, s0
 867 00f6 FFF7FEFF 		bl	powf
 868              	.LVL74:
  89:../../Classes/Temperamento/PlantConditioner.cpp **** 
 869              		.loc 1 89 62 view .LVU199
 870 00fa 94F87D37 		ldrb	r3, [r4, #1917]	@ zero_extendqisi2
  89:../../Classes/Temperamento/PlantConditioner.cpp **** 
 871              		.loc 1 89 46 view .LVU200
 872 00fe D6ED000A 		vldr.32	s1, [r6]
  89:../../Classes/Temperamento/PlantConditioner.cpp **** 
 873              		.loc 1 89 62 view .LVU201
 874 0102 07EE903A 		vmov	s15, r3	@ int
  89:../../Classes/Temperamento/PlantConditioner.cpp **** 
ARM GAS  C:\Users\skipi\AppData\Local\Temp\ccBrn9lC.s 			page 20


 875              		.loc 1 89 46 view .LVU202
 876 0106 F8EEE77A 		vcvt.f32.s32	s15, s15
  88:../../Classes/Temperamento/PlantConditioner.cpp ****         float histeresis = _histeresis * powf((float)(i+1) / _scaleLength, _curveType); //histeresi
 877              		.loc 1 88 48 view .LVU203
 878 010a F0EE408A 		vmov.f32	s17, s0
 879              	.LVL75:
  89:../../Classes/Temperamento/PlantConditioner.cpp **** 
 880              		.loc 1 89 9 is_stmt 1 view .LVU204
  89:../../Classes/Temperamento/PlantConditioner.cpp **** 
 881              		.loc 1 89 46 is_stmt 0 view .LVU205
 882 010e 89EE270A 		vdiv.f32	s0, s18, s15
 883              	.LVL76:
  89:../../Classes/Temperamento/PlantConditioner.cpp **** 
 884              		.loc 1 89 46 view .LVU206
 885 0112 FFF7FEFF 		bl	powf
 886              	.LVL77:
  89:../../Classes/Temperamento/PlantConditioner.cpp **** 
 887              		.loc 1 89 46 view .LVU207
 888              	.LBE32:
  84:../../Classes/Temperamento/PlantConditioner.cpp **** 
 889              		.loc 1 84 27 is_stmt 1 view .LVU208
 890              	.LBB33:
  95:../../Classes/Temperamento/PlantConditioner.cpp ****                 out = _scale[i] * (1 << _octave);
 891              		.loc 1 95 13 view .LVU209
  95:../../Classes/Temperamento/PlantConditioner.cpp ****                 out = _scale[i] * (1 << _octave);
 892              		.loc 1 95 17 is_stmt 0 view .LVU210
 893 0116 97ED007A 		vldr.32	s14, [r7]
  95:../../Classes/Temperamento/PlantConditioner.cpp ****                 out = _scale[i] * (1 << _octave);
 894              		.loc 1 95 13 view .LVU211
 895 011a B4EEC87A 		vcmpe.f32	s14, s16
 896 011e F1EE10FA 		vmrs	APSR_nzcv, FPSCR
 897 0122 0EDB     		blt	.L35
  88:../../Classes/Temperamento/PlantConditioner.cpp ****         float histeresis = _histeresis * powf((float)(i+1) / _scaleLength, _curveType); //histeresi
 898              		.loc 1 88 42 discriminator 1 view .LVU212
 899 0124 07EE90AA 		vmov	s15, r10	@ int
 900 0128 F8EEE76A 		vcvt.f32.s32	s13, s15
  88:../../Classes/Temperamento/PlantConditioner.cpp ****         float histeresis = _histeresis * powf((float)(i+1) / _scaleLength, _curveType); //histeresi
 901              		.loc 1 88 33 discriminator 1 view .LVU213
 902 012c 07EE909A 		vmov	s15, r9	@ int
 903 0130 F8EEE77A 		vcvt.f32.s32	s15, s15
  88:../../Classes/Temperamento/PlantConditioner.cpp ****         float histeresis = _histeresis * powf((float)(i+1) / _scaleLength, _curveType); //histeresi
 904              		.loc 1 88 88 discriminator 1 view .LVU214
 905 0134 E6EEA87A 		vfma.f32	s15, s13, s17
  95:../../Classes/Temperamento/PlantConditioner.cpp ****                 out = _scale[i] * (1 << _octave);
 906              		.loc 1 95 37 discriminator 1 view .LVU215
 907 0138 B4EEE77A 		vcmpe.f32	s14, s15
 908 013c F1EE10FA 		vmrs	APSR_nzcv, FPSCR
 909 0140 20D4     		bmi	.L44
 910              	.L35:
 911              	.LBE33:
  84:../../Classes/Temperamento/PlantConditioner.cpp **** 
 912              		.loc 1 84 29 discriminator 1 view .LVU216
 913 0142 94F87D37 		ldrb	r3, [r4, #1917]	@ zero_extendqisi2
 914              	.LBB34:
  87:../../Classes/Temperamento/PlantConditioner.cpp ****         float upper = _deltaMin + _range * powf((float)(i+1) / _scaleLength, _curveType);
 915              		.loc 1 87 23 discriminator 1 view .LVU217
 916 0146 4546     		mov	r5, r8
ARM GAS  C:\Users\skipi\AppData\Local\Temp\ccBrn9lC.s 			page 21


 917              	.LBE34:
  84:../../Classes/Temperamento/PlantConditioner.cpp **** 
 918              		.loc 1 84 27 discriminator 1 view .LVU218
 919 0148 4345     		cmp	r3, r8
 920 014a A4DC     		bgt	.L45
 921              	.LVL78:
 922              	.L34:
  84:../../Classes/Temperamento/PlantConditioner.cpp **** 
 923              		.loc 1 84 27 discriminator 1 view .LVU219
 924              	.LBE31:
 925              	.LBE30:
 926              	.LBE40:
 927              		.loc 1 104 1 view .LVU220
 928 014c BDEC048B 		vldm	sp!, {d8-d9}
 929              		.cfi_remember_state
 930              		.cfi_restore 82
 931              		.cfi_restore 83
 932              		.cfi_restore 80
 933              		.cfi_restore 81
 934              		.cfi_def_cfa_offset 32
  78:../../Classes/Temperamento/PlantConditioner.cpp ****     _delta = baseline - filtered - touchTreshold;
 935              		.loc 1 78 11 view .LVU221
 936 0150 9FED150A 		vldr.32	s0, .L46
 937              		.loc 1 104 1 view .LVU222
 938 0154 BDE8F087 		pop	{r4, r5, r6, r7, r8, r9, r10, pc}
 939              	.LVL79:
 940              	.L32:
 941              		.cfi_restore_state
 942              	.LBB41:
 943              	.LBB37:
  82:../../Classes/Temperamento/PlantConditioner.cpp ****     else {
 944              		.loc 1 82 38 is_stmt 1 discriminator 1 view .LVU223
  82:../../Classes/Temperamento/PlantConditioner.cpp ****     else {
 945              		.loc 1 82 77 is_stmt 0 discriminator 1 view .LVU224
 946 0158 94F87C27 		ldrb	r2, [r4, #1916]	@ zero_extendqisi2
  82:../../Classes/Temperamento/PlantConditioner.cpp ****     else {
 947              		.loc 1 82 74 discriminator 1 view .LVU225
 948 015c 0123     		movs	r3, #1
  82:../../Classes/Temperamento/PlantConditioner.cpp ****     else {
 949              		.loc 1 82 51 discriminator 1 view .LVU226
 950 015e 94F87D07 		ldrb	r0, [r4, #1917]	@ zero_extendqisi2
  82:../../Classes/Temperamento/PlantConditioner.cpp ****     else {
 951              		.loc 1 82 74 discriminator 1 view .LVU227
 952 0162 9340     		lsls	r3, r3, r2
  82:../../Classes/Temperamento/PlantConditioner.cpp ****     else {
 953              		.loc 1 82 67 discriminator 1 view .LVU228
 954 0164 00F2EF10 		addw	r0, r0, #495
  82:../../Classes/Temperamento/PlantConditioner.cpp ****     else {
 955              		.loc 1 82 74 discriminator 1 view .LVU229
 956 0168 00EE103A 		vmov	s0, r3	@ int
  82:../../Classes/Temperamento/PlantConditioner.cpp ****     else {
 957              		.loc 1 82 67 discriminator 1 view .LVU230
 958 016c 04EB8004 		add	r4, r4, r0, lsl #2
 959              	.LVL80:
  82:../../Classes/Temperamento/PlantConditioner.cpp ****     else {
 960              		.loc 1 82 69 discriminator 1 view .LVU231
 961 0170 B8EEC00A 		vcvt.f32.s32	s0, s0
ARM GAS  C:\Users\skipi\AppData\Local\Temp\ccBrn9lC.s 			page 22


  82:../../Classes/Temperamento/PlantConditioner.cpp ****     else {
 962              		.loc 1 82 42 discriminator 1 view .LVU232
 963 0174 D4ED007A 		vldr.32	s15, [r4]
 964              	.LBE37:
 965              	.LBE41:
 966              		.loc 1 104 1 discriminator 1 view .LVU233
 967 0178 BDEC048B 		vldm	sp!, {d8-d9}
 968              		.cfi_remember_state
 969              		.cfi_restore 82
 970              		.cfi_restore 83
 971              		.cfi_restore 80
 972              		.cfi_restore 81
 973              		.cfi_def_cfa_offset 32
 974              	.LBB42:
 975              	.LBB38:
  82:../../Classes/Temperamento/PlantConditioner.cpp ****     else {
 976              		.loc 1 82 42 discriminator 1 view .LVU234
 977 017c 20EE270A 		vmul.f32	s0, s0, s15
 978              	.LVL81:
  82:../../Classes/Temperamento/PlantConditioner.cpp ****     else {
 979              		.loc 1 82 42 discriminator 1 view .LVU235
 980              	.LBE38:
 981              	.LBE42:
 982              		.loc 1 104 1 discriminator 1 view .LVU236
 983 0180 BDE8F087 		pop	{r4, r5, r6, r7, r8, r9, r10, pc}
 984              	.LVL82:
 985              	.L44:
 986              		.cfi_restore_state
 987              	.LBB43:
 988              	.LBB39:
 989              	.LBB36:
 990              	.LBB35:
  96:../../Classes/Temperamento/PlantConditioner.cpp ****                 break;
 991              		.loc 1 96 17 is_stmt 1 view .LVU237
  96:../../Classes/Temperamento/PlantConditioner.cpp ****                 break;
 992              		.loc 1 96 41 is_stmt 0 view .LVU238
 993 0184 94F87C27 		ldrb	r2, [r4, #1916]	@ zero_extendqisi2
  96:../../Classes/Temperamento/PlantConditioner.cpp ****                 break;
 994              		.loc 1 96 38 view .LVU239
 995 0188 0123     		movs	r3, #1
  96:../../Classes/Temperamento/PlantConditioner.cpp ****                 break;
 996              		.loc 1 96 31 view .LVU240
 997 018a 05F5F875 		add	r5, r5, #496
  96:../../Classes/Temperamento/PlantConditioner.cpp ****                 break;
 998              		.loc 1 96 38 view .LVU241
 999 018e 9340     		lsls	r3, r3, r2
  96:../../Classes/Temperamento/PlantConditioner.cpp ****                 break;
 1000              		.loc 1 96 31 view .LVU242
 1001 0190 04EB8504 		add	r4, r4, r5, lsl #2
 1002              	.LVL83:
  96:../../Classes/Temperamento/PlantConditioner.cpp ****                 break;
 1003              		.loc 1 96 38 view .LVU243
 1004 0194 00EE103A 		vmov	s0, r3	@ int
  96:../../Classes/Temperamento/PlantConditioner.cpp ****                 break;
 1005              		.loc 1 96 21 view .LVU244
 1006 0198 D4ED007A 		vldr.32	s15, [r4]
  96:../../Classes/Temperamento/PlantConditioner.cpp ****                 break;
ARM GAS  C:\Users\skipi\AppData\Local\Temp\ccBrn9lC.s 			page 23


 1007              		.loc 1 96 33 view .LVU245
 1008 019c B8EEC00A 		vcvt.f32.s32	s0, s0
  96:../../Classes/Temperamento/PlantConditioner.cpp ****                 break;
 1009              		.loc 1 96 21 view .LVU246
 1010 01a0 20EE270A 		vmul.f32	s0, s0, s15
 1011              	.LVL84:
  97:../../Classes/Temperamento/PlantConditioner.cpp ****             }
 1012              		.loc 1 97 17 is_stmt 1 view .LVU247
  97:../../Classes/Temperamento/PlantConditioner.cpp ****             }
 1013              		.loc 1 97 17 is_stmt 0 view .LVU248
 1014              	.LBE35:
 1015              	.LBE36:
 1016              	.LBE39:
 1017              	.LBE43:
 103:../../Classes/Temperamento/PlantConditioner.cpp **** }
 1018              		.loc 1 103 5 is_stmt 1 view .LVU249
 103:../../Classes/Temperamento/PlantConditioner.cpp **** }
 1019              		.loc 1 103 12 is_stmt 0 view .LVU250
 1020 01a4 60E7     		b	.L28
 1021              	.L47:
 1022 01a6 00BF     		.align	2
 1023              	.L46:
 1024 01a8 00000000 		.word	0
 1025              		.cfi_endproc
 1026              	.LFE4854:
 1028              		.section	.text._ZN16PlantConditioner8setCurveEhf,"ax",%progbits
 1029              		.align	1
 1030              		.p2align 2,,3
 1031              		.global	_ZN16PlantConditioner8setCurveEhf
 1032              		.syntax unified
 1033              		.thumb
 1034              		.thumb_func
 1035              		.fpu fpv5-d16
 1037              	_ZN16PlantConditioner8setCurveEhf:
 1038              	.LVL85:
 1039              	.LFB4855:
 105:../../Classes/Temperamento/PlantConditioner.cpp **** 
 106:../../Classes/Temperamento/PlantConditioner.cpp **** void PlantConditioner::setCurve(uint8_t delta_max, float curve_type) {
 1040              		.loc 1 106 70 is_stmt 1 view -0
 1041              		.cfi_startproc
 1042              		@ args = 0, pretend = 0, frame = 8
 1043              		@ frame_needed = 0, uses_anonymous_args = 0
 107:../../Classes/Temperamento/PlantConditioner.cpp **** 
 108:../../Classes/Temperamento/PlantConditioner.cpp ****     _curveType = _curveFir.Process(curve_type);
 1044              		.loc 1 108 5 view .LVU252
 106:../../Classes/Temperamento/PlantConditioner.cpp **** 
 1045              		.loc 1 106 70 is_stmt 0 view .LVU253
 1046 0000 10B5     		push	{r4, lr}
 1047              		.cfi_def_cfa_offset 8
 1048              		.cfi_offset 4, -8
 1049              		.cfi_offset 14, -4
 1050 0002 0446     		mov	r4, r0
 1051              		.loc 1 108 35 view .LVU254
 1052 0004 00F57A70 		add	r0, r0, #1000
 1053              	.LVL86:
 106:../../Classes/Temperamento/PlantConditioner.cpp **** 
 1054              		.loc 1 106 70 view .LVU255
ARM GAS  C:\Users\skipi\AppData\Local\Temp\ccBrn9lC.s 			page 24


 1055 0008 2DED028B 		vpush.64	{d8}
 1056              		.cfi_def_cfa_offset 16
 1057              		.cfi_offset 80, -16
 1058              		.cfi_offset 81, -12
 1059 000c 82B0     		sub	sp, sp, #8
 1060              		.cfi_def_cfa_offset 24
 106:../../Classes/Temperamento/PlantConditioner.cpp **** 
 1061              		.loc 1 106 70 view .LVU256
 1062 000e 08EE101A 		vmov	s16, r1	@ int
 1063              		.loc 1 108 35 view .LVU257
 1064 0012 FFF7FEFF 		bl	_ZN6CapFir7ProcessEf
 1065              	.LVL87:
 1066              		.loc 1 108 35 view .LVU258
 1067 0016 F0EE407A 		vmov.f32	s15, s0
 1068              		.loc 1 108 16 view .LVU259
 1069 001a 04F5EF63 		add	r3, r4, #1912
 109:../../Classes/Temperamento/PlantConditioner.cpp ****     _deltaMax = _maxFir.Process(delta_max);
 1070              		.loc 1 109 32 view .LVU260
 1071 001e B8EE480A 		vcvt.f32.u32	s0, s16
 1072 0022 04F16400 		add	r0, r4, #100
 108:../../Classes/Temperamento/PlantConditioner.cpp ****     _deltaMax = _maxFir.Process(delta_max);
 1073              		.loc 1 108 16 view .LVU261
 1074 0026 C3ED007A 		vstr.32	s15, [r3]
 1075              		.loc 1 109 5 is_stmt 1 view .LVU262
 1076              		.loc 1 109 32 is_stmt 0 view .LVU263
 1077 002a FFF7FEFF 		bl	_ZN6CapFir7ProcessEf
 1078              	.LVL88:
 1079              		.loc 1 109 15 view .LVU264
 1080 002e FCEEC07A 		vcvt.u32.f32	s15, s0
 110:../../Classes/Temperamento/PlantConditioner.cpp ****     _range = _deltaMax - _deltaMin;
 1081              		.loc 1 110 24 view .LVU265
 1082 0032 94F87E27 		ldrb	r2, [r4, #1918]	@ zero_extendqisi2
 109:../../Classes/Temperamento/PlantConditioner.cpp ****     _deltaMax = _maxFir.Process(delta_max);
 1083              		.loc 1 109 15 view .LVU266
 1084 0036 CDED017A 		vstr.32	s15, [sp, #4]	@ int
 1085 003a 9DF80430 		ldrb	r3, [sp, #4]	@ zero_extendqisi2
 1086              		.loc 1 110 24 view .LVU267
 1087 003e 9A1A     		subs	r2, r3, r2
 109:../../Classes/Temperamento/PlantConditioner.cpp ****     _deltaMax = _maxFir.Process(delta_max);
 1088              		.loc 1 109 15 view .LVU268
 1089 0040 84F87F37 		strb	r3, [r4, #1919]
 1090              		.loc 1 110 5 is_stmt 1 view .LVU269
 1091              		.loc 1 110 12 is_stmt 0 view .LVU270
 1092 0044 84F88027 		strb	r2, [r4, #1920]
 111:../../Classes/Temperamento/PlantConditioner.cpp **** }
 1093              		.loc 1 111 1 view .LVU271
 1094 0048 02B0     		add	sp, sp, #8
 1095              		.cfi_def_cfa_offset 16
 1096              		@ sp needed
 1097 004a BDEC028B 		vldm	sp!, {d8}
 1098              		.cfi_restore 80
 1099              		.cfi_restore 81
 1100              		.cfi_def_cfa_offset 8
 1101 004e 10BD     		pop	{r4, pc}
 1102              		.loc 1 111 1 view .LVU272
 1103              		.cfi_endproc
 1104              	.LFE4855:
ARM GAS  C:\Users\skipi\AppData\Local\Temp\ccBrn9lC.s 			page 25


 1106              		.section	.text._ZN16PlantConditioner6getBinEv,"ax",%progbits
 1107              		.align	1
 1108              		.p2align 2,,3
 1109              		.global	_ZN16PlantConditioner6getBinEv
 1110              		.syntax unified
 1111              		.thumb
 1112              		.thumb_func
 1113              		.fpu fpv5-d16
 1115              	_ZN16PlantConditioner6getBinEv:
 1116              	.LVL89:
 1117              	.LFB4856:
 112:../../Classes/Temperamento/PlantConditioner.cpp **** 
 113:../../Classes/Temperamento/PlantConditioner.cpp **** //  DEBUG FUNCTIONS
 114:../../Classes/Temperamento/PlantConditioner.cpp **** float* PlantConditioner::getBin() {
 1118              		.loc 1 114 35 is_stmt 1 view -0
 1119              		.cfi_startproc
 1120              		@ args = 0, pretend = 0, frame = 0
 1121              		@ frame_needed = 0, uses_anonymous_args = 0
 115:../../Classes/Temperamento/PlantConditioner.cpp ****     for (int i = 0; i < _scaleLength; i++) {
 1122              		.loc 1 115 5 view .LVU274
 1123              	.LBB44:
 1124              		.loc 1 115 23 view .LVU275
 1125              	.LBE44:
 114:../../Classes/Temperamento/PlantConditioner.cpp ****     for (int i = 0; i < _scaleLength; i++) {
 1126              		.loc 1 114 35 is_stmt 0 view .LVU276
 1127 0000 2DE9F041 		push	{r4, r5, r6, r7, r8, lr}
 1128              		.cfi_def_cfa_offset 24
 1129              		.cfi_offset 4, -24
 1130              		.cfi_offset 5, -20
 1131              		.cfi_offset 6, -16
 1132              		.cfi_offset 7, -12
 1133              		.cfi_offset 8, -8
 1134              		.cfi_offset 14, -4
 1135 0004 2DED068B 		vpush.64	{d8, d9, d10}
 1136              		.cfi_def_cfa_offset 48
 1137              		.cfi_offset 80, -48
 1138              		.cfi_offset 81, -44
 1139              		.cfi_offset 82, -40
 1140              		.cfi_offset 83, -36
 1141              		.cfi_offset 84, -32
 1142              		.cfi_offset 85, -28
 1143              	.LBB46:
 1144              		.loc 1 115 25 view .LVU277
 1145 0008 90F87D37 		ldrb	r3, [r0, #1917]	@ zero_extendqisi2
 1146              	.LBE46:
 114:../../Classes/Temperamento/PlantConditioner.cpp ****     for (int i = 0; i < _scaleLength; i++) {
 1147              		.loc 1 114 35 view .LVU278
 1148 000c 0446     		mov	r4, r0
 1149 000e 00F28C77 		addw	r7, r0, #1932
 1150              	.LBB47:
 1151              		.loc 1 115 23 view .LVU279
 1152 0012 002B     		cmp	r3, #0
 1153 0014 44D0     		beq	.L51
 1154              		.loc 1 115 14 view .LVU280
 1155 0016 0025     		movs	r5, #0
 1156 0018 00F5EF66 		add	r6, r0, #1912
 1157 001c 9FED23AA 		vldr.32	s20, .L58
ARM GAS  C:\Users\skipi\AppData\Local\Temp\ccBrn9lC.s 			page 26


 1158 0020 B846     		mov	r8, r7
 1159              	.LVL90:
 1160              	.L52:
 1161              	.LBB45:
 116:../../Classes/Temperamento/PlantConditioner.cpp ****         
 117:../../Classes/Temperamento/PlantConditioner.cpp ****         //Dimensione Crescente Bin
 118:../../Classes/Temperamento/PlantConditioner.cpp ****         float lower = _deltaMin + _range * powf((float)i / _scaleLength, _curveType);
 1162              		.loc 1 118 9 is_stmt 1 discriminator 2 view .LVU281
 1163              		.loc 1 118 48 is_stmt 0 discriminator 2 view .LVU282
 1164 0022 07EE903A 		vmov	s15, r3	@ int
 1165              		.loc 1 118 23 discriminator 2 view .LVU283
 1166 0026 94F87E37 		ldrb	r3, [r4, #1918]	@ zero_extendqisi2
 1167              		.loc 1 118 48 discriminator 2 view .LVU284
 1168 002a D6ED000A 		vldr.32	s1, [r6]
 119:../../Classes/Temperamento/PlantConditioner.cpp ****         float upper = _deltaMin + _range * powf((float)(i+1) / _scaleLength, _curveType);
 1169              		.loc 1 119 58 discriminator 2 view .LVU285
 1170 002e 0135     		adds	r5, r5, #1
 1171              	.LVL91:
 118:../../Classes/Temperamento/PlantConditioner.cpp ****         float upper = _deltaMin + _range * powf((float)(i+1) / _scaleLength, _curveType);
 1172              		.loc 1 118 48 discriminator 2 view .LVU286
 1173 0030 B8EEE70A 		vcvt.f32.s32	s0, s15
 118:../../Classes/Temperamento/PlantConditioner.cpp ****         float upper = _deltaMin + _range * powf((float)(i+1) / _scaleLength, _curveType);
 1174              		.loc 1 118 23 discriminator 2 view .LVU287
 1175 0034 08EE903A 		vmov	s17, r3	@ int
 118:../../Classes/Temperamento/PlantConditioner.cpp ****         float upper = _deltaMin + _range * powf((float)(i+1) / _scaleLength, _curveType);
 1176              		.loc 1 118 35 discriminator 2 view .LVU288
 1177 0038 94F88037 		ldrb	r3, [r4, #1920]	@ zero_extendqisi2
 118:../../Classes/Temperamento/PlantConditioner.cpp ****         float upper = _deltaMin + _range * powf((float)(i+1) / _scaleLength, _curveType);
 1178              		.loc 1 118 33 discriminator 2 view .LVU289
 1179 003c F8EEE88A 		vcvt.f32.s32	s17, s17
 118:../../Classes/Temperamento/PlantConditioner.cpp ****         float upper = _deltaMin + _range * powf((float)(i+1) / _scaleLength, _curveType);
 1180              		.loc 1 118 48 discriminator 2 view .LVU290
 1181 0040 8AEE000A 		vdiv.f32	s0, s20, s0
 118:../../Classes/Temperamento/PlantConditioner.cpp ****         float upper = _deltaMin + _range * powf((float)(i+1) / _scaleLength, _curveType);
 1182              		.loc 1 118 35 discriminator 2 view .LVU291
 1183 0044 09EE903A 		vmov	s19, r3	@ int
 118:../../Classes/Temperamento/PlantConditioner.cpp ****         float upper = _deltaMin + _range * powf((float)(i+1) / _scaleLength, _curveType);
 1184              		.loc 1 118 48 discriminator 2 view .LVU292
 1185 0048 FFF7FEFF 		bl	powf
 1186              	.LVL92:
 1187              		.loc 1 119 64 discriminator 2 view .LVU293
 1188 004c 94F87D37 		ldrb	r3, [r4, #1917]	@ zero_extendqisi2
 1189              		.loc 1 119 49 discriminator 2 view .LVU294
 1190 0050 07EE105A 		vmov	s14, r5	@ int
 1191              		.loc 1 119 48 discriminator 2 view .LVU295
 1192 0054 D6ED000A 		vldr.32	s1, [r6]
 1193              		.loc 1 119 64 discriminator 2 view .LVU296
 1194 0058 07EE903A 		vmov	s15, r3	@ int
 1195              		.loc 1 119 23 discriminator 2 view .LVU297
 1196 005c 94F87E37 		ldrb	r3, [r4, #1918]	@ zero_extendqisi2
 1197 0060 08EE103A 		vmov	s16, r3	@ int
 1198              		.loc 1 119 35 discriminator 2 view .LVU298
 1199 0064 94F88037 		ldrb	r3, [r4, #1920]	@ zero_extendqisi2
 1200              		.loc 1 119 49 discriminator 2 view .LVU299
 1201 0068 B8EEC7AA 		vcvt.f32.s32	s20, s14
 1202              		.loc 1 119 35 discriminator 2 view .LVU300
 1203 006c 09EE103A 		vmov	s18, r3	@ int
ARM GAS  C:\Users\skipi\AppData\Local\Temp\ccBrn9lC.s 			page 27


 1204              		.loc 1 119 48 discriminator 2 view .LVU301
 1205 0070 F8EEE77A 		vcvt.f32.s32	s15, s15
 118:../../Classes/Temperamento/PlantConditioner.cpp ****         float upper = _deltaMin + _range * powf((float)(i+1) / _scaleLength, _curveType);
 1206              		.loc 1 118 42 discriminator 2 view .LVU302
 1207 0074 F8EEE99A 		vcvt.f32.s32	s19, s19
 1208              		.loc 1 119 33 discriminator 2 view .LVU303
 1209 0078 B8EEC88A 		vcvt.f32.s32	s16, s16
 1210              		.loc 1 119 42 discriminator 2 view .LVU304
 1211 007c B8EEC99A 		vcvt.f32.s32	s18, s18
 118:../../Classes/Temperamento/PlantConditioner.cpp ****         float upper = _deltaMin + _range * powf((float)(i+1) / _scaleLength, _curveType);
 1212              		.loc 1 118 84 discriminator 2 view .LVU305
 1213 0080 E9EE808A 		vfma.f32	s17, s19, s0
 1214              	.LVL93:
 1215              		.loc 1 119 9 is_stmt 1 discriminator 2 view .LVU306
 1216              		.loc 1 119 48 is_stmt 0 discriminator 2 view .LVU307
 1217 0084 8AEE270A 		vdiv.f32	s0, s20, s15
 1218 0088 FFF7FEFF 		bl	powf
 1219              	.LVL94:
 1220              		.loc 1 119 88 discriminator 2 view .LVU308
 1221 008c A9EE008A 		vfma.f32	s16, s18, s0
 1222              	.LVL95:
 120:../../Classes/Temperamento/PlantConditioner.cpp **** 
 121:../../Classes/Temperamento/PlantConditioner.cpp ****         //Dimensione Decrescente Bin
 122:../../Classes/Temperamento/PlantConditioner.cpp ****         //float lower = _deltaMin + _range * (1.0f - powf(1.0f - (float)i / _scaleLength, _curveTyp
 123:../../Classes/Temperamento/PlantConditioner.cpp ****         //float upper = _deltaMin + _range * (1.0f - powf(1.0f - (float)(i + 1) / _scaleLength, _cu
 124:../../Classes/Temperamento/PlantConditioner.cpp ****             
 125:../../Classes/Temperamento/PlantConditioner.cpp ****         _bin[i] = upper - lower;  // x debug
 1223              		.loc 1 125 9 is_stmt 1 discriminator 2 view .LVU309
 1224              		.loc 1 125 25 is_stmt 0 discriminator 2 view .LVU310
 1225 0090 38EE688A 		vsub.f32	s16, s16, s17
 1226              	.LVL96:
 1227              		.loc 1 125 17 discriminator 2 view .LVU311
 1228 0094 A8EC018A 		vstmia.32	r8!, {s16}
 1229              	.LBE45:
 115:../../Classes/Temperamento/PlantConditioner.cpp ****         
 1230              		.loc 1 115 5 is_stmt 1 discriminator 2 view .LVU312
 1231              	.LVL97:
 115:../../Classes/Temperamento/PlantConditioner.cpp ****         
 1232              		.loc 1 115 23 discriminator 2 view .LVU313
 115:../../Classes/Temperamento/PlantConditioner.cpp ****         
 1233              		.loc 1 115 25 is_stmt 0 discriminator 2 view .LVU314
 1234 0098 94F87D37 		ldrb	r3, [r4, #1917]	@ zero_extendqisi2
 115:../../Classes/Temperamento/PlantConditioner.cpp ****         
 1235              		.loc 1 115 23 discriminator 2 view .LVU315
 1236 009c AB42     		cmp	r3, r5
 1237 009e C0DC     		bgt	.L52
 1238              	.LVL98:
 1239              	.L51:
 115:../../Classes/Temperamento/PlantConditioner.cpp ****         
 1240              		.loc 1 115 23 discriminator 2 view .LVU316
 1241              	.LBE47:
 126:../../Classes/Temperamento/PlantConditioner.cpp ****     }
 127:../../Classes/Temperamento/PlantConditioner.cpp ****     return _bin;
 1242              		.loc 1 127 5 is_stmt 1 view .LVU317
 128:../../Classes/Temperamento/PlantConditioner.cpp **** }
 1243              		.loc 1 128 1 is_stmt 0 view .LVU318
 1244 00a0 3846     		mov	r0, r7
ARM GAS  C:\Users\skipi\AppData\Local\Temp\ccBrn9lC.s 			page 28


 1245 00a2 BDEC068B 		vldm	sp!, {d8-d10}
 1246              		.cfi_restore 84
 1247              		.cfi_restore 85
 1248              		.cfi_restore 82
 1249              		.cfi_restore 83
 1250              		.cfi_restore 80
 1251              		.cfi_restore 81
 1252              		.cfi_def_cfa_offset 24
 1253 00a6 BDE8F081 		pop	{r4, r5, r6, r7, r8, pc}
 1254              	.LVL99:
 1255              	.L59:
 1256              		.loc 1 128 1 view .LVU319
 1257 00aa 00BF     		.align	2
 1258              	.L58:
 1259 00ac 00000000 		.word	0
 1260              		.cfi_endproc
 1261              	.LFE4856:
 1263              		.section	.text._ZN16PlantConditioner9setBufferEv,"ax",%progbits
 1264              		.align	1
 1265              		.p2align 2,,3
 1266              		.global	_ZN16PlantConditioner9setBufferEv
 1267              		.syntax unified
 1268              		.thumb
 1269              		.thumb_func
 1270              		.fpu fpv5-d16
 1272              	_ZN16PlantConditioner9setBufferEv:
 1273              	.LVL100:
 1274              	.LFB4857:
 129:../../Classes/Temperamento/PlantConditioner.cpp **** 
 130:../../Classes/Temperamento/PlantConditioner.cpp **** 
 131:../../Classes/Temperamento/PlantConditioner.cpp **** 
 132:../../Classes/Temperamento/PlantConditioner.cpp **** void PlantConditioner::setBuffer() {
 1275              		.loc 1 132 36 is_stmt 1 view -0
 1276              		.cfi_startproc
 1277              		@ args = 0, pretend = 0, frame = 0
 1278              		@ frame_needed = 0, uses_anonymous_args = 0
 1279              		@ link register save eliminated.
 133:../../Classes/Temperamento/PlantConditioner.cpp ****     _delta = _deltaFilt ;
 1280              		.loc 1 133 5 view .LVU321
 1281              		.loc 1 133 14 is_stmt 0 view .LVU322
 1282 0000 00F5F163 		add	r3, r0, #1928
 1283              		.loc 1 133 12 view .LVU323
 1284 0004 00F28470 		addw	r0, r0, #1924
 1285              	.LVL101:
 1286              		.loc 1 133 12 view .LVU324
 1287 0008 1B68     		ldr	r3, [r3]	@ float
 1288 000a 0360     		str	r3, [r0]	@ float
 134:../../Classes/Temperamento/PlantConditioner.cpp **** }
 1289              		.loc 1 134 1 view .LVU325
 1290 000c 7047     		bx	lr
 1291              		.cfi_endproc
 1292              	.LFE4857:
 1294 000e 00BF     		.section	.rodata
 1295              		.align	2
 1296              		.set	.LANCHOR0,. + 0
 1297              	.LC0:
 1298 0000 CDCC8241 		.word	1099091149
ARM GAS  C:\Users\skipi\AppData\Local\Temp\ccBrn9lC.s 			page 29


 1299 0004 CDCC9241 		.word	1100139725
 1300 0008 CDCCA441 		.word	1101319373
 1301 000c D7A3AE41 		.word	1101964247
 1302 0010 0000C441 		.word	1103364096
 1303 0014 0000DC41 		.word	1104936960
 1304 0018 C3F5F641 		.word	1106703811
 1305              	.LC1:
 1306 001c CDCC8241 		.word	1099091149
 1307 0020 CDCC9241 		.word	1100139725
 1308 0024 9A999B41 		.word	1100716442
 1309 0028 D7A3AE41 		.word	1101964247
 1310 002c 0000C441 		.word	1103364096
 1311 0030 14AECF41 		.word	1104129556
 1312 0034 B81EE941 		.word	1105796792
 1313              	.LC2:
 1314 0038 CDCC8241 		.word	1099091149
 1315 003c CDCC9241 		.word	1100139725
 1316 0040 9A999B41 		.word	1100716442
 1317 0044 D7A3AE41 		.word	1101964247
 1318 0048 0000C441 		.word	1103364096
 1319 004c 14AECF41 		.word	1104129556
 1320 0050 C3F5F641 		.word	1106703811
 1321              	.LC3:
 1322 0054 CDCC8241 		.word	1099091149
 1323 0058 CDCC9241 		.word	1100139725
 1324 005c 9A999B41 		.word	1100716442
 1325 0060 D7A3AE41 		.word	1101964247
 1326 0064 C3F5B841 		.word	1102640579
 1327 0068 0000DC41 		.word	1104936960
 1328 006c C3F5F641 		.word	1106703811
 1329              	.LC4:
 1330 0070 CDCC8241 		.word	1099091149
 1331 0074 CDCC9241 		.word	1100139725
 1332 0078 D7A3AE41 		.word	1101964247
 1333 007c 0000C441 		.word	1103364096
 1334 0080 0000DC41 		.word	1104936960
 1335              	.LC5:
 1336 0084 CDCC8241 		.word	1099091149
 1337 0088 5C8F8A41 		.word	1099599708
 1338 008c CDCC9241 		.word	1100139725
 1339 0090 9A999B41 		.word	1100716442
 1340 0094 CDCCA441 		.word	1101319373
 1341 0098 D7A3AE41 		.word	1101964247
 1342 009c C3F5B841 		.word	1102640579
 1343 00a0 0000C441 		.word	1103364096
 1344 00a4 14AECF41 		.word	1104129556
 1345 00a8 0000DC41 		.word	1104936960
 1346 00ac B81EE941 		.word	1105796792
 1347 00b0 C3F5F641 		.word	1106703811
 1348              	.LC6:
 1349 00b4 CDCC8241 		.word	1099091149
 1350 00b8 CDCC9241 		.word	1100139725
 1351 00bc CDCCA441 		.word	1101319373
 1352 00c0 D7A3AE41 		.word	1101964247
 1353 00c4 0000C441 		.word	1103364096
 1354 00c8 0000DC41 		.word	1104936960
 1355              		.text
ARM GAS  C:\Users\skipi\AppData\Local\Temp\ccBrn9lC.s 			page 30


 1356              	.Letext0:
 1357              		.file 2 "c:\\program files\\daisytoolchain\\arm-none-eabi\\include\\machine\\_default_types.h"
 1358              		.file 3 "c:\\program files\\daisytoolchain\\arm-none-eabi\\include\\sys\\_stdint.h"
 1359              		.file 4 "c:\\program files\\daisytoolchain\\arm-none-eabi\\include\\stdint.h"
 1360              		.file 5 "c:\\program files\\daisytoolchain\\lib\\gcc\\arm-none-eabi\\10.2.1\\include\\stddef.h"
 1361              		.file 6 "c:\\program files\\daisytoolchain\\arm-none-eabi\\include\\c++\\10.2.1\\cmath"
 1362              		.file 7 "c:\\program files\\daisytoolchain\\arm-none-eabi\\include\\c++\\10.2.1\\bits\\std_abs.h"
 1363              		.file 8 "c:\\program files\\daisytoolchain\\arm-none-eabi\\include\\c++\\10.2.1\\cstdint"
 1364              		.file 9 "c:\\program files\\daisytoolchain\\arm-none-eabi\\include\\c++\\10.2.1\\cstdlib"
 1365              		.file 10 "c:\\program files\\daisytoolchain\\arm-none-eabi\\include\\c++\\10.2.1\\type_traits"
 1366              		.file 11 "c:\\program files\\daisytoolchain\\arm-none-eabi\\include\\c++\\10.2.1\\debug\\debug.h"
 1367              		.file 12 "c:\\program files\\daisytoolchain\\arm-none-eabi\\include\\c++\\10.2.1\\cwchar"
 1368              		.file 13 "c:\\program files\\daisytoolchain\\arm-none-eabi\\include\\c++\\10.2.1\\bits\\stl_pair.h
 1369              		.file 14 "c:\\program files\\daisytoolchain\\arm-none-eabi\\include\\c++\\10.2.1\\bits\\exception_
 1370              		.file 15 "c:\\program files\\daisytoolchain\\arm-none-eabi\\include\\c++\\10.2.1\\arm-none-eabi\\t
 1371              		.file 16 "c:\\program files\\daisytoolchain\\arm-none-eabi\\include\\c++\\10.2.1\\clocale"
 1372              		.file 17 "c:\\program files\\daisytoolchain\\arm-none-eabi\\include\\c++\\10.2.1\\cstdio"
 1373              		.file 18 "c:\\program files\\daisytoolchain\\arm-none-eabi\\include\\c++\\10.2.1\\bits\\basic_stri
 1374              		.file 19 "c:\\program files\\daisytoolchain\\arm-none-eabi\\include\\c++\\10.2.1\\bits\\charconv.h
 1375              		.file 20 "c:\\program files\\daisytoolchain\\arm-none-eabi\\include\\c++\\10.2.1\\bits\\algorithmf
 1376              		.file 21 "c:\\program files\\daisytoolchain\\arm-none-eabi\\include\\c++\\10.2.1\\cstring"
 1377              		.file 22 "c:\\program files\\daisytoolchain\\arm-none-eabi\\include\\c++\\10.2.1\\cstdarg"
 1378              		.file 23 "c:\\program files\\daisytoolchain\\arm-none-eabi\\include\\c++\\10.2.1\\bits\\predefined
 1379              		.file 24 "c:\\program files\\daisytoolchain\\arm-none-eabi\\include\\sys\\_types.h"
 1380              		.file 25 "c:\\program files\\daisytoolchain\\arm-none-eabi\\include\\sys\\reent.h"
 1381              		.file 26 "c:\\program files\\daisytoolchain\\arm-none-eabi\\include\\sys\\lock.h"
 1382              		.file 27 "c:\\program files\\daisytoolchain\\arm-none-eabi\\include\\math.h"
 1383              		.file 28 "c:\\program files\\daisytoolchain\\arm-none-eabi\\include\\stdlib.h"
 1384              		.file 29 "c:\\program files\\daisytoolchain\\arm-none-eabi\\include\\c++\\10.2.1\\math.h"
 1385              		.file 30 "../../libs/DaisySP/Source/Control/adenv.h"
 1386              		.file 31 "../../libs/DaisySP/Source/Utility/dsp.h"
 1387              		.file 32 "c:\\program files\\daisytoolchain\\lib\\gcc\\arm-none-eabi\\10.2.1\\include\\stdarg.h"
 1388              		.file 33 "c:\\program files\\daisytoolchain\\arm-none-eabi\\include\\wchar.h"
 1389              		.file 34 "c:\\program files\\daisytoolchain\\arm-none-eabi\\include\\locale.h"
 1390              		.file 35 "c:\\program files\\daisytoolchain\\arm-none-eabi\\include\\stdio.h"
 1391              		.file 36 "c:\\program files\\daisytoolchain\\arm-none-eabi\\include\\c++\\10.2.1\\stdlib.h"
 1392              		.file 37 "c:\\program files\\daisytoolchain\\arm-none-eabi\\include\\string.h"
 1393              		.file 38 "../../libs/libDaisy/src/daisy_core.h"
 1394              		.file 39 "../../libs/libDaisy/src/util/wav_format.h"
 1395              		.file 40 "../../libs/libDaisy/src/dev/sr_595.h"
 1396              		.file 41 "../../libs/libDaisy/src/dev/max11300.h"
 1397              		.file 42 "../../libs/libDaisy/src/daisy_seed.h"
 1398              		.file 43 "../../Classes/Temperamento/../SensorFilters/FIIR/CapFir.h"
 1399              		.file 44 "../../Classes/Temperamento/../SensorFilters/IIR/iir.h"
 1400              		.file 45 "../../Classes/Temperamento/../SensorFilters/MF/MF.h"
 1401              		.file 46 "../../Classes/Temperamento/PlantConditioner.h"
 1402              		.file 47 "<built-in>"
ARM GAS  C:\Users\skipi\AppData\Local\Temp\ccBrn9lC.s 			page 31

