ARM GAS  C:\Users\skipi\AppData\Local\Temp\cc2QEVmM.s 			page 1


   1              		.cpu cortex-m7
   2              		.eabi_attribute 28, 1
   3              		.eabi_attribute 20, 1
   4              		.eabi_attribute 21, 1
   5              		.eabi_attribute 23, 3
   6              		.eabi_attribute 24, 1
   7              		.eabi_attribute 25, 1
   8              		.eabi_attribute 26, 1
   9              		.eabi_attribute 30, 2
  10              		.eabi_attribute 34, 1
  11              		.eabi_attribute 18, 4
  12              		.file	"mainPot.cpp"
  13              		.text
  14              	.Ltext0:
  15              		.cfi_sections	.debug_frame
  16              		.section	.text._ZN5daisy9DaisySeedD2Ev,"axG",%progbits,_ZN5daisy9DaisySeedD5Ev,comdat
  17              		.align	1
  18              		.p2align 2,,3
  19              		.weak	_ZN5daisy9DaisySeedD2Ev
  20              		.arch armv7e-m
  21              		.syntax unified
  22              		.thumb
  23              		.thumb_func
  24              		.fpu fpv5-d16
  26              	_ZN5daisy9DaisySeedD2Ev:
  27              	.LVL0:
  28              	.LFB2645:
  29              		.file 1 "../../libs/libDaisy/src/daisy_seed.h"
   1:../../libs/libDaisy/src/daisy_seed.h **** #pragma once
   2:../../libs/libDaisy/src/daisy_seed.h **** #ifndef DSY_SEED_H
   3:../../libs/libDaisy/src/daisy_seed.h **** #define DSY_SEED_H
   4:../../libs/libDaisy/src/daisy_seed.h **** 
   5:../../libs/libDaisy/src/daisy_seed.h **** #include "daisy.h"
   6:../../libs/libDaisy/src/daisy_seed.h **** 
   7:../../libs/libDaisy/src/daisy_seed.h **** //Uncomment this out if you're still using the rev2 hardware
   8:../../libs/libDaisy/src/daisy_seed.h **** //#define SEED_REV2
   9:../../libs/libDaisy/src/daisy_seed.h **** 
  10:../../libs/libDaisy/src/daisy_seed.h **** namespace daisy
  11:../../libs/libDaisy/src/daisy_seed.h **** {
  12:../../libs/libDaisy/src/daisy_seed.h **** /**
  13:../../libs/libDaisy/src/daisy_seed.h ****    @brief This is the higher-level interface for the Daisy board. \n 
  14:../../libs/libDaisy/src/daisy_seed.h ****     All basic peripheral configuration/initialization is setup here. \n
  15:../../libs/libDaisy/src/daisy_seed.h **** 
  16:../../libs/libDaisy/src/daisy_seed.h ****    @ingroup boards
  17:../../libs/libDaisy/src/daisy_seed.h **** */
  18:../../libs/libDaisy/src/daisy_seed.h **** class DaisySeed
  19:../../libs/libDaisy/src/daisy_seed.h **** {
  20:../../libs/libDaisy/src/daisy_seed.h ****   public:
  21:../../libs/libDaisy/src/daisy_seed.h ****     DaisySeed() {}
  22:../../libs/libDaisy/src/daisy_seed.h ****     ~DaisySeed() {}
  30              		.loc 1 22 5 view -0
  31              		.cfi_startproc
  32              		@ args = 0, pretend = 0, frame = 0
  33              		@ frame_needed = 0, uses_anonymous_args = 0
  34              		@ link register save eliminated.
  35              	.LBB282:
  36              	.LBI282:
ARM GAS  C:\Users\skipi\AppData\Local\Temp\cc2QEVmM.s 			page 2


  37              		.file 2 "../../libs/libDaisy/src/dev/codec_ak4556.h"
   1:../../libs/libDaisy/src/dev/codec_ak4556.h **** #pragma once
   2:../../libs/libDaisy/src/dev/codec_ak4556.h **** #ifndef DSY_CODEC_AK4556_H
   3:../../libs/libDaisy/src/dev/codec_ak4556.h **** #define DSY_CODEC_AK4556_H
   4:../../libs/libDaisy/src/dev/codec_ak4556.h **** 
   5:../../libs/libDaisy/src/dev/codec_ak4556.h **** #include "daisy_core.h"
   6:../../libs/libDaisy/src/dev/codec_ak4556.h **** #include "per/gpio.h"
   7:../../libs/libDaisy/src/dev/codec_ak4556.h **** 
   8:../../libs/libDaisy/src/dev/codec_ak4556.h **** namespace daisy
   9:../../libs/libDaisy/src/dev/codec_ak4556.h **** {
  10:../../libs/libDaisy/src/dev/codec_ak4556.h **** /** @brief Ak4556 Codec support 
  11:../../libs/libDaisy/src/dev/codec_ak4556.h ****  ** @author shensley
  12:../../libs/libDaisy/src/dev/codec_ak4556.h ****  ** @addtogroup codec
  13:../../libs/libDaisy/src/dev/codec_ak4556.h ****  ** 
  14:../../libs/libDaisy/src/dev/codec_ak4556.h ****  ** I don't see any real reason to have this be more than a function, but in case we want
  15:../../libs/libDaisy/src/dev/codec_ak4556.h ****  ** to add other functions down the road I wrapped the function in a class.
  16:../../libs/libDaisy/src/dev/codec_ak4556.h ****  ***/
  17:../../libs/libDaisy/src/dev/codec_ak4556.h **** class Ak4556
  18:../../libs/libDaisy/src/dev/codec_ak4556.h **** {
  19:../../libs/libDaisy/src/dev/codec_ak4556.h ****   public:
  20:../../libs/libDaisy/src/dev/codec_ak4556.h ****     Ak4556() {}
  21:../../libs/libDaisy/src/dev/codec_ak4556.h ****     ~Ak4556() {}
  38              		.loc 2 21 5 view .LVU1
  39              		.loc 2 21 5 is_stmt 0 view .LVU2
  40              	.LBE282:
  41              	.LBB283:
  42              	.LBI283:
  43              		.file 3 "../../libs/libDaisy/src/sys/system.h"
   1:../../libs/libDaisy/src/sys/system.h **** #ifndef DSY_SYSTEM_H
   2:../../libs/libDaisy/src/sys/system.h **** #define DSY_SYSTEM_H
   3:../../libs/libDaisy/src/sys/system.h **** 
   4:../../libs/libDaisy/src/sys/system.h **** #ifndef UNIT_TEST // for unit tests, a dummy implementation is provided below
   5:../../libs/libDaisy/src/sys/system.h **** 
   6:../../libs/libDaisy/src/sys/system.h **** #include <cstdint>
   7:../../libs/libDaisy/src/sys/system.h **** #include "per/tim.h"
   8:../../libs/libDaisy/src/sys/system.h **** 
   9:../../libs/libDaisy/src/sys/system.h **** namespace daisy
  10:../../libs/libDaisy/src/sys/system.h **** {
  11:../../libs/libDaisy/src/sys/system.h **** /** A handle for interacting with the Core System.
  12:../../libs/libDaisy/src/sys/system.h ****  ** This includes the Clock tree, MPU, global DMA initialization,
  13:../../libs/libDaisy/src/sys/system.h ****  ** cache handling, and any other necessary global initiailzation
  14:../../libs/libDaisy/src/sys/system.h ****  **
  15:../../libs/libDaisy/src/sys/system.h ****  ** @author shensley
  16:../../libs/libDaisy/src/sys/system.h ****  ** @ingroup system
  17:../../libs/libDaisy/src/sys/system.h ****  */
  18:../../libs/libDaisy/src/sys/system.h **** class System
  19:../../libs/libDaisy/src/sys/system.h **** {
  20:../../libs/libDaisy/src/sys/system.h ****   public:
  21:../../libs/libDaisy/src/sys/system.h ****     /** Contains settings for initializing the System */
  22:../../libs/libDaisy/src/sys/system.h ****     struct Config
  23:../../libs/libDaisy/src/sys/system.h ****     {
  24:../../libs/libDaisy/src/sys/system.h ****         /** Specifies the system clock frequency that feeds APB/AHB clocks, etc. */
  25:../../libs/libDaisy/src/sys/system.h ****         enum class SysClkFreq
  26:../../libs/libDaisy/src/sys/system.h ****         {
  27:../../libs/libDaisy/src/sys/system.h ****             FREQ_400MHZ,
  28:../../libs/libDaisy/src/sys/system.h ****             FREQ_480MHZ,
  29:../../libs/libDaisy/src/sys/system.h ****         };
ARM GAS  C:\Users\skipi\AppData\Local\Temp\cc2QEVmM.s 			page 3


  30:../../libs/libDaisy/src/sys/system.h **** 
  31:../../libs/libDaisy/src/sys/system.h ****         /** Method to call on the struct to set to defaults
  32:../../libs/libDaisy/src/sys/system.h ****          ** CPU Freq set to 400MHz
  33:../../libs/libDaisy/src/sys/system.h ****          ** Cache Enabled
  34:../../libs/libDaisy/src/sys/system.h ****          ** */
  35:../../libs/libDaisy/src/sys/system.h ****         void Defaults()
  36:../../libs/libDaisy/src/sys/system.h ****         {
  37:../../libs/libDaisy/src/sys/system.h ****             cpu_freq    = SysClkFreq::FREQ_400MHZ;
  38:../../libs/libDaisy/src/sys/system.h ****             use_dcache  = true;
  39:../../libs/libDaisy/src/sys/system.h ****             use_icache  = true;
  40:../../libs/libDaisy/src/sys/system.h ****             skip_clocks = false;
  41:../../libs/libDaisy/src/sys/system.h ****         }
  42:../../libs/libDaisy/src/sys/system.h **** 
  43:../../libs/libDaisy/src/sys/system.h ****         /** Method to call on the struct to set to boost mode:
  44:../../libs/libDaisy/src/sys/system.h ****          ** CPU Freq set to 480MHz
  45:../../libs/libDaisy/src/sys/system.h ****          ** Cache Enabled
  46:../../libs/libDaisy/src/sys/system.h ****          ** */
  47:../../libs/libDaisy/src/sys/system.h ****         void Boost()
  48:../../libs/libDaisy/src/sys/system.h ****         {
  49:../../libs/libDaisy/src/sys/system.h ****             cpu_freq    = SysClkFreq::FREQ_480MHZ;
  50:../../libs/libDaisy/src/sys/system.h ****             use_dcache  = true;
  51:../../libs/libDaisy/src/sys/system.h ****             use_icache  = true;
  52:../../libs/libDaisy/src/sys/system.h ****             skip_clocks = false;
  53:../../libs/libDaisy/src/sys/system.h ****         }
  54:../../libs/libDaisy/src/sys/system.h **** 
  55:../../libs/libDaisy/src/sys/system.h ****         SysClkFreq cpu_freq;
  56:../../libs/libDaisy/src/sys/system.h ****         bool       use_dcache;
  57:../../libs/libDaisy/src/sys/system.h ****         bool       use_icache;
  58:../../libs/libDaisy/src/sys/system.h ****         bool       skip_clocks;
  59:../../libs/libDaisy/src/sys/system.h ****     };
  60:../../libs/libDaisy/src/sys/system.h **** 
  61:../../libs/libDaisy/src/sys/system.h ****     /** Describes the different regions of memory available to the Daisy */
  62:../../libs/libDaisy/src/sys/system.h ****     enum MemoryRegion
  63:../../libs/libDaisy/src/sys/system.h ****     {
  64:../../libs/libDaisy/src/sys/system.h ****         INTERNAL_FLASH = 0,
  65:../../libs/libDaisy/src/sys/system.h ****         ITCMRAM,
  66:../../libs/libDaisy/src/sys/system.h ****         DTCMRAM,
  67:../../libs/libDaisy/src/sys/system.h ****         SRAM_D1,
  68:../../libs/libDaisy/src/sys/system.h ****         SRAM_D2,
  69:../../libs/libDaisy/src/sys/system.h ****         SRAM_D3,
  70:../../libs/libDaisy/src/sys/system.h ****         SDRAM,
  71:../../libs/libDaisy/src/sys/system.h ****         QSPI,
  72:../../libs/libDaisy/src/sys/system.h ****         INVALID_ADDRESS,
  73:../../libs/libDaisy/src/sys/system.h ****     };
  74:../../libs/libDaisy/src/sys/system.h **** 
  75:../../libs/libDaisy/src/sys/system.h ****     /** Bootloader struct for controlling bootloading parameters */
  76:../../libs/libDaisy/src/sys/system.h ****     struct BootInfo
  77:../../libs/libDaisy/src/sys/system.h ****     {
  78:../../libs/libDaisy/src/sys/system.h ****         enum class Type : uint32_t
  79:../../libs/libDaisy/src/sys/system.h ****         {
  80:../../libs/libDaisy/src/sys/system.h ****             INVALID      = 0x00000000,
  81:../../libs/libDaisy/src/sys/system.h ****             JUMP         = 0xDEADBEEF,
  82:../../libs/libDaisy/src/sys/system.h ****             SKIP_TIMEOUT = 0x5AFEB007,
  83:../../libs/libDaisy/src/sys/system.h ****             INF_TIMEOUT  = 0xB0074EFA,
  84:../../libs/libDaisy/src/sys/system.h ****         } status;
  85:../../libs/libDaisy/src/sys/system.h ****         uint32_t data;
  86:../../libs/libDaisy/src/sys/system.h ****         enum class Version : uint32_t
ARM GAS  C:\Users\skipi\AppData\Local\Temp\cc2QEVmM.s 			page 4


  87:../../libs/libDaisy/src/sys/system.h ****         {
  88:../../libs/libDaisy/src/sys/system.h ****             LT_v6_0 = 0, // Less than v6.0
  89:../../libs/libDaisy/src/sys/system.h ****             NONE,        // No bootloader present
  90:../../libs/libDaisy/src/sys/system.h ****             v6_0,        // v6.0
  91:../../libs/libDaisy/src/sys/system.h ****             v6_1,        // v6.1 or greater
  92:../../libs/libDaisy/src/sys/system.h ****             LAST
  93:../../libs/libDaisy/src/sys/system.h ****         } version;
  94:../../libs/libDaisy/src/sys/system.h ****     };
  95:../../libs/libDaisy/src/sys/system.h **** 
  96:../../libs/libDaisy/src/sys/system.h ****     System() {}
  97:../../libs/libDaisy/src/sys/system.h ****     ~System() {}
  44              		.loc 3 97 5 is_stmt 1 view .LVU3
  45              		.loc 3 97 5 is_stmt 0 view .LVU4
  46              	.LBE283:
  47              	.LBB284:
  48              	.LBI284:
  49              		.file 4 "../../libs/libDaisy/src/hid/usb.h"
   1:../../libs/libDaisy/src/hid/usb.h **** #pragma once
   2:../../libs/libDaisy/src/hid/usb.h **** #ifndef DSY_HID_USB_H
   3:../../libs/libDaisy/src/hid/usb.h **** #define DSY_HID_USB_H
   4:../../libs/libDaisy/src/hid/usb.h **** #include <stdint.h>
   5:../../libs/libDaisy/src/hid/usb.h **** #include <stdlib.h>
   6:../../libs/libDaisy/src/hid/usb.h **** 
   7:../../libs/libDaisy/src/hid/usb.h **** namespace daisy
   8:../../libs/libDaisy/src/hid/usb.h **** /** @addtogroup human_interface
   9:../../libs/libDaisy/src/hid/usb.h ****     @{
  10:../../libs/libDaisy/src/hid/usb.h **** */
  11:../../libs/libDaisy/src/hid/usb.h **** 
  12:../../libs/libDaisy/src/hid/usb.h **** {
  13:../../libs/libDaisy/src/hid/usb.h **** /** 
  14:../../libs/libDaisy/src/hid/usb.h ****     @brief Interface for initializing and using the USB Peripherals on the daisy
  15:../../libs/libDaisy/src/hid/usb.h ****     @author Stephen Hensley
  16:../../libs/libDaisy/src/hid/usb.h ****     @date December 2019
  17:../../libs/libDaisy/src/hid/usb.h **** */
  18:../../libs/libDaisy/src/hid/usb.h **** class UsbHandle
  19:../../libs/libDaisy/src/hid/usb.h **** {
  20:../../libs/libDaisy/src/hid/usb.h ****   public:
  21:../../libs/libDaisy/src/hid/usb.h ****     /** Return values for USBHandle Functions */
  22:../../libs/libDaisy/src/hid/usb.h ****     enum class Result
  23:../../libs/libDaisy/src/hid/usb.h ****     {
  24:../../libs/libDaisy/src/hid/usb.h ****         OK,
  25:../../libs/libDaisy/src/hid/usb.h ****         ERR,
  26:../../libs/libDaisy/src/hid/usb.h ****     };
  27:../../libs/libDaisy/src/hid/usb.h **** 
  28:../../libs/libDaisy/src/hid/usb.h ****     /** Specified which of the two USB Peripherals to initialize. */
  29:../../libs/libDaisy/src/hid/usb.h ****     enum UsbPeriph
  30:../../libs/libDaisy/src/hid/usb.h ****     {
  31:../../libs/libDaisy/src/hid/usb.h ****         FS_INTERNAL, /**< Internal pin */
  32:../../libs/libDaisy/src/hid/usb.h ****         FS_EXTERNAL, /**< FS External D+ pin is Pin 38 (GPIO32). FS External D- pin is Pin 37 (GPIO
  33:../../libs/libDaisy/src/hid/usb.h ****         FS_BOTH,     /**< Both */
  34:../../libs/libDaisy/src/hid/usb.h ****     };
  35:../../libs/libDaisy/src/hid/usb.h **** 
  36:../../libs/libDaisy/src/hid/usb.h **** 
  37:../../libs/libDaisy/src/hid/usb.h ****     /** Function called upon reception of a buffer */
  38:../../libs/libDaisy/src/hid/usb.h ****     typedef void (*ReceiveCallback)(uint8_t* buff, uint32_t* len);
  39:../../libs/libDaisy/src/hid/usb.h **** 
  40:../../libs/libDaisy/src/hid/usb.h ****     UsbHandle() {}
ARM GAS  C:\Users\skipi\AppData\Local\Temp\cc2QEVmM.s 			page 5


  41:../../libs/libDaisy/src/hid/usb.h **** 
  42:../../libs/libDaisy/src/hid/usb.h ****     ~UsbHandle() {}
  50              		.loc 4 42 5 is_stmt 1 view .LVU5
  51              		.loc 4 42 5 is_stmt 0 view .LVU6
  52              	.LBE284:
  53              	.LBB285:
  54              	.LBI285:
  55              		.file 5 "../../libs/libDaisy/src/per/adc.h"
   1:../../libs/libDaisy/src/per/adc.h **** #pragma once
   2:../../libs/libDaisy/src/per/adc.h **** #ifndef DSY_ADC_H
   3:../../libs/libDaisy/src/per/adc.h **** #define DSY_ADC_H /**< Macro */
   4:../../libs/libDaisy/src/per/adc.h **** #include <stdint.h>
   5:../../libs/libDaisy/src/per/adc.h **** #include <stdlib.h>
   6:../../libs/libDaisy/src/per/adc.h **** #include "daisy_core.h"
   7:../../libs/libDaisy/src/per/adc.h **** #include "per/gpio.h"
   8:../../libs/libDaisy/src/per/adc.h **** 
   9:../../libs/libDaisy/src/per/adc.h **** #define DSY_ADC_MAX_CHANNELS 16 /**< Maximum number of ADC channels */
  10:../../libs/libDaisy/src/per/adc.h **** 
  11:../../libs/libDaisy/src/per/adc.h **** namespace daisy
  12:../../libs/libDaisy/src/per/adc.h **** {
  13:../../libs/libDaisy/src/per/adc.h **** /** @addtogroup per_analog
  14:../../libs/libDaisy/src/per/adc.h ****     @{
  15:../../libs/libDaisy/src/per/adc.h **** */
  16:../../libs/libDaisy/src/per/adc.h **** 
  17:../../libs/libDaisy/src/per/adc.h **** /* While there may not be many configuration options here,
  18:../../libs/libDaisy/src/per/adc.h **** using a struct like this allows us to add more configuration
  19:../../libs/libDaisy/src/per/adc.h **** later without breaking existing functionality.
  20:../../libs/libDaisy/src/per/adc.h **** */
  21:../../libs/libDaisy/src/per/adc.h **** 
  22:../../libs/libDaisy/src/per/adc.h **** /** @brief   Configuration Structure for an ADC Channel 
  23:../../libs/libDaisy/src/per/adc.h ****  *  @details This can be used to configure a a single input, 
  24:../../libs/libDaisy/src/per/adc.h ****  *           or a multiplexed input, allowing up to 8 inputs on 
  25:../../libs/libDaisy/src/per/adc.h ****  *           one channel.
  26:../../libs/libDaisy/src/per/adc.h ****  *  @note    Sharing data lines to multiple muxes _is_ possible, but
  27:../../libs/libDaisy/src/per/adc.h ****  *           each channel sharing data lines must be set to the maximum
  28:../../libs/libDaisy/src/per/adc.h ****  *           number of channels, even if some multiplexers have fewer
  29:../../libs/libDaisy/src/per/adc.h ****  *           inputs connected.
  30:../../libs/libDaisy/src/per/adc.h **** */
  31:../../libs/libDaisy/src/per/adc.h **** struct AdcChannelConfig
  32:../../libs/libDaisy/src/per/adc.h **** {
  33:../../libs/libDaisy/src/per/adc.h ****     /** Which pin to use for multiplexing */
  34:../../libs/libDaisy/src/per/adc.h ****     enum MuxPin
  35:../../libs/libDaisy/src/per/adc.h ****     {
  36:../../libs/libDaisy/src/per/adc.h ****         MUX_SEL_0,    /**< & */
  37:../../libs/libDaisy/src/per/adc.h ****         MUX_SEL_1,    /**< & */
  38:../../libs/libDaisy/src/per/adc.h ****         MUX_SEL_2,    /**< & */
  39:../../libs/libDaisy/src/per/adc.h ****         MUX_SEL_LAST, /**< & */
  40:../../libs/libDaisy/src/per/adc.h ****     };
  41:../../libs/libDaisy/src/per/adc.h **** 
  42:../../libs/libDaisy/src/per/adc.h ****     /** \brief per channel conversion speed added to fixed time based on bitdepth, etc. */
  43:../../libs/libDaisy/src/per/adc.h ****     enum ConversionSpeed
  44:../../libs/libDaisy/src/per/adc.h ****     {
  45:../../libs/libDaisy/src/per/adc.h ****         SPEED_1CYCLES_5,
  46:../../libs/libDaisy/src/per/adc.h ****         SPEED_2CYCLES_5,
  47:../../libs/libDaisy/src/per/adc.h ****         SPEED_8CYCLES_5,
  48:../../libs/libDaisy/src/per/adc.h ****         SPEED_16CYCLES_5,
  49:../../libs/libDaisy/src/per/adc.h ****         SPEED_32CYCLES_5,
ARM GAS  C:\Users\skipi\AppData\Local\Temp\cc2QEVmM.s 			page 6


  50:../../libs/libDaisy/src/per/adc.h ****         SPEED_64CYCLES_5,
  51:../../libs/libDaisy/src/per/adc.h ****         SPEED_387CYCLES_5,
  52:../../libs/libDaisy/src/per/adc.h ****         SPEED_810CYCLES_5,
  53:../../libs/libDaisy/src/per/adc.h ****     };
  54:../../libs/libDaisy/src/per/adc.h **** 
  55:../../libs/libDaisy/src/per/adc.h ****     /** Initializes a single ADC pin as an ADC. 
  56:../../libs/libDaisy/src/per/adc.h ****     \param pin Pin to init.
  57:../../libs/libDaisy/src/per/adc.h ****     \param speed conversion speed for this pin defaults to 8.5 cycles
  58:../../libs/libDaisy/src/per/adc.h ****      */
  59:../../libs/libDaisy/src/per/adc.h ****     void InitSingle(Pin pin, ConversionSpeed speed = SPEED_8CYCLES_5);
  60:../../libs/libDaisy/src/per/adc.h **** 
  61:../../libs/libDaisy/src/per/adc.h ****     /** 
  62:../../libs/libDaisy/src/per/adc.h ****     Initializes a single ADC pin as a Multiplexed ADC.
  63:../../libs/libDaisy/src/per/adc.h ****     Requires a CD405X Multiplexer connected to the pin.
  64:../../libs/libDaisy/src/per/adc.h ****     You only need to supply the mux pins that are required,
  65:../../libs/libDaisy/src/per/adc.h ****     e.g. a 4052 mux would only require mux_0 and mux_1.
  66:../../libs/libDaisy/src/per/adc.h ****     Internal Callbacks handle the pin addressing.
  67:../../libs/libDaisy/src/per/adc.h ****     \param adc_pin &
  68:../../libs/libDaisy/src/per/adc.h ****     \param mux_channels must be 1-8
  69:../../libs/libDaisy/src/per/adc.h ****     \param mux_0 First mux pin
  70:../../libs/libDaisy/src/per/adc.h ****     \param mux_1 Second mux pin
  71:../../libs/libDaisy/src/per/adc.h ****     \param mux_2 Third mux pin
  72:../../libs/libDaisy/src/per/adc.h ****     \param speed conversion speed for this pin defaults to 8.5 cycles
  73:../../libs/libDaisy/src/per/adc.h ****     */
  74:../../libs/libDaisy/src/per/adc.h ****     void InitMux(Pin             adc_pin,
  75:../../libs/libDaisy/src/per/adc.h ****                  size_t          mux_channels,
  76:../../libs/libDaisy/src/per/adc.h ****                  Pin             mux_0,
  77:../../libs/libDaisy/src/per/adc.h ****                  Pin             mux_1 = Pin(PORTX, 0),
  78:../../libs/libDaisy/src/per/adc.h ****                  Pin             mux_2 = Pin(PORTX, 0),
  79:../../libs/libDaisy/src/per/adc.h ****                  ConversionSpeed speed = SPEED_8CYCLES_5);
  80:../../libs/libDaisy/src/per/adc.h **** 
  81:../../libs/libDaisy/src/per/adc.h ****     GPIO            pin_;                   /**< & */
  82:../../libs/libDaisy/src/per/adc.h ****     GPIO            mux_pin_[MUX_SEL_LAST]; /**< & */
  83:../../libs/libDaisy/src/per/adc.h ****     uint8_t         mux_channels_;          /**< & */
  84:../../libs/libDaisy/src/per/adc.h ****     ConversionSpeed speed_;
  85:../../libs/libDaisy/src/per/adc.h **** };
  86:../../libs/libDaisy/src/per/adc.h **** 
  87:../../libs/libDaisy/src/per/adc.h **** /**
  88:../../libs/libDaisy/src/per/adc.h ****    @brief Handler for analog to digital conversion
  89:../../libs/libDaisy/src/per/adc.h **** */
  90:../../libs/libDaisy/src/per/adc.h **** class AdcHandle
  91:../../libs/libDaisy/src/per/adc.h **** {
  92:../../libs/libDaisy/src/per/adc.h ****   public:
  93:../../libs/libDaisy/src/per/adc.h ****     /** Supported oversampling amounts */
  94:../../libs/libDaisy/src/per/adc.h ****     enum OverSampling
  95:../../libs/libDaisy/src/per/adc.h ****     {
  96:../../libs/libDaisy/src/per/adc.h ****         OVS_NONE, /**< & */
  97:../../libs/libDaisy/src/per/adc.h ****         OVS_4,    /**< & */
  98:../../libs/libDaisy/src/per/adc.h ****         OVS_8,    /**< & */
  99:../../libs/libDaisy/src/per/adc.h ****         OVS_16,   /**< & */
 100:../../libs/libDaisy/src/per/adc.h ****         OVS_32,   /**< & */
 101:../../libs/libDaisy/src/per/adc.h ****         OVS_64,   /**< & */
 102:../../libs/libDaisy/src/per/adc.h ****         OVS_128,  /**< & */
 103:../../libs/libDaisy/src/per/adc.h ****         OVS_256,  /**< & */
 104:../../libs/libDaisy/src/per/adc.h ****         OVS_512,  /**< & */
 105:../../libs/libDaisy/src/per/adc.h ****         OVS_1024, /**< & */
 106:../../libs/libDaisy/src/per/adc.h ****         OVS_LAST, /**< & */
ARM GAS  C:\Users\skipi\AppData\Local\Temp\cc2QEVmM.s 			page 7


 107:../../libs/libDaisy/src/per/adc.h ****     };
 108:../../libs/libDaisy/src/per/adc.h **** 
 109:../../libs/libDaisy/src/per/adc.h ****     AdcHandle() {}
 110:../../libs/libDaisy/src/per/adc.h ****     ~AdcHandle() {}
  56              		.loc 5 110 5 is_stmt 1 view .LVU7
  57              		.loc 5 110 5 is_stmt 0 view .LVU8
  58              	.LBE285:
  59              	.LBB286:
  60              	.LBI286:
  61              		.file 6 "../../libs/libDaisy/src/hid/audio.h"
   1:../../libs/libDaisy/src/hid/audio.h **** #ifndef DSY_AUDIO_H
   2:../../libs/libDaisy/src/hid/audio.h **** #define DSY_AUDIO_H /**< & */
   3:../../libs/libDaisy/src/hid/audio.h **** 
   4:../../libs/libDaisy/src/hid/audio.h **** #include "per/sai.h"
   5:../../libs/libDaisy/src/hid/audio.h **** 
   6:../../libs/libDaisy/src/hid/audio.h **** namespace daisy
   7:../../libs/libDaisy/src/hid/audio.h **** {
   8:../../libs/libDaisy/src/hid/audio.h **** /** @brief Audio Engine Handle
   9:../../libs/libDaisy/src/hid/audio.h ****  *  @ingroup audio 
  10:../../libs/libDaisy/src/hid/audio.h ****  *  @details This class allows for higher level access to an audio engine.
  11:../../libs/libDaisy/src/hid/audio.h ****  *           If you're using a SOM like the DaisySeed or DaisyPatchSM (or any 
  12:../../libs/libDaisy/src/hid/audio.h ****  *            board that includes one of those objects) then the intialization
  13:../../libs/libDaisy/src/hid/audio.h ****  *            is already taken  care of.
  14:../../libs/libDaisy/src/hid/audio.h ****  *           If you're setting up your own custom hardware, or need to make changes
  15:../../libs/libDaisy/src/hid/audio.h ****  *           you will have to take the following steps:
  16:../../libs/libDaisy/src/hid/audio.h ****  *             1. Create and Initialize an SaiHandle or two depending on your requirements
  17:../../libs/libDaisy/src/hid/audio.h ****  *             2. Initialize the Audio Handle with the desired settings and the Initialized SaiHand
  18:../../libs/libDaisy/src/hid/audio.h ****  *             3. If the connected codec requires special configuration or initialization, do so
  19:../../libs/libDaisy/src/hid/audio.h ****  *             4. Write a callback method using either the AudioCallback or the InterleavingAudioCa
  20:../../libs/libDaisy/src/hid/audio.h ****  *             5. Start the Audio using one of the StartAudio function
  21:../../libs/libDaisy/src/hid/audio.h ****  */
  22:../../libs/libDaisy/src/hid/audio.h **** class AudioHandle
  23:../../libs/libDaisy/src/hid/audio.h **** {
  24:../../libs/libDaisy/src/hid/audio.h ****   public:
  25:../../libs/libDaisy/src/hid/audio.h ****     /** Manually configurable details about the Audio Engine */
  26:../../libs/libDaisy/src/hid/audio.h ****     /** TODO: Figure out how to get samplerate in here. */
  27:../../libs/libDaisy/src/hid/audio.h ****     struct Config
  28:../../libs/libDaisy/src/hid/audio.h ****     {
  29:../../libs/libDaisy/src/hid/audio.h ****         /** number of samples to process per callback */
  30:../../libs/libDaisy/src/hid/audio.h ****         size_t blocksize = 48;
  31:../../libs/libDaisy/src/hid/audio.h **** 
  32:../../libs/libDaisy/src/hid/audio.h ****         /**< Sample rate of audio */
  33:../../libs/libDaisy/src/hid/audio.h ****         SaiHandle::Config::SampleRate samplerate
  34:../../libs/libDaisy/src/hid/audio.h ****             = SaiHandle::Config::SampleRate::SAI_48KHZ;
  35:../../libs/libDaisy/src/hid/audio.h **** 
  36:../../libs/libDaisy/src/hid/audio.h ****         /** factor for adjustment before and after callback for hardware that may have extra headro
  37:../../libs/libDaisy/src/hid/audio.h ****         float postgain = 1.f;
  38:../../libs/libDaisy/src/hid/audio.h **** 
  39:../../libs/libDaisy/src/hid/audio.h ****         /** factor for additional one-sided compensation to audio path for hardware that may
  40:../../libs/libDaisy/src/hid/audio.h ****          *  have unequal input/output ranges
  41:../../libs/libDaisy/src/hid/audio.h ****          */
  42:../../libs/libDaisy/src/hid/audio.h ****         float output_compensation = 1.f;
  43:../../libs/libDaisy/src/hid/audio.h ****     };
  44:../../libs/libDaisy/src/hid/audio.h **** 
  45:../../libs/libDaisy/src/hid/audio.h ****     enum class Result
  46:../../libs/libDaisy/src/hid/audio.h ****     {
  47:../../libs/libDaisy/src/hid/audio.h ****         OK,
ARM GAS  C:\Users\skipi\AppData\Local\Temp\cc2QEVmM.s 			page 8


  48:../../libs/libDaisy/src/hid/audio.h ****         ERR,
  49:../../libs/libDaisy/src/hid/audio.h ****     };
  50:../../libs/libDaisy/src/hid/audio.h **** 
  51:../../libs/libDaisy/src/hid/audio.h ****     /** Non-Interleaving input buffer
  52:../../libs/libDaisy/src/hid/audio.h ****      * Buffer arranged by float[chn][sample] 
  53:../../libs/libDaisy/src/hid/audio.h ****      * const so that the user can't modify the input
  54:../../libs/libDaisy/src/hid/audio.h ****      */
  55:../../libs/libDaisy/src/hid/audio.h ****     typedef const float* const* InputBuffer;
  56:../../libs/libDaisy/src/hid/audio.h **** 
  57:../../libs/libDaisy/src/hid/audio.h ****     /** Non-Interleaving output buffer
  58:../../libs/libDaisy/src/hid/audio.h ****      * Arranged by float[chn][sample] 
  59:../../libs/libDaisy/src/hid/audio.h ****      */
  60:../../libs/libDaisy/src/hid/audio.h ****     typedef float** OutputBuffer;
  61:../../libs/libDaisy/src/hid/audio.h **** 
  62:../../libs/libDaisy/src/hid/audio.h ****     /** Type for a Non-Interleaving audio callback 
  63:../../libs/libDaisy/src/hid/audio.h ****      * Non-Interleaving audio callbacks in daisy will be of this type
  64:../../libs/libDaisy/src/hid/audio.h ****      */
  65:../../libs/libDaisy/src/hid/audio.h ****     typedef void (*AudioCallback)(InputBuffer  in,
  66:../../libs/libDaisy/src/hid/audio.h ****                                   OutputBuffer out,
  67:../../libs/libDaisy/src/hid/audio.h ****                                   size_t       size);
  68:../../libs/libDaisy/src/hid/audio.h **** 
  69:../../libs/libDaisy/src/hid/audio.h ****     /** Interleaving Input buffer
  70:../../libs/libDaisy/src/hid/audio.h ****      ** audio is prepared as { L0, R0, L1, R1, . . . LN, RN }]
  71:../../libs/libDaisy/src/hid/audio.h ****      ** this is const, as the user shouldn't modify it
  72:../../libs/libDaisy/src/hid/audio.h ****     */
  73:../../libs/libDaisy/src/hid/audio.h ****     typedef const float* InterleavingInputBuffer;
  74:../../libs/libDaisy/src/hid/audio.h **** 
  75:../../libs/libDaisy/src/hid/audio.h ****     /** Interleaving Output buffer 
  76:../../libs/libDaisy/src/hid/audio.h ****      ** audio is prepared as { L0, R0, L1, R1, . . . LN, RN }
  77:../../libs/libDaisy/src/hid/audio.h ****     */
  78:../../libs/libDaisy/src/hid/audio.h ****     typedef float* InterleavingOutputBuffer;
  79:../../libs/libDaisy/src/hid/audio.h **** 
  80:../../libs/libDaisy/src/hid/audio.h ****     /** Interleaving Audio Callback 
  81:../../libs/libDaisy/src/hid/audio.h ****      * Interleaving audio callbacks in daisy must be of this type
  82:../../libs/libDaisy/src/hid/audio.h ****      */
  83:../../libs/libDaisy/src/hid/audio.h ****     typedef void (*InterleavingAudioCallback)(InterleavingInputBuffer  in,
  84:../../libs/libDaisy/src/hid/audio.h ****                                               InterleavingOutputBuffer out,
  85:../../libs/libDaisy/src/hid/audio.h ****                                               size_t                   size);
  86:../../libs/libDaisy/src/hid/audio.h **** 
  87:../../libs/libDaisy/src/hid/audio.h ****     AudioHandle() : pimpl_(nullptr) {}
  88:../../libs/libDaisy/src/hid/audio.h ****     ~AudioHandle() {}
  62              		.loc 6 88 5 is_stmt 1 view .LVU9
  63              		.loc 6 88 5 is_stmt 0 view .LVU10
  64              	.LBE286:
  65              		.loc 1 22 19 view .LVU11
  66 0000 7047     		bx	lr
  67              		.cfi_endproc
  68              	.LFE2645:
  70              		.weak	_ZN5daisy9DaisySeedD1Ev
  71              		.thumb_set _ZN5daisy9DaisySeedD1Ev,_ZN5daisy9DaisySeedD2Ev
  72 0002 00BF     		.section	.text._ZN7daisysp4AdsrD2Ev,"axG",%progbits,_ZN7daisysp4AdsrD5Ev,comdat
  73              		.align	1
  74              		.p2align 2,,3
  75              		.weak	_ZN7daisysp4AdsrD2Ev
  76              		.syntax unified
  77              		.thumb
  78              		.thumb_func
ARM GAS  C:\Users\skipi\AppData\Local\Temp\cc2QEVmM.s 			page 9


  79              		.fpu fpv5-d16
  81              	_ZN7daisysp4AdsrD2Ev:
  82              	.LVL1:
  83              	.LFB2668:
  84              		.file 7 "../../libs/DaisySP/Source/Control/adsr.h"
   1:../../libs/DaisySP/Source/Control/adsr.h **** /*
   2:../../libs/DaisySP/Source/Control/adsr.h **** Copyright (c) 2020 Electrosmith, Corp, Paul Batchelor
   3:../../libs/DaisySP/Source/Control/adsr.h **** 
   4:../../libs/DaisySP/Source/Control/adsr.h **** Use of this source code is governed by an MIT-style
   5:../../libs/DaisySP/Source/Control/adsr.h **** license that can be found in the LICENSE file or at
   6:../../libs/DaisySP/Source/Control/adsr.h **** https://opensource.org/licenses/MIT.
   7:../../libs/DaisySP/Source/Control/adsr.h **** */
   8:../../libs/DaisySP/Source/Control/adsr.h **** 
   9:../../libs/DaisySP/Source/Control/adsr.h **** #pragma once
  10:../../libs/DaisySP/Source/Control/adsr.h **** #ifndef DSY_ADSR_H
  11:../../libs/DaisySP/Source/Control/adsr.h **** #define DSY_ADSR_H
  12:../../libs/DaisySP/Source/Control/adsr.h **** 
  13:../../libs/DaisySP/Source/Control/adsr.h **** #include <stdint.h>
  14:../../libs/DaisySP/Source/Control/adsr.h **** #ifdef __cplusplus
  15:../../libs/DaisySP/Source/Control/adsr.h **** 
  16:../../libs/DaisySP/Source/Control/adsr.h **** namespace daisysp
  17:../../libs/DaisySP/Source/Control/adsr.h **** {
  18:../../libs/DaisySP/Source/Control/adsr.h **** /** Distinct stages that the phase of the envelope can be located in.
  19:../../libs/DaisySP/Source/Control/adsr.h **** - IDLE   = located at phase location 0, and not currently running
  20:../../libs/DaisySP/Source/Control/adsr.h **** - ATTACK  = First segment of envelope where phase moves from 0 to 1
  21:../../libs/DaisySP/Source/Control/adsr.h **** - DECAY   = Second segment of envelope where phase moves from 1 to SUSTAIN value
  22:../../libs/DaisySP/Source/Control/adsr.h **** - RELEASE =     Fourth segment of envelop where phase moves from SUSTAIN to 0
  23:../../libs/DaisySP/Source/Control/adsr.h **** */
  24:../../libs/DaisySP/Source/Control/adsr.h **** enum
  25:../../libs/DaisySP/Source/Control/adsr.h **** {
  26:../../libs/DaisySP/Source/Control/adsr.h ****     ADSR_SEG_IDLE    = 0,
  27:../../libs/DaisySP/Source/Control/adsr.h ****     ADSR_SEG_ATTACK  = 1,
  28:../../libs/DaisySP/Source/Control/adsr.h ****     ADSR_SEG_DECAY   = 2,
  29:../../libs/DaisySP/Source/Control/adsr.h ****     ADSR_SEG_RELEASE = 4
  30:../../libs/DaisySP/Source/Control/adsr.h **** };
  31:../../libs/DaisySP/Source/Control/adsr.h **** 
  32:../../libs/DaisySP/Source/Control/adsr.h **** 
  33:../../libs/DaisySP/Source/Control/adsr.h **** /** adsr envelope module
  34:../../libs/DaisySP/Source/Control/adsr.h **** 
  35:../../libs/DaisySP/Source/Control/adsr.h **** Original author(s) : Paul Batchelor
  36:../../libs/DaisySP/Source/Control/adsr.h **** 
  37:../../libs/DaisySP/Source/Control/adsr.h **** Ported from Soundpipe by Ben Sergentanis, May 2020
  38:../../libs/DaisySP/Source/Control/adsr.h ****  
  39:../../libs/DaisySP/Source/Control/adsr.h **** Remake by Steffan DIedrichsen, May 2021
  40:../../libs/DaisySP/Source/Control/adsr.h **** */
  41:../../libs/DaisySP/Source/Control/adsr.h **** class Adsr
  42:../../libs/DaisySP/Source/Control/adsr.h **** {
  43:../../libs/DaisySP/Source/Control/adsr.h ****   public:
  44:../../libs/DaisySP/Source/Control/adsr.h ****     Adsr() {}
  45:../../libs/DaisySP/Source/Control/adsr.h ****     ~Adsr() {}
  85              		.loc 7 45 5 is_stmt 1 view -0
  86              		.cfi_startproc
  87              		@ args = 0, pretend = 0, frame = 0
  88              		@ frame_needed = 0, uses_anonymous_args = 0
  89              		@ link register save eliminated.
  90              		.loc 7 45 14 is_stmt 0 view .LVU13
  91 0000 7047     		bx	lr
ARM GAS  C:\Users\skipi\AppData\Local\Temp\cc2QEVmM.s 			page 10


  92              		.cfi_endproc
  93              	.LFE2668:
  95              		.weak	_ZN7daisysp4AdsrD1Ev
  96              		.thumb_set _ZN7daisysp4AdsrD1Ev,_ZN7daisysp4AdsrD2Ev
  97              		.section	.text._ZN7daisysp10OscillatorD2Ev,"axG",%progbits,_ZN7daisysp10OscillatorD5Ev,comdat
  98              		.align	1
  99              		.p2align 2,,3
 100              		.weak	_ZN7daisysp10OscillatorD2Ev
 101              		.syntax unified
 102              		.thumb
 103              		.thumb_func
 104              		.fpu fpv5-d16
 106              	_ZN7daisysp10OscillatorD2Ev:
 107              	.LVL2:
 108              	.LFB4330:
 109              		.file 8 "../../libs/DaisySP/Source/Synthesis/oscillator.h"
   1:../../libs/DaisySP/Source/Synthesis/oscillator.h **** /*
   2:../../libs/DaisySP/Source/Synthesis/oscillator.h **** Copyright (c) 2020 Electrosmith, Corp
   3:../../libs/DaisySP/Source/Synthesis/oscillator.h **** 
   4:../../libs/DaisySP/Source/Synthesis/oscillator.h **** Use of this source code is governed by an MIT-style
   5:../../libs/DaisySP/Source/Synthesis/oscillator.h **** license that can be found in the LICENSE file or at
   6:../../libs/DaisySP/Source/Synthesis/oscillator.h **** https://opensource.org/licenses/MIT.
   7:../../libs/DaisySP/Source/Synthesis/oscillator.h **** */
   8:../../libs/DaisySP/Source/Synthesis/oscillator.h **** 
   9:../../libs/DaisySP/Source/Synthesis/oscillator.h **** #pragma once
  10:../../libs/DaisySP/Source/Synthesis/oscillator.h **** #ifndef DSY_OSCILLATOR_H
  11:../../libs/DaisySP/Source/Synthesis/oscillator.h **** #define DSY_OSCILLATOR_H
  12:../../libs/DaisySP/Source/Synthesis/oscillator.h **** #include <stdint.h>
  13:../../libs/DaisySP/Source/Synthesis/oscillator.h **** #include "Utility/dsp.h"
  14:../../libs/DaisySP/Source/Synthesis/oscillator.h **** #ifdef __cplusplus
  15:../../libs/DaisySP/Source/Synthesis/oscillator.h **** 
  16:../../libs/DaisySP/Source/Synthesis/oscillator.h **** namespace daisysp
  17:../../libs/DaisySP/Source/Synthesis/oscillator.h **** {
  18:../../libs/DaisySP/Source/Synthesis/oscillator.h **** /** Synthesis of several waveforms, including polyBLEP bandlimited waveforms.
  19:../../libs/DaisySP/Source/Synthesis/oscillator.h **** */
  20:../../libs/DaisySP/Source/Synthesis/oscillator.h **** class Oscillator
  21:../../libs/DaisySP/Source/Synthesis/oscillator.h **** {
  22:../../libs/DaisySP/Source/Synthesis/oscillator.h ****   public:
  23:../../libs/DaisySP/Source/Synthesis/oscillator.h ****     Oscillator() {}
  24:../../libs/DaisySP/Source/Synthesis/oscillator.h ****     ~Oscillator() {}
 110              		.loc 8 24 5 is_stmt 1 view -0
 111              		.cfi_startproc
 112              		@ args = 0, pretend = 0, frame = 0
 113              		@ frame_needed = 0, uses_anonymous_args = 0
 114              		@ link register save eliminated.
 115              		.loc 8 24 20 is_stmt 0 view .LVU15
 116 0000 7047     		bx	lr
 117              		.cfi_endproc
 118              	.LFE4330:
 120              		.weak	_ZN7daisysp10OscillatorD1Ev
 121              		.thumb_set _ZN7daisysp10OscillatorD1Ev,_ZN7daisysp10OscillatorD2Ev
 122              		.section	.text._ZN7daisysp3SvfD2Ev,"axG",%progbits,_ZN7daisysp3SvfD5Ev,comdat
 123              		.align	1
 124              		.p2align 2,,3
 125              		.weak	_ZN7daisysp3SvfD2Ev
 126              		.syntax unified
 127              		.thumb
ARM GAS  C:\Users\skipi\AppData\Local\Temp\cc2QEVmM.s 			page 11


 128              		.thumb_func
 129              		.fpu fpv5-d16
 131              	_ZN7daisysp3SvfD2Ev:
 132              	.LVL3:
 133              	.LFB4347:
 134              		.file 9 "../../libs/DaisySP/Source/Filters/svf.h"
   1:../../libs/DaisySP/Source/Filters/svf.h **** /*
   2:../../libs/DaisySP/Source/Filters/svf.h **** Copyright (c) 2020 Electrosmith, Corp
   3:../../libs/DaisySP/Source/Filters/svf.h **** 
   4:../../libs/DaisySP/Source/Filters/svf.h **** Use of this source code is governed by an MIT-style
   5:../../libs/DaisySP/Source/Filters/svf.h **** license that can be found in the LICENSE file or at
   6:../../libs/DaisySP/Source/Filters/svf.h **** https://opensource.org/licenses/MIT.
   7:../../libs/DaisySP/Source/Filters/svf.h **** */
   8:../../libs/DaisySP/Source/Filters/svf.h **** 
   9:../../libs/DaisySP/Source/Filters/svf.h **** #pragma once
  10:../../libs/DaisySP/Source/Filters/svf.h **** #ifndef DSY_SVF_H
  11:../../libs/DaisySP/Source/Filters/svf.h **** #define DSY_SVF_H
  12:../../libs/DaisySP/Source/Filters/svf.h **** 
  13:../../libs/DaisySP/Source/Filters/svf.h **** namespace daisysp
  14:../../libs/DaisySP/Source/Filters/svf.h **** {
  15:../../libs/DaisySP/Source/Filters/svf.h **** /**      Double Sampled, Stable State Variable Filter
  16:../../libs/DaisySP/Source/Filters/svf.h **** 
  17:../../libs/DaisySP/Source/Filters/svf.h **** Credit to Andrew Simper from musicdsp.org
  18:../../libs/DaisySP/Source/Filters/svf.h **** 
  19:../../libs/DaisySP/Source/Filters/svf.h **** This is his "State Variable Filter (Double Sampled, Stable)"
  20:../../libs/DaisySP/Source/Filters/svf.h **** 
  21:../../libs/DaisySP/Source/Filters/svf.h **** Additional thanks to Laurent de Soras for stability limit, and 
  22:../../libs/DaisySP/Source/Filters/svf.h **** Stefan Diedrichsen for the correct notch output
  23:../../libs/DaisySP/Source/Filters/svf.h **** 
  24:../../libs/DaisySP/Source/Filters/svf.h **** Ported by: Stephen Hensley
  25:../../libs/DaisySP/Source/Filters/svf.h **** */
  26:../../libs/DaisySP/Source/Filters/svf.h **** class Svf
  27:../../libs/DaisySP/Source/Filters/svf.h **** {
  28:../../libs/DaisySP/Source/Filters/svf.h ****   public:
  29:../../libs/DaisySP/Source/Filters/svf.h ****     Svf() {}
  30:../../libs/DaisySP/Source/Filters/svf.h ****     ~Svf() {}
 135              		.loc 9 30 5 is_stmt 1 view -0
 136              		.cfi_startproc
 137              		@ args = 0, pretend = 0, frame = 0
 138              		@ frame_needed = 0, uses_anonymous_args = 0
 139              		@ link register save eliminated.
 140              		.loc 9 30 13 is_stmt 0 view .LVU17
 141 0000 7047     		bx	lr
 142              		.cfi_endproc
 143              	.LFE4347:
 145              		.weak	_ZN7daisysp3SvfD1Ev
 146              		.thumb_set _ZN7daisysp3SvfD1Ev,_ZN7daisysp3SvfD2Ev
 147              		.section	.text._ZN7daisysp5MetroD2Ev,"axG",%progbits,_ZN7daisysp5MetroD5Ev,comdat
 148              		.align	1
 149              		.p2align 2,,3
 150              		.weak	_ZN7daisysp5MetroD2Ev
 151              		.syntax unified
 152              		.thumb
 153              		.thumb_func
 154              		.fpu fpv5-d16
 156              	_ZN7daisysp5MetroD2Ev:
 157              	.LVL4:
ARM GAS  C:\Users\skipi\AppData\Local\Temp\cc2QEVmM.s 			page 12


 158              	.LFB4793:
 159              		.file 10 "../../libs/DaisySP/Source/Utility/metro.h"
   1:../../libs/DaisySP/Source/Utility/metro.h **** /*
   2:../../libs/DaisySP/Source/Utility/metro.h **** Copyright (c) 2020 Electrosmith, Corp
   3:../../libs/DaisySP/Source/Utility/metro.h **** 
   4:../../libs/DaisySP/Source/Utility/metro.h **** Use of this source code is governed by an MIT-style
   5:../../libs/DaisySP/Source/Utility/metro.h **** license that can be found in the LICENSE file or at
   6:../../libs/DaisySP/Source/Utility/metro.h **** https://opensource.org/licenses/MIT.
   7:../../libs/DaisySP/Source/Utility/metro.h **** */
   8:../../libs/DaisySP/Source/Utility/metro.h **** 
   9:../../libs/DaisySP/Source/Utility/metro.h **** #pragma once
  10:../../libs/DaisySP/Source/Utility/metro.h **** #ifndef DSY_METRO_H
  11:../../libs/DaisySP/Source/Utility/metro.h **** #define DSY_METRO_H
  12:../../libs/DaisySP/Source/Utility/metro.h **** #include <stdint.h>
  13:../../libs/DaisySP/Source/Utility/metro.h **** #ifdef __cplusplus
  14:../../libs/DaisySP/Source/Utility/metro.h **** 
  15:../../libs/DaisySP/Source/Utility/metro.h **** namespace daisysp
  16:../../libs/DaisySP/Source/Utility/metro.h **** {
  17:../../libs/DaisySP/Source/Utility/metro.h **** /** Creates a clock signal at a specific frequency.
  18:../../libs/DaisySP/Source/Utility/metro.h **** */
  19:../../libs/DaisySP/Source/Utility/metro.h **** class Metro
  20:../../libs/DaisySP/Source/Utility/metro.h **** {
  21:../../libs/DaisySP/Source/Utility/metro.h ****   public:
  22:../../libs/DaisySP/Source/Utility/metro.h ****     Metro() {}
  23:../../libs/DaisySP/Source/Utility/metro.h ****     ~Metro() {}
 160              		.loc 10 23 5 is_stmt 1 view -0
 161              		.cfi_startproc
 162              		@ args = 0, pretend = 0, frame = 0
 163              		@ frame_needed = 0, uses_anonymous_args = 0
 164              		@ link register save eliminated.
 165              		.loc 10 23 15 is_stmt 0 view .LVU19
 166 0000 7047     		bx	lr
 167              		.cfi_endproc
 168              	.LFE4793:
 170              		.weak	_ZN7daisysp5MetroD1Ev
 171              		.thumb_set _ZN7daisysp5MetroD1Ev,_ZN7daisysp5MetroD2Ev
 172              		.section	.text._Z13AudioCallbackPKPKfPPfj,"ax",%progbits
 173              		.align	1
 174              		.p2align 2,,3
 175              		.global	_Z13AudioCallbackPKPKfPPfj
 176              		.syntax unified
 177              		.thumb
 178              		.thumb_func
 179              		.fpu fpv5-d16
 181              	_Z13AudioCallbackPKPKfPPfj:
 182              	.LVL5:
 183              	.LFB4819:
 184              		.file 11 "mainPot.cpp"
   1:mainPot.cpp   **** // Inclusion of necessary libraries
   2:mainPot.cpp   **** #include "daisy_seed.h" // Main library for the Daisy Seed board
   3:mainPot.cpp   **** #include "daisysp.h"    // DSP library for Daisy
   4:mainPot.cpp   **** #include "Ramo.h"       // Library for the Ramo synth
   5:mainPot.cpp   **** 
   6:mainPot.cpp   **** //#include "AnalogDelay.h" // Libreria custom per l'effetto delay analogico
   7:mainPot.cpp   **** 
   8:mainPot.cpp   **** #define ADC_CH 6 // Numero di canali ADC da utilizzare
   9:mainPot.cpp   **** 
ARM GAS  C:\Users\skipi\AppData\Local\Temp\cc2QEVmM.s 			page 13


  10:mainPot.cpp   **** // Using namespaces to simplify code writing
  11:mainPot.cpp   **** using namespace daisy;
  12:mainPot.cpp   **** using namespace daisysp;
  13:mainPot.cpp   **** 
  14:mainPot.cpp   **** // Initialization of objects and global variables
  15:mainPot.cpp   **** static DaisySeed hw;                                             // Main object for managing Daisy 
  16:mainPot.cpp   **** AdcChannelConfig adcConfig[ADC_CH]; // Array di configurazione per 3 canali ADC
  17:mainPot.cpp   **** static Metro      tick1, tick2, tick3; // Metronome objects for timing
  18:mainPot.cpp   **** 
  19:mainPot.cpp   **** 
  20:mainPot.cpp   **** static Ramo Pluck;                                                // Object for the Ramo synth
  21:mainPot.cpp   **** static Ramo Bass;
  22:mainPot.cpp   **** static Ramo Pad;                                                // Object for the Ramo synth
  23:mainPot.cpp   **** 
  24:mainPot.cpp   **** static Oscillator lfo_Pluck;
  25:mainPot.cpp   **** static Oscillator lfo_Bass;
  26:mainPot.cpp   **** static Oscillator lfo_Pad;                                     // LFO object for modulation
  27:mainPot.cpp   **** 
  28:mainPot.cpp   **** static Adsr AmpEnv_Pluck;                                          // Envelope object for amplitude
  29:mainPot.cpp   **** static Adsr AmpEnv_Bass;
  30:mainPot.cpp   **** static Adsr AmpEnv_Pad;                                          // Envelope object for amplitude
  31:mainPot.cpp   **** 
  32:mainPot.cpp   **** static Adsr FilterEnv_Pluck;                                       // Envelope object for filter
  33:mainPot.cpp   **** static Adsr FilterEnv_Bass;
  34:mainPot.cpp   **** static Adsr FilterEnv_Pad;                                       // Envelope object for filter
  35:mainPot.cpp   **** 
  36:mainPot.cpp   **** static Svf filter_Pluck;                                          // Filter object for the synth
  37:mainPot.cpp   **** static Svf filter_Bass;
  38:mainPot.cpp   **** static Svf filter_Pad;                                          // Filter object for the synth
  39:mainPot.cpp   **** 
  40:mainPot.cpp   **** //AnalogDelay delay;                                              // Oggetto per gestire l'effetto 
  41:mainPot.cpp   **** 
  42:mainPot.cpp   **** uint8_t wf_Pluck[n] = {2,1};                                          // Array for waveforms
  43:mainPot.cpp   **** uint8_t wf_Bass[n] = {3,3}; 
  44:mainPot.cpp   **** uint8_t wf_Pad[n] = {3,2}; 
  45:mainPot.cpp   **** 
  46:mainPot.cpp   **** float ef_Pluck[n] = {1, 1};                                            // Array for detune
  47:mainPot.cpp   **** float ef_Bass[n] = {1, 1};
  48:mainPot.cpp   **** float ef_Pad[n] = {1, 1};
  49:mainPot.cpp   **** 
  50:mainPot.cpp   **** float g_Pluck[n] = {0.5f, 0.5f};                                       // Array for amplitude
  51:mainPot.cpp   **** float g_Bass[n] = {0.5f, 0.5f};
  52:mainPot.cpp   **** float g_Pad[n] = {0.5f, 0.5f};                                       
  53:mainPot.cpp   **** 
  54:mainPot.cpp   **** float f_lfo_Pluck;                                                         
  55:mainPot.cpp   **** float f_lfo_Bass;                                                           
  56:mainPot.cpp   **** float f_lfo_Pad;                                                         
  57:mainPot.cpp   **** 
  58:mainPot.cpp   **** float shape_Pluck;                                                    
  59:mainPot.cpp   **** float shape_Bass;                                                     
  60:mainPot.cpp   **** float shape_Pad;                                                    
  61:mainPot.cpp   **** 
  62:mainPot.cpp   **** float f_Pluck;
  63:mainPot.cpp   **** float f_Bass;
  64:mainPot.cpp   **** float f_Pad;                                                         // Frequency
  65:mainPot.cpp   **** 
  66:mainPot.cpp   **** bool Gate_Pluck;                                                     // Gate signal for Pluck
ARM GAS  C:\Users\skipi\AppData\Local\Temp\cc2QEVmM.s 			page 14


  67:mainPot.cpp   **** bool Gate_Bass;                                                     // Gate signal for Bass
  68:mainPot.cpp   **** bool Gate_Pad;                                                      // Gate signal for Pad
  69:mainPot.cpp   **** 
  70:mainPot.cpp   **** 
  71:mainPot.cpp   **** float amp_env_Pluck, amp_env_Bass, amp_env_Pad;                           // Amplitude envelope var
  72:mainPot.cpp   **** float filt_env_Pluck, filt_env_Bass, filt_env_Pad;                           // Filter envelope var
  73:mainPot.cpp   **** 
  74:mainPot.cpp   **** 
  75:mainPot.cpp   **** float Raw_Pluck, Raw_Bass, Raw_Pad;                                   // Raw signal variables
  76:mainPot.cpp   **** 
  77:mainPot.cpp   **** 
  78:mainPot.cpp   **** float out_noFX;                                                     // Output signal variable
  79:mainPot.cpp   ****                                                      // Delay time variable
  80:mainPot.cpp   **** float time, delayTime;  // Tempo del delay
  81:mainPot.cpp   **** 
  82:mainPot.cpp   **** 
  83:mainPot.cpp   **** const float MIN_DELAY = 0.02f;  // 20ms minimo delay
  84:mainPot.cpp   **** const float MAX_DELAY = 1.0f;   // 1000ms massimo delay
  85:mainPot.cpp   **** 
  86:mainPot.cpp   **** float LogScale(float pos, float min_value, float max_value) {
  87:mainPot.cpp   ****     // Implementa una scala logaritmica tra min_value e max_value
  88:mainPot.cpp   ****     float min_log = logf(min_value);
  89:mainPot.cpp   ****     float max_log = logf(max_value);
  90:mainPot.cpp   ****     float exp_scale = min_log + (max_log - min_log) * pos;
  91:mainPot.cpp   ****     return expf(exp_scale);
  92:mainPot.cpp   **** }
  93:mainPot.cpp   **** 
  94:mainPot.cpp   **** 
  95:mainPot.cpp   **** void InitHardware() {
  96:mainPot.cpp   ****     
  97:mainPot.cpp   ****     // Inizializzazione dei tre pin ADC per i potenziometri
  98:mainPot.cpp   ****     adcConfig[0].InitSingle(hw.GetPin(15)); // Primo potenziometro
  99:mainPot.cpp   ****     adcConfig[1].InitSingle(hw.GetPin(16)); // Secondo potenziometro
 100:mainPot.cpp   ****     adcConfig[2].InitSingle(hw.GetPin(17)); // Terzo potenziometro
 101:mainPot.cpp   ****     adcConfig[3].InitSingle(hw.GetPin(18)); // Quarto potenziometro
 102:mainPot.cpp   ****     adcConfig[4].InitSingle(hw.GetPin(19)); // Quinto potenziometro
 103:mainPot.cpp   ****     adcConfig[5].InitSingle(hw.GetPin(20)); // Sesto potenziometro
 104:mainPot.cpp   ****     hw.adc.Init(adcConfig, ADC_CH);              // Inizializzazione ADC con 3 canali
 105:mainPot.cpp   ****     hw.adc.Start();                         // Avvio della conversione ADC
 106:mainPot.cpp   **** }
 107:mainPot.cpp   **** // Audio callback executed for each audio block
 108:mainPot.cpp   **** void AudioCallback(AudioHandle::InputBuffer in, AudioHandle::OutputBuffer out, size_t size) {
 185              		.loc 11 108 93 is_stmt 1 view -0
 186              		.cfi_startproc
 187              		@ args = 0, pretend = 0, frame = 8
 188              		@ frame_needed = 0, uses_anonymous_args = 0
 109:mainPot.cpp   **** 
 110:mainPot.cpp   ****                                                     
 111:mainPot.cpp   ****     for (size_t i = 0; i < size; i++) {
 189              		.loc 11 111 5 view .LVU21
 190              	.LBB287:
 191              		.loc 11 111 26 view .LVU22
 192              	.LBE287:
 108:mainPot.cpp   **** 
 193              		.loc 11 108 93 is_stmt 0 view .LVU23
 194 0000 2DE9F04F 		push	{r4, r5, r6, r7, r8, r9, r10, fp, lr}
 195              		.cfi_def_cfa_offset 36
ARM GAS  C:\Users\skipi\AppData\Local\Temp\cc2QEVmM.s 			page 15


 196              		.cfi_offset 4, -36
 197              		.cfi_offset 5, -32
 198              		.cfi_offset 6, -28
 199              		.cfi_offset 7, -24
 200              		.cfi_offset 8, -20
 201              		.cfi_offset 9, -16
 202              		.cfi_offset 10, -12
 203              		.cfi_offset 11, -8
 204              		.cfi_offset 14, -4
 205 0004 83B0     		sub	sp, sp, #12
 206              		.cfi_def_cfa_offset 48
 207              	.LBB324:
 208              		.loc 11 111 26 view .LVU24
 209 0006 0192     		str	r2, [sp, #4]
 210 0008 002A     		cmp	r2, #0
 211 000a 00F02D81 		beq	.L7
 212 000e 8846     		mov	r8, r1
 213              		.loc 11 111 17 view .LVU25
 214 0010 0024     		movs	r4, #0
 215 0012 994F     		ldr	r7, .L27+8
 216 0014 994E     		ldr	r6, .L27+12
 217 0016 9A4D     		ldr	r5, .L27+16
 218 0018 DFF80CB3 		ldr	fp, .L27+184
 219 001c DFF80CA3 		ldr	r10, .L27+188
 220 0020 DFF80C93 		ldr	r9, .L27+192
 221              	.LVL6:
 222              	.L12:
 112:mainPot.cpp   **** 
 113:mainPot.cpp   ****         if(tick1.Process())
 223              		.loc 11 113 9 is_stmt 1 view .LVU26
 224              		.loc 11 113 25 is_stmt 0 view .LVU27
 225 0024 9748     		ldr	r0, .L27+20
 226 0026 FFF7FEFF 		bl	_ZN7daisysp5Metro7ProcessEv
 227              	.LVL7:
 228              		.loc 11 113 9 view .LVU28
 229 002a 18B1     		cbz	r0, .L9
 114:mainPot.cpp   ****         {
 115:mainPot.cpp   ****             Gate_Pad = !Gate_Pad; // Attiva il gate per Pluck
 230              		.loc 11 115 13 is_stmt 1 view .LVU29
 231              		.loc 11 115 24 is_stmt 0 view .LVU30
 232 002c 3B78     		ldrb	r3, [r7]	@ zero_extendqisi2
 233 002e 83F00103 		eor	r3, r3, #1
 234              		.loc 11 115 22 view .LVU31
 235 0032 3B70     		strb	r3, [r7]
 236              	.L9:
 116:mainPot.cpp   ****         } 
 117:mainPot.cpp   ****         if(tick2.Process())
 237              		.loc 11 117 9 is_stmt 1 view .LVU32
 238              		.loc 11 117 25 is_stmt 0 view .LVU33
 239 0034 9448     		ldr	r0, .L27+24
 240 0036 FFF7FEFF 		bl	_ZN7daisysp5Metro7ProcessEv
 241              	.LVL8:
 242              		.loc 11 117 9 view .LVU34
 243 003a 18B1     		cbz	r0, .L10
 118:mainPot.cpp   ****         {
 119:mainPot.cpp   ****             Gate_Pluck = !Gate_Pluck; // Attiva il gate per Bass
 244              		.loc 11 119 13 is_stmt 1 view .LVU35
ARM GAS  C:\Users\skipi\AppData\Local\Temp\cc2QEVmM.s 			page 16


 245              		.loc 11 119 26 is_stmt 0 view .LVU36
 246 003c 3378     		ldrb	r3, [r6]	@ zero_extendqisi2
 247 003e 83F00103 		eor	r3, r3, #1
 248              		.loc 11 119 24 view .LVU37
 249 0042 3370     		strb	r3, [r6]
 250              	.L10:
 120:mainPot.cpp   ****         }
 121:mainPot.cpp   ****         if(tick3.Process())
 251              		.loc 11 121 9 is_stmt 1 view .LVU38
 252              		.loc 11 121 25 is_stmt 0 view .LVU39
 253 0044 9148     		ldr	r0, .L27+28
 254 0046 FFF7FEFF 		bl	_ZN7daisysp5Metro7ProcessEv
 255              	.LVL9:
 256              		.loc 11 121 9 view .LVU40
 257 004a 18B1     		cbz	r0, .L11
 122:mainPot.cpp   ****         {
 123:mainPot.cpp   ****             Gate_Bass = !Gate_Bass; // Attiva il gate per Pad
 258              		.loc 11 123 13 is_stmt 1 view .LVU41
 259              		.loc 11 123 25 is_stmt 0 view .LVU42
 260 004c 2B78     		ldrb	r3, [r5]	@ zero_extendqisi2
 261 004e 83F00103 		eor	r3, r3, #1
 262              		.loc 11 123 23 view .LVU43
 263 0052 2B70     		strb	r3, [r5]
 264              	.L11:
 124:mainPot.cpp   ****         }
 125:mainPot.cpp   **** //--------------------------------------------------------------------Setta DelayTime
 126:mainPot.cpp   ****     //delay.setDelayTime(delayTime);      // Imposta il tempo di delay
 127:mainPot.cpp   **** //-------------------------------------------------------------------Setta Shape
 128:mainPot.cpp   ****     lfo_Pluck.SetFreq(f_lfo_Pluck);
 265              		.loc 11 128 5 is_stmt 1 discriminator 2 view .LVU44
 266              		.loc 11 128 22 is_stmt 0 discriminator 2 view .LVU45
 267 0054 8E4B     		ldr	r3, .L27+32
 268 0056 93ED000A 		vldr.32	s0, [r3]
 269              	.LVL10:
 270              	.LBB288:
 271              	.LBI288:
  25:../../libs/DaisySP/Source/Synthesis/oscillator.h ****     /** Choices for output waveforms, POLYBLEP are appropriately labeled. Others are naive forms.
  26:../../libs/DaisySP/Source/Synthesis/oscillator.h ****     */
  27:../../libs/DaisySP/Source/Synthesis/oscillator.h ****     enum
  28:../../libs/DaisySP/Source/Synthesis/oscillator.h ****     {
  29:../../libs/DaisySP/Source/Synthesis/oscillator.h ****         WAVE_SIN,
  30:../../libs/DaisySP/Source/Synthesis/oscillator.h ****         WAVE_TRI,
  31:../../libs/DaisySP/Source/Synthesis/oscillator.h ****         WAVE_SAW,
  32:../../libs/DaisySP/Source/Synthesis/oscillator.h ****         WAVE_RAMP,
  33:../../libs/DaisySP/Source/Synthesis/oscillator.h ****         WAVE_SQUARE,
  34:../../libs/DaisySP/Source/Synthesis/oscillator.h ****         WAVE_POLYBLEP_TRI,
  35:../../libs/DaisySP/Source/Synthesis/oscillator.h ****         WAVE_POLYBLEP_SAW,
  36:../../libs/DaisySP/Source/Synthesis/oscillator.h ****         WAVE_POLYBLEP_SQUARE,
  37:../../libs/DaisySP/Source/Synthesis/oscillator.h ****         WAVE_LAST,
  38:../../libs/DaisySP/Source/Synthesis/oscillator.h ****     };
  39:../../libs/DaisySP/Source/Synthesis/oscillator.h **** 
  40:../../libs/DaisySP/Source/Synthesis/oscillator.h **** 
  41:../../libs/DaisySP/Source/Synthesis/oscillator.h ****     /** Initializes the Oscillator
  42:../../libs/DaisySP/Source/Synthesis/oscillator.h **** 
  43:../../libs/DaisySP/Source/Synthesis/oscillator.h ****         \param sample_rate - sample rate of the audio engine being run, and the frequency that the 
  44:../../libs/DaisySP/Source/Synthesis/oscillator.h **** 
  45:../../libs/DaisySP/Source/Synthesis/oscillator.h ****         Defaults:
ARM GAS  C:\Users\skipi\AppData\Local\Temp\cc2QEVmM.s 			page 17


  46:../../libs/DaisySP/Source/Synthesis/oscillator.h ****         - freq_ = 100 Hz
  47:../../libs/DaisySP/Source/Synthesis/oscillator.h ****         - amp_ = 0.5
  48:../../libs/DaisySP/Source/Synthesis/oscillator.h ****         - waveform_ = sine wave.
  49:../../libs/DaisySP/Source/Synthesis/oscillator.h ****     */
  50:../../libs/DaisySP/Source/Synthesis/oscillator.h ****     void Init(float sample_rate)
  51:../../libs/DaisySP/Source/Synthesis/oscillator.h ****     {
  52:../../libs/DaisySP/Source/Synthesis/oscillator.h ****         sr_        = sample_rate;
  53:../../libs/DaisySP/Source/Synthesis/oscillator.h ****         sr_recip_  = 1.0f / sample_rate;
  54:../../libs/DaisySP/Source/Synthesis/oscillator.h ****         freq_      = 100.0f;
  55:../../libs/DaisySP/Source/Synthesis/oscillator.h ****         amp_       = 0.5f;
  56:../../libs/DaisySP/Source/Synthesis/oscillator.h ****         pw_        = 0.5f;
  57:../../libs/DaisySP/Source/Synthesis/oscillator.h ****         phase_     = 0.0f;
  58:../../libs/DaisySP/Source/Synthesis/oscillator.h ****         phase_inc_ = CalcPhaseInc(freq_);
  59:../../libs/DaisySP/Source/Synthesis/oscillator.h ****         waveform_  = WAVE_SIN;
  60:../../libs/DaisySP/Source/Synthesis/oscillator.h ****         eoc_       = true;
  61:../../libs/DaisySP/Source/Synthesis/oscillator.h ****         eor_       = true;
  62:../../libs/DaisySP/Source/Synthesis/oscillator.h ****     }
  63:../../libs/DaisySP/Source/Synthesis/oscillator.h **** 
  64:../../libs/DaisySP/Source/Synthesis/oscillator.h **** 
  65:../../libs/DaisySP/Source/Synthesis/oscillator.h ****     /** Changes the frequency of the Oscillator, and recalculates phase increment.
  66:../../libs/DaisySP/Source/Synthesis/oscillator.h ****     */
  67:../../libs/DaisySP/Source/Synthesis/oscillator.h ****     inline void SetFreq(const float f)
 272              		.loc 8 67 17 is_stmt 1 discriminator 2 view .LVU46
 273              	.LBB289:
  68:../../libs/DaisySP/Source/Synthesis/oscillator.h ****     {
  69:../../libs/DaisySP/Source/Synthesis/oscillator.h ****         freq_      = f;
 274              		.loc 8 69 9 discriminator 2 view .LVU47
 275              		.loc 8 69 20 is_stmt 0 discriminator 2 view .LVU48
 276 005a 8E4B     		ldr	r3, .L27+36
  70:../../libs/DaisySP/Source/Synthesis/oscillator.h ****         phase_inc_ = CalcPhaseInc(f);
 277              		.loc 8 70 34 discriminator 2 view .LVU49
 278 005c 1846     		mov	r0, r3
  69:../../libs/DaisySP/Source/Synthesis/oscillator.h ****         phase_inc_ = CalcPhaseInc(f);
 279              		.loc 8 69 20 discriminator 2 view .LVU50
 280 005e 83ED020A 		vstr.32	s0, [r3, #8]
 281              		.loc 8 70 9 is_stmt 1 discriminator 2 view .LVU51
 282              		.loc 8 70 34 is_stmt 0 discriminator 2 view .LVU52
 283 0062 FFF7FEFF 		bl	_ZN7daisysp10Oscillator12CalcPhaseIncEf
 284              	.LVL11:
 285              		.loc 8 70 20 discriminator 2 view .LVU53
 286 0066 8B4B     		ldr	r3, .L27+36
 287              	.LBE289:
 288              	.LBE288:
 129:mainPot.cpp   ****     lfo_Bass.SetFreq(f_lfo_Bass);
 289              		.loc 11 129 21 discriminator 2 view .LVU54
 290 0068 8B49     		ldr	r1, .L27+40
 291              	.LBB291:
 292              	.LBB290:
 293              		.loc 8 70 20 discriminator 2 view .LVU55
 294 006a 83ED070A 		vstr.32	s0, [r3, #28]
 295              	.LVL12:
 296              		.loc 8 70 20 discriminator 2 view .LVU56
 297              	.LBE290:
 298              	.LBE291:
 299              		.loc 11 129 5 is_stmt 1 discriminator 2 view .LVU57
 300              		.loc 11 129 21 is_stmt 0 discriminator 2 view .LVU58
 301 006e 91ED000A 		vldr.32	s0, [r1]
ARM GAS  C:\Users\skipi\AppData\Local\Temp\cc2QEVmM.s 			page 18


 302              	.LVL13:
 303              	.LBB292:
 304              	.LBI292:
  67:../../libs/DaisySP/Source/Synthesis/oscillator.h ****     {
 305              		.loc 8 67 17 is_stmt 1 discriminator 2 view .LVU59
 306              	.LBB293:
  69:../../libs/DaisySP/Source/Synthesis/oscillator.h ****         phase_inc_ = CalcPhaseInc(f);
 307              		.loc 8 69 9 discriminator 2 view .LVU60
  69:../../libs/DaisySP/Source/Synthesis/oscillator.h ****         phase_inc_ = CalcPhaseInc(f);
 308              		.loc 8 69 20 is_stmt 0 discriminator 2 view .LVU61
 309 0072 8A49     		ldr	r1, .L27+44
 310              		.loc 8 70 34 discriminator 2 view .LVU62
 311 0074 0846     		mov	r0, r1
  69:../../libs/DaisySP/Source/Synthesis/oscillator.h ****         phase_inc_ = CalcPhaseInc(f);
 312              		.loc 8 69 20 discriminator 2 view .LVU63
 313 0076 81ED020A 		vstr.32	s0, [r1, #8]
 314              		.loc 8 70 9 is_stmt 1 discriminator 2 view .LVU64
 315              		.loc 8 70 34 is_stmt 0 discriminator 2 view .LVU65
 316 007a FFF7FEFF 		bl	_ZN7daisysp10Oscillator12CalcPhaseIncEf
 317              	.LVL14:
 318              		.loc 8 70 20 discriminator 2 view .LVU66
 319 007e 8749     		ldr	r1, .L27+44
 320              	.LBE293:
 321              	.LBE292:
 130:mainPot.cpp   ****     lfo_Pad.SetFreq(f_lfo_Pad);
 322              		.loc 11 130 20 discriminator 2 view .LVU67
 323 0080 8748     		ldr	r0, .L27+48
 324              	.LBB295:
 325              	.LBB294:
 326              		.loc 8 70 20 discriminator 2 view .LVU68
 327 0082 81ED070A 		vstr.32	s0, [r1, #28]
 328              	.LVL15:
 329              		.loc 8 70 20 discriminator 2 view .LVU69
 330              	.LBE294:
 331              	.LBE295:
 332              		.loc 11 130 5 is_stmt 1 discriminator 2 view .LVU70
 333              		.loc 11 130 20 is_stmt 0 discriminator 2 view .LVU71
 334 0086 90ED000A 		vldr.32	s0, [r0]
 335              	.LVL16:
 336              	.LBB296:
 337              	.LBI296:
  67:../../libs/DaisySP/Source/Synthesis/oscillator.h ****     {
 338              		.loc 8 67 17 is_stmt 1 discriminator 2 view .LVU72
 339              	.LBB297:
  69:../../libs/DaisySP/Source/Synthesis/oscillator.h ****         phase_inc_ = CalcPhaseInc(f);
 340              		.loc 8 69 9 discriminator 2 view .LVU73
  69:../../libs/DaisySP/Source/Synthesis/oscillator.h ****         phase_inc_ = CalcPhaseInc(f);
 341              		.loc 8 69 20 is_stmt 0 discriminator 2 view .LVU74
 342 008a 8648     		ldr	r0, .L27+52
 343 008c 80ED020A 		vstr.32	s0, [r0, #8]
 344              		.loc 8 70 9 is_stmt 1 discriminator 2 view .LVU75
 345              		.loc 8 70 34 is_stmt 0 discriminator 2 view .LVU76
 346 0090 FFF7FEFF 		bl	_ZN7daisysp10Oscillator12CalcPhaseIncEf
 347              	.LVL17:
 348              		.loc 8 70 34 discriminator 2 view .LVU77
 349              	.LBE297:
 350              	.LBE296:
ARM GAS  C:\Users\skipi\AppData\Local\Temp\cc2QEVmM.s 			page 19


 351              	.LBB300:
 352              	.LBB301:
  71:../../libs/DaisySP/Source/Synthesis/oscillator.h ****     }
  72:../../libs/DaisySP/Source/Synthesis/oscillator.h **** 
  73:../../libs/DaisySP/Source/Synthesis/oscillator.h **** 
  74:../../libs/DaisySP/Source/Synthesis/oscillator.h ****     /** Sets the amplitude of the waveform.
  75:../../libs/DaisySP/Source/Synthesis/oscillator.h ****     */
  76:../../libs/DaisySP/Source/Synthesis/oscillator.h ****     inline void SetAmp(const float a) { amp_ = a; }
 353              		.loc 8 76 46 discriminator 2 view .LVU78
 354 0094 844B     		ldr	r3, .L27+56
 355              	.LBE301:
 356              	.LBE300:
 357              	.LBB304:
 358              	.LBB305:
 359 0096 7F4A     		ldr	r2, .L27+36
 360              	.LBE305:
 361              	.LBE304:
 362              	.LBB307:
 363              	.LBB298:
  70:../../libs/DaisySP/Source/Synthesis/oscillator.h ****     }
 364              		.loc 8 70 20 discriminator 2 view .LVU79
 365 0098 8248     		ldr	r0, .L27+52
 366              	.LBE298:
 367              	.LBE307:
 368              	.LBB308:
 369              	.LBB309:
 370              		.loc 8 76 46 discriminator 2 view .LVU80
 371 009a 8049     		ldr	r1, .L27+44
 372              	.LBE309:
 373              	.LBE308:
 374              	.LBB312:
 375              	.LBB302:
 376 009c 4360     		str	r3, [r0, #4]	@ float
 377              	.LBE302:
 378              	.LBE312:
 379              	.LBB313:
 380              	.LBB299:
  70:../../libs/DaisySP/Source/Synthesis/oscillator.h ****     }
 381              		.loc 8 70 20 discriminator 2 view .LVU81
 382 009e 80ED070A 		vstr.32	s0, [r0, #28]
 383              	.LVL18:
  70:../../libs/DaisySP/Source/Synthesis/oscillator.h ****     }
 384              		.loc 8 70 20 discriminator 2 view .LVU82
 385              	.LBE299:
 386              	.LBE313:
 131:mainPot.cpp   ****     
 132:mainPot.cpp   ****     lfo_Pad.SetAmp(0.3f); // Set LFO amplitude for Pad
 387              		.loc 11 132 5 is_stmt 1 discriminator 2 view .LVU83
 388              	.LBB314:
 389              	.LBI300:
 390              		.loc 8 76 17 discriminator 2 view .LVU84
 391              	.LBB303:
 392              		.loc 8 76 41 discriminator 2 view .LVU85
 393              		.loc 8 76 41 is_stmt 0 discriminator 2 view .LVU86
 394              	.LBE303:
 395              	.LBE314:
 133:mainPot.cpp   ****     lfo_Bass.SetAmp(0.3f); // Set LFO amplitude for Bass
ARM GAS  C:\Users\skipi\AppData\Local\Temp\cc2QEVmM.s 			page 20


 396              		.loc 11 133 5 is_stmt 1 discriminator 2 view .LVU87
 397              	.LBB315:
 398              	.LBI308:
 399              		.loc 8 76 17 discriminator 2 view .LVU88
 400              	.LBB310:
 401              		.loc 8 76 41 discriminator 2 view .LVU89
 402              	.LBE310:
 403              	.LBE315:
 134:mainPot.cpp   ****     lfo_Pluck.SetAmp(0.3f); // Set LFO amplitude for Pluck
 135:mainPot.cpp   **** 
 136:mainPot.cpp   **** 
 137:mainPot.cpp   ****     shape_Pluck = lfo_Pluck.Process();                                   
 404              		.loc 11 137 36 is_stmt 0 discriminator 2 view .LVU90
 405 00a2 1046     		mov	r0, r2
 406              	.LBB316:
 407              	.LBB311:
 408              		.loc 8 76 46 discriminator 2 view .LVU91
 409 00a4 4B60     		str	r3, [r1, #4]	@ float
 410              	.LVL19:
 411              		.loc 8 76 46 discriminator 2 view .LVU92
 412              	.LBE311:
 413              	.LBE316:
 134:mainPot.cpp   ****     lfo_Pluck.SetAmp(0.3f); // Set LFO amplitude for Pluck
 414              		.loc 11 134 5 is_stmt 1 discriminator 2 view .LVU93
 415              	.LBB317:
 416              	.LBI304:
 417              		.loc 8 76 17 discriminator 2 view .LVU94
 418              	.LBB306:
 419              		.loc 8 76 41 discriminator 2 view .LVU95
 420              		.loc 8 76 46 is_stmt 0 discriminator 2 view .LVU96
 421 00a6 5360     		str	r3, [r2, #4]	@ float
 422              	.LVL20:
 423              		.loc 8 76 46 discriminator 2 view .LVU97
 424              	.LBE306:
 425              	.LBE317:
 426              		.loc 11 137 5 is_stmt 1 discriminator 2 view .LVU98
 427              		.loc 11 137 36 is_stmt 0 discriminator 2 view .LVU99
 428 00a8 FFF7FEFF 		bl	_ZN7daisysp10Oscillator7ProcessEv
 429              	.LVL21:
 430              		.loc 11 137 17 discriminator 2 view .LVU100
 431 00ac 7F4B     		ldr	r3, .L27+60
 138:mainPot.cpp   ****     shape_Bass = lfo_Bass.Process();                                   
 432              		.loc 11 138 34 discriminator 2 view .LVU101
 433 00ae 7B48     		ldr	r0, .L27+44
 137:mainPot.cpp   ****     shape_Bass = lfo_Bass.Process();                                   
 434              		.loc 11 137 17 discriminator 2 view .LVU102
 435 00b0 83ED000A 		vstr.32	s0, [r3]
 436              		.loc 11 138 5 is_stmt 1 discriminator 2 view .LVU103
 437              		.loc 11 138 34 is_stmt 0 discriminator 2 view .LVU104
 438 00b4 FFF7FEFF 		bl	_ZN7daisysp10Oscillator7ProcessEv
 439              	.LVL22:
 440              		.loc 11 138 16 discriminator 2 view .LVU105
 441 00b8 7D4A     		ldr	r2, .L27+64
 139:mainPot.cpp   ****     shape_Pad = lfo_Pad.Process();                                   
 442              		.loc 11 139 32 discriminator 2 view .LVU106
 443 00ba 7A48     		ldr	r0, .L27+52
 138:mainPot.cpp   ****     shape_Bass = lfo_Bass.Process();                                   
ARM GAS  C:\Users\skipi\AppData\Local\Temp\cc2QEVmM.s 			page 21


 444              		.loc 11 138 16 discriminator 2 view .LVU107
 445 00bc 82ED000A 		vstr.32	s0, [r2]
 446              		.loc 11 139 5 is_stmt 1 discriminator 2 view .LVU108
 447              		.loc 11 139 32 is_stmt 0 discriminator 2 view .LVU109
 448 00c0 FFF7FEFF 		bl	_ZN7daisysp10Oscillator7ProcessEv
 449              	.LVL23:
 140:mainPot.cpp   **** 
 141:mainPot.cpp   ****     Pluck.SetShape(shape_Pluck);                                     
 450              		.loc 11 141 19 discriminator 2 view .LVU110
 451 00c4 794B     		ldr	r3, .L27+60
 139:mainPot.cpp   ****     shape_Pad = lfo_Pad.Process();                                   
 452              		.loc 11 139 15 discriminator 2 view .LVU111
 453 00c6 7B49     		ldr	r1, .L27+68
 454              		.loc 11 141 19 discriminator 2 view .LVU112
 455 00c8 7B48     		ldr	r0, .L27+72
 139:mainPot.cpp   ****     shape_Pad = lfo_Pad.Process();                                   
 456              		.loc 11 139 15 discriminator 2 view .LVU113
 457 00ca 81ED000A 		vstr.32	s0, [r1]
 458              		.loc 11 141 5 is_stmt 1 discriminator 2 view .LVU114
 459              		.loc 11 141 19 is_stmt 0 discriminator 2 view .LVU115
 460 00ce 93ED000A 		vldr.32	s0, [r3]
 461 00d2 FFF7FEFF 		bl	_ZN4Ramo8SetShapeEf
 462              	.LVL24:
 142:mainPot.cpp   ****     Bass.SetShape(shape_Bass);                                     
 463              		.loc 11 142 5 is_stmt 1 discriminator 2 view .LVU116
 464              		.loc 11 142 18 is_stmt 0 discriminator 2 view .LVU117
 465 00d6 764A     		ldr	r2, .L27+64
 466 00d8 7848     		ldr	r0, .L27+76
 467 00da 92ED000A 		vldr.32	s0, [r2]
 468 00de FFF7FEFF 		bl	_ZN4Ramo8SetShapeEf
 469              	.LVL25:
 143:mainPot.cpp   ****     Pad.SetShape(shape_Pad);                                     
 470              		.loc 11 143 5 is_stmt 1 discriminator 2 view .LVU118
 471              		.loc 11 143 17 is_stmt 0 discriminator 2 view .LVU119
 472 00e2 7449     		ldr	r1, .L27+68
 473 00e4 7648     		ldr	r0, .L27+80
 474 00e6 91ED000A 		vldr.32	s0, [r1]
 475 00ea FFF7FEFF 		bl	_ZN4Ramo8SetShapeEf
 476              	.LVL26:
 144:mainPot.cpp   ****     
 145:mainPot.cpp   **** //---------------------------------------------------------------Setta Freq
 146:mainPot.cpp   ****     Pluck.SetFreq(f_Pluck);                                         
 477              		.loc 11 146 5 is_stmt 1 discriminator 2 view .LVU120
 478              		.loc 11 146 18 is_stmt 0 discriminator 2 view .LVU121
 479 00ee 754B     		ldr	r3, .L27+84
 480 00f0 7148     		ldr	r0, .L27+72
 481 00f2 93ED000A 		vldr.32	s0, [r3]
 482 00f6 FFF7FEFF 		bl	_ZN4Ramo7SetFreqEf
 483              	.LVL27:
 147:mainPot.cpp   ****     Bass.SetFreq(f_Bass);                                         
 484              		.loc 11 147 5 is_stmt 1 discriminator 2 view .LVU122
 485              		.loc 11 147 17 is_stmt 0 discriminator 2 view .LVU123
 486 00fa 734B     		ldr	r3, .L27+88
 487 00fc 6F48     		ldr	r0, .L27+76
 488 00fe 93ED000A 		vldr.32	s0, [r3]
 489 0102 FFF7FEFF 		bl	_ZN4Ramo7SetFreqEf
 490              	.LVL28:
ARM GAS  C:\Users\skipi\AppData\Local\Temp\cc2QEVmM.s 			page 22


 148:mainPot.cpp   ****     Pad.SetFreq(f_Pad);                 
 491              		.loc 11 148 5 is_stmt 1 discriminator 2 view .LVU124
 492              		.loc 11 148 16 is_stmt 0 discriminator 2 view .LVU125
 493 0106 714B     		ldr	r3, .L27+92
 494 0108 6D48     		ldr	r0, .L27+80
 495 010a 93ED000A 		vldr.32	s0, [r3]
 496 010e FFF7FEFF 		bl	_ZN4Ramo7SetFreqEf
 497              	.LVL29:
 149:mainPot.cpp   **** 
 150:mainPot.cpp   **** //-------------------------------------------------------------------------------------------------
 151:mainPot.cpp   ****     amp_env_Pluck = AmpEnv_Pluck.Process(Gate_Pluck);                             
 498              		.loc 11 151 5 is_stmt 1 discriminator 2 view .LVU126
 499              		.loc 11 151 41 is_stmt 0 discriminator 2 view .LVU127
 500 0112 3178     		ldrb	r1, [r6]	@ zero_extendqisi2
 501 0114 6E48     		ldr	r0, .L27+96
 502 0116 FFF7FEFF 		bl	_ZN7daisysp4Adsr7ProcessEb
 503              	.LVL30:
 504              		.loc 11 151 19 discriminator 2 view .LVU128
 505 011a 6E4B     		ldr	r3, .L27+100
 152:mainPot.cpp   ****     amp_env_Bass = AmpEnv_Bass.Process(Gate_Bass);                             
 506              		.loc 11 152 39 discriminator 2 view .LVU129
 507 011c 2978     		ldrb	r1, [r5]	@ zero_extendqisi2
 508 011e 6E48     		ldr	r0, .L27+104
 151:mainPot.cpp   ****     amp_env_Bass = AmpEnv_Bass.Process(Gate_Bass);                             
 509              		.loc 11 151 19 discriminator 2 view .LVU130
 510 0120 83ED000A 		vstr.32	s0, [r3]
 511              		.loc 11 152 5 is_stmt 1 discriminator 2 view .LVU131
 512              		.loc 11 152 39 is_stmt 0 discriminator 2 view .LVU132
 513 0124 FFF7FEFF 		bl	_ZN7daisysp4Adsr7ProcessEb
 514              	.LVL31:
 515              		.loc 11 152 18 discriminator 2 view .LVU133
 516 0128 6C4A     		ldr	r2, .L27+108
 153:mainPot.cpp   ****     amp_env_Pad = AmpEnv_Pad.Process(Gate_Pad);                             
 517              		.loc 11 153 37 discriminator 2 view .LVU134
 518 012a 3978     		ldrb	r1, [r7]	@ zero_extendqisi2
 519 012c 6C48     		ldr	r0, .L27+112
 152:mainPot.cpp   ****     amp_env_Bass = AmpEnv_Bass.Process(Gate_Bass);                             
 520              		.loc 11 152 18 discriminator 2 view .LVU135
 521 012e 82ED000A 		vstr.32	s0, [r2]
 522              		.loc 11 153 5 is_stmt 1 discriminator 2 view .LVU136
 523              		.loc 11 153 37 is_stmt 0 discriminator 2 view .LVU137
 524 0132 FFF7FEFF 		bl	_ZN7daisysp4Adsr7ProcessEb
 525              	.LVL32:
 526              		.loc 11 153 17 discriminator 2 view .LVU138
 527 0136 6B49     		ldr	r1, .L27+116
 154:mainPot.cpp   **** 
 155:mainPot.cpp   **** //-------------------------------------------------------------------------------------------------
 156:mainPot.cpp   ****     filt_env_Pluck = FilterEnv_Pluck.Process(Gate_Pluck);                          
 528              		.loc 11 156 45 discriminator 2 view .LVU139
 529 0138 6B48     		ldr	r0, .L27+120
 153:mainPot.cpp   ****     amp_env_Pad = AmpEnv_Pad.Process(Gate_Pad);                             
 530              		.loc 11 153 17 discriminator 2 view .LVU140
 531 013a 81ED000A 		vstr.32	s0, [r1]
 532              		.loc 11 156 5 is_stmt 1 discriminator 2 view .LVU141
 533              		.loc 11 156 45 is_stmt 0 discriminator 2 view .LVU142
 534 013e 3178     		ldrb	r1, [r6]	@ zero_extendqisi2
 535 0140 FFF7FEFF 		bl	_ZN7daisysp4Adsr7ProcessEb
ARM GAS  C:\Users\skipi\AppData\Local\Temp\cc2QEVmM.s 			page 23


 536              	.LVL33:
 157:mainPot.cpp   ****     filt_env_Bass = FilterEnv_Bass.Process(Gate_Bass);                           
 537              		.loc 11 157 43 discriminator 2 view .LVU143
 538 0144 2978     		ldrb	r1, [r5]	@ zero_extendqisi2
 539 0146 6948     		ldr	r0, .L27+124
 156:mainPot.cpp   ****     filt_env_Bass = FilterEnv_Bass.Process(Gate_Bass);                           
 540              		.loc 11 156 20 discriminator 2 view .LVU144
 541 0148 8BED000A 		vstr.32	s0, [fp]
 542              		.loc 11 157 5 is_stmt 1 discriminator 2 view .LVU145
 543              		.loc 11 157 43 is_stmt 0 discriminator 2 view .LVU146
 544 014c FFF7FEFF 		bl	_ZN7daisysp4Adsr7ProcessEb
 545              	.LVL34:
 158:mainPot.cpp   ****     filt_env_Pad = FilterEnv_Pad.Process(Gate_Pad);                          
 546              		.loc 11 158 41 discriminator 2 view .LVU147
 547 0150 3978     		ldrb	r1, [r7]	@ zero_extendqisi2
 548 0152 6748     		ldr	r0, .L27+128
 157:mainPot.cpp   ****     filt_env_Bass = FilterEnv_Bass.Process(Gate_Bass);                           
 549              		.loc 11 157 19 discriminator 2 view .LVU148
 550 0154 8AED000A 		vstr.32	s0, [r10]
 551              		.loc 11 158 5 is_stmt 1 discriminator 2 view .LVU149
 552              		.loc 11 158 41 is_stmt 0 discriminator 2 view .LVU150
 553 0158 FFF7FEFF 		bl	_ZN7daisysp4Adsr7ProcessEb
 554              	.LVL35:
 159:mainPot.cpp   **** //-------------------------------------------------------------------------------------------------
 160:mainPot.cpp   ****     filter_Pluck.SetFreq(3000.0f - filt_env_Pluck*2000.0f);                             
 555              		.loc 11 160 25 discriminator 2 view .LVU151
 556 015c 9BED007A 		vldr.32	s14, [fp]
 557 0160 DFED647A 		vldr.32	s15, .L27+132
 158:mainPot.cpp   ****     filt_env_Pad = FilterEnv_Pad.Process(Gate_Pad);                          
 558              		.loc 11 158 18 discriminator 2 view .LVU152
 559 0164 89ED000A 		vstr.32	s0, [r9]
 560              		.loc 11 160 5 is_stmt 1 discriminator 2 view .LVU153
 561              		.loc 11 160 25 is_stmt 0 discriminator 2 view .LVU154
 562 0168 9FED630A 		vldr.32	s0, .L27+136
 563 016c 6348     		ldr	r0, .L27+140
 564 016e A7EE670A 		vfms.f32	s0, s14, s15
 565 0172 FFF7FEFF 		bl	_ZN7daisysp3Svf7SetFreqEf
 566              	.LVL36:
 161:mainPot.cpp   ****     filter_Bass.SetFreq(200.0f + filt_env_Bass*5000.0f);
 567              		.loc 11 161 5 is_stmt 1 discriminator 2 view .LVU155
 568              		.loc 11 161 24 is_stmt 0 discriminator 2 view .LVU156
 569 0176 9AED007A 		vldr.32	s14, [r10]
 570 017a DFED617A 		vldr.32	s15, .L27+144
 571 017e 9FED610A 		vldr.32	s0, .L27+148
 572 0182 6148     		ldr	r0, .L27+152
 573 0184 A7EE270A 		vfma.f32	s0, s14, s15
 574 0188 FFF7FEFF 		bl	_ZN7daisysp3Svf7SetFreqEf
 575              	.LVL37:
 162:mainPot.cpp   ****     filter_Pad.SetFreq(500.0f + filt_env_Pad*8000.0f);                            
 576              		.loc 11 162 5 is_stmt 1 discriminator 2 view .LVU157
 577              		.loc 11 162 23 is_stmt 0 discriminator 2 view .LVU158
 578 018c 99ED007A 		vldr.32	s14, [r9]
 579 0190 DFED5E7A 		vldr.32	s15, .L27+156
 580 0194 9FED5E0A 		vldr.32	s0, .L27+160
 581 0198 5E48     		ldr	r0, .L27+164
 582 019a A7EE270A 		vfma.f32	s0, s14, s15
 583 019e FFF7FEFF 		bl	_ZN7daisysp3Svf7SetFreqEf
ARM GAS  C:\Users\skipi\AppData\Local\Temp\cc2QEVmM.s 			page 24


 584              	.LVL38:
 163:mainPot.cpp   **** //-------------------------------------------------------------------------------------------------
 164:mainPot.cpp   ****     Pluck.SetGain(amp_env_Pluck);                                     
 585              		.loc 11 164 5 is_stmt 1 discriminator 2 view .LVU159
 586              		.loc 11 164 18 is_stmt 0 discriminator 2 view .LVU160
 587 01a2 4C4B     		ldr	r3, .L27+100
 588 01a4 4448     		ldr	r0, .L27+72
 589 01a6 93ED000A 		vldr.32	s0, [r3]
 590 01aa FFF7FEFF 		bl	_ZN4Ramo7SetGainEf
 591              	.LVL39:
 165:mainPot.cpp   ****     Bass.SetGain(amp_env_Bass);                                     
 592              		.loc 11 165 5 is_stmt 1 discriminator 2 view .LVU161
 593              		.loc 11 165 17 is_stmt 0 discriminator 2 view .LVU162
 594 01ae 4B4A     		ldr	r2, .L27+108
 595 01b0 4248     		ldr	r0, .L27+76
 596 01b2 92ED000A 		vldr.32	s0, [r2]
 597 01b6 FFF7FEFF 		bl	_ZN4Ramo7SetGainEf
 598              	.LVL40:
 166:mainPot.cpp   ****     Pad.SetGain(amp_env_Pad);                                     
 599              		.loc 11 166 5 is_stmt 1 discriminator 2 view .LVU163
 600              		.loc 11 166 16 is_stmt 0 discriminator 2 view .LVU164
 601 01ba 4A49     		ldr	r1, .L27+116
 602 01bc 4048     		ldr	r0, .L27+80
 603 01be 91ED000A 		vldr.32	s0, [r1]
 604 01c2 FFF7FEFF 		bl	_ZN4Ramo7SetGainEf
 605              	.LVL41:
 167:mainPot.cpp   **** //-------------------------------------------------------------------------------------------------
 168:mainPot.cpp   ****     Raw_Pluck = Pluck.Process();
 606              		.loc 11 168 5 is_stmt 1 discriminator 2 view .LVU165
 607              		.loc 11 168 30 is_stmt 0 discriminator 2 view .LVU166
 608 01c6 3C48     		ldr	r0, .L27+72
 609 01c8 FFF7FEFF 		bl	_ZN4Ramo7ProcessEv
 610              	.LVL42:
 611              		.loc 11 168 15 discriminator 2 view .LVU167
 612 01cc 524B     		ldr	r3, .L27+168
 169:mainPot.cpp   ****     Raw_Bass = Bass.Process();
 613              		.loc 11 169 28 discriminator 2 view .LVU168
 614 01ce 3B48     		ldr	r0, .L27+76
 168:mainPot.cpp   ****     Raw_Bass = Bass.Process();
 615              		.loc 11 168 15 discriminator 2 view .LVU169
 616 01d0 83ED000A 		vstr.32	s0, [r3]
 617              		.loc 11 169 5 is_stmt 1 discriminator 2 view .LVU170
 618              		.loc 11 169 28 is_stmt 0 discriminator 2 view .LVU171
 619 01d4 FFF7FEFF 		bl	_ZN4Ramo7ProcessEv
 620              	.LVL43:
 621              		.loc 11 169 14 discriminator 2 view .LVU172
 622 01d8 504A     		ldr	r2, .L27+172
 170:mainPot.cpp   ****     Raw_Pad = Pad.Process();
 623              		.loc 11 170 26 discriminator 2 view .LVU173
 624 01da 3948     		ldr	r0, .L27+80
 169:mainPot.cpp   ****     Raw_Bass = Bass.Process();
 625              		.loc 11 169 14 discriminator 2 view .LVU174
 626 01dc 82ED000A 		vstr.32	s0, [r2]
 627              		.loc 11 170 5 is_stmt 1 discriminator 2 view .LVU175
 628              		.loc 11 170 26 is_stmt 0 discriminator 2 view .LVU176
 629 01e0 FFF7FEFF 		bl	_ZN4Ramo7ProcessEv
 630              	.LVL44:
ARM GAS  C:\Users\skipi\AppData\Local\Temp\cc2QEVmM.s 			page 25


 171:mainPot.cpp   **** //-------------------------------------------------------------------------------------------------
 172:mainPot.cpp   ****     filter_Pluck.Process(Raw_Pluck);
 631              		.loc 11 172 25 discriminator 2 view .LVU177
 632 01e4 4C4B     		ldr	r3, .L27+168
 170:mainPot.cpp   ****     Raw_Pad = Pad.Process();
 633              		.loc 11 170 13 discriminator 2 view .LVU178
 634 01e6 4E49     		ldr	r1, .L27+176
 635              		.loc 11 172 25 discriminator 2 view .LVU179
 636 01e8 4448     		ldr	r0, .L27+140
 170:mainPot.cpp   ****     Raw_Pad = Pad.Process();
 637              		.loc 11 170 13 discriminator 2 view .LVU180
 638 01ea 81ED000A 		vstr.32	s0, [r1]
 639              		.loc 11 172 5 is_stmt 1 discriminator 2 view .LVU181
 640              		.loc 11 172 25 is_stmt 0 discriminator 2 view .LVU182
 641 01ee 93ED000A 		vldr.32	s0, [r3]
 642 01f2 FFF7FEFF 		bl	_ZN7daisysp3Svf7ProcessEf
 643              	.LVL45:
 173:mainPot.cpp   ****     filter_Bass.Process(Raw_Bass);
 644              		.loc 11 173 5 is_stmt 1 discriminator 2 view .LVU183
 645              		.loc 11 173 24 is_stmt 0 discriminator 2 view .LVU184
 646 01f6 494A     		ldr	r2, .L27+172
 647 01f8 4348     		ldr	r0, .L27+152
 648 01fa 92ED000A 		vldr.32	s0, [r2]
 649 01fe FFF7FEFF 		bl	_ZN7daisysp3Svf7ProcessEf
 650              	.LVL46:
 174:mainPot.cpp   ****     filter_Pad.Process(Raw_Pad);
 651              		.loc 11 174 5 is_stmt 1 discriminator 2 view .LVU185
 652              		.loc 11 174 23 is_stmt 0 discriminator 2 view .LVU186
 653 0202 4749     		ldr	r1, .L27+176
 654 0204 4348     		ldr	r0, .L27+164
 655 0206 91ED000A 		vldr.32	s0, [r1]
 656 020a FFF7FEFF 		bl	_ZN7daisysp3Svf7ProcessEf
 657              	.LVL47:
 175:mainPot.cpp   **** //-------------------------------------------------------------------------------------------------
 176:mainPot.cpp   ****     out_noFX = filter_Pluck.Low() * 0.33 + filter_Bass.Low() * 0.33 + filter_Pad.Low() * 0.33; // O
 658              		.loc 11 176 5 is_stmt 1 discriminator 2 view .LVU187
 659              	.LBB318:
 660              	.LBI318:
  31:../../libs/DaisySP/Source/Filters/svf.h ****     /** Initializes the filter
  32:../../libs/DaisySP/Source/Filters/svf.h ****         float sample_rate - sample rate of the audio engine being run, and the frequency that the P
  33:../../libs/DaisySP/Source/Filters/svf.h ****     */
  34:../../libs/DaisySP/Source/Filters/svf.h ****     void Init(float sample_rate);
  35:../../libs/DaisySP/Source/Filters/svf.h **** 
  36:../../libs/DaisySP/Source/Filters/svf.h **** 
  37:../../libs/DaisySP/Source/Filters/svf.h ****     /** 
  38:../../libs/DaisySP/Source/Filters/svf.h ****         Process the input signal, updating all of the outputs.
  39:../../libs/DaisySP/Source/Filters/svf.h ****     */
  40:../../libs/DaisySP/Source/Filters/svf.h ****     void Process(float in);
  41:../../libs/DaisySP/Source/Filters/svf.h **** 
  42:../../libs/DaisySP/Source/Filters/svf.h **** 
  43:../../libs/DaisySP/Source/Filters/svf.h ****     /** sets the frequency of the cutoff frequency. 
  44:../../libs/DaisySP/Source/Filters/svf.h ****         f must be between 0.0 and sample_rate / 3
  45:../../libs/DaisySP/Source/Filters/svf.h ****     */
  46:../../libs/DaisySP/Source/Filters/svf.h ****     void SetFreq(float f);
  47:../../libs/DaisySP/Source/Filters/svf.h **** 
  48:../../libs/DaisySP/Source/Filters/svf.h ****     /** sets the resonance of the filter.
  49:../../libs/DaisySP/Source/Filters/svf.h ****         Must be between 0.0 and 1.0 to ensure stability.
ARM GAS  C:\Users\skipi\AppData\Local\Temp\cc2QEVmM.s 			page 26


  50:../../libs/DaisySP/Source/Filters/svf.h ****     */
  51:../../libs/DaisySP/Source/Filters/svf.h ****     void SetRes(float r);
  52:../../libs/DaisySP/Source/Filters/svf.h **** 
  53:../../libs/DaisySP/Source/Filters/svf.h ****     /** sets the drive of the filter 
  54:../../libs/DaisySP/Source/Filters/svf.h ****         affects the response of the resonance of the filter
  55:../../libs/DaisySP/Source/Filters/svf.h ****     */
  56:../../libs/DaisySP/Source/Filters/svf.h ****     void SetDrive(float d);
  57:../../libs/DaisySP/Source/Filters/svf.h ****     /** lowpass output
  58:../../libs/DaisySP/Source/Filters/svf.h ****         \return low pass output of the filter
  59:../../libs/DaisySP/Source/Filters/svf.h ****     */
  60:../../libs/DaisySP/Source/Filters/svf.h ****     inline float Low() { return out_low_; }
 661              		.loc 9 60 18 discriminator 2 view .LVU188
 662              	.LBB319:
 663              		.loc 9 60 26 discriminator 2 view .LVU189
 664              		.loc 9 60 26 is_stmt 0 discriminator 2 view .LVU190
 665              	.LBE319:
 666              	.LBE318:
 667              	.LBB320:
 668              	.LBI320:
 669              		.loc 9 60 18 is_stmt 1 discriminator 2 view .LVU191
 670              	.LBB321:
 671              		.loc 9 60 26 discriminator 2 view .LVU192
 672              		.loc 9 60 26 is_stmt 0 discriminator 2 view .LVU193
 673              	.LBE321:
 674              	.LBE320:
 675              		.loc 11 176 59 discriminator 2 view .LVU194
 676 020e 3E4B     		ldr	r3, .L27+152
 677 0210 93ED0C7A 		vldr.32	s14, [r3, #48]
 678              		.loc 11 176 32 discriminator 2 view .LVU195
 679 0214 394B     		ldr	r3, .L27+140
 680              		.loc 11 176 59 discriminator 2 view .LVU196
 681 0216 B7EEC77A 		vcvt.f64.f32	d7, s14
 682              		.loc 11 176 32 discriminator 2 view .LVU197
 683 021a 93ED0C4A 		vldr.32	s8, [r3, #48]
 684              		.loc 11 176 85 discriminator 2 view .LVU198
 685 021e 3D4B     		ldr	r3, .L27+164
 686              		.loc 11 176 32 discriminator 2 view .LVU199
 687 0220 B7EEC44A 		vcvt.f64.f32	d4, s8
 688              		.loc 11 176 85 discriminator 2 view .LVU200
 689 0224 93ED0C5A 		vldr.32	s10, [r3, #48]
 690              		.loc 11 176 14 discriminator 2 view .LVU201
 691 0228 3E4B     		ldr	r3, .L27+180
 692              		.loc 11 176 85 discriminator 2 view .LVU202
 693 022a B7EEC55A 		vcvt.f64.f32	d5, s10
 694              		.loc 11 176 62 discriminator 2 view .LVU203
 695 022e 9FED106B 		vldr.64	d6, .L27
 696 0232 27EE067B 		vmul.f64	d7, d7, d6
 697              		.loc 11 176 42 discriminator 2 view .LVU204
 698 0236 A4EE067B 		vfma.f64	d7, d4, d6
 699              	.LVL48:
 700              	.LBB322:
 701              	.LBI322:
 702              		.loc 9 60 18 is_stmt 1 discriminator 2 view .LVU205
 703              	.LBB323:
 704              		.loc 9 60 26 discriminator 2 view .LVU206
 705              		.loc 9 60 26 is_stmt 0 discriminator 2 view .LVU207
 706              	.LBE323:
ARM GAS  C:\Users\skipi\AppData\Local\Temp\cc2QEVmM.s 			page 27


 707              	.LBE322:
 708              		.loc 11 176 69 discriminator 2 view .LVU208
 709 023a A5EE067B 		vfma.f64	d7, d5, d6
 710 023e B7EEC77B 		vcvt.f32.f64	s14, d7
 711              		.loc 11 176 14 discriminator 2 view .LVU209
 712 0242 83ED007A 		vstr.32	s14, [r3]
 177:mainPot.cpp   **** //-------------------------------------------------------------------------------------------------
 178:mainPot.cpp   ****     //float out_FX = delay.Process(out_noFX); // Process the output signal with the delay effect
 179:mainPot.cpp   **** 
 180:mainPot.cpp   **** //-------------------------------------------------------------------------------------------------
 181:mainPot.cpp   ****         out[0][i] = out_noFX;                                         // Output processed signal (l
 713              		.loc 11 181 9 is_stmt 1 discriminator 2 view .LVU210
 714              		.loc 11 181 19 is_stmt 0 discriminator 2 view .LVU211
 715 0246 D8F80030 		ldr	r3, [r8]
 716 024a 03EB8403 		add	r3, r3, r4, lsl #2
 717 024e 83ED007A 		vstr.32	s14, [r3]
 182:mainPot.cpp   ****         out[1][i] = out_noFX;                                         // Output processed signal (r
 718              		.loc 11 182 9 is_stmt 1 discriminator 2 view .LVU212
 719              		.loc 11 182 19 is_stmt 0 discriminator 2 view .LVU213
 720 0252 D8F80430 		ldr	r3, [r8, #4]
 721 0256 03EB8403 		add	r3, r3, r4, lsl #2
 111:mainPot.cpp   **** 
 722              		.loc 11 111 5 discriminator 2 view .LVU214
 723 025a 0134     		adds	r4, r4, #1
 724              	.LVL49:
 725              		.loc 11 182 19 discriminator 2 view .LVU215
 726 025c 83ED007A 		vstr.32	s14, [r3]
 111:mainPot.cpp   **** 
 727              		.loc 11 111 5 is_stmt 1 discriminator 2 view .LVU216
 728              	.LVL50:
 111:mainPot.cpp   **** 
 729              		.loc 11 111 26 discriminator 2 view .LVU217
 730 0260 019B     		ldr	r3, [sp, #4]
 731 0262 A342     		cmp	r3, r4
 732 0264 7FF4DEAE 		bne	.L12
 733              	.LVL51:
 734              	.L7:
 111:mainPot.cpp   **** 
 735              		.loc 11 111 26 is_stmt 0 discriminator 2 view .LVU218
 736              	.LBE324:
 183:mainPot.cpp   ****     }
 184:mainPot.cpp   **** }
 737              		.loc 11 184 1 view .LVU219
 738 0268 03B0     		add	sp, sp, #12
 739              		.cfi_def_cfa_offset 36
 740              		@ sp needed
 741 026a BDE8F08F 		pop	{r4, r5, r6, r7, r8, r9, r10, fp, pc}
 742              	.LVL52:
 743              	.L28:
 744              		.loc 11 184 1 view .LVU220
 745 026e 00BF     		.align	3
 746              	.L27:
 747 0270 1F85EB51 		.word	1374389535
 748 0274 B81ED53F 		.word	1070931640
 749 0278 00000000 		.word	.LANCHOR1
 750 027c 00000000 		.word	.LANCHOR3
 751 0280 00000000 		.word	.LANCHOR5
ARM GAS  C:\Users\skipi\AppData\Local\Temp\cc2QEVmM.s 			page 28


 752 0284 00000000 		.word	.LANCHOR0
 753 0288 00000000 		.word	.LANCHOR2
 754 028c 00000000 		.word	.LANCHOR4
 755 0290 00000000 		.word	.LANCHOR6
 756 0294 00000000 		.word	.LANCHOR7
 757 0298 00000000 		.word	.LANCHOR8
 758 029c 00000000 		.word	.LANCHOR9
 759 02a0 00000000 		.word	.LANCHOR10
 760 02a4 00000000 		.word	.LANCHOR11
 761 02a8 9A99993E 		.word	1050253722
 762 02ac 00000000 		.word	.LANCHOR12
 763 02b0 00000000 		.word	.LANCHOR13
 764 02b4 00000000 		.word	.LANCHOR14
 765 02b8 00000000 		.word	.LANCHOR15
 766 02bc 00000000 		.word	.LANCHOR16
 767 02c0 00000000 		.word	.LANCHOR17
 768 02c4 00000000 		.word	.LANCHOR18
 769 02c8 00000000 		.word	.LANCHOR19
 770 02cc 00000000 		.word	.LANCHOR20
 771 02d0 00000000 		.word	.LANCHOR21
 772 02d4 00000000 		.word	.LANCHOR22
 773 02d8 00000000 		.word	.LANCHOR23
 774 02dc 00000000 		.word	.LANCHOR24
 775 02e0 00000000 		.word	.LANCHOR25
 776 02e4 00000000 		.word	.LANCHOR26
 777 02e8 00000000 		.word	.LANCHOR27
 778 02ec 00000000 		.word	.LANCHOR29
 779 02f0 00000000 		.word	.LANCHOR31
 780 02f4 0000FA44 		.word	1157234688
 781 02f8 00803B45 		.word	1161527296
 782 02fc 00000000 		.word	.LANCHOR33
 783 0300 00409C45 		.word	1167867904
 784 0304 00004843 		.word	1128792064
 785 0308 00000000 		.word	.LANCHOR34
 786 030c 0000FA45 		.word	1174011904
 787 0310 0000FA43 		.word	1140457472
 788 0314 00000000 		.word	.LANCHOR35
 789 0318 00000000 		.word	.LANCHOR36
 790 031c 00000000 		.word	.LANCHOR37
 791 0320 00000000 		.word	.LANCHOR38
 792 0324 00000000 		.word	.LANCHOR39
 793 0328 00000000 		.word	.LANCHOR28
 794 032c 00000000 		.word	.LANCHOR30
 795 0330 00000000 		.word	.LANCHOR32
 796              		.cfi_endproc
 797              	.LFE4819:
 799              		.section	.text._ZN7daisysp10Oscillator4InitEf,"axG",%progbits,_ZN7daisysp10Oscillator4InitEf,comda
 800              		.align	1
 801              		.p2align 2,,3
 802              		.weak	_ZN7daisysp10Oscillator4InitEf
 803              		.syntax unified
 804              		.thumb
 805              		.thumb_func
 806              		.fpu fpv5-d16
 808              	_ZN7daisysp10Oscillator4InitEf:
 809              	.LVL53:
 810              	.LFB4332:
ARM GAS  C:\Users\skipi\AppData\Local\Temp\cc2QEVmM.s 			page 29


  50:../../libs/DaisySP/Source/Synthesis/oscillator.h ****     {
 811              		.loc 8 50 10 is_stmt 1 view -0
 812              		.cfi_startproc
 813              		@ args = 0, pretend = 0, frame = 0
 814              		@ frame_needed = 0, uses_anonymous_args = 0
  52:../../libs/DaisySP/Source/Synthesis/oscillator.h ****         sr_recip_  = 1.0f / sample_rate;
 815              		.loc 8 52 9 view .LVU222
  50:../../libs/DaisySP/Source/Synthesis/oscillator.h ****     {
 816              		.loc 8 50 10 is_stmt 0 view .LVU223
 817 0000 F0EE407A 		vmov.f32	s15, s0
  55:../../libs/DaisySP/Source/Synthesis/oscillator.h ****         pw_        = 0.5f;
 818              		.loc 8 55 20 view .LVU224
 819 0004 4FF07C53 		mov	r3, #1056964608
  53:../../libs/DaisySP/Source/Synthesis/oscillator.h ****         freq_      = 100.0f;
 820              		.loc 8 53 27 view .LVU225
 821 0008 F7EE006A 		vmov.f32	s13, #1.0e+0
  57:../../libs/DaisySP/Source/Synthesis/oscillator.h ****         phase_inc_ = CalcPhaseInc(freq_);
 822              		.loc 8 57 20 view .LVU226
 823 000c 0022     		movs	r2, #0
  54:../../libs/DaisySP/Source/Synthesis/oscillator.h ****         amp_       = 0.5f;
 824              		.loc 8 54 20 view .LVU227
 825 000e 9FED0C0A 		vldr.32	s0, .L31
 826              	.LVL54:
  55:../../libs/DaisySP/Source/Synthesis/oscillator.h ****         pw_        = 0.5f;
 827              		.loc 8 55 20 view .LVU228
 828 0012 4360     		str	r3, [r0, #4]	@ float
  53:../../libs/DaisySP/Source/Synthesis/oscillator.h ****         freq_      = 100.0f;
 829              		.loc 8 53 27 view .LVU229
 830 0014 86EEA77A 		vdiv.f32	s14, s13, s15
  56:../../libs/DaisySP/Source/Synthesis/oscillator.h ****         phase_     = 0.0f;
 831              		.loc 8 56 20 view .LVU230
 832 0018 C360     		str	r3, [r0, #12]	@ float
  57:../../libs/DaisySP/Source/Synthesis/oscillator.h ****         phase_inc_ = CalcPhaseInc(freq_);
 833              		.loc 8 57 20 view .LVU231
 834 001a 8261     		str	r2, [r0, #24]	@ float
  52:../../libs/DaisySP/Source/Synthesis/oscillator.h ****         sr_recip_  = 1.0f / sample_rate;
 835              		.loc 8 52 20 view .LVU232
 836 001c C0ED047A 		vstr.32	s15, [r0, #16]
  53:../../libs/DaisySP/Source/Synthesis/oscillator.h ****         freq_      = 100.0f;
 837              		.loc 8 53 9 is_stmt 1 view .LVU233
  54:../../libs/DaisySP/Source/Synthesis/oscillator.h ****         amp_       = 0.5f;
 838              		.loc 8 54 20 is_stmt 0 view .LVU234
 839 0020 80ED020A 		vstr.32	s0, [r0, #8]
  50:../../libs/DaisySP/Source/Synthesis/oscillator.h ****     {
 840              		.loc 8 50 10 view .LVU235
 841 0024 10B5     		push	{r4, lr}
 842              		.cfi_def_cfa_offset 8
 843              		.cfi_offset 4, -8
 844              		.cfi_offset 14, -4
  50:../../libs/DaisySP/Source/Synthesis/oscillator.h ****     {
 845              		.loc 8 50 10 view .LVU236
 846 0026 0446     		mov	r4, r0
  53:../../libs/DaisySP/Source/Synthesis/oscillator.h ****         freq_      = 100.0f;
 847              		.loc 8 53 20 view .LVU237
 848 0028 80ED057A 		vstr.32	s14, [r0, #20]
  54:../../libs/DaisySP/Source/Synthesis/oscillator.h ****         amp_       = 0.5f;
 849              		.loc 8 54 9 is_stmt 1 view .LVU238
ARM GAS  C:\Users\skipi\AppData\Local\Temp\cc2QEVmM.s 			page 30


  55:../../libs/DaisySP/Source/Synthesis/oscillator.h ****         pw_        = 0.5f;
 850              		.loc 8 55 9 view .LVU239
  56:../../libs/DaisySP/Source/Synthesis/oscillator.h ****         phase_     = 0.0f;
 851              		.loc 8 56 9 view .LVU240
  57:../../libs/DaisySP/Source/Synthesis/oscillator.h ****         phase_inc_ = CalcPhaseInc(freq_);
 852              		.loc 8 57 9 view .LVU241
  58:../../libs/DaisySP/Source/Synthesis/oscillator.h ****         waveform_  = WAVE_SIN;
 853              		.loc 8 58 9 view .LVU242
  58:../../libs/DaisySP/Source/Synthesis/oscillator.h ****         waveform_  = WAVE_SIN;
 854              		.loc 8 58 34 is_stmt 0 view .LVU243
 855 002c FFF7FEFF 		bl	_ZN7daisysp10Oscillator12CalcPhaseIncEf
 856              	.LVL55:
  59:../../libs/DaisySP/Source/Synthesis/oscillator.h ****         eoc_       = true;
 857              		.loc 8 59 20 view .LVU244
 858 0030 0022     		movs	r2, #0
  61:../../libs/DaisySP/Source/Synthesis/oscillator.h ****     }
 859              		.loc 8 61 20 view .LVU245
 860 0032 40F20113 		movw	r3, #257
  58:../../libs/DaisySP/Source/Synthesis/oscillator.h ****         waveform_  = WAVE_SIN;
 861              		.loc 8 58 20 view .LVU246
 862 0036 84ED070A 		vstr.32	s0, [r4, #28]
  59:../../libs/DaisySP/Source/Synthesis/oscillator.h ****         eoc_       = true;
 863              		.loc 8 59 9 is_stmt 1 view .LVU247
  59:../../libs/DaisySP/Source/Synthesis/oscillator.h ****         eoc_       = true;
 864              		.loc 8 59 20 is_stmt 0 view .LVU248
 865 003a 2270     		strb	r2, [r4]
  60:../../libs/DaisySP/Source/Synthesis/oscillator.h ****         eor_       = true;
 866              		.loc 8 60 9 is_stmt 1 view .LVU249
  61:../../libs/DaisySP/Source/Synthesis/oscillator.h ****     }
 867              		.loc 8 61 9 view .LVU250
  61:../../libs/DaisySP/Source/Synthesis/oscillator.h ****     }
 868              		.loc 8 61 20 is_stmt 0 view .LVU251
 869 003c 2385     		strh	r3, [r4, #40]	@ movhi
  62:../../libs/DaisySP/Source/Synthesis/oscillator.h **** 
 870              		.loc 8 62 5 view .LVU252
 871 003e 10BD     		pop	{r4, pc}
 872              	.LVL56:
 873              	.L32:
  62:../../libs/DaisySP/Source/Synthesis/oscillator.h **** 
 874              		.loc 8 62 5 view .LVU253
 875              		.align	2
 876              	.L31:
 877 0040 0000C842 		.word	1120403456
 878              		.cfi_endproc
 879              	.LFE4332:
 881              		.section	.text._Z8LogScalefff,"ax",%progbits
 882              		.align	1
 883              		.p2align 2,,3
 884              		.global	_Z8LogScalefff
 885              		.syntax unified
 886              		.thumb
 887              		.thumb_func
 888              		.fpu fpv5-d16
 890              	_Z8LogScalefff:
 891              	.LVL57:
 892              	.LFB4817:
  86:mainPot.cpp   ****     // Implementa una scala logaritmica tra min_value e max_value
ARM GAS  C:\Users\skipi\AppData\Local\Temp\cc2QEVmM.s 			page 31


 893              		.loc 11 86 61 is_stmt 1 view -0
 894              		.cfi_startproc
 895              		@ args = 0, pretend = 0, frame = 0
 896              		@ frame_needed = 0, uses_anonymous_args = 0
  88:mainPot.cpp   ****     float max_log = logf(max_value);
 897              		.loc 11 88 5 view .LVU255
  86:mainPot.cpp   ****     // Implementa una scala logaritmica tra min_value e max_value
 898              		.loc 11 86 61 is_stmt 0 view .LVU256
 899 0000 08B5     		push	{r3, lr}
 900              		.cfi_def_cfa_offset 8
 901              		.cfi_offset 3, -8
 902              		.cfi_offset 14, -4
 903 0002 2DED048B 		vpush.64	{d8, d9}
 904              		.cfi_def_cfa_offset 24
 905              		.cfi_offset 80, -24
 906              		.cfi_offset 81, -20
 907              		.cfi_offset 82, -16
 908              		.cfi_offset 83, -12
  86:mainPot.cpp   ****     // Implementa una scala logaritmica tra min_value e max_value
 909              		.loc 11 86 61 view .LVU257
 910 0006 B0EE419A 		vmov.f32	s18, s2
 911 000a F0EE408A 		vmov.f32	s17, s0
  88:mainPot.cpp   ****     float max_log = logf(max_value);
 912              		.loc 11 88 25 view .LVU258
 913 000e B0EE600A 		vmov.f32	s0, s1
 914              	.LVL58:
  88:mainPot.cpp   ****     float max_log = logf(max_value);
 915              		.loc 11 88 25 view .LVU259
 916 0012 FFF7FEFF 		bl	logf
 917              	.LVL59:
  88:mainPot.cpp   ****     float max_log = logf(max_value);
 918              		.loc 11 88 25 view .LVU260
 919 0016 B0EE408A 		vmov.f32	s16, s0
  89:mainPot.cpp   ****     float exp_scale = min_log + (max_log - min_log) * pos;
 920              		.loc 11 89 25 view .LVU261
 921 001a B0EE490A 		vmov.f32	s0, s18
 922              	.LVL60:
  89:mainPot.cpp   ****     float exp_scale = min_log + (max_log - min_log) * pos;
 923              		.loc 11 89 5 is_stmt 1 view .LVU262
  89:mainPot.cpp   ****     float exp_scale = min_log + (max_log - min_log) * pos;
 924              		.loc 11 89 25 is_stmt 0 view .LVU263
 925 001e FFF7FEFF 		bl	logf
 926              	.LVL61:
  90:mainPot.cpp   ****     return expf(exp_scale);
 927              		.loc 11 90 5 is_stmt 1 view .LVU264
  90:mainPot.cpp   ****     return expf(exp_scale);
 928              		.loc 11 90 42 is_stmt 0 view .LVU265
 929 0022 30EE480A 		vsub.f32	s0, s0, s16
 930              	.LVL62:
  91:mainPot.cpp   **** }
 931              		.loc 11 91 5 is_stmt 1 view .LVU266
  91:mainPot.cpp   **** }
 932              		.loc 11 91 16 is_stmt 0 view .LVU267
 933 0026 A0EE288A 		vfma.f32	s16, s0, s17
 934              	.LVL63:
  91:mainPot.cpp   **** }
 935              		.loc 11 91 16 view .LVU268
ARM GAS  C:\Users\skipi\AppData\Local\Temp\cc2QEVmM.s 			page 32


 936 002a B0EE480A 		vmov.f32	s0, s16
  92:mainPot.cpp   **** 
 937              		.loc 11 92 1 view .LVU269
 938 002e BDEC048B 		vldm	sp!, {d8-d9}
 939              		.cfi_restore 82
 940              		.cfi_restore 83
 941              		.cfi_restore 80
 942              		.cfi_restore 81
 943              		.cfi_def_cfa_offset 8
 944              	.LVL64:
  92:mainPot.cpp   **** 
 945              		.loc 11 92 1 view .LVU270
 946 0032 BDE80840 		pop	{r3, lr}
 947              		.cfi_restore 14
 948              		.cfi_restore 3
 949              		.cfi_def_cfa_offset 0
  91:mainPot.cpp   **** }
 950              		.loc 11 91 16 view .LVU271
 951 0036 FFF7FEBF 		b	expf
 952              	.LVL65:
  91:mainPot.cpp   **** }
 953              		.loc 11 91 16 view .LVU272
 954              		.cfi_endproc
 955              	.LFE4817:
 957 003a 00BF     		.section	.text._Z12InitHardwarev,"ax",%progbits
 958              		.align	1
 959              		.p2align 2,,3
 960              		.global	_Z12InitHardwarev
 961              		.syntax unified
 962              		.thumb
 963              		.thumb_func
 964              		.fpu fpv5-d16
 966              	_Z12InitHardwarev:
 967              	.LFB4818:
  95:mainPot.cpp   ****     
 968              		.loc 11 95 21 is_stmt 1 view -0
 969              		.cfi_startproc
 970              		@ args = 0, pretend = 0, frame = 24
 971              		@ frame_needed = 0, uses_anonymous_args = 0
  98:mainPot.cpp   ****     adcConfig[1].InitSingle(hw.GetPin(16)); // Secondo potenziometro
 972              		.loc 11 98 5 view .LVU274
  95:mainPot.cpp   ****     
 973              		.loc 11 95 21 is_stmt 0 view .LVU275
 974 0000 30B5     		push	{r4, r5, lr}
 975              		.cfi_def_cfa_offset 12
 976              		.cfi_offset 4, -12
 977              		.cfi_offset 5, -8
 978              		.cfi_offset 14, -4
  98:mainPot.cpp   ****     adcConfig[1].InitSingle(hw.GetPin(16)); // Secondo potenziometro
 979              		.loc 11 98 28 view .LVU276
 980 0002 0F20     		movs	r0, #15
  95:mainPot.cpp   ****     
 981              		.loc 11 95 21 view .LVU277
 982 0004 87B0     		sub	sp, sp, #28
 983              		.cfi_def_cfa_offset 40
  98:mainPot.cpp   ****     adcConfig[1].InitSingle(hw.GetPin(16)); // Secondo potenziometro
 984              		.loc 11 98 28 view .LVU278
ARM GAS  C:\Users\skipi\AppData\Local\Temp\cc2QEVmM.s 			page 33


 985 0006 FFF7FEFF 		bl	_ZN5daisy9DaisySeed6GetPinEh
 986              	.LVL66:
 987 000a 0346     		mov	r3, r0	@ movhi
 988 000c 254C     		ldr	r4, .L37
 989 000e 0222     		movs	r2, #2
 990 0010 ADF80030 		strh	r3, [sp]	@ movhi
 991 0014 0099     		ldr	r1, [sp]
 992 0016 2046     		mov	r0, r4
 993 0018 FFF7FEFF 		bl	_ZN5daisy16AdcChannelConfig10InitSingleENS_3PinENS0_15ConversionSpeedE
 994              	.LVL67:
  99:mainPot.cpp   ****     adcConfig[2].InitSingle(hw.GetPin(17)); // Terzo potenziometro
 995              		.loc 11 99 5 is_stmt 1 view .LVU279
  99:mainPot.cpp   ****     adcConfig[2].InitSingle(hw.GetPin(17)); // Terzo potenziometro
 996              		.loc 11 99 28 is_stmt 0 view .LVU280
 997 001c 1020     		movs	r0, #16
 998 001e FFF7FEFF 		bl	_ZN5daisy9DaisySeed6GetPinEh
 999              	.LVL68:
 1000 0022 ADF80400 		strh	r0, [sp, #4]	@ movhi
 1001 0026 0199     		ldr	r1, [sp, #4]
 1002 0028 0222     		movs	r2, #2
 1003 002a 04F15400 		add	r0, r4, #84
 104:mainPot.cpp   ****     hw.adc.Start();                         // Avvio della conversione ADC
 1004              		.loc 11 104 16 view .LVU281
 1005 002e 1E4D     		ldr	r5, .L37+4
  99:mainPot.cpp   ****     adcConfig[2].InitSingle(hw.GetPin(17)); // Terzo potenziometro
 1006              		.loc 11 99 28 view .LVU282
 1007 0030 FFF7FEFF 		bl	_ZN5daisy16AdcChannelConfig10InitSingleENS_3PinENS0_15ConversionSpeedE
 1008              	.LVL69:
 100:mainPot.cpp   ****     adcConfig[3].InitSingle(hw.GetPin(18)); // Quarto potenziometro
 1009              		.loc 11 100 5 is_stmt 1 view .LVU283
 100:mainPot.cpp   ****     adcConfig[3].InitSingle(hw.GetPin(18)); // Quarto potenziometro
 1010              		.loc 11 100 28 is_stmt 0 view .LVU284
 1011 0034 1120     		movs	r0, #17
 1012 0036 FFF7FEFF 		bl	_ZN5daisy9DaisySeed6GetPinEh
 1013              	.LVL70:
 1014 003a ADF80800 		strh	r0, [sp, #8]	@ movhi
 1015 003e 0299     		ldr	r1, [sp, #8]
 1016 0040 0222     		movs	r2, #2
 1017 0042 04F1A800 		add	r0, r4, #168
 1018 0046 FFF7FEFF 		bl	_ZN5daisy16AdcChannelConfig10InitSingleENS_3PinENS0_15ConversionSpeedE
 1019              	.LVL71:
 101:mainPot.cpp   ****     adcConfig[4].InitSingle(hw.GetPin(19)); // Quinto potenziometro
 1020              		.loc 11 101 5 is_stmt 1 view .LVU285
 101:mainPot.cpp   ****     adcConfig[4].InitSingle(hw.GetPin(19)); // Quinto potenziometro
 1021              		.loc 11 101 28 is_stmt 0 view .LVU286
 1022 004a 1220     		movs	r0, #18
 1023 004c FFF7FEFF 		bl	_ZN5daisy9DaisySeed6GetPinEh
 1024              	.LVL72:
 1025 0050 ADF80C00 		strh	r0, [sp, #12]	@ movhi
 1026 0054 0399     		ldr	r1, [sp, #12]
 1027 0056 0222     		movs	r2, #2
 1028 0058 04F1FC00 		add	r0, r4, #252
 1029 005c FFF7FEFF 		bl	_ZN5daisy16AdcChannelConfig10InitSingleENS_3PinENS0_15ConversionSpeedE
 1030              	.LVL73:
 102:mainPot.cpp   ****     adcConfig[5].InitSingle(hw.GetPin(20)); // Sesto potenziometro
 1031              		.loc 11 102 5 is_stmt 1 view .LVU287
 102:mainPot.cpp   ****     adcConfig[5].InitSingle(hw.GetPin(20)); // Sesto potenziometro
ARM GAS  C:\Users\skipi\AppData\Local\Temp\cc2QEVmM.s 			page 34


 1032              		.loc 11 102 28 is_stmt 0 view .LVU288
 1033 0060 1320     		movs	r0, #19
 1034 0062 FFF7FEFF 		bl	_ZN5daisy9DaisySeed6GetPinEh
 1035              	.LVL74:
 1036 0066 ADF81000 		strh	r0, [sp, #16]	@ movhi
 1037 006a 0499     		ldr	r1, [sp, #16]
 1038 006c 0222     		movs	r2, #2
 1039 006e 04F5A870 		add	r0, r4, #336
 1040 0072 FFF7FEFF 		bl	_ZN5daisy16AdcChannelConfig10InitSingleENS_3PinENS0_15ConversionSpeedE
 1041              	.LVL75:
 103:mainPot.cpp   ****     hw.adc.Init(adcConfig, ADC_CH);              // Inizializzazione ADC con 3 canali
 1042              		.loc 11 103 5 is_stmt 1 view .LVU289
 103:mainPot.cpp   ****     hw.adc.Init(adcConfig, ADC_CH);              // Inizializzazione ADC con 3 canali
 1043              		.loc 11 103 28 is_stmt 0 view .LVU290
 1044 0076 1420     		movs	r0, #20
 1045 0078 FFF7FEFF 		bl	_ZN5daisy9DaisySeed6GetPinEh
 1046              	.LVL76:
 1047 007c ADF81400 		strh	r0, [sp, #20]	@ movhi
 1048 0080 0599     		ldr	r1, [sp, #20]
 1049 0082 04F5D270 		add	r0, r4, #420
 1050 0086 0222     		movs	r2, #2
 1051 0088 FFF7FEFF 		bl	_ZN5daisy16AdcChannelConfig10InitSingleENS_3PinENS0_15ConversionSpeedE
 1052              	.LVL77:
 104:mainPot.cpp   ****     hw.adc.Start();                         // Avvio della conversione ADC
 1053              		.loc 11 104 5 is_stmt 1 view .LVU291
 104:mainPot.cpp   ****     hw.adc.Start();                         // Avvio della conversione ADC
 1054              		.loc 11 104 16 is_stmt 0 view .LVU292
 1055 008c 2846     		mov	r0, r5
 1056 008e 0423     		movs	r3, #4
 1057 0090 0622     		movs	r2, #6
 1058 0092 2146     		mov	r1, r4
 1059 0094 FFF7FEFF 		bl	_ZN5daisy9AdcHandle4InitEPNS_16AdcChannelConfigEjNS0_12OverSamplingE
 1060              	.LVL78:
 105:mainPot.cpp   **** }
 1061              		.loc 11 105 5 is_stmt 1 view .LVU293
 105:mainPot.cpp   **** }
 1062              		.loc 11 105 17 is_stmt 0 view .LVU294
 1063 0098 2846     		mov	r0, r5
 106:mainPot.cpp   **** // Audio callback executed for each audio block
 1064              		.loc 11 106 1 view .LVU295
 1065 009a 07B0     		add	sp, sp, #28
 1066              		.cfi_def_cfa_offset 12
 1067              		@ sp needed
 1068 009c BDE83040 		pop	{r4, r5, lr}
 1069              		.cfi_restore 14
 1070              		.cfi_restore 5
 1071              		.cfi_restore 4
 1072              		.cfi_def_cfa_offset 0
 105:mainPot.cpp   **** }
 1073              		.loc 11 105 17 view .LVU296
 1074 00a0 FFF7FEBF 		b	_ZN5daisy9AdcHandle5StartEv
 1075              	.LVL79:
 1076              	.L38:
 1077              		.align	2
 1078              	.L37:
 1079 00a4 00000000 		.word	.LANCHOR40
 1080 00a8 18000000 		.word	.LANCHOR41+24
ARM GAS  C:\Users\skipi\AppData\Local\Temp\cc2QEVmM.s 			page 35


 1081              		.cfi_endproc
 1082              	.LFE4818:
 1084              		.section	.text.startup.main,"ax",%progbits
 1085              		.align	1
 1086              		.p2align 2,,3
 1087              		.global	main
 1088              		.syntax unified
 1089              		.thumb
 1090              		.thumb_func
 1091              		.fpu fpv5-d16
 1093              	main:
 1094              	.LFB4820:
 185:mainPot.cpp   **** 
 186:mainPot.cpp   **** int main() {
 1095              		.loc 11 186 12 is_stmt 1 view -0
 1096              		.cfi_startproc
 1097              		@ args = 0, pretend = 0, frame = 0
 1098              		@ frame_needed = 0, uses_anonymous_args = 0
 187:mainPot.cpp   ****     hw.Configure();                                                             // Hardware configu
 1099              		.loc 11 187 5 view .LVU298
 186:mainPot.cpp   ****     hw.Configure();                                                             // Hardware configu
 1100              		.loc 11 186 12 is_stmt 0 view .LVU299
 1101 0000 2DE9F843 		push	{r3, r4, r5, r6, r7, r8, r9, lr}
 1102              		.cfi_def_cfa_offset 32
 1103              		.cfi_offset 3, -32
 1104              		.cfi_offset 4, -28
 1105              		.cfi_offset 5, -24
 1106              		.cfi_offset 6, -20
 1107              		.cfi_offset 7, -16
 1108              		.cfi_offset 8, -12
 1109              		.cfi_offset 9, -8
 1110              		.cfi_offset 14, -4
 1111              		.loc 11 187 17 view .LVU300
 1112 0004 D648     		ldr	r0, .L42
 188:mainPot.cpp   ****     hw.Init();                                                                  // Hardware initial
 189:mainPot.cpp   **** 
 190:mainPot.cpp   ****     hw.SetAudioBlockSize(4);                                                    // Set audio block 
 191:mainPot.cpp   ****     hw.SetAudioSampleRate(SaiHandle::Config::SampleRate::SAI_48KHZ);            // Set sample rate 
 192:mainPot.cpp   **** //------------------------------------------------------------------------------Inizializza Ogetti 
 193:mainPot.cpp   ****     Pluck.Init(hw.AudioSampleRate());                                            // Initialize the 
 194:mainPot.cpp   ****     Bass.Init(hw.AudioSampleRate());                                            // Initialize the R
 195:mainPot.cpp   ****     Pad.Init(hw.AudioSampleRate());                                            // Initialize the Ra
 196:mainPot.cpp   **** 
 197:mainPot.cpp   ****     Pluck.SetWaveforms(wf_Pluck);                                                      // Set wavef
 198:mainPot.cpp   ****     Bass.SetWaveforms(wf_Bass);                                                      // Set wavefor
 199:mainPot.cpp   ****     Pad.SetWaveforms(wf_Pad);                                                      // Set waveforms
 200:mainPot.cpp   **** 
 201:mainPot.cpp   ****     Pluck.SetFreq(440.0f);                                                       // Set frequency
 202:mainPot.cpp   ****     Bass.SetFreq(440.0f);                                                       // Set frequency
 203:mainPot.cpp   ****     Pad.SetFreq(440.0f);                                                       // Set frequency
 204:mainPot.cpp   **** 
 205:mainPot.cpp   ****     Pluck.SetDetune(ef_Pluck);                                                         // Set detun
 206:mainPot.cpp   ****     Bass.SetDetune(ef_Bass);                                                         // Set detune
 207:mainPot.cpp   ****     Pad.SetDetune(ef_Pad);                                                         // Set detune
 208:mainPot.cpp   **** 
 209:mainPot.cpp   ****     Pluck.SetAmp(g_Pluck);                                                             // Set ampli
 210:mainPot.cpp   ****     Bass.SetAmp(g_Bass);                                                             // Set amplitu
ARM GAS  C:\Users\skipi\AppData\Local\Temp\cc2QEVmM.s 			page 36


 211:mainPot.cpp   ****     Pad.SetAmp(g_Pad);                                                             // Set amplitude
 212:mainPot.cpp   **** 
 213:mainPot.cpp   ****     Pluck.SetShape(0);                                                        // Set shape modulati
 214:mainPot.cpp   ****     Bass.SetShape(0);                                                        // Set shape modulatio
 215:mainPot.cpp   ****     Pad.SetShape(0);                                                        // Set shape modulation
 216:mainPot.cpp   **** //----------------------------------------------------------------------------------Inizializza LFO
 217:mainPot.cpp   ****     lfo_Pluck.Init(hw.AudioSampleRate());                                          // Initialize LF
 1113              		.loc 11 217 19 view .LVU301
 1114 0006 D74E     		ldr	r6, .L42+4
 218:mainPot.cpp   ****     lfo_Bass.Init(hw.AudioSampleRate());                                          // Initialize LFO
 1115              		.loc 11 218 18 view .LVU302
 1116 0008 D74D     		ldr	r5, .L42+8
 219:mainPot.cpp   ****     lfo_Pad.Init(hw.AudioSampleRate());                                          // Initialize LFO
 1117              		.loc 11 219 17 view .LVU303
 1118 000a D84C     		ldr	r4, .L42+12
 1119              	.LBB325:
 1120              	.LBB326:
  46:../../libs/DaisySP/Source/Control/adsr.h ****     /** Initializes the Adsr module.
  47:../../libs/DaisySP/Source/Control/adsr.h ****         \param sample_rate - The sample rate of the audio engine being run. 
  48:../../libs/DaisySP/Source/Control/adsr.h ****     */
  49:../../libs/DaisySP/Source/Control/adsr.h ****     void Init(float sample_rate, int blockSize = 1);
  50:../../libs/DaisySP/Source/Control/adsr.h ****     /**
  51:../../libs/DaisySP/Source/Control/adsr.h ****      \function Retrigger forces the envelope back to attack phase
  52:../../libs/DaisySP/Source/Control/adsr.h ****      \param hard  resets the history to zero, results in a click.
  53:../../libs/DaisySP/Source/Control/adsr.h ****      */
  54:../../libs/DaisySP/Source/Control/adsr.h ****     void Retrigger(bool hard);
  55:../../libs/DaisySP/Source/Control/adsr.h ****     /** Processes one sample through the filter and returns one sample.
  56:../../libs/DaisySP/Source/Control/adsr.h ****         \param gate - trigger the envelope, hold it to sustain 
  57:../../libs/DaisySP/Source/Control/adsr.h ****     */
  58:../../libs/DaisySP/Source/Control/adsr.h ****     float Process(bool gate);
  59:../../libs/DaisySP/Source/Control/adsr.h ****     /** Sets time
  60:../../libs/DaisySP/Source/Control/adsr.h ****         Set time per segment in seconds
  61:../../libs/DaisySP/Source/Control/adsr.h ****     */
  62:../../libs/DaisySP/Source/Control/adsr.h ****     void SetTime(int seg, float time);
  63:../../libs/DaisySP/Source/Control/adsr.h ****     void SetAttackTime(float timeInS, float shape = 0.0f);
  64:../../libs/DaisySP/Source/Control/adsr.h ****     void SetDecayTime(float timeInS);
  65:../../libs/DaisySP/Source/Control/adsr.h ****     void SetReleaseTime(float timeInS);
  66:../../libs/DaisySP/Source/Control/adsr.h **** 
  67:../../libs/DaisySP/Source/Control/adsr.h ****   private:
  68:../../libs/DaisySP/Source/Control/adsr.h ****     void SetTimeConstant(float timeInS, float& time, float& coeff);
  69:../../libs/DaisySP/Source/Control/adsr.h **** 
  70:../../libs/DaisySP/Source/Control/adsr.h ****   public:
  71:../../libs/DaisySP/Source/Control/adsr.h ****     /** Sustain level
  72:../../libs/DaisySP/Source/Control/adsr.h ****         \param sus_level - sets sustain level, 0...1.0
  73:../../libs/DaisySP/Source/Control/adsr.h ****     */
  74:../../libs/DaisySP/Source/Control/adsr.h ****     inline void SetSustainLevel(float sus_level)
  75:../../libs/DaisySP/Source/Control/adsr.h ****     {
  76:../../libs/DaisySP/Source/Control/adsr.h ****         sus_level = (sus_level <= 0.f) ? -0.01f // forces envelope into idle
  77:../../libs/DaisySP/Source/Control/adsr.h ****                                        : (sus_level > 1.f) ? 1.f : sus_level;
  78:../../libs/DaisySP/Source/Control/adsr.h ****         sus_level_ = sus_level;
 1121              		.loc 7 78 20 view .LVU304
 1122 000c D84F     		ldr	r7, .L42+16
 1123 000e DFF8FC93 		ldr	r9, .L42+172
 1124 0012 DFF8FC83 		ldr	r8, .L42+176
 1125              	.LBE326:
 1126              	.LBE325:
 186:mainPot.cpp   ****     hw.Configure();                                                             // Hardware configu
ARM GAS  C:\Users\skipi\AppData\Local\Temp\cc2QEVmM.s 			page 37


 1127              		.loc 11 186 12 view .LVU305
 1128 0016 2DED068B 		vpush.64	{d8, d9, d10}
 1129              		.cfi_def_cfa_offset 56
 1130              		.cfi_offset 80, -56
 1131              		.cfi_offset 81, -52
 1132              		.cfi_offset 82, -48
 1133              		.cfi_offset 83, -44
 1134              		.cfi_offset 84, -40
 1135              		.cfi_offset 85, -36
 187:mainPot.cpp   ****     hw.Init();                                                                  // Hardware initial
 1136              		.loc 11 187 17 view .LVU306
 1137 001a FFF7FEFF 		bl	_ZN5daisy9DaisySeed9ConfigureEv
 1138              	.LVL80:
 188:mainPot.cpp   **** 
 1139              		.loc 11 188 5 is_stmt 1 view .LVU307
 188:mainPot.cpp   **** 
 1140              		.loc 11 188 12 is_stmt 0 view .LVU308
 1141 001e 0021     		movs	r1, #0
 1142 0020 CF48     		ldr	r0, .L42
 1143              	.LBB329:
 1144              	.LBB330:
  69:../../libs/DaisySP/Source/Synthesis/oscillator.h ****         phase_inc_ = CalcPhaseInc(f);
 1145              		.loc 8 69 20 view .LVU309
 1146 0022 B6EE008A 		vmov.f32	s16, #5.0e-1
 1147              	.LBE330:
 1148              	.LBE329:
 188:mainPot.cpp   **** 
 1149              		.loc 11 188 12 view .LVU310
 1150 0026 FFF7FEFF 		bl	_ZN5daisy9DaisySeed4InitEb
 1151              	.LVL81:
 190:mainPot.cpp   ****     hw.SetAudioSampleRate(SaiHandle::Config::SampleRate::SAI_48KHZ);            // Set sample rate 
 1152              		.loc 11 190 5 is_stmt 1 view .LVU311
 190:mainPot.cpp   ****     hw.SetAudioSampleRate(SaiHandle::Config::SampleRate::SAI_48KHZ);            // Set sample rate 
 1153              		.loc 11 190 25 is_stmt 0 view .LVU312
 1154 002a 0421     		movs	r1, #4
 1155 002c CC48     		ldr	r0, .L42
 1156              	.LBB334:
 1157              	.LBB335:
 1158              		.loc 8 76 46 view .LVU313
 1159 002e F7EE008A 		vmov.f32	s17, #1.0e+0
 1160              	.LBE335:
 1161              	.LBE334:
 190:mainPot.cpp   ****     hw.SetAudioSampleRate(SaiHandle::Config::SampleRate::SAI_48KHZ);            // Set sample rate 
 1162              		.loc 11 190 25 view .LVU314
 1163 0032 FFF7FEFF 		bl	_ZN5daisy9DaisySeed17SetAudioBlockSizeEj
 1164              	.LVL82:
 191:mainPot.cpp   **** //------------------------------------------------------------------------------Inizializza Ogetti 
 1165              		.loc 11 191 5 is_stmt 1 view .LVU315
 191:mainPot.cpp   **** //------------------------------------------------------------------------------Inizializza Ogetti 
 1166              		.loc 11 191 26 is_stmt 0 view .LVU316
 1167 0036 0321     		movs	r1, #3
 1168 0038 C948     		ldr	r0, .L42
 1169              	.LBB338:
 1170              	.LBB339:
 1171              		.loc 7 78 20 view .LVU317
 1172 003a F6EE089A 		vmov.f32	s19, #7.5e-1
 1173              	.LBE339:
ARM GAS  C:\Users\skipi\AppData\Local\Temp\cc2QEVmM.s 			page 38


 1174              	.LBE338:
 191:mainPot.cpp   **** //------------------------------------------------------------------------------Inizializza Ogetti 
 1175              		.loc 11 191 26 view .LVU318
 1176 003e FFF7FEFF 		bl	_ZN5daisy9DaisySeed18SetAudioSampleRateENS_9SaiHandle6Config10SampleRateE
 1177              	.LVL83:
 193:mainPot.cpp   ****     Bass.Init(hw.AudioSampleRate());                                            // Initialize the R
 1178              		.loc 11 193 5 is_stmt 1 view .LVU319
 193:mainPot.cpp   ****     Bass.Init(hw.AudioSampleRate());                                            // Initialize the R
 1179              		.loc 11 193 15 is_stmt 0 view .LVU320
 1180 0042 C748     		ldr	r0, .L42
 1181 0044 FFF7FEFF 		bl	_ZN5daisy9DaisySeed15AudioSampleRateEv
 1182              	.LVL84:
 1183 0048 CA48     		ldr	r0, .L42+20
 1184 004a FFF7FEFF 		bl	_ZN4Ramo4InitEf
 1185              	.LVL85:
 194:mainPot.cpp   ****     Pad.Init(hw.AudioSampleRate());                                            // Initialize the Ra
 1186              		.loc 11 194 5 is_stmt 1 view .LVU321
 194:mainPot.cpp   ****     Pad.Init(hw.AudioSampleRate());                                            // Initialize the Ra
 1187              		.loc 11 194 14 is_stmt 0 view .LVU322
 1188 004e C448     		ldr	r0, .L42
 1189 0050 FFF7FEFF 		bl	_ZN5daisy9DaisySeed15AudioSampleRateEv
 1190              	.LVL86:
 1191 0054 C848     		ldr	r0, .L42+24
 1192 0056 FFF7FEFF 		bl	_ZN4Ramo4InitEf
 1193              	.LVL87:
 195:mainPot.cpp   **** 
 1194              		.loc 11 195 5 is_stmt 1 view .LVU323
 195:mainPot.cpp   **** 
 1195              		.loc 11 195 13 is_stmt 0 view .LVU324
 1196 005a C148     		ldr	r0, .L42
 1197 005c FFF7FEFF 		bl	_ZN5daisy9DaisySeed15AudioSampleRateEv
 1198              	.LVL88:
 1199 0060 C648     		ldr	r0, .L42+28
 1200 0062 FFF7FEFF 		bl	_ZN4Ramo4InitEf
 1201              	.LVL89:
 197:mainPot.cpp   ****     Bass.SetWaveforms(wf_Bass);                                                      // Set wavefor
 1202              		.loc 11 197 5 is_stmt 1 view .LVU325
 197:mainPot.cpp   ****     Bass.SetWaveforms(wf_Bass);                                                      // Set wavefor
 1203              		.loc 11 197 23 is_stmt 0 view .LVU326
 1204 0066 C649     		ldr	r1, .L42+32
 1205 0068 C248     		ldr	r0, .L42+20
 1206 006a FFF7FEFF 		bl	_ZN4Ramo12SetWaveformsEPh
 1207              	.LVL90:
 198:mainPot.cpp   ****     Pad.SetWaveforms(wf_Pad);                                                      // Set waveforms
 1208              		.loc 11 198 5 is_stmt 1 view .LVU327
 198:mainPot.cpp   ****     Pad.SetWaveforms(wf_Pad);                                                      // Set waveforms
 1209              		.loc 11 198 22 is_stmt 0 view .LVU328
 1210 006e C549     		ldr	r1, .L42+36
 1211 0070 C148     		ldr	r0, .L42+24
 1212 0072 FFF7FEFF 		bl	_ZN4Ramo12SetWaveformsEPh
 1213              	.LVL91:
 199:mainPot.cpp   **** 
 1214              		.loc 11 199 5 is_stmt 1 view .LVU329
 199:mainPot.cpp   **** 
 1215              		.loc 11 199 21 is_stmt 0 view .LVU330
 1216 0076 C449     		ldr	r1, .L42+40
 1217 0078 C048     		ldr	r0, .L42+28
ARM GAS  C:\Users\skipi\AppData\Local\Temp\cc2QEVmM.s 			page 39


 1218 007a FFF7FEFF 		bl	_ZN4Ramo12SetWaveformsEPh
 1219              	.LVL92:
 201:mainPot.cpp   ****     Bass.SetFreq(440.0f);                                                       // Set frequency
 1220              		.loc 11 201 5 is_stmt 1 view .LVU331
 201:mainPot.cpp   ****     Bass.SetFreq(440.0f);                                                       // Set frequency
 1221              		.loc 11 201 18 is_stmt 0 view .LVU332
 1222 007e 9FEDC30A 		vldr.32	s0, .L42+44
 1223 0082 BC48     		ldr	r0, .L42+20
 1224 0084 FFF7FEFF 		bl	_ZN4Ramo7SetFreqEf
 1225              	.LVL93:
 202:mainPot.cpp   ****     Pad.SetFreq(440.0f);                                                       // Set frequency
 1226              		.loc 11 202 5 is_stmt 1 view .LVU333
 202:mainPot.cpp   ****     Pad.SetFreq(440.0f);                                                       // Set frequency
 1227              		.loc 11 202 17 is_stmt 0 view .LVU334
 1228 0088 9FEDC00A 		vldr.32	s0, .L42+44
 1229 008c BA48     		ldr	r0, .L42+24
 1230 008e FFF7FEFF 		bl	_ZN4Ramo7SetFreqEf
 1231              	.LVL94:
 203:mainPot.cpp   **** 
 1232              		.loc 11 203 5 is_stmt 1 view .LVU335
 203:mainPot.cpp   **** 
 1233              		.loc 11 203 16 is_stmt 0 view .LVU336
 1234 0092 9FEDBE0A 		vldr.32	s0, .L42+44
 1235 0096 B948     		ldr	r0, .L42+28
 1236 0098 FFF7FEFF 		bl	_ZN4Ramo7SetFreqEf
 1237              	.LVL95:
 205:mainPot.cpp   ****     Bass.SetDetune(ef_Bass);                                                         // Set detune
 1238              		.loc 11 205 5 is_stmt 1 view .LVU337
 205:mainPot.cpp   ****     Bass.SetDetune(ef_Bass);                                                         // Set detune
 1239              		.loc 11 205 20 is_stmt 0 view .LVU338
 1240 009c BC49     		ldr	r1, .L42+48
 1241 009e B548     		ldr	r0, .L42+20
 1242 00a0 FFF7FEFF 		bl	_ZN4Ramo9SetDetuneEPf
 1243              	.LVL96:
 206:mainPot.cpp   ****     Pad.SetDetune(ef_Pad);                                                         // Set detune
 1244              		.loc 11 206 5 is_stmt 1 view .LVU339
 206:mainPot.cpp   ****     Pad.SetDetune(ef_Pad);                                                         // Set detune
 1245              		.loc 11 206 19 is_stmt 0 view .LVU340
 1246 00a4 BB49     		ldr	r1, .L42+52
 1247 00a6 B448     		ldr	r0, .L42+24
 1248 00a8 FFF7FEFF 		bl	_ZN4Ramo9SetDetuneEPf
 1249              	.LVL97:
 207:mainPot.cpp   **** 
 1250              		.loc 11 207 5 is_stmt 1 view .LVU341
 207:mainPot.cpp   **** 
 1251              		.loc 11 207 18 is_stmt 0 view .LVU342
 1252 00ac BA49     		ldr	r1, .L42+56
 1253 00ae B348     		ldr	r0, .L42+28
 1254 00b0 FFF7FEFF 		bl	_ZN4Ramo9SetDetuneEPf
 1255              	.LVL98:
 209:mainPot.cpp   ****     Bass.SetAmp(g_Bass);                                                             // Set amplitu
 1256              		.loc 11 209 5 is_stmt 1 view .LVU343
 209:mainPot.cpp   ****     Bass.SetAmp(g_Bass);                                                             // Set amplitu
 1257              		.loc 11 209 17 is_stmt 0 view .LVU344
 1258 00b4 B949     		ldr	r1, .L42+60
 1259 00b6 AF48     		ldr	r0, .L42+20
 1260 00b8 FFF7FEFF 		bl	_ZN4Ramo6SetAmpEPf
ARM GAS  C:\Users\skipi\AppData\Local\Temp\cc2QEVmM.s 			page 40


 1261              	.LVL99:
 210:mainPot.cpp   ****     Pad.SetAmp(g_Pad);                                                             // Set amplitude
 1262              		.loc 11 210 5 is_stmt 1 view .LVU345
 210:mainPot.cpp   ****     Pad.SetAmp(g_Pad);                                                             // Set amplitude
 1263              		.loc 11 210 16 is_stmt 0 view .LVU346
 1264 00bc B849     		ldr	r1, .L42+64
 1265 00be AE48     		ldr	r0, .L42+24
 1266 00c0 FFF7FEFF 		bl	_ZN4Ramo6SetAmpEPf
 1267              	.LVL100:
 211:mainPot.cpp   **** 
 1268              		.loc 11 211 5 is_stmt 1 view .LVU347
 211:mainPot.cpp   **** 
 1269              		.loc 11 211 15 is_stmt 0 view .LVU348
 1270 00c4 B749     		ldr	r1, .L42+68
 1271 00c6 AD48     		ldr	r0, .L42+28
 1272 00c8 FFF7FEFF 		bl	_ZN4Ramo6SetAmpEPf
 1273              	.LVL101:
 213:mainPot.cpp   ****     Bass.SetShape(0);                                                        // Set shape modulatio
 1274              		.loc 11 213 5 is_stmt 1 view .LVU349
 213:mainPot.cpp   ****     Bass.SetShape(0);                                                        // Set shape modulatio
 1275              		.loc 11 213 19 is_stmt 0 view .LVU350
 1276 00cc 9FEDB60A 		vldr.32	s0, .L42+72
 1277 00d0 A848     		ldr	r0, .L42+20
 1278 00d2 FFF7FEFF 		bl	_ZN4Ramo8SetShapeEf
 1279              	.LVL102:
 214:mainPot.cpp   ****     Pad.SetShape(0);                                                        // Set shape modulation
 1280              		.loc 11 214 5 is_stmt 1 view .LVU351
 214:mainPot.cpp   ****     Pad.SetShape(0);                                                        // Set shape modulation
 1281              		.loc 11 214 18 is_stmt 0 view .LVU352
 1282 00d6 9FEDB40A 		vldr.32	s0, .L42+72
 1283 00da A748     		ldr	r0, .L42+24
 1284 00dc FFF7FEFF 		bl	_ZN4Ramo8SetShapeEf
 1285              	.LVL103:
 215:mainPot.cpp   **** //----------------------------------------------------------------------------------Inizializza LFO
 1286              		.loc 11 215 5 is_stmt 1 view .LVU353
 215:mainPot.cpp   **** //----------------------------------------------------------------------------------Inizializza LFO
 1287              		.loc 11 215 17 is_stmt 0 view .LVU354
 1288 00e0 9FEDB10A 		vldr.32	s0, .L42+72
 1289 00e4 A548     		ldr	r0, .L42+28
 1290 00e6 FFF7FEFF 		bl	_ZN4Ramo8SetShapeEf
 1291              	.LVL104:
 217:mainPot.cpp   ****     lfo_Bass.Init(hw.AudioSampleRate());                                          // Initialize LFO
 1292              		.loc 11 217 5 is_stmt 1 view .LVU355
 217:mainPot.cpp   ****     lfo_Bass.Init(hw.AudioSampleRate());                                          // Initialize LFO
 1293              		.loc 11 217 19 is_stmt 0 view .LVU356
 1294 00ea 9D48     		ldr	r0, .L42
 1295 00ec FFF7FEFF 		bl	_ZN5daisy9DaisySeed15AudioSampleRateEv
 1296              	.LVL105:
 1297 00f0 3046     		mov	r0, r6
 1298 00f2 FFF7FEFF 		bl	_ZN7daisysp10Oscillator4InitEf
 1299              	.LVL106:
 218:mainPot.cpp   ****     lfo_Pad.Init(hw.AudioSampleRate());                                          // Initialize LFO
 1300              		.loc 11 218 5 is_stmt 1 view .LVU357
 218:mainPot.cpp   ****     lfo_Pad.Init(hw.AudioSampleRate());                                          // Initialize LFO
 1301              		.loc 11 218 18 is_stmt 0 view .LVU358
 1302 00f6 9A48     		ldr	r0, .L42
 1303 00f8 FFF7FEFF 		bl	_ZN5daisy9DaisySeed15AudioSampleRateEv
ARM GAS  C:\Users\skipi\AppData\Local\Temp\cc2QEVmM.s 			page 41


 1304              	.LVL107:
 1305 00fc 2846     		mov	r0, r5
 1306 00fe FFF7FEFF 		bl	_ZN7daisysp10Oscillator4InitEf
 1307              	.LVL108:
 1308              		.loc 11 219 5 is_stmt 1 view .LVU359
 1309              		.loc 11 219 17 is_stmt 0 view .LVU360
 1310 0102 9748     		ldr	r0, .L42
 1311 0104 FFF7FEFF 		bl	_ZN5daisy9DaisySeed15AudioSampleRateEv
 1312              	.LVL109:
 1313 0108 2046     		mov	r0, r4
 1314 010a FFF7FEFF 		bl	_ZN7daisysp10Oscillator4InitEf
 1315              	.LVL110:
 220:mainPot.cpp   **** 
 221:mainPot.cpp   ****     lfo_Pluck.SetWaveform(Oscillator::WAVE_SIN);                                 // Set LFO wavefor
 1316              		.loc 11 221 5 is_stmt 1 view .LVU361
 1317              	.LBB342:
 1318              	.LBI342:
  77:../../libs/DaisySP/Source/Synthesis/oscillator.h ****     /** Sets the waveform to be synthesized by the Process() function.
  78:../../libs/DaisySP/Source/Synthesis/oscillator.h ****     */
  79:../../libs/DaisySP/Source/Synthesis/oscillator.h ****     inline void SetWaveform(const uint8_t wf)
 1319              		.loc 8 79 17 view .LVU362
 1320              	.LBB343:
  80:../../libs/DaisySP/Source/Synthesis/oscillator.h ****     {
  81:../../libs/DaisySP/Source/Synthesis/oscillator.h ****         waveform_ = wf < WAVE_LAST ? wf : WAVE_SIN;
 1321              		.loc 8 81 9 view .LVU363
 1322              		.loc 8 81 19 is_stmt 0 view .LVU364
 1323 010e 0023     		movs	r3, #0
 1324              	.LBE343:
 1325              	.LBE342:
 1326              	.LBB345:
 1327              	.LBB331:
  70:../../libs/DaisySP/Source/Synthesis/oscillator.h ****     }
 1328              		.loc 8 70 34 view .LVU365
 1329 0110 3046     		mov	r0, r6
 1330 0112 B0EE480A 		vmov.f32	s0, s16
 1331              	.LBE331:
 1332              	.LBE345:
 1333              	.LBB346:
 1334              	.LBB344:
 1335              		.loc 8 81 19 view .LVU366
 1336 0116 3370     		strb	r3, [r6]
 1337              	.LVL111:
 1338              		.loc 8 81 19 view .LVU367
 1339              	.LBE344:
 1340              	.LBE346:
 222:mainPot.cpp   ****     lfo_Bass.SetWaveform(Oscillator::WAVE_SIN);                                 // Set LFO waveform
 1341              		.loc 11 222 5 is_stmt 1 view .LVU368
 1342              	.LBB347:
 1343              	.LBI347:
  79:../../libs/DaisySP/Source/Synthesis/oscillator.h ****     {
 1344              		.loc 8 79 17 view .LVU369
 1345              	.LBB348:
 1346              		.loc 8 81 9 view .LVU370
 1347              		.loc 8 81 19 is_stmt 0 view .LVU371
 1348 0118 2B70     		strb	r3, [r5]
 1349              	.LVL112:
 1350              		.loc 8 81 19 view .LVU372
ARM GAS  C:\Users\skipi\AppData\Local\Temp\cc2QEVmM.s 			page 42


 1351              	.LBE348:
 1352              	.LBE347:
 223:mainPot.cpp   ****     lfo_Pad.SetWaveform(Oscillator::WAVE_SIN);                                 // Set LFO waveform
 1353              		.loc 11 223 5 is_stmt 1 view .LVU373
 1354              	.LBB349:
 1355              	.LBI349:
  79:../../libs/DaisySP/Source/Synthesis/oscillator.h ****     {
 1356              		.loc 8 79 17 view .LVU374
 1357              	.LBB350:
 1358              		.loc 8 81 9 view .LVU375
 1359              		.loc 8 81 19 is_stmt 0 view .LVU376
 1360 011a 2370     		strb	r3, [r4]
 1361              	.LVL113:
 1362              		.loc 8 81 19 view .LVU377
 1363              	.LBE350:
 1364              	.LBE349:
 224:mainPot.cpp   **** 
 225:mainPot.cpp   ****     lfo_Pluck.SetFreq(0.5f);                                                    // Set LFO frequenc
 1365              		.loc 11 225 5 is_stmt 1 view .LVU378
 1366              	.LBB351:
 1367              	.LBI329:
  67:../../libs/DaisySP/Source/Synthesis/oscillator.h ****     {
 1368              		.loc 8 67 17 view .LVU379
 1369              	.LBB332:
  69:../../libs/DaisySP/Source/Synthesis/oscillator.h ****         phase_inc_ = CalcPhaseInc(f);
 1370              		.loc 8 69 9 view .LVU380
  70:../../libs/DaisySP/Source/Synthesis/oscillator.h ****     }
 1371              		.loc 8 70 9 view .LVU381
  69:../../libs/DaisySP/Source/Synthesis/oscillator.h ****         phase_inc_ = CalcPhaseInc(f);
 1372              		.loc 8 69 20 is_stmt 0 view .LVU382
 1373 011c 86ED028A 		vstr.32	s16, [r6, #8]
  70:../../libs/DaisySP/Source/Synthesis/oscillator.h ****     }
 1374              		.loc 8 70 34 view .LVU383
 1375 0120 FFF7FEFF 		bl	_ZN7daisysp10Oscillator12CalcPhaseIncEf
 1376              	.LVL114:
 1377 0124 F0EE407A 		vmov.f32	s15, s0
 1378              	.LBE332:
 1379              	.LBE351:
 1380              	.LBB352:
 1381              	.LBB353:
 1382 0128 2846     		mov	r0, r5
 1383 012a B0EE480A 		vmov.f32	s0, s16
  69:../../libs/DaisySP/Source/Synthesis/oscillator.h ****         phase_inc_ = CalcPhaseInc(f);
 1384              		.loc 8 69 20 view .LVU384
 1385 012e 85ED028A 		vstr.32	s16, [r5, #8]
 1386              	.LBE353:
 1387              	.LBE352:
 1388              	.LBB356:
 1389              	.LBB357:
 1390              		.loc 7 78 20 view .LVU385
 1391 0132 9FED9E9A 		vldr.32	s18, .L42+76
 1392              	.LBE357:
 1393              	.LBE356:
 1394              	.LBB360:
 1395              	.LBB333:
  70:../../libs/DaisySP/Source/Synthesis/oscillator.h ****     }
 1396              		.loc 8 70 20 view .LVU386
ARM GAS  C:\Users\skipi\AppData\Local\Temp\cc2QEVmM.s 			page 43


 1397 0136 C6ED077A 		vstr.32	s15, [r6, #28]
 1398              	.LVL115:
  70:../../libs/DaisySP/Source/Synthesis/oscillator.h ****     }
 1399              		.loc 8 70 20 view .LVU387
 1400              	.LBE333:
 1401              	.LBE360:
 226:mainPot.cpp   ****     lfo_Bass.SetFreq(0.5f);                                                    // Set LFO frequency
 1402              		.loc 11 226 5 is_stmt 1 view .LVU388
 1403              	.LBB361:
 1404              	.LBI352:
  67:../../libs/DaisySP/Source/Synthesis/oscillator.h ****     {
 1405              		.loc 8 67 17 view .LVU389
 1406              	.LBB354:
  69:../../libs/DaisySP/Source/Synthesis/oscillator.h ****         phase_inc_ = CalcPhaseInc(f);
 1407              		.loc 8 69 9 view .LVU390
  70:../../libs/DaisySP/Source/Synthesis/oscillator.h ****     }
 1408              		.loc 8 70 9 view .LVU391
  70:../../libs/DaisySP/Source/Synthesis/oscillator.h ****     }
 1409              		.loc 8 70 34 is_stmt 0 view .LVU392
 1410 013a FFF7FEFF 		bl	_ZN7daisysp10Oscillator12CalcPhaseIncEf
 1411              	.LVL116:
 1412 013e F0EE407A 		vmov.f32	s15, s0
 1413              	.LBE354:
 1414              	.LBE361:
 1415              	.LBB362:
 1416              	.LBB363:
 1417 0142 2046     		mov	r0, r4
 1418 0144 B0EE480A 		vmov.f32	s0, s16
  69:../../libs/DaisySP/Source/Synthesis/oscillator.h ****         phase_inc_ = CalcPhaseInc(f);
 1419              		.loc 8 69 20 view .LVU393
 1420 0148 84ED028A 		vstr.32	s16, [r4, #8]
 1421              	.LBE363:
 1422              	.LBE362:
 1423              	.LBB366:
 1424              	.LBB367:
 1425              		.loc 7 78 20 view .LVU394
 1426 014c 9FED98AA 		vldr.32	s20, .L42+80
 1427              	.LBE367:
 1428              	.LBE366:
 1429              	.LBB369:
 1430              	.LBB355:
  70:../../libs/DaisySP/Source/Synthesis/oscillator.h ****     }
 1431              		.loc 8 70 20 view .LVU395
 1432 0150 C5ED077A 		vstr.32	s15, [r5, #28]
 1433              	.LVL117:
  70:../../libs/DaisySP/Source/Synthesis/oscillator.h ****     }
 1434              		.loc 8 70 20 view .LVU396
 1435              	.LBE355:
 1436              	.LBE369:
 227:mainPot.cpp   ****     lfo_Pad.SetFreq(0.5f);                                                    // Set LFO frequency
 1437              		.loc 11 227 5 is_stmt 1 view .LVU397
 1438              	.LBB370:
 1439              	.LBI362:
  67:../../libs/DaisySP/Source/Synthesis/oscillator.h ****     {
 1440              		.loc 8 67 17 view .LVU398
 1441              	.LBB364:
  69:../../libs/DaisySP/Source/Synthesis/oscillator.h ****         phase_inc_ = CalcPhaseInc(f);
ARM GAS  C:\Users\skipi\AppData\Local\Temp\cc2QEVmM.s 			page 44


 1442              		.loc 8 69 9 view .LVU399
  70:../../libs/DaisySP/Source/Synthesis/oscillator.h ****     }
 1443              		.loc 8 70 9 view .LVU400
  70:../../libs/DaisySP/Source/Synthesis/oscillator.h ****     }
 1444              		.loc 8 70 34 is_stmt 0 view .LVU401
 1445 0154 FFF7FEFF 		bl	_ZN7daisysp10Oscillator12CalcPhaseIncEf
 1446              	.LVL118:
 1447              	.LBE364:
 1448              	.LBE370:
 1449              	.LBB371:
 1450              	.LBB336:
  76:../../libs/DaisySP/Source/Synthesis/oscillator.h ****     /** Sets the waveform to be synthesized by the Process() function.
 1451              		.loc 8 76 46 view .LVU402
 1452 0158 C6ED018A 		vstr.32	s17, [r6, #4]
 1453              	.LBE336:
 1454              	.LBE371:
 228:mainPot.cpp   **** 
 229:mainPot.cpp   ****     lfo_Pluck.SetAmp(1);                                                    // Set LFO amplitude
 230:mainPot.cpp   ****     lfo_Bass.SetAmp(1);                                                    // Set LFO amplitude
 231:mainPot.cpp   ****     lfo_Pad.SetAmp(1);                                                    // Set LFO amplitude
 232:mainPot.cpp   **** 
 233:mainPot.cpp   **** //-----------------------------------------------------------------------------Inizializza AMP ADSR
 234:mainPot.cpp   ****     AmpEnv_Pluck.Init(hw.AudioSampleRate());                                       // Initialize en
 1455              		.loc 11 234 22 view .LVU403
 1456 015c 954E     		ldr	r6, .L42+84
 1457 015e 8048     		ldr	r0, .L42
 1458              	.LBB372:
 1459              	.LBB365:
  70:../../libs/DaisySP/Source/Synthesis/oscillator.h ****     }
 1460              		.loc 8 70 20 view .LVU404
 1461 0160 84ED070A 		vstr.32	s0, [r4, #28]
 1462              	.LVL119:
  70:../../libs/DaisySP/Source/Synthesis/oscillator.h ****     }
 1463              		.loc 8 70 20 view .LVU405
 1464              	.LBE365:
 1465              	.LBE372:
 229:mainPot.cpp   ****     lfo_Bass.SetAmp(1);                                                    // Set LFO amplitude
 1466              		.loc 11 229 5 is_stmt 1 view .LVU406
 1467              	.LBB373:
 1468              	.LBI334:
  76:../../libs/DaisySP/Source/Synthesis/oscillator.h ****     /** Sets the waveform to be synthesized by the Process() function.
 1469              		.loc 8 76 17 view .LVU407
 1470              	.LBB337:
  76:../../libs/DaisySP/Source/Synthesis/oscillator.h ****     /** Sets the waveform to be synthesized by the Process() function.
 1471              		.loc 8 76 41 view .LVU408
  76:../../libs/DaisySP/Source/Synthesis/oscillator.h ****     /** Sets the waveform to be synthesized by the Process() function.
 1472              		.loc 8 76 41 is_stmt 0 view .LVU409
 1473              	.LBE337:
 1474              	.LBE373:
 230:mainPot.cpp   ****     lfo_Pad.SetAmp(1);                                                    // Set LFO amplitude
 1475              		.loc 11 230 5 is_stmt 1 view .LVU410
 1476              	.LBB374:
 1477              	.LBI374:
  76:../../libs/DaisySP/Source/Synthesis/oscillator.h ****     /** Sets the waveform to be synthesized by the Process() function.
 1478              		.loc 8 76 17 view .LVU411
 1479              	.LBB375:
  76:../../libs/DaisySP/Source/Synthesis/oscillator.h ****     /** Sets the waveform to be synthesized by the Process() function.
ARM GAS  C:\Users\skipi\AppData\Local\Temp\cc2QEVmM.s 			page 45


 1480              		.loc 8 76 41 view .LVU412
  76:../../libs/DaisySP/Source/Synthesis/oscillator.h ****     /** Sets the waveform to be synthesized by the Process() function.
 1481              		.loc 8 76 46 is_stmt 0 view .LVU413
 1482 0164 C5ED018A 		vstr.32	s17, [r5, #4]
 1483              	.LVL120:
  76:../../libs/DaisySP/Source/Synthesis/oscillator.h ****     /** Sets the waveform to be synthesized by the Process() function.
 1484              		.loc 8 76 46 view .LVU414
 1485              	.LBE375:
 1486              	.LBE374:
 231:mainPot.cpp   **** 
 1487              		.loc 11 231 5 is_stmt 1 view .LVU415
 1488              	.LBB376:
 1489              	.LBI376:
  76:../../libs/DaisySP/Source/Synthesis/oscillator.h ****     /** Sets the waveform to be synthesized by the Process() function.
 1490              		.loc 8 76 17 view .LVU416
 1491              	.LBB377:
  76:../../libs/DaisySP/Source/Synthesis/oscillator.h ****     /** Sets the waveform to be synthesized by the Process() function.
 1492              		.loc 8 76 41 view .LVU417
  76:../../libs/DaisySP/Source/Synthesis/oscillator.h ****     /** Sets the waveform to be synthesized by the Process() function.
 1493              		.loc 8 76 46 is_stmt 0 view .LVU418
 1494 0168 C4ED018A 		vstr.32	s17, [r4, #4]
 1495              	.LVL121:
  76:../../libs/DaisySP/Source/Synthesis/oscillator.h ****     /** Sets the waveform to be synthesized by the Process() function.
 1496              		.loc 8 76 46 view .LVU419
 1497              	.LBE377:
 1498              	.LBE376:
 1499              		.loc 11 234 5 is_stmt 1 view .LVU420
 1500              		.loc 11 234 22 is_stmt 0 view .LVU421
 1501 016c FFF7FEFF 		bl	_ZN5daisy9DaisySeed15AudioSampleRateEv
 1502              	.LVL122:
 235:mainPot.cpp   ****     AmpEnv_Bass.Init(hw.AudioSampleRate());                                       // Initialize env
 1503              		.loc 11 235 21 view .LVU422
 1504 0170 914D     		ldr	r5, .L42+88
 234:mainPot.cpp   ****     AmpEnv_Bass.Init(hw.AudioSampleRate());                                       // Initialize env
 1505              		.loc 11 234 22 view .LVU423
 1506 0172 0121     		movs	r1, #1
 1507 0174 3046     		mov	r0, r6
 236:mainPot.cpp   ****     AmpEnv_Pad.Init(hw.AudioSampleRate());                                       // Initialize enve
 1508              		.loc 11 236 20 view .LVU424
 1509 0176 914C     		ldr	r4, .L42+92
 234:mainPot.cpp   ****     AmpEnv_Bass.Init(hw.AudioSampleRate());                                       // Initialize env
 1510              		.loc 11 234 22 view .LVU425
 1511 0178 FFF7FEFF 		bl	_ZN7daisysp4Adsr4InitEfi
 1512              	.LVL123:
 235:mainPot.cpp   ****     AmpEnv_Bass.Init(hw.AudioSampleRate());                                       // Initialize env
 1513              		.loc 11 235 5 is_stmt 1 view .LVU426
 235:mainPot.cpp   ****     AmpEnv_Bass.Init(hw.AudioSampleRate());                                       // Initialize env
 1514              		.loc 11 235 21 is_stmt 0 view .LVU427
 1515 017c 7848     		ldr	r0, .L42
 1516 017e FFF7FEFF 		bl	_ZN5daisy9DaisySeed15AudioSampleRateEv
 1517              	.LVL124:
 1518 0182 0121     		movs	r1, #1
 1519 0184 2846     		mov	r0, r5
 1520 0186 FFF7FEFF 		bl	_ZN7daisysp4Adsr4InitEfi
 1521              	.LVL125:
 1522              		.loc 11 236 5 is_stmt 1 view .LVU428
 1523              		.loc 11 236 20 is_stmt 0 view .LVU429
ARM GAS  C:\Users\skipi\AppData\Local\Temp\cc2QEVmM.s 			page 46


 1524 018a 7548     		ldr	r0, .L42
 1525 018c FFF7FEFF 		bl	_ZN5daisy9DaisySeed15AudioSampleRateEv
 1526              	.LVL126:
 1527 0190 2046     		mov	r0, r4
 1528 0192 0121     		movs	r1, #1
 1529 0194 FFF7FEFF 		bl	_ZN7daisysp4Adsr4InitEfi
 1530              	.LVL127:
 237:mainPot.cpp   **** 
 238:mainPot.cpp   ****     AmpEnv_Pluck.SetTime(ADSR_SEG_ATTACK, 0.05f);                                  // Set attack ti
 1531              		.loc 11 238 5 is_stmt 1 view .LVU430
 1532              		.loc 11 238 25 is_stmt 0 view .LVU431
 1533 0198 3046     		mov	r0, r6
 1534 019a 9FED890A 		vldr.32	s0, .L42+96
 1535 019e 0121     		movs	r1, #1
 1536 01a0 FFF7FEFF 		bl	_ZN7daisysp4Adsr7SetTimeEif
 1537              	.LVL128:
 239:mainPot.cpp   ****     AmpEnv_Bass.SetTime(ADSR_SEG_ATTACK, 0.15f);                                  // Set attack tim
 1538              		.loc 11 239 5 is_stmt 1 view .LVU432
 1539              		.loc 11 239 24 is_stmt 0 view .LVU433
 1540 01a4 2846     		mov	r0, r5
 1541 01a6 9FED870A 		vldr.32	s0, .L42+100
 1542 01aa 0121     		movs	r1, #1
 1543 01ac FFF7FEFF 		bl	_ZN7daisysp4Adsr7SetTimeEif
 1544              	.LVL129:
 240:mainPot.cpp   ****     AmpEnv_Pad.SetTime(ADSR_SEG_ATTACK, 12.0f);                                  // Set attack time
 1545              		.loc 11 240 5 is_stmt 1 view .LVU434
 1546              		.loc 11 240 23 is_stmt 0 view .LVU435
 1547 01b0 2046     		mov	r0, r4
 1548 01b2 B2EE080A 		vmov.f32	s0, #1.2e+1
 1549 01b6 0121     		movs	r1, #1
 1550 01b8 FFF7FEFF 		bl	_ZN7daisysp4Adsr7SetTimeEif
 1551              	.LVL130:
 241:mainPot.cpp   **** 
 242:mainPot.cpp   ****     AmpEnv_Pluck.SetTime(ADSR_SEG_DECAY, 0.27f);                                   // Set decay tim
 1552              		.loc 11 242 5 is_stmt 1 view .LVU436
 1553              		.loc 11 242 25 is_stmt 0 view .LVU437
 1554 01bc 3046     		mov	r0, r6
 1555 01be 0221     		movs	r1, #2
 1556 01c0 9FED810A 		vldr.32	s0, .L42+104
 1557 01c4 FFF7FEFF 		bl	_ZN7daisysp4Adsr7SetTimeEif
 1558              	.LVL131:
 243:mainPot.cpp   ****     AmpEnv_Bass.SetTime(ADSR_SEG_DECAY, 0.5f);                                   // Set decay time
 1559              		.loc 11 243 5 is_stmt 1 view .LVU438
 1560              		.loc 11 243 24 is_stmt 0 view .LVU439
 1561 01c8 2846     		mov	r0, r5
 1562 01ca B0EE480A 		vmov.f32	s0, s16
 1563 01ce 0221     		movs	r1, #2
 1564 01d0 FFF7FEFF 		bl	_ZN7daisysp4Adsr7SetTimeEif
 1565              	.LVL132:
 244:mainPot.cpp   ****     AmpEnv_Pad.SetTime(ADSR_SEG_DECAY, 0.5f);                                   // Set decay time
 1566              		.loc 11 244 5 is_stmt 1 view .LVU440
 1567              		.loc 11 244 23 is_stmt 0 view .LVU441
 1568 01d4 2046     		mov	r0, r4
 1569 01d6 B0EE480A 		vmov.f32	s0, s16
 1570 01da 0221     		movs	r1, #2
 1571 01dc FFF7FEFF 		bl	_ZN7daisysp4Adsr7SetTimeEif
 1572              	.LVL133:
ARM GAS  C:\Users\skipi\AppData\Local\Temp\cc2QEVmM.s 			page 47


 245:mainPot.cpp   **** 
 246:mainPot.cpp   ****     AmpEnv_Pluck.SetSustainLevel(0.0f);                                          // Set sustain lev
 1573              		.loc 11 246 5 is_stmt 1 view .LVU442
 1574              	.LBB378:
 1575              	.LBI325:
  74:../../libs/DaisySP/Source/Control/adsr.h ****     {
 1576              		.loc 7 74 17 view .LVU443
 1577              	.LBB327:
  76:../../libs/DaisySP/Source/Control/adsr.h ****                                        : (sus_level > 1.f) ? 1.f : sus_level;
 1578              		.loc 7 76 9 view .LVU444
 1579              		.loc 7 78 9 view .LVU445
 1580              	.LBE327:
 1581              	.LBE378:
 247:mainPot.cpp   ****     AmpEnv_Bass.SetSustainLevel(0.75f);                                          // Set sustain lev
 248:mainPot.cpp   ****     AmpEnv_Pad.SetSustainLevel(0.4f);                                          // Set sustain level
 249:mainPot.cpp   **** 
 250:mainPot.cpp   ****     AmpEnv_Pluck.SetTime(ADSR_SEG_RELEASE, 1.0f);                              // Set release time
 1582              		.loc 11 250 25 is_stmt 0 view .LVU446
 1583 01e0 3046     		mov	r0, r6
 1584 01e2 B0EE680A 		vmov.f32	s0, s17
 1585 01e6 0421     		movs	r1, #4
 1586              	.LBB379:
 1587              	.LBB328:
 1588              		.loc 7 78 20 view .LVU447
 1589 01e8 3760     		str	r7, [r6]	@ float
 1590              	.LVL134:
 1591              		.loc 7 78 20 view .LVU448
 1592              	.LBE328:
 1593              	.LBE379:
 247:mainPot.cpp   ****     AmpEnv_Bass.SetSustainLevel(0.75f);                                          // Set sustain lev
 1594              		.loc 11 247 5 is_stmt 1 view .LVU449
 1595              	.LBB380:
 1596              	.LBI338:
  74:../../libs/DaisySP/Source/Control/adsr.h ****     {
 1597              		.loc 7 74 17 view .LVU450
 1598              	.LBB340:
  76:../../libs/DaisySP/Source/Control/adsr.h ****                                        : (sus_level > 1.f) ? 1.f : sus_level;
 1599              		.loc 7 76 9 view .LVU451
 1600              		.loc 7 78 9 view .LVU452
 1601              		.loc 7 78 9 is_stmt 0 view .LVU453
 1602              	.LBE340:
 1603              	.LBE380:
 248:mainPot.cpp   **** 
 1604              		.loc 11 248 5 is_stmt 1 view .LVU454
 1605              	.LBB381:
 1606              	.LBI356:
  74:../../libs/DaisySP/Source/Control/adsr.h ****     {
 1607              		.loc 7 74 17 view .LVU455
 1608              	.LBB358:
  76:../../libs/DaisySP/Source/Control/adsr.h ****                                        : (sus_level > 1.f) ? 1.f : sus_level;
 1609              		.loc 7 76 9 view .LVU456
 1610              		.loc 7 78 9 view .LVU457
 1611              	.LBE358:
 1612              	.LBE381:
 1613              	.LBB382:
 1614              	.LBB341:
 1615              		.loc 7 78 20 is_stmt 0 view .LVU458
ARM GAS  C:\Users\skipi\AppData\Local\Temp\cc2QEVmM.s 			page 48


 1616 01ea C5ED009A 		vstr.32	s19, [r5]
 1617              	.LBE341:
 1618              	.LBE382:
 1619              	.LBB383:
 1620              	.LBB359:
 1621 01ee 84ED009A 		vstr.32	s18, [r4]
 1622              	.LVL135:
 1623              		.loc 7 78 20 view .LVU459
 1624              	.LBE359:
 1625              	.LBE383:
 1626              		.loc 11 250 5 is_stmt 1 view .LVU460
 1627              		.loc 11 250 25 is_stmt 0 view .LVU461
 1628 01f2 FFF7FEFF 		bl	_ZN7daisysp4Adsr7SetTimeEif
 1629              	.LVL136:
 251:mainPot.cpp   ****     AmpEnv_Bass.SetTime(ADSR_SEG_RELEASE, 0.33f);                              // Set release time
 1630              		.loc 11 251 5 is_stmt 1 view .LVU462
 1631              		.loc 11 251 24 is_stmt 0 view .LVU463
 1632 01f6 2846     		mov	r0, r5
 1633 01f8 0421     		movs	r1, #4
 1634 01fa 9FED740A 		vldr.32	s0, .L42+108
 1635 01fe FFF7FEFF 		bl	_ZN7daisysp4Adsr7SetTimeEif
 1636              	.LVL137:
 252:mainPot.cpp   ****     AmpEnv_Pad.SetTime(ADSR_SEG_RELEASE, 1.0f);                              // Set release time
 1637              		.loc 11 252 5 is_stmt 1 view .LVU464
 1638              		.loc 11 252 23 is_stmt 0 view .LVU465
 1639 0202 0421     		movs	r1, #4
 1640 0204 2046     		mov	r0, r4
 1641 0206 B0EE680A 		vmov.f32	s0, s17
 1642 020a FFF7FEFF 		bl	_ZN7daisysp4Adsr7SetTimeEif
 1643              	.LVL138:
 253:mainPot.cpp   ****     
 254:mainPot.cpp   **** //-----------------------------------------------------------------------------------Inizializza FI
 255:mainPot.cpp   ****     filter_Pluck.Init(hw.AudioSampleRate());                                        // Initialize f
 1644              		.loc 11 255 5 is_stmt 1 view .LVU466
 1645              		.loc 11 255 22 is_stmt 0 view .LVU467
 1646 020e 5448     		ldr	r0, .L42
 1647 0210 FFF7FEFF 		bl	_ZN5daisy9DaisySeed15AudioSampleRateEv
 1648              	.LVL139:
 1649 0214 6E48     		ldr	r0, .L42+112
 1650 0216 FFF7FEFF 		bl	_ZN7daisysp3Svf4InitEf
 1651              	.LVL140:
 256:mainPot.cpp   ****     filter_Bass.Init(hw.AudioSampleRate());                                        // Initialize fi
 1652              		.loc 11 256 5 is_stmt 1 view .LVU468
 1653              		.loc 11 256 21 is_stmt 0 view .LVU469
 1654 021a 5148     		ldr	r0, .L42
 1655 021c FFF7FEFF 		bl	_ZN5daisy9DaisySeed15AudioSampleRateEv
 1656              	.LVL141:
 1657 0220 6C48     		ldr	r0, .L42+116
 1658 0222 FFF7FEFF 		bl	_ZN7daisysp3Svf4InitEf
 1659              	.LVL142:
 257:mainPot.cpp   ****     filter_Pad.Init(hw.AudioSampleRate());                                        // Initialize fil
 1660              		.loc 11 257 5 is_stmt 1 view .LVU470
 1661              		.loc 11 257 20 is_stmt 0 view .LVU471
 1662 0226 4E48     		ldr	r0, .L42
 1663 0228 FFF7FEFF 		bl	_ZN5daisy9DaisySeed15AudioSampleRateEv
 1664              	.LVL143:
 1665 022c 6A48     		ldr	r0, .L42+120
ARM GAS  C:\Users\skipi\AppData\Local\Temp\cc2QEVmM.s 			page 49


 1666 022e FFF7FEFF 		bl	_ZN7daisysp3Svf4InitEf
 1667              	.LVL144:
 258:mainPot.cpp   **** 
 259:mainPot.cpp   ****     filter_Pluck.SetFreq(1000.0f);                                               // Set cutoff freq
 1668              		.loc 11 259 5 is_stmt 1 view .LVU472
 1669              		.loc 11 259 25 is_stmt 0 view .LVU473
 1670 0232 9FED6A0A 		vldr.32	s0, .L42+124
 1671 0236 6648     		ldr	r0, .L42+112
 1672 0238 FFF7FEFF 		bl	_ZN7daisysp3Svf7SetFreqEf
 1673              	.LVL145:
 260:mainPot.cpp   ****     filter_Bass.SetFreq(1000.0f);                                               // Set cutoff frequ
 1674              		.loc 11 260 5 is_stmt 1 view .LVU474
 1675              		.loc 11 260 24 is_stmt 0 view .LVU475
 1676 023c 9FED670A 		vldr.32	s0, .L42+124
 1677 0240 6448     		ldr	r0, .L42+116
 1678 0242 FFF7FEFF 		bl	_ZN7daisysp3Svf7SetFreqEf
 1679              	.LVL146:
 261:mainPot.cpp   ****     filter_Pad.SetFreq(1000.0f);                                               // Set cutoff freque
 1680              		.loc 11 261 5 is_stmt 1 view .LVU476
 1681              		.loc 11 261 23 is_stmt 0 view .LVU477
 1682 0246 9FED650A 		vldr.32	s0, .L42+124
 1683 024a 6348     		ldr	r0, .L42+120
 1684 024c FFF7FEFF 		bl	_ZN7daisysp3Svf7SetFreqEf
 1685              	.LVL147:
 262:mainPot.cpp   **** 
 263:mainPot.cpp   ****     filter_Pluck.SetRes(0.1f);                                             // Set resonance
 1686              		.loc 11 263 5 is_stmt 1 view .LVU478
 1687              		.loc 11 263 24 is_stmt 0 view .LVU479
 1688 0250 9FED630A 		vldr.32	s0, .L42+128
 1689 0254 5E48     		ldr	r0, .L42+112
 1690 0256 FFF7FEFF 		bl	_ZN7daisysp3Svf6SetResEf
 1691              	.LVL148:
 264:mainPot.cpp   ****     filter_Bass.SetRes(0.05f);                                             // Set resonance
 1692              		.loc 11 264 5 is_stmt 1 view .LVU480
 1693              		.loc 11 264 23 is_stmt 0 view .LVU481
 1694 025a 9FED590A 		vldr.32	s0, .L42+96
 1695 025e 5D48     		ldr	r0, .L42+116
 1696 0260 FFF7FEFF 		bl	_ZN7daisysp3Svf6SetResEf
 1697              	.LVL149:
 265:mainPot.cpp   ****     filter_Pad.SetRes(0.1f);                                             // Set resonance
 1698              		.loc 11 265 5 is_stmt 1 view .LVU482
 1699              		.loc 11 265 22 is_stmt 0 view .LVU483
 1700 0264 5C48     		ldr	r0, .L42+120
 1701 0266 9FED5E0A 		vldr.32	s0, .L42+128
 1702 026a FFF7FEFF 		bl	_ZN7daisysp3Svf6SetResEf
 1703              	.LVL150:
 266:mainPot.cpp   **** 
 267:mainPot.cpp   ****     filter_Pluck.SetDrive(0.5f);                                               // Set filter amplit
 1704              		.loc 11 267 5 is_stmt 1 view .LVU484
 1705              		.loc 11 267 26 is_stmt 0 view .LVU485
 1706 026e B0EE480A 		vmov.f32	s0, s16
 1707 0272 5748     		ldr	r0, .L42+112
 1708 0274 FFF7FEFF 		bl	_ZN7daisysp3Svf8SetDriveEf
 1709              	.LVL151:
 268:mainPot.cpp   ****     filter_Bass.SetDrive(0.5f);                                               // Set filter amplitu
 1710              		.loc 11 268 5 is_stmt 1 view .LVU486
 1711              		.loc 11 268 25 is_stmt 0 view .LVU487
ARM GAS  C:\Users\skipi\AppData\Local\Temp\cc2QEVmM.s 			page 50


 1712 0278 B0EE480A 		vmov.f32	s0, s16
 1713 027c 5548     		ldr	r0, .L42+116
 269:mainPot.cpp   ****     filter_Pad.SetDrive(0.5f);                                               // Set filter amplitud
 270:mainPot.cpp   **** 
 271:mainPot.cpp   **** //-----------------------------------------------------------------------------------Inizializza FI
 272:mainPot.cpp   ****     FilterEnv_Pluck.Init(hw.AudioSampleRate());                                   // Initialize env
 1714              		.loc 11 272 25 view .LVU488
 1715 027e 594E     		ldr	r6, .L42+132
 268:mainPot.cpp   ****     filter_Bass.SetDrive(0.5f);                                               // Set filter amplitu
 1716              		.loc 11 268 25 view .LVU489
 1717 0280 FFF7FEFF 		bl	_ZN7daisysp3Svf8SetDriveEf
 1718              	.LVL152:
 269:mainPot.cpp   ****     filter_Pad.SetDrive(0.5f);                                               // Set filter amplitud
 1719              		.loc 11 269 5 is_stmt 1 view .LVU490
 269:mainPot.cpp   ****     filter_Pad.SetDrive(0.5f);                                               // Set filter amplitud
 1720              		.loc 11 269 24 is_stmt 0 view .LVU491
 1721 0284 B0EE480A 		vmov.f32	s0, s16
 1722 0288 5348     		ldr	r0, .L42+120
 1723 028a FFF7FEFF 		bl	_ZN7daisysp3Svf8SetDriveEf
 1724              	.LVL153:
 1725              		.loc 11 272 5 is_stmt 1 view .LVU492
 1726              		.loc 11 272 25 is_stmt 0 view .LVU493
 1727 028e 3448     		ldr	r0, .L42
 1728 0290 FFF7FEFF 		bl	_ZN5daisy9DaisySeed15AudioSampleRateEv
 1729              	.LVL154:
 273:mainPot.cpp   ****     FilterEnv_Bass.Init(hw.AudioSampleRate());                                   // Initialize enve
 1730              		.loc 11 273 24 view .LVU494
 1731 0294 544D     		ldr	r5, .L42+136
 272:mainPot.cpp   ****     FilterEnv_Bass.Init(hw.AudioSampleRate());                                   // Initialize enve
 1732              		.loc 11 272 25 view .LVU495
 1733 0296 0121     		movs	r1, #1
 1734 0298 3046     		mov	r0, r6
 1735 029a FFF7FEFF 		bl	_ZN7daisysp4Adsr4InitEfi
 1736              	.LVL155:
 1737              		.loc 11 273 5 is_stmt 1 view .LVU496
 1738              		.loc 11 273 24 is_stmt 0 view .LVU497
 1739 029e 3048     		ldr	r0, .L42
 274:mainPot.cpp   ****     FilterEnv_Pad.Init(hw.AudioSampleRate());                                   // Initialize envel
 1740              		.loc 11 274 23 view .LVU498
 1741 02a0 524C     		ldr	r4, .L42+140
 273:mainPot.cpp   ****     FilterEnv_Bass.Init(hw.AudioSampleRate());                                   // Initialize enve
 1742              		.loc 11 273 24 view .LVU499
 1743 02a2 FFF7FEFF 		bl	_ZN5daisy9DaisySeed15AudioSampleRateEv
 1744              	.LVL156:
 1745 02a6 0121     		movs	r1, #1
 1746 02a8 2846     		mov	r0, r5
 1747 02aa FFF7FEFF 		bl	_ZN7daisysp4Adsr4InitEfi
 1748              	.LVL157:
 1749              		.loc 11 274 5 is_stmt 1 view .LVU500
 1750              		.loc 11 274 23 is_stmt 0 view .LVU501
 1751 02ae 2C48     		ldr	r0, .L42
 1752 02b0 FFF7FEFF 		bl	_ZN5daisy9DaisySeed15AudioSampleRateEv
 1753              	.LVL158:
 1754 02b4 2046     		mov	r0, r4
 1755 02b6 0121     		movs	r1, #1
 1756 02b8 FFF7FEFF 		bl	_ZN7daisysp4Adsr4InitEfi
 1757              	.LVL159:
ARM GAS  C:\Users\skipi\AppData\Local\Temp\cc2QEVmM.s 			page 51


 275:mainPot.cpp   **** 
 276:mainPot.cpp   ****     FilterEnv_Pluck.SetTime(ADSR_SEG_ATTACK, 0.1f);                              // Set attack time
 1758              		.loc 11 276 5 is_stmt 1 view .LVU502
 1759              		.loc 11 276 28 is_stmt 0 view .LVU503
 1760 02bc 3046     		mov	r0, r6
 1761 02be 9FED480A 		vldr.32	s0, .L42+128
 1762 02c2 0121     		movs	r1, #1
 1763 02c4 FFF7FEFF 		bl	_ZN7daisysp4Adsr7SetTimeEif
 1764              	.LVL160:
 277:mainPot.cpp   ****     FilterEnv_Bass.SetTime(ADSR_SEG_ATTACK, 10.0f);                              // Set attack time
 1765              		.loc 11 277 5 is_stmt 1 view .LVU504
 1766              		.loc 11 277 27 is_stmt 0 view .LVU505
 1767 02c8 2846     		mov	r0, r5
 1768 02ca B2EE040A 		vmov.f32	s0, #1.0e+1
 1769 02ce 0121     		movs	r1, #1
 1770 02d0 FFF7FEFF 		bl	_ZN7daisysp4Adsr7SetTimeEif
 1771              	.LVL161:
 278:mainPot.cpp   ****     FilterEnv_Pad.SetTime(ADSR_SEG_ATTACK, 9.0f);                              // Set attack time
 1772              		.loc 11 278 5 is_stmt 1 view .LVU506
 1773              		.loc 11 278 26 is_stmt 0 view .LVU507
 1774 02d4 2046     		mov	r0, r4
 1775 02d6 B2EE020A 		vmov.f32	s0, #9.0e+0
 1776 02da 0121     		movs	r1, #1
 1777 02dc FFF7FEFF 		bl	_ZN7daisysp4Adsr7SetTimeEif
 1778              	.LVL162:
 279:mainPot.cpp   **** 
 280:mainPot.cpp   ****     FilterEnv_Pluck.SetTime(ADSR_SEG_DECAY, 0.03f);                               // Set decay time
 1779              		.loc 11 280 5 is_stmt 1 view .LVU508
 1780              		.loc 11 280 28 is_stmt 0 view .LVU509
 1781 02e0 3046     		mov	r0, r6
 1782 02e2 9FED430A 		vldr.32	s0, .L42+144
 1783 02e6 0221     		movs	r1, #2
 1784 02e8 FFF7FEFF 		bl	_ZN7daisysp4Adsr7SetTimeEif
 1785              	.LVL163:
 281:mainPot.cpp   ****     FilterEnv_Bass.SetTime(ADSR_SEG_DECAY, 1.0f);                               // Set decay time
 1786              		.loc 11 281 5 is_stmt 1 view .LVU510
 1787              		.loc 11 281 27 is_stmt 0 view .LVU511
 1788 02ec 2846     		mov	r0, r5
 1789 02ee B0EE680A 		vmov.f32	s0, s17
 1790 02f2 0221     		movs	r1, #2
 1791 02f4 FFF7FEFF 		bl	_ZN7daisysp4Adsr7SetTimeEif
 1792              	.LVL164:
 282:mainPot.cpp   ****     FilterEnv_Pad.SetTime(ADSR_SEG_DECAY, 0.4f);                               // Set decay time
 1793              		.loc 11 282 5 is_stmt 1 view .LVU512
 1794              		.loc 11 282 26 is_stmt 0 view .LVU513
 1795 02f8 2046     		mov	r0, r4
 1796 02fa B0EE490A 		vmov.f32	s0, s18
 1797 02fe 0221     		movs	r1, #2
 1798 0300 FFF7FEFF 		bl	_ZN7daisysp4Adsr7SetTimeEif
 1799              	.LVL165:
 283:mainPot.cpp   **** 
 284:mainPot.cpp   ****     FilterEnv_Pluck.SetSustainLevel(0.0);                                      // Set sustain level
 1800              		.loc 11 284 5 is_stmt 1 view .LVU514
 1801              	.LBB384:
 1802              	.LBI384:
  74:../../libs/DaisySP/Source/Control/adsr.h ****     {
 1803              		.loc 7 74 17 view .LVU515
ARM GAS  C:\Users\skipi\AppData\Local\Temp\cc2QEVmM.s 			page 52


 1804              	.LBB385:
  76:../../libs/DaisySP/Source/Control/adsr.h ****                                        : (sus_level > 1.f) ? 1.f : sus_level;
 1805              		.loc 7 76 9 view .LVU516
 1806              		.loc 7 78 9 view .LVU517
 1807              	.LBE385:
 1808              	.LBE384:
 285:mainPot.cpp   ****     FilterEnv_Bass.SetSustainLevel(0.60f);                                      // Set sustain leve
 286:mainPot.cpp   ****     FilterEnv_Pad.SetSustainLevel(0.4f);                                      // Set sustain level
 287:mainPot.cpp   **** 
 288:mainPot.cpp   ****     FilterEnv_Pluck.SetTime(ADSR_SEG_RELEASE, 0);                          // Set release time
 1809              		.loc 11 288 28 is_stmt 0 view .LVU518
 1810 0304 3046     		mov	r0, r6
 1811 0306 9FED280A 		vldr.32	s0, .L42+72
 1812 030a 0421     		movs	r1, #4
 1813              	.LBB387:
 1814              	.LBB386:
 1815              		.loc 7 78 20 view .LVU519
 1816 030c 3760     		str	r7, [r6]	@ float
 1817              	.LVL166:
 1818              		.loc 7 78 20 view .LVU520
 1819              	.LBE386:
 1820              	.LBE387:
 285:mainPot.cpp   ****     FilterEnv_Bass.SetSustainLevel(0.60f);                                      // Set sustain leve
 1821              		.loc 11 285 5 is_stmt 1 view .LVU521
 1822              	.LBB388:
 1823              	.LBI366:
  74:../../libs/DaisySP/Source/Control/adsr.h ****     {
 1824              		.loc 7 74 17 view .LVU522
 1825              	.LBB368:
  76:../../libs/DaisySP/Source/Control/adsr.h ****                                        : (sus_level > 1.f) ? 1.f : sus_level;
 1826              		.loc 7 76 9 view .LVU523
 1827              		.loc 7 78 9 view .LVU524
 1828              		.loc 7 78 20 is_stmt 0 view .LVU525
 1829 030e 85ED00AA 		vstr.32	s20, [r5]
 1830              	.LVL167:
 1831              		.loc 7 78 20 view .LVU526
 1832              	.LBE368:
 1833              	.LBE388:
 286:mainPot.cpp   **** 
 1834              		.loc 11 286 5 is_stmt 1 view .LVU527
 1835              	.LBB389:
 1836              	.LBI389:
  74:../../libs/DaisySP/Source/Control/adsr.h ****     {
 1837              		.loc 7 74 17 view .LVU528
 1838              	.LBB390:
  76:../../libs/DaisySP/Source/Control/adsr.h ****                                        : (sus_level > 1.f) ? 1.f : sus_level;
 1839              		.loc 7 76 9 view .LVU529
 1840              		.loc 7 78 9 view .LVU530
 1841              		.loc 7 78 20 is_stmt 0 view .LVU531
 1842 0312 84ED009A 		vstr.32	s18, [r4]
 1843              	.LVL168:
 1844              		.loc 7 78 20 view .LVU532
 1845              	.LBE390:
 1846              	.LBE389:
 1847              		.loc 11 288 5 is_stmt 1 view .LVU533
 1848              		.loc 11 288 28 is_stmt 0 view .LVU534
 1849 0316 FFF7FEFF 		bl	_ZN7daisysp4Adsr7SetTimeEif
ARM GAS  C:\Users\skipi\AppData\Local\Temp\cc2QEVmM.s 			page 53


 1850              	.LVL169:
 289:mainPot.cpp   ****     FilterEnv_Bass.SetTime(ADSR_SEG_RELEASE, 0.50f);                          // Set release time
 1851              		.loc 11 289 5 is_stmt 1 view .LVU535
 1852              		.loc 11 289 27 is_stmt 0 view .LVU536
 1853 031a 2846     		mov	r0, r5
 1854 031c B0EE480A 		vmov.f32	s0, s16
 1855 0320 0421     		movs	r1, #4
 1856 0322 344F     		ldr	r7, .L42+148
 1857 0324 FFF7FEFF 		bl	_ZN7daisysp4Adsr7SetTimeEif
 1858              	.LVL170:
 290:mainPot.cpp   ****     FilterEnv_Pad.SetTime(ADSR_SEG_RELEASE, 0.6f);                          // Set release time
 1859              		.loc 11 290 5 is_stmt 1 view .LVU537
 1860              		.loc 11 290 26 is_stmt 0 view .LVU538
 1861 0328 0421     		movs	r1, #4
 1862 032a 2046     		mov	r0, r4
 1863 032c B0EE4A0A 		vmov.f32	s0, s20
 1864 0330 FFF7FEFF 		bl	_ZN7daisysp4Adsr7SetTimeEif
 1865              	.LVL171:
 291:mainPot.cpp   **** //--------
 292:mainPot.cpp   ****     //delay.Init(hw.AudioSampleRate());                                       // Inizializza il del
 293:mainPot.cpp   ****     
 294:mainPot.cpp   ****     //delay.setDelayTime(1000);      // Imposta il tempo di delay
 295:mainPot.cpp   ****     //delay.setFeedback(0.5f);        // Imposta il feedback
 296:mainPot.cpp   ****     //delay.setMix(0.5f);                  // Imposta il mix
 297:mainPot.cpp   ****     //delay.setDepth(0.5f);              // Imposta la profondit del pitch shifter
 298:mainPot.cpp   ****     
 299:mainPot.cpp   **** 
 300:mainPot.cpp   ****     
 301:mainPot.cpp   ****     tick1.Init(0.25f, hw.AudioSampleRate());
 1866              		.loc 11 301 5 is_stmt 1 view .LVU539
 1867              		.loc 11 301 15 is_stmt 0 view .LVU540
 1868 0334 0A48     		ldr	r0, .L42
 1869 0336 FFF7FEFF 		bl	_ZN5daisy9DaisySeed15AudioSampleRateEv
 1870              	.LVL172:
 1871 033a 2F48     		ldr	r0, .L42+152
 1872 033c F0EE400A 		vmov.f32	s1, s0
 1873 0340 2E4E     		ldr	r6, .L42+156
 1874 0342 B5EE000A 		vmov.f32	s0, #2.5e-1
 1875 0346 2E4D     		ldr	r5, .L42+160
 1876 0348 FFF7FEFF 		bl	_ZN7daisysp5Metro4InitEff
 1877              	.LVL173:
 302:mainPot.cpp   ****     tick2.Init(0.75f, hw.AudioSampleRate());
 1878              		.loc 11 302 5 is_stmt 1 view .LVU541
 1879              		.loc 11 302 15 is_stmt 0 view .LVU542
 1880 034c 0448     		ldr	r0, .L42
 1881 034e FFF7FEFF 		bl	_ZN5daisy9DaisySeed15AudioSampleRateEv
 1882              	.LVL174:
 1883 0352 2C48     		ldr	r0, .L42+164
 1884 0354 F0EE400A 		vmov.f32	s1, s0
 1885 0358 2B4C     		ldr	r4, .L42+168
 1886 035a B0EE690A 		vmov.f32	s0, s19
 1887 035e 59E0     		b	.L43
 1888              	.L44:
 1889              		.align	2
 1890              	.L42:
 1891 0360 00000000 		.word	.LANCHOR41
 1892 0364 00000000 		.word	.LANCHOR7
ARM GAS  C:\Users\skipi\AppData\Local\Temp\cc2QEVmM.s 			page 54


 1893 0368 00000000 		.word	.LANCHOR9
 1894 036c 00000000 		.word	.LANCHOR11
 1895 0370 0AD723BC 		.word	-1138501878
 1896 0374 00000000 		.word	.LANCHOR15
 1897 0378 00000000 		.word	.LANCHOR16
 1898 037c 00000000 		.word	.LANCHOR17
 1899 0380 00000000 		.word	.LANCHOR42
 1900 0384 00000000 		.word	.LANCHOR43
 1901 0388 00000000 		.word	.LANCHOR44
 1902 038c 0000DC43 		.word	1138491392
 1903 0390 00000000 		.word	.LANCHOR45
 1904 0394 00000000 		.word	.LANCHOR46
 1905 0398 00000000 		.word	.LANCHOR47
 1906 039c 00000000 		.word	.LANCHOR48
 1907 03a0 00000000 		.word	.LANCHOR49
 1908 03a4 00000000 		.word	.LANCHOR50
 1909 03a8 00000000 		.word	0
 1910 03ac CDCCCC3E 		.word	1053609165
 1911 03b0 9A99193F 		.word	1058642330
 1912 03b4 00000000 		.word	.LANCHOR21
 1913 03b8 00000000 		.word	.LANCHOR23
 1914 03bc 00000000 		.word	.LANCHOR25
 1915 03c0 CDCC4C3D 		.word	1028443341
 1916 03c4 9A99193E 		.word	1041865114
 1917 03c8 713D8A3E 		.word	1049247089
 1918 03cc C3F5A83E 		.word	1051260355
 1919 03d0 00000000 		.word	.LANCHOR33
 1920 03d4 00000000 		.word	.LANCHOR34
 1921 03d8 00000000 		.word	.LANCHOR35
 1922 03dc 00007A44 		.word	1148846080
 1923 03e0 CDCCCC3D 		.word	1036831949
 1924 03e4 00000000 		.word	.LANCHOR27
 1925 03e8 00000000 		.word	.LANCHOR29
 1926 03ec 00000000 		.word	.LANCHOR31
 1927 03f0 8FC2F53C 		.word	1022739087
 1928 03f4 00000000 		.word	.LANCHOR10
 1929 03f8 00000000 		.word	.LANCHOR0
 1930 03fc 00000000 		.word	.LANCHOR18
 1931 0400 00000000 		.word	.LANCHOR19
 1932 0404 00000000 		.word	.LANCHOR2
 1933 0408 00000000 		.word	.LANCHOR20
 1934 040c 00000000 		.word	.LANCHOR8
 1935 0410 00000000 		.word	.LANCHOR6
 1936              	.L43:
 1937 0414 FFF7FEFF 		bl	_ZN7daisysp5Metro4InitEff
 1938              	.LVL175:
 303:mainPot.cpp   ****     tick3.Init(1.5f, hw.AudioSampleRate());
 1939              		.loc 11 303 5 is_stmt 1 view .LVU543
 1940              		.loc 11 303 15 is_stmt 0 view .LVU544
 1941 0418 2A48     		ldr	r0, .L45
 1942 041a FFF7FEFF 		bl	_ZN5daisy9DaisySeed15AudioSampleRateEv
 1943              	.LVL176:
 1944 041e 2A48     		ldr	r0, .L45+4
 1945 0420 F0EE400A 		vmov.f32	s1, s0
 1946 0424 B7EE080A 		vmov.f32	s0, #1.5e+0
 1947 0428 FFF7FEFF 		bl	_ZN7daisysp5Metro4InitEff
 1948              	.LVL177:
ARM GAS  C:\Users\skipi\AppData\Local\Temp\cc2QEVmM.s 			page 55


 304:mainPot.cpp   ****     InitHardware();                                                             // Initialize hardw
 1949              		.loc 11 304 5 is_stmt 1 view .LVU545
 1950              		.loc 11 304 17 is_stmt 0 view .LVU546
 1951 042c FFF7FEFF 		bl	_Z12InitHardwarev
 1952              	.LVL178:
 305:mainPot.cpp   ****     hw.StartAudio(AudioCallback);                                               // Start the audio 
 1953              		.loc 11 305 5 is_stmt 1 view .LVU547
 1954              		.loc 11 305 18 is_stmt 0 view .LVU548
 1955 0430 2649     		ldr	r1, .L45+8
 1956 0432 2448     		ldr	r0, .L45
 1957 0434 FFF7FEFF 		bl	_ZN5daisy9DaisySeed10StartAudioEPFvPKPKfPPfjE
 1958              	.LVL179:
 1959              	.L40:
 306:mainPot.cpp   **** 
 307:mainPot.cpp   ****     // Infinite loop to keep the program running
 308:mainPot.cpp   ****     while (1) {
 1960              		.loc 11 308 5 is_stmt 1 discriminator 1 view .LVU549
 1961              	.LBB391:
 309:mainPot.cpp   **** 
 310:mainPot.cpp   ****         float knob1 = hw.adc.GetFloat(0);
 1962              		.loc 11 310 9 discriminator 1 view .LVU550
 1963              		.loc 11 310 38 is_stmt 0 discriminator 1 view .LVU551
 1964 0438 0021     		movs	r1, #0
 1965 043a 2548     		ldr	r0, .L45+12
 1966 043c FFF7FEFF 		bl	_ZNK5daisy9AdcHandle8GetFloatEh
 1967              	.LVL180:
 311:mainPot.cpp   ****         float knob2 = hw.adc.GetFloat(1);
 1968              		.loc 11 311 38 discriminator 1 view .LVU552
 1969 0440 0121     		movs	r1, #1
 1970 0442 2348     		ldr	r0, .L45+12
 310:mainPot.cpp   ****         float knob2 = hw.adc.GetFloat(1);
 1971              		.loc 11 310 38 discriminator 1 view .LVU553
 1972 0444 B0EE409A 		vmov.f32	s18, s0
 1973              	.LVL181:
 1974              		.loc 11 311 9 is_stmt 1 discriminator 1 view .LVU554
 1975              		.loc 11 311 38 is_stmt 0 discriminator 1 view .LVU555
 1976 0448 FFF7FEFF 		bl	_ZNK5daisy9AdcHandle8GetFloatEh
 1977              	.LVL182:
 312:mainPot.cpp   ****         float knob3 = hw.adc.GetFloat(2);
 1978              		.loc 11 312 38 discriminator 1 view .LVU556
 1979 044c 0221     		movs	r1, #2
 1980 044e 2048     		ldr	r0, .L45+12
 311:mainPot.cpp   ****         float knob2 = hw.adc.GetFloat(1);
 1981              		.loc 11 311 38 discriminator 1 view .LVU557
 1982 0450 B0EE40AA 		vmov.f32	s20, s0
 1983              	.LVL183:
 1984              		.loc 11 312 9 is_stmt 1 discriminator 1 view .LVU558
 1985              		.loc 11 312 38 is_stmt 0 discriminator 1 view .LVU559
 1986 0454 FFF7FEFF 		bl	_ZNK5daisy9AdcHandle8GetFloatEh
 1987              	.LVL184:
 313:mainPot.cpp   ****         float knob4 = hw.adc.GetFloat(3);
 1988              		.loc 11 313 38 discriminator 1 view .LVU560
 1989 0458 0321     		movs	r1, #3
 1990 045a 1D48     		ldr	r0, .L45+12
 312:mainPot.cpp   ****         float knob3 = hw.adc.GetFloat(2);
 1991              		.loc 11 312 38 discriminator 1 view .LVU561
 1992 045c B0EE408A 		vmov.f32	s16, s0
ARM GAS  C:\Users\skipi\AppData\Local\Temp\cc2QEVmM.s 			page 56


 1993              	.LVL185:
 1994              		.loc 11 313 9 is_stmt 1 discriminator 1 view .LVU562
 1995              		.loc 11 313 38 is_stmt 0 discriminator 1 view .LVU563
 1996 0460 FFF7FEFF 		bl	_ZNK5daisy9AdcHandle8GetFloatEh
 1997              	.LVL186:
 314:mainPot.cpp   ****         float knob5 = hw.adc.GetFloat(4);
 1998              		.loc 11 314 38 discriminator 1 view .LVU564
 1999 0464 0421     		movs	r1, #4
 2000 0466 1A48     		ldr	r0, .L45+12
 313:mainPot.cpp   ****         float knob4 = hw.adc.GetFloat(3);
 2001              		.loc 11 313 38 discriminator 1 view .LVU565
 2002 0468 F0EE409A 		vmov.f32	s19, s0
 2003              	.LVL187:
 2004              		.loc 11 314 9 is_stmt 1 discriminator 1 view .LVU566
 2005              		.loc 11 314 38 is_stmt 0 discriminator 1 view .LVU567
 2006 046c FFF7FEFF 		bl	_ZNK5daisy9AdcHandle8GetFloatEh
 2007              	.LVL188:
 315:mainPot.cpp   ****         float knob6 = hw.adc.GetFloat(5);                                                         /
 2008              		.loc 11 315 38 discriminator 1 view .LVU568
 2009 0470 0521     		movs	r1, #5
 2010 0472 1748     		ldr	r0, .L45+12
 314:mainPot.cpp   ****         float knob5 = hw.adc.GetFloat(4);
 2011              		.loc 11 314 38 discriminator 1 view .LVU569
 2012 0474 F0EE408A 		vmov.f32	s17, s0
 2013              	.LVL189:
 2014              		.loc 11 315 9 is_stmt 1 discriminator 1 view .LVU570
 2015              		.loc 11 315 38 is_stmt 0 discriminator 1 view .LVU571
 2016 0478 FFF7FEFF 		bl	_ZNK5daisy9AdcHandle8GetFloatEh
 2017              	.LVL190:
 316:mainPot.cpp   **** 
 317:mainPot.cpp   **** 
 318:mainPot.cpp   ****         f_lfo_Bass = knob1*10.0f; // Frequency of LFO for Bass
 2018              		.loc 11 318 9 is_stmt 1 discriminator 1 view .LVU572
 319:mainPot.cpp   ****         f_lfo_Pluck = knob5*10.0f; // Frequency of LFO for Pluck
 320:mainPot.cpp   ****         f_lfo_Pad = knob3*10.0f; // Frequency of LFO for Pad
 321:mainPot.cpp   **** 
 322:mainPot.cpp   ****         f_Pluck = 440+ knob6*440; // Frequency of Pluck
 2019              		.loc 11 322 22 is_stmt 0 discriminator 1 view .LVU573
 2020 047c DFED156A 		vldr.32	s13, .L45+16
 323:mainPot.cpp   ****         f_Bass = 55+ knob2*55; // Frequency of Bass
 2021              		.loc 11 323 20 discriminator 1 view .LVU574
 2022 0480 9FED157A 		vldr.32	s14, .L45+20
 318:mainPot.cpp   ****         f_lfo_Pluck = knob5*10.0f; // Frequency of LFO for Pluck
 2023              		.loc 11 318 27 discriminator 1 view .LVU575
 2024 0484 B2EE046A 		vmov.f32	s12, #1.0e+1
 324:mainPot.cpp   ****         f_Pad = 220+ knob4*220; // Frequency of Pad
 2025              		.loc 11 324 20 discriminator 1 view .LVU576
 2026 0488 DFED147A 		vldr.32	s15, .L45+24
 322:mainPot.cpp   ****         f_Bass = 55+ knob2*55; // Frequency of Bass
 2027              		.loc 11 322 22 discriminator 1 view .LVU577
 2028 048c E0EE266A 		vfma.f32	s13, s0, s13
 323:mainPot.cpp   ****         f_Pad = 220+ knob4*220; // Frequency of Pad
 2029              		.loc 11 323 20 discriminator 1 view .LVU578
 2030 0490 AAEE077A 		vfma.f32	s14, s20, s14
 325:mainPot.cpp   **** 
 326:mainPot.cpp   ****         //Gate_Pluck = ..
 327:mainPot.cpp   ****         //Gate_Bass = ..
ARM GAS  C:\Users\skipi\AppData\Local\Temp\cc2QEVmM.s 			page 57


 328:mainPot.cpp   ****         //Gate_Pad = ..
 329:mainPot.cpp   **** 
 330:mainPot.cpp   ****         //time =..
 331:mainPot.cpp   ****         //delayTime =logscale(time, MIN_DELAY, MAX_DELAY); // Imposta il tempo di delay
 332:mainPot.cpp   ****         
 333:mainPot.cpp   **** 
 334:mainPot.cpp   ****         // Wait 1ms to reduce CPU usage
 335:mainPot.cpp   ****         System::Delay(1);
 2031              		.loc 11 335 22 discriminator 1 view .LVU579
 2032 0494 0120     		movs	r0, #1
 324:mainPot.cpp   **** 
 2033              		.loc 11 324 20 discriminator 1 view .LVU580
 2034 0496 E9EEA77A 		vfma.f32	s15, s19, s15
 318:mainPot.cpp   ****         f_lfo_Pluck = knob5*10.0f; // Frequency of LFO for Pluck
 2035              		.loc 11 318 27 discriminator 1 view .LVU581
 2036 049a 29EE069A 		vmul.f32	s18, s18, s12
 2037              	.LVL191:
 319:mainPot.cpp   ****         f_lfo_Pad = knob3*10.0f; // Frequency of LFO for Pad
 2038              		.loc 11 319 28 discriminator 1 view .LVU582
 2039 049e 68EE868A 		vmul.f32	s17, s17, s12
 2040              	.LVL192:
 320:mainPot.cpp   **** 
 2041              		.loc 11 320 26 discriminator 1 view .LVU583
 2042 04a2 28EE068A 		vmul.f32	s16, s16, s12
 2043              	.LVL193:
 318:mainPot.cpp   ****         f_lfo_Pluck = knob5*10.0f; // Frequency of LFO for Pluck
 2044              		.loc 11 318 20 discriminator 1 view .LVU584
 2045 04a6 89ED009A 		vstr.32	s18, [r9]
 319:mainPot.cpp   ****         f_lfo_Pad = knob3*10.0f; // Frequency of LFO for Pad
 2046              		.loc 11 319 9 is_stmt 1 discriminator 1 view .LVU585
 319:mainPot.cpp   ****         f_lfo_Pad = knob3*10.0f; // Frequency of LFO for Pad
 2047              		.loc 11 319 21 is_stmt 0 discriminator 1 view .LVU586
 2048 04aa C8ED008A 		vstr.32	s17, [r8]
 320:mainPot.cpp   **** 
 2049              		.loc 11 320 9 is_stmt 1 discriminator 1 view .LVU587
 320:mainPot.cpp   **** 
 2050              		.loc 11 320 19 is_stmt 0 discriminator 1 view .LVU588
 2051 04ae 87ED008A 		vstr.32	s16, [r7]
 322:mainPot.cpp   ****         f_Bass = 55+ knob2*55; // Frequency of Bass
 2052              		.loc 11 322 9 is_stmt 1 discriminator 1 view .LVU589
 322:mainPot.cpp   ****         f_Bass = 55+ knob2*55; // Frequency of Bass
 2053              		.loc 11 322 17 is_stmt 0 discriminator 1 view .LVU590
 2054 04b2 C6ED006A 		vstr.32	s13, [r6]
 323:mainPot.cpp   ****         f_Pad = 220+ knob4*220; // Frequency of Pad
 2055              		.loc 11 323 9 is_stmt 1 discriminator 1 view .LVU591
 323:mainPot.cpp   ****         f_Pad = 220+ knob4*220; // Frequency of Pad
 2056              		.loc 11 323 16 is_stmt 0 discriminator 1 view .LVU592
 2057 04b6 85ED007A 		vstr.32	s14, [r5]
 324:mainPot.cpp   **** 
 2058              		.loc 11 324 9 is_stmt 1 discriminator 1 view .LVU593
 324:mainPot.cpp   **** 
 2059              		.loc 11 324 15 is_stmt 0 discriminator 1 view .LVU594
 2060 04ba C4ED007A 		vstr.32	s15, [r4]
 2061              		.loc 11 335 9 is_stmt 1 discriminator 1 view .LVU595
 2062              		.loc 11 335 22 is_stmt 0 discriminator 1 view .LVU596
 2063 04be FFF7FEFF 		bl	_ZN5daisy6System5DelayEm
 2064              	.LVL194:
ARM GAS  C:\Users\skipi\AppData\Local\Temp\cc2QEVmM.s 			page 58


 2065              		.loc 11 335 22 discriminator 1 view .LVU597
 2066              	.LBE391:
 308:mainPot.cpp   **** 
 2067              		.loc 11 308 5 is_stmt 1 discriminator 1 view .LVU598
 2068 04c2 B9E7     		b	.L40
 2069              	.L46:
 2070              		.align	2
 2071              	.L45:
 2072 04c4 00000000 		.word	.LANCHOR41
 2073 04c8 00000000 		.word	.LANCHOR4
 2074 04cc 00000000 		.word	_Z13AudioCallbackPKPKfPPfj
 2075 04d0 18000000 		.word	.LANCHOR41+24
 2076 04d4 0000DC43 		.word	1138491392
 2077 04d8 00005C42 		.word	1113325568
 2078 04dc 00005C43 		.word	1130102784
 2079              		.cfi_endproc
 2080              	.LFE4820:
 2082              		.section	.text.startup._GLOBAL__sub_I_adcConfig,"ax",%progbits
 2083              		.align	1
 2084              		.p2align 2,,3
 2085              		.syntax unified
 2086              		.thumb
 2087              		.thumb_func
 2088              		.fpu fpv5-d16
 2090              	_GLOBAL__sub_I_adcConfig:
 2091              	.LFB5383:
 336:mainPot.cpp   ****     }
 337:mainPot.cpp   **** }
 2092              		.loc 11 337 1 view -0
 2093              		.cfi_startproc
 2094              		@ args = 0, pretend = 0, frame = 0
 2095              		@ frame_needed = 0, uses_anonymous_args = 0
 2096              	.LBB513:
 2097              	.LBI513:
 2098              		.loc 11 337 1 view .LVU600
 2099              	.LVL195:
 2100              	.LBB514:
 2101              	.LBB515:
 2102              	.LBI515:
  21:../../libs/libDaisy/src/daisy_seed.h ****     ~DaisySeed() {}
 2103              		.loc 1 21 5 view .LVU601
 2104              	.LBB516:
 2105              	.LBB517:
 2106              	.LBI517:
 2107              		.file 12 "../../libs/libDaisy/src/per/qspi.h"
   1:../../libs/libDaisy/src/per/qspi.h **** #ifndef DSY_QSPI
   2:../../libs/libDaisy/src/per/qspi.h **** #define DSY_QSPI /**< Macro */
   3:../../libs/libDaisy/src/per/qspi.h **** 
   4:../../libs/libDaisy/src/per/qspi.h **** #ifndef UNIT_TEST // for unit tests, a dummy implementation
   5:../../libs/libDaisy/src/per/qspi.h **** 
   6:../../libs/libDaisy/src/per/qspi.h **** #include <cstdint>
   7:../../libs/libDaisy/src/per/qspi.h **** #include "daisy_core.h"
   8:../../libs/libDaisy/src/per/qspi.h **** #include "util/hal_map.h"
   9:../../libs/libDaisy/src/per/qspi.h **** 
  10:../../libs/libDaisy/src/per/qspi.h **** #define DSY_QSPI_TEXT       \
  11:../../libs/libDaisy/src/per/qspi.h ****     __attribute__((section( \
  12:../../libs/libDaisy/src/per/qspi.h ****         ".qspiflash_text"))) /**< used for reading memory in memory_mapped mode. */
ARM GAS  C:\Users\skipi\AppData\Local\Temp\cc2QEVmM.s 			page 59


  13:../../libs/libDaisy/src/per/qspi.h **** #define DSY_QSPI_DATA       \
  14:../../libs/libDaisy/src/per/qspi.h ****     __attribute__((section( \
  15:../../libs/libDaisy/src/per/qspi.h ****         ".qspiflash_data"))) /**< used for reading memory in memory_mapped mode. */
  16:../../libs/libDaisy/src/per/qspi.h **** #define DSY_QSPI_BSS        \
  17:../../libs/libDaisy/src/per/qspi.h ****     __attribute__((section( \
  18:../../libs/libDaisy/src/per/qspi.h ****         ".qspiflash_bss"))) /**< used for reading memory in memory_mapped mode. */
  19:../../libs/libDaisy/src/per/qspi.h **** 
  20:../../libs/libDaisy/src/per/qspi.h **** namespace daisy
  21:../../libs/libDaisy/src/per/qspi.h **** {
  22:../../libs/libDaisy/src/per/qspi.h **** /** @addtogroup serial
  23:../../libs/libDaisy/src/per/qspi.h **** @{
  24:../../libs/libDaisy/src/per/qspi.h **** */
  25:../../libs/libDaisy/src/per/qspi.h **** 
  26:../../libs/libDaisy/src/per/qspi.h **** /** 
  27:../../libs/libDaisy/src/per/qspi.h ****  Driver for QSPI peripheral to interface with external flash memory. \n 
  28:../../libs/libDaisy/src/per/qspi.h ****     Currently supported QSPI Devices: \n 
  29:../../libs/libDaisy/src/per/qspi.h ****     * IS25LP080D
  30:../../libs/libDaisy/src/per/qspi.h **** */
  31:../../libs/libDaisy/src/per/qspi.h **** class QSPIHandle
  32:../../libs/libDaisy/src/per/qspi.h **** {
  33:../../libs/libDaisy/src/per/qspi.h ****   public:
  34:../../libs/libDaisy/src/per/qspi.h ****     enum Result
  35:../../libs/libDaisy/src/per/qspi.h ****     {
  36:../../libs/libDaisy/src/per/qspi.h ****         OK = 0,
  37:../../libs/libDaisy/src/per/qspi.h ****         ERR
  38:../../libs/libDaisy/src/per/qspi.h ****     };
  39:../../libs/libDaisy/src/per/qspi.h **** 
  40:../../libs/libDaisy/src/per/qspi.h ****     /** Indicates the current status of the module. 
  41:../../libs/libDaisy/src/per/qspi.h ****          *  Warnings are indicated by a leading W.
  42:../../libs/libDaisy/src/per/qspi.h ****          *  Errors are indicated by a leading E and cause an immediate exit.
  43:../../libs/libDaisy/src/per/qspi.h ****          * 
  44:../../libs/libDaisy/src/per/qspi.h ****          *  \param GOOD - No errors have been reported.
  45:../../libs/libDaisy/src/per/qspi.h ****          *  \param E_HAL_ERROR - HAL code did not return HAL_OK.
  46:../../libs/libDaisy/src/per/qspi.h ****          *  \param E_SWITCHING_MODES - An error was encountered while switching QSPI peripheral mod
  47:../../libs/libDaisy/src/per/qspi.h ****          *  \param E_INVALID_MODE - QSPI should not be written to while the program is executing fr
  48:../../libs/libDaisy/src/per/qspi.h ****          */
  49:../../libs/libDaisy/src/per/qspi.h ****     enum Status
  50:../../libs/libDaisy/src/per/qspi.h ****     {
  51:../../libs/libDaisy/src/per/qspi.h ****         GOOD = 0,
  52:../../libs/libDaisy/src/per/qspi.h ****         E_HAL_ERROR,
  53:../../libs/libDaisy/src/per/qspi.h ****         E_SWITCHING_MODES,
  54:../../libs/libDaisy/src/per/qspi.h ****         E_INVALID_MODE,
  55:../../libs/libDaisy/src/per/qspi.h ****     };
  56:../../libs/libDaisy/src/per/qspi.h **** 
  57:../../libs/libDaisy/src/per/qspi.h ****     /** Configuration structure for interfacing with QSPI Driver */
  58:../../libs/libDaisy/src/per/qspi.h ****     struct Config
  59:../../libs/libDaisy/src/per/qspi.h ****     {
  60:../../libs/libDaisy/src/per/qspi.h ****         /** Flash Devices supported. (Both of these are more-or-less the same, just different sizes
  61:../../libs/libDaisy/src/per/qspi.h ****         enum Device
  62:../../libs/libDaisy/src/per/qspi.h ****         {
  63:../../libs/libDaisy/src/per/qspi.h ****             IS25LP080D,  /**< & */
  64:../../libs/libDaisy/src/per/qspi.h ****             IS25LP064A,  /**< & */
  65:../../libs/libDaisy/src/per/qspi.h ****             DEVICE_LAST, /**< & */
  66:../../libs/libDaisy/src/per/qspi.h ****         };
  67:../../libs/libDaisy/src/per/qspi.h **** 
  68:../../libs/libDaisy/src/per/qspi.h ****         /** 
  69:../../libs/libDaisy/src/per/qspi.h ****         Modes of operation.
ARM GAS  C:\Users\skipi\AppData\Local\Temp\cc2QEVmM.s 			page 60


  70:../../libs/libDaisy/src/per/qspi.h ****         Memory Mapped mode: QSPI configured so that the QSPI can be
  71:../../libs/libDaisy/src/per/qspi.h ****         read from starting address 0x90000000. Writing is not
  72:../../libs/libDaisy/src/per/qspi.h ****         possible in this mode. \n 
  73:../../libs/libDaisy/src/per/qspi.h ****         Indirect Polling mode: Device driver enabled. 
  74:../../libs/libDaisy/src/per/qspi.h ****         */
  75:../../libs/libDaisy/src/per/qspi.h ****         enum Mode
  76:../../libs/libDaisy/src/per/qspi.h ****         {
  77:../../libs/libDaisy/src/per/qspi.h ****             MEMORY_MAPPED,    /**< & */
  78:../../libs/libDaisy/src/per/qspi.h ****             INDIRECT_POLLING, /**< & */
  79:../../libs/libDaisy/src/per/qspi.h ****             MODE_LAST,
  80:../../libs/libDaisy/src/per/qspi.h ****         };
  81:../../libs/libDaisy/src/per/qspi.h **** 
  82:../../libs/libDaisy/src/per/qspi.h ****         //SCK,  CE# (active low)
  83:../../libs/libDaisy/src/per/qspi.h ****         struct
  84:../../libs/libDaisy/src/per/qspi.h ****         {
  85:../../libs/libDaisy/src/per/qspi.h ****             Pin io0; /**< & */
  86:../../libs/libDaisy/src/per/qspi.h ****             Pin io1; /**< & */
  87:../../libs/libDaisy/src/per/qspi.h ****             Pin io2; /**< & */
  88:../../libs/libDaisy/src/per/qspi.h ****             Pin io3; /**< & */
  89:../../libs/libDaisy/src/per/qspi.h ****             Pin clk; /**< & */
  90:../../libs/libDaisy/src/per/qspi.h ****             Pin ncs; /**< & */
  91:../../libs/libDaisy/src/per/qspi.h ****         } pin_config;
  92:../../libs/libDaisy/src/per/qspi.h **** 
  93:../../libs/libDaisy/src/per/qspi.h ****         Device device;
  94:../../libs/libDaisy/src/per/qspi.h ****         Mode   mode;
  95:../../libs/libDaisy/src/per/qspi.h ****     };
  96:../../libs/libDaisy/src/per/qspi.h **** 
  97:../../libs/libDaisy/src/per/qspi.h ****     /** 
  98:../../libs/libDaisy/src/per/qspi.h ****         Initializes QSPI peripheral, and Resets, and prepares memory for access.
  99:../../libs/libDaisy/src/per/qspi.h ****         \param config should be populated with the mode, device and pin_config before calling this 
 100:../../libs/libDaisy/src/per/qspi.h ****         \return Result::OK or Result::ERR
 101:../../libs/libDaisy/src/per/qspi.h ****         */
 102:../../libs/libDaisy/src/per/qspi.h ****     Result Init(const Config& config);
 103:../../libs/libDaisy/src/per/qspi.h **** 
 104:../../libs/libDaisy/src/per/qspi.h ****     /** Returns the current config. */
 105:../../libs/libDaisy/src/per/qspi.h ****     const Config& GetConfig() const;
 106:../../libs/libDaisy/src/per/qspi.h **** 
 107:../../libs/libDaisy/src/per/qspi.h ****     // Couldn't this just be called before anything else in init? That
 108:../../libs/libDaisy/src/per/qspi.h ****     // would make manually calling it unnecessary.
 109:../../libs/libDaisy/src/per/qspi.h ****     /** 
 110:../../libs/libDaisy/src/per/qspi.h ****         Deinitializes the peripheral
 111:../../libs/libDaisy/src/per/qspi.h ****         This should be called before reinitializing QSPI in a different mode.
 112:../../libs/libDaisy/src/per/qspi.h ****         \return Result::OK or Result::ERR
 113:../../libs/libDaisy/src/per/qspi.h ****         */
 114:../../libs/libDaisy/src/per/qspi.h ****     Result DeInit();
 115:../../libs/libDaisy/src/per/qspi.h **** 
 116:../../libs/libDaisy/src/per/qspi.h ****     /** 
 117:../../libs/libDaisy/src/per/qspi.h ****         Writes a single page to to the specified address on the QSPI chip.
 118:../../libs/libDaisy/src/per/qspi.h ****         For IS25LP*, page size is 256 bytes.
 119:../../libs/libDaisy/src/per/qspi.h ****         \param address Address to write to
 120:../../libs/libDaisy/src/per/qspi.h ****         \param size Buffer size
 121:../../libs/libDaisy/src/per/qspi.h ****         \param buffer Buffer to write
 122:../../libs/libDaisy/src/per/qspi.h ****         \return Result::OK or Result::ERR
 123:../../libs/libDaisy/src/per/qspi.h ****         */
 124:../../libs/libDaisy/src/per/qspi.h ****     Result WritePage(uint32_t address, uint32_t size, uint8_t* buffer);
 125:../../libs/libDaisy/src/per/qspi.h **** 
 126:../../libs/libDaisy/src/per/qspi.h ****     /** 
ARM GAS  C:\Users\skipi\AppData\Local\Temp\cc2QEVmM.s 			page 61


 127:../../libs/libDaisy/src/per/qspi.h ****         Writes data in buffer to to the QSPI. Starting at address to address+size 
 128:../../libs/libDaisy/src/per/qspi.h ****         \param address Address to write to
 129:../../libs/libDaisy/src/per/qspi.h ****         \param size Buffer size
 130:../../libs/libDaisy/src/per/qspi.h ****         \param buffer Buffer to write
 131:../../libs/libDaisy/src/per/qspi.h ****         \return Result::OK or Result::ERR
 132:../../libs/libDaisy/src/per/qspi.h ****         */
 133:../../libs/libDaisy/src/per/qspi.h ****     Result Write(uint32_t address, uint32_t size, uint8_t* buffer);
 134:../../libs/libDaisy/src/per/qspi.h **** 
 135:../../libs/libDaisy/src/per/qspi.h ****     /** 
 136:../../libs/libDaisy/src/per/qspi.h ****         Erases the area specified on the chip.
 137:../../libs/libDaisy/src/per/qspi.h ****         Erasures will happen by 4K, 32K or 64K increments.
 138:../../libs/libDaisy/src/per/qspi.h ****         Smallest erase possible is 4kB at a time. (on IS25LP*)
 139:../../libs/libDaisy/src/per/qspi.h ****         \param start_addr Address to begin erasing from
 140:../../libs/libDaisy/src/per/qspi.h ****         \param end_addr  Address to stop erasing at
 141:../../libs/libDaisy/src/per/qspi.h ****         \return Result::OK or Result::ERR
 142:../../libs/libDaisy/src/per/qspi.h ****         */
 143:../../libs/libDaisy/src/per/qspi.h ****     Result Erase(uint32_t start_addr, uint32_t end_addr);
 144:../../libs/libDaisy/src/per/qspi.h **** 
 145:../../libs/libDaisy/src/per/qspi.h ****     /**  
 146:../../libs/libDaisy/src/per/qspi.h ****          Erases a single sector of the chip.  
 147:../../libs/libDaisy/src/per/qspi.h ****         TODO: Document the size of this function. 
 148:../../libs/libDaisy/src/per/qspi.h ****         \param address Address of sector to erase
 149:../../libs/libDaisy/src/per/qspi.h ****         \return Result::OK or Result::ERR
 150:../../libs/libDaisy/src/per/qspi.h ****         */
 151:../../libs/libDaisy/src/per/qspi.h ****     Result EraseSector(uint32_t address);
 152:../../libs/libDaisy/src/per/qspi.h **** 
 153:../../libs/libDaisy/src/per/qspi.h ****     /** Returns the current class status. Useful for debugging.
 154:../../libs/libDaisy/src/per/qspi.h ****      *  \returns Status
 155:../../libs/libDaisy/src/per/qspi.h ****      */
 156:../../libs/libDaisy/src/per/qspi.h ****     Status GetStatus();
 157:../../libs/libDaisy/src/per/qspi.h **** 
 158:../../libs/libDaisy/src/per/qspi.h ****     /** Returns a pointer to the actual memory used 
 159:../../libs/libDaisy/src/per/qspi.h ****      *  The memory at this address is read-only
 160:../../libs/libDaisy/src/per/qspi.h ****      *  to write to it use the Write function.
 161:../../libs/libDaisy/src/per/qspi.h ****      * 
 162:../../libs/libDaisy/src/per/qspi.h ****      *  \param offset returns the pointer starting this 
 163:../../libs/libDaisy/src/per/qspi.h ****      *                many bytes into the memory
 164:../../libs/libDaisy/src/per/qspi.h ****     */
 165:../../libs/libDaisy/src/per/qspi.h ****     void* GetData(uint32_t offset = 0);
 166:../../libs/libDaisy/src/per/qspi.h **** 
 167:../../libs/libDaisy/src/per/qspi.h ****     QSPIHandle() : pimpl_(nullptr) {}
 2108              		.loc 12 167 5 view .LVU602
 2109              		.loc 12 167 5 is_stmt 0 view .LVU603
 2110              	.LBE517:
 2111              	.LBB520:
 2112              	.LBI520:
  58:../../libs/libDaisy/src/per/qspi.h ****     {
 2113              		.loc 12 58 12 is_stmt 1 view .LVU604
 2114              	.LBB521:
 2115              	.LBI521:
  84:../../libs/libDaisy/src/per/qspi.h ****             Pin io0; /**< & */
 2116              		.loc 12 84 9 view .LVU605
 2117              	.LBB522:
 2118              	.LBI522:
 2119              		.file 13 "../../libs/libDaisy/src/daisy_core.h"
   1:../../libs/libDaisy/src/daisy_core.h **** #pragma once
   2:../../libs/libDaisy/src/daisy_core.h **** #ifndef DSY_CORE_HW_H
ARM GAS  C:\Users\skipi\AppData\Local\Temp\cc2QEVmM.s 			page 62


   3:../../libs/libDaisy/src/daisy_core.h **** #define DSY_CORE_HW_H /**< & */
   4:../../libs/libDaisy/src/daisy_core.h **** #include <stdint.h>
   5:../../libs/libDaisy/src/daisy_core.h **** #include <stdlib.h>
   6:../../libs/libDaisy/src/daisy_core.h **** 
   7:../../libs/libDaisy/src/daisy_core.h **** #if defined(_MSC_VER)
   8:../../libs/libDaisy/src/daisy_core.h **** #define FORCE_INLINE __forceinline /**< & */
   9:../../libs/libDaisy/src/daisy_core.h **** #elif defined(__clang__)
  10:../../libs/libDaisy/src/daisy_core.h **** #define FORCE_INLINE inline __attribute__((always_inline)) /**< & */
  11:../../libs/libDaisy/src/daisy_core.h **** #pragma clang diagnostic ignored "-Wduplicate-decl-specifier"
  12:../../libs/libDaisy/src/daisy_core.h **** #elif defined(__GNUC__)
  13:../../libs/libDaisy/src/daisy_core.h **** #define FORCE_INLINE inline __attribute__((always_inline)) /**< & */
  14:../../libs/libDaisy/src/daisy_core.h **** #else
  15:../../libs/libDaisy/src/daisy_core.h **** #error unknown compiler
  16:../../libs/libDaisy/src/daisy_core.h **** #endif
  17:../../libs/libDaisy/src/daisy_core.h **** 
  18:../../libs/libDaisy/src/daisy_core.h **** /** @addtogroup utility
  19:../../libs/libDaisy/src/daisy_core.h ****     @{
  20:../../libs/libDaisy/src/daisy_core.h **** */
  21:../../libs/libDaisy/src/daisy_core.h **** 
  22:../../libs/libDaisy/src/daisy_core.h **** /** Macro for area of memory that is configured as cacheless
  23:../../libs/libDaisy/src/daisy_core.h **** This should be used primarily for DMA buffers, and the like.
  24:../../libs/libDaisy/src/daisy_core.h **** */
  25:../../libs/libDaisy/src/daisy_core.h **** #define DMA_BUFFER_MEM_SECTION __attribute__((section(".sram1_bss")))
  26:../../libs/libDaisy/src/daisy_core.h **** /** 
  27:../../libs/libDaisy/src/daisy_core.h **** THE DTCM RAM section is also non-cached. However, is not suitable 
  28:../../libs/libDaisy/src/daisy_core.h **** for DMA transfers. Performance is on par with internal SRAM w/ 
  29:../../libs/libDaisy/src/daisy_core.h **** cache enabled.
  30:../../libs/libDaisy/src/daisy_core.h **** */
  31:../../libs/libDaisy/src/daisy_core.h **** #define DTCM_MEM_SECTION __attribute__((section(".dtcmram_bss")))
  32:../../libs/libDaisy/src/daisy_core.h **** 
  33:../../libs/libDaisy/src/daisy_core.h **** #define FBIPMAX 0.999985f             /**< close to 1.0f-LSB at 16 bit */
  34:../../libs/libDaisy/src/daisy_core.h **** #define FBIPMIN (-FBIPMAX)            /**< - (1 - LSB) */
  35:../../libs/libDaisy/src/daisy_core.h **** #define U82F_SCALE 0.0078740f         /**< 1 / 127 */
  36:../../libs/libDaisy/src/daisy_core.h **** #define F2U8_SCALE 127.0f             /**< 128 - 1 */
  37:../../libs/libDaisy/src/daisy_core.h **** #define S82F_SCALE 0.0078125f         /**< 1 / (2**7) */
  38:../../libs/libDaisy/src/daisy_core.h **** #define F2S8_SCALE 127.0f             /**< (2 ** 7) - 1 */
  39:../../libs/libDaisy/src/daisy_core.h **** #define S162F_SCALE 3.0517578125e-05f /**< 1 / (2** 15) */
  40:../../libs/libDaisy/src/daisy_core.h **** #define F2S16_SCALE 32767.0f          /**< (2 ** 15) - 1 */
  41:../../libs/libDaisy/src/daisy_core.h **** #define F2S24_SCALE 8388608.0f        /**< 2 ** 23 */
  42:../../libs/libDaisy/src/daisy_core.h **** #define S242F_SCALE 1.192092896e-07f  /**< 1 / (2 ** 23) */
  43:../../libs/libDaisy/src/daisy_core.h **** #define S24SIGN 0x800000              /**< 2 ** 23 */
  44:../../libs/libDaisy/src/daisy_core.h **** #define S322F_SCALE 4.6566129e-10f    /**< 1 / (2** 31) */
  45:../../libs/libDaisy/src/daisy_core.h **** #define F2S32_SCALE 2147483647.f      /**< (2 ** 31) - 1 */
  46:../../libs/libDaisy/src/daisy_core.h **** 
  47:../../libs/libDaisy/src/daisy_core.h **** 
  48:../../libs/libDaisy/src/daisy_core.h **** /** shorthand macro for simplifying the reading of the left 
  49:../../libs/libDaisy/src/daisy_core.h ****  *  channel of a non-interleaved output buffer named out */
  50:../../libs/libDaisy/src/daisy_core.h **** #define OUT_L out[0]
  51:../../libs/libDaisy/src/daisy_core.h **** 
  52:../../libs/libDaisy/src/daisy_core.h **** /** shorthand macro for simplifying the reading of the right 
  53:../../libs/libDaisy/src/daisy_core.h ****  *  channel of a non-interleaved output buffer named out */
  54:../../libs/libDaisy/src/daisy_core.h **** #define OUT_R out[1]
  55:../../libs/libDaisy/src/daisy_core.h **** 
  56:../../libs/libDaisy/src/daisy_core.h **** /** shorthand macro for simplifying the reading of the left 
  57:../../libs/libDaisy/src/daisy_core.h ****  *  channel of a non-interleaved input buffer named in */
  58:../../libs/libDaisy/src/daisy_core.h **** #define IN_L in[0]
  59:../../libs/libDaisy/src/daisy_core.h **** 
ARM GAS  C:\Users\skipi\AppData\Local\Temp\cc2QEVmM.s 			page 63


  60:../../libs/libDaisy/src/daisy_core.h **** /** shorthand macro for simplifying the reading of the right 
  61:../../libs/libDaisy/src/daisy_core.h ****  *  channel of a non-interleaved input buffer named in */
  62:../../libs/libDaisy/src/daisy_core.h **** #define IN_R in[1]
  63:../../libs/libDaisy/src/daisy_core.h **** 
  64:../../libs/libDaisy/src/daisy_core.h **** /** 
  65:../../libs/libDaisy/src/daisy_core.h ****     Computes cube.
  66:../../libs/libDaisy/src/daisy_core.h ****     \param x Number to be cubed
  67:../../libs/libDaisy/src/daisy_core.h ****     \return x ^ 3
  68:../../libs/libDaisy/src/daisy_core.h **** */
  69:../../libs/libDaisy/src/daisy_core.h **** FORCE_INLINE float cube(float x)
  70:../../libs/libDaisy/src/daisy_core.h **** {
  71:../../libs/libDaisy/src/daisy_core.h ****     return (x * x) * x;
  72:../../libs/libDaisy/src/daisy_core.h **** }
  73:../../libs/libDaisy/src/daisy_core.h **** 
  74:../../libs/libDaisy/src/daisy_core.h **** /** 
  75:../../libs/libDaisy/src/daisy_core.h ****     Converts unsigned 8-bit to float
  76:../../libs/libDaisy/src/daisy_core.h ****     \param x Number to be scaled.
  77:../../libs/libDaisy/src/daisy_core.h ****     \return Scaled number.
  78:../../libs/libDaisy/src/daisy_core.h **** */
  79:../../libs/libDaisy/src/daisy_core.h **** FORCE_INLINE float u82f(uint8_t x)
  80:../../libs/libDaisy/src/daisy_core.h **** {
  81:../../libs/libDaisy/src/daisy_core.h ****     return ((float)x - 127.f) * U82F_SCALE;
  82:../../libs/libDaisy/src/daisy_core.h **** }
  83:../../libs/libDaisy/src/daisy_core.h **** 
  84:../../libs/libDaisy/src/daisy_core.h **** /**
  85:../../libs/libDaisy/src/daisy_core.h ****     Converts float to unsigned 8-bit
  86:../../libs/libDaisy/src/daisy_core.h **** */
  87:../../libs/libDaisy/src/daisy_core.h **** FORCE_INLINE uint8_t f2u8(float x)
  88:../../libs/libDaisy/src/daisy_core.h **** {
  89:../../libs/libDaisy/src/daisy_core.h ****     x = x <= FBIPMIN ? FBIPMIN : x;
  90:../../libs/libDaisy/src/daisy_core.h ****     x = x >= FBIPMAX ? FBIPMAX : x;
  91:../../libs/libDaisy/src/daisy_core.h ****     return (uint8_t)((x * F2U8_SCALE) + F2U8_SCALE);
  92:../../libs/libDaisy/src/daisy_core.h **** }
  93:../../libs/libDaisy/src/daisy_core.h **** 
  94:../../libs/libDaisy/src/daisy_core.h **** 
  95:../../libs/libDaisy/src/daisy_core.h **** /** 
  96:../../libs/libDaisy/src/daisy_core.h ****     Converts Signed 8-bit to float
  97:../../libs/libDaisy/src/daisy_core.h ****     \param x Number to be scaled.
  98:../../libs/libDaisy/src/daisy_core.h ****     \return Scaled number.
  99:../../libs/libDaisy/src/daisy_core.h **** */
 100:../../libs/libDaisy/src/daisy_core.h **** FORCE_INLINE float s82f(int8_t x)
 101:../../libs/libDaisy/src/daisy_core.h **** {
 102:../../libs/libDaisy/src/daisy_core.h ****     return (float)x * S82F_SCALE;
 103:../../libs/libDaisy/src/daisy_core.h **** }
 104:../../libs/libDaisy/src/daisy_core.h **** 
 105:../../libs/libDaisy/src/daisy_core.h **** /**
 106:../../libs/libDaisy/src/daisy_core.h ****     Converts float to Signed 8-bit
 107:../../libs/libDaisy/src/daisy_core.h **** */
 108:../../libs/libDaisy/src/daisy_core.h **** FORCE_INLINE int8_t f2s8(float x)
 109:../../libs/libDaisy/src/daisy_core.h **** {
 110:../../libs/libDaisy/src/daisy_core.h ****     x = x <= FBIPMIN ? FBIPMIN : x;
 111:../../libs/libDaisy/src/daisy_core.h ****     x = x >= FBIPMAX ? FBIPMAX : x;
 112:../../libs/libDaisy/src/daisy_core.h ****     return (int32_t)(x * F2S8_SCALE);
 113:../../libs/libDaisy/src/daisy_core.h **** }
 114:../../libs/libDaisy/src/daisy_core.h **** 
 115:../../libs/libDaisy/src/daisy_core.h **** /** 
 116:../../libs/libDaisy/src/daisy_core.h ****     Converts Signed 16-bit to float
ARM GAS  C:\Users\skipi\AppData\Local\Temp\cc2QEVmM.s 			page 64


 117:../../libs/libDaisy/src/daisy_core.h ****     \param x Number to be scaled.
 118:../../libs/libDaisy/src/daisy_core.h ****     \return Scaled number.
 119:../../libs/libDaisy/src/daisy_core.h **** */
 120:../../libs/libDaisy/src/daisy_core.h **** FORCE_INLINE float s162f(int16_t x)
 121:../../libs/libDaisy/src/daisy_core.h **** {
 122:../../libs/libDaisy/src/daisy_core.h ****     return (float)x * S162F_SCALE;
 123:../../libs/libDaisy/src/daisy_core.h **** }
 124:../../libs/libDaisy/src/daisy_core.h **** 
 125:../../libs/libDaisy/src/daisy_core.h **** /**
 126:../../libs/libDaisy/src/daisy_core.h ****     Converts float to Signed 16-bit
 127:../../libs/libDaisy/src/daisy_core.h **** */
 128:../../libs/libDaisy/src/daisy_core.h **** FORCE_INLINE int16_t f2s16(float x)
 129:../../libs/libDaisy/src/daisy_core.h **** {
 130:../../libs/libDaisy/src/daisy_core.h ****     x = x <= FBIPMIN ? FBIPMIN : x;
 131:../../libs/libDaisy/src/daisy_core.h ****     x = x >= FBIPMAX ? FBIPMAX : x;
 132:../../libs/libDaisy/src/daisy_core.h ****     return (int32_t)(x * F2S16_SCALE);
 133:../../libs/libDaisy/src/daisy_core.h **** }
 134:../../libs/libDaisy/src/daisy_core.h **** 
 135:../../libs/libDaisy/src/daisy_core.h **** /**
 136:../../libs/libDaisy/src/daisy_core.h ****     Converts Signed 24-bit to float
 137:../../libs/libDaisy/src/daisy_core.h ****  */
 138:../../libs/libDaisy/src/daisy_core.h **** FORCE_INLINE float s242f(int32_t x)
 139:../../libs/libDaisy/src/daisy_core.h **** {
 140:../../libs/libDaisy/src/daisy_core.h ****     x = (x ^ S24SIGN) - S24SIGN; //sign extend aka ((x<<8)>>8)
 141:../../libs/libDaisy/src/daisy_core.h ****     return (float)x * S242F_SCALE;
 142:../../libs/libDaisy/src/daisy_core.h **** }
 143:../../libs/libDaisy/src/daisy_core.h **** /**
 144:../../libs/libDaisy/src/daisy_core.h ****     Converts float to Signed 24-bit
 145:../../libs/libDaisy/src/daisy_core.h ****  */
 146:../../libs/libDaisy/src/daisy_core.h **** FORCE_INLINE int32_t f2s24(float x)
 147:../../libs/libDaisy/src/daisy_core.h **** {
 148:../../libs/libDaisy/src/daisy_core.h ****     x = x <= FBIPMIN ? FBIPMIN : x;
 149:../../libs/libDaisy/src/daisy_core.h ****     x = x >= FBIPMAX ? FBIPMAX : x;
 150:../../libs/libDaisy/src/daisy_core.h ****     return (int32_t)(x * F2S24_SCALE);
 151:../../libs/libDaisy/src/daisy_core.h **** }
 152:../../libs/libDaisy/src/daisy_core.h **** 
 153:../../libs/libDaisy/src/daisy_core.h **** /**
 154:../../libs/libDaisy/src/daisy_core.h ****     Converts Signed 32-bit to float
 155:../../libs/libDaisy/src/daisy_core.h ****  */
 156:../../libs/libDaisy/src/daisy_core.h **** FORCE_INLINE float s322f(int32_t x)
 157:../../libs/libDaisy/src/daisy_core.h **** {
 158:../../libs/libDaisy/src/daisy_core.h ****     return (float)x * S322F_SCALE;
 159:../../libs/libDaisy/src/daisy_core.h **** }
 160:../../libs/libDaisy/src/daisy_core.h **** /**
 161:../../libs/libDaisy/src/daisy_core.h ****     Converts float to Signed 24-bit
 162:../../libs/libDaisy/src/daisy_core.h ****  */
 163:../../libs/libDaisy/src/daisy_core.h **** FORCE_INLINE int32_t f2s32(float x)
 164:../../libs/libDaisy/src/daisy_core.h **** {
 165:../../libs/libDaisy/src/daisy_core.h ****     x = x <= FBIPMIN ? FBIPMIN : x;
 166:../../libs/libDaisy/src/daisy_core.h ****     x = x >= FBIPMAX ? FBIPMAX : x;
 167:../../libs/libDaisy/src/daisy_core.h ****     return (int32_t)(x * F2S32_SCALE);
 168:../../libs/libDaisy/src/daisy_core.h **** }
 169:../../libs/libDaisy/src/daisy_core.h **** 
 170:../../libs/libDaisy/src/daisy_core.h **** #ifdef __cplusplus
 171:../../libs/libDaisy/src/daisy_core.h **** 
 172:../../libs/libDaisy/src/daisy_core.h **** namespace daisy
 173:../../libs/libDaisy/src/daisy_core.h **** {
ARM GAS  C:\Users\skipi\AppData\Local\Temp\cc2QEVmM.s 			page 65


 174:../../libs/libDaisy/src/daisy_core.h **** /** @brief GPIO Port names */
 175:../../libs/libDaisy/src/daisy_core.h **** enum GPIOPort
 176:../../libs/libDaisy/src/daisy_core.h **** {
 177:../../libs/libDaisy/src/daisy_core.h ****     PORTA, /**< Port A */
 178:../../libs/libDaisy/src/daisy_core.h ****     PORTB, /**< Port B */
 179:../../libs/libDaisy/src/daisy_core.h ****     PORTC, /**< Port C */
 180:../../libs/libDaisy/src/daisy_core.h ****     PORTD, /**< Port D */
 181:../../libs/libDaisy/src/daisy_core.h ****     PORTE, /**< Port E */
 182:../../libs/libDaisy/src/daisy_core.h ****     PORTF, /**< Port F */
 183:../../libs/libDaisy/src/daisy_core.h ****     PORTG, /**< Port G */
 184:../../libs/libDaisy/src/daisy_core.h ****     PORTH, /**< Port H */
 185:../../libs/libDaisy/src/daisy_core.h ****     PORTI, /**< Port I */
 186:../../libs/libDaisy/src/daisy_core.h ****     PORTJ, /**< Port J */
 187:../../libs/libDaisy/src/daisy_core.h ****     PORTK, /**< Port K */
 188:../../libs/libDaisy/src/daisy_core.h ****     PORTX, /**< Used as a dummy port to signal an invalid pin. */
 189:../../libs/libDaisy/src/daisy_core.h **** };
 190:../../libs/libDaisy/src/daisy_core.h **** 
 191:../../libs/libDaisy/src/daisy_core.h **** /** @brief representation of hardware port/pin combination */
 192:../../libs/libDaisy/src/daisy_core.h **** struct Pin
 193:../../libs/libDaisy/src/daisy_core.h **** {
 194:../../libs/libDaisy/src/daisy_core.h ****     GPIOPort port;
 195:../../libs/libDaisy/src/daisy_core.h ****     uint8_t  pin;
 196:../../libs/libDaisy/src/daisy_core.h **** 
 197:../../libs/libDaisy/src/daisy_core.h ****     /** @brief Constructor creates a valid pin. 
 198:../../libs/libDaisy/src/daisy_core.h ****      *  @param pt GPIOPort between PA, and PK corresponding to STM32 Port.
 199:../../libs/libDaisy/src/daisy_core.h ****      *  @param pn pin number in range of 0-15
 200:../../libs/libDaisy/src/daisy_core.h ****     */
 201:../../libs/libDaisy/src/daisy_core.h ****     constexpr Pin(const GPIOPort pt, const uint8_t pn) : port(pt), pin(pn) {}
 202:../../libs/libDaisy/src/daisy_core.h **** 
 203:../../libs/libDaisy/src/daisy_core.h ****     /** @brief Basic Constructor creates an invalid Pin object */
 204:../../libs/libDaisy/src/daisy_core.h ****     constexpr Pin() : port(PORTX), pin(255) {}
 2120              		.loc 13 204 15 view .LVU606
 2121              		.loc 13 204 15 is_stmt 0 view .LVU607
 2122              	.LBE522:
 2123              	.LBB523:
 2124              	.LBI523:
 2125              		.loc 13 204 15 is_stmt 1 view .LVU608
 2126              		.loc 13 204 15 is_stmt 0 view .LVU609
 2127              	.LBE523:
 2128              	.LBB524:
 2129              	.LBI524:
 2130              		.loc 13 204 15 is_stmt 1 view .LVU610
 2131              		.loc 13 204 15 is_stmt 0 view .LVU611
 2132              	.LBE524:
 2133              	.LBB525:
 2134              	.LBI525:
 2135              		.loc 13 204 15 is_stmt 1 view .LVU612
 2136              		.loc 13 204 15 is_stmt 0 view .LVU613
 2137              	.LBE525:
 2138              	.LBB526:
 2139              	.LBI526:
 2140              		.loc 13 204 15 is_stmt 1 view .LVU614
 2141              		.loc 13 204 15 is_stmt 0 view .LVU615
 2142              	.LBE526:
 2143              	.LBB527:
 2144              	.LBI527:
 2145              		.loc 13 204 15 is_stmt 1 view .LVU616
ARM GAS  C:\Users\skipi\AppData\Local\Temp\cc2QEVmM.s 			page 66


 2146              		.loc 13 204 15 is_stmt 0 view .LVU617
 2147              	.LBE527:
 2148              	.LBE521:
 2149              	.LBE520:
 2150              	.LBB528:
 2151              	.LBI528:
  87:../../libs/libDaisy/src/hid/audio.h ****     ~AudioHandle() {}
 2152              		.loc 6 87 5 is_stmt 1 view .LVU618
  87:../../libs/libDaisy/src/hid/audio.h ****     ~AudioHandle() {}
 2153              		.loc 6 87 5 is_stmt 0 view .LVU619
 2154              	.LBE528:
 2155              	.LBB531:
 2156              	.LBI531:
 109:../../libs/libDaisy/src/per/adc.h ****     ~AdcHandle() {}
 2157              		.loc 5 109 5 is_stmt 1 view .LVU620
 109:../../libs/libDaisy/src/per/adc.h ****     ~AdcHandle() {}
 2158              		.loc 5 109 5 is_stmt 0 view .LVU621
 2159              	.LBE531:
 2160              	.LBB532:
 2161              	.LBI532:
 2162              		.file 14 "../../libs/libDaisy/src/per/dac.h"
   1:../../libs/libDaisy/src/per/dac.h **** #pragma once
   2:../../libs/libDaisy/src/per/dac.h **** #ifndef DSY_DAC_H
   3:../../libs/libDaisy/src/per/dac.h **** #define DSY_DAC_H
   4:../../libs/libDaisy/src/per/dac.h **** #include "stm32h7xx_hal.h"
   5:../../libs/libDaisy/src/per/dac.h **** #include "daisy_core.h"
   6:../../libs/libDaisy/src/per/dac.h **** 
   7:../../libs/libDaisy/src/per/dac.h **** namespace daisy
   8:../../libs/libDaisy/src/per/dac.h **** {
   9:../../libs/libDaisy/src/per/dac.h **** /** @brief DAC handle for Built-in DAC Peripheral 
  10:../../libs/libDaisy/src/per/dac.h ****  *  @ingroup per_analog
  11:../../libs/libDaisy/src/per/dac.h ****  ** 
  12:../../libs/libDaisy/src/per/dac.h ****  ** For now only Normal Mode is supported,
  13:../../libs/libDaisy/src/per/dac.h ****  ** Sample and hold mode provides reduced power consumption, but requires a bit more setup.
  14:../../libs/libDaisy/src/per/dac.h ****  **
  15:../../libs/libDaisy/src/per/dac.h ****  ** For now connecting the DAC through other internal peripherals is also not supported.
  16:../../libs/libDaisy/src/per/dac.h ****  **
  17:../../libs/libDaisy/src/per/dac.h ****  ** Since the DAC channels have dedicated pins we don't need to pass in a pin config like with
  18:../../libs/libDaisy/src/per/dac.h ****  ** other modules. However, it is still important to not try to use the DAC pins for anything else.
  19:../../libs/libDaisy/src/per/dac.h ****  ** DAC Channel 1 is on PA4, and DAC Channel 2 is on PA5
  20:../../libs/libDaisy/src/per/dac.h ****  ***/
  21:../../libs/libDaisy/src/per/dac.h **** class DacHandle
  22:../../libs/libDaisy/src/per/dac.h **** {
  23:../../libs/libDaisy/src/per/dac.h ****   public:
  24:../../libs/libDaisy/src/per/dac.h ****     /** Return Values for the DacHandle class */
  25:../../libs/libDaisy/src/per/dac.h ****     enum class Result
  26:../../libs/libDaisy/src/per/dac.h ****     {
  27:../../libs/libDaisy/src/per/dac.h ****         OK,
  28:../../libs/libDaisy/src/per/dac.h ****         ERR,
  29:../../libs/libDaisy/src/per/dac.h ****     };
  30:../../libs/libDaisy/src/per/dac.h **** 
  31:../../libs/libDaisy/src/per/dac.h ****     /** Selects which channel(s) will be configured for use. */
  32:../../libs/libDaisy/src/per/dac.h ****     enum class Channel
  33:../../libs/libDaisy/src/per/dac.h ****     {
  34:../../libs/libDaisy/src/per/dac.h ****         ONE,
  35:../../libs/libDaisy/src/per/dac.h ****         TWO,
  36:../../libs/libDaisy/src/per/dac.h ****         BOTH,
ARM GAS  C:\Users\skipi\AppData\Local\Temp\cc2QEVmM.s 			page 67


  37:../../libs/libDaisy/src/per/dac.h ****     };
  38:../../libs/libDaisy/src/per/dac.h **** 
  39:../../libs/libDaisy/src/per/dac.h ****     /** Sets the Mode for the DAC channels.
  40:../../libs/libDaisy/src/per/dac.h ****      **
  41:../../libs/libDaisy/src/per/dac.h ****      ** Polling mode uses the blocking mode to transmit a single value at a time.
  42:../../libs/libDaisy/src/per/dac.h ****      **
  43:../../libs/libDaisy/src/per/dac.h ****      ** DMA mode uses a buffer, and periodically transmits it triggering a 
  44:../../libs/libDaisy/src/per/dac.h ****      ** callback to fill the buffer when it is ready for more samples.
  45:../../libs/libDaisy/src/per/dac.h ****      ***/
  46:../../libs/libDaisy/src/per/dac.h ****     enum class Mode
  47:../../libs/libDaisy/src/per/dac.h ****     {
  48:../../libs/libDaisy/src/per/dac.h ****         POLLING,
  49:../../libs/libDaisy/src/per/dac.h ****         DMA,
  50:../../libs/libDaisy/src/per/dac.h ****     };
  51:../../libs/libDaisy/src/per/dac.h **** 
  52:../../libs/libDaisy/src/per/dac.h ****     /** Sets the number of bits per sample transmitted out of the DAC.
  53:../../libs/libDaisy/src/per/dac.h ****      ** The output range will be: 0V - VDDA
  54:../../libs/libDaisy/src/per/dac.h ****      ** The resolution will be roughly: bitdepth / (VDDA - 0V) 
  55:../../libs/libDaisy/src/per/dac.h ****      ***/
  56:../../libs/libDaisy/src/per/dac.h ****     enum class BitDepth
  57:../../libs/libDaisy/src/per/dac.h ****     {
  58:../../libs/libDaisy/src/per/dac.h ****         BITS_8,
  59:../../libs/libDaisy/src/per/dac.h ****         BITS_12
  60:../../libs/libDaisy/src/per/dac.h ****     };
  61:../../libs/libDaisy/src/per/dac.h **** 
  62:../../libs/libDaisy/src/per/dac.h ****     /** Sets whether the DAC output is buffered for higher drive ability. */
  63:../../libs/libDaisy/src/per/dac.h ****     enum class BufferState
  64:../../libs/libDaisy/src/per/dac.h ****     {
  65:../../libs/libDaisy/src/per/dac.h ****         ENABLED,
  66:../../libs/libDaisy/src/per/dac.h ****         DISABLED,
  67:../../libs/libDaisy/src/per/dac.h ****     };
  68:../../libs/libDaisy/src/per/dac.h **** 
  69:../../libs/libDaisy/src/per/dac.h ****     /** Configuration structure for initializing the DAC structure. */
  70:../../libs/libDaisy/src/per/dac.h ****     struct Config
  71:../../libs/libDaisy/src/per/dac.h ****     {
  72:../../libs/libDaisy/src/per/dac.h ****         /** Target Samplerate in Hz used to configure the internal 
  73:../../libs/libDaisy/src/per/dac.h ****          ** timebase for DMA mode. Does nothing in POLLING mode.
  74:../../libs/libDaisy/src/per/dac.h ****          ** If the value is 0 at Init time this will default to 48000Hz 
  75:../../libs/libDaisy/src/per/dac.h ****          ** otherwise the driver will attempt meet the target.*/
  76:../../libs/libDaisy/src/per/dac.h ****         uint32_t target_samplerate;
  77:../../libs/libDaisy/src/per/dac.h **** 
  78:../../libs/libDaisy/src/per/dac.h ****         Channel     chn;
  79:../../libs/libDaisy/src/per/dac.h ****         Mode        mode;
  80:../../libs/libDaisy/src/per/dac.h ****         BitDepth    bitdepth;
  81:../../libs/libDaisy/src/per/dac.h ****         BufferState buff_state;
  82:../../libs/libDaisy/src/per/dac.h ****     };
  83:../../libs/libDaisy/src/per/dac.h **** 
  84:../../libs/libDaisy/src/per/dac.h ****     DacHandle() : pimpl_(nullptr) {}
 2163              		.loc 14 84 5 is_stmt 1 view .LVU622
 2164              		.loc 14 84 5 is_stmt 0 view .LVU623
 2165              	.LBE532:
 2166              	.LBB535:
 2167              	.LBI535:
  40:../../libs/libDaisy/src/hid/usb.h **** 
 2168              		.loc 4 40 5 is_stmt 1 view .LVU624
  40:../../libs/libDaisy/src/hid/usb.h **** 
 2169              		.loc 4 40 5 is_stmt 0 view .LVU625
ARM GAS  C:\Users\skipi\AppData\Local\Temp\cc2QEVmM.s 			page 68


 2170              	.LBE535:
 2171              	.LBB536:
 2172              	.LBI536:
 2173              		.file 15 "../../libs/libDaisy/src/per/gpio.h"
   1:../../libs/libDaisy/src/per/gpio.h **** #pragma once
   2:../../libs/libDaisy/src/per/gpio.h **** #ifndef DSY_GPIO_H
   3:../../libs/libDaisy/src/per/gpio.h **** #define DSY_GPIO_H
   4:../../libs/libDaisy/src/per/gpio.h **** #include "daisy_core.h"
   5:../../libs/libDaisy/src/per/gpio.h **** 
   6:../../libs/libDaisy/src/per/gpio.h **** #ifdef __cplusplus
   7:../../libs/libDaisy/src/per/gpio.h **** 
   8:../../libs/libDaisy/src/per/gpio.h **** namespace daisy
   9:../../libs/libDaisy/src/per/gpio.h **** {
  10:../../libs/libDaisy/src/per/gpio.h **** /** @brief General Purpose I/O control 
  11:../../libs/libDaisy/src/per/gpio.h ****  *  @details peripheral control over a single GPIO
  12:../../libs/libDaisy/src/per/gpio.h ****  *  @ingroup peripheral
  13:../../libs/libDaisy/src/per/gpio.h ****  *   
  14:../../libs/libDaisy/src/per/gpio.h ****  *  Button Input (with internal Pullup resistor)
  15:../../libs/libDaisy/src/per/gpio.h ****  *  @include GPIO_Input.cpp 
  16:../../libs/libDaisy/src/per/gpio.h ****  * 
  17:../../libs/libDaisy/src/per/gpio.h ****  *  Output Example (perfect for blinking an LED)
  18:../../libs/libDaisy/src/per/gpio.h ****  *  @include GPIO_Output.cpp
  19:../../libs/libDaisy/src/per/gpio.h ****  * 
  20:../../libs/libDaisy/src/per/gpio.h **** */
  21:../../libs/libDaisy/src/per/gpio.h **** class GPIO
  22:../../libs/libDaisy/src/per/gpio.h **** {
  23:../../libs/libDaisy/src/per/gpio.h ****   public:
  24:../../libs/libDaisy/src/per/gpio.h ****     /** @brief Mode of operation for the specified GPIO */
  25:../../libs/libDaisy/src/per/gpio.h ****     enum class Mode
  26:../../libs/libDaisy/src/per/gpio.h ****     {
  27:../../libs/libDaisy/src/per/gpio.h ****         INPUT,      /**< Input for reading state of pin */
  28:../../libs/libDaisy/src/per/gpio.h ****         OUTPUT,     /**< Output w/ push-pull configuration */
  29:../../libs/libDaisy/src/per/gpio.h ****         OPEN_DRAIN, /**< Output w/ open-drain configuration */
  30:../../libs/libDaisy/src/per/gpio.h ****         ANALOG,     /**< Analog for connection to ADC or DAC peripheral */
  31:../../libs/libDaisy/src/per/gpio.h ****     };
  32:../../libs/libDaisy/src/per/gpio.h **** 
  33:../../libs/libDaisy/src/per/gpio.h ****     /** @brief Configures whether an internal Pull up or Pull down resistor is used. 
  34:../../libs/libDaisy/src/per/gpio.h ****      *  
  35:../../libs/libDaisy/src/per/gpio.h ****      * Internal Pull up/down resistors are typically 40k ohms, and will be between
  36:../../libs/libDaisy/src/per/gpio.h ****      * 30k and 50k
  37:../../libs/libDaisy/src/per/gpio.h ****      * 
  38:../../libs/libDaisy/src/per/gpio.h ****      * When the Pin is configured in Analog mode, the pull up/down resistors are
  39:../../libs/libDaisy/src/per/gpio.h ****      * disabled by hardware. 
  40:../../libs/libDaisy/src/per/gpio.h ****      */
  41:../../libs/libDaisy/src/per/gpio.h ****     enum class Pull
  42:../../libs/libDaisy/src/per/gpio.h ****     {
  43:../../libs/libDaisy/src/per/gpio.h ****         NOPULL,   /**< No pull up resistor */
  44:../../libs/libDaisy/src/per/gpio.h ****         PULLUP,   /**< Internal pull up enabled */
  45:../../libs/libDaisy/src/per/gpio.h ****         PULLDOWN, /**< Internal pull down enabled*/
  46:../../libs/libDaisy/src/per/gpio.h ****     };
  47:../../libs/libDaisy/src/per/gpio.h **** 
  48:../../libs/libDaisy/src/per/gpio.h ****     /** @brief Output speed controls the drive strength, and slew rate of the pin */
  49:../../libs/libDaisy/src/per/gpio.h ****     enum class Speed
  50:../../libs/libDaisy/src/per/gpio.h ****     {
  51:../../libs/libDaisy/src/per/gpio.h ****         LOW,
  52:../../libs/libDaisy/src/per/gpio.h ****         MEDIUM,
  53:../../libs/libDaisy/src/per/gpio.h ****         HIGH,
ARM GAS  C:\Users\skipi\AppData\Local\Temp\cc2QEVmM.s 			page 69


  54:../../libs/libDaisy/src/per/gpio.h ****         VERY_HIGH,
  55:../../libs/libDaisy/src/per/gpio.h ****     };
  56:../../libs/libDaisy/src/per/gpio.h **** 
  57:../../libs/libDaisy/src/per/gpio.h ****     /** @brief Configuration for a given GPIO */
  58:../../libs/libDaisy/src/per/gpio.h ****     struct Config
  59:../../libs/libDaisy/src/per/gpio.h ****     {
  60:../../libs/libDaisy/src/per/gpio.h ****         Pin   pin;
  61:../../libs/libDaisy/src/per/gpio.h ****         Mode  mode;
  62:../../libs/libDaisy/src/per/gpio.h ****         Pull  pull;
  63:../../libs/libDaisy/src/per/gpio.h ****         Speed speed;
  64:../../libs/libDaisy/src/per/gpio.h **** 
  65:../../libs/libDaisy/src/per/gpio.h ****         /** Constructor with no arguments will prepare an invalid GPIO set as
  66:../../libs/libDaisy/src/per/gpio.h ****          *  an input, with no pullup. 
  67:../../libs/libDaisy/src/per/gpio.h ****          */
  68:../../libs/libDaisy/src/per/gpio.h ****         Config()
  69:../../libs/libDaisy/src/per/gpio.h ****         : pin(), mode(Mode::INPUT), pull(Pull::NOPULL), speed(Speed::LOW)
  70:../../libs/libDaisy/src/per/gpio.h ****         {
  71:../../libs/libDaisy/src/per/gpio.h ****         }
  72:../../libs/libDaisy/src/per/gpio.h ****     };
  73:../../libs/libDaisy/src/per/gpio.h **** 
  74:../../libs/libDaisy/src/per/gpio.h ****     GPIO() {}
 2174              		.loc 15 74 5 is_stmt 1 view .LVU626
 2175              	.LBB537:
 2176              	.LBB538:
 2177              	.LBI538:
  68:../../libs/libDaisy/src/per/gpio.h ****         : pin(), mode(Mode::INPUT), pull(Pull::NOPULL), speed(Speed::LOW)
 2178              		.loc 15 68 9 view .LVU627
 2179              	.LBB539:
 2180              	.LBB540:
 2181              	.LBB541:
 2182              	.LBI541:
 2183              		.loc 13 204 15 view .LVU628
 2184              		.loc 13 204 15 is_stmt 0 view .LVU629
 2185              	.LBE541:
 2186              	.LBE540:
 2187              	.LBE539:
 2188              	.LBE538:
 2189              	.LBE537:
 2190              	.LBE536:
 2191              	.LBB550:
 2192              	.LBI550:
 2193              		.loc 15 74 5 is_stmt 1 view .LVU630
 2194              	.LBB551:
 2195              	.LBB552:
 2196              	.LBI552:
  68:../../libs/libDaisy/src/per/gpio.h ****         : pin(), mode(Mode::INPUT), pull(Pull::NOPULL), speed(Speed::LOW)
 2197              		.loc 15 68 9 view .LVU631
 2198              	.LBB553:
 2199              	.LBB554:
 2200              	.LBB555:
 2201              	.LBI555:
 2202              		.loc 13 204 15 view .LVU632
 2203              		.loc 13 204 15 is_stmt 0 view .LVU633
 2204              	.LBE555:
 2205              	.LBE554:
 2206              	.LBE553:
 2207              	.LBE552:
ARM GAS  C:\Users\skipi\AppData\Local\Temp\cc2QEVmM.s 			page 70


 2208              	.LBE551:
 2209              	.LBE550:
 2210              	.LBB564:
 2211              	.LBI564:
  96:../../libs/libDaisy/src/sys/system.h ****     ~System() {}
 2212              		.loc 3 96 5 is_stmt 1 view .LVU634
  96:../../libs/libDaisy/src/sys/system.h ****     ~System() {}
 2213              		.loc 3 96 5 is_stmt 0 view .LVU635
 2214              	.LBE564:
 2215              	.LBB565:
 2216              	.LBI565:
  20:../../libs/libDaisy/src/dev/codec_ak4556.h ****     ~Ak4556() {}
 2217              		.loc 2 20 5 is_stmt 1 view .LVU636
 2218              	.LBB566:
 2219              	.LBI566:
 2220              		.loc 15 74 5 view .LVU637
 2221              	.LBB567:
 2222              	.LBB568:
 2223              	.LBI568:
  68:../../libs/libDaisy/src/per/gpio.h ****         : pin(), mode(Mode::INPUT), pull(Pull::NOPULL), speed(Speed::LOW)
 2224              		.loc 15 68 9 view .LVU638
 2225              	.LBB569:
 2226              	.LBB570:
 2227              	.LBB571:
 2228              	.LBI571:
 2229              		.loc 13 204 15 view .LVU639
 2230              		.loc 13 204 15 is_stmt 0 view .LVU640
 2231              	.LBE571:
 2232              	.LBE570:
 2233              	.LBE569:
 2234              	.LBE568:
 2235              	.LBE567:
 2236              	.LBE566:
 2237              	.LBE565:
 2238              	.LBB582:
 2239              	.LBI582:
 2240              		.file 16 "../../libs/libDaisy/src/per/sai.h"
   1:../../libs/libDaisy/src/per/sai.h **** #pragma once
   2:../../libs/libDaisy/src/per/sai.h **** #ifndef DSY_SAI_H
   3:../../libs/libDaisy/src/per/sai.h **** #define DSY_SAI_H
   4:../../libs/libDaisy/src/per/sai.h **** 
   5:../../libs/libDaisy/src/per/sai.h **** #include "util/hal_map.h"
   6:../../libs/libDaisy/src/per/sai.h **** #include "daisy_core.h"
   7:../../libs/libDaisy/src/per/sai.h **** 
   8:../../libs/libDaisy/src/per/sai.h **** namespace daisy
   9:../../libs/libDaisy/src/per/sai.h **** {
  10:../../libs/libDaisy/src/per/sai.h **** /** 
  11:../../libs/libDaisy/src/per/sai.h ****  * Support for I2S Audio Protocol with different bit-depth, samplerate options
  12:../../libs/libDaisy/src/per/sai.h ****  * Allows for master or slave, as well as freedom of selecting direction, 
  13:../../libs/libDaisy/src/per/sai.h ****  * and other behavior for each peripheral, and block.
  14:../../libs/libDaisy/src/per/sai.h ****  * 
  15:../../libs/libDaisy/src/per/sai.h ****  * DMA Transfer commands must use buffers located within non-cached memory or use cache maintenance
  16:../../libs/libDaisy/src/per/sai.h ****  * To declare an unitialized global element in the DMA memory section:
  17:../../libs/libDaisy/src/per/sai.h ****  *    int32_t DSY_DMA_BUFFER_SECTOR my_buffer[96];
  18:../../libs/libDaisy/src/per/sai.h ****  *
  19:../../libs/libDaisy/src/per/sai.h ****  * Callback functions will be called once per half of the buffer. In the above example, 
  20:../../libs/libDaisy/src/per/sai.h ****  * the callback function would be called once for every 48 samples.
ARM GAS  C:\Users\skipi\AppData\Local\Temp\cc2QEVmM.s 			page 71


  21:../../libs/libDaisy/src/per/sai.h ****  * 
  22:../../libs/libDaisy/src/per/sai.h ****  * Use SAI Handle like this:
  23:../../libs/libDaisy/src/per/sai.h ****  * 
  24:../../libs/libDaisy/src/per/sai.h ****  *  SaiHandle::Config sai_config;
  25:../../libs/libDaisy/src/per/sai.h ****  *  sai_config.periph          = SaiHandle::Config::Peripheral::SAI_1;
  26:../../libs/libDaisy/src/per/sai.h ****  *  sai_config.sr              = SaiHandle::Config::SampleRate::SAI_48KHZ;
  27:../../libs/libDaisy/src/per/sai.h ****  *  sai_config.bit_depth       = SaiHandle::Config::BitDepth::SAI_24BIT;
  28:../../libs/libDaisy/src/per/sai.h ****  *  sai_config.a_sync          = SaiHandle::Config::Sync::MASTER;
  29:../../libs/libDaisy/src/per/sai.h ****  *  sai_config.b_sync          = SaiHandle::Config::Sync::SLAVE;
  30:../../libs/libDaisy/src/per/sai.h ****  *  sai_config.a_dir           = SaiHandle::Config::Direction::RECEIVE;
  31:../../libs/libDaisy/src/per/sai.h ****  *  sai_config.b_dir           = SaiHandle::Config::Direction::TRANSMIT;
  32:../../libs/libDaisy/src/per/sai.h ****  *  sai_config.pin_config.fs   = {DSY_GPIOE, 4};
  33:../../libs/libDaisy/src/per/sai.h ****  *  sai_config.pin_config.mclk = {DSY_GPIOE, 2};
  34:../../libs/libDaisy/src/per/sai.h ****  *  sai_config.pin_config.sck  = {DSY_GPIOE, 5};
  35:../../libs/libDaisy/src/per/sai.h ****  *  sai_config.pin_config.sa   = {DSY_GPIOE, 6};
  36:../../libs/libDaisy/src/per/sai.h ****  *  sai_config.pin_config.sb   = {DSY_GPIOE, 3};
  37:../../libs/libDaisy/src/per/sai.h ****  *  // Then Initialize
  38:../../libs/libDaisy/src/per/sai.h ****  *  SaiHandle sai;
  39:../../libs/libDaisy/src/per/sai.h ****  *  sai.Init(sai_config);
  40:../../libs/libDaisy/src/per/sai.h ****  *  // Now you can use it:
  41:../../libs/libDaisy/src/per/sai.h ****  *  sai.StartDma(. . .);
  42:../../libs/libDaisy/src/per/sai.h ****  */
  43:../../libs/libDaisy/src/per/sai.h **** class SaiHandle
  44:../../libs/libDaisy/src/per/sai.h **** {
  45:../../libs/libDaisy/src/per/sai.h ****   public:
  46:../../libs/libDaisy/src/per/sai.h ****     /** Contains settings for initialising an SAI Interface */
  47:../../libs/libDaisy/src/per/sai.h ****     struct Config
  48:../../libs/libDaisy/src/per/sai.h ****     {
  49:../../libs/libDaisy/src/per/sai.h ****         /** Specifies the internal peripheral to use (mapped to different hardware pins) */
  50:../../libs/libDaisy/src/per/sai.h ****         enum class Peripheral
  51:../../libs/libDaisy/src/per/sai.h ****         {
  52:../../libs/libDaisy/src/per/sai.h ****             SAI_1,
  53:../../libs/libDaisy/src/per/sai.h ****             SAI_2,
  54:../../libs/libDaisy/src/per/sai.h ****         };
  55:../../libs/libDaisy/src/per/sai.h **** 
  56:../../libs/libDaisy/src/per/sai.h ****         /** Rate at which samples will be streaming to/from the device. */
  57:../../libs/libDaisy/src/per/sai.h ****         enum class SampleRate
  58:../../libs/libDaisy/src/per/sai.h ****         {
  59:../../libs/libDaisy/src/per/sai.h ****             SAI_8KHZ,
  60:../../libs/libDaisy/src/per/sai.h ****             SAI_16KHZ,
  61:../../libs/libDaisy/src/per/sai.h ****             SAI_32KHZ,
  62:../../libs/libDaisy/src/per/sai.h ****             SAI_48KHZ,
  63:../../libs/libDaisy/src/per/sai.h ****             SAI_96KHZ,
  64:../../libs/libDaisy/src/per/sai.h ****         };
  65:../../libs/libDaisy/src/per/sai.h **** 
  66:../../libs/libDaisy/src/per/sai.h ****         /** Bit Depth that the hardware expects to be transferred to/from the device. */
  67:../../libs/libDaisy/src/per/sai.h ****         enum class BitDepth
  68:../../libs/libDaisy/src/per/sai.h ****         {
  69:../../libs/libDaisy/src/per/sai.h ****             SAI_16BIT,
  70:../../libs/libDaisy/src/per/sai.h ****             SAI_24BIT,
  71:../../libs/libDaisy/src/per/sai.h ****             SAI_32BIT,
  72:../../libs/libDaisy/src/per/sai.h ****         };
  73:../../libs/libDaisy/src/per/sai.h **** 
  74:../../libs/libDaisy/src/per/sai.h ****         /** Specifies whether a particular block is the master or the slave 
  75:../../libs/libDaisy/src/per/sai.h ****          ** If both are set to slave, no MCLK signal will be used, and it is
  76:../../libs/libDaisy/src/per/sai.h ****          ** expected that the codec will have its own xtal.
  77:../../libs/libDaisy/src/per/sai.h ****          */
ARM GAS  C:\Users\skipi\AppData\Local\Temp\cc2QEVmM.s 			page 72


  78:../../libs/libDaisy/src/per/sai.h ****         enum class Sync
  79:../../libs/libDaisy/src/per/sai.h ****         {
  80:../../libs/libDaisy/src/per/sai.h ****             MASTER,
  81:../../libs/libDaisy/src/per/sai.h ****             SLAVE,
  82:../../libs/libDaisy/src/per/sai.h ****         };
  83:../../libs/libDaisy/src/per/sai.h **** 
  84:../../libs/libDaisy/src/per/sai.h ****         /** Specifies the direction for each peripheral block. */
  85:../../libs/libDaisy/src/per/sai.h ****         enum class Direction
  86:../../libs/libDaisy/src/per/sai.h ****         {
  87:../../libs/libDaisy/src/per/sai.h ****             TRANSMIT,
  88:../../libs/libDaisy/src/per/sai.h ****             RECEIVE,
  89:../../libs/libDaisy/src/per/sai.h ****         };
  90:../../libs/libDaisy/src/per/sai.h **** 
  91:../../libs/libDaisy/src/per/sai.h ****         Peripheral periph;
  92:../../libs/libDaisy/src/per/sai.h ****         struct
  93:../../libs/libDaisy/src/per/sai.h ****         {
  94:../../libs/libDaisy/src/per/sai.h ****             Pin mclk, fs, sck, sa, sb;
  95:../../libs/libDaisy/src/per/sai.h ****         } pin_config;
  96:../../libs/libDaisy/src/per/sai.h ****         SampleRate sr;
  97:../../libs/libDaisy/src/per/sai.h ****         BitDepth   bit_depth;
  98:../../libs/libDaisy/src/per/sai.h ****         Sync       a_sync, b_sync;
  99:../../libs/libDaisy/src/per/sai.h ****         Direction  a_dir, b_dir;
 100:../../libs/libDaisy/src/per/sai.h ****     };
 101:../../libs/libDaisy/src/per/sai.h **** 
 102:../../libs/libDaisy/src/per/sai.h ****     /** Return values for SAI functions */
 103:../../libs/libDaisy/src/per/sai.h ****     enum class Result
 104:../../libs/libDaisy/src/per/sai.h ****     {
 105:../../libs/libDaisy/src/per/sai.h ****         OK,
 106:../../libs/libDaisy/src/per/sai.h ****         ERR,
 107:../../libs/libDaisy/src/per/sai.h ****     };
 108:../../libs/libDaisy/src/per/sai.h **** 
 109:../../libs/libDaisy/src/per/sai.h ****     SaiHandle() : pimpl_(nullptr) {}
 2241              		.loc 16 109 5 is_stmt 1 view .LVU641
 2242              	.LBE582:
 2243              	.LBE516:
 2244              	.LBE515:
 2245              	.LBE514:
 2246              	.LBE513:
 2247              		.loc 11 337 1 is_stmt 0 view .LVU642
 2248 0000 70B5     		push	{r4, r5, r6, lr}
 2249              		.cfi_def_cfa_offset 16
 2250              		.cfi_offset 4, -16
 2251              		.cfi_offset 5, -12
 2252              		.cfi_offset 6, -8
 2253              		.cfi_offset 14, -4
 2254              	.LBB678:
 2255              	.LBB676:
 2256              	.LBB598:
 2257              	.LBB595:
 2258              	.LBB585:
 2259              	.LBB518:
 2260              	.LBB519:
 2261              		.loc 12 167 34 view .LVU643
 2262 0002 7348     		ldr	r0, .L53
 2263 0004 0023     		movs	r3, #0
 2264              	.LBE519:
 2265              	.LBE518:
ARM GAS  C:\Users\skipi\AppData\Local\Temp\cc2QEVmM.s 			page 73


 2266              	.LBE585:
  21:../../libs/libDaisy/src/daisy_seed.h ****     ~DaisySeed() {}
 2267              		.loc 1 21 17 view .LVU644
 2268 0006 4FF60B71 		movw	r1, #65291
 2269 000a 6FF0F414 		mvn	r4, #15991028
 2270              	.LBE595:
 2271              	.LBE598:
  15:mainPot.cpp   **** AdcChannelConfig adcConfig[ADC_CH]; // Array di configurazione per 3 canali ADC
 2272              		.loc 11 15 18 view .LVU645
 2273 000e 714A     		ldr	r2, .L53+4
 2274              	.LBB599:
 2275              	.LBB596:
  21:../../libs/libDaisy/src/daisy_seed.h ****     ~DaisySeed() {}
 2276              		.loc 1 21 17 view .LVU646
 2277 0010 8165     		str	r1, [r0, #88]
 2278              	.LBB586:
 2279              	.LBB529:
 2280              	.LBB530:
  87:../../libs/libDaisy/src/hid/audio.h ****     ~AudioHandle() {}
 2281              		.loc 6 87 35 view .LVU647
 2282 0012 4361     		str	r3, [r0, #20]
 2283              	.LBE530:
 2284              	.LBE529:
 2285              	.LBE586:
 2286              	.LBB587:
 2287              	.LBB533:
 2288              	.LBB534:
 2289              		.loc 14 84 33 view .LVU648
 2290 0014 0362     		str	r3, [r0, #32]
 2291              	.LBE534:
 2292              	.LBE533:
 2293              	.LBE587:
 2294              	.LBB588:
 2295              	.LBB580:
 2296              	.LBB578:
 2297              	.LBB576:
 2298              	.LBB574:
 2299              	.LBB572:
  69:../../libs/libDaisy/src/per/gpio.h ****         {
 2300              		.loc 15 69 73 view .LVU649
 2301 0016 4366     		str	r3, [r0, #100]
 2302              	.LBE572:
 2303              	.LBE574:
 2304              	.LBE576:
 2305              	.LBE578:
 2306              	.LBE580:
 2307              	.LBE588:
 2308              	.LBB589:
 2309              	.LBB583:
 2310              	.LBB584:
 2311              		.loc 16 109 33 view .LVU650
 2312 0018 0367     		str	r3, [r0, #112]
 2313              	.LVL196:
 2314              		.loc 16 109 33 view .LVU651
 2315              	.LBE584:
 2316              	.LBE583:
 2317              	.LBE589:
ARM GAS  C:\Users\skipi\AppData\Local\Temp\cc2QEVmM.s 			page 74


 2318              	.LBB590:
 2319              	.LBB548:
 2320              	.LBB546:
 2321              	.LBB544:
 2322              	.LBB542:
  69:../../libs/libDaisy/src/per/gpio.h ****         {
 2323              		.loc 15 69 73 view .LVU652
 2324 001a C0E90A13 		strd	r1, r3, [r0, #40]
 2325              	.LBE542:
 2326              	.LBE544:
 2327              	.LBE546:
 2328              	.LBE548:
 2329              	.LBE590:
 2330              	.LBB591:
 2331              	.LBB562:
 2332              	.LBB560:
 2333              	.LBB558:
 2334              	.LBB556:
 2335 001e C0E90F13 		strd	r1, r3, [r0, #60]
 2336              	.LBE556:
 2337              	.LBE558:
 2338              	.LBE560:
 2339              	.LBE562:
 2340              	.LBE591:
  21:../../libs/libDaisy/src/daisy_seed.h ****     ~DaisySeed() {}
 2341              		.loc 1 21 17 view .LVU653
 2342 0022 C0E90034 		strd	r3, r4, [r0]
 2343              	.LBE596:
 2344              	.LBE599:
  15:mainPot.cpp   **** AdcChannelConfig adcConfig[ADC_CH]; // Array di configurazione per 3 canali ADC
 2345              		.loc 11 15 18 view .LVU654
 2346 0026 6C49     		ldr	r1, .L53+8
 2347              	.LBB600:
 2348              	.LBB597:
  21:../../libs/libDaisy/src/daisy_seed.h ****     ~DaisySeed() {}
 2349              		.loc 1 21 17 view .LVU655
 2350 0028 C0E90244 		strd	r4, r4, [r0, #8]
 2351              	.LBB592:
 2352              	.LBB549:
 2353              	.LBB547:
 2354              	.LBB545:
 2355              	.LBB543:
  69:../../libs/libDaisy/src/per/gpio.h ****         {
 2356              		.loc 15 69 73 view .LVU656
 2357 002c C0E90C33 		strd	r3, r3, [r0, #48]
 2358              	.LBE543:
 2359              	.LBE545:
 2360              	.LBE547:
 2361              	.LBE549:
 2362              	.LBE592:
 2363              	.LBB593:
 2364              	.LBB563:
 2365              	.LBB561:
 2366              	.LBB559:
 2367              	.LBB557:
 2368 0030 C0E91133 		strd	r3, r3, [r0, #68]
 2369              	.LBE557:
ARM GAS  C:\Users\skipi\AppData\Local\Temp\cc2QEVmM.s 			page 75


 2370              	.LBE559:
 2371              	.LBE561:
 2372              	.LBE563:
 2373              	.LBE593:
 2374              	.LBB594:
 2375              	.LBB581:
 2376              	.LBB579:
 2377              	.LBB577:
 2378              	.LBB575:
 2379              	.LBB573:
 2380 0034 C0E91733 		strd	r3, r3, [r0, #92]
 2381              	.LBE573:
 2382              	.LBE575:
 2383              	.LBE577:
 2384              	.LBE579:
 2385              	.LBE581:
 2386              	.LBE594:
 2387              	.LBE597:
 2388              	.LBE600:
  15:mainPot.cpp   **** AdcChannelConfig adcConfig[ADC_CH]; // Array di configurazione per 3 canali ADC
 2389              		.loc 11 15 18 view .LVU657
 2390 0038 FFF7FEFF 		bl	__aeabi_atexit
 2391              	.LVL197:
  16:mainPot.cpp   **** static Metro      tick1, tick2, tick3; // Metronome objects for timing
 2392              		.loc 11 16 34 is_stmt 1 view .LVU658
 2393 003c 674A     		ldr	r2, .L53+12
 2394 003e 02F5FC75 		add	r5, r2, #504
 2395              	.L49:
 2396              	.LVL198:
 2397              	.LBB601:
 2398              	.LBI601:
  31:../../libs/libDaisy/src/per/adc.h **** {
 2399              		.loc 5 31 8 view .LVU659
 2400              	.LBB602:
 2401              	.LBB603:
 2402              	.LBI603:
 2403              		.loc 15 74 5 view .LVU660
 2404              	.LBB604:
