ARM GAS  C:\Users\skipi\AppData\Local\Temp\cc6PZCfi.s 			page 1


   1              		.cpu cortex-m7
   2              		.eabi_attribute 28, 1
   3              		.eabi_attribute 20, 1
   4              		.eabi_attribute 21, 1
   5              		.eabi_attribute 23, 3
   6              		.eabi_attribute 24, 1
   7              		.eabi_attribute 25, 1
   8              		.eabi_attribute 26, 1
   9              		.eabi_attribute 30, 2
  10              		.eabi_attribute 34, 1
  11              		.eabi_attribute 18, 4
  12              		.file	"PianoB.cpp"
  13              		.text
  14              	.Ltext0:
  15              		.cfi_sections	.debug_frame
  16              		.section	.text._ZN5daisy9DaisySeedD2Ev,"axG",%progbits,_ZN5daisy9DaisySeedD5Ev,comdat
  17              		.align	1
  18              		.p2align 2,,3
  19              		.weak	_ZN5daisy9DaisySeedD2Ev
  20              		.arch armv7e-m
  21              		.syntax unified
  22              		.thumb
  23              		.thumb_func
  24              		.fpu fpv5-d16
  26              	_ZN5daisy9DaisySeedD2Ev:
  27              	.LVL0:
  28              	.LFB2645:
  29              		.file 1 "../libs/libDaisy/src/daisy_seed.h"
   1:../libs/libDaisy/src/daisy_seed.h **** #pragma once
   2:../libs/libDaisy/src/daisy_seed.h **** #ifndef DSY_SEED_H
   3:../libs/libDaisy/src/daisy_seed.h **** #define DSY_SEED_H
   4:../libs/libDaisy/src/daisy_seed.h **** 
   5:../libs/libDaisy/src/daisy_seed.h **** #include "daisy.h"
   6:../libs/libDaisy/src/daisy_seed.h **** 
   7:../libs/libDaisy/src/daisy_seed.h **** //Uncomment this out if you're still using the rev2 hardware
   8:../libs/libDaisy/src/daisy_seed.h **** //#define SEED_REV2
   9:../libs/libDaisy/src/daisy_seed.h **** 
  10:../libs/libDaisy/src/daisy_seed.h **** namespace daisy
  11:../libs/libDaisy/src/daisy_seed.h **** {
  12:../libs/libDaisy/src/daisy_seed.h **** /**
  13:../libs/libDaisy/src/daisy_seed.h ****    @brief This is the higher-level interface for the Daisy board. \n 
  14:../libs/libDaisy/src/daisy_seed.h ****     All basic peripheral configuration/initialization is setup here. \n
  15:../libs/libDaisy/src/daisy_seed.h **** 
  16:../libs/libDaisy/src/daisy_seed.h ****    @ingroup boards
  17:../libs/libDaisy/src/daisy_seed.h **** */
  18:../libs/libDaisy/src/daisy_seed.h **** class DaisySeed
  19:../libs/libDaisy/src/daisy_seed.h **** {
  20:../libs/libDaisy/src/daisy_seed.h ****   public:
  21:../libs/libDaisy/src/daisy_seed.h ****     DaisySeed() {}
  22:../libs/libDaisy/src/daisy_seed.h ****     ~DaisySeed() {}
  30              		.loc 1 22 5 view -0
  31              		.cfi_startproc
  32              		@ args = 0, pretend = 0, frame = 0
  33              		@ frame_needed = 0, uses_anonymous_args = 0
  34              		@ link register save eliminated.
  35              	.LBB478:
  36              	.LBI478:
ARM GAS  C:\Users\skipi\AppData\Local\Temp\cc6PZCfi.s 			page 2


  37              		.file 2 "../libs/libDaisy/src/dev/codec_ak4556.h"
   1:../libs/libDaisy/src/dev/codec_ak4556.h **** #pragma once
   2:../libs/libDaisy/src/dev/codec_ak4556.h **** #ifndef DSY_CODEC_AK4556_H
   3:../libs/libDaisy/src/dev/codec_ak4556.h **** #define DSY_CODEC_AK4556_H
   4:../libs/libDaisy/src/dev/codec_ak4556.h **** 
   5:../libs/libDaisy/src/dev/codec_ak4556.h **** #include "daisy_core.h"
   6:../libs/libDaisy/src/dev/codec_ak4556.h **** #include "per/gpio.h"
   7:../libs/libDaisy/src/dev/codec_ak4556.h **** 
   8:../libs/libDaisy/src/dev/codec_ak4556.h **** namespace daisy
   9:../libs/libDaisy/src/dev/codec_ak4556.h **** {
  10:../libs/libDaisy/src/dev/codec_ak4556.h **** /** @brief Ak4556 Codec support 
  11:../libs/libDaisy/src/dev/codec_ak4556.h ****  ** @author shensley
  12:../libs/libDaisy/src/dev/codec_ak4556.h ****  ** @addtogroup codec
  13:../libs/libDaisy/src/dev/codec_ak4556.h ****  ** 
  14:../libs/libDaisy/src/dev/codec_ak4556.h ****  ** I don't see any real reason to have this be more than a function, but in case we want
  15:../libs/libDaisy/src/dev/codec_ak4556.h ****  ** to add other functions down the road I wrapped the function in a class.
  16:../libs/libDaisy/src/dev/codec_ak4556.h ****  ***/
  17:../libs/libDaisy/src/dev/codec_ak4556.h **** class Ak4556
  18:../libs/libDaisy/src/dev/codec_ak4556.h **** {
  19:../libs/libDaisy/src/dev/codec_ak4556.h ****   public:
  20:../libs/libDaisy/src/dev/codec_ak4556.h ****     Ak4556() {}
  21:../libs/libDaisy/src/dev/codec_ak4556.h ****     ~Ak4556() {}
  38              		.loc 2 21 5 view .LVU1
  39              		.loc 2 21 5 is_stmt 0 view .LVU2
  40              	.LBE478:
  41              	.LBB479:
  42              	.LBI479:
  43              		.file 3 "../libs/libDaisy/src/sys/system.h"
   1:../libs/libDaisy/src/sys/system.h **** #ifndef DSY_SYSTEM_H
   2:../libs/libDaisy/src/sys/system.h **** #define DSY_SYSTEM_H
   3:../libs/libDaisy/src/sys/system.h **** 
   4:../libs/libDaisy/src/sys/system.h **** #ifndef UNIT_TEST // for unit tests, a dummy implementation is provided below
   5:../libs/libDaisy/src/sys/system.h **** 
   6:../libs/libDaisy/src/sys/system.h **** #include <cstdint>
   7:../libs/libDaisy/src/sys/system.h **** #include "per/tim.h"
   8:../libs/libDaisy/src/sys/system.h **** 
   9:../libs/libDaisy/src/sys/system.h **** namespace daisy
  10:../libs/libDaisy/src/sys/system.h **** {
  11:../libs/libDaisy/src/sys/system.h **** /** A handle for interacting with the Core System.
  12:../libs/libDaisy/src/sys/system.h ****  ** This includes the Clock tree, MPU, global DMA initialization,
  13:../libs/libDaisy/src/sys/system.h ****  ** cache handling, and any other necessary global initiailzation
  14:../libs/libDaisy/src/sys/system.h ****  **
  15:../libs/libDaisy/src/sys/system.h ****  ** @author shensley
  16:../libs/libDaisy/src/sys/system.h ****  ** @ingroup system
  17:../libs/libDaisy/src/sys/system.h ****  */
  18:../libs/libDaisy/src/sys/system.h **** class System
  19:../libs/libDaisy/src/sys/system.h **** {
  20:../libs/libDaisy/src/sys/system.h ****   public:
  21:../libs/libDaisy/src/sys/system.h ****     /** Contains settings for initializing the System */
  22:../libs/libDaisy/src/sys/system.h ****     struct Config
  23:../libs/libDaisy/src/sys/system.h ****     {
  24:../libs/libDaisy/src/sys/system.h ****         /** Specifies the system clock frequency that feeds APB/AHB clocks, etc. */
  25:../libs/libDaisy/src/sys/system.h ****         enum class SysClkFreq
  26:../libs/libDaisy/src/sys/system.h ****         {
  27:../libs/libDaisy/src/sys/system.h ****             FREQ_400MHZ,
  28:../libs/libDaisy/src/sys/system.h ****             FREQ_480MHZ,
  29:../libs/libDaisy/src/sys/system.h ****         };
ARM GAS  C:\Users\skipi\AppData\Local\Temp\cc6PZCfi.s 			page 3


  30:../libs/libDaisy/src/sys/system.h **** 
  31:../libs/libDaisy/src/sys/system.h ****         /** Method to call on the struct to set to defaults
  32:../libs/libDaisy/src/sys/system.h ****          ** CPU Freq set to 400MHz
  33:../libs/libDaisy/src/sys/system.h ****          ** Cache Enabled
  34:../libs/libDaisy/src/sys/system.h ****          ** */
  35:../libs/libDaisy/src/sys/system.h ****         void Defaults()
  36:../libs/libDaisy/src/sys/system.h ****         {
  37:../libs/libDaisy/src/sys/system.h ****             cpu_freq    = SysClkFreq::FREQ_400MHZ;
  38:../libs/libDaisy/src/sys/system.h ****             use_dcache  = true;
  39:../libs/libDaisy/src/sys/system.h ****             use_icache  = true;
  40:../libs/libDaisy/src/sys/system.h ****             skip_clocks = false;
  41:../libs/libDaisy/src/sys/system.h ****         }
  42:../libs/libDaisy/src/sys/system.h **** 
  43:../libs/libDaisy/src/sys/system.h ****         /** Method to call on the struct to set to boost mode:
  44:../libs/libDaisy/src/sys/system.h ****          ** CPU Freq set to 480MHz
  45:../libs/libDaisy/src/sys/system.h ****          ** Cache Enabled
  46:../libs/libDaisy/src/sys/system.h ****          ** */
  47:../libs/libDaisy/src/sys/system.h ****         void Boost()
  48:../libs/libDaisy/src/sys/system.h ****         {
  49:../libs/libDaisy/src/sys/system.h ****             cpu_freq    = SysClkFreq::FREQ_480MHZ;
  50:../libs/libDaisy/src/sys/system.h ****             use_dcache  = true;
  51:../libs/libDaisy/src/sys/system.h ****             use_icache  = true;
  52:../libs/libDaisy/src/sys/system.h ****             skip_clocks = false;
  53:../libs/libDaisy/src/sys/system.h ****         }
  54:../libs/libDaisy/src/sys/system.h **** 
  55:../libs/libDaisy/src/sys/system.h ****         SysClkFreq cpu_freq;
  56:../libs/libDaisy/src/sys/system.h ****         bool       use_dcache;
  57:../libs/libDaisy/src/sys/system.h ****         bool       use_icache;
  58:../libs/libDaisy/src/sys/system.h ****         bool       skip_clocks;
  59:../libs/libDaisy/src/sys/system.h ****     };
  60:../libs/libDaisy/src/sys/system.h **** 
  61:../libs/libDaisy/src/sys/system.h ****     /** Describes the different regions of memory available to the Daisy */
  62:../libs/libDaisy/src/sys/system.h ****     enum MemoryRegion
  63:../libs/libDaisy/src/sys/system.h ****     {
  64:../libs/libDaisy/src/sys/system.h ****         INTERNAL_FLASH = 0,
  65:../libs/libDaisy/src/sys/system.h ****         ITCMRAM,
  66:../libs/libDaisy/src/sys/system.h ****         DTCMRAM,
  67:../libs/libDaisy/src/sys/system.h ****         SRAM_D1,
  68:../libs/libDaisy/src/sys/system.h ****         SRAM_D2,
  69:../libs/libDaisy/src/sys/system.h ****         SRAM_D3,
  70:../libs/libDaisy/src/sys/system.h ****         SDRAM,
  71:../libs/libDaisy/src/sys/system.h ****         QSPI,
  72:../libs/libDaisy/src/sys/system.h ****         INVALID_ADDRESS,
  73:../libs/libDaisy/src/sys/system.h ****     };
  74:../libs/libDaisy/src/sys/system.h **** 
  75:../libs/libDaisy/src/sys/system.h ****     /** Bootloader struct for controlling bootloading parameters */
  76:../libs/libDaisy/src/sys/system.h ****     struct BootInfo
  77:../libs/libDaisy/src/sys/system.h ****     {
  78:../libs/libDaisy/src/sys/system.h ****         enum class Type : uint32_t
  79:../libs/libDaisy/src/sys/system.h ****         {
  80:../libs/libDaisy/src/sys/system.h ****             INVALID      = 0x00000000,
  81:../libs/libDaisy/src/sys/system.h ****             JUMP         = 0xDEADBEEF,
  82:../libs/libDaisy/src/sys/system.h ****             SKIP_TIMEOUT = 0x5AFEB007,
  83:../libs/libDaisy/src/sys/system.h ****             INF_TIMEOUT  = 0xB0074EFA,
  84:../libs/libDaisy/src/sys/system.h ****         } status;
  85:../libs/libDaisy/src/sys/system.h ****         uint32_t data;
  86:../libs/libDaisy/src/sys/system.h ****         enum class Version : uint32_t
ARM GAS  C:\Users\skipi\AppData\Local\Temp\cc6PZCfi.s 			page 4


  87:../libs/libDaisy/src/sys/system.h ****         {
  88:../libs/libDaisy/src/sys/system.h ****             LT_v6_0 = 0, // Less than v6.0
  89:../libs/libDaisy/src/sys/system.h ****             NONE,        // No bootloader present
  90:../libs/libDaisy/src/sys/system.h ****             v6_0,        // v6.0
  91:../libs/libDaisy/src/sys/system.h ****             v6_1,        // v6.1 or greater
  92:../libs/libDaisy/src/sys/system.h ****             LAST
  93:../libs/libDaisy/src/sys/system.h ****         } version;
  94:../libs/libDaisy/src/sys/system.h ****     };
  95:../libs/libDaisy/src/sys/system.h **** 
  96:../libs/libDaisy/src/sys/system.h ****     System() {}
  97:../libs/libDaisy/src/sys/system.h ****     ~System() {}
  44              		.loc 3 97 5 is_stmt 1 view .LVU3
  45              		.loc 3 97 5 is_stmt 0 view .LVU4
  46              	.LBE479:
  47              	.LBB480:
  48              	.LBI480:
  49              		.file 4 "../libs/libDaisy/src/hid/usb.h"
   1:../libs/libDaisy/src/hid/usb.h **** #pragma once
   2:../libs/libDaisy/src/hid/usb.h **** #ifndef DSY_HID_USB_H
   3:../libs/libDaisy/src/hid/usb.h **** #define DSY_HID_USB_H
   4:../libs/libDaisy/src/hid/usb.h **** #include <stdint.h>
   5:../libs/libDaisy/src/hid/usb.h **** #include <stdlib.h>
   6:../libs/libDaisy/src/hid/usb.h **** 
   7:../libs/libDaisy/src/hid/usb.h **** namespace daisy
   8:../libs/libDaisy/src/hid/usb.h **** /** @addtogroup human_interface
   9:../libs/libDaisy/src/hid/usb.h ****     @{
  10:../libs/libDaisy/src/hid/usb.h **** */
  11:../libs/libDaisy/src/hid/usb.h **** 
  12:../libs/libDaisy/src/hid/usb.h **** {
  13:../libs/libDaisy/src/hid/usb.h **** /** 
  14:../libs/libDaisy/src/hid/usb.h ****     @brief Interface for initializing and using the USB Peripherals on the daisy
  15:../libs/libDaisy/src/hid/usb.h ****     @author Stephen Hensley
  16:../libs/libDaisy/src/hid/usb.h ****     @date December 2019
  17:../libs/libDaisy/src/hid/usb.h **** */
  18:../libs/libDaisy/src/hid/usb.h **** class UsbHandle
  19:../libs/libDaisy/src/hid/usb.h **** {
  20:../libs/libDaisy/src/hid/usb.h ****   public:
  21:../libs/libDaisy/src/hid/usb.h ****     /** Return values for USBHandle Functions */
  22:../libs/libDaisy/src/hid/usb.h ****     enum class Result
  23:../libs/libDaisy/src/hid/usb.h ****     {
  24:../libs/libDaisy/src/hid/usb.h ****         OK,
  25:../libs/libDaisy/src/hid/usb.h ****         ERR,
  26:../libs/libDaisy/src/hid/usb.h ****     };
  27:../libs/libDaisy/src/hid/usb.h **** 
  28:../libs/libDaisy/src/hid/usb.h ****     /** Specified which of the two USB Peripherals to initialize. */
  29:../libs/libDaisy/src/hid/usb.h ****     enum UsbPeriph
  30:../libs/libDaisy/src/hid/usb.h ****     {
  31:../libs/libDaisy/src/hid/usb.h ****         FS_INTERNAL, /**< Internal pin */
  32:../libs/libDaisy/src/hid/usb.h ****         FS_EXTERNAL, /**< FS External D+ pin is Pin 38 (GPIO32). FS External D- pin is Pin 37 (GPIO
  33:../libs/libDaisy/src/hid/usb.h ****         FS_BOTH,     /**< Both */
  34:../libs/libDaisy/src/hid/usb.h ****     };
  35:../libs/libDaisy/src/hid/usb.h **** 
  36:../libs/libDaisy/src/hid/usb.h **** 
  37:../libs/libDaisy/src/hid/usb.h ****     /** Function called upon reception of a buffer */
  38:../libs/libDaisy/src/hid/usb.h ****     typedef void (*ReceiveCallback)(uint8_t* buff, uint32_t* len);
  39:../libs/libDaisy/src/hid/usb.h **** 
  40:../libs/libDaisy/src/hid/usb.h ****     UsbHandle() {}
ARM GAS  C:\Users\skipi\AppData\Local\Temp\cc6PZCfi.s 			page 5


  41:../libs/libDaisy/src/hid/usb.h **** 
  42:../libs/libDaisy/src/hid/usb.h ****     ~UsbHandle() {}
  50              		.loc 4 42 5 is_stmt 1 view .LVU5
  51              		.loc 4 42 5 is_stmt 0 view .LVU6
  52              	.LBE480:
  53              	.LBB481:
  54              	.LBI481:
  55              		.file 5 "../libs/libDaisy/src/per/adc.h"
   1:../libs/libDaisy/src/per/adc.h **** #pragma once
   2:../libs/libDaisy/src/per/adc.h **** #ifndef DSY_ADC_H
   3:../libs/libDaisy/src/per/adc.h **** #define DSY_ADC_H /**< Macro */
   4:../libs/libDaisy/src/per/adc.h **** #include <stdint.h>
   5:../libs/libDaisy/src/per/adc.h **** #include <stdlib.h>
   6:../libs/libDaisy/src/per/adc.h **** #include "daisy_core.h"
   7:../libs/libDaisy/src/per/adc.h **** #include "per/gpio.h"
   8:../libs/libDaisy/src/per/adc.h **** 
   9:../libs/libDaisy/src/per/adc.h **** #define DSY_ADC_MAX_CHANNELS 16 /**< Maximum number of ADC channels */
  10:../libs/libDaisy/src/per/adc.h **** 
  11:../libs/libDaisy/src/per/adc.h **** namespace daisy
  12:../libs/libDaisy/src/per/adc.h **** {
  13:../libs/libDaisy/src/per/adc.h **** /** @addtogroup per_analog
  14:../libs/libDaisy/src/per/adc.h ****     @{
  15:../libs/libDaisy/src/per/adc.h **** */
  16:../libs/libDaisy/src/per/adc.h **** 
  17:../libs/libDaisy/src/per/adc.h **** /* While there may not be many configuration options here,
  18:../libs/libDaisy/src/per/adc.h **** using a struct like this allows us to add more configuration
  19:../libs/libDaisy/src/per/adc.h **** later without breaking existing functionality.
  20:../libs/libDaisy/src/per/adc.h **** */
  21:../libs/libDaisy/src/per/adc.h **** 
  22:../libs/libDaisy/src/per/adc.h **** /** @brief   Configuration Structure for an ADC Channel 
  23:../libs/libDaisy/src/per/adc.h ****  *  @details This can be used to configure a a single input, 
  24:../libs/libDaisy/src/per/adc.h ****  *           or a multiplexed input, allowing up to 8 inputs on 
  25:../libs/libDaisy/src/per/adc.h ****  *           one channel.
  26:../libs/libDaisy/src/per/adc.h ****  *  @note    Sharing data lines to multiple muxes _is_ possible, but
  27:../libs/libDaisy/src/per/adc.h ****  *           each channel sharing data lines must be set to the maximum
  28:../libs/libDaisy/src/per/adc.h ****  *           number of channels, even if some multiplexers have fewer
  29:../libs/libDaisy/src/per/adc.h ****  *           inputs connected.
  30:../libs/libDaisy/src/per/adc.h **** */
  31:../libs/libDaisy/src/per/adc.h **** struct AdcChannelConfig
  32:../libs/libDaisy/src/per/adc.h **** {
  33:../libs/libDaisy/src/per/adc.h ****     /** Which pin to use for multiplexing */
  34:../libs/libDaisy/src/per/adc.h ****     enum MuxPin
  35:../libs/libDaisy/src/per/adc.h ****     {
  36:../libs/libDaisy/src/per/adc.h ****         MUX_SEL_0,    /**< & */
  37:../libs/libDaisy/src/per/adc.h ****         MUX_SEL_1,    /**< & */
  38:../libs/libDaisy/src/per/adc.h ****         MUX_SEL_2,    /**< & */
  39:../libs/libDaisy/src/per/adc.h ****         MUX_SEL_LAST, /**< & */
  40:../libs/libDaisy/src/per/adc.h ****     };
  41:../libs/libDaisy/src/per/adc.h **** 
  42:../libs/libDaisy/src/per/adc.h ****     /** \brief per channel conversion speed added to fixed time based on bitdepth, etc. */
  43:../libs/libDaisy/src/per/adc.h ****     enum ConversionSpeed
  44:../libs/libDaisy/src/per/adc.h ****     {
  45:../libs/libDaisy/src/per/adc.h ****         SPEED_1CYCLES_5,
  46:../libs/libDaisy/src/per/adc.h ****         SPEED_2CYCLES_5,
  47:../libs/libDaisy/src/per/adc.h ****         SPEED_8CYCLES_5,
  48:../libs/libDaisy/src/per/adc.h ****         SPEED_16CYCLES_5,
  49:../libs/libDaisy/src/per/adc.h ****         SPEED_32CYCLES_5,
ARM GAS  C:\Users\skipi\AppData\Local\Temp\cc6PZCfi.s 			page 6


  50:../libs/libDaisy/src/per/adc.h ****         SPEED_64CYCLES_5,
  51:../libs/libDaisy/src/per/adc.h ****         SPEED_387CYCLES_5,
  52:../libs/libDaisy/src/per/adc.h ****         SPEED_810CYCLES_5,
  53:../libs/libDaisy/src/per/adc.h ****     };
  54:../libs/libDaisy/src/per/adc.h **** 
  55:../libs/libDaisy/src/per/adc.h ****     /** Initializes a single ADC pin as an ADC. 
  56:../libs/libDaisy/src/per/adc.h ****     \param pin Pin to init.
  57:../libs/libDaisy/src/per/adc.h ****     \param speed conversion speed for this pin defaults to 8.5 cycles
  58:../libs/libDaisy/src/per/adc.h ****      */
  59:../libs/libDaisy/src/per/adc.h ****     void InitSingle(Pin pin, ConversionSpeed speed = SPEED_8CYCLES_5);
  60:../libs/libDaisy/src/per/adc.h **** 
  61:../libs/libDaisy/src/per/adc.h ****     /** 
  62:../libs/libDaisy/src/per/adc.h ****     Initializes a single ADC pin as a Multiplexed ADC.
  63:../libs/libDaisy/src/per/adc.h ****     Requires a CD405X Multiplexer connected to the pin.
  64:../libs/libDaisy/src/per/adc.h ****     You only need to supply the mux pins that are required,
  65:../libs/libDaisy/src/per/adc.h ****     e.g. a 4052 mux would only require mux_0 and mux_1.
  66:../libs/libDaisy/src/per/adc.h ****     Internal Callbacks handle the pin addressing.
  67:../libs/libDaisy/src/per/adc.h ****     \param adc_pin &
  68:../libs/libDaisy/src/per/adc.h ****     \param mux_channels must be 1-8
  69:../libs/libDaisy/src/per/adc.h ****     \param mux_0 First mux pin
  70:../libs/libDaisy/src/per/adc.h ****     \param mux_1 Second mux pin
  71:../libs/libDaisy/src/per/adc.h ****     \param mux_2 Third mux pin
  72:../libs/libDaisy/src/per/adc.h ****     \param speed conversion speed for this pin defaults to 8.5 cycles
  73:../libs/libDaisy/src/per/adc.h ****     */
  74:../libs/libDaisy/src/per/adc.h ****     void InitMux(Pin             adc_pin,
  75:../libs/libDaisy/src/per/adc.h ****                  size_t          mux_channels,
  76:../libs/libDaisy/src/per/adc.h ****                  Pin             mux_0,
  77:../libs/libDaisy/src/per/adc.h ****                  Pin             mux_1 = Pin(PORTX, 0),
  78:../libs/libDaisy/src/per/adc.h ****                  Pin             mux_2 = Pin(PORTX, 0),
  79:../libs/libDaisy/src/per/adc.h ****                  ConversionSpeed speed = SPEED_8CYCLES_5);
  80:../libs/libDaisy/src/per/adc.h **** 
  81:../libs/libDaisy/src/per/adc.h ****     GPIO            pin_;                   /**< & */
  82:../libs/libDaisy/src/per/adc.h ****     GPIO            mux_pin_[MUX_SEL_LAST]; /**< & */
  83:../libs/libDaisy/src/per/adc.h ****     uint8_t         mux_channels_;          /**< & */
  84:../libs/libDaisy/src/per/adc.h ****     ConversionSpeed speed_;
  85:../libs/libDaisy/src/per/adc.h **** };
  86:../libs/libDaisy/src/per/adc.h **** 
  87:../libs/libDaisy/src/per/adc.h **** /**
  88:../libs/libDaisy/src/per/adc.h ****    @brief Handler for analog to digital conversion
  89:../libs/libDaisy/src/per/adc.h **** */
  90:../libs/libDaisy/src/per/adc.h **** class AdcHandle
  91:../libs/libDaisy/src/per/adc.h **** {
  92:../libs/libDaisy/src/per/adc.h ****   public:
  93:../libs/libDaisy/src/per/adc.h ****     /** Supported oversampling amounts */
  94:../libs/libDaisy/src/per/adc.h ****     enum OverSampling
  95:../libs/libDaisy/src/per/adc.h ****     {
  96:../libs/libDaisy/src/per/adc.h ****         OVS_NONE, /**< & */
  97:../libs/libDaisy/src/per/adc.h ****         OVS_4,    /**< & */
  98:../libs/libDaisy/src/per/adc.h ****         OVS_8,    /**< & */
  99:../libs/libDaisy/src/per/adc.h ****         OVS_16,   /**< & */
 100:../libs/libDaisy/src/per/adc.h ****         OVS_32,   /**< & */
 101:../libs/libDaisy/src/per/adc.h ****         OVS_64,   /**< & */
 102:../libs/libDaisy/src/per/adc.h ****         OVS_128,  /**< & */
 103:../libs/libDaisy/src/per/adc.h ****         OVS_256,  /**< & */
 104:../libs/libDaisy/src/per/adc.h ****         OVS_512,  /**< & */
 105:../libs/libDaisy/src/per/adc.h ****         OVS_1024, /**< & */
 106:../libs/libDaisy/src/per/adc.h ****         OVS_LAST, /**< & */
ARM GAS  C:\Users\skipi\AppData\Local\Temp\cc6PZCfi.s 			page 7


 107:../libs/libDaisy/src/per/adc.h ****     };
 108:../libs/libDaisy/src/per/adc.h **** 
 109:../libs/libDaisy/src/per/adc.h ****     AdcHandle() {}
 110:../libs/libDaisy/src/per/adc.h ****     ~AdcHandle() {}
  56              		.loc 5 110 5 is_stmt 1 view .LVU7
  57              		.loc 5 110 5 is_stmt 0 view .LVU8
  58              	.LBE481:
  59              	.LBB482:
  60              	.LBI482:
  61              		.file 6 "../libs/libDaisy/src/hid/audio.h"
   1:../libs/libDaisy/src/hid/audio.h **** #ifndef DSY_AUDIO_H
   2:../libs/libDaisy/src/hid/audio.h **** #define DSY_AUDIO_H /**< & */
   3:../libs/libDaisy/src/hid/audio.h **** 
   4:../libs/libDaisy/src/hid/audio.h **** #include "per/sai.h"
   5:../libs/libDaisy/src/hid/audio.h **** 
   6:../libs/libDaisy/src/hid/audio.h **** namespace daisy
   7:../libs/libDaisy/src/hid/audio.h **** {
   8:../libs/libDaisy/src/hid/audio.h **** /** @brief Audio Engine Handle
   9:../libs/libDaisy/src/hid/audio.h ****  *  @ingroup audio 
  10:../libs/libDaisy/src/hid/audio.h ****  *  @details This class allows for higher level access to an audio engine.
  11:../libs/libDaisy/src/hid/audio.h ****  *           If you're using a SOM like the DaisySeed or DaisyPatchSM (or any 
  12:../libs/libDaisy/src/hid/audio.h ****  *            board that includes one of those objects) then the intialization
  13:../libs/libDaisy/src/hid/audio.h ****  *            is already taken  care of.
  14:../libs/libDaisy/src/hid/audio.h ****  *           If you're setting up your own custom hardware, or need to make changes
  15:../libs/libDaisy/src/hid/audio.h ****  *           you will have to take the following steps:
  16:../libs/libDaisy/src/hid/audio.h ****  *             1. Create and Initialize an SaiHandle or two depending on your requirements
  17:../libs/libDaisy/src/hid/audio.h ****  *             2. Initialize the Audio Handle with the desired settings and the Initialized SaiHand
  18:../libs/libDaisy/src/hid/audio.h ****  *             3. If the connected codec requires special configuration or initialization, do so
  19:../libs/libDaisy/src/hid/audio.h ****  *             4. Write a callback method using either the AudioCallback or the InterleavingAudioCa
  20:../libs/libDaisy/src/hid/audio.h ****  *             5. Start the Audio using one of the StartAudio function
  21:../libs/libDaisy/src/hid/audio.h ****  */
  22:../libs/libDaisy/src/hid/audio.h **** class AudioHandle
  23:../libs/libDaisy/src/hid/audio.h **** {
  24:../libs/libDaisy/src/hid/audio.h ****   public:
  25:../libs/libDaisy/src/hid/audio.h ****     /** Manually configurable details about the Audio Engine */
  26:../libs/libDaisy/src/hid/audio.h ****     /** TODO: Figure out how to get samplerate in here. */
  27:../libs/libDaisy/src/hid/audio.h ****     struct Config
  28:../libs/libDaisy/src/hid/audio.h ****     {
  29:../libs/libDaisy/src/hid/audio.h ****         /** number of samples to process per callback */
  30:../libs/libDaisy/src/hid/audio.h ****         size_t blocksize = 48;
  31:../libs/libDaisy/src/hid/audio.h **** 
  32:../libs/libDaisy/src/hid/audio.h ****         /**< Sample rate of audio */
  33:../libs/libDaisy/src/hid/audio.h ****         SaiHandle::Config::SampleRate samplerate
  34:../libs/libDaisy/src/hid/audio.h ****             = SaiHandle::Config::SampleRate::SAI_48KHZ;
  35:../libs/libDaisy/src/hid/audio.h **** 
  36:../libs/libDaisy/src/hid/audio.h ****         /** factor for adjustment before and after callback for hardware that may have extra headro
  37:../libs/libDaisy/src/hid/audio.h ****         float postgain = 1.f;
  38:../libs/libDaisy/src/hid/audio.h **** 
  39:../libs/libDaisy/src/hid/audio.h ****         /** factor for additional one-sided compensation to audio path for hardware that may
  40:../libs/libDaisy/src/hid/audio.h ****          *  have unequal input/output ranges
  41:../libs/libDaisy/src/hid/audio.h ****          */
  42:../libs/libDaisy/src/hid/audio.h ****         float output_compensation = 1.f;
  43:../libs/libDaisy/src/hid/audio.h ****     };
  44:../libs/libDaisy/src/hid/audio.h **** 
  45:../libs/libDaisy/src/hid/audio.h ****     enum class Result
  46:../libs/libDaisy/src/hid/audio.h ****     {
  47:../libs/libDaisy/src/hid/audio.h ****         OK,
ARM GAS  C:\Users\skipi\AppData\Local\Temp\cc6PZCfi.s 			page 8


  48:../libs/libDaisy/src/hid/audio.h ****         ERR,
  49:../libs/libDaisy/src/hid/audio.h ****     };
  50:../libs/libDaisy/src/hid/audio.h **** 
  51:../libs/libDaisy/src/hid/audio.h ****     /** Non-Interleaving input buffer
  52:../libs/libDaisy/src/hid/audio.h ****      * Buffer arranged by float[chn][sample] 
  53:../libs/libDaisy/src/hid/audio.h ****      * const so that the user can't modify the input
  54:../libs/libDaisy/src/hid/audio.h ****      */
  55:../libs/libDaisy/src/hid/audio.h ****     typedef const float* const* InputBuffer;
  56:../libs/libDaisy/src/hid/audio.h **** 
  57:../libs/libDaisy/src/hid/audio.h ****     /** Non-Interleaving output buffer
  58:../libs/libDaisy/src/hid/audio.h ****      * Arranged by float[chn][sample] 
  59:../libs/libDaisy/src/hid/audio.h ****      */
  60:../libs/libDaisy/src/hid/audio.h ****     typedef float** OutputBuffer;
  61:../libs/libDaisy/src/hid/audio.h **** 
  62:../libs/libDaisy/src/hid/audio.h ****     /** Type for a Non-Interleaving audio callback 
  63:../libs/libDaisy/src/hid/audio.h ****      * Non-Interleaving audio callbacks in daisy will be of this type
  64:../libs/libDaisy/src/hid/audio.h ****      */
  65:../libs/libDaisy/src/hid/audio.h ****     typedef void (*AudioCallback)(InputBuffer  in,
  66:../libs/libDaisy/src/hid/audio.h ****                                   OutputBuffer out,
  67:../libs/libDaisy/src/hid/audio.h ****                                   size_t       size);
  68:../libs/libDaisy/src/hid/audio.h **** 
  69:../libs/libDaisy/src/hid/audio.h ****     /** Interleaving Input buffer
  70:../libs/libDaisy/src/hid/audio.h ****      ** audio is prepared as { L0, R0, L1, R1, . . . LN, RN }]
  71:../libs/libDaisy/src/hid/audio.h ****      ** this is const, as the user shouldn't modify it
  72:../libs/libDaisy/src/hid/audio.h ****     */
  73:../libs/libDaisy/src/hid/audio.h ****     typedef const float* InterleavingInputBuffer;
  74:../libs/libDaisy/src/hid/audio.h **** 
  75:../libs/libDaisy/src/hid/audio.h ****     /** Interleaving Output buffer 
  76:../libs/libDaisy/src/hid/audio.h ****      ** audio is prepared as { L0, R0, L1, R1, . . . LN, RN }
  77:../libs/libDaisy/src/hid/audio.h ****     */
  78:../libs/libDaisy/src/hid/audio.h ****     typedef float* InterleavingOutputBuffer;
  79:../libs/libDaisy/src/hid/audio.h **** 
  80:../libs/libDaisy/src/hid/audio.h ****     /** Interleaving Audio Callback 
  81:../libs/libDaisy/src/hid/audio.h ****      * Interleaving audio callbacks in daisy must be of this type
  82:../libs/libDaisy/src/hid/audio.h ****      */
  83:../libs/libDaisy/src/hid/audio.h ****     typedef void (*InterleavingAudioCallback)(InterleavingInputBuffer  in,
  84:../libs/libDaisy/src/hid/audio.h ****                                               InterleavingOutputBuffer out,
  85:../libs/libDaisy/src/hid/audio.h ****                                               size_t                   size);
  86:../libs/libDaisy/src/hid/audio.h **** 
  87:../libs/libDaisy/src/hid/audio.h ****     AudioHandle() : pimpl_(nullptr) {}
  88:../libs/libDaisy/src/hid/audio.h ****     ~AudioHandle() {}
  62              		.loc 6 88 5 is_stmt 1 view .LVU9
  63              		.loc 6 88 5 is_stmt 0 view .LVU10
  64              	.LBE482:
  65              		.loc 1 22 19 view .LVU11
  66 0000 7047     		bx	lr
  67              		.cfi_endproc
  68              	.LFE2645:
  70              		.weak	_ZN5daisy9DaisySeedD1Ev
  71              		.thumb_set _ZN5daisy9DaisySeedD1Ev,_ZN5daisy9DaisySeedD2Ev
  72 0002 00BF     		.section	.text._ZN7daisysp4AdsrD2Ev,"axG",%progbits,_ZN7daisysp4AdsrD5Ev,comdat
  73              		.align	1
  74              		.p2align 2,,3
  75              		.weak	_ZN7daisysp4AdsrD2Ev
  76              		.syntax unified
  77              		.thumb
  78              		.thumb_func
ARM GAS  C:\Users\skipi\AppData\Local\Temp\cc6PZCfi.s 			page 9


  79              		.fpu fpv5-d16
  81              	_ZN7daisysp4AdsrD2Ev:
  82              	.LVL1:
  83              	.LFB2668:
  84              		.file 7 "../libs/DaisySP/Source/Control/adsr.h"
   1:../libs/DaisySP/Source/Control/adsr.h **** /*
   2:../libs/DaisySP/Source/Control/adsr.h **** Copyright (c) 2020 Electrosmith, Corp, Paul Batchelor
   3:../libs/DaisySP/Source/Control/adsr.h **** 
   4:../libs/DaisySP/Source/Control/adsr.h **** Use of this source code is governed by an MIT-style
   5:../libs/DaisySP/Source/Control/adsr.h **** license that can be found in the LICENSE file or at
   6:../libs/DaisySP/Source/Control/adsr.h **** https://opensource.org/licenses/MIT.
   7:../libs/DaisySP/Source/Control/adsr.h **** */
   8:../libs/DaisySP/Source/Control/adsr.h **** 
   9:../libs/DaisySP/Source/Control/adsr.h **** #pragma once
  10:../libs/DaisySP/Source/Control/adsr.h **** #ifndef DSY_ADSR_H
  11:../libs/DaisySP/Source/Control/adsr.h **** #define DSY_ADSR_H
  12:../libs/DaisySP/Source/Control/adsr.h **** 
  13:../libs/DaisySP/Source/Control/adsr.h **** #include <stdint.h>
  14:../libs/DaisySP/Source/Control/adsr.h **** #ifdef __cplusplus
  15:../libs/DaisySP/Source/Control/adsr.h **** 
  16:../libs/DaisySP/Source/Control/adsr.h **** namespace daisysp
  17:../libs/DaisySP/Source/Control/adsr.h **** {
  18:../libs/DaisySP/Source/Control/adsr.h **** /** Distinct stages that the phase of the envelope can be located in.
  19:../libs/DaisySP/Source/Control/adsr.h **** - IDLE   = located at phase location 0, and not currently running
  20:../libs/DaisySP/Source/Control/adsr.h **** - ATTACK  = First segment of envelope where phase moves from 0 to 1
  21:../libs/DaisySP/Source/Control/adsr.h **** - DECAY   = Second segment of envelope where phase moves from 1 to SUSTAIN value
  22:../libs/DaisySP/Source/Control/adsr.h **** - RELEASE =     Fourth segment of envelop where phase moves from SUSTAIN to 0
  23:../libs/DaisySP/Source/Control/adsr.h **** */
  24:../libs/DaisySP/Source/Control/adsr.h **** enum
  25:../libs/DaisySP/Source/Control/adsr.h **** {
  26:../libs/DaisySP/Source/Control/adsr.h ****     ADSR_SEG_IDLE    = 0,
  27:../libs/DaisySP/Source/Control/adsr.h ****     ADSR_SEG_ATTACK  = 1,
  28:../libs/DaisySP/Source/Control/adsr.h ****     ADSR_SEG_DECAY   = 2,
  29:../libs/DaisySP/Source/Control/adsr.h ****     ADSR_SEG_RELEASE = 4
  30:../libs/DaisySP/Source/Control/adsr.h **** };
  31:../libs/DaisySP/Source/Control/adsr.h **** 
  32:../libs/DaisySP/Source/Control/adsr.h **** 
  33:../libs/DaisySP/Source/Control/adsr.h **** /** adsr envelope module
  34:../libs/DaisySP/Source/Control/adsr.h **** 
  35:../libs/DaisySP/Source/Control/adsr.h **** Original author(s) : Paul Batchelor
  36:../libs/DaisySP/Source/Control/adsr.h **** 
  37:../libs/DaisySP/Source/Control/adsr.h **** Ported from Soundpipe by Ben Sergentanis, May 2020
  38:../libs/DaisySP/Source/Control/adsr.h ****  
  39:../libs/DaisySP/Source/Control/adsr.h **** Remake by Steffan DIedrichsen, May 2021
  40:../libs/DaisySP/Source/Control/adsr.h **** */
  41:../libs/DaisySP/Source/Control/adsr.h **** class Adsr
  42:../libs/DaisySP/Source/Control/adsr.h **** {
  43:../libs/DaisySP/Source/Control/adsr.h ****   public:
  44:../libs/DaisySP/Source/Control/adsr.h ****     Adsr() {}
  45:../libs/DaisySP/Source/Control/adsr.h ****     ~Adsr() {}
  85              		.loc 7 45 5 is_stmt 1 view -0
  86              		.cfi_startproc
  87              		@ args = 0, pretend = 0, frame = 0
  88              		@ frame_needed = 0, uses_anonymous_args = 0
  89              		@ link register save eliminated.
  90              		.loc 7 45 14 is_stmt 0 view .LVU13
  91 0000 7047     		bx	lr
ARM GAS  C:\Users\skipi\AppData\Local\Temp\cc6PZCfi.s 			page 10


  92              		.cfi_endproc
  93              	.LFE2668:
  95              		.weak	_ZN7daisysp4AdsrD1Ev
  96              		.thumb_set _ZN7daisysp4AdsrD1Ev,_ZN7daisysp4AdsrD2Ev
  97              		.section	.text._ZN7daisysp10OscillatorD2Ev,"axG",%progbits,_ZN7daisysp10OscillatorD5Ev,comdat
  98              		.align	1
  99              		.p2align 2,,3
 100              		.weak	_ZN7daisysp10OscillatorD2Ev
 101              		.syntax unified
 102              		.thumb
 103              		.thumb_func
 104              		.fpu fpv5-d16
 106              	_ZN7daisysp10OscillatorD2Ev:
 107              	.LVL2:
 108              	.LFB4330:
 109              		.file 8 "../libs/DaisySP/Source/Synthesis/oscillator.h"
   1:../libs/DaisySP/Source/Synthesis/oscillator.h **** /*
   2:../libs/DaisySP/Source/Synthesis/oscillator.h **** Copyright (c) 2020 Electrosmith, Corp
   3:../libs/DaisySP/Source/Synthesis/oscillator.h **** 
   4:../libs/DaisySP/Source/Synthesis/oscillator.h **** Use of this source code is governed by an MIT-style
   5:../libs/DaisySP/Source/Synthesis/oscillator.h **** license that can be found in the LICENSE file or at
   6:../libs/DaisySP/Source/Synthesis/oscillator.h **** https://opensource.org/licenses/MIT.
   7:../libs/DaisySP/Source/Synthesis/oscillator.h **** */
   8:../libs/DaisySP/Source/Synthesis/oscillator.h **** 
   9:../libs/DaisySP/Source/Synthesis/oscillator.h **** #pragma once
  10:../libs/DaisySP/Source/Synthesis/oscillator.h **** #ifndef DSY_OSCILLATOR_H
  11:../libs/DaisySP/Source/Synthesis/oscillator.h **** #define DSY_OSCILLATOR_H
  12:../libs/DaisySP/Source/Synthesis/oscillator.h **** #include <stdint.h>
  13:../libs/DaisySP/Source/Synthesis/oscillator.h **** #include "Utility/dsp.h"
  14:../libs/DaisySP/Source/Synthesis/oscillator.h **** #ifdef __cplusplus
  15:../libs/DaisySP/Source/Synthesis/oscillator.h **** 
  16:../libs/DaisySP/Source/Synthesis/oscillator.h **** namespace daisysp
  17:../libs/DaisySP/Source/Synthesis/oscillator.h **** {
  18:../libs/DaisySP/Source/Synthesis/oscillator.h **** /** Synthesis of several waveforms, including polyBLEP bandlimited waveforms.
  19:../libs/DaisySP/Source/Synthesis/oscillator.h **** */
  20:../libs/DaisySP/Source/Synthesis/oscillator.h **** class Oscillator
  21:../libs/DaisySP/Source/Synthesis/oscillator.h **** {
  22:../libs/DaisySP/Source/Synthesis/oscillator.h ****   public:
  23:../libs/DaisySP/Source/Synthesis/oscillator.h ****     Oscillator() {}
  24:../libs/DaisySP/Source/Synthesis/oscillator.h ****     ~Oscillator() {}
 110              		.loc 8 24 5 is_stmt 1 view -0
 111              		.cfi_startproc
 112              		@ args = 0, pretend = 0, frame = 0
 113              		@ frame_needed = 0, uses_anonymous_args = 0
 114              		@ link register save eliminated.
 115              		.loc 8 24 20 is_stmt 0 view .LVU15
 116 0000 7047     		bx	lr
 117              		.cfi_endproc
 118              	.LFE4330:
 120              		.weak	_ZN7daisysp10OscillatorD1Ev
 121              		.thumb_set _ZN7daisysp10OscillatorD1Ev,_ZN7daisysp10OscillatorD2Ev
 122              		.section	.text._ZN7daisysp3SvfD2Ev,"axG",%progbits,_ZN7daisysp3SvfD5Ev,comdat
 123              		.align	1
 124              		.p2align 2,,3
 125              		.weak	_ZN7daisysp3SvfD2Ev
 126              		.syntax unified
 127              		.thumb
ARM GAS  C:\Users\skipi\AppData\Local\Temp\cc6PZCfi.s 			page 11


 128              		.thumb_func
 129              		.fpu fpv5-d16
 131              	_ZN7daisysp3SvfD2Ev:
 132              	.LVL3:
 133              	.LFB4347:
 134              		.file 9 "../libs/DaisySP/Source/Filters/svf.h"
   1:../libs/DaisySP/Source/Filters/svf.h **** /*
   2:../libs/DaisySP/Source/Filters/svf.h **** Copyright (c) 2020 Electrosmith, Corp
   3:../libs/DaisySP/Source/Filters/svf.h **** 
   4:../libs/DaisySP/Source/Filters/svf.h **** Use of this source code is governed by an MIT-style
   5:../libs/DaisySP/Source/Filters/svf.h **** license that can be found in the LICENSE file or at
   6:../libs/DaisySP/Source/Filters/svf.h **** https://opensource.org/licenses/MIT.
   7:../libs/DaisySP/Source/Filters/svf.h **** */
   8:../libs/DaisySP/Source/Filters/svf.h **** 
   9:../libs/DaisySP/Source/Filters/svf.h **** #pragma once
  10:../libs/DaisySP/Source/Filters/svf.h **** #ifndef DSY_SVF_H
  11:../libs/DaisySP/Source/Filters/svf.h **** #define DSY_SVF_H
  12:../libs/DaisySP/Source/Filters/svf.h **** 
  13:../libs/DaisySP/Source/Filters/svf.h **** namespace daisysp
  14:../libs/DaisySP/Source/Filters/svf.h **** {
  15:../libs/DaisySP/Source/Filters/svf.h **** /**      Double Sampled, Stable State Variable Filter
  16:../libs/DaisySP/Source/Filters/svf.h **** 
  17:../libs/DaisySP/Source/Filters/svf.h **** Credit to Andrew Simper from musicdsp.org
  18:../libs/DaisySP/Source/Filters/svf.h **** 
  19:../libs/DaisySP/Source/Filters/svf.h **** This is his "State Variable Filter (Double Sampled, Stable)"
  20:../libs/DaisySP/Source/Filters/svf.h **** 
  21:../libs/DaisySP/Source/Filters/svf.h **** Additional thanks to Laurent de Soras for stability limit, and 
  22:../libs/DaisySP/Source/Filters/svf.h **** Stefan Diedrichsen for the correct notch output
  23:../libs/DaisySP/Source/Filters/svf.h **** 
  24:../libs/DaisySP/Source/Filters/svf.h **** Ported by: Stephen Hensley
  25:../libs/DaisySP/Source/Filters/svf.h **** */
  26:../libs/DaisySP/Source/Filters/svf.h **** class Svf
  27:../libs/DaisySP/Source/Filters/svf.h **** {
  28:../libs/DaisySP/Source/Filters/svf.h ****   public:
  29:../libs/DaisySP/Source/Filters/svf.h ****     Svf() {}
  30:../libs/DaisySP/Source/Filters/svf.h ****     ~Svf() {}
 135              		.loc 9 30 5 is_stmt 1 view -0
 136              		.cfi_startproc
 137              		@ args = 0, pretend = 0, frame = 0
 138              		@ frame_needed = 0, uses_anonymous_args = 0
 139              		@ link register save eliminated.
 140              		.loc 9 30 13 is_stmt 0 view .LVU17
 141 0000 7047     		bx	lr
 142              		.cfi_endproc
 143              	.LFE4347:
 145              		.weak	_ZN7daisysp3SvfD1Ev
 146              		.thumb_set _ZN7daisysp3SvfD1Ev,_ZN7daisysp3SvfD2Ev
 147              		.section	.text._Z13AudioCallbackPKPKfPPfj,"ax",%progbits
 148              		.align	1
 149              		.p2align 2,,3
 150              		.global	_Z13AudioCallbackPKPKfPPfj
 151              		.syntax unified
 152              		.thumb
 153              		.thumb_func
 154              		.fpu fpv5-d16
 156              	_Z13AudioCallbackPKPKfPPfj:
 157              	.LVL4:
ARM GAS  C:\Users\skipi\AppData\Local\Temp\cc6PZCfi.s 			page 12


 158              	.LFB4815:
 159              		.file 10 "src/PianoB.cpp"
   1:src/PianoB.cpp **** // Inclusion of necessary libraries
   2:src/PianoB.cpp **** #include "daisy_seed.h" // Main library for the Daisy Seed board
   3:src/PianoB.cpp **** #include "daisysp.h"    // DSP library for Daisy
   4:src/PianoB.cpp **** #include "Ramo.h"       // Library for the Ramo synth
   5:src/PianoB.cpp **** #include "config1.h"
   6:src/PianoB.cpp **** 
   7:src/PianoB.cpp **** 
   8:src/PianoB.cpp **** //#include "AnalogDelay.h" // Libreria custom per l'effetto delay analogico
   9:src/PianoB.cpp **** 
  10:src/PianoB.cpp **** 
  11:src/PianoB.cpp **** 
  12:src/PianoB.cpp **** // Using namespaces to simplify code writing
  13:src/PianoB.cpp **** using namespace daisy;
  14:src/PianoB.cpp **** using namespace daisysp;
  15:src/PianoB.cpp **** 
  16:src/PianoB.cpp **** 
  17:src/PianoB.cpp **** static DaisySeed hw;                                                // Main object for managing Dai
  18:src/PianoB.cpp **** 
  19:src/PianoB.cpp **** 
  20:src/PianoB.cpp **** 
  21:src/PianoB.cpp **** static Ramo Pluck1, Pluck2, Pluck3, Pluck4;                                                  // Obj
  22:src/PianoB.cpp **** static Ramo Bass1, Bass2;
  23:src/PianoB.cpp **** static Ramo Pad1, Pad2;                                                    // Object for the Ramo s
  24:src/PianoB.cpp ****  
  25:src/PianoB.cpp **** static Oscillator lfo_Pluck1, lfo_Pluck2, lfo_Pluck3, lfo_Pluck4;                                 /
  26:src/PianoB.cpp **** static Oscillator lfo_Bass1, lfo_Bass2;
  27:src/PianoB.cpp **** static Oscillator lfo_Pad1, lfo_Pad2;                                          // LFO object for mo
  28:src/PianoB.cpp **** 
  29:src/PianoB.cpp **** static Adsr AmpEnv_Pluck;                                          // Envelope object for amplitude
  30:src/PianoB.cpp **** static Adsr AmpEnv_Bass;
  31:src/PianoB.cpp **** static Adsr AmpEnv_Pad;                                            // Envelope object for amplitude
  32:src/PianoB.cpp **** 
  33:src/PianoB.cpp **** static Adsr FilterEnv_Pluck ;                                       
  34:src/PianoB.cpp **** static Adsr FilterEnv_Bass;
  35:src/PianoB.cpp **** static Adsr FilterEnv_Pad;                                        // Envelope object for filter
  36:src/PianoB.cpp **** 
  37:src/PianoB.cpp **** static Svf filter_Pluck1, filter_Pluck2, filter_Pluck3, filter_Pluck4;                             
  38:src/PianoB.cpp **** static Svf filter_Bass1, filter_Bass2;
  39:src/PianoB.cpp **** static Svf filter_Pad1, filter_Pad2;                                          // Filter object for 
  40:src/PianoB.cpp **** 
  41:src/PianoB.cpp **** 
  42:src/PianoB.cpp **** 
  43:src/PianoB.cpp **** float Raw_Pluck1, Raw_Pluck2, Raw_Pluck3, Raw_Pluck4;                                   // Raw sign
  44:src/PianoB.cpp **** float Raw_Bass1, Raw_Bass2;                                   // Raw signal variables
  45:src/PianoB.cpp **** float Raw_Pad1, Raw_Pad2;                            // Raw signal variables
  46:src/PianoB.cpp **** float out_noFX;                                                       // Output signal variable
  47:src/PianoB.cpp ****                                                      
  48:src/PianoB.cpp **** 
  49:src/PianoB.cpp **** 
  50:src/PianoB.cpp **** 
  51:src/PianoB.cpp **** 
  52:src/PianoB.cpp **** float now_f_lfo_Bass1, now_f_lfo_Bass2; // Frequency of LFO for Bass;
  53:src/PianoB.cpp **** float now_f_lfo_Pluck1, now_f_lfo_Pluck2, now_f_lfo_Pluck3, now_f_lfo_Pluck4; // Frequency of LFO f
  54:src/PianoB.cpp **** float now_f_lfo_Pad1, now_f_lfo_Pad2; // Frequency of LFO for Pad;  
  55:src/PianoB.cpp **** 
ARM GAS  C:\Users\skipi\AppData\Local\Temp\cc6PZCfi.s 			page 13


  56:src/PianoB.cpp **** float now_f_Pluck1, now_f_Pluck2, now_f_Pluck3, now_f_Pluck4; // Frequency of Pluck
  57:src/PianoB.cpp **** float now_f_Bass1, now_f_Bass2; // Frequency of Bass;
  58:src/PianoB.cpp **** float now_f_Pad1, now_f_Pad2; // Frequency of Pad;
  59:src/PianoB.cpp **** 
  60:src/PianoB.cpp **** float shape_Pluck1, shape_Pluck2, shape_Pluck3, shape_Pluck4; // Shape modulation for Pluck
  61:src/PianoB.cpp **** float shape_Bass1, shape_Bass2; // Shape modulation for Bass
  62:src/PianoB.cpp **** float shape_Pad1, shape_Pad2; // Shape modulation for Pad
  63:src/PianoB.cpp **** 
  64:src/PianoB.cpp **** float amp_env_Pluck1, amp_env_Pluck2, amp_env_Pluck3, amp_env_Pluck4; // Amplitude envelope for Plu
  65:src/PianoB.cpp **** float amp_env_Bass1, amp_env_Bass2; // Amplitude envelope for Bass
  66:src/PianoB.cpp **** float amp_env_Pad1, amp_env_Pad2; // Amplitude envelope for Pad
  67:src/PianoB.cpp **** 
  68:src/PianoB.cpp **** float filt_env_Pluck1, filt_env_Pluck2, filt_env_Pluck3, filt_env_Pluck4; // Filter envelope for Pl
  69:src/PianoB.cpp **** float filt_env_Bass1, filt_env_Bass2; // Filter envelope for Bass
  70:src/PianoB.cpp **** float filt_env_Pad1, filt_env_Pad2; // Filter envelope for Pad
  71:src/PianoB.cpp **** 
  72:src/PianoB.cpp **** 
  73:src/PianoB.cpp **** 
  74:src/PianoB.cpp **** float Gate[8]; // Gate variables for the synths
  75:src/PianoB.cpp **** 
  76:src/PianoB.cpp **** float knob[8]; 
  77:src/PianoB.cpp **** 
  78:src/PianoB.cpp **** void AudioCallback(AudioHandle::InputBuffer in, AudioHandle::OutputBuffer out, size_t size) {
 160              		.loc 10 78 93 is_stmt 1 view -0
 161              		.cfi_startproc
 162              		@ args = 0, pretend = 0, frame = 16
 163              		@ frame_needed = 0, uses_anonymous_args = 0
  79:src/PianoB.cpp **** 
  80:src/PianoB.cpp ****                                                     
  81:src/PianoB.cpp ****     for (size_t i = 0; i < size; i++) {
 164              		.loc 10 81 5 view .LVU19
 165              	.LBB483:
 166              		.loc 10 81 26 view .LVU20
 167              	.LBE483:
  78:src/PianoB.cpp **** 
 168              		.loc 10 78 93 is_stmt 0 view .LVU21
 169 0000 2DE9F04F 		push	{r4, r5, r6, r7, r8, r9, r10, fp, lr}
 170              		.cfi_def_cfa_offset 36
 171              		.cfi_offset 4, -36
 172              		.cfi_offset 5, -32
 173              		.cfi_offset 6, -28
 174              		.cfi_offset 7, -24
 175              		.cfi_offset 8, -20
 176              		.cfi_offset 9, -16
 177              		.cfi_offset 10, -12
 178              		.cfi_offset 11, -8
 179              		.cfi_offset 14, -4
 180 0004 85B0     		sub	sp, sp, #20
 181              		.cfi_def_cfa_offset 56
 182              	.LBB518:
 183              		.loc 10 81 26 view .LVU22
 184 0006 0392     		str	r2, [sp, #12]
 185 0008 002A     		cmp	r2, #0
 186 000a 00F0FA83 		beq	.L6
 187 000e 0A46     		mov	r2, r1
 188              	.LVL5:
 189              		.loc 10 81 17 view .LVU23
ARM GAS  C:\Users\skipi\AppData\Local\Temp\cc6PZCfi.s 			page 14


 190 0010 0023     		movs	r3, #0
 191 0012 C24C     		ldr	r4, .L14
 192 0014 DFF8E4B3 		ldr	fp, .L14+224
 193 0018 C14E     		ldr	r6, .L14+4
 194 001a C24D     		ldr	r5, .L14+8
 195 001c DFF8E0A3 		ldr	r10, .L14+228
 196 0020 DFF8E093 		ldr	r9, .L14+232
 197 0024 DFF8E083 		ldr	r8, .L14+236
 198 0028 BF4F     		ldr	r7, .L14+12
 199              	.LVL6:
 200              	.L8:
  82:src/PianoB.cpp **** //--------------------------------------------------------------------Setta DelayTime
  83:src/PianoB.cpp ****     //delay.setDelayTime(delayTime);      // Imposta il tempo di delay
  84:src/PianoB.cpp **** //-------------------------------------------------------------------Setta Shape
  85:src/PianoB.cpp ****     lfo_Pluck1.SetFreq(now_f_lfo_Pluck1);
 201              		.loc 10 85 5 is_stmt 1 discriminator 2 view .LVU24
 202 002a CDE90132 		strd	r3, r2, [sp, #4]
 203              	.LVL7:
 204              		.loc 10 85 23 is_stmt 0 discriminator 2 view .LVU25
 205 002e BF4B     		ldr	r3, .L14+16
 206 0030 93ED000A 		vldr.32	s0, [r3]
 207              	.LVL8:
 208              	.LBB484:
 209              	.LBI484:
  25:../libs/DaisySP/Source/Synthesis/oscillator.h ****     /** Choices for output waveforms, POLYBLEP are appropriately labeled. Others are naive forms.
  26:../libs/DaisySP/Source/Synthesis/oscillator.h ****     */
  27:../libs/DaisySP/Source/Synthesis/oscillator.h ****     enum
  28:../libs/DaisySP/Source/Synthesis/oscillator.h ****     {
  29:../libs/DaisySP/Source/Synthesis/oscillator.h ****         WAVE_SIN,
  30:../libs/DaisySP/Source/Synthesis/oscillator.h ****         WAVE_TRI,
  31:../libs/DaisySP/Source/Synthesis/oscillator.h ****         WAVE_SAW,
  32:../libs/DaisySP/Source/Synthesis/oscillator.h ****         WAVE_RAMP,
  33:../libs/DaisySP/Source/Synthesis/oscillator.h ****         WAVE_SQUARE,
  34:../libs/DaisySP/Source/Synthesis/oscillator.h ****         WAVE_POLYBLEP_TRI,
  35:../libs/DaisySP/Source/Synthesis/oscillator.h ****         WAVE_POLYBLEP_SAW,
  36:../libs/DaisySP/Source/Synthesis/oscillator.h ****         WAVE_POLYBLEP_SQUARE,
  37:../libs/DaisySP/Source/Synthesis/oscillator.h ****         WAVE_LAST,
  38:../libs/DaisySP/Source/Synthesis/oscillator.h ****     };
  39:../libs/DaisySP/Source/Synthesis/oscillator.h **** 
  40:../libs/DaisySP/Source/Synthesis/oscillator.h **** 
  41:../libs/DaisySP/Source/Synthesis/oscillator.h ****     /** Initializes the Oscillator
  42:../libs/DaisySP/Source/Synthesis/oscillator.h **** 
  43:../libs/DaisySP/Source/Synthesis/oscillator.h ****         \param sample_rate - sample rate of the audio engine being run, and the frequency that the 
  44:../libs/DaisySP/Source/Synthesis/oscillator.h **** 
  45:../libs/DaisySP/Source/Synthesis/oscillator.h ****         Defaults:
  46:../libs/DaisySP/Source/Synthesis/oscillator.h ****         - freq_ = 100 Hz
  47:../libs/DaisySP/Source/Synthesis/oscillator.h ****         - amp_ = 0.5
  48:../libs/DaisySP/Source/Synthesis/oscillator.h ****         - waveform_ = sine wave.
  49:../libs/DaisySP/Source/Synthesis/oscillator.h ****     */
  50:../libs/DaisySP/Source/Synthesis/oscillator.h ****     void Init(float sample_rate)
  51:../libs/DaisySP/Source/Synthesis/oscillator.h ****     {
  52:../libs/DaisySP/Source/Synthesis/oscillator.h ****         sr_        = sample_rate;
  53:../libs/DaisySP/Source/Synthesis/oscillator.h ****         sr_recip_  = 1.0f / sample_rate;
  54:../libs/DaisySP/Source/Synthesis/oscillator.h ****         freq_      = 100.0f;
  55:../libs/DaisySP/Source/Synthesis/oscillator.h ****         amp_       = 0.5f;
  56:../libs/DaisySP/Source/Synthesis/oscillator.h ****         pw_        = 0.5f;
  57:../libs/DaisySP/Source/Synthesis/oscillator.h ****         phase_     = 0.0f;
ARM GAS  C:\Users\skipi\AppData\Local\Temp\cc6PZCfi.s 			page 15


  58:../libs/DaisySP/Source/Synthesis/oscillator.h ****         phase_inc_ = CalcPhaseInc(freq_);
  59:../libs/DaisySP/Source/Synthesis/oscillator.h ****         waveform_  = WAVE_SIN;
  60:../libs/DaisySP/Source/Synthesis/oscillator.h ****         eoc_       = true;
  61:../libs/DaisySP/Source/Synthesis/oscillator.h ****         eor_       = true;
  62:../libs/DaisySP/Source/Synthesis/oscillator.h ****     }
  63:../libs/DaisySP/Source/Synthesis/oscillator.h **** 
  64:../libs/DaisySP/Source/Synthesis/oscillator.h **** 
  65:../libs/DaisySP/Source/Synthesis/oscillator.h ****     /** Changes the frequency of the Oscillator, and recalculates phase increment.
  66:../libs/DaisySP/Source/Synthesis/oscillator.h ****     */
  67:../libs/DaisySP/Source/Synthesis/oscillator.h ****     inline void SetFreq(const float f)
 210              		.loc 8 67 17 is_stmt 1 discriminator 2 view .LVU26
 211              	.LBB485:
  68:../libs/DaisySP/Source/Synthesis/oscillator.h ****     {
  69:../libs/DaisySP/Source/Synthesis/oscillator.h ****         freq_      = f;
 212              		.loc 8 69 9 discriminator 2 view .LVU27
 213              		.loc 8 69 20 is_stmt 0 discriminator 2 view .LVU28
 214 0034 BE4B     		ldr	r3, .L14+20
  70:../libs/DaisySP/Source/Synthesis/oscillator.h ****         phase_inc_ = CalcPhaseInc(f);
 215              		.loc 8 70 34 discriminator 2 view .LVU29
 216 0036 1846     		mov	r0, r3
  69:../libs/DaisySP/Source/Synthesis/oscillator.h ****         phase_inc_ = CalcPhaseInc(f);
 217              		.loc 8 69 20 discriminator 2 view .LVU30
 218 0038 83ED020A 		vstr.32	s0, [r3, #8]
 219              		.loc 8 70 9 is_stmt 1 discriminator 2 view .LVU31
 220              		.loc 8 70 34 is_stmt 0 discriminator 2 view .LVU32
 221 003c FFF7FEFF 		bl	_ZN7daisysp10Oscillator12CalcPhaseIncEf
 222              	.LVL9:
 223              		.loc 8 70 20 discriminator 2 view .LVU33
 224 0040 BB4B     		ldr	r3, .L14+20
 225 0042 83ED070A 		vstr.32	s0, [r3, #28]
 226              	.LVL10:
 227              		.loc 8 70 20 discriminator 2 view .LVU34
 228              	.LBE485:
 229              	.LBE484:
  86:src/PianoB.cpp ****     lfo_Pluck2.SetFreq(now_f_lfo_Pluck2);
 230              		.loc 10 86 5 is_stmt 1 discriminator 2 view .LVU35
 231              		.loc 10 86 23 is_stmt 0 discriminator 2 view .LVU36
 232 0046 BB4B     		ldr	r3, .L14+24
 233 0048 93ED000A 		vldr.32	s0, [r3]
 234              	.LVL11:
 235              	.LBB486:
 236              	.LBI486:
  67:../libs/DaisySP/Source/Synthesis/oscillator.h ****     {
 237              		.loc 8 67 17 is_stmt 1 discriminator 2 view .LVU37
 238              	.LBB487:
  69:../libs/DaisySP/Source/Synthesis/oscillator.h ****         phase_inc_ = CalcPhaseInc(f);
 239              		.loc 8 69 9 discriminator 2 view .LVU38
  69:../libs/DaisySP/Source/Synthesis/oscillator.h ****         phase_inc_ = CalcPhaseInc(f);
 240              		.loc 8 69 20 is_stmt 0 discriminator 2 view .LVU39
 241 004c BA4B     		ldr	r3, .L14+28
 242              		.loc 8 70 34 discriminator 2 view .LVU40
 243 004e 1846     		mov	r0, r3
  69:../libs/DaisySP/Source/Synthesis/oscillator.h ****         phase_inc_ = CalcPhaseInc(f);
 244              		.loc 8 69 20 discriminator 2 view .LVU41
 245 0050 83ED020A 		vstr.32	s0, [r3, #8]
 246              		.loc 8 70 9 is_stmt 1 discriminator 2 view .LVU42
 247              		.loc 8 70 34 is_stmt 0 discriminator 2 view .LVU43
ARM GAS  C:\Users\skipi\AppData\Local\Temp\cc6PZCfi.s 			page 16


 248 0054 FFF7FEFF 		bl	_ZN7daisysp10Oscillator12CalcPhaseIncEf
 249              	.LVL12:
 250              		.loc 8 70 20 discriminator 2 view .LVU44
 251 0058 B74B     		ldr	r3, .L14+28
 252 005a 83ED070A 		vstr.32	s0, [r3, #28]
 253              	.LVL13:
 254              		.loc 8 70 20 discriminator 2 view .LVU45
 255              	.LBE487:
 256              	.LBE486:
  87:src/PianoB.cpp ****     lfo_Pluck3.SetFreq(now_f_lfo_Pluck3);
 257              		.loc 10 87 5 is_stmt 1 discriminator 2 view .LVU46
 258              		.loc 10 87 23 is_stmt 0 discriminator 2 view .LVU47
 259 005e B74B     		ldr	r3, .L14+32
 260 0060 93ED000A 		vldr.32	s0, [r3]
 261              	.LVL14:
 262              	.LBB488:
 263              	.LBI488:
  67:../libs/DaisySP/Source/Synthesis/oscillator.h ****     {
 264              		.loc 8 67 17 is_stmt 1 discriminator 2 view .LVU48
 265              	.LBB489:
  69:../libs/DaisySP/Source/Synthesis/oscillator.h ****         phase_inc_ = CalcPhaseInc(f);
 266              		.loc 8 69 9 discriminator 2 view .LVU49
  69:../libs/DaisySP/Source/Synthesis/oscillator.h ****         phase_inc_ = CalcPhaseInc(f);
 267              		.loc 8 69 20 is_stmt 0 discriminator 2 view .LVU50
 268 0064 B64B     		ldr	r3, .L14+36
 269              		.loc 8 70 34 discriminator 2 view .LVU51
 270 0066 1846     		mov	r0, r3
  69:../libs/DaisySP/Source/Synthesis/oscillator.h ****         phase_inc_ = CalcPhaseInc(f);
 271              		.loc 8 69 20 discriminator 2 view .LVU52
 272 0068 83ED020A 		vstr.32	s0, [r3, #8]
 273              		.loc 8 70 9 is_stmt 1 discriminator 2 view .LVU53
 274              		.loc 8 70 34 is_stmt 0 discriminator 2 view .LVU54
 275 006c FFF7FEFF 		bl	_ZN7daisysp10Oscillator12CalcPhaseIncEf
 276              	.LVL15:
 277              		.loc 8 70 20 discriminator 2 view .LVU55
 278 0070 B34B     		ldr	r3, .L14+36
 279 0072 83ED070A 		vstr.32	s0, [r3, #28]
 280              	.LVL16:
 281              		.loc 8 70 20 discriminator 2 view .LVU56
 282              	.LBE489:
 283              	.LBE488:
  88:src/PianoB.cpp ****     lfo_Pluck4.SetFreq(now_f_lfo_Pluck4);
 284              		.loc 10 88 5 is_stmt 1 discriminator 2 view .LVU57
 285              		.loc 10 88 23 is_stmt 0 discriminator 2 view .LVU58
 286 0076 B34B     		ldr	r3, .L14+40
 287 0078 93ED000A 		vldr.32	s0, [r3]
 288              	.LVL17:
 289              	.LBB490:
 290              	.LBI490:
  67:../libs/DaisySP/Source/Synthesis/oscillator.h ****     {
 291              		.loc 8 67 17 is_stmt 1 discriminator 2 view .LVU59
 292              	.LBB491:
  69:../libs/DaisySP/Source/Synthesis/oscillator.h ****         phase_inc_ = CalcPhaseInc(f);
 293              		.loc 8 69 9 discriminator 2 view .LVU60
  69:../libs/DaisySP/Source/Synthesis/oscillator.h ****         phase_inc_ = CalcPhaseInc(f);
 294              		.loc 8 69 20 is_stmt 0 discriminator 2 view .LVU61
 295 007c B24B     		ldr	r3, .L14+44
ARM GAS  C:\Users\skipi\AppData\Local\Temp\cc6PZCfi.s 			page 17


 296              		.loc 8 70 34 discriminator 2 view .LVU62
 297 007e 1846     		mov	r0, r3
  69:../libs/DaisySP/Source/Synthesis/oscillator.h ****         phase_inc_ = CalcPhaseInc(f);
 298              		.loc 8 69 20 discriminator 2 view .LVU63
 299 0080 83ED020A 		vstr.32	s0, [r3, #8]
 300              		.loc 8 70 9 is_stmt 1 discriminator 2 view .LVU64
 301              		.loc 8 70 34 is_stmt 0 discriminator 2 view .LVU65
 302 0084 FFF7FEFF 		bl	_ZN7daisysp10Oscillator12CalcPhaseIncEf
 303              	.LVL18:
 304              		.loc 8 70 20 discriminator 2 view .LVU66
 305 0088 AF4B     		ldr	r3, .L14+44
 306 008a 83ED070A 		vstr.32	s0, [r3, #28]
 307              	.LVL19:
 308              		.loc 8 70 20 discriminator 2 view .LVU67
 309              	.LBE491:
 310              	.LBE490:
  89:src/PianoB.cpp ****     lfo_Bass1.SetFreq(now_f_lfo_Bass1);
 311              		.loc 10 89 5 is_stmt 1 discriminator 2 view .LVU68
 312              		.loc 10 89 22 is_stmt 0 discriminator 2 view .LVU69
 313 008e AF4B     		ldr	r3, .L14+48
 314 0090 93ED000A 		vldr.32	s0, [r3]
 315              	.LVL20:
 316              	.LBB492:
 317              	.LBI492:
  67:../libs/DaisySP/Source/Synthesis/oscillator.h ****     {
 318              		.loc 8 67 17 is_stmt 1 discriminator 2 view .LVU70
 319              	.LBB493:
  69:../libs/DaisySP/Source/Synthesis/oscillator.h ****         phase_inc_ = CalcPhaseInc(f);
 320              		.loc 8 69 9 discriminator 2 view .LVU71
  69:../libs/DaisySP/Source/Synthesis/oscillator.h ****         phase_inc_ = CalcPhaseInc(f);
 321              		.loc 8 69 20 is_stmt 0 discriminator 2 view .LVU72
 322 0094 AE4B     		ldr	r3, .L14+52
 323              		.loc 8 70 34 discriminator 2 view .LVU73
 324 0096 1846     		mov	r0, r3
  69:../libs/DaisySP/Source/Synthesis/oscillator.h ****         phase_inc_ = CalcPhaseInc(f);
 325              		.loc 8 69 20 discriminator 2 view .LVU74
 326 0098 83ED020A 		vstr.32	s0, [r3, #8]
 327              		.loc 8 70 9 is_stmt 1 discriminator 2 view .LVU75
 328              		.loc 8 70 34 is_stmt 0 discriminator 2 view .LVU76
 329 009c FFF7FEFF 		bl	_ZN7daisysp10Oscillator12CalcPhaseIncEf
 330              	.LVL21:
 331              		.loc 8 70 20 discriminator 2 view .LVU77
 332 00a0 AB4B     		ldr	r3, .L14+52
 333 00a2 83ED070A 		vstr.32	s0, [r3, #28]
 334              	.LVL22:
 335              		.loc 8 70 20 discriminator 2 view .LVU78
 336              	.LBE493:
 337              	.LBE492:
  90:src/PianoB.cpp ****     lfo_Bass2.SetFreq(now_f_lfo_Bass2);
 338              		.loc 10 90 5 is_stmt 1 discriminator 2 view .LVU79
 339              		.loc 10 90 22 is_stmt 0 discriminator 2 view .LVU80
 340 00a6 AB4B     		ldr	r3, .L14+56
 341 00a8 93ED000A 		vldr.32	s0, [r3]
 342              	.LVL23:
 343              	.LBB494:
 344              	.LBI494:
  67:../libs/DaisySP/Source/Synthesis/oscillator.h ****     {
ARM GAS  C:\Users\skipi\AppData\Local\Temp\cc6PZCfi.s 			page 18


 345              		.loc 8 67 17 is_stmt 1 discriminator 2 view .LVU81
 346              	.LBB495:
  69:../libs/DaisySP/Source/Synthesis/oscillator.h ****         phase_inc_ = CalcPhaseInc(f);
 347              		.loc 8 69 9 discriminator 2 view .LVU82
  69:../libs/DaisySP/Source/Synthesis/oscillator.h ****         phase_inc_ = CalcPhaseInc(f);
 348              		.loc 8 69 20 is_stmt 0 discriminator 2 view .LVU83
 349 00ac AA4B     		ldr	r3, .L14+60
 350              		.loc 8 70 34 discriminator 2 view .LVU84
 351 00ae 1846     		mov	r0, r3
  69:../libs/DaisySP/Source/Synthesis/oscillator.h ****         phase_inc_ = CalcPhaseInc(f);
 352              		.loc 8 69 20 discriminator 2 view .LVU85
 353 00b0 83ED020A 		vstr.32	s0, [r3, #8]
 354              		.loc 8 70 9 is_stmt 1 discriminator 2 view .LVU86
 355              		.loc 8 70 34 is_stmt 0 discriminator 2 view .LVU87
 356 00b4 FFF7FEFF 		bl	_ZN7daisysp10Oscillator12CalcPhaseIncEf
 357              	.LVL24:
 358              		.loc 8 70 20 discriminator 2 view .LVU88
 359 00b8 A74B     		ldr	r3, .L14+60
 360 00ba 83ED070A 		vstr.32	s0, [r3, #28]
 361              	.LVL25:
 362              		.loc 8 70 20 discriminator 2 view .LVU89
 363              	.LBE495:
 364              	.LBE494:
  91:src/PianoB.cpp ****     lfo_Pad1.SetFreq(now_f_lfo_Pad1);
 365              		.loc 10 91 5 is_stmt 1 discriminator 2 view .LVU90
 366              		.loc 10 91 21 is_stmt 0 discriminator 2 view .LVU91
 367 00be A74B     		ldr	r3, .L14+64
 368 00c0 93ED000A 		vldr.32	s0, [r3]
 369              	.LVL26:
 370              	.LBB496:
 371              	.LBI496:
  67:../libs/DaisySP/Source/Synthesis/oscillator.h ****     {
 372              		.loc 8 67 17 is_stmt 1 discriminator 2 view .LVU92
 373              	.LBB497:
  69:../libs/DaisySP/Source/Synthesis/oscillator.h ****         phase_inc_ = CalcPhaseInc(f);
 374              		.loc 8 69 9 discriminator 2 view .LVU93
  69:../libs/DaisySP/Source/Synthesis/oscillator.h ****         phase_inc_ = CalcPhaseInc(f);
 375              		.loc 8 69 20 is_stmt 0 discriminator 2 view .LVU94
 376 00c4 A64B     		ldr	r3, .L14+68
 377              		.loc 8 70 34 discriminator 2 view .LVU95
 378 00c6 1846     		mov	r0, r3
  69:../libs/DaisySP/Source/Synthesis/oscillator.h ****         phase_inc_ = CalcPhaseInc(f);
 379              		.loc 8 69 20 discriminator 2 view .LVU96
 380 00c8 83ED020A 		vstr.32	s0, [r3, #8]
 381              		.loc 8 70 9 is_stmt 1 discriminator 2 view .LVU97
 382              		.loc 8 70 34 is_stmt 0 discriminator 2 view .LVU98
 383 00cc FFF7FEFF 		bl	_ZN7daisysp10Oscillator12CalcPhaseIncEf
 384              	.LVL27:
 385              		.loc 8 70 20 discriminator 2 view .LVU99
 386 00d0 A34B     		ldr	r3, .L14+68
 387 00d2 83ED070A 		vstr.32	s0, [r3, #28]
 388              	.LVL28:
 389              		.loc 8 70 20 discriminator 2 view .LVU100
 390              	.LBE497:
 391              	.LBE496:
  92:src/PianoB.cpp ****     lfo_Pad2.SetFreq(now_f_lfo_Pad2);
 392              		.loc 10 92 5 is_stmt 1 discriminator 2 view .LVU101
ARM GAS  C:\Users\skipi\AppData\Local\Temp\cc6PZCfi.s 			page 19


 393              		.loc 10 92 21 is_stmt 0 discriminator 2 view .LVU102
 394 00d6 A34B     		ldr	r3, .L14+72
 395 00d8 93ED000A 		vldr.32	s0, [r3]
 396              	.LVL29:
 397              	.LBB498:
 398              	.LBI498:
  67:../libs/DaisySP/Source/Synthesis/oscillator.h ****     {
 399              		.loc 8 67 17 is_stmt 1 discriminator 2 view .LVU103
 400              	.LBB499:
  69:../libs/DaisySP/Source/Synthesis/oscillator.h ****         phase_inc_ = CalcPhaseInc(f);
 401              		.loc 8 69 9 discriminator 2 view .LVU104
  69:../libs/DaisySP/Source/Synthesis/oscillator.h ****         phase_inc_ = CalcPhaseInc(f);
 402              		.loc 8 69 20 is_stmt 0 discriminator 2 view .LVU105
 403 00dc A24B     		ldr	r3, .L14+76
 404              		.loc 8 70 34 discriminator 2 view .LVU106
 405 00de 1846     		mov	r0, r3
  69:../libs/DaisySP/Source/Synthesis/oscillator.h ****         phase_inc_ = CalcPhaseInc(f);
 406              		.loc 8 69 20 discriminator 2 view .LVU107
 407 00e0 83ED020A 		vstr.32	s0, [r3, #8]
 408              		.loc 8 70 9 is_stmt 1 discriminator 2 view .LVU108
 409              		.loc 8 70 34 is_stmt 0 discriminator 2 view .LVU109
 410 00e4 FFF7FEFF 		bl	_ZN7daisysp10Oscillator12CalcPhaseIncEf
 411              	.LVL30:
 412              		.loc 8 70 20 discriminator 2 view .LVU110
 413 00e8 9F4B     		ldr	r3, .L14+76
 414              	.LBE499:
 415              	.LBE498:
  93:src/PianoB.cpp **** 
  94:src/PianoB.cpp **** 
  95:src/PianoB.cpp ****     shape_Pluck1 = lfo_Pluck1.Process();       
 416              		.loc 10 95 38 discriminator 2 view .LVU111
 417 00ea 9148     		ldr	r0, .L14+20
 418              	.LBB501:
 419              	.LBB500:
 420              		.loc 8 70 20 discriminator 2 view .LVU112
 421 00ec 83ED070A 		vstr.32	s0, [r3, #28]
 422              	.LVL31:
 423              		.loc 8 70 20 discriminator 2 view .LVU113
 424              	.LBE500:
 425              	.LBE501:
 426              		.loc 10 95 5 is_stmt 1 discriminator 2 view .LVU114
 427              		.loc 10 95 38 is_stmt 0 discriminator 2 view .LVU115
 428 00f0 FFF7FEFF 		bl	_ZN7daisysp10Oscillator7ProcessEv
 429              	.LVL32:
 430              		.loc 10 95 18 discriminator 2 view .LVU116
 431 00f4 9D4B     		ldr	r3, .L14+80
  96:src/PianoB.cpp ****     shape_Pluck2 = lfo_Pluck2.Process();
 432              		.loc 10 96 38 discriminator 2 view .LVU117
 433 00f6 9048     		ldr	r0, .L14+28
  95:src/PianoB.cpp ****     shape_Pluck2 = lfo_Pluck2.Process();
 434              		.loc 10 95 18 discriminator 2 view .LVU118
 435 00f8 83ED000A 		vstr.32	s0, [r3]
 436              		.loc 10 96 5 is_stmt 1 discriminator 2 view .LVU119
 437              		.loc 10 96 38 is_stmt 0 discriminator 2 view .LVU120
 438 00fc FFF7FEFF 		bl	_ZN7daisysp10Oscillator7ProcessEv
 439              	.LVL33:
 440              		.loc 10 96 18 discriminator 2 view .LVU121
ARM GAS  C:\Users\skipi\AppData\Local\Temp\cc6PZCfi.s 			page 20


 441 0100 9B4A     		ldr	r2, .L14+84
  97:src/PianoB.cpp ****     shape_Pluck3 = lfo_Pluck3.Process();
 442              		.loc 10 97 38 discriminator 2 view .LVU122
 443 0102 8F48     		ldr	r0, .L14+36
  96:src/PianoB.cpp ****     shape_Pluck2 = lfo_Pluck2.Process();
 444              		.loc 10 96 18 discriminator 2 view .LVU123
 445 0104 82ED000A 		vstr.32	s0, [r2]
 446              		.loc 10 97 5 is_stmt 1 discriminator 2 view .LVU124
 447              		.loc 10 97 38 is_stmt 0 discriminator 2 view .LVU125
 448 0108 FFF7FEFF 		bl	_ZN7daisysp10Oscillator7ProcessEv
 449              	.LVL34:
 450              		.loc 10 97 18 discriminator 2 view .LVU126
 451 010c 9949     		ldr	r1, .L14+88
  98:src/PianoB.cpp ****     shape_Pluck4 = lfo_Pluck4.Process();
 452              		.loc 10 98 38 discriminator 2 view .LVU127
 453 010e 8E48     		ldr	r0, .L14+44
  97:src/PianoB.cpp ****     shape_Pluck3 = lfo_Pluck3.Process();
 454              		.loc 10 97 18 discriminator 2 view .LVU128
 455 0110 81ED000A 		vstr.32	s0, [r1]
 456              		.loc 10 98 5 is_stmt 1 discriminator 2 view .LVU129
 457              		.loc 10 98 38 is_stmt 0 discriminator 2 view .LVU130
 458 0114 FFF7FEFF 		bl	_ZN7daisysp10Oscillator7ProcessEv
 459              	.LVL35:
 460              		.loc 10 98 18 discriminator 2 view .LVU131
 461 0118 9748     		ldr	r0, .L14+92
 462 011a 80ED000A 		vstr.32	s0, [r0]
  99:src/PianoB.cpp ****     shape_Bass1 = lfo_Bass1.Process();
 463              		.loc 10 99 5 is_stmt 1 discriminator 2 view .LVU132
 464              		.loc 10 99 36 is_stmt 0 discriminator 2 view .LVU133
 465 011e 8C48     		ldr	r0, .L14+52
 466 0120 FFF7FEFF 		bl	_ZN7daisysp10Oscillator7ProcessEv
 467              	.LVL36:
 468              		.loc 10 99 17 discriminator 2 view .LVU134
 469 0124 954B     		ldr	r3, .L14+96
 100:src/PianoB.cpp ****     shape_Bass2 = lfo_Bass2.Process();
 470              		.loc 10 100 36 discriminator 2 view .LVU135
 471 0126 8C48     		ldr	r0, .L14+60
  99:src/PianoB.cpp ****     shape_Bass1 = lfo_Bass1.Process();
 472              		.loc 10 99 17 discriminator 2 view .LVU136
 473 0128 83ED000A 		vstr.32	s0, [r3]
 474              		.loc 10 100 5 is_stmt 1 discriminator 2 view .LVU137
 475              		.loc 10 100 36 is_stmt 0 discriminator 2 view .LVU138
 476 012c FFF7FEFF 		bl	_ZN7daisysp10Oscillator7ProcessEv
 477              	.LVL37:
 478              		.loc 10 100 17 discriminator 2 view .LVU139
 479 0130 934A     		ldr	r2, .L14+100
 101:src/PianoB.cpp ****     shape_Pad1 = lfo_Pad1.Process();
 480              		.loc 10 101 34 discriminator 2 view .LVU140
 481 0132 8B48     		ldr	r0, .L14+68
 100:src/PianoB.cpp ****     shape_Bass2 = lfo_Bass2.Process();
 482              		.loc 10 100 17 discriminator 2 view .LVU141
 483 0134 82ED000A 		vstr.32	s0, [r2]
 484              		.loc 10 101 5 is_stmt 1 discriminator 2 view .LVU142
 485              		.loc 10 101 34 is_stmt 0 discriminator 2 view .LVU143
 486 0138 FFF7FEFF 		bl	_ZN7daisysp10Oscillator7ProcessEv
 487              	.LVL38:
 488              		.loc 10 101 16 discriminator 2 view .LVU144
ARM GAS  C:\Users\skipi\AppData\Local\Temp\cc6PZCfi.s 			page 21


 489 013c 9149     		ldr	r1, .L14+104
 102:src/PianoB.cpp ****     shape_Pad2 = lfo_Pad2.Process();
 490              		.loc 10 102 34 discriminator 2 view .LVU145
 491 013e 8A48     		ldr	r0, .L14+76
 101:src/PianoB.cpp ****     shape_Pad1 = lfo_Pad1.Process();
 492              		.loc 10 101 16 discriminator 2 view .LVU146
 493 0140 81ED000A 		vstr.32	s0, [r1]
 494              		.loc 10 102 5 is_stmt 1 discriminator 2 view .LVU147
 495              		.loc 10 102 34 is_stmt 0 discriminator 2 view .LVU148
 496 0144 FFF7FEFF 		bl	_ZN7daisysp10Oscillator7ProcessEv
 497              	.LVL39:
 103:src/PianoB.cpp **** 
 104:src/PianoB.cpp ****                                 
 105:src/PianoB.cpp **** 
 106:src/PianoB.cpp ****     Pluck1.SetShape(shape_Pluck1);   
 498              		.loc 10 106 20 discriminator 2 view .LVU149
 499 0148 884B     		ldr	r3, .L14+80
 102:src/PianoB.cpp ****     shape_Pad2 = lfo_Pad2.Process();
 500              		.loc 10 102 16 discriminator 2 view .LVU150
 501 014a 8F48     		ldr	r0, .L14+108
 502 014c 80ED000A 		vstr.32	s0, [r0]
 503              		.loc 10 106 5 is_stmt 1 discriminator 2 view .LVU151
 504              		.loc 10 106 20 is_stmt 0 discriminator 2 view .LVU152
 505 0150 93ED000A 		vldr.32	s0, [r3]
 506 0154 8D48     		ldr	r0, .L14+112
 507 0156 FFF7FEFF 		bl	_ZN4Ramo8SetShapeEf
 508              	.LVL40:
 107:src/PianoB.cpp ****     Pluck2.SetShape(shape_Pluck2);
 509              		.loc 10 107 5 is_stmt 1 discriminator 2 view .LVU153
 510              		.loc 10 107 20 is_stmt 0 discriminator 2 view .LVU154
 511 015a 854A     		ldr	r2, .L14+84
 512 015c 8C48     		ldr	r0, .L14+116
 513 015e 92ED000A 		vldr.32	s0, [r2]
 514 0162 FFF7FEFF 		bl	_ZN4Ramo8SetShapeEf
 515              	.LVL41:
 108:src/PianoB.cpp ****     Pluck3.SetShape(shape_Pluck3);
 516              		.loc 10 108 5 is_stmt 1 discriminator 2 view .LVU155
 517              		.loc 10 108 20 is_stmt 0 discriminator 2 view .LVU156
 518 0166 8349     		ldr	r1, .L14+88
 519 0168 8A48     		ldr	r0, .L14+120
 520 016a 91ED000A 		vldr.32	s0, [r1]
 521 016e FFF7FEFF 		bl	_ZN4Ramo8SetShapeEf
 522              	.LVL42:
 109:src/PianoB.cpp ****     Pluck4.SetShape(shape_Pluck4);
 523              		.loc 10 109 5 is_stmt 1 discriminator 2 view .LVU157
 524              		.loc 10 109 20 is_stmt 0 discriminator 2 view .LVU158
 525 0172 8148     		ldr	r0, .L14+92
 526 0174 90ED000A 		vldr.32	s0, [r0]
 527 0178 8748     		ldr	r0, .L14+124
 528 017a FFF7FEFF 		bl	_ZN4Ramo8SetShapeEf
 529              	.LVL43:
 110:src/PianoB.cpp ****     Bass1.SetShape(shape_Bass1);
 530              		.loc 10 110 5 is_stmt 1 discriminator 2 view .LVU159
 531              		.loc 10 110 19 is_stmt 0 discriminator 2 view .LVU160
 532 017e 7F4B     		ldr	r3, .L14+96
 533 0180 8648     		ldr	r0, .L14+128
 534 0182 93ED000A 		vldr.32	s0, [r3]
ARM GAS  C:\Users\skipi\AppData\Local\Temp\cc6PZCfi.s 			page 22


 535 0186 FFF7FEFF 		bl	_ZN4Ramo8SetShapeEf
 536              	.LVL44:
 111:src/PianoB.cpp ****     Bass2.SetShape(shape_Bass2);
 537              		.loc 10 111 5 is_stmt 1 discriminator 2 view .LVU161
 538              		.loc 10 111 19 is_stmt 0 discriminator 2 view .LVU162
 539 018a 7D4A     		ldr	r2, .L14+100
 540 018c 8448     		ldr	r0, .L14+132
 541 018e 92ED000A 		vldr.32	s0, [r2]
 542 0192 FFF7FEFF 		bl	_ZN4Ramo8SetShapeEf
 543              	.LVL45:
 112:src/PianoB.cpp ****     Pad1.SetShape(shape_Pad1);
 544              		.loc 10 112 5 is_stmt 1 discriminator 2 view .LVU163
 545              		.loc 10 112 18 is_stmt 0 discriminator 2 view .LVU164
 546 0196 7B49     		ldr	r1, .L14+104
 547 0198 8248     		ldr	r0, .L14+136
 548 019a 91ED000A 		vldr.32	s0, [r1]
 549 019e FFF7FEFF 		bl	_ZN4Ramo8SetShapeEf
 550              	.LVL46:
 113:src/PianoB.cpp ****     Pad2.SetShape(shape_Pad2);
 551              		.loc 10 113 5 is_stmt 1 discriminator 2 view .LVU165
 552              		.loc 10 113 18 is_stmt 0 discriminator 2 view .LVU166
 553 01a2 7948     		ldr	r0, .L14+108
 554 01a4 90ED000A 		vldr.32	s0, [r0]
 555 01a8 7F48     		ldr	r0, .L14+140
 556 01aa FFF7FEFF 		bl	_ZN4Ramo8SetShapeEf
 557              	.LVL47:
 114:src/PianoB.cpp **** 
 115:src/PianoB.cpp ****                                     
 116:src/PianoB.cpp ****     
 117:src/PianoB.cpp **** //---------------------------------------------------------------Setta Freq
 118:src/PianoB.cpp ****     Pluck1.SetFreq(now_f_Pluck1);   
 558              		.loc 10 118 5 is_stmt 1 discriminator 2 view .LVU167
 559              		.loc 10 118 19 is_stmt 0 discriminator 2 view .LVU168
 560 01ae 7F4B     		ldr	r3, .L14+144
 561 01b0 7648     		ldr	r0, .L14+112
 562 01b2 93ED000A 		vldr.32	s0, [r3]
 563 01b6 FFF7FEFF 		bl	_ZN4Ramo7SetFreqEf
 564              	.LVL48:
 119:src/PianoB.cpp ****     Pluck2.SetFreq(now_f_Pluck2);
 565              		.loc 10 119 5 is_stmt 1 discriminator 2 view .LVU169
 566              		.loc 10 119 19 is_stmt 0 discriminator 2 view .LVU170
 567 01ba 7D4B     		ldr	r3, .L14+148
 568 01bc 7448     		ldr	r0, .L14+116
 569 01be 93ED000A 		vldr.32	s0, [r3]
 570 01c2 FFF7FEFF 		bl	_ZN4Ramo7SetFreqEf
 571              	.LVL49:
 120:src/PianoB.cpp ****     Pluck3.SetFreq(now_f_Pluck3);
 572              		.loc 10 120 5 is_stmt 1 discriminator 2 view .LVU171
 573              		.loc 10 120 19 is_stmt 0 discriminator 2 view .LVU172
 574 01c6 7B4B     		ldr	r3, .L14+152
 575 01c8 7248     		ldr	r0, .L14+120
 576 01ca 93ED000A 		vldr.32	s0, [r3]
 577 01ce FFF7FEFF 		bl	_ZN4Ramo7SetFreqEf
 578              	.LVL50:
 121:src/PianoB.cpp ****     Pluck4.SetFreq(now_f_Pluck4);
 579              		.loc 10 121 5 is_stmt 1 discriminator 2 view .LVU173
 580              		.loc 10 121 19 is_stmt 0 discriminator 2 view .LVU174
ARM GAS  C:\Users\skipi\AppData\Local\Temp\cc6PZCfi.s 			page 23


 581 01d2 794B     		ldr	r3, .L14+156
 582 01d4 7048     		ldr	r0, .L14+124
 583 01d6 93ED000A 		vldr.32	s0, [r3]
 584 01da FFF7FEFF 		bl	_ZN4Ramo7SetFreqEf
 585              	.LVL51:
 122:src/PianoB.cpp ****     Bass1.SetFreq(now_f_Bass1);
 586              		.loc 10 122 5 is_stmt 1 discriminator 2 view .LVU175
 587              		.loc 10 122 18 is_stmt 0 discriminator 2 view .LVU176
 588 01de 774B     		ldr	r3, .L14+160
 589 01e0 6E48     		ldr	r0, .L14+128
 590 01e2 93ED000A 		vldr.32	s0, [r3]
 591 01e6 FFF7FEFF 		bl	_ZN4Ramo7SetFreqEf
 592              	.LVL52:
 123:src/PianoB.cpp ****     Bass2.SetFreq(now_f_Bass2);
 593              		.loc 10 123 5 is_stmt 1 discriminator 2 view .LVU177
 594              		.loc 10 123 18 is_stmt 0 discriminator 2 view .LVU178
 595 01ea 754B     		ldr	r3, .L14+164
 596 01ec 6C48     		ldr	r0, .L14+132
 597 01ee 93ED000A 		vldr.32	s0, [r3]
 598 01f2 FFF7FEFF 		bl	_ZN4Ramo7SetFreqEf
 599              	.LVL53:
 124:src/PianoB.cpp ****     Pad1.SetFreq(now_f_Pad1);
 600              		.loc 10 124 5 is_stmt 1 discriminator 2 view .LVU179
 601              		.loc 10 124 17 is_stmt 0 discriminator 2 view .LVU180
 602 01f6 734B     		ldr	r3, .L14+168
 603 01f8 6A48     		ldr	r0, .L14+136
 604 01fa 93ED000A 		vldr.32	s0, [r3]
 605 01fe FFF7FEFF 		bl	_ZN4Ramo7SetFreqEf
 606              	.LVL54:
 125:src/PianoB.cpp ****     Pad2.SetFreq(now_f_Pad2);                                     
 607              		.loc 10 125 5 is_stmt 1 discriminator 2 view .LVU181
 608              		.loc 10 125 17 is_stmt 0 discriminator 2 view .LVU182
 609 0202 714B     		ldr	r3, .L14+172
 610 0204 6848     		ldr	r0, .L14+140
 611 0206 93ED000A 		vldr.32	s0, [r3]
 612 020a FFF7FEFF 		bl	_ZN4Ramo7SetFreqEf
 613              	.LVL55:
 126:src/PianoB.cpp ****                   
 127:src/PianoB.cpp **** 
 128:src/PianoB.cpp **** //-------------------------------------------------------------------------------------------------
 129:src/PianoB.cpp ****     amp_env_Pluck1 = AmpEnv_Pluck.Process(Gate[0]);  
 614              		.loc 10 129 5 is_stmt 1 discriminator 2 view .LVU183
 615              		.loc 10 129 42 is_stmt 0 discriminator 2 view .LVU184
 616 020e D4ED007A 		vldr.32	s15, [r4]
 617 0212 6E48     		ldr	r0, .L14+176
 618 0214 F5EE407A 		vcmp.f32	s15, #0
 619 0218 F1EE10FA 		vmrs	APSR_nzcv, FPSCR
 620 021c 14BF     		ite	ne
 621 021e 0121     		movne	r1, #1
 622 0220 0021     		moveq	r1, #0
 623 0222 FFF7FEFF 		bl	_ZN7daisysp4Adsr7ProcessEb
 624              	.LVL56:
 130:src/PianoB.cpp ****     amp_env_Pluck2 = AmpEnv_Pluck.Process(Gate[1]);
 625              		.loc 10 130 42 discriminator 2 view .LVU185
 626 0226 D4ED017A 		vldr.32	s15, [r4, #4]
 129:src/PianoB.cpp ****     amp_env_Pluck2 = AmpEnv_Pluck.Process(Gate[1]);
 627              		.loc 10 129 20 discriminator 2 view .LVU186
ARM GAS  C:\Users\skipi\AppData\Local\Temp\cc6PZCfi.s 			page 24


 628 022a 694B     		ldr	r3, .L14+180
 629              		.loc 10 130 42 discriminator 2 view .LVU187
 630 022c F5EE407A 		vcmp.f32	s15, #0
 631 0230 6648     		ldr	r0, .L14+176
 129:src/PianoB.cpp ****     amp_env_Pluck2 = AmpEnv_Pluck.Process(Gate[1]);
 632              		.loc 10 129 20 discriminator 2 view .LVU188
 633 0232 83ED000A 		vstr.32	s0, [r3]
 634              		.loc 10 130 5 is_stmt 1 discriminator 2 view .LVU189
 635              		.loc 10 130 42 is_stmt 0 discriminator 2 view .LVU190
 636 0236 F1EE10FA 		vmrs	APSR_nzcv, FPSCR
 637 023a 14BF     		ite	ne
 638 023c 0121     		movne	r1, #1
 639 023e 0021     		moveq	r1, #0
 640 0240 FFF7FEFF 		bl	_ZN7daisysp4Adsr7ProcessEb
 641              	.LVL57:
 131:src/PianoB.cpp ****     amp_env_Pluck3 = AmpEnv_Pluck.Process(Gate[2]);
 642              		.loc 10 131 42 discriminator 2 view .LVU191
 643 0244 D4ED027A 		vldr.32	s15, [r4, #8]
 130:src/PianoB.cpp ****     amp_env_Pluck2 = AmpEnv_Pluck.Process(Gate[1]);
 644              		.loc 10 130 20 discriminator 2 view .LVU192
 645 0248 624A     		ldr	r2, .L14+184
 646              		.loc 10 131 42 discriminator 2 view .LVU193
 647 024a F5EE407A 		vcmp.f32	s15, #0
 648 024e 5F48     		ldr	r0, .L14+176
 130:src/PianoB.cpp ****     amp_env_Pluck2 = AmpEnv_Pluck.Process(Gate[1]);
 649              		.loc 10 130 20 discriminator 2 view .LVU194
 650 0250 82ED000A 		vstr.32	s0, [r2]
 651              		.loc 10 131 5 is_stmt 1 discriminator 2 view .LVU195
 652              		.loc 10 131 42 is_stmt 0 discriminator 2 view .LVU196
 653 0254 F1EE10FA 		vmrs	APSR_nzcv, FPSCR
 654 0258 14BF     		ite	ne
 655 025a 0121     		movne	r1, #1
 656 025c 0021     		moveq	r1, #0
 657 025e FFF7FEFF 		bl	_ZN7daisysp4Adsr7ProcessEb
 658              	.LVL58:
 132:src/PianoB.cpp ****     amp_env_Pluck4 = AmpEnv_Pluck.Process(Gate[3]);
 659              		.loc 10 132 42 discriminator 2 view .LVU197
 660 0262 D4ED037A 		vldr.32	s15, [r4, #12]
 131:src/PianoB.cpp ****     amp_env_Pluck3 = AmpEnv_Pluck.Process(Gate[2]);
 661              		.loc 10 131 20 discriminator 2 view .LVU198
 662 0266 5C49     		ldr	r1, .L14+188
 663              		.loc 10 132 42 discriminator 2 view .LVU199
 664 0268 F5EE407A 		vcmp.f32	s15, #0
 665 026c 5748     		ldr	r0, .L14+176
 131:src/PianoB.cpp ****     amp_env_Pluck3 = AmpEnv_Pluck.Process(Gate[2]);
 666              		.loc 10 131 20 discriminator 2 view .LVU200
 667 026e 81ED000A 		vstr.32	s0, [r1]
 668              		.loc 10 132 5 is_stmt 1 discriminator 2 view .LVU201
 669              		.loc 10 132 42 is_stmt 0 discriminator 2 view .LVU202
 670 0272 F1EE10FA 		vmrs	APSR_nzcv, FPSCR
 671 0276 14BF     		ite	ne
 672 0278 0121     		movne	r1, #1
 673 027a 0021     		moveq	r1, #0
 674 027c FFF7FEFF 		bl	_ZN7daisysp4Adsr7ProcessEb
 675              	.LVL59:
 133:src/PianoB.cpp ****     amp_env_Pad1 = AmpEnv_Pad.Process(Gate[4]);
 676              		.loc 10 133 38 discriminator 2 view .LVU203
ARM GAS  C:\Users\skipi\AppData\Local\Temp\cc6PZCfi.s 			page 25


 677 0280 D4ED047A 		vldr.32	s15, [r4, #16]
 132:src/PianoB.cpp ****     amp_env_Pluck4 = AmpEnv_Pluck.Process(Gate[3]);
 678              		.loc 10 132 20 discriminator 2 view .LVU204
 679 0284 5548     		ldr	r0, .L14+192
 680              		.loc 10 133 38 discriminator 2 view .LVU205
 681 0286 F5EE407A 		vcmp.f32	s15, #0
 132:src/PianoB.cpp ****     amp_env_Pluck4 = AmpEnv_Pluck.Process(Gate[3]);
 682              		.loc 10 132 20 discriminator 2 view .LVU206
 683 028a 80ED000A 		vstr.32	s0, [r0]
 684              		.loc 10 133 5 is_stmt 1 discriminator 2 view .LVU207
 685              		.loc 10 133 38 is_stmt 0 discriminator 2 view .LVU208
 686 028e 5448     		ldr	r0, .L14+196
 687 0290 F1EE10FA 		vmrs	APSR_nzcv, FPSCR
 688 0294 14BF     		ite	ne
 689 0296 0121     		movne	r1, #1
 690 0298 0021     		moveq	r1, #0
 691 029a FFF7FEFF 		bl	_ZN7daisysp4Adsr7ProcessEb
 692              	.LVL60:
 134:src/PianoB.cpp ****     amp_env_Pad2 = AmpEnv_Pad.Process(Gate[5]);
 693              		.loc 10 134 38 discriminator 2 view .LVU209
 694 029e D4ED057A 		vldr.32	s15, [r4, #20]
 133:src/PianoB.cpp ****     amp_env_Pad1 = AmpEnv_Pad.Process(Gate[4]);
 695              		.loc 10 133 18 discriminator 2 view .LVU210
 696 02a2 504B     		ldr	r3, .L14+200
 697              		.loc 10 134 38 discriminator 2 view .LVU211
 698 02a4 F5EE407A 		vcmp.f32	s15, #0
 699 02a8 4D48     		ldr	r0, .L14+196
 133:src/PianoB.cpp ****     amp_env_Pad1 = AmpEnv_Pad.Process(Gate[4]);
 700              		.loc 10 133 18 discriminator 2 view .LVU212
 701 02aa 83ED000A 		vstr.32	s0, [r3]
 702              		.loc 10 134 5 is_stmt 1 discriminator 2 view .LVU213
 703              		.loc 10 134 38 is_stmt 0 discriminator 2 view .LVU214
 704 02ae F1EE10FA 		vmrs	APSR_nzcv, FPSCR
 705 02b2 14BF     		ite	ne
 706 02b4 0121     		movne	r1, #1
 707 02b6 0021     		moveq	r1, #0
 708 02b8 FFF7FEFF 		bl	_ZN7daisysp4Adsr7ProcessEb
 709              	.LVL61:
 135:src/PianoB.cpp ****     amp_env_Bass1 = AmpEnv_Bass.Process(Gate[6]);
 710              		.loc 10 135 40 discriminator 2 view .LVU215
 711 02bc D4ED067A 		vldr.32	s15, [r4, #24]
 134:src/PianoB.cpp ****     amp_env_Pad2 = AmpEnv_Pad.Process(Gate[5]);
 712              		.loc 10 134 18 discriminator 2 view .LVU216
 713 02c0 494A     		ldr	r2, .L14+204
 714              		.loc 10 135 40 discriminator 2 view .LVU217
 715 02c2 F5EE407A 		vcmp.f32	s15, #0
 716 02c6 4948     		ldr	r0, .L14+208
 134:src/PianoB.cpp ****     amp_env_Pad2 = AmpEnv_Pad.Process(Gate[5]);
 717              		.loc 10 134 18 discriminator 2 view .LVU218
 718 02c8 82ED000A 		vstr.32	s0, [r2]
 719              		.loc 10 135 5 is_stmt 1 discriminator 2 view .LVU219
 720              		.loc 10 135 40 is_stmt 0 discriminator 2 view .LVU220
 721 02cc F1EE10FA 		vmrs	APSR_nzcv, FPSCR
 722 02d0 14BF     		ite	ne
 723 02d2 0121     		movne	r1, #1
 724 02d4 0021     		moveq	r1, #0
 725 02d6 FFF7FEFF 		bl	_ZN7daisysp4Adsr7ProcessEb
ARM GAS  C:\Users\skipi\AppData\Local\Temp\cc6PZCfi.s 			page 26


 726              	.LVL62:
 136:src/PianoB.cpp ****     amp_env_Bass2 = AmpEnv_Bass.Process(Gate[7]);
 727              		.loc 10 136 40 discriminator 2 view .LVU221
 728 02da D4ED077A 		vldr.32	s15, [r4, #28]
 135:src/PianoB.cpp ****     amp_env_Bass1 = AmpEnv_Bass.Process(Gate[6]);
 729              		.loc 10 135 19 discriminator 2 view .LVU222
 730 02de 4449     		ldr	r1, .L14+212
 731              		.loc 10 136 40 discriminator 2 view .LVU223
 732 02e0 F5EE407A 		vcmp.f32	s15, #0
 733 02e4 4148     		ldr	r0, .L14+208
 135:src/PianoB.cpp ****     amp_env_Bass1 = AmpEnv_Bass.Process(Gate[6]);
 734              		.loc 10 135 19 discriminator 2 view .LVU224
 735 02e6 81ED000A 		vstr.32	s0, [r1]
 736              		.loc 10 136 5 is_stmt 1 discriminator 2 view .LVU225
 737              		.loc 10 136 40 is_stmt 0 discriminator 2 view .LVU226
 738 02ea F1EE10FA 		vmrs	APSR_nzcv, FPSCR
 739 02ee 14BF     		ite	ne
 740 02f0 0121     		movne	r1, #1
 741 02f2 0021     		moveq	r1, #0
 742 02f4 FFF7FEFF 		bl	_ZN7daisysp4Adsr7ProcessEb
 743              	.LVL63:
 137:src/PianoB.cpp ****                       
 138:src/PianoB.cpp **** 
 139:src/PianoB.cpp **** //-------------------------------------------------------------------------------------------------
 140:src/PianoB.cpp ****     filt_env_Pluck1 = FilterEnv_Pluck.Process(Gate[0]);  
 744              		.loc 10 140 46 discriminator 2 view .LVU227
 745 02f8 D4ED007A 		vldr.32	s15, [r4]
 136:src/PianoB.cpp ****     amp_env_Bass2 = AmpEnv_Bass.Process(Gate[7]);
 746              		.loc 10 136 19 discriminator 2 view .LVU228
 747 02fc 3D48     		ldr	r0, .L14+216
 748              		.loc 10 140 46 discriminator 2 view .LVU229
 749 02fe F5EE407A 		vcmp.f32	s15, #0
 136:src/PianoB.cpp ****     amp_env_Bass2 = AmpEnv_Bass.Process(Gate[7]);
 750              		.loc 10 136 19 discriminator 2 view .LVU230
 751 0302 80ED000A 		vstr.32	s0, [r0]
 752              		.loc 10 140 5 is_stmt 1 discriminator 2 view .LVU231
 753              		.loc 10 140 46 is_stmt 0 discriminator 2 view .LVU232
 754 0306 3C48     		ldr	r0, .L14+220
 755 0308 F1EE10FA 		vmrs	APSR_nzcv, FPSCR
 756 030c 14BF     		ite	ne
 757 030e 0121     		movne	r1, #1
 758 0310 0021     		moveq	r1, #0
 759 0312 FFF7FEFF 		bl	_ZN7daisysp4Adsr7ProcessEb
 760              	.LVL64:
 141:src/PianoB.cpp ****     filt_env_Pluck2 = FilterEnv_Pluck.Process(Gate[1]);
 761              		.loc 10 141 46 discriminator 2 view .LVU233
 762 0316 D4ED017A 		vldr.32	s15, [r4, #4]
 763 031a 77E0     		b	.L15
 764              	.L16:
 765              		.align	2
 766              	.L14:
 767 031c 00000000 		.word	.LANCHOR40
 768 0320 00000000 		.word	.LANCHOR63
 769 0324 00000000 		.word	.LANCHOR64
 770 0328 00000000 		.word	.LANCHOR74
 771 032c 00000000 		.word	.LANCHOR0
 772 0330 00000000 		.word	.LANCHOR1
ARM GAS  C:\Users\skipi\AppData\Local\Temp\cc6PZCfi.s 			page 27


 773 0334 00000000 		.word	.LANCHOR2
 774 0338 00000000 		.word	.LANCHOR3
 775 033c 00000000 		.word	.LANCHOR4
 776 0340 00000000 		.word	.LANCHOR5
 777 0344 00000000 		.word	.LANCHOR6
 778 0348 00000000 		.word	.LANCHOR7
 779 034c 00000000 		.word	.LANCHOR8
 780 0350 00000000 		.word	.LANCHOR9
 781 0354 00000000 		.word	.LANCHOR10
 782 0358 00000000 		.word	.LANCHOR11
 783 035c 00000000 		.word	.LANCHOR12
 784 0360 00000000 		.word	.LANCHOR13
 785 0364 00000000 		.word	.LANCHOR14
 786 0368 00000000 		.word	.LANCHOR15
 787 036c 00000000 		.word	.LANCHOR16
 788 0370 00000000 		.word	.LANCHOR17
 789 0374 00000000 		.word	.LANCHOR18
 790 0378 00000000 		.word	.LANCHOR19
 791 037c 00000000 		.word	.LANCHOR20
 792 0380 00000000 		.word	.LANCHOR21
 793 0384 00000000 		.word	.LANCHOR22
 794 0388 00000000 		.word	.LANCHOR23
 795 038c 00000000 		.word	.LANCHOR24
 796 0390 00000000 		.word	.LANCHOR25
 797 0394 00000000 		.word	.LANCHOR26
 798 0398 00000000 		.word	.LANCHOR27
 799 039c 00000000 		.word	.LANCHOR28
 800 03a0 00000000 		.word	.LANCHOR29
 801 03a4 00000000 		.word	.LANCHOR30
 802 03a8 00000000 		.word	.LANCHOR31
 803 03ac 00000000 		.word	.LANCHOR32
 804 03b0 00000000 		.word	.LANCHOR33
 805 03b4 00000000 		.word	.LANCHOR34
 806 03b8 00000000 		.word	.LANCHOR35
 807 03bc 00000000 		.word	.LANCHOR36
 808 03c0 00000000 		.word	.LANCHOR37
 809 03c4 00000000 		.word	.LANCHOR38
 810 03c8 00000000 		.word	.LANCHOR39
 811 03cc 00000000 		.word	.LANCHOR41
 812 03d0 00000000 		.word	.LANCHOR42
 813 03d4 00000000 		.word	.LANCHOR43
 814 03d8 00000000 		.word	.LANCHOR44
 815 03dc 00000000 		.word	.LANCHOR45
 816 03e0 00000000 		.word	.LANCHOR46
 817 03e4 00000000 		.word	.LANCHOR47
 818 03e8 00000000 		.word	.LANCHOR48
 819 03ec 00000000 		.word	.LANCHOR49
 820 03f0 00000000 		.word	.LANCHOR50
 821 03f4 00000000 		.word	.LANCHOR51
 822 03f8 00000000 		.word	.LANCHOR52
 823 03fc 00000000 		.word	.LANCHOR53
 824 0400 00000000 		.word	.LANCHOR69
 825 0404 00000000 		.word	.LANCHOR70
 826 0408 00000000 		.word	.LANCHOR73
 827              	.L15:
 828 040c C648     		ldr	r0, .L17
 829 040e F5EE407A 		vcmp.f32	s15, #0
ARM GAS  C:\Users\skipi\AppData\Local\Temp\cc6PZCfi.s 			page 28


 140:src/PianoB.cpp ****     filt_env_Pluck2 = FilterEnv_Pluck.Process(Gate[1]);
 830              		.loc 10 140 21 discriminator 2 view .LVU234
 831 0412 8BED000A 		vstr.32	s0, [fp]
 832              		.loc 10 141 5 is_stmt 1 discriminator 2 view .LVU235
 833              		.loc 10 141 46 is_stmt 0 discriminator 2 view .LVU236
 834 0416 F1EE10FA 		vmrs	APSR_nzcv, FPSCR
 835 041a 14BF     		ite	ne
 836 041c 0121     		movne	r1, #1
 837 041e 0021     		moveq	r1, #0
 838 0420 FFF7FEFF 		bl	_ZN7daisysp4Adsr7ProcessEb
 839              	.LVL65:
 142:src/PianoB.cpp ****     filt_env_Pluck3 = FilterEnv_Pluck.Process(Gate[2]);
 840              		.loc 10 142 46 discriminator 2 view .LVU237
 841 0424 D4ED027A 		vldr.32	s15, [r4, #8]
 141:src/PianoB.cpp ****     filt_env_Pluck2 = FilterEnv_Pluck.Process(Gate[1]);
 842              		.loc 10 141 21 discriminator 2 view .LVU238
 843 0428 C04B     		ldr	r3, .L17+4
 844              		.loc 10 142 46 discriminator 2 view .LVU239
 845 042a F5EE407A 		vcmp.f32	s15, #0
 846 042e BE48     		ldr	r0, .L17
 141:src/PianoB.cpp ****     filt_env_Pluck2 = FilterEnv_Pluck.Process(Gate[1]);
 847              		.loc 10 141 21 discriminator 2 view .LVU240
 848 0430 83ED000A 		vstr.32	s0, [r3]
 849              		.loc 10 142 5 is_stmt 1 discriminator 2 view .LVU241
 850              		.loc 10 142 46 is_stmt 0 discriminator 2 view .LVU242
 851 0434 F1EE10FA 		vmrs	APSR_nzcv, FPSCR
 852 0438 14BF     		ite	ne
 853 043a 0121     		movne	r1, #1
 854 043c 0021     		moveq	r1, #0
 855 043e FFF7FEFF 		bl	_ZN7daisysp4Adsr7ProcessEb
 856              	.LVL66:
 143:src/PianoB.cpp ****     filt_env_Pluck4 = FilterEnv_Pluck.Process(Gate[3]);
 857              		.loc 10 143 46 discriminator 2 view .LVU243
 858 0442 D4ED037A 		vldr.32	s15, [r4, #12]
 142:src/PianoB.cpp ****     filt_env_Pluck3 = FilterEnv_Pluck.Process(Gate[2]);
 859              		.loc 10 142 21 discriminator 2 view .LVU244
 860 0446 BA4A     		ldr	r2, .L17+8
 861              		.loc 10 143 46 discriminator 2 view .LVU245
 862 0448 F5EE407A 		vcmp.f32	s15, #0
 863 044c B648     		ldr	r0, .L17
 142:src/PianoB.cpp ****     filt_env_Pluck3 = FilterEnv_Pluck.Process(Gate[2]);
 864              		.loc 10 142 21 discriminator 2 view .LVU246
 865 044e 82ED000A 		vstr.32	s0, [r2]
 866              		.loc 10 143 5 is_stmt 1 discriminator 2 view .LVU247
 867              		.loc 10 143 46 is_stmt 0 discriminator 2 view .LVU248
 868 0452 F1EE10FA 		vmrs	APSR_nzcv, FPSCR
 869 0456 14BF     		ite	ne
 870 0458 0121     		movne	r1, #1
 871 045a 0021     		moveq	r1, #0
 872 045c FFF7FEFF 		bl	_ZN7daisysp4Adsr7ProcessEb
 873              	.LVL67:
 144:src/PianoB.cpp ****     filt_env_Pad1 = FilterEnv_Pad.Process(Gate[4]);
 874              		.loc 10 144 42 discriminator 2 view .LVU249
 875 0460 D4ED047A 		vldr.32	s15, [r4, #16]
 143:src/PianoB.cpp ****     filt_env_Pluck4 = FilterEnv_Pluck.Process(Gate[3]);
 876              		.loc 10 143 21 discriminator 2 view .LVU250
 877 0464 B349     		ldr	r1, .L17+12
ARM GAS  C:\Users\skipi\AppData\Local\Temp\cc6PZCfi.s 			page 29


 878              		.loc 10 144 42 discriminator 2 view .LVU251
 879 0466 F5EE407A 		vcmp.f32	s15, #0
 880 046a B348     		ldr	r0, .L17+16
 143:src/PianoB.cpp ****     filt_env_Pluck4 = FilterEnv_Pluck.Process(Gate[3]);
 881              		.loc 10 143 21 discriminator 2 view .LVU252
 882 046c 81ED000A 		vstr.32	s0, [r1]
 883              		.loc 10 144 5 is_stmt 1 discriminator 2 view .LVU253
 884              		.loc 10 144 42 is_stmt 0 discriminator 2 view .LVU254
 885 0470 F1EE10FA 		vmrs	APSR_nzcv, FPSCR
 886 0474 14BF     		ite	ne
 887 0476 0121     		movne	r1, #1
 888 0478 0021     		moveq	r1, #0
 889 047a FFF7FEFF 		bl	_ZN7daisysp4Adsr7ProcessEb
 890              	.LVL68:
 145:src/PianoB.cpp ****     filt_env_Pad2 = FilterEnv_Pad.Process(Gate[5]);
 891              		.loc 10 145 42 discriminator 2 view .LVU255
 892 047e D4ED057A 		vldr.32	s15, [r4, #20]
 144:src/PianoB.cpp ****     filt_env_Pad1 = FilterEnv_Pad.Process(Gate[4]);
 893              		.loc 10 144 19 discriminator 2 view .LVU256
 894 0482 AE48     		ldr	r0, .L17+20
 895              		.loc 10 145 42 discriminator 2 view .LVU257
 896 0484 F5EE407A 		vcmp.f32	s15, #0
 144:src/PianoB.cpp ****     filt_env_Pad1 = FilterEnv_Pad.Process(Gate[4]);
 897              		.loc 10 144 19 discriminator 2 view .LVU258
 898 0488 80ED000A 		vstr.32	s0, [r0]
 899              		.loc 10 145 5 is_stmt 1 discriminator 2 view .LVU259
 900              		.loc 10 145 42 is_stmt 0 discriminator 2 view .LVU260
 901 048c AA48     		ldr	r0, .L17+16
 902 048e F1EE10FA 		vmrs	APSR_nzcv, FPSCR
 903 0492 14BF     		ite	ne
 904 0494 0121     		movne	r1, #1
 905 0496 0021     		moveq	r1, #0
 906 0498 FFF7FEFF 		bl	_ZN7daisysp4Adsr7ProcessEb
 907              	.LVL69:
 146:src/PianoB.cpp ****     filt_env_Bass1 = FilterEnv_Bass.Process(Gate[6]);
 908              		.loc 10 146 44 discriminator 2 view .LVU261
 909 049c D4ED067A 		vldr.32	s15, [r4, #24]
 145:src/PianoB.cpp ****     filt_env_Pad2 = FilterEnv_Pad.Process(Gate[5]);
 910              		.loc 10 145 19 discriminator 2 view .LVU262
 911 04a0 A74B     		ldr	r3, .L17+24
 912              		.loc 10 146 44 discriminator 2 view .LVU263
 913 04a2 F5EE407A 		vcmp.f32	s15, #0
 914 04a6 A748     		ldr	r0, .L17+28
 145:src/PianoB.cpp ****     filt_env_Pad2 = FilterEnv_Pad.Process(Gate[5]);
 915              		.loc 10 145 19 discriminator 2 view .LVU264
 916 04a8 83ED000A 		vstr.32	s0, [r3]
 917              		.loc 10 146 5 is_stmt 1 discriminator 2 view .LVU265
 918              		.loc 10 146 44 is_stmt 0 discriminator 2 view .LVU266
 919 04ac F1EE10FA 		vmrs	APSR_nzcv, FPSCR
 920 04b0 14BF     		ite	ne
 921 04b2 0121     		movne	r1, #1
 922 04b4 0021     		moveq	r1, #0
 923 04b6 FFF7FEFF 		bl	_ZN7daisysp4Adsr7ProcessEb
 924              	.LVL70:
 147:src/PianoB.cpp ****     filt_env_Bass2 = FilterEnv_Bass.Process(Gate[7]);                               
 925              		.loc 10 147 44 discriminator 2 view .LVU267
 926 04ba D4ED077A 		vldr.32	s15, [r4, #28]
ARM GAS  C:\Users\skipi\AppData\Local\Temp\cc6PZCfi.s 			page 30


 146:src/PianoB.cpp ****     filt_env_Bass1 = FilterEnv_Bass.Process(Gate[6]);
 927              		.loc 10 146 20 discriminator 2 view .LVU268
 928 04be A24A     		ldr	r2, .L17+32
 929              		.loc 10 147 44 discriminator 2 view .LVU269
 930 04c0 F5EE407A 		vcmp.f32	s15, #0
 931 04c4 9F48     		ldr	r0, .L17+28
 146:src/PianoB.cpp ****     filt_env_Bass1 = FilterEnv_Bass.Process(Gate[6]);
 932              		.loc 10 146 20 discriminator 2 view .LVU270
 933 04c6 82ED000A 		vstr.32	s0, [r2]
 934              		.loc 10 147 5 is_stmt 1 discriminator 2 view .LVU271
 935              		.loc 10 147 44 is_stmt 0 discriminator 2 view .LVU272
 936 04ca F1EE10FA 		vmrs	APSR_nzcv, FPSCR
 937 04ce 14BF     		ite	ne
 938 04d0 0121     		movne	r1, #1
 939 04d2 0021     		moveq	r1, #0
 940 04d4 FFF7FEFF 		bl	_ZN7daisysp4Adsr7ProcessEb
 941              	.LVL71:
 942              		.loc 10 147 20 discriminator 2 view .LVU273
 943 04d8 9C49     		ldr	r1, .L17+36
 148:src/PianoB.cpp **** //-------------------------------------------------------------------------------------------------
 149:src/PianoB.cpp ****     filter_Pluck1.SetFreq(ft_pluck - filt_env_Pluck1*f_EG_pluck);
 944              		.loc 10 149 26 discriminator 2 view .LVU274
 945 04da 9BED007A 		vldr.32	s14, [fp]
 147:src/PianoB.cpp ****     filt_env_Bass2 = FilterEnv_Bass.Process(Gate[7]);                               
 946              		.loc 10 147 20 discriminator 2 view .LVU275
 947 04de 81ED000A 		vstr.32	s0, [r1]
 948              		.loc 10 149 5 is_stmt 1 discriminator 2 view .LVU276
 949              		.loc 10 149 26 is_stmt 0 discriminator 2 view .LVU277
 950 04e2 D6ED007A 		vldr.32	s15, [r6]
 951 04e6 95ED000A 		vldr.32	s0, [r5]
 952 04ea 9948     		ldr	r0, .L17+40
 953 04ec A7EE670A 		vfms.f32	s0, s14, s15
 954 04f0 FFF7FEFF 		bl	_ZN7daisysp3Svf7SetFreqEf
 955              	.LVL72:
 150:src/PianoB.cpp ****     filter_Pluck2.SetFreq(ft_pluck - filt_env_Pluck2*f_EG_pluck);
 956              		.loc 10 150 5 is_stmt 1 discriminator 2 view .LVU278
 957              		.loc 10 150 26 is_stmt 0 discriminator 2 view .LVU279
 958 04f4 8D4B     		ldr	r3, .L17+4
 959 04f6 D6ED007A 		vldr.32	s15, [r6]
 960 04fa 93ED007A 		vldr.32	s14, [r3]
 961 04fe 95ED000A 		vldr.32	s0, [r5]
 962 0502 9448     		ldr	r0, .L17+44
 963 0504 A7EE670A 		vfms.f32	s0, s14, s15
 964 0508 FFF7FEFF 		bl	_ZN7daisysp3Svf7SetFreqEf
 965              	.LVL73:
 151:src/PianoB.cpp ****     filter_Pluck3.SetFreq(ft_pluck - filt_env_Pluck3*f_EG_pluck);
 966              		.loc 10 151 5 is_stmt 1 discriminator 2 view .LVU280
 967              		.loc 10 151 26 is_stmt 0 discriminator 2 view .LVU281
 968 050c 884A     		ldr	r2, .L17+8
 969 050e D6ED007A 		vldr.32	s15, [r6]
 970 0512 92ED007A 		vldr.32	s14, [r2]
 971 0516 95ED000A 		vldr.32	s0, [r5]
 972 051a 8F48     		ldr	r0, .L17+48
 973 051c A7EE670A 		vfms.f32	s0, s14, s15
 974 0520 FFF7FEFF 		bl	_ZN7daisysp3Svf7SetFreqEf
 975              	.LVL74:
 152:src/PianoB.cpp ****     filter_Pluck4.SetFreq(ft_pluck - filt_env_Pluck4*f_EG_pluck);
ARM GAS  C:\Users\skipi\AppData\Local\Temp\cc6PZCfi.s 			page 31


 976              		.loc 10 152 5 is_stmt 1 discriminator 2 view .LVU282
 977              		.loc 10 152 26 is_stmt 0 discriminator 2 view .LVU283
 978 0524 8349     		ldr	r1, .L17+12
 979 0526 D6ED007A 		vldr.32	s15, [r6]
 980 052a 91ED007A 		vldr.32	s14, [r1]
 981 052e 95ED000A 		vldr.32	s0, [r5]
 982 0532 8A48     		ldr	r0, .L17+52
 983 0534 A7EE670A 		vfms.f32	s0, s14, s15
 984 0538 FFF7FEFF 		bl	_ZN7daisysp3Svf7SetFreqEf
 985              	.LVL75:
 153:src/PianoB.cpp ****     filter_Bass1.SetFreq(ft_bass + filt_env_Bass1*f_EG_bass);                            
 986              		.loc 10 153 5 is_stmt 1 discriminator 2 view .LVU284
 987              		.loc 10 153 25 is_stmt 0 discriminator 2 view .LVU285
 988 053c 824A     		ldr	r2, .L17+32
 989 053e DAED007A 		vldr.32	s15, [r10]
 990 0542 92ED007A 		vldr.32	s14, [r2]
 991 0546 99ED000A 		vldr.32	s0, [r9]
 992 054a 8548     		ldr	r0, .L17+56
 993 054c A7EE270A 		vfma.f32	s0, s14, s15
 994 0550 FFF7FEFF 		bl	_ZN7daisysp3Svf7SetFreqEf
 995              	.LVL76:
 154:src/PianoB.cpp ****     filter_Bass2.SetFreq(ft_bass + filt_env_Bass2*f_EG_bass);
 996              		.loc 10 154 5 is_stmt 1 discriminator 2 view .LVU286
 997              		.loc 10 154 25 is_stmt 0 discriminator 2 view .LVU287
 998 0554 7D49     		ldr	r1, .L17+36
 999 0556 DAED007A 		vldr.32	s15, [r10]
 1000 055a 91ED007A 		vldr.32	s14, [r1]
 1001 055e 99ED000A 		vldr.32	s0, [r9]
 1002 0562 8048     		ldr	r0, .L17+60
 1003 0564 A7EE270A 		vfma.f32	s0, s14, s15
 1004 0568 FFF7FEFF 		bl	_ZN7daisysp3Svf7SetFreqEf
 1005              	.LVL77:
 155:src/PianoB.cpp ****     filter_Pad1.SetFreq(ft_pad + filt_env_Pad1*f_EG_pad);
 1006              		.loc 10 155 5 is_stmt 1 discriminator 2 view .LVU288
 1007              		.loc 10 155 24 is_stmt 0 discriminator 2 view .LVU289
 1008 056c 7348     		ldr	r0, .L17+20
 1009 056e D8ED007A 		vldr.32	s15, [r8]
 1010 0572 90ED007A 		vldr.32	s14, [r0]
 1011 0576 97ED000A 		vldr.32	s0, [r7]
 1012 057a 7B48     		ldr	r0, .L17+64
 1013 057c A7EE270A 		vfma.f32	s0, s14, s15
 1014 0580 FFF7FEFF 		bl	_ZN7daisysp3Svf7SetFreqEf
 1015              	.LVL78:
 156:src/PianoB.cpp ****     filter_Pad2.SetFreq(ft_pad + filt_env_Pad2*f_EG_pad);                               
 1016              		.loc 10 156 5 is_stmt 1 discriminator 2 view .LVU290
 1017              		.loc 10 156 24 is_stmt 0 discriminator 2 view .LVU291
 1018 0584 6E4B     		ldr	r3, .L17+24
 1019 0586 D8ED007A 		vldr.32	s15, [r8]
 1020 058a 93ED007A 		vldr.32	s14, [r3]
 1021 058e 97ED000A 		vldr.32	s0, [r7]
 1022 0592 7648     		ldr	r0, .L17+68
 1023 0594 A7EE270A 		vfma.f32	s0, s14, s15
 1024 0598 FFF7FEFF 		bl	_ZN7daisysp3Svf7SetFreqEf
 1025              	.LVL79:
 157:src/PianoB.cpp **** //-------------------------------------------------------------------------------------------------
 158:src/PianoB.cpp ****     Pluck1.SetGain(amp_env_Pluck1); 
 1026              		.loc 10 158 5 is_stmt 1 discriminator 2 view .LVU292
ARM GAS  C:\Users\skipi\AppData\Local\Temp\cc6PZCfi.s 			page 32


 1027              		.loc 10 158 19 is_stmt 0 discriminator 2 view .LVU293
 1028 059c 744B     		ldr	r3, .L17+72
 1029 059e 7548     		ldr	r0, .L17+76
 1030 05a0 93ED000A 		vldr.32	s0, [r3]
 1031 05a4 FFF7FEFF 		bl	_ZN4Ramo7SetGainEf
 1032              	.LVL80:
 159:src/PianoB.cpp ****     Pluck2.SetGain(amp_env_Pluck2);
 1033              		.loc 10 159 5 is_stmt 1 discriminator 2 view .LVU294
 1034              		.loc 10 159 19 is_stmt 0 discriminator 2 view .LVU295
 1035 05a8 734A     		ldr	r2, .L17+80
 1036 05aa 7448     		ldr	r0, .L17+84
 1037 05ac 92ED000A 		vldr.32	s0, [r2]
 1038 05b0 FFF7FEFF 		bl	_ZN4Ramo7SetGainEf
 1039              	.LVL81:
 160:src/PianoB.cpp ****     Pluck3.SetGain(amp_env_Pluck3);
 1040              		.loc 10 160 5 is_stmt 1 discriminator 2 view .LVU296
 1041              		.loc 10 160 19 is_stmt 0 discriminator 2 view .LVU297
 1042 05b4 7249     		ldr	r1, .L17+88
 1043 05b6 7348     		ldr	r0, .L17+92
 1044 05b8 91ED000A 		vldr.32	s0, [r1]
 1045 05bc FFF7FEFF 		bl	_ZN4Ramo7SetGainEf
 1046              	.LVL82:
 161:src/PianoB.cpp ****     Pluck4.SetGain(amp_env_Pluck4);
 1047              		.loc 10 161 5 is_stmt 1 discriminator 2 view .LVU298
 1048              		.loc 10 161 19 is_stmt 0 discriminator 2 view .LVU299
 1049 05c0 7148     		ldr	r0, .L17+96
 1050 05c2 90ED000A 		vldr.32	s0, [r0]
 1051 05c6 7148     		ldr	r0, .L17+100
 1052 05c8 FFF7FEFF 		bl	_ZN4Ramo7SetGainEf
 1053              	.LVL83:
 162:src/PianoB.cpp ****     Bass1.SetGain(amp_env_Bass1);
 1054              		.loc 10 162 5 is_stmt 1 discriminator 2 view .LVU300
 1055              		.loc 10 162 18 is_stmt 0 discriminator 2 view .LVU301
 1056 05cc 7049     		ldr	r1, .L17+104
 1057 05ce 7148     		ldr	r0, .L17+108
 1058 05d0 91ED000A 		vldr.32	s0, [r1]
 1059 05d4 FFF7FEFF 		bl	_ZN4Ramo7SetGainEf
 1060              	.LVL84:
 163:src/PianoB.cpp ****     Bass2.SetGain(amp_env_Bass2);
 1061              		.loc 10 163 5 is_stmt 1 discriminator 2 view .LVU302
 1062              		.loc 10 163 18 is_stmt 0 discriminator 2 view .LVU303
 1063 05d8 6F48     		ldr	r0, .L17+112
 1064 05da 90ED000A 		vldr.32	s0, [r0]
 1065 05de 6F48     		ldr	r0, .L17+116
 1066 05e0 FFF7FEFF 		bl	_ZN4Ramo7SetGainEf
 1067              	.LVL85:
 164:src/PianoB.cpp ****     Pad1.SetGain(amp_env_Pad1);
 1068              		.loc 10 164 5 is_stmt 1 discriminator 2 view .LVU304
 1069              		.loc 10 164 17 is_stmt 0 discriminator 2 view .LVU305
 1070 05e4 6E4B     		ldr	r3, .L17+120
 1071 05e6 6F48     		ldr	r0, .L17+124
 1072 05e8 93ED000A 		vldr.32	s0, [r3]
 1073 05ec FFF7FEFF 		bl	_ZN4Ramo7SetGainEf
 1074              	.LVL86:
 165:src/PianoB.cpp ****     Pad2.SetGain(amp_env_Pad2);                                    
 1075              		.loc 10 165 5 is_stmt 1 discriminator 2 view .LVU306
 1076              		.loc 10 165 17 is_stmt 0 discriminator 2 view .LVU307
ARM GAS  C:\Users\skipi\AppData\Local\Temp\cc6PZCfi.s 			page 33


 1077 05f0 6D4A     		ldr	r2, .L17+128
 1078 05f2 6E48     		ldr	r0, .L17+132
 1079 05f4 92ED000A 		vldr.32	s0, [r2]
 1080 05f8 FFF7FEFF 		bl	_ZN4Ramo7SetGainEf
 1081              	.LVL87:
 166:src/PianoB.cpp ****                                      
 167:src/PianoB.cpp **** //-------------------------------------------------------------------------------------------------
 168:src/PianoB.cpp ****     Raw_Pluck1 = Pluck1.Process();
 1082              		.loc 10 168 5 is_stmt 1 discriminator 2 view .LVU308
 1083              		.loc 10 168 32 is_stmt 0 discriminator 2 view .LVU309
 1084 05fc 5D48     		ldr	r0, .L17+76
 1085 05fe FFF7FEFF 		bl	_ZN4Ramo7ProcessEv
 1086              	.LVL88:
 1087              		.loc 10 168 16 discriminator 2 view .LVU310
 1088 0602 6B4B     		ldr	r3, .L17+136
 169:src/PianoB.cpp ****     Raw_Pluck2 = Pluck2.Process();
 1089              		.loc 10 169 32 discriminator 2 view .LVU311
 1090 0604 5D48     		ldr	r0, .L17+84
 168:src/PianoB.cpp ****     Raw_Pluck2 = Pluck2.Process();
 1091              		.loc 10 168 16 discriminator 2 view .LVU312
 1092 0606 83ED000A 		vstr.32	s0, [r3]
 1093              		.loc 10 169 5 is_stmt 1 discriminator 2 view .LVU313
 1094              		.loc 10 169 32 is_stmt 0 discriminator 2 view .LVU314
 1095 060a FFF7FEFF 		bl	_ZN4Ramo7ProcessEv
 1096              	.LVL89:
 1097              		.loc 10 169 16 discriminator 2 view .LVU315
 1098 060e 694A     		ldr	r2, .L17+140
 170:src/PianoB.cpp ****     Raw_Pluck3 = Pluck3.Process();
 1099              		.loc 10 170 32 discriminator 2 view .LVU316
 1100 0610 5C48     		ldr	r0, .L17+92
 169:src/PianoB.cpp ****     Raw_Pluck2 = Pluck2.Process();
 1101              		.loc 10 169 16 discriminator 2 view .LVU317
 1102 0612 82ED000A 		vstr.32	s0, [r2]
 1103              		.loc 10 170 5 is_stmt 1 discriminator 2 view .LVU318
 1104              		.loc 10 170 32 is_stmt 0 discriminator 2 view .LVU319
 1105 0616 FFF7FEFF 		bl	_ZN4Ramo7ProcessEv
 1106              	.LVL90:
 1107              		.loc 10 170 16 discriminator 2 view .LVU320
 1108 061a 6749     		ldr	r1, .L17+144
 171:src/PianoB.cpp ****     Raw_Pluck4 = Pluck4.Process();
 1109              		.loc 10 171 32 discriminator 2 view .LVU321
 1110 061c 5B48     		ldr	r0, .L17+100
 170:src/PianoB.cpp ****     Raw_Pluck3 = Pluck3.Process();
 1111              		.loc 10 170 16 discriminator 2 view .LVU322
 1112 061e 81ED000A 		vstr.32	s0, [r1]
 1113              		.loc 10 171 5 is_stmt 1 discriminator 2 view .LVU323
 1114              		.loc 10 171 32 is_stmt 0 discriminator 2 view .LVU324
 1115 0622 FFF7FEFF 		bl	_ZN4Ramo7ProcessEv
 1116              	.LVL91:
 1117              		.loc 10 171 16 discriminator 2 view .LVU325
 1118 0626 6548     		ldr	r0, .L17+148
 1119 0628 80ED000A 		vstr.32	s0, [r0]
 172:src/PianoB.cpp ****     Raw_Bass1 = Bass1.Process();
 1120              		.loc 10 172 5 is_stmt 1 discriminator 2 view .LVU326
 1121              		.loc 10 172 30 is_stmt 0 discriminator 2 view .LVU327
 1122 062c 5948     		ldr	r0, .L17+108
 1123 062e FFF7FEFF 		bl	_ZN4Ramo7ProcessEv
ARM GAS  C:\Users\skipi\AppData\Local\Temp\cc6PZCfi.s 			page 34


 1124              	.LVL92:
 1125              		.loc 10 172 15 discriminator 2 view .LVU328
 1126 0632 634B     		ldr	r3, .L17+152
 173:src/PianoB.cpp ****     Raw_Bass2 = Bass2.Process();
 1127              		.loc 10 173 30 discriminator 2 view .LVU329
 1128 0634 5948     		ldr	r0, .L17+116
 172:src/PianoB.cpp ****     Raw_Bass1 = Bass1.Process();
 1129              		.loc 10 172 15 discriminator 2 view .LVU330
 1130 0636 83ED000A 		vstr.32	s0, [r3]
 1131              		.loc 10 173 5 is_stmt 1 discriminator 2 view .LVU331
 1132              		.loc 10 173 30 is_stmt 0 discriminator 2 view .LVU332
 1133 063a FFF7FEFF 		bl	_ZN4Ramo7ProcessEv
 1134              	.LVL93:
 1135              		.loc 10 173 15 discriminator 2 view .LVU333
 1136 063e 614A     		ldr	r2, .L17+156
 174:src/PianoB.cpp ****     Raw_Pad1 = Pad1.Process();
 1137              		.loc 10 174 28 discriminator 2 view .LVU334
 1138 0640 5848     		ldr	r0, .L17+124
 173:src/PianoB.cpp ****     Raw_Bass2 = Bass2.Process();
 1139              		.loc 10 173 15 discriminator 2 view .LVU335
 1140 0642 82ED000A 		vstr.32	s0, [r2]
 1141              		.loc 10 174 5 is_stmt 1 discriminator 2 view .LVU336
 1142              		.loc 10 174 28 is_stmt 0 discriminator 2 view .LVU337
 1143 0646 FFF7FEFF 		bl	_ZN4Ramo7ProcessEv
 1144              	.LVL94:
 1145              		.loc 10 174 14 discriminator 2 view .LVU338
 1146 064a 5F49     		ldr	r1, .L17+160
 175:src/PianoB.cpp ****     Raw_Pad2 = Pad2.Process();
 1147              		.loc 10 175 28 discriminator 2 view .LVU339
 1148 064c 5748     		ldr	r0, .L17+132
 174:src/PianoB.cpp ****     Raw_Pad1 = Pad1.Process();
 1149              		.loc 10 174 14 discriminator 2 view .LVU340
 1150 064e 81ED000A 		vstr.32	s0, [r1]
 1151              		.loc 10 175 5 is_stmt 1 discriminator 2 view .LVU341
 1152              		.loc 10 175 28 is_stmt 0 discriminator 2 view .LVU342
 1153 0652 FFF7FEFF 		bl	_ZN4Ramo7ProcessEv
 1154              	.LVL95:
 176:src/PianoB.cpp ****    
 177:src/PianoB.cpp **** //-------------------------------------------------------------------------------------------------
 178:src/PianoB.cpp ****     filter_Pluck1.Process(Raw_Pluck1);
 1155              		.loc 10 178 26 discriminator 2 view .LVU343
 1156 0656 564B     		ldr	r3, .L17+136
 175:src/PianoB.cpp ****     Raw_Pad2 = Pad2.Process();
 1157              		.loc 10 175 14 discriminator 2 view .LVU344
 1158 0658 5C48     		ldr	r0, .L17+164
 1159 065a 80ED000A 		vstr.32	s0, [r0]
 1160              		.loc 10 178 5 is_stmt 1 discriminator 2 view .LVU345
 1161              		.loc 10 178 26 is_stmt 0 discriminator 2 view .LVU346
 1162 065e 93ED000A 		vldr.32	s0, [r3]
 1163 0662 3B48     		ldr	r0, .L17+40
 1164 0664 FFF7FEFF 		bl	_ZN7daisysp3Svf7ProcessEf
 1165              	.LVL96:
 179:src/PianoB.cpp ****     filter_Pluck2.Process(Raw_Pluck2);
 1166              		.loc 10 179 5 is_stmt 1 discriminator 2 view .LVU347
 1167              		.loc 10 179 26 is_stmt 0 discriminator 2 view .LVU348
 1168 0668 524A     		ldr	r2, .L17+140
 1169 066a 3A48     		ldr	r0, .L17+44
ARM GAS  C:\Users\skipi\AppData\Local\Temp\cc6PZCfi.s 			page 35


 1170 066c 92ED000A 		vldr.32	s0, [r2]
 1171 0670 FFF7FEFF 		bl	_ZN7daisysp3Svf7ProcessEf
 1172              	.LVL97:
 180:src/PianoB.cpp ****     filter_Pluck3.Process(Raw_Pluck3);
 1173              		.loc 10 180 5 is_stmt 1 discriminator 2 view .LVU349
 1174              		.loc 10 180 26 is_stmt 0 discriminator 2 view .LVU350
 1175 0674 5049     		ldr	r1, .L17+144
 1176 0676 3848     		ldr	r0, .L17+48
 1177 0678 91ED000A 		vldr.32	s0, [r1]
 1178 067c FFF7FEFF 		bl	_ZN7daisysp3Svf7ProcessEf
 1179              	.LVL98:
 181:src/PianoB.cpp ****     filter_Pluck4.Process(Raw_Pluck4);
 1180              		.loc 10 181 5 is_stmt 1 discriminator 2 view .LVU351
 1181              		.loc 10 181 26 is_stmt 0 discriminator 2 view .LVU352
 1182 0680 4E48     		ldr	r0, .L17+148
 1183 0682 90ED000A 		vldr.32	s0, [r0]
 1184 0686 3548     		ldr	r0, .L17+52
 1185 0688 FFF7FEFF 		bl	_ZN7daisysp3Svf7ProcessEf
 1186              	.LVL99:
 182:src/PianoB.cpp ****     filter_Bass1.Process(Raw_Bass1);
 1187              		.loc 10 182 5 is_stmt 1 discriminator 2 view .LVU353
 1188              		.loc 10 182 25 is_stmt 0 discriminator 2 view .LVU354
 1189 068c 4C4B     		ldr	r3, .L17+152
 1190 068e 3448     		ldr	r0, .L17+56
 1191 0690 93ED000A 		vldr.32	s0, [r3]
 1192 0694 FFF7FEFF 		bl	_ZN7daisysp3Svf7ProcessEf
 1193              	.LVL100:
 183:src/PianoB.cpp ****     filter_Bass2.Process(Raw_Bass2);
 1194              		.loc 10 183 5 is_stmt 1 discriminator 2 view .LVU355
 1195              		.loc 10 183 25 is_stmt 0 discriminator 2 view .LVU356
 1196 0698 4A4A     		ldr	r2, .L17+156
 1197 069a 3248     		ldr	r0, .L17+60
 1198 069c 92ED000A 		vldr.32	s0, [r2]
 1199 06a0 FFF7FEFF 		bl	_ZN7daisysp3Svf7ProcessEf
 1200              	.LVL101:
 184:src/PianoB.cpp ****     filter_Pad1.Process(Raw_Pad1);
 1201              		.loc 10 184 5 is_stmt 1 discriminator 2 view .LVU357
 1202              		.loc 10 184 24 is_stmt 0 discriminator 2 view .LVU358
 1203 06a4 4849     		ldr	r1, .L17+160
 1204 06a6 3048     		ldr	r0, .L17+64
 1205 06a8 91ED000A 		vldr.32	s0, [r1]
 1206 06ac FFF7FEFF 		bl	_ZN7daisysp3Svf7ProcessEf
 1207              	.LVL102:
 185:src/PianoB.cpp ****     filter_Pad2.Process(Raw_Pad2);
 1208              		.loc 10 185 5 is_stmt 1 discriminator 2 view .LVU359
 1209              		.loc 10 185 24 is_stmt 0 discriminator 2 view .LVU360
 1210 06b0 4648     		ldr	r0, .L17+164
 1211 06b2 90ED000A 		vldr.32	s0, [r0]
 1212 06b6 2D48     		ldr	r0, .L17+68
 1213 06b8 FFF7FEFF 		bl	_ZN7daisysp3Svf7ProcessEf
 1214              	.LVL103:
 186:src/PianoB.cpp **** 
 187:src/PianoB.cpp **** //-------------------------------------------------------------------------------------------------
 188:src/PianoB.cpp ****     out_noFX = (filter_Pluck1.Low() + filter_Pluck2.Low() + filter_Pluck3.Low() + filter_Pluck4.Low
 1215              		.loc 10 188 5 is_stmt 1 discriminator 2 view .LVU361
 1216              	.LBB502:
 1217              	.LBI502:
ARM GAS  C:\Users\skipi\AppData\Local\Temp\cc6PZCfi.s 			page 36


  31:../libs/DaisySP/Source/Filters/svf.h ****     /** Initializes the filter
  32:../libs/DaisySP/Source/Filters/svf.h ****         float sample_rate - sample rate of the audio engine being run, and the frequency that the P
  33:../libs/DaisySP/Source/Filters/svf.h ****     */
  34:../libs/DaisySP/Source/Filters/svf.h ****     void Init(float sample_rate);
  35:../libs/DaisySP/Source/Filters/svf.h **** 
  36:../libs/DaisySP/Source/Filters/svf.h **** 
  37:../libs/DaisySP/Source/Filters/svf.h ****     /** 
  38:../libs/DaisySP/Source/Filters/svf.h ****         Process the input signal, updating all of the outputs.
  39:../libs/DaisySP/Source/Filters/svf.h ****     */
  40:../libs/DaisySP/Source/Filters/svf.h ****     void Process(float in);
  41:../libs/DaisySP/Source/Filters/svf.h **** 
  42:../libs/DaisySP/Source/Filters/svf.h **** 
  43:../libs/DaisySP/Source/Filters/svf.h ****     /** sets the frequency of the cutoff frequency. 
  44:../libs/DaisySP/Source/Filters/svf.h ****         f must be between 0.0 and sample_rate / 3
  45:../libs/DaisySP/Source/Filters/svf.h ****     */
  46:../libs/DaisySP/Source/Filters/svf.h ****     void SetFreq(float f);
  47:../libs/DaisySP/Source/Filters/svf.h **** 
  48:../libs/DaisySP/Source/Filters/svf.h ****     /** sets the resonance of the filter.
  49:../libs/DaisySP/Source/Filters/svf.h ****         Must be between 0.0 and 1.0 to ensure stability.
  50:../libs/DaisySP/Source/Filters/svf.h ****     */
  51:../libs/DaisySP/Source/Filters/svf.h ****     void SetRes(float r);
  52:../libs/DaisySP/Source/Filters/svf.h **** 
  53:../libs/DaisySP/Source/Filters/svf.h ****     /** sets the drive of the filter 
  54:../libs/DaisySP/Source/Filters/svf.h ****         affects the response of the resonance of the filter
  55:../libs/DaisySP/Source/Filters/svf.h ****     */
  56:../libs/DaisySP/Source/Filters/svf.h ****     void SetDrive(float d);
  57:../libs/DaisySP/Source/Filters/svf.h ****     /** lowpass output
  58:../libs/DaisySP/Source/Filters/svf.h ****         \return low pass output of the filter
  59:../libs/DaisySP/Source/Filters/svf.h ****     */
  60:../libs/DaisySP/Source/Filters/svf.h ****     inline float Low() { return out_low_; }
 1218              		.loc 9 60 18 discriminator 2 view .LVU362
 1219              	.LBB503:
 1220              		.loc 9 60 26 discriminator 2 view .LVU363
 1221              		.loc 9 60 26 is_stmt 0 discriminator 2 view .LVU364
 1222              	.LBE503:
 1223              	.LBE502:
 1224              	.LBB504:
 1225              	.LBI504:
 1226              		.loc 9 60 18 is_stmt 1 discriminator 2 view .LVU365
 1227              	.LBB505:
 1228              		.loc 9 60 26 discriminator 2 view .LVU366
 1229              		.loc 9 60 26 is_stmt 0 discriminator 2 view .LVU367
 1230              	.LBE505:
 1231              	.LBE504:
 1232              	.LBB506:
 1233              	.LBI506:
 1234              		.loc 9 60 18 is_stmt 1 discriminator 2 view .LVU368
 1235              	.LBB507:
 1236              		.loc 9 60 26 discriminator 2 view .LVU369
 1237              		.loc 9 60 26 is_stmt 0 discriminator 2 view .LVU370
 1238              	.LBE507:
 1239              	.LBE506:
 1240              	.LBB508:
 1241              	.LBI508:
 1242              		.loc 9 60 18 is_stmt 1 discriminator 2 view .LVU371
 1243              	.LBB509:
 1244              		.loc 9 60 26 discriminator 2 view .LVU372
ARM GAS  C:\Users\skipi\AppData\Local\Temp\cc6PZCfi.s 			page 37


 1245              		.loc 9 60 26 is_stmt 0 discriminator 2 view .LVU373
 1246              	.LBE509:
 1247              	.LBE508:
 1248              	.LBB510:
 1249              	.LBI510:
 1250              		.loc 9 60 18 is_stmt 1 discriminator 2 view .LVU374
 1251              	.LBB511:
 1252              		.loc 9 60 26 discriminator 2 view .LVU375
 1253              		.loc 9 60 26 is_stmt 0 discriminator 2 view .LVU376
 1254              	.LBE511:
 1255              	.LBE510:
 1256              	.LBB512:
 1257              	.LBI512:
 1258              		.loc 9 60 18 is_stmt 1 discriminator 2 view .LVU377
 1259              	.LBB513:
 1260              		.loc 9 60 26 discriminator 2 view .LVU378
 1261              		.loc 9 60 26 is_stmt 0 discriminator 2 view .LVU379
 1262              	.LBE513:
 1263              	.LBE512:
 1264              		.loc 10 188 37 discriminator 2 view .LVU380
 1265 06bc 244B     		ldr	r3, .L17+40
 189:src/PianoB.cpp ****                 + (filter_Pad1.Low() + filter_Pad2.Low())*mix_amp_Pad +
 190:src/PianoB.cpp ****                 + (filter_Bass1.Low() + filter_Bass2.Low())*mix_amp_Bass; 
 191:src/PianoB.cpp **** //-------------------------------------------------------------------------------------------------
 192:src/PianoB.cpp ****     //float out_FX = delay.Process(out_noFX); // Process the output signal with the delay effect
 193:src/PianoB.cpp **** 
 194:src/PianoB.cpp **** //-------------------------------------------------------------------------------------------------
 195:src/PianoB.cpp ****         out[0][i] = out_noFX;                                         // Output processed signal (l
 1266              		.loc 10 195 19 discriminator 2 view .LVU381
 1267 06be 029A     		ldr	r2, [sp, #8]
 188:src/PianoB.cpp ****                 + (filter_Pad1.Low() + filter_Pad2.Low())*mix_amp_Pad +
 1268              		.loc 10 188 37 discriminator 2 view .LVU382
 1269 06c0 93ED0C7A 		vldr.32	s14, [r3, #48]
 1270 06c4 234B     		ldr	r3, .L17+44
 1271              		.loc 10 195 19 discriminator 2 view .LVU383
 1272 06c6 1168     		ldr	r1, [r2]
 188:src/PianoB.cpp ****                 + (filter_Pad1.Low() + filter_Pad2.Low())*mix_amp_Pad +
 1273              		.loc 10 188 37 discriminator 2 view .LVU384
 1274 06c8 93ED0C6A 		vldr.32	s12, [r3, #48]
 188:src/PianoB.cpp ****                 + (filter_Pad1.Low() + filter_Pad2.Low())*mix_amp_Pad +
 1275              		.loc 10 188 59 discriminator 2 view .LVU385
 1276 06cc 224B     		ldr	r3, .L17+48
 188:src/PianoB.cpp ****                 + (filter_Pad1.Low() + filter_Pad2.Low())*mix_amp_Pad +
 1277              		.loc 10 188 37 discriminator 2 view .LVU386
 1278 06ce 37EE067A 		vadd.f32	s14, s14, s12
 188:src/PianoB.cpp ****                 + (filter_Pad1.Low() + filter_Pad2.Low())*mix_amp_Pad +
 1279              		.loc 10 188 59 discriminator 2 view .LVU387
 1280 06d2 D3ED0C4A 		vldr.32	s9, [r3, #48]
 189:src/PianoB.cpp ****                 + (filter_Pad1.Low() + filter_Pad2.Low())*mix_amp_Pad +
 1281              		.loc 10 189 38 discriminator 2 view .LVU388
 1282 06d6 244B     		ldr	r3, .L17+64
 188:src/PianoB.cpp ****                 + (filter_Pad1.Low() + filter_Pad2.Low())*mix_amp_Pad +
 1283              		.loc 10 188 59 discriminator 2 view .LVU389
 1284 06d8 37EE247A 		vadd.f32	s14, s14, s9
 189:src/PianoB.cpp ****                 + (filter_Pad1.Low() + filter_Pad2.Low())*mix_amp_Pad +
 1285              		.loc 10 189 38 discriminator 2 view .LVU390
 1286 06dc D3ED0C7A 		vldr.32	s15, [r3, #48]
ARM GAS  C:\Users\skipi\AppData\Local\Temp\cc6PZCfi.s 			page 38


 1287 06e0 224B     		ldr	r3, .L17+68
 1288 06e2 D3ED0C6A 		vldr.32	s13, [r3, #48]
 188:src/PianoB.cpp ****                 + (filter_Pad1.Low() + filter_Pad2.Low())*mix_amp_Pad +
 1289              		.loc 10 188 81 discriminator 2 view .LVU391
 1290 06e6 1D4B     		ldr	r3, .L17+52
 189:src/PianoB.cpp ****                 + (filter_Pad1.Low() + filter_Pad2.Low())*mix_amp_Pad +
 1291              		.loc 10 189 38 discriminator 2 view .LVU392
 1292 06e8 77EEA67A 		vadd.f32	s15, s15, s13
 188:src/PianoB.cpp ****                 + (filter_Pad1.Low() + filter_Pad2.Low())*mix_amp_Pad +
 1293              		.loc 10 188 81 discriminator 2 view .LVU393
 1294 06ec 93ED0C5A 		vldr.32	s10, [r3, #48]
 189:src/PianoB.cpp ****                 + (filter_Pad1.Low() + filter_Pad2.Low())*mix_amp_Pad +
 1295              		.loc 10 189 58 discriminator 2 view .LVU394
 1296 06f0 374B     		ldr	r3, .L17+168
 188:src/PianoB.cpp ****                 + (filter_Pad1.Low() + filter_Pad2.Low())*mix_amp_Pad +
 1297              		.loc 10 188 81 discriminator 2 view .LVU395
 1298 06f2 37EE057A 		vadd.f32	s14, s14, s10
 189:src/PianoB.cpp ****                 + (filter_Pad1.Low() + filter_Pad2.Low())*mix_amp_Pad +
 1299              		.loc 10 189 58 discriminator 2 view .LVU396
 1300 06f6 93ED006A 		vldr.32	s12, [r3]
 188:src/PianoB.cpp ****                 + (filter_Pad1.Low() + filter_Pad2.Low())*mix_amp_Pad +
 1301              		.loc 10 188 120 discriminator 2 view .LVU397
 1302 06fa 364B     		ldr	r3, .L17+172
 189:src/PianoB.cpp ****                 + (filter_Pad1.Low() + filter_Pad2.Low())*mix_amp_Pad +
 1303              		.loc 10 189 58 discriminator 2 view .LVU398
 1304 06fc 67EE867A 		vmul.f32	s15, s15, s12
 188:src/PianoB.cpp ****                 + (filter_Pad1.Low() + filter_Pad2.Low())*mix_amp_Pad +
 1305              		.loc 10 188 120 discriminator 2 view .LVU399
 1306 0700 D3ED005A 		vldr.32	s11, [r3]
 190:src/PianoB.cpp **** //-------------------------------------------------------------------------------------------------
 1307              		.loc 10 190 39 discriminator 2 view .LVU400
 1308 0704 164B     		ldr	r3, .L17+56
 188:src/PianoB.cpp ****                 + (filter_Pad1.Low() + filter_Pad2.Low())*mix_amp_Pad +
 1309              		.loc 10 188 120 discriminator 2 view .LVU401
 1310 0706 E7EE257A 		vfma.f32	s15, s14, s11
 1311              	.LVL104:
 1312              	.LBB514:
 1313              	.LBI514:
 1314              		.loc 9 60 18 is_stmt 1 discriminator 2 view .LVU402
 1315              	.LBB515:
 1316              		.loc 9 60 26 discriminator 2 view .LVU403
 1317              		.loc 9 60 26 is_stmt 0 discriminator 2 view .LVU404
 1318              	.LBE515:
 1319              	.LBE514:
 1320              	.LBB516:
 1321              	.LBI516:
 1322              		.loc 9 60 18 is_stmt 1 discriminator 2 view .LVU405
 1323              	.LBB517:
 1324              		.loc 9 60 26 discriminator 2 view .LVU406
 1325              		.loc 9 60 26 is_stmt 0 discriminator 2 view .LVU407
 1326              	.LBE517:
 1327              	.LBE516:
 190:src/PianoB.cpp **** //-------------------------------------------------------------------------------------------------
 1328              		.loc 10 190 39 discriminator 2 view .LVU408
 1329 070a D3ED0C6A 		vldr.32	s13, [r3, #48]
 1330 070e 154B     		ldr	r3, .L17+60
 1331 0710 D3ED0C4A 		vldr.32	s9, [r3, #48]
ARM GAS  C:\Users\skipi\AppData\Local\Temp\cc6PZCfi.s 			page 39


 189:src/PianoB.cpp ****                 + (filter_Pad1.Low() + filter_Pad2.Low())*mix_amp_Pad +
 1332              		.loc 10 189 71 discriminator 2 view .LVU409
 1333 0714 304B     		ldr	r3, .L17+176
 190:src/PianoB.cpp **** //-------------------------------------------------------------------------------------------------
 1334              		.loc 10 190 39 discriminator 2 view .LVU410
 1335 0716 76EEA46A 		vadd.f32	s13, s13, s9
 189:src/PianoB.cpp ****                 + (filter_Pad1.Low() + filter_Pad2.Low())*mix_amp_Pad +
 1336              		.loc 10 189 71 discriminator 2 view .LVU411
 1337 071a 93ED006A 		vldr.32	s12, [r3]
 188:src/PianoB.cpp ****                 + (filter_Pad1.Low() + filter_Pad2.Low())*mix_amp_Pad +
 1338              		.loc 10 188 14 discriminator 2 view .LVU412
 1339 071e 2F4B     		ldr	r3, .L17+180
 189:src/PianoB.cpp ****                 + (filter_Pad1.Low() + filter_Pad2.Low())*mix_amp_Pad +
 1340              		.loc 10 189 71 discriminator 2 view .LVU413
 1341 0720 E6EE867A 		vfma.f32	s15, s13, s12
 1342 0724 5CE0     		b	.L18
 1343              	.L19:
 1344 0726 00BF     		.align	2
 1345              	.L17:
 1346 0728 00000000 		.word	.LANCHOR52
 1347 072c 00000000 		.word	.LANCHOR54
 1348 0730 00000000 		.word	.LANCHOR55
 1349 0734 00000000 		.word	.LANCHOR56
 1350 0738 00000000 		.word	.LANCHOR57
 1351 073c 00000000 		.word	.LANCHOR58
 1352 0740 00000000 		.word	.LANCHOR59
 1353 0744 00000000 		.word	.LANCHOR60
 1354 0748 00000000 		.word	.LANCHOR61
 1355 074c 00000000 		.word	.LANCHOR62
 1356 0750 00000000 		.word	.LANCHOR65
 1357 0754 00000000 		.word	.LANCHOR66
 1358 0758 00000000 		.word	.LANCHOR67
 1359 075c 00000000 		.word	.LANCHOR68
 1360 0760 00000000 		.word	.LANCHOR71
 1361 0764 00000000 		.word	.LANCHOR72
 1362 0768 00000000 		.word	.LANCHOR75
 1363 076c 00000000 		.word	.LANCHOR76
 1364 0770 00000000 		.word	.LANCHOR42
 1365 0774 00000000 		.word	.LANCHOR24
 1366 0778 00000000 		.word	.LANCHOR43
 1367 077c 00000000 		.word	.LANCHOR25
 1368 0780 00000000 		.word	.LANCHOR44
 1369 0784 00000000 		.word	.LANCHOR26
 1370 0788 00000000 		.word	.LANCHOR45
 1371 078c 00000000 		.word	.LANCHOR27
 1372 0790 00000000 		.word	.LANCHOR50
 1373 0794 00000000 		.word	.LANCHOR28
 1374 0798 00000000 		.word	.LANCHOR51
 1375 079c 00000000 		.word	.LANCHOR29
 1376 07a0 00000000 		.word	.LANCHOR47
 1377 07a4 00000000 		.word	.LANCHOR30
 1378 07a8 00000000 		.word	.LANCHOR48
 1379 07ac 00000000 		.word	.LANCHOR31
 1380 07b0 00000000 		.word	.LANCHOR77
 1381 07b4 00000000 		.word	.LANCHOR78
 1382 07b8 00000000 		.word	.LANCHOR79
 1383 07bc 00000000 		.word	.LANCHOR80
ARM GAS  C:\Users\skipi\AppData\Local\Temp\cc6PZCfi.s 			page 40


 1384 07c0 00000000 		.word	.LANCHOR81
 1385 07c4 00000000 		.word	.LANCHOR82
 1386 07c8 00000000 		.word	.LANCHOR83
 1387 07cc 00000000 		.word	.LANCHOR84
 1388 07d0 00000000 		.word	.LANCHOR86
 1389 07d4 00000000 		.word	.LANCHOR85
 1390 07d8 00000000 		.word	.LANCHOR87
 1391 07dc 00000000 		.word	.LANCHOR88
 1392              	.L18:
 188:src/PianoB.cpp ****                 + (filter_Pad1.Low() + filter_Pad2.Low())*mix_amp_Pad +
 1393              		.loc 10 188 14 discriminator 2 view .LVU414
 1394 07e0 C3ED007A 		vstr.32	s15, [r3]
 1395              		.loc 10 195 9 is_stmt 1 discriminator 2 view .LVU415
 1396              		.loc 10 195 19 is_stmt 0 discriminator 2 view .LVU416
 1397 07e4 019B     		ldr	r3, [sp, #4]
 1398 07e6 01EB8301 		add	r1, r1, r3, lsl #2
 1399 07ea C1ED007A 		vstr.32	s15, [r1]
 196:src/PianoB.cpp ****         out[1][i] = out_noFX;                                         // Output processed signal (r
 1400              		.loc 10 196 9 is_stmt 1 discriminator 2 view .LVU417
 1401              		.loc 10 196 19 is_stmt 0 discriminator 2 view .LVU418
 1402 07ee 5168     		ldr	r1, [r2, #4]
 1403 07f0 01EB8301 		add	r1, r1, r3, lsl #2
  81:src/PianoB.cpp **** //--------------------------------------------------------------------Setta DelayTime
 1404              		.loc 10 81 5 discriminator 2 view .LVU419
 1405 07f4 0133     		adds	r3, r3, #1
 1406              		.loc 10 196 19 discriminator 2 view .LVU420
 1407 07f6 C1ED007A 		vstr.32	s15, [r1]
  81:src/PianoB.cpp **** //--------------------------------------------------------------------Setta DelayTime
 1408              		.loc 10 81 5 is_stmt 1 discriminator 2 view .LVU421
 1409              	.LVL105:
  81:src/PianoB.cpp **** //--------------------------------------------------------------------Setta DelayTime
 1410              		.loc 10 81 26 discriminator 2 view .LVU422
 1411 07fa 0399     		ldr	r1, [sp, #12]
 1412 07fc 9942     		cmp	r1, r3
 1413 07fe 7FF414AC 		bne	.L8
 1414              	.LVL106:
 1415              	.L6:
  81:src/PianoB.cpp **** //--------------------------------------------------------------------Setta DelayTime
 1416              		.loc 10 81 26 is_stmt 0 discriminator 2 view .LVU423
 1417              	.LBE518:
 197:src/PianoB.cpp ****     }
 198:src/PianoB.cpp **** }
 1418              		.loc 10 198 1 view .LVU424
 1419 0802 05B0     		add	sp, sp, #20
 1420              		.cfi_def_cfa_offset 36
 1421              		@ sp needed
 1422 0804 BDE8F08F 		pop	{r4, r5, r6, r7, r8, r9, r10, fp, pc}
 1423              		.loc 10 198 1 view .LVU425
 1424              		.cfi_endproc
 1425              	.LFE4815:
 1427              		.section	.text._ZN7daisysp10Oscillator4InitEf,"axG",%progbits,_ZN7daisysp10Oscillator4InitEf,comda
 1428              		.align	1
 1429              		.p2align 2,,3
 1430              		.weak	_ZN7daisysp10Oscillator4InitEf
 1431              		.syntax unified
 1432              		.thumb
 1433              		.thumb_func
ARM GAS  C:\Users\skipi\AppData\Local\Temp\cc6PZCfi.s 			page 41


 1434              		.fpu fpv5-d16
 1436              	_ZN7daisysp10Oscillator4InitEf:
 1437              	.LVL107:
 1438              	.LFB4332:
  50:../libs/DaisySP/Source/Synthesis/oscillator.h ****     {
 1439              		.loc 8 50 10 is_stmt 1 view -0
 1440              		.cfi_startproc
 1441              		@ args = 0, pretend = 0, frame = 0
 1442              		@ frame_needed = 0, uses_anonymous_args = 0
  52:../libs/DaisySP/Source/Synthesis/oscillator.h ****         sr_recip_  = 1.0f / sample_rate;
 1443              		.loc 8 52 9 view .LVU427
  50:../libs/DaisySP/Source/Synthesis/oscillator.h ****     {
 1444              		.loc 8 50 10 is_stmt 0 view .LVU428
 1445 0000 F0EE407A 		vmov.f32	s15, s0
  55:../libs/DaisySP/Source/Synthesis/oscillator.h ****         pw_        = 0.5f;
 1446              		.loc 8 55 20 view .LVU429
 1447 0004 4FF07C53 		mov	r3, #1056964608
  53:../libs/DaisySP/Source/Synthesis/oscillator.h ****         freq_      = 100.0f;
 1448              		.loc 8 53 27 view .LVU430
 1449 0008 F7EE006A 		vmov.f32	s13, #1.0e+0
  57:../libs/DaisySP/Source/Synthesis/oscillator.h ****         phase_inc_ = CalcPhaseInc(freq_);
 1450              		.loc 8 57 20 view .LVU431
 1451 000c 0022     		movs	r2, #0
  54:../libs/DaisySP/Source/Synthesis/oscillator.h ****         amp_       = 0.5f;
 1452              		.loc 8 54 20 view .LVU432
 1453 000e 9FED0C0A 		vldr.32	s0, .L22
 1454              	.LVL108:
  55:../libs/DaisySP/Source/Synthesis/oscillator.h ****         pw_        = 0.5f;
 1455              		.loc 8 55 20 view .LVU433
 1456 0012 4360     		str	r3, [r0, #4]	@ float
  53:../libs/DaisySP/Source/Synthesis/oscillator.h ****         freq_      = 100.0f;
 1457              		.loc 8 53 27 view .LVU434
 1458 0014 86EEA77A 		vdiv.f32	s14, s13, s15
  56:../libs/DaisySP/Source/Synthesis/oscillator.h ****         phase_     = 0.0f;
 1459              		.loc 8 56 20 view .LVU435
 1460 0018 C360     		str	r3, [r0, #12]	@ float
  57:../libs/DaisySP/Source/Synthesis/oscillator.h ****         phase_inc_ = CalcPhaseInc(freq_);
 1461              		.loc 8 57 20 view .LVU436
 1462 001a 8261     		str	r2, [r0, #24]	@ float
  52:../libs/DaisySP/Source/Synthesis/oscillator.h ****         sr_recip_  = 1.0f / sample_rate;
 1463              		.loc 8 52 20 view .LVU437
 1464 001c C0ED047A 		vstr.32	s15, [r0, #16]
  53:../libs/DaisySP/Source/Synthesis/oscillator.h ****         freq_      = 100.0f;
 1465              		.loc 8 53 9 is_stmt 1 view .LVU438
  54:../libs/DaisySP/Source/Synthesis/oscillator.h ****         amp_       = 0.5f;
 1466              		.loc 8 54 20 is_stmt 0 view .LVU439
 1467 0020 80ED020A 		vstr.32	s0, [r0, #8]
  50:../libs/DaisySP/Source/Synthesis/oscillator.h ****     {
 1468              		.loc 8 50 10 view .LVU440
 1469 0024 10B5     		push	{r4, lr}
 1470              		.cfi_def_cfa_offset 8
 1471              		.cfi_offset 4, -8
 1472              		.cfi_offset 14, -4
  50:../libs/DaisySP/Source/Synthesis/oscillator.h ****     {
 1473              		.loc 8 50 10 view .LVU441
 1474 0026 0446     		mov	r4, r0
  53:../libs/DaisySP/Source/Synthesis/oscillator.h ****         freq_      = 100.0f;
ARM GAS  C:\Users\skipi\AppData\Local\Temp\cc6PZCfi.s 			page 42


 1475              		.loc 8 53 20 view .LVU442
 1476 0028 80ED057A 		vstr.32	s14, [r0, #20]
  54:../libs/DaisySP/Source/Synthesis/oscillator.h ****         amp_       = 0.5f;
 1477              		.loc 8 54 9 is_stmt 1 view .LVU443
  55:../libs/DaisySP/Source/Synthesis/oscillator.h ****         pw_        = 0.5f;
 1478              		.loc 8 55 9 view .LVU444
  56:../libs/DaisySP/Source/Synthesis/oscillator.h ****         phase_     = 0.0f;
 1479              		.loc 8 56 9 view .LVU445
  57:../libs/DaisySP/Source/Synthesis/oscillator.h ****         phase_inc_ = CalcPhaseInc(freq_);
 1480              		.loc 8 57 9 view .LVU446
  58:../libs/DaisySP/Source/Synthesis/oscillator.h ****         waveform_  = WAVE_SIN;
 1481              		.loc 8 58 9 view .LVU447
  58:../libs/DaisySP/Source/Synthesis/oscillator.h ****         waveform_  = WAVE_SIN;
 1482              		.loc 8 58 34 is_stmt 0 view .LVU448
 1483 002c FFF7FEFF 		bl	_ZN7daisysp10Oscillator12CalcPhaseIncEf
 1484              	.LVL109:
  59:../libs/DaisySP/Source/Synthesis/oscillator.h ****         eoc_       = true;
 1485              		.loc 8 59 20 view .LVU449
 1486 0030 0022     		movs	r2, #0
  61:../libs/DaisySP/Source/Synthesis/oscillator.h ****     }
 1487              		.loc 8 61 20 view .LVU450
 1488 0032 40F20113 		movw	r3, #257
  58:../libs/DaisySP/Source/Synthesis/oscillator.h ****         waveform_  = WAVE_SIN;
 1489              		.loc 8 58 20 view .LVU451
 1490 0036 84ED070A 		vstr.32	s0, [r4, #28]
  59:../libs/DaisySP/Source/Synthesis/oscillator.h ****         eoc_       = true;
 1491              		.loc 8 59 9 is_stmt 1 view .LVU452
  59:../libs/DaisySP/Source/Synthesis/oscillator.h ****         eoc_       = true;
 1492              		.loc 8 59 20 is_stmt 0 view .LVU453
 1493 003a 2270     		strb	r2, [r4]
  60:../libs/DaisySP/Source/Synthesis/oscillator.h ****         eor_       = true;
 1494              		.loc 8 60 9 is_stmt 1 view .LVU454
  61:../libs/DaisySP/Source/Synthesis/oscillator.h ****     }
 1495              		.loc 8 61 9 view .LVU455
  61:../libs/DaisySP/Source/Synthesis/oscillator.h ****     }
 1496              		.loc 8 61 20 is_stmt 0 view .LVU456
 1497 003c 2385     		strh	r3, [r4, #40]	@ movhi
  62:../libs/DaisySP/Source/Synthesis/oscillator.h **** 
 1498              		.loc 8 62 5 view .LVU457
 1499 003e 10BD     		pop	{r4, pc}
 1500              	.LVL110:
 1501              	.L23:
  62:../libs/DaisySP/Source/Synthesis/oscillator.h **** 
 1502              		.loc 8 62 5 view .LVU458
 1503              		.align	2
 1504              	.L22:
 1505 0040 0000C842 		.word	1120403456
 1506              		.cfi_endproc
 1507              	.LFE4332:
 1509              		.section	.text._Z8LogScalefff,"ax",%progbits
 1510              		.align	1
 1511              		.p2align 2,,3
 1512              		.global	_Z8LogScalefff
 1513              		.syntax unified
 1514              		.thumb
 1515              		.thumb_func
 1516              		.fpu fpv5-d16
ARM GAS  C:\Users\skipi\AppData\Local\Temp\cc6PZCfi.s 			page 43


 1518              	_Z8LogScalefff:
 1519              	.LVL111:
 1520              	.LFB4814:
 1521              		.file 11 "src/config1.h"
   1:src/config1.h **** #include "Ramo.h"       // Library for the Ramo synth
   2:src/config1.h **** 
   3:src/config1.h **** //\\\\\\\\\\\\\\\\\\\\\\\\\\\\\\\\\\\\\\\\\\\\\\\\\\\\\\\\\\\\\\\\\\\\\\\\\\\\\\\\\\\\\\\\\\\\\\\\\
   4:src/config1.h **** //Parametri Oscillatori---------------------Parametri AmpEG-----------------Parametri FilterEG
   5:src/config1.h **** uint8_t wf_Pluck[n] = {2,1};                               
   6:src/config1.h **** 
   7:src/config1.h **** float ef_Pluck[n] = {1, 1};                                                  float f_EG_pluck = 200
   8:src/config1.h **** 
   9:src/config1.h **** float g_Pluck[n]  = {0.5f, 0.5f}; 
  10:src/config1.h **** 
  11:src/config1.h **** float f_Pluck = 440.0f;
  12:src/config1.h **** 
  13:src/config1.h **** 
  14:src/config1.h **** 
  15:src/config1.h **** //Parametri LFO-----------------Parametri Filter------------------Gate
  16:src/config1.h **** float f_lfo_Pluck = 10;         float ft_pluck = 3000.0f;         bool Gate_Pluck;
  17:src/config1.h **** float amp_lfo_Pluck = 0.3;      float res_pluck = 0.1f; // Resonance for filter
  18:src/config1.h ****                                 float drive_pluck = 0.5f; // Drive for filter
  19:src/config1.h **** //-------------------------------------------------------------------------------------ADSR PLUCK
  20:src/config1.h **** float Pluck_Amp_ADSR[4] = {0.05f, 0.27f, 0.0f, 1.0f}; // Attack, Decay, Sustain, Release
  21:src/config1.h **** float Pluck_Filter_ADSR[4] = {0.1f, 0.03f, 0.0f, 1.0f}; // Attack, Decay, Sustain, Release
  22:src/config1.h **** 
  23:src/config1.h **** float mix_amp_Pluck = 0.33;
  24:src/config1.h **** 
  25:src/config1.h **** 
  26:src/config1.h **** 
  27:src/config1.h **** //\\\\\\\\\\\\\\\\\\\\\\\\\\\\\\\\\\\\\\\\\\\\\\\\\\\\\\\\\\\\\\\\\\\\\\\\\\\\\\\\\\\\\\\\\\\\\\\\\
  28:src/config1.h **** //Parametri Oscillatori---------------------Parametri AmpEG-----------------Parametri FilterEG
  29:src/config1.h **** uint8_t wf_Pad[n] = {3,2};                  
  30:src/config1.h **** 
  31:src/config1.h **** float ef_Pad[n] = {1, 1};                                                   float f_EG_pad = 8000.0
  32:src/config1.h **** 
  33:src/config1.h **** float g_Pad[n] = {0.5f, 0.5f}; 
  34:src/config1.h **** 
  35:src/config1.h **** float f_Pad = 220.0f; 
  36:src/config1.h **** 
  37:src/config1.h **** 
  38:src/config1.h **** 
  39:src/config1.h **** //Parametri LFO-----------------Parametri Filter------------------Gate
  40:src/config1.h **** float f_lfo_Pad   = 10;         float ft_pad = 500.0f;            bool Gate_Pad;
  41:src/config1.h **** float amp_lfo_Pad = 0.3;        float res_pad = 0.1f; 
  42:src/config1.h ****                                 float drive_pad = 0.5f; 
  43:src/config1.h **** //-------------------------------------------------------------------------------------ADSR PADS
  44:src/config1.h **** float Pad_Amp_ADSR[4] = {12.0f, 0.5f, 0.4f, 1.0f}; // Attack, Decay, Sustain, Release
  45:src/config1.h **** float Pad_Filter_ADSR[4] = {9.0f, 0.4f, 0.0f, 1.0f}; // Attack, Decay, Sustain, Release
  46:src/config1.h **** 
  47:src/config1.h **** float mix_amp_Pad = 0.33;
  48:src/config1.h **** 
  49:src/config1.h **** 
  50:src/config1.h **** 
  51:src/config1.h **** 
  52:src/config1.h **** //\\\\\\\\\\\\\\\\\\\\\\\\\\\\\\\\\\\\\\\\\\\\\\\\\\\\\\\\\\\\\\\\\\\\\\\\\\\\\\\\\\\\\\\\\\\\\\\\\
  53:src/config1.h **** //Parametri Oscillatori---------------------Parametri AmpEG-----------------Parametri FilterEG
ARM GAS  C:\Users\skipi\AppData\Local\Temp\cc6PZCfi.s 			page 44


  54:src/config1.h **** 
  55:src/config1.h **** uint8_t wf_Bass[n] = {1,3};                 
  56:src/config1.h **** 
  57:src/config1.h **** float ef_Bass[n] = {1, 1};                                                  float f_EG_bass = 5000.
  58:src/config1.h **** 
  59:src/config1.h **** float g_Bass[n] = {0.5f, 0.5f};
  60:src/config1.h **** 
  61:src/config1.h **** float f_Bass = 55.0f;
  62:src/config1.h **** 
  63:src/config1.h **** 
  64:src/config1.h **** 
  65:src/config1.h **** // Parametri LFO-----------------Parametri Filter------------------Gate
  66:src/config1.h **** 
  67:src/config1.h **** float f_lfo_Bass   = 10;         float ft_bass = 200.0f;            bool Gate_Bass;
  68:src/config1.h **** float amp_lfo_Bass = 0.3;        float res_bass = 0.1f; // Resonance for filter
  69:src/config1.h ****                                  float drive_bass = 0.5f; // Drive for filter
  70:src/config1.h **** //-------------------------------------------------------------------------------------ADSR BASS
  71:src/config1.h **** float Bass_Amp_ADSR[4] = {0.15f, 0.5f, 0.75f, 0.33f}; // Attack, Decay, Sustain, Release
  72:src/config1.h **** float Bass_Filter_ADSR[4] = {10.0f, 1.0f, 0.6f, 0.5f}; // Attack, Decay, Sustain, Release
  73:src/config1.h **** 
  74:src/config1.h **** float mix_amp_Bass = 0.33;
  75:src/config1.h **** 
  76:src/config1.h ****                                             
  77:src/config1.h **** 
  78:src/config1.h **** 
  79:src/config1.h **** //\\\\\\\\\\\\\\\\\\\\\\\\\\\\\\\\\\\\\\\\\\\\\\\\\\\\\\\\\\\\\\\\\\\\\\\\\\\\\\\\\\\\\\\\\\DELAY
  80:src/config1.h **** float time;
  81:src/config1.h **** float delayTime;
  82:src/config1.h **** 
  83:src/config1.h **** 
  84:src/config1.h **** const float MIN_DELAY = 0.02f;  // 20ms minimo delay
  85:src/config1.h **** const float MAX_DELAY = 1.0f;   // 1000ms massimo delay
  86:src/config1.h **** 
  87:src/config1.h **** float LogScale(float pos, float min_value, float max_value) {
 1522              		.loc 11 87 61 is_stmt 1 view -0
 1523              		.cfi_startproc
 1524              		@ args = 0, pretend = 0, frame = 0
 1525              		@ frame_needed = 0, uses_anonymous_args = 0
  88:src/config1.h ****     // Implementa una scala logaritmica tra min_value e max_value
  89:src/config1.h ****     float min_log = logf(min_value);
 1526              		.loc 11 89 5 view .LVU460
  87:src/config1.h ****     // Implementa una scala logaritmica tra min_value e max_value
 1527              		.loc 11 87 61 is_stmt 0 view .LVU461
 1528 0000 08B5     		push	{r3, lr}
 1529              		.cfi_def_cfa_offset 8
 1530              		.cfi_offset 3, -8
 1531              		.cfi_offset 14, -4
 1532 0002 2DED048B 		vpush.64	{d8, d9}
 1533              		.cfi_def_cfa_offset 24
 1534              		.cfi_offset 80, -24
 1535              		.cfi_offset 81, -20
 1536              		.cfi_offset 82, -16
 1537              		.cfi_offset 83, -12
  87:src/config1.h ****     // Implementa una scala logaritmica tra min_value e max_value
 1538              		.loc 11 87 61 view .LVU462
 1539 0006 B0EE419A 		vmov.f32	s18, s2
 1540 000a F0EE408A 		vmov.f32	s17, s0
ARM GAS  C:\Users\skipi\AppData\Local\Temp\cc6PZCfi.s 			page 45


 1541              		.loc 11 89 25 view .LVU463
 1542 000e B0EE600A 		vmov.f32	s0, s1
 1543              	.LVL112:
 1544              		.loc 11 89 25 view .LVU464
 1545 0012 FFF7FEFF 		bl	logf
 1546              	.LVL113:
 1547              		.loc 11 89 25 view .LVU465
 1548 0016 B0EE408A 		vmov.f32	s16, s0
  90:src/config1.h ****     float max_log = logf(max_value);
 1549              		.loc 11 90 25 view .LVU466
 1550 001a B0EE490A 		vmov.f32	s0, s18
 1551              	.LVL114:
 1552              		.loc 11 90 5 is_stmt 1 view .LVU467
 1553              		.loc 11 90 25 is_stmt 0 view .LVU468
 1554 001e FFF7FEFF 		bl	logf
 1555              	.LVL115:
  91:src/config1.h ****     float exp_scale = min_log + (max_log - min_log) * pos;
 1556              		.loc 11 91 5 is_stmt 1 view .LVU469
 1557              		.loc 11 91 42 is_stmt 0 view .LVU470
 1558 0022 30EE480A 		vsub.f32	s0, s0, s16
 1559              	.LVL116:
  92:src/config1.h ****     return expf(exp_scale);
 1560              		.loc 11 92 5 is_stmt 1 view .LVU471
 1561              		.loc 11 92 16 is_stmt 0 view .LVU472
 1562 0026 A0EE288A 		vfma.f32	s16, s0, s17
 1563              	.LVL117:
 1564              		.loc 11 92 16 view .LVU473
 1565 002a B0EE480A 		vmov.f32	s0, s16
  93:src/config1.h **** }
 1566              		.loc 11 93 1 view .LVU474
 1567 002e BDEC048B 		vldm	sp!, {d8-d9}
 1568              		.cfi_restore 82
 1569              		.cfi_restore 83
 1570              		.cfi_restore 80
 1571              		.cfi_restore 81
 1572              		.cfi_def_cfa_offset 8
 1573              	.LVL118:
 1574              		.loc 11 93 1 view .LVU475
 1575 0032 BDE80840 		pop	{r3, lr}
 1576              		.cfi_restore 14
 1577              		.cfi_restore 3
 1578              		.cfi_def_cfa_offset 0
  92:src/config1.h ****     return expf(exp_scale);
 1579              		.loc 11 92 16 view .LVU476
 1580 0036 FFF7FEBF 		b	expf
 1581              	.LVL119:
  92:src/config1.h ****     return expf(exp_scale);
 1582              		.loc 11 92 16 view .LVU477
 1583              		.cfi_endproc
 1584              	.LFE4814:
 1586 003a 00BF     		.section	.text._ZN5daisy6Mpr121INS_18Mpr121I2CTransportEE13WriteRegisterEhh,"axG",%progbits,_ZN5da
 1587              		.align	1
 1588              		.p2align 2,,3
 1589              		.weak	_ZN5daisy6Mpr121INS_18Mpr121I2CTransportEE13WriteRegisterEhh
 1590              		.syntax unified
 1591              		.thumb
 1592              		.thumb_func
ARM GAS  C:\Users\skipi\AppData\Local\Temp\cc6PZCfi.s 			page 46


 1593              		.fpu fpv5-d16
 1595              	_ZN5daisy6Mpr121INS_18Mpr121I2CTransportEE13WriteRegisterEhh:
 1596              	.LVL120:
 1597              	.LFB5251:
 1598              		.file 12 "../libs/libDaisy/src/dev/mpr121.h"
   1:../libs/libDaisy/src/dev/mpr121.h **** #pragma once
   2:../libs/libDaisy/src/dev/mpr121.h **** #ifndef DSY_MPR121_H
   3:../libs/libDaisy/src/dev/mpr121.h **** #define DSY_MPR121_H
   4:../libs/libDaisy/src/dev/mpr121.h **** 
   5:../libs/libDaisy/src/dev/mpr121.h **** // The default I2C address
   6:../libs/libDaisy/src/dev/mpr121.h **** #define MPR121_I2CADDR_DEFAULT 0x5A        ///< default I2C address
   7:../libs/libDaisy/src/dev/mpr121.h **** #define MPR121_TOUCH_THRESHOLD_DEFAULT 12  ///< default touch threshold value
   8:../libs/libDaisy/src/dev/mpr121.h **** #define MPR121_RELEASE_THRESHOLD_DEFAULT 6 ///< default relese threshold value
   9:../libs/libDaisy/src/dev/mpr121.h **** 
  10:../libs/libDaisy/src/dev/mpr121.h **** namespace daisy
  11:../libs/libDaisy/src/dev/mpr121.h **** {
  12:../libs/libDaisy/src/dev/mpr121.h **** /** @addtogroup external 
  13:../libs/libDaisy/src/dev/mpr121.h ****     @{ 
  14:../libs/libDaisy/src/dev/mpr121.h **** */
  15:../libs/libDaisy/src/dev/mpr121.h **** 
  16:../libs/libDaisy/src/dev/mpr121.h **** /** I2C Transport for MPR121 */
  17:../libs/libDaisy/src/dev/mpr121.h **** class Mpr121I2CTransport
  18:../libs/libDaisy/src/dev/mpr121.h **** {
  19:../libs/libDaisy/src/dev/mpr121.h ****   public:
  20:../libs/libDaisy/src/dev/mpr121.h ****     Mpr121I2CTransport() {}
  21:../libs/libDaisy/src/dev/mpr121.h ****     ~Mpr121I2CTransport() {}
  22:../libs/libDaisy/src/dev/mpr121.h **** 
  23:../libs/libDaisy/src/dev/mpr121.h ****     struct Config
  24:../libs/libDaisy/src/dev/mpr121.h ****     {
  25:../libs/libDaisy/src/dev/mpr121.h ****         I2CHandle::Config::Peripheral periph;
  26:../libs/libDaisy/src/dev/mpr121.h ****         I2CHandle::Config::Speed      speed;
  27:../libs/libDaisy/src/dev/mpr121.h ****         Pin                           scl;
  28:../libs/libDaisy/src/dev/mpr121.h ****         Pin                           sda;
  29:../libs/libDaisy/src/dev/mpr121.h **** 
  30:../libs/libDaisy/src/dev/mpr121.h ****         I2CHandle::Config::Mode mode;
  31:../libs/libDaisy/src/dev/mpr121.h **** 
  32:../libs/libDaisy/src/dev/mpr121.h ****         uint8_t dev_addr;
  33:../libs/libDaisy/src/dev/mpr121.h **** 
  34:../libs/libDaisy/src/dev/mpr121.h ****         Config()
  35:../libs/libDaisy/src/dev/mpr121.h ****         {
  36:../libs/libDaisy/src/dev/mpr121.h ****             periph = I2CHandle::Config::Peripheral::I2C_1;
  37:../libs/libDaisy/src/dev/mpr121.h ****             speed  = I2CHandle::Config::Speed::I2C_400KHZ;
  38:../libs/libDaisy/src/dev/mpr121.h **** 
  39:../libs/libDaisy/src/dev/mpr121.h ****             scl = Pin(PORTB, 8);
  40:../libs/libDaisy/src/dev/mpr121.h ****             sda = Pin(PORTB, 9);
  41:../libs/libDaisy/src/dev/mpr121.h **** 
  42:../libs/libDaisy/src/dev/mpr121.h ****             dev_addr = MPR121_I2CADDR_DEFAULT;
  43:../libs/libDaisy/src/dev/mpr121.h ****         }
  44:../libs/libDaisy/src/dev/mpr121.h ****     };
  45:../libs/libDaisy/src/dev/mpr121.h **** 
  46:../libs/libDaisy/src/dev/mpr121.h ****     /** \return Did the transaction error? i.e. Return true if error, false if ok */
  47:../libs/libDaisy/src/dev/mpr121.h ****     inline bool Init(Config config)
  48:../libs/libDaisy/src/dev/mpr121.h ****     {
  49:../libs/libDaisy/src/dev/mpr121.h ****         config_ = config;
  50:../libs/libDaisy/src/dev/mpr121.h **** 
  51:../libs/libDaisy/src/dev/mpr121.h ****         I2CHandle::Config i2c_conf;
  52:../libs/libDaisy/src/dev/mpr121.h ****         i2c_conf.mode   = I2CHandle::Config::Mode::I2C_MASTER;
ARM GAS  C:\Users\skipi\AppData\Local\Temp\cc6PZCfi.s 			page 47


  53:../libs/libDaisy/src/dev/mpr121.h ****         i2c_conf.periph = config.periph;
  54:../libs/libDaisy/src/dev/mpr121.h ****         i2c_conf.speed  = config.speed;
  55:../libs/libDaisy/src/dev/mpr121.h **** 
  56:../libs/libDaisy/src/dev/mpr121.h ****         i2c_conf.pin_config.scl = config.scl;
  57:../libs/libDaisy/src/dev/mpr121.h ****         i2c_conf.pin_config.sda = config.sda;
  58:../libs/libDaisy/src/dev/mpr121.h **** 
  59:../libs/libDaisy/src/dev/mpr121.h ****         return I2CHandle::Result::OK != i2c_.Init(i2c_conf);
  60:../libs/libDaisy/src/dev/mpr121.h ****     }
  61:../libs/libDaisy/src/dev/mpr121.h **** 
  62:../libs/libDaisy/src/dev/mpr121.h ****     /** \return Did the transaction error? i.e. Return true if error, false if ok */
  63:../libs/libDaisy/src/dev/mpr121.h ****     bool Write(uint8_t *data, uint16_t size)
  64:../libs/libDaisy/src/dev/mpr121.h ****     {
  65:../libs/libDaisy/src/dev/mpr121.h ****         return I2CHandle::Result::OK
  66:../libs/libDaisy/src/dev/mpr121.h ****                != i2c_.TransmitBlocking(config_.dev_addr, data, size, 10);
  67:../libs/libDaisy/src/dev/mpr121.h ****     }
  68:../libs/libDaisy/src/dev/mpr121.h **** 
  69:../libs/libDaisy/src/dev/mpr121.h ****     /** \return Did the transaction error? i.e. Return true if error, false if ok */
  70:../libs/libDaisy/src/dev/mpr121.h ****     bool Read(uint8_t *data, uint16_t size)
  71:../libs/libDaisy/src/dev/mpr121.h ****     {
  72:../libs/libDaisy/src/dev/mpr121.h ****         return I2CHandle::Result::OK
  73:../libs/libDaisy/src/dev/mpr121.h ****                != i2c_.ReceiveBlocking(config_.dev_addr, data, size, 10);
  74:../libs/libDaisy/src/dev/mpr121.h ****     }
  75:../libs/libDaisy/src/dev/mpr121.h **** 
  76:../libs/libDaisy/src/dev/mpr121.h ****   private:
  77:../libs/libDaisy/src/dev/mpr121.h ****     I2CHandle i2c_;
  78:../libs/libDaisy/src/dev/mpr121.h ****     Config    config_;
  79:../libs/libDaisy/src/dev/mpr121.h **** };
  80:../libs/libDaisy/src/dev/mpr121.h **** 
  81:../libs/libDaisy/src/dev/mpr121.h **** 
  82:../libs/libDaisy/src/dev/mpr121.h **** /** @brief Device support for MPR121 12x Capacitive Touch Sensor
  83:../libs/libDaisy/src/dev/mpr121.h ****     @author beserge
  84:../libs/libDaisy/src/dev/mpr121.h ****     @date December 2021
  85:../libs/libDaisy/src/dev/mpr121.h **** */
  86:../libs/libDaisy/src/dev/mpr121.h **** template <typename Transport>
  87:../libs/libDaisy/src/dev/mpr121.h **** class Mpr121
  88:../libs/libDaisy/src/dev/mpr121.h **** {
  89:../libs/libDaisy/src/dev/mpr121.h ****   public:
  90:../libs/libDaisy/src/dev/mpr121.h ****     Mpr121() {}
  91:../libs/libDaisy/src/dev/mpr121.h ****     ~Mpr121() {}
  92:../libs/libDaisy/src/dev/mpr121.h **** 
  93:../libs/libDaisy/src/dev/mpr121.h ****     struct Config
  94:../libs/libDaisy/src/dev/mpr121.h ****     {
  95:../libs/libDaisy/src/dev/mpr121.h ****         typename Transport::Config transport_config;
  96:../libs/libDaisy/src/dev/mpr121.h ****         uint8_t                    touch_threshold;
  97:../libs/libDaisy/src/dev/mpr121.h ****         uint8_t                    release_threshold;
  98:../libs/libDaisy/src/dev/mpr121.h **** 
  99:../libs/libDaisy/src/dev/mpr121.h ****         Config()
 100:../libs/libDaisy/src/dev/mpr121.h ****         {
 101:../libs/libDaisy/src/dev/mpr121.h ****             touch_threshold   = MPR121_TOUCH_THRESHOLD_DEFAULT;
 102:../libs/libDaisy/src/dev/mpr121.h ****             release_threshold = MPR121_RELEASE_THRESHOLD_DEFAULT;
 103:../libs/libDaisy/src/dev/mpr121.h ****         }
 104:../libs/libDaisy/src/dev/mpr121.h ****     };
 105:../libs/libDaisy/src/dev/mpr121.h **** 
 106:../libs/libDaisy/src/dev/mpr121.h ****     enum Result
 107:../libs/libDaisy/src/dev/mpr121.h ****     {
 108:../libs/libDaisy/src/dev/mpr121.h ****         OK = 0,
 109:../libs/libDaisy/src/dev/mpr121.h ****         ERR
ARM GAS  C:\Users\skipi\AppData\Local\Temp\cc6PZCfi.s 			page 48


 110:../libs/libDaisy/src/dev/mpr121.h ****     };
 111:../libs/libDaisy/src/dev/mpr121.h **** 
 112:../libs/libDaisy/src/dev/mpr121.h ****     /** Initialize the MPR121 device
 113:../libs/libDaisy/src/dev/mpr121.h ****         \param config Configuration settings
 114:../libs/libDaisy/src/dev/mpr121.h ****     */
 115:../libs/libDaisy/src/dev/mpr121.h ****     Result Init(Config config)
 116:../libs/libDaisy/src/dev/mpr121.h ****     {
 117:../libs/libDaisy/src/dev/mpr121.h ****         config_ = config;
 118:../libs/libDaisy/src/dev/mpr121.h **** 
 119:../libs/libDaisy/src/dev/mpr121.h ****         SetTransportErr(transport_.Init(config_.transport_config));
 120:../libs/libDaisy/src/dev/mpr121.h **** 
 121:../libs/libDaisy/src/dev/mpr121.h ****         // soft reset
 122:../libs/libDaisy/src/dev/mpr121.h ****         WriteRegister(MPR121_SOFTRESET, 0x63);
 123:../libs/libDaisy/src/dev/mpr121.h ****         System::Delay(1);
 124:../libs/libDaisy/src/dev/mpr121.h **** 
 125:../libs/libDaisy/src/dev/mpr121.h ****         WriteRegister(MPR121_ECR, 0x0);
 126:../libs/libDaisy/src/dev/mpr121.h **** 
 127:../libs/libDaisy/src/dev/mpr121.h ****         // this doesn't work for some reason...
 128:../libs/libDaisy/src/dev/mpr121.h ****         // uint8_t c = ReadRegister8(MPR121_CONFIG2);
 129:../libs/libDaisy/src/dev/mpr121.h **** 
 130:../libs/libDaisy/src/dev/mpr121.h ****         // if(c != 0x24)
 131:../libs/libDaisy/src/dev/mpr121.h ****         //     return ERR;
 132:../libs/libDaisy/src/dev/mpr121.h **** 
 133:../libs/libDaisy/src/dev/mpr121.h ****         SetThresholds(config_.touch_threshold, config_.release_threshold);
 134:../libs/libDaisy/src/dev/mpr121.h ****         WriteRegister(MPR121_MHDR, 0x01);
 135:../libs/libDaisy/src/dev/mpr121.h ****         WriteRegister(MPR121_NHDR, 0x01);
 136:../libs/libDaisy/src/dev/mpr121.h ****         WriteRegister(MPR121_NCLR, 0x0E);
 137:../libs/libDaisy/src/dev/mpr121.h ****         WriteRegister(MPR121_FDLR, 0x00);
 138:../libs/libDaisy/src/dev/mpr121.h **** 
 139:../libs/libDaisy/src/dev/mpr121.h ****         WriteRegister(MPR121_MHDF, 0x01);
 140:../libs/libDaisy/src/dev/mpr121.h ****         WriteRegister(MPR121_NHDF, 0x05);
 141:../libs/libDaisy/src/dev/mpr121.h ****         WriteRegister(MPR121_NCLF, 0x01);
 142:../libs/libDaisy/src/dev/mpr121.h ****         WriteRegister(MPR121_FDLF, 0x00);
 143:../libs/libDaisy/src/dev/mpr121.h **** 
 144:../libs/libDaisy/src/dev/mpr121.h ****         WriteRegister(MPR121_NHDT, 0x00);
 145:../libs/libDaisy/src/dev/mpr121.h ****         WriteRegister(MPR121_NCLT, 0x00);
 146:../libs/libDaisy/src/dev/mpr121.h ****         WriteRegister(MPR121_FDLT, 0x00);
 147:../libs/libDaisy/src/dev/mpr121.h **** 
 148:../libs/libDaisy/src/dev/mpr121.h ****         WriteRegister(MPR121_DEBOUNCE, 0);
 149:../libs/libDaisy/src/dev/mpr121.h ****         WriteRegister(MPR121_CONFIG1, 0x10); // default, 16uA charge current
 150:../libs/libDaisy/src/dev/mpr121.h ****         WriteRegister(MPR121_CONFIG2, 0x20); // 0.5uS encoding, 1ms period
 151:../libs/libDaisy/src/dev/mpr121.h **** 
 152:../libs/libDaisy/src/dev/mpr121.h ****         // autoconfig
 153:../libs/libDaisy/src/dev/mpr121.h ****         // WriteRegister(MPR121_AUTOCONFIG0, 0x0B);
 154:../libs/libDaisy/src/dev/mpr121.h **** 
 155:../libs/libDaisy/src/dev/mpr121.h ****         // correct values for Vdd = 3.3V
 156:../libs/libDaisy/src/dev/mpr121.h ****         // WriteRegister(MPR121_UPLIMIT, 200);     // ((Vdd - 0.7)/Vdd) * 256
 157:../libs/libDaisy/src/dev/mpr121.h ****         // WriteRegister(MPR121_TARGETLIMIT, 180); // UPLIMIT * 0.9
 158:../libs/libDaisy/src/dev/mpr121.h ****         // WriteRegister(MPR121_LOWLIMIT, 130);    // UPLIMIT * 0.65
 159:../libs/libDaisy/src/dev/mpr121.h ****         // autoconfig
 160:../libs/libDaisy/src/dev/mpr121.h **** 
 161:../libs/libDaisy/src/dev/mpr121.h ****         // enable X electrodes and start MPR121
 162:../libs/libDaisy/src/dev/mpr121.h ****         uint8_t ECR_SETTING
 163:../libs/libDaisy/src/dev/mpr121.h ****             = 0x80
 164:../libs/libDaisy/src/dev/mpr121.h ****               + 12; // 5 bits for baseline tracking & proximity disabled + X
 165:../libs/libDaisy/src/dev/mpr121.h ****                     // amount of electrodes running (12)
 166:../libs/libDaisy/src/dev/mpr121.h ****         WriteRegister(MPR121_ECR,
ARM GAS  C:\Users\skipi\AppData\Local\Temp\cc6PZCfi.s 			page 49


 167:../libs/libDaisy/src/dev/mpr121.h ****                       ECR_SETTING); // start with above ECR setting
 168:../libs/libDaisy/src/dev/mpr121.h **** 
 169:../libs/libDaisy/src/dev/mpr121.h ****         return GetTransportErr();
 170:../libs/libDaisy/src/dev/mpr121.h ****     }
 171:../libs/libDaisy/src/dev/mpr121.h **** 
 172:../libs/libDaisy/src/dev/mpr121.h ****     /** Set the touch and release thresholds for all 13 channels on the
 173:../libs/libDaisy/src/dev/mpr121.h ****         device to the passed values.
 174:../libs/libDaisy/src/dev/mpr121.h ****         \param      touch The touch threshold value from 0 to 255.
 175:../libs/libDaisy/src/dev/mpr121.h ****         \param      release The release threshold from 0 to 255.
 176:../libs/libDaisy/src/dev/mpr121.h ****     */
 177:../libs/libDaisy/src/dev/mpr121.h ****     void SetThresholds(uint8_t touch, uint8_t release)
 178:../libs/libDaisy/src/dev/mpr121.h ****     {
 179:../libs/libDaisy/src/dev/mpr121.h ****         // set all thresholds (the same)
 180:../libs/libDaisy/src/dev/mpr121.h ****         for(uint8_t i = 0; i < 12; i++)
 181:../libs/libDaisy/src/dev/mpr121.h ****         {
 182:../libs/libDaisy/src/dev/mpr121.h ****             WriteRegister(MPR121_TOUCHTH_0 + 2 * i, touch);
 183:../libs/libDaisy/src/dev/mpr121.h ****             WriteRegister(MPR121_RELEASETH_0 + 2 * i, release);
 184:../libs/libDaisy/src/dev/mpr121.h ****         }
 185:../libs/libDaisy/src/dev/mpr121.h ****     }
 186:../libs/libDaisy/src/dev/mpr121.h **** 
 187:../libs/libDaisy/src/dev/mpr121.h **** 
 188:../libs/libDaisy/src/dev/mpr121.h ****     /** Read the filtered data from channel t. The ADC raw data outputs
 189:../libs/libDaisy/src/dev/mpr121.h ****         run through 3 levels of digital filtering to filter out the high
 190:../libs/libDaisy/src/dev/mpr121.h ****         frequency and low frequency noise encountered. For detailed information on
 191:../libs/libDaisy/src/dev/mpr121.h ****         this filtering see page 6 of the device datasheet.
 192:../libs/libDaisy/src/dev/mpr121.h ****         \param      t the channel to read
 193:../libs/libDaisy/src/dev/mpr121.h ****         \returns    the filtered reading as a 10 bit unsigned value
 194:../libs/libDaisy/src/dev/mpr121.h ****     */
 195:../libs/libDaisy/src/dev/mpr121.h ****     uint16_t FilteredData(uint8_t t)
 196:../libs/libDaisy/src/dev/mpr121.h ****     {
 197:../libs/libDaisy/src/dev/mpr121.h ****         if(t > 12)
 198:../libs/libDaisy/src/dev/mpr121.h ****             return 0;
 199:../libs/libDaisy/src/dev/mpr121.h ****         return ReadRegister16(MPR121_FILTDATA_0L + t * 2);
 200:../libs/libDaisy/src/dev/mpr121.h ****     }
 201:../libs/libDaisy/src/dev/mpr121.h **** 
 202:../libs/libDaisy/src/dev/mpr121.h ****     /** Read the baseline value for the channel. The 3rd level filtered
 203:../libs/libDaisy/src/dev/mpr121.h ****         result is internally 10bit but only high 8 bits are readable
 204:../libs/libDaisy/src/dev/mpr121.h ****         from registers 0x1E~0x2A as the baseline value output for each channel.
 205:../libs/libDaisy/src/dev/mpr121.h ****         \param      t the channel to read.
 206:../libs/libDaisy/src/dev/mpr121.h ****         \returns    the baseline data that was read
 207:../libs/libDaisy/src/dev/mpr121.h ****     */
 208:../libs/libDaisy/src/dev/mpr121.h ****     uint16_t BaselineData(uint8_t t)
 209:../libs/libDaisy/src/dev/mpr121.h ****     {
 210:../libs/libDaisy/src/dev/mpr121.h ****         if(t > 12)
 211:../libs/libDaisy/src/dev/mpr121.h ****             return 0;
 212:../libs/libDaisy/src/dev/mpr121.h ****         uint16_t bl = ReadRegister8(MPR121_BASELINE_0 + t);
 213:../libs/libDaisy/src/dev/mpr121.h ****         return (bl << 2);
 214:../libs/libDaisy/src/dev/mpr121.h ****     }
 215:../libs/libDaisy/src/dev/mpr121.h **** 
 216:../libs/libDaisy/src/dev/mpr121.h ****     /** Read the touch status of all 13 channels as bit values in a 12 bit integer.
 217:../libs/libDaisy/src/dev/mpr121.h ****         \returns    a 12 bit integer with each bit corresponding to the touch status
 218:../libs/libDaisy/src/dev/mpr121.h ****         of a sensor. For example, if bit 0 is set then channel 0 of the
 219:../libs/libDaisy/src/dev/mpr121.h ****         device is currently deemed to be touched.
 220:../libs/libDaisy/src/dev/mpr121.h ****     */
 221:../libs/libDaisy/src/dev/mpr121.h ****     uint16_t Touched()
 222:../libs/libDaisy/src/dev/mpr121.h ****     {
 223:../libs/libDaisy/src/dev/mpr121.h ****         uint16_t t = ReadRegister16(MPR121_TOUCHSTATUS_L);
ARM GAS  C:\Users\skipi\AppData\Local\Temp\cc6PZCfi.s 			page 50


 224:../libs/libDaisy/src/dev/mpr121.h ****         return t & 0x0FFF;
 225:../libs/libDaisy/src/dev/mpr121.h ****     }
 226:../libs/libDaisy/src/dev/mpr121.h **** 
 227:../libs/libDaisy/src/dev/mpr121.h ****     /** Read the contents of an 8 bit device register.
 228:../libs/libDaisy/src/dev/mpr121.h ****         \param      reg the register address to read from
 229:../libs/libDaisy/src/dev/mpr121.h ****         \returns    the 8 bit value that was read.
 230:../libs/libDaisy/src/dev/mpr121.h ****     */
 231:../libs/libDaisy/src/dev/mpr121.h ****     uint8_t ReadRegister8(uint8_t reg)
 232:../libs/libDaisy/src/dev/mpr121.h ****     {
 233:../libs/libDaisy/src/dev/mpr121.h ****         uint8_t buff;
 234:../libs/libDaisy/src/dev/mpr121.h ****         SetTransportErr(transport_.Write(&reg, 1));
 235:../libs/libDaisy/src/dev/mpr121.h ****         SetTransportErr(transport_.Read(&buff, 1));
 236:../libs/libDaisy/src/dev/mpr121.h **** 
 237:../libs/libDaisy/src/dev/mpr121.h ****         return buff;
 238:../libs/libDaisy/src/dev/mpr121.h ****     }
 239:../libs/libDaisy/src/dev/mpr121.h **** 
 240:../libs/libDaisy/src/dev/mpr121.h ****     /** Read the contents of a 16 bit device register.
 241:../libs/libDaisy/src/dev/mpr121.h ****         \param      reg the register address to read from
 242:../libs/libDaisy/src/dev/mpr121.h ****         \returns    the 16 bit value that was read.
 243:../libs/libDaisy/src/dev/mpr121.h ****     */
 244:../libs/libDaisy/src/dev/mpr121.h ****     uint16_t ReadRegister16(uint8_t reg)
 245:../libs/libDaisy/src/dev/mpr121.h ****     {
 246:../libs/libDaisy/src/dev/mpr121.h ****         uint16_t buff;
 247:../libs/libDaisy/src/dev/mpr121.h ****         SetTransportErr(transport_.Write(&reg, 1));
 248:../libs/libDaisy/src/dev/mpr121.h ****         SetTransportErr(transport_.Read((uint8_t *)&buff, 2));
 249:../libs/libDaisy/src/dev/mpr121.h **** 
 250:../libs/libDaisy/src/dev/mpr121.h ****         return buff;
 251:../libs/libDaisy/src/dev/mpr121.h ****     }
 252:../libs/libDaisy/src/dev/mpr121.h **** 
 253:../libs/libDaisy/src/dev/mpr121.h ****     /** Writes 8-bits to the specified destination register
 254:../libs/libDaisy/src/dev/mpr121.h ****         \param  reg the register address to write to
 255:../libs/libDaisy/src/dev/mpr121.h ****         \param  value the value to write
 256:../libs/libDaisy/src/dev/mpr121.h ****     */
 257:../libs/libDaisy/src/dev/mpr121.h ****     void WriteRegister(uint8_t reg, uint8_t value)
 1599              		.loc 12 257 10 is_stmt 1 view -0
 1600              		.cfi_startproc
 1601              		@ args = 0, pretend = 0, frame = 8
 1602              		@ frame_needed = 0, uses_anonymous_args = 0
 1603              		.loc 12 257 10 is_stmt 0 view .LVU479
 1604 0000 2DE9F043 		push	{r4, r5, r6, r7, r8, r9, lr}
 1605              		.cfi_def_cfa_offset 28
 1606              		.cfi_offset 4, -28
 1607              		.cfi_offset 5, -24
 1608              		.cfi_offset 6, -20
 1609              		.cfi_offset 7, -16
 1610              		.cfi_offset 8, -12
 1611              		.cfi_offset 9, -8
 1612              		.cfi_offset 14, -4
 258:../libs/libDaisy/src/dev/mpr121.h ****     {
 259:../libs/libDaisy/src/dev/mpr121.h ****         // MPR121 must be put in Stop Mode to write to most registers
 260:../libs/libDaisy/src/dev/mpr121.h ****         bool stop_required = true;
 261:../libs/libDaisy/src/dev/mpr121.h **** 
 262:../libs/libDaisy/src/dev/mpr121.h ****         // first get the current set value of the MPR121_ECR register
 263:../libs/libDaisy/src/dev/mpr121.h ****         uint8_t ecr_reg = MPR121_ECR;
 264:../libs/libDaisy/src/dev/mpr121.h ****         uint8_t buff[2] = {ecr_reg, 0x00};
 1613              		.loc 12 264 17 view .LVU480
 1614 0004 0023     		movs	r3, #0
ARM GAS  C:\Users\skipi\AppData\Local\Temp\cc6PZCfi.s 			page 51


 257:../libs/libDaisy/src/dev/mpr121.h ****     {
 1615              		.loc 12 257 10 view .LVU481
 1616 0006 85B0     		sub	sp, sp, #20
 1617              		.cfi_def_cfa_offset 48
 1618              	.LBB549:
 1619              	.LBB550:
  66:../libs/libDaisy/src/dev/mpr121.h ****     }
 1620              		.loc 12 66 40 view .LVU482
 1621 0008 00F11806 		add	r6, r0, #24
 1622 000c 4FF00A08 		mov	r8, #10
 1623              	.LBE550:
 1624              	.LBE549:
 257:../libs/libDaisy/src/dev/mpr121.h ****     {
 1625              		.loc 12 257 10 view .LVU483
 1626 0010 0446     		mov	r4, r0
 1627              		.loc 12 264 17 view .LVU484
 1628 0012 4FF05E09 		mov	r9, #94
 257:../libs/libDaisy/src/dev/mpr121.h ****     {
 1629              		.loc 12 257 10 view .LVU485
 1630 0016 0D46     		mov	r5, r1
 1631              		.loc 12 264 17 view .LVU486
 1632 0018 8DF80D30 		strb	r3, [sp, #13]
 1633              	.LBB554:
 1634              	.LBB551:
  66:../libs/libDaisy/src/dev/mpr121.h ****     }
 1635              		.loc 12 66 40 view .LVU487
 1636 001c CDF80080 		str	r8, [sp]
 1637 0020 0123     		movs	r3, #1
 1638 0022 90F82C10 		ldrb	r1, [r0, #44]	@ zero_extendqisi2
 1639              	.LVL121:
  66:../libs/libDaisy/src/dev/mpr121.h ****     }
 1640              		.loc 12 66 40 view .LVU488
 1641              	.LBE551:
 1642              	.LBE554:
 257:../libs/libDaisy/src/dev/mpr121.h ****     {
 1643              		.loc 12 257 10 view .LVU489
 1644 0026 1746     		mov	r7, r2
 1645              	.LBB555:
 1646              	.LBB552:
  66:../libs/libDaisy/src/dev/mpr121.h ****     }
 1647              		.loc 12 66 40 view .LVU490
 1648 0028 3046     		mov	r0, r6
 1649              	.LVL122:
  66:../libs/libDaisy/src/dev/mpr121.h ****     }
 1650              		.loc 12 66 40 view .LVU491
 1651 002a 03AA     		add	r2, sp, #12
 1652              	.LVL123:
  66:../libs/libDaisy/src/dev/mpr121.h ****     }
 1653              		.loc 12 66 40 view .LVU492
 1654              	.LBE552:
 1655              	.LBE555:
 1656              		.loc 12 264 17 view .LVU493
 1657 002c 8DF80C90 		strb	r9, [sp, #12]
 1658              	.LVL124:
 1659              	.LBB556:
 1660              	.LBI549:
  63:../libs/libDaisy/src/dev/mpr121.h ****     {
ARM GAS  C:\Users\skipi\AppData\Local\Temp\cc6PZCfi.s 			page 52


 1661              		.loc 12 63 10 is_stmt 1 view .LVU494
 1662              	.LBB553:
  65:../libs/libDaisy/src/dev/mpr121.h ****                != i2c_.TransmitBlocking(config_.dev_addr, data, size, 10);
 1663              		.loc 12 65 9 view .LVU495
  66:../libs/libDaisy/src/dev/mpr121.h ****     }
 1664              		.loc 12 66 40 is_stmt 0 view .LVU496
 1665 0030 FFF7FEFF 		bl	_ZN5daisy9I2CHandle16TransmitBlockingEtPhtm
 1666              	.LVL125:
  66:../libs/libDaisy/src/dev/mpr121.h ****     }
 1667              		.loc 12 66 40 view .LVU497
 1668              	.LBE553:
 1669              	.LBE556:
 1670              	.LBB557:
 1671              	.LBI557:
 265:../libs/libDaisy/src/dev/mpr121.h **** 
 266:../libs/libDaisy/src/dev/mpr121.h ****         SetTransportErr(transport_.Write(buff, 1));
 267:../libs/libDaisy/src/dev/mpr121.h **** 
 268:../libs/libDaisy/src/dev/mpr121.h ****         uint8_t ecr_backup;
 269:../libs/libDaisy/src/dev/mpr121.h ****         SetTransportErr(transport_.Read(&ecr_backup, 1));
 270:../libs/libDaisy/src/dev/mpr121.h ****         if((reg == MPR121_ECR) || ((0x73 <= reg) && (reg <= 0x7A)))
 271:../libs/libDaisy/src/dev/mpr121.h ****         {
 272:../libs/libDaisy/src/dev/mpr121.h ****             stop_required = false;
 273:../libs/libDaisy/src/dev/mpr121.h ****         }
 274:../libs/libDaisy/src/dev/mpr121.h **** 
 275:../libs/libDaisy/src/dev/mpr121.h ****         if(stop_required)
 276:../libs/libDaisy/src/dev/mpr121.h ****         {
 277:../libs/libDaisy/src/dev/mpr121.h ****             // clear this register to set stop mode
 278:../libs/libDaisy/src/dev/mpr121.h ****             SetTransportErr(transport_.Write(buff, 2));
 279:../libs/libDaisy/src/dev/mpr121.h ****         }
 280:../libs/libDaisy/src/dev/mpr121.h **** 
 281:../libs/libDaisy/src/dev/mpr121.h ****         buff[0] = reg;
 282:../libs/libDaisy/src/dev/mpr121.h ****         buff[1] = value;
 283:../libs/libDaisy/src/dev/mpr121.h ****         SetTransportErr(transport_.Write(buff, 2));
 284:../libs/libDaisy/src/dev/mpr121.h **** 
 285:../libs/libDaisy/src/dev/mpr121.h ****         if(stop_required)
 286:../libs/libDaisy/src/dev/mpr121.h ****         {
 287:../libs/libDaisy/src/dev/mpr121.h ****             // write back the previous set ECR settings
 288:../libs/libDaisy/src/dev/mpr121.h ****             buff[0] = ecr_reg;
 289:../libs/libDaisy/src/dev/mpr121.h ****             buff[1] = ecr_backup;
 290:../libs/libDaisy/src/dev/mpr121.h ****             SetTransportErr(transport_.Write(buff, 2));
 291:../libs/libDaisy/src/dev/mpr121.h ****         }
 292:../libs/libDaisy/src/dev/mpr121.h ****     }
 293:../libs/libDaisy/src/dev/mpr121.h **** 
 294:../libs/libDaisy/src/dev/mpr121.h ****     /** Device register map */
 295:../libs/libDaisy/src/dev/mpr121.h ****     enum RegMap
 296:../libs/libDaisy/src/dev/mpr121.h ****     {
 297:../libs/libDaisy/src/dev/mpr121.h ****         MPR121_TOUCHSTATUS_L = 0x00,
 298:../libs/libDaisy/src/dev/mpr121.h ****         MPR121_TOUCHSTATUS_H = 0x01,
 299:../libs/libDaisy/src/dev/mpr121.h ****         MPR121_FILTDATA_0L   = 0x04,
 300:../libs/libDaisy/src/dev/mpr121.h ****         MPR121_FILTDATA_0H   = 0x05,
 301:../libs/libDaisy/src/dev/mpr121.h ****         MPR121_BASELINE_0    = 0x1E,
 302:../libs/libDaisy/src/dev/mpr121.h ****         MPR121_MHDR          = 0x2B,
 303:../libs/libDaisy/src/dev/mpr121.h ****         MPR121_NHDR          = 0x2C,
 304:../libs/libDaisy/src/dev/mpr121.h ****         MPR121_NCLR          = 0x2D,
 305:../libs/libDaisy/src/dev/mpr121.h ****         MPR121_FDLR          = 0x2E,
 306:../libs/libDaisy/src/dev/mpr121.h ****         MPR121_MHDF          = 0x2F,
 307:../libs/libDaisy/src/dev/mpr121.h ****         MPR121_NHDF          = 0x30,
ARM GAS  C:\Users\skipi\AppData\Local\Temp\cc6PZCfi.s 			page 53


 308:../libs/libDaisy/src/dev/mpr121.h ****         MPR121_NCLF          = 0x31,
 309:../libs/libDaisy/src/dev/mpr121.h ****         MPR121_FDLF          = 0x32,
 310:../libs/libDaisy/src/dev/mpr121.h ****         MPR121_NHDT          = 0x33,
 311:../libs/libDaisy/src/dev/mpr121.h ****         MPR121_NCLT          = 0x34,
 312:../libs/libDaisy/src/dev/mpr121.h ****         MPR121_FDLT          = 0x35,
 313:../libs/libDaisy/src/dev/mpr121.h **** 
 314:../libs/libDaisy/src/dev/mpr121.h ****         MPR121_TOUCHTH_0    = 0x41,
 315:../libs/libDaisy/src/dev/mpr121.h ****         MPR121_RELEASETH_0  = 0x42,
 316:../libs/libDaisy/src/dev/mpr121.h ****         MPR121_DEBOUNCE     = 0x5B,
 317:../libs/libDaisy/src/dev/mpr121.h ****         MPR121_CONFIG1      = 0x5C,
 318:../libs/libDaisy/src/dev/mpr121.h ****         MPR121_CONFIG2      = 0x5D,
 319:../libs/libDaisy/src/dev/mpr121.h ****         MPR121_CHARGECURR_0 = 0x5F,
 320:../libs/libDaisy/src/dev/mpr121.h ****         MPR121_CHARGETIME_1 = 0x6C,
 321:../libs/libDaisy/src/dev/mpr121.h ****         MPR121_ECR          = 0x5E,
 322:../libs/libDaisy/src/dev/mpr121.h ****         MPR121_AUTOCONFIG0  = 0x7B,
 323:../libs/libDaisy/src/dev/mpr121.h ****         MPR121_AUTOCONFIG1  = 0x7C,
 324:../libs/libDaisy/src/dev/mpr121.h ****         MPR121_UPLIMIT      = 0x7D,
 325:../libs/libDaisy/src/dev/mpr121.h ****         MPR121_LOWLIMIT     = 0x7E,
 326:../libs/libDaisy/src/dev/mpr121.h ****         MPR121_TARGETLIMIT  = 0x7F,
 327:../libs/libDaisy/src/dev/mpr121.h **** 
 328:../libs/libDaisy/src/dev/mpr121.h ****         MPR121_GPIODIR    = 0x76,
 329:../libs/libDaisy/src/dev/mpr121.h ****         MPR121_GPIOEN     = 0x77,
 330:../libs/libDaisy/src/dev/mpr121.h ****         MPR121_GPIOSET    = 0x78,
 331:../libs/libDaisy/src/dev/mpr121.h ****         MPR121_GPIOCLR    = 0x79,
 332:../libs/libDaisy/src/dev/mpr121.h ****         MPR121_GPIOTOGGLE = 0x7A,
 333:../libs/libDaisy/src/dev/mpr121.h **** 
 334:../libs/libDaisy/src/dev/mpr121.h ****         MPR121_SOFTRESET = 0x80,
 335:../libs/libDaisy/src/dev/mpr121.h ****     };
 336:../libs/libDaisy/src/dev/mpr121.h **** 
 337:../libs/libDaisy/src/dev/mpr121.h ****   private:
 338:../libs/libDaisy/src/dev/mpr121.h ****     Config    config_;
 339:../libs/libDaisy/src/dev/mpr121.h ****     Transport transport_;
 340:../libs/libDaisy/src/dev/mpr121.h ****     bool      transport_error_;
 341:../libs/libDaisy/src/dev/mpr121.h **** 
 342:../libs/libDaisy/src/dev/mpr121.h ****     /** Set the global transport_error_ bool */
 343:../libs/libDaisy/src/dev/mpr121.h ****     void SetTransportErr(bool err) { transport_error_ |= err; }
 1672              		.loc 12 343 10 is_stmt 1 view .LVU498
 1673              	.LBE557:
 1674              	.LBB561:
 1675              	.LBB562:
  73:../libs/libDaisy/src/dev/mpr121.h ****     }
 1676              		.loc 12 73 39 is_stmt 0 view .LVU499
 1677 0034 CDF80080 		str	r8, [sp]
 1678 0038 0DF10B02 		add	r2, sp, #11
 1679              	.LBE562:
 1680              	.LBE561:
 1681              	.LBB566:
 1682              	.LBB558:
 1683              		.loc 12 343 55 view .LVU500
 1684 003c 94F83030 		ldrb	r3, [r4, #48]	@ zero_extendqisi2
 1685              	.LBE558:
 1686              	.LBE566:
 1687              	.LBB567:
 1688              	.LBB563:
  73:../libs/libDaisy/src/dev/mpr121.h ****     }
 1689              		.loc 12 73 39 view .LVU501
 1690 0040 94F82C10 		ldrb	r1, [r4, #44]	@ zero_extendqisi2
ARM GAS  C:\Users\skipi\AppData\Local\Temp\cc6PZCfi.s 			page 54


 1691              	.LBE563:
 1692              	.LBE567:
 1693              	.LBB568:
 1694              	.LBB559:
 1695              		.loc 12 343 55 view .LVU502
 1696 0044 0028     		cmp	r0, #0
 1697 0046 18BF     		it	ne
 1698 0048 43F00103 		orrne	r3, r3, #1
 1699              	.LBE559:
 1700              	.LBE568:
 1701              	.LBB569:
 1702              	.LBB564:
  73:../libs/libDaisy/src/dev/mpr121.h ****     }
 1703              		.loc 12 73 39 view .LVU503
 1704 004c 3046     		mov	r0, r6
 1705              	.LVL126:
  73:../libs/libDaisy/src/dev/mpr121.h ****     }
 1706              		.loc 12 73 39 view .LVU504
 1707              	.LBE564:
 1708              	.LBE569:
 1709              	.LBB570:
 1710              	.LBB560:
 1711              		.loc 12 343 55 view .LVU505
 1712 004e 84F83030 		strb	r3, [r4, #48]
 1713              	.LVL127:
 1714              		.loc 12 343 55 view .LVU506
 1715              	.LBE560:
 1716              	.LBE570:
 1717              	.LBB571:
 1718              	.LBI561:
  70:../libs/libDaisy/src/dev/mpr121.h ****     {
 1719              		.loc 12 70 10 is_stmt 1 view .LVU507
 1720              	.LBB565:
  72:../libs/libDaisy/src/dev/mpr121.h ****                != i2c_.ReceiveBlocking(config_.dev_addr, data, size, 10);
 1721              		.loc 12 72 9 view .LVU508
  73:../libs/libDaisy/src/dev/mpr121.h ****     }
 1722              		.loc 12 73 39 is_stmt 0 view .LVU509
 1723 0052 0123     		movs	r3, #1
 1724 0054 FFF7FEFF 		bl	_ZN5daisy9I2CHandle15ReceiveBlockingEtPhtm
 1725              	.LVL128:
  73:../libs/libDaisy/src/dev/mpr121.h ****     }
 1726              		.loc 12 73 39 view .LVU510
 1727              	.LBE565:
 1728              	.LBE571:
 1729              	.LBB572:
 1730              	.LBI572:
 1731              		.loc 12 343 10 is_stmt 1 view .LVU511
 1732              	.LBB573:
 1733              		.loc 12 343 55 is_stmt 0 view .LVU512
 1734 0058 94F83030 		ldrb	r3, [r4, #48]	@ zero_extendqisi2
 1735 005c 0028     		cmp	r0, #0
 1736 005e 18BF     		it	ne
 1737 0060 43F00103 		orrne	r3, r3, #1
 1738 0064 84F83030 		strb	r3, [r4, #48]
 1739              	.LVL129:
 1740              		.loc 12 343 55 view .LVU513
 1741              	.LBE573:
ARM GAS  C:\Users\skipi\AppData\Local\Temp\cc6PZCfi.s 			page 55


 1742              	.LBE572:
 270:../libs/libDaisy/src/dev/mpr121.h ****         {
 1743              		.loc 12 270 50 view .LVU514
 1744 0068 A5F17303 		sub	r3, r5, #115
 270:../libs/libDaisy/src/dev/mpr121.h ****         {
 1745              		.loc 12 270 9 view .LVU515
 1746 006c 072B     		cmp	r3, #7
 1747 006e 01D9     		bls	.L27
 1748 0070 4D45     		cmp	r5, r9
 1749 0072 17D1     		bne	.L31
 1750              	.L27:
 1751              	.LVL130:
 1752              	.LBB574:
 1753              	.LBB575:
  66:../libs/libDaisy/src/dev/mpr121.h ****     }
 1754              		.loc 12 66 40 view .LVU516
 1755 0074 0A23     		movs	r3, #10
 1756 0076 03AA     		add	r2, sp, #12
 1757 0078 3046     		mov	r0, r6
 1758              	.LBE575:
 1759              	.LBE574:
 281:../libs/libDaisy/src/dev/mpr121.h ****         buff[1] = value;
 1760              		.loc 12 281 17 view .LVU517
 1761 007a 8DF80C50 		strb	r5, [sp, #12]
 1762              	.LBB584:
 1763              	.LBB576:
  66:../libs/libDaisy/src/dev/mpr121.h ****     }
 1764              		.loc 12 66 40 view .LVU518
 1765 007e 0093     		str	r3, [sp]
 1766 0080 0223     		movs	r3, #2
 1767              	.LBE576:
 1768              	.LBE584:
 282:../libs/libDaisy/src/dev/mpr121.h ****         SetTransportErr(transport_.Write(buff, 2));
 1769              		.loc 12 282 17 view .LVU519
 1770 0082 8DF80D70 		strb	r7, [sp, #13]
 1771              	.LVL131:
 1772              	.LBB585:
 1773              	.LBI574:
  63:../libs/libDaisy/src/dev/mpr121.h ****     {
 1774              		.loc 12 63 10 is_stmt 1 view .LVU520
 1775              	.LBB577:
  65:../libs/libDaisy/src/dev/mpr121.h ****                != i2c_.TransmitBlocking(config_.dev_addr, data, size, 10);
 1776              		.loc 12 65 9 view .LVU521
 1777              	.L30:
  66:../libs/libDaisy/src/dev/mpr121.h ****     }
 1778              		.loc 12 66 40 is_stmt 0 view .LVU522
 1779 0086 94F82C10 		ldrb	r1, [r4, #44]	@ zero_extendqisi2
 1780 008a FFF7FEFF 		bl	_ZN5daisy9I2CHandle16TransmitBlockingEtPhtm
 1781              	.LVL132:
  66:../libs/libDaisy/src/dev/mpr121.h ****     }
 1782              		.loc 12 66 40 view .LVU523
 1783              	.LBE577:
 1784              	.LBE585:
 1785              	.LBB586:
 1786              	.LBI586:
 1787              		.loc 12 343 10 is_stmt 1 view .LVU524
 1788              	.LBB587:
ARM GAS  C:\Users\skipi\AppData\Local\Temp\cc6PZCfi.s 			page 56


 1789              		.loc 12 343 55 is_stmt 0 view .LVU525
 1790 008e 94F83030 		ldrb	r3, [r4, #48]	@ zero_extendqisi2
 1791 0092 0028     		cmp	r0, #0
 1792 0094 18BF     		it	ne
 1793 0096 43F00103 		orrne	r3, r3, #1
 1794 009a 84F83030 		strb	r3, [r4, #48]
 1795              	.LVL133:
 1796              		.loc 12 343 55 view .LVU526
 1797              	.LBE587:
 1798              	.LBE586:
 292:../libs/libDaisy/src/dev/mpr121.h **** 
 1799              		.loc 12 292 5 view .LVU527
 1800 009e 05B0     		add	sp, sp, #20
 1801              		.cfi_remember_state
 1802              		.cfi_def_cfa_offset 28
 1803              		@ sp needed
 1804 00a0 BDE8F083 		pop	{r4, r5, r6, r7, r8, r9, pc}
 1805              	.LVL134:
 1806              	.L31:
 1807              		.cfi_restore_state
 1808              	.LBB591:
 1809              	.LBI591:
  63:../libs/libDaisy/src/dev/mpr121.h ****     {
 1810              		.loc 12 63 10 is_stmt 1 view .LVU528
 1811              	.LBB592:
  65:../libs/libDaisy/src/dev/mpr121.h ****                != i2c_.TransmitBlocking(config_.dev_addr, data, size, 10);
 1812              		.loc 12 65 9 view .LVU529
  66:../libs/libDaisy/src/dev/mpr121.h ****     }
 1813              		.loc 12 66 40 is_stmt 0 view .LVU530
 1814 00a4 0223     		movs	r3, #2
 1815 00a6 03AA     		add	r2, sp, #12
 1816              	.LVL135:
  66:../libs/libDaisy/src/dev/mpr121.h ****     }
 1817              		.loc 12 66 40 view .LVU531
 1818 00a8 CDF80080 		str	r8, [sp]
 1819 00ac 3046     		mov	r0, r6
 1820 00ae 94F82C10 		ldrb	r1, [r4, #44]	@ zero_extendqisi2
 1821 00b2 FFF7FEFF 		bl	_ZN5daisy9I2CHandle16TransmitBlockingEtPhtm
 1822              	.LVL136:
  66:../libs/libDaisy/src/dev/mpr121.h ****     }
 1823              		.loc 12 66 40 view .LVU532
 1824              	.LBE592:
 1825              	.LBE591:
 1826              	.LBB593:
 1827              	.LBI593:
 1828              		.loc 12 343 10 is_stmt 1 view .LVU533
 1829              	.LBE593:
 1830              	.LBB597:
 1831              	.LBB578:
  66:../libs/libDaisy/src/dev/mpr121.h ****     }
 1832              		.loc 12 66 40 is_stmt 0 view .LVU534
 1833 00b6 CDF80080 		str	r8, [sp]
 1834              	.LBE578:
 1835              	.LBE597:
 1836              	.LBB598:
 1837              	.LBB594:
 1838              		.loc 12 343 55 view .LVU535
ARM GAS  C:\Users\skipi\AppData\Local\Temp\cc6PZCfi.s 			page 57


 1839 00ba 94F83030 		ldrb	r3, [r4, #48]	@ zero_extendqisi2
 1840              	.LBE594:
 1841              	.LBE598:
 1842              	.LBB599:
 1843              	.LBB579:
  66:../libs/libDaisy/src/dev/mpr121.h ****     }
 1844              		.loc 12 66 40 view .LVU536
 1845 00be 03AA     		add	r2, sp, #12
 1846 00c0 94F82C10 		ldrb	r1, [r4, #44]	@ zero_extendqisi2
 1847              	.LBE579:
 1848              	.LBE599:
 1849              	.LBB600:
 1850              	.LBB595:
 1851              		.loc 12 343 55 view .LVU537
 1852 00c4 0028     		cmp	r0, #0
 1853 00c6 18BF     		it	ne
 1854 00c8 43F00103 		orrne	r3, r3, #1
 1855              	.LBE595:
 1856              	.LBE600:
 1857              	.LBB601:
 1858              	.LBB580:
  66:../libs/libDaisy/src/dev/mpr121.h ****     }
 1859              		.loc 12 66 40 view .LVU538
 1860 00cc 3046     		mov	r0, r6
 1861              	.LVL137:
  66:../libs/libDaisy/src/dev/mpr121.h ****     }
 1862              		.loc 12 66 40 view .LVU539
 1863              	.LBE580:
 1864              	.LBE601:
 281:../libs/libDaisy/src/dev/mpr121.h ****         buff[1] = value;
 1865              		.loc 12 281 17 view .LVU540
 1866 00ce 8DF80C50 		strb	r5, [sp, #12]
 1867              	.LBB602:
 1868              	.LBB596:
 1869              		.loc 12 343 55 view .LVU541
 1870 00d2 84F83030 		strb	r3, [r4, #48]
 1871              	.LVL138:
 1872              		.loc 12 343 55 view .LVU542
 1873              	.LBE596:
 1874              	.LBE602:
 1875              	.LBB603:
  63:../libs/libDaisy/src/dev/mpr121.h ****     {
 1876              		.loc 12 63 10 is_stmt 1 view .LVU543
 1877              	.LBB581:
  65:../libs/libDaisy/src/dev/mpr121.h ****                != i2c_.TransmitBlocking(config_.dev_addr, data, size, 10);
 1878              		.loc 12 65 9 view .LVU544
  66:../libs/libDaisy/src/dev/mpr121.h ****     }
 1879              		.loc 12 66 40 is_stmt 0 view .LVU545
 1880 00d6 0223     		movs	r3, #2
 1881              	.LBE581:
 1882              	.LBE603:
 282:../libs/libDaisy/src/dev/mpr121.h ****         SetTransportErr(transport_.Write(buff, 2));
 1883              		.loc 12 282 17 view .LVU546
 1884 00d8 8DF80D70 		strb	r7, [sp, #13]
 1885              	.LBB604:
 1886              	.LBB582:
  66:../libs/libDaisy/src/dev/mpr121.h ****     }
ARM GAS  C:\Users\skipi\AppData\Local\Temp\cc6PZCfi.s 			page 58


 1887              		.loc 12 66 40 view .LVU547
 1888 00dc FFF7FEFF 		bl	_ZN5daisy9I2CHandle16TransmitBlockingEtPhtm
 1889              	.LVL139:
  66:../libs/libDaisy/src/dev/mpr121.h ****     }
 1890              		.loc 12 66 40 view .LVU548
 1891              	.LBE582:
 1892              	.LBE604:
 1893              	.LBB605:
 1894              	.LBB606:
 1895 00e0 CDF80080 		str	r8, [sp]
 1896              	.LBE606:
 1897              	.LBE605:
 1898              	.LBB611:
 1899              	.LBB583:
 1900 00e4 0546     		mov	r5, r0
 1901              	.LVL140:
  66:../libs/libDaisy/src/dev/mpr121.h ****     }
 1902              		.loc 12 66 40 view .LVU549
 1903              	.LBE583:
 1904              	.LBE611:
 1905              	.LBB612:
 1906              		.loc 12 343 10 is_stmt 1 view .LVU550
 1907              	.LBB588:
 1908              		.loc 12 343 55 is_stmt 0 view .LVU551
 1909 00e6 94F83010 		ldrb	r1, [r4, #48]	@ zero_extendqisi2
 1910              	.LBE588:
 1911              	.LBE612:
 1912              	.LBB613:
 1913              	.LBB607:
  66:../libs/libDaisy/src/dev/mpr121.h ****     }
 1914              		.loc 12 66 40 view .LVU552
 1915 00ea 03AA     		add	r2, sp, #12
 1916              	.LBE607:
 1917              	.LBE613:
 289:../libs/libDaisy/src/dev/mpr121.h ****             SetTransportErr(transport_.Write(buff, 2));
 1918              		.loc 12 289 21 view .LVU553
 1919 00ec 9DF80B30 		ldrb	r3, [sp, #11]	@ zero_extendqisi2
 1920              	.LBB614:
 1921              	.LBB608:
  66:../libs/libDaisy/src/dev/mpr121.h ****     }
 1922              		.loc 12 66 40 view .LVU554
 1923 00f0 3046     		mov	r0, r6
 1924              	.LVL141:
  66:../libs/libDaisy/src/dev/mpr121.h ****     }
 1925              		.loc 12 66 40 view .LVU555
 1926              	.LBE608:
 1927              	.LBE614:
 1928              	.LBB615:
 1929              	.LBB589:
 1930              		.loc 12 343 55 view .LVU556
 1931 00f2 002D     		cmp	r5, #0
 1932 00f4 18BF     		it	ne
 1933 00f6 41F00101 		orrne	r1, r1, #1
 1934              	.LBE589:
 1935              	.LBE615:
 288:../libs/libDaisy/src/dev/mpr121.h ****             buff[1] = ecr_backup;
 1936              		.loc 12 288 21 view .LVU557
ARM GAS  C:\Users\skipi\AppData\Local\Temp\cc6PZCfi.s 			page 59


 1937 00fa 8DF80C90 		strb	r9, [sp, #12]
 289:../libs/libDaisy/src/dev/mpr121.h ****             SetTransportErr(transport_.Write(buff, 2));
 1938              		.loc 12 289 21 view .LVU558
 1939 00fe 8DF80D30 		strb	r3, [sp, #13]
 1940              	.LBB616:
 1941              	.LBB609:
  66:../libs/libDaisy/src/dev/mpr121.h ****     }
 1942              		.loc 12 66 40 view .LVU559
 1943 0102 0223     		movs	r3, #2
 1944              	.LBE609:
 1945              	.LBE616:
 1946              	.LBB617:
 1947              	.LBB590:
 1948              		.loc 12 343 55 view .LVU560
 1949 0104 84F83010 		strb	r1, [r4, #48]
 1950              	.LVL142:
 1951              		.loc 12 343 55 view .LVU561
 1952              	.LBE590:
 1953              	.LBE617:
 1954              	.LBB618:
 1955              	.LBI605:
  63:../libs/libDaisy/src/dev/mpr121.h ****     {
 1956              		.loc 12 63 10 is_stmt 1 view .LVU562
 1957              	.LBB610:
  65:../libs/libDaisy/src/dev/mpr121.h ****                != i2c_.TransmitBlocking(config_.dev_addr, data, size, 10);
 1958              		.loc 12 65 9 view .LVU563
 1959 0108 BDE7     		b	.L30
 1960              	.LBE610:
 1961              	.LBE618:
 1962              		.cfi_endproc
 1963              	.LFE5251:
 1965 010a 00BF     		.section	.text.startup.main,"ax",%progbits
 1966              		.align	1
 1967              		.p2align 2,,3
 1968              		.global	main
 1969              		.syntax unified
 1970              		.thumb
 1971              		.thumb_func
 1972              		.fpu fpv5-d16
 1974              	main:
 1975              	.LFB4816:
 199:src/PianoB.cpp **** 
 200:src/PianoB.cpp **** 
 201:src/PianoB.cpp **** 
 202:src/PianoB.cpp **** 
 203:src/PianoB.cpp **** 
 204:src/PianoB.cpp **** int main() {
 1976              		.loc 10 204 12 view -0
 1977              		.cfi_startproc
 1978              		@ args = 0, pretend = 0, frame = 120
 1979              		@ frame_needed = 0, uses_anonymous_args = 0
 205:src/PianoB.cpp ****     hw.Configure();                                                             // Hardware configu
 1980              		.loc 10 205 5 view .LVU565
 204:src/PianoB.cpp ****     hw.Configure();                                                             // Hardware configu
 1981              		.loc 10 204 12 is_stmt 0 view .LVU566
 1982 0000 2DE9F04F 		push	{r4, r5, r6, r7, r8, r9, r10, fp, lr}
 1983              		.cfi_def_cfa_offset 36
ARM GAS  C:\Users\skipi\AppData\Local\Temp\cc6PZCfi.s 			page 60


 1984              		.cfi_offset 4, -36
 1985              		.cfi_offset 5, -32
 1986              		.cfi_offset 6, -28
 1987              		.cfi_offset 7, -24
 1988              		.cfi_offset 8, -20
 1989              		.cfi_offset 9, -16
 1990              		.cfi_offset 10, -12
 1991              		.cfi_offset 11, -8
 1992              		.cfi_offset 14, -4
 206:src/PianoB.cpp ****     hw.Init();                                                                  // Hardware initial
 207:src/PianoB.cpp **** 
 208:src/PianoB.cpp ****     hw.StartLog (true); /* true == wait for PC: will block until a terminal is connected */
 209:src/PianoB.cpp **** 	hw.DelayMs(100);
 210:src/PianoB.cpp ****     Pin pin_scl = {PORTB, 8};
 211:src/PianoB.cpp **** 	Pin pin_sda = {PORTB, 9};
 212:src/PianoB.cpp **** 	I2CHandle::Config i2c_conf;
 213:src/PianoB.cpp **** 	i2c_conf.periph = I2CHandle::Config::Peripheral::I2C_1;
 1993              		.loc 10 213 18 view .LVU567
 1994 0004 0024     		movs	r4, #0
 214:src/PianoB.cpp **** 	i2c_conf.speed  = I2CHandle::Config::Speed::I2C_400KHZ;
 1995              		.loc 10 214 18 view .LVU568
 1996 0006 4FF00108 		mov	r8, #1
 205:src/PianoB.cpp ****     hw.Init();                                                                  // Hardware initial
 1997              		.loc 10 205 17 view .LVU569
 1998 000a C848     		ldr	r0, .L62
 1999              	.LBB807:
 2000              	.LBB808:
 2001              		.file 13 "../libs/libDaisy/src/per/i2c.h"
   1:../libs/libDaisy/src/per/i2c.h **** #pragma once
   2:../libs/libDaisy/src/per/i2c.h **** #include "util/hal_map.h"
   3:../libs/libDaisy/src/per/i2c.h **** #include "daisy_core.h"
   4:../libs/libDaisy/src/per/i2c.h **** 
   5:../libs/libDaisy/src/per/i2c.h **** namespace daisy
   6:../libs/libDaisy/src/per/i2c.h **** {
   7:../libs/libDaisy/src/per/i2c.h **** /** A handle for interacting with an I2C peripheral. This is a dumb
   8:../libs/libDaisy/src/per/i2c.h ****  *  gateway that internally points to one of the four I2C peripherals
   9:../libs/libDaisy/src/per/i2c.h ****  *  after it was initialised. It can then be copied and passed around.
  10:../libs/libDaisy/src/per/i2c.h ****  *  Use an I2CHandle like this:
  11:../libs/libDaisy/src/per/i2c.h ****  *  
  12:../libs/libDaisy/src/per/i2c.h ****  *      // setup the configuration
  13:../libs/libDaisy/src/per/i2c.h ****  *      I2CHandle::Config i2c_conf;
  14:../libs/libDaisy/src/per/i2c.h ****  *      i2c_conf.periph = I2CHandle::Config::Peripheral::I2C_1;
  15:../libs/libDaisy/src/per/i2c.h ****  *      i2c_conf.speed  = I2CHandle::Config::Speed::I2C_400KHZ;
  16:../libs/libDaisy/src/per/i2c.h ****  *      i2c_conf.mode   = I2CHandle::Config::Mode::Master;
  17:../libs/libDaisy/src/per/i2c.h ****  *      i2c_conf.pin_config.scl  = {DSY_GPIOB, 8};
  18:../libs/libDaisy/src/per/i2c.h ****  *      i2c_conf.pin_config.sda  = {DSY_GPIOB, 9};
  19:../libs/libDaisy/src/per/i2c.h ****  *      // initialise the peripheral
  20:../libs/libDaisy/src/per/i2c.h ****  *      I2CHandle i2c;
  21:../libs/libDaisy/src/per/i2c.h ****  *      i2c.Init(i2c_conf);
  22:../libs/libDaisy/src/per/i2c.h ****  *      // now i2c points to the corresponding peripheral and can be used.
  23:../libs/libDaisy/src/per/i2c.h ****  *      i2c.TransmitBlocking( ... );
  24:../libs/libDaisy/src/per/i2c.h ****  */
  25:../libs/libDaisy/src/per/i2c.h **** class I2CHandle
  26:../libs/libDaisy/src/per/i2c.h **** {
  27:../libs/libDaisy/src/per/i2c.h ****   public:
  28:../libs/libDaisy/src/per/i2c.h ****     /** Contains settings for initialising an I2C interface. */
  29:../libs/libDaisy/src/per/i2c.h ****     struct Config
ARM GAS  C:\Users\skipi\AppData\Local\Temp\cc6PZCfi.s 			page 61


 2002              		.loc 13 29 12 view .LVU570
 2003 000c 1026     		movs	r6, #16
 2004              	.LBB809:
 2005              	.LBB810:
 2006              	.LBB811:
 2007              		.file 14 "../libs/libDaisy/src/daisy_core.h"
   1:../libs/libDaisy/src/daisy_core.h **** #pragma once
   2:../libs/libDaisy/src/daisy_core.h **** #ifndef DSY_CORE_HW_H
   3:../libs/libDaisy/src/daisy_core.h **** #define DSY_CORE_HW_H /**< & */
   4:../libs/libDaisy/src/daisy_core.h **** #include <stdint.h>
   5:../libs/libDaisy/src/daisy_core.h **** #include <stdlib.h>
   6:../libs/libDaisy/src/daisy_core.h **** 
   7:../libs/libDaisy/src/daisy_core.h **** #if defined(_MSC_VER)
   8:../libs/libDaisy/src/daisy_core.h **** #define FORCE_INLINE __forceinline /**< & */
   9:../libs/libDaisy/src/daisy_core.h **** #elif defined(__clang__)
  10:../libs/libDaisy/src/daisy_core.h **** #define FORCE_INLINE inline __attribute__((always_inline)) /**< & */
  11:../libs/libDaisy/src/daisy_core.h **** #pragma clang diagnostic ignored "-Wduplicate-decl-specifier"
  12:../libs/libDaisy/src/daisy_core.h **** #elif defined(__GNUC__)
  13:../libs/libDaisy/src/daisy_core.h **** #define FORCE_INLINE inline __attribute__((always_inline)) /**< & */
  14:../libs/libDaisy/src/daisy_core.h **** #else
  15:../libs/libDaisy/src/daisy_core.h **** #error unknown compiler
  16:../libs/libDaisy/src/daisy_core.h **** #endif
  17:../libs/libDaisy/src/daisy_core.h **** 
  18:../libs/libDaisy/src/daisy_core.h **** /** @addtogroup utility
  19:../libs/libDaisy/src/daisy_core.h ****     @{
  20:../libs/libDaisy/src/daisy_core.h **** */
  21:../libs/libDaisy/src/daisy_core.h **** 
  22:../libs/libDaisy/src/daisy_core.h **** /** Macro for area of memory that is configured as cacheless
  23:../libs/libDaisy/src/daisy_core.h **** This should be used primarily for DMA buffers, and the like.
  24:../libs/libDaisy/src/daisy_core.h **** */
  25:../libs/libDaisy/src/daisy_core.h **** #define DMA_BUFFER_MEM_SECTION __attribute__((section(".sram1_bss")))
  26:../libs/libDaisy/src/daisy_core.h **** /** 
  27:../libs/libDaisy/src/daisy_core.h **** THE DTCM RAM section is also non-cached. However, is not suitable 
  28:../libs/libDaisy/src/daisy_core.h **** for DMA transfers. Performance is on par with internal SRAM w/ 
  29:../libs/libDaisy/src/daisy_core.h **** cache enabled.
  30:../libs/libDaisy/src/daisy_core.h **** */
  31:../libs/libDaisy/src/daisy_core.h **** #define DTCM_MEM_SECTION __attribute__((section(".dtcmram_bss")))
  32:../libs/libDaisy/src/daisy_core.h **** 
  33:../libs/libDaisy/src/daisy_core.h **** #define FBIPMAX 0.999985f             /**< close to 1.0f-LSB at 16 bit */
  34:../libs/libDaisy/src/daisy_core.h **** #define FBIPMIN (-FBIPMAX)            /**< - (1 - LSB) */
  35:../libs/libDaisy/src/daisy_core.h **** #define U82F_SCALE 0.0078740f         /**< 1 / 127 */
  36:../libs/libDaisy/src/daisy_core.h **** #define F2U8_SCALE 127.0f             /**< 128 - 1 */
  37:../libs/libDaisy/src/daisy_core.h **** #define S82F_SCALE 0.0078125f         /**< 1 / (2**7) */
  38:../libs/libDaisy/src/daisy_core.h **** #define F2S8_SCALE 127.0f             /**< (2 ** 7) - 1 */
  39:../libs/libDaisy/src/daisy_core.h **** #define S162F_SCALE 3.0517578125e-05f /**< 1 / (2** 15) */
  40:../libs/libDaisy/src/daisy_core.h **** #define F2S16_SCALE 32767.0f          /**< (2 ** 15) - 1 */
  41:../libs/libDaisy/src/daisy_core.h **** #define F2S24_SCALE 8388608.0f        /**< 2 ** 23 */
  42:../libs/libDaisy/src/daisy_core.h **** #define S242F_SCALE 1.192092896e-07f  /**< 1 / (2 ** 23) */
  43:../libs/libDaisy/src/daisy_core.h **** #define S24SIGN 0x800000              /**< 2 ** 23 */
  44:../libs/libDaisy/src/daisy_core.h **** #define S322F_SCALE 4.6566129e-10f    /**< 1 / (2** 31) */
  45:../libs/libDaisy/src/daisy_core.h **** #define F2S32_SCALE 2147483647.f      /**< (2 ** 31) - 1 */
  46:../libs/libDaisy/src/daisy_core.h **** 
  47:../libs/libDaisy/src/daisy_core.h **** 
  48:../libs/libDaisy/src/daisy_core.h **** /** shorthand macro for simplifying the reading of the left 
  49:../libs/libDaisy/src/daisy_core.h ****  *  channel of a non-interleaved output buffer named out */
  50:../libs/libDaisy/src/daisy_core.h **** #define OUT_L out[0]
  51:../libs/libDaisy/src/daisy_core.h **** 
ARM GAS  C:\Users\skipi\AppData\Local\Temp\cc6PZCfi.s 			page 62


  52:../libs/libDaisy/src/daisy_core.h **** /** shorthand macro for simplifying the reading of the right 
  53:../libs/libDaisy/src/daisy_core.h ****  *  channel of a non-interleaved output buffer named out */
  54:../libs/libDaisy/src/daisy_core.h **** #define OUT_R out[1]
  55:../libs/libDaisy/src/daisy_core.h **** 
  56:../libs/libDaisy/src/daisy_core.h **** /** shorthand macro for simplifying the reading of the left 
  57:../libs/libDaisy/src/daisy_core.h ****  *  channel of a non-interleaved input buffer named in */
  58:../libs/libDaisy/src/daisy_core.h **** #define IN_L in[0]
  59:../libs/libDaisy/src/daisy_core.h **** 
  60:../libs/libDaisy/src/daisy_core.h **** /** shorthand macro for simplifying the reading of the right 
  61:../libs/libDaisy/src/daisy_core.h ****  *  channel of a non-interleaved input buffer named in */
  62:../libs/libDaisy/src/daisy_core.h **** #define IN_R in[1]
  63:../libs/libDaisy/src/daisy_core.h **** 
  64:../libs/libDaisy/src/daisy_core.h **** /** 
  65:../libs/libDaisy/src/daisy_core.h ****     Computes cube.
  66:../libs/libDaisy/src/daisy_core.h ****     \param x Number to be cubed
  67:../libs/libDaisy/src/daisy_core.h ****     \return x ^ 3
  68:../libs/libDaisy/src/daisy_core.h **** */
  69:../libs/libDaisy/src/daisy_core.h **** FORCE_INLINE float cube(float x)
  70:../libs/libDaisy/src/daisy_core.h **** {
  71:../libs/libDaisy/src/daisy_core.h ****     return (x * x) * x;
  72:../libs/libDaisy/src/daisy_core.h **** }
  73:../libs/libDaisy/src/daisy_core.h **** 
  74:../libs/libDaisy/src/daisy_core.h **** /** 
  75:../libs/libDaisy/src/daisy_core.h ****     Converts unsigned 8-bit to float
  76:../libs/libDaisy/src/daisy_core.h ****     \param x Number to be scaled.
  77:../libs/libDaisy/src/daisy_core.h ****     \return Scaled number.
  78:../libs/libDaisy/src/daisy_core.h **** */
  79:../libs/libDaisy/src/daisy_core.h **** FORCE_INLINE float u82f(uint8_t x)
  80:../libs/libDaisy/src/daisy_core.h **** {
  81:../libs/libDaisy/src/daisy_core.h ****     return ((float)x - 127.f) * U82F_SCALE;
  82:../libs/libDaisy/src/daisy_core.h **** }
  83:../libs/libDaisy/src/daisy_core.h **** 
  84:../libs/libDaisy/src/daisy_core.h **** /**
  85:../libs/libDaisy/src/daisy_core.h ****     Converts float to unsigned 8-bit
  86:../libs/libDaisy/src/daisy_core.h **** */
  87:../libs/libDaisy/src/daisy_core.h **** FORCE_INLINE uint8_t f2u8(float x)
  88:../libs/libDaisy/src/daisy_core.h **** {
  89:../libs/libDaisy/src/daisy_core.h ****     x = x <= FBIPMIN ? FBIPMIN : x;
  90:../libs/libDaisy/src/daisy_core.h ****     x = x >= FBIPMAX ? FBIPMAX : x;
  91:../libs/libDaisy/src/daisy_core.h ****     return (uint8_t)((x * F2U8_SCALE) + F2U8_SCALE);
  92:../libs/libDaisy/src/daisy_core.h **** }
  93:../libs/libDaisy/src/daisy_core.h **** 
  94:../libs/libDaisy/src/daisy_core.h **** 
  95:../libs/libDaisy/src/daisy_core.h **** /** 
  96:../libs/libDaisy/src/daisy_core.h ****     Converts Signed 8-bit to float
  97:../libs/libDaisy/src/daisy_core.h ****     \param x Number to be scaled.
  98:../libs/libDaisy/src/daisy_core.h ****     \return Scaled number.
  99:../libs/libDaisy/src/daisy_core.h **** */
 100:../libs/libDaisy/src/daisy_core.h **** FORCE_INLINE float s82f(int8_t x)
 101:../libs/libDaisy/src/daisy_core.h **** {
 102:../libs/libDaisy/src/daisy_core.h ****     return (float)x * S82F_SCALE;
 103:../libs/libDaisy/src/daisy_core.h **** }
 104:../libs/libDaisy/src/daisy_core.h **** 
 105:../libs/libDaisy/src/daisy_core.h **** /**
 106:../libs/libDaisy/src/daisy_core.h ****     Converts float to Signed 8-bit
 107:../libs/libDaisy/src/daisy_core.h **** */
 108:../libs/libDaisy/src/daisy_core.h **** FORCE_INLINE int8_t f2s8(float x)
ARM GAS  C:\Users\skipi\AppData\Local\Temp\cc6PZCfi.s 			page 63


 109:../libs/libDaisy/src/daisy_core.h **** {
 110:../libs/libDaisy/src/daisy_core.h ****     x = x <= FBIPMIN ? FBIPMIN : x;
 111:../libs/libDaisy/src/daisy_core.h ****     x = x >= FBIPMAX ? FBIPMAX : x;
 112:../libs/libDaisy/src/daisy_core.h ****     return (int32_t)(x * F2S8_SCALE);
 113:../libs/libDaisy/src/daisy_core.h **** }
 114:../libs/libDaisy/src/daisy_core.h **** 
 115:../libs/libDaisy/src/daisy_core.h **** /** 
 116:../libs/libDaisy/src/daisy_core.h ****     Converts Signed 16-bit to float
 117:../libs/libDaisy/src/daisy_core.h ****     \param x Number to be scaled.
 118:../libs/libDaisy/src/daisy_core.h ****     \return Scaled number.
 119:../libs/libDaisy/src/daisy_core.h **** */
 120:../libs/libDaisy/src/daisy_core.h **** FORCE_INLINE float s162f(int16_t x)
 121:../libs/libDaisy/src/daisy_core.h **** {
 122:../libs/libDaisy/src/daisy_core.h ****     return (float)x * S162F_SCALE;
 123:../libs/libDaisy/src/daisy_core.h **** }
 124:../libs/libDaisy/src/daisy_core.h **** 
 125:../libs/libDaisy/src/daisy_core.h **** /**
 126:../libs/libDaisy/src/daisy_core.h ****     Converts float to Signed 16-bit
 127:../libs/libDaisy/src/daisy_core.h **** */
 128:../libs/libDaisy/src/daisy_core.h **** FORCE_INLINE int16_t f2s16(float x)
 129:../libs/libDaisy/src/daisy_core.h **** {
 130:../libs/libDaisy/src/daisy_core.h ****     x = x <= FBIPMIN ? FBIPMIN : x;
 131:../libs/libDaisy/src/daisy_core.h ****     x = x >= FBIPMAX ? FBIPMAX : x;
 132:../libs/libDaisy/src/daisy_core.h ****     return (int32_t)(x * F2S16_SCALE);
 133:../libs/libDaisy/src/daisy_core.h **** }
 134:../libs/libDaisy/src/daisy_core.h **** 
 135:../libs/libDaisy/src/daisy_core.h **** /**
 136:../libs/libDaisy/src/daisy_core.h ****     Converts Signed 24-bit to float
 137:../libs/libDaisy/src/daisy_core.h ****  */
 138:../libs/libDaisy/src/daisy_core.h **** FORCE_INLINE float s242f(int32_t x)
 139:../libs/libDaisy/src/daisy_core.h **** {
 140:../libs/libDaisy/src/daisy_core.h ****     x = (x ^ S24SIGN) - S24SIGN; //sign extend aka ((x<<8)>>8)
 141:../libs/libDaisy/src/daisy_core.h ****     return (float)x * S242F_SCALE;
 142:../libs/libDaisy/src/daisy_core.h **** }
 143:../libs/libDaisy/src/daisy_core.h **** /**
 144:../libs/libDaisy/src/daisy_core.h ****     Converts float to Signed 24-bit
 145:../libs/libDaisy/src/daisy_core.h ****  */
 146:../libs/libDaisy/src/daisy_core.h **** FORCE_INLINE int32_t f2s24(float x)
 147:../libs/libDaisy/src/daisy_core.h **** {
 148:../libs/libDaisy/src/daisy_core.h ****     x = x <= FBIPMIN ? FBIPMIN : x;
 149:../libs/libDaisy/src/daisy_core.h ****     x = x >= FBIPMAX ? FBIPMAX : x;
 150:../libs/libDaisy/src/daisy_core.h ****     return (int32_t)(x * F2S24_SCALE);
 151:../libs/libDaisy/src/daisy_core.h **** }
 152:../libs/libDaisy/src/daisy_core.h **** 
 153:../libs/libDaisy/src/daisy_core.h **** /**
 154:../libs/libDaisy/src/daisy_core.h ****     Converts Signed 32-bit to float
 155:../libs/libDaisy/src/daisy_core.h ****  */
 156:../libs/libDaisy/src/daisy_core.h **** FORCE_INLINE float s322f(int32_t x)
 157:../libs/libDaisy/src/daisy_core.h **** {
 158:../libs/libDaisy/src/daisy_core.h ****     return (float)x * S322F_SCALE;
 159:../libs/libDaisy/src/daisy_core.h **** }
 160:../libs/libDaisy/src/daisy_core.h **** /**
 161:../libs/libDaisy/src/daisy_core.h ****     Converts float to Signed 24-bit
 162:../libs/libDaisy/src/daisy_core.h ****  */
 163:../libs/libDaisy/src/daisy_core.h **** FORCE_INLINE int32_t f2s32(float x)
 164:../libs/libDaisy/src/daisy_core.h **** {
 165:../libs/libDaisy/src/daisy_core.h ****     x = x <= FBIPMIN ? FBIPMIN : x;
ARM GAS  C:\Users\skipi\AppData\Local\Temp\cc6PZCfi.s 			page 64


 166:../libs/libDaisy/src/daisy_core.h ****     x = x >= FBIPMAX ? FBIPMAX : x;
 167:../libs/libDaisy/src/daisy_core.h ****     return (int32_t)(x * F2S32_SCALE);
 168:../libs/libDaisy/src/daisy_core.h **** }
 169:../libs/libDaisy/src/daisy_core.h **** 
 170:../libs/libDaisy/src/daisy_core.h **** #ifdef __cplusplus
 171:../libs/libDaisy/src/daisy_core.h **** 
 172:../libs/libDaisy/src/daisy_core.h **** namespace daisy
 173:../libs/libDaisy/src/daisy_core.h **** {
 174:../libs/libDaisy/src/daisy_core.h **** /** @brief GPIO Port names */
 175:../libs/libDaisy/src/daisy_core.h **** enum GPIOPort
 176:../libs/libDaisy/src/daisy_core.h **** {
 177:../libs/libDaisy/src/daisy_core.h ****     PORTA, /**< Port A */
 178:../libs/libDaisy/src/daisy_core.h ****     PORTB, /**< Port B */
 179:../libs/libDaisy/src/daisy_core.h ****     PORTC, /**< Port C */
 180:../libs/libDaisy/src/daisy_core.h ****     PORTD, /**< Port D */
 181:../libs/libDaisy/src/daisy_core.h ****     PORTE, /**< Port E */
 182:../libs/libDaisy/src/daisy_core.h ****     PORTF, /**< Port F */
 183:../libs/libDaisy/src/daisy_core.h ****     PORTG, /**< Port G */
 184:../libs/libDaisy/src/daisy_core.h ****     PORTH, /**< Port H */
 185:../libs/libDaisy/src/daisy_core.h ****     PORTI, /**< Port I */
 186:../libs/libDaisy/src/daisy_core.h ****     PORTJ, /**< Port J */
 187:../libs/libDaisy/src/daisy_core.h ****     PORTK, /**< Port K */
 188:../libs/libDaisy/src/daisy_core.h ****     PORTX, /**< Used as a dummy port to signal an invalid pin. */
 189:../libs/libDaisy/src/daisy_core.h **** };
 190:../libs/libDaisy/src/daisy_core.h **** 
 191:../libs/libDaisy/src/daisy_core.h **** /** @brief representation of hardware port/pin combination */
 192:../libs/libDaisy/src/daisy_core.h **** struct Pin
 193:../libs/libDaisy/src/daisy_core.h **** {
 194:../libs/libDaisy/src/daisy_core.h ****     GPIOPort port;
 195:../libs/libDaisy/src/daisy_core.h ****     uint8_t  pin;
 196:../libs/libDaisy/src/daisy_core.h **** 
 197:../libs/libDaisy/src/daisy_core.h ****     /** @brief Constructor creates a valid pin. 
 198:../libs/libDaisy/src/daisy_core.h ****      *  @param pt GPIOPort between PA, and PK corresponding to STM32 Port.
 199:../libs/libDaisy/src/daisy_core.h ****      *  @param pn pin number in range of 0-15
 200:../libs/libDaisy/src/daisy_core.h ****     */
 201:../libs/libDaisy/src/daisy_core.h ****     constexpr Pin(const GPIOPort pt, const uint8_t pn) : port(pt), pin(pn) {}
 202:../libs/libDaisy/src/daisy_core.h **** 
 203:../libs/libDaisy/src/daisy_core.h ****     /** @brief Basic Constructor creates an invalid Pin object */
 204:../libs/libDaisy/src/daisy_core.h ****     constexpr Pin() : port(PORTX), pin(255) {}
 2008              		.loc 14 204 21 view .LVU571
 2009 000e C84D     		ldr	r5, .L62+4
 2010              	.LBE811:
 2011              	.LBE810:
 2012              	.LBE809:
 2013              	.LBE808:
 2014              	.LBE807:
 2015              	.LBB821:
 2016              	.LBB822:
  90:../libs/libDaisy/src/dev/mpr121.h ****     ~Mpr121() {}
 2017              		.loc 12 90 5 view .LVU572
 2018 0010 4FF05A09 		mov	r9, #90
 2019              	.LBE822:
 2020              	.LBE821:
 204:src/PianoB.cpp ****     hw.Configure();                                                             // Hardware configu
 2021              		.loc 10 204 12 view .LVU573
 2022 0014 2DED048B 		vpush.64	{d8, d9}
 2023              		.cfi_def_cfa_offset 52
ARM GAS  C:\Users\skipi\AppData\Local\Temp\cc6PZCfi.s 			page 65


 2024              		.cfi_offset 80, -52
 2025              		.cfi_offset 81, -48
 2026              		.cfi_offset 82, -44
 2027              		.cfi_offset 83, -40
 2028 0018 A1B0     		sub	sp, sp, #132
 2029              		.cfi_def_cfa_offset 184
 205:src/PianoB.cpp ****     hw.Init();                                                                  // Hardware initial
 2030              		.loc 10 205 17 view .LVU574
 2031 001a FFF7FEFF 		bl	_ZN5daisy9DaisySeed9ConfigureEv
 2032              	.LVL143:
 206:src/PianoB.cpp **** 
 2033              		.loc 10 206 5 is_stmt 1 view .LVU575
 206:src/PianoB.cpp **** 
 2034              		.loc 10 206 12 is_stmt 0 view .LVU576
 2035 001e 2146     		mov	r1, r4
 2036 0020 C248     		ldr	r0, .L62
 2037 0022 09AF     		add	r7, sp, #36
 2038 0024 FFF7FEFF 		bl	_ZN5daisy9DaisySeed4InitEb
 2039              	.LVL144:
 208:src/PianoB.cpp **** 	hw.DelayMs(100);
 2040              		.loc 10 208 5 is_stmt 1 view .LVU577
 2041              	.LBB870:
 2042              	.LBI870:
  23:../libs/libDaisy/src/daisy_seed.h **** 
  24:../libs/libDaisy/src/daisy_seed.h ****     /** This function used to provide a pre-initialization configuraiton 
  25:../libs/libDaisy/src/daisy_seed.h ****      *  it has since been deprecated, and does nothing.
  26:../libs/libDaisy/src/daisy_seed.h ****      */
  27:../libs/libDaisy/src/daisy_seed.h ****     void Configure();
  28:../libs/libDaisy/src/daisy_seed.h **** 
  29:../libs/libDaisy/src/daisy_seed.h ****     /** 
  30:../libs/libDaisy/src/daisy_seed.h ****     Initializes the Daisy Seed and the following peripherals:
  31:../libs/libDaisy/src/daisy_seed.h ****     SDRAM, QSPI, 24-bit 48kHz Audio via AK4556, Internal USB,
  32:../libs/libDaisy/src/daisy_seed.h ****     as well as the built-in LED and Testpoint.
  33:../libs/libDaisy/src/daisy_seed.h **** 
  34:../libs/libDaisy/src/daisy_seed.h ****     ADCs, DACs, and other special peripherals (such as I2C, SPI, etc.)
  35:../libs/libDaisy/src/daisy_seed.h ****     can be initialized using their specific initializers within libdaisy
  36:../libs/libDaisy/src/daisy_seed.h ****     for a specific application.
  37:../libs/libDaisy/src/daisy_seed.h ****     */
  38:../libs/libDaisy/src/daisy_seed.h ****     void Init(bool boost = false);
  39:../libs/libDaisy/src/daisy_seed.h **** 
  40:../libs/libDaisy/src/daisy_seed.h ****     /** 
  41:../libs/libDaisy/src/daisy_seed.h ****     Deinitializes all peripherals automatically handled by `Init`.
  42:../libs/libDaisy/src/daisy_seed.h ****     */
  43:../libs/libDaisy/src/daisy_seed.h ****     void DeInit();
  44:../libs/libDaisy/src/daisy_seed.h **** 
  45:../libs/libDaisy/src/daisy_seed.h ****     /** 
  46:../libs/libDaisy/src/daisy_seed.h ****     Wait some ms before going on.
  47:../libs/libDaisy/src/daisy_seed.h ****     \param del Delay time in ms.
  48:../libs/libDaisy/src/daisy_seed.h ****     */
  49:../libs/libDaisy/src/daisy_seed.h ****     void DelayMs(size_t del);
  50:../libs/libDaisy/src/daisy_seed.h **** 
  51:../libs/libDaisy/src/daisy_seed.h ****     /** 
  52:../libs/libDaisy/src/daisy_seed.h ****     Returns the gpio_pin corresponding to the index 0-31.
  53:../libs/libDaisy/src/daisy_seed.h ****     For the given GPIO on the Daisy Seed (labeled 1-32 in docs).
  54:../libs/libDaisy/src/daisy_seed.h ****     */
  55:../libs/libDaisy/src/daisy_seed.h ****     static Pin GetPin(uint8_t pin_idx);
  56:../libs/libDaisy/src/daisy_seed.h **** 
ARM GAS  C:\Users\skipi\AppData\Local\Temp\cc6PZCfi.s 			page 66


  57:../libs/libDaisy/src/daisy_seed.h ****     /** Begins the audio for the seeds builtin audio.
  58:../libs/libDaisy/src/daisy_seed.h ****     the specified callback will get called whenever
  59:../libs/libDaisy/src/daisy_seed.h ****     new data is ready to be prepared.
  60:../libs/libDaisy/src/daisy_seed.h ****     */
  61:../libs/libDaisy/src/daisy_seed.h ****     void StartAudio(AudioHandle::InterleavingAudioCallback cb);
  62:../libs/libDaisy/src/daisy_seed.h **** 
  63:../libs/libDaisy/src/daisy_seed.h ****     /** Begins the audio for the seeds builtin audio.
  64:../libs/libDaisy/src/daisy_seed.h ****     the specified callback will get called whenever
  65:../libs/libDaisy/src/daisy_seed.h ****     new data is ready to be prepared.
  66:../libs/libDaisy/src/daisy_seed.h ****     This will use the newer non-interleaved callback.
  67:../libs/libDaisy/src/daisy_seed.h ****     */
  68:../libs/libDaisy/src/daisy_seed.h ****     void StartAudio(AudioHandle::AudioCallback cb);
  69:../libs/libDaisy/src/daisy_seed.h **** 
  70:../libs/libDaisy/src/daisy_seed.h ****     /** Changes to a new interleaved callback
  71:../libs/libDaisy/src/daisy_seed.h ****      */
  72:../libs/libDaisy/src/daisy_seed.h ****     void ChangeAudioCallback(AudioHandle::InterleavingAudioCallback cb);
  73:../libs/libDaisy/src/daisy_seed.h **** 
  74:../libs/libDaisy/src/daisy_seed.h ****     /** Changes to a new multichannel callback
  75:../libs/libDaisy/src/daisy_seed.h ****      */
  76:../libs/libDaisy/src/daisy_seed.h ****     void ChangeAudioCallback(AudioHandle::AudioCallback cb);
  77:../libs/libDaisy/src/daisy_seed.h **** 
  78:../libs/libDaisy/src/daisy_seed.h ****     /** Stops the audio if it is running. */
  79:../libs/libDaisy/src/daisy_seed.h ****     void StopAudio();
  80:../libs/libDaisy/src/daisy_seed.h **** 
  81:../libs/libDaisy/src/daisy_seed.h ****     /** Updates the Audio Sample Rate, and reinitializes.
  82:../libs/libDaisy/src/daisy_seed.h ****      ** Audio must be stopped for this to work.
  83:../libs/libDaisy/src/daisy_seed.h ****      */
  84:../libs/libDaisy/src/daisy_seed.h ****     void SetAudioSampleRate(SaiHandle::Config::SampleRate samplerate);
  85:../libs/libDaisy/src/daisy_seed.h **** 
  86:../libs/libDaisy/src/daisy_seed.h ****     /** Returns the audio sample rate in Hz as a floating point number.
  87:../libs/libDaisy/src/daisy_seed.h ****      */
  88:../libs/libDaisy/src/daisy_seed.h ****     float AudioSampleRate();
  89:../libs/libDaisy/src/daisy_seed.h **** 
  90:../libs/libDaisy/src/daisy_seed.h ****     /** Sets the number of samples processed per channel by the audio callback.
  91:../libs/libDaisy/src/daisy_seed.h ****      */
  92:../libs/libDaisy/src/daisy_seed.h ****     void SetAudioBlockSize(size_t blocksize);
  93:../libs/libDaisy/src/daisy_seed.h **** 
  94:../libs/libDaisy/src/daisy_seed.h ****     /** Returns the number of samples per channel in a block of audio. */
  95:../libs/libDaisy/src/daisy_seed.h ****     size_t AudioBlockSize();
  96:../libs/libDaisy/src/daisy_seed.h **** 
  97:../libs/libDaisy/src/daisy_seed.h ****     /** Returns the rate in Hz that the Audio callback is called */
  98:../libs/libDaisy/src/daisy_seed.h ****     float AudioCallbackRate() const;
  99:../libs/libDaisy/src/daisy_seed.h **** 
 100:../libs/libDaisy/src/daisy_seed.h ****     /** Returns the SAI Handle for the Daisy Seed 
 101:../libs/libDaisy/src/daisy_seed.h ****      *  This can be useful when adding a secondary codec,
 102:../libs/libDaisy/src/daisy_seed.h ****      *  the result of this function can be passed to the audio reinit 
 103:../libs/libDaisy/src/daisy_seed.h ****      *  with an SAI2 configuration
 104:../libs/libDaisy/src/daisy_seed.h ****      */
 105:../libs/libDaisy/src/daisy_seed.h ****     const SaiHandle& AudioSaiHandle() const;
 106:../libs/libDaisy/src/daisy_seed.h **** 
 107:../libs/libDaisy/src/daisy_seed.h ****     /** Sets the state of the built in LED
 108:../libs/libDaisy/src/daisy_seed.h ****      */
 109:../libs/libDaisy/src/daisy_seed.h ****     void SetLed(bool state);
 110:../libs/libDaisy/src/daisy_seed.h **** 
 111:../libs/libDaisy/src/daisy_seed.h ****     /** Sets the state of the test point near pin 10
 112:../libs/libDaisy/src/daisy_seed.h ****      */
 113:../libs/libDaisy/src/daisy_seed.h ****     void SetTestPoint(bool state);
ARM GAS  C:\Users\skipi\AppData\Local\Temp\cc6PZCfi.s 			page 67


 114:../libs/libDaisy/src/daisy_seed.h **** 
 115:../libs/libDaisy/src/daisy_seed.h ****     /** Print formatted debug log message
 116:../libs/libDaisy/src/daisy_seed.h ****      */
 117:../libs/libDaisy/src/daisy_seed.h ****     template <typename... VA>
 118:../libs/libDaisy/src/daisy_seed.h ****     static void Print(const char* format, VA... va)
 119:../libs/libDaisy/src/daisy_seed.h ****     {
 120:../libs/libDaisy/src/daisy_seed.h ****         Log::Print(format, va...);
 121:../libs/libDaisy/src/daisy_seed.h ****     }
 122:../libs/libDaisy/src/daisy_seed.h **** 
 123:../libs/libDaisy/src/daisy_seed.h ****     /** Print formatted debug log message with automatic line termination
 124:../libs/libDaisy/src/daisy_seed.h ****     */
 125:../libs/libDaisy/src/daisy_seed.h ****     template <typename... VA>
 126:../libs/libDaisy/src/daisy_seed.h ****     static void PrintLine(const char* format, VA... va)
 127:../libs/libDaisy/src/daisy_seed.h ****     {
 128:../libs/libDaisy/src/daisy_seed.h ****         Log::PrintLine(format, va...);
 129:../libs/libDaisy/src/daisy_seed.h ****     }
 130:../libs/libDaisy/src/daisy_seed.h **** 
 131:../libs/libDaisy/src/daisy_seed.h ****     /** Start the logging session. Optionally wait for terminal connection before proceeding.
 132:../libs/libDaisy/src/daisy_seed.h ****     */
 133:../libs/libDaisy/src/daisy_seed.h ****     static void StartLog(bool wait_for_pc = false)
 2043              		.loc 1 133 17 view .LVU578
 2044              	.LBB871:
 134:../libs/libDaisy/src/daisy_seed.h ****     {
 135:../libs/libDaisy/src/daisy_seed.h ****         Log::StartLog(wait_for_pc);
 2045              		.loc 1 135 9 view .LVU579
 2046              		.loc 1 135 22 is_stmt 0 view .LVU580
 2047 0028 4046     		mov	r0, r8
 2048 002a FFF7FEFF 		bl	_ZN5daisy6LoggerILNS_17LoggerDestinationE1EE8StartLogEb
 2049              	.LVL145:
 2050              		.loc 1 135 22 view .LVU581
 2051              	.LBE871:
 2052              	.LBE870:
 209:src/PianoB.cpp ****     Pin pin_scl = {PORTB, 8};
 2053              		.loc 10 209 2 is_stmt 1 view .LVU582
 209:src/PianoB.cpp ****     Pin pin_scl = {PORTB, 8};
 2054              		.loc 10 209 12 is_stmt 0 view .LVU583
 2055 002e 6421     		movs	r1, #100
 2056 0030 BE48     		ldr	r0, .L62
 2057 0032 FFF7FEFF 		bl	_ZN5daisy9DaisySeed7DelayMsEj
 2058              	.LVL146:
 210:src/PianoB.cpp **** 	Pin pin_sda = {PORTB, 9};
 2059              		.loc 10 210 5 is_stmt 1 view .LVU584
 211:src/PianoB.cpp **** 	I2CHandle::Config i2c_conf;
 2060              		.loc 10 211 2 view .LVU585
 212:src/PianoB.cpp **** 	i2c_conf.periph = I2CHandle::Config::Peripheral::I2C_1;
 2061              		.loc 10 212 2 view .LVU586
 2062              	.LBB872:
 2063              	.LBI807:
 2064              		.loc 13 29 12 view .LVU587
 2065              	.LBB818:
 2066              	.LBB816:
 2067              	.LBI809:
  30:../libs/libDaisy/src/per/i2c.h ****     {
  31:../libs/libDaisy/src/per/i2c.h ****         /** Specifies whether the interface will operate in master or slave mode. */
  32:../libs/libDaisy/src/per/i2c.h ****         enum class Mode
  33:../libs/libDaisy/src/per/i2c.h ****         {
  34:../libs/libDaisy/src/per/i2c.h ****             I2C_MASTER,
ARM GAS  C:\Users\skipi\AppData\Local\Temp\cc6PZCfi.s 			page 68


  35:../libs/libDaisy/src/per/i2c.h ****             I2C_SLAVE,
  36:../libs/libDaisy/src/per/i2c.h ****         };
  37:../libs/libDaisy/src/per/i2c.h **** 
  38:../libs/libDaisy/src/per/i2c.h ****         /** Specifices the internal peripheral to use (these are mapped to different pins on the ha
  39:../libs/libDaisy/src/per/i2c.h ****         enum class Peripheral
  40:../libs/libDaisy/src/per/i2c.h ****         {
  41:../libs/libDaisy/src/per/i2c.h ****             I2C_1 = 0, /**< & */
  42:../libs/libDaisy/src/per/i2c.h ****             I2C_2,     /**< & */
  43:../libs/libDaisy/src/per/i2c.h ****             I2C_3,     /**< & */
  44:../libs/libDaisy/src/per/i2c.h ****             I2C_4,     /**< & */
  45:../libs/libDaisy/src/per/i2c.h ****         };
  46:../libs/libDaisy/src/per/i2c.h **** 
  47:../libs/libDaisy/src/per/i2c.h ****         /** Rate at which the clock/data will be sent/received. The device being used will have max
  48:../libs/libDaisy/src/per/i2c.h ****          *  1MHZ Mode is currently 886kHz
  49:../libs/libDaisy/src/per/i2c.h ****          */
  50:../libs/libDaisy/src/per/i2c.h ****         enum class Speed
  51:../libs/libDaisy/src/per/i2c.h ****         {
  52:../libs/libDaisy/src/per/i2c.h ****             I2C_100KHZ, /**< & */
  53:../libs/libDaisy/src/per/i2c.h ****             I2C_400KHZ, /**< & */
  54:../libs/libDaisy/src/per/i2c.h ****             I2C_1MHZ,   /**< & */
  55:../libs/libDaisy/src/per/i2c.h ****         };
  56:../libs/libDaisy/src/per/i2c.h **** 
  57:../libs/libDaisy/src/per/i2c.h ****         Peripheral periph; /**< & */
  58:../libs/libDaisy/src/per/i2c.h ****         struct
  59:../libs/libDaisy/src/per/i2c.h ****         {
 2068              		.loc 13 59 9 view .LVU588
 2069              	.LBB813:
 2070              	.LBI810:
 2071              		.loc 14 204 15 view .LVU589
 2072              		.loc 14 204 15 is_stmt 0 view .LVU590
 2073              	.LBE813:
 2074              	.LBB814:
 2075              	.LBI814:
 2076              		.loc 14 204 15 is_stmt 1 view .LVU591
 2077              		.loc 14 204 15 is_stmt 0 view .LVU592
 2078              	.LBE814:
 2079              	.LBE816:
 2080              	.LBE818:
 2081              	.LBE872:
 213:src/PianoB.cpp **** 	i2c_conf.speed  = I2CHandle::Config::Speed::I2C_400KHZ;
 2082              		.loc 10 213 2 is_stmt 1 view .LVU593
 2083              		.loc 10 214 2 view .LVU594
 215:src/PianoB.cpp **** 	i2c_conf.mode   = I2CHandle::Config::Mode::I2C_MASTER;
 2084              		.loc 10 215 2 view .LVU595
 216:src/PianoB.cpp **** 	i2c_conf.pin_config.scl  = pin_scl; // D11
 2085              		.loc 10 216 2 view .LVU596
 217:src/PianoB.cpp **** 	i2c_conf.pin_config.sda  = pin_sda; // D12
 2086              		.loc 10 217 2 view .LVU597
 218:src/PianoB.cpp **** 	// initialise the peripheral
 219:src/PianoB.cpp **** 	I2CHandle i2c;
 220:src/PianoB.cpp **** 	i2c.Init(i2c_conf);
 2087              		.loc 10 220 10 is_stmt 0 view .LVU598
 2088 0036 0DEB0601 		add	r1, sp, r6
 2089 003a 03A8     		add	r0, sp, #12
 2090              	.LBB873:
 2091              	.LBB819:
  29:../libs/libDaisy/src/per/i2c.h ****     {
ARM GAS  C:\Users\skipi\AppData\Local\Temp\cc6PZCfi.s 			page 69


 2092              		.loc 13 29 12 view .LVU599
 2093 003c 8DF82060 		strb	r6, [sp, #32]
 2094              	.LBE819:
 2095              	.LBE873:
 219:src/PianoB.cpp **** 	i2c.Init(i2c_conf);
 2096              		.loc 10 219 2 is_stmt 1 view .LVU600
 2097              	.LVL147:
 2098              	.LBB874:
 2099              	.LBI874:
  60:../libs/libDaisy/src/per/i2c.h ****             Pin scl;  /**< & */
  61:../libs/libDaisy/src/per/i2c.h ****             Pin sda;  /**< & */
  62:../libs/libDaisy/src/per/i2c.h ****         } pin_config; /**< & */
  63:../libs/libDaisy/src/per/i2c.h **** 
  64:../libs/libDaisy/src/per/i2c.h ****         Speed speed; /**< & */
  65:../libs/libDaisy/src/per/i2c.h ****         Mode  mode;  /**< & */
  66:../libs/libDaisy/src/per/i2c.h ****         // 0x10 is chosen as a default to avoid conflicts with reserved addresses
  67:../libs/libDaisy/src/per/i2c.h ****         uint8_t address = 0x10; /**< & */
  68:../libs/libDaisy/src/per/i2c.h ****     };
  69:../libs/libDaisy/src/per/i2c.h **** 
  70:../libs/libDaisy/src/per/i2c.h ****     /** Return values for I2C functions. */
  71:../libs/libDaisy/src/per/i2c.h ****     enum class Result
  72:../libs/libDaisy/src/per/i2c.h ****     {
  73:../libs/libDaisy/src/per/i2c.h ****         OK, /**< & */
  74:../libs/libDaisy/src/per/i2c.h ****         ERR /**< & */
  75:../libs/libDaisy/src/per/i2c.h ****     };
  76:../libs/libDaisy/src/per/i2c.h **** 
  77:../libs/libDaisy/src/per/i2c.h ****     enum class Direction
  78:../libs/libDaisy/src/per/i2c.h ****     {
  79:../libs/libDaisy/src/per/i2c.h ****         TRANSMIT, /**< & */
  80:../libs/libDaisy/src/per/i2c.h ****         RECEIVE,  /**< & */
  81:../libs/libDaisy/src/per/i2c.h ****     };
  82:../libs/libDaisy/src/per/i2c.h **** 
  83:../libs/libDaisy/src/per/i2c.h ****     I2CHandle() : pimpl_(nullptr) {}
 2100              		.loc 13 83 5 view .LVU601
 2101              	.LBB875:
 2102              	.LBB876:
 2103              		.loc 13 83 33 is_stmt 0 view .LVU602
 2104 0040 0394     		str	r4, [sp, #12]
 2105              	.LVL148:
 2106              		.loc 13 83 33 view .LVU603
 2107              	.LBE876:
 2108              	.LBE875:
 2109              	.LBE874:
 2110              		.loc 10 220 2 is_stmt 1 view .LVU604
 2111              	.LBB877:
 2112              	.LBB820:
 2113              	.LBB817:
 2114              	.LBB815:
 2115              	.LBB812:
 2116              		.loc 14 204 21 is_stmt 0 view .LVU605
 2117 0042 CDE90445 		strd	r4, r5, [sp, #16]
 2118              	.LBE812:
 2119              	.LBE815:
 2120              	.LBE817:
 2121              	.LBE820:
 2122              	.LBE877:
 215:src/PianoB.cpp **** 	i2c_conf.pin_config.scl  = pin_scl; // D11
ARM GAS  C:\Users\skipi\AppData\Local\Temp\cc6PZCfi.s 			page 70


 2123              		.loc 10 215 18 view .LVU606
 2124 0046 CDE90684 		strd	r8, r4, [sp, #24]
 2125              		.loc 10 220 10 view .LVU607
 2126 004a FFF7FEFF 		bl	_ZN5daisy9I2CHandle4InitERKNS0_6ConfigE
 2127              	.LVL149:
 221:src/PianoB.cpp ****     daisy::Mpr121I2C mpr121Obj;
 2128              		.loc 10 221 5 is_stmt 1 view .LVU608
 2129              	.LBB878:
 2130              	.LBI821:
  90:../libs/libDaisy/src/dev/mpr121.h ****     ~Mpr121() {}
 2131              		.loc 12 90 5 view .LVU609
 2132              	.LBB861:
 2133              	.LBB823:
 2134              	.LBI823:
  99:../libs/libDaisy/src/dev/mpr121.h ****         {
 2135              		.loc 12 99 9 view .LVU610
 2136              	.LBB824:
 2137              	.LBB825:
 2138              	.LBI825:
  34:../libs/libDaisy/src/dev/mpr121.h ****         {
 2139              		.loc 12 34 9 view .LVU611
 2140              	.LBB826:
 2141              	.LBB827:
 2142              	.LBI827:
 2143              		.loc 14 204 15 view .LVU612
 2144              		.loc 14 204 15 is_stmt 0 view .LVU613
 2145              	.LBE827:
 2146              	.LBB828:
 2147              	.LBI828:
 2148              		.loc 14 204 15 is_stmt 1 view .LVU614
 2149              		.loc 14 204 15 is_stmt 0 view .LVU615
 2150              	.LBE828:
 2151              	.LBE826:
 2152              	.LBE825:
 2153              	.LBE824:
 2154              	.LBE823:
 2155              	.LBE861:
 2156              	.LBE878:
  36:../libs/libDaisy/src/dev/mpr121.h ****             speed  = I2CHandle::Config::Speed::I2C_400KHZ;
 2157              		.loc 12 36 13 is_stmt 1 view .LVU616
  37:../libs/libDaisy/src/dev/mpr121.h **** 
 2158              		.loc 12 37 13 view .LVU617
  39:../libs/libDaisy/src/dev/mpr121.h ****             sda = Pin(PORTB, 9);
 2159              		.loc 12 39 13 view .LVU618
 2160              	.LBB879:
 2161              	.LBB862:
 2162              	.LBB837:
 2163              	.LBB835:
 2164              	.LBB833:
 2165              	.LBB831:
 2166              	.LBB829:
 2167              	.LBI829:
 201:../libs/libDaisy/src/daisy_core.h **** 
 2168              		.loc 14 201 15 view .LVU619
 201:../libs/libDaisy/src/daisy_core.h **** 
 2169              		.loc 14 201 15 is_stmt 0 view .LVU620
 2170              	.LBE829:
ARM GAS  C:\Users\skipi\AppData\Local\Temp\cc6PZCfi.s 			page 71


 2171              	.LBE831:
 2172              	.LBE833:
 2173              	.LBE835:
 2174              	.LBE837:
 2175              	.LBE862:
 2176              	.LBE879:
  40:../libs/libDaisy/src/dev/mpr121.h **** 
 2177              		.loc 12 40 13 is_stmt 1 view .LVU621
 2178              	.LBB880:
 2179              	.LBB863:
 2180              	.LBB838:
 2181              	.LBB836:
 2182              	.LBB834:
 2183              	.LBB832:
 2184              	.LBB830:
 2185              	.LBI830:
 201:../libs/libDaisy/src/daisy_core.h **** 
 2186              		.loc 14 201 15 view .LVU622
 201:../libs/libDaisy/src/daisy_core.h **** 
 2187              		.loc 14 201 15 is_stmt 0 view .LVU623
 2188              	.LBE830:
 2189              	.LBE832:
 2190              	.LBE834:
 2191              	.LBE836:
 2192              	.LBE838:
 2193              	.LBE863:
 2194              	.LBE880:
  42:../libs/libDaisy/src/dev/mpr121.h ****         }
 2195              		.loc 12 42 13 is_stmt 1 view .LVU624
 2196              	.LBB881:
 2197              	.LBB864:
 2198              	.LBB839:
 2199              	.LBI839:
  20:../libs/libDaisy/src/dev/mpr121.h ****     ~Mpr121I2CTransport() {}
 2200              		.loc 12 20 5 view .LVU625
 2201              	.LBB840:
 2202              	.LBB841:
 2203              	.LBI841:
 2204              		.loc 13 83 5 view .LVU626
 2205              		.loc 13 83 5 is_stmt 0 view .LVU627
 2206              	.LBE841:
 2207              	.LBB844:
 2208              	.LBI844:
  34:../libs/libDaisy/src/dev/mpr121.h ****         {
 2209              		.loc 12 34 9 is_stmt 1 view .LVU628
 2210              	.LBB845:
 2211              	.LBB846:
 2212              	.LBI846:
 2213              		.loc 14 204 15 view .LVU629
 2214              		.loc 14 204 15 is_stmt 0 view .LVU630
 2215              	.LBE846:
 2216              	.LBB847:
 2217              	.LBI847:
 2218              		.loc 14 204 15 is_stmt 1 view .LVU631
 2219              		.loc 14 204 15 is_stmt 0 view .LVU632
 2220              	.LBE847:
 2221              	.LBE845:
ARM GAS  C:\Users\skipi\AppData\Local\Temp\cc6PZCfi.s 			page 72


 2222              	.LBE844:
 2223              	.LBE840:
 2224              	.LBE839:
 2225              	.LBE864:
 2226              	.LBE881:
  36:../libs/libDaisy/src/dev/mpr121.h ****             speed  = I2CHandle::Config::Speed::I2C_400KHZ;
 2227              		.loc 12 36 13 is_stmt 1 view .LVU633
  37:../libs/libDaisy/src/dev/mpr121.h **** 
 2228              		.loc 12 37 13 view .LVU634
  39:../libs/libDaisy/src/dev/mpr121.h ****             sda = Pin(PORTB, 9);
 2229              		.loc 12 39 13 view .LVU635
 2230              	.LBB882:
 2231              	.LBB865:
 2232              	.LBB858:
 2233              	.LBB855:
 2234              	.LBB852:
 2235              	.LBB850:
 2236              	.LBB848:
 2237              	.LBI848:
 201:../libs/libDaisy/src/daisy_core.h **** 
 2238              		.loc 14 201 15 view .LVU636
 201:../libs/libDaisy/src/daisy_core.h **** 
 2239              		.loc 14 201 15 is_stmt 0 view .LVU637
 2240              	.LBE848:
 2241              	.LBE850:
 2242              	.LBE852:
 2243              	.LBE855:
 2244              	.LBE858:
 2245              	.LBE865:
 2246              	.LBE882:
  40:../libs/libDaisy/src/dev/mpr121.h **** 
 2247              		.loc 12 40 13 is_stmt 1 view .LVU638
 2248              	.LBB883:
 2249              	.LBB866:
 2250              	.LBB859:
 2251              	.LBB856:
 2252              	.LBB853:
 2253              	.LBB851:
 2254              	.LBB849:
 2255              	.LBI849:
 201:../libs/libDaisy/src/daisy_core.h **** 
 2256              		.loc 14 201 15 view .LVU639
 201:../libs/libDaisy/src/daisy_core.h **** 
 2257              		.loc 14 201 15 is_stmt 0 view .LVU640
 2258              	.LBE849:
 2259              	.LBE851:
 2260              	.LBE853:
 2261              	.LBE856:
 2262              	.LBE859:
 2263              	.LBE866:
 2264              	.LBE883:
  42:../libs/libDaisy/src/dev/mpr121.h ****         }
 2265              		.loc 12 42 13 is_stmt 1 view .LVU641
 222:src/PianoB.cpp ****     daisy::Mpr121I2C::Config mpr121ObjConf;
 2266              		.loc 10 222 5 view .LVU642
 2267              	.LBB884:
 2268              	.LBI884:
ARM GAS  C:\Users\skipi\AppData\Local\Temp\cc6PZCfi.s 			page 73


  99:../libs/libDaisy/src/dev/mpr121.h ****         {
 2269              		.loc 12 99 9 view .LVU643
 2270              	.LBB885:
 2271              	.LBI885:
  34:../libs/libDaisy/src/dev/mpr121.h ****         {
 2272              		.loc 12 34 9 view .LVU644
 2273              	.LBB886:
 2274              	.LBI886:
 2275              		.loc 14 204 15 view .LVU645
 2276              		.loc 14 204 15 is_stmt 0 view .LVU646
 2277              	.LBE886:
 2278              	.LBB887:
 2279              	.LBI887:
 2280              		.loc 14 204 15 is_stmt 1 view .LVU647
 2281              		.loc 14 204 15 is_stmt 0 view .LVU648
 2282              	.LBE887:
 2283              	.LBE885:
 2284              	.LBE884:
  36:../libs/libDaisy/src/dev/mpr121.h ****             speed  = I2CHandle::Config::Speed::I2C_400KHZ;
 2285              		.loc 12 36 13 is_stmt 1 view .LVU649
  37:../libs/libDaisy/src/dev/mpr121.h **** 
 2286              		.loc 12 37 13 view .LVU650
  39:../libs/libDaisy/src/dev/mpr121.h ****             sda = Pin(PORTB, 9);
 2287              		.loc 12 39 13 view .LVU651
 2288              	.LBB892:
 2289              	.LBB890:
 2290              	.LBB888:
 2291              	.LBI888:
 201:../libs/libDaisy/src/daisy_core.h **** 
 2292              		.loc 14 201 15 view .LVU652
 201:../libs/libDaisy/src/daisy_core.h **** 
 2293              		.loc 14 201 15 is_stmt 0 view .LVU653
 2294              	.LBE888:
 2295              	.LBE890:
 2296              	.LBE892:
  40:../libs/libDaisy/src/dev/mpr121.h **** 
 2297              		.loc 12 40 13 is_stmt 1 view .LVU654
 2298              	.LBB893:
 2299              	.LBB891:
 2300              	.LBB889:
 2301              	.LBI889:
 201:../libs/libDaisy/src/daisy_core.h **** 
 2302              		.loc 14 201 15 view .LVU655
 201:../libs/libDaisy/src/daisy_core.h **** 
 2303              		.loc 14 201 15 is_stmt 0 view .LVU656
 2304              	.LBE889:
 2305              	.LBE891:
 2306              	.LBE893:
  42:../libs/libDaisy/src/dev/mpr121.h ****         }
 2307              		.loc 12 42 13 is_stmt 1 view .LVU657
 223:src/PianoB.cpp ****     mpr121Obj.Init(mpr121ObjConf);
 2308              		.loc 10 223 5 view .LVU658
 2309              	.LBB894:
 2310              	.LBI894:
 115:../libs/libDaisy/src/dev/mpr121.h ****     {
 2311              		.loc 12 115 12 view .LVU659
 2312              	.LBE894:
ARM GAS  C:\Users\skipi\AppData\Local\Temp\cc6PZCfi.s 			page 74


 2313              	.LBB1075:
 2314              	.LBB867:
  90:../libs/libDaisy/src/dev/mpr121.h ****     ~Mpr121() {}
 2315              		.loc 12 90 5 is_stmt 0 view .LVU660
 2316 004e 40F20C63 		movw	r3, #1548
 2317 0052 0DF14C0E 		add	lr, sp, #76
 2318              	.LVL150:
  90:../libs/libDaisy/src/dev/mpr121.h ****     ~Mpr121() {}
 2319              		.loc 12 90 5 view .LVU661
 2320 0056 1595     		str	r5, [sp, #84]
 2321              	.LBE867:
 2322              	.LBE1075:
 2323              	.LBB1076:
 2324              	.LBB895:
 2325              	.LBB896:
 2326              	.LBB897:
  49:../libs/libDaisy/src/dev/mpr121.h **** 
 2327              		.loc 12 49 17 view .LVU662
 2328 0058 BC46     		mov	ip, r7
 2329              	.LBB898:
 2330              	.LBB899:
  29:../libs/libDaisy/src/per/i2c.h ****     {
 2331              		.loc 13 29 12 view .LVU663
 2332 005a 8DF84860 		strb	r6, [sp, #72]
 2333              	.LBE899:
 2334              	.LBE898:
  49:../libs/libDaisy/src/dev/mpr121.h **** 
 2335              		.loc 12 49 17 view .LVU664
 2336 005e 1AAE     		add	r6, sp, #104
  54:../libs/libDaisy/src/dev/mpr121.h **** 
 2337              		.loc 12 54 25 view .LVU665
 2338 0060 CDF84080 		str	r8, [sp, #64]
 2339              	.LBE897:
 2340              	.LBE896:
 2341              	.LBE895:
 2342              	.LBE1076:
 2343              	.LBB1077:
 2344              	.LBB868:
 2345              	.LBB860:
 2346              	.LBB857:
 2347              	.LBB854:
 2348              	.LBB842:
 2349              	.LBB843:
 2350              		.loc 13 83 33 view .LVU666
 2351 0064 1994     		str	r4, [sp, #100]
 2352              	.LVL151:
 2353              		.loc 13 83 33 view .LVU667
 2354              	.LBE843:
 2355              	.LBE842:
 2356              	.LBE854:
 2357              	.LBE857:
 2358              	.LBE860:
 2359              	.LBE868:
 2360              	.LBE1077:
 2361              	.LBB1078:
 2362              	.LBB1071:
 133:../libs/libDaisy/src/dev/mpr121.h ****         WriteRegister(MPR121_MHDR, 0x01);
ARM GAS  C:\Users\skipi\AppData\Local\Temp\cc6PZCfi.s 			page 75


 2363              		.loc 12 133 22 view .LVU668
 2364 0066 4125     		movs	r5, #65
 2365              	.LBB908:
 2366              	.LBB905:
  52:../libs/libDaisy/src/dev/mpr121.h ****         i2c_conf.periph = config.periph;
 2367              		.loc 12 52 25 view .LVU669
 2368 0068 1194     		str	r4, [sp, #68]
  53:../libs/libDaisy/src/dev/mpr121.h ****         i2c_conf.speed  = config.speed;
 2369              		.loc 12 53 25 view .LVU670
 2370 006a 0E94     		str	r4, [sp, #56]
 2371              	.LBE905:
 2372              	.LBE908:
 117:../libs/libDaisy/src/dev/mpr121.h **** 
 2373              		.loc 12 117 9 view .LVU671
 2374 006c CDE91348 		strd	r4, r8, [sp, #76]
 2375              	.LBE1071:
 2376              	.LBE1078:
 2377              	.LBB1079:
 2378              	.LBB869:
  90:../libs/libDaisy/src/dev/mpr121.h ****     ~Mpr121() {}
 2379              		.loc 12 90 5 view .LVU672
 2380 0070 CDE91793 		strd	r9, r3, [sp, #92]
 2381 0074 BEE80F00 		ldmia	lr!, {r0, r1, r2, r3}
 2382              	.LVL152:
  90:../libs/libDaisy/src/dev/mpr121.h ****     ~Mpr121() {}
 2383              		.loc 12 90 5 view .LVU673
 2384 0078 0FC7     		stmia	r7!, {r0, r1, r2, r3}
 2385              	.LBE869:
 2386              	.LBE1079:
 2387              	.LBB1080:
 2388              	.LBB1072:
 2389              	.LBB909:
 2390              	.LBB906:
  56:../libs/libDaisy/src/dev/mpr121.h ****         i2c_conf.pin_config.sda = config.sda;
 2391              		.loc 12 56 33 view .LVU674
 2392 007a BDF82C30 		ldrh	r3, [sp, #44]
 2393 007e C7F80090 		str	r9, [r7]
 2394              	.LBE906:
 2395              	.LBI896:
  47:../libs/libDaisy/src/dev/mpr121.h ****     {
 2396              		.loc 12 47 17 is_stmt 1 view .LVU675
 2397              	.LBB907:
  49:../libs/libDaisy/src/dev/mpr121.h **** 
 2398              		.loc 12 49 9 view .LVU676
  56:../libs/libDaisy/src/dev/mpr121.h ****         i2c_conf.pin_config.sda = config.sda;
 2399              		.loc 12 56 33 is_stmt 0 view .LVU677
 2400 0082 ADF83C30 		strh	r3, [sp, #60]	@ movhi
  57:../libs/libDaisy/src/dev/mpr121.h **** 
 2401              		.loc 12 57 33 view .LVU678
 2402 0086 BDF82E30 		ldrh	r3, [sp, #46]
 2403 008a ADF83E30 		strh	r3, [sp, #62]	@ movhi
  49:../libs/libDaisy/src/dev/mpr121.h **** 
 2404              		.loc 12 49 17 view .LVU679
 2405 008e BCE80F00 		ldmia	ip!, {r0, r1, r2, r3}
 2406 0092 0FC6     		stmia	r6!, {r0, r1, r2, r3}
  59:../libs/libDaisy/src/dev/mpr121.h ****     }
 2407              		.loc 12 59 50 view .LVU680
ARM GAS  C:\Users\skipi\AppData\Local\Temp\cc6PZCfi.s 			page 76


 2408 0094 0EA9     		add	r1, sp, #56
  49:../libs/libDaisy/src/dev/mpr121.h **** 
 2409              		.loc 12 49 17 view .LVU681
 2410 0096 86F80090 		strb	r9, [r6]
  51:../libs/libDaisy/src/dev/mpr121.h ****         i2c_conf.mode   = I2CHandle::Config::Mode::I2C_MASTER;
 2411              		.loc 12 51 9 is_stmt 1 view .LVU682
 2412              	.LVL153:
 2413              	.LBB904:
 2414              	.LBI898:
  29:../libs/libDaisy/src/per/i2c.h ****     {
 2415              		.loc 13 29 12 view .LVU683
 2416              	.LBB903:
 2417              	.LBB900:
 2418              	.LBI900:
  59:../libs/libDaisy/src/per/i2c.h ****             Pin scl;  /**< & */
 2419              		.loc 13 59 9 view .LVU684
 2420              	.LBB901:
 2421              	.LBI901:
 2422              		.loc 14 204 15 view .LVU685
 2423              		.loc 14 204 15 is_stmt 0 view .LVU686
 2424              	.LBE901:
 2425              	.LBB902:
 2426              	.LBI902:
 2427              		.loc 14 204 15 is_stmt 1 view .LVU687
 2428              		.loc 14 204 15 is_stmt 0 view .LVU688
 2429              	.LBE902:
 2430              	.LBE900:
 2431              	.LBE903:
 2432              	.LBE904:
  52:../libs/libDaisy/src/dev/mpr121.h ****         i2c_conf.periph = config.periph;
 2433              		.loc 12 52 9 is_stmt 1 view .LVU689
  53:../libs/libDaisy/src/dev/mpr121.h ****         i2c_conf.speed  = config.speed;
 2434              		.loc 12 53 9 view .LVU690
  54:../libs/libDaisy/src/dev/mpr121.h **** 
 2435              		.loc 12 54 9 view .LVU691
  56:../libs/libDaisy/src/dev/mpr121.h ****         i2c_conf.pin_config.sda = config.sda;
 2436              		.loc 12 56 9 view .LVU692
  57:../libs/libDaisy/src/dev/mpr121.h **** 
 2437              		.loc 12 57 9 view .LVU693
  59:../libs/libDaisy/src/dev/mpr121.h ****     }
 2438              		.loc 12 59 9 view .LVU694
  59:../libs/libDaisy/src/dev/mpr121.h ****     }
 2439              		.loc 12 59 50 is_stmt 0 view .LVU695
 2440 009a 19A8     		add	r0, sp, #100
 2441              	.LVL154:
  59:../libs/libDaisy/src/dev/mpr121.h ****     }
 2442              		.loc 12 59 50 view .LVU696
 2443 009c FFF7FEFF 		bl	_ZN5daisy9I2CHandle4InitERKNS0_6ConfigE
 2444              	.LVL155:
  59:../libs/libDaisy/src/dev/mpr121.h ****     }
 2445              		.loc 12 59 50 view .LVU697
 2446              	.LBE907:
 2447              	.LBE909:
 2448              	.LBB910:
 2449              	.LBI910:
 2450              		.loc 12 343 10 is_stmt 1 view .LVU698
 2451              	.LBB911:
ARM GAS  C:\Users\skipi\AppData\Local\Temp\cc6PZCfi.s 			page 77


 2452              		.loc 12 343 55 is_stmt 0 view .LVU699
 2453 00a0 9DF87C30 		ldrb	r3, [sp, #124]	@ zero_extendqisi2
 2454              	.LBE911:
 2455              	.LBE910:
 122:../libs/libDaisy/src/dev/mpr121.h ****         System::Delay(1);
 2456              		.loc 12 122 22 view .LVU700
 2457 00a4 8021     		movs	r1, #128
 2458 00a6 6322     		movs	r2, #99
 2459              	.LBB914:
 2460              	.LBB912:
 2461              		.loc 12 343 55 view .LVU701
 2462 00a8 A042     		cmp	r0, r4
 2463 00aa 18BF     		it	ne
 2464 00ac 43F00103 		orrne	r3, r3, #1
 2465              	.LBE912:
 2466              	.LBE914:
 122:../libs/libDaisy/src/dev/mpr121.h ****         System::Delay(1);
 2467              		.loc 12 122 22 view .LVU702
 2468 00b0 13A8     		add	r0, sp, #76
 2469              	.LVL156:
 2470              	.LBB915:
 2471              	.LBB913:
 2472              		.loc 12 343 55 view .LVU703
 2473 00b2 8DF87C30 		strb	r3, [sp, #124]
 2474              	.LVL157:
 2475              		.loc 12 343 55 view .LVU704
 2476              	.LBE913:
 2477              	.LBE915:
 122:../libs/libDaisy/src/dev/mpr121.h ****         System::Delay(1);
 2478              		.loc 12 122 22 view .LVU705
 2479 00b6 FFF7FEFF 		bl	_ZN5daisy6Mpr121INS_18Mpr121I2CTransportEE13WriteRegisterEhh
 2480              	.LVL158:
 123:../libs/libDaisy/src/dev/mpr121.h **** 
 2481              		.loc 12 123 22 view .LVU706
 2482 00ba 4046     		mov	r0, r8
 2483 00bc FFF7FEFF 		bl	_ZN5daisy6System5DelayEm
 2484              	.LVL159:
 125:../libs/libDaisy/src/dev/mpr121.h **** 
 2485              		.loc 12 125 22 view .LVU707
 2486 00c0 2246     		mov	r2, r4
 2487 00c2 5E21     		movs	r1, #94
 2488 00c4 13A8     		add	r0, sp, #76
 2489              	.LVL160:
 125:../libs/libDaisy/src/dev/mpr121.h **** 
 2490              		.loc 12 125 22 view .LVU708
 2491 00c6 FFF7FEFF 		bl	_ZN5daisy6Mpr121INS_18Mpr121I2CTransportEE13WriteRegisterEhh
 2492              	.LVL161:
 133:../libs/libDaisy/src/dev/mpr121.h ****         WriteRegister(MPR121_MHDR, 0x01);
 2493              		.loc 12 133 22 view .LVU709
 2494 00ca 9DF86090 		ldrb	r9, [sp, #96]	@ zero_extendqisi2
 2495 00ce 9DF86180 		ldrb	r8, [sp, #97]	@ zero_extendqisi2
 2496              	.LVL162:
 2497              	.LBB916:
 2498              	.LBI916:
 177:../libs/libDaisy/src/dev/mpr121.h ****     {
 2499              		.loc 12 177 10 is_stmt 1 view .LVU710
 2500              	.LBB917:
ARM GAS  C:\Users\skipi\AppData\Local\Temp\cc6PZCfi.s 			page 78


 180:../libs/libDaisy/src/dev/mpr121.h ****         {
 2501              		.loc 12 180 30 view .LVU711
 2502              	.L33:
 2503              	.LBB918:
 2504              	.LBI918:
 257:../libs/libDaisy/src/dev/mpr121.h ****     {
 2505              		.loc 12 257 10 view .LVU712
 2506              	.LBB919:
 2507              	.LBB920:
 2508              	.LBB921:
  66:../libs/libDaisy/src/dev/mpr121.h ****     }
 2509              		.loc 12 66 40 is_stmt 0 view .LVU713
 2510 00d2 0A24     		movs	r4, #10
 2511              	.LBE921:
 2512              	.LBE920:
 264:../libs/libDaisy/src/dev/mpr121.h **** 
 2513              		.loc 12 264 17 view .LVU714
 2514 00d4 0027     		movs	r7, #0
 2515 00d6 5E26     		movs	r6, #94
 2516              	.LBB924:
 2517              	.LBB922:
  66:../libs/libDaisy/src/dev/mpr121.h ****     }
 2518              		.loc 12 66 40 view .LVU715
 2519 00d8 0123     		movs	r3, #1
 2520 00da 0EAA     		add	r2, sp, #56
 2521 00dc 9DF87810 		ldrb	r1, [sp, #120]	@ zero_extendqisi2
 2522 00e0 0094     		str	r4, [sp]
 2523 00e2 19A8     		add	r0, sp, #100
 2524              	.LBE922:
 2525              	.LBE924:
 264:../libs/libDaisy/src/dev/mpr121.h **** 
 2526              		.loc 12 264 17 view .LVU716
 2527 00e4 8DF83970 		strb	r7, [sp, #57]
 2528 00e8 8DF83860 		strb	r6, [sp, #56]
 2529              	.LVL163:
 2530              	.LBB925:
 2531              	.LBI920:
  63:../libs/libDaisy/src/dev/mpr121.h ****     {
 2532              		.loc 12 63 10 is_stmt 1 view .LVU717
 2533              	.LBB923:
  65:../libs/libDaisy/src/dev/mpr121.h ****                != i2c_.TransmitBlocking(config_.dev_addr, data, size, 10);
 2534              		.loc 12 65 9 view .LVU718
  66:../libs/libDaisy/src/dev/mpr121.h ****     }
