ARM GAS  C:\Users\skipi\AppData\Local\Temp\cc6PZCfi.s 			page 1


   1              		.cpu cortex-m7
   2              		.eabi_attribute 28, 1
   3              		.eabi_attribute 20, 1
   4              		.eabi_attribute 21, 1
   5              		.eabi_attribute 23, 3
   6              		.eabi_attribute 24, 1
   7              		.eabi_attribute 25, 1
   8              		.eabi_attribute 26, 1
   9              		.eabi_attribute 30, 2
  10              		.eabi_attribute 34, 1
  11              		.eabi_attribute 18, 4
  12              		.file	"PianoB.cpp"
  13              		.text
  14              	.Ltext0:
  15              		.cfi_sections	.debug_frame
  16              		.section	.text._ZN5daisy9DaisySeedD2Ev,"axG",%progbits,_ZN5daisy9DaisySeedD5Ev,comdat
  17              		.align	1
  18              		.p2align 2,,3
  19              		.weak	_ZN5daisy9DaisySeedD2Ev
  20              		.arch armv7e-m
  21              		.syntax unified
  22              		.thumb
  23              		.thumb_func
  24              		.fpu fpv5-d16
  26              	_ZN5daisy9DaisySeedD2Ev:
  27              	.LVL0:
  28              	.LFB2645:
  29              		.file 1 "../libs/libDaisy/src/daisy_seed.h"
   1:../libs/libDaisy/src/daisy_seed.h **** #pragma once
   2:../libs/libDaisy/src/daisy_seed.h **** #ifndef DSY_SEED_H
   3:../libs/libDaisy/src/daisy_seed.h **** #define DSY_SEED_H
   4:../libs/libDaisy/src/daisy_seed.h **** 
   5:../libs/libDaisy/src/daisy_seed.h **** #include "daisy.h"
   6:../libs/libDaisy/src/daisy_seed.h **** 
   7:../libs/libDaisy/src/daisy_seed.h **** //Uncomment this out if you're still using the rev2 hardware
   8:../libs/libDaisy/src/daisy_seed.h **** //#define SEED_REV2
   9:../libs/libDaisy/src/daisy_seed.h **** 
  10:../libs/libDaisy/src/daisy_seed.h **** namespace daisy
  11:../libs/libDaisy/src/daisy_seed.h **** {
  12:../libs/libDaisy/src/daisy_seed.h **** /**
  13:../libs/libDaisy/src/daisy_seed.h ****    @brief This is the higher-level interface for the Daisy board. \n 
  14:../libs/libDaisy/src/daisy_seed.h ****     All basic peripheral configuration/initialization is setup here. \n
  15:../libs/libDaisy/src/daisy_seed.h **** 
  16:../libs/libDaisy/src/daisy_seed.h ****    @ingroup boards
  17:../libs/libDaisy/src/daisy_seed.h **** */
  18:../libs/libDaisy/src/daisy_seed.h **** class DaisySeed
  19:../libs/libDaisy/src/daisy_seed.h **** {
  20:../libs/libDaisy/src/daisy_seed.h ****   public:
  21:../libs/libDaisy/src/daisy_seed.h ****     DaisySeed() {}
  22:../libs/libDaisy/src/daisy_seed.h ****     ~DaisySeed() {}
  30              		.loc 1 22 5 view -0
  31              		.cfi_startproc
  32              		@ args = 0, pretend = 0, frame = 0
  33              		@ frame_needed = 0, uses_anonymous_args = 0
  34              		@ link register save eliminated.
  35              	.LBB478:
  36              	.LBI478:
ARM GAS  C:\Users\skipi\AppData\Local\Temp\cc6PZCfi.s 			page 2


  37              		.file 2 "../libs/libDaisy/src/dev/codec_ak4556.h"
   1:../libs/libDaisy/src/dev/codec_ak4556.h **** #pragma once
   2:../libs/libDaisy/src/dev/codec_ak4556.h **** #ifndef DSY_CODEC_AK4556_H
   3:../libs/libDaisy/src/dev/codec_ak4556.h **** #define DSY_CODEC_AK4556_H
   4:../libs/libDaisy/src/dev/codec_ak4556.h **** 
   5:../libs/libDaisy/src/dev/codec_ak4556.h **** #include "daisy_core.h"
   6:../libs/libDaisy/src/dev/codec_ak4556.h **** #include "per/gpio.h"
   7:../libs/libDaisy/src/dev/codec_ak4556.h **** 
   8:../libs/libDaisy/src/dev/codec_ak4556.h **** namespace daisy
   9:../libs/libDaisy/src/dev/codec_ak4556.h **** {
  10:../libs/libDaisy/src/dev/codec_ak4556.h **** /** @brief Ak4556 Codec support 
  11:../libs/libDaisy/src/dev/codec_ak4556.h ****  ** @author shensley
  12:../libs/libDaisy/src/dev/codec_ak4556.h ****  ** @addtogroup codec
  13:../libs/libDaisy/src/dev/codec_ak4556.h ****  ** 
  14:../libs/libDaisy/src/dev/codec_ak4556.h ****  ** I don't see any real reason to have this be more than a function, but in case we want
  15:../libs/libDaisy/src/dev/codec_ak4556.h ****  ** to add other functions down the road I wrapped the function in a class.
  16:../libs/libDaisy/src/dev/codec_ak4556.h ****  ***/
  17:../libs/libDaisy/src/dev/codec_ak4556.h **** class Ak4556
  18:../libs/libDaisy/src/dev/codec_ak4556.h **** {
  19:../libs/libDaisy/src/dev/codec_ak4556.h ****   public:
  20:../libs/libDaisy/src/dev/codec_ak4556.h ****     Ak4556() {}
  21:../libs/libDaisy/src/dev/codec_ak4556.h ****     ~Ak4556() {}
  38              		.loc 2 21 5 view .LVU1
  39              		.loc 2 21 5 is_stmt 0 view .LVU2
  40              	.LBE478:
  41              	.LBB479:
  42              	.LBI479:
  43              		.file 3 "../libs/libDaisy/src/sys/system.h"
   1:../libs/libDaisy/src/sys/system.h **** #ifndef DSY_SYSTEM_H
   2:../libs/libDaisy/src/sys/system.h **** #define DSY_SYSTEM_H
   3:../libs/libDaisy/src/sys/system.h **** 
   4:../libs/libDaisy/src/sys/system.h **** #ifndef UNIT_TEST // for unit tests, a dummy implementation is provided below
   5:../libs/libDaisy/src/sys/system.h **** 
   6:../libs/libDaisy/src/sys/system.h **** #include <cstdint>
   7:../libs/libDaisy/src/sys/system.h **** #include "per/tim.h"
   8:../libs/libDaisy/src/sys/system.h **** 
   9:../libs/libDaisy/src/sys/system.h **** namespace daisy
  10:../libs/libDaisy/src/sys/system.h **** {
  11:../libs/libDaisy/src/sys/system.h **** /** A handle for interacting with the Core System.
  12:../libs/libDaisy/src/sys/system.h ****  ** This includes the Clock tree, MPU, global DMA initialization,
  13:../libs/libDaisy/src/sys/system.h ****  ** cache handling, and any other necessary global initiailzation
  14:../libs/libDaisy/src/sys/system.h ****  **
  15:../libs/libDaisy/src/sys/system.h ****  ** @author shensley
  16:../libs/libDaisy/src/sys/system.h ****  ** @ingroup system
  17:../libs/libDaisy/src/sys/system.h ****  */
  18:../libs/libDaisy/src/sys/system.h **** class System
  19:../libs/libDaisy/src/sys/system.h **** {
  20:../libs/libDaisy/src/sys/system.h ****   public:
  21:../libs/libDaisy/src/sys/system.h ****     /** Contains settings for initializing the System */
  22:../libs/libDaisy/src/sys/system.h ****     struct Config
  23:../libs/libDaisy/src/sys/system.h ****     {
  24:../libs/libDaisy/src/sys/system.h ****         /** Specifies the system clock frequency that feeds APB/AHB clocks, etc. */
  25:../libs/libDaisy/src/sys/system.h ****         enum class SysClkFreq
  26:../libs/libDaisy/src/sys/system.h ****         {
  27:../libs/libDaisy/src/sys/system.h ****             FREQ_400MHZ,
  28:../libs/libDaisy/src/sys/system.h ****             FREQ_480MHZ,
  29:../libs/libDaisy/src/sys/system.h ****         };
ARM GAS  C:\Users\skipi\AppData\Local\Temp\cc6PZCfi.s 			page 3


  30:../libs/libDaisy/src/sys/system.h **** 
  31:../libs/libDaisy/src/sys/system.h ****         /** Method to call on the struct to set to defaults
  32:../libs/libDaisy/src/sys/system.h ****          ** CPU Freq set to 400MHz
  33:../libs/libDaisy/src/sys/system.h ****          ** Cache Enabled
  34:../libs/libDaisy/src/sys/system.h ****          ** */
  35:../libs/libDaisy/src/sys/system.h ****         void Defaults()
  36:../libs/libDaisy/src/sys/system.h ****         {
  37:../libs/libDaisy/src/sys/system.h ****             cpu_freq    = SysClkFreq::FREQ_400MHZ;
  38:../libs/libDaisy/src/sys/system.h ****             use_dcache  = true;
  39:../libs/libDaisy/src/sys/system.h ****             use_icache  = true;
  40:../libs/libDaisy/src/sys/system.h ****             skip_clocks = false;
  41:../libs/libDaisy/src/sys/system.h ****         }
  42:../libs/libDaisy/src/sys/system.h **** 
  43:../libs/libDaisy/src/sys/system.h ****         /** Method to call on the struct to set to boost mode:
  44:../libs/libDaisy/src/sys/system.h ****          ** CPU Freq set to 480MHz
  45:../libs/libDaisy/src/sys/system.h ****          ** Cache Enabled
  46:../libs/libDaisy/src/sys/system.h ****          ** */
  47:../libs/libDaisy/src/sys/system.h ****         void Boost()
  48:../libs/libDaisy/src/sys/system.h ****         {
  49:../libs/libDaisy/src/sys/system.h ****             cpu_freq    = SysClkFreq::FREQ_480MHZ;
  50:../libs/libDaisy/src/sys/system.h ****             use_dcache  = true;
  51:../libs/libDaisy/src/sys/system.h ****             use_icache  = true;
  52:../libs/libDaisy/src/sys/system.h ****             skip_clocks = false;
  53:../libs/libDaisy/src/sys/system.h ****         }
  54:../libs/libDaisy/src/sys/system.h **** 
  55:../libs/libDaisy/src/sys/system.h ****         SysClkFreq cpu_freq;
  56:../libs/libDaisy/src/sys/system.h ****         bool       use_dcache;
  57:../libs/libDaisy/src/sys/system.h ****         bool       use_icache;
  58:../libs/libDaisy/src/sys/system.h ****         bool       skip_clocks;
  59:../libs/libDaisy/src/sys/system.h ****     };
  60:../libs/libDaisy/src/sys/system.h **** 
  61:../libs/libDaisy/src/sys/system.h ****     /** Describes the different regions of memory available to the Daisy */
  62:../libs/libDaisy/src/sys/system.h ****     enum MemoryRegion
  63:../libs/libDaisy/src/sys/system.h ****     {
  64:../libs/libDaisy/src/sys/system.h ****         INTERNAL_FLASH = 0,
  65:../libs/libDaisy/src/sys/system.h ****         ITCMRAM,
  66:../libs/libDaisy/src/sys/system.h ****         DTCMRAM,
  67:../libs/libDaisy/src/sys/system.h ****         SRAM_D1,
  68:../libs/libDaisy/src/sys/system.h ****         SRAM_D2,
  69:../libs/libDaisy/src/sys/system.h ****         SRAM_D3,
  70:../libs/libDaisy/src/sys/system.h ****         SDRAM,
  71:../libs/libDaisy/src/sys/system.h ****         QSPI,
  72:../libs/libDaisy/src/sys/system.h ****         INVALID_ADDRESS,
  73:../libs/libDaisy/src/sys/system.h ****     };
  74:../libs/libDaisy/src/sys/system.h **** 
  75:../libs/libDaisy/src/sys/system.h ****     /** Bootloader struct for controlling bootloading parameters */
  76:../libs/libDaisy/src/sys/system.h ****     struct BootInfo
  77:../libs/libDaisy/src/sys/system.h ****     {
  78:../libs/libDaisy/src/sys/system.h ****         enum class Type : uint32_t
  79:../libs/libDaisy/src/sys/system.h ****         {
  80:../libs/libDaisy/src/sys/system.h ****             INVALID      = 0x00000000,
  81:../libs/libDaisy/src/sys/system.h ****             JUMP         = 0xDEADBEEF,
  82:../libs/libDaisy/src/sys/system.h ****             SKIP_TIMEOUT = 0x5AFEB007,
  83:../libs/libDaisy/src/sys/system.h ****             INF_TIMEOUT  = 0xB0074EFA,
  84:../libs/libDaisy/src/sys/system.h ****         } status;
  85:../libs/libDaisy/src/sys/system.h ****         uint32_t data;
  86:../libs/libDaisy/src/sys/system.h ****         enum class Version : uint32_t
ARM GAS  C:\Users\skipi\AppData\Local\Temp\cc6PZCfi.s 			page 4


  87:../libs/libDaisy/src/sys/system.h ****         {
  88:../libs/libDaisy/src/sys/system.h ****             LT_v6_0 = 0, // Less than v6.0
  89:../libs/libDaisy/src/sys/system.h ****             NONE,        // No bootloader present
  90:../libs/libDaisy/src/sys/system.h ****             v6_0,        // v6.0
  91:../libs/libDaisy/src/sys/system.h ****             v6_1,        // v6.1 or greater
  92:../libs/libDaisy/src/sys/system.h ****             LAST
  93:../libs/libDaisy/src/sys/system.h ****         } version;
  94:../libs/libDaisy/src/sys/system.h ****     };
  95:../libs/libDaisy/src/sys/system.h **** 
  96:../libs/libDaisy/src/sys/system.h ****     System() {}
  97:../libs/libDaisy/src/sys/system.h ****     ~System() {}
  44              		.loc 3 97 5 is_stmt 1 view .LVU3
  45              		.loc 3 97 5 is_stmt 0 view .LVU4
  46              	.LBE479:
  47              	.LBB480:
  48              	.LBI480:
  49              		.file 4 "../libs/libDaisy/src/hid/usb.h"
   1:../libs/libDaisy/src/hid/usb.h **** #pragma once
   2:../libs/libDaisy/src/hid/usb.h **** #ifndef DSY_HID_USB_H
   3:../libs/libDaisy/src/hid/usb.h **** #define DSY_HID_USB_H
   4:../libs/libDaisy/src/hid/usb.h **** #include <stdint.h>
   5:../libs/libDaisy/src/hid/usb.h **** #include <stdlib.h>
   6:../libs/libDaisy/src/hid/usb.h **** 
   7:../libs/libDaisy/src/hid/usb.h **** namespace daisy
   8:../libs/libDaisy/src/hid/usb.h **** /** @addtogroup human_interface
   9:../libs/libDaisy/src/hid/usb.h ****     @{
  10:../libs/libDaisy/src/hid/usb.h **** */
  11:../libs/libDaisy/src/hid/usb.h **** 
  12:../libs/libDaisy/src/hid/usb.h **** {
  13:../libs/libDaisy/src/hid/usb.h **** /** 
  14:../libs/libDaisy/src/hid/usb.h ****     @brief Interface for initializing and using the USB Peripherals on the daisy
  15:../libs/libDaisy/src/hid/usb.h ****     @author Stephen Hensley
  16:../libs/libDaisy/src/hid/usb.h ****     @date December 2019
  17:../libs/libDaisy/src/hid/usb.h **** */
  18:../libs/libDaisy/src/hid/usb.h **** class UsbHandle
  19:../libs/libDaisy/src/hid/usb.h **** {
  20:../libs/libDaisy/src/hid/usb.h ****   public:
  21:../libs/libDaisy/src/hid/usb.h ****     /** Return values for USBHandle Functions */
  22:../libs/libDaisy/src/hid/usb.h ****     enum class Result
  23:../libs/libDaisy/src/hid/usb.h ****     {
  24:../libs/libDaisy/src/hid/usb.h ****         OK,
  25:../libs/libDaisy/src/hid/usb.h ****         ERR,
  26:../libs/libDaisy/src/hid/usb.h ****     };
  27:../libs/libDaisy/src/hid/usb.h **** 
  28:../libs/libDaisy/src/hid/usb.h ****     /** Specified which of the two USB Peripherals to initialize. */
  29:../libs/libDaisy/src/hid/usb.h ****     enum UsbPeriph
  30:../libs/libDaisy/src/hid/usb.h ****     {
  31:../libs/libDaisy/src/hid/usb.h ****         FS_INTERNAL, /**< Internal pin */
  32:../libs/libDaisy/src/hid/usb.h ****         FS_EXTERNAL, /**< FS External D+ pin is Pin 38 (GPIO32). FS External D- pin is Pin 37 (GPIO
  33:../libs/libDaisy/src/hid/usb.h ****         FS_BOTH,     /**< Both */
  34:../libs/libDaisy/src/hid/usb.h ****     };
  35:../libs/libDaisy/src/hid/usb.h **** 
  36:../libs/libDaisy/src/hid/usb.h **** 
  37:../libs/libDaisy/src/hid/usb.h ****     /** Function called upon reception of a buffer */
  38:../libs/libDaisy/src/hid/usb.h ****     typedef void (*ReceiveCallback)(uint8_t* buff, uint32_t* len);
  39:../libs/libDaisy/src/hid/usb.h **** 
  40:../libs/libDaisy/src/hid/usb.h ****     UsbHandle() {}
ARM GAS  C:\Users\skipi\AppData\Local\Temp\cc6PZCfi.s 			page 5


  41:../libs/libDaisy/src/hid/usb.h **** 
  42:../libs/libDaisy/src/hid/usb.h ****     ~UsbHandle() {}
  50              		.loc 4 42 5 is_stmt 1 view .LVU5
  51              		.loc 4 42 5 is_stmt 0 view .LVU6
  52              	.LBE480:
  53              	.LBB481:
  54              	.LBI481:
  55              		.file 5 "../libs/libDaisy/src/per/adc.h"
   1:../libs/libDaisy/src/per/adc.h **** #pragma once
   2:../libs/libDaisy/src/per/adc.h **** #ifndef DSY_ADC_H
   3:../libs/libDaisy/src/per/adc.h **** #define DSY_ADC_H /**< Macro */
   4:../libs/libDaisy/src/per/adc.h **** #include <stdint.h>
   5:../libs/libDaisy/src/per/adc.h **** #include <stdlib.h>
   6:../libs/libDaisy/src/per/adc.h **** #include "daisy_core.h"
   7:../libs/libDaisy/src/per/adc.h **** #include "per/gpio.h"
   8:../libs/libDaisy/src/per/adc.h **** 
   9:../libs/libDaisy/src/per/adc.h **** #define DSY_ADC_MAX_CHANNELS 16 /**< Maximum number of ADC channels */
  10:../libs/libDaisy/src/per/adc.h **** 
  11:../libs/libDaisy/src/per/adc.h **** namespace daisy
  12:../libs/libDaisy/src/per/adc.h **** {
  13:../libs/libDaisy/src/per/adc.h **** /** @addtogroup per_analog
  14:../libs/libDaisy/src/per/adc.h ****     @{
  15:../libs/libDaisy/src/per/adc.h **** */
  16:../libs/libDaisy/src/per/adc.h **** 
  17:../libs/libDaisy/src/per/adc.h **** /* While there may not be many configuration options here,
  18:../libs/libDaisy/src/per/adc.h **** using a struct like this allows us to add more configuration
  19:../libs/libDaisy/src/per/adc.h **** later without breaking existing functionality.
  20:../libs/libDaisy/src/per/adc.h **** */
  21:../libs/libDaisy/src/per/adc.h **** 
  22:../libs/libDaisy/src/per/adc.h **** /** @brief   Configuration Structure for an ADC Channel 
  23:../libs/libDaisy/src/per/adc.h ****  *  @details This can be used to configure a a single input, 
  24:../libs/libDaisy/src/per/adc.h ****  *           or a multiplexed input, allowing up to 8 inputs on 
  25:../libs/libDaisy/src/per/adc.h ****  *           one channel.
  26:../libs/libDaisy/src/per/adc.h ****  *  @note    Sharing data lines to multiple muxes _is_ possible, but
  27:../libs/libDaisy/src/per/adc.h ****  *           each channel sharing data lines must be set to the maximum
  28:../libs/libDaisy/src/per/adc.h ****  *           number of channels, even if some multiplexers have fewer
  29:../libs/libDaisy/src/per/adc.h ****  *           inputs connected.
  30:../libs/libDaisy/src/per/adc.h **** */
  31:../libs/libDaisy/src/per/adc.h **** struct AdcChannelConfig
  32:../libs/libDaisy/src/per/adc.h **** {
  33:../libs/libDaisy/src/per/adc.h ****     /** Which pin to use for multiplexing */
  34:../libs/libDaisy/src/per/adc.h ****     enum MuxPin
  35:../libs/libDaisy/src/per/adc.h ****     {
  36:../libs/libDaisy/src/per/adc.h ****         MUX_SEL_0,    /**< & */
  37:../libs/libDaisy/src/per/adc.h ****         MUX_SEL_1,    /**< & */
  38:../libs/libDaisy/src/per/adc.h ****         MUX_SEL_2,    /**< & */
  39:../libs/libDaisy/src/per/adc.h ****         MUX_SEL_LAST, /**< & */
  40:../libs/libDaisy/src/per/adc.h ****     };
  41:../libs/libDaisy/src/per/adc.h **** 
  42:../libs/libDaisy/src/per/adc.h ****     /** \brief per channel conversion speed added to fixed time based on bitdepth, etc. */
  43:../libs/libDaisy/src/per/adc.h ****     enum ConversionSpeed
  44:../libs/libDaisy/src/per/adc.h ****     {
  45:../libs/libDaisy/src/per/adc.h ****         SPEED_1CYCLES_5,
  46:../libs/libDaisy/src/per/adc.h ****         SPEED_2CYCLES_5,
  47:../libs/libDaisy/src/per/adc.h ****         SPEED_8CYCLES_5,
  48:../libs/libDaisy/src/per/adc.h ****         SPEED_16CYCLES_5,
  49:../libs/libDaisy/src/per/adc.h ****         SPEED_32CYCLES_5,
ARM GAS  C:\Users\skipi\AppData\Local\Temp\cc6PZCfi.s 			page 6


  50:../libs/libDaisy/src/per/adc.h ****         SPEED_64CYCLES_5,
  51:../libs/libDaisy/src/per/adc.h ****         SPEED_387CYCLES_5,
  52:../libs/libDaisy/src/per/adc.h ****         SPEED_810CYCLES_5,
  53:../libs/libDaisy/src/per/adc.h ****     };
  54:../libs/libDaisy/src/per/adc.h **** 
  55:../libs/libDaisy/src/per/adc.h ****     /** Initializes a single ADC pin as an ADC. 
  56:../libs/libDaisy/src/per/adc.h ****     \param pin Pin to init.
  57:../libs/libDaisy/src/per/adc.h ****     \param speed conversion speed for this pin defaults to 8.5 cycles
  58:../libs/libDaisy/src/per/adc.h ****      */
  59:../libs/libDaisy/src/per/adc.h ****     void InitSingle(Pin pin, ConversionSpeed speed = SPEED_8CYCLES_5);
  60:../libs/libDaisy/src/per/adc.h **** 
  61:../libs/libDaisy/src/per/adc.h ****     /** 
  62:../libs/libDaisy/src/per/adc.h ****     Initializes a single ADC pin as a Multiplexed ADC.
  63:../libs/libDaisy/src/per/adc.h ****     Requires a CD405X Multiplexer connected to the pin.
  64:../libs/libDaisy/src/per/adc.h ****     You only need to supply the mux pins that are required,
  65:../libs/libDaisy/src/per/adc.h ****     e.g. a 4052 mux would only require mux_0 and mux_1.
  66:../libs/libDaisy/src/per/adc.h ****     Internal Callbacks handle the pin addressing.
  67:../libs/libDaisy/src/per/adc.h ****     \param adc_pin &
  68:../libs/libDaisy/src/per/adc.h ****     \param mux_channels must be 1-8
  69:../libs/libDaisy/src/per/adc.h ****     \param mux_0 First mux pin
  70:../libs/libDaisy/src/per/adc.h ****     \param mux_1 Second mux pin
  71:../libs/libDaisy/src/per/adc.h ****     \param mux_2 Third mux pin
  72:../libs/libDaisy/src/per/adc.h ****     \param speed conversion speed for this pin defaults to 8.5 cycles
  73:../libs/libDaisy/src/per/adc.h ****     */
  74:../libs/libDaisy/src/per/adc.h ****     void InitMux(Pin             adc_pin,
  75:../libs/libDaisy/src/per/adc.h ****                  size_t          mux_channels,
  76:../libs/libDaisy/src/per/adc.h ****                  Pin             mux_0,
  77:../libs/libDaisy/src/per/adc.h ****                  Pin             mux_1 = Pin(PORTX, 0),
  78:../libs/libDaisy/src/per/adc.h ****                  Pin             mux_2 = Pin(PORTX, 0),
  79:../libs/libDaisy/src/per/adc.h ****                  ConversionSpeed speed = SPEED_8CYCLES_5);
  80:../libs/libDaisy/src/per/adc.h **** 
  81:../libs/libDaisy/src/per/adc.h ****     GPIO            pin_;                   /**< & */
  82:../libs/libDaisy/src/per/adc.h ****     GPIO            mux_pin_[MUX_SEL_LAST]; /**< & */
  83:../libs/libDaisy/src/per/adc.h ****     uint8_t         mux_channels_;          /**< & */
  84:../libs/libDaisy/src/per/adc.h ****     ConversionSpeed speed_;
  85:../libs/libDaisy/src/per/adc.h **** };
  86:../libs/libDaisy/src/per/adc.h **** 
  87:../libs/libDaisy/src/per/adc.h **** /**
  88:../libs/libDaisy/src/per/adc.h ****    @brief Handler for analog to digital conversion
  89:../libs/libDaisy/src/per/adc.h **** */
  90:../libs/libDaisy/src/per/adc.h **** class AdcHandle
  91:../libs/libDaisy/src/per/adc.h **** {
  92:../libs/libDaisy/src/per/adc.h ****   public:
  93:../libs/libDaisy/src/per/adc.h ****     /** Supported oversampling amounts */
  94:../libs/libDaisy/src/per/adc.h ****     enum OverSampling
  95:../libs/libDaisy/src/per/adc.h ****     {
  96:../libs/libDaisy/src/per/adc.h ****         OVS_NONE, /**< & */
  97:../libs/libDaisy/src/per/adc.h ****         OVS_4,    /**< & */
  98:../libs/libDaisy/src/per/adc.h ****         OVS_8,    /**< & */
  99:../libs/libDaisy/src/per/adc.h ****         OVS_16,   /**< & */
 100:../libs/libDaisy/src/per/adc.h ****         OVS_32,   /**< & */
 101:../libs/libDaisy/src/per/adc.h ****         OVS_64,   /**< & */
 102:../libs/libDaisy/src/per/adc.h ****         OVS_128,  /**< & */
 103:../libs/libDaisy/src/per/adc.h ****         OVS_256,  /**< & */
 104:../libs/libDaisy/src/per/adc.h ****         OVS_512,  /**< & */
 105:../libs/libDaisy/src/per/adc.h ****         OVS_1024, /**< & */
 106:../libs/libDaisy/src/per/adc.h ****         OVS_LAST, /**< & */
ARM GAS  C:\Users\skipi\AppData\Local\Temp\cc6PZCfi.s 			page 7


 107:../libs/libDaisy/src/per/adc.h ****     };
 108:../libs/libDaisy/src/per/adc.h **** 
 109:../libs/libDaisy/src/per/adc.h ****     AdcHandle() {}
 110:../libs/libDaisy/src/per/adc.h ****     ~AdcHandle() {}
  56              		.loc 5 110 5 is_stmt 1 view .LVU7
  57              		.loc 5 110 5 is_stmt 0 view .LVU8
  58              	.LBE481:
  59              	.LBB482:
  60              	.LBI482:
  61              		.file 6 "../libs/libDaisy/src/hid/audio.h"
   1:../libs/libDaisy/src/hid/audio.h **** #ifndef DSY_AUDIO_H
   2:../libs/libDaisy/src/hid/audio.h **** #define DSY_AUDIO_H /**< & */
   3:../libs/libDaisy/src/hid/audio.h **** 
   4:../libs/libDaisy/src/hid/audio.h **** #include "per/sai.h"
   5:../libs/libDaisy/src/hid/audio.h **** 
   6:../libs/libDaisy/src/hid/audio.h **** namespace daisy
   7:../libs/libDaisy/src/hid/audio.h **** {
   8:../libs/libDaisy/src/hid/audio.h **** /** @brief Audio Engine Handle
   9:../libs/libDaisy/src/hid/audio.h ****  *  @ingroup audio 
  10:../libs/libDaisy/src/hid/audio.h ****  *  @details This class allows for higher level access to an audio engine.
  11:../libs/libDaisy/src/hid/audio.h ****  *           If you're using a SOM like the DaisySeed or DaisyPatchSM (or any 
  12:../libs/libDaisy/src/hid/audio.h ****  *            board that includes one of those objects) then the intialization
  13:../libs/libDaisy/src/hid/audio.h ****  *            is already taken  care of.
  14:../libs/libDaisy/src/hid/audio.h ****  *           If you're setting up your own custom hardware, or need to make changes
  15:../libs/libDaisy/src/hid/audio.h ****  *           you will have to take the following steps:
  16:../libs/libDaisy/src/hid/audio.h ****  *             1. Create and Initialize an SaiHandle or two depending on your requirements
  17:../libs/libDaisy/src/hid/audio.h ****  *             2. Initialize the Audio Handle with the desired settings and the Initialized SaiHand
  18:../libs/libDaisy/src/hid/audio.h ****  *             3. If the connected codec requires special configuration or initialization, do so
  19:../libs/libDaisy/src/hid/audio.h ****  *             4. Write a callback method using either the AudioCallback or the InterleavingAudioCa
  20:../libs/libDaisy/src/hid/audio.h ****  *             5. Start the Audio using one of the StartAudio function
  21:../libs/libDaisy/src/hid/audio.h ****  */
  22:../libs/libDaisy/src/hid/audio.h **** class AudioHandle
  23:../libs/libDaisy/src/hid/audio.h **** {
  24:../libs/libDaisy/src/hid/audio.h ****   public:
  25:../libs/libDaisy/src/hid/audio.h ****     /** Manually configurable details about the Audio Engine */
  26:../libs/libDaisy/src/hid/audio.h ****     /** TODO: Figure out how to get samplerate in here. */
  27:../libs/libDaisy/src/hid/audio.h ****     struct Config
  28:../libs/libDaisy/src/hid/audio.h ****     {
  29:../libs/libDaisy/src/hid/audio.h ****         /** number of samples to process per callback */
  30:../libs/libDaisy/src/hid/audio.h ****         size_t blocksize = 48;
  31:../libs/libDaisy/src/hid/audio.h **** 
  32:../libs/libDaisy/src/hid/audio.h ****         /**< Sample rate of audio */
  33:../libs/libDaisy/src/hid/audio.h ****         SaiHandle::Config::SampleRate samplerate
  34:../libs/libDaisy/src/hid/audio.h ****             = SaiHandle::Config::SampleRate::SAI_48KHZ;
  35:../libs/libDaisy/src/hid/audio.h **** 
  36:../libs/libDaisy/src/hid/audio.h ****         /** factor for adjustment before and after callback for hardware that may have extra headro
  37:../libs/libDaisy/src/hid/audio.h ****         float postgain = 1.f;
  38:../libs/libDaisy/src/hid/audio.h **** 
  39:../libs/libDaisy/src/hid/audio.h ****         /** factor for additional one-sided compensation to audio path for hardware that may
  40:../libs/libDaisy/src/hid/audio.h ****          *  have unequal input/output ranges
  41:../libs/libDaisy/src/hid/audio.h ****          */
  42:../libs/libDaisy/src/hid/audio.h ****         float output_compensation = 1.f;
  43:../libs/libDaisy/src/hid/audio.h ****     };
  44:../libs/libDaisy/src/hid/audio.h **** 
  45:../libs/libDaisy/src/hid/audio.h ****     enum class Result
  46:../libs/libDaisy/src/hid/audio.h ****     {
  47:../libs/libDaisy/src/hid/audio.h ****         OK,
ARM GAS  C:\Users\skipi\AppData\Local\Temp\cc6PZCfi.s 			page 8


  48:../libs/libDaisy/src/hid/audio.h ****         ERR,
  49:../libs/libDaisy/src/hid/audio.h ****     };
  50:../libs/libDaisy/src/hid/audio.h **** 
  51:../libs/libDaisy/src/hid/audio.h ****     /** Non-Interleaving input buffer
  52:../libs/libDaisy/src/hid/audio.h ****      * Buffer arranged by float[chn][sample] 
  53:../libs/libDaisy/src/hid/audio.h ****      * const so that the user can't modify the input
  54:../libs/libDaisy/src/hid/audio.h ****      */
  55:../libs/libDaisy/src/hid/audio.h ****     typedef const float* const* InputBuffer;
  56:../libs/libDaisy/src/hid/audio.h **** 
  57:../libs/libDaisy/src/hid/audio.h ****     /** Non-Interleaving output buffer
  58:../libs/libDaisy/src/hid/audio.h ****      * Arranged by float[chn][sample] 
  59:../libs/libDaisy/src/hid/audio.h ****      */
  60:../libs/libDaisy/src/hid/audio.h ****     typedef float** OutputBuffer;
  61:../libs/libDaisy/src/hid/audio.h **** 
  62:../libs/libDaisy/src/hid/audio.h ****     /** Type for a Non-Interleaving audio callback 
  63:../libs/libDaisy/src/hid/audio.h ****      * Non-Interleaving audio callbacks in daisy will be of this type
  64:../libs/libDaisy/src/hid/audio.h ****      */
  65:../libs/libDaisy/src/hid/audio.h ****     typedef void (*AudioCallback)(InputBuffer  in,
  66:../libs/libDaisy/src/hid/audio.h ****                                   OutputBuffer out,
  67:../libs/libDaisy/src/hid/audio.h ****                                   size_t       size);
  68:../libs/libDaisy/src/hid/audio.h **** 
  69:../libs/libDaisy/src/hid/audio.h ****     /** Interleaving Input buffer
  70:../libs/libDaisy/src/hid/audio.h ****      ** audio is prepared as { L0, R0, L1, R1, . . . LN, RN }]
  71:../libs/libDaisy/src/hid/audio.h ****      ** this is const, as the user shouldn't modify it
  72:../libs/libDaisy/src/hid/audio.h ****     */
  73:../libs/libDaisy/src/hid/audio.h ****     typedef const float* InterleavingInputBuffer;
  74:../libs/libDaisy/src/hid/audio.h **** 
  75:../libs/libDaisy/src/hid/audio.h ****     /** Interleaving Output buffer 
  76:../libs/libDaisy/src/hid/audio.h ****      ** audio is prepared as { L0, R0, L1, R1, . . . LN, RN }
  77:../libs/libDaisy/src/hid/audio.h ****     */
  78:../libs/libDaisy/src/hid/audio.h ****     typedef float* InterleavingOutputBuffer;
  79:../libs/libDaisy/src/hid/audio.h **** 
  80:../libs/libDaisy/src/hid/audio.h ****     /** Interleaving Audio Callback 
  81:../libs/libDaisy/src/hid/audio.h ****      * Interleaving audio callbacks in daisy must be of this type
  82:../libs/libDaisy/src/hid/audio.h ****      */
  83:../libs/libDaisy/src/hid/audio.h ****     typedef void (*InterleavingAudioCallback)(InterleavingInputBuffer  in,
  84:../libs/libDaisy/src/hid/audio.h ****                                               InterleavingOutputBuffer out,
  85:../libs/libDaisy/src/hid/audio.h ****                                               size_t                   size);
  86:../libs/libDaisy/src/hid/audio.h **** 
  87:../libs/libDaisy/src/hid/audio.h ****     AudioHandle() : pimpl_(nullptr) {}
  88:../libs/libDaisy/src/hid/audio.h ****     ~AudioHandle() {}
  62              		.loc 6 88 5 is_stmt 1 view .LVU9
  63              		.loc 6 88 5 is_stmt 0 view .LVU10
  64              	.LBE482:
  65              		.loc 1 22 19 view .LVU11
  66 0000 7047     		bx	lr
  67              		.cfi_endproc
  68              	.LFE2645:
  70              		.weak	_ZN5daisy9DaisySeedD1Ev
  71              		.thumb_set _ZN5daisy9DaisySeedD1Ev,_ZN5daisy9DaisySeedD2Ev
  72 0002 00BF     		.section	.text._ZN7daisysp4AdsrD2Ev,"axG",%progbits,_ZN7daisysp4AdsrD5Ev,comdat
  73              		.align	1
  74              		.p2align 2,,3
  75              		.weak	_ZN7daisysp4AdsrD2Ev
  76              		.syntax unified
  77              		.thumb
  78              		.thumb_func
ARM GAS  C:\Users\skipi\AppData\Local\Temp\cc6PZCfi.s 			page 9


  79              		.fpu fpv5-d16
  81              	_ZN7daisysp4AdsrD2Ev:
  82              	.LVL1:
  83              	.LFB2668:
  84              		.file 7 "../libs/DaisySP/Source/Control/adsr.h"
   1:../libs/DaisySP/Source/Control/adsr.h **** /*
   2:../libs/DaisySP/Source/Control/adsr.h **** Copyright (c) 2020 Electrosmith, Corp, Paul Batchelor
   3:../libs/DaisySP/Source/Control/adsr.h **** 
   4:../libs/DaisySP/Source/Control/adsr.h **** Use of this source code is governed by an MIT-style
   5:../libs/DaisySP/Source/Control/adsr.h **** license that can be found in the LICENSE file or at
   6:../libs/DaisySP/Source/Control/adsr.h **** https://opensource.org/licenses/MIT.
   7:../libs/DaisySP/Source/Control/adsr.h **** */
   8:../libs/DaisySP/Source/Control/adsr.h **** 
   9:../libs/DaisySP/Source/Control/adsr.h **** #pragma once
  10:../libs/DaisySP/Source/Control/adsr.h **** #ifndef DSY_ADSR_H
  11:../libs/DaisySP/Source/Control/adsr.h **** #define DSY_ADSR_H
  12:../libs/DaisySP/Source/Control/adsr.h **** 
  13:../libs/DaisySP/Source/Control/adsr.h **** #include <stdint.h>
  14:../libs/DaisySP/Source/Control/adsr.h **** #ifdef __cplusplus
  15:../libs/DaisySP/Source/Control/adsr.h **** 
  16:../libs/DaisySP/Source/Control/adsr.h **** namespace daisysp
  17:../libs/DaisySP/Source/Control/adsr.h **** {
  18:../libs/DaisySP/Source/Control/adsr.h **** /** Distinct stages that the phase of the envelope can be located in.
  19:../libs/DaisySP/Source/Control/adsr.h **** - IDLE   = located at phase location 0, and not currently running
  20:../libs/DaisySP/Source/Control/adsr.h **** - ATTACK  = First segment of envelope where phase moves from 0 to 1
  21:../libs/DaisySP/Source/Control/adsr.h **** - DECAY   = Second segment of envelope where phase moves from 1 to SUSTAIN value
  22:../libs/DaisySP/Source/Control/adsr.h **** - RELEASE =     Fourth segment of envelop where phase moves from SUSTAIN to 0
  23:../libs/DaisySP/Source/Control/adsr.h **** */
  24:../libs/DaisySP/Source/Control/adsr.h **** enum
  25:../libs/DaisySP/Source/Control/adsr.h **** {
  26:../libs/DaisySP/Source/Control/adsr.h ****     ADSR_SEG_IDLE    = 0,
  27:../libs/DaisySP/Source/Control/adsr.h ****     ADSR_SEG_ATTACK  = 1,
  28:../libs/DaisySP/Source/Control/adsr.h ****     ADSR_SEG_DECAY   = 2,
  29:../libs/DaisySP/Source/Control/adsr.h ****     ADSR_SEG_RELEASE = 4
  30:../libs/DaisySP/Source/Control/adsr.h **** };
  31:../libs/DaisySP/Source/Control/adsr.h **** 
  32:../libs/DaisySP/Source/Control/adsr.h **** 
  33:../libs/DaisySP/Source/Control/adsr.h **** /** adsr envelope module
  34:../libs/DaisySP/Source/Control/adsr.h **** 
  35:../libs/DaisySP/Source/Control/adsr.h **** Original author(s) : Paul Batchelor
  36:../libs/DaisySP/Source/Control/adsr.h **** 
  37:../libs/DaisySP/Source/Control/adsr.h **** Ported from Soundpipe by Ben Sergentanis, May 2020
  38:../libs/DaisySP/Source/Control/adsr.h ****  
  39:../libs/DaisySP/Source/Control/adsr.h **** Remake by Steffan DIedrichsen, May 2021
  40:../libs/DaisySP/Source/Control/adsr.h **** */
  41:../libs/DaisySP/Source/Control/adsr.h **** class Adsr
  42:../libs/DaisySP/Source/Control/adsr.h **** {
  43:../libs/DaisySP/Source/Control/adsr.h ****   public:
  44:../libs/DaisySP/Source/Control/adsr.h ****     Adsr() {}
  45:../libs/DaisySP/Source/Control/adsr.h ****     ~Adsr() {}
  85              		.loc 7 45 5 is_stmt 1 view -0
  86              		.cfi_startproc
  87              		@ args = 0, pretend = 0, frame = 0
  88              		@ frame_needed = 0, uses_anonymous_args = 0
  89              		@ link register save eliminated.
  90              		.loc 7 45 14 is_stmt 0 view .LVU13
  91 0000 7047     		bx	lr
ARM GAS  C:\Users\skipi\AppData\Local\Temp\cc6PZCfi.s 			page 10


  92              		.cfi_endproc
  93              	.LFE2668:
  95              		.weak	_ZN7daisysp4AdsrD1Ev
  96              		.thumb_set _ZN7daisysp4AdsrD1Ev,_ZN7daisysp4AdsrD2Ev
  97              		.section	.text._ZN7daisysp10OscillatorD2Ev,"axG",%progbits,_ZN7daisysp10OscillatorD5Ev,comdat
  98              		.align	1
  99              		.p2align 2,,3
 100              		.weak	_ZN7daisysp10OscillatorD2Ev
 101              		.syntax unified
 102              		.thumb
 103              		.thumb_func
 104              		.fpu fpv5-d16
 106              	_ZN7daisysp10OscillatorD2Ev:
 107              	.LVL2:
 108              	.LFB4330:
 109              		.file 8 "../libs/DaisySP/Source/Synthesis/oscillator.h"
   1:../libs/DaisySP/Source/Synthesis/oscillator.h **** /*
   2:../libs/DaisySP/Source/Synthesis/oscillator.h **** Copyright (c) 2020 Electrosmith, Corp
   3:../libs/DaisySP/Source/Synthesis/oscillator.h **** 
   4:../libs/DaisySP/Source/Synthesis/oscillator.h **** Use of this source code is governed by an MIT-style
   5:../libs/DaisySP/Source/Synthesis/oscillator.h **** license that can be found in the LICENSE file or at
   6:../libs/DaisySP/Source/Synthesis/oscillator.h **** https://opensource.org/licenses/MIT.
   7:../libs/DaisySP/Source/Synthesis/oscillator.h **** */
   8:../libs/DaisySP/Source/Synthesis/oscillator.h **** 
   9:../libs/DaisySP/Source/Synthesis/oscillator.h **** #pragma once
  10:../libs/DaisySP/Source/Synthesis/oscillator.h **** #ifndef DSY_OSCILLATOR_H
  11:../libs/DaisySP/Source/Synthesis/oscillator.h **** #define DSY_OSCILLATOR_H
  12:../libs/DaisySP/Source/Synthesis/oscillator.h **** #include <stdint.h>
  13:../libs/DaisySP/Source/Synthesis/oscillator.h **** #include "Utility/dsp.h"
  14:../libs/DaisySP/Source/Synthesis/oscillator.h **** #ifdef __cplusplus
  15:../libs/DaisySP/Source/Synthesis/oscillator.h **** 
  16:../libs/DaisySP/Source/Synthesis/oscillator.h **** namespace daisysp
  17:../libs/DaisySP/Source/Synthesis/oscillator.h **** {
  18:../libs/DaisySP/Source/Synthesis/oscillator.h **** /** Synthesis of several waveforms, including polyBLEP bandlimited waveforms.
  19:../libs/DaisySP/Source/Synthesis/oscillator.h **** */
  20:../libs/DaisySP/Source/Synthesis/oscillator.h **** class Oscillator
  21:../libs/DaisySP/Source/Synthesis/oscillator.h **** {
  22:../libs/DaisySP/Source/Synthesis/oscillator.h ****   public:
  23:../libs/DaisySP/Source/Synthesis/oscillator.h ****     Oscillator() {}
  24:../libs/DaisySP/Source/Synthesis/oscillator.h ****     ~Oscillator() {}
 110              		.loc 8 24 5 is_stmt 1 view -0
 111              		.cfi_startproc
 112              		@ args = 0, pretend = 0, frame = 0
 113              		@ frame_needed = 0, uses_anonymous_args = 0
 114              		@ link register save eliminated.
 115              		.loc 8 24 20 is_stmt 0 view .LVU15
 116 0000 7047     		bx	lr
 117              		.cfi_endproc
 118              	.LFE4330:
 120              		.weak	_ZN7daisysp10OscillatorD1Ev
 121              		.thumb_set _ZN7daisysp10OscillatorD1Ev,_ZN7daisysp10OscillatorD2Ev
 122              		.section	.text._ZN7daisysp3SvfD2Ev,"axG",%progbits,_ZN7daisysp3SvfD5Ev,comdat
 123              		.align	1
 124              		.p2align 2,,3
 125              		.weak	_ZN7daisysp3SvfD2Ev
 126              		.syntax unified
 127              		.thumb
ARM GAS  C:\Users\skipi\AppData\Local\Temp\cc6PZCfi.s 			page 11


 128              		.thumb_func
 129              		.fpu fpv5-d16
 131              	_ZN7daisysp3SvfD2Ev:
 132              	.LVL3:
 133              	.LFB4347:
 134              		.file 9 "../libs/DaisySP/Source/Filters/svf.h"
   1:../libs/DaisySP/Source/Filters/svf.h **** /*
   2:../libs/DaisySP/Source/Filters/svf.h **** Copyright (c) 2020 Electrosmith, Corp
   3:../libs/DaisySP/Source/Filters/svf.h **** 
   4:../libs/DaisySP/Source/Filters/svf.h **** Use of this source code is governed by an MIT-style
   5:../libs/DaisySP/Source/Filters/svf.h **** license that can be found in the LICENSE file or at
   6:../libs/DaisySP/Source/Filters/svf.h **** https://opensource.org/licenses/MIT.
   7:../libs/DaisySP/Source/Filters/svf.h **** */
   8:../libs/DaisySP/Source/Filters/svf.h **** 
   9:../libs/DaisySP/Source/Filters/svf.h **** #pragma once
  10:../libs/DaisySP/Source/Filters/svf.h **** #ifndef DSY_SVF_H
  11:../libs/DaisySP/Source/Filters/svf.h **** #define DSY_SVF_H
  12:../libs/DaisySP/Source/Filters/svf.h **** 
  13:../libs/DaisySP/Source/Filters/svf.h **** namespace daisysp
  14:../libs/DaisySP/Source/Filters/svf.h **** {
  15:../libs/DaisySP/Source/Filters/svf.h **** /**      Double Sampled, Stable State Variable Filter
  16:../libs/DaisySP/Source/Filters/svf.h **** 
  17:../libs/DaisySP/Source/Filters/svf.h **** Credit to Andrew Simper from musicdsp.org
  18:../libs/DaisySP/Source/Filters/svf.h **** 
  19:../libs/DaisySP/Source/Filters/svf.h **** This is his "State Variable Filter (Double Sampled, Stable)"
  20:../libs/DaisySP/Source/Filters/svf.h **** 
  21:../libs/DaisySP/Source/Filters/svf.h **** Additional thanks to Laurent de Soras for stability limit, and 
  22:../libs/DaisySP/Source/Filters/svf.h **** Stefan Diedrichsen for the correct notch output
  23:../libs/DaisySP/Source/Filters/svf.h **** 
  24:../libs/DaisySP/Source/Filters/svf.h **** Ported by: Stephen Hensley
  25:../libs/DaisySP/Source/Filters/svf.h **** */
  26:../libs/DaisySP/Source/Filters/svf.h **** class Svf
  27:../libs/DaisySP/Source/Filters/svf.h **** {
  28:../libs/DaisySP/Source/Filters/svf.h ****   public:
  29:../libs/DaisySP/Source/Filters/svf.h ****     Svf() {}
  30:../libs/DaisySP/Source/Filters/svf.h ****     ~Svf() {}
 135              		.loc 9 30 5 is_stmt 1 view -0
 136              		.cfi_startproc
 137              		@ args = 0, pretend = 0, frame = 0
 138              		@ frame_needed = 0, uses_anonymous_args = 0
 139              		@ link register save eliminated.
 140              		.loc 9 30 13 is_stmt 0 view .LVU17
 141 0000 7047     		bx	lr
 142              		.cfi_endproc
 143              	.LFE4347:
 145              		.weak	_ZN7daisysp3SvfD1Ev
 146              		.thumb_set _ZN7daisysp3SvfD1Ev,_ZN7daisysp3SvfD2Ev
 147              		.section	.text._Z13AudioCallbackPKPKfPPfj,"ax",%progbits
 148              		.align	1
 149              		.p2align 2,,3
 150              		.global	_Z13AudioCallbackPKPKfPPfj
 151              		.syntax unified
 152              		.thumb
 153              		.thumb_func
 154              		.fpu fpv5-d16
 156              	_Z13AudioCallbackPKPKfPPfj:
 157              	.LVL4:
ARM GAS  C:\Users\skipi\AppData\Local\Temp\cc6PZCfi.s 			page 12


 158              	.LFB4815:
 159              		.file 10 "src/PianoB.cpp"
   1:src/PianoB.cpp **** // Inclusion of necessary libraries
   2:src/PianoB.cpp **** #include "daisy_seed.h" // Main library for the Daisy Seed board
   3:src/PianoB.cpp **** #include "daisysp.h"    // DSP library for Daisy
   4:src/PianoB.cpp **** #include "Ramo.h"       // Library for the Ramo synth
   5:src/PianoB.cpp **** #include "config1.h"
   6:src/PianoB.cpp **** 
   7:src/PianoB.cpp **** 
   8:src/PianoB.cpp **** //#include "AnalogDelay.h" // Libreria custom per l'effetto delay analogico
   9:src/PianoB.cpp **** 
  10:src/PianoB.cpp **** 
  11:src/PianoB.cpp **** 
  12:src/PianoB.cpp **** // Using namespaces to simplify code writing
  13:src/PianoB.cpp **** using namespace daisy;
  14:src/PianoB.cpp **** using namespace daisysp;
  15:src/PianoB.cpp **** 
  16:src/PianoB.cpp **** 
  17:src/PianoB.cpp **** static DaisySeed hw;                                                // Main object for managing Dai
  18:src/PianoB.cpp **** 
  19:src/PianoB.cpp **** 
  20:src/PianoB.cpp **** 
  21:src/PianoB.cpp **** static Ramo Pluck1, Pluck2, Pluck3, Pluck4;                                                  // Obj
  22:src/PianoB.cpp **** static Ramo Bass1, Bass2;
  23:src/PianoB.cpp **** static Ramo Pad1, Pad2;                                                    // Object for the Ramo s
  24:src/PianoB.cpp ****  
  25:src/PianoB.cpp **** static Oscillator lfo_Pluck1, lfo_Pluck2, lfo_Pluck3, lfo_Pluck4;                                 /
  26:src/PianoB.cpp **** static Oscillator lfo_Bass1, lfo_Bass2;
  27:src/PianoB.cpp **** static Oscillator lfo_Pad1, lfo_Pad2;                                          // LFO object for mo
  28:src/PianoB.cpp **** 
  29:src/PianoB.cpp **** static Adsr AmpEnv_Pluck;                                          // Envelope object for amplitude
  30:src/PianoB.cpp **** static Adsr AmpEnv_Bass;
  31:src/PianoB.cpp **** static Adsr AmpEnv_Pad;                                            // Envelope object for amplitude
  32:src/PianoB.cpp **** 
  33:src/PianoB.cpp **** static Adsr FilterEnv_Pluck ;                                       
  34:src/PianoB.cpp **** static Adsr FilterEnv_Bass;
  35:src/PianoB.cpp **** static Adsr FilterEnv_Pad;                                        // Envelope object for filter
  36:src/PianoB.cpp **** 
  37:src/PianoB.cpp **** static Svf filter_Pluck1, filter_Pluck2, filter_Pluck3, filter_Pluck4;                             
  38:src/PianoB.cpp **** static Svf filter_Bass1, filter_Bass2;
  39:src/PianoB.cpp **** static Svf filter_Pad1, filter_Pad2;                                          // Filter object for 
  40:src/PianoB.cpp **** 
  41:src/PianoB.cpp **** 
  42:src/PianoB.cpp **** 
  43:src/PianoB.cpp **** float Raw_Pluck1, Raw_Pluck2, Raw_Pluck3, Raw_Pluck4;                                   // Raw sign
  44:src/PianoB.cpp **** float Raw_Bass1, Raw_Bass2;                                   // Raw signal variables
  45:src/PianoB.cpp **** float Raw_Pad1, Raw_Pad2;                            // Raw signal variables
  46:src/PianoB.cpp **** float out_noFX;                                                       // Output signal variable
  47:src/PianoB.cpp ****                                                      
  48:src/PianoB.cpp **** 
  49:src/PianoB.cpp **** 
  50:src/PianoB.cpp **** 
  51:src/PianoB.cpp **** 
  52:src/PianoB.cpp **** float now_f_lfo_Bass1, now_f_lfo_Bass2; // Frequency of LFO for Bass;
  53:src/PianoB.cpp **** float now_f_lfo_Pluck1, now_f_lfo_Pluck2, now_f_lfo_Pluck3, now_f_lfo_Pluck4; // Frequency of LFO f
  54:src/PianoB.cpp **** float now_f_lfo_Pad1, now_f_lfo_Pad2; // Frequency of LFO for Pad;  
  55:src/PianoB.cpp **** 
ARM GAS  C:\Users\skipi\AppData\Local\Temp\cc6PZCfi.s 			page 13


  56:src/PianoB.cpp **** float now_f_Pluck1, now_f_Pluck2, now_f_Pluck3, now_f_Pluck4; // Frequency of Pluck
  57:src/PianoB.cpp **** float now_f_Bass1, now_f_Bass2; // Frequency of Bass;
  58:src/PianoB.cpp **** float now_f_Pad1, now_f_Pad2; // Frequency of Pad;
  59:src/PianoB.cpp **** 
  60:src/PianoB.cpp **** float shape_Pluck1, shape_Pluck2, shape_Pluck3, shape_Pluck4; // Shape modulation for Pluck
  61:src/PianoB.cpp **** float shape_Bass1, shape_Bass2; // Shape modulation for Bass
  62:src/PianoB.cpp **** float shape_Pad1, shape_Pad2; // Shape modulation for Pad
  63:src/PianoB.cpp **** 
  64:src/PianoB.cpp **** float amp_env_Pluck1, amp_env_Pluck2, amp_env_Pluck3, amp_env_Pluck4; // Amplitude envelope for Plu
  65:src/PianoB.cpp **** float amp_env_Bass1, amp_env_Bass2; // Amplitude envelope for Bass
  66:src/PianoB.cpp **** float amp_env_Pad1, amp_env_Pad2; // Amplitude envelope for Pad
  67:src/PianoB.cpp **** 
  68:src/PianoB.cpp **** float filt_env_Pluck1, filt_env_Pluck2, filt_env_Pluck3, filt_env_Pluck4; // Filter envelope for Pl
  69:src/PianoB.cpp **** float filt_env_Bass1, filt_env_Bass2; // Filter envelope for Bass
  70:src/PianoB.cpp **** float filt_env_Pad1, filt_env_Pad2; // Filter envelope for Pad
  71:src/PianoB.cpp **** 
  72:src/PianoB.cpp **** 
  73:src/PianoB.cpp **** 
  74:src/PianoB.cpp **** float Gate[8]; // Gate variables for the synths
  75:src/PianoB.cpp **** 
  76:src/PianoB.cpp **** float knob[8]; 
  77:src/PianoB.cpp **** 
  78:src/PianoB.cpp **** void AudioCallback(AudioHandle::InputBuffer in, AudioHandle::OutputBuffer out, size_t size) {
 160              		.loc 10 78 93 is_stmt 1 view -0
 161              		.cfi_startproc
 162              		@ args = 0, pretend = 0, frame = 16
 163              		@ frame_needed = 0, uses_anonymous_args = 0
  79:src/PianoB.cpp **** 
  80:src/PianoB.cpp ****                                                     
  81:src/PianoB.cpp ****     for (size_t i = 0; i < size; i++) {
 164              		.loc 10 81 5 view .LVU19
 165              	.LBB483:
 166              		.loc 10 81 26 view .LVU20
 167              	.LBE483:
  78:src/PianoB.cpp **** 
 168              		.loc 10 78 93 is_stmt 0 view .LVU21
 169 0000 2DE9F04F 		push	{r4, r5, r6, r7, r8, r9, r10, fp, lr}
 170              		.cfi_def_cfa_offset 36
 171              		.cfi_offset 4, -36
 172              		.cfi_offset 5, -32
 173              		.cfi_offset 6, -28
 174              		.cfi_offset 7, -24
 175              		.cfi_offset 8, -20
 176              		.cfi_offset 9, -16
 177              		.cfi_offset 10, -12
 178              		.cfi_offset 11, -8
 179              		.cfi_offset 14, -4
 180 0004 85B0     		sub	sp, sp, #20
 181              		.cfi_def_cfa_offset 56
 182              	.LBB518:
 183              		.loc 10 81 26 view .LVU22
 184 0006 0392     		str	r2, [sp, #12]
 185 0008 002A     		cmp	r2, #0
 186 000a 00F0FA83 		beq	.L6
 187 000e 0A46     		mov	r2, r1
 188              	.LVL5:
 189              		.loc 10 81 17 view .LVU23
ARM GAS  C:\Users\skipi\AppData\Local\Temp\cc6PZCfi.s 			page 14


 190 0010 0023     		movs	r3, #0
 191 0012 C24C     		ldr	r4, .L14
 192 0014 DFF8E4B3 		ldr	fp, .L14+224
 193 0018 C14E     		ldr	r6, .L14+4
 194 001a C24D     		ldr	r5, .L14+8
 195 001c DFF8E0A3 		ldr	r10, .L14+228
 196 0020 DFF8E093 		ldr	r9, .L14+232
 197 0024 DFF8E083 		ldr	r8, .L14+236
 198 0028 BF4F     		ldr	r7, .L14+12
 199              	.LVL6:
 200              	.L8:
  82:src/PianoB.cpp **** //--------------------------------------------------------------------Setta DelayTime
  83:src/PianoB.cpp ****     //delay.setDelayTime(delayTime);      // Imposta il tempo di delay
  84:src/PianoB.cpp **** //-------------------------------------------------------------------Setta Shape
  85:src/PianoB.cpp ****     lfo_Pluck1.SetFreq(now_f_lfo_Pluck1);
 201              		.loc 10 85 5 is_stmt 1 discriminator 2 view .LVU24
 202 002a CDE90132 		strd	r3, r2, [sp, #4]
 203              	.LVL7:
 204              		.loc 10 85 23 is_stmt 0 discriminator 2 view .LVU25
 205 002e BF4B     		ldr	r3, .L14+16
 206 0030 93ED000A 		vldr.32	s0, [r3]
 207              	.LVL8:
 208              	.LBB484:
 209              	.LBI484:
  25:../libs/DaisySP/Source/Synthesis/oscillator.h ****     /** Choices for output waveforms, POLYBLEP are appropriately labeled. Others are naive forms.
  26:../libs/DaisySP/Source/Synthesis/oscillator.h ****     */
  27:../libs/DaisySP/Source/Synthesis/oscillator.h ****     enum
  28:../libs/DaisySP/Source/Synthesis/oscillator.h ****     {
  29:../libs/DaisySP/Source/Synthesis/oscillator.h ****         WAVE_SIN,
  30:../libs/DaisySP/Source/Synthesis/oscillator.h ****         WAVE_TRI,
  31:../libs/DaisySP/Source/Synthesis/oscillator.h ****         WAVE_SAW,
  32:../libs/DaisySP/Source/Synthesis/oscillator.h ****         WAVE_RAMP,
  33:../libs/DaisySP/Source/Synthesis/oscillator.h ****         WAVE_SQUARE,
  34:../libs/DaisySP/Source/Synthesis/oscillator.h ****         WAVE_POLYBLEP_TRI,
  35:../libs/DaisySP/Source/Synthesis/oscillator.h ****         WAVE_POLYBLEP_SAW,
  36:../libs/DaisySP/Source/Synthesis/oscillator.h ****         WAVE_POLYBLEP_SQUARE,
  37:../libs/DaisySP/Source/Synthesis/oscillator.h ****         WAVE_LAST,
  38:../libs/DaisySP/Source/Synthesis/oscillator.h ****     };
  39:../libs/DaisySP/Source/Synthesis/oscillator.h **** 
  40:../libs/DaisySP/Source/Synthesis/oscillator.h **** 
  41:../libs/DaisySP/Source/Synthesis/oscillator.h ****     /** Initializes the Oscillator
  42:../libs/DaisySP/Source/Synthesis/oscillator.h **** 
  43:../libs/DaisySP/Source/Synthesis/oscillator.h ****         \param sample_rate - sample rate of the audio engine being run, and the frequency that the 
  44:../libs/DaisySP/Source/Synthesis/oscillator.h **** 
  45:../libs/DaisySP/Source/Synthesis/oscillator.h ****         Defaults:
  46:../libs/DaisySP/Source/Synthesis/oscillator.h ****         - freq_ = 100 Hz
  47:../libs/DaisySP/Source/Synthesis/oscillator.h ****         - amp_ = 0.5
  48:../libs/DaisySP/Source/Synthesis/oscillator.h ****         - waveform_ = sine wave.
  49:../libs/DaisySP/Source/Synthesis/oscillator.h ****     */
  50:../libs/DaisySP/Source/Synthesis/oscillator.h ****     void Init(float sample_rate)
  51:../libs/DaisySP/Source/Synthesis/oscillator.h ****     {
  52:../libs/DaisySP/Source/Synthesis/oscillator.h ****         sr_        = sample_rate;
  53:../libs/DaisySP/Source/Synthesis/oscillator.h ****         sr_recip_  = 1.0f / sample_rate;
  54:../libs/DaisySP/Source/Synthesis/oscillator.h ****         freq_      = 100.0f;
  55:../libs/DaisySP/Source/Synthesis/oscillator.h ****         amp_       = 0.5f;
  56:../libs/DaisySP/Source/Synthesis/oscillator.h ****         pw_        = 0.5f;
  57:../libs/DaisySP/Source/Synthesis/oscillator.h ****         phase_     = 0.0f;
ARM GAS  C:\Users\skipi\AppData\Local\Temp\cc6PZCfi.s 			page 15


  58:../libs/DaisySP/Source/Synthesis/oscillator.h ****         phase_inc_ = CalcPhaseInc(freq_);
  59:../libs/DaisySP/Source/Synthesis/oscillator.h ****         waveform_  = WAVE_SIN;
  60:../libs/DaisySP/Source/Synthesis/oscillator.h ****         eoc_       = true;
  61:../libs/DaisySP/Source/Synthesis/oscillator.h ****         eor_       = true;
  62:../libs/DaisySP/Source/Synthesis/oscillator.h ****     }
  63:../libs/DaisySP/Source/Synthesis/oscillator.h **** 
  64:../libs/DaisySP/Source/Synthesis/oscillator.h **** 
  65:../libs/DaisySP/Source/Synthesis/oscillator.h ****     /** Changes the frequency of the Oscillator, and recalculates phase increment.
  66:../libs/DaisySP/Source/Synthesis/oscillator.h ****     */
  67:../libs/DaisySP/Source/Synthesis/oscillator.h ****     inline void SetFreq(const float f)
 210              		.loc 8 67 17 is_stmt 1 discriminator 2 view .LVU26
 211              	.LBB485:
  68:../libs/DaisySP/Source/Synthesis/oscillator.h ****     {
  69:../libs/DaisySP/Source/Synthesis/oscillator.h ****         freq_      = f;
 212              		.loc 8 69 9 discriminator 2 view .LVU27
 213              		.loc 8 69 20 is_stmt 0 discriminator 2 view .LVU28
 214 0034 BE4B     		ldr	r3, .L14+20
  70:../libs/DaisySP/Source/Synthesis/oscillator.h ****         phase_inc_ = CalcPhaseInc(f);
 215              		.loc 8 70 34 discriminator 2 view .LVU29
 216 0036 1846     		mov	r0, r3
  69:../libs/DaisySP/Source/Synthesis/oscillator.h ****         phase_inc_ = CalcPhaseInc(f);
 217              		.loc 8 69 20 discriminator 2 view .LVU30
 218 0038 83ED020A 		vstr.32	s0, [r3, #8]
 219              		.loc 8 70 9 is_stmt 1 discriminator 2 view .LVU31
 220              		.loc 8 70 34 is_stmt 0 discriminator 2 view .LVU32
 221 003c FFF7FEFF 		bl	_ZN7daisysp10Oscillator12CalcPhaseIncEf
 222              	.LVL9:
 223              		.loc 8 70 20 discriminator 2 view .LVU33
 224 0040 BB4B     		ldr	r3, .L14+20
 225 0042 83ED070A 		vstr.32	s0, [r3, #28]
 226              	.LVL10:
 227              		.loc 8 70 20 discriminator 2 view .LVU34
 228              	.LBE485:
 229              	.LBE484:
  86:src/PianoB.cpp ****     lfo_Pluck2.SetFreq(now_f_lfo_Pluck2);
 230              		.loc 10 86 5 is_stmt 1 discriminator 2 view .LVU35
 231              		.loc 10 86 23 is_stmt 0 discriminator 2 view .LVU36
 232 0046 BB4B     		ldr	r3, .L14+24
 233 0048 93ED000A 		vldr.32	s0, [r3]
 234              	.LVL11:
 235              	.LBB486:
 236              	.LBI486:
  67:../libs/DaisySP/Source/Synthesis/oscillator.h ****     {
 237              		.loc 8 67 17 is_stmt 1 discriminator 2 view .LVU37
 238              	.LBB487:
  69:../libs/DaisySP/Source/Synthesis/oscillator.h ****         phase_inc_ = CalcPhaseInc(f);
 239              		.loc 8 69 9 discriminator 2 view .LVU38
  69:../libs/DaisySP/Source/Synthesis/oscillator.h ****         phase_inc_ = CalcPhaseInc(f);
 240              		.loc 8 69 20 is_stmt 0 discriminator 2 view .LVU39
 241 004c BA4B     		ldr	r3, .L14+28
 242              		.loc 8 70 34 discriminator 2 view .LVU40
 243 004e 1846     		mov	r0, r3
  69:../libs/DaisySP/Source/Synthesis/oscillator.h ****         phase_inc_ = CalcPhaseInc(f);
 244              		.loc 8 69 20 discriminator 2 view .LVU41
 245 0050 83ED020A 		vstr.32	s0, [r3, #8]
 246              		.loc 8 70 9 is_stmt 1 discriminator 2 view .LVU42
 247              		.loc 8 70 34 is_stmt 0 discriminator 2 view .LVU43
ARM GAS  C:\Users\skipi\AppData\Local\Temp\cc6PZCfi.s 			page 16


 248 0054 FFF7FEFF 		bl	_ZN7daisysp10Oscillator12CalcPhaseIncEf
 249              	.LVL12:
 250              		.loc 8 70 20 discriminator 2 view .LVU44
 251 0058 B74B     		ldr	r3, .L14+28
 252 005a 83ED070A 		vstr.32	s0, [r3, #28]
 253              	.LVL13:
 254              		.loc 8 70 20 discriminator 2 view .LVU45
 255              	.LBE487:
 256              	.LBE486:
  87:src/PianoB.cpp ****     lfo_Pluck3.SetFreq(now_f_lfo_Pluck3);
 257              		.loc 10 87 5 is_stmt 1 discriminator 2 view .LVU46
 258              		.loc 10 87 23 is_stmt 0 discriminator 2 view .LVU47
 259 005e B74B     		ldr	r3, .L14+32
 260 0060 93ED000A 		vldr.32	s0, [r3]
 261              	.LVL14:
 262              	.LBB488:
 263              	.LBI488:
  67:../libs/DaisySP/Source/Synthesis/oscillator.h ****     {
 264              		.loc 8 67 17 is_stmt 1 discriminator 2 view .LVU48
 265              	.LBB489:
  69:../libs/DaisySP/Source/Synthesis/oscillator.h ****         phase_inc_ = CalcPhaseInc(f);
 266              		.loc 8 69 9 discriminator 2 view .LVU49
  69:../libs/DaisySP/Source/Synthesis/oscillator.h ****         phase_inc_ = CalcPhaseInc(f);
 267              		.loc 8 69 20 is_stmt 0 discriminator 2 view .LVU50
 268 0064 B64B     		ldr	r3, .L14+36
 269              		.loc 8 70 34 discriminator 2 view .LVU51
 270 0066 1846     		mov	r0, r3
  69:../libs/DaisySP/Source/Synthesis/oscillator.h ****         phase_inc_ = CalcPhaseInc(f);
 271              		.loc 8 69 20 discriminator 2 view .LVU52
 272 0068 83ED020A 		vstr.32	s0, [r3, #8]
 273              		.loc 8 70 9 is_stmt 1 discriminator 2 view .LVU53
 274              		.loc 8 70 34 is_stmt 0 discriminator 2 view .LVU54
 275 006c FFF7FEFF 		bl	_ZN7daisysp10Oscillator12CalcPhaseIncEf
 276              	.LVL15:
 277              		.loc 8 70 20 discriminator 2 view .LVU55
 278 0070 B34B     		ldr	r3, .L14+36
 279 0072 83ED070A 		vstr.32	s0, [r3, #28]
 280              	.LVL16:
 281              		.loc 8 70 20 discriminator 2 view .LVU56
 282              	.LBE489:
 283              	.LBE488:
  88:src/PianoB.cpp ****     lfo_Pluck4.SetFreq(now_f_lfo_Pluck4);
 284              		.loc 10 88 5 is_stmt 1 discriminator 2 view .LVU57
 285              		.loc 10 88 23 is_stmt 0 discriminator 2 view .LVU58
 286 0076 B34B     		ldr	r3, .L14+40
 287 0078 93ED000A 		vldr.32	s0, [r3]
 288              	.LVL17:
 289              	.LBB490:
 290              	.LBI490:
  67:../libs/DaisySP/Source/Synthesis/oscillator.h ****     {
 291              		.loc 8 67 17 is_stmt 1 discriminator 2 view .LVU59
 292              	.LBB491:
  69:../libs/DaisySP/Source/Synthesis/oscillator.h ****         phase_inc_ = CalcPhaseInc(f);
 293              		.loc 8 69 9 discriminator 2 view .LVU60
  69:../libs/DaisySP/Source/Synthesis/oscillator.h ****         phase_inc_ = CalcPhaseInc(f);
 294              		.loc 8 69 20 is_stmt 0 discriminator 2 view .LVU61
 295 007c B24B     		ldr	r3, .L14+44
ARM GAS  C:\Users\skipi\AppData\Local\Temp\cc6PZCfi.s 			page 17


 296              		.loc 8 70 34 discriminator 2 view .LVU62
 297 007e 1846     		mov	r0, r3
  69:../libs/DaisySP/Source/Synthesis/oscillator.h ****         phase_inc_ = CalcPhaseInc(f);
 298              		.loc 8 69 20 discriminator 2 view .LVU63
 299 0080 83ED020A 		vstr.32	s0, [r3, #8]
 300              		.loc 8 70 9 is_stmt 1 discriminator 2 view .LVU64
 301              		.loc 8 70 34 is_stmt 0 discriminator 2 view .LVU65
 302 0084 FFF7FEFF 		bl	_ZN7daisysp10Oscillator12CalcPhaseIncEf
 303              	.LVL18:
 304              		.loc 8 70 20 discriminator 2 view .LVU66
 305 0088 AF4B     		ldr	r3, .L14+44
 306 008a 83ED070A 		vstr.32	s0, [r3, #28]
 307              	.LVL19:
 308              		.loc 8 70 20 discriminator 2 view .LVU67
 309              	.LBE491:
 310              	.LBE490:
  89:src/PianoB.cpp ****     lfo_Bass1.SetFreq(now_f_lfo_Bass1);
 311              		.loc 10 89 5 is_stmt 1 discriminator 2 view .LVU68
 312              		.loc 10 89 22 is_stmt 0 discriminator 2 view .LVU69
 313 008e AF4B     		ldr	r3, .L14+48
 314 0090 93ED000A 		vldr.32	s0, [r3]
 315              	.LVL20:
 316              	.LBB492:
 317              	.LBI492:
  67:../libs/DaisySP/Source/Synthesis/oscillator.h ****     {
 318              		.loc 8 67 17 is_stmt 1 discriminator 2 view .LVU70
 319              	.LBB493:
  69:../libs/DaisySP/Source/Synthesis/oscillator.h ****         phase_inc_ = CalcPhaseInc(f);
 320              		.loc 8 69 9 discriminator 2 view .LVU71
  69:../libs/DaisySP/Source/Synthesis/oscillator.h ****         phase_inc_ = CalcPhaseInc(f);
 321              		.loc 8 69 20 is_stmt 0 discriminator 2 view .LVU72
 322 0094 AE4B     		ldr	r3, .L14+52
 323              		.loc 8 70 34 discriminator 2 view .LVU73
 324 0096 1846     		mov	r0, r3
  69:../libs/DaisySP/Source/Synthesis/oscillator.h ****         phase_inc_ = CalcPhaseInc(f);
 325              		.loc 8 69 20 discriminator 2 view .LVU74
 326 0098 83ED020A 		vstr.32	s0, [r3, #8]
 327              		.loc 8 70 9 is_stmt 1 discriminator 2 view .LVU75
 328              		.loc 8 70 34 is_stmt 0 discriminator 2 view .LVU76
 329 009c FFF7FEFF 		bl	_ZN7daisysp10Oscillator12CalcPhaseIncEf
 330              	.LVL21:
 331              		.loc 8 70 20 discriminator 2 view .LVU77
 332 00a0 AB4B     		ldr	r3, .L14+52
 333 00a2 83ED070A 		vstr.32	s0, [r3, #28]
 334              	.LVL22:
 335              		.loc 8 70 20 discriminator 2 view .LVU78
 336              	.LBE493:
 337              	.LBE492:
  90:src/PianoB.cpp ****     lfo_Bass2.SetFreq(now_f_lfo_Bass2);
 338              		.loc 10 90 5 is_stmt 1 discriminator 2 view .LVU79
 339              		.loc 10 90 22 is_stmt 0 discriminator 2 view .LVU80
 340 00a6 AB4B     		ldr	r3, .L14+56
 341 00a8 93ED000A 		vldr.32	s0, [r3]
 342              	.LVL23:
 343              	.LBB494:
 344              	.LBI494:
  67:../libs/DaisySP/Source/Synthesis/oscillator.h ****     {
ARM GAS  C:\Users\skipi\AppData\Local\Temp\cc6PZCfi.s 			page 18


 345              		.loc 8 67 17 is_stmt 1 discriminator 2 view .LVU81
 346              	.LBB495:
  69:../libs/DaisySP/Source/Synthesis/oscillator.h ****         phase_inc_ = CalcPhaseInc(f);
 347              		.loc 8 69 9 discriminator 2 view .LVU82
  69:../libs/DaisySP/Source/Synthesis/oscillator.h ****         phase_inc_ = CalcPhaseInc(f);
 348              		.loc 8 69 20 is_stmt 0 discriminator 2 view .LVU83
 349 00ac AA4B     		ldr	r3, .L14+60
 350              		.loc 8 70 34 discriminator 2 view .LVU84
 351 00ae 1846     		mov	r0, r3
  69:../libs/DaisySP/Source/Synthesis/oscillator.h ****         phase_inc_ = CalcPhaseInc(f);
 352              		.loc 8 69 20 discriminator 2 view .LVU85
 353 00b0 83ED020A 		vstr.32	s0, [r3, #8]
 354              		.loc 8 70 9 is_stmt 1 discriminator 2 view .LVU86
 355              		.loc 8 70 34 is_stmt 0 discriminator 2 view .LVU87
 356 00b4 FFF7FEFF 		bl	_ZN7daisysp10Oscillator12CalcPhaseIncEf
 357              	.LVL24:
 358              		.loc 8 70 20 discriminator 2 view .LVU88
 359 00b8 A74B     		ldr	r3, .L14+60
 360 00ba 83ED070A 		vstr.32	s0, [r3, #28]
 361              	.LVL25:
 362              		.loc 8 70 20 discriminator 2 view .LVU89
 363              	.LBE495:
 364              	.LBE494:
  91:src/PianoB.cpp ****     lfo_Pad1.SetFreq(now_f_lfo_Pad1);
 365              		.loc 10 91 5 is_stmt 1 discriminator 2 view .LVU90
 366              		.loc 10 91 21 is_stmt 0 discriminator 2 view .LVU91
 367 00be A74B     		ldr	r3, .L14+64
 368 00c0 93ED000A 		vldr.32	s0, [r3]
 369              	.LVL26:
 370              	.LBB496:
 371              	.LBI496:
  67:../libs/DaisySP/Source/Synthesis/oscillator.h ****     {
 372              		.loc 8 67 17 is_stmt 1 discriminator 2 view .LVU92
 373              	.LBB497:
  69:../libs/DaisySP/Source/Synthesis/oscillator.h ****         phase_inc_ = CalcPhaseInc(f);
 374              		.loc 8 69 9 discriminator 2 view .LVU93
  69:../libs/DaisySP/Source/Synthesis/oscillator.h ****         phase_inc_ = CalcPhaseInc(f);
 375              		.loc 8 69 20 is_stmt 0 discriminator 2 view .LVU94
 376 00c4 A64B     		ldr	r3, .L14+68
 377              		.loc 8 70 34 discriminator 2 view .LVU95
 378 00c6 1846     		mov	r0, r3
  69:../libs/DaisySP/Source/Synthesis/oscillator.h ****         phase_inc_ = CalcPhaseInc(f);
 379              		.loc 8 69 20 discriminator 2 view .LVU96
 380 00c8 83ED020A 		vstr.32	s0, [r3, #8]
 381              		.loc 8 70 9 is_stmt 1 discriminator 2 view .LVU97
 382              		.loc 8 70 34 is_stmt 0 discriminator 2 view .LVU98
 383 00cc FFF7FEFF 		bl	_ZN7daisysp10Oscillator12CalcPhaseIncEf
 384              	.LVL27:
 385              		.loc 8 70 20 discriminator 2 view .LVU99
 386 00d0 A34B     		ldr	r3, .L14+68
 387 00d2 83ED070A 		vstr.32	s0, [r3, #28]
 388              	.LVL28:
 389              		.loc 8 70 20 discriminator 2 view .LVU100
 390              	.LBE497:
 391              	.LBE496:
  92:src/PianoB.cpp ****     lfo_Pad2.SetFreq(now_f_lfo_Pad2);
 392              		.loc 10 92 5 is_stmt 1 discriminator 2 view .LVU101
ARM GAS  C:\Users\skipi\AppData\Local\Temp\cc6PZCfi.s 			page 19


 393              		.loc 10 92 21 is_stmt 0 discriminator 2 view .LVU102
 394 00d6 A34B     		ldr	r3, .L14+72
 395 00d8 93ED000A 		vldr.32	s0, [r3]
 396              	.LVL29:
 397              	.LBB498:
 398              	.LBI498:
  67:../libs/DaisySP/Source/Synthesis/oscillator.h ****     {
 399              		.loc 8 67 17 is_stmt 1 discriminator 2 view .LVU103
 400              	.LBB499:
  69:../libs/DaisySP/Source/Synthesis/oscillator.h ****         phase_inc_ = CalcPhaseInc(f);
 401              		.loc 8 69 9 discriminator 2 view .LVU104
  69:../libs/DaisySP/Source/Synthesis/oscillator.h ****         phase_inc_ = CalcPhaseInc(f);
 402              		.loc 8 69 20 is_stmt 0 discriminator 2 view .LVU105
 403 00dc A24B     		ldr	r3, .L14+76
 404              		.loc 8 70 34 discriminator 2 view .LVU106
 405 00de 1846     		mov	r0, r3
  69:../libs/DaisySP/Source/Synthesis/oscillator.h ****         phase_inc_ = CalcPhaseInc(f);
 406              		.loc 8 69 20 discriminator 2 view .LVU107
 407 00e0 83ED020A 		vstr.32	s0, [r3, #8]
 408              		.loc 8 70 9 is_stmt 1 discriminator 2 view .LVU108
 409              		.loc 8 70 34 is_stmt 0 discriminator 2 view .LVU109
 410 00e4 FFF7FEFF 		bl	_ZN7daisysp10Oscillator12CalcPhaseIncEf
 411              	.LVL30:
 412              		.loc 8 70 20 discriminator 2 view .LVU110
 413 00e8 9F4B     		ldr	r3, .L14+76
 414              	.LBE499:
 415              	.LBE498:
  93:src/PianoB.cpp **** 
  94:src/PianoB.cpp **** 
  95:src/PianoB.cpp ****     shape_Pluck1 = lfo_Pluck1.Process();       
 416              		.loc 10 95 38 discriminator 2 view .LVU111
 417 00ea 9148     		ldr	r0, .L14+20
 418              	.LBB501:
 419              	.LBB500:
 420              		.loc 8 70 20 discriminator 2 view .LVU112
 421 00ec 83ED070A 		vstr.32	s0, [r3, #28]
 422              	.LVL31:
 423              		.loc 8 70 20 discriminator 2 view .LVU113
 424              	.LBE500:
 425              	.LBE501:
 426              		.loc 10 95 5 is_stmt 1 discriminator 2 view .LVU114
 427              		.loc 10 95 38 is_stmt 0 discriminator 2 view .LVU115
 428 00f0 FFF7FEFF 		bl	_ZN7daisysp10Oscillator7ProcessEv
 429              	.LVL32:
 430              		.loc 10 95 18 discriminator 2 view .LVU116
 431 00f4 9D4B     		ldr	r3, .L14+80
  96:src/PianoB.cpp ****     shape_Pluck2 = lfo_Pluck2.Process();
 432              		.loc 10 96 38 discriminator 2 view .LVU117
 433 00f6 9048     		ldr	r0, .L14+28
  95:src/PianoB.cpp ****     shape_Pluck2 = lfo_Pluck2.Process();
 434              		.loc 10 95 18 discriminator 2 view .LVU118
 435 00f8 83ED000A 		vstr.32	s0, [r3]
 436              		.loc 10 96 5 is_stmt 1 discriminator 2 view .LVU119
 437              		.loc 10 96 38 is_stmt 0 discriminator 2 view .LVU120
 438 00fc FFF7FEFF 		bl	_ZN7daisysp10Oscillator7ProcessEv
 439              	.LVL33:
 440              		.loc 10 96 18 discriminator 2 view .LVU121
ARM GAS  C:\Users\skipi\AppData\Local\Temp\cc6PZCfi.s 			page 20


 441 0100 9B4A     		ldr	r2, .L14+84
  97:src/PianoB.cpp ****     shape_Pluck3 = lfo_Pluck3.Process();
 442              		.loc 10 97 38 discriminator 2 view .LVU122
 443 0102 8F48     		ldr	r0, .L14+36
  96:src/PianoB.cpp ****     shape_Pluck2 = lfo_Pluck2.Process();
 444              		.loc 10 96 18 discriminator 2 view .LVU123
 445 0104 82ED000A 		vstr.32	s0, [r2]
 446              		.loc 10 97 5 is_stmt 1 discriminator 2 view .LVU124
 447              		.loc 10 97 38 is_stmt 0 discriminator 2 view .LVU125
 448 0108 FFF7FEFF 		bl	_ZN7daisysp10Oscillator7ProcessEv
 449              	.LVL34:
 450              		.loc 10 97 18 discriminator 2 view .LVU126
 451 010c 9949     		ldr	r1, .L14+88
  98:src/PianoB.cpp ****     shape_Pluck4 = lfo_Pluck4.Process();
 452              		.loc 10 98 38 discriminator 2 view .LVU127
 453 010e 8E48     		ldr	r0, .L14+44
  97:src/PianoB.cpp ****     shape_Pluck3 = lfo_Pluck3.Process();
 454              		.loc 10 97 18 discriminator 2 view .LVU128
 455 0110 81ED000A 		vstr.32	s0, [r1]
 456              		.loc 10 98 5 is_stmt 1 discriminator 2 view .LVU129
 457              		.loc 10 98 38 is_stmt 0 discriminator 2 view .LVU130
 458 0114 FFF7FEFF 		bl	_ZN7daisysp10Oscillator7ProcessEv
 459              	.LVL35:
 460              		.loc 10 98 18 discriminator 2 view .LVU131
 461 0118 9748     		ldr	r0, .L14+92
 462 011a 80ED000A 		vstr.32	s0, [r0]
  99:src/PianoB.cpp ****     shape_Bass1 = lfo_Bass1.Process();
 463              		.loc 10 99 5 is_stmt 1 discriminator 2 view .LVU132
 464              		.loc 10 99 36 is_stmt 0 discriminator 2 view .LVU133
 465 011e 8C48     		ldr	r0, .L14+52
 466 0120 FFF7FEFF 		bl	_ZN7daisysp10Oscillator7ProcessEv
 467              	.LVL36:
 468              		.loc 10 99 17 discriminator 2 view .LVU134
 469 0124 954B     		ldr	r3, .L14+96
 100:src/PianoB.cpp ****     shape_Bass2 = lfo_Bass2.Process();
 470              		.loc 10 100 36 discriminator 2 view .LVU135
 471 0126 8C48     		ldr	r0, .L14+60
  99:src/PianoB.cpp ****     shape_Bass1 = lfo_Bass1.Process();
 472              		.loc 10 99 17 discriminator 2 view .LVU136
 473 0128 83ED000A 		vstr.32	s0, [r3]
 474              		.loc 10 100 5 is_stmt 1 discriminator 2 view .LVU137
 475              		.loc 10 100 36 is_stmt 0 discriminator 2 view .LVU138
 476 012c FFF7FEFF 		bl	_ZN7daisysp10Oscillator7ProcessEv
 477              	.LVL37:
 478              		.loc 10 100 17 discriminator 2 view .LVU139
 479 0130 934A     		ldr	r2, .L14+100
 101:src/PianoB.cpp ****     shape_Pad1 = lfo_Pad1.Process();
 480              		.loc 10 101 34 discriminator 2 view .LVU140
 481 0132 8B48     		ldr	r0, .L14+68
 100:src/PianoB.cpp ****     shape_Bass2 = lfo_Bass2.Process();
 482              		.loc 10 100 17 discriminator 2 view .LVU141
 483 0134 82ED000A 		vstr.32	s0, [r2]
 484              		.loc 10 101 5 is_stmt 1 discriminator 2 view .LVU142
 485              		.loc 10 101 34 is_stmt 0 discriminator 2 view .LVU143
 486 0138 FFF7FEFF 		bl	_ZN7daisysp10Oscillator7ProcessEv
 487              	.LVL38:
 488              		.loc 10 101 16 discriminator 2 view .LVU144
ARM GAS  C:\Users\skipi\AppData\Local\Temp\cc6PZCfi.s 			page 21


 489 013c 9149     		ldr	r1, .L14+104
 102:src/PianoB.cpp ****     shape_Pad2 = lfo_Pad2.Process();
 490              		.loc 10 102 34 discriminator 2 view .LVU145
 491 013e 8A48     		ldr	r0, .L14+76
 101:src/PianoB.cpp ****     shape_Pad1 = lfo_Pad1.Process();
 492              		.loc 10 101 16 discriminator 2 view .LVU146
 493 0140 81ED000A 		vstr.32	s0, [r1]
 494              		.loc 10 102 5 is_stmt 1 discriminator 2 view .LVU147
 495              		.loc 10 102 34 is_stmt 0 discriminator 2 view .LVU148
 496 0144 FFF7FEFF 		bl	_ZN7daisysp10Oscillator7ProcessEv
 497              	.LVL39:
 103:src/PianoB.cpp **** 
 104:src/PianoB.cpp ****                                 
 105:src/PianoB.cpp **** 
 106:src/PianoB.cpp ****     Pluck1.SetShape(shape_Pluck1);   
 498              		.loc 10 106 20 discriminator 2 view .LVU149
 499 0148 884B     		ldr	r3, .L14+80
 102:src/PianoB.cpp ****     shape_Pad2 = lfo_Pad2.Process();
 500              		.loc 10 102 16 discriminator 2 view .LVU150
 501 014a 8F48     		ldr	r0, .L14+108
 502 014c 80ED000A 		vstr.32	s0, [r0]
 503              		.loc 10 106 5 is_stmt 1 discriminator 2 view .LVU151
 504              		.loc 10 106 20 is_stmt 0 discriminator 2 view .LVU152
 505 0150 93ED000A 		vldr.32	s0, [r3]
 506 0154 8D48     		ldr	r0, .L14+112
 507 0156 FFF7FEFF 		bl	_ZN4Ramo8SetShapeEf
 508              	.LVL40:
 107:src/PianoB.cpp ****     Pluck2.SetShape(shape_Pluck2);
 509              		.loc 10 107 5 is_stmt 1 discriminator 2 view .LVU153
 510              		.loc 10 107 20 is_stmt 0 discriminator 2 view .LVU154
 511 015a 854A     		ldr	r2, .L14+84
 512 015c 8C48     		ldr	r0, .L14+116
 513 015e 92ED000A 		vldr.32	s0, [r2]
 514 0162 FFF7FEFF 		bl	_ZN4Ramo8SetShapeEf
 515              	.LVL41:
 108:src/PianoB.cpp ****     Pluck3.SetShape(shape_Pluck3);
 516              		.loc 10 108 5 is_stmt 1 discriminator 2 view .LVU155
 517              		.loc 10 108 20 is_stmt 0 discriminator 2 view .LVU156
 518 0166 8349     		ldr	r1, .L14+88
 519 0168 8A48     		ldr	r0, .L14+120
 520 016a 91ED000A 		vldr.32	s0, [r1]
 521 016e FFF7FEFF 		bl	_ZN4Ramo8SetShapeEf
 522              	.LVL42:
 109:src/PianoB.cpp ****     Pluck4.SetShape(shape_Pluck4);
 523              		.loc 10 109 5 is_stmt 1 discriminator 2 view .LVU157
 524              		.loc 10 109 20 is_stmt 0 discriminator 2 view .LVU158
 525 0172 8148     		ldr	r0, .L14+92
 526 0174 90ED000A 		vldr.32	s0, [r0]
 527 0178 8748     		ldr	r0, .L14+124
 528 017a FFF7FEFF 		bl	_ZN4Ramo8SetShapeEf
 529              	.LVL43:
 110:src/PianoB.cpp ****     Bass1.SetShape(shape_Bass1);
 530              		.loc 10 110 5 is_stmt 1 discriminator 2 view .LVU159
 531              		.loc 10 110 19 is_stmt 0 discriminator 2 view .LVU160
 532 017e 7F4B     		ldr	r3, .L14+96
 533 0180 8648     		ldr	r0, .L14+128
 534 0182 93ED000A 		vldr.32	s0, [r3]
ARM GAS  C:\Users\skipi\AppData\Local\Temp\cc6PZCfi.s 			page 22


 535 0186 FFF7FEFF 		bl	_ZN4Ramo8SetShapeEf
 536              	.LVL44:
 111:src/PianoB.cpp ****     Bass2.SetShape(shape_Bass2);
 537              		.loc 10 111 5 is_stmt 1 discriminator 2 view .LVU161
 538              		.loc 10 111 19 is_stmt 0 discriminator 2 view .LVU162
 539 018a 7D4A     		ldr	r2, .L14+100
 540 018c 8448     		ldr	r0, .L14+132
 541 018e 92ED000A 		vldr.32	s0, [r2]
 542 0192 FFF7FEFF 		bl	_ZN4Ramo8SetShapeEf
 543              	.LVL45:
 112:src/PianoB.cpp ****     Pad1.SetShape(shape_Pad1);
 544              		.loc 10 112 5 is_stmt 1 discriminator 2 view .LVU163
 545              		.loc 10 112 18 is_stmt 0 discriminator 2 view .LVU164
 546 0196 7B49     		ldr	r1, .L14+104
 547 0198 8248     		ldr	r0, .L14+136
 548 019a 91ED000A 		vldr.32	s0, [r1]
 549 019e FFF7FEFF 		bl	_ZN4Ramo8SetShapeEf
 550              	.LVL46:
 113:src/PianoB.cpp ****     Pad2.SetShape(shape_Pad2);
 551              		.loc 10 113 5 is_stmt 1 discriminator 2 view .LVU165
 552              		.loc 10 113 18 is_stmt 0 discriminator 2 view .LVU166
 553 01a2 7948     		ldr	r0, .L14+108
 554 01a4 90ED000A 		vldr.32	s0, [r0]
 555 01a8 7F48     		ldr	r0, .L14+140
 556 01aa FFF7FEFF 		bl	_ZN4Ramo8SetShapeEf
 557              	.LVL47:
 114:src/PianoB.cpp **** 
 115:src/PianoB.cpp ****                                     
 116:src/PianoB.cpp ****     
 117:src/PianoB.cpp **** //---------------------------------------------------------------Setta Freq
 118:src/PianoB.cpp ****     Pluck1.SetFreq(now_f_Pluck1);   
 558              		.loc 10 118 5 is_stmt 1 discriminator 2 view .LVU167
 559              		.loc 10 118 19 is_stmt 0 discriminator 2 view .LVU168
 560 01ae 7F4B     		ldr	r3, .L14+144
 561 01b0 7648     		ldr	r0, .L14+112
 562 01b2 93ED000A 		vldr.32	s0, [r3]
 563 01b6 FFF7FEFF 		bl	_ZN4Ramo7SetFreqEf
 564              	.LVL48:
 119:src/PianoB.cpp ****     Pluck2.SetFreq(now_f_Pluck2);
 565              		.loc 10 119 5 is_stmt 1 discriminator 2 view .LVU169
 566              		.loc 10 119 19 is_stmt 0 discriminator 2 view .LVU170
 567 01ba 7D4B     		ldr	r3, .L14+148
 568 01bc 7448     		ldr	r0, .L14+116
 569 01be 93ED000A 		vldr.32	s0, [r3]
 570 01c2 FFF7FEFF 		bl	_ZN4Ramo7SetFreqEf
 571              	.LVL49:
 120:src/PianoB.cpp ****     Pluck3.SetFreq(now_f_Pluck3);
 572              		.loc 10 120 5 is_stmt 1 discriminator 2 view .LVU171
 573              		.loc 10 120 19 is_stmt 0 discriminator 2 view .LVU172
 574 01c6 7B4B     		ldr	r3, .L14+152
 575 01c8 7248     		ldr	r0, .L14+120
 576 01ca 93ED000A 		vldr.32	s0, [r3]
 577 01ce FFF7FEFF 		bl	_ZN4Ramo7SetFreqEf
 578              	.LVL50:
 121:src/PianoB.cpp ****     Pluck4.SetFreq(now_f_Pluck4);
 579              		.loc 10 121 5 is_stmt 1 discriminator 2 view .LVU173
 580              		.loc 10 121 19 is_stmt 0 discriminator 2 view .LVU174
ARM GAS  C:\Users\skipi\AppData\Local\Temp\cc6PZCfi.s 			page 23


 581 01d2 794B     		ldr	r3, .L14+156
 582 01d4 7048     		ldr	r0, .L14+124
 583 01d6 93ED000A 		vldr.32	s0, [r3]
 584 01da FFF7FEFF 		bl	_ZN4Ramo7SetFreqEf
 585              	.LVL51:
 122:src/PianoB.cpp ****     Bass1.SetFreq(now_f_Bass1);
 586              		.loc 10 122 5 is_stmt 1 discriminator 2 view .LVU175
 587              		.loc 10 122 18 is_stmt 0 discriminator 2 view .LVU176
 588 01de 774B     		ldr	r3, .L14+160
 589 01e0 6E48     		ldr	r0, .L14+128
 590 01e2 93ED000A 		vldr.32	s0, [r3]
 591 01e6 FFF7FEFF 		bl	_ZN4Ramo7SetFreqEf
 592              	.LVL52:
 123:src/PianoB.cpp ****     Bass2.SetFreq(now_f_Bass2);
 593              		.loc 10 123 5 is_stmt 1 discriminator 2 view .LVU177
 594              		.loc 10 123 18 is_stmt 0 discriminator 2 view .LVU178
 595 01ea 754B     		ldr	r3, .L14+164
 596 01ec 6C48     		ldr	r0, .L14+132
 597 01ee 93ED000A 		vldr.32	s0, [r3]
 598 01f2 FFF7FEFF 		bl	_ZN4Ramo7SetFreqEf
 599              	.LVL53:
 124:src/PianoB.cpp ****     Pad1.SetFreq(now_f_Pad1);
 600              		.loc 10 124 5 is_stmt 1 discriminator 2 view .LVU179
 601              		.loc 10 124 17 is_stmt 0 discriminator 2 view .LVU180
 602 01f6 734B     		ldr	r3, .L14+168
 603 01f8 6A48     		ldr	r0, .L14+136
 604 01fa 93ED000A 		vldr.32	s0, [r3]
 605 01fe FFF7FEFF 		bl	_ZN4Ramo7SetFreqEf
 606              	.LVL54:
 125:src/PianoB.cpp ****     Pad2.SetFreq(now_f_Pad2);                                     
 607              		.loc 10 125 5 is_stmt 1 discriminator 2 view .LVU181
 608              		.loc 10 125 17 is_stmt 0 discriminator 2 view .LVU182
 609 0202 714B     		ldr	r3, .L14+172
 610 0204 6848     		ldr	r0, .L14+140
 611 0206 93ED000A 		vldr.32	s0, [r3]
 612 020a FFF7FEFF 		bl	_ZN4Ramo7SetFreqEf
 613              	.LVL55:
 126:src/PianoB.cpp ****                   
 127:src/PianoB.cpp **** 
 128:src/PianoB.cpp **** //-------------------------------------------------------------------------------------------------
 129:src/PianoB.cpp ****     amp_env_Pluck1 = AmpEnv_Pluck.Process(Gate[0]);  
 614              		.loc 10 129 5 is_stmt 1 discriminator 2 view .LVU183
 615              		.loc 10 129 42 is_stmt 0 discriminator 2 view .LVU184
 616 020e D4ED007A 		vldr.32	s15, [r4]
 617 0212 6E48     		ldr	r0, .L14+176
 618 0214 F5EE407A 		vcmp.f32	s15, #0
 619 0218 F1EE10FA 		vmrs	APSR_nzcv, FPSCR
 620 021c 14BF     		ite	ne
 621 021e 0121     		movne	r1, #1
 622 0220 0021     		moveq	r1, #0
 623 0222 FFF7FEFF 		bl	_ZN7daisysp4Adsr7ProcessEb
 624              	.LVL56:
 130:src/PianoB.cpp ****     amp_env_Pluck2 = AmpEnv_Pluck.Process(Gate[1]);
 625              		.loc 10 130 42 discriminator 2 view .LVU185
 626 0226 D4ED017A 		vldr.32	s15, [r4, #4]
 129:src/PianoB.cpp ****     amp_env_Pluck2 = AmpEnv_Pluck.Process(Gate[1]);
 627              		.loc 10 129 20 discriminator 2 view .LVU186
ARM GAS  C:\Users\skipi\AppData\Local\Temp\cc6PZCfi.s 			page 24


 628 022a 694B     		ldr	r3, .L14+180
 629              		.loc 10 130 42 discriminator 2 view .LVU187
 630 022c F5EE407A 		vcmp.f32	s15, #0
 631 0230 6648     		ldr	r0, .L14+176
 129:src/PianoB.cpp ****     amp_env_Pluck2 = AmpEnv_Pluck.Process(Gate[1]);
 632              		.loc 10 129 20 discriminator 2 view .LVU188
 633 0232 83ED000A 		vstr.32	s0, [r3]
 634              		.loc 10 130 5 is_stmt 1 discriminator 2 view .LVU189
 635              		.loc 10 130 42 is_stmt 0 discriminator 2 view .LVU190
 636 0236 F1EE10FA 		vmrs	APSR_nzcv, FPSCR
 637 023a 14BF     		ite	ne
 638 023c 0121     		movne	r1, #1
 639 023e 0021     		moveq	r1, #0
 640 0240 FFF7FEFF 		bl	_ZN7daisysp4Adsr7ProcessEb
 641              	.LVL57:
 131:src/PianoB.cpp ****     amp_env_Pluck3 = AmpEnv_Pluck.Process(Gate[2]);
 642              		.loc 10 131 42 discriminator 2 view .LVU191
 643 0244 D4ED027A 		vldr.32	s15, [r4, #8]
 130:src/PianoB.cpp ****     amp_env_Pluck2 = AmpEnv_Pluck.Process(Gate[1]);
 644              		.loc 10 130 20 discriminator 2 view .LVU192
 645 0248 624A     		ldr	r2, .L14+184
 646              		.loc 10 131 42 discriminator 2 view .LVU193
 647 024a F5EE407A 		vcmp.f32	s15, #0
 648 024e 5F48     		ldr	r0, .L14+176
 130:src/PianoB.cpp ****     amp_env_Pluck2 = AmpEnv_Pluck.Process(Gate[1]);
 649              		.loc 10 130 20 discriminator 2 view .LVU194
 650 0250 82ED000A 		vstr.32	s0, [r2]
 651              		.loc 10 131 5 is_stmt 1 discriminator 2 view .LVU195
 652              		.loc 10 131 42 is_stmt 0 discriminator 2 view .LVU196
 653 0254 F1EE10FA 		vmrs	APSR_nzcv, FPSCR
 654 0258 14BF     		ite	ne
 655 025a 0121     		movne	r1, #1
 656 025c 0021     		moveq	r1, #0
 657 025e FFF7FEFF 		bl	_ZN7daisysp4Adsr7ProcessEb
 658              	.LVL58:
 132:src/PianoB.cpp ****     amp_env_Pluck4 = AmpEnv_Pluck.Process(Gate[3]);
 659              		.loc 10 132 42 discriminator 2 view .LVU197
 660 0262 D4ED037A 		vldr.32	s15, [r4, #12]
 131:src/PianoB.cpp ****     amp_env_Pluck3 = AmpEnv_Pluck.Process(Gate[2]);
 661              		.loc 10 131 20 discriminator 2 view .LVU198
 662 0266 5C49     		ldr	r1, .L14+188
 663              		.loc 10 132 42 discriminator 2 view .LVU199
 664 0268 F5EE407A 		vcmp.f32	s15, #0
 665 026c 5748     		ldr	r0, .L14+176
 131:src/PianoB.cpp ****     amp_env_Pluck3 = AmpEnv_Pluck.Process(Gate[2]);
 666              		.loc 10 131 20 discriminator 2 view .LVU200
 667 026e 81ED000A 		vstr.32	s0, [r1]
 668              		.loc 10 132 5 is_stmt 1 discriminator 2 view .LVU201
 669              		.loc 10 132 42 is_stmt 0 discriminator 2 view .LVU202
 670 0272 F1EE10FA 		vmrs	APSR_nzcv, FPSCR
 671 0276 14BF     		ite	ne
 672 0278 0121     		movne	r1, #1
 673 027a 0021     		moveq	r1, #0
 674 027c FFF7FEFF 		bl	_ZN7daisysp4Adsr7ProcessEb
 675              	.LVL59:
 133:src/PianoB.cpp ****     amp_env_Pad1 = AmpEnv_Pad.Process(Gate[4]);
 676              		.loc 10 133 38 discriminator 2 view .LVU203
ARM GAS  C:\Users\skipi\AppData\Local\Temp\cc6PZCfi.s 			page 25


 677 0280 D4ED047A 		vldr.32	s15, [r4, #16]
 132:src/PianoB.cpp ****     amp_env_Pluck4 = AmpEnv_Pluck.Process(Gate[3]);
 678              		.loc 10 132 20 discriminator 2 view .LVU204
 679 0284 5548     		ldr	r0, .L14+192
 680              		.loc 10 133 38 discriminator 2 view .LVU205
 681 0286 F5EE407A 		vcmp.f32	s15, #0
 132:src/PianoB.cpp ****     amp_env_Pluck4 = AmpEnv_Pluck.Process(Gate[3]);
 682              		.loc 10 132 20 discriminator 2 view .LVU206
 683 028a 80ED000A 		vstr.32	s0, [r0]
 684              		.loc 10 133 5 is_stmt 1 discriminator 2 view .LVU207
 685              		.loc 10 133 38 is_stmt 0 discriminator 2 view .LVU208
 686 028e 5448     		ldr	r0, .L14+196
 687 0290 F1EE10FA 		vmrs	APSR_nzcv, FPSCR
 688 0294 14BF     		ite	ne
 689 0296 0121     		movne	r1, #1
 690 0298 0021     		moveq	r1, #0
 691 029a FFF7FEFF 		bl	_ZN7daisysp4Adsr7ProcessEb
 692              	.LVL60:
 134:src/PianoB.cpp ****     amp_env_Pad2 = AmpEnv_Pad.Process(Gate[5]);
 693              		.loc 10 134 38 discriminator 2 view .LVU209
 694 029e D4ED057A 		vldr.32	s15, [r4, #20]
 133:src/PianoB.cpp ****     amp_env_Pad1 = AmpEnv_Pad.Process(Gate[4]);
 695              		.loc 10 133 18 discriminator 2 view .LVU210
 696 02a2 504B     		ldr	r3, .L14+200
 697              		.loc 10 134 38 discriminator 2 view .LVU211
 698 02a4 F5EE407A 		vcmp.f32	s15, #0
 699 02a8 4D48     		ldr	r0, .L14+196
 133:src/PianoB.cpp ****     amp_env_Pad1 = AmpEnv_Pad.Process(Gate[4]);
 700              		.loc 10 133 18 discriminator 2 view .LVU212
 701 02aa 83ED000A 		vstr.32	s0, [r3]
 702              		.loc 10 134 5 is_stmt 1 discriminator 2 view .LVU213
 703              		.loc 10 134 38 is_stmt 0 discriminator 2 view .LVU214
 704 02ae F1EE10FA 		vmrs	APSR_nzcv, FPSCR
 705 02b2 14BF     		ite	ne
 706 02b4 0121     		movne	r1, #1
 707 02b6 0021     		moveq	r1, #0
 708 02b8 FFF7FEFF 		bl	_ZN7daisysp4Adsr7ProcessEb
 709              	.LVL61:
 135:src/PianoB.cpp ****     amp_env_Bass1 = AmpEnv_Bass.Process(Gate[6]);
 710              		.loc 10 135 40 discriminator 2 view .LVU215
 711 02bc D4ED067A 		vldr.32	s15, [r4, #24]
 134:src/PianoB.cpp ****     amp_env_Pad2 = AmpEnv_Pad.Process(Gate[5]);
 712              		.loc 10 134 18 discriminator 2 view .LVU216
 713 02c0 494A     		ldr	r2, .L14+204
 714              		.loc 10 135 40 discriminator 2 view .LVU217
 715 02c2 F5EE407A 		vcmp.f32	s15, #0
 716 02c6 4948     		ldr	r0, .L14+208
 134:src/PianoB.cpp ****     amp_env_Pad2 = AmpEnv_Pad.Process(Gate[5]);
 717              		.loc 10 134 18 discriminator 2 view .LVU218
 718 02c8 82ED000A 		vstr.32	s0, [r2]
 719              		.loc 10 135 5 is_stmt 1 discriminator 2 view .LVU219
 720              		.loc 10 135 40 is_stmt 0 discriminator 2 view .LVU220
 721 02cc F1EE10FA 		vmrs	APSR_nzcv, FPSCR
 722 02d0 14BF     		ite	ne
 723 02d2 0121     		movne	r1, #1
 724 02d4 0021     		moveq	r1, #0
 725 02d6 FFF7FEFF 		bl	_ZN7daisysp4Adsr7ProcessEb
ARM GAS  C:\Users\skipi\AppData\Local\Temp\cc6PZCfi.s 			page 26


 726              	.LVL62:
 136:src/PianoB.cpp ****     amp_env_Bass2 = AmpEnv_Bass.Process(Gate[7]);
 727              		.loc 10 136 40 discriminator 2 view .LVU221
 728 02da D4ED077A 		vldr.32	s15, [r4, #28]
 135:src/PianoB.cpp ****     amp_env_Bass1 = AmpEnv_Bass.Process(Gate[6]);
 729              		.loc 10 135 19 discriminator 2 view .LVU222
 730 02de 4449     		ldr	r1, .L14+212
 731              		.loc 10 136 40 discriminator 2 view .LVU223
 732 02e0 F5EE407A 		vcmp.f32	s15, #0
 733 02e4 4148     		ldr	r0, .L14+208
 135:src/PianoB.cpp ****     amp_env_Bass1 = AmpEnv_Bass.Process(Gate[6]);
 734              		.loc 10 135 19 discriminator 2 view .LVU224
 735 02e6 81ED000A 		vstr.32	s0, [r1]
 736              		.loc 10 136 5 is_stmt 1 discriminator 2 view .LVU225
 737              		.loc 10 136 40 is_stmt 0 discriminator 2 view .LVU226
 738 02ea F1EE10FA 		vmrs	APSR_nzcv, FPSCR
 739 02ee 14BF     		ite	ne
 740 02f0 0121     		movne	r1, #1
 741 02f2 0021     		moveq	r1, #0
 742 02f4 FFF7FEFF 		bl	_ZN7daisysp4Adsr7ProcessEb
 743              	.LVL63:
 137:src/PianoB.cpp ****                       
 138:src/PianoB.cpp **** 
 139:src/PianoB.cpp **** //-------------------------------------------------------------------------------------------------
 140:src/PianoB.cpp ****     filt_env_Pluck1 = FilterEnv_Pluck.Process(Gate[0]);  
 744              		.loc 10 140 46 discriminator 2 view .LVU227
 745 02f8 D4ED007A 		vldr.32	s15, [r4]
 136:src/PianoB.cpp ****     amp_env_Bass2 = AmpEnv_Bass.Process(Gate[7]);
 746              		.loc 10 136 19 discriminator 2 view .LVU228
 747 02fc 3D48     		ldr	r0, .L14+216
 748              		.loc 10 140 46 discriminator 2 view .LVU229
 749 02fe F5EE407A 		vcmp.f32	s15, #0
 136:src/PianoB.cpp ****     amp_env_Bass2 = AmpEnv_Bass.Process(Gate[7]);
 750              		.loc 10 136 19 discriminator 2 view .LVU230
 751 0302 80ED000A 		vstr.32	s0, [r0]
 752              		.loc 10 140 5 is_stmt 1 discriminator 2 view .LVU231
 753              		.loc 10 140 46 is_stmt 0 discriminator 2 view .LVU232
 754 0306 3C48     		ldr	r0, .L14+220
 755 0308 F1EE10FA 		vmrs	APSR_nzcv, FPSCR
 756 030c 14BF     		ite	ne
 757 030e 0121     		movne	r1, #1
 758 0310 0021     		moveq	r1, #0
 759 0312 FFF7FEFF 		bl	_ZN7daisysp4Adsr7ProcessEb
 760              	.LVL64:
 141:src/PianoB.cpp ****     filt_env_Pluck2 = FilterEnv_Pluck.Process(Gate[1]);
 761              		.loc 10 141 46 discriminator 2 view .LVU233
 762 0316 D4ED017A 		vldr.32	s15, [r4, #4]
 763 031a 77E0     		b	.L15
 764              	.L16:
 765              		.align	2
 766              	.L14:
 767 031c 00000000 		.word	.LANCHOR40
 768 0320 00000000 		.word	.LANCHOR63
 769 0324 00000000 		.word	.LANCHOR64
 770 0328 00000000 		.word	.LANCHOR74
 771 032c 00000000 		.word	.LANCHOR0
 772 0330 00000000 		.word	.LANCHOR1
ARM GAS  C:\Users\skipi\AppData\Local\Temp\cc6PZCfi.s 			page 27


 773 0334 00000000 		.word	.LANCHOR2
 774 0338 00000000 		.word	.LANCHOR3
 775 033c 00000000 		.word	.LANCHOR4
 776 0340 00000000 		.word	.LANCHOR5
 777 0344 00000000 		.word	.LANCHOR6
 778 0348 00000000 		.word	.LANCHOR7
 779 034c 00000000 		.word	.LANCHOR8
 780 0350 00000000 		.word	.LANCHOR9
 781 0354 00000000 		.word	.LANCHOR10
 782 0358 00000000 		.word	.LANCHOR11
 783 035c 00000000 		.word	.LANCHOR12
 784 0360 00000000 		.word	.LANCHOR13
 785 0364 00000000 		.word	.LANCHOR14
 786 0368 00000000 		.word	.LANCHOR15
 787 036c 00000000 		.word	.LANCHOR16
 788 0370 00000000 		.word	.LANCHOR17
 789 0374 00000000 		.word	.LANCHOR18
 790 0378 00000000 		.word	.LANCHOR19
 791 037c 00000000 		.word	.LANCHOR20
 792 0380 00000000 		.word	.LANCHOR21
 793 0384 00000000 		.word	.LANCHOR22
 794 0388 00000000 		.word	.LANCHOR23
 795 038c 00000000 		.word	.LANCHOR24
 796 0390 00000000 		.word	.LANCHOR25
 797 0394 00000000 		.word	.LANCHOR26
 798 0398 00000000 		.word	.LANCHOR27
 799 039c 00000000 		.word	.LANCHOR28
 800 03a0 00000000 		.word	.LANCHOR29
 801 03a4 00000000 		.word	.LANCHOR30
 802 03a8 00000000 		.word	.LANCHOR31
 803 03ac 00000000 		.word	.LANCHOR32
 804 03b0 00000000 		.word	.LANCHOR33
 805 03b4 00000000 		.word	.LANCHOR34
 806 03b8 00000000 		.word	.LANCHOR35
 807 03bc 00000000 		.word	.LANCHOR36
 808 03c0 00000000 		.word	.LANCHOR37
 809 03c4 00000000 		.word	.LANCHOR38
 810 03c8 00000000 		.word	.LANCHOR39
 811 03cc 00000000 		.word	.LANCHOR41
 812 03d0 00000000 		.word	.LANCHOR42
 813 03d4 00000000 		.word	.LANCHOR43
 814 03d8 00000000 		.word	.LANCHOR44
 815 03dc 00000000 		.word	.LANCHOR45
 816 03e0 00000000 		.word	.LANCHOR46
 817 03e4 00000000 		.word	.LANCHOR47
 818 03e8 00000000 		.word	.LANCHOR48
 819 03ec 00000000 		.word	.LANCHOR49
 820 03f0 00000000 		.word	.LANCHOR50
 821 03f4 00000000 		.word	.LANCHOR51
 822 03f8 00000000 		.word	.LANCHOR52
 823 03fc 00000000 		.word	.LANCHOR53
 824 0400 00000000 		.word	.LANCHOR69
 825 0404 00000000 		.word	.LANCHOR70
 826 0408 00000000 		.word	.LANCHOR73
 827              	.L15:
 828 040c C648     		ldr	r0, .L17
 829 040e F5EE407A 		vcmp.f32	s15, #0
ARM GAS  C:\Users\skipi\AppData\Local\Temp\cc6PZCfi.s 			page 28


 140:src/PianoB.cpp ****     filt_env_Pluck2 = FilterEnv_Pluck.Process(Gate[1]);
 830              		.loc 10 140 21 discriminator 2 view .LVU234
 831 0412 8BED000A 		vstr.32	s0, [fp]
 832              		.loc 10 141 5 is_stmt 1 discriminator 2 view .LVU235
 833              		.loc 10 141 46 is_stmt 0 discriminator 2 view .LVU236
 834 0416 F1EE10FA 		vmrs	APSR_nzcv, FPSCR
 835 041a 14BF     		ite	ne
 836 041c 0121     		movne	r1, #1
 837 041e 0021     		moveq	r1, #0
 838 0420 FFF7FEFF 		bl	_ZN7daisysp4Adsr7ProcessEb
 839              	.LVL65:
 142:src/PianoB.cpp ****     filt_env_Pluck3 = FilterEnv_Pluck.Process(Gate[2]);
 840              		.loc 10 142 46 discriminator 2 view .LVU237
 841 0424 D4ED027A 		vldr.32	s15, [r4, #8]
 141:src/PianoB.cpp ****     filt_env_Pluck2 = FilterEnv_Pluck.Process(Gate[1]);
 842              		.loc 10 141 21 discriminator 2 view .LVU238
 843 0428 C04B     		ldr	r3, .L17+4
 844              		.loc 10 142 46 discriminator 2 view .LVU239
 845 042a F5EE407A 		vcmp.f32	s15, #0
 846 042e BE48     		ldr	r0, .L17
 141:src/PianoB.cpp ****     filt_env_Pluck2 = FilterEnv_Pluck.Process(Gate[1]);
 847              		.loc 10 141 21 discriminator 2 view .LVU240
 848 0430 83ED000A 		vstr.32	s0, [r3]
 849              		.loc 10 142 5 is_stmt 1 discriminator 2 view .LVU241
 850              		.loc 10 142 46 is_stmt 0 discriminator 2 view .LVU242
 851 0434 F1EE10FA 		vmrs	APSR_nzcv, FPSCR
 852 0438 14BF     		ite	ne
 853 043a 0121     		movne	r1, #1
 854 043c 0021     		moveq	r1, #0
 855 043e FFF7FEFF 		bl	_ZN7daisysp4Adsr7ProcessEb
 856              	.LVL66:
 143:src/PianoB.cpp ****     filt_env_Pluck4 = FilterEnv_Pluck.Process(Gate[3]);
 857              		.loc 10 143 46 discriminator 2 view .LVU243
 858 0442 D4ED037A 		vldr.32	s15, [r4, #12]
 142:src/PianoB.cpp ****     filt_env_Pluck3 = FilterEnv_Pluck.Process(Gate[2]);
 859              		.loc 10 142 21 discriminator 2 view .LVU244
 860 0446 BA4A     		ldr	r2, .L17+8
 861              		.loc 10 143 46 discriminator 2 view .LVU245
 862 0448 F5EE407A 		vcmp.f32	s15, #0
 863 044c B648     		ldr	r0, .L17
 142:src/PianoB.cpp ****     filt_env_Pluck3 = FilterEnv_Pluck.Process(Gate[2]);
 864              		.loc 10 142 21 discriminator 2 view .LVU246
 865 044e 82ED000A 		vstr.32	s0, [r2]
 866              		.loc 10 143 5 is_stmt 1 discriminator 2 view .LVU247
 867              		.loc 10 143 46 is_stmt 0 discriminator 2 view .LVU248
 868 0452 F1EE10FA 		vmrs	APSR_nzcv, FPSCR
 869 0456 14BF     		ite	ne
 870 0458 0121     		movne	r1, #1
 871 045a 0021     		moveq	r1, #0
 872 045c FFF7FEFF 		bl	_ZN7daisysp4Adsr7ProcessEb
 873              	.LVL67:
 144:src/PianoB.cpp ****     filt_env_Pad1 = FilterEnv_Pad.Process(Gate[4]);
 874              		.loc 10 144 42 discriminator 2 view .LVU249
 875 0460 D4ED047A 		vldr.32	s15, [r4, #16]
 143:src/PianoB.cpp ****     filt_env_Pluck4 = FilterEnv_Pluck.Process(Gate[3]);
 876              		.loc 10 143 21 discriminator 2 view .LVU250
 877 0464 B349     		ldr	r1, .L17+12
ARM GAS  C:\Users\skipi\AppData\Local\Temp\cc6PZCfi.s 			page 29


 878              		.loc 10 144 42 discriminator 2 view .LVU251
 879 0466 F5EE407A 		vcmp.f32	s15, #0
 880 046a B348     		ldr	r0, .L17+16
 143:src/PianoB.cpp ****     filt_env_Pluck4 = FilterEnv_Pluck.Process(Gate[3]);
 881              		.loc 10 143 21 discriminator 2 view .LVU252
 882 046c 81ED000A 		vstr.32	s0, [r1]
 883              		.loc 10 144 5 is_stmt 1 discriminator 2 view .LVU253
 884              		.loc 10 144 42 is_stmt 0 discriminator 2 view .LVU254
 885 0470 F1EE10FA 		vmrs	APSR_nzcv, FPSCR
 886 0474 14BF     		ite	ne
 887 0476 0121     		movne	r1, #1
 888 0478 0021     		moveq	r1, #0
 889 047a FFF7FEFF 		bl	_ZN7daisysp4Adsr7ProcessEb
 890              	.LVL68:
 145:src/PianoB.cpp ****     filt_env_Pad2 = FilterEnv_Pad.Process(Gate[5]);
 891              		.loc 10 145 42 discriminator 2 view .LVU255
 892 047e D4ED057A 		vldr.32	s15, [r4, #20]
 144:src/PianoB.cpp ****     filt_env_Pad1 = FilterEnv_Pad.Process(Gate[4]);
 893              		.loc 10 144 19 discriminator 2 view .LVU256
 894 0482 AE48     		ldr	r0, .L17+20
 895              		.loc 10 145 42 discriminator 2 view .LVU257
 896 0484 F5EE407A 		vcmp.f32	s15, #0
 144:src/PianoB.cpp ****     filt_env_Pad1 = FilterEnv_Pad.Process(Gate[4]);
 897              		.loc 10 144 19 discriminator 2 view .LVU258
 898 0488 80ED000A 		vstr.32	s0, [r0]
 899              		.loc 10 145 5 is_stmt 1 discriminator 2 view .LVU259
 900              		.loc 10 145 42 is_stmt 0 discriminator 2 view .LVU260
 901 048c AA48     		ldr	r0, .L17+16
 902 048e F1EE10FA 		vmrs	APSR_nzcv, FPSCR
 903 0492 14BF     		ite	ne
 904 0494 0121     		movne	r1, #1
 905 0496 0021     		moveq	r1, #0
 906 0498 FFF7FEFF 		bl	_ZN7daisysp4Adsr7ProcessEb
 907              	.LVL69:
 146:src/PianoB.cpp ****     filt_env_Bass1 = FilterEnv_Bass.Process(Gate[6]);
 908              		.loc 10 146 44 discriminator 2 view .LVU261
 909 049c D4ED067A 		vldr.32	s15, [r4, #24]
 145:src/PianoB.cpp ****     filt_env_Pad2 = FilterEnv_Pad.Process(Gate[5]);
 910              		.loc 10 145 19 discriminator 2 view .LVU262
 911 04a0 A74B     		ldr	r3, .L17+24
 912              		.loc 10 146 44 discriminator 2 view .LVU263
 913 04a2 F5EE407A 		vcmp.f32	s15, #0
 914 04a6 A748     		ldr	r0, .L17+28
 145:src/PianoB.cpp ****     filt_env_Pad2 = FilterEnv_Pad.Process(Gate[5]);
 915              		.loc 10 145 19 discriminator 2 view .LVU264
 916 04a8 83ED000A 		vstr.32	s0, [r3]
 917              		.loc 10 146 5 is_stmt 1 discriminator 2 view .LVU265
 918              		.loc 10 146 44 is_stmt 0 discriminator 2 view .LVU266
 919 04ac F1EE10FA 		vmrs	APSR_nzcv, FPSCR
 920 04b0 14BF     		ite	ne
 921 04b2 0121     		movne	r1, #1
 922 04b4 0021     		moveq	r1, #0
 923 04b6 FFF7FEFF 		bl	_ZN7daisysp4Adsr7ProcessEb
 924              	.LVL70:
 147:src/PianoB.cpp ****     filt_env_Bass2 = FilterEnv_Bass.Process(Gate[7]);                               
 925              		.loc 10 147 44 discriminator 2 view .LVU267
 926 04ba D4ED077A 		vldr.32	s15, [r4, #28]
ARM GAS  C:\Users\skipi\AppData\Local\Temp\cc6PZCfi.s 			page 30


 146:src/PianoB.cpp ****     filt_env_Bass1 = FilterEnv_Bass.Process(Gate[6]);
 927              		.loc 10 146 20 discriminator 2 view .LVU268
 928 04be A24A     		ldr	r2, .L17+32
 929              		.loc 10 147 44 discriminator 2 view .LVU269
 930 04c0 F5EE407A 		vcmp.f32	s15, #0
 931 04c4 9F48     		ldr	r0, .L17+28
 146:src/PianoB.cpp ****     filt_env_Bass1 = FilterEnv_Bass.Process(Gate[6]);
 932              		.loc 10 146 20 discriminator 2 view .LVU270
 933 04c6 82ED000A 		vstr.32	s0, [r2]
 934              		.loc 10 147 5 is_stmt 1 discriminator 2 view .LVU271
 935              		.loc 10 147 44 is_stmt 0 discriminator 2 view .LVU272
 936 04ca F1EE10FA 		vmrs	APSR_nzcv, FPSCR
 937 04ce 14BF     		ite	ne
 938 04d0 0121     		movne	r1, #1
 939 04d2 0021     		moveq	r1, #0
 940 04d4 FFF7FEFF 		bl	_ZN7daisysp4Adsr7ProcessEb
 941              	.LVL71:
 942              		.loc 10 147 20 discriminator 2 view .LVU273
 943 04d8 9C49     		ldr	r1, .L17+36
 148:src/PianoB.cpp **** //-------------------------------------------------------------------------------------------------
 149:src/PianoB.cpp ****     filter_Pluck1.SetFreq(ft_pluck - filt_env_Pluck1*f_EG_pluck);
 944              		.loc 10 149 26 discriminator 2 view .LVU274
 945 04da 9BED007A 		vldr.32	s14, [fp]
 147:src/PianoB.cpp ****     filt_env_Bass2 = FilterEnv_Bass.Process(Gate[7]);                               
 946              		.loc 10 147 20 discriminator 2 view .LVU275
 947 04de 81ED000A 		vstr.32	s0, [r1]
 948              		.loc 10 149 5 is_stmt 1 discriminator 2 view .LVU276
 949              		.loc 10 149 26 is_stmt 0 discriminator 2 view .LVU277
 950 04e2 D6ED007A 		vldr.32	s15, [r6]
 951 04e6 95ED000A 		vldr.32	s0, [r5]
 952 04ea 9948     		ldr	r0, .L17+40
 953 04ec A7EE670A 		vfms.f32	s0, s14, s15
 954 04f0 FFF7FEFF 		bl	_ZN7daisysp3Svf7SetFreqEf
 955              	.LVL72:
 150:src/PianoB.cpp ****     filter_Pluck2.SetFreq(ft_pluck - filt_env_Pluck2*f_EG_pluck);
 956              		.loc 10 150 5 is_stmt 1 discriminator 2 view .LVU278
 957              		.loc 10 150 26 is_stmt 0 discriminator 2 view .LVU279
 958 04f4 8D4B     		ldr	r3, .L17+4
 959 04f6 D6ED007A 		vldr.32	s15, [r6]
 960 04fa 93ED007A 		vldr.32	s14, [r3]
 961 04fe 95ED000A 		vldr.32	s0, [r5]
 962 0502 9448     		ldr	r0, .L17+44
 963 0504 A7EE670A 		vfms.f32	s0, s14, s15
 964 0508 FFF7FEFF 		bl	_ZN7daisysp3Svf7SetFreqEf
 965              	.LVL73:
 151:src/PianoB.cpp ****     filter_Pluck3.SetFreq(ft_pluck - filt_env_Pluck3*f_EG_pluck);
 966              		.loc 10 151 5 is_stmt 1 discriminator 2 view .LVU280
 967              		.loc 10 151 26 is_stmt 0 discriminator 2 view .LVU281
 968 050c 884A     		ldr	r2, .L17+8
 969 050e D6ED007A 		vldr.32	s15, [r6]
 970 0512 92ED007A 		vldr.32	s14, [r2]
 971 0516 95ED000A 		vldr.32	s0, [r5]
 972 051a 8F48     		ldr	r0, .L17+48
 973 051c A7EE670A 		vfms.f32	s0, s14, s15
 974 0520 FFF7FEFF 		bl	_ZN7daisysp3Svf7SetFreqEf
 975              	.LVL74:
 152:src/PianoB.cpp ****     filter_Pluck4.SetFreq(ft_pluck - filt_env_Pluck4*f_EG_pluck);
ARM GAS  C:\Users\skipi\AppData\Local\Temp\cc6PZCfi.s 			page 31


 976              		.loc 10 152 5 is_stmt 1 discriminator 2 view .LVU282
 977              		.loc 10 152 26 is_stmt 0 discriminator 2 view .LVU283
 978 0524 8349     		ldr	r1, .L17+12
 979 0526 D6ED007A 		vldr.32	s15, [r6]
 980 052a 91ED007A 		vldr.32	s14, [r1]
 981 052e 95ED000A 		vldr.32	s0, [r5]
 982 0532 8A48     		ldr	r0, .L17+52
 983 0534 A7EE670A 		vfms.f32	s0, s14, s15
 984 0538 FFF7FEFF 		bl	_ZN7daisysp3Svf7SetFreqEf
 985              	.LVL75:
 153:src/PianoB.cpp ****     filter_Bass1.SetFreq(ft_bass + filt_env_Bass1*f_EG_bass);                            
 986              		.loc 10 153 5 is_stmt 1 discriminator 2 view .LVU284
 987              		.loc 10 153 25 is_stmt 0 discriminator 2 view .LVU285
 988 053c 824A     		ldr	r2, .L17+32
 989 053e DAED007A 		vldr.32	s15, [r10]
 990 0542 92ED007A 		vldr.32	s14, [r2]
 991 0546 99ED000A 		vldr.32	s0, [r9]
 992 054a 8548     		ldr	r0, .L17+56
 993 054c A7EE270A 		vfma.f32	s0, s14, s15
 994 0550 FFF7FEFF 		bl	_ZN7daisysp3Svf7SetFreqEf
 995              	.LVL76:
 154:src/PianoB.cpp ****     filter_Bass2.SetFreq(ft_bass + filt_env_Bass2*f_EG_bass);
 996              		.loc 10 154 5 is_stmt 1 discriminator 2 view .LVU286
 997              		.loc 10 154 25 is_stmt 0 discriminator 2 view .LVU287
 998 0554 7D49     		ldr	r1, .L17+36
 999 0556 DAED007A 		vldr.32	s15, [r10]
 1000 055a 91ED007A 		vldr.32	s14, [r1]
 1001 055e 99ED000A 		vldr.32	s0, [r9]
 1002 0562 8048     		ldr	r0, .L17+60
 1003 0564 A7EE270A 		vfma.f32	s0, s14, s15
 1004 0568 FFF7FEFF 		bl	_ZN7daisysp3Svf7SetFreqEf
 1005              	.LVL77:
 155:src/PianoB.cpp ****     filter_Pad1.SetFreq(ft_pad + filt_env_Pad1*f_EG_pad);
 1006              		.loc 10 155 5 is_stmt 1 discriminator 2 view .LVU288
 1007              		.loc 10 155 24 is_stmt 0 discriminator 2 view .LVU289
 1008 056c 7348     		ldr	r0, .L17+20
 1009 056e D8ED007A 		vldr.32	s15, [r8]
 1010 0572 90ED007A 		vldr.32	s14, [r0]
 1011 0576 97ED000A 		vldr.32	s0, [r7]
 1012 057a 7B48     		ldr	r0, .L17+64
 1013 057c A7EE270A 		vfma.f32	s0, s14, s15
 1014 0580 FFF7FEFF 		bl	_ZN7daisysp3Svf7SetFreqEf
 1015              	.LVL78:
 156:src/PianoB.cpp ****     filter_Pad2.SetFreq(ft_pad + filt_env_Pad2*f_EG_pad);                               
 1016              		.loc 10 156 5 is_stmt 1 discriminator 2 view .LVU290
 1017              		.loc 10 156 24 is_stmt 0 discriminator 2 view .LVU291
 1018 0584 6E4B     		ldr	r3, .L17+24
 1019 0586 D8ED007A 		vldr.32	s15, [r8]
 1020 058a 93ED007A 		vldr.32	s14, [r3]
 1021 058e 97ED000A 		vldr.32	s0, [r7]
 1022 0592 7648     		ldr	r0, .L17+68
 1023 0594 A7EE270A 		vfma.f32	s0, s14, s15
 1024 0598 FFF7FEFF 		bl	_ZN7daisysp3Svf7SetFreqEf
 1025              	.LVL79:
 157:src/PianoB.cpp **** //-------------------------------------------------------------------------------------------------
 158:src/PianoB.cpp ****     Pluck1.SetGain(amp_env_Pluck1); 
 1026              		.loc 10 158 5 is_stmt 1 discriminator 2 view .LVU292
ARM GAS  C:\Users\skipi\AppData\Local\Temp\cc6PZCfi.s 			page 32


 1027              		.loc 10 158 19 is_stmt 0 discriminator 2 view .LVU293
 1028 059c 744B     		ldr	r3, .L17+72
 1029 059e 7548     		ldr	r0, .L17+76
 1030 05a0 93ED000A 		vldr.32	s0, [r3]
 1031 05a4 FFF7FEFF 		bl	_ZN4Ramo7SetGainEf
 1032              	.LVL80:
 159:src/PianoB.cpp ****     Pluck2.SetGain(amp_env_Pluck2);
 1033              		.loc 10 159 5 is_stmt 1 discriminator 2 view .LVU294
 1034              		.loc 10 159 19 is_stmt 0 discriminator 2 view .LVU295
 1035 05a8 734A     		ldr	r2, .L17+80
 1036 05aa 7448     		ldr	r0, .L17+84
 1037 05ac 92ED000A 		vldr.32	s0, [r2]
 1038 05b0 FFF7FEFF 		bl	_ZN4Ramo7SetGainEf
 1039              	.LVL81:
 160:src/PianoB.cpp ****     Pluck3.SetGain(amp_env_Pluck3);
 1040              		.loc 10 160 5 is_stmt 1 discriminator 2 view .LVU296
 1041              		.loc 10 160 19 is_stmt 0 discriminator 2 view .LVU297
 1042 05b4 7249     		ldr	r1, .L17+88
 1043 05b6 7348     		ldr	r0, .L17+92
 1044 05b8 91ED000A 		vldr.32	s0, [r1]
 1045 05bc FFF7FEFF 		bl	_ZN4Ramo7SetGainEf
 1046              	.LVL82:
 161:src/PianoB.cpp ****     Pluck4.SetGain(amp_env_Pluck4);
 1047              		.loc 10 161 5 is_stmt 1 discriminator 2 view .LVU298
 1048              		.loc 10 161 19 is_stmt 0 discriminator 2 view .LVU299
 1049 05c0 7148     		ldr	r0, .L17+96
 1050 05c2 90ED000A 		vldr.32	s0, [r0]
 1051 05c6 7148     		ldr	r0, .L17+100
 1052 05c8 FFF7FEFF 		bl	_ZN4Ramo7SetGainEf
 1053              	.LVL83:
 162:src/PianoB.cpp ****     Bass1.SetGain(amp_env_Bass1);
 1054              		.loc 10 162 5 is_stmt 1 discriminator 2 view .LVU300
 1055              		.loc 10 162 18 is_stmt 0 discriminator 2 view .LVU301
 1056 05cc 7049     		ldr	r1, .L17+104
 1057 05ce 7148     		ldr	r0, .L17+108
 1058 05d0 91ED000A 		vldr.32	s0, [r1]
 1059 05d4 FFF7FEFF 		bl	_ZN4Ramo7SetGainEf
 1060              	.LVL84:
 163:src/PianoB.cpp ****     Bass2.SetGain(amp_env_Bass2);
 1061              		.loc 10 163 5 is_stmt 1 discriminator 2 view .LVU302
 1062              		.loc 10 163 18 is_stmt 0 discriminator 2 view .LVU303
 1063 05d8 6F48     		ldr	r0, .L17+112
 1064 05da 90ED000A 		vldr.32	s0, [r0]
 1065 05de 6F48     		ldr	r0, .L17+116
 1066 05e0 FFF7FEFF 		bl	_ZN4Ramo7SetGainEf
 1067              	.LVL85:
 164:src/PianoB.cpp ****     Pad1.SetGain(amp_env_Pad1);
 1068              		.loc 10 164 5 is_stmt 1 discriminator 2 view .LVU304
 1069              		.loc 10 164 17 is_stmt 0 discriminator 2 view .LVU305
 1070 05e4 6E4B     		ldr	r3, .L17+120
 1071 05e6 6F48     		ldr	r0, .L17+124
 1072 05e8 93ED000A 		vldr.32	s0, [r3]
 1073 05ec FFF7FEFF 		bl	_ZN4Ramo7SetGainEf
 1074              	.LVL86:
 165:src/PianoB.cpp ****     Pad2.SetGain(amp_env_Pad2);                                    
 1075              		.loc 10 165 5 is_stmt 1 discriminator 2 view .LVU306
 1076              		.loc 10 165 17 is_stmt 0 discriminator 2 view .LVU307
ARM GAS  C:\Users\skipi\AppData\Local\Temp\cc6PZCfi.s 			page 33


 1077 05f0 6D4A     		ldr	r2, .L17+128
 1078 05f2 6E48     		ldr	r0, .L17+132
 1079 05f4 92ED000A 		vldr.32	s0, [r2]
 1080 05f8 FFF7FEFF 		bl	_ZN4Ramo7SetGainEf
 1081              	.LVL87:
 166:src/PianoB.cpp ****                                      
 167:src/PianoB.cpp **** //-------------------------------------------------------------------------------------------------
 168:src/PianoB.cpp ****     Raw_Pluck1 = Pluck1.Process();
 1082              		.loc 10 168 5 is_stmt 1 discriminator 2 view .LVU308
 1083              		.loc 10 168 32 is_stmt 0 discriminator 2 view .LVU309
 1084 05fc 5D48     		ldr	r0, .L17+76
 1085 05fe FFF7FEFF 		bl	_ZN4Ramo7ProcessEv
 1086              	.LVL88:
 1087              		.loc 10 168 16 discriminator 2 view .LVU310
 1088 0602 6B4B     		ldr	r3, .L17+136
 169:src/PianoB.cpp ****     Raw_Pluck2 = Pluck2.Process();
 1089              		.loc 10 169 32 discriminator 2 view .LVU311
 1090 0604 5D48     		ldr	r0, .L17+84
 168:src/PianoB.cpp ****     Raw_Pluck2 = Pluck2.Process();
 1091              		.loc 10 168 16 discriminator 2 view .LVU312
 1092 0606 83ED000A 		vstr.32	s0, [r3]
 1093              		.loc 10 169 5 is_stmt 1 discriminator 2 view .LVU313
 1094              		.loc 10 169 32 is_stmt 0 discriminator 2 view .LVU314
 1095 060a FFF7FEFF 		bl	_ZN4Ramo7ProcessEv
 1096              	.LVL89:
 1097              		.loc 10 169 16 discriminator 2 view .LVU315
 1098 060e 694A     		ldr	r2, .L17+140
 170:src/PianoB.cpp ****     Raw_Pluck3 = Pluck3.Process();
 1099              		.loc 10 170 32 discriminator 2 view .LVU316
 1100 0610 5C48     		ldr	r0, .L17+92
 169:src/PianoB.cpp ****     Raw_Pluck2 = Pluck2.Process();
 1101              		.loc 10 169 16 discriminator 2 view .LVU317
 1102 0612 82ED000A 		vstr.32	s0, [r2]
 1103              		.loc 10 170 5 is_stmt 1 discriminator 2 view .LVU318
 1104              		.loc 10 170 32 is_stmt 0 discriminator 2 view .LVU319
 1105 0616 FFF7FEFF 		bl	_ZN4Ramo7ProcessEv
 1106              	.LVL90:
 1107              		.loc 10 170 16 discriminator 2 view .LVU320
 1108 061a 6749     		ldr	r1, .L17+144
 171:src/PianoB.cpp ****     Raw_Pluck4 = Pluck4.Process();
 1109              		.loc 10 171 32 discriminator 2 view .LVU321
 1110 061c 5B48     		ldr	r0, .L17+100
 170:src/PianoB.cpp ****     Raw_Pluck3 = Pluck3.Process();
 1111              		.loc 10 170 16 discriminator 2 view .LVU322
 1112 061e 81ED000A 		vstr.32	s0, [r1]
 1113              		.loc 10 171 5 is_stmt 1 discriminator 2 view .LVU323
 1114              		.loc 10 171 32 is_stmt 0 discriminator 2 view .LVU324
 1115 0622 FFF7FEFF 		bl	_ZN4Ramo7ProcessEv
 1116              	.LVL91:
 1117              		.loc 10 171 16 discriminator 2 view .LVU325
 1118 0626 6548     		ldr	r0, .L17+148
 1119 0628 80ED000A 		vstr.32	s0, [r0]
 172:src/PianoB.cpp ****     Raw_Bass1 = Bass1.Process();
 1120              		.loc 10 172 5 is_stmt 1 discriminator 2 view .LVU326
 1121              		.loc 10 172 30 is_stmt 0 discriminator 2 view .LVU327
 1122 062c 5948     		ldr	r0, .L17+108
 1123 062e FFF7FEFF 		bl	_ZN4Ramo7ProcessEv
ARM GAS  C:\Users\skipi\AppData\Local\Temp\cc6PZCfi.s 			page 34


 1124              	.LVL92:
 1125              		.loc 10 172 15 discriminator 2 view .LVU328
 1126 0632 634B     		ldr	r3, .L17+152
 173:src/PianoB.cpp ****     Raw_Bass2 = Bass2.Process();
 1127              		.loc 10 173 30 discriminator 2 view .LVU329
 1128 0634 5948     		ldr	r0, .L17+116
 172:src/PianoB.cpp ****     Raw_Bass1 = Bass1.Process();
 1129              		.loc 10 172 15 discriminator 2 view .LVU330
 1130 0636 83ED000A 		vstr.32	s0, [r3]
 1131              		.loc 10 173 5 is_stmt 1 discriminator 2 view .LVU331
 1132              		.loc 10 173 30 is_stmt 0 discriminator 2 view .LVU332
 1133 063a FFF7FEFF 		bl	_ZN4Ramo7ProcessEv
 1134              	.LVL93:
 1135              		.loc 10 173 15 discriminator 2 view .LVU333
 1136 063e 614A     		ldr	r2, .L17+156
 174:src/PianoB.cpp ****     Raw_Pad1 = Pad1.Process();
 1137              		.loc 10 174 28 discriminator 2 view .LVU334
 1138 0640 5848     		ldr	r0, .L17+124
 173:src/PianoB.cpp ****     Raw_Bass2 = Bass2.Process();
 1139              		.loc 10 173 15 discriminator 2 view .LVU335
 1140 0642 82ED000A 		vstr.32	s0, [r2]
 1141              		.loc 10 174 5 is_stmt 1 discriminator 2 view .LVU336
 1142              		.loc 10 174 28 is_stmt 0 discriminator 2 view .LVU337
 1143 0646 FFF7FEFF 		bl	_ZN4Ramo7ProcessEv
 1144              	.LVL94:
 1145              		.loc 10 174 14 discriminator 2 view .LVU338
 1146 064a 5F49     		ldr	r1, .L17+160
 175:src/PianoB.cpp ****     Raw_Pad2 = Pad2.Process();
 1147              		.loc 10 175 28 discriminator 2 view .LVU339
 1148 064c 5748     		ldr	r0, .L17+132
 174:src/PianoB.cpp ****     Raw_Pad1 = Pad1.Process();
 1149              		.loc 10 174 14 discriminator 2 view .LVU340
 1150 064e 81ED000A 		vstr.32	s0, [r1]
 1151              		.loc 10 175 5 is_stmt 1 discriminator 2 view .LVU341
 1152              		.loc 10 175 28 is_stmt 0 discriminator 2 view .LVU342
 1153 0652 FFF7FEFF 		bl	_ZN4Ramo7ProcessEv
 1154              	.LVL95:
 176:src/PianoB.cpp ****    
 177:src/PianoB.cpp **** //-------------------------------------------------------------------------------------------------
 178:src/PianoB.cpp ****     filter_Pluck1.Process(Raw_Pluck1);
 1155              		.loc 10 178 26 discriminator 2 view .LVU343
 1156 0656 564B     		ldr	r3, .L17+136
 175:src/PianoB.cpp ****     Raw_Pad2 = Pad2.Process();
 1157              		.loc 10 175 14 discriminator 2 view .LVU344
 1158 0658 5C48     		ldr	r0, .L17+164
 1159 065a 80ED000A 		vstr.32	s0, [r0]
 1160              		.loc 10 178 5 is_stmt 1 discriminator 2 view .LVU345
 1161              		.loc 10 178 26 is_stmt 0 discriminator 2 view .LVU346
 1162 065e 93ED000A 		vldr.32	s0, [r3]
 1163 0662 3B48     		ldr	r0, .L17+40
 1164 0664 FFF7FEFF 		bl	_ZN7daisysp3Svf7ProcessEf
 1165              	.LVL96:
 179:src/PianoB.cpp ****     filter_Pluck2.Process(Raw_Pluck2);
 1166              		.loc 10 179 5 is_stmt 1 discriminator 2 view .LVU347
 1167              		.loc 10 179 26 is_stmt 0 discriminator 2 view .LVU348
 1168 0668 524A     		ldr	r2, .L17+140
 1169 066a 3A48     		ldr	r0, .L17+44
ARM GAS  C:\Users\skipi\AppData\Local\Temp\cc6PZCfi.s 			page 35


 1170 066c 92ED000A 		vldr.32	s0, [r2]
 1171 0670 FFF7FEFF 		bl	_ZN7daisysp3Svf7ProcessEf
 1172              	.LVL97:
 180:src/PianoB.cpp ****     filter_Pluck3.Process(Raw_Pluck3);
 1173              		.loc 10 180 5 is_stmt 1 discriminator 2 view .LVU349
 1174              		.loc 10 180 26 is_stmt 0 discriminator 2 view .LVU350
 1175 0674 5049     		ldr	r1, .L17+144
 1176 0676 3848     		ldr	r0, .L17+48
 1177 0678 91ED000A 		vldr.32	s0, [r1]
 1178 067c FFF7FEFF 		bl	_ZN7daisysp3Svf7ProcessEf
 1179              	.LVL98:
 181:src/PianoB.cpp ****     filter_Pluck4.Process(Raw_Pluck4);
 1180              		.loc 10 181 5 is_stmt 1 discriminator 2 view .LVU351
 1181              		.loc 10 181 26 is_stmt 0 discriminator 2 view .LVU352
 1182 0680 4E48     		ldr	r0, .L17+148
 1183 0682 90ED000A 		vldr.32	s0, [r0]
 1184 0686 3548     		ldr	r0, .L17+52
 1185 0688 FFF7FEFF 		bl	_ZN7daisysp3Svf7ProcessEf
 1186              	.LVL99:
 182:src/PianoB.cpp ****     filter_Bass1.Process(Raw_Bass1);
 1187              		.loc 10 182 5 is_stmt 1 discriminator 2 view .LVU353
 1188              		.loc 10 182 25 is_stmt 0 discriminator 2 view .LVU354
 1189 068c 4C4B     		ldr	r3, .L17+152
 1190 068e 3448     		ldr	r0, .L17+56
 1191 0690 93ED000A 		vldr.32	s0, [r3]
 1192 0694 FFF7FEFF 		bl	_ZN7daisysp3Svf7ProcessEf
 1193              	.LVL100:
 183:src/PianoB.cpp ****     filter_Bass2.Process(Raw_Bass2);
 1194              		.loc 10 183 5 is_stmt 1 discriminator 2 view .LVU355
 1195              		.loc 10 183 25 is_stmt 0 discriminator 2 view .LVU356
 1196 0698 4A4A     		ldr	r2, .L17+156
 1197 069a 3248     		ldr	r0, .L17+60
 1198 069c 92ED000A 		vldr.32	s0, [r2]
 1199 06a0 FFF7FEFF 		bl	_ZN7daisysp3Svf7ProcessEf
 1200              	.LVL101:
 184:src/PianoB.cpp ****     filter_Pad1.Process(Raw_Pad1);
 1201              		.loc 10 184 5 is_stmt 1 discriminator 2 view .LVU357
 1202              		.loc 10 184 24 is_stmt 0 discriminator 2 view .LVU358
 1203 06a4 4849     		ldr	r1, .L17+160
 1204 06a6 3048     		ldr	r0, .L17+64
 1205 06a8 91ED000A 		vldr.32	s0, [r1]
 1206 06ac FFF7FEFF 		bl	_ZN7daisysp3Svf7ProcessEf
 1207              	.LVL102:
 185:src/PianoB.cpp ****     filter_Pad2.Process(Raw_Pad2);
 1208              		.loc 10 185 5 is_stmt 1 discriminator 2 view .LVU359
 1209              		.loc 10 185 24 is_stmt 0 discriminator 2 view .LVU360
 1210 06b0 4648     		ldr	r0, .L17+164
 1211 06b2 90ED000A 		vldr.32	s0, [r0]
 1212 06b6 2D48     		ldr	r0, .L17+68
 1213 06b8 FFF7FEFF 		bl	_ZN7daisysp3Svf7ProcessEf
 1214              	.LVL103:
 186:src/PianoB.cpp **** 
 187:src/PianoB.cpp **** //-------------------------------------------------------------------------------------------------
 188:src/PianoB.cpp ****     out_noFX = (filter_Pluck1.Low() + filter_Pluck2.Low() + filter_Pluck3.Low() + filter_Pluck4.Low
 1215              		.loc 10 188 5 is_stmt 1 discriminator 2 view .LVU361
 1216              	.LBB502:
 1217              	.LBI502:
ARM GAS  C:\Users\skipi\AppData\Local\Temp\cc6PZCfi.s 			page 36


  31:../libs/DaisySP/Source/Filters/svf.h ****     /** Initializes the filter
  32:../libs/DaisySP/Source/Filters/svf.h ****         float sample_rate - sample rate of the audio engine being run, and the frequency that the P
  33:../libs/DaisySP/Source/Filters/svf.h ****     */
  34:../libs/DaisySP/Source/Filters/svf.h ****     void Init(float sample_rate);
  35:../libs/DaisySP/Source/Filters/svf.h **** 
  36:../libs/DaisySP/Source/Filters/svf.h **** 
  37:../libs/DaisySP/Source/Filters/svf.h ****     /** 
  38:../libs/DaisySP/Source/Filters/svf.h ****         Process the input signal, updating all of the outputs.
  39:../libs/DaisySP/Source/Filters/svf.h ****     */
  40:../libs/DaisySP/Source/Filters/svf.h ****     void Process(float in);
  41:../libs/DaisySP/Source/Filters/svf.h **** 
  42:../libs/DaisySP/Source/Filters/svf.h **** 
  43:../libs/DaisySP/Source/Filters/svf.h ****     /** sets the frequency of the cutoff frequency. 
  44:../libs/DaisySP/Source/Filters/svf.h ****         f must be between 0.0 and sample_rate / 3
  45:../libs/DaisySP/Source/Filters/svf.h ****     */
  46:../libs/DaisySP/Source/Filters/svf.h ****     void SetFreq(float f);
  47:../libs/DaisySP/Source/Filters/svf.h **** 
  48:../libs/DaisySP/Source/Filters/svf.h ****     /** sets the resonance of the filter.
  49:../libs/DaisySP/Source/Filters/svf.h ****         Must be between 0.0 and 1.0 to ensure stability.
  50:../libs/DaisySP/Source/Filters/svf.h ****     */
  51:../libs/DaisySP/Source/Filters/svf.h ****     void SetRes(float r);
  52:../libs/DaisySP/Source/Filters/svf.h **** 
  53:../libs/DaisySP/Source/Filters/svf.h ****     /** sets the drive of the filter 
  54:../libs/DaisySP/Source/Filters/svf.h ****         affects the response of the resonance of the filter
  55:../libs/DaisySP/Source/Filters/svf.h ****     */
  56:../libs/DaisySP/Source/Filters/svf.h ****     void SetDrive(float d);
  57:../libs/DaisySP/Source/Filters/svf.h ****     /** lowpass output
  58:../libs/DaisySP/Source/Filters/svf.h ****         \return low pass output of the filter
  59:../libs/DaisySP/Source/Filters/svf.h ****     */
  60:../libs/DaisySP/Source/Filters/svf.h ****     inline float Low() { return out_low_; }
 1218              		.loc 9 60 18 discriminator 2 view .LVU362
 1219              	.LBB503:
 1220              		.loc 9 60 26 discriminator 2 view .LVU363
 1221              		.loc 9 60 26 is_stmt 0 discriminator 2 view .LVU364
 1222              	.LBE503:
 1223              	.LBE502:
 1224              	.LBB504:
 1225              	.LBI504:
 1226              		.loc 9 60 18 is_stmt 1 discriminator 2 view .LVU365
 1227              	.LBB505:
 1228              		.loc 9 60 26 discriminator 2 view .LVU366
 1229              		.loc 9 60 26 is_stmt 0 discriminator 2 view .LVU367
 1230              	.LBE505:
 1231              	.LBE504:
 1232              	.LBB506:
 1233              	.LBI506:
 1234              		.loc 9 60 18 is_stmt 1 discriminator 2 view .LVU368
 1235              	.LBB507:
 1236              		.loc 9 60 26 discriminator 2 view .LVU369
 1237              		.loc 9 60 26 is_stmt 0 discriminator 2 view .LVU370
 1238              	.LBE507:
 1239              	.LBE506:
 1240              	.LBB508:
 1241              	.LBI508:
 1242              		.loc 9 60 18 is_stmt 1 discriminator 2 view .LVU371
 1243              	.LBB509:
 1244              		.loc 9 60 26 discriminator 2 view .LVU372
ARM GAS  C:\Users\skipi\AppData\Local\Temp\cc6PZCfi.s 			page 37


 1245              		.loc 9 60 26 is_stmt 0 discriminator 2 view .LVU373
 1246              	.LBE509:
 1247              	.LBE508:
 1248              	.LBB510:
 1249              	.LBI510:
 1250              		.loc 9 60 18 is_stmt 1 discriminator 2 view .LVU374
 1251              	.LBB511:
 1252              		.loc 9 60 26 discriminator 2 view .LVU375
 1253              		.loc 9 60 26 is_stmt 0 discriminator 2 view .LVU376
 1254              	.LBE511:
 1255              	.LBE510:
 1256              	.LBB512:
 1257              	.LBI512:
 1258              		.loc 9 60 18 is_stmt 1 discriminator 2 view .LVU377
 1259              	.LBB513:
 1260              		.loc 9 60 26 discriminator 2 view .LVU378
 1261              		.loc 9 60 26 is_stmt 0 discriminator 2 view .LVU379
 1262              	.LBE513:
 1263              	.LBE512:
 1264              		.loc 10 188 37 discriminator 2 view .LVU380
 1265 06bc 244B     		ldr	r3, .L17+40
 189:src/PianoB.cpp ****                 + (filter_Pad1.Low() + filter_Pad2.Low())*mix_amp_Pad +
 190:src/PianoB.cpp ****                 + (filter_Bass1.Low() + filter_Bass2.Low())*mix_amp_Bass; 
 191:src/PianoB.cpp **** //-------------------------------------------------------------------------------------------------
 192:src/PianoB.cpp ****     //float out_FX = delay.Process(out_noFX); // Process the output signal with the delay effect
 193:src/PianoB.cpp **** 
 194:src/PianoB.cpp **** //-------------------------------------------------------------------------------------------------
 195:src/PianoB.cpp ****         out[0][i] = out_noFX;                                         // Output processed signal (l
 1266              		.loc 10 195 19 discriminator 2 view .LVU381
 1267 06be 029A     		ldr	r2, [sp, #8]
 188:src/PianoB.cpp ****                 + (filter_Pad1.Low() + filter_Pad2.Low())*mix_amp_Pad +
 1268              		.loc 10 188 37 discriminator 2 view .LVU382
 1269 06c0 93ED0C7A 		vldr.32	s14, [r3, #48]
 1270 06c4 234B     		ldr	r3, .L17+44
 1271              		.loc 10 195 19 discriminator 2 view .LVU383
 1272 06c6 1168     		ldr	r1, [r2]
 188:src/PianoB.cpp ****                 + (filter_Pad1.Low() + filter_Pad2.Low())*mix_amp_Pad +
 1273              		.loc 10 188 37 discriminator 2 view .LVU384
 1274 06c8 93ED0C6A 		vldr.32	s12, [r3, #48]
 188:src/PianoB.cpp ****                 + (filter_Pad1.Low() + filter_Pad2.Low())*mix_amp_Pad +
 1275              		.loc 10 188 59 discriminator 2 view .LVU385
 1276 06cc 224B     		ldr	r3, .L17+48
 188:src/PianoB.cpp ****                 + (filter_Pad1.Low() + filter_Pad2.Low())*mix_amp_Pad +
 1277              		.loc 10 188 37 discriminator 2 view .LVU386
 1278 06ce 37EE067A 		vadd.f32	s14, s14, s12
 188:src/PianoB.cpp ****                 + (filter_Pad1.Low() + filter_Pad2.Low())*mix_amp_Pad +
 1279              		.loc 10 188 59 discriminator 2 view .LVU387
 1280 06d2 D3ED0C4A 		vldr.32	s9, [r3, #48]
 189:src/PianoB.cpp ****                 + (filter_Pad1.Low() + filter_Pad2.Low())*mix_amp_Pad +
 1281              		.loc 10 189 38 discriminator 2 view .LVU388
 1282 06d6 244B     		ldr	r3, .L17+64
 188:src/PianoB.cpp ****                 + (filter_Pad1.Low() + filter_Pad2.Low())*mix_amp_Pad +
 1283              		.loc 10 188 59 discriminator 2 view .LVU389
 1284 06d8 37EE247A 		vadd.f32	s14, s14, s9
 189:src/PianoB.cpp ****                 + (filter_Pad1.Low() + filter_Pad2.Low())*mix_amp_Pad +
 1285              		.loc 10 189 38 discriminator 2 view .LVU390
 1286 06dc D3ED0C7A 		vldr.32	s15, [r3, #48]
ARM GAS  C:\Users\skipi\AppData\Local\Temp\cc6PZCfi.s 			page 38


 1287 06e0 224B     		ldr	r3, .L17+68
 1288 06e2 D3ED0C6A 		vldr.32	s13, [r3, #48]
 188:src/PianoB.cpp ****                 + (filter_Pad1.Low() + filter_Pad2.Low())*mix_amp_Pad +
 1289              		.loc 10 188 81 discriminator 2 view .LVU391
 1290 06e6 1D4B     		ldr	r3, .L17+52
 189:src/PianoB.cpp ****                 + (filter_Pad1.Low() + filter_Pad2.Low())*mix_amp_Pad +
 1291              		.loc 10 189 38 discriminator 2 view .LVU392
 1292 06e8 77EEA67A 		vadd.f32	s15, s15, s13
 188:src/PianoB.cpp ****                 + (filter_Pad1.Low() + filter_Pad2.Low())*mix_amp_Pad +
 1293              		.loc 10 188 81 discriminator 2 view .LVU393
 1294 06ec 93ED0C5A 		vldr.32	s10, [r3, #48]
 189:src/PianoB.cpp ****                 + (filter_Pad1.Low() + filter_Pad2.Low())*mix_amp_Pad +
 1295              		.loc 10 189 58 discriminator 2 view .LVU394
 1296 06f0 374B     		ldr	r3, .L17+168
 188:src/PianoB.cpp ****                 + (filter_Pad1.Low() + filter_Pad2.Low())*mix_amp_Pad +
 1297              		.loc 10 188 81 discriminator 2 view .LVU395
 1298 06f2 37EE057A 		vadd.f32	s14, s14, s10
 189:src/PianoB.cpp ****                 + (filter_Pad1.Low() + filter_Pad2.Low())*mix_amp_Pad +
 1299              		.loc 10 189 58 discriminator 2 view .LVU396
 1300 06f6 93ED006A 		vldr.32	s12, [r3]
 188:src/PianoB.cpp ****                 + (filter_Pad1.Low() + filter_Pad2.Low())*mix_amp_Pad +
 1301              		.loc 10 188 120 discriminator 2 view .LVU397
 1302 06fa 364B     		ldr	r3, .L17+172
 189:src/PianoB.cpp ****                 + (filter_Pad1.Low() + filter_Pad2.Low())*mix_amp_Pad +
 1303              		.loc 10 189 58 discriminator 2 view .LVU398
 1304 06fc 67EE867A 		vmul.f32	s15, s15, s12
 188:src/PianoB.cpp ****                 + (filter_Pad1.Low() + filter_Pad2.Low())*mix_amp_Pad +
 1305              		.loc 10 188 120 discriminator 2 view .LVU399
 1306 0700 D3ED005A 		vldr.32	s11, [r3]
 190:src/PianoB.cpp **** //-------------------------------------------------------------------------------------------------
 1307              		.loc 10 190 39 discriminator 2 view .LVU400
 1308 0704 164B     		ldr	r3, .L17+56
 188:src/PianoB.cpp ****                 + (filter_Pad1.Low() + filter_Pad2.Low())*mix_amp_Pad +
 1309              		.loc 10 188 120 discriminator 2 view .LVU401
 1310 0706 E7EE257A 		vfma.f32	s15, s14, s11
 1311              	.LVL104:
 1312              	.LBB514:
 1313              	.LBI514:
 1314              		.loc 9 60 18 is_stmt 1 discriminator 2 view .LVU402
 1315              	.LBB515:
 1316              		.loc 9 60 26 discriminator 2 view .LVU403
 1317              		.loc 9 60 26 is_stmt 0 discriminator 2 view .LVU404
 1318              	.LBE515:
 1319              	.LBE514:
 1320              	.LBB516:
 1321              	.LBI516:
 1322              		.loc 9 60 18 is_stmt 1 discriminator 2 view .LVU405
 1323              	.LBB517:
 1324              		.loc 9 60 26 discriminator 2 view .LVU406
 1325              		.loc 9 60 26 is_stmt 0 discriminator 2 view .LVU407
 1326              	.LBE517:
 1327              	.LBE516:
 190:src/PianoB.cpp **** //-------------------------------------------------------------------------------------------------
 1328              		.loc 10 190 39 discriminator 2 view .LVU408
 1329 070a D3ED0C6A 		vldr.32	s13, [r3, #48]
 1330 070e 154B     		ldr	r3, .L17+60
 1331 0710 D3ED0C4A 		vldr.32	s9, [r3, #48]
ARM GAS  C:\Users\skipi\AppData\Local\Temp\cc6PZCfi.s 			page 39


 189:src/PianoB.cpp ****                 + (filter_Pad1.Low() + filter_Pad2.Low())*mix_amp_Pad +
 1332              		.loc 10 189 71 discriminator 2 view .LVU409
 1333 0714 304B     		ldr	r3, .L17+176
 190:src/PianoB.cpp **** //-------------------------------------------------------------------------------------------------
 1334              		.loc 10 190 39 discriminator 2 view .LVU410
 1335 0716 76EEA46A 		vadd.f32	s13, s13, s9
 189:src/PianoB.cpp ****                 + (filter_Pad1.Low() + filter_Pad2.Low())*mix_amp_Pad +
 1336              		.loc 10 189 71 discriminator 2 view .LVU411
 1337 071a 93ED006A 		vldr.32	s12, [r3]
 188:src/PianoB.cpp ****                 + (filter_Pad1.Low() + filter_Pad2.Low())*mix_amp_Pad +
 1338              		.loc 10 188 14 discriminator 2 view .LVU412
 1339 071e 2F4B     		ldr	r3, .L17+180
 189:src/PianoB.cpp ****                 + (filter_Pad1.Low() + filter_Pad2.Low())*mix_amp_Pad +
 1340              		.loc 10 189 71 discriminator 2 view .LVU413
 1341 0720 E6EE867A 		vfma.f32	s15, s13, s12
 1342 0724 5CE0     		b	.L18
 1343              	.L19:
 1344 0726 00BF     		.align	2
 1345              	.L17:
 1346 0728 00000000 		.word	.LANCHOR52
 1347 072c 00000000 		.word	.LANCHOR54
 1348 0730 00000000 		.word	.LANCHOR55
 1349 0734 00000000 		.word	.LANCHOR56
 1350 0738 00000000 		.word	.LANCHOR57
 1351 073c 00000000 		.word	.LANCHOR58
 1352 0740 00000000 		.word	.LANCHOR59
 1353 0744 00000000 		.word	.LANCHOR60
 1354 0748 00000000 		.word	.LANCHOR61
 1355 074c 00000000 		.word	.LANCHOR62
 1356 0750 00000000 		.word	.LANCHOR65
 1357 0754 00000000 		.word	.LANCHOR66
 1358 0758 00000000 		.word	.LANCHOR67
 1359 075c 00000000 		.word	.LANCHOR68
 1360 0760 00000000 		.word	.LANCHOR71
 1361 0764 00000000 		.word	.LANCHOR72
 1362 0768 00000000 		.word	.LANCHOR75
 1363 076c 00000000 		.word	.LANCHOR76
 1364 0770 00000000 		.word	.LANCHOR42
 1365 0774 00000000 		.word	.LANCHOR24
 1366 0778 00000000 		.word	.LANCHOR43
 1367 077c 00000000 		.word	.LANCHOR25
 1368 0780 00000000 		.word	.LANCHOR44
 1369 0784 00000000 		.word	.LANCHOR26
 1370 0788 00000000 		.word	.LANCHOR45
 1371 078c 00000000 		.word	.LANCHOR27
 1372 0790 00000000 		.word	.LANCHOR50
 1373 0794 00000000 		.word	.LANCHOR28
 1374 0798 00000000 		.word	.LANCHOR51
 1375 079c 00000000 		.word	.LANCHOR29
 1376 07a0 00000000 		.word	.LANCHOR47
 1377 07a4 00000000 		.word	.LANCHOR30
 1378 07a8 00000000 		.word	.LANCHOR48
 1379 07ac 00000000 		.word	.LANCHOR31
 1380 07b0 00000000 		.word	.LANCHOR77
 1381 07b4 00000000 		.word	.LANCHOR78
 1382 07b8 00000000 		.word	.LANCHOR79
 1383 07bc 00000000 		.word	.LANCHOR80
ARM GAS  C:\Users\skipi\AppData\Local\Temp\cc6PZCfi.s 			page 40


 1384 07c0 00000000 		.word	.LANCHOR81
 1385 07c4 00000000 		.word	.LANCHOR82
 1386 07c8 00000000 		.word	.LANCHOR83
 1387 07cc 00000000 		.word	.LANCHOR84
 1388 07d0 00000000 		.word	.LANCHOR86
 1389 07d4 00000000 		.word	.LANCHOR85
 1390 07d8 00000000 		.word	.LANCHOR87
 1391 07dc 00000000 		.word	.LANCHOR88
 1392              	.L18:
 188:src/PianoB.cpp ****                 + (filter_Pad1.Low() + filter_Pad2.Low())*mix_amp_Pad +
 1393              		.loc 10 188 14 discriminator 2 view .LVU414
 1394 07e0 C3ED007A 		vstr.32	s15, [r3]
 1395              		.loc 10 195 9 is_stmt 1 discriminator 2 view .LVU415
 1396              		.loc 10 195 19 is_stmt 0 discriminator 2 view .LVU416
 1397 07e4 019B     		ldr	r3, [sp, #4]
 1398 07e6 01EB8301 		add	r1, r1, r3, lsl #2
 1399 07ea C1ED007A 		vstr.32	s15, [r1]
 196:src/PianoB.cpp ****         out[1][i] = out_noFX;                                         // Output processed signal (r
 1400              		.loc 10 196 9 is_stmt 1 discriminator 2 view .LVU417
 1401              		.loc 10 196 19 is_stmt 0 discriminator 2 view .LVU418
 1402 07ee 5168     		ldr	r1, [r2, #4]
 1403 07f0 01EB8301 		add	r1, r1, r3, lsl #2
  81:src/PianoB.cpp **** //--------------------------------------------------------------------Setta DelayTime
 1404              		.loc 10 81 5 discriminator 2 view .LVU419
 1405 07f4 0133     		adds	r3, r3, #1
 1406              		.loc 10 196 19 discriminator 2 view .LVU420
 1407 07f6 C1ED007A 		vstr.32	s15, [r1]
  81:src/PianoB.cpp **** //--------------------------------------------------------------------Setta DelayTime
 1408              		.loc 10 81 5 is_stmt 1 discriminator 2 view .LVU421
 1409              	.LVL105:
  81:src/PianoB.cpp **** //--------------------------------------------------------------------Setta DelayTime
 1410              		.loc 10 81 26 discriminator 2 view .LVU422
 1411 07fa 0399     		ldr	r1, [sp, #12]
 1412 07fc 9942     		cmp	r1, r3
 1413 07fe 7FF414AC 		bne	.L8
 1414              	.LVL106:
 1415              	.L6:
  81:src/PianoB.cpp **** //--------------------------------------------------------------------Setta DelayTime
 1416              		.loc 10 81 26 is_stmt 0 discriminator 2 view .LVU423
 1417              	.LBE518:
 197:src/PianoB.cpp ****     }
 198:src/PianoB.cpp **** }
 1418              		.loc 10 198 1 view .LVU424
 1419 0802 05B0     		add	sp, sp, #20
 1420              		.cfi_def_cfa_offset 36
 1421              		@ sp needed
 1422 0804 BDE8F08F 		pop	{r4, r5, r6, r7, r8, r9, r10, fp, pc}
 1423              		.loc 10 198 1 view .LVU425
 1424              		.cfi_endproc
 1425              	.LFE4815:
 1427              		.section	.text._ZN7daisysp10Oscillator4InitEf,"axG",%progbits,_ZN7daisysp10Oscillator4InitEf,comda
 1428              		.align	1
 1429              		.p2align 2,,3
 1430              		.weak	_ZN7daisysp10Oscillator4InitEf
 1431              		.syntax unified
 1432              		.thumb
 1433              		.thumb_func
ARM GAS  C:\Users\skipi\AppData\Local\Temp\cc6PZCfi.s 			page 41


 1434              		.fpu fpv5-d16
 1436              	_ZN7daisysp10Oscillator4InitEf:
 1437              	.LVL107:
 1438              	.LFB4332:
  50:../libs/DaisySP/Source/Synthesis/oscillator.h ****     {
 1439              		.loc 8 50 10 is_stmt 1 view -0
 1440              		.cfi_startproc
 1441              		@ args = 0, pretend = 0, frame = 0
 1442              		@ frame_needed = 0, uses_anonymous_args = 0
  52:../libs/DaisySP/Source/Synthesis/oscillator.h ****         sr_recip_  = 1.0f / sample_rate;
 1443              		.loc 8 52 9 view .LVU427
  50:../libs/DaisySP/Source/Synthesis/oscillator.h ****     {
 1444              		.loc 8 50 10 is_stmt 0 view .LVU428
 1445 0000 F0EE407A 		vmov.f32	s15, s0
  55:../libs/DaisySP/Source/Synthesis/oscillator.h ****         pw_        = 0.5f;
 1446              		.loc 8 55 20 view .LVU429
 1447 0004 4FF07C53 		mov	r3, #1056964608
  53:../libs/DaisySP/Source/Synthesis/oscillator.h ****         freq_      = 100.0f;
 1448              		.loc 8 53 27 view .LVU430
 1449 0008 F7EE006A 		vmov.f32	s13, #1.0e+0
  57:../libs/DaisySP/Source/Synthesis/oscillator.h ****         phase_inc_ = CalcPhaseInc(freq_);
 1450              		.loc 8 57 20 view .LVU431
 1451 000c 0022     		movs	r2, #0
  54:../libs/DaisySP/Source/Synthesis/oscillator.h ****         amp_       = 0.5f;
 1452              		.loc 8 54 20 view .LVU432
 1453 000e 9FED0C0A 		vldr.32	s0, .L22
 1454              	.LVL108:
  55:../libs/DaisySP/Source/Synthesis/oscillator.h ****         pw_        = 0.5f;
 1455              		.loc 8 55 20 view .LVU433
 1456 0012 4360     		str	r3, [r0, #4]	@ float
  53:../libs/DaisySP/Source/Synthesis/oscillator.h ****         freq_      = 100.0f;
 1457              		.loc 8 53 27 view .LVU434
 1458 0014 86EEA77A 		vdiv.f32	s14, s13, s15
  56:../libs/DaisySP/Source/Synthesis/oscillator.h ****         phase_     = 0.0f;
 1459              		.loc 8 56 20 view .LVU435
 1460 0018 C360     		str	r3, [r0, #12]	@ float
  57:../libs/DaisySP/Source/Synthesis/oscillator.h ****         phase_inc_ = CalcPhaseInc(freq_);
 1461              		.loc 8 57 20 view .LVU436
 1462 001a 8261     		str	r2, [r0, #24]	@ float
  52:../libs/DaisySP/Source/Synthesis/oscillator.h ****         sr_recip_  = 1.0f / sample_rate;
 1463              		.loc 8 52 20 view .LVU437
 1464 001c C0ED047A 		vstr.32	s15, [r0, #16]
  53:../libs/DaisySP/Source/Synthesis/oscillator.h ****         freq_      = 100.0f;
 1465              		.loc 8 53 9 is_stmt 1 view .LVU438
  54:../libs/DaisySP/Source/Synthesis/oscillator.h ****         amp_       = 0.5f;
 1466              		.loc 8 54 20 is_stmt 0 view .LVU439
 1467 0020 80ED020A 		vstr.32	s0, [r0, #8]
  50:../libs/DaisySP/Source/Synthesis/oscillator.h ****     {
 1468              		.loc 8 50 10 view .LVU440
 1469 0024 10B5     		push	{r4, lr}
 1470              		.cfi_def_cfa_offset 8
 1471              		.cfi_offset 4, -8
 1472              		.cfi_offset 14, -4
  50:../libs/DaisySP/Source/Synthesis/oscillator.h ****     {
 1473              		.loc 8 50 10 view .LVU441
 1474 0026 0446     		mov	r4, r0
  53:../libs/DaisySP/Source/Synthesis/oscillator.h ****         freq_      = 100.0f;
ARM GAS  C:\Users\skipi\AppData\Local\Temp\cc6PZCfi.s 			page 42


 1475              		.loc 8 53 20 view .LVU442
 1476 0028 80ED057A 		vstr.32	s14, [r0, #20]
  54:../libs/DaisySP/Source/Synthesis/oscillator.h ****         amp_       = 0.5f;
 1477              		.loc 8 54 9 is_stmt 1 view .LVU443
  55:../libs/DaisySP/Source/Synthesis/oscillator.h ****         pw_        = 0.5f;
 1478              		.loc 8 55 9 view .LVU444
  56:../libs/DaisySP/Source/Synthesis/oscillator.h ****         phase_     = 0.0f;
 1479              		.loc 8 56 9 view .LVU445
  57:../libs/DaisySP/Source/Synthesis/oscillator.h ****         phase_inc_ = CalcPhaseInc(freq_);
 1480              		.loc 8 57 9 view .LVU446
  58:../libs/DaisySP/Source/Synthesis/oscillator.h ****         waveform_  = WAVE_SIN;
 1481              		.loc 8 58 9 view .LVU447
  58:../libs/DaisySP/Source/Synthesis/oscillator.h ****         waveform_  = WAVE_SIN;
 1482              		.loc 8 58 34 is_stmt 0 view .LVU448
 1483 002c FFF7FEFF 		bl	_ZN7daisysp10Oscillator12CalcPhaseIncEf
 1484              	.LVL109:
  59:../libs/DaisySP/Source/Synthesis/oscillator.h ****         eoc_       = true;
 1485              		.loc 8 59 20 view .LVU449
 1486 0030 0022     		movs	r2, #0
  61:../libs/DaisySP/Source/Synthesis/oscillator.h ****     }
 1487              		.loc 8 61 20 view .LVU450
 1488 0032 40F20113 		movw	r3, #257
  58:../libs/DaisySP/Source/Synthesis/oscillator.h ****         waveform_  = WAVE_SIN;
 1489              		.loc 8 58 20 view .LVU451
 1490 0036 84ED070A 		vstr.32	s0, [r4, #28]
  59:../libs/DaisySP/Source/Synthesis/oscillator.h ****         eoc_       = true;
 1491              		.loc 8 59 9 is_stmt 1 view .LVU452
  59:../libs/DaisySP/Source/Synthesis/oscillator.h ****         eoc_       = true;
 1492              		.loc 8 59 20 is_stmt 0 view .LVU453
 1493 003a 2270     		strb	r2, [r4]
  60:../libs/DaisySP/Source/Synthesis/oscillator.h ****         eor_       = true;
 1494              		.loc 8 60 9 is_stmt 1 view .LVU454
  61:../libs/DaisySP/Source/Synthesis/oscillator.h ****     }
 1495              		.loc 8 61 9 view .LVU455
  61:../libs/DaisySP/Source/Synthesis/oscillator.h ****     }
 1496              		.loc 8 61 20 is_stmt 0 view .LVU456
 1497 003c 2385     		strh	r3, [r4, #40]	@ movhi
  62:../libs/DaisySP/Source/Synthesis/oscillator.h **** 
 1498              		.loc 8 62 5 view .LVU457
 1499 003e 10BD     		pop	{r4, pc}
 1500              	.LVL110:
 1501              	.L23:
  62:../libs/DaisySP/Source/Synthesis/oscillator.h **** 
 1502              		.loc 8 62 5 view .LVU458
 1503              		.align	2
 1504              	.L22:
 1505 0040 0000C842 		.word	1120403456
 1506              		.cfi_endproc
 1507              	.LFE4332:
 1509              		.section	.text._Z8LogScalefff,"ax",%progbits
 1510              		.align	1
 1511              		.p2align 2,,3
 1512              		.global	_Z8LogScalefff
 1513              		.syntax unified
 1514              		.thumb
 1515              		.thumb_func
 1516              		.fpu fpv5-d16
ARM GAS  C:\Users\skipi\AppData\Local\Temp\cc6PZCfi.s 			page 43


 1518              	_Z8LogScalefff:
 1519              	.LVL111:
 1520              	.LFB4814:
 1521              		.file 11 "src/config1.h"
   1:src/config1.h **** #include "Ramo.h"       // Library for the Ramo synth
   2:src/config1.h **** 
   3:src/config1.h **** //\\\\\\\\\\\\\\\\\\\\\\\\\\\\\\\\\\\\\\\\\\\\\\\\\\\\\\\\\\\\\\\\\\\\\\\\\\\\\\\\\\\\\\\\\\\\\\\\\
   4:src/config1.h **** //Parametri Oscillatori---------------------Parametri AmpEG-----------------Parametri FilterEG
   5:src/config1.h **** uint8_t wf_Pluck[n] = {2,1};                               
   6:src/config1.h **** 
   7:src/config1.h **** float ef_Pluck[n] = {1, 1};                                                  float f_EG_pluck = 200
   8:src/config1.h **** 
   9:src/config1.h **** float g_Pluck[n]  = {0.5f, 0.5f}; 
  10:src/config1.h **** 
  11:src/config1.h **** float f_Pluck = 440.0f;
  12:src/config1.h **** 
  13:src/config1.h **** 
  14:src/config1.h **** 
  15:src/config1.h **** //Parametri LFO-----------------Parametri Filter------------------Gate
  16:src/config1.h **** float f_lfo_Pluck = 10;         float ft_pluck = 3000.0f;         bool Gate_Pluck;
  17:src/config1.h **** float amp_lfo_Pluck = 0.3;      float res_pluck = 0.1f; // Resonance for filter
  18:src/config1.h ****                                 float drive_pluck = 0.5f; // Drive for filter
  19:src/config1.h **** //-------------------------------------------------------------------------------------ADSR PLUCK
  20:src/config1.h **** float Pluck_Amp_ADSR[4] = {0.05f, 0.27f, 0.0f, 1.0f}; // Attack, Decay, Sustain, Release
  21:src/config1.h **** float Pluck_Filter_ADSR[4] = {0.1f, 0.03f, 0.0f, 1.0f}; // Attack, Decay, Sustain, Release
  22:src/config1.h **** 
  23:src/config1.h **** float mix_amp_Pluck = 0.33;
  24:src/config1.h **** 
  25:src/config1.h **** 
  26:src/config1.h **** 
  27:src/config1.h **** //\\\\\\\\\\\\\\\\\\\\\\\\\\\\\\\\\\\\\\\\\\\\\\\\\\\\\\\\\\\\\\\\\\\\\\\\\\\\\\\\\\\\\\\\\\\\\\\\\
  28:src/config1.h **** //Parametri Oscillatori---------------------Parametri AmpEG-----------------Parametri FilterEG
  29:src/config1.h **** uint8_t wf_Pad[n] = {3,2};                  
  30:src/config1.h **** 
  31:src/config1.h **** float ef_Pad[n] = {1, 1};                                                   float f_EG_pad = 8000.0
  32:src/config1.h **** 
  33:src/config1.h **** float g_Pad[n] = {0.5f, 0.5f}; 
  34:src/config1.h **** 
  35:src/config1.h **** float f_Pad = 220.0f; 
  36:src/config1.h **** 
  37:src/config1.h **** 
  38:src/config1.h **** 
  39:src/config1.h **** //Parametri LFO-----------------Parametri Filter------------------Gate
  40:src/config1.h **** float f_lfo_Pad   = 10;         float ft_pad = 500.0f;            bool Gate_Pad;
  41:src/config1.h **** float amp_lfo_Pad = 0.3;        float res_pad = 0.1f; 
  42:src/config1.h ****                                 float drive_pad = 0.5f; 
  43:src/config1.h **** //-------------------------------------------------------------------------------------ADSR PADS
  44:src/config1.h **** float Pad_Amp_ADSR[4] = {12.0f, 0.5f, 0.4f, 1.0f}; // Attack, Decay, Sustain, Release
  45:src/config1.h **** float Pad_Filter_ADSR[4] = {9.0f, 0.4f, 0.0f, 1.0f}; // Attack, Decay, Sustain, Release
  46:src/config1.h **** 
  47:src/config1.h **** float mix_amp_Pad = 0.33;
  48:src/config1.h **** 
  49:src/config1.h **** 
  50:src/config1.h **** 
  51:src/config1.h **** 
  52:src/config1.h **** //\\\\\\\\\\\\\\\\\\\\\\\\\\\\\\\\\\\\\\\\\\\\\\\\\\\\\\\\\\\\\\\\\\\\\\\\\\\\\\\\\\\\\\\\\\\\\\\\\
  53:src/config1.h **** //Parametri Oscillatori---------------------Parametri AmpEG-----------------Parametri FilterEG
ARM GAS  C:\Users\skipi\AppData\Local\Temp\cc6PZCfi.s 			page 44


  54:src/config1.h **** 
  55:src/config1.h **** uint8_t wf_Bass[n] = {1,3};                 
  56:src/config1.h **** 
  57:src/config1.h **** float ef_Bass[n] = {1, 1};                                                  float f_EG_bass = 5000.
  58:src/config1.h **** 
  59:src/config1.h **** float g_Bass[n] = {0.5f, 0.5f};
  60:src/config1.h **** 
  61:src/config1.h **** float f_Bass = 55.0f;
  62:src/config1.h **** 
  63:src/config1.h **** 
  64:src/config1.h **** 
  65:src/config1.h **** // Parametri LFO-----------------Parametri Filter------------------Gate
  66:src/config1.h **** 
  67:src/config1.h **** float f_lfo_Bass   = 10;         float ft_bass = 200.0f;            bool Gate_Bass;
  68:src/config1.h **** float amp_lfo_Bass = 0.3;        float res_bass = 0.1f; // Resonance for filter
  69:src/config1.h ****                                  float drive_bass = 0.5f; // Drive for filter
  70:src/config1.h **** //-------------------------------------------------------------------------------------ADSR BASS
  71:src/config1.h **** float Bass_Amp_ADSR[4] = {0.15f, 0.5f, 0.75f, 0.33f}; // Attack, Decay, Sustain, Release
  72:src/config1.h **** float Bass_Filter_ADSR[4] = {10.0f, 1.0f, 0.6f, 0.5f}; // Attack, Decay, Sustain, Release
  73:src/config1.h **** 
  74:src/config1.h **** float mix_amp_Bass = 0.33;
  75:src/config1.h **** 
  76:src/config1.h ****                                             
  77:src/config1.h **** 
  78:src/config1.h **** 
  79:src/config1.h **** //\\\\\\\\\\\\\\\\\\\\\\\\\\\\\\\\\\\\\\\\\\\\\\\\\\\\\\\\\\\\\\\\\\\\\\\\\\\\\\\\\\\\\\\\\\DELAY
  80:src/config1.h **** float time;
  81:src/config1.h **** float delayTime;
  82:src/config1.h **** 
  83:src/config1.h **** 
  84:src/config1.h **** const float MIN_DELAY = 0.02f;  // 20ms minimo delay
  85:src/config1.h **** const float MAX_DELAY = 1.0f;   // 1000ms massimo delay
  86:src/config1.h **** 
  87:src/config1.h **** float LogScale(float pos, float min_value, float max_value) {
 1522              		.loc 11 87 61 is_stmt 1 view -0
 1523              		.cfi_startproc
 1524              		@ args = 0, pretend = 0, frame = 0
 1525              		@ frame_needed = 0, uses_anonymous_args = 0
  88:src/config1.h ****     // Implementa una scala logaritmica tra min_value e max_value
  89:src/config1.h ****     float min_log = logf(min_value);
 1526              		.loc 11 89 5 view .LVU460
  87:src/config1.h ****     // Implementa una scala logaritmica tra min_value e max_value
 1527              		.loc 11 87 61 is_stmt 0 view .LVU461
 1528 0000 08B5     		push	{r3, lr}
 1529              		.cfi_def_cfa_offset 8
 1530              		.cfi_offset 3, -8
 1531              		.cfi_offset 14, -4
 1532 0002 2DED048B 		vpush.64	{d8, d9}
 1533              		.cfi_def_cfa_offset 24
 1534              		.cfi_offset 80, -24
 1535              		.cfi_offset 81, -20
 1536              		.cfi_offset 82, -16
 1537              		.cfi_offset 83, -12
  87:src/config1.h ****     // Implementa una scala logaritmica tra min_value e max_value
 1538              		.loc 11 87 61 view .LVU462
 1539 0006 B0EE419A 		vmov.f32	s18, s2
 1540 000a F0EE408A 		vmov.f32	s17, s0
ARM GAS  C:\Users\skipi\AppData\Local\Temp\cc6PZCfi.s 			page 45


 1541              		.loc 11 89 25 view .LVU463
 1542 000e B0EE600A 		vmov.f32	s0, s1
 1543              	.LVL112:
 1544              		.loc 11 89 25 view .LVU464
 1545 0012 FFF7FEFF 		bl	logf
 1546              	.LVL113:
 1547              		.loc 11 89 25 view .LVU465
 1548 0016 B0EE408A 		vmov.f32	s16, s0
  90:src/config1.h ****     float max_log = logf(max_value);
 1549              		.loc 11 90 25 view .LVU466
 1550 001a B0EE490A 		vmov.f32	s0, s18
 1551              	.LVL114:
 1552              		.loc 11 90 5 is_stmt 1 view .LVU467
 1553              		.loc 11 90 25 is_stmt 0 view .LVU468
 1554 001e FFF7FEFF 		bl	logf
 1555              	.LVL115:
  91:src/config1.h ****     float exp_scale = min_log + (max_log - min_log) * pos;
 1556              		.loc 11 91 5 is_stmt 1 view .LVU469
 1557              		.loc 11 91 42 is_stmt 0 view .LVU470
 1558 0022 30EE480A 		vsub.f32	s0, s0, s16
 1559              	.LVL116:
  92:src/config1.h ****     return expf(exp_scale);
 1560              		.loc 11 92 5 is_stmt 1 view .LVU471
 1561              		.loc 11 92 16 is_stmt 0 view .LVU472
 1562 0026 A0EE288A 		vfma.f32	s16, s0, s17
 1563              	.LVL117:
 1564              		.loc 11 92 16 view .LVU473
 1565 002a B0EE480A 		vmov.f32	s0, s16
  93:src/config1.h **** }
 1566              		.loc 11 93 1 view .LVU474
 1567 002e BDEC048B 		vldm	sp!, {d8-d9}
 1568              		.cfi_restore 82
 1569              		.cfi_restore 83
 1570              		.cfi_restore 80
 1571              		.cfi_restore 81
 1572              		.cfi_def_cfa_offset 8
 1573              	.LVL118:
 1574              		.loc 11 93 1 view .LVU475
 1575 0032 BDE80840 		pop	{r3, lr}
 1576              		.cfi_restore 14
 1577              		.cfi_restore 3
 1578              		.cfi_def_cfa_offset 0
  92:src/config1.h ****     return expf(exp_scale);
 1579              		.loc 11 92 16 view .LVU476
 1580 0036 FFF7FEBF 		b	expf
 1581              	.LVL119:
  92:src/config1.h ****     return expf(exp_scale);
 1582              		.loc 11 92 16 view .LVU477
 1583              		.cfi_endproc
 1584              	.LFE4814:
 1586 003a 00BF     		.section	.text._ZN5daisy6Mpr121INS_18Mpr121I2CTransportEE13WriteRegisterEhh,"axG",%progbits,_ZN5da
 1587              		.align	1
 1588              		.p2align 2,,3
 1589              		.weak	_ZN5daisy6Mpr121INS_18Mpr121I2CTransportEE13WriteRegisterEhh
 1590              		.syntax unified
 1591              		.thumb
 1592              		.thumb_func
ARM GAS  C:\Users\skipi\AppData\Local\Temp\cc6PZCfi.s 			page 46


 1593              		.fpu fpv5-d16
 1595              	_ZN5daisy6Mpr121INS_18Mpr121I2CTransportEE13WriteRegisterEhh:
 1596              	.LVL120:
 1597              	.LFB5251:
 1598              		.file 12 "../libs/libDaisy/src/dev/mpr121.h"
   1:../libs/libDaisy/src/dev/mpr121.h **** #pragma once
   2:../libs/libDaisy/src/dev/mpr121.h **** #ifndef DSY_MPR121_H
   3:../libs/libDaisy/src/dev/mpr121.h **** #define DSY_MPR121_H
   4:../libs/libDaisy/src/dev/mpr121.h **** 
   5:../libs/libDaisy/src/dev/mpr121.h **** // The default I2C address
   6:../libs/libDaisy/src/dev/mpr121.h **** #define MPR121_I2CADDR_DEFAULT 0x5A        ///< default I2C address
   7:../libs/libDaisy/src/dev/mpr121.h **** #define MPR121_TOUCH_THRESHOLD_DEFAULT 12  ///< default touch threshold value
   8:../libs/libDaisy/src/dev/mpr121.h **** #define MPR121_RELEASE_THRESHOLD_DEFAULT 6 ///< default relese threshold value
   9:../libs/libDaisy/src/dev/mpr121.h **** 
  10:../libs/libDaisy/src/dev/mpr121.h **** namespace daisy
  11:../libs/libDaisy/src/dev/mpr121.h **** {
  12:../libs/libDaisy/src/dev/mpr121.h **** /** @addtogroup external 
  13:../libs/libDaisy/src/dev/mpr121.h ****     @{ 
  14:../libs/libDaisy/src/dev/mpr121.h **** */
  15:../libs/libDaisy/src/dev/mpr121.h **** 
  16:../libs/libDaisy/src/dev/mpr121.h **** /** I2C Transport for MPR121 */
  17:../libs/libDaisy/src/dev/mpr121.h **** class Mpr121I2CTransport
  18:../libs/libDaisy/src/dev/mpr121.h **** {
  19:../libs/libDaisy/src/dev/mpr121.h ****   public:
  20:../libs/libDaisy/src/dev/mpr121.h ****     Mpr121I2CTransport() {}
  21:../libs/libDaisy/src/dev/mpr121.h ****     ~Mpr121I2CTransport() {}
  22:../libs/libDaisy/src/dev/mpr121.h **** 
  23:../libs/libDaisy/src/dev/mpr121.h ****     struct Config
  24:../libs/libDaisy/src/dev/mpr121.h ****     {
  25:../libs/libDaisy/src/dev/mpr121.h ****         I2CHandle::Config::Peripheral periph;
  26:../libs/libDaisy/src/dev/mpr121.h ****         I2CHandle::Config::Speed      speed;
  27:../libs/libDaisy/src/dev/mpr121.h ****         Pin                           scl;
  28:../libs/libDaisy/src/dev/mpr121.h ****         Pin                           sda;
  29:../libs/libDaisy/src/dev/mpr121.h **** 
  30:../libs/libDaisy/src/dev/mpr121.h ****         I2CHandle::Config::Mode mode;
  31:../libs/libDaisy/src/dev/mpr121.h **** 
  32:../libs/libDaisy/src/dev/mpr121.h ****         uint8_t dev_addr;
  33:../libs/libDaisy/src/dev/mpr121.h **** 
  34:../libs/libDaisy/src/dev/mpr121.h ****         Config()
  35:../libs/libDaisy/src/dev/mpr121.h ****         {
  36:../libs/libDaisy/src/dev/mpr121.h ****             periph = I2CHandle::Config::Peripheral::I2C_1;
  37:../libs/libDaisy/src/dev/mpr121.h ****             speed  = I2CHandle::Config::Speed::I2C_400KHZ;
  38:../libs/libDaisy/src/dev/mpr121.h **** 
  39:../libs/libDaisy/src/dev/mpr121.h ****             scl = Pin(PORTB, 8);
  40:../libs/libDaisy/src/dev/mpr121.h ****             sda = Pin(PORTB, 9);
  41:../libs/libDaisy/src/dev/mpr121.h **** 
  42:../libs/libDaisy/src/dev/mpr121.h ****             dev_addr = MPR121_I2CADDR_DEFAULT;
  43:../libs/libDaisy/src/dev/mpr121.h ****         }
  44:../libs/libDaisy/src/dev/mpr121.h ****     };
  45:../libs/libDaisy/src/dev/mpr121.h **** 
  46:../libs/libDaisy/src/dev/mpr121.h ****     /** \return Did the transaction error? i.e. Return true if error, false if ok */
  47:../libs/libDaisy/src/dev/mpr121.h ****     inline bool Init(Config config)
  48:../libs/libDaisy/src/dev/mpr121.h ****     {
  49:../libs/libDaisy/src/dev/mpr121.h ****         config_ = config;
  50:../libs/libDaisy/src/dev/mpr121.h **** 
  51:../libs/libDaisy/src/dev/mpr121.h ****         I2CHandle::Config i2c_conf;
  52:../libs/libDaisy/src/dev/mpr121.h ****         i2c_conf.mode   = I2CHandle::Config::Mode::I2C_MASTER;
ARM GAS  C:\Users\skipi\AppData\Local\Temp\cc6PZCfi.s 			page 47


  53:../libs/libDaisy/src/dev/mpr121.h ****         i2c_conf.periph = config.periph;
  54:../libs/libDaisy/src/dev/mpr121.h ****         i2c_conf.speed  = config.speed;
  55:../libs/libDaisy/src/dev/mpr121.h **** 
  56:../libs/libDaisy/src/dev/mpr121.h ****         i2c_conf.pin_config.scl = config.scl;
  57:../libs/libDaisy/src/dev/mpr121.h ****         i2c_conf.pin_config.sda = config.sda;
  58:../libs/libDaisy/src/dev/mpr121.h **** 
  59:../libs/libDaisy/src/dev/mpr121.h ****         return I2CHandle::Result::OK != i2c_.Init(i2c_conf);
  60:../libs/libDaisy/src/dev/mpr121.h ****     }
  61:../libs/libDaisy/src/dev/mpr121.h **** 
  62:../libs/libDaisy/src/dev/mpr121.h ****     /** \return Did the transaction error? i.e. Return true if error, false if ok */
  63:../libs/libDaisy/src/dev/mpr121.h ****     bool Write(uint8_t *data, uint16_t size)
  64:../libs/libDaisy/src/dev/mpr121.h ****     {
  65:../libs/libDaisy/src/dev/mpr121.h ****         return I2CHandle::Result::OK
  66:../libs/libDaisy/src/dev/mpr121.h ****                != i2c_.TransmitBlocking(config_.dev_addr, data, size, 10);
  67:../libs/libDaisy/src/dev/mpr121.h ****     }
  68:../libs/libDaisy/src/dev/mpr121.h **** 
  69:../libs/libDaisy/src/dev/mpr121.h ****     /** \return Did the transaction error? i.e. Return true if error, false if ok */
  70:../libs/libDaisy/src/dev/mpr121.h ****     bool Read(uint8_t *data, uint16_t size)
  71:../libs/libDaisy/src/dev/mpr121.h ****     {
  72:../libs/libDaisy/src/dev/mpr121.h ****         return I2CHandle::Result::OK
  73:../libs/libDaisy/src/dev/mpr121.h ****                != i2c_.ReceiveBlocking(config_.dev_addr, data, size, 10);
  74:../libs/libDaisy/src/dev/mpr121.h ****     }
  75:../libs/libDaisy/src/dev/mpr121.h **** 
  76:../libs/libDaisy/src/dev/mpr121.h ****   private:
  77:../libs/libDaisy/src/dev/mpr121.h ****     I2CHandle i2c_;
  78:../libs/libDaisy/src/dev/mpr121.h ****     Config    config_;
  79:../libs/libDaisy/src/dev/mpr121.h **** };
  80:../libs/libDaisy/src/dev/mpr121.h **** 
  81:../libs/libDaisy/src/dev/mpr121.h **** 
  82:../libs/libDaisy/src/dev/mpr121.h **** /** @brief Device support for MPR121 12x Capacitive Touch Sensor
  83:../libs/libDaisy/src/dev/mpr121.h ****     @author beserge
  84:../libs/libDaisy/src/dev/mpr121.h ****     @date December 2021
  85:../libs/libDaisy/src/dev/mpr121.h **** */
  86:../libs/libDaisy/src/dev/mpr121.h **** template <typename Transport>
  87:../libs/libDaisy/src/dev/mpr121.h **** class Mpr121
  88:../libs/libDaisy/src/dev/mpr121.h **** {
  89:../libs/libDaisy/src/dev/mpr121.h ****   public:
  90:../libs/libDaisy/src/dev/mpr121.h ****     Mpr121() {}
  91:../libs/libDaisy/src/dev/mpr121.h ****     ~Mpr121() {}
  92:../libs/libDaisy/src/dev/mpr121.h **** 
  93:../libs/libDaisy/src/dev/mpr121.h ****     struct Config
  94:../libs/libDaisy/src/dev/mpr121.h ****     {
  95:../libs/libDaisy/src/dev/mpr121.h ****         typename Transport::Config transport_config;
  96:../libs/libDaisy/src/dev/mpr121.h ****         uint8_t                    touch_threshold;
  97:../libs/libDaisy/src/dev/mpr121.h ****         uint8_t                    release_threshold;
  98:../libs/libDaisy/src/dev/mpr121.h **** 
  99:../libs/libDaisy/src/dev/mpr121.h ****         Config()
 100:../libs/libDaisy/src/dev/mpr121.h ****         {
 101:../libs/libDaisy/src/dev/mpr121.h ****             touch_threshold   = MPR121_TOUCH_THRESHOLD_DEFAULT;
 102:../libs/libDaisy/src/dev/mpr121.h ****             release_threshold = MPR121_RELEASE_THRESHOLD_DEFAULT;
 103:../libs/libDaisy/src/dev/mpr121.h ****         }
 104:../libs/libDaisy/src/dev/mpr121.h ****     };
 105:../libs/libDaisy/src/dev/mpr121.h **** 
 106:../libs/libDaisy/src/dev/mpr121.h ****     enum Result
 107:../libs/libDaisy/src/dev/mpr121.h ****     {
 108:../libs/libDaisy/src/dev/mpr121.h ****         OK = 0,
 109:../libs/libDaisy/src/dev/mpr121.h ****         ERR
ARM GAS  C:\Users\skipi\AppData\Local\Temp\cc6PZCfi.s 			page 48


 110:../libs/libDaisy/src/dev/mpr121.h ****     };
 111:../libs/libDaisy/src/dev/mpr121.h **** 
 112:../libs/libDaisy/src/dev/mpr121.h ****     /** Initialize the MPR121 device
 113:../libs/libDaisy/src/dev/mpr121.h ****         \param config Configuration settings
 114:../libs/libDaisy/src/dev/mpr121.h ****     */
 115:../libs/libDaisy/src/dev/mpr121.h ****     Result Init(Config config)
 116:../libs/libDaisy/src/dev/mpr121.h ****     {
 117:../libs/libDaisy/src/dev/mpr121.h ****         config_ = config;
 118:../libs/libDaisy/src/dev/mpr121.h **** 
 119:../libs/libDaisy/src/dev/mpr121.h ****         SetTransportErr(transport_.Init(config_.transport_config));
 120:../libs/libDaisy/src/dev/mpr121.h **** 
 121:../libs/libDaisy/src/dev/mpr121.h ****         // soft reset
 122:../libs/libDaisy/src/dev/mpr121.h ****         WriteRegister(MPR121_SOFTRESET, 0x63);
 123:../libs/libDaisy/src/dev/mpr121.h ****         System::Delay(1);
 124:../libs/libDaisy/src/dev/mpr121.h **** 
 125:../libs/libDaisy/src/dev/mpr121.h ****         WriteRegister(MPR121_ECR, 0x0);
 126:../libs/libDaisy/src/dev/mpr121.h **** 
 127:../libs/libDaisy/src/dev/mpr121.h ****         // this doesn't work for some reason...
 128:../libs/libDaisy/src/dev/mpr121.h ****         // uint8_t c = ReadRegister8(MPR121_CONFIG2);
 129:../libs/libDaisy/src/dev/mpr121.h **** 
 130:../libs/libDaisy/src/dev/mpr121.h ****         // if(c != 0x24)
 131:../libs/libDaisy/src/dev/mpr121.h ****         //     return ERR;
 132:../libs/libDaisy/src/dev/mpr121.h **** 
 133:../libs/libDaisy/src/dev/mpr121.h ****         SetThresholds(config_.touch_threshold, config_.release_threshold);
 134:../libs/libDaisy/src/dev/mpr121.h ****         WriteRegister(MPR121_MHDR, 0x01);
 135:../libs/libDaisy/src/dev/mpr121.h ****         WriteRegister(MPR121_NHDR, 0x01);
 136:../libs/libDaisy/src/dev/mpr121.h ****         WriteRegister(MPR121_NCLR, 0x0E);
 137:../libs/libDaisy/src/dev/mpr121.h ****         WriteRegister(MPR121_FDLR, 0x00);
 138:../libs/libDaisy/src/dev/mpr121.h **** 
 139:../libs/libDaisy/src/dev/mpr121.h ****         WriteRegister(MPR121_MHDF, 0x01);
 140:../libs/libDaisy/src/dev/mpr121.h ****         WriteRegister(MPR121_NHDF, 0x05);
 141:../libs/libDaisy/src/dev/mpr121.h ****         WriteRegister(MPR121_NCLF, 0x01);
 142:../libs/libDaisy/src/dev/mpr121.h ****         WriteRegister(MPR121_FDLF, 0x00);
 143:../libs/libDaisy/src/dev/mpr121.h **** 
 144:../libs/libDaisy/src/dev/mpr121.h ****         WriteRegister(MPR121_NHDT, 0x00);
 145:../libs/libDaisy/src/dev/mpr121.h ****         WriteRegister(MPR121_NCLT, 0x00);
 146:../libs/libDaisy/src/dev/mpr121.h ****         WriteRegister(MPR121_FDLT, 0x00);
 147:../libs/libDaisy/src/dev/mpr121.h **** 
 148:../libs/libDaisy/src/dev/mpr121.h ****         WriteRegister(MPR121_DEBOUNCE, 0);
 149:../libs/libDaisy/src/dev/mpr121.h ****         WriteRegister(MPR121_CONFIG1, 0x10); // default, 16uA charge current
 150:../libs/libDaisy/src/dev/mpr121.h ****         WriteRegister(MPR121_CONFIG2, 0x20); // 0.5uS encoding, 1ms period
 151:../libs/libDaisy/src/dev/mpr121.h **** 
 152:../libs/libDaisy/src/dev/mpr121.h ****         // autoconfig
 153:../libs/libDaisy/src/dev/mpr121.h ****         // WriteRegister(MPR121_AUTOCONFIG0, 0x0B);
 154:../libs/libDaisy/src/dev/mpr121.h **** 
 155:../libs/libDaisy/src/dev/mpr121.h ****         // correct values for Vdd = 3.3V
 156:../libs/libDaisy/src/dev/mpr121.h ****         // WriteRegister(MPR121_UPLIMIT, 200);     // ((Vdd - 0.7)/Vdd) * 256
 157:../libs/libDaisy/src/dev/mpr121.h ****         // WriteRegister(MPR121_TARGETLIMIT, 180); // UPLIMIT * 0.9
 158:../libs/libDaisy/src/dev/mpr121.h ****         // WriteRegister(MPR121_LOWLIMIT, 130);    // UPLIMIT * 0.65
 159:../libs/libDaisy/src/dev/mpr121.h ****         // autoconfig
 160:../libs/libDaisy/src/dev/mpr121.h **** 
 161:../libs/libDaisy/src/dev/mpr121.h ****         // enable X electrodes and start MPR121
 162:../libs/libDaisy/src/dev/mpr121.h ****         uint8_t ECR_SETTING
 163:../libs/libDaisy/src/dev/mpr121.h ****             = 0x80
 164:../libs/libDaisy/src/dev/mpr121.h ****               + 12; // 5 bits for baseline tracking & proximity disabled + X
 165:../libs/libDaisy/src/dev/mpr121.h ****                     // amount of electrodes running (12)
 166:../libs/libDaisy/src/dev/mpr121.h ****         WriteRegister(MPR121_ECR,
ARM GAS  C:\Users\skipi\AppData\Local\Temp\cc6PZCfi.s 			page 49


 167:../libs/libDaisy/src/dev/mpr121.h ****                       ECR_SETTING); // start with above ECR setting
 168:../libs/libDaisy/src/dev/mpr121.h **** 
 169:../libs/libDaisy/src/dev/mpr121.h ****         return GetTransportErr();
 170:../libs/libDaisy/src/dev/mpr121.h ****     }
 171:../libs/libDaisy/src/dev/mpr121.h **** 
 172:../libs/libDaisy/src/dev/mpr121.h ****     /** Set the touch and release thresholds for all 13 channels on the
 173:../libs/libDaisy/src/dev/mpr121.h ****         device to the passed values.
 174:../libs/libDaisy/src/dev/mpr121.h ****         \param      touch The touch threshold value from 0 to 255.
 175:../libs/libDaisy/src/dev/mpr121.h ****         \param      release The release threshold from 0 to 255.
 176:../libs/libDaisy/src/dev/mpr121.h ****     */
 177:../libs/libDaisy/src/dev/mpr121.h ****     void SetThresholds(uint8_t touch, uint8_t release)
 178:../libs/libDaisy/src/dev/mpr121.h ****     {
 179:../libs/libDaisy/src/dev/mpr121.h ****         // set all thresholds (the same)
 180:../libs/libDaisy/src/dev/mpr121.h ****         for(uint8_t i = 0; i < 12; i++)
 181:../libs/libDaisy/src/dev/mpr121.h ****         {
 182:../libs/libDaisy/src/dev/mpr121.h ****             WriteRegister(MPR121_TOUCHTH_0 + 2 * i, touch);
 183:../libs/libDaisy/src/dev/mpr121.h ****             WriteRegister(MPR121_RELEASETH_0 + 2 * i, release);
 184:../libs/libDaisy/src/dev/mpr121.h ****         }
 185:../libs/libDaisy/src/dev/mpr121.h ****     }
 186:../libs/libDaisy/src/dev/mpr121.h **** 
 187:../libs/libDaisy/src/dev/mpr121.h **** 
 188:../libs/libDaisy/src/dev/mpr121.h ****     /** Read the filtered data from channel t. The ADC raw data outputs
 189:../libs/libDaisy/src/dev/mpr121.h ****         run through 3 levels of digital filtering to filter out the high
 190:../libs/libDaisy/src/dev/mpr121.h ****         frequency and low frequency noise encountered. For detailed information on
 191:../libs/libDaisy/src/dev/mpr121.h ****         this filtering see page 6 of the device datasheet.
 192:../libs/libDaisy/src/dev/mpr121.h ****         \param      t the channel to read
 193:../libs/libDaisy/src/dev/mpr121.h ****         \returns    the filtered reading as a 10 bit unsigned value
 194:../libs/libDaisy/src/dev/mpr121.h ****     */
 195:../libs/libDaisy/src/dev/mpr121.h ****     uint16_t FilteredData(uint8_t t)
 196:../libs/libDaisy/src/dev/mpr121.h ****     {
 197:../libs/libDaisy/src/dev/mpr121.h ****         if(t > 12)
 198:../libs/libDaisy/src/dev/mpr121.h ****             return 0;
 199:../libs/libDaisy/src/dev/mpr121.h ****         return ReadRegister16(MPR121_FILTDATA_0L + t * 2);
 200:../libs/libDaisy/src/dev/mpr121.h ****     }
 201:../libs/libDaisy/src/dev/mpr121.h **** 
 202:../libs/libDaisy/src/dev/mpr121.h ****     /** Read the baseline value for the channel. The 3rd level filtered
 203:../libs/libDaisy/src/dev/mpr121.h ****         result is internally 10bit but only high 8 bits are readable
 204:../libs/libDaisy/src/dev/mpr121.h ****         from registers 0x1E~0x2A as the baseline value output for each channel.
 205:../libs/libDaisy/src/dev/mpr121.h ****         \param      t the channel to read.
 206:../libs/libDaisy/src/dev/mpr121.h ****         \returns    the baseline data that was read
 207:../libs/libDaisy/src/dev/mpr121.h ****     */
 208:../libs/libDaisy/src/dev/mpr121.h ****     uint16_t BaselineData(uint8_t t)
 209:../libs/libDaisy/src/dev/mpr121.h ****     {
 210:../libs/libDaisy/src/dev/mpr121.h ****         if(t > 12)
 211:../libs/libDaisy/src/dev/mpr121.h ****             return 0;
 212:../libs/libDaisy/src/dev/mpr121.h ****         uint16_t bl = ReadRegister8(MPR121_BASELINE_0 + t);
 213:../libs/libDaisy/src/dev/mpr121.h ****         return (bl << 2);
 214:../libs/libDaisy/src/dev/mpr121.h ****     }
 215:../libs/libDaisy/src/dev/mpr121.h **** 
 216:../libs/libDaisy/src/dev/mpr121.h ****     /** Read the touch status of all 13 channels as bit values in a 12 bit integer.
 217:../libs/libDaisy/src/dev/mpr121.h ****         \returns    a 12 bit integer with each bit corresponding to the touch status
 218:../libs/libDaisy/src/dev/mpr121.h ****         of a sensor. For example, if bit 0 is set then channel 0 of the
 219:../libs/libDaisy/src/dev/mpr121.h ****         device is currently deemed to be touched.
 220:../libs/libDaisy/src/dev/mpr121.h ****     */
 221:../libs/libDaisy/src/dev/mpr121.h ****     uint16_t Touched()
 222:../libs/libDaisy/src/dev/mpr121.h ****     {
 223:../libs/libDaisy/src/dev/mpr121.h ****         uint16_t t = ReadRegister16(MPR121_TOUCHSTATUS_L);
ARM GAS  C:\Users\skipi\AppData\Local\Temp\cc6PZCfi.s 			page 50


 224:../libs/libDaisy/src/dev/mpr121.h ****         return t & 0x0FFF;
 225:../libs/libDaisy/src/dev/mpr121.h ****     }
 226:../libs/libDaisy/src/dev/mpr121.h **** 
 227:../libs/libDaisy/src/dev/mpr121.h ****     /** Read the contents of an 8 bit device register.
 228:../libs/libDaisy/src/dev/mpr121.h ****         \param      reg the register address to read from
 229:../libs/libDaisy/src/dev/mpr121.h ****         \returns    the 8 bit value that was read.
 230:../libs/libDaisy/src/dev/mpr121.h ****     */
 231:../libs/libDaisy/src/dev/mpr121.h ****     uint8_t ReadRegister8(uint8_t reg)
 232:../libs/libDaisy/src/dev/mpr121.h ****     {
 233:../libs/libDaisy/src/dev/mpr121.h ****         uint8_t buff;
 234:../libs/libDaisy/src/dev/mpr121.h ****         SetTransportErr(transport_.Write(&reg, 1));
 235:../libs/libDaisy/src/dev/mpr121.h ****         SetTransportErr(transport_.Read(&buff, 1));
 236:../libs/libDaisy/src/dev/mpr121.h **** 
 237:../libs/libDaisy/src/dev/mpr121.h ****         return buff;
 238:../libs/libDaisy/src/dev/mpr121.h ****     }
 239:../libs/libDaisy/src/dev/mpr121.h **** 
 240:../libs/libDaisy/src/dev/mpr121.h ****     /** Read the contents of a 16 bit device register.
 241:../libs/libDaisy/src/dev/mpr121.h ****         \param      reg the register address to read from
 242:../libs/libDaisy/src/dev/mpr121.h ****         \returns    the 16 bit value that was read.
 243:../libs/libDaisy/src/dev/mpr121.h ****     */
 244:../libs/libDaisy/src/dev/mpr121.h ****     uint16_t ReadRegister16(uint8_t reg)
 245:../libs/libDaisy/src/dev/mpr121.h ****     {
 246:../libs/libDaisy/src/dev/mpr121.h ****         uint16_t buff;
 247:../libs/libDaisy/src/dev/mpr121.h ****         SetTransportErr(transport_.Write(&reg, 1));
 248:../libs/libDaisy/src/dev/mpr121.h ****         SetTransportErr(transport_.Read((uint8_t *)&buff, 2));
 249:../libs/libDaisy/src/dev/mpr121.h **** 
 250:../libs/libDaisy/src/dev/mpr121.h ****         return buff;
 251:../libs/libDaisy/src/dev/mpr121.h ****     }
 252:../libs/libDaisy/src/dev/mpr121.h **** 
 253:../libs/libDaisy/src/dev/mpr121.h ****     /** Writes 8-bits to the specified destination register
 254:../libs/libDaisy/src/dev/mpr121.h ****         \param  reg the register address to write to
 255:../libs/libDaisy/src/dev/mpr121.h ****         \param  value the value to write
 256:../libs/libDaisy/src/dev/mpr121.h ****     */
 257:../libs/libDaisy/src/dev/mpr121.h ****     void WriteRegister(uint8_t reg, uint8_t value)
 1599              		.loc 12 257 10 is_stmt 1 view -0
 1600              		.cfi_startproc
 1601              		@ args = 0, pretend = 0, frame = 8
 1602              		@ frame_needed = 0, uses_anonymous_args = 0
 1603              		.loc 12 257 10 is_stmt 0 view .LVU479
 1604 0000 2DE9F043 		push	{r4, r5, r6, r7, r8, r9, lr}
 1605              		.cfi_def_cfa_offset 28
 1606              		.cfi_offset 4, -28
 1607              		.cfi_offset 5, -24
 1608              		.cfi_offset 6, -20
 1609              		.cfi_offset 7, -16
 1610              		.cfi_offset 8, -12
 1611              		.cfi_offset 9, -8
 1612              		.cfi_offset 14, -4
 258:../libs/libDaisy/src/dev/mpr121.h ****     {
 259:../libs/libDaisy/src/dev/mpr121.h ****         // MPR121 must be put in Stop Mode to write to most registers
 260:../libs/libDaisy/src/dev/mpr121.h ****         bool stop_required = true;
 261:../libs/libDaisy/src/dev/mpr121.h **** 
 262:../libs/libDaisy/src/dev/mpr121.h ****         // first get the current set value of the MPR121_ECR register
 263:../libs/libDaisy/src/dev/mpr121.h ****         uint8_t ecr_reg = MPR121_ECR;
 264:../libs/libDaisy/src/dev/mpr121.h ****         uint8_t buff[2] = {ecr_reg, 0x00};
 1613              		.loc 12 264 17 view .LVU480
 1614 0004 0023     		movs	r3, #0
ARM GAS  C:\Users\skipi\AppData\Local\Temp\cc6PZCfi.s 			page 51


 257:../libs/libDaisy/src/dev/mpr121.h ****     {
 1615              		.loc 12 257 10 view .LVU481
 1616 0006 85B0     		sub	sp, sp, #20
 1617              		.cfi_def_cfa_offset 48
 1618              	.LBB549:
 1619              	.LBB550:
  66:../libs/libDaisy/src/dev/mpr121.h ****     }
 1620              		.loc 12 66 40 view .LVU482
 1621 0008 00F11806 		add	r6, r0, #24
 1622 000c 4FF00A08 		mov	r8, #10
 1623              	.LBE550:
 1624              	.LBE549:
 257:../libs/libDaisy/src/dev/mpr121.h ****     {
 1625              		.loc 12 257 10 view .LVU483
 1626 0010 0446     		mov	r4, r0
 1627              		.loc 12 264 17 view .LVU484
 1628 0012 4FF05E09 		mov	r9, #94
 257:../libs/libDaisy/src/dev/mpr121.h ****     {
 1629              		.loc 12 257 10 view .LVU485
 1630 0016 0D46     		mov	r5, r1
 1631              		.loc 12 264 17 view .LVU486
 1632 0018 8DF80D30 		strb	r3, [sp, #13]
 1633              	.LBB554:
 1634              	.LBB551:
  66:../libs/libDaisy/src/dev/mpr121.h ****     }
 1635              		.loc 12 66 40 view .LVU487
 1636 001c CDF80080 		str	r8, [sp]
 1637 0020 0123     		movs	r3, #1
 1638 0022 90F82C10 		ldrb	r1, [r0, #44]	@ zero_extendqisi2
 1639              	.LVL121:
  66:../libs/libDaisy/src/dev/mpr121.h ****     }
 1640              		.loc 12 66 40 view .LVU488
 1641              	.LBE551:
 1642              	.LBE554:
 257:../libs/libDaisy/src/dev/mpr121.h ****     {
 1643              		.loc 12 257 10 view .LVU489
 1644 0026 1746     		mov	r7, r2
 1645              	.LBB555:
 1646              	.LBB552:
  66:../libs/libDaisy/src/dev/mpr121.h ****     }
 1647              		.loc 12 66 40 view .LVU490
 1648 0028 3046     		mov	r0, r6
 1649              	.LVL122:
  66:../libs/libDaisy/src/dev/mpr121.h ****     }
 1650              		.loc 12 66 40 view .LVU491
 1651 002a 03AA     		add	r2, sp, #12
 1652              	.LVL123:
  66:../libs/libDaisy/src/dev/mpr121.h ****     }
 1653              		.loc 12 66 40 view .LVU492
 1654              	.LBE552:
 1655              	.LBE555:
 1656              		.loc 12 264 17 view .LVU493
 1657 002c 8DF80C90 		strb	r9, [sp, #12]
 1658              	.LVL124:
 1659              	.LBB556:
 1660              	.LBI549:
  63:../libs/libDaisy/src/dev/mpr121.h ****     {
ARM GAS  C:\Users\skipi\AppData\Local\Temp\cc6PZCfi.s 			page 52


 1661              		.loc 12 63 10 is_stmt 1 view .LVU494
 1662              	.LBB553:
  65:../libs/libDaisy/src/dev/mpr121.h ****                != i2c_.TransmitBlocking(config_.dev_addr, data, size, 10);
 1663              		.loc 12 65 9 view .LVU495
  66:../libs/libDaisy/src/dev/mpr121.h ****     }
 1664              		.loc 12 66 40 is_stmt 0 view .LVU496
 1665 0030 FFF7FEFF 		bl	_ZN5daisy9I2CHandle16TransmitBlockingEtPhtm
 1666              	.LVL125:
  66:../libs/libDaisy/src/dev/mpr121.h ****     }
 1667              		.loc 12 66 40 view .LVU497
 1668              	.LBE553:
 1669              	.LBE556:
 1670              	.LBB557:
 1671              	.LBI557:
 265:../libs/libDaisy/src/dev/mpr121.h **** 
 266:../libs/libDaisy/src/dev/mpr121.h ****         SetTransportErr(transport_.Write(buff, 1));
 267:../libs/libDaisy/src/dev/mpr121.h **** 
 268:../libs/libDaisy/src/dev/mpr121.h ****         uint8_t ecr_backup;
 269:../libs/libDaisy/src/dev/mpr121.h ****         SetTransportErr(transport_.Read(&ecr_backup, 1));
 270:../libs/libDaisy/src/dev/mpr121.h ****         if((reg == MPR121_ECR) || ((0x73 <= reg) && (reg <= 0x7A)))
 271:../libs/libDaisy/src/dev/mpr121.h ****         {
 272:../libs/libDaisy/src/dev/mpr121.h ****             stop_required = false;
 273:../libs/libDaisy/src/dev/mpr121.h ****         }
 274:../libs/libDaisy/src/dev/mpr121.h **** 
 275:../libs/libDaisy/src/dev/mpr121.h ****         if(stop_required)
 276:../libs/libDaisy/src/dev/mpr121.h ****         {
 277:../libs/libDaisy/src/dev/mpr121.h ****             // clear this register to set stop mode
 278:../libs/libDaisy/src/dev/mpr121.h ****             SetTransportErr(transport_.Write(buff, 2));
 279:../libs/libDaisy/src/dev/mpr121.h ****         }
 280:../libs/libDaisy/src/dev/mpr121.h **** 
 281:../libs/libDaisy/src/dev/mpr121.h ****         buff[0] = reg;
 282:../libs/libDaisy/src/dev/mpr121.h ****         buff[1] = value;
 283:../libs/libDaisy/src/dev/mpr121.h ****         SetTransportErr(transport_.Write(buff, 2));
 284:../libs/libDaisy/src/dev/mpr121.h **** 
 285:../libs/libDaisy/src/dev/mpr121.h ****         if(stop_required)
 286:../libs/libDaisy/src/dev/mpr121.h ****         {
 287:../libs/libDaisy/src/dev/mpr121.h ****             // write back the previous set ECR settings
 288:../libs/libDaisy/src/dev/mpr121.h ****             buff[0] = ecr_reg;
 289:../libs/libDaisy/src/dev/mpr121.h ****             buff[1] = ecr_backup;
 290:../libs/libDaisy/src/dev/mpr121.h ****             SetTransportErr(transport_.Write(buff, 2));
 291:../libs/libDaisy/src/dev/mpr121.h ****         }
 292:../libs/libDaisy/src/dev/mpr121.h ****     }
 293:../libs/libDaisy/src/dev/mpr121.h **** 
 294:../libs/libDaisy/src/dev/mpr121.h ****     /** Device register map */
 295:../libs/libDaisy/src/dev/mpr121.h ****     enum RegMap
 296:../libs/libDaisy/src/dev/mpr121.h ****     {
 297:../libs/libDaisy/src/dev/mpr121.h ****         MPR121_TOUCHSTATUS_L = 0x00,
 298:../libs/libDaisy/src/dev/mpr121.h ****         MPR121_TOUCHSTATUS_H = 0x01,
 299:../libs/libDaisy/src/dev/mpr121.h ****         MPR121_FILTDATA_0L   = 0x04,
 300:../libs/libDaisy/src/dev/mpr121.h ****         MPR121_FILTDATA_0H   = 0x05,
 301:../libs/libDaisy/src/dev/mpr121.h ****         MPR121_BASELINE_0    = 0x1E,
 302:../libs/libDaisy/src/dev/mpr121.h ****         MPR121_MHDR          = 0x2B,
 303:../libs/libDaisy/src/dev/mpr121.h ****         MPR121_NHDR          = 0x2C,
 304:../libs/libDaisy/src/dev/mpr121.h ****         MPR121_NCLR          = 0x2D,
 305:../libs/libDaisy/src/dev/mpr121.h ****         MPR121_FDLR          = 0x2E,
 306:../libs/libDaisy/src/dev/mpr121.h ****         MPR121_MHDF          = 0x2F,
 307:../libs/libDaisy/src/dev/mpr121.h ****         MPR121_NHDF          = 0x30,
ARM GAS  C:\Users\skipi\AppData\Local\Temp\cc6PZCfi.s 			page 53


 308:../libs/libDaisy/src/dev/mpr121.h ****         MPR121_NCLF          = 0x31,
 309:../libs/libDaisy/src/dev/mpr121.h ****         MPR121_FDLF          = 0x32,
 310:../libs/libDaisy/src/dev/mpr121.h ****         MPR121_NHDT          = 0x33,
 311:../libs/libDaisy/src/dev/mpr121.h ****         MPR121_NCLT          = 0x34,
 312:../libs/libDaisy/src/dev/mpr121.h ****         MPR121_FDLT          = 0x35,
 313:../libs/libDaisy/src/dev/mpr121.h **** 
 314:../libs/libDaisy/src/dev/mpr121.h ****         MPR121_TOUCHTH_0    = 0x41,
 315:../libs/libDaisy/src/dev/mpr121.h ****         MPR121_RELEASETH_0  = 0x42,
 316:../libs/libDaisy/src/dev/mpr121.h ****         MPR121_DEBOUNCE     = 0x5B,
 317:../libs/libDaisy/src/dev/mpr121.h ****         MPR121_CONFIG1      = 0x5C,
 318:../libs/libDaisy/src/dev/mpr121.h ****         MPR121_CONFIG2      = 0x5D,
 319:../libs/libDaisy/src/dev/mpr121.h ****         MPR121_CHARGECURR_0 = 0x5F,
 320:../libs/libDaisy/src/dev/mpr121.h ****         MPR121_CHARGETIME_1 = 0x6C,
 321:../libs/libDaisy/src/dev/mpr121.h ****         MPR121_ECR          = 0x5E,
 322:../libs/libDaisy/src/dev/mpr121.h ****         MPR121_AUTOCONFIG0  = 0x7B,
 323:../libs/libDaisy/src/dev/mpr121.h ****         MPR121_AUTOCONFIG1  = 0x7C,
 324:../libs/libDaisy/src/dev/mpr121.h ****         MPR121_UPLIMIT      = 0x7D,
 325:../libs/libDaisy/src/dev/mpr121.h ****         MPR121_LOWLIMIT     = 0x7E,
 326:../libs/libDaisy/src/dev/mpr121.h ****         MPR121_TARGETLIMIT  = 0x7F,
 327:../libs/libDaisy/src/dev/mpr121.h **** 
 328:../libs/libDaisy/src/dev/mpr121.h ****         MPR121_GPIODIR    = 0x76,
 329:../libs/libDaisy/src/dev/mpr121.h ****         MPR121_GPIOEN     = 0x77,
 330:../libs/libDaisy/src/dev/mpr121.h ****         MPR121_GPIOSET    = 0x78,
 331:../libs/libDaisy/src/dev/mpr121.h ****         MPR121_GPIOCLR    = 0x79,
 332:../libs/libDaisy/src/dev/mpr121.h ****         MPR121_GPIOTOGGLE = 0x7A,
 333:../libs/libDaisy/src/dev/mpr121.h **** 
 334:../libs/libDaisy/src/dev/mpr121.h ****         MPR121_SOFTRESET = 0x80,
 335:../libs/libDaisy/src/dev/mpr121.h ****     };
 336:../libs/libDaisy/src/dev/mpr121.h **** 
 337:../libs/libDaisy/src/dev/mpr121.h ****   private:
 338:../libs/libDaisy/src/dev/mpr121.h ****     Config    config_;
 339:../libs/libDaisy/src/dev/mpr121.h ****     Transport transport_;
 340:../libs/libDaisy/src/dev/mpr121.h ****     bool      transport_error_;
 341:../libs/libDaisy/src/dev/mpr121.h **** 
 342:../libs/libDaisy/src/dev/mpr121.h ****     /** Set the global transport_error_ bool */
 343:../libs/libDaisy/src/dev/mpr121.h ****     void SetTransportErr(bool err) { transport_error_ |= err; }
 1672              		.loc 12 343 10 is_stmt 1 view .LVU498
 1673              	.LBE557:
 1674              	.LBB561:
 1675              	.LBB562:
  73:../libs/libDaisy/src/dev/mpr121.h ****     }
 1676              		.loc 12 73 39 is_stmt 0 view .LVU499
 1677 0034 CDF80080 		str	r8, [sp]
 1678 0038 0DF10B02 		add	r2, sp, #11
 1679              	.LBE562:
 1680              	.LBE561:
 1681              	.LBB566:
 1682              	.LBB558:
 1683              		.loc 12 343 55 view .LVU500
 1684 003c 94F83030 		ldrb	r3, [r4, #48]	@ zero_extendqisi2
 1685              	.LBE558:
 1686              	.LBE566:
 1687              	.LBB567:
 1688              	.LBB563:
  73:../libs/libDaisy/src/dev/mpr121.h ****     }
 1689              		.loc 12 73 39 view .LVU501
 1690 0040 94F82C10 		ldrb	r1, [r4, #44]	@ zero_extendqisi2
ARM GAS  C:\Users\skipi\AppData\Local\Temp\cc6PZCfi.s 			page 54


 1691              	.LBE563:
 1692              	.LBE567:
 1693              	.LBB568:
 1694              	.LBB559:
 1695              		.loc 12 343 55 view .LVU502
 1696 0044 0028     		cmp	r0, #0
 1697 0046 18BF     		it	ne
 1698 0048 43F00103 		orrne	r3, r3, #1
 1699              	.LBE559:
 1700              	.LBE568:
 1701              	.LBB569:
 1702              	.LBB564:
  73:../libs/libDaisy/src/dev/mpr121.h ****     }
 1703              		.loc 12 73 39 view .LVU503
 1704 004c 3046     		mov	r0, r6
 1705              	.LVL126:
  73:../libs/libDaisy/src/dev/mpr121.h ****     }
 1706              		.loc 12 73 39 view .LVU504
 1707              	.LBE564:
 1708              	.LBE569:
 1709              	.LBB570:
 1710              	.LBB560:
 1711              		.loc 12 343 55 view .LVU505
 1712 004e 84F83030 		strb	r3, [r4, #48]
 1713              	.LVL127:
 1714              		.loc 12 343 55 view .LVU506
 1715              	.LBE560:
 1716              	.LBE570:
 1717              	.LBB571:
 1718              	.LBI561:
  70:../libs/libDaisy/src/dev/mpr121.h ****     {
 1719              		.loc 12 70 10 is_stmt 1 view .LVU507
 1720              	.LBB565:
  72:../libs/libDaisy/src/dev/mpr121.h ****                != i2c_.ReceiveBlocking(config_.dev_addr, data, size, 10);
 1721              		.loc 12 72 9 view .LVU508
  73:../libs/libDaisy/src/dev/mpr121.h ****     }
 1722              		.loc 12 73 39 is_stmt 0 view .LVU509
 1723 0052 0123     		movs	r3, #1
 1724 0054 FFF7FEFF 		bl	_ZN5daisy9I2CHandle15ReceiveBlockingEtPhtm
 1725              	.LVL128:
  73:../libs/libDaisy/src/dev/mpr121.h ****     }
 1726              		.loc 12 73 39 view .LVU510
 1727              	.LBE565:
 1728              	.LBE571:
 1729              	.LBB572:
 1730              	.LBI572:
 1731              		.loc 12 343 10 is_stmt 1 view .LVU511
 1732              	.LBB573:
 1733              		.loc 12 343 55 is_stmt 0 view .LVU512
 1734 0058 94F83030 		ldrb	r3, [r4, #48]	@ zero_extendqisi2
 1735 005c 0028     		cmp	r0, #0
 1736 005e 18BF     		it	ne
 1737 0060 43F00103 		orrne	r3, r3, #1
 1738 0064 84F83030 		strb	r3, [r4, #48]
 1739              	.LVL129:
 1740              		.loc 12 343 55 view .LVU513
 1741              	.LBE573:
ARM GAS  C:\Users\skipi\AppData\Local\Temp\cc6PZCfi.s 			page 55


 1742              	.LBE572:
 270:../libs/libDaisy/src/dev/mpr121.h ****         {
 1743              		.loc 12 270 50 view .LVU514
 1744 0068 A5F17303 		sub	r3, r5, #115
 270:../libs/libDaisy/src/dev/mpr121.h ****         {
 1745              		.loc 12 270 9 view .LVU515
 1746 006c 072B     		cmp	r3, #7
 1747 006e 01D9     		bls	.L27
 1748 0070 4D45     		cmp	r5, r9
 1749 0072 17D1     		bne	.L31
 1750              	.L27:
 1751              	.LVL130:
 1752              	.LBB574:
 1753              	.LBB575:
  66:../libs/libDaisy/src/dev/mpr121.h ****     }
 1754              		.loc 12 66 40 view .LVU516
 1755 0074 0A23     		movs	r3, #10
 1756 0076 03AA     		add	r2, sp, #12
 1757 0078 3046     		mov	r0, r6
 1758              	.LBE575:
 1759              	.LBE574:
 281:../libs/libDaisy/src/dev/mpr121.h ****         buff[1] = value;
 1760              		.loc 12 281 17 view .LVU517
 1761 007a 8DF80C50 		strb	r5, [sp, #12]
 1762              	.LBB584:
 1763              	.LBB576:
  66:../libs/libDaisy/src/dev/mpr121.h ****     }
 1764              		.loc 12 66 40 view .LVU518
 1765 007e 0093     		str	r3, [sp]
 1766 0080 0223     		movs	r3, #2
 1767              	.LBE576:
 1768              	.LBE584:
 282:../libs/libDaisy/src/dev/mpr121.h ****         SetTransportErr(transport_.Write(buff, 2));
 1769              		.loc 12 282 17 view .LVU519
 1770 0082 8DF80D70 		strb	r7, [sp, #13]
 1771              	.LVL131:
 1772              	.LBB585:
 1773              	.LBI574:
  63:../libs/libDaisy/src/dev/mpr121.h ****     {
 1774              		.loc 12 63 10 is_stmt 1 view .LVU520
 1775              	.LBB577:
  65:../libs/libDaisy/src/dev/mpr121.h ****                != i2c_.TransmitBlocking(config_.dev_addr, data, size, 10);
 1776              		.loc 12 65 9 view .LVU521
 1777              	.L30:
  66:../libs/libDaisy/src/dev/mpr121.h ****     }
 1778              		.loc 12 66 40 is_stmt 0 view .LVU522
 1779 0086 94F82C10 		ldrb	r1, [r4, #44]	@ zero_extendqisi2
 1780 008a FFF7FEFF 		bl	_ZN5daisy9I2CHandle16TransmitBlockingEtPhtm
 1781              	.LVL132:
  66:../libs/libDaisy/src/dev/mpr121.h ****     }
 1782              		.loc 12 66 40 view .LVU523
 1783              	.LBE577:
 1784              	.LBE585:
 1785              	.LBB586:
 1786              	.LBI586:
 1787              		.loc 12 343 10 is_stmt 1 view .LVU524
 1788              	.LBB587:
ARM GAS  C:\Users\skipi\AppData\Local\Temp\cc6PZCfi.s 			page 56


 1789              		.loc 12 343 55 is_stmt 0 view .LVU525
 1790 008e 94F83030 		ldrb	r3, [r4, #48]	@ zero_extendqisi2
 1791 0092 0028     		cmp	r0, #0
 1792 0094 18BF     		it	ne
 1793 0096 43F00103 		orrne	r3, r3, #1
 1794 009a 84F83030 		strb	r3, [r4, #48]
 1795              	.LVL133:
 1796              		.loc 12 343 55 view .LVU526
 1797              	.LBE587:
 1798              	.LBE586:
 292:../libs/libDaisy/src/dev/mpr121.h **** 
 1799              		.loc 12 292 5 view .LVU527
 1800 009e 05B0     		add	sp, sp, #20
 1801              		.cfi_remember_state
 1802              		.cfi_def_cfa_offset 28
 1803              		@ sp needed
 1804 00a0 BDE8F083 		pop	{r4, r5, r6, r7, r8, r9, pc}
 1805              	.LVL134:
 1806              	.L31:
 1807              		.cfi_restore_state
 1808              	.LBB591:
 1809              	.LBI591:
  63:../libs/libDaisy/src/dev/mpr121.h ****     {
 1810              		.loc 12 63 10 is_stmt 1 view .LVU528
 1811              	.LBB592:
  65:../libs/libDaisy/src/dev/mpr121.h ****                != i2c_.TransmitBlocking(config_.dev_addr, data, size, 10);
 1812              		.loc 12 65 9 view .LVU529
  66:../libs/libDaisy/src/dev/mpr121.h ****     }
 1813              		.loc 12 66 40 is_stmt 0 view .LVU530
 1814 00a4 0223     		movs	r3, #2
 1815 00a6 03AA     		add	r2, sp, #12
 1816              	.LVL135:
  66:../libs/libDaisy/src/dev/mpr121.h ****     }
 1817              		.loc 12 66 40 view .LVU531
 1818 00a8 CDF80080 		str	r8, [sp]
 1819 00ac 3046     		mov	r0, r6
 1820 00ae 94F82C10 		ldrb	r1, [r4, #44]	@ zero_extendqisi2
 1821 00b2 FFF7FEFF 		bl	_ZN5daisy9I2CHandle16TransmitBlockingEtPhtm
 1822              	.LVL136:
  66:../libs/libDaisy/src/dev/mpr121.h ****     }
 1823              		.loc 12 66 40 view .LVU532
 1824              	.LBE592:
 1825              	.LBE591:
 1826              	.LBB593:
 1827              	.LBI593:
 1828              		.loc 12 343 10 is_stmt 1 view .LVU533
 1829              	.LBE593:
 1830              	.LBB597:
 1831              	.LBB578:
  66:../libs/libDaisy/src/dev/mpr121.h ****     }
 1832              		.loc 12 66 40 is_stmt 0 view .LVU534
 1833 00b6 CDF80080 		str	r8, [sp]
 1834              	.LBE578:
 1835              	.LBE597:
 1836              	.LBB598:
 1837              	.LBB594:
 1838              		.loc 12 343 55 view .LVU535
ARM GAS  C:\Users\skipi\AppData\Local\Temp\cc6PZCfi.s 			page 57


 1839 00ba 94F83030 		ldrb	r3, [r4, #48]	@ zero_extendqisi2
 1840              	.LBE594:
 1841              	.LBE598:
 1842              	.LBB599:
 1843              	.LBB579:
  66:../libs/libDaisy/src/dev/mpr121.h ****     }
 1844              		.loc 12 66 40 view .LVU536
 1845 00be 03AA     		add	r2, sp, #12
 1846 00c0 94F82C10 		ldrb	r1, [r4, #44]	@ zero_extendqisi2
 1847              	.LBE579:
 1848              	.LBE599:
 1849              	.LBB600:
 1850              	.LBB595:
 1851              		.loc 12 343 55 view .LVU537
 1852 00c4 0028     		cmp	r0, #0
 1853 00c6 18BF     		it	ne
 1854 00c8 43F00103 		orrne	r3, r3, #1
 1855              	.LBE595:
 1856              	.LBE600:
 1857              	.LBB601:
 1858              	.LBB580:
  66:../libs/libDaisy/src/dev/mpr121.h ****     }
 1859              		.loc 12 66 40 view .LVU538
 1860 00cc 3046     		mov	r0, r6
 1861              	.LVL137:
  66:../libs/libDaisy/src/dev/mpr121.h ****     }
 1862              		.loc 12 66 40 view .LVU539
 1863              	.LBE580:
 1864              	.LBE601:
 281:../libs/libDaisy/src/dev/mpr121.h ****         buff[1] = value;
 1865              		.loc 12 281 17 view .LVU540
 1866 00ce 8DF80C50 		strb	r5, [sp, #12]
 1867              	.LBB602:
 1868              	.LBB596:
 1869              		.loc 12 343 55 view .LVU541
 1870 00d2 84F83030 		strb	r3, [r4, #48]
 1871              	.LVL138:
 1872              		.loc 12 343 55 view .LVU542
 1873              	.LBE596:
 1874              	.LBE602:
 1875              	.LBB603:
  63:../libs/libDaisy/src/dev/mpr121.h ****     {
 1876              		.loc 12 63 10 is_stmt 1 view .LVU543
 1877              	.LBB581:
  65:../libs/libDaisy/src/dev/mpr121.h ****                != i2c_.TransmitBlocking(config_.dev_addr, data, size, 10);
 1878              		.loc 12 65 9 view .LVU544
  66:../libs/libDaisy/src/dev/mpr121.h ****     }
 1879              		.loc 12 66 40 is_stmt 0 view .LVU545
 1880 00d6 0223     		movs	r3, #2
 1881              	.LBE581:
 1882              	.LBE603:
 282:../libs/libDaisy/src/dev/mpr121.h ****         SetTransportErr(transport_.Write(buff, 2));
 1883              		.loc 12 282 17 view .LVU546
 1884 00d8 8DF80D70 		strb	r7, [sp, #13]
 1885              	.LBB604:
 1886              	.LBB582:
  66:../libs/libDaisy/src/dev/mpr121.h ****     }
ARM GAS  C:\Users\skipi\AppData\Local\Temp\cc6PZCfi.s 			page 58


 1887              		.loc 12 66 40 view .LVU547
 1888 00dc FFF7FEFF 		bl	_ZN5daisy9I2CHandle16TransmitBlockingEtPhtm
 1889              	.LVL139:
  66:../libs/libDaisy/src/dev/mpr121.h ****     }
 1890              		.loc 12 66 40 view .LVU548
 1891              	.LBE582:
 1892              	.LBE604:
 1893              	.LBB605:
 1894              	.LBB606:
 1895 00e0 CDF80080 		str	r8, [sp]
 1896              	.LBE606:
 1897              	.LBE605:
 1898              	.LBB611:
 1899              	.LBB583:
 1900 00e4 0546     		mov	r5, r0
 1901              	.LVL140:
  66:../libs/libDaisy/src/dev/mpr121.h ****     }
 1902              		.loc 12 66 40 view .LVU549
 1903              	.LBE583:
 1904              	.LBE611:
 1905              	.LBB612:
 1906              		.loc 12 343 10 is_stmt 1 view .LVU550
 1907              	.LBB588:
 1908              		.loc 12 343 55 is_stmt 0 view .LVU551
 1909 00e6 94F83010 		ldrb	r1, [r4, #48]	@ zero_extendqisi2
 1910              	.LBE588:
 1911              	.LBE612:
 1912              	.LBB613:
 1913              	.LBB607:
  66:../libs/libDaisy/src/dev/mpr121.h ****     }
 1914              		.loc 12 66 40 view .LVU552
 1915 00ea 03AA     		add	r2, sp, #12
 1916              	.LBE607:
 1917              	.LBE613:
 289:../libs/libDaisy/src/dev/mpr121.h ****             SetTransportErr(transport_.Write(buff, 2));
 1918              		.loc 12 289 21 view .LVU553
 1919 00ec 9DF80B30 		ldrb	r3, [sp, #11]	@ zero_extendqisi2
 1920              	.LBB614:
 1921              	.LBB608:
  66:../libs/libDaisy/src/dev/mpr121.h ****     }
 1922              		.loc 12 66 40 view .LVU554
 1923 00f0 3046     		mov	r0, r6
 1924              	.LVL141:
  66:../libs/libDaisy/src/dev/mpr121.h ****     }
 1925              		.loc 12 66 40 view .LVU555
 1926              	.LBE608:
 1927              	.LBE614:
 1928              	.LBB615:
 1929              	.LBB589:
 1930              		.loc 12 343 55 view .LVU556
 1931 00f2 002D     		cmp	r5, #0
 1932 00f4 18BF     		it	ne
 1933 00f6 41F00101 		orrne	r1, r1, #1
 1934              	.LBE589:
 1935              	.LBE615:
 288:../libs/libDaisy/src/dev/mpr121.h ****             buff[1] = ecr_backup;
 1936              		.loc 12 288 21 view .LVU557
ARM GAS  C:\Users\skipi\AppData\Local\Temp\cc6PZCfi.s 			page 59


 1937 00fa 8DF80C90 		strb	r9, [sp, #12]
 289:../libs/libDaisy/src/dev/mpr121.h ****             SetTransportErr(transport_.Write(buff, 2));
 1938              		.loc 12 289 21 view .LVU558
 1939 00fe 8DF80D30 		strb	r3, [sp, #13]
 1940              	.LBB616:
 1941              	.LBB609:
  66:../libs/libDaisy/src/dev/mpr121.h ****     }
 1942              		.loc 12 66 40 view .LVU559
 1943 0102 0223     		movs	r3, #2
 1944              	.LBE609:
 1945              	.LBE616:
 1946              	.LBB617:
 1947              	.LBB590:
 1948              		.loc 12 343 55 view .LVU560
 1949 0104 84F83010 		strb	r1, [r4, #48]
 1950              	.LVL142:
 1951              		.loc 12 343 55 view .LVU561
 1952              	.LBE590:
 1953              	.LBE617:
 1954              	.LBB618:
 1955              	.LBI605:
  63:../libs/libDaisy/src/dev/mpr121.h ****     {
 1956              		.loc 12 63 10 is_stmt 1 view .LVU562
 1957              	.LBB610:
  65:../libs/libDaisy/src/dev/mpr121.h ****                != i2c_.TransmitBlocking(config_.dev_addr, data, size, 10);
 1958              		.loc 12 65 9 view .LVU563
 1959 0108 BDE7     		b	.L30
 1960              	.LBE610:
 1961              	.LBE618:
 1962              		.cfi_endproc
 1963              	.LFE5251:
 1965 010a 00BF     		.section	.text.startup.main,"ax",%progbits
 1966              		.align	1
 1967              		.p2align 2,,3
 1968              		.global	main
 1969              		.syntax unified
 1970              		.thumb
 1971              		.thumb_func
 1972              		.fpu fpv5-d16
 1974              	main:
 1975              	.LFB4816:
 199:src/PianoB.cpp **** 
 200:src/PianoB.cpp **** 
 201:src/PianoB.cpp **** 
 202:src/PianoB.cpp **** 
 203:src/PianoB.cpp **** 
 204:src/PianoB.cpp **** int main() {
 1976              		.loc 10 204 12 view -0
 1977              		.cfi_startproc
 1978              		@ args = 0, pretend = 0, frame = 120
 1979              		@ frame_needed = 0, uses_anonymous_args = 0
 205:src/PianoB.cpp ****     hw.Configure();                                                             // Hardware configu
 1980              		.loc 10 205 5 view .LVU565
 204:src/PianoB.cpp ****     hw.Configure();                                                             // Hardware configu
 1981              		.loc 10 204 12 is_stmt 0 view .LVU566
 1982 0000 2DE9F04F 		push	{r4, r5, r6, r7, r8, r9, r10, fp, lr}
 1983              		.cfi_def_cfa_offset 36
ARM GAS  C:\Users\skipi\AppData\Local\Temp\cc6PZCfi.s 			page 60


 1984              		.cfi_offset 4, -36
 1985              		.cfi_offset 5, -32
 1986              		.cfi_offset 6, -28
 1987              		.cfi_offset 7, -24
 1988              		.cfi_offset 8, -20
 1989              		.cfi_offset 9, -16
 1990              		.cfi_offset 10, -12
 1991              		.cfi_offset 11, -8
 1992              		.cfi_offset 14, -4
 206:src/PianoB.cpp ****     hw.Init();                                                                  // Hardware initial
 207:src/PianoB.cpp **** 
 208:src/PianoB.cpp ****     hw.StartLog (true); /* true == wait for PC: will block until a terminal is connected */
 209:src/PianoB.cpp **** 	hw.DelayMs(100);
 210:src/PianoB.cpp ****     Pin pin_scl = {PORTB, 8};
 211:src/PianoB.cpp **** 	Pin pin_sda = {PORTB, 9};
 212:src/PianoB.cpp **** 	I2CHandle::Config i2c_conf;
 213:src/PianoB.cpp **** 	i2c_conf.periph = I2CHandle::Config::Peripheral::I2C_1;
 1993              		.loc 10 213 18 view .LVU567
 1994 0004 0024     		movs	r4, #0
 214:src/PianoB.cpp **** 	i2c_conf.speed  = I2CHandle::Config::Speed::I2C_400KHZ;
 1995              		.loc 10 214 18 view .LVU568
 1996 0006 4FF00108 		mov	r8, #1
 205:src/PianoB.cpp ****     hw.Init();                                                                  // Hardware initial
 1997              		.loc 10 205 17 view .LVU569
 1998 000a C848     		ldr	r0, .L62
 1999              	.LBB807:
 2000              	.LBB808:
 2001              		.file 13 "../libs/libDaisy/src/per/i2c.h"
   1:../libs/libDaisy/src/per/i2c.h **** #pragma once
   2:../libs/libDaisy/src/per/i2c.h **** #include "util/hal_map.h"
   3:../libs/libDaisy/src/per/i2c.h **** #include "daisy_core.h"
   4:../libs/libDaisy/src/per/i2c.h **** 
   5:../libs/libDaisy/src/per/i2c.h **** namespace daisy
   6:../libs/libDaisy/src/per/i2c.h **** {
   7:../libs/libDaisy/src/per/i2c.h **** /** A handle for interacting with an I2C peripheral. This is a dumb
   8:../libs/libDaisy/src/per/i2c.h ****  *  gateway that internally points to one of the four I2C peripherals
   9:../libs/libDaisy/src/per/i2c.h ****  *  after it was initialised. It can then be copied and passed around.
  10:../libs/libDaisy/src/per/i2c.h ****  *  Use an I2CHandle like this:
  11:../libs/libDaisy/src/per/i2c.h ****  *  
  12:../libs/libDaisy/src/per/i2c.h ****  *      // setup the configuration
  13:../libs/libDaisy/src/per/i2c.h ****  *      I2CHandle::Config i2c_conf;
  14:../libs/libDaisy/src/per/i2c.h ****  *      i2c_conf.periph = I2CHandle::Config::Peripheral::I2C_1;
  15:../libs/libDaisy/src/per/i2c.h ****  *      i2c_conf.speed  = I2CHandle::Config::Speed::I2C_400KHZ;
  16:../libs/libDaisy/src/per/i2c.h ****  *      i2c_conf.mode   = I2CHandle::Config::Mode::Master;
  17:../libs/libDaisy/src/per/i2c.h ****  *      i2c_conf.pin_config.scl  = {DSY_GPIOB, 8};
  18:../libs/libDaisy/src/per/i2c.h ****  *      i2c_conf.pin_config.sda  = {DSY_GPIOB, 9};
  19:../libs/libDaisy/src/per/i2c.h ****  *      // initialise the peripheral
  20:../libs/libDaisy/src/per/i2c.h ****  *      I2CHandle i2c;
  21:../libs/libDaisy/src/per/i2c.h ****  *      i2c.Init(i2c_conf);
  22:../libs/libDaisy/src/per/i2c.h ****  *      // now i2c points to the corresponding peripheral and can be used.
  23:../libs/libDaisy/src/per/i2c.h ****  *      i2c.TransmitBlocking( ... );
  24:../libs/libDaisy/src/per/i2c.h ****  */
  25:../libs/libDaisy/src/per/i2c.h **** class I2CHandle
  26:../libs/libDaisy/src/per/i2c.h **** {
  27:../libs/libDaisy/src/per/i2c.h ****   public:
  28:../libs/libDaisy/src/per/i2c.h ****     /** Contains settings for initialising an I2C interface. */
  29:../libs/libDaisy/src/per/i2c.h ****     struct Config
ARM GAS  C:\Users\skipi\AppData\Local\Temp\cc6PZCfi.s 			page 61


 2002              		.loc 13 29 12 view .LVU570
 2003 000c 1026     		movs	r6, #16
 2004              	.LBB809:
 2005              	.LBB810:
 2006              	.LBB811:
 2007              		.file 14 "../libs/libDaisy/src/daisy_core.h"
   1:../libs/libDaisy/src/daisy_core.h **** #pragma once
   2:../libs/libDaisy/src/daisy_core.h **** #ifndef DSY_CORE_HW_H
   3:../libs/libDaisy/src/daisy_core.h **** #define DSY_CORE_HW_H /**< & */
   4:../libs/libDaisy/src/daisy_core.h **** #include <stdint.h>
   5:../libs/libDaisy/src/daisy_core.h **** #include <stdlib.h>
   6:../libs/libDaisy/src/daisy_core.h **** 
   7:../libs/libDaisy/src/daisy_core.h **** #if defined(_MSC_VER)
   8:../libs/libDaisy/src/daisy_core.h **** #define FORCE_INLINE __forceinline /**< & */
   9:../libs/libDaisy/src/daisy_core.h **** #elif defined(__clang__)
  10:../libs/libDaisy/src/daisy_core.h **** #define FORCE_INLINE inline __attribute__((always_inline)) /**< & */
  11:../libs/libDaisy/src/daisy_core.h **** #pragma clang diagnostic ignored "-Wduplicate-decl-specifier"
  12:../libs/libDaisy/src/daisy_core.h **** #elif defined(__GNUC__)
  13:../libs/libDaisy/src/daisy_core.h **** #define FORCE_INLINE inline __attribute__((always_inline)) /**< & */
  14:../libs/libDaisy/src/daisy_core.h **** #else
  15:../libs/libDaisy/src/daisy_core.h **** #error unknown compiler
  16:../libs/libDaisy/src/daisy_core.h **** #endif
  17:../libs/libDaisy/src/daisy_core.h **** 
  18:../libs/libDaisy/src/daisy_core.h **** /** @addtogroup utility
  19:../libs/libDaisy/src/daisy_core.h ****     @{
  20:../libs/libDaisy/src/daisy_core.h **** */
  21:../libs/libDaisy/src/daisy_core.h **** 
  22:../libs/libDaisy/src/daisy_core.h **** /** Macro for area of memory that is configured as cacheless
  23:../libs/libDaisy/src/daisy_core.h **** This should be used primarily for DMA buffers, and the like.
  24:../libs/libDaisy/src/daisy_core.h **** */
  25:../libs/libDaisy/src/daisy_core.h **** #define DMA_BUFFER_MEM_SECTION __attribute__((section(".sram1_bss")))
  26:../libs/libDaisy/src/daisy_core.h **** /** 
  27:../libs/libDaisy/src/daisy_core.h **** THE DTCM RAM section is also non-cached. However, is not suitable 
  28:../libs/libDaisy/src/daisy_core.h **** for DMA transfers. Performance is on par with internal SRAM w/ 
  29:../libs/libDaisy/src/daisy_core.h **** cache enabled.
  30:../libs/libDaisy/src/daisy_core.h **** */
  31:../libs/libDaisy/src/daisy_core.h **** #define DTCM_MEM_SECTION __attribute__((section(".dtcmram_bss")))
  32:../libs/libDaisy/src/daisy_core.h **** 
  33:../libs/libDaisy/src/daisy_core.h **** #define FBIPMAX 0.999985f             /**< close to 1.0f-LSB at 16 bit */
  34:../libs/libDaisy/src/daisy_core.h **** #define FBIPMIN (-FBIPMAX)            /**< - (1 - LSB) */
  35:../libs/libDaisy/src/daisy_core.h **** #define U82F_SCALE 0.0078740f         /**< 1 / 127 */
  36:../libs/libDaisy/src/daisy_core.h **** #define F2U8_SCALE 127.0f             /**< 128 - 1 */
  37:../libs/libDaisy/src/daisy_core.h **** #define S82F_SCALE 0.0078125f         /**< 1 / (2**7) */
  38:../libs/libDaisy/src/daisy_core.h **** #define F2S8_SCALE 127.0f             /**< (2 ** 7) - 1 */
  39:../libs/libDaisy/src/daisy_core.h **** #define S162F_SCALE 3.0517578125e-05f /**< 1 / (2** 15) */
  40:../libs/libDaisy/src/daisy_core.h **** #define F2S16_SCALE 32767.0f          /**< (2 ** 15) - 1 */
  41:../libs/libDaisy/src/daisy_core.h **** #define F2S24_SCALE 8388608.0f        /**< 2 ** 23 */
  42:../libs/libDaisy/src/daisy_core.h **** #define S242F_SCALE 1.192092896e-07f  /**< 1 / (2 ** 23) */
  43:../libs/libDaisy/src/daisy_core.h **** #define S24SIGN 0x800000              /**< 2 ** 23 */
  44:../libs/libDaisy/src/daisy_core.h **** #define S322F_SCALE 4.6566129e-10f    /**< 1 / (2** 31) */
  45:../libs/libDaisy/src/daisy_core.h **** #define F2S32_SCALE 2147483647.f      /**< (2 ** 31) - 1 */
  46:../libs/libDaisy/src/daisy_core.h **** 
  47:../libs/libDaisy/src/daisy_core.h **** 
  48:../libs/libDaisy/src/daisy_core.h **** /** shorthand macro for simplifying the reading of the left 
  49:../libs/libDaisy/src/daisy_core.h ****  *  channel of a non-interleaved output buffer named out */
  50:../libs/libDaisy/src/daisy_core.h **** #define OUT_L out[0]
  51:../libs/libDaisy/src/daisy_core.h **** 
ARM GAS  C:\Users\skipi\AppData\Local\Temp\cc6PZCfi.s 			page 62


  52:../libs/libDaisy/src/daisy_core.h **** /** shorthand macro for simplifying the reading of the right 
  53:../libs/libDaisy/src/daisy_core.h ****  *  channel of a non-interleaved output buffer named out */
  54:../libs/libDaisy/src/daisy_core.h **** #define OUT_R out[1]
  55:../libs/libDaisy/src/daisy_core.h **** 
  56:../libs/libDaisy/src/daisy_core.h **** /** shorthand macro for simplifying the reading of the left 
  57:../libs/libDaisy/src/daisy_core.h ****  *  channel of a non-interleaved input buffer named in */
  58:../libs/libDaisy/src/daisy_core.h **** #define IN_L in[0]
  59:../libs/libDaisy/src/daisy_core.h **** 
  60:../libs/libDaisy/src/daisy_core.h **** /** shorthand macro for simplifying the reading of the right 
  61:../libs/libDaisy/src/daisy_core.h ****  *  channel of a non-interleaved input buffer named in */
  62:../libs/libDaisy/src/daisy_core.h **** #define IN_R in[1]
  63:../libs/libDaisy/src/daisy_core.h **** 
  64:../libs/libDaisy/src/daisy_core.h **** /** 
  65:../libs/libDaisy/src/daisy_core.h ****     Computes cube.
  66:../libs/libDaisy/src/daisy_core.h ****     \param x Number to be cubed
  67:../libs/libDaisy/src/daisy_core.h ****     \return x ^ 3
  68:../libs/libDaisy/src/daisy_core.h **** */
  69:../libs/libDaisy/src/daisy_core.h **** FORCE_INLINE float cube(float x)
  70:../libs/libDaisy/src/daisy_core.h **** {
  71:../libs/libDaisy/src/daisy_core.h ****     return (x * x) * x;
  72:../libs/libDaisy/src/daisy_core.h **** }
  73:../libs/libDaisy/src/daisy_core.h **** 
  74:../libs/libDaisy/src/daisy_core.h **** /** 
  75:../libs/libDaisy/src/daisy_core.h ****     Converts unsigned 8-bit to float
  76:../libs/libDaisy/src/daisy_core.h ****     \param x Number to be scaled.
  77:../libs/libDaisy/src/daisy_core.h ****     \return Scaled number.
  78:../libs/libDaisy/src/daisy_core.h **** */
  79:../libs/libDaisy/src/daisy_core.h **** FORCE_INLINE float u82f(uint8_t x)
  80:../libs/libDaisy/src/daisy_core.h **** {
  81:../libs/libDaisy/src/daisy_core.h ****     return ((float)x - 127.f) * U82F_SCALE;
  82:../libs/libDaisy/src/daisy_core.h **** }
  83:../libs/libDaisy/src/daisy_core.h **** 
  84:../libs/libDaisy/src/daisy_core.h **** /**
  85:../libs/libDaisy/src/daisy_core.h ****     Converts float to unsigned 8-bit
  86:../libs/libDaisy/src/daisy_core.h **** */
  87:../libs/libDaisy/src/daisy_core.h **** FORCE_INLINE uint8_t f2u8(float x)
  88:../libs/libDaisy/src/daisy_core.h **** {
  89:../libs/libDaisy/src/daisy_core.h ****     x = x <= FBIPMIN ? FBIPMIN : x;
  90:../libs/libDaisy/src/daisy_core.h ****     x = x >= FBIPMAX ? FBIPMAX : x;
  91:../libs/libDaisy/src/daisy_core.h ****     return (uint8_t)((x * F2U8_SCALE) + F2U8_SCALE);
  92:../libs/libDaisy/src/daisy_core.h **** }
  93:../libs/libDaisy/src/daisy_core.h **** 
  94:../libs/libDaisy/src/daisy_core.h **** 
  95:../libs/libDaisy/src/daisy_core.h **** /** 
  96:../libs/libDaisy/src/daisy_core.h ****     Converts Signed 8-bit to float
  97:../libs/libDaisy/src/daisy_core.h ****     \param x Number to be scaled.
  98:../libs/libDaisy/src/daisy_core.h ****     \return Scaled number.
  99:../libs/libDaisy/src/daisy_core.h **** */
 100:../libs/libDaisy/src/daisy_core.h **** FORCE_INLINE float s82f(int8_t x)
 101:../libs/libDaisy/src/daisy_core.h **** {
 102:../libs/libDaisy/src/daisy_core.h ****     return (float)x * S82F_SCALE;
 103:../libs/libDaisy/src/daisy_core.h **** }
 104:../libs/libDaisy/src/daisy_core.h **** 
 105:../libs/libDaisy/src/daisy_core.h **** /**
 106:../libs/libDaisy/src/daisy_core.h ****     Converts float to Signed 8-bit
 107:../libs/libDaisy/src/daisy_core.h **** */
 108:../libs/libDaisy/src/daisy_core.h **** FORCE_INLINE int8_t f2s8(float x)
ARM GAS  C:\Users\skipi\AppData\Local\Temp\cc6PZCfi.s 			page 63


 109:../libs/libDaisy/src/daisy_core.h **** {
 110:../libs/libDaisy/src/daisy_core.h ****     x = x <= FBIPMIN ? FBIPMIN : x;
 111:../libs/libDaisy/src/daisy_core.h ****     x = x >= FBIPMAX ? FBIPMAX : x;
 112:../libs/libDaisy/src/daisy_core.h ****     return (int32_t)(x * F2S8_SCALE);
 113:../libs/libDaisy/src/daisy_core.h **** }
 114:../libs/libDaisy/src/daisy_core.h **** 
 115:../libs/libDaisy/src/daisy_core.h **** /** 
 116:../libs/libDaisy/src/daisy_core.h ****     Converts Signed 16-bit to float
 117:../libs/libDaisy/src/daisy_core.h ****     \param x Number to be scaled.
 118:../libs/libDaisy/src/daisy_core.h ****     \return Scaled number.
 119:../libs/libDaisy/src/daisy_core.h **** */
 120:../libs/libDaisy/src/daisy_core.h **** FORCE_INLINE float s162f(int16_t x)
 121:../libs/libDaisy/src/daisy_core.h **** {
 122:../libs/libDaisy/src/daisy_core.h ****     return (float)x * S162F_SCALE;
 123:../libs/libDaisy/src/daisy_core.h **** }
 124:../libs/libDaisy/src/daisy_core.h **** 
 125:../libs/libDaisy/src/daisy_core.h **** /**
 126:../libs/libDaisy/src/daisy_core.h ****     Converts float to Signed 16-bit
 127:../libs/libDaisy/src/daisy_core.h **** */
 128:../libs/libDaisy/src/daisy_core.h **** FORCE_INLINE int16_t f2s16(float x)
 129:../libs/libDaisy/src/daisy_core.h **** {
 130:../libs/libDaisy/src/daisy_core.h ****     x = x <= FBIPMIN ? FBIPMIN : x;
 131:../libs/libDaisy/src/daisy_core.h ****     x = x >= FBIPMAX ? FBIPMAX : x;
 132:../libs/libDaisy/src/daisy_core.h ****     return (int32_t)(x * F2S16_SCALE);
 133:../libs/libDaisy/src/daisy_core.h **** }
 134:../libs/libDaisy/src/daisy_core.h **** 
 135:../libs/libDaisy/src/daisy_core.h **** /**
 136:../libs/libDaisy/src/daisy_core.h ****     Converts Signed 24-bit to float
 137:../libs/libDaisy/src/daisy_core.h ****  */
 138:../libs/libDaisy/src/daisy_core.h **** FORCE_INLINE float s242f(int32_t x)
 139:../libs/libDaisy/src/daisy_core.h **** {
 140:../libs/libDaisy/src/daisy_core.h ****     x = (x ^ S24SIGN) - S24SIGN; //sign extend aka ((x<<8)>>8)
 141:../libs/libDaisy/src/daisy_core.h ****     return (float)x * S242F_SCALE;
 142:../libs/libDaisy/src/daisy_core.h **** }
 143:../libs/libDaisy/src/daisy_core.h **** /**
 144:../libs/libDaisy/src/daisy_core.h ****     Converts float to Signed 24-bit
 145:../libs/libDaisy/src/daisy_core.h ****  */
 146:../libs/libDaisy/src/daisy_core.h **** FORCE_INLINE int32_t f2s24(float x)
 147:../libs/libDaisy/src/daisy_core.h **** {
 148:../libs/libDaisy/src/daisy_core.h ****     x = x <= FBIPMIN ? FBIPMIN : x;
 149:../libs/libDaisy/src/daisy_core.h ****     x = x >= FBIPMAX ? FBIPMAX : x;
 150:../libs/libDaisy/src/daisy_core.h ****     return (int32_t)(x * F2S24_SCALE);
 151:../libs/libDaisy/src/daisy_core.h **** }
 152:../libs/libDaisy/src/daisy_core.h **** 
 153:../libs/libDaisy/src/daisy_core.h **** /**
 154:../libs/libDaisy/src/daisy_core.h ****     Converts Signed 32-bit to float
 155:../libs/libDaisy/src/daisy_core.h ****  */
 156:../libs/libDaisy/src/daisy_core.h **** FORCE_INLINE float s322f(int32_t x)
 157:../libs/libDaisy/src/daisy_core.h **** {
 158:../libs/libDaisy/src/daisy_core.h ****     return (float)x * S322F_SCALE;
 159:../libs/libDaisy/src/daisy_core.h **** }
 160:../libs/libDaisy/src/daisy_core.h **** /**
 161:../libs/libDaisy/src/daisy_core.h ****     Converts float to Signed 24-bit
 162:../libs/libDaisy/src/daisy_core.h ****  */
 163:../libs/libDaisy/src/daisy_core.h **** FORCE_INLINE int32_t f2s32(float x)
 164:../libs/libDaisy/src/daisy_core.h **** {
 165:../libs/libDaisy/src/daisy_core.h ****     x = x <= FBIPMIN ? FBIPMIN : x;
ARM GAS  C:\Users\skipi\AppData\Local\Temp\cc6PZCfi.s 			page 64


 166:../libs/libDaisy/src/daisy_core.h ****     x = x >= FBIPMAX ? FBIPMAX : x;
 167:../libs/libDaisy/src/daisy_core.h ****     return (int32_t)(x * F2S32_SCALE);
 168:../libs/libDaisy/src/daisy_core.h **** }
 169:../libs/libDaisy/src/daisy_core.h **** 
 170:../libs/libDaisy/src/daisy_core.h **** #ifdef __cplusplus
 171:../libs/libDaisy/src/daisy_core.h **** 
 172:../libs/libDaisy/src/daisy_core.h **** namespace daisy
 173:../libs/libDaisy/src/daisy_core.h **** {
 174:../libs/libDaisy/src/daisy_core.h **** /** @brief GPIO Port names */
 175:../libs/libDaisy/src/daisy_core.h **** enum GPIOPort
 176:../libs/libDaisy/src/daisy_core.h **** {
 177:../libs/libDaisy/src/daisy_core.h ****     PORTA, /**< Port A */
 178:../libs/libDaisy/src/daisy_core.h ****     PORTB, /**< Port B */
 179:../libs/libDaisy/src/daisy_core.h ****     PORTC, /**< Port C */
 180:../libs/libDaisy/src/daisy_core.h ****     PORTD, /**< Port D */
 181:../libs/libDaisy/src/daisy_core.h ****     PORTE, /**< Port E */
 182:../libs/libDaisy/src/daisy_core.h ****     PORTF, /**< Port F */
 183:../libs/libDaisy/src/daisy_core.h ****     PORTG, /**< Port G */
 184:../libs/libDaisy/src/daisy_core.h ****     PORTH, /**< Port H */
 185:../libs/libDaisy/src/daisy_core.h ****     PORTI, /**< Port I */
 186:../libs/libDaisy/src/daisy_core.h ****     PORTJ, /**< Port J */
 187:../libs/libDaisy/src/daisy_core.h ****     PORTK, /**< Port K */
 188:../libs/libDaisy/src/daisy_core.h ****     PORTX, /**< Used as a dummy port to signal an invalid pin. */
 189:../libs/libDaisy/src/daisy_core.h **** };
 190:../libs/libDaisy/src/daisy_core.h **** 
 191:../libs/libDaisy/src/daisy_core.h **** /** @brief representation of hardware port/pin combination */
 192:../libs/libDaisy/src/daisy_core.h **** struct Pin
 193:../libs/libDaisy/src/daisy_core.h **** {
 194:../libs/libDaisy/src/daisy_core.h ****     GPIOPort port;
 195:../libs/libDaisy/src/daisy_core.h ****     uint8_t  pin;
 196:../libs/libDaisy/src/daisy_core.h **** 
 197:../libs/libDaisy/src/daisy_core.h ****     /** @brief Constructor creates a valid pin. 
 198:../libs/libDaisy/src/daisy_core.h ****      *  @param pt GPIOPort between PA, and PK corresponding to STM32 Port.
 199:../libs/libDaisy/src/daisy_core.h ****      *  @param pn pin number in range of 0-15
 200:../libs/libDaisy/src/daisy_core.h ****     */
 201:../libs/libDaisy/src/daisy_core.h ****     constexpr Pin(const GPIOPort pt, const uint8_t pn) : port(pt), pin(pn) {}
 202:../libs/libDaisy/src/daisy_core.h **** 
 203:../libs/libDaisy/src/daisy_core.h ****     /** @brief Basic Constructor creates an invalid Pin object */
 204:../libs/libDaisy/src/daisy_core.h ****     constexpr Pin() : port(PORTX), pin(255) {}
 2008              		.loc 14 204 21 view .LVU571
 2009 000e C84D     		ldr	r5, .L62+4
 2010              	.LBE811:
 2011              	.LBE810:
 2012              	.LBE809:
 2013              	.LBE808:
 2014              	.LBE807:
 2015              	.LBB821:
 2016              	.LBB822:
  90:../libs/libDaisy/src/dev/mpr121.h ****     ~Mpr121() {}
 2017              		.loc 12 90 5 view .LVU572
 2018 0010 4FF05A09 		mov	r9, #90
 2019              	.LBE822:
 2020              	.LBE821:
 204:src/PianoB.cpp ****     hw.Configure();                                                             // Hardware configu
 2021              		.loc 10 204 12 view .LVU573
 2022 0014 2DED048B 		vpush.64	{d8, d9}
 2023              		.cfi_def_cfa_offset 52
ARM GAS  C:\Users\skipi\AppData\Local\Temp\cc6PZCfi.s 			page 65


 2024              		.cfi_offset 80, -52
 2025              		.cfi_offset 81, -48
 2026              		.cfi_offset 82, -44
 2027              		.cfi_offset 83, -40
 2028 0018 A1B0     		sub	sp, sp, #132
 2029              		.cfi_def_cfa_offset 184
 205:src/PianoB.cpp ****     hw.Init();                                                                  // Hardware initial
 2030              		.loc 10 205 17 view .LVU574
 2031 001a FFF7FEFF 		bl	_ZN5daisy9DaisySeed9ConfigureEv
 2032              	.LVL143:
 206:src/PianoB.cpp **** 
 2033              		.loc 10 206 5 is_stmt 1 view .LVU575
 206:src/PianoB.cpp **** 
 2034              		.loc 10 206 12 is_stmt 0 view .LVU576
 2035 001e 2146     		mov	r1, r4
 2036 0020 C248     		ldr	r0, .L62
 2037 0022 09AF     		add	r7, sp, #36
 2038 0024 FFF7FEFF 		bl	_ZN5daisy9DaisySeed4InitEb
 2039              	.LVL144:
 208:src/PianoB.cpp **** 	hw.DelayMs(100);
 2040              		.loc 10 208 5 is_stmt 1 view .LVU577
 2041              	.LBB870:
 2042              	.LBI870:
  23:../libs/libDaisy/src/daisy_seed.h **** 
  24:../libs/libDaisy/src/daisy_seed.h ****     /** This function used to provide a pre-initialization configuraiton 
  25:../libs/libDaisy/src/daisy_seed.h ****      *  it has since been deprecated, and does nothing.
  26:../libs/libDaisy/src/daisy_seed.h ****      */
  27:../libs/libDaisy/src/daisy_seed.h ****     void Configure();
  28:../libs/libDaisy/src/daisy_seed.h **** 
  29:../libs/libDaisy/src/daisy_seed.h ****     /** 
  30:../libs/libDaisy/src/daisy_seed.h ****     Initializes the Daisy Seed and the following peripherals:
  31:../libs/libDaisy/src/daisy_seed.h ****     SDRAM, QSPI, 24-bit 48kHz Audio via AK4556, Internal USB,
  32:../libs/libDaisy/src/daisy_seed.h ****     as well as the built-in LED and Testpoint.
  33:../libs/libDaisy/src/daisy_seed.h **** 
  34:../libs/libDaisy/src/daisy_seed.h ****     ADCs, DACs, and other special peripherals (such as I2C, SPI, etc.)
  35:../libs/libDaisy/src/daisy_seed.h ****     can be initialized using their specific initializers within libdaisy
  36:../libs/libDaisy/src/daisy_seed.h ****     for a specific application.
  37:../libs/libDaisy/src/daisy_seed.h ****     */
  38:../libs/libDaisy/src/daisy_seed.h ****     void Init(bool boost = false);
  39:../libs/libDaisy/src/daisy_seed.h **** 
  40:../libs/libDaisy/src/daisy_seed.h ****     /** 
  41:../libs/libDaisy/src/daisy_seed.h ****     Deinitializes all peripherals automatically handled by `Init`.
  42:../libs/libDaisy/src/daisy_seed.h ****     */
  43:../libs/libDaisy/src/daisy_seed.h ****     void DeInit();
  44:../libs/libDaisy/src/daisy_seed.h **** 
  45:../libs/libDaisy/src/daisy_seed.h ****     /** 
  46:../libs/libDaisy/src/daisy_seed.h ****     Wait some ms before going on.
  47:../libs/libDaisy/src/daisy_seed.h ****     \param del Delay time in ms.
  48:../libs/libDaisy/src/daisy_seed.h ****     */
  49:../libs/libDaisy/src/daisy_seed.h ****     void DelayMs(size_t del);
  50:../libs/libDaisy/src/daisy_seed.h **** 
  51:../libs/libDaisy/src/daisy_seed.h ****     /** 
  52:../libs/libDaisy/src/daisy_seed.h ****     Returns the gpio_pin corresponding to the index 0-31.
  53:../libs/libDaisy/src/daisy_seed.h ****     For the given GPIO on the Daisy Seed (labeled 1-32 in docs).
  54:../libs/libDaisy/src/daisy_seed.h ****     */
  55:../libs/libDaisy/src/daisy_seed.h ****     static Pin GetPin(uint8_t pin_idx);
  56:../libs/libDaisy/src/daisy_seed.h **** 
ARM GAS  C:\Users\skipi\AppData\Local\Temp\cc6PZCfi.s 			page 66


  57:../libs/libDaisy/src/daisy_seed.h ****     /** Begins the audio for the seeds builtin audio.
  58:../libs/libDaisy/src/daisy_seed.h ****     the specified callback will get called whenever
  59:../libs/libDaisy/src/daisy_seed.h ****     new data is ready to be prepared.
  60:../libs/libDaisy/src/daisy_seed.h ****     */
  61:../libs/libDaisy/src/daisy_seed.h ****     void StartAudio(AudioHandle::InterleavingAudioCallback cb);
  62:../libs/libDaisy/src/daisy_seed.h **** 
  63:../libs/libDaisy/src/daisy_seed.h ****     /** Begins the audio for the seeds builtin audio.
  64:../libs/libDaisy/src/daisy_seed.h ****     the specified callback will get called whenever
  65:../libs/libDaisy/src/daisy_seed.h ****     new data is ready to be prepared.
  66:../libs/libDaisy/src/daisy_seed.h ****     This will use the newer non-interleaved callback.
  67:../libs/libDaisy/src/daisy_seed.h ****     */
  68:../libs/libDaisy/src/daisy_seed.h ****     void StartAudio(AudioHandle::AudioCallback cb);
  69:../libs/libDaisy/src/daisy_seed.h **** 
  70:../libs/libDaisy/src/daisy_seed.h ****     /** Changes to a new interleaved callback
  71:../libs/libDaisy/src/daisy_seed.h ****      */
  72:../libs/libDaisy/src/daisy_seed.h ****     void ChangeAudioCallback(AudioHandle::InterleavingAudioCallback cb);
  73:../libs/libDaisy/src/daisy_seed.h **** 
  74:../libs/libDaisy/src/daisy_seed.h ****     /** Changes to a new multichannel callback
  75:../libs/libDaisy/src/daisy_seed.h ****      */
  76:../libs/libDaisy/src/daisy_seed.h ****     void ChangeAudioCallback(AudioHandle::AudioCallback cb);
  77:../libs/libDaisy/src/daisy_seed.h **** 
  78:../libs/libDaisy/src/daisy_seed.h ****     /** Stops the audio if it is running. */
  79:../libs/libDaisy/src/daisy_seed.h ****     void StopAudio();
  80:../libs/libDaisy/src/daisy_seed.h **** 
  81:../libs/libDaisy/src/daisy_seed.h ****     /** Updates the Audio Sample Rate, and reinitializes.
  82:../libs/libDaisy/src/daisy_seed.h ****      ** Audio must be stopped for this to work.
  83:../libs/libDaisy/src/daisy_seed.h ****      */
  84:../libs/libDaisy/src/daisy_seed.h ****     void SetAudioSampleRate(SaiHandle::Config::SampleRate samplerate);
  85:../libs/libDaisy/src/daisy_seed.h **** 
  86:../libs/libDaisy/src/daisy_seed.h ****     /** Returns the audio sample rate in Hz as a floating point number.
  87:../libs/libDaisy/src/daisy_seed.h ****      */
  88:../libs/libDaisy/src/daisy_seed.h ****     float AudioSampleRate();
  89:../libs/libDaisy/src/daisy_seed.h **** 
  90:../libs/libDaisy/src/daisy_seed.h ****     /** Sets the number of samples processed per channel by the audio callback.
  91:../libs/libDaisy/src/daisy_seed.h ****      */
  92:../libs/libDaisy/src/daisy_seed.h ****     void SetAudioBlockSize(size_t blocksize);
  93:../libs/libDaisy/src/daisy_seed.h **** 
  94:../libs/libDaisy/src/daisy_seed.h ****     /** Returns the number of samples per channel in a block of audio. */
  95:../libs/libDaisy/src/daisy_seed.h ****     size_t AudioBlockSize();
  96:../libs/libDaisy/src/daisy_seed.h **** 
  97:../libs/libDaisy/src/daisy_seed.h ****     /** Returns the rate in Hz that the Audio callback is called */
  98:../libs/libDaisy/src/daisy_seed.h ****     float AudioCallbackRate() const;
  99:../libs/libDaisy/src/daisy_seed.h **** 
 100:../libs/libDaisy/src/daisy_seed.h ****     /** Returns the SAI Handle for the Daisy Seed 
 101:../libs/libDaisy/src/daisy_seed.h ****      *  This can be useful when adding a secondary codec,
 102:../libs/libDaisy/src/daisy_seed.h ****      *  the result of this function can be passed to the audio reinit 
 103:../libs/libDaisy/src/daisy_seed.h ****      *  with an SAI2 configuration
 104:../libs/libDaisy/src/daisy_seed.h ****      */
 105:../libs/libDaisy/src/daisy_seed.h ****     const SaiHandle& AudioSaiHandle() const;
 106:../libs/libDaisy/src/daisy_seed.h **** 
 107:../libs/libDaisy/src/daisy_seed.h ****     /** Sets the state of the built in LED
 108:../libs/libDaisy/src/daisy_seed.h ****      */
 109:../libs/libDaisy/src/daisy_seed.h ****     void SetLed(bool state);
 110:../libs/libDaisy/src/daisy_seed.h **** 
 111:../libs/libDaisy/src/daisy_seed.h ****     /** Sets the state of the test point near pin 10
 112:../libs/libDaisy/src/daisy_seed.h ****      */
 113:../libs/libDaisy/src/daisy_seed.h ****     void SetTestPoint(bool state);
ARM GAS  C:\Users\skipi\AppData\Local\Temp\cc6PZCfi.s 			page 67


 114:../libs/libDaisy/src/daisy_seed.h **** 
 115:../libs/libDaisy/src/daisy_seed.h ****     /** Print formatted debug log message
 116:../libs/libDaisy/src/daisy_seed.h ****      */
 117:../libs/libDaisy/src/daisy_seed.h ****     template <typename... VA>
 118:../libs/libDaisy/src/daisy_seed.h ****     static void Print(const char* format, VA... va)
 119:../libs/libDaisy/src/daisy_seed.h ****     {
 120:../libs/libDaisy/src/daisy_seed.h ****         Log::Print(format, va...);
 121:../libs/libDaisy/src/daisy_seed.h ****     }
 122:../libs/libDaisy/src/daisy_seed.h **** 
 123:../libs/libDaisy/src/daisy_seed.h ****     /** Print formatted debug log message with automatic line termination
 124:../libs/libDaisy/src/daisy_seed.h ****     */
 125:../libs/libDaisy/src/daisy_seed.h ****     template <typename... VA>
 126:../libs/libDaisy/src/daisy_seed.h ****     static void PrintLine(const char* format, VA... va)
 127:../libs/libDaisy/src/daisy_seed.h ****     {
 128:../libs/libDaisy/src/daisy_seed.h ****         Log::PrintLine(format, va...);
 129:../libs/libDaisy/src/daisy_seed.h ****     }
 130:../libs/libDaisy/src/daisy_seed.h **** 
 131:../libs/libDaisy/src/daisy_seed.h ****     /** Start the logging session. Optionally wait for terminal connection before proceeding.
 132:../libs/libDaisy/src/daisy_seed.h ****     */
 133:../libs/libDaisy/src/daisy_seed.h ****     static void StartLog(bool wait_for_pc = false)
 2043              		.loc 1 133 17 view .LVU578
 2044              	.LBB871:
 134:../libs/libDaisy/src/daisy_seed.h ****     {
 135:../libs/libDaisy/src/daisy_seed.h ****         Log::StartLog(wait_for_pc);
 2045              		.loc 1 135 9 view .LVU579
 2046              		.loc 1 135 22 is_stmt 0 view .LVU580
 2047 0028 4046     		mov	r0, r8
 2048 002a FFF7FEFF 		bl	_ZN5daisy6LoggerILNS_17LoggerDestinationE1EE8StartLogEb
 2049              	.LVL145:
 2050              		.loc 1 135 22 view .LVU581
 2051              	.LBE871:
 2052              	.LBE870:
 209:src/PianoB.cpp ****     Pin pin_scl = {PORTB, 8};
 2053              		.loc 10 209 2 is_stmt 1 view .LVU582
 209:src/PianoB.cpp ****     Pin pin_scl = {PORTB, 8};
 2054              		.loc 10 209 12 is_stmt 0 view .LVU583
 2055 002e 6421     		movs	r1, #100
 2056 0030 BE48     		ldr	r0, .L62
 2057 0032 FFF7FEFF 		bl	_ZN5daisy9DaisySeed7DelayMsEj
 2058              	.LVL146:
 210:src/PianoB.cpp **** 	Pin pin_sda = {PORTB, 9};
 2059              		.loc 10 210 5 is_stmt 1 view .LVU584
 211:src/PianoB.cpp **** 	I2CHandle::Config i2c_conf;
 2060              		.loc 10 211 2 view .LVU585
 212:src/PianoB.cpp **** 	i2c_conf.periph = I2CHandle::Config::Peripheral::I2C_1;
 2061              		.loc 10 212 2 view .LVU586
 2062              	.LBB872:
 2063              	.LBI807:
 2064              		.loc 13 29 12 view .LVU587
 2065              	.LBB818:
 2066              	.LBB816:
 2067              	.LBI809:
  30:../libs/libDaisy/src/per/i2c.h ****     {
  31:../libs/libDaisy/src/per/i2c.h ****         /** Specifies whether the interface will operate in master or slave mode. */
  32:../libs/libDaisy/src/per/i2c.h ****         enum class Mode
  33:../libs/libDaisy/src/per/i2c.h ****         {
  34:../libs/libDaisy/src/per/i2c.h ****             I2C_MASTER,
ARM GAS  C:\Users\skipi\AppData\Local\Temp\cc6PZCfi.s 			page 68


  35:../libs/libDaisy/src/per/i2c.h ****             I2C_SLAVE,
  36:../libs/libDaisy/src/per/i2c.h ****         };
  37:../libs/libDaisy/src/per/i2c.h **** 
  38:../libs/libDaisy/src/per/i2c.h ****         /** Specifices the internal peripheral to use (these are mapped to different pins on the ha
  39:../libs/libDaisy/src/per/i2c.h ****         enum class Peripheral
  40:../libs/libDaisy/src/per/i2c.h ****         {
  41:../libs/libDaisy/src/per/i2c.h ****             I2C_1 = 0, /**< & */
  42:../libs/libDaisy/src/per/i2c.h ****             I2C_2,     /**< & */
  43:../libs/libDaisy/src/per/i2c.h ****             I2C_3,     /**< & */
  44:../libs/libDaisy/src/per/i2c.h ****             I2C_4,     /**< & */
  45:../libs/libDaisy/src/per/i2c.h ****         };
  46:../libs/libDaisy/src/per/i2c.h **** 
  47:../libs/libDaisy/src/per/i2c.h ****         /** Rate at which the clock/data will be sent/received. The device being used will have max
  48:../libs/libDaisy/src/per/i2c.h ****          *  1MHZ Mode is currently 886kHz
  49:../libs/libDaisy/src/per/i2c.h ****          */
  50:../libs/libDaisy/src/per/i2c.h ****         enum class Speed
  51:../libs/libDaisy/src/per/i2c.h ****         {
  52:../libs/libDaisy/src/per/i2c.h ****             I2C_100KHZ, /**< & */
  53:../libs/libDaisy/src/per/i2c.h ****             I2C_400KHZ, /**< & */
  54:../libs/libDaisy/src/per/i2c.h ****             I2C_1MHZ,   /**< & */
  55:../libs/libDaisy/src/per/i2c.h ****         };
  56:../libs/libDaisy/src/per/i2c.h **** 
  57:../libs/libDaisy/src/per/i2c.h ****         Peripheral periph; /**< & */
  58:../libs/libDaisy/src/per/i2c.h ****         struct
  59:../libs/libDaisy/src/per/i2c.h ****         {
 2068              		.loc 13 59 9 view .LVU588
 2069              	.LBB813:
 2070              	.LBI810:
 2071              		.loc 14 204 15 view .LVU589
 2072              		.loc 14 204 15 is_stmt 0 view .LVU590
 2073              	.LBE813:
 2074              	.LBB814:
 2075              	.LBI814:
 2076              		.loc 14 204 15 is_stmt 1 view .LVU591
 2077              		.loc 14 204 15 is_stmt 0 view .LVU592
 2078              	.LBE814:
 2079              	.LBE816:
 2080              	.LBE818:
 2081              	.LBE872:
 213:src/PianoB.cpp **** 	i2c_conf.speed  = I2CHandle::Config::Speed::I2C_400KHZ;
 2082              		.loc 10 213 2 is_stmt 1 view .LVU593
 2083              		.loc 10 214 2 view .LVU594
 215:src/PianoB.cpp **** 	i2c_conf.mode   = I2CHandle::Config::Mode::I2C_MASTER;
 2084              		.loc 10 215 2 view .LVU595
 216:src/PianoB.cpp **** 	i2c_conf.pin_config.scl  = pin_scl; // D11
 2085              		.loc 10 216 2 view .LVU596
 217:src/PianoB.cpp **** 	i2c_conf.pin_config.sda  = pin_sda; // D12
 2086              		.loc 10 217 2 view .LVU597
 218:src/PianoB.cpp **** 	// initialise the peripheral
 219:src/PianoB.cpp **** 	I2CHandle i2c;
 220:src/PianoB.cpp **** 	i2c.Init(i2c_conf);
 2087              		.loc 10 220 10 is_stmt 0 view .LVU598
 2088 0036 0DEB0601 		add	r1, sp, r6
 2089 003a 03A8     		add	r0, sp, #12
 2090              	.LBB873:
 2091              	.LBB819:
  29:../libs/libDaisy/src/per/i2c.h ****     {
ARM GAS  C:\Users\skipi\AppData\Local\Temp\cc6PZCfi.s 			page 69


 2092              		.loc 13 29 12 view .LVU599
 2093 003c 8DF82060 		strb	r6, [sp, #32]
 2094              	.LBE819:
 2095              	.LBE873:
 219:src/PianoB.cpp **** 	i2c.Init(i2c_conf);
 2096              		.loc 10 219 2 is_stmt 1 view .LVU600
 2097              	.LVL147:
 2098              	.LBB874:
 2099              	.LBI874:
  60:../libs/libDaisy/src/per/i2c.h ****             Pin scl;  /**< & */
  61:../libs/libDaisy/src/per/i2c.h ****             Pin sda;  /**< & */
  62:../libs/libDaisy/src/per/i2c.h ****         } pin_config; /**< & */
  63:../libs/libDaisy/src/per/i2c.h **** 
  64:../libs/libDaisy/src/per/i2c.h ****         Speed speed; /**< & */
  65:../libs/libDaisy/src/per/i2c.h ****         Mode  mode;  /**< & */
  66:../libs/libDaisy/src/per/i2c.h ****         // 0x10 is chosen as a default to avoid conflicts with reserved addresses
  67:../libs/libDaisy/src/per/i2c.h ****         uint8_t address = 0x10; /**< & */
  68:../libs/libDaisy/src/per/i2c.h ****     };
  69:../libs/libDaisy/src/per/i2c.h **** 
  70:../libs/libDaisy/src/per/i2c.h ****     /** Return values for I2C functions. */
  71:../libs/libDaisy/src/per/i2c.h ****     enum class Result
  72:../libs/libDaisy/src/per/i2c.h ****     {
  73:../libs/libDaisy/src/per/i2c.h ****         OK, /**< & */
  74:../libs/libDaisy/src/per/i2c.h ****         ERR /**< & */
  75:../libs/libDaisy/src/per/i2c.h ****     };
  76:../libs/libDaisy/src/per/i2c.h **** 
  77:../libs/libDaisy/src/per/i2c.h ****     enum class Direction
  78:../libs/libDaisy/src/per/i2c.h ****     {
  79:../libs/libDaisy/src/per/i2c.h ****         TRANSMIT, /**< & */
  80:../libs/libDaisy/src/per/i2c.h ****         RECEIVE,  /**< & */
  81:../libs/libDaisy/src/per/i2c.h ****     };
  82:../libs/libDaisy/src/per/i2c.h **** 
  83:../libs/libDaisy/src/per/i2c.h ****     I2CHandle() : pimpl_(nullptr) {}
 2100              		.loc 13 83 5 view .LVU601
 2101              	.LBB875:
 2102              	.LBB876:
 2103              		.loc 13 83 33 is_stmt 0 view .LVU602
 2104 0040 0394     		str	r4, [sp, #12]
 2105              	.LVL148:
 2106              		.loc 13 83 33 view .LVU603
 2107              	.LBE876:
 2108              	.LBE875:
 2109              	.LBE874:
 2110              		.loc 10 220 2 is_stmt 1 view .LVU604
 2111              	.LBB877:
 2112              	.LBB820:
 2113              	.LBB817:
 2114              	.LBB815:
 2115              	.LBB812:
 2116              		.loc 14 204 21 is_stmt 0 view .LVU605
 2117 0042 CDE90445 		strd	r4, r5, [sp, #16]
 2118              	.LBE812:
 2119              	.LBE815:
 2120              	.LBE817:
 2121              	.LBE820:
 2122              	.LBE877:
 215:src/PianoB.cpp **** 	i2c_conf.pin_config.scl  = pin_scl; // D11
ARM GAS  C:\Users\skipi\AppData\Local\Temp\cc6PZCfi.s 			page 70


 2123              		.loc 10 215 18 view .LVU606
 2124 0046 CDE90684 		strd	r8, r4, [sp, #24]
 2125              		.loc 10 220 10 view .LVU607
 2126 004a FFF7FEFF 		bl	_ZN5daisy9I2CHandle4InitERKNS0_6ConfigE
 2127              	.LVL149:
 221:src/PianoB.cpp ****     daisy::Mpr121I2C mpr121Obj;
 2128              		.loc 10 221 5 is_stmt 1 view .LVU608
 2129              	.LBB878:
 2130              	.LBI821:
  90:../libs/libDaisy/src/dev/mpr121.h ****     ~Mpr121() {}
 2131              		.loc 12 90 5 view .LVU609
 2132              	.LBB861:
 2133              	.LBB823:
 2134              	.LBI823:
  99:../libs/libDaisy/src/dev/mpr121.h ****         {
 2135              		.loc 12 99 9 view .LVU610
 2136              	.LBB824:
 2137              	.LBB825:
 2138              	.LBI825:
  34:../libs/libDaisy/src/dev/mpr121.h ****         {
 2139              		.loc 12 34 9 view .LVU611
 2140              	.LBB826:
 2141              	.LBB827:
 2142              	.LBI827:
 2143              		.loc 14 204 15 view .LVU612
 2144              		.loc 14 204 15 is_stmt 0 view .LVU613
 2145              	.LBE827:
 2146              	.LBB828:
 2147              	.LBI828:
 2148              		.loc 14 204 15 is_stmt 1 view .LVU614
 2149              		.loc 14 204 15 is_stmt 0 view .LVU615
 2150              	.LBE828:
 2151              	.LBE826:
 2152              	.LBE825:
 2153              	.LBE824:
 2154              	.LBE823:
 2155              	.LBE861:
 2156              	.LBE878:
  36:../libs/libDaisy/src/dev/mpr121.h ****             speed  = I2CHandle::Config::Speed::I2C_400KHZ;
 2157              		.loc 12 36 13 is_stmt 1 view .LVU616
  37:../libs/libDaisy/src/dev/mpr121.h **** 
 2158              		.loc 12 37 13 view .LVU617
  39:../libs/libDaisy/src/dev/mpr121.h ****             sda = Pin(PORTB, 9);
 2159              		.loc 12 39 13 view .LVU618
 2160              	.LBB879:
 2161              	.LBB862:
 2162              	.LBB837:
 2163              	.LBB835:
 2164              	.LBB833:
 2165              	.LBB831:
 2166              	.LBB829:
 2167              	.LBI829:
 201:../libs/libDaisy/src/daisy_core.h **** 
 2168              		.loc 14 201 15 view .LVU619
 201:../libs/libDaisy/src/daisy_core.h **** 
 2169              		.loc 14 201 15 is_stmt 0 view .LVU620
 2170              	.LBE829:
ARM GAS  C:\Users\skipi\AppData\Local\Temp\cc6PZCfi.s 			page 71


 2171              	.LBE831:
 2172              	.LBE833:
 2173              	.LBE835:
 2174              	.LBE837:
 2175              	.LBE862:
 2176              	.LBE879:
  40:../libs/libDaisy/src/dev/mpr121.h **** 
 2177              		.loc 12 40 13 is_stmt 1 view .LVU621
 2178              	.LBB880:
 2179              	.LBB863:
 2180              	.LBB838:
 2181              	.LBB836:
 2182              	.LBB834:
 2183              	.LBB832:
 2184              	.LBB830:
 2185              	.LBI830:
 201:../libs/libDaisy/src/daisy_core.h **** 
 2186              		.loc 14 201 15 view .LVU622
 201:../libs/libDaisy/src/daisy_core.h **** 
 2187              		.loc 14 201 15 is_stmt 0 view .LVU623
 2188              	.LBE830:
 2189              	.LBE832:
 2190              	.LBE834:
 2191              	.LBE836:
 2192              	.LBE838:
 2193              	.LBE863:
 2194              	.LBE880:
  42:../libs/libDaisy/src/dev/mpr121.h ****         }
 2195              		.loc 12 42 13 is_stmt 1 view .LVU624
 2196              	.LBB881:
 2197              	.LBB864:
 2198              	.LBB839:
 2199              	.LBI839:
  20:../libs/libDaisy/src/dev/mpr121.h ****     ~Mpr121I2CTransport() {}
 2200              		.loc 12 20 5 view .LVU625
 2201              	.LBB840:
 2202              	.LBB841:
 2203              	.LBI841:
 2204              		.loc 13 83 5 view .LVU626
 2205              		.loc 13 83 5 is_stmt 0 view .LVU627
 2206              	.LBE841:
 2207              	.LBB844:
 2208              	.LBI844:
  34:../libs/libDaisy/src/dev/mpr121.h ****         {
 2209              		.loc 12 34 9 is_stmt 1 view .LVU628
 2210              	.LBB845:
 2211              	.LBB846:
 2212              	.LBI846:
 2213              		.loc 14 204 15 view .LVU629
 2214              		.loc 14 204 15 is_stmt 0 view .LVU630
 2215              	.LBE846:
 2216              	.LBB847:
 2217              	.LBI847:
 2218              		.loc 14 204 15 is_stmt 1 view .LVU631
 2219              		.loc 14 204 15 is_stmt 0 view .LVU632
 2220              	.LBE847:
 2221              	.LBE845:
ARM GAS  C:\Users\skipi\AppData\Local\Temp\cc6PZCfi.s 			page 72


 2222              	.LBE844:
 2223              	.LBE840:
 2224              	.LBE839:
 2225              	.LBE864:
 2226              	.LBE881:
  36:../libs/libDaisy/src/dev/mpr121.h ****             speed  = I2CHandle::Config::Speed::I2C_400KHZ;
 2227              		.loc 12 36 13 is_stmt 1 view .LVU633
  37:../libs/libDaisy/src/dev/mpr121.h **** 
 2228              		.loc 12 37 13 view .LVU634
  39:../libs/libDaisy/src/dev/mpr121.h ****             sda = Pin(PORTB, 9);
 2229              		.loc 12 39 13 view .LVU635
 2230              	.LBB882:
 2231              	.LBB865:
 2232              	.LBB858:
 2233              	.LBB855:
 2234              	.LBB852:
 2235              	.LBB850:
 2236              	.LBB848:
 2237              	.LBI848:
 201:../libs/libDaisy/src/daisy_core.h **** 
 2238              		.loc 14 201 15 view .LVU636
 201:../libs/libDaisy/src/daisy_core.h **** 
 2239              		.loc 14 201 15 is_stmt 0 view .LVU637
 2240              	.LBE848:
 2241              	.LBE850:
 2242              	.LBE852:
 2243              	.LBE855:
 2244              	.LBE858:
 2245              	.LBE865:
 2246              	.LBE882:
  40:../libs/libDaisy/src/dev/mpr121.h **** 
 2247              		.loc 12 40 13 is_stmt 1 view .LVU638
 2248              	.LBB883:
 2249              	.LBB866:
 2250              	.LBB859:
 2251              	.LBB856:
 2252              	.LBB853:
 2253              	.LBB851:
 2254              	.LBB849:
 2255              	.LBI849:
 201:../libs/libDaisy/src/daisy_core.h **** 
 2256              		.loc 14 201 15 view .LVU639
 201:../libs/libDaisy/src/daisy_core.h **** 
 2257              		.loc 14 201 15 is_stmt 0 view .LVU640
 2258              	.LBE849:
 2259              	.LBE851:
 2260              	.LBE853:
 2261              	.LBE856:
 2262              	.LBE859:
 2263              	.LBE866:
 2264              	.LBE883:
  42:../libs/libDaisy/src/dev/mpr121.h ****         }
 2265              		.loc 12 42 13 is_stmt 1 view .LVU641
 222:src/PianoB.cpp ****     daisy::Mpr121I2C::Config mpr121ObjConf;
 2266              		.loc 10 222 5 view .LVU642
 2267              	.LBB884:
 2268              	.LBI884:
ARM GAS  C:\Users\skipi\AppData\Local\Temp\cc6PZCfi.s 			page 73


  99:../libs/libDaisy/src/dev/mpr121.h ****         {
 2269              		.loc 12 99 9 view .LVU643
 2270              	.LBB885:
 2271              	.LBI885:
  34:../libs/libDaisy/src/dev/mpr121.h ****         {
 2272              		.loc 12 34 9 view .LVU644
 2273              	.LBB886:
 2274              	.LBI886:
 2275              		.loc 14 204 15 view .LVU645
 2276              		.loc 14 204 15 is_stmt 0 view .LVU646
 2277              	.LBE886:
 2278              	.LBB887:
 2279              	.LBI887:
 2280              		.loc 14 204 15 is_stmt 1 view .LVU647
 2281              		.loc 14 204 15 is_stmt 0 view .LVU648
 2282              	.LBE887:
 2283              	.LBE885:
 2284              	.LBE884:
  36:../libs/libDaisy/src/dev/mpr121.h ****             speed  = I2CHandle::Config::Speed::I2C_400KHZ;
 2285              		.loc 12 36 13 is_stmt 1 view .LVU649
  37:../libs/libDaisy/src/dev/mpr121.h **** 
 2286              		.loc 12 37 13 view .LVU650
  39:../libs/libDaisy/src/dev/mpr121.h ****             sda = Pin(PORTB, 9);
 2287              		.loc 12 39 13 view .LVU651
 2288              	.LBB892:
 2289              	.LBB890:
 2290              	.LBB888:
 2291              	.LBI888:
 201:../libs/libDaisy/src/daisy_core.h **** 
 2292              		.loc 14 201 15 view .LVU652
 201:../libs/libDaisy/src/daisy_core.h **** 
 2293              		.loc 14 201 15 is_stmt 0 view .LVU653
 2294              	.LBE888:
 2295              	.LBE890:
 2296              	.LBE892:
  40:../libs/libDaisy/src/dev/mpr121.h **** 
 2297              		.loc 12 40 13 is_stmt 1 view .LVU654
 2298              	.LBB893:
 2299              	.LBB891:
 2300              	.LBB889:
 2301              	.LBI889:
 201:../libs/libDaisy/src/daisy_core.h **** 
 2302              		.loc 14 201 15 view .LVU655
 201:../libs/libDaisy/src/daisy_core.h **** 
 2303              		.loc 14 201 15 is_stmt 0 view .LVU656
 2304              	.LBE889:
 2305              	.LBE891:
 2306              	.LBE893:
  42:../libs/libDaisy/src/dev/mpr121.h ****         }
 2307              		.loc 12 42 13 is_stmt 1 view .LVU657
 223:src/PianoB.cpp ****     mpr121Obj.Init(mpr121ObjConf);
 2308              		.loc 10 223 5 view .LVU658
 2309              	.LBB894:
 2310              	.LBI894:
 115:../libs/libDaisy/src/dev/mpr121.h ****     {
 2311              		.loc 12 115 12 view .LVU659
 2312              	.LBE894:
ARM GAS  C:\Users\skipi\AppData\Local\Temp\cc6PZCfi.s 			page 74


 2313              	.LBB1075:
 2314              	.LBB867:
  90:../libs/libDaisy/src/dev/mpr121.h ****     ~Mpr121() {}
 2315              		.loc 12 90 5 is_stmt 0 view .LVU660
 2316 004e 40F20C63 		movw	r3, #1548
 2317 0052 0DF14C0E 		add	lr, sp, #76
 2318              	.LVL150:
  90:../libs/libDaisy/src/dev/mpr121.h ****     ~Mpr121() {}
 2319              		.loc 12 90 5 view .LVU661
 2320 0056 1595     		str	r5, [sp, #84]
 2321              	.LBE867:
 2322              	.LBE1075:
 2323              	.LBB1076:
 2324              	.LBB895:
 2325              	.LBB896:
 2326              	.LBB897:
  49:../libs/libDaisy/src/dev/mpr121.h **** 
 2327              		.loc 12 49 17 view .LVU662
 2328 0058 BC46     		mov	ip, r7
 2329              	.LBB898:
 2330              	.LBB899:
  29:../libs/libDaisy/src/per/i2c.h ****     {
 2331              		.loc 13 29 12 view .LVU663
 2332 005a 8DF84860 		strb	r6, [sp, #72]
 2333              	.LBE899:
 2334              	.LBE898:
  49:../libs/libDaisy/src/dev/mpr121.h **** 
 2335              		.loc 12 49 17 view .LVU664
 2336 005e 1AAE     		add	r6, sp, #104
  54:../libs/libDaisy/src/dev/mpr121.h **** 
 2337              		.loc 12 54 25 view .LVU665
 2338 0060 CDF84080 		str	r8, [sp, #64]
 2339              	.LBE897:
 2340              	.LBE896:
 2341              	.LBE895:
 2342              	.LBE1076:
 2343              	.LBB1077:
 2344              	.LBB868:
 2345              	.LBB860:
 2346              	.LBB857:
 2347              	.LBB854:
 2348              	.LBB842:
 2349              	.LBB843:
 2350              		.loc 13 83 33 view .LVU666
 2351 0064 1994     		str	r4, [sp, #100]
 2352              	.LVL151:
 2353              		.loc 13 83 33 view .LVU667
 2354              	.LBE843:
 2355              	.LBE842:
 2356              	.LBE854:
 2357              	.LBE857:
 2358              	.LBE860:
 2359              	.LBE868:
 2360              	.LBE1077:
 2361              	.LBB1078:
 2362              	.LBB1071:
 133:../libs/libDaisy/src/dev/mpr121.h ****         WriteRegister(MPR121_MHDR, 0x01);
ARM GAS  C:\Users\skipi\AppData\Local\Temp\cc6PZCfi.s 			page 75


 2363              		.loc 12 133 22 view .LVU668
 2364 0066 4125     		movs	r5, #65
 2365              	.LBB908:
 2366              	.LBB905:
  52:../libs/libDaisy/src/dev/mpr121.h ****         i2c_conf.periph = config.periph;
 2367              		.loc 12 52 25 view .LVU669
 2368 0068 1194     		str	r4, [sp, #68]
  53:../libs/libDaisy/src/dev/mpr121.h ****         i2c_conf.speed  = config.speed;
 2369              		.loc 12 53 25 view .LVU670
 2370 006a 0E94     		str	r4, [sp, #56]
 2371              	.LBE905:
 2372              	.LBE908:
 117:../libs/libDaisy/src/dev/mpr121.h **** 
 2373              		.loc 12 117 9 view .LVU671
 2374 006c CDE91348 		strd	r4, r8, [sp, #76]
 2375              	.LBE1071:
 2376              	.LBE1078:
 2377              	.LBB1079:
 2378              	.LBB869:
  90:../libs/libDaisy/src/dev/mpr121.h ****     ~Mpr121() {}
 2379              		.loc 12 90 5 view .LVU672
 2380 0070 CDE91793 		strd	r9, r3, [sp, #92]
 2381 0074 BEE80F00 		ldmia	lr!, {r0, r1, r2, r3}
 2382              	.LVL152:
  90:../libs/libDaisy/src/dev/mpr121.h ****     ~Mpr121() {}
 2383              		.loc 12 90 5 view .LVU673
 2384 0078 0FC7     		stmia	r7!, {r0, r1, r2, r3}
 2385              	.LBE869:
 2386              	.LBE1079:
 2387              	.LBB1080:
 2388              	.LBB1072:
 2389              	.LBB909:
 2390              	.LBB906:
  56:../libs/libDaisy/src/dev/mpr121.h ****         i2c_conf.pin_config.sda = config.sda;
 2391              		.loc 12 56 33 view .LVU674
 2392 007a BDF82C30 		ldrh	r3, [sp, #44]
 2393 007e C7F80090 		str	r9, [r7]
 2394              	.LBE906:
 2395              	.LBI896:
  47:../libs/libDaisy/src/dev/mpr121.h ****     {
 2396              		.loc 12 47 17 is_stmt 1 view .LVU675
 2397              	.LBB907:
  49:../libs/libDaisy/src/dev/mpr121.h **** 
 2398              		.loc 12 49 9 view .LVU676
  56:../libs/libDaisy/src/dev/mpr121.h ****         i2c_conf.pin_config.sda = config.sda;
 2399              		.loc 12 56 33 is_stmt 0 view .LVU677
 2400 0082 ADF83C30 		strh	r3, [sp, #60]	@ movhi
  57:../libs/libDaisy/src/dev/mpr121.h **** 
 2401              		.loc 12 57 33 view .LVU678
 2402 0086 BDF82E30 		ldrh	r3, [sp, #46]
 2403 008a ADF83E30 		strh	r3, [sp, #62]	@ movhi
  49:../libs/libDaisy/src/dev/mpr121.h **** 
 2404              		.loc 12 49 17 view .LVU679
 2405 008e BCE80F00 		ldmia	ip!, {r0, r1, r2, r3}
 2406 0092 0FC6     		stmia	r6!, {r0, r1, r2, r3}
  59:../libs/libDaisy/src/dev/mpr121.h ****     }
 2407              		.loc 12 59 50 view .LVU680
ARM GAS  C:\Users\skipi\AppData\Local\Temp\cc6PZCfi.s 			page 76


 2408 0094 0EA9     		add	r1, sp, #56
  49:../libs/libDaisy/src/dev/mpr121.h **** 
 2409              		.loc 12 49 17 view .LVU681
 2410 0096 86F80090 		strb	r9, [r6]
  51:../libs/libDaisy/src/dev/mpr121.h ****         i2c_conf.mode   = I2CHandle::Config::Mode::I2C_MASTER;
 2411              		.loc 12 51 9 is_stmt 1 view .LVU682
 2412              	.LVL153:
 2413              	.LBB904:
 2414              	.LBI898:
  29:../libs/libDaisy/src/per/i2c.h ****     {
 2415              		.loc 13 29 12 view .LVU683
 2416              	.LBB903:
 2417              	.LBB900:
 2418              	.LBI900:
  59:../libs/libDaisy/src/per/i2c.h ****             Pin scl;  /**< & */
 2419              		.loc 13 59 9 view .LVU684
 2420              	.LBB901:
 2421              	.LBI901:
 2422              		.loc 14 204 15 view .LVU685
 2423              		.loc 14 204 15 is_stmt 0 view .LVU686
 2424              	.LBE901:
 2425              	.LBB902:
 2426              	.LBI902:
 2427              		.loc 14 204 15 is_stmt 1 view .LVU687
 2428              		.loc 14 204 15 is_stmt 0 view .LVU688
 2429              	.LBE902:
 2430              	.LBE900:
 2431              	.LBE903:
 2432              	.LBE904:
  52:../libs/libDaisy/src/dev/mpr121.h ****         i2c_conf.periph = config.periph;
 2433              		.loc 12 52 9 is_stmt 1 view .LVU689
  53:../libs/libDaisy/src/dev/mpr121.h ****         i2c_conf.speed  = config.speed;
 2434              		.loc 12 53 9 view .LVU690
  54:../libs/libDaisy/src/dev/mpr121.h **** 
 2435              		.loc 12 54 9 view .LVU691
  56:../libs/libDaisy/src/dev/mpr121.h ****         i2c_conf.pin_config.sda = config.sda;
 2436              		.loc 12 56 9 view .LVU692
  57:../libs/libDaisy/src/dev/mpr121.h **** 
 2437              		.loc 12 57 9 view .LVU693
  59:../libs/libDaisy/src/dev/mpr121.h ****     }
 2438              		.loc 12 59 9 view .LVU694
  59:../libs/libDaisy/src/dev/mpr121.h ****     }
 2439              		.loc 12 59 50 is_stmt 0 view .LVU695
 2440 009a 19A8     		add	r0, sp, #100
 2441              	.LVL154:
  59:../libs/libDaisy/src/dev/mpr121.h ****     }
 2442              		.loc 12 59 50 view .LVU696
 2443 009c FFF7FEFF 		bl	_ZN5daisy9I2CHandle4InitERKNS0_6ConfigE
 2444              	.LVL155:
  59:../libs/libDaisy/src/dev/mpr121.h ****     }
 2445              		.loc 12 59 50 view .LVU697
 2446              	.LBE907:
 2447              	.LBE909:
 2448              	.LBB910:
 2449              	.LBI910:
 2450              		.loc 12 343 10 is_stmt 1 view .LVU698
 2451              	.LBB911:
ARM GAS  C:\Users\skipi\AppData\Local\Temp\cc6PZCfi.s 			page 77


 2452              		.loc 12 343 55 is_stmt 0 view .LVU699
 2453 00a0 9DF87C30 		ldrb	r3, [sp, #124]	@ zero_extendqisi2
 2454              	.LBE911:
 2455              	.LBE910:
 122:../libs/libDaisy/src/dev/mpr121.h ****         System::Delay(1);
 2456              		.loc 12 122 22 view .LVU700
 2457 00a4 8021     		movs	r1, #128
 2458 00a6 6322     		movs	r2, #99
 2459              	.LBB914:
 2460              	.LBB912:
 2461              		.loc 12 343 55 view .LVU701
 2462 00a8 A042     		cmp	r0, r4
 2463 00aa 18BF     		it	ne
 2464 00ac 43F00103 		orrne	r3, r3, #1
 2465              	.LBE912:
 2466              	.LBE914:
 122:../libs/libDaisy/src/dev/mpr121.h ****         System::Delay(1);
 2467              		.loc 12 122 22 view .LVU702
 2468 00b0 13A8     		add	r0, sp, #76
 2469              	.LVL156:
 2470              	.LBB915:
 2471              	.LBB913:
 2472              		.loc 12 343 55 view .LVU703
 2473 00b2 8DF87C30 		strb	r3, [sp, #124]
 2474              	.LVL157:
 2475              		.loc 12 343 55 view .LVU704
 2476              	.LBE913:
 2477              	.LBE915:
 122:../libs/libDaisy/src/dev/mpr121.h ****         System::Delay(1);
 2478              		.loc 12 122 22 view .LVU705
 2479 00b6 FFF7FEFF 		bl	_ZN5daisy6Mpr121INS_18Mpr121I2CTransportEE13WriteRegisterEhh
 2480              	.LVL158:
 123:../libs/libDaisy/src/dev/mpr121.h **** 
 2481              		.loc 12 123 22 view .LVU706
 2482 00ba 4046     		mov	r0, r8
 2483 00bc FFF7FEFF 		bl	_ZN5daisy6System5DelayEm
 2484              	.LVL159:
 125:../libs/libDaisy/src/dev/mpr121.h **** 
 2485              		.loc 12 125 22 view .LVU707
 2486 00c0 2246     		mov	r2, r4
 2487 00c2 5E21     		movs	r1, #94
 2488 00c4 13A8     		add	r0, sp, #76
 2489              	.LVL160:
 125:../libs/libDaisy/src/dev/mpr121.h **** 
 2490              		.loc 12 125 22 view .LVU708
 2491 00c6 FFF7FEFF 		bl	_ZN5daisy6Mpr121INS_18Mpr121I2CTransportEE13WriteRegisterEhh
 2492              	.LVL161:
 133:../libs/libDaisy/src/dev/mpr121.h ****         WriteRegister(MPR121_MHDR, 0x01);
 2493              		.loc 12 133 22 view .LVU709
 2494 00ca 9DF86090 		ldrb	r9, [sp, #96]	@ zero_extendqisi2
 2495 00ce 9DF86180 		ldrb	r8, [sp, #97]	@ zero_extendqisi2
 2496              	.LVL162:
 2497              	.LBB916:
 2498              	.LBI916:
 177:../libs/libDaisy/src/dev/mpr121.h ****     {
 2499              		.loc 12 177 10 is_stmt 1 view .LVU710
 2500              	.LBB917:
ARM GAS  C:\Users\skipi\AppData\Local\Temp\cc6PZCfi.s 			page 78


 180:../libs/libDaisy/src/dev/mpr121.h ****         {
 2501              		.loc 12 180 30 view .LVU711
 2502              	.L33:
 2503              	.LBB918:
 2504              	.LBI918:
 257:../libs/libDaisy/src/dev/mpr121.h ****     {
 2505              		.loc 12 257 10 view .LVU712
 2506              	.LBB919:
 2507              	.LBB920:
 2508              	.LBB921:
  66:../libs/libDaisy/src/dev/mpr121.h ****     }
 2509              		.loc 12 66 40 is_stmt 0 view .LVU713
 2510 00d2 0A24     		movs	r4, #10
 2511              	.LBE921:
 2512              	.LBE920:
 264:../libs/libDaisy/src/dev/mpr121.h **** 
 2513              		.loc 12 264 17 view .LVU714
 2514 00d4 0027     		movs	r7, #0
 2515 00d6 5E26     		movs	r6, #94
 2516              	.LBB924:
 2517              	.LBB922:
  66:../libs/libDaisy/src/dev/mpr121.h ****     }
 2518              		.loc 12 66 40 view .LVU715
 2519 00d8 0123     		movs	r3, #1
 2520 00da 0EAA     		add	r2, sp, #56
 2521 00dc 9DF87810 		ldrb	r1, [sp, #120]	@ zero_extendqisi2
 2522 00e0 0094     		str	r4, [sp]
 2523 00e2 19A8     		add	r0, sp, #100
 2524              	.LBE922:
 2525              	.LBE924:
 264:../libs/libDaisy/src/dev/mpr121.h **** 
 2526              		.loc 12 264 17 view .LVU716
 2527 00e4 8DF83970 		strb	r7, [sp, #57]
 2528 00e8 8DF83860 		strb	r6, [sp, #56]
 2529              	.LVL163:
 2530              	.LBB925:
 2531              	.LBI920:
  63:../libs/libDaisy/src/dev/mpr121.h ****     {
 2532              		.loc 12 63 10 is_stmt 1 view .LVU717
 2533              	.LBB923:
  65:../libs/libDaisy/src/dev/mpr121.h ****                != i2c_.TransmitBlocking(config_.dev_addr, data, size, 10);
 2534              		.loc 12 65 9 view .LVU718
  66:../libs/libDaisy/src/dev/mpr121.h ****     }
 2535              		.loc 12 66 40 is_stmt 0 view .LVU719
 2536 00ec FFF7FEFF 		bl	_ZN5daisy9I2CHandle16TransmitBlockingEtPhtm
 2537              	.LVL164:
  66:../libs/libDaisy/src/dev/mpr121.h ****     }
 2538              		.loc 12 66 40 view .LVU720
 2539              	.LBE923:
 2540              	.LBE925:
 2541              	.LBB926:
 2542              	.LBI926:
 2543              		.loc 12 343 10 is_stmt 1 view .LVU721
 2544              	.LBB927:
 2545              		.loc 12 343 55 is_stmt 0 view .LVU722
 2546 00f0 9DF87C20 		ldrb	r2, [sp, #124]	@ zero_extendqisi2
 2547              	.LBE927:
ARM GAS  C:\Users\skipi\AppData\Local\Temp\cc6PZCfi.s 			page 79


 2548              	.LBE926:
 2549              	.LBB930:
 2550              	.LBB931:
  73:../libs/libDaisy/src/dev/mpr121.h ****     }
 2551              		.loc 12 73 39 view .LVU723
 2552 00f4 0123     		movs	r3, #1
 2553 00f6 9DF87810 		ldrb	r1, [sp, #120]	@ zero_extendqisi2
 2554              	.LBE931:
 2555              	.LBE930:
 2556              	.LBB934:
 2557              	.LBB928:
 2558              		.loc 12 343 55 view .LVU724
 2559 00fa B842     		cmp	r0, r7
 2560 00fc 18BF     		it	ne
 2561 00fe 42F00102 		orrne	r2, r2, #1
 2562              	.LBE928:
 2563              	.LBE934:
 2564              	.LBB935:
 2565              	.LBB932:
  73:../libs/libDaisy/src/dev/mpr121.h ****     }
 2566              		.loc 12 73 39 view .LVU725
 2567 0102 0094     		str	r4, [sp]
 2568 0104 19A8     		add	r0, sp, #100
 2569              	.LVL165:
  73:../libs/libDaisy/src/dev/mpr121.h ****     }
 2570              		.loc 12 73 39 view .LVU726
 2571              	.LBE932:
 2572              	.LBE935:
 2573              	.LBB936:
 2574              	.LBB929:
 2575              		.loc 12 343 55 view .LVU727
 2576 0106 8DF87C20 		strb	r2, [sp, #124]
 2577              	.LVL166:
 2578              		.loc 12 343 55 view .LVU728
 2579              	.LBE929:
 2580              	.LBE936:
 2581              	.LBB937:
 2582              	.LBI930:
  70:../libs/libDaisy/src/dev/mpr121.h ****     {
 2583              		.loc 12 70 10 is_stmt 1 view .LVU729
 2584              	.LBB933:
  72:../libs/libDaisy/src/dev/mpr121.h ****                != i2c_.ReceiveBlocking(config_.dev_addr, data, size, 10);
 2585              		.loc 12 72 9 view .LVU730
  73:../libs/libDaisy/src/dev/mpr121.h ****     }
 2586              		.loc 12 73 39 is_stmt 0 view .LVU731
 2587 010a 09AA     		add	r2, sp, #36
 2588              	.LVL167:
  73:../libs/libDaisy/src/dev/mpr121.h ****     }
 2589              		.loc 12 73 39 view .LVU732
 2590 010c FFF7FEFF 		bl	_ZN5daisy9I2CHandle15ReceiveBlockingEtPhtm
 2591              	.LVL168:
  73:../libs/libDaisy/src/dev/mpr121.h ****     }
 2592              		.loc 12 73 39 view .LVU733
 2593              	.LBE933:
 2594              	.LBE937:
 2595              	.LBB938:
 2596              	.LBI938:
ARM GAS  C:\Users\skipi\AppData\Local\Temp\cc6PZCfi.s 			page 80


 2597              		.loc 12 343 10 is_stmt 1 view .LVU734
 2598              	.LBB939:
 2599              		.loc 12 343 55 is_stmt 0 view .LVU735
 2600 0110 9DF87C20 		ldrb	r2, [sp, #124]	@ zero_extendqisi2
 2601              	.LBE939:
 2602              	.LBE938:
 2603              	.LBB942:
 2604              	.LBB943:
  66:../libs/libDaisy/src/dev/mpr121.h ****     }
 2605              		.loc 12 66 40 view .LVU736
 2606 0114 0223     		movs	r3, #2
 2607 0116 9DF87810 		ldrb	r1, [sp, #120]	@ zero_extendqisi2
 2608              	.LBE943:
 2609              	.LBE942:
 2610              	.LBB946:
 2611              	.LBB940:
 2612              		.loc 12 343 55 view .LVU737
 2613 011a B842     		cmp	r0, r7
 2614 011c 18BF     		it	ne
 2615 011e 42F00102 		orrne	r2, r2, #1
 2616              	.LBE940:
 2617              	.LBE946:
 2618              	.LBB947:
 2619              	.LBB944:
  66:../libs/libDaisy/src/dev/mpr121.h ****     }
 2620              		.loc 12 66 40 view .LVU738
 2621 0122 0094     		str	r4, [sp]
 2622 0124 19A8     		add	r0, sp, #100
 2623              	.LVL169:
  66:../libs/libDaisy/src/dev/mpr121.h ****     }
 2624              		.loc 12 66 40 view .LVU739
 2625              	.LBE944:
 2626              	.LBE947:
 2627              	.LBB948:
 2628              	.LBB941:
 2629              		.loc 12 343 55 view .LVU740
 2630 0126 8DF87C20 		strb	r2, [sp, #124]
 2631              	.LVL170:
 2632              		.loc 12 343 55 view .LVU741
 2633              	.LBE941:
 2634              	.LBE948:
 2635              	.LBB949:
 2636              	.LBI942:
  63:../libs/libDaisy/src/dev/mpr121.h ****     {
 2637              		.loc 12 63 10 is_stmt 1 view .LVU742
 2638              	.LBB945:
  65:../libs/libDaisy/src/dev/mpr121.h ****                != i2c_.TransmitBlocking(config_.dev_addr, data, size, 10);
 2639              		.loc 12 65 9 view .LVU743
  66:../libs/libDaisy/src/dev/mpr121.h ****     }
 2640              		.loc 12 66 40 is_stmt 0 view .LVU744
 2641 012a 0EAA     		add	r2, sp, #56
 2642              	.LVL171:
  66:../libs/libDaisy/src/dev/mpr121.h ****     }
 2643              		.loc 12 66 40 view .LVU745
 2644 012c FFF7FEFF 		bl	_ZN5daisy9I2CHandle16TransmitBlockingEtPhtm
 2645              	.LVL172:
  66:../libs/libDaisy/src/dev/mpr121.h ****     }
ARM GAS  C:\Users\skipi\AppData\Local\Temp\cc6PZCfi.s 			page 81


 2646              		.loc 12 66 40 view .LVU746
 2647              	.LBE945:
 2648              	.LBE949:
 2649              	.LBB950:
 2650              	.LBI950:
 2651              		.loc 12 343 10 is_stmt 1 view .LVU747
 2652              	.LBB951:
 2653              		.loc 12 343 55 is_stmt 0 view .LVU748
 2654 0130 9DF87C20 		ldrb	r2, [sp, #124]	@ zero_extendqisi2
 2655              	.LBE951:
 2656              	.LBE950:
 2657              	.LBB954:
 2658              	.LBB955:
  66:../libs/libDaisy/src/dev/mpr121.h ****     }
 2659              		.loc 12 66 40 view .LVU749
 2660 0134 0223     		movs	r3, #2
 2661 0136 9DF87810 		ldrb	r1, [sp, #120]	@ zero_extendqisi2
 2662              	.LBE955:
 2663              	.LBE954:
 2664              	.LBB959:
 2665              	.LBB952:
 2666              		.loc 12 343 55 view .LVU750
 2667 013a B842     		cmp	r0, r7
 2668 013c 18BF     		it	ne
 2669 013e 42F00102 		orrne	r2, r2, #1
 2670              	.LBE952:
 2671              	.LBE959:
 2672              	.LBB960:
 2673              	.LBB956:
  66:../libs/libDaisy/src/dev/mpr121.h ****     }
 2674              		.loc 12 66 40 view .LVU751
 2675 0142 0094     		str	r4, [sp]
 2676 0144 19A8     		add	r0, sp, #100
 2677              	.LVL173:
  66:../libs/libDaisy/src/dev/mpr121.h ****     }
 2678              		.loc 12 66 40 view .LVU752
 2679              	.LBE956:
 2680              	.LBE960:
 281:../libs/libDaisy/src/dev/mpr121.h ****         buff[1] = value;
 2681              		.loc 12 281 17 view .LVU753
 2682 0146 8DF83850 		strb	r5, [sp, #56]
 2683              	.LBB961:
 2684              	.LBB953:
 2685              		.loc 12 343 55 view .LVU754
 2686 014a 8DF87C20 		strb	r2, [sp, #124]
 2687              	.LVL174:
 2688              		.loc 12 343 55 view .LVU755
 2689              	.LBE953:
 2690              	.LBE961:
 2691              	.LBB962:
 2692              	.LBI954:
  63:../libs/libDaisy/src/dev/mpr121.h ****     {
 2693              		.loc 12 63 10 is_stmt 1 view .LVU756
 2694              	.LBB957:
  65:../libs/libDaisy/src/dev/mpr121.h ****                != i2c_.TransmitBlocking(config_.dev_addr, data, size, 10);
 2695              		.loc 12 65 9 view .LVU757
  66:../libs/libDaisy/src/dev/mpr121.h ****     }
ARM GAS  C:\Users\skipi\AppData\Local\Temp\cc6PZCfi.s 			page 82


 2696              		.loc 12 66 40 is_stmt 0 view .LVU758
 2697 014e 0EAA     		add	r2, sp, #56
 2698              	.LVL175:
  66:../libs/libDaisy/src/dev/mpr121.h ****     }
 2699              		.loc 12 66 40 view .LVU759
 2700              	.LBE957:
 2701              	.LBE962:
 282:../libs/libDaisy/src/dev/mpr121.h ****         SetTransportErr(transport_.Write(buff, 2));
 2702              		.loc 12 282 17 view .LVU760
 2703 0150 8DF83990 		strb	r9, [sp, #57]
 2704              	.LBB963:
 2705              	.LBB958:
  66:../libs/libDaisy/src/dev/mpr121.h ****     }
 2706              		.loc 12 66 40 view .LVU761
 2707 0154 FFF7FEFF 		bl	_ZN5daisy9I2CHandle16TransmitBlockingEtPhtm
 2708              	.LVL176:
  66:../libs/libDaisy/src/dev/mpr121.h ****     }
 2709              		.loc 12 66 40 view .LVU762
 2710              	.LBE958:
 2711              	.LBE963:
 2712              	.LBB964:
 2713              	.LBI964:
 2714              		.loc 12 343 10 is_stmt 1 view .LVU763
 2715              	.LBB965:
 2716              		.loc 12 343 55 is_stmt 0 view .LVU764
 2717 0158 9DF87C10 		ldrb	r1, [sp, #124]	@ zero_extendqisi2
 2718              	.LBE965:
 2719              	.LBE964:
 2720              	.LBB968:
 2721              	.LBB969:
  66:../libs/libDaisy/src/dev/mpr121.h ****     }
 2722              		.loc 12 66 40 view .LVU765
 2723 015c 0EAA     		add	r2, sp, #56
 2724              	.LBE969:
 2725              	.LBE968:
 289:../libs/libDaisy/src/dev/mpr121.h ****             SetTransportErr(transport_.Write(buff, 2));
 2726              		.loc 12 289 21 view .LVU766
 2727 015e 9DF82430 		ldrb	r3, [sp, #36]	@ zero_extendqisi2
 2728              	.LBB974:
 2729              	.LBB966:
 2730              		.loc 12 343 55 view .LVU767
 2731 0162 B842     		cmp	r0, r7
 2732 0164 18BF     		it	ne
 2733 0166 41F00101 		orrne	r1, r1, #1
 2734              	.LBE966:
 2735              	.LBE974:
 2736              	.LBB975:
 2737              	.LBB970:
  66:../libs/libDaisy/src/dev/mpr121.h ****     }
 2738              		.loc 12 66 40 view .LVU768
 2739 016a 0094     		str	r4, [sp]
 2740              	.LBE970:
 2741              	.LBE975:
 289:../libs/libDaisy/src/dev/mpr121.h ****             SetTransportErr(transport_.Write(buff, 2));
 2742              		.loc 12 289 21 view .LVU769
 2743 016c 8DF83930 		strb	r3, [sp, #57]
 2744              	.LBB976:
ARM GAS  C:\Users\skipi\AppData\Local\Temp\cc6PZCfi.s 			page 83


 2745              	.LBB971:
  66:../libs/libDaisy/src/dev/mpr121.h ****     }
 2746              		.loc 12 66 40 view .LVU770
 2747 0170 19A8     		add	r0, sp, #100
 2748              	.LVL177:
  66:../libs/libDaisy/src/dev/mpr121.h ****     }
 2749              		.loc 12 66 40 view .LVU771
 2750 0172 0223     		movs	r3, #2
 2751              	.LBE971:
 2752              	.LBE976:
 2753              	.LBB977:
 2754              	.LBB967:
 2755              		.loc 12 343 55 view .LVU772
 2756 0174 8DF87C10 		strb	r1, [sp, #124]
 2757              	.LVL178:
 2758              		.loc 12 343 55 view .LVU773
 2759              	.LBE967:
 2760              	.LBE977:
 2761              	.LBB978:
 2762              	.LBI968:
  63:../libs/libDaisy/src/dev/mpr121.h ****     {
 2763              		.loc 12 63 10 is_stmt 1 view .LVU774
 2764              	.LBB972:
  65:../libs/libDaisy/src/dev/mpr121.h ****                != i2c_.TransmitBlocking(config_.dev_addr, data, size, 10);
 2765              		.loc 12 65 9 view .LVU775
  66:../libs/libDaisy/src/dev/mpr121.h ****     }
 2766              		.loc 12 66 40 is_stmt 0 view .LVU776
 2767 0178 9DF87810 		ldrb	r1, [sp, #120]	@ zero_extendqisi2
 2768              	.LBE972:
 2769              	.LBE978:
 288:../libs/libDaisy/src/dev/mpr121.h ****             buff[1] = ecr_backup;
 2770              		.loc 12 288 21 view .LVU777
 2771 017c 8DF83860 		strb	r6, [sp, #56]
 2772              	.LBB979:
 2773              	.LBB973:
  66:../libs/libDaisy/src/dev/mpr121.h ****     }
 2774              		.loc 12 66 40 view .LVU778
 2775 0180 FFF7FEFF 		bl	_ZN5daisy9I2CHandle16TransmitBlockingEtPhtm
 2776              	.LVL179:
  66:../libs/libDaisy/src/dev/mpr121.h ****     }
 2777              		.loc 12 66 40 view .LVU779
 2778              	.LBE973:
 2779              	.LBE979:
 2780              	.LBB980:
 2781              	.LBI980:
 2782              		.loc 12 343 10 is_stmt 1 view .LVU780
 2783              	.LBB981:
 2784              		.loc 12 343 55 is_stmt 0 view .LVU781
 2785 0184 9DF87C20 		ldrb	r2, [sp, #124]	@ zero_extendqisi2
 2786              	.LBE981:
 2787              	.LBE980:
 2788              	.LBE919:
 2789              	.LBE918:
 2790              	.LBB988:
 2791              	.LBB989:
 2792              	.LBB990:
 2793              	.LBB991:
ARM GAS  C:\Users\skipi\AppData\Local\Temp\cc6PZCfi.s 			page 84


  66:../libs/libDaisy/src/dev/mpr121.h ****     }
 2794              		.loc 12 66 40 view .LVU782
 2795 0188 0123     		movs	r3, #1
 2796 018a 9DF87810 		ldrb	r1, [sp, #120]	@ zero_extendqisi2
 2797              	.LBE991:
 2798              	.LBE990:
 2799              	.LBE989:
 2800              	.LBE988:
 2801              	.LBB1061:
 2802              	.LBB986:
 2803              	.LBB984:
 2804              	.LBB982:
 2805              		.loc 12 343 55 view .LVU783
 2806 018e B842     		cmp	r0, r7
 2807 0190 18BF     		it	ne
 2808 0192 42F00102 		orrne	r2, r2, #1
 2809              	.LBE982:
 2810              	.LBE984:
 2811              	.LBE986:
 2812              	.LBE1061:
 2813              	.LBB1062:
 2814              	.LBB1056:
 2815              	.LBB995:
 2816              	.LBB992:
  66:../libs/libDaisy/src/dev/mpr121.h ****     }
 2817              		.loc 12 66 40 view .LVU784
 2818 0196 0094     		str	r4, [sp]
 2819 0198 19A8     		add	r0, sp, #100
 2820              	.LVL180:
  66:../libs/libDaisy/src/dev/mpr121.h ****     }
 2821              		.loc 12 66 40 view .LVU785
 2822              	.LBE992:
 2823              	.LBE995:
 264:../libs/libDaisy/src/dev/mpr121.h **** 
 2824              		.loc 12 264 17 view .LVU786
 2825 019a 8DF83970 		strb	r7, [sp, #57]
 2826              	.LBE1056:
 2827              	.LBE1062:
 2828              	.LBB1063:
 2829              	.LBB987:
 2830              	.LBB985:
 2831              	.LBB983:
 2832              		.loc 12 343 55 view .LVU787
 2833 019e 8DF87C20 		strb	r2, [sp, #124]
 2834              	.LVL181:
 2835              		.loc 12 343 55 view .LVU788
 2836              	.LBE983:
 2837              	.LBE985:
 2838              	.LBE987:
 2839              	.LBE1063:
 2840              	.LBB1064:
 2841              	.LBI988:
 257:../libs/libDaisy/src/dev/mpr121.h ****     {
 2842              		.loc 12 257 10 is_stmt 1 view .LVU789
 2843              	.LBB1057:
 2844              	.LBB996:
 2845              	.LBI990:
ARM GAS  C:\Users\skipi\AppData\Local\Temp\cc6PZCfi.s 			page 85


  63:../libs/libDaisy/src/dev/mpr121.h ****     {
 2846              		.loc 12 63 10 view .LVU790
 2847              	.LBB993:
  65:../libs/libDaisy/src/dev/mpr121.h ****                != i2c_.TransmitBlocking(config_.dev_addr, data, size, 10);
 2848              		.loc 12 65 9 view .LVU791
  66:../libs/libDaisy/src/dev/mpr121.h ****     }
 2849              		.loc 12 66 40 is_stmt 0 view .LVU792
 2850 01a2 0EAA     		add	r2, sp, #56
 2851              	.LVL182:
  66:../libs/libDaisy/src/dev/mpr121.h ****     }
 2852              		.loc 12 66 40 view .LVU793
 2853              	.LBE993:
 2854              	.LBE996:
 264:../libs/libDaisy/src/dev/mpr121.h **** 
 2855              		.loc 12 264 17 view .LVU794
 2856 01a4 8DF83860 		strb	r6, [sp, #56]
 2857              	.LBB997:
 2858              	.LBB994:
  66:../libs/libDaisy/src/dev/mpr121.h ****     }
 2859              		.loc 12 66 40 view .LVU795
 2860 01a8 FFF7FEFF 		bl	_ZN5daisy9I2CHandle16TransmitBlockingEtPhtm
 2861              	.LVL183:
  66:../libs/libDaisy/src/dev/mpr121.h ****     }
 2862              		.loc 12 66 40 view .LVU796
 2863              	.LBE994:
 2864              	.LBE997:
 2865              	.LBB998:
 2866              	.LBI998:
 2867              		.loc 12 343 10 is_stmt 1 view .LVU797
 2868              	.LBB999:
 2869              		.loc 12 343 55 is_stmt 0 view .LVU798
 2870 01ac 9DF87C20 		ldrb	r2, [sp, #124]	@ zero_extendqisi2
 2871              	.LBE999:
 2872              	.LBE998:
 2873              	.LBB1002:
 2874              	.LBB1003:
  73:../libs/libDaisy/src/dev/mpr121.h ****     }
 2875              		.loc 12 73 39 view .LVU799
 2876 01b0 0123     		movs	r3, #1
 2877 01b2 9DF87810 		ldrb	r1, [sp, #120]	@ zero_extendqisi2
 2878              	.LBE1003:
 2879              	.LBE1002:
 2880              	.LBB1006:
 2881              	.LBB1000:
 2882              		.loc 12 343 55 view .LVU800
 2883 01b6 B842     		cmp	r0, r7
 2884 01b8 18BF     		it	ne
 2885 01ba 42F00102 		orrne	r2, r2, #1
 2886              	.LBE1000:
 2887              	.LBE1006:
 2888              	.LBB1007:
 2889              	.LBB1004:
  73:../libs/libDaisy/src/dev/mpr121.h ****     }
 2890              		.loc 12 73 39 view .LVU801
 2891 01be 0094     		str	r4, [sp]
 2892 01c0 19A8     		add	r0, sp, #100
 2893              	.LVL184:
ARM GAS  C:\Users\skipi\AppData\Local\Temp\cc6PZCfi.s 			page 86


  73:../libs/libDaisy/src/dev/mpr121.h ****     }
 2894              		.loc 12 73 39 view .LVU802
 2895              	.LBE1004:
 2896              	.LBE1007:
 2897              	.LBB1008:
 2898              	.LBB1001:
 2899              		.loc 12 343 55 view .LVU803
 2900 01c2 8DF87C20 		strb	r2, [sp, #124]
 2901              	.LVL185:
 2902              		.loc 12 343 55 view .LVU804
 2903              	.LBE1001:
 2904              	.LBE1008:
 2905              	.LBB1009:
 2906              	.LBI1002:
  70:../libs/libDaisy/src/dev/mpr121.h ****     {
 2907              		.loc 12 70 10 is_stmt 1 view .LVU805
 2908              	.LBB1005:
  72:../libs/libDaisy/src/dev/mpr121.h ****                != i2c_.ReceiveBlocking(config_.dev_addr, data, size, 10);
 2909              		.loc 12 72 9 view .LVU806
  73:../libs/libDaisy/src/dev/mpr121.h ****     }
 2910              		.loc 12 73 39 is_stmt 0 view .LVU807
 2911 01c6 09AA     		add	r2, sp, #36
 2912              	.LVL186:
  73:../libs/libDaisy/src/dev/mpr121.h ****     }
 2913              		.loc 12 73 39 view .LVU808
 2914 01c8 FFF7FEFF 		bl	_ZN5daisy9I2CHandle15ReceiveBlockingEtPhtm
 2915              	.LVL187:
  73:../libs/libDaisy/src/dev/mpr121.h ****     }
 2916              		.loc 12 73 39 view .LVU809
 2917              	.LBE1005:
 2918              	.LBE1009:
 2919              	.LBB1010:
 2920              	.LBI1010:
 2921              		.loc 12 343 10 is_stmt 1 view .LVU810
 2922              	.LBB1011:
 2923              		.loc 12 343 55 is_stmt 0 view .LVU811
 2924 01cc 9DF87C20 		ldrb	r2, [sp, #124]	@ zero_extendqisi2
 2925              	.LBE1011:
 2926              	.LBE1010:
 2927              	.LBB1014:
 2928              	.LBB1015:
  66:../libs/libDaisy/src/dev/mpr121.h ****     }
 2929              		.loc 12 66 40 view .LVU812
 2930 01d0 0223     		movs	r3, #2
 2931 01d2 9DF87810 		ldrb	r1, [sp, #120]	@ zero_extendqisi2
 2932              	.LBE1015:
 2933              	.LBE1014:
 2934              	.LBB1018:
 2935              	.LBB1012:
 2936              		.loc 12 343 55 view .LVU813
 2937 01d6 B842     		cmp	r0, r7
 2938 01d8 18BF     		it	ne
 2939 01da 42F00102 		orrne	r2, r2, #1
 2940              	.LBE1012:
 2941              	.LBE1018:
 2942              	.LBB1019:
 2943              	.LBB1016:
ARM GAS  C:\Users\skipi\AppData\Local\Temp\cc6PZCfi.s 			page 87


  66:../libs/libDaisy/src/dev/mpr121.h ****     }
 2944              		.loc 12 66 40 view .LVU814
 2945 01de 0094     		str	r4, [sp]
 2946 01e0 19A8     		add	r0, sp, #100
 2947              	.LVL188:
  66:../libs/libDaisy/src/dev/mpr121.h ****     }
 2948              		.loc 12 66 40 view .LVU815
 2949              	.LBE1016:
 2950              	.LBE1019:
 2951              	.LBB1020:
 2952              	.LBB1013:
 2953              		.loc 12 343 55 view .LVU816
 2954 01e2 8DF87C20 		strb	r2, [sp, #124]
 2955              	.LVL189:
 2956              		.loc 12 343 55 view .LVU817
 2957              	.LBE1013:
 2958              	.LBE1020:
 2959              	.LBB1021:
 2960              	.LBI1014:
  63:../libs/libDaisy/src/dev/mpr121.h ****     {
 2961              		.loc 12 63 10 is_stmt 1 view .LVU818
 2962              	.LBB1017:
  65:../libs/libDaisy/src/dev/mpr121.h ****                != i2c_.TransmitBlocking(config_.dev_addr, data, size, 10);
 2963              		.loc 12 65 9 view .LVU819
  66:../libs/libDaisy/src/dev/mpr121.h ****     }
 2964              		.loc 12 66 40 is_stmt 0 view .LVU820
 2965 01e6 0EAA     		add	r2, sp, #56
 2966              	.LVL190:
  66:../libs/libDaisy/src/dev/mpr121.h ****     }
 2967              		.loc 12 66 40 view .LVU821
 2968 01e8 FFF7FEFF 		bl	_ZN5daisy9I2CHandle16TransmitBlockingEtPhtm
 2969              	.LVL191:
  66:../libs/libDaisy/src/dev/mpr121.h ****     }
 2970              		.loc 12 66 40 view .LVU822
 2971              	.LBE1017:
 2972              	.LBE1021:
 2973              	.LBB1022:
 2974              	.LBI1022:
 2975              		.loc 12 343 10 is_stmt 1 view .LVU823
 2976              	.LBB1023:
 2977              		.loc 12 343 55 is_stmt 0 view .LVU824
 2978 01ec 9DF87C10 		ldrb	r1, [sp, #124]	@ zero_extendqisi2
 2979              	.LBE1023:
 2980              	.LBE1022:
 281:../libs/libDaisy/src/dev/mpr121.h ****         buff[1] = value;
 2981              		.loc 12 281 17 view .LVU825
 2982 01f0 6B1C     		adds	r3, r5, #1
 2983              	.LBB1026:
 2984              	.LBB1027:
  66:../libs/libDaisy/src/dev/mpr121.h ****     }
 2985              		.loc 12 66 40 view .LVU826
 2986 01f2 0EAA     		add	r2, sp, #56
 2987              	.LBE1027:
 2988              	.LBE1026:
 2989              	.LBB1032:
 2990              	.LBB1024:
 2991              		.loc 12 343 55 view .LVU827
ARM GAS  C:\Users\skipi\AppData\Local\Temp\cc6PZCfi.s 			page 88


 2992 01f4 B842     		cmp	r0, r7
 2993 01f6 18BF     		it	ne
 2994 01f8 41F00101 		orrne	r1, r1, #1
 2995              	.LBE1024:
 2996              	.LBE1032:
 2997              	.LBB1033:
 2998              	.LBB1028:
  66:../libs/libDaisy/src/dev/mpr121.h ****     }
 2999              		.loc 12 66 40 view .LVU828
 3000 01fc 0094     		str	r4, [sp]
 3001              	.LBE1028:
 3002              	.LBE1033:
 281:../libs/libDaisy/src/dev/mpr121.h ****         buff[1] = value;
 3003              		.loc 12 281 17 view .LVU829
 3004 01fe 8DF83830 		strb	r3, [sp, #56]
 3005              	.LBB1034:
 3006              	.LBB1029:
  66:../libs/libDaisy/src/dev/mpr121.h ****     }
 3007              		.loc 12 66 40 view .LVU830
 3008 0202 19A8     		add	r0, sp, #100
 3009              	.LVL192:
  66:../libs/libDaisy/src/dev/mpr121.h ****     }
 3010              		.loc 12 66 40 view .LVU831
 3011 0204 0223     		movs	r3, #2
 3012              	.LBE1029:
 3013              	.LBE1034:
 3014              	.LBB1035:
 3015              	.LBB1025:
 3016              		.loc 12 343 55 view .LVU832
 3017 0206 8DF87C10 		strb	r1, [sp, #124]
 3018              	.LVL193:
 3019              		.loc 12 343 55 view .LVU833
 3020              	.LBE1025:
 3021              	.LBE1035:
 3022              	.LBB1036:
 3023              	.LBI1026:
  63:../libs/libDaisy/src/dev/mpr121.h ****     {
 3024              		.loc 12 63 10 is_stmt 1 view .LVU834
 3025              	.LBB1030:
  65:../libs/libDaisy/src/dev/mpr121.h ****                != i2c_.TransmitBlocking(config_.dev_addr, data, size, 10);
 3026              		.loc 12 65 9 view .LVU835
  66:../libs/libDaisy/src/dev/mpr121.h ****     }
 3027              		.loc 12 66 40 is_stmt 0 view .LVU836
 3028 020a 9DF87810 		ldrb	r1, [sp, #120]	@ zero_extendqisi2
 3029              	.LBE1030:
 3030              	.LBE1036:
 3031              	.LBE1057:
 3032              	.LBE1064:
 180:../libs/libDaisy/src/dev/mpr121.h ****         {
 3033              		.loc 12 180 30 view .LVU837
 3034 020e 0235     		adds	r5, r5, #2
 3035              	.LVL194:
 3036              	.LBB1065:
 3037              	.LBB1058:
 282:../libs/libDaisy/src/dev/mpr121.h ****         SetTransportErr(transport_.Write(buff, 2));
 3038              		.loc 12 282 17 view .LVU838
 3039 0210 8DF83980 		strb	r8, [sp, #57]
ARM GAS  C:\Users\skipi\AppData\Local\Temp\cc6PZCfi.s 			page 89


 3040              	.LBB1037:
 3041              	.LBB1031:
  66:../libs/libDaisy/src/dev/mpr121.h ****     }
 3042              		.loc 12 66 40 view .LVU839
 3043 0214 FFF7FEFF 		bl	_ZN5daisy9I2CHandle16TransmitBlockingEtPhtm
 3044              	.LVL195:
  66:../libs/libDaisy/src/dev/mpr121.h ****     }
 3045              		.loc 12 66 40 view .LVU840
 3046              	.LBE1031:
 3047              	.LBE1037:
 3048              	.LBB1038:
 3049              	.LBI1038:
 3050              		.loc 12 343 10 is_stmt 1 view .LVU841
 3051              	.LBB1039:
 3052              		.loc 12 343 55 is_stmt 0 view .LVU842
 3053 0218 9DF87C20 		ldrb	r2, [sp, #124]	@ zero_extendqisi2
 3054              	.LBE1039:
 3055              	.LBE1038:
 3056              	.LBB1042:
 3057              	.LBB1043:
  66:../libs/libDaisy/src/dev/mpr121.h ****     }
 3058              		.loc 12 66 40 view .LVU843
 3059 021c 0223     		movs	r3, #2
 3060              	.LBE1043:
 3061              	.LBE1042:
 289:../libs/libDaisy/src/dev/mpr121.h ****             SetTransportErr(transport_.Write(buff, 2));
 3062              		.loc 12 289 21 view .LVU844
 3063 021e 9DF82410 		ldrb	r1, [sp, #36]	@ zero_extendqisi2
 3064              	.LBE1058:
 3065              	.LBE1065:
 180:../libs/libDaisy/src/dev/mpr121.h ****         {
 3066              		.loc 12 180 30 view .LVU845
 3067 0222 EDB2     		uxtb	r5, r5
 3068              	.LBB1066:
 3069              	.LBB1059:
 3070              	.LBB1047:
 3071              	.LBB1044:
  66:../libs/libDaisy/src/dev/mpr121.h ****     }
 3072              		.loc 12 66 40 view .LVU846
 3073 0224 0094     		str	r4, [sp]
 3074              	.LBE1044:
 3075              	.LBE1047:
 3076              	.LBB1048:
 3077              	.LBB1040:
 3078              		.loc 12 343 55 view .LVU847
 3079 0226 B842     		cmp	r0, r7
 3080 0228 0CBF     		ite	eq
 3081 022a 1446     		moveq	r4, r2
 3082 022c 42F00104 		orrne	r4, r2, #1
 3083              	.LBE1040:
 3084              	.LBE1048:
 289:../libs/libDaisy/src/dev/mpr121.h ****             SetTransportErr(transport_.Write(buff, 2));
 3085              		.loc 12 289 21 view .LVU848
 3086 0230 8DF83910 		strb	r1, [sp, #57]
 3087              	.LBB1049:
 3088              	.LBB1045:
  66:../libs/libDaisy/src/dev/mpr121.h ****     }
ARM GAS  C:\Users\skipi\AppData\Local\Temp\cc6PZCfi.s 			page 90


 3089              		.loc 12 66 40 view .LVU849
 3090 0234 0EAA     		add	r2, sp, #56
 3091 0236 9DF87810 		ldrb	r1, [sp, #120]	@ zero_extendqisi2
 3092 023a 19A8     		add	r0, sp, #100
 3093              	.LVL196:
  66:../libs/libDaisy/src/dev/mpr121.h ****     }
 3094              		.loc 12 66 40 view .LVU850
 3095              	.LBE1045:
 3096              	.LBE1049:
 288:../libs/libDaisy/src/dev/mpr121.h ****             buff[1] = ecr_backup;
 3097              		.loc 12 288 21 view .LVU851
 3098 023c 8DF83860 		strb	r6, [sp, #56]
 3099              	.LBB1050:
 3100              	.LBB1041:
 3101              		.loc 12 343 55 view .LVU852
 3102 0240 8DF87C40 		strb	r4, [sp, #124]
 3103              	.LVL197:
 3104              		.loc 12 343 55 view .LVU853
 3105              	.LBE1041:
 3106              	.LBE1050:
 3107              	.LBB1051:
 3108              	.LBI1042:
  63:../libs/libDaisy/src/dev/mpr121.h ****     {
 3109              		.loc 12 63 10 is_stmt 1 view .LVU854
 3110              	.LBB1046:
  65:../libs/libDaisy/src/dev/mpr121.h ****                != i2c_.TransmitBlocking(config_.dev_addr, data, size, 10);
 3111              		.loc 12 65 9 view .LVU855
  66:../libs/libDaisy/src/dev/mpr121.h ****     }
 3112              		.loc 12 66 40 is_stmt 0 view .LVU856
 3113 0244 FFF7FEFF 		bl	_ZN5daisy9I2CHandle16TransmitBlockingEtPhtm
 3114              	.LVL198:
  66:../libs/libDaisy/src/dev/mpr121.h ****     }
 3115              		.loc 12 66 40 view .LVU857
 3116              	.LBE1046:
 3117              	.LBE1051:
 3118              	.LBB1052:
 3119              	.LBI1052:
 3120              		.loc 12 343 10 is_stmt 1 view .LVU858
 3121              	.LBB1053:
 3122              		.loc 12 343 55 is_stmt 0 view .LVU859
 3123 0248 9DF87C30 		ldrb	r3, [sp, #124]	@ zero_extendqisi2
 3124 024c B842     		cmp	r0, r7
 3125 024e 18BF     		it	ne
 3126 0250 43F00103 		orrne	r3, r3, #1
 3127              	.LBE1053:
 3128              	.LBE1052:
 3129              	.LBE1059:
 3130              	.LBE1066:
 180:../libs/libDaisy/src/dev/mpr121.h ****         {
 3131              		.loc 12 180 30 view .LVU860
 3132 0254 592D     		cmp	r5, #89
 3133              	.LBB1067:
 3134              	.LBB1060:
 3135              	.LBB1055:
 3136              	.LBB1054:
 3137              		.loc 12 343 55 view .LVU861
 3138 0256 8DF87C30 		strb	r3, [sp, #124]
ARM GAS  C:\Users\skipi\AppData\Local\Temp\cc6PZCfi.s 			page 91


 3139              	.LVL199:
 3140              		.loc 12 343 55 view .LVU862
 3141              	.LBE1054:
 3142              	.LBE1055:
 3143              	.LBE1060:
 3144              	.LBE1067:
 180:../libs/libDaisy/src/dev/mpr121.h ****         {
 3145              		.loc 12 180 9 is_stmt 1 view .LVU863
 180:../libs/libDaisy/src/dev/mpr121.h ****         {
 3146              		.loc 12 180 30 view .LVU864
 3147 025a 7FF43AAF 		bne	.L33
 3148              	.LVL200:
 180:../libs/libDaisy/src/dev/mpr121.h ****         {
 3149              		.loc 12 180 30 is_stmt 0 view .LVU865
 3150              	.LBE917:
 3151              	.LBE916:
 134:../libs/libDaisy/src/dev/mpr121.h ****         WriteRegister(MPR121_NHDR, 0x01);
 3152              		.loc 12 134 22 view .LVU866
 3153 025e 0122     		movs	r2, #1
 3154 0260 2B21     		movs	r1, #43
 3155 0262 13A8     		add	r0, sp, #76
 3156              	.LVL201:
 134:../libs/libDaisy/src/dev/mpr121.h ****         WriteRegister(MPR121_NHDR, 0x01);
 3157              		.loc 12 134 22 view .LVU867
 3158              	.LBE1072:
 3159              	.LBE1080:
 224:src/PianoB.cpp **** 
 225:src/PianoB.cpp **** 
 226:src/PianoB.cpp ****     hw.SetAudioBlockSize(4);                                                    // Set audio block 
 227:src/PianoB.cpp ****     hw.SetAudioSampleRate(SaiHandle::Config::SampleRate::SAI_48KHZ);            // Set sample rate 
 228:src/PianoB.cpp **** //------------------------------------------------------------------------------Inizializza Ogetti 
 229:src/PianoB.cpp ****     Pluck1.Init(hw.AudioSampleRate());
 230:src/PianoB.cpp ****     Pluck2.Init(hw.AudioSampleRate());                                            // Initialize the
 231:src/PianoB.cpp ****     Pluck3.Init(hw.AudioSampleRate());                                            // Initialize the
 232:src/PianoB.cpp ****     Pluck4.Init(hw.AudioSampleRate());                                            // Initialize the
 233:src/PianoB.cpp ****     Bass1.Init(hw.AudioSampleRate());                                            // Initialize the 
 234:src/PianoB.cpp ****     Bass2.Init(hw.AudioSampleRate());                                            // Initialize the 
 235:src/PianoB.cpp ****     Pad1.Init(hw.AudioSampleRate());                                            // Initialize the R
 236:src/PianoB.cpp ****     Pad2.Init(hw.AudioSampleRate());                                            // Initialize the R
 237:src/PianoB.cpp **** 
 238:src/PianoB.cpp ****     Pluck1.SetWaveforms(wf_Pluck);                                                      
 239:src/PianoB.cpp ****     Pluck2.SetWaveforms(wf_Pluck);                                                      // Set wave
 240:src/PianoB.cpp ****     Pluck3.SetWaveforms(wf_Pluck);                                                      // Set wave
 241:src/PianoB.cpp ****     Pluck4.SetWaveforms(wf_Pluck);                                                      // Set wave
 242:src/PianoB.cpp ****     Bass1.SetWaveforms(wf_Bass);                                                      // Set wavefo
 243:src/PianoB.cpp ****     Bass2.SetWaveforms(wf_Bass);                                                      // Set wavefo
 244:src/PianoB.cpp ****     Pad1.SetWaveforms(wf_Pad);                                                      // Set waveform
 245:src/PianoB.cpp ****     Pad2.SetWaveforms(wf_Pad);                                                      // Set waveform
 246:src/PianoB.cpp **** 
 247:src/PianoB.cpp ****                                             
 248:src/PianoB.cpp ****     Pluck1.SetFreq(f_Pluck);                                                    
 3160              		.loc 10 248 19 view .LVU868
 3161 0264 DFF8D490 		ldr	r9, .L62+16
 3162              	.LBB1081:
 3163              	.LBB1073:
 134:../libs/libDaisy/src/dev/mpr121.h ****         WriteRegister(MPR121_NHDR, 0x01);
 3164              		.loc 12 134 22 view .LVU869
ARM GAS  C:\Users\skipi\AppData\Local\Temp\cc6PZCfi.s 			page 92


 3165 0268 FFF7FEFF 		bl	_ZN5daisy6Mpr121INS_18Mpr121I2CTransportEE13WriteRegisterEhh
 3166              	.LVL202:
 135:../libs/libDaisy/src/dev/mpr121.h ****         WriteRegister(MPR121_NCLR, 0x0E);
 3167              		.loc 12 135 22 view .LVU870
 3168 026c 0122     		movs	r2, #1
 3169 026e 2C21     		movs	r1, #44
 3170 0270 13A8     		add	r0, sp, #76
 3171              	.LVL203:
 135:../libs/libDaisy/src/dev/mpr121.h ****         WriteRegister(MPR121_NCLR, 0x0E);
 3172              		.loc 12 135 22 view .LVU871
 3173 0272 FFF7FEFF 		bl	_ZN5daisy6Mpr121INS_18Mpr121I2CTransportEE13WriteRegisterEhh
 3174              	.LVL204:
 136:../libs/libDaisy/src/dev/mpr121.h ****         WriteRegister(MPR121_FDLR, 0x00);
 3175              		.loc 12 136 22 view .LVU872
 3176 0276 2D21     		movs	r1, #45
 3177 0278 13A8     		add	r0, sp, #76
 3178              	.LVL205:
 136:../libs/libDaisy/src/dev/mpr121.h ****         WriteRegister(MPR121_FDLR, 0x00);
 3179              		.loc 12 136 22 view .LVU873
 3180 027a 0E22     		movs	r2, #14
 3181 027c FFF7FEFF 		bl	_ZN5daisy6Mpr121INS_18Mpr121I2CTransportEE13WriteRegisterEhh
 3182              	.LVL206:
 137:../libs/libDaisy/src/dev/mpr121.h **** 
 3183              		.loc 12 137 22 view .LVU874
 3184 0280 3A46     		mov	r2, r7
 3185 0282 2E21     		movs	r1, #46
 3186 0284 13A8     		add	r0, sp, #76
 3187              	.LVL207:
 137:../libs/libDaisy/src/dev/mpr121.h **** 
 3188              		.loc 12 137 22 view .LVU875
 3189 0286 FFF7FEFF 		bl	_ZN5daisy6Mpr121INS_18Mpr121I2CTransportEE13WriteRegisterEhh
 3190              	.LVL208:
 139:../libs/libDaisy/src/dev/mpr121.h ****         WriteRegister(MPR121_NHDF, 0x05);
 3191              		.loc 12 139 22 view .LVU876
 3192 028a 0122     		movs	r2, #1
 3193 028c 2F21     		movs	r1, #47
 3194 028e 13A8     		add	r0, sp, #76
 3195              	.LVL209:
 139:../libs/libDaisy/src/dev/mpr121.h ****         WriteRegister(MPR121_NHDF, 0x05);
 3196              		.loc 12 139 22 view .LVU877
 3197 0290 FFF7FEFF 		bl	_ZN5daisy6Mpr121INS_18Mpr121I2CTransportEE13WriteRegisterEhh
 3198              	.LVL210:
 140:../libs/libDaisy/src/dev/mpr121.h ****         WriteRegister(MPR121_NCLF, 0x01);
 3199              		.loc 12 140 22 view .LVU878
 3200 0294 0522     		movs	r2, #5
 3201 0296 3021     		movs	r1, #48
 3202 0298 13A8     		add	r0, sp, #76
 3203              	.LVL211:
 140:../libs/libDaisy/src/dev/mpr121.h ****         WriteRegister(MPR121_NCLF, 0x01);
 3204              		.loc 12 140 22 view .LVU879
 3205 029a FFF7FEFF 		bl	_ZN5daisy6Mpr121INS_18Mpr121I2CTransportEE13WriteRegisterEhh
 3206              	.LVL212:
 141:../libs/libDaisy/src/dev/mpr121.h ****         WriteRegister(MPR121_FDLF, 0x00);
 3207              		.loc 12 141 22 view .LVU880
 3208 029e 3121     		movs	r1, #49
 3209 02a0 13A8     		add	r0, sp, #76
 3210              	.LVL213:
ARM GAS  C:\Users\skipi\AppData\Local\Temp\cc6PZCfi.s 			page 93


 141:../libs/libDaisy/src/dev/mpr121.h ****         WriteRegister(MPR121_FDLF, 0x00);
 3211              		.loc 12 141 22 view .LVU881
 3212 02a2 0122     		movs	r2, #1
 3213 02a4 FFF7FEFF 		bl	_ZN5daisy6Mpr121INS_18Mpr121I2CTransportEE13WriteRegisterEhh
 3214              	.LVL214:
 142:../libs/libDaisy/src/dev/mpr121.h **** 
 3215              		.loc 12 142 22 view .LVU882
 3216 02a8 3A46     		mov	r2, r7
 3217 02aa 3221     		movs	r1, #50
 3218 02ac 13A8     		add	r0, sp, #76
 3219              	.LVL215:
 142:../libs/libDaisy/src/dev/mpr121.h **** 
 3220              		.loc 12 142 22 view .LVU883
 3221 02ae FFF7FEFF 		bl	_ZN5daisy6Mpr121INS_18Mpr121I2CTransportEE13WriteRegisterEhh
 3222              	.LVL216:
 144:../libs/libDaisy/src/dev/mpr121.h ****         WriteRegister(MPR121_NCLT, 0x00);
 3223              		.loc 12 144 22 view .LVU884
 3224 02b2 3A46     		mov	r2, r7
 3225 02b4 3321     		movs	r1, #51
 3226 02b6 13A8     		add	r0, sp, #76
 3227              	.LVL217:
 144:../libs/libDaisy/src/dev/mpr121.h ****         WriteRegister(MPR121_NCLT, 0x00);
 3228              		.loc 12 144 22 view .LVU885
 3229 02b8 FFF7FEFF 		bl	_ZN5daisy6Mpr121INS_18Mpr121I2CTransportEE13WriteRegisterEhh
 3230              	.LVL218:
 145:../libs/libDaisy/src/dev/mpr121.h ****         WriteRegister(MPR121_FDLT, 0x00);
 3231              		.loc 12 145 22 view .LVU886
 3232 02bc 3A46     		mov	r2, r7
 3233 02be 3421     		movs	r1, #52
 3234 02c0 13A8     		add	r0, sp, #76
 3235              	.LVL219:
 145:../libs/libDaisy/src/dev/mpr121.h ****         WriteRegister(MPR121_FDLT, 0x00);
 3236              		.loc 12 145 22 view .LVU887
 3237 02c2 FFF7FEFF 		bl	_ZN5daisy6Mpr121INS_18Mpr121I2CTransportEE13WriteRegisterEhh
 3238              	.LVL220:
 146:../libs/libDaisy/src/dev/mpr121.h **** 
 3239              		.loc 12 146 22 view .LVU888
 3240 02c6 3A46     		mov	r2, r7
 3241 02c8 3521     		movs	r1, #53
 3242 02ca 13A8     		add	r0, sp, #76
 3243              	.LVL221:
 146:../libs/libDaisy/src/dev/mpr121.h **** 
 3244              		.loc 12 146 22 view .LVU889
 3245 02cc FFF7FEFF 		bl	_ZN5daisy6Mpr121INS_18Mpr121I2CTransportEE13WriteRegisterEhh
 3246              	.LVL222:
 148:../libs/libDaisy/src/dev/mpr121.h ****         WriteRegister(MPR121_CONFIG1, 0x10); // default, 16uA charge current
 3247              		.loc 12 148 22 view .LVU890
 3248 02d0 3A46     		mov	r2, r7
 3249 02d2 5B21     		movs	r1, #91
 3250 02d4 13A8     		add	r0, sp, #76
 3251              	.LVL223:
 148:../libs/libDaisy/src/dev/mpr121.h ****         WriteRegister(MPR121_CONFIG1, 0x10); // default, 16uA charge current
 3252              		.loc 12 148 22 view .LVU891
 3253 02d6 FFF7FEFF 		bl	_ZN5daisy6Mpr121INS_18Mpr121I2CTransportEE13WriteRegisterEhh
 3254              	.LVL224:
 149:../libs/libDaisy/src/dev/mpr121.h ****         WriteRegister(MPR121_CONFIG2, 0x20); // 0.5uS encoding, 1ms period
 3255              		.loc 12 149 22 view .LVU892
ARM GAS  C:\Users\skipi\AppData\Local\Temp\cc6PZCfi.s 			page 94


 3256 02da 1022     		movs	r2, #16
 3257 02dc 5C21     		movs	r1, #92
 3258 02de 13A8     		add	r0, sp, #76
 3259              	.LVL225:
 149:../libs/libDaisy/src/dev/mpr121.h ****         WriteRegister(MPR121_CONFIG2, 0x20); // 0.5uS encoding, 1ms period
 3260              		.loc 12 149 22 view .LVU893
 3261 02e0 FFF7FEFF 		bl	_ZN5daisy6Mpr121INS_18Mpr121I2CTransportEE13WriteRegisterEhh
 3262              	.LVL226:
 150:../libs/libDaisy/src/dev/mpr121.h **** 
 3263              		.loc 12 150 22 view .LVU894
 3264 02e4 2022     		movs	r2, #32
 3265 02e6 5D21     		movs	r1, #93
 3266 02e8 13A8     		add	r0, sp, #76
 3267              	.LVL227:
 150:../libs/libDaisy/src/dev/mpr121.h **** 
 3268              		.loc 12 150 22 view .LVU895
 3269 02ea FFF7FEFF 		bl	_ZN5daisy6Mpr121INS_18Mpr121I2CTransportEE13WriteRegisterEhh
 3270              	.LVL228:
 166:../libs/libDaisy/src/dev/mpr121.h ****                       ECR_SETTING); // start with above ECR setting
 3271              		.loc 12 166 22 view .LVU896
 3272 02ee 8C22     		movs	r2, #140
 3273 02f0 3146     		mov	r1, r6
 3274 02f2 13A8     		add	r0, sp, #76
 3275              	.LVL229:
 166:../libs/libDaisy/src/dev/mpr121.h ****                       ECR_SETTING); // start with above ECR setting
 3276              		.loc 12 166 22 view .LVU897
 3277 02f4 FFF7FEFF 		bl	_ZN5daisy6Mpr121INS_18Mpr121I2CTransportEE13WriteRegisterEhh
 3278              	.LVL230:
 3279              	.LBB1068:
 3280              	.LBI1068:
 344:../libs/libDaisy/src/dev/mpr121.h **** 
 345:../libs/libDaisy/src/dev/mpr121.h ****     /** Get the global transport_error_ bool (as a Result), then reset it */
 346:../libs/libDaisy/src/dev/mpr121.h ****     Result GetTransportErr()
 3281              		.loc 12 346 12 is_stmt 1 view .LVU898
 3282              	.LBE1068:
 3283              	.LBE1073:
 3284              	.LBE1081:
 226:src/PianoB.cpp ****     hw.SetAudioSampleRate(SaiHandle::Config::SampleRate::SAI_48KHZ);            // Set sample rate 
 3285              		.loc 10 226 25 is_stmt 0 view .LVU899
 3286 02f8 0421     		movs	r1, #4
 3287 02fa 0C48     		ldr	r0, .L62
 3288              	.LBB1082:
 3289              	.LBB1074:
 3290              	.LBB1070:
 3291              	.LBB1069:
 347:../libs/libDaisy/src/dev/mpr121.h ****     {
 348:../libs/libDaisy/src/dev/mpr121.h ****         Result ret       = transport_error_ ? ERR : OK;
 349:../libs/libDaisy/src/dev/mpr121.h ****         transport_error_ = false;
 3292              		.loc 12 349 26 view .LVU900
 3293 02fc 8DF87C70 		strb	r7, [sp, #124]
 3294              	.LVL231:
 3295              		.loc 12 349 26 view .LVU901
 3296              	.LBE1069:
 3297              	.LBE1070:
 3298              	.LBE1074:
 3299              	.LBE1082:
 226:src/PianoB.cpp ****     hw.SetAudioSampleRate(SaiHandle::Config::SampleRate::SAI_48KHZ);            // Set sample rate 
ARM GAS  C:\Users\skipi\AppData\Local\Temp\cc6PZCfi.s 			page 95


 3300              		.loc 10 226 5 is_stmt 1 view .LVU902
 226:src/PianoB.cpp ****     hw.SetAudioSampleRate(SaiHandle::Config::SampleRate::SAI_48KHZ);            // Set sample rate 
 3301              		.loc 10 226 25 is_stmt 0 view .LVU903
 3302 0300 FFF7FEFF 		bl	_ZN5daisy9DaisySeed17SetAudioBlockSizeEj
 3303              	.LVL232:
 227:src/PianoB.cpp **** //------------------------------------------------------------------------------Inizializza Ogetti 
 3304              		.loc 10 227 5 is_stmt 1 view .LVU904
 227:src/PianoB.cpp **** //------------------------------------------------------------------------------Inizializza Ogetti 
 3305              		.loc 10 227 26 is_stmt 0 view .LVU905
 3306 0304 0321     		movs	r1, #3
 3307 0306 0948     		ldr	r0, .L62
 3308 0308 FFF7FEFF 		bl	_ZN5daisy9DaisySeed18SetAudioSampleRateENS_9SaiHandle6Config10SampleRateE
 3309              	.LVL233:
 229:src/PianoB.cpp ****     Pluck2.Init(hw.AudioSampleRate());                                            // Initialize the
 3310              		.loc 10 229 5 is_stmt 1 view .LVU906
 229:src/PianoB.cpp ****     Pluck2.Init(hw.AudioSampleRate());                                            // Initialize the
 3311              		.loc 10 229 16 is_stmt 0 view .LVU907
 3312 030c 0748     		ldr	r0, .L62
 3313 030e FFF7FEFF 		bl	_ZN5daisy9DaisySeed15AudioSampleRateEv
 3314              	.LVL234:
 3315 0312 0848     		ldr	r0, .L62+8
 3316 0314 FFF7FEFF 		bl	_ZN4Ramo4InitEf
 3317              	.LVL235:
 230:src/PianoB.cpp ****     Pluck3.Init(hw.AudioSampleRate());                                            // Initialize the
 3318              		.loc 10 230 5 is_stmt 1 view .LVU908
 230:src/PianoB.cpp ****     Pluck3.Init(hw.AudioSampleRate());                                            // Initialize the
 3319              		.loc 10 230 16 is_stmt 0 view .LVU909
 3320 0318 0448     		ldr	r0, .L62
 3321 031a FFF7FEFF 		bl	_ZN5daisy9DaisySeed15AudioSampleRateEv
 3322              	.LVL236:
 3323 031e 0648     		ldr	r0, .L62+12
 3324 0320 FFF7FEFF 		bl	_ZN4Ramo4InitEf
 3325              	.LVL237:
 231:src/PianoB.cpp ****     Pluck4.Init(hw.AudioSampleRate());                                            // Initialize the
 3326              		.loc 10 231 5 is_stmt 1 view .LVU910
 231:src/PianoB.cpp ****     Pluck4.Init(hw.AudioSampleRate());                                            // Initialize the
 3327              		.loc 10 231 16 is_stmt 0 view .LVU911
 3328 0324 0148     		ldr	r0, .L62
 3329 0326 FFF7FEFF 		bl	_ZN5daisy9DaisySeed15AudioSampleRateEv
 3330              	.LVL238:
 3331 032a 09E0     		b	.L63
 3332              	.L64:
 3333              		.align	2
 3334              	.L62:
 3335 032c 00000000 		.word	.LANCHOR89
 3336 0330 01080109 		.word	151062529
 3337 0334 00000000 		.word	.LANCHOR24
 3338 0338 00000000 		.word	.LANCHOR25
 3339 033c 00000000 		.word	.LANCHOR93
 3340              	.L63:
 3341 0340 C548     		ldr	r0, .L65
 3342 0342 FFF7FEFF 		bl	_ZN4Ramo4InitEf
 3343              	.LVL239:
 232:src/PianoB.cpp ****     Bass1.Init(hw.AudioSampleRate());                                            // Initialize the 
 3344              		.loc 10 232 5 is_stmt 1 view .LVU912
 232:src/PianoB.cpp ****     Bass1.Init(hw.AudioSampleRate());                                            // Initialize the 
 3345              		.loc 10 232 16 is_stmt 0 view .LVU913
ARM GAS  C:\Users\skipi\AppData\Local\Temp\cc6PZCfi.s 			page 96


 3346 0346 C548     		ldr	r0, .L65+4
 3347 0348 FFF7FEFF 		bl	_ZN5daisy9DaisySeed15AudioSampleRateEv
 3348              	.LVL240:
 3349 034c C448     		ldr	r0, .L65+8
 3350 034e FFF7FEFF 		bl	_ZN4Ramo4InitEf
 3351              	.LVL241:
 233:src/PianoB.cpp ****     Bass2.Init(hw.AudioSampleRate());                                            // Initialize the 
 3352              		.loc 10 233 5 is_stmt 1 view .LVU914
 233:src/PianoB.cpp ****     Bass2.Init(hw.AudioSampleRate());                                            // Initialize the 
 3353              		.loc 10 233 15 is_stmt 0 view .LVU915
 3354 0352 C248     		ldr	r0, .L65+4
 3355 0354 FFF7FEFF 		bl	_ZN5daisy9DaisySeed15AudioSampleRateEv
 3356              	.LVL242:
 3357 0358 C248     		ldr	r0, .L65+12
 3358 035a FFF7FEFF 		bl	_ZN4Ramo4InitEf
 3359              	.LVL243:
 234:src/PianoB.cpp ****     Pad1.Init(hw.AudioSampleRate());                                            // Initialize the R
 3360              		.loc 10 234 5 is_stmt 1 view .LVU916
 234:src/PianoB.cpp ****     Pad1.Init(hw.AudioSampleRate());                                            // Initialize the R
 3361              		.loc 10 234 15 is_stmt 0 view .LVU917
 3362 035e BF48     		ldr	r0, .L65+4
 3363 0360 FFF7FEFF 		bl	_ZN5daisy9DaisySeed15AudioSampleRateEv
 3364              	.LVL244:
 3365 0364 C048     		ldr	r0, .L65+16
 3366 0366 FFF7FEFF 		bl	_ZN4Ramo4InitEf
 3367              	.LVL245:
 235:src/PianoB.cpp ****     Pad2.Init(hw.AudioSampleRate());                                            // Initialize the R
 3368              		.loc 10 235 5 is_stmt 1 view .LVU918
 235:src/PianoB.cpp ****     Pad2.Init(hw.AudioSampleRate());                                            // Initialize the R
 3369              		.loc 10 235 14 is_stmt 0 view .LVU919
 3370 036a BC48     		ldr	r0, .L65+4
 3371 036c FFF7FEFF 		bl	_ZN5daisy9DaisySeed15AudioSampleRateEv
 3372              	.LVL246:
 3373 0370 BE48     		ldr	r0, .L65+20
 3374 0372 FFF7FEFF 		bl	_ZN4Ramo4InitEf
 3375              	.LVL247:
 236:src/PianoB.cpp **** 
 3376              		.loc 10 236 5 is_stmt 1 view .LVU920
 236:src/PianoB.cpp **** 
 3377              		.loc 10 236 14 is_stmt 0 view .LVU921
 3378 0376 B948     		ldr	r0, .L65+4
 3379 0378 FFF7FEFF 		bl	_ZN5daisy9DaisySeed15AudioSampleRateEv
 3380              	.LVL248:
 3381 037c BC48     		ldr	r0, .L65+24
 3382 037e FFF7FEFF 		bl	_ZN4Ramo4InitEf
 3383              	.LVL249:
 238:src/PianoB.cpp ****     Pluck2.SetWaveforms(wf_Pluck);                                                      // Set wave
 3384              		.loc 10 238 5 is_stmt 1 view .LVU922
 238:src/PianoB.cpp ****     Pluck2.SetWaveforms(wf_Pluck);                                                      // Set wave
 3385              		.loc 10 238 24 is_stmt 0 view .LVU923
 3386 0382 BC49     		ldr	r1, .L65+28
 3387 0384 BC48     		ldr	r0, .L65+32
 3388 0386 FFF7FEFF 		bl	_ZN4Ramo12SetWaveformsEPh
 3389              	.LVL250:
 239:src/PianoB.cpp ****     Pluck3.SetWaveforms(wf_Pluck);                                                      // Set wave
 3390              		.loc 10 239 5 is_stmt 1 view .LVU924
 239:src/PianoB.cpp ****     Pluck3.SetWaveforms(wf_Pluck);                                                      // Set wave
ARM GAS  C:\Users\skipi\AppData\Local\Temp\cc6PZCfi.s 			page 97


 3391              		.loc 10 239 24 is_stmt 0 view .LVU925
 3392 038a BA49     		ldr	r1, .L65+28
 3393 038c BB48     		ldr	r0, .L65+36
 3394 038e FFF7FEFF 		bl	_ZN4Ramo12SetWaveformsEPh
 3395              	.LVL251:
 240:src/PianoB.cpp ****     Pluck4.SetWaveforms(wf_Pluck);                                                      // Set wave
 3396              		.loc 10 240 5 is_stmt 1 view .LVU926
 240:src/PianoB.cpp ****     Pluck4.SetWaveforms(wf_Pluck);                                                      // Set wave
 3397              		.loc 10 240 24 is_stmt 0 view .LVU927
 3398 0392 B849     		ldr	r1, .L65+28
 3399 0394 B048     		ldr	r0, .L65
 3400 0396 FFF7FEFF 		bl	_ZN4Ramo12SetWaveformsEPh
 3401              	.LVL252:
 241:src/PianoB.cpp ****     Bass1.SetWaveforms(wf_Bass);                                                      // Set wavefo
 3402              		.loc 10 241 5 is_stmt 1 view .LVU928
 241:src/PianoB.cpp ****     Bass1.SetWaveforms(wf_Bass);                                                      // Set wavefo
 3403              		.loc 10 241 24 is_stmt 0 view .LVU929
 3404 039a B649     		ldr	r1, .L65+28
 3405 039c B048     		ldr	r0, .L65+8
 3406 039e FFF7FEFF 		bl	_ZN4Ramo12SetWaveformsEPh
 3407              	.LVL253:
 242:src/PianoB.cpp ****     Bass2.SetWaveforms(wf_Bass);                                                      // Set wavefo
 3408              		.loc 10 242 5 is_stmt 1 view .LVU930
 242:src/PianoB.cpp ****     Bass2.SetWaveforms(wf_Bass);                                                      // Set wavefo
 3409              		.loc 10 242 23 is_stmt 0 view .LVU931
 3410 03a2 B749     		ldr	r1, .L65+40
 3411 03a4 AF48     		ldr	r0, .L65+12
 3412 03a6 FFF7FEFF 		bl	_ZN4Ramo12SetWaveformsEPh
 3413              	.LVL254:
 243:src/PianoB.cpp ****     Pad1.SetWaveforms(wf_Pad);                                                      // Set waveform
 3414              		.loc 10 243 5 is_stmt 1 view .LVU932
 243:src/PianoB.cpp ****     Pad1.SetWaveforms(wf_Pad);                                                      // Set waveform
 3415              		.loc 10 243 23 is_stmt 0 view .LVU933
 3416 03aa B549     		ldr	r1, .L65+40
 3417 03ac AE48     		ldr	r0, .L65+16
 3418 03ae FFF7FEFF 		bl	_ZN4Ramo12SetWaveformsEPh
 3419              	.LVL255:
 244:src/PianoB.cpp ****     Pad2.SetWaveforms(wf_Pad);                                                      // Set waveform
 3420              		.loc 10 244 5 is_stmt 1 view .LVU934
 244:src/PianoB.cpp ****     Pad2.SetWaveforms(wf_Pad);                                                      // Set waveform
 3421              		.loc 10 244 22 is_stmt 0 view .LVU935
 3422 03b2 B449     		ldr	r1, .L65+44
 3423 03b4 AD48     		ldr	r0, .L65+20
 3424 03b6 FFF7FEFF 		bl	_ZN4Ramo12SetWaveformsEPh
 3425              	.LVL256:
 245:src/PianoB.cpp **** 
 3426              		.loc 10 245 5 is_stmt 1 view .LVU936
 245:src/PianoB.cpp **** 
 3427              		.loc 10 245 22 is_stmt 0 view .LVU937
 3428 03ba B249     		ldr	r1, .L65+44
 3429 03bc AC48     		ldr	r0, .L65+24
 3430 03be FFF7FEFF 		bl	_ZN4Ramo12SetWaveformsEPh
 3431              	.LVL257:
 3432              		.loc 10 248 5 is_stmt 1 view .LVU938
 3433              		.loc 10 248 19 is_stmt 0 view .LVU939
 3434 03c2 99ED000A 		vldr.32	s0, [r9]
 3435 03c6 AC48     		ldr	r0, .L65+32
ARM GAS  C:\Users\skipi\AppData\Local\Temp\cc6PZCfi.s 			page 98


 3436 03c8 FFF7FEFF 		bl	_ZN4Ramo7SetFreqEf
 3437              	.LVL258:
 249:src/PianoB.cpp ****     Pluck2.SetFreq(f_Pluck);                                                       // Set frequency
 3438              		.loc 10 249 5 is_stmt 1 view .LVU940
 3439              		.loc 10 249 19 is_stmt 0 view .LVU941
 3440 03cc 99ED000A 		vldr.32	s0, [r9]
 3441 03d0 AA48     		ldr	r0, .L65+36
 3442 03d2 FFF7FEFF 		bl	_ZN4Ramo7SetFreqEf
 3443              	.LVL259:
 250:src/PianoB.cpp ****     Pluck3.SetFreq(f_Pluck);                                                       // Set frequency
 3444              		.loc 10 250 5 is_stmt 1 view .LVU942
 3445              		.loc 10 250 19 is_stmt 0 view .LVU943
 3446 03d6 99ED000A 		vldr.32	s0, [r9]
 3447 03da 9F48     		ldr	r0, .L65
 3448 03dc FFF7FEFF 		bl	_ZN4Ramo7SetFreqEf
 3449              	.LVL260:
 251:src/PianoB.cpp ****     Pluck4.SetFreq(f_Pluck);                                                       // Set frequency
 3450              		.loc 10 251 5 is_stmt 1 view .LVU944
 3451              		.loc 10 251 19 is_stmt 0 view .LVU945
 3452 03e0 99ED000A 		vldr.32	s0, [r9]
 3453 03e4 9E48     		ldr	r0, .L65+8
 3454 03e6 FFF7FEFF 		bl	_ZN4Ramo7SetFreqEf
 3455              	.LVL261:
 252:src/PianoB.cpp ****     Bass1.SetFreq(f_Bass);                                                       // Set frequency
 3456              		.loc 10 252 5 is_stmt 1 view .LVU946
 3457              		.loc 10 252 18 is_stmt 0 view .LVU947
 3458 03ea A74B     		ldr	r3, .L65+48
 3459 03ec 9D48     		ldr	r0, .L65+12
 3460 03ee 1C46     		mov	r4, r3
 3461 03f0 93ED000A 		vldr.32	s0, [r3]
 3462 03f4 FFF7FEFF 		bl	_ZN4Ramo7SetFreqEf
 3463              	.LVL262:
 253:src/PianoB.cpp ****     Bass2.SetFreq(f_Bass);                                                       // Set frequency
 3464              		.loc 10 253 5 is_stmt 1 view .LVU948
 3465              		.loc 10 253 18 is_stmt 0 view .LVU949
 3466 03f8 9B48     		ldr	r0, .L65+16
 3467 03fa 94ED000A 		vldr.32	s0, [r4]
 3468 03fe FFF7FEFF 		bl	_ZN4Ramo7SetFreqEf
 3469              	.LVL263:
 254:src/PianoB.cpp ****     Pad1.SetFreq(f_Pad);                                                       // Set frequency
 3470              		.loc 10 254 5 is_stmt 1 view .LVU950
 3471              		.loc 10 254 17 is_stmt 0 view .LVU951
 3472 0402 A24B     		ldr	r3, .L65+52
 3473 0404 9948     		ldr	r0, .L65+20
 3474 0406 1C46     		mov	r4, r3
 3475 0408 93ED000A 		vldr.32	s0, [r3]
 3476 040c FFF7FEFF 		bl	_ZN4Ramo7SetFreqEf
 3477              	.LVL264:
 255:src/PianoB.cpp ****     Pad2.SetFreq(f_Pad);                                                       // Set frequency
 3478              		.loc 10 255 5 is_stmt 1 view .LVU952
 3479              		.loc 10 255 17 is_stmt 0 view .LVU953
 3480 0410 9748     		ldr	r0, .L65+24
 3481 0412 94ED000A 		vldr.32	s0, [r4]
 3482 0416 FFF7FEFF 		bl	_ZN4Ramo7SetFreqEf
 3483              	.LVL265:
 256:src/PianoB.cpp **** 
 257:src/PianoB.cpp ****                                               
ARM GAS  C:\Users\skipi\AppData\Local\Temp\cc6PZCfi.s 			page 99


 258:src/PianoB.cpp **** 
 259:src/PianoB.cpp ****     Pluck1.SetAmp(g_Pluck);                             
 3484              		.loc 10 259 5 is_stmt 1 view .LVU954
 3485              		.loc 10 259 18 is_stmt 0 view .LVU955
 3486 041a 9D49     		ldr	r1, .L65+56
 3487 041c 9648     		ldr	r0, .L65+32
 3488 041e FFF7FEFF 		bl	_ZN4Ramo6SetAmpEPf
 3489              	.LVL266:
 260:src/PianoB.cpp ****     Pluck2.SetAmp(g_Pluck);                                                       // Set amplitude
 3490              		.loc 10 260 5 is_stmt 1 view .LVU956
 3491              		.loc 10 260 18 is_stmt 0 view .LVU957
 3492 0422 9B49     		ldr	r1, .L65+56
 3493 0424 9548     		ldr	r0, .L65+36
 3494 0426 FFF7FEFF 		bl	_ZN4Ramo6SetAmpEPf
 3495              	.LVL267:
 261:src/PianoB.cpp ****     Pluck3.SetAmp(g_Pluck);                                                       // Set amplitude
 3496              		.loc 10 261 5 is_stmt 1 view .LVU958
 3497              		.loc 10 261 18 is_stmt 0 view .LVU959
 3498 042a 9949     		ldr	r1, .L65+56
 3499 042c 8A48     		ldr	r0, .L65
 3500 042e FFF7FEFF 		bl	_ZN4Ramo6SetAmpEPf
 3501              	.LVL268:
 262:src/PianoB.cpp ****     Pluck4.SetAmp(g_Pluck);
 3502              		.loc 10 262 5 is_stmt 1 view .LVU960
 3503              		.loc 10 262 18 is_stmt 0 view .LVU961
 3504 0432 9749     		ldr	r1, .L65+56
 3505 0434 8A48     		ldr	r0, .L65+8
 3506 0436 FFF7FEFF 		bl	_ZN4Ramo6SetAmpEPf
 3507              	.LVL269:
 263:src/PianoB.cpp ****     Bass1.SetAmp(g_Bass);                                                       // Set amplitude
 3508              		.loc 10 263 5 is_stmt 1 view .LVU962
 3509              		.loc 10 263 17 is_stmt 0 view .LVU963
 3510 043a 9649     		ldr	r1, .L65+60
 3511 043c 8948     		ldr	r0, .L65+12
 3512 043e FFF7FEFF 		bl	_ZN4Ramo6SetAmpEPf
 3513              	.LVL270:
 264:src/PianoB.cpp ****     Bass2.SetAmp(g_Bass);                                                       // Set amplitude
 3514              		.loc 10 264 5 is_stmt 1 view .LVU964
 3515              		.loc 10 264 17 is_stmt 0 view .LVU965
 3516 0442 9449     		ldr	r1, .L65+60
 3517 0444 8848     		ldr	r0, .L65+16
 3518 0446 FFF7FEFF 		bl	_ZN4Ramo6SetAmpEPf
 3519              	.LVL271:
 265:src/PianoB.cpp ****     Pad1.SetAmp(g_Pad);                                                       // Set amplitude
 3520              		.loc 10 265 5 is_stmt 1 view .LVU966
 3521              		.loc 10 265 16 is_stmt 0 view .LVU967
 3522 044a 9349     		ldr	r1, .L65+64
 3523 044c 8748     		ldr	r0, .L65+20
 3524 044e FFF7FEFF 		bl	_ZN4Ramo6SetAmpEPf
 3525              	.LVL272:
 266:src/PianoB.cpp ****     Pad2.SetAmp(g_Pad);                                                       // Set amplitude
 3526              		.loc 10 266 5 is_stmt 1 view .LVU968
 3527              		.loc 10 266 16 is_stmt 0 view .LVU969
 3528 0452 9149     		ldr	r1, .L65+64
 3529 0454 8648     		ldr	r0, .L65+24
 3530 0456 FFF7FEFF 		bl	_ZN4Ramo6SetAmpEPf
 3531              	.LVL273:
ARM GAS  C:\Users\skipi\AppData\Local\Temp\cc6PZCfi.s 			page 100


 267:src/PianoB.cpp **** 
 268:src/PianoB.cpp **** 
 269:src/PianoB.cpp ****     Pluck1.SetShape(0);                                                        // Set shape modulat
 3532              		.loc 10 269 5 is_stmt 1 view .LVU970
 3533              		.loc 10 269 20 is_stmt 0 view .LVU971
 3534 045a 9FED900A 		vldr.32	s0, .L65+68
 3535 045e 8648     		ldr	r0, .L65+32
 3536 0460 FFF7FEFF 		bl	_ZN4Ramo8SetShapeEf
 3537              	.LVL274:
 270:src/PianoB.cpp ****     Pluck2.SetShape(0);
 3538              		.loc 10 270 5 is_stmt 1 view .LVU972
 3539              		.loc 10 270 20 is_stmt 0 view .LVU973
 3540 0464 9FED8D0A 		vldr.32	s0, .L65+68
 3541 0468 8448     		ldr	r0, .L65+36
 3542 046a FFF7FEFF 		bl	_ZN4Ramo8SetShapeEf
 3543              	.LVL275:
 271:src/PianoB.cpp ****     Pluck3.SetShape(0);
 3544              		.loc 10 271 5 is_stmt 1 view .LVU974
 3545              		.loc 10 271 20 is_stmt 0 view .LVU975
 3546 046e 9FED8B0A 		vldr.32	s0, .L65+68
 3547 0472 7948     		ldr	r0, .L65
 3548 0474 FFF7FEFF 		bl	_ZN4Ramo8SetShapeEf
 3549              	.LVL276:
 272:src/PianoB.cpp ****     Pluck4.SetShape(0);
 3550              		.loc 10 272 5 is_stmt 1 view .LVU976
 3551              		.loc 10 272 20 is_stmt 0 view .LVU977
 3552 0478 9FED880A 		vldr.32	s0, .L65+68
 3553 047c 7848     		ldr	r0, .L65+8
 3554 047e FFF7FEFF 		bl	_ZN4Ramo8SetShapeEf
 3555              	.LVL277:
 273:src/PianoB.cpp ****     Bass1.SetShape(0);
 3556              		.loc 10 273 5 is_stmt 1 view .LVU978
 3557              		.loc 10 273 19 is_stmt 0 view .LVU979
 3558 0482 9FED860A 		vldr.32	s0, .L65+68
 3559 0486 7748     		ldr	r0, .L65+12
 3560 0488 FFF7FEFF 		bl	_ZN4Ramo8SetShapeEf
 3561              	.LVL278:
 274:src/PianoB.cpp ****     Bass2.SetShape(0);
 3562              		.loc 10 274 5 is_stmt 1 view .LVU980
 3563              		.loc 10 274 19 is_stmt 0 view .LVU981
 3564 048c 9FED830A 		vldr.32	s0, .L65+68
 3565 0490 7548     		ldr	r0, .L65+16
 3566 0492 FFF7FEFF 		bl	_ZN4Ramo8SetShapeEf
 3567              	.LVL279:
 275:src/PianoB.cpp ****     Pad1.SetShape(0);
 3568              		.loc 10 275 5 is_stmt 1 view .LVU982
 3569              		.loc 10 275 18 is_stmt 0 view .LVU983
 3570 0496 9FED810A 		vldr.32	s0, .L65+68
 3571 049a 7448     		ldr	r0, .L65+20
 3572 049c FFF7FEFF 		bl	_ZN4Ramo8SetShapeEf
 3573              	.LVL280:
 276:src/PianoB.cpp ****     Pad2.SetShape(0);
 3574              		.loc 10 276 5 is_stmt 1 view .LVU984
 3575              		.loc 10 276 18 is_stmt 0 view .LVU985
 3576 04a0 9FED7E0A 		vldr.32	s0, .L65+68
 3577 04a4 7248     		ldr	r0, .L65+24
 3578 04a6 FFF7FEFF 		bl	_ZN4Ramo8SetShapeEf
ARM GAS  C:\Users\skipi\AppData\Local\Temp\cc6PZCfi.s 			page 101


 3579              	.LVL281:
 277:src/PianoB.cpp **** 
 278:src/PianoB.cpp **** //----------------------------------------------------------------------------------Inizializza LFO
 279:src/PianoB.cpp ****     lfo_Pluck1.Init(hw.AudioSampleRate());                                      
 3580              		.loc 10 279 5 is_stmt 1 view .LVU986
 3581              		.loc 10 279 20 is_stmt 0 view .LVU987
 3582 04aa 6C48     		ldr	r0, .L65+4
 3583 04ac FFF7FEFF 		bl	_ZN5daisy9DaisySeed15AudioSampleRateEv
 3584              	.LVL282:
 3585 04b0 7B4A     		ldr	r2, .L65+72
 280:src/PianoB.cpp ****     lfo_Pluck2.Init(hw.AudioSampleRate());                                          // Initialize L
 3586              		.loc 10 280 20 view .LVU988
 3587 04b2 7C4D     		ldr	r5, .L65+76
 279:src/PianoB.cpp ****     lfo_Pluck2.Init(hw.AudioSampleRate());                                          // Initialize L
 3588              		.loc 10 279 20 view .LVU989
 3589 04b4 1046     		mov	r0, r2
 281:src/PianoB.cpp ****     lfo_Pluck3.Init(hw.AudioSampleRate());                                          // Initialize L
 3590              		.loc 10 281 20 view .LVU990
 3591 04b6 7C4C     		ldr	r4, .L65+80
 279:src/PianoB.cpp ****     lfo_Pluck2.Init(hw.AudioSampleRate());                                          // Initialize L
 3592              		.loc 10 279 20 view .LVU991
 3593 04b8 FFF7FEFF 		bl	_ZN7daisysp10Oscillator4InitEf
 3594              	.LVL283:
 280:src/PianoB.cpp ****     lfo_Pluck2.Init(hw.AudioSampleRate());                                          // Initialize L
 3595              		.loc 10 280 5 is_stmt 1 view .LVU992
 280:src/PianoB.cpp ****     lfo_Pluck2.Init(hw.AudioSampleRate());                                          // Initialize L
 3596              		.loc 10 280 20 is_stmt 0 view .LVU993
 3597 04bc 6748     		ldr	r0, .L65+4
 3598 04be FFF7FEFF 		bl	_ZN5daisy9DaisySeed15AudioSampleRateEv
 3599              	.LVL284:
 3600 04c2 2846     		mov	r0, r5
 3601 04c4 FFF7FEFF 		bl	_ZN7daisysp10Oscillator4InitEf
 3602              	.LVL285:
 3603              		.loc 10 281 5 is_stmt 1 view .LVU994
 3604              		.loc 10 281 20 is_stmt 0 view .LVU995
 3605 04c8 6448     		ldr	r0, .L65+4
 282:src/PianoB.cpp ****     lfo_Pluck4.Init(hw.AudioSampleRate());                                          // Initialize L
 3606              		.loc 10 282 20 view .LVU996
 3607 04ca 784E     		ldr	r6, .L65+84
 281:src/PianoB.cpp ****     lfo_Pluck3.Init(hw.AudioSampleRate());                                          // Initialize L
 3608              		.loc 10 281 20 view .LVU997
 3609 04cc FFF7FEFF 		bl	_ZN5daisy9DaisySeed15AudioSampleRateEv
 3610              	.LVL286:
 3611 04d0 2046     		mov	r0, r4
 283:src/PianoB.cpp ****     lfo_Bass1.Init(hw.AudioSampleRate());                                          // Initialize LF
 3612              		.loc 10 283 19 view .LVU998
 3613 04d2 DFF81082 		ldr	r8, .L65+140
 281:src/PianoB.cpp ****     lfo_Pluck3.Init(hw.AudioSampleRate());                                          // Initialize L
 3614              		.loc 10 281 20 view .LVU999
 3615 04d6 FFF7FEFF 		bl	_ZN7daisysp10Oscillator4InitEf
 3616              	.LVL287:
 282:src/PianoB.cpp ****     lfo_Pluck4.Init(hw.AudioSampleRate());                                          // Initialize L
 3617              		.loc 10 282 5 is_stmt 1 view .LVU1000
 282:src/PianoB.cpp ****     lfo_Pluck4.Init(hw.AudioSampleRate());                                          // Initialize L
 3618              		.loc 10 282 20 is_stmt 0 view .LVU1001
 3619 04da 6048     		ldr	r0, .L65+4
 3620 04dc FFF7FEFF 		bl	_ZN5daisy9DaisySeed15AudioSampleRateEv
ARM GAS  C:\Users\skipi\AppData\Local\Temp\cc6PZCfi.s 			page 102


 3621              	.LVL288:
 3622 04e0 3046     		mov	r0, r6
 3623 04e2 FFF7FEFF 		bl	_ZN7daisysp10Oscillator4InitEf
 3624              	.LVL289:
 3625              		.loc 10 283 5 is_stmt 1 view .LVU1002
 3626              		.loc 10 283 19 is_stmt 0 view .LVU1003
 3627 04e6 5D48     		ldr	r0, .L65+4
 3628 04e8 FFF7FEFF 		bl	_ZN5daisy9DaisySeed15AudioSampleRateEv
 3629              	.LVL290:
 3630 04ec 4046     		mov	r0, r8
 3631 04ee FFF7FEFF 		bl	_ZN7daisysp10Oscillator4InitEf
 3632              	.LVL291:
 284:src/PianoB.cpp ****     lfo_Bass2.Init(hw.AudioSampleRate());                                          // Initialize LF
 3633              		.loc 10 284 5 is_stmt 1 view .LVU1004
 3634              		.loc 10 284 19 is_stmt 0 view .LVU1005
 3635 04f2 5A48     		ldr	r0, .L65+4
 3636 04f4 FFF7FEFF 		bl	_ZN5daisy9DaisySeed15AudioSampleRateEv
 3637              	.LVL292:
 3638 04f8 6D48     		ldr	r0, .L65+88
 3639 04fa FFF7FEFF 		bl	_ZN7daisysp10Oscillator4InitEf
 3640              	.LVL293:
 285:src/PianoB.cpp ****     lfo_Pad1.Init(hw.AudioSampleRate());                                          // Initialize LFO
 3641              		.loc 10 285 5 is_stmt 1 view .LVU1006
 3642              		.loc 10 285 18 is_stmt 0 view .LVU1007
 3643 04fe 5748     		ldr	r0, .L65+4
 3644 0500 FFF7FEFF 		bl	_ZN5daisy9DaisySeed15AudioSampleRateEv
 3645              	.LVL294:
 3646 0504 6B48     		ldr	r0, .L65+92
 3647 0506 FFF7FEFF 		bl	_ZN7daisysp10Oscillator4InitEf
 3648              	.LVL295:
 286:src/PianoB.cpp ****     lfo_Pad2.Init(hw.AudioSampleRate());                                          // Initialize LFO
 3649              		.loc 10 286 5 is_stmt 1 view .LVU1008
 3650              		.loc 10 286 18 is_stmt 0 view .LVU1009
 3651 050a 5448     		ldr	r0, .L65+4
 3652 050c FFF7FEFF 		bl	_ZN5daisy9DaisySeed15AudioSampleRateEv
 3653              	.LVL296:
 3654 0510 694B     		ldr	r3, .L65+96
 287:src/PianoB.cpp **** 
 288:src/PianoB.cpp ****    
 289:src/PianoB.cpp **** 
 290:src/PianoB.cpp ****     lfo_Pluck1.SetWaveform(Oscillator::WAVE_SIN);                                 // Set LFO wavefo
 291:src/PianoB.cpp ****     lfo_Pluck2.SetWaveform(Oscillator::WAVE_SIN);                                 // Set LFO wavefo
 292:src/PianoB.cpp ****     lfo_Pluck3.SetWaveform(Oscillator::WAVE_SIN);                                 // Set LFO wavefo
 293:src/PianoB.cpp ****     lfo_Pluck4.SetWaveform(Oscillator::WAVE_SIN);                                 // Set LFO wavefo
 294:src/PianoB.cpp ****     lfo_Bass1.SetWaveform(Oscillator::WAVE_SIN);                                 // Set LFO wavefor
 295:src/PianoB.cpp ****     lfo_Bass2.SetWaveform(Oscillator::WAVE_SIN);                                 // Set LFO wavefor
 296:src/PianoB.cpp ****     lfo_Pad1.SetWaveform(Oscillator::WAVE_SIN);                                 // Set LFO waveform
 297:src/PianoB.cpp ****     lfo_Pad2.SetWaveform(Oscillator::WAVE_SIN);                                 // Set LFO waveform
 298:src/PianoB.cpp **** 
 299:src/PianoB.cpp ****     
 300:src/PianoB.cpp **** 
 301:src/PianoB.cpp ****     lfo_Pluck1.SetFreq(f_lfo_Pluck);                                                    // Set LFO 
 3655              		.loc 10 301 23 view .LVU1010
 3656 0512 DFF8D4A1 		ldr	r10, .L65+144
 286:src/PianoB.cpp ****     lfo_Pad2.Init(hw.AudioSampleRate());                                          // Initialize LFO
 3657              		.loc 10 286 18 view .LVU1011
 3658 0516 1846     		mov	r0, r3
ARM GAS  C:\Users\skipi\AppData\Local\Temp\cc6PZCfi.s 			page 103


 302:src/PianoB.cpp ****     lfo_Pluck2.SetFreq(f_lfo_Pluck);                                                    // Set LFO 
 303:src/PianoB.cpp ****     lfo_Pluck3.SetFreq(f_lfo_Pluck);
 304:src/PianoB.cpp ****     lfo_Pluck4.SetFreq(f_lfo_Pluck);                                                    // Set LFO 
 305:src/PianoB.cpp ****     lfo_Bass1.SetFreq(f_lfo_Bass);
 306:src/PianoB.cpp ****     lfo_Bass2.SetFreq(f_lfo_Bass);                                                    // Set LFO fr
 307:src/PianoB.cpp ****     lfo_Pad1.SetFreq(f_lfo_Pad);                                                    // Set LFO freq
 3659              		.loc 10 307 21 view .LVU1012
 3660 0518 DFF8D0B1 		ldr	fp, .L65+148
 286:src/PianoB.cpp **** 
 3661              		.loc 10 286 18 view .LVU1013
 3662 051c FFF7FEFF 		bl	_ZN7daisysp10Oscillator4InitEf
 3663              	.LVL297:
 290:src/PianoB.cpp ****     lfo_Pluck2.SetWaveform(Oscillator::WAVE_SIN);                                 // Set LFO wavefo
 3664              		.loc 10 290 5 is_stmt 1 view .LVU1014
 3665              	.LBB1083:
 3666              	.LBI1083:
  71:../libs/DaisySP/Source/Synthesis/oscillator.h ****     }
  72:../libs/DaisySP/Source/Synthesis/oscillator.h **** 
  73:../libs/DaisySP/Source/Synthesis/oscillator.h **** 
  74:../libs/DaisySP/Source/Synthesis/oscillator.h ****     /** Sets the amplitude of the waveform.
  75:../libs/DaisySP/Source/Synthesis/oscillator.h ****     */
  76:../libs/DaisySP/Source/Synthesis/oscillator.h ****     inline void SetAmp(const float a) { amp_ = a; }
  77:../libs/DaisySP/Source/Synthesis/oscillator.h ****     /** Sets the waveform to be synthesized by the Process() function.
  78:../libs/DaisySP/Source/Synthesis/oscillator.h ****     */
  79:../libs/DaisySP/Source/Synthesis/oscillator.h ****     inline void SetWaveform(const uint8_t wf)
 3667              		.loc 8 79 17 view .LVU1015
 3668              	.LBB1084:
  80:../libs/DaisySP/Source/Synthesis/oscillator.h ****     {
  81:../libs/DaisySP/Source/Synthesis/oscillator.h ****         waveform_ = wf < WAVE_LAST ? wf : WAVE_SIN;
 3669              		.loc 8 81 9 view .LVU1016
 3670              	.LBE1084:
 3671              	.LBE1083:
 3672              	.LBB1087:
 3673              	.LBB1088:
 3674              		.loc 8 81 19 is_stmt 0 view .LVU1017
 3675 0520 634B     		ldr	r3, .L65+88
 3676              	.LBE1088:
 3677              	.LBE1087:
 3678              	.LBB1091:
 3679              	.LBB1085:
 3680 0522 5F4A     		ldr	r2, .L65+72
 3681              	.LBE1085:
 3682              	.LBE1091:
 3683              	.LBB1092:
 3684              	.LBB1093:
 3685 0524 6349     		ldr	r1, .L65+92
 3686              	.LBE1093:
 3687              	.LBE1092:
 3688              	.LBB1096:
 3689              	.LBB1089:
 3690 0526 1F70     		strb	r7, [r3]
 3691              	.LBE1089:
 3692              	.LBE1096:
 3693              	.LBB1097:
 3694              	.LBB1098:
  70:../libs/DaisySP/Source/Synthesis/oscillator.h ****     }
 3695              		.loc 8 70 34 view .LVU1018
ARM GAS  C:\Users\skipi\AppData\Local\Temp\cc6PZCfi.s 			page 104


 3696 0528 1046     		mov	r0, r2
 3697              	.LBE1098:
 3698              	.LBE1097:
 3699              	.LBB1102:
 3700              	.LBB1103:
 3701              		.loc 8 81 19 view .LVU1019
 3702 052a 634B     		ldr	r3, .L65+96
 3703              	.LBE1103:
 3704              	.LBE1102:
 301:src/PianoB.cpp ****     lfo_Pluck2.SetFreq(f_lfo_Pluck);                                                    // Set LFO 
 3705              		.loc 10 301 23 view .LVU1020
 3706 052c 9AED000A 		vldr.32	s0, [r10]
 3707              	.LBB1106:
 3708              	.LBB1104:
 3709              		.loc 8 81 19 view .LVU1021
 3710 0530 1F70     		strb	r7, [r3]
 3711              	.LBE1104:
 3712              	.LBE1106:
 3713              	.LBB1107:
 3714              	.LBB1094:
 3715 0532 0F70     		strb	r7, [r1]
 3716              	.LBE1094:
 3717              	.LBE1107:
 3718              	.LBB1108:
 3719              	.LBB1086:
 3720 0534 1770     		strb	r7, [r2]
 3721              	.LVL298:
 3722              		.loc 8 81 19 view .LVU1022
 3723              	.LBE1086:
 3724              	.LBE1108:
 291:src/PianoB.cpp ****     lfo_Pluck3.SetWaveform(Oscillator::WAVE_SIN);                                 // Set LFO wavefo
 3725              		.loc 10 291 5 is_stmt 1 view .LVU1023
 3726              	.LBB1109:
 3727              	.LBI1109:
  79:../libs/DaisySP/Source/Synthesis/oscillator.h ****     {
 3728              		.loc 8 79 17 view .LVU1024
 3729              	.LBB1110:
 3730              		.loc 8 81 9 view .LVU1025
 3731              		.loc 8 81 19 is_stmt 0 view .LVU1026
 3732 0536 2F70     		strb	r7, [r5]
 3733              	.LVL299:
 3734              		.loc 8 81 19 view .LVU1027
 3735              	.LBE1110:
 3736              	.LBE1109:
 292:src/PianoB.cpp ****     lfo_Pluck4.SetWaveform(Oscillator::WAVE_SIN);                                 // Set LFO wavefo
 3737              		.loc 10 292 5 is_stmt 1 view .LVU1028
 3738              	.LBB1111:
 3739              	.LBI1111:
  79:../libs/DaisySP/Source/Synthesis/oscillator.h ****     {
 3740              		.loc 8 79 17 view .LVU1029
 3741              	.LBB1112:
 3742              		.loc 8 81 9 view .LVU1030
 3743              		.loc 8 81 19 is_stmt 0 view .LVU1031
 3744 0538 2770     		strb	r7, [r4]
 3745              	.LVL300:
 3746              		.loc 8 81 19 view .LVU1032
 3747              	.LBE1112:
ARM GAS  C:\Users\skipi\AppData\Local\Temp\cc6PZCfi.s 			page 105


 3748              	.LBE1111:
 293:src/PianoB.cpp ****     lfo_Bass1.SetWaveform(Oscillator::WAVE_SIN);                                 // Set LFO wavefor
 3749              		.loc 10 293 5 is_stmt 1 view .LVU1033
 3750              	.LBB1113:
 3751              	.LBI1113:
  79:../libs/DaisySP/Source/Synthesis/oscillator.h ****     {
 3752              		.loc 8 79 17 view .LVU1034
 3753              	.LBB1114:
 3754              		.loc 8 81 9 view .LVU1035
 3755              		.loc 8 81 19 is_stmt 0 view .LVU1036
 3756 053a 3770     		strb	r7, [r6]
 3757              	.LVL301:
 3758              		.loc 8 81 19 view .LVU1037
 3759              	.LBE1114:
 3760              	.LBE1113:
 294:src/PianoB.cpp ****     lfo_Bass2.SetWaveform(Oscillator::WAVE_SIN);                                 // Set LFO wavefor
 3761              		.loc 10 294 5 is_stmt 1 view .LVU1038
 3762              	.LBB1115:
 3763              	.LBI1115:
  79:../libs/DaisySP/Source/Synthesis/oscillator.h ****     {
 3764              		.loc 8 79 17 view .LVU1039
 3765              	.LBB1116:
 3766              		.loc 8 81 9 view .LVU1040
 3767              		.loc 8 81 19 is_stmt 0 view .LVU1041
 3768 053c 88F80070 		strb	r7, [r8]
 3769              	.LVL302:
 3770              		.loc 8 81 19 view .LVU1042
 3771              	.LBE1116:
 3772              	.LBE1115:
 295:src/PianoB.cpp ****     lfo_Pad1.SetWaveform(Oscillator::WAVE_SIN);                                 // Set LFO waveform
 3773              		.loc 10 295 5 is_stmt 1 view .LVU1043
 3774              	.LBB1117:
 3775              	.LBI1087:
  79:../libs/DaisySP/Source/Synthesis/oscillator.h ****     {
 3776              		.loc 8 79 17 view .LVU1044
 3777              	.LBB1090:
 3778              		.loc 8 81 9 view .LVU1045
 3779              		.loc 8 81 9 is_stmt 0 view .LVU1046
 3780              	.LBE1090:
 3781              	.LBE1117:
 296:src/PianoB.cpp ****     lfo_Pad2.SetWaveform(Oscillator::WAVE_SIN);                                 // Set LFO waveform
 3782              		.loc 10 296 5 is_stmt 1 view .LVU1047
 3783              	.LBB1118:
 3784              	.LBI1092:
  79:../libs/DaisySP/Source/Synthesis/oscillator.h ****     {
 3785              		.loc 8 79 17 view .LVU1048
 3786              	.LBB1095:
 3787              		.loc 8 81 9 view .LVU1049
 3788              		.loc 8 81 9 is_stmt 0 view .LVU1050
 3789              	.LBE1095:
 3790              	.LBE1118:
 297:src/PianoB.cpp **** 
 3791              		.loc 10 297 5 is_stmt 1 view .LVU1051
 3792              	.LBB1119:
 3793              	.LBI1102:
  79:../libs/DaisySP/Source/Synthesis/oscillator.h ****     {
 3794              		.loc 8 79 17 view .LVU1052
ARM GAS  C:\Users\skipi\AppData\Local\Temp\cc6PZCfi.s 			page 106


 3795              	.LBB1105:
 3796              		.loc 8 81 9 view .LVU1053
 3797              		.loc 8 81 9 is_stmt 0 view .LVU1054
 3798              	.LBE1105:
 3799              	.LBE1119:
 301:src/PianoB.cpp ****     lfo_Pluck2.SetFreq(f_lfo_Pluck);                                                    // Set LFO 
 3800              		.loc 10 301 5 is_stmt 1 view .LVU1055
 3801              	.LBB1120:
 3802              	.LBI1097:
  67:../libs/DaisySP/Source/Synthesis/oscillator.h ****     {
 3803              		.loc 8 67 17 view .LVU1056
 3804              	.LBB1099:
  69:../libs/DaisySP/Source/Synthesis/oscillator.h ****         phase_inc_ = CalcPhaseInc(f);
 3805              		.loc 8 69 9 view .LVU1057
  69:../libs/DaisySP/Source/Synthesis/oscillator.h ****         phase_inc_ = CalcPhaseInc(f);
 3806              		.loc 8 69 20 is_stmt 0 view .LVU1058
 3807 0540 82ED020A 		vstr.32	s0, [r2, #8]
  70:../libs/DaisySP/Source/Synthesis/oscillator.h ****     }
 3808              		.loc 8 70 9 is_stmt 1 view .LVU1059
  70:../libs/DaisySP/Source/Synthesis/oscillator.h ****     }
 3809              		.loc 8 70 34 is_stmt 0 view .LVU1060
 3810 0544 FFF7FEFF 		bl	_ZN7daisysp10Oscillator12CalcPhaseIncEf
 3811              	.LVL303:
  70:../libs/DaisySP/Source/Synthesis/oscillator.h ****     }
 3812              		.loc 8 70 34 view .LVU1061
 3813              	.LBE1099:
 3814              	.LBE1120:
 302:src/PianoB.cpp ****     lfo_Pluck3.SetFreq(f_lfo_Pluck);
 3815              		.loc 10 302 5 is_stmt 1 view .LVU1062
 3816              	.LBB1121:
 3817              	.LBB1100:
  70:../libs/DaisySP/Source/Synthesis/oscillator.h ****     }
 3818              		.loc 8 70 20 is_stmt 0 view .LVU1063
 3819 0548 554A     		ldr	r2, .L65+72
 3820              	.LBE1100:
 3821              	.LBE1121:
 3822              	.LBB1122:
 3823              	.LBB1123:
  70:../libs/DaisySP/Source/Synthesis/oscillator.h ****     }
 3824              		.loc 8 70 34 view .LVU1064
 3825 054a 2846     		mov	r0, r5
 3826              	.LBE1123:
 3827              	.LBE1122:
 3828              	.LBB1125:
 3829              	.LBB1101:
  70:../libs/DaisySP/Source/Synthesis/oscillator.h ****     }
 3830              		.loc 8 70 20 view .LVU1065
 3831 054c 82ED070A 		vstr.32	s0, [r2, #28]
 3832              	.LBE1101:
 3833              	.LBE1125:
 302:src/PianoB.cpp ****     lfo_Pluck3.SetFreq(f_lfo_Pluck);
 3834              		.loc 10 302 23 view .LVU1066
 3835 0550 9AED000A 		vldr.32	s0, [r10]
 3836              	.LVL304:
 3837              	.LBB1126:
 3838              	.LBI1122:
  67:../libs/DaisySP/Source/Synthesis/oscillator.h ****     {
ARM GAS  C:\Users\skipi\AppData\Local\Temp\cc6PZCfi.s 			page 107


 3839              		.loc 8 67 17 is_stmt 1 view .LVU1067
 3840              	.LBB1124:
  69:../libs/DaisySP/Source/Synthesis/oscillator.h ****         phase_inc_ = CalcPhaseInc(f);
 3841              		.loc 8 69 9 view .LVU1068
  69:../libs/DaisySP/Source/Synthesis/oscillator.h ****         phase_inc_ = CalcPhaseInc(f);
 3842              		.loc 8 69 20 is_stmt 0 view .LVU1069
 3843 0554 85ED020A 		vstr.32	s0, [r5, #8]
  70:../libs/DaisySP/Source/Synthesis/oscillator.h ****     }
 3844              		.loc 8 70 9 is_stmt 1 view .LVU1070
  70:../libs/DaisySP/Source/Synthesis/oscillator.h ****     }
 3845              		.loc 8 70 34 is_stmt 0 view .LVU1071
 3846 0558 FFF7FEFF 		bl	_ZN7daisysp10Oscillator12CalcPhaseIncEf
 3847              	.LVL305:
  70:../libs/DaisySP/Source/Synthesis/oscillator.h ****     }
 3848              		.loc 8 70 20 view .LVU1072
 3849 055c 85ED070A 		vstr.32	s0, [r5, #28]
 3850              	.LVL306:
  70:../libs/DaisySP/Source/Synthesis/oscillator.h ****     }
 3851              		.loc 8 70 20 view .LVU1073
 3852              	.LBE1124:
 3853              	.LBE1126:
 303:src/PianoB.cpp ****     lfo_Pluck4.SetFreq(f_lfo_Pluck);                                                    // Set LFO 
 3854              		.loc 10 303 5 is_stmt 1 view .LVU1074
 3855              	.LBB1127:
 3856              	.LBB1128:
  70:../libs/DaisySP/Source/Synthesis/oscillator.h ****     }
 3857              		.loc 8 70 34 is_stmt 0 view .LVU1075
 3858 0560 2046     		mov	r0, r4
 3859              	.LBE1128:
 3860              	.LBE1127:
 303:src/PianoB.cpp ****     lfo_Pluck4.SetFreq(f_lfo_Pluck);                                                    // Set LFO 
 3861              		.loc 10 303 23 view .LVU1076
 3862 0562 9AED000A 		vldr.32	s0, [r10]
 3863              	.LVL307:
 3864              	.LBB1130:
 3865              	.LBI1127:
  67:../libs/DaisySP/Source/Synthesis/oscillator.h ****     {
 3866              		.loc 8 67 17 is_stmt 1 view .LVU1077
 3867              	.LBB1129:
  69:../libs/DaisySP/Source/Synthesis/oscillator.h ****         phase_inc_ = CalcPhaseInc(f);
 3868              		.loc 8 69 9 view .LVU1078
  69:../libs/DaisySP/Source/Synthesis/oscillator.h ****         phase_inc_ = CalcPhaseInc(f);
 3869              		.loc 8 69 20 is_stmt 0 view .LVU1079
 3870 0566 84ED020A 		vstr.32	s0, [r4, #8]
  70:../libs/DaisySP/Source/Synthesis/oscillator.h ****     }
 3871              		.loc 8 70 9 is_stmt 1 view .LVU1080
  70:../libs/DaisySP/Source/Synthesis/oscillator.h ****     }
 3872              		.loc 8 70 34 is_stmt 0 view .LVU1081
 3873 056a FFF7FEFF 		bl	_ZN7daisysp10Oscillator12CalcPhaseIncEf
 3874              	.LVL308:
  70:../libs/DaisySP/Source/Synthesis/oscillator.h ****     }
 3875              		.loc 8 70 20 view .LVU1082
 3876 056e 84ED070A 		vstr.32	s0, [r4, #28]
 3877              	.LVL309:
  70:../libs/DaisySP/Source/Synthesis/oscillator.h ****     }
 3878              		.loc 8 70 20 view .LVU1083
 3879              	.LBE1129:
ARM GAS  C:\Users\skipi\AppData\Local\Temp\cc6PZCfi.s 			page 108


 3880              	.LBE1130:
 304:src/PianoB.cpp ****     lfo_Bass1.SetFreq(f_lfo_Bass);
 3881              		.loc 10 304 5 is_stmt 1 view .LVU1084
 3882              	.LBB1131:
 3883              	.LBB1132:
  70:../libs/DaisySP/Source/Synthesis/oscillator.h ****     }
 3884              		.loc 8 70 34 is_stmt 0 view .LVU1085
 3885 0572 3046     		mov	r0, r6
 3886              	.LBE1132:
 3887              	.LBE1131:
 304:src/PianoB.cpp ****     lfo_Bass1.SetFreq(f_lfo_Bass);
 3888              		.loc 10 304 23 view .LVU1086
 3889 0574 9AED000A 		vldr.32	s0, [r10]
 3890              	.LVL310:
 3891              	.LBB1135:
 3892              	.LBI1131:
  67:../libs/DaisySP/Source/Synthesis/oscillator.h ****     {
 3893              		.loc 8 67 17 is_stmt 1 view .LVU1087
 3894              	.LBB1133:
  69:../libs/DaisySP/Source/Synthesis/oscillator.h ****         phase_inc_ = CalcPhaseInc(f);
 3895              		.loc 8 69 9 view .LVU1088
  69:../libs/DaisySP/Source/Synthesis/oscillator.h ****         phase_inc_ = CalcPhaseInc(f);
 3896              		.loc 8 69 20 is_stmt 0 view .LVU1089
 3897 0578 86ED020A 		vstr.32	s0, [r6, #8]
  70:../libs/DaisySP/Source/Synthesis/oscillator.h ****     }
 3898              		.loc 8 70 9 is_stmt 1 view .LVU1090
  70:../libs/DaisySP/Source/Synthesis/oscillator.h ****     }
 3899              		.loc 8 70 34 is_stmt 0 view .LVU1091
 3900 057c FFF7FEFF 		bl	_ZN7daisysp10Oscillator12CalcPhaseIncEf
 3901              	.LVL311:
  70:../libs/DaisySP/Source/Synthesis/oscillator.h ****     }
 3902              		.loc 8 70 34 view .LVU1092
 3903              	.LBE1133:
 3904              	.LBE1135:
 305:src/PianoB.cpp ****     lfo_Bass2.SetFreq(f_lfo_Bass);                                                    // Set LFO fr
 3905              		.loc 10 305 22 view .LVU1093
 3906 0580 4E4A     		ldr	r2, .L65+100
 3907              	.LBB1136:
 3908              	.LBB1137:
  70:../libs/DaisySP/Source/Synthesis/oscillator.h ****     }
 3909              		.loc 8 70 34 view .LVU1094
 3910 0582 4046     		mov	r0, r8
 3911              	.LBE1137:
 3912              	.LBE1136:
 3913              	.LBB1139:
 3914              	.LBB1134:
  70:../libs/DaisySP/Source/Synthesis/oscillator.h ****     }
 3915              		.loc 8 70 20 view .LVU1095
 3916 0584 86ED070A 		vstr.32	s0, [r6, #28]
 3917              	.LVL312:
  70:../libs/DaisySP/Source/Synthesis/oscillator.h ****     }
 3918              		.loc 8 70 20 view .LVU1096
 3919              	.LBE1134:
 3920              	.LBE1139:
 305:src/PianoB.cpp ****     lfo_Bass2.SetFreq(f_lfo_Bass);                                                    // Set LFO fr
 3921              		.loc 10 305 5 is_stmt 1 view .LVU1097
 305:src/PianoB.cpp ****     lfo_Bass2.SetFreq(f_lfo_Bass);                                                    // Set LFO fr
ARM GAS  C:\Users\skipi\AppData\Local\Temp\cc6PZCfi.s 			page 109


 3922              		.loc 10 305 22 is_stmt 0 view .LVU1098
 3923 0588 1746     		mov	r7, r2
 3924 058a 92ED000A 		vldr.32	s0, [r2]
 3925              	.LVL313:
 3926              	.LBB1140:
 3927              	.LBI1136:
  67:../libs/DaisySP/Source/Synthesis/oscillator.h ****     {
 3928              		.loc 8 67 17 is_stmt 1 view .LVU1099
 3929              	.LBB1138:
  69:../libs/DaisySP/Source/Synthesis/oscillator.h ****         phase_inc_ = CalcPhaseInc(f);
 3930              		.loc 8 69 9 view .LVU1100
  69:../libs/DaisySP/Source/Synthesis/oscillator.h ****         phase_inc_ = CalcPhaseInc(f);
 3931              		.loc 8 69 20 is_stmt 0 view .LVU1101
 3932 058e 88ED020A 		vstr.32	s0, [r8, #8]
  70:../libs/DaisySP/Source/Synthesis/oscillator.h ****     }
 3933              		.loc 8 70 9 is_stmt 1 view .LVU1102
  70:../libs/DaisySP/Source/Synthesis/oscillator.h ****     }
 3934              		.loc 8 70 34 is_stmt 0 view .LVU1103
 3935 0592 FFF7FEFF 		bl	_ZN7daisysp10Oscillator12CalcPhaseIncEf
 3936              	.LVL314:
  70:../libs/DaisySP/Source/Synthesis/oscillator.h ****     }
 3937              		.loc 8 70 20 view .LVU1104
 3938 0596 88ED070A 		vstr.32	s0, [r8, #28]
 3939              	.LVL315:
  70:../libs/DaisySP/Source/Synthesis/oscillator.h ****     }
 3940              		.loc 8 70 20 view .LVU1105
 3941              	.LBE1138:
 3942              	.LBE1140:
 306:src/PianoB.cpp ****     lfo_Pad1.SetFreq(f_lfo_Pad);                                                    // Set LFO freq
 3943              		.loc 10 306 5 is_stmt 1 view .LVU1106
 306:src/PianoB.cpp ****     lfo_Pad1.SetFreq(f_lfo_Pad);                                                    // Set LFO freq
 3944              		.loc 10 306 22 is_stmt 0 view .LVU1107
 3945 059a 97ED000A 		vldr.32	s0, [r7]
 3946              	.LVL316:
 3947              	.LBB1141:
 3948              	.LBI1141:
  67:../libs/DaisySP/Source/Synthesis/oscillator.h ****     {
 3949              		.loc 8 67 17 is_stmt 1 view .LVU1108
 3950              	.LBB1142:
  69:../libs/DaisySP/Source/Synthesis/oscillator.h ****         phase_inc_ = CalcPhaseInc(f);
 3951              		.loc 8 69 9 view .LVU1109
  69:../libs/DaisySP/Source/Synthesis/oscillator.h ****         phase_inc_ = CalcPhaseInc(f);
 3952              		.loc 8 69 20 is_stmt 0 view .LVU1110
 3953 059e 444F     		ldr	r7, .L65+88
  70:../libs/DaisySP/Source/Synthesis/oscillator.h ****     }
 3954              		.loc 8 70 34 view .LVU1111
 3955 05a0 3846     		mov	r0, r7
  69:../libs/DaisySP/Source/Synthesis/oscillator.h ****         phase_inc_ = CalcPhaseInc(f);
 3956              		.loc 8 69 20 view .LVU1112
 3957 05a2 87ED020A 		vstr.32	s0, [r7, #8]
  70:../libs/DaisySP/Source/Synthesis/oscillator.h ****     }
 3958              		.loc 8 70 9 is_stmt 1 view .LVU1113
  70:../libs/DaisySP/Source/Synthesis/oscillator.h ****     }
 3959              		.loc 8 70 34 is_stmt 0 view .LVU1114
 3960 05a6 FFF7FEFF 		bl	_ZN7daisysp10Oscillator12CalcPhaseIncEf
 3961              	.LVL317:
  70:../libs/DaisySP/Source/Synthesis/oscillator.h ****     }
ARM GAS  C:\Users\skipi\AppData\Local\Temp\cc6PZCfi.s 			page 110


 3962              		.loc 8 70 34 view .LVU1115
 3963              	.LBE1142:
 3964              	.LBE1141:
 3965              	.LBB1144:
 3966              	.LBB1145:
  69:../libs/DaisySP/Source/Synthesis/oscillator.h ****         phase_inc_ = CalcPhaseInc(f);
 3967              		.loc 8 69 20 view .LVU1116
 3968 05aa 4249     		ldr	r1, .L65+92
 3969              	.LBE1145:
 3970              	.LBE1144:
 3971              	.LBB1148:
 3972              	.LBB1143:
  70:../libs/DaisySP/Source/Synthesis/oscillator.h ****     }
 3973              		.loc 8 70 20 view .LVU1117
 3974 05ac 87ED070A 		vstr.32	s0, [r7, #28]
 3975              	.LVL318:
  70:../libs/DaisySP/Source/Synthesis/oscillator.h ****     }
 3976              		.loc 8 70 20 view .LVU1118
 3977              	.LBE1143:
 3978              	.LBE1148:
 3979              		.loc 10 307 5 is_stmt 1 view .LVU1119
 3980              		.loc 10 307 21 is_stmt 0 view .LVU1120
 3981 05b0 9BED000A 		vldr.32	s0, [fp]
 3982              	.LVL319:
 3983              	.LBB1149:
 3984              	.LBI1144:
  67:../libs/DaisySP/Source/Synthesis/oscillator.h ****     {
 3985              		.loc 8 67 17 is_stmt 1 view .LVU1121
 3986              	.LBB1146:
  69:../libs/DaisySP/Source/Synthesis/oscillator.h ****         phase_inc_ = CalcPhaseInc(f);
 3987              		.loc 8 69 9 view .LVU1122
  70:../libs/DaisySP/Source/Synthesis/oscillator.h ****     }
 3988              		.loc 8 70 34 is_stmt 0 view .LVU1123
 3989 05b4 0846     		mov	r0, r1
  69:../libs/DaisySP/Source/Synthesis/oscillator.h ****         phase_inc_ = CalcPhaseInc(f);
 3990              		.loc 8 69 20 view .LVU1124
 3991 05b6 81ED020A 		vstr.32	s0, [r1, #8]
  70:../libs/DaisySP/Source/Synthesis/oscillator.h ****     }
 3992              		.loc 8 70 9 is_stmt 1 view .LVU1125
  70:../libs/DaisySP/Source/Synthesis/oscillator.h ****     }
 3993              		.loc 8 70 34 is_stmt 0 view .LVU1126
 3994 05ba FFF7FEFF 		bl	_ZN7daisysp10Oscillator12CalcPhaseIncEf
 3995              	.LVL320:
  70:../libs/DaisySP/Source/Synthesis/oscillator.h ****     }
 3996              		.loc 8 70 20 view .LVU1127
 3997 05be 3D49     		ldr	r1, .L65+92
 3998              	.LBE1146:
 3999              	.LBE1149:
 4000              	.LBB1150:
 4001              	.LBB1151:
  69:../libs/DaisySP/Source/Synthesis/oscillator.h ****         phase_inc_ = CalcPhaseInc(f);
 4002              		.loc 8 69 20 view .LVU1128
 4003 05c0 3D4B     		ldr	r3, .L65+96
 4004              	.LBE1151:
 4005              	.LBE1150:
 4006              	.LBB1155:
 4007              	.LBB1147:
ARM GAS  C:\Users\skipi\AppData\Local\Temp\cc6PZCfi.s 			page 111


  70:../libs/DaisySP/Source/Synthesis/oscillator.h ****     }
 4008              		.loc 8 70 20 view .LVU1129
 4009 05c2 81ED070A 		vstr.32	s0, [r1, #28]
 4010              	.LVL321:
  70:../libs/DaisySP/Source/Synthesis/oscillator.h ****     }
 4011              		.loc 8 70 20 view .LVU1130
 4012              	.LBE1147:
 4013              	.LBE1155:
 308:src/PianoB.cpp ****     lfo_Pad2.SetFreq(f_lfo_Pad);                                                    // Set LFO freq
 4014              		.loc 10 308 5 is_stmt 1 view .LVU1131
 4015              		.loc 10 308 21 is_stmt 0 view .LVU1132
 4016 05c6 9BED000A 		vldr.32	s0, [fp]
 4017              	.LVL322:
 4018              	.LBB1156:
 4019              	.LBI1150:
  67:../libs/DaisySP/Source/Synthesis/oscillator.h ****     {
 4020              		.loc 8 67 17 is_stmt 1 view .LVU1133
 4021              	.LBB1152:
  69:../libs/DaisySP/Source/Synthesis/oscillator.h ****         phase_inc_ = CalcPhaseInc(f);
 4022              		.loc 8 69 9 view .LVU1134
  70:../libs/DaisySP/Source/Synthesis/oscillator.h ****     }
 4023              		.loc 8 70 34 is_stmt 0 view .LVU1135
 4024 05ca 1846     		mov	r0, r3
  69:../libs/DaisySP/Source/Synthesis/oscillator.h ****         phase_inc_ = CalcPhaseInc(f);
 4025              		.loc 8 69 20 view .LVU1136
 4026 05cc 83ED020A 		vstr.32	s0, [r3, #8]
  70:../libs/DaisySP/Source/Synthesis/oscillator.h ****     }
 4027              		.loc 8 70 9 is_stmt 1 view .LVU1137
  70:../libs/DaisySP/Source/Synthesis/oscillator.h ****     }
 4028              		.loc 8 70 34 is_stmt 0 view .LVU1138
 4029 05d0 FFF7FEFF 		bl	_ZN7daisysp10Oscillator12CalcPhaseIncEf
 4030              	.LVL323:
  70:../libs/DaisySP/Source/Synthesis/oscillator.h ****     }
 4031              		.loc 8 70 34 view .LVU1139
 4032              	.LBE1152:
 4033              	.LBE1156:
 309:src/PianoB.cpp ****                                                  // Set LFO frequency
 310:src/PianoB.cpp **** 
 311:src/PianoB.cpp ****     lfo_Pluck1.SetAmp(amp_lfo_Pluck);                                                    // Set LFO
 4034              		.loc 10 311 22 view .LVU1140
 4035 05d4 3A49     		ldr	r1, .L65+104
 4036              	.LBB1157:
 4037              	.LBB1158:
  76:../libs/DaisySP/Source/Synthesis/oscillator.h ****     /** Sets the waveform to be synthesized by the Process() function.
 4038              		.loc 8 76 46 view .LVU1141
 4039 05d6 324A     		ldr	r2, .L65+72
 4040              	.LBE1158:
 4041              	.LBE1157:
 4042              		.loc 10 311 22 view .LVU1142
 4043 05d8 0968     		ldr	r1, [r1]	@ float
 4044              	.LBB1161:
 4045              	.LBB1153:
  70:../libs/DaisySP/Source/Synthesis/oscillator.h ****     }
 4046              		.loc 8 70 20 view .LVU1143
 4047 05da 374B     		ldr	r3, .L65+96
 4048              	.LBE1153:
 4049              	.LBE1161:
ARM GAS  C:\Users\skipi\AppData\Local\Temp\cc6PZCfi.s 			page 112


 4050              	.LBB1162:
 4051              	.LBB1159:
  76:../libs/DaisySP/Source/Synthesis/oscillator.h ****     /** Sets the waveform to be synthesized by the Process() function.
 4052              		.loc 8 76 46 view .LVU1144
 4053 05dc 5160     		str	r1, [r2, #4]	@ float
 4054              	.LBE1159:
 4055              	.LBE1162:
 312:src/PianoB.cpp ****     lfo_Pluck2.SetAmp(amp_lfo_Pluck);                                                    // Set LFO
 313:src/PianoB.cpp ****     lfo_Pluck3.SetAmp(amp_lfo_Pluck);                                                    // Set LFO
 314:src/PianoB.cpp ****     lfo_Pluck4.SetAmp(amp_lfo_Pluck);                                                    // Set LFO
 315:src/PianoB.cpp ****     lfo_Bass1.SetAmp(amp_lfo_Bass);                                                    // Set LFO a
 4056              		.loc 10 315 21 view .LVU1145
 4057 05de 394A     		ldr	r2, .L65+108
 4058              	.LBB1163:
 4059              	.LBB1164:
  76:../libs/DaisySP/Source/Synthesis/oscillator.h ****     /** Sets the waveform to be synthesized by the Process() function.
 4060              		.loc 8 76 46 view .LVU1146
 4061 05e0 6960     		str	r1, [r5, #4]	@ float
 4062              	.LBE1164:
 4063              	.LBE1163:
 4064              		.loc 10 315 21 view .LVU1147
 4065 05e2 1268     		ldr	r2, [r2]	@ float
 4066              	.LBB1166:
 4067              	.LBB1167:
  76:../libs/DaisySP/Source/Synthesis/oscillator.h ****     /** Sets the waveform to be synthesized by the Process() function.
 4068              		.loc 8 76 46 view .LVU1148
 4069 05e4 6160     		str	r1, [r4, #4]	@ float
 4070              	.LBE1167:
 4071              	.LBE1166:
 4072              	.LBB1169:
 4073              	.LBB1170:
 4074 05e6 C8F80420 		str	r2, [r8, #4]	@ float
 4075              	.LBE1170:
 4076              	.LBE1169:
 4077              	.LBB1172:
 4078              	.LBB1173:
 4079 05ea 7A60     		str	r2, [r7, #4]	@ float
 4080              	.LBE1173:
 4081              	.LBE1172:
 316:src/PianoB.cpp ****     lfo_Bass2.SetAmp(amp_lfo_Bass);                                                    // Set LFO a
 317:src/PianoB.cpp ****     lfo_Pad1.SetAmp(amp_lfo_Pad);                                                    // Set LFO amp
 4082              		.loc 10 317 20 view .LVU1149
 4083 05ec 364A     		ldr	r2, .L65+112
 4084              	.LBB1175:
 4085              	.LBB1176:
  76:../libs/DaisySP/Source/Synthesis/oscillator.h ****     /** Sets the waveform to be synthesized by the Process() function.
 4086              		.loc 8 76 46 view .LVU1150
 4087 05ee 7160     		str	r1, [r6, #4]	@ float
 4088              	.LBE1176:
 4089              	.LBE1175:
 4090              		.loc 10 317 20 view .LVU1151
 4091 05f0 1268     		ldr	r2, [r2]	@ float
 4092              	.LBB1178:
 4093              	.LBB1179:
  76:../libs/DaisySP/Source/Synthesis/oscillator.h ****     /** Sets the waveform to be synthesized by the Process() function.
 4094              		.loc 8 76 46 view .LVU1152
 4095 05f2 3049     		ldr	r1, .L65+92
ARM GAS  C:\Users\skipi\AppData\Local\Temp\cc6PZCfi.s 			page 113


 4096              	.LBE1179:
 4097              	.LBE1178:
 318:src/PianoB.cpp ****     lfo_Pad2.SetAmp(amp_lfo_Pad);                                                    // Set LFO amp
 319:src/PianoB.cpp **** 
 320:src/PianoB.cpp **** 
 321:src/PianoB.cpp **** //-----------------------------------------------------------------------------Inizializza AMP ADSR
 322:src/PianoB.cpp ****     AmpEnv_Pluck.Init(hw.AudioSampleRate());                                       // Initialize en
 4098              		.loc 10 322 22 view .LVU1153
 4099 05f4 1948     		ldr	r0, .L65+4
 4100              	.LBB1182:
 4101              	.LBB1180:
  76:../libs/DaisySP/Source/Synthesis/oscillator.h ****     /** Sets the waveform to be synthesized by the Process() function.
 4102              		.loc 8 76 46 view .LVU1154
 4103 05f6 4A60     		str	r2, [r1, #4]	@ float
 4104              	.LBE1180:
 4105              	.LBE1182:
 4106              	.LBB1183:
 4107              	.LBB1154:
  70:../libs/DaisySP/Source/Synthesis/oscillator.h ****     }
 4108              		.loc 8 70 20 view .LVU1155
 4109 05f8 83ED070A 		vstr.32	s0, [r3, #28]
 4110              	.LVL324:
  70:../libs/DaisySP/Source/Synthesis/oscillator.h ****     }
 4111              		.loc 8 70 20 view .LVU1156
 4112              	.LBE1154:
 4113              	.LBE1183:
 311:src/PianoB.cpp ****     lfo_Pluck2.SetAmp(amp_lfo_Pluck);                                                    // Set LFO
 4114              		.loc 10 311 5 is_stmt 1 view .LVU1157
 4115              	.LBB1184:
 4116              	.LBI1157:
  76:../libs/DaisySP/Source/Synthesis/oscillator.h ****     /** Sets the waveform to be synthesized by the Process() function.
 4117              		.loc 8 76 17 view .LVU1158
 4118              	.LBB1160:
  76:../libs/DaisySP/Source/Synthesis/oscillator.h ****     /** Sets the waveform to be synthesized by the Process() function.
 4119              		.loc 8 76 41 view .LVU1159
  76:../libs/DaisySP/Source/Synthesis/oscillator.h ****     /** Sets the waveform to be synthesized by the Process() function.
 4120              		.loc 8 76 41 is_stmt 0 view .LVU1160
 4121              	.LBE1160:
 4122              	.LBE1184:
 312:src/PianoB.cpp ****     lfo_Pluck3.SetAmp(amp_lfo_Pluck);                                                    // Set LFO
 4123              		.loc 10 312 5 is_stmt 1 view .LVU1161
 4124              	.LBB1185:
 4125              	.LBI1163:
  76:../libs/DaisySP/Source/Synthesis/oscillator.h ****     /** Sets the waveform to be synthesized by the Process() function.
 4126              		.loc 8 76 17 view .LVU1162
 4127              	.LBB1165:
  76:../libs/DaisySP/Source/Synthesis/oscillator.h ****     /** Sets the waveform to be synthesized by the Process() function.
 4128              		.loc 8 76 41 view .LVU1163
  76:../libs/DaisySP/Source/Synthesis/oscillator.h ****     /** Sets the waveform to be synthesized by the Process() function.
 4129              		.loc 8 76 41 is_stmt 0 view .LVU1164
 4130              	.LBE1165:
 4131              	.LBE1185:
 313:src/PianoB.cpp ****     lfo_Pluck4.SetAmp(amp_lfo_Pluck);                                                    // Set LFO
 4132              		.loc 10 313 5 is_stmt 1 view .LVU1165
 4133              	.LBB1186:
 4134              	.LBI1166:
  76:../libs/DaisySP/Source/Synthesis/oscillator.h ****     /** Sets the waveform to be synthesized by the Process() function.
ARM GAS  C:\Users\skipi\AppData\Local\Temp\cc6PZCfi.s 			page 114


 4135              		.loc 8 76 17 view .LVU1166
 4136              	.LBB1168:
  76:../libs/DaisySP/Source/Synthesis/oscillator.h ****     /** Sets the waveform to be synthesized by the Process() function.
 4137              		.loc 8 76 41 view .LVU1167
  76:../libs/DaisySP/Source/Synthesis/oscillator.h ****     /** Sets the waveform to be synthesized by the Process() function.
 4138              		.loc 8 76 41 is_stmt 0 view .LVU1168
 4139              	.LBE1168:
 4140              	.LBE1186:
 314:src/PianoB.cpp ****     lfo_Bass1.SetAmp(amp_lfo_Bass);                                                    // Set LFO a
 4141              		.loc 10 314 5 is_stmt 1 view .LVU1169
 4142              	.LBB1187:
 4143              	.LBI1175:
  76:../libs/DaisySP/Source/Synthesis/oscillator.h ****     /** Sets the waveform to be synthesized by the Process() function.
 4144              		.loc 8 76 17 view .LVU1170
 4145              	.LBB1177:
  76:../libs/DaisySP/Source/Synthesis/oscillator.h ****     /** Sets the waveform to be synthesized by the Process() function.
 4146              		.loc 8 76 41 view .LVU1171
  76:../libs/DaisySP/Source/Synthesis/oscillator.h ****     /** Sets the waveform to be synthesized by the Process() function.
 4147              		.loc 8 76 41 is_stmt 0 view .LVU1172
 4148              	.LBE1177:
 4149              	.LBE1187:
 315:src/PianoB.cpp ****     lfo_Bass2.SetAmp(amp_lfo_Bass);                                                    // Set LFO a
 4150              		.loc 10 315 5 is_stmt 1 view .LVU1173
 4151              	.LBB1188:
 4152              	.LBI1169:
  76:../libs/DaisySP/Source/Synthesis/oscillator.h ****     /** Sets the waveform to be synthesized by the Process() function.
 4153              		.loc 8 76 17 view .LVU1174
 4154              	.LBB1171:
  76:../libs/DaisySP/Source/Synthesis/oscillator.h ****     /** Sets the waveform to be synthesized by the Process() function.
 4155              		.loc 8 76 41 view .LVU1175
  76:../libs/DaisySP/Source/Synthesis/oscillator.h ****     /** Sets the waveform to be synthesized by the Process() function.
 4156              		.loc 8 76 41 is_stmt 0 view .LVU1176
 4157              	.LBE1171:
 4158              	.LBE1188:
 316:src/PianoB.cpp ****     lfo_Pad1.SetAmp(amp_lfo_Pad);                                                    // Set LFO amp
 4159              		.loc 10 316 5 is_stmt 1 view .LVU1177
 4160              	.LBB1189:
 4161              	.LBI1172:
  76:../libs/DaisySP/Source/Synthesis/oscillator.h ****     /** Sets the waveform to be synthesized by the Process() function.
 4162              		.loc 8 76 17 view .LVU1178
 4163              	.LBB1174:
  76:../libs/DaisySP/Source/Synthesis/oscillator.h ****     /** Sets the waveform to be synthesized by the Process() function.
 4164              		.loc 8 76 41 view .LVU1179
  76:../libs/DaisySP/Source/Synthesis/oscillator.h ****     /** Sets the waveform to be synthesized by the Process() function.
 4165              		.loc 8 76 41 is_stmt 0 view .LVU1180
 4166              	.LBE1174:
 4167              	.LBE1189:
 317:src/PianoB.cpp ****     lfo_Pad2.SetAmp(amp_lfo_Pad);                                                    // Set LFO amp
 4168              		.loc 10 317 5 is_stmt 1 view .LVU1181
 4169              	.LBB1190:
 4170              	.LBI1178:
  76:../libs/DaisySP/Source/Synthesis/oscillator.h ****     /** Sets the waveform to be synthesized by the Process() function.
 4171              		.loc 8 76 17 view .LVU1182
 4172              	.LBB1181:
  76:../libs/DaisySP/Source/Synthesis/oscillator.h ****     /** Sets the waveform to be synthesized by the Process() function.
 4173              		.loc 8 76 41 view .LVU1183
  76:../libs/DaisySP/Source/Synthesis/oscillator.h ****     /** Sets the waveform to be synthesized by the Process() function.
ARM GAS  C:\Users\skipi\AppData\Local\Temp\cc6PZCfi.s 			page 115


 4174              		.loc 8 76 41 is_stmt 0 view .LVU1184
 4175              	.LBE1181:
 4176              	.LBE1190:
 318:src/PianoB.cpp **** 
 4177              		.loc 10 318 5 is_stmt 1 view .LVU1185
 4178              	.LBB1191:
 4179              	.LBI1191:
  76:../libs/DaisySP/Source/Synthesis/oscillator.h ****     /** Sets the waveform to be synthesized by the Process() function.
 4180              		.loc 8 76 17 view .LVU1186
 4181              	.LBB1192:
  76:../libs/DaisySP/Source/Synthesis/oscillator.h ****     /** Sets the waveform to be synthesized by the Process() function.
 4182              		.loc 8 76 41 view .LVU1187
  76:../libs/DaisySP/Source/Synthesis/oscillator.h ****     /** Sets the waveform to be synthesized by the Process() function.
 4183              		.loc 8 76 46 is_stmt 0 view .LVU1188
 4184 05fc 5A60     		str	r2, [r3, #4]	@ float
 4185              	.LVL325:
  76:../libs/DaisySP/Source/Synthesis/oscillator.h ****     /** Sets the waveform to be synthesized by the Process() function.
 4186              		.loc 8 76 46 view .LVU1189
 4187              	.LBE1192:
 4188              	.LBE1191:
 4189              		.loc 10 322 5 is_stmt 1 view .LVU1190
 4190              		.loc 10 322 22 is_stmt 0 view .LVU1191
 4191 05fe FFF7FEFF 		bl	_ZN5daisy9DaisySeed15AudioSampleRateEv
 4192              	.LVL326:
 4193 0602 0121     		movs	r1, #1
 4194 0604 3148     		ldr	r0, .L65+116
 4195 0606 FFF7FEFF 		bl	_ZN7daisysp4Adsr4InitEfi
 4196              	.LVL327:
 323:src/PianoB.cpp ****     AmpEnv_Bass.Init(hw.AudioSampleRate());                                       // Initialize env
 4197              		.loc 10 323 5 is_stmt 1 view .LVU1192
 4198              		.loc 10 323 21 is_stmt 0 view .LVU1193
 4199 060a 1448     		ldr	r0, .L65+4
 4200 060c FFF7FEFF 		bl	_ZN5daisy9DaisySeed15AudioSampleRateEv
 4201              	.LVL328:
 4202 0610 0121     		movs	r1, #1
 4203 0612 2F48     		ldr	r0, .L65+120
 4204 0614 FFF7FEFF 		bl	_ZN7daisysp4Adsr4InitEfi
 4205              	.LVL329:
 324:src/PianoB.cpp ****     AmpEnv_Pad.Init(hw.AudioSampleRate());                                       // Initialize enve
 4206              		.loc 10 324 5 is_stmt 1 view .LVU1194
 325:src/PianoB.cpp **** 
 326:src/PianoB.cpp ****     AmpEnv_Pluck.SetTime(ADSR_SEG_ATTACK, Pluck_Amp_ADSR[0]);                                  // S
 4207              		.loc 10 326 25 is_stmt 0 view .LVU1195
 4208 0618 2E4E     		ldr	r6, .L65+124
 324:src/PianoB.cpp ****     AmpEnv_Pad.Init(hw.AudioSampleRate());                                       // Initialize enve
 4209              		.loc 10 324 20 view .LVU1196
 4210 061a 1048     		ldr	r0, .L65+4
 4211 061c FFF7FEFF 		bl	_ZN5daisy9DaisySeed15AudioSampleRateEv
 4212              	.LVL330:
 327:src/PianoB.cpp ****     AmpEnv_Bass.SetTime(ADSR_SEG_ATTACK, Bass_Amp_ADSR[0]);                                  // Set
 4213              		.loc 10 327 24 view .LVU1197
 4214 0620 2D4D     		ldr	r5, .L65+128
 324:src/PianoB.cpp ****     AmpEnv_Pad.Init(hw.AudioSampleRate());                                       // Initialize enve
 4215              		.loc 10 324 20 view .LVU1198
 4216 0622 0121     		movs	r1, #1
 4217 0624 2D48     		ldr	r0, .L65+132
 4218 0626 FFF7FEFF 		bl	_ZN7daisysp4Adsr4InitEfi
ARM GAS  C:\Users\skipi\AppData\Local\Temp\cc6PZCfi.s 			page 116


 4219              	.LVL331:
 326:src/PianoB.cpp ****     AmpEnv_Bass.SetTime(ADSR_SEG_ATTACK, Bass_Amp_ADSR[0]);                                  // Set
 4220              		.loc 10 326 5 is_stmt 1 view .LVU1199
 328:src/PianoB.cpp ****     AmpEnv_Pad.SetTime(ADSR_SEG_ATTACK, Pad_Amp_ADSR[0]);                                  // Set a
 4221              		.loc 10 328 23 is_stmt 0 view .LVU1200
 4222 062a 2D4C     		ldr	r4, .L65+136
 326:src/PianoB.cpp ****     AmpEnv_Bass.SetTime(ADSR_SEG_ATTACK, Bass_Amp_ADSR[0]);                                  // Set
 4223              		.loc 10 326 25 view .LVU1201
 4224 062c 96ED000A 		vldr.32	s0, [r6]
 4225 0630 0121     		movs	r1, #1
 4226 0632 2648     		ldr	r0, .L65+116
 4227 0634 FFF7FEFF 		bl	_ZN7daisysp4Adsr7SetTimeEif
 4228              	.LVL332:
 327:src/PianoB.cpp ****     AmpEnv_Bass.SetTime(ADSR_SEG_ATTACK, Bass_Amp_ADSR[0]);                                  // Set
 4229              		.loc 10 327 5 is_stmt 1 view .LVU1202
 327:src/PianoB.cpp ****     AmpEnv_Bass.SetTime(ADSR_SEG_ATTACK, Bass_Amp_ADSR[0]);                                  // Set
 4230              		.loc 10 327 24 is_stmt 0 view .LVU1203
 4231 0638 95ED000A 		vldr.32	s0, [r5]
 4232 063c 0121     		movs	r1, #1
 4233 063e 2448     		ldr	r0, .L65+120
 4234 0640 FFF7FEFF 		bl	_ZN7daisysp4Adsr7SetTimeEif
 4235              	.LVL333:
 4236              		.loc 10 328 5 is_stmt 1 view .LVU1204
 4237              		.loc 10 328 23 is_stmt 0 view .LVU1205
 4238 0644 94ED000A 		vldr.32	s0, [r4]
 4239 0648 0121     		movs	r1, #1
 4240 064a 2448     		ldr	r0, .L65+132
 4241 064c FFF7FEFF 		bl	_ZN7daisysp4Adsr7SetTimeEif
 4242              	.LVL334:
 329:src/PianoB.cpp **** 
 330:src/PianoB.cpp ****     AmpEnv_Pluck.SetTime(ADSR_SEG_DECAY, Pluck_Amp_ADSR[1]);                                   // S
 4243              		.loc 10 330 5 is_stmt 1 view .LVU1206
 4244              		.loc 10 330 25 is_stmt 0 view .LVU1207
 4245 0650 96ED010A 		vldr.32	s0, [r6, #4]
 4246 0654 4CE0     		b	.L66
 4247              	.L67:
 4248 0656 00BF     		.align	2
 4249              	.L65:
 4250 0658 00000000 		.word	.LANCHOR26
 4251 065c 00000000 		.word	.LANCHOR89
 4252 0660 00000000 		.word	.LANCHOR27
 4253 0664 00000000 		.word	.LANCHOR28
 4254 0668 00000000 		.word	.LANCHOR29
 4255 066c 00000000 		.word	.LANCHOR30
 4256 0670 00000000 		.word	.LANCHOR31
 4257 0674 00000000 		.word	.LANCHOR90
 4258 0678 00000000 		.word	.LANCHOR24
 4259 067c 00000000 		.word	.LANCHOR25
 4260 0680 00000000 		.word	.LANCHOR91
 4261 0684 00000000 		.word	.LANCHOR92
 4262 0688 00000000 		.word	.LANCHOR94
 4263 068c 00000000 		.word	.LANCHOR95
 4264 0690 00000000 		.word	.LANCHOR96
 4265 0694 00000000 		.word	.LANCHOR97
 4266 0698 00000000 		.word	.LANCHOR98
 4267 069c 00000000 		.word	0
 4268 06a0 00000000 		.word	.LANCHOR1
ARM GAS  C:\Users\skipi\AppData\Local\Temp\cc6PZCfi.s 			page 117


 4269 06a4 00000000 		.word	.LANCHOR3
 4270 06a8 00000000 		.word	.LANCHOR5
 4271 06ac 00000000 		.word	.LANCHOR7
 4272 06b0 00000000 		.word	.LANCHOR11
 4273 06b4 00000000 		.word	.LANCHOR13
 4274 06b8 00000000 		.word	.LANCHOR15
 4275 06bc 00000000 		.word	.LANCHOR100
 4276 06c0 00000000 		.word	.LANCHOR102
 4277 06c4 00000000 		.word	.LANCHOR103
 4278 06c8 00000000 		.word	.LANCHOR104
 4279 06cc 00000000 		.word	.LANCHOR41
 4280 06d0 00000000 		.word	.LANCHOR49
 4281 06d4 00000000 		.word	.LANCHOR105
 4282 06d8 00000000 		.word	.LANCHOR106
 4283 06dc 00000000 		.word	.LANCHOR46
 4284 06e0 00000000 		.word	.LANCHOR107
 4285 06e4 00000000 		.word	.LANCHOR9
 4286 06e8 00000000 		.word	.LANCHOR99
 4287 06ec 00000000 		.word	.LANCHOR101
 4288              	.L66:
 4289 06f0 0221     		movs	r1, #2
 4290 06f2 C948     		ldr	r0, .L68
 4291 06f4 FFF7FEFF 		bl	_ZN7daisysp4Adsr7SetTimeEif
 4292              	.LVL335:
 331:src/PianoB.cpp ****     AmpEnv_Bass.SetTime(ADSR_SEG_DECAY, Bass_Amp_ADSR[1]);                                   // Set
 4293              		.loc 10 331 5 is_stmt 1 view .LVU1208
 4294              		.loc 10 331 24 is_stmt 0 view .LVU1209
 4295 06f8 95ED010A 		vldr.32	s0, [r5, #4]
 4296 06fc 0221     		movs	r1, #2
 4297 06fe C748     		ldr	r0, .L68+4
 4298 0700 FFF7FEFF 		bl	_ZN7daisysp4Adsr7SetTimeEif
 4299              	.LVL336:
 332:src/PianoB.cpp ****     AmpEnv_Pad.SetTime(ADSR_SEG_DECAY, Pad_Amp_ADSR[1]);                                   // Set d
 4300              		.loc 10 332 5 is_stmt 1 view .LVU1210
 4301              		.loc 10 332 23 is_stmt 0 view .LVU1211
 4302 0704 94ED010A 		vldr.32	s0, [r4, #4]
 4303 0708 0221     		movs	r1, #2
 4304 070a C548     		ldr	r0, .L68+8
 4305 070c FFF7FEFF 		bl	_ZN7daisysp4Adsr7SetTimeEif
 4306              	.LVL337:
 333:src/PianoB.cpp **** 
 334:src/PianoB.cpp ****     AmpEnv_Pluck.SetSustainLevel(Pluck_Amp_ADSR[2]);                                          // Se
 4307              		.loc 10 334 5 is_stmt 1 view .LVU1212
 4308              		.loc 10 334 33 is_stmt 0 view .LVU1213
 4309 0710 D6ED027A 		vldr.32	s15, [r6, #8]
 4310              	.LVL338:
 4311              	.LBB1193:
 4312              	.LBI1193:
  46:../libs/DaisySP/Source/Control/adsr.h ****     /** Initializes the Adsr module.
  47:../libs/DaisySP/Source/Control/adsr.h ****         \param sample_rate - The sample rate of the audio engine being run. 
  48:../libs/DaisySP/Source/Control/adsr.h ****     */
  49:../libs/DaisySP/Source/Control/adsr.h ****     void Init(float sample_rate, int blockSize = 1);
  50:../libs/DaisySP/Source/Control/adsr.h ****     /**
  51:../libs/DaisySP/Source/Control/adsr.h ****      \function Retrigger forces the envelope back to attack phase
  52:../libs/DaisySP/Source/Control/adsr.h ****      \param hard  resets the history to zero, results in a click.
  53:../libs/DaisySP/Source/Control/adsr.h ****      */
  54:../libs/DaisySP/Source/Control/adsr.h ****     void Retrigger(bool hard);
ARM GAS  C:\Users\skipi\AppData\Local\Temp\cc6PZCfi.s 			page 118


  55:../libs/DaisySP/Source/Control/adsr.h ****     /** Processes one sample through the filter and returns one sample.
  56:../libs/DaisySP/Source/Control/adsr.h ****         \param gate - trigger the envelope, hold it to sustain 
  57:../libs/DaisySP/Source/Control/adsr.h ****     */
  58:../libs/DaisySP/Source/Control/adsr.h ****     float Process(bool gate);
  59:../libs/DaisySP/Source/Control/adsr.h ****     /** Sets time
  60:../libs/DaisySP/Source/Control/adsr.h ****         Set time per segment in seconds
  61:../libs/DaisySP/Source/Control/adsr.h ****     */
  62:../libs/DaisySP/Source/Control/adsr.h ****     void SetTime(int seg, float time);
  63:../libs/DaisySP/Source/Control/adsr.h ****     void SetAttackTime(float timeInS, float shape = 0.0f);
  64:../libs/DaisySP/Source/Control/adsr.h ****     void SetDecayTime(float timeInS);
  65:../libs/DaisySP/Source/Control/adsr.h ****     void SetReleaseTime(float timeInS);
  66:../libs/DaisySP/Source/Control/adsr.h **** 
  67:../libs/DaisySP/Source/Control/adsr.h ****   private:
  68:../libs/DaisySP/Source/Control/adsr.h ****     void SetTimeConstant(float timeInS, float& time, float& coeff);
  69:../libs/DaisySP/Source/Control/adsr.h **** 
  70:../libs/DaisySP/Source/Control/adsr.h ****   public:
  71:../libs/DaisySP/Source/Control/adsr.h ****     /** Sustain level
  72:../libs/DaisySP/Source/Control/adsr.h ****         \param sus_level - sets sustain level, 0...1.0
  73:../libs/DaisySP/Source/Control/adsr.h ****     */
  74:../libs/DaisySP/Source/Control/adsr.h ****     inline void SetSustainLevel(float sus_level)
 4313              		.loc 7 74 17 is_stmt 1 view .LVU1214
 4314              	.LBB1194:
  75:../libs/DaisySP/Source/Control/adsr.h ****     {
  76:../libs/DaisySP/Source/Control/adsr.h ****         sus_level = (sus_level <= 0.f) ? -0.01f // forces envelope into idle
 4315              		.loc 7 76 9 view .LVU1215
 4316              		.loc 7 76 40 is_stmt 0 view .LVU1216
 4317 0714 F5EEC07A 		vcmpe.f32	s15, #0
 4318 0718 F1EE10FA 		vmrs	APSR_nzcv, FPSCR
 4319 071c 40F28382 		bls	.L45
  77:../libs/DaisySP/Source/Control/adsr.h ****                                        : (sus_level > 1.f) ? 1.f : sus_level;
 4320              		.loc 7 77 60 view .LVU1217
 4321 0720 B7EE007A 		vmov.f32	s14, #1.0e+0
 4322 0724 F4EE477A 		vcmp.f32	s15, s14
 4323 0728 F1EE10FA 		vmrs	APSR_nzcv, FPSCR
 4324 072c 77FE277A 		vselgt.f32	s15, s14, s15
 4325              	.LVL339:
 4326              	.L34:
  78:../libs/DaisySP/Source/Control/adsr.h ****         sus_level_ = sus_level;
 4327              		.loc 7 78 9 is_stmt 1 view .LVU1218
 4328              	.LBE1194:
 4329              	.LBE1193:
 335:src/PianoB.cpp ****     AmpEnv_Bass.SetSustainLevel(Bass_Amp_ADSR[2]);                                          // Set 
 4330              		.loc 10 335 32 is_stmt 0 view .LVU1219
 4331 0730 95ED027A 		vldr.32	s14, [r5, #8]
 4332              	.LBB1198:
 4333              	.LBB1195:
 4334              		.loc 7 78 20 view .LVU1220
 4335 0734 B84B     		ldr	r3, .L68
 4336              	.LBE1195:
 4337              	.LBE1198:
 4338              	.LBB1199:
 4339              	.LBB1200:
  76:../libs/DaisySP/Source/Control/adsr.h ****                                        : (sus_level > 1.f) ? 1.f : sus_level;
 4340              		.loc 7 76 40 view .LVU1221
 4341 0736 B5EEC07A 		vcmpe.f32	s14, #0
 4342              	.LBE1200:
 4343              	.LBE1199:
ARM GAS  C:\Users\skipi\AppData\Local\Temp\cc6PZCfi.s 			page 119


 4344              	.LBB1205:
 4345              	.LBB1196:
 4346              		.loc 7 78 20 view .LVU1222
 4347 073a C3ED007A 		vstr.32	s15, [r3]
 4348              	.LVL340:
 4349              		.loc 7 78 20 view .LVU1223
 4350              	.LBE1196:
 4351              	.LBE1205:
 4352              		.loc 10 335 5 is_stmt 1 view .LVU1224
 4353              	.LBB1206:
 4354              	.LBI1199:
  74:../libs/DaisySP/Source/Control/adsr.h ****     {
 4355              		.loc 7 74 17 view .LVU1225
 4356              	.LBB1201:
  76:../libs/DaisySP/Source/Control/adsr.h ****                                        : (sus_level > 1.f) ? 1.f : sus_level;
 4357              		.loc 7 76 9 view .LVU1226
  76:../libs/DaisySP/Source/Control/adsr.h ****                                        : (sus_level > 1.f) ? 1.f : sus_level;
 4358              		.loc 7 76 40 is_stmt 0 view .LVU1227
 4359 073e F1EE10FA 		vmrs	APSR_nzcv, FPSCR
 4360 0742 40F27F82 		bls	.L47
  77:../libs/DaisySP/Source/Control/adsr.h ****         sus_level_ = sus_level;
 4361              		.loc 7 77 60 view .LVU1228
 4362 0746 F7EE007A 		vmov.f32	s15, #1.0e+0
 4363 074a B4EE677A 		vcmp.f32	s14, s15
 4364 074e F1EE10FA 		vmrs	APSR_nzcv, FPSCR
 4365 0752 37FE877A 		vselgt.f32	s14, s15, s14
 4366              	.LVL341:
 4367              	.L35:
 4368              		.loc 7 78 9 is_stmt 1 view .LVU1229
 4369              	.LBE1201:
 4370              	.LBE1206:
 336:src/PianoB.cpp ****     AmpEnv_Pad.SetSustainLevel(Pad_Amp_ADSR[2]);                                          // Set su
 4371              		.loc 10 336 31 is_stmt 0 view .LVU1230
 4372 0756 D4ED027A 		vldr.32	s15, [r4, #8]
 4373              	.LBB1207:
 4374              	.LBB1202:
 4375              		.loc 7 78 20 view .LVU1231
 4376 075a B04B     		ldr	r3, .L68+4
 4377              	.LBE1202:
 4378              	.LBE1207:
 4379              	.LBB1208:
 4380              	.LBB1209:
  76:../libs/DaisySP/Source/Control/adsr.h ****                                        : (sus_level > 1.f) ? 1.f : sus_level;
 4381              		.loc 7 76 40 view .LVU1232
 4382 075c F5EEC07A 		vcmpe.f32	s15, #0
 4383              	.LBE1209:
 4384              	.LBE1208:
 4385              	.LBB1214:
 4386              	.LBB1203:
 4387              		.loc 7 78 20 view .LVU1233
 4388 0760 83ED007A 		vstr.32	s14, [r3]
 4389              	.LVL342:
 4390              		.loc 7 78 20 view .LVU1234
 4391              	.LBE1203:
 4392              	.LBE1214:
 4393              		.loc 10 336 5 is_stmt 1 view .LVU1235
 4394              	.LBB1215:
ARM GAS  C:\Users\skipi\AppData\Local\Temp\cc6PZCfi.s 			page 120


 4395              	.LBI1208:
  74:../libs/DaisySP/Source/Control/adsr.h ****     {
 4396              		.loc 7 74 17 view .LVU1236
 4397              	.LBB1210:
  76:../libs/DaisySP/Source/Control/adsr.h ****                                        : (sus_level > 1.f) ? 1.f : sus_level;
 4398              		.loc 7 76 9 view .LVU1237
  76:../libs/DaisySP/Source/Control/adsr.h ****                                        : (sus_level > 1.f) ? 1.f : sus_level;
 4399              		.loc 7 76 40 is_stmt 0 view .LVU1238
 4400 0764 F1EE10FA 		vmrs	APSR_nzcv, FPSCR
 4401 0768 40F26982 		bls	.L49
  77:../libs/DaisySP/Source/Control/adsr.h ****         sus_level_ = sus_level;
 4402              		.loc 7 77 60 view .LVU1239
 4403 076c B7EE007A 		vmov.f32	s14, #1.0e+0
 4404 0770 F4EE477A 		vcmp.f32	s15, s14
 4405 0774 F1EE10FA 		vmrs	APSR_nzcv, FPSCR
 4406 0778 77FE277A 		vselgt.f32	s15, s14, s15
 4407              	.LVL343:
 4408              	.L36:
 4409              		.loc 7 78 9 is_stmt 1 view .LVU1240
 4410              	.LBE1210:
 4411              	.LBE1215:
 337:src/PianoB.cpp **** 
 338:src/PianoB.cpp ****     AmpEnv_Pluck.SetTime(ADSR_SEG_RELEASE, Pluck_Amp_ADSR[3]);                              // Set 
 4412              		.loc 10 338 25 is_stmt 0 view .LVU1241
 4413 077c 96ED030A 		vldr.32	s0, [r6, #12]
 4414 0780 0421     		movs	r1, #4
 4415              	.LBB1216:
 4416              	.LBB1211:
 4417              		.loc 7 78 20 view .LVU1242
 4418 0782 A74E     		ldr	r6, .L68+8
 4419              	.LBE1211:
 4420              	.LBE1216:
 4421              		.loc 10 338 25 view .LVU1243
 4422 0784 A448     		ldr	r0, .L68
 4423              	.LBB1217:
 4424              	.LBB1212:
 4425              		.loc 7 78 20 view .LVU1244
 4426 0786 C6ED007A 		vstr.32	s15, [r6]
 4427              	.LVL344:
 4428              		.loc 7 78 20 view .LVU1245
 4429              	.LBE1212:
 4430              	.LBE1217:
 4431              		.loc 10 338 5 is_stmt 1 view .LVU1246
 4432              		.loc 10 338 25 is_stmt 0 view .LVU1247
 4433 078a FFF7FEFF 		bl	_ZN7daisysp4Adsr7SetTimeEif
 4434              	.LVL345:
 339:src/PianoB.cpp ****     AmpEnv_Bass.SetTime(ADSR_SEG_RELEASE, Bass_Amp_ADSR[3]);                              // Set re
 4435              		.loc 10 339 5 is_stmt 1 view .LVU1248
 4436              		.loc 10 339 24 is_stmt 0 view .LVU1249
 4437 078e 95ED030A 		vldr.32	s0, [r5, #12]
 4438 0792 0421     		movs	r1, #4
 4439 0794 A148     		ldr	r0, .L68+4
 4440 0796 FFF7FEFF 		bl	_ZN7daisysp4Adsr7SetTimeEif
 4441              	.LVL346:
 340:src/PianoB.cpp ****     AmpEnv_Pad.SetTime(ADSR_SEG_RELEASE, Pad_Amp_ADSR[3]);                              // Set rele
 4442              		.loc 10 340 5 is_stmt 1 view .LVU1250
 4443              		.loc 10 340 23 is_stmt 0 view .LVU1251
ARM GAS  C:\Users\skipi\AppData\Local\Temp\cc6PZCfi.s 			page 121


 4444 079a 0421     		movs	r1, #4
 4445 079c 94ED030A 		vldr.32	s0, [r4, #12]
 4446 07a0 3046     		mov	r0, r6
 4447 07a2 FFF7FEFF 		bl	_ZN7daisysp4Adsr7SetTimeEif
 4448              	.LVL347:
 341:src/PianoB.cpp ****     
 342:src/PianoB.cpp **** //-----------------------------------------------------------------------------------Inizializza FI
 343:src/PianoB.cpp ****     filter_Pluck1.Init(hw.AudioSampleRate());                                        // Initialize 
 4449              		.loc 10 343 5 is_stmt 1 view .LVU1252
 4450              		.loc 10 343 23 is_stmt 0 view .LVU1253
 4451 07a6 9F48     		ldr	r0, .L68+12
 4452 07a8 FFF7FEFF 		bl	_ZN5daisy9DaisySeed15AudioSampleRateEv
 4453              	.LVL348:
 4454 07ac 9E48     		ldr	r0, .L68+16
 4455 07ae FFF7FEFF 		bl	_ZN7daisysp3Svf4InitEf
 4456              	.LVL349:
 344:src/PianoB.cpp ****     filter_Pluck2.Init(hw.AudioSampleRate());                                        // Initialize 
 4457              		.loc 10 344 5 is_stmt 1 view .LVU1254
 4458              		.loc 10 344 23 is_stmt 0 view .LVU1255
 4459 07b2 9C48     		ldr	r0, .L68+12
 4460 07b4 FFF7FEFF 		bl	_ZN5daisy9DaisySeed15AudioSampleRateEv
 4461              	.LVL350:
 4462 07b8 9C48     		ldr	r0, .L68+20
 4463 07ba FFF7FEFF 		bl	_ZN7daisysp3Svf4InitEf
 4464              	.LVL351:
 345:src/PianoB.cpp ****     filter_Pluck3.Init(hw.AudioSampleRate());                                        // Initialize 
 4465              		.loc 10 345 5 is_stmt 1 view .LVU1256
 4466              		.loc 10 345 23 is_stmt 0 view .LVU1257
 4467 07be 9948     		ldr	r0, .L68+12
 4468 07c0 FFF7FEFF 		bl	_ZN5daisy9DaisySeed15AudioSampleRateEv
 4469              	.LVL352:
 4470 07c4 9A48     		ldr	r0, .L68+24
 4471 07c6 FFF7FEFF 		bl	_ZN7daisysp3Svf4InitEf
 4472              	.LVL353:
 346:src/PianoB.cpp ****     filter_Pluck4.Init(hw.AudioSampleRate());                                        // Initialize 
 4473              		.loc 10 346 5 is_stmt 1 view .LVU1258
 4474              		.loc 10 346 23 is_stmt 0 view .LVU1259
 4475 07ca 9648     		ldr	r0, .L68+12
 4476 07cc FFF7FEFF 		bl	_ZN5daisy9DaisySeed15AudioSampleRateEv
 4477              	.LVL354:
 4478 07d0 9848     		ldr	r0, .L68+28
 4479 07d2 FFF7FEFF 		bl	_ZN7daisysp3Svf4InitEf
 4480              	.LVL355:
 347:src/PianoB.cpp ****     filter_Bass1.Init(hw.AudioSampleRate());                                        // Initialize f
 4481              		.loc 10 347 5 is_stmt 1 view .LVU1260
 4482              		.loc 10 347 22 is_stmt 0 view .LVU1261
 4483 07d6 9348     		ldr	r0, .L68+12
 4484 07d8 FFF7FEFF 		bl	_ZN5daisy9DaisySeed15AudioSampleRateEv
 4485              	.LVL356:
 4486 07dc 9648     		ldr	r0, .L68+32
 4487 07de FFF7FEFF 		bl	_ZN7daisysp3Svf4InitEf
 4488              	.LVL357:
 348:src/PianoB.cpp ****     filter_Bass2.Init(hw.AudioSampleRate());                                        // Initialize f
 4489              		.loc 10 348 5 is_stmt 1 view .LVU1262
 4490              		.loc 10 348 22 is_stmt 0 view .LVU1263
 4491 07e2 9048     		ldr	r0, .L68+12
 4492 07e4 FFF7FEFF 		bl	_ZN5daisy9DaisySeed15AudioSampleRateEv
ARM GAS  C:\Users\skipi\AppData\Local\Temp\cc6PZCfi.s 			page 122


 4493              	.LVL358:
 4494 07e8 9448     		ldr	r0, .L68+36
 4495 07ea FFF7FEFF 		bl	_ZN7daisysp3Svf4InitEf
 4496              	.LVL359:
 349:src/PianoB.cpp ****     filter_Pad1.Init(hw.AudioSampleRate());                                        // Initialize fi
 4497              		.loc 10 349 5 is_stmt 1 view .LVU1264
 4498              		.loc 10 349 21 is_stmt 0 view .LVU1265
 4499 07ee 8D48     		ldr	r0, .L68+12
 4500 07f0 FFF7FEFF 		bl	_ZN5daisy9DaisySeed15AudioSampleRateEv
 4501              	.LVL360:
 4502 07f4 9248     		ldr	r0, .L68+40
 4503 07f6 FFF7FEFF 		bl	_ZN7daisysp3Svf4InitEf
 4504              	.LVL361:
 350:src/PianoB.cpp ****     filter_Pad2.Init(hw.AudioSampleRate());                                        // Initialize fi
 4505              		.loc 10 350 5 is_stmt 1 view .LVU1266
 351:src/PianoB.cpp **** 
 352:src/PianoB.cpp ****     filter_Pluck1.SetFreq(ft_pluck);                                               // Set cutoff fr
 4506              		.loc 10 352 26 is_stmt 0 view .LVU1267
 4507 07fa 924C     		ldr	r4, .L68+44
 350:src/PianoB.cpp ****     filter_Pad2.Init(hw.AudioSampleRate());                                        // Initialize fi
 4508              		.loc 10 350 21 view .LVU1268
 4509 07fc 8948     		ldr	r0, .L68+12
 4510 07fe FFF7FEFF 		bl	_ZN5daisy9DaisySeed15AudioSampleRateEv
 4511              	.LVL362:
 4512 0802 9148     		ldr	r0, .L68+48
 4513 0804 FFF7FEFF 		bl	_ZN7daisysp3Svf4InitEf
 4514              	.LVL363:
 4515              		.loc 10 352 5 is_stmt 1 view .LVU1269
 4516              		.loc 10 352 26 is_stmt 0 view .LVU1270
 4517 0808 94ED000A 		vldr.32	s0, [r4]
 4518 080c 8648     		ldr	r0, .L68+16
 4519 080e FFF7FEFF 		bl	_ZN7daisysp3Svf7SetFreqEf
 4520              	.LVL364:
 353:src/PianoB.cpp ****     filter_Pluck2.SetFreq(ft_pluck);                                               // Set cutoff fr
 4521              		.loc 10 353 5 is_stmt 1 view .LVU1271
 4522              		.loc 10 353 26 is_stmt 0 view .LVU1272
 4523 0812 94ED000A 		vldr.32	s0, [r4]
 354:src/PianoB.cpp ****     filter_Bass1.SetFreq(ft_bass);                                               // Set cutoff freq
 4524              		.loc 10 354 25 view .LVU1273
 4525 0816 8D4C     		ldr	r4, .L68+52
 353:src/PianoB.cpp ****     filter_Pluck2.SetFreq(ft_pluck);                                               // Set cutoff fr
 4526              		.loc 10 353 26 view .LVU1274
 4527 0818 8448     		ldr	r0, .L68+20
 4528 081a FFF7FEFF 		bl	_ZN7daisysp3Svf7SetFreqEf
 4529              	.LVL365:
 4530              		.loc 10 354 5 is_stmt 1 view .LVU1275
 355:src/PianoB.cpp ****     filter_Bass2.SetFreq(ft_bass);                                               // Set cutoff freq
 356:src/PianoB.cpp ****     filter_Pad1.SetFreq(ft_pad);                                               // Set cutoff freque
 4531              		.loc 10 356 24 is_stmt 0 view .LVU1276
 4532 081e 8C4D     		ldr	r5, .L68+56
 354:src/PianoB.cpp ****     filter_Bass1.SetFreq(ft_bass);                                               // Set cutoff freq
 4533              		.loc 10 354 25 view .LVU1277
 4534 0820 94ED000A 		vldr.32	s0, [r4]
 4535 0824 8448     		ldr	r0, .L68+32
 4536 0826 FFF7FEFF 		bl	_ZN7daisysp3Svf7SetFreqEf
 4537              	.LVL366:
 355:src/PianoB.cpp ****     filter_Bass2.SetFreq(ft_bass);                                               // Set cutoff freq
ARM GAS  C:\Users\skipi\AppData\Local\Temp\cc6PZCfi.s 			page 123


 4538              		.loc 10 355 5 is_stmt 1 view .LVU1278
 355:src/PianoB.cpp ****     filter_Bass2.SetFreq(ft_bass);                                               // Set cutoff freq
 4539              		.loc 10 355 25 is_stmt 0 view .LVU1279
 4540 082a 94ED000A 		vldr.32	s0, [r4]
 4541 082e 8348     		ldr	r0, .L68+36
 357:src/PianoB.cpp ****     filter_Pad2.SetFreq(ft_pad);                                               // Set cutoff freque
 358:src/PianoB.cpp **** 
 359:src/PianoB.cpp ****     filter_Pluck1.SetRes(res_pluck);                                             // Set resonance
 4542              		.loc 10 359 25 view .LVU1280
 4543 0830 884C     		ldr	r4, .L68+60
 355:src/PianoB.cpp ****     filter_Bass2.SetFreq(ft_bass);                                               // Set cutoff freq
 4544              		.loc 10 355 25 view .LVU1281
 4545 0832 FFF7FEFF 		bl	_ZN7daisysp3Svf7SetFreqEf
 4546              	.LVL367:
 356:src/PianoB.cpp ****     filter_Pad2.SetFreq(ft_pad);                                               // Set cutoff freque
 4547              		.loc 10 356 5 is_stmt 1 view .LVU1282
 356:src/PianoB.cpp ****     filter_Pad2.SetFreq(ft_pad);                                               // Set cutoff freque
 4548              		.loc 10 356 24 is_stmt 0 view .LVU1283
 4549 0836 95ED000A 		vldr.32	s0, [r5]
 4550 083a 8148     		ldr	r0, .L68+40
 4551 083c FFF7FEFF 		bl	_ZN7daisysp3Svf7SetFreqEf
 4552              	.LVL368:
 357:src/PianoB.cpp ****     filter_Pad2.SetFreq(ft_pad);                                               // Set cutoff freque
 4553              		.loc 10 357 5 is_stmt 1 view .LVU1284
 357:src/PianoB.cpp ****     filter_Pad2.SetFreq(ft_pad);                                               // Set cutoff freque
 4554              		.loc 10 357 24 is_stmt 0 view .LVU1285
 4555 0840 95ED000A 		vldr.32	s0, [r5]
 4556 0844 8048     		ldr	r0, .L68+48
 4557 0846 FFF7FEFF 		bl	_ZN7daisysp3Svf7SetFreqEf
 4558              	.LVL369:
 4559              		.loc 10 359 5 is_stmt 1 view .LVU1286
 4560              		.loc 10 359 25 is_stmt 0 view .LVU1287
 4561 084a 94ED000A 		vldr.32	s0, [r4]
 4562 084e 7648     		ldr	r0, .L68+16
 4563 0850 FFF7FEFF 		bl	_ZN7daisysp3Svf6SetResEf
 4564              	.LVL370:
 360:src/PianoB.cpp ****     filter_Pluck2.SetRes(res_pluck);                                             // Set resonance
 4565              		.loc 10 360 5 is_stmt 1 view .LVU1288
 4566              		.loc 10 360 25 is_stmt 0 view .LVU1289
 4567 0854 94ED000A 		vldr.32	s0, [r4]
 4568 0858 7448     		ldr	r0, .L68+20
 4569 085a FFF7FEFF 		bl	_ZN7daisysp3Svf6SetResEf
 4570              	.LVL371:
 361:src/PianoB.cpp ****     filter_Pluck3.SetRes(res_pluck);                                             // Set resonance
 4571              		.loc 10 361 5 is_stmt 1 view .LVU1290
 4572              		.loc 10 361 25 is_stmt 0 view .LVU1291
 4573 085e 94ED000A 		vldr.32	s0, [r4]
 4574 0862 7348     		ldr	r0, .L68+24
 4575 0864 FFF7FEFF 		bl	_ZN7daisysp3Svf6SetResEf
 4576              	.LVL372:
 362:src/PianoB.cpp ****     filter_Pluck4.SetRes(res_pluck);                                             // Set resonance
 4577              		.loc 10 362 5 is_stmt 1 view .LVU1292
 4578              		.loc 10 362 25 is_stmt 0 view .LVU1293
 4579 0868 94ED000A 		vldr.32	s0, [r4]
 363:src/PianoB.cpp ****     filter_Bass1.SetRes(res_bass);                                             // Set resonance
 4580              		.loc 10 363 24 view .LVU1294
 4581 086c 7A4C     		ldr	r4, .L68+64
ARM GAS  C:\Users\skipi\AppData\Local\Temp\cc6PZCfi.s 			page 124


 362:src/PianoB.cpp ****     filter_Pluck4.SetRes(res_pluck);                                             // Set resonance
 4582              		.loc 10 362 25 view .LVU1295
 4583 086e 7148     		ldr	r0, .L68+28
 4584 0870 FFF7FEFF 		bl	_ZN7daisysp3Svf6SetResEf
 4585              	.LVL373:
 4586              		.loc 10 363 5 is_stmt 1 view .LVU1296
 364:src/PianoB.cpp ****     filter_Bass2.SetRes(res_bass);                                             // Set resonance
 365:src/PianoB.cpp ****     filter_Pad1.SetRes(res_pad);                                             // Set resonance
 4587              		.loc 10 365 23 is_stmt 0 view .LVU1297
 4588 0874 794D     		ldr	r5, .L68+68
 363:src/PianoB.cpp ****     filter_Bass1.SetRes(res_bass);                                             // Set resonance
 4589              		.loc 10 363 24 view .LVU1298
 4590 0876 94ED000A 		vldr.32	s0, [r4]
 4591 087a 6F48     		ldr	r0, .L68+32
 4592 087c FFF7FEFF 		bl	_ZN7daisysp3Svf6SetResEf
 4593              	.LVL374:
 364:src/PianoB.cpp ****     filter_Bass2.SetRes(res_bass);                                             // Set resonance
 4594              		.loc 10 364 5 is_stmt 1 view .LVU1299
 364:src/PianoB.cpp ****     filter_Bass2.SetRes(res_bass);                                             // Set resonance
 4595              		.loc 10 364 24 is_stmt 0 view .LVU1300
 4596 0880 94ED000A 		vldr.32	s0, [r4]
 4597 0884 6D48     		ldr	r0, .L68+36
 366:src/PianoB.cpp ****     filter_Pad2.SetRes(res_pad);                                             // Set resonance
 367:src/PianoB.cpp **** 
 368:src/PianoB.cpp ****                                       
 369:src/PianoB.cpp **** 
 370:src/PianoB.cpp ****     filter_Pluck1.SetDrive(drive_pluck);                                               // Set filte
 4598              		.loc 10 370 27 view .LVU1301
 4599 0886 764C     		ldr	r4, .L68+72
 364:src/PianoB.cpp ****     filter_Bass2.SetRes(res_bass);                                             // Set resonance
 4600              		.loc 10 364 24 view .LVU1302
 4601 0888 FFF7FEFF 		bl	_ZN7daisysp3Svf6SetResEf
 4602              	.LVL375:
 365:src/PianoB.cpp ****     filter_Pad2.SetRes(res_pad);                                             // Set resonance
 4603              		.loc 10 365 5 is_stmt 1 view .LVU1303
 365:src/PianoB.cpp ****     filter_Pad2.SetRes(res_pad);                                             // Set resonance
 4604              		.loc 10 365 23 is_stmt 0 view .LVU1304
 4605 088c 95ED000A 		vldr.32	s0, [r5]
 4606 0890 6B48     		ldr	r0, .L68+40
 4607 0892 FFF7FEFF 		bl	_ZN7daisysp3Svf6SetResEf
 4608              	.LVL376:
 366:src/PianoB.cpp ****     filter_Pad2.SetRes(res_pad);                                             // Set resonance
 4609              		.loc 10 366 5 is_stmt 1 view .LVU1305
 366:src/PianoB.cpp ****     filter_Pad2.SetRes(res_pad);                                             // Set resonance
 4610              		.loc 10 366 23 is_stmt 0 view .LVU1306
 4611 0896 95ED000A 		vldr.32	s0, [r5]
 4612 089a 6B48     		ldr	r0, .L68+48
 4613 089c FFF7FEFF 		bl	_ZN7daisysp3Svf6SetResEf
 4614              	.LVL377:
 4615              		.loc 10 370 5 is_stmt 1 view .LVU1307
 4616              		.loc 10 370 27 is_stmt 0 view .LVU1308
 4617 08a0 94ED000A 		vldr.32	s0, [r4]
 4618 08a4 6048     		ldr	r0, .L68+16
 4619 08a6 FFF7FEFF 		bl	_ZN7daisysp3Svf8SetDriveEf
 4620              	.LVL378:
 371:src/PianoB.cpp ****     filter_Pluck2.SetDrive(drive_pluck);                                               // Set filte
 4621              		.loc 10 371 5 is_stmt 1 view .LVU1309
ARM GAS  C:\Users\skipi\AppData\Local\Temp\cc6PZCfi.s 			page 125


 4622              		.loc 10 371 27 is_stmt 0 view .LVU1310
 4623 08aa 94ED000A 		vldr.32	s0, [r4]
 4624 08ae 5F48     		ldr	r0, .L68+20
 4625 08b0 FFF7FEFF 		bl	_ZN7daisysp3Svf8SetDriveEf
 4626              	.LVL379:
 372:src/PianoB.cpp ****     filter_Pluck3.SetDrive(drive_pluck);                                               // Set filte
 4627              		.loc 10 372 5 is_stmt 1 view .LVU1311
 4628              		.loc 10 372 27 is_stmt 0 view .LVU1312
 4629 08b4 94ED000A 		vldr.32	s0, [r4]
 4630 08b8 5D48     		ldr	r0, .L68+24
 4631 08ba FFF7FEFF 		bl	_ZN7daisysp3Svf8SetDriveEf
 4632              	.LVL380:
 373:src/PianoB.cpp ****     filter_Pluck4.SetDrive(drive_pluck);                                               // Set filte
 4633              		.loc 10 373 5 is_stmt 1 view .LVU1313
 4634              		.loc 10 373 27 is_stmt 0 view .LVU1314
 4635 08be 94ED000A 		vldr.32	s0, [r4]
 374:src/PianoB.cpp ****     filter_Bass1.SetDrive(drive_bass);                                               // Set filter 
 4636              		.loc 10 374 26 view .LVU1315
 4637 08c2 684C     		ldr	r4, .L68+76
 373:src/PianoB.cpp ****     filter_Pluck4.SetDrive(drive_pluck);                                               // Set filte
 4638              		.loc 10 373 27 view .LVU1316
 4639 08c4 5B48     		ldr	r0, .L68+28
 4640 08c6 FFF7FEFF 		bl	_ZN7daisysp3Svf8SetDriveEf
 4641              	.LVL381:
 4642              		.loc 10 374 5 is_stmt 1 view .LVU1317
 4643              		.loc 10 374 26 is_stmt 0 view .LVU1318
 4644 08ca 94ED000A 		vldr.32	s0, [r4]
 4645 08ce 5A48     		ldr	r0, .L68+32
 4646 08d0 FFF7FEFF 		bl	_ZN7daisysp3Svf8SetDriveEf
 4647              	.LVL382:
 375:src/PianoB.cpp ****     filter_Bass2.SetDrive(drive_bass);                                               // Set filter 
 4648              		.loc 10 375 5 is_stmt 1 view .LVU1319
 4649              		.loc 10 375 26 is_stmt 0 view .LVU1320
 4650 08d4 94ED000A 		vldr.32	s0, [r4]
 376:src/PianoB.cpp ****     filter_Pad1.SetDrive(drive_pad);                                               // Set filter am
 4651              		.loc 10 376 25 view .LVU1321
 4652 08d8 634C     		ldr	r4, .L68+80
 375:src/PianoB.cpp ****     filter_Bass2.SetDrive(drive_bass);                                               // Set filter 
 4653              		.loc 10 375 26 view .LVU1322
 4654 08da 5848     		ldr	r0, .L68+36
 4655 08dc FFF7FEFF 		bl	_ZN7daisysp3Svf8SetDriveEf
 4656              	.LVL383:
 4657              		.loc 10 376 5 is_stmt 1 view .LVU1323
 4658              		.loc 10 376 25 is_stmt 0 view .LVU1324
 4659 08e0 94ED000A 		vldr.32	s0, [r4]
 4660 08e4 5648     		ldr	r0, .L68+40
 4661 08e6 FFF7FEFF 		bl	_ZN7daisysp3Svf8SetDriveEf
 4662              	.LVL384:
 377:src/PianoB.cpp ****     filter_Pad2.SetDrive(drive_pad);                                               // Set filter am
 4663              		.loc 10 377 5 is_stmt 1 view .LVU1325
 4664              		.loc 10 377 25 is_stmt 0 view .LVU1326
 4665 08ea 94ED000A 		vldr.32	s0, [r4]
 4666 08ee 5648     		ldr	r0, .L68+48
 4667 08f0 FFF7FEFF 		bl	_ZN7daisysp3Svf8SetDriveEf
 4668              	.LVL385:
 378:src/PianoB.cpp **** 
 379:src/PianoB.cpp **** //-----------------------------------------------------------------------------------Inizializza FI
ARM GAS  C:\Users\skipi\AppData\Local\Temp\cc6PZCfi.s 			page 126


 380:src/PianoB.cpp ****     FilterEnv_Pluck.Init(hw.AudioSampleRate());                                   // Initialize env
 4669              		.loc 10 380 5 is_stmt 1 view .LVU1327
 4670              		.loc 10 380 25 is_stmt 0 view .LVU1328
 4671 08f4 4B48     		ldr	r0, .L68+12
 4672 08f6 FFF7FEFF 		bl	_ZN5daisy9DaisySeed15AudioSampleRateEv
 4673              	.LVL386:
 4674 08fa 0121     		movs	r1, #1
 4675 08fc 5B48     		ldr	r0, .L68+84
 4676 08fe FFF7FEFF 		bl	_ZN7daisysp4Adsr4InitEfi
 4677              	.LVL387:
 381:src/PianoB.cpp ****     FilterEnv_Bass.Init(hw.AudioSampleRate());                                   // Initialize enve
 4678              		.loc 10 381 5 is_stmt 1 view .LVU1329
 4679              		.loc 10 381 24 is_stmt 0 view .LVU1330
 4680 0902 4848     		ldr	r0, .L68+12
 4681 0904 FFF7FEFF 		bl	_ZN5daisy9DaisySeed15AudioSampleRateEv
 4682              	.LVL388:
 4683 0908 0121     		movs	r1, #1
 4684 090a 5948     		ldr	r0, .L68+88
 4685 090c FFF7FEFF 		bl	_ZN7daisysp4Adsr4InitEfi
 4686              	.LVL389:
 382:src/PianoB.cpp ****     FilterEnv_Pad.Init(hw.AudioSampleRate());                                   // Initialize envel
 4687              		.loc 10 382 5 is_stmt 1 view .LVU1331
 383:src/PianoB.cpp **** 
 384:src/PianoB.cpp ****     FilterEnv_Pluck.SetTime(ADSR_SEG_ATTACK, Pluck_Filter_ADSR[0]);                              //
 4688              		.loc 10 384 28 is_stmt 0 view .LVU1332
 4689 0910 584E     		ldr	r6, .L68+92
 382:src/PianoB.cpp ****     FilterEnv_Pad.Init(hw.AudioSampleRate());                                   // Initialize envel
 4690              		.loc 10 382 23 view .LVU1333
 4691 0912 4448     		ldr	r0, .L68+12
 4692 0914 FFF7FEFF 		bl	_ZN5daisy9DaisySeed15AudioSampleRateEv
 4693              	.LVL390:
 385:src/PianoB.cpp ****     FilterEnv_Bass.SetTime(ADSR_SEG_ATTACK, Bass_Filter_ADSR[0]);                              // S
 4694              		.loc 10 385 27 view .LVU1334
 4695 0918 574D     		ldr	r5, .L68+96
 382:src/PianoB.cpp ****     FilterEnv_Pad.Init(hw.AudioSampleRate());                                   // Initialize envel
 4696              		.loc 10 382 23 view .LVU1335
 4697 091a 0121     		movs	r1, #1
 4698 091c 5748     		ldr	r0, .L68+100
 4699 091e FFF7FEFF 		bl	_ZN7daisysp4Adsr4InitEfi
 4700              	.LVL391:
 384:src/PianoB.cpp ****     FilterEnv_Bass.SetTime(ADSR_SEG_ATTACK, Bass_Filter_ADSR[0]);                              // S
 4701              		.loc 10 384 5 is_stmt 1 view .LVU1336
 386:src/PianoB.cpp ****     FilterEnv_Pad.SetTime(ADSR_SEG_ATTACK, Pad_Filter_ADSR[0]);                              // Set
 4702              		.loc 10 386 26 is_stmt 0 view .LVU1337
 4703 0922 574C     		ldr	r4, .L68+104
 384:src/PianoB.cpp ****     FilterEnv_Bass.SetTime(ADSR_SEG_ATTACK, Bass_Filter_ADSR[0]);                              // S
 4704              		.loc 10 384 28 view .LVU1338
 4705 0924 96ED000A 		vldr.32	s0, [r6]
 4706 0928 0121     		movs	r1, #1
 4707 092a 5048     		ldr	r0, .L68+84
 4708 092c FFF7FEFF 		bl	_ZN7daisysp4Adsr7SetTimeEif
 4709              	.LVL392:
 385:src/PianoB.cpp ****     FilterEnv_Bass.SetTime(ADSR_SEG_ATTACK, Bass_Filter_ADSR[0]);                              // S
 4710              		.loc 10 385 5 is_stmt 1 view .LVU1339
 385:src/PianoB.cpp ****     FilterEnv_Bass.SetTime(ADSR_SEG_ATTACK, Bass_Filter_ADSR[0]);                              // S
 4711              		.loc 10 385 27 is_stmt 0 view .LVU1340
 4712 0930 95ED000A 		vldr.32	s0, [r5]
ARM GAS  C:\Users\skipi\AppData\Local\Temp\cc6PZCfi.s 			page 127


 4713 0934 0121     		movs	r1, #1
 4714 0936 4E48     		ldr	r0, .L68+88
 4715 0938 FFF7FEFF 		bl	_ZN7daisysp4Adsr7SetTimeEif
 4716              	.LVL393:
 4717              		.loc 10 386 5 is_stmt 1 view .LVU1341
 4718              		.loc 10 386 26 is_stmt 0 view .LVU1342
 4719 093c 94ED000A 		vldr.32	s0, [r4]
 4720 0940 0121     		movs	r1, #1
 4721 0942 4E48     		ldr	r0, .L68+100
 4722 0944 FFF7FEFF 		bl	_ZN7daisysp4Adsr7SetTimeEif
 4723              	.LVL394:
 387:src/PianoB.cpp **** 
 388:src/PianoB.cpp ****     FilterEnv_Pluck.SetTime(ADSR_SEG_DECAY, Pluck_Filter_ADSR[1]);                               //
 4724              		.loc 10 388 5 is_stmt 1 view .LVU1343
 4725              		.loc 10 388 28 is_stmt 0 view .LVU1344
 4726 0948 96ED010A 		vldr.32	s0, [r6, #4]
 4727 094c 0221     		movs	r1, #2
 4728 094e 4748     		ldr	r0, .L68+84
 4729 0950 FFF7FEFF 		bl	_ZN7daisysp4Adsr7SetTimeEif
 4730              	.LVL395:
 389:src/PianoB.cpp ****     FilterEnv_Bass.SetTime(ADSR_SEG_DECAY, Bass_Filter_ADSR[1]);                               // S
 4731              		.loc 10 389 5 is_stmt 1 view .LVU1345
 4732              		.loc 10 389 27 is_stmt 0 view .LVU1346
 4733 0954 95ED010A 		vldr.32	s0, [r5, #4]
 4734 0958 0221     		movs	r1, #2
 4735 095a 4548     		ldr	r0, .L68+88
 4736 095c FFF7FEFF 		bl	_ZN7daisysp4Adsr7SetTimeEif
 4737              	.LVL396:
 390:src/PianoB.cpp ****     FilterEnv_Pad.SetTime(ADSR_SEG_DECAY, Pad_Filter_ADSR[1]);                               // Set
 4738              		.loc 10 390 5 is_stmt 1 view .LVU1347
 4739              		.loc 10 390 26 is_stmt 0 view .LVU1348
 4740 0960 94ED010A 		vldr.32	s0, [r4, #4]
 4741 0964 0221     		movs	r1, #2
 4742 0966 4548     		ldr	r0, .L68+100
 4743 0968 FFF7FEFF 		bl	_ZN7daisysp4Adsr7SetTimeEif
 4744              	.LVL397:
 391:src/PianoB.cpp **** 
 392:src/PianoB.cpp ****     FilterEnv_Pluck.SetSustainLevel(Pluck_Filter_ADSR[2]);                                      // 
 4745              		.loc 10 392 5 is_stmt 1 view .LVU1349
 4746              		.loc 10 392 36 is_stmt 0 view .LVU1350
 4747 096c D6ED027A 		vldr.32	s15, [r6, #8]
 4748              	.LVL398:
 4749              	.LBB1218:
 4750              	.LBI1218:
  74:../libs/DaisySP/Source/Control/adsr.h ****     {
 4751              		.loc 7 74 17 is_stmt 1 view .LVU1351
 4752              	.LBB1219:
  76:../libs/DaisySP/Source/Control/adsr.h ****                                        : (sus_level > 1.f) ? 1.f : sus_level;
 4753              		.loc 7 76 9 view .LVU1352
  76:../libs/DaisySP/Source/Control/adsr.h ****                                        : (sus_level > 1.f) ? 1.f : sus_level;
 4754              		.loc 7 76 40 is_stmt 0 view .LVU1353
 4755 0970 F5EEC07A 		vcmpe.f32	s15, #0
 4756 0974 F1EE10FA 		vmrs	APSR_nzcv, FPSCR
 4757 0978 40F25E81 		bls	.L51
  77:../libs/DaisySP/Source/Control/adsr.h ****         sus_level_ = sus_level;
 4758              		.loc 7 77 60 view .LVU1354
 4759 097c B7EE007A 		vmov.f32	s14, #1.0e+0
ARM GAS  C:\Users\skipi\AppData\Local\Temp\cc6PZCfi.s 			page 128


 4760 0980 F4EE477A 		vcmp.f32	s15, s14
 4761 0984 F1EE10FA 		vmrs	APSR_nzcv, FPSCR
 4762 0988 77FE277A 		vselgt.f32	s15, s14, s15
 4763              	.LVL399:
 4764              	.L37:
 4765              		.loc 7 78 9 is_stmt 1 view .LVU1355
 4766              	.LBE1219:
 4767              	.LBE1218:
 393:src/PianoB.cpp ****     FilterEnv_Bass.SetSustainLevel(Bass_Filter_ADSR[2]);                                      // Se
 4768              		.loc 10 393 35 is_stmt 0 view .LVU1356
 4769 098c 95ED027A 		vldr.32	s14, [r5, #8]
 4770              	.LBB1223:
 4771              	.LBB1220:
 4772              		.loc 7 78 20 view .LVU1357
 4773 0990 364B     		ldr	r3, .L68+84
 4774              	.LBE1220:
 4775              	.LBE1223:
 4776              	.LBB1224:
 4777              	.LBB1225:
  76:../libs/DaisySP/Source/Control/adsr.h ****                                        : (sus_level > 1.f) ? 1.f : sus_level;
 4778              		.loc 7 76 40 view .LVU1358
 4779 0992 B5EEC07A 		vcmpe.f32	s14, #0
 4780              	.LBE1225:
 4781              	.LBE1224:
 4782              	.LBB1230:
 4783              	.LBB1221:
 4784              		.loc 7 78 20 view .LVU1359
 4785 0996 C3ED007A 		vstr.32	s15, [r3]
 4786              	.LVL400:
 4787              		.loc 7 78 20 view .LVU1360
 4788              	.LBE1221:
 4789              	.LBE1230:
 4790              		.loc 10 393 5 is_stmt 1 view .LVU1361
 4791              	.LBB1231:
 4792              	.LBI1224:
  74:../libs/DaisySP/Source/Control/adsr.h ****     {
 4793              		.loc 7 74 17 view .LVU1362
 4794              	.LBB1226:
  76:../libs/DaisySP/Source/Control/adsr.h ****                                        : (sus_level > 1.f) ? 1.f : sus_level;
 4795              		.loc 7 76 9 view .LVU1363
  76:../libs/DaisySP/Source/Control/adsr.h ****                                        : (sus_level > 1.f) ? 1.f : sus_level;
 4796              		.loc 7 76 40 is_stmt 0 view .LVU1364
 4797 099a F1EE10FA 		vmrs	APSR_nzcv, FPSCR
 4798 099e 40F24881 		bls	.L53
  77:../libs/DaisySP/Source/Control/adsr.h ****         sus_level_ = sus_level;
 4799              		.loc 7 77 60 view .LVU1365
 4800 09a2 F7EE007A 		vmov.f32	s15, #1.0e+0
 4801 09a6 B4EE677A 		vcmp.f32	s14, s15
 4802 09aa F1EE10FA 		vmrs	APSR_nzcv, FPSCR
 4803 09ae 37FE877A 		vselgt.f32	s14, s15, s14
 4804              	.LVL401:
 4805              	.L38:
 4806              		.loc 7 78 9 is_stmt 1 view .LVU1366
 4807              	.LBE1226:
 4808              	.LBE1231:
 394:src/PianoB.cpp ****     FilterEnv_Pad.SetSustainLevel(Pad_Filter_ADSR[2]);                                      // Set 
 4809              		.loc 10 394 34 is_stmt 0 view .LVU1367
ARM GAS  C:\Users\skipi\AppData\Local\Temp\cc6PZCfi.s 			page 129


 4810 09b2 D4ED027A 		vldr.32	s15, [r4, #8]
 4811              	.LBB1232:
 4812              	.LBB1227:
 4813              		.loc 7 78 20 view .LVU1368
 4814 09b6 2E4B     		ldr	r3, .L68+88
 4815              	.LBE1227:
 4816              	.LBE1232:
 4817              	.LBB1233:
 4818              	.LBB1234:
  76:../libs/DaisySP/Source/Control/adsr.h ****                                        : (sus_level > 1.f) ? 1.f : sus_level;
 4819              		.loc 7 76 40 view .LVU1369
 4820 09b8 F5EEC07A 		vcmpe.f32	s15, #0
 4821              	.LBE1234:
 4822              	.LBE1233:
 4823              	.LBB1239:
 4824              	.LBB1228:
 4825              		.loc 7 78 20 view .LVU1370
 4826 09bc 83ED007A 		vstr.32	s14, [r3]
 4827              	.LVL402:
 4828              		.loc 7 78 20 view .LVU1371
 4829              	.LBE1228:
 4830              	.LBE1239:
 4831              		.loc 10 394 5 is_stmt 1 view .LVU1372
 4832              	.LBB1240:
 4833              	.LBI1233:
  74:../libs/DaisySP/Source/Control/adsr.h ****     {
 4834              		.loc 7 74 17 view .LVU1373
 4835              	.LBB1235:
  76:../libs/DaisySP/Source/Control/adsr.h ****                                        : (sus_level > 1.f) ? 1.f : sus_level;
 4836              		.loc 7 76 9 view .LVU1374
  76:../libs/DaisySP/Source/Control/adsr.h ****                                        : (sus_level > 1.f) ? 1.f : sus_level;
 4837              		.loc 7 76 40 is_stmt 0 view .LVU1375
 4838 09c0 F1EE10FA 		vmrs	APSR_nzcv, FPSCR
 4839 09c4 40F23281 		bls	.L55
  77:../libs/DaisySP/Source/Control/adsr.h ****         sus_level_ = sus_level;
 4840              		.loc 7 77 60 view .LVU1376
 4841 09c8 B7EE007A 		vmov.f32	s14, #1.0e+0
 4842 09cc F4EE477A 		vcmp.f32	s15, s14
 4843 09d0 F1EE10FA 		vmrs	APSR_nzcv, FPSCR
 4844 09d4 77FE277A 		vselgt.f32	s15, s14, s15
 4845              	.LVL403:
 4846              	.L39:
 4847              		.loc 7 78 9 is_stmt 1 view .LVU1377
 4848              	.LBE1235:
 4849              	.LBE1240:
 395:src/PianoB.cpp **** 
 396:src/PianoB.cpp ****     FilterEnv_Pluck.SetTime(ADSR_SEG_RELEASE, Pluck_Filter_ADSR[3]);                          // Se
 4850              		.loc 10 396 28 is_stmt 0 view .LVU1378
 4851 09d8 96ED030A 		vldr.32	s0, [r6, #12]
 4852 09dc 0421     		movs	r1, #4
 4853              	.LBB1241:
 4854              	.LBB1236:
 4855              		.loc 7 78 20 view .LVU1379
 4856 09de 274E     		ldr	r6, .L68+100
 4857              	.LBE1236:
 4858              	.LBE1241:
 4859              		.loc 10 396 28 view .LVU1380
ARM GAS  C:\Users\skipi\AppData\Local\Temp\cc6PZCfi.s 			page 130


 4860 09e0 2248     		ldr	r0, .L68+84
 4861              	.LBB1242:
 4862              	.LBB1237:
 4863              		.loc 7 78 20 view .LVU1381
 4864 09e2 C6ED007A 		vstr.32	s15, [r6]
 4865              	.LVL404:
 4866              		.loc 7 78 20 view .LVU1382
 4867              	.LBE1237:
 4868              	.LBE1242:
 4869              		.loc 10 396 5 is_stmt 1 view .LVU1383
 4870              		.loc 10 396 28 is_stmt 0 view .LVU1384
 4871 09e6 FFF7FEFF 		bl	_ZN7daisysp4Adsr7SetTimeEif
 4872              	.LVL405:
 397:src/PianoB.cpp ****     FilterEnv_Bass.SetTime(ADSR_SEG_RELEASE, Bass_Filter_ADSR[3]);                          // Set 
 4873              		.loc 10 397 5 is_stmt 1 view .LVU1385
 4874              		.loc 10 397 27 is_stmt 0 view .LVU1386
 4875 09ea 95ED030A 		vldr.32	s0, [r5, #12]
 4876 09ee 0421     		movs	r1, #4
 4877 09f0 1F48     		ldr	r0, .L68+88
 4878 09f2 FFF7FEFF 		bl	_ZN7daisysp4Adsr7SetTimeEif
 4879              	.LVL406:
 398:src/PianoB.cpp ****     FilterEnv_Pad.SetTime(ADSR_SEG_RELEASE, Pad_Filter_ADSR[3]);                          // Set re
 4880              		.loc 10 398 5 is_stmt 1 view .LVU1387
 4881              		.loc 10 398 26 is_stmt 0 view .LVU1388
 4882 09f6 3046     		mov	r0, r6
 4883 09f8 0421     		movs	r1, #4
 4884 09fa 94ED030A 		vldr.32	s0, [r4, #12]
 4885 09fe FFF7FEFF 		bl	_ZN7daisysp4Adsr7SetTimeEif
 4886              	.LVL407:
 399:src/PianoB.cpp **** //--------
 400:src/PianoB.cpp ****     //delay.Init(hw.AudioSampleRate());                                       // Inizializza il del
 401:src/PianoB.cpp ****     
 402:src/PianoB.cpp ****     //delay.setDelayTime(1000);      // Imposta il tempo di delay
 403:src/PianoB.cpp ****     //delay.setFeedback(0.5f);        // Imposta il feedback
 404:src/PianoB.cpp ****     //delay.setMix(0.5f);                  // Imposta il mix
 405:src/PianoB.cpp ****     //delay.setDepth(0.5f);              // Imposta la profondit del pitch shifter
 406:src/PianoB.cpp ****     
 407:src/PianoB.cpp ****     
 408:src/PianoB.cpp ****     hw.StartAudio(AudioCallback);                                               // Start the audio 
 4887              		.loc 10 408 5 is_stmt 1 view .LVU1389
 4888              		.loc 10 408 18 is_stmt 0 view .LVU1390
 4889 0a02 2049     		ldr	r1, .L68+108
 4890 0a04 0748     		ldr	r0, .L68+12
 4891 0a06 DFF88480 		ldr	r8, .L68+116
 4892 0a0a FFF7FEFF 		bl	_ZN5daisy9DaisySeed10StartAudioEPFvPKPKfPPfjE
 4893              	.LVL408:
 4894              	.L43:
 409:src/PianoB.cpp **** 
 410:src/PianoB.cpp ****     // Infinite loop to keep the program running
 411:src/PianoB.cpp ****     while (1) {
 4895              		.loc 10 411 5 is_stmt 1 view .LVU1391
 4896              	.LBB1243:
 412:src/PianoB.cpp ****         for (int i = 0; i < 8; i++) {
 4897              		.loc 10 412 9 view .LVU1392
 4898              	.LBB1244:
 4899              		.loc 10 412 27 view .LVU1393
 4900 0a0e 1E4D     		ldr	r5, .L68+112
ARM GAS  C:\Users\skipi\AppData\Local\Temp\cc6PZCfi.s 			page 131


 4901              		.loc 10 412 18 is_stmt 0 view .LVU1394
 4902 0a10 0024     		movs	r4, #0
 4903 0a12 1E4E     		ldr	r6, .L68+116
 4904 0a14 54E0     		b	.L42
 4905              	.L69:
 4906 0a16 00BF     		.align	2
 4907              	.L68:
 4908 0a18 00000000 		.word	.LANCHOR41
 4909 0a1c 00000000 		.word	.LANCHOR49
 4910 0a20 00000000 		.word	.LANCHOR46
 4911 0a24 00000000 		.word	.LANCHOR89
 4912 0a28 00000000 		.word	.LANCHOR65
 4913 0a2c 00000000 		.word	.LANCHOR66
 4914 0a30 00000000 		.word	.LANCHOR67
 4915 0a34 00000000 		.word	.LANCHOR68
 4916 0a38 00000000 		.word	.LANCHOR71
 4917 0a3c 00000000 		.word	.LANCHOR72
 4918 0a40 00000000 		.word	.LANCHOR75
 4919 0a44 00000000 		.word	.LANCHOR64
 4920 0a48 00000000 		.word	.LANCHOR76
 4921 0a4c 00000000 		.word	.LANCHOR70
 4922 0a50 00000000 		.word	.LANCHOR74
 4923 0a54 00000000 		.word	.LANCHOR108
 4924 0a58 00000000 		.word	.LANCHOR109
 4925 0a5c 00000000 		.word	.LANCHOR110
 4926 0a60 00000000 		.word	.LANCHOR111
 4927 0a64 00000000 		.word	.LANCHOR112
 4928 0a68 00000000 		.word	.LANCHOR113
 4929 0a6c 00000000 		.word	.LANCHOR52
 4930 0a70 00000000 		.word	.LANCHOR60
 4931 0a74 00000000 		.word	.LANCHOR114
 4932 0a78 00000000 		.word	.LANCHOR115
 4933 0a7c 00000000 		.word	.LANCHOR57
 4934 0a80 00000000 		.word	.LANCHOR116
 4935 0a84 00000000 		.word	_Z13AudioCallbackPKPKfPPfj
 4936 0a88 00000000 		.word	.LANCHOR40
 4937 0a8c 00000000 		.word	.LANCHOR117
 4938              	.LVL409:
 4939              	.L40:
 413:src/PianoB.cpp ****             Gate[i] = mpr121Obj.Touched() & (1 << i) ? true : false; // Get the gate value for each
 4940              		.loc 10 413 21 view .LVU1395
 4941 0a90 2960     		str	r1, [r5]	@ float
 414:src/PianoB.cpp ****             if (Gate[i]) knob[i] = rand()/32767; // Se tocco la pianta i-esima mi aggiorna frequenz
 4942              		.loc 10 414 13 is_stmt 1 view .LVU1396
 4943              		.loc 10 414 26 view .LVU1397
 412:src/PianoB.cpp ****         for (int i = 0; i < 8; i++) {
 4944              		.loc 10 412 9 is_stmt 0 view .LVU1398
 4945 0a92 0134     		adds	r4, r4, #1
 4946              	.LVL410:
 4947              		.loc 10 414 40 view .LVU1399
 4948 0a94 FFF7FEFF 		bl	rand
 4949              	.LVL411:
 4950              		.loc 10 414 42 view .LVU1400
 4951 0a98 6C4A     		ldr	r2, .L70
 4952 0a9a C117     		asrs	r1, r0, #31
 412:src/PianoB.cpp ****         for (int i = 0; i < 8; i++) {
 4953              		.loc 10 412 27 view .LVU1401
ARM GAS  C:\Users\skipi\AppData\Local\Temp\cc6PZCfi.s 			page 132


 4954 0a9c 082C     		cmp	r4, #8
 4955              		.loc 10 414 42 view .LVU1402
 4956 0a9e 82FB0032 		smull	r3, r2, r2, r0
 412:src/PianoB.cpp ****         for (int i = 0; i < 8; i++) {
 4957              		.loc 10 412 27 view .LVU1403
 4958 0aa2 05F10405 		add	r5, r5, #4
 4959 0aa6 06F10406 		add	r6, r6, #4
 4960              		.loc 10 414 42 view .LVU1404
 4961 0aaa 02EB0003 		add	r3, r2, r0
 4962 0aae C1EBA333 		rsb	r3, r1, r3, asr #14
 4963              		.loc 10 414 34 view .LVU1405
 4964 0ab2 07EE903A 		vmov	s15, r3	@ int
 4965 0ab6 F8EEE77A 		vcvt.f32.s32	s15, s15
 4966 0aba 46ED017A 		vstr.32	s15, [r6, #-4]
 412:src/PianoB.cpp ****         for (int i = 0; i < 8; i++) {
 4967              		.loc 10 412 9 is_stmt 1 view .LVU1406
 4968              	.LVL412:
 412:src/PianoB.cpp ****         for (int i = 0; i < 8; i++) {
 4969              		.loc 10 412 27 view .LVU1407
 4970 0abe 35D0     		beq	.L61
 4971              	.LVL413:
 4972              	.L42:
 413:src/PianoB.cpp ****             Gate[i] = mpr121Obj.Touched() & (1 << i) ? true : false; // Get the gate value for each
 4973              		.loc 10 413 13 view .LVU1408
 4974              	.LBB1245:
 4975              	.LBI1245:
 221:../libs/libDaisy/src/dev/mpr121.h ****     {
 4976              		.loc 12 221 14 view .LVU1409
 4977              	.LBB1246:
 4978              	.LBB1247:
 4979              	.LBB1248:
 4980              	.LBB1249:
 4981              	.LBB1250:
  66:../libs/libDaisy/src/dev/mpr121.h ****     }
 4982              		.loc 12 66 40 is_stmt 0 view .LVU1410
 4983 0ac0 0A27     		movs	r7, #10
 4984 0ac2 4FF0000C 		mov	ip, #0
 4985 0ac6 09AA     		add	r2, sp, #36
 4986 0ac8 9DF87810 		ldrb	r1, [sp, #120]	@ zero_extendqisi2
 4987 0acc 0123     		movs	r3, #1
 4988 0ace 19A8     		add	r0, sp, #100
 4989 0ad0 0097     		str	r7, [sp]
 4990 0ad2 8DF824C0 		strb	ip, [sp, #36]
 4991              	.LVL414:
  66:../libs/libDaisy/src/dev/mpr121.h ****     }
 4992              		.loc 12 66 40 view .LVU1411
 4993              	.LBE1250:
 4994              	.LBE1249:
 4995              	.LBE1248:
 4996              	.LBI1247:
 244:../libs/libDaisy/src/dev/mpr121.h ****     {
 4997              		.loc 12 244 14 is_stmt 1 view .LVU1412
 4998              	.LBB1272:
 4999              	.LBB1252:
 5000              	.LBI1249:
  63:../libs/libDaisy/src/dev/mpr121.h ****     {
 5001              		.loc 12 63 10 view .LVU1413
ARM GAS  C:\Users\skipi\AppData\Local\Temp\cc6PZCfi.s 			page 133


 5002              	.LBB1251:
  65:../libs/libDaisy/src/dev/mpr121.h ****                != i2c_.TransmitBlocking(config_.dev_addr, data, size, 10);
 5003              		.loc 12 65 9 view .LVU1414
  66:../libs/libDaisy/src/dev/mpr121.h ****     }
 5004              		.loc 12 66 40 is_stmt 0 view .LVU1415
 5005 0ad6 FFF7FEFF 		bl	_ZN5daisy9I2CHandle16TransmitBlockingEtPhtm
 5006              	.LVL415:
  66:../libs/libDaisy/src/dev/mpr121.h ****     }
 5007              		.loc 12 66 40 view .LVU1416
 5008              	.LBE1251:
 5009              	.LBE1252:
 5010              	.LBB1253:
 5011              	.LBI1253:
 343:../libs/libDaisy/src/dev/mpr121.h **** 
 5012              		.loc 12 343 10 is_stmt 1 view .LVU1417
 5013              	.LBB1254:
 343:../libs/libDaisy/src/dev/mpr121.h **** 
 5014              		.loc 12 343 55 is_stmt 0 view .LVU1418
 5015 0ada 9DF87CC0 		ldrb	ip, [sp, #124]	@ zero_extendqisi2
 5016              	.LBE1254:
 5017              	.LBE1253:
 5018              	.LBB1257:
 5019              	.LBB1258:
  73:../libs/libDaisy/src/dev/mpr121.h ****     }
 5020              		.loc 12 73 39 view .LVU1419
 5021 0ade 0223     		movs	r3, #2
 5022 0ae0 0EAA     		add	r2, sp, #56
 5023 0ae2 9DF87810 		ldrb	r1, [sp, #120]	@ zero_extendqisi2
 5024              	.LBE1258:
 5025              	.LBE1257:
 5026              	.LBB1261:
 5027              	.LBB1255:
 343:../libs/libDaisy/src/dev/mpr121.h **** 
 5028              		.loc 12 343 55 view .LVU1420
 5029 0ae6 0028     		cmp	r0, #0
 5030 0ae8 18BF     		it	ne
 5031 0aea 4CF0010C 		orrne	ip, ip, #1
 5032              	.LBE1255:
 5033              	.LBE1261:
 5034              	.LBB1262:
 5035              	.LBB1259:
  73:../libs/libDaisy/src/dev/mpr121.h ****     }
 5036              		.loc 12 73 39 view .LVU1421
 5037 0aee 0097     		str	r7, [sp]
 5038 0af0 19A8     		add	r0, sp, #100
 5039              	.LVL416:
  73:../libs/libDaisy/src/dev/mpr121.h ****     }
 5040              		.loc 12 73 39 view .LVU1422
 5041              	.LBE1259:
 5042              	.LBE1262:
 5043              	.LBB1263:
 5044              	.LBB1256:
 343:../libs/libDaisy/src/dev/mpr121.h **** 
 5045              		.loc 12 343 55 view .LVU1423
 5046 0af2 8DF87CC0 		strb	ip, [sp, #124]
 5047              	.LVL417:
 343:../libs/libDaisy/src/dev/mpr121.h **** 
ARM GAS  C:\Users\skipi\AppData\Local\Temp\cc6PZCfi.s 			page 134


 5048              		.loc 12 343 55 view .LVU1424
 5049              	.LBE1256:
 5050              	.LBE1263:
 5051              	.LBB1264:
 5052              	.LBI1257:
  70:../libs/libDaisy/src/dev/mpr121.h ****     {
 5053              		.loc 12 70 10 is_stmt 1 view .LVU1425
 5054              	.LBB1260:
  72:../libs/libDaisy/src/dev/mpr121.h ****                != i2c_.ReceiveBlocking(config_.dev_addr, data, size, 10);
 5055              		.loc 12 72 9 view .LVU1426
  73:../libs/libDaisy/src/dev/mpr121.h ****     }
 5056              		.loc 12 73 39 is_stmt 0 view .LVU1427
 5057 0af6 FFF7FEFF 		bl	_ZN5daisy9I2CHandle15ReceiveBlockingEtPhtm
 5058              	.LVL418:
  73:../libs/libDaisy/src/dev/mpr121.h ****     }
 5059              		.loc 12 73 39 view .LVU1428
 5060              	.LBE1260:
 5061              	.LBE1264:
 5062              	.LBB1265:
 5063              	.LBI1265:
 343:../libs/libDaisy/src/dev/mpr121.h **** 
 5064              		.loc 12 343 10 is_stmt 1 view .LVU1429
 5065              	.LBE1265:
 250:../libs/libDaisy/src/dev/mpr121.h ****     }
 5066              		.loc 12 250 16 is_stmt 0 view .LVU1430
 5067 0afa BDF83830 		ldrh	r3, [sp, #56]
 5068              	.LBE1272:
 5069              	.LBE1247:
 5070              	.LBE1246:
 5071              	.LBE1245:
 413:src/PianoB.cpp ****             if (Gate[i]) knob[i] = rand()/32767; // Se tocco la pianta i-esima mi aggiorna frequenz
 5072              		.loc 10 413 21 view .LVU1431
 5073 0afe 4FF07E51 		mov	r1, #1065353216
 5074              	.LBB1282:
 5075              	.LBB1279:
 5076              	.LBB1276:
 5077              	.LBB1273:
 5078              	.LBB1269:
 5079              	.LBB1266:
 343:../libs/libDaisy/src/dev/mpr121.h **** 
 5080              		.loc 12 343 55 view .LVU1432
 5081 0b02 9DF87C20 		ldrb	r2, [sp, #124]	@ zero_extendqisi2
 5082              	.LBE1266:
 5083              	.LBE1269:
 5084              	.LBE1273:
 5085              	.LBE1276:
 5086              	.LBE1279:
 5087              	.LBE1282:
 413:src/PianoB.cpp ****             if (Gate[i]) knob[i] = rand()/32767; // Se tocco la pianta i-esima mi aggiorna frequenz
 5088              		.loc 10 413 40 view .LVU1433
 5089 0b06 C3F30B03 		ubfx	r3, r3, #0, #12
 5090              	.LBB1283:
 5091              	.LBB1280:
 5092              	.LBB1277:
 5093              	.LBB1274:
 5094              	.LBB1270:
 5095              	.LBB1267:
ARM GAS  C:\Users\skipi\AppData\Local\Temp\cc6PZCfi.s 			page 135


 343:../libs/libDaisy/src/dev/mpr121.h **** 
 5096              		.loc 12 343 55 view .LVU1434
 5097 0b0a 0028     		cmp	r0, #0
 5098 0b0c 18BF     		it	ne
 5099 0b0e 42F00102 		orrne	r2, r2, #1
 5100              	.LBE1267:
 5101              	.LBE1270:
 5102              	.LBE1274:
 5103              	.LBE1277:
 5104              	.LBE1280:
 5105              	.LBE1283:
 413:src/PianoB.cpp ****             if (Gate[i]) knob[i] = rand()/32767; // Se tocco la pianta i-esima mi aggiorna frequenz
 5106              		.loc 10 413 43 view .LVU1435
 5107 0b12 2341     		asrs	r3, r3, r4
 5108              	.LBB1284:
 5109              	.LBB1281:
 5110              	.LBB1278:
 5111              	.LBB1275:
 5112              	.LBB1271:
 5113              	.LBB1268:
 343:../libs/libDaisy/src/dev/mpr121.h **** 
 5114              		.loc 12 343 55 view .LVU1436
 5115 0b14 8DF87C20 		strb	r2, [sp, #124]
 5116              	.LVL419:
 343:../libs/libDaisy/src/dev/mpr121.h **** 
 5117              		.loc 12 343 55 view .LVU1437
 5118              	.LBE1268:
 5119              	.LBE1271:
 5120              	.LBE1275:
 5121              	.LBE1278:
 5122              	.LBE1281:
 5123              	.LBE1284:
 413:src/PianoB.cpp ****             if (Gate[i]) knob[i] = rand()/32767; // Se tocco la pianta i-esima mi aggiorna frequenz
 5124              		.loc 10 413 21 view .LVU1438
 5125 0b18 DB07     		lsls	r3, r3, #31
 5126 0b1a B9D4     		bmi	.L40
 412:src/PianoB.cpp ****             Gate[i] = mpr121Obj.Touched() & (1 << i) ? true : false; // Get the gate value for each
 5127              		.loc 10 412 9 view .LVU1439
 5128 0b1c 0134     		adds	r4, r4, #1
 5129              	.LVL420:
 413:src/PianoB.cpp ****             if (Gate[i]) knob[i] = rand()/32767; // Se tocco la pianta i-esima mi aggiorna frequenz
 5130              		.loc 10 413 21 view .LVU1440
 5131 0b1e 0023     		movs	r3, #0
 412:src/PianoB.cpp ****             Gate[i] = mpr121Obj.Touched() & (1 << i) ? true : false; // Get the gate value for each
 5132              		.loc 10 412 27 view .LVU1441
 5133 0b20 0435     		adds	r5, r5, #4
 5134 0b22 0436     		adds	r6, r6, #4
 5135 0b24 082C     		cmp	r4, #8
 413:src/PianoB.cpp ****             if (Gate[i]) knob[i] = rand()/32767; // Se tocco la pianta i-esima mi aggiorna frequenz
 5136              		.loc 10 413 21 view .LVU1442
 5137 0b26 45F8043C 		str	r3, [r5, #-4]	@ float
 5138              		.loc 10 414 13 is_stmt 1 view .LVU1443
 412:src/PianoB.cpp ****             Gate[i] = mpr121Obj.Touched() & (1 << i) ? true : false; // Get the gate value for each
 5139              		.loc 10 412 9 view .LVU1444
 5140              	.LVL421:
 412:src/PianoB.cpp ****             Gate[i] = mpr121Obj.Touched() & (1 << i) ? true : false; // Get the gate value for each
 5141              		.loc 10 412 27 view .LVU1445
ARM GAS  C:\Users\skipi\AppData\Local\Temp\cc6PZCfi.s 			page 136


 5142 0b2a C9D1     		bne	.L42
 5143              	.L61:
 412:src/PianoB.cpp ****             Gate[i] = mpr121Obj.Touched() & (1 << i) ? true : false; // Get the gate value for each
 5144              		.loc 10 412 27 is_stmt 0 view .LVU1446
 5145              	.LBE1244:
 415:src/PianoB.cpp ****         }
 416:src/PianoB.cpp ****         
 417:src/PianoB.cpp ****         
 418:src/PianoB.cpp **** 
 419:src/PianoB.cpp ****         now_f_lfo_Pluck1 = knob[0]*f_lfo_Pluck; // Frequency of LFO for Pluck
 5146              		.loc 10 419 9 is_stmt 1 view .LVU1447
 420:src/PianoB.cpp ****         now_f_lfo_Pluck2 = knob[1]*f_lfo_Pluck; 
 421:src/PianoB.cpp ****         now_f_lfo_Pluck3 = knob[2]*f_lfo_Pluck; 
 422:src/PianoB.cpp ****         now_f_lfo_Pluck4 = knob[3]*f_lfo_Pluck; 
 423:src/PianoB.cpp ****         now_f_lfo_Bass1 = knob[4]*f_lfo_Pad; // Frequency of LFO for Pad
 424:src/PianoB.cpp ****         now_f_lfo_Bass2 = knob[5]*f_lfo_Pad; 
 425:src/PianoB.cpp ****         now_f_lfo_Pad1 = knob[6]*f_lfo_Bass;  // Frequency of LFO for Bass
 426:src/PianoB.cpp ****         now_f_lfo_Pad2 = knob[7]*f_lfo_Bass; 
 427:src/PianoB.cpp **** 
 428:src/PianoB.cpp **** 
 429:src/PianoB.cpp ****         now_f_Pluck1 = f_Pluck+ knob[0]*f_Pluck; // Frequency of Pluck
 5147              		.loc 10 429 40 is_stmt 0 view .LVU1448
 5148 0b2c D9ED007A 		vldr.32	s15, [r9]
 430:src/PianoB.cpp ****         now_f_Pluck2 = f_Pluck+ knob[1]*f_Pluck; 
 431:src/PianoB.cpp ****         now_f_Pluck3 = f_Pluck+ knob[2]*f_Pluck; 
 432:src/PianoB.cpp ****         now_f_Pluck4 = f_Pluck+ knob[3]*f_Pluck; 
 433:src/PianoB.cpp ****         now_f_Pad1 = f_Pad+ knob[4]*f_Pad; // Frequency of Pad
 434:src/PianoB.cpp ****         now_f_Pad2 = f_Pad+ knob[5]*f_Pad; 
 435:src/PianoB.cpp ****         now_f_Bass1 = f_Bass+ knob[6]*f_Bass; // Frequency of Bass
 436:src/PianoB.cpp ****         now_f_Bass2 = f_Bass+ knob[7]*f_Bass; 
 437:src/PianoB.cpp **** 
 438:src/PianoB.cpp **** 
 439:src/PianoB.cpp ****         // Wait 1ms to reduce CPU usage
 440:src/PianoB.cpp ****         System::Delay(1);
 5149              		.loc 10 440 22 view .LVU1449
 5150 0b30 0120     		movs	r0, #1
 433:src/PianoB.cpp ****         now_f_Pad2 = f_Pad+ knob[5]*f_Pad; 
 5151              		.loc 10 433 36 view .LVU1450
 5152 0b32 474B     		ldr	r3, .L70+4
 429:src/PianoB.cpp ****         now_f_Pluck2 = f_Pluck+ knob[1]*f_Pluck; 
 5153              		.loc 10 429 31 view .LVU1451
 5154 0b34 B0EE679A 		vmov.f32	s18, s15
 419:src/PianoB.cpp ****         now_f_lfo_Pluck2 = knob[1]*f_lfo_Pluck; 
 5155              		.loc 10 419 35 view .LVU1452
 5156 0b38 9AED006A 		vldr.32	s12, [r10]
 433:src/PianoB.cpp ****         now_f_Pad2 = f_Pad+ knob[5]*f_Pad; 
 5157              		.loc 10 433 36 view .LVU1453
 5158 0b3c D3ED006A 		vldr.32	s13, [r3]
 430:src/PianoB.cpp ****         now_f_Pluck3 = f_Pluck+ knob[2]*f_Pluck; 
 5159              		.loc 10 430 31 view .LVU1454
 5160 0b40 F0EE678A 		vmov.f32	s17, s15
 435:src/PianoB.cpp ****         now_f_Bass2 = f_Bass+ knob[7]*f_Bass; 
 5161              		.loc 10 435 38 view .LVU1455
 5162 0b44 434B     		ldr	r3, .L70+8
 431:src/PianoB.cpp ****         now_f_Pluck4 = f_Pluck+ knob[3]*f_Pluck; 
 5163              		.loc 10 431 31 view .LVU1456
 5164 0b46 B0EE678A 		vmov.f32	s16, s15
ARM GAS  C:\Users\skipi\AppData\Local\Temp\cc6PZCfi.s 			page 137


 419:src/PianoB.cpp ****         now_f_lfo_Pluck2 = knob[1]*f_lfo_Pluck; 
 5165              		.loc 10 419 34 view .LVU1457
 5166 0b4a D8ED002A 		vldr.32	s5, [r8]
 433:src/PianoB.cpp ****         now_f_Pad2 = f_Pad+ knob[5]*f_Pad; 
 5167              		.loc 10 433 27 view .LVU1458
 5168 0b4e B0EE660A 		vmov.f32	s0, s13
 435:src/PianoB.cpp ****         now_f_Bass2 = f_Bass+ knob[7]*f_Bass; 
 5169              		.loc 10 435 38 view .LVU1459
 5170 0b52 93ED007A 		vldr.32	s14, [r3]
 425:src/PianoB.cpp ****         now_f_lfo_Pad2 = knob[7]*f_lfo_Bass; 
 5171              		.loc 10 425 33 view .LVU1460
 5172 0b56 404B     		ldr	r3, .L70+12
 429:src/PianoB.cpp ****         now_f_Pluck2 = f_Pluck+ knob[1]*f_Pluck; 
 5173              		.loc 10 429 31 view .LVU1461
 5174 0b58 A2EEA79A 		vfma.f32	s18, s5, s15
 420:src/PianoB.cpp ****         now_f_lfo_Pluck3 = knob[2]*f_lfo_Pluck; 
 5175              		.loc 10 420 34 view .LVU1462
 5176 0b5c 98ED013A 		vldr.32	s6, [r8, #4]
 419:src/PianoB.cpp ****         now_f_lfo_Pluck2 = knob[1]*f_lfo_Pluck; 
 5177              		.loc 10 419 35 view .LVU1463
 5178 0b60 62EE862A 		vmul.f32	s5, s5, s12
 425:src/PianoB.cpp ****         now_f_lfo_Pad2 = knob[7]*f_lfo_Bass; 
 5179              		.loc 10 425 33 view .LVU1464
 5180 0b64 D3ED005A 		vldr.32	s11, [r3]
 435:src/PianoB.cpp ****         now_f_Bass2 = f_Bass+ knob[7]*f_Bass; 
 5181              		.loc 10 435 29 view .LVU1465
 5182 0b68 F0EE470A 		vmov.f32	s1, s14
 419:src/PianoB.cpp ****         now_f_lfo_Pluck2 = knob[1]*f_lfo_Pluck; 
 5183              		.loc 10 419 26 view .LVU1466
 5184 0b6c 3B4B     		ldr	r3, .L70+16
 430:src/PianoB.cpp ****         now_f_Pluck3 = f_Pluck+ knob[2]*f_Pluck; 
 5185              		.loc 10 430 31 view .LVU1467
 5186 0b6e E3EE278A 		vfma.f32	s17, s6, s15
 421:src/PianoB.cpp ****         now_f_lfo_Pluck4 = knob[3]*f_lfo_Pluck; 
 5187              		.loc 10 421 34 view .LVU1468
 5188 0b72 D8ED023A 		vldr.32	s7, [r8, #8]
 420:src/PianoB.cpp ****         now_f_lfo_Pluck3 = knob[2]*f_lfo_Pluck; 
 5189              		.loc 10 420 35 view .LVU1469
 5190 0b76 26EE033A 		vmul.f32	s6, s12, s6
 419:src/PianoB.cpp ****         now_f_lfo_Pluck2 = knob[1]*f_lfo_Pluck; 
 5191              		.loc 10 419 26 view .LVU1470
 5192 0b7a C3ED002A 		vstr.32	s5, [r3]
 420:src/PianoB.cpp ****         now_f_lfo_Pluck3 = knob[2]*f_lfo_Pluck; 
 5193              		.loc 10 420 9 is_stmt 1 view .LVU1471
 420:src/PianoB.cpp ****         now_f_lfo_Pluck3 = knob[2]*f_lfo_Pluck; 
 5194              		.loc 10 420 26 is_stmt 0 view .LVU1472
 5195 0b7e 384B     		ldr	r3, .L70+20
 431:src/PianoB.cpp ****         now_f_Pluck4 = f_Pluck+ knob[3]*f_Pluck; 
 5196              		.loc 10 431 31 view .LVU1473
 5197 0b80 A3EEA78A 		vfma.f32	s16, s7, s15
 422:src/PianoB.cpp ****         now_f_lfo_Bass1 = knob[4]*f_lfo_Pad; // Frequency of LFO for Pad
 5198              		.loc 10 422 34 view .LVU1474
 5199 0b84 98ED031A 		vldr.32	s2, [r8, #12]
 421:src/PianoB.cpp ****         now_f_lfo_Pluck4 = knob[3]*f_lfo_Pluck; 
 5200              		.loc 10 421 35 view .LVU1475
 5201 0b88 66EE233A 		vmul.f32	s7, s12, s7
 420:src/PianoB.cpp ****         now_f_lfo_Pluck3 = knob[2]*f_lfo_Pluck; 
ARM GAS  C:\Users\skipi\AppData\Local\Temp\cc6PZCfi.s 			page 138


 5202              		.loc 10 420 26 view .LVU1476
 5203 0b8c 83ED003A 		vstr.32	s6, [r3]
 421:src/PianoB.cpp ****         now_f_lfo_Pluck4 = knob[3]*f_lfo_Pluck; 
 5204              		.loc 10 421 9 is_stmt 1 view .LVU1477
 421:src/PianoB.cpp ****         now_f_lfo_Pluck4 = knob[3]*f_lfo_Pluck; 
 5205              		.loc 10 421 26 is_stmt 0 view .LVU1478
 5206 0b90 344B     		ldr	r3, .L70+24
 422:src/PianoB.cpp ****         now_f_lfo_Bass1 = knob[4]*f_lfo_Pad; // Frequency of LFO for Pad
 5207              		.loc 10 422 35 view .LVU1479
 5208 0b92 26EE016A 		vmul.f32	s12, s12, s2
 423:src/PianoB.cpp ****         now_f_lfo_Bass2 = knob[5]*f_lfo_Pad; 
 5209              		.loc 10 423 33 view .LVU1480
 5210 0b96 98ED044A 		vldr.32	s8, [r8, #16]
 432:src/PianoB.cpp ****         now_f_Pad1 = f_Pad+ knob[4]*f_Pad; // Frequency of Pad
 5211              		.loc 10 432 31 view .LVU1481
 5212 0b9a E1EE277A 		vfma.f32	s15, s2, s15
 423:src/PianoB.cpp ****         now_f_lfo_Bass2 = knob[5]*f_lfo_Pad; 
 5213              		.loc 10 423 34 view .LVU1482
 5214 0b9e DBED004A 		vldr.32	s9, [fp]
 421:src/PianoB.cpp ****         now_f_lfo_Pluck4 = knob[3]*f_lfo_Pluck; 
 5215              		.loc 10 421 26 view .LVU1483
 5216 0ba2 C3ED003A 		vstr.32	s7, [r3]
 422:src/PianoB.cpp ****         now_f_lfo_Bass1 = knob[4]*f_lfo_Pad; // Frequency of LFO for Pad
 5217              		.loc 10 422 9 is_stmt 1 view .LVU1484
 433:src/PianoB.cpp ****         now_f_Pad2 = f_Pad+ knob[5]*f_Pad; 
 5218              		.loc 10 433 27 is_stmt 0 view .LVU1485
 5219 0ba6 A4EE260A 		vfma.f32	s0, s8, s13
 422:src/PianoB.cpp ****         now_f_lfo_Bass1 = knob[4]*f_lfo_Pad; // Frequency of LFO for Pad
 5220              		.loc 10 422 26 view .LVU1486
 5221 0baa 2F4B     		ldr	r3, .L70+28
 423:src/PianoB.cpp ****         now_f_lfo_Bass2 = knob[5]*f_lfo_Pad; 
 5222              		.loc 10 423 34 view .LVU1487
 5223 0bac 24EE244A 		vmul.f32	s8, s8, s9
 424:src/PianoB.cpp ****         now_f_lfo_Pad1 = knob[6]*f_lfo_Bass;  // Frequency of LFO for Bass
 5224              		.loc 10 424 33 view .LVU1488
 5225 0bb0 D8ED051A 		vldr.32	s3, [r8, #20]
 422:src/PianoB.cpp ****         now_f_lfo_Bass1 = knob[4]*f_lfo_Pad; // Frequency of LFO for Pad
 5226              		.loc 10 422 26 view .LVU1489
 5227 0bb4 83ED006A 		vstr.32	s12, [r3]
 423:src/PianoB.cpp ****         now_f_lfo_Bass2 = knob[5]*f_lfo_Pad; 
 5228              		.loc 10 423 9 is_stmt 1 view .LVU1490
 423:src/PianoB.cpp ****         now_f_lfo_Bass2 = knob[5]*f_lfo_Pad; 
 5229              		.loc 10 423 25 is_stmt 0 view .LVU1491
 5230 0bb8 2C4B     		ldr	r3, .L70+32
 424:src/PianoB.cpp ****         now_f_lfo_Pad1 = knob[6]*f_lfo_Bass;  // Frequency of LFO for Bass
 5231              		.loc 10 424 34 view .LVU1492
 5232 0bba 64EEA14A 		vmul.f32	s9, s9, s3
 425:src/PianoB.cpp ****         now_f_lfo_Pad2 = knob[7]*f_lfo_Bass; 
 5233              		.loc 10 425 32 view .LVU1493
 5234 0bbe 98ED065A 		vldr.32	s10, [r8, #24]
 434:src/PianoB.cpp ****         now_f_Bass1 = f_Bass+ knob[6]*f_Bass; // Frequency of Bass
 5235              		.loc 10 434 27 view .LVU1494
 5236 0bc2 E1EEA66A 		vfma.f32	s13, s3, s13
 423:src/PianoB.cpp ****         now_f_lfo_Bass2 = knob[5]*f_lfo_Pad; 
 5237              		.loc 10 423 25 view .LVU1495
 5238 0bc6 83ED004A 		vstr.32	s8, [r3]
 424:src/PianoB.cpp ****         now_f_lfo_Pad1 = knob[6]*f_lfo_Bass;  // Frequency of LFO for Bass
ARM GAS  C:\Users\skipi\AppData\Local\Temp\cc6PZCfi.s 			page 139


 5239              		.loc 10 424 9 is_stmt 1 view .LVU1496
 424:src/PianoB.cpp ****         now_f_lfo_Pad1 = knob[6]*f_lfo_Bass;  // Frequency of LFO for Bass
 5240              		.loc 10 424 25 is_stmt 0 view .LVU1497
 5241 0bca 294B     		ldr	r3, .L70+36
 435:src/PianoB.cpp ****         now_f_Bass2 = f_Bass+ knob[7]*f_Bass; 
 5242              		.loc 10 435 29 view .LVU1498
 5243 0bcc E5EE070A 		vfma.f32	s1, s10, s14
 426:src/PianoB.cpp **** 
 5244              		.loc 10 426 32 view .LVU1499
 5245 0bd0 98ED072A 		vldr.32	s4, [r8, #28]
 425:src/PianoB.cpp ****         now_f_lfo_Pad2 = knob[7]*f_lfo_Bass; 
 5246              		.loc 10 425 33 view .LVU1500
 5247 0bd4 25EE255A 		vmul.f32	s10, s10, s11
 424:src/PianoB.cpp ****         now_f_lfo_Pad1 = knob[6]*f_lfo_Bass;  // Frequency of LFO for Bass
 5248              		.loc 10 424 25 view .LVU1501
 5249 0bd8 C3ED004A 		vstr.32	s9, [r3]
 425:src/PianoB.cpp ****         now_f_lfo_Pad2 = knob[7]*f_lfo_Bass; 
 5250              		.loc 10 425 9 is_stmt 1 view .LVU1502
 425:src/PianoB.cpp ****         now_f_lfo_Pad2 = knob[7]*f_lfo_Bass; 
 5251              		.loc 10 425 24 is_stmt 0 view .LVU1503
 5252 0bdc 254B     		ldr	r3, .L70+40
 426:src/PianoB.cpp **** 
 5253              		.loc 10 426 33 view .LVU1504
 5254 0bde 65EE825A 		vmul.f32	s11, s11, s4
 436:src/PianoB.cpp **** 
 5255              		.loc 10 436 29 view .LVU1505
 5256 0be2 A2EE077A 		vfma.f32	s14, s4, s14
 425:src/PianoB.cpp ****         now_f_lfo_Pad2 = knob[7]*f_lfo_Bass; 
 5257              		.loc 10 425 24 view .LVU1506
 5258 0be6 83ED005A 		vstr.32	s10, [r3]
 426:src/PianoB.cpp **** 
 5259              		.loc 10 426 9 is_stmt 1 view .LVU1507
 426:src/PianoB.cpp **** 
 5260              		.loc 10 426 24 is_stmt 0 view .LVU1508
 5261 0bea 234B     		ldr	r3, .L70+44
 5262 0bec C3ED005A 		vstr.32	s11, [r3]
 429:src/PianoB.cpp ****         now_f_Pluck2 = f_Pluck+ knob[1]*f_Pluck; 
 5263              		.loc 10 429 9 is_stmt 1 view .LVU1509
 429:src/PianoB.cpp ****         now_f_Pluck2 = f_Pluck+ knob[1]*f_Pluck; 
 5264              		.loc 10 429 22 is_stmt 0 view .LVU1510
 5265 0bf0 224B     		ldr	r3, .L70+48
 5266 0bf2 83ED009A 		vstr.32	s18, [r3]
 430:src/PianoB.cpp ****         now_f_Pluck3 = f_Pluck+ knob[2]*f_Pluck; 
 5267              		.loc 10 430 9 is_stmt 1 view .LVU1511
 430:src/PianoB.cpp ****         now_f_Pluck3 = f_Pluck+ knob[2]*f_Pluck; 
 5268              		.loc 10 430 22 is_stmt 0 view .LVU1512
 5269 0bf6 224B     		ldr	r3, .L70+52
 5270 0bf8 C3ED008A 		vstr.32	s17, [r3]
 431:src/PianoB.cpp ****         now_f_Pluck4 = f_Pluck+ knob[3]*f_Pluck; 
 5271              		.loc 10 431 9 is_stmt 1 view .LVU1513
 431:src/PianoB.cpp ****         now_f_Pluck4 = f_Pluck+ knob[3]*f_Pluck; 
 5272              		.loc 10 431 22 is_stmt 0 view .LVU1514
 5273 0bfc 214B     		ldr	r3, .L70+56
 5274 0bfe 83ED008A 		vstr.32	s16, [r3]
 432:src/PianoB.cpp ****         now_f_Pad1 = f_Pad+ knob[4]*f_Pad; // Frequency of Pad
 5275              		.loc 10 432 9 is_stmt 1 view .LVU1515
 432:src/PianoB.cpp ****         now_f_Pad1 = f_Pad+ knob[4]*f_Pad; // Frequency of Pad
ARM GAS  C:\Users\skipi\AppData\Local\Temp\cc6PZCfi.s 			page 140


 5276              		.loc 10 432 22 is_stmt 0 view .LVU1516
 5277 0c02 214B     		ldr	r3, .L70+60
 5278 0c04 C3ED007A 		vstr.32	s15, [r3]
 433:src/PianoB.cpp ****         now_f_Pad2 = f_Pad+ knob[5]*f_Pad; 
 5279              		.loc 10 433 9 is_stmt 1 view .LVU1517
 433:src/PianoB.cpp ****         now_f_Pad2 = f_Pad+ knob[5]*f_Pad; 
 5280              		.loc 10 433 20 is_stmt 0 view .LVU1518
 5281 0c08 204B     		ldr	r3, .L70+64
 5282 0c0a 83ED000A 		vstr.32	s0, [r3]
 434:src/PianoB.cpp ****         now_f_Bass1 = f_Bass+ knob[6]*f_Bass; // Frequency of Bass
 5283              		.loc 10 434 9 is_stmt 1 view .LVU1519
 434:src/PianoB.cpp ****         now_f_Bass1 = f_Bass+ knob[6]*f_Bass; // Frequency of Bass
 5284              		.loc 10 434 20 is_stmt 0 view .LVU1520
 5285 0c0e 204B     		ldr	r3, .L70+68
 5286 0c10 C3ED006A 		vstr.32	s13, [r3]
 435:src/PianoB.cpp ****         now_f_Bass2 = f_Bass+ knob[7]*f_Bass; 
 5287              		.loc 10 435 9 is_stmt 1 view .LVU1521
 435:src/PianoB.cpp ****         now_f_Bass2 = f_Bass+ knob[7]*f_Bass; 
 5288              		.loc 10 435 21 is_stmt 0 view .LVU1522
 5289 0c14 1F4B     		ldr	r3, .L70+72
 5290 0c16 C3ED000A 		vstr.32	s1, [r3]
 436:src/PianoB.cpp **** 
 5291              		.loc 10 436 9 is_stmt 1 view .LVU1523
 436:src/PianoB.cpp **** 
 5292              		.loc 10 436 21 is_stmt 0 view .LVU1524
 5293 0c1a 1F4B     		ldr	r3, .L70+76
 5294 0c1c 83ED007A 		vstr.32	s14, [r3]
 5295              		.loc 10 440 9 is_stmt 1 view .LVU1525
 5296              		.loc 10 440 22 is_stmt 0 view .LVU1526
 5297 0c20 FFF7FEFF 		bl	_ZN5daisy6System5DelayEm
 5298              	.LVL422:
 5299              	.LBE1243:
 411:src/PianoB.cpp ****         for (int i = 0; i < 8; i++) {
 5300              		.loc 10 411 5 is_stmt 1 view .LVU1527
 441:src/PianoB.cpp ****     }
 5301              		.loc 10 441 5 is_stmt 0 view .LVU1528
 5302 0c24 F3E6     		b	.L43
 5303              	.LVL423:
 5304              	.L45:
 5305              	.LBB1285:
 5306              	.LBB1197:
  76:../libs/DaisySP/Source/Control/adsr.h ****                                        : (sus_level > 1.f) ? 1.f : sus_level;
 5307              		.loc 7 76 40 view .LVU1529
 5308 0c26 DFED1D7A 		vldr.32	s15, .L70+80
 5309              	.LVL424:
  76:../libs/DaisySP/Source/Control/adsr.h ****                                        : (sus_level > 1.f) ? 1.f : sus_level;
 5310              		.loc 7 76 40 view .LVU1530
 5311 0c2a 81E5     		b	.L34
 5312              	.LVL425:
 5313              	.L55:
  76:../libs/DaisySP/Source/Control/adsr.h ****                                        : (sus_level > 1.f) ? 1.f : sus_level;
 5314              		.loc 7 76 40 view .LVU1531
 5315              	.LBE1197:
 5316              	.LBE1285:
 5317              	.LBB1286:
 5318              	.LBB1238:
 5319 0c2c DFED1B7A 		vldr.32	s15, .L70+80
ARM GAS  C:\Users\skipi\AppData\Local\Temp\cc6PZCfi.s 			page 141


 5320              	.LVL426:
  76:../libs/DaisySP/Source/Control/adsr.h ****                                        : (sus_level > 1.f) ? 1.f : sus_level;
 5321              		.loc 7 76 40 view .LVU1532
 5322 0c30 D2E6     		b	.L39
 5323              	.LVL427:
 5324              	.L53:
  76:../libs/DaisySP/Source/Control/adsr.h ****                                        : (sus_level > 1.f) ? 1.f : sus_level;
 5325              		.loc 7 76 40 view .LVU1533
 5326              	.LBE1238:
 5327              	.LBE1286:
 5328              	.LBB1287:
 5329              	.LBB1229:
 5330 0c32 9FED1A7A 		vldr.32	s14, .L70+80
 5331              	.LVL428:
  76:../libs/DaisySP/Source/Control/adsr.h ****                                        : (sus_level > 1.f) ? 1.f : sus_level;
 5332              		.loc 7 76 40 view .LVU1534
 5333 0c36 BCE6     		b	.L38
 5334              	.LVL429:
 5335              	.L51:
  76:../libs/DaisySP/Source/Control/adsr.h ****                                        : (sus_level > 1.f) ? 1.f : sus_level;
 5336              		.loc 7 76 40 view .LVU1535
 5337              	.LBE1229:
 5338              	.LBE1287:
 5339              	.LBB1288:
 5340              	.LBB1222:
 5341 0c38 DFED187A 		vldr.32	s15, .L70+80
 5342              	.LVL430:
  76:../libs/DaisySP/Source/Control/adsr.h ****                                        : (sus_level > 1.f) ? 1.f : sus_level;
 5343              		.loc 7 76 40 view .LVU1536
 5344 0c3c A6E6     		b	.L37
 5345              	.LVL431:
 5346              	.L49:
  76:../libs/DaisySP/Source/Control/adsr.h ****                                        : (sus_level > 1.f) ? 1.f : sus_level;
 5347              		.loc 7 76 40 view .LVU1537
 5348              	.LBE1222:
 5349              	.LBE1288:
 5350              	.LBB1289:
 5351              	.LBB1213:
 5352 0c3e DFED177A 		vldr.32	s15, .L70+80
 5353              	.LVL432:
  76:../libs/DaisySP/Source/Control/adsr.h ****                                        : (sus_level > 1.f) ? 1.f : sus_level;
 5354              		.loc 7 76 40 view .LVU1538
 5355 0c42 9BE5     		b	.L36
 5356              	.LVL433:
 5357              	.L47:
  76:../libs/DaisySP/Source/Control/adsr.h ****                                        : (sus_level > 1.f) ? 1.f : sus_level;
 5358              		.loc 7 76 40 view .LVU1539
 5359              	.LBE1213:
 5360              	.LBE1289:
 5361              	.LBB1290:
 5362              	.LBB1204:
 5363 0c44 9FED157A 		vldr.32	s14, .L70+80
 5364              	.LVL434:
  76:../libs/DaisySP/Source/Control/adsr.h ****                                        : (sus_level > 1.f) ? 1.f : sus_level;
 5365              		.loc 7 76 40 view .LVU1540
 5366 0c48 85E5     		b	.L35
 5367              	.L71:
ARM GAS  C:\Users\skipi\AppData\Local\Temp\cc6PZCfi.s 			page 142


 5368 0c4a 00BF     		.align	2
 5369              	.L70:
 5370 0c4c 03000180 		.word	-2147418109
 5371 0c50 00000000 		.word	.LANCHOR95
 5372 0c54 00000000 		.word	.LANCHOR94
 5373 0c58 00000000 		.word	.LANCHOR100
 5374 0c5c 00000000 		.word	.LANCHOR0
 5375 0c60 00000000 		.word	.LANCHOR2
 5376 0c64 00000000 		.word	.LANCHOR4
 5377 0c68 00000000 		.word	.LANCHOR6
 5378 0c6c 00000000 		.word	.LANCHOR8
 5379 0c70 00000000 		.word	.LANCHOR10
 5380 0c74 00000000 		.word	.LANCHOR12
 5381 0c78 00000000 		.word	.LANCHOR14
 5382 0c7c 00000000 		.word	.LANCHOR32
 5383 0c80 00000000 		.word	.LANCHOR33
 5384 0c84 00000000 		.word	.LANCHOR34
 5385 0c88 00000000 		.word	.LANCHOR35
 5386 0c8c 00000000 		.word	.LANCHOR38
 5387 0c90 00000000 		.word	.LANCHOR39
 5388 0c94 00000000 		.word	.LANCHOR36
 5389 0c98 00000000 		.word	.LANCHOR37
 5390 0c9c 0AD723BC 		.word	-1138501878
 5391              	.LBE1204:
 5392              	.LBE1290:
 5393              		.cfi_endproc
 5394              	.LFE4816:
 5396              		.section	.text.startup._GLOBAL__sub_I_wf_Pluck,"ax",%progbits
 5397              		.align	1
 5398              		.p2align 2,,3
 5399              		.syntax unified
 5400              		.thumb
 5401              		.thumb_func
 5402              		.fpu fpv5-d16
 5404              	_GLOBAL__sub_I_wf_Pluck:
 5405              	.LFB5395:
 442:src/PianoB.cpp **** }
 5406              		.loc 10 442 1 is_stmt 1 view -0
 5407              		.cfi_startproc
 5408              		@ args = 0, pretend = 0, frame = 0
 5409              		@ frame_needed = 0, uses_anonymous_args = 0
 5410              	.LBB1407:
 5411              	.LBI1407:
 5412              		.loc 10 442 1 view .LVU1542
 5413              	.LVL435:
 5414              	.LBB1408:
 5415              	.LBB1409:
 5416              	.LBI1409:
  21:../libs/libDaisy/src/daisy_seed.h ****     ~DaisySeed() {}
 5417              		.loc 1 21 5 view .LVU1543
 5418              	.LBB1410:
 5419              	.LBB1411:
 5420              	.LBI1411:
 5421              		.file 15 "../libs/libDaisy/src/per/qspi.h"
   1:../libs/libDaisy/src/per/qspi.h **** #ifndef DSY_QSPI
   2:../libs/libDaisy/src/per/qspi.h **** #define DSY_QSPI /**< Macro */
   3:../libs/libDaisy/src/per/qspi.h **** 
ARM GAS  C:\Users\skipi\AppData\Local\Temp\cc6PZCfi.s 			page 143


   4:../libs/libDaisy/src/per/qspi.h **** #ifndef UNIT_TEST // for unit tests, a dummy implementation
   5:../libs/libDaisy/src/per/qspi.h **** 
   6:../libs/libDaisy/src/per/qspi.h **** #include <cstdint>
   7:../libs/libDaisy/src/per/qspi.h **** #include "daisy_core.h"
   8:../libs/libDaisy/src/per/qspi.h **** #include "util/hal_map.h"
   9:../libs/libDaisy/src/per/qspi.h **** 
  10:../libs/libDaisy/src/per/qspi.h **** #define DSY_QSPI_TEXT       \
  11:../libs/libDaisy/src/per/qspi.h ****     __attribute__((section( \
  12:../libs/libDaisy/src/per/qspi.h ****         ".qspiflash_text"))) /**< used for reading memory in memory_mapped mode. */
  13:../libs/libDaisy/src/per/qspi.h **** #define DSY_QSPI_DATA       \
  14:../libs/libDaisy/src/per/qspi.h ****     __attribute__((section( \
  15:../libs/libDaisy/src/per/qspi.h ****         ".qspiflash_data"))) /**< used for reading memory in memory_mapped mode. */
  16:../libs/libDaisy/src/per/qspi.h **** #define DSY_QSPI_BSS        \
  17:../libs/libDaisy/src/per/qspi.h ****     __attribute__((section( \
  18:../libs/libDaisy/src/per/qspi.h ****         ".qspiflash_bss"))) /**< used for reading memory in memory_mapped mode. */
  19:../libs/libDaisy/src/per/qspi.h **** 
  20:../libs/libDaisy/src/per/qspi.h **** namespace daisy
  21:../libs/libDaisy/src/per/qspi.h **** {
  22:../libs/libDaisy/src/per/qspi.h **** /** @addtogroup serial
  23:../libs/libDaisy/src/per/qspi.h **** @{
  24:../libs/libDaisy/src/per/qspi.h **** */
  25:../libs/libDaisy/src/per/qspi.h **** 
  26:../libs/libDaisy/src/per/qspi.h **** /** 
  27:../libs/libDaisy/src/per/qspi.h ****  Driver for QSPI peripheral to interface with external flash memory. \n 
  28:../libs/libDaisy/src/per/qspi.h ****     Currently supported QSPI Devices: \n 
  29:../libs/libDaisy/src/per/qspi.h ****     * IS25LP080D
  30:../libs/libDaisy/src/per/qspi.h **** */
  31:../libs/libDaisy/src/per/qspi.h **** class QSPIHandle
  32:../libs/libDaisy/src/per/qspi.h **** {
  33:../libs/libDaisy/src/per/qspi.h ****   public:
  34:../libs/libDaisy/src/per/qspi.h ****     enum Result
  35:../libs/libDaisy/src/per/qspi.h ****     {
  36:../libs/libDaisy/src/per/qspi.h ****         OK = 0,
  37:../libs/libDaisy/src/per/qspi.h ****         ERR
  38:../libs/libDaisy/src/per/qspi.h ****     };
  39:../libs/libDaisy/src/per/qspi.h **** 
  40:../libs/libDaisy/src/per/qspi.h ****     /** Indicates the current status of the module. 
  41:../libs/libDaisy/src/per/qspi.h ****          *  Warnings are indicated by a leading W.
  42:../libs/libDaisy/src/per/qspi.h ****          *  Errors are indicated by a leading E and cause an immediate exit.
  43:../libs/libDaisy/src/per/qspi.h ****          * 
  44:../libs/libDaisy/src/per/qspi.h ****          *  \param GOOD - No errors have been reported.
  45:../libs/libDaisy/src/per/qspi.h ****          *  \param E_HAL_ERROR - HAL code did not return HAL_OK.
  46:../libs/libDaisy/src/per/qspi.h ****          *  \param E_SWITCHING_MODES - An error was encountered while switching QSPI peripheral mod
  47:../libs/libDaisy/src/per/qspi.h ****          *  \param E_INVALID_MODE - QSPI should not be written to while the program is executing fr
  48:../libs/libDaisy/src/per/qspi.h ****          */
  49:../libs/libDaisy/src/per/qspi.h ****     enum Status
  50:../libs/libDaisy/src/per/qspi.h ****     {
  51:../libs/libDaisy/src/per/qspi.h ****         GOOD = 0,
  52:../libs/libDaisy/src/per/qspi.h ****         E_HAL_ERROR,
  53:../libs/libDaisy/src/per/qspi.h ****         E_SWITCHING_MODES,
  54:../libs/libDaisy/src/per/qspi.h ****         E_INVALID_MODE,
  55:../libs/libDaisy/src/per/qspi.h ****     };
  56:../libs/libDaisy/src/per/qspi.h **** 
  57:../libs/libDaisy/src/per/qspi.h ****     /** Configuration structure for interfacing with QSPI Driver */
  58:../libs/libDaisy/src/per/qspi.h ****     struct Config
  59:../libs/libDaisy/src/per/qspi.h ****     {
  60:../libs/libDaisy/src/per/qspi.h ****         /** Flash Devices supported. (Both of these are more-or-less the same, just different sizes
ARM GAS  C:\Users\skipi\AppData\Local\Temp\cc6PZCfi.s 			page 144


  61:../libs/libDaisy/src/per/qspi.h ****         enum Device
  62:../libs/libDaisy/src/per/qspi.h ****         {
  63:../libs/libDaisy/src/per/qspi.h ****             IS25LP080D,  /**< & */
  64:../libs/libDaisy/src/per/qspi.h ****             IS25LP064A,  /**< & */
  65:../libs/libDaisy/src/per/qspi.h ****             DEVICE_LAST, /**< & */
  66:../libs/libDaisy/src/per/qspi.h ****         };
  67:../libs/libDaisy/src/per/qspi.h **** 
  68:../libs/libDaisy/src/per/qspi.h ****         /** 
  69:../libs/libDaisy/src/per/qspi.h ****         Modes of operation.
  70:../libs/libDaisy/src/per/qspi.h ****         Memory Mapped mode: QSPI configured so that the QSPI can be
  71:../libs/libDaisy/src/per/qspi.h ****         read from starting address 0x90000000. Writing is not
  72:../libs/libDaisy/src/per/qspi.h ****         possible in this mode. \n 
  73:../libs/libDaisy/src/per/qspi.h ****         Indirect Polling mode: Device driver enabled. 
  74:../libs/libDaisy/src/per/qspi.h ****         */
  75:../libs/libDaisy/src/per/qspi.h ****         enum Mode
  76:../libs/libDaisy/src/per/qspi.h ****         {
  77:../libs/libDaisy/src/per/qspi.h ****             MEMORY_MAPPED,    /**< & */
  78:../libs/libDaisy/src/per/qspi.h ****             INDIRECT_POLLING, /**< & */
  79:../libs/libDaisy/src/per/qspi.h ****             MODE_LAST,
  80:../libs/libDaisy/src/per/qspi.h ****         };
  81:../libs/libDaisy/src/per/qspi.h **** 
  82:../libs/libDaisy/src/per/qspi.h ****         //SCK,  CE# (active low)
  83:../libs/libDaisy/src/per/qspi.h ****         struct
  84:../libs/libDaisy/src/per/qspi.h ****         {
  85:../libs/libDaisy/src/per/qspi.h ****             Pin io0; /**< & */
  86:../libs/libDaisy/src/per/qspi.h ****             Pin io1; /**< & */
  87:../libs/libDaisy/src/per/qspi.h ****             Pin io2; /**< & */
  88:../libs/libDaisy/src/per/qspi.h ****             Pin io3; /**< & */
  89:../libs/libDaisy/src/per/qspi.h ****             Pin clk; /**< & */
  90:../libs/libDaisy/src/per/qspi.h ****             Pin ncs; /**< & */
  91:../libs/libDaisy/src/per/qspi.h ****         } pin_config;
  92:../libs/libDaisy/src/per/qspi.h **** 
  93:../libs/libDaisy/src/per/qspi.h ****         Device device;
  94:../libs/libDaisy/src/per/qspi.h ****         Mode   mode;
  95:../libs/libDaisy/src/per/qspi.h ****     };
  96:../libs/libDaisy/src/per/qspi.h **** 
  97:../libs/libDaisy/src/per/qspi.h ****     /** 
  98:../libs/libDaisy/src/per/qspi.h ****         Initializes QSPI peripheral, and Resets, and prepares memory for access.
  99:../libs/libDaisy/src/per/qspi.h ****         \param config should be populated with the mode, device and pin_config before calling this 
 100:../libs/libDaisy/src/per/qspi.h ****         \return Result::OK or Result::ERR
 101:../libs/libDaisy/src/per/qspi.h ****         */
 102:../libs/libDaisy/src/per/qspi.h ****     Result Init(const Config& config);
 103:../libs/libDaisy/src/per/qspi.h **** 
 104:../libs/libDaisy/src/per/qspi.h ****     /** Returns the current config. */
 105:../libs/libDaisy/src/per/qspi.h ****     const Config& GetConfig() const;
 106:../libs/libDaisy/src/per/qspi.h **** 
 107:../libs/libDaisy/src/per/qspi.h ****     // Couldn't this just be called before anything else in init? That
 108:../libs/libDaisy/src/per/qspi.h ****     // would make manually calling it unnecessary.
 109:../libs/libDaisy/src/per/qspi.h ****     /** 
 110:../libs/libDaisy/src/per/qspi.h ****         Deinitializes the peripheral
 111:../libs/libDaisy/src/per/qspi.h ****         This should be called before reinitializing QSPI in a different mode.
 112:../libs/libDaisy/src/per/qspi.h ****         \return Result::OK or Result::ERR
 113:../libs/libDaisy/src/per/qspi.h ****         */
 114:../libs/libDaisy/src/per/qspi.h ****     Result DeInit();
 115:../libs/libDaisy/src/per/qspi.h **** 
 116:../libs/libDaisy/src/per/qspi.h ****     /** 
 117:../libs/libDaisy/src/per/qspi.h ****         Writes a single page to to the specified address on the QSPI chip.
ARM GAS  C:\Users\skipi\AppData\Local\Temp\cc6PZCfi.s 			page 145


 118:../libs/libDaisy/src/per/qspi.h ****         For IS25LP*, page size is 256 bytes.
 119:../libs/libDaisy/src/per/qspi.h ****         \param address Address to write to
 120:../libs/libDaisy/src/per/qspi.h ****         \param size Buffer size
 121:../libs/libDaisy/src/per/qspi.h ****         \param buffer Buffer to write
 122:../libs/libDaisy/src/per/qspi.h ****         \return Result::OK or Result::ERR
 123:../libs/libDaisy/src/per/qspi.h ****         */
 124:../libs/libDaisy/src/per/qspi.h ****     Result WritePage(uint32_t address, uint32_t size, uint8_t* buffer);
 125:../libs/libDaisy/src/per/qspi.h **** 
 126:../libs/libDaisy/src/per/qspi.h ****     /** 
 127:../libs/libDaisy/src/per/qspi.h ****         Writes data in buffer to to the QSPI. Starting at address to address+size 
 128:../libs/libDaisy/src/per/qspi.h ****         \param address Address to write to
 129:../libs/libDaisy/src/per/qspi.h ****         \param size Buffer size
 130:../libs/libDaisy/src/per/qspi.h ****         \param buffer Buffer to write
 131:../libs/libDaisy/src/per/qspi.h ****         \return Result::OK or Result::ERR
 132:../libs/libDaisy/src/per/qspi.h ****         */
 133:../libs/libDaisy/src/per/qspi.h ****     Result Write(uint32_t address, uint32_t size, uint8_t* buffer);
 134:../libs/libDaisy/src/per/qspi.h **** 
 135:../libs/libDaisy/src/per/qspi.h ****     /** 
 136:../libs/libDaisy/src/per/qspi.h ****         Erases the area specified on the chip.
 137:../libs/libDaisy/src/per/qspi.h ****         Erasures will happen by 4K, 32K or 64K increments.
 138:../libs/libDaisy/src/per/qspi.h ****         Smallest erase possible is 4kB at a time. (on IS25LP*)
 139:../libs/libDaisy/src/per/qspi.h ****         \param start_addr Address to begin erasing from
 140:../libs/libDaisy/src/per/qspi.h ****         \param end_addr  Address to stop erasing at
 141:../libs/libDaisy/src/per/qspi.h ****         \return Result::OK or Result::ERR
 142:../libs/libDaisy/src/per/qspi.h ****         */
 143:../libs/libDaisy/src/per/qspi.h ****     Result Erase(uint32_t start_addr, uint32_t end_addr);
 144:../libs/libDaisy/src/per/qspi.h **** 
 145:../libs/libDaisy/src/per/qspi.h ****     /**  
 146:../libs/libDaisy/src/per/qspi.h ****          Erases a single sector of the chip.  
 147:../libs/libDaisy/src/per/qspi.h ****         TODO: Document the size of this function. 
 148:../libs/libDaisy/src/per/qspi.h ****         \param address Address of sector to erase
 149:../libs/libDaisy/src/per/qspi.h ****         \return Result::OK or Result::ERR
 150:../libs/libDaisy/src/per/qspi.h ****         */
 151:../libs/libDaisy/src/per/qspi.h ****     Result EraseSector(uint32_t address);
 152:../libs/libDaisy/src/per/qspi.h **** 
 153:../libs/libDaisy/src/per/qspi.h ****     /** Returns the current class status. Useful for debugging.
 154:../libs/libDaisy/src/per/qspi.h ****      *  \returns Status
 155:../libs/libDaisy/src/per/qspi.h ****      */
 156:../libs/libDaisy/src/per/qspi.h ****     Status GetStatus();
 157:../libs/libDaisy/src/per/qspi.h **** 
 158:../libs/libDaisy/src/per/qspi.h ****     /** Returns a pointer to the actual memory used 
 159:../libs/libDaisy/src/per/qspi.h ****      *  The memory at this address is read-only
 160:../libs/libDaisy/src/per/qspi.h ****      *  to write to it use the Write function.
 161:../libs/libDaisy/src/per/qspi.h ****      * 
 162:../libs/libDaisy/src/per/qspi.h ****      *  \param offset returns the pointer starting this 
 163:../libs/libDaisy/src/per/qspi.h ****      *                many bytes into the memory
 164:../libs/libDaisy/src/per/qspi.h ****     */
 165:../libs/libDaisy/src/per/qspi.h ****     void* GetData(uint32_t offset = 0);
 166:../libs/libDaisy/src/per/qspi.h **** 
 167:../libs/libDaisy/src/per/qspi.h ****     QSPIHandle() : pimpl_(nullptr) {}
 5422              		.loc 15 167 5 view .LVU1544
 5423              		.loc 15 167 5 is_stmt 0 view .LVU1545
 5424              	.LBE1411:
 5425              	.LBB1414:
 5426              	.LBI1414:
  58:../libs/libDaisy/src/per/qspi.h ****     {
 5427              		.loc 15 58 12 is_stmt 1 view .LVU1546
ARM GAS  C:\Users\skipi\AppData\Local\Temp\cc6PZCfi.s 			page 146


 5428              	.LBB1415:
 5429              	.LBI1415:
  84:../libs/libDaisy/src/per/qspi.h ****             Pin io0; /**< & */
 5430              		.loc 15 84 9 view .LVU1547
 5431              	.LBB1416:
 5432              	.LBI1416:
 5433              		.loc 14 204 15 view .LVU1548
 5434              		.loc 14 204 15 is_stmt 0 view .LVU1549
 5435              	.LBE1416:
 5436              	.LBB1417:
 5437              	.LBI1417:
 5438              		.loc 14 204 15 is_stmt 1 view .LVU1550
 5439              		.loc 14 204 15 is_stmt 0 view .LVU1551
 5440              	.LBE1417:
 5441              	.LBB1418:
 5442              	.LBI1418:
 5443              		.loc 14 204 15 is_stmt 1 view .LVU1552
 5444              		.loc 14 204 15 is_stmt 0 view .LVU1553
 5445              	.LBE1418:
 5446              	.LBB1419:
 5447              	.LBI1419:
 5448              		.loc 14 204 15 is_stmt 1 view .LVU1554
 5449              		.loc 14 204 15 is_stmt 0 view .LVU1555
 5450              	.LBE1419:
 5451              	.LBB1420:
 5452              	.LBI1420:
 5453              		.loc 14 204 15 is_stmt 1 view .LVU1556
 5454              		.loc 14 204 15 is_stmt 0 view .LVU1557
 5455              	.LBE1420:
 5456              	.LBB1421:
 5457              	.LBI1421:
 5458              		.loc 14 204 15 is_stmt 1 view .LVU1558
 5459              		.loc 14 204 15 is_stmt 0 view .LVU1559
 5460              	.LBE1421:
 5461              	.LBE1415:
 5462              	.LBE1414:
 5463              	.LBB1422:
 5464              	.LBI1422:
  87:../libs/libDaisy/src/hid/audio.h ****     ~AudioHandle() {}
 5465              		.loc 6 87 5 is_stmt 1 view .LVU1560
  87:../libs/libDaisy/src/hid/audio.h ****     ~AudioHandle() {}
 5466              		.loc 6 87 5 is_stmt 0 view .LVU1561
 5467              	.LBE1422:
 5468              	.LBB1425:
 5469              	.LBI1425:
 109:../libs/libDaisy/src/per/adc.h ****     ~AdcHandle() {}
 5470              		.loc 5 109 5 is_stmt 1 view .LVU1562
 109:../libs/libDaisy/src/per/adc.h ****     ~AdcHandle() {}
 5471              		.loc 5 109 5 is_stmt 0 view .LVU1563
 5472              	.LBE1425:
 5473              	.LBB1426:
 5474              	.LBI1426:
 5475              		.file 16 "../libs/libDaisy/src/per/dac.h"
   1:../libs/libDaisy/src/per/dac.h **** #pragma once
   2:../libs/libDaisy/src/per/dac.h **** #ifndef DSY_DAC_H
   3:../libs/libDaisy/src/per/dac.h **** #define DSY_DAC_H
   4:../libs/libDaisy/src/per/dac.h **** #include "stm32h7xx_hal.h"
ARM GAS  C:\Users\skipi\AppData\Local\Temp\cc6PZCfi.s 			page 147


   5:../libs/libDaisy/src/per/dac.h **** #include "daisy_core.h"
   6:../libs/libDaisy/src/per/dac.h **** 
   7:../libs/libDaisy/src/per/dac.h **** namespace daisy
   8:../libs/libDaisy/src/per/dac.h **** {
   9:../libs/libDaisy/src/per/dac.h **** /** @brief DAC handle for Built-in DAC Peripheral 
  10:../libs/libDaisy/src/per/dac.h ****  *  @ingroup per_analog
  11:../libs/libDaisy/src/per/dac.h ****  ** 
  12:../libs/libDaisy/src/per/dac.h ****  ** For now only Normal Mode is supported,
  13:../libs/libDaisy/src/per/dac.h ****  ** Sample and hold mode provides reduced power consumption, but requires a bit more setup.
  14:../libs/libDaisy/src/per/dac.h ****  **
  15:../libs/libDaisy/src/per/dac.h ****  ** For now connecting the DAC through other internal peripherals is also not supported.
  16:../libs/libDaisy/src/per/dac.h ****  **
  17:../libs/libDaisy/src/per/dac.h ****  ** Since the DAC channels have dedicated pins we don't need to pass in a pin config like with
  18:../libs/libDaisy/src/per/dac.h ****  ** other modules. However, it is still important to not try to use the DAC pins for anything else.
  19:../libs/libDaisy/src/per/dac.h ****  ** DAC Channel 1 is on PA4, and DAC Channel 2 is on PA5
  20:../libs/libDaisy/src/per/dac.h ****  ***/
  21:../libs/libDaisy/src/per/dac.h **** class DacHandle
  22:../libs/libDaisy/src/per/dac.h **** {
  23:../libs/libDaisy/src/per/dac.h ****   public:
  24:../libs/libDaisy/src/per/dac.h ****     /** Return Values for the DacHandle class */
  25:../libs/libDaisy/src/per/dac.h ****     enum class Result
  26:../libs/libDaisy/src/per/dac.h ****     {
  27:../libs/libDaisy/src/per/dac.h ****         OK,
  28:../libs/libDaisy/src/per/dac.h ****         ERR,
  29:../libs/libDaisy/src/per/dac.h ****     };
  30:../libs/libDaisy/src/per/dac.h **** 
  31:../libs/libDaisy/src/per/dac.h ****     /** Selects which channel(s) will be configured for use. */
  32:../libs/libDaisy/src/per/dac.h ****     enum class Channel
  33:../libs/libDaisy/src/per/dac.h ****     {
  34:../libs/libDaisy/src/per/dac.h ****         ONE,
  35:../libs/libDaisy/src/per/dac.h ****         TWO,
  36:../libs/libDaisy/src/per/dac.h ****         BOTH,
  37:../libs/libDaisy/src/per/dac.h ****     };
  38:../libs/libDaisy/src/per/dac.h **** 
  39:../libs/libDaisy/src/per/dac.h ****     /** Sets the Mode for the DAC channels.
  40:../libs/libDaisy/src/per/dac.h ****      **
  41:../libs/libDaisy/src/per/dac.h ****      ** Polling mode uses the blocking mode to transmit a single value at a time.
  42:../libs/libDaisy/src/per/dac.h ****      **
  43:../libs/libDaisy/src/per/dac.h ****      ** DMA mode uses a buffer, and periodically transmits it triggering a 
  44:../libs/libDaisy/src/per/dac.h ****      ** callback to fill the buffer when it is ready for more samples.
  45:../libs/libDaisy/src/per/dac.h ****      ***/
  46:../libs/libDaisy/src/per/dac.h ****     enum class Mode
  47:../libs/libDaisy/src/per/dac.h ****     {
  48:../libs/libDaisy/src/per/dac.h ****         POLLING,
  49:../libs/libDaisy/src/per/dac.h ****         DMA,
  50:../libs/libDaisy/src/per/dac.h ****     };
  51:../libs/libDaisy/src/per/dac.h **** 
  52:../libs/libDaisy/src/per/dac.h ****     /** Sets the number of bits per sample transmitted out of the DAC.
  53:../libs/libDaisy/src/per/dac.h ****      ** The output range will be: 0V - VDDA
  54:../libs/libDaisy/src/per/dac.h ****      ** The resolution will be roughly: bitdepth / (VDDA - 0V) 
  55:../libs/libDaisy/src/per/dac.h ****      ***/
  56:../libs/libDaisy/src/per/dac.h ****     enum class BitDepth
  57:../libs/libDaisy/src/per/dac.h ****     {
  58:../libs/libDaisy/src/per/dac.h ****         BITS_8,
  59:../libs/libDaisy/src/per/dac.h ****         BITS_12
  60:../libs/libDaisy/src/per/dac.h ****     };
  61:../libs/libDaisy/src/per/dac.h **** 
ARM GAS  C:\Users\skipi\AppData\Local\Temp\cc6PZCfi.s 			page 148


  62:../libs/libDaisy/src/per/dac.h ****     /** Sets whether the DAC output is buffered for higher drive ability. */
  63:../libs/libDaisy/src/per/dac.h ****     enum class BufferState
  64:../libs/libDaisy/src/per/dac.h ****     {
  65:../libs/libDaisy/src/per/dac.h ****         ENABLED,
  66:../libs/libDaisy/src/per/dac.h ****         DISABLED,
  67:../libs/libDaisy/src/per/dac.h ****     };
  68:../libs/libDaisy/src/per/dac.h **** 
  69:../libs/libDaisy/src/per/dac.h ****     /** Configuration structure for initializing the DAC structure. */
  70:../libs/libDaisy/src/per/dac.h ****     struct Config
  71:../libs/libDaisy/src/per/dac.h ****     {
  72:../libs/libDaisy/src/per/dac.h ****         /** Target Samplerate in Hz used to configure the internal 
  73:../libs/libDaisy/src/per/dac.h ****          ** timebase for DMA mode. Does nothing in POLLING mode.
  74:../libs/libDaisy/src/per/dac.h ****          ** If the value is 0 at Init time this will default to 48000Hz 
  75:../libs/libDaisy/src/per/dac.h ****          ** otherwise the driver will attempt meet the target.*/
  76:../libs/libDaisy/src/per/dac.h ****         uint32_t target_samplerate;
  77:../libs/libDaisy/src/per/dac.h **** 
  78:../libs/libDaisy/src/per/dac.h ****         Channel     chn;
  79:../libs/libDaisy/src/per/dac.h ****         Mode        mode;
  80:../libs/libDaisy/src/per/dac.h ****         BitDepth    bitdepth;
  81:../libs/libDaisy/src/per/dac.h ****         BufferState buff_state;
  82:../libs/libDaisy/src/per/dac.h ****     };
  83:../libs/libDaisy/src/per/dac.h **** 
  84:../libs/libDaisy/src/per/dac.h ****     DacHandle() : pimpl_(nullptr) {}
 5476              		.loc 16 84 5 is_stmt 1 view .LVU1564
 5477              		.loc 16 84 5 is_stmt 0 view .LVU1565
 5478              	.LBE1426:
 5479              	.LBB1429:
 5480              	.LBI1429:
  40:../libs/libDaisy/src/hid/usb.h **** 
 5481              		.loc 4 40 5 is_stmt 1 view .LVU1566
  40:../libs/libDaisy/src/hid/usb.h **** 
 5482              		.loc 4 40 5 is_stmt 0 view .LVU1567
 5483              	.LBE1429:
 5484              	.LBB1430:
 5485              	.LBI1430:
 5486              		.file 17 "../libs/libDaisy/src/per/gpio.h"
   1:../libs/libDaisy/src/per/gpio.h **** #pragma once
   2:../libs/libDaisy/src/per/gpio.h **** #ifndef DSY_GPIO_H
   3:../libs/libDaisy/src/per/gpio.h **** #define DSY_GPIO_H
   4:../libs/libDaisy/src/per/gpio.h **** #include "daisy_core.h"
   5:../libs/libDaisy/src/per/gpio.h **** 
   6:../libs/libDaisy/src/per/gpio.h **** #ifdef __cplusplus
   7:../libs/libDaisy/src/per/gpio.h **** 
   8:../libs/libDaisy/src/per/gpio.h **** namespace daisy
   9:../libs/libDaisy/src/per/gpio.h **** {
  10:../libs/libDaisy/src/per/gpio.h **** /** @brief General Purpose I/O control 
  11:../libs/libDaisy/src/per/gpio.h ****  *  @details peripheral control over a single GPIO
  12:../libs/libDaisy/src/per/gpio.h ****  *  @ingroup peripheral
  13:../libs/libDaisy/src/per/gpio.h ****  *   
  14:../libs/libDaisy/src/per/gpio.h ****  *  Button Input (with internal Pullup resistor)
  15:../libs/libDaisy/src/per/gpio.h ****  *  @include GPIO_Input.cpp 
  16:../libs/libDaisy/src/per/gpio.h ****  * 
  17:../libs/libDaisy/src/per/gpio.h ****  *  Output Example (perfect for blinking an LED)
  18:../libs/libDaisy/src/per/gpio.h ****  *  @include GPIO_Output.cpp
  19:../libs/libDaisy/src/per/gpio.h ****  * 
  20:../libs/libDaisy/src/per/gpio.h **** */
  21:../libs/libDaisy/src/per/gpio.h **** class GPIO
ARM GAS  C:\Users\skipi\AppData\Local\Temp\cc6PZCfi.s 			page 149


  22:../libs/libDaisy/src/per/gpio.h **** {
  23:../libs/libDaisy/src/per/gpio.h ****   public:
  24:../libs/libDaisy/src/per/gpio.h ****     /** @brief Mode of operation for the specified GPIO */
  25:../libs/libDaisy/src/per/gpio.h ****     enum class Mode
  26:../libs/libDaisy/src/per/gpio.h ****     {
  27:../libs/libDaisy/src/per/gpio.h ****         INPUT,      /**< Input for reading state of pin */
  28:../libs/libDaisy/src/per/gpio.h ****         OUTPUT,     /**< Output w/ push-pull configuration */
  29:../libs/libDaisy/src/per/gpio.h ****         OPEN_DRAIN, /**< Output w/ open-drain configuration */
  30:../libs/libDaisy/src/per/gpio.h ****         ANALOG,     /**< Analog for connection to ADC or DAC peripheral */
  31:../libs/libDaisy/src/per/gpio.h ****     };
  32:../libs/libDaisy/src/per/gpio.h **** 
  33:../libs/libDaisy/src/per/gpio.h ****     /** @brief Configures whether an internal Pull up or Pull down resistor is used. 
  34:../libs/libDaisy/src/per/gpio.h ****      *  
  35:../libs/libDaisy/src/per/gpio.h ****      * Internal Pull up/down resistors are typically 40k ohms, and will be between
  36:../libs/libDaisy/src/per/gpio.h ****      * 30k and 50k
  37:../libs/libDaisy/src/per/gpio.h ****      * 
  38:../libs/libDaisy/src/per/gpio.h ****      * When the Pin is configured in Analog mode, the pull up/down resistors are
  39:../libs/libDaisy/src/per/gpio.h ****      * disabled by hardware. 
  40:../libs/libDaisy/src/per/gpio.h ****      */
  41:../libs/libDaisy/src/per/gpio.h ****     enum class Pull
  42:../libs/libDaisy/src/per/gpio.h ****     {
  43:../libs/libDaisy/src/per/gpio.h ****         NOPULL,   /**< No pull up resistor */
  44:../libs/libDaisy/src/per/gpio.h ****         PULLUP,   /**< Internal pull up enabled */
  45:../libs/libDaisy/src/per/gpio.h ****         PULLDOWN, /**< Internal pull down enabled*/
  46:../libs/libDaisy/src/per/gpio.h ****     };
  47:../libs/libDaisy/src/per/gpio.h **** 
  48:../libs/libDaisy/src/per/gpio.h ****     /** @brief Output speed controls the drive strength, and slew rate of the pin */
  49:../libs/libDaisy/src/per/gpio.h ****     enum class Speed
  50:../libs/libDaisy/src/per/gpio.h ****     {
  51:../libs/libDaisy/src/per/gpio.h ****         LOW,
  52:../libs/libDaisy/src/per/gpio.h ****         MEDIUM,
  53:../libs/libDaisy/src/per/gpio.h ****         HIGH,
  54:../libs/libDaisy/src/per/gpio.h ****         VERY_HIGH,
  55:../libs/libDaisy/src/per/gpio.h ****     };
  56:../libs/libDaisy/src/per/gpio.h **** 
  57:../libs/libDaisy/src/per/gpio.h ****     /** @brief Configuration for a given GPIO */
  58:../libs/libDaisy/src/per/gpio.h ****     struct Config
  59:../libs/libDaisy/src/per/gpio.h ****     {
  60:../libs/libDaisy/src/per/gpio.h ****         Pin   pin;
  61:../libs/libDaisy/src/per/gpio.h ****         Mode  mode;
  62:../libs/libDaisy/src/per/gpio.h ****         Pull  pull;
  63:../libs/libDaisy/src/per/gpio.h ****         Speed speed;
  64:../libs/libDaisy/src/per/gpio.h **** 
  65:../libs/libDaisy/src/per/gpio.h ****         /** Constructor with no arguments will prepare an invalid GPIO set as
  66:../libs/libDaisy/src/per/gpio.h ****          *  an input, with no pullup. 
  67:../libs/libDaisy/src/per/gpio.h ****          */
  68:../libs/libDaisy/src/per/gpio.h ****         Config()
  69:../libs/libDaisy/src/per/gpio.h ****         : pin(), mode(Mode::INPUT), pull(Pull::NOPULL), speed(Speed::LOW)
  70:../libs/libDaisy/src/per/gpio.h ****         {
  71:../libs/libDaisy/src/per/gpio.h ****         }
  72:../libs/libDaisy/src/per/gpio.h ****     };
  73:../libs/libDaisy/src/per/gpio.h **** 
  74:../libs/libDaisy/src/per/gpio.h ****     GPIO() {}
 5487              		.loc 17 74 5 is_stmt 1 view .LVU1568
 5488              	.LBB1431:
 5489              	.LBB1432:
 5490              	.LBI1432:
ARM GAS  C:\Users\skipi\AppData\Local\Temp\cc6PZCfi.s 			page 150


  68:../libs/libDaisy/src/per/gpio.h ****         : pin(), mode(Mode::INPUT), pull(Pull::NOPULL), speed(Speed::LOW)
 5491              		.loc 17 68 9 view .LVU1569
 5492              	.LBB1433:
 5493              	.LBB1434:
 5494              	.LBB1435:
 5495              	.LBI1435:
 5496              		.loc 14 204 15 view .LVU1570
 5497              		.loc 14 204 15 is_stmt 0 view .LVU1571
 5498              	.LBE1435:
 5499              	.LBE1434:
 5500              	.LBE1433:
 5501              	.LBE1432:
 5502              	.LBE1431:
 5503              	.LBE1430:
 5504              	.LBB1444:
 5505              	.LBI1444:
 5506              		.loc 17 74 5 is_stmt 1 view .LVU1572
 5507              	.LBB1445:
 5508              	.LBB1446:
 5509              	.LBI1446:
  68:../libs/libDaisy/src/per/gpio.h ****         : pin(), mode(Mode::INPUT), pull(Pull::NOPULL), speed(Speed::LOW)
 5510              		.loc 17 68 9 view .LVU1573
 5511              	.LBB1447:
 5512              	.LBB1448:
 5513              	.LBB1449:
 5514              	.LBI1449:
 5515              		.loc 14 204 15 view .LVU1574
 5516              		.loc 14 204 15 is_stmt 0 view .LVU1575
 5517              	.LBE1449:
 5518              	.LBE1448:
 5519              	.LBE1447:
 5520              	.LBE1446:
 5521              	.LBE1445:
 5522              	.LBE1444:
 5523              	.LBB1458:
 5524              	.LBI1458:
  96:../libs/libDaisy/src/sys/system.h ****     ~System() {}
 5525              		.loc 3 96 5 is_stmt 1 view .LVU1576
  96:../libs/libDaisy/src/sys/system.h ****     ~System() {}
 5526              		.loc 3 96 5 is_stmt 0 view .LVU1577
 5527              	.LBE1458:
 5528              	.LBB1459:
 5529              	.LBI1459:
  20:../libs/libDaisy/src/dev/codec_ak4556.h ****     ~Ak4556() {}
 5530              		.loc 2 20 5 is_stmt 1 view .LVU1578
 5531              	.LBB1460:
 5532              	.LBI1460:
 5533              		.loc 17 74 5 view .LVU1579
 5534              	.LBB1461:
 5535              	.LBB1462:
 5536              	.LBI1462:
  68:../libs/libDaisy/src/per/gpio.h ****         : pin(), mode(Mode::INPUT), pull(Pull::NOPULL), speed(Speed::LOW)
 5537              		.loc 17 68 9 view .LVU1580
 5538              	.LBB1463:
 5539              	.LBB1464:
 5540              	.LBB1465:
 5541              	.LBI1465:
ARM GAS  C:\Users\skipi\AppData\Local\Temp\cc6PZCfi.s 			page 151


 5542              		.loc 14 204 15 view .LVU1581
 5543              		.loc 14 204 15 is_stmt 0 view .LVU1582
 5544              	.LBE1465:
 5545              	.LBE1464:
 5546              	.LBE1463:
 5547              	.LBE1462:
 5548              	.LBE1461:
 5549              	.LBE1460:
 5550              	.LBE1459:
 5551              	.LBB1476:
 5552              	.LBI1476:
 5553              		.file 18 "../libs/libDaisy/src/per/sai.h"
   1:../libs/libDaisy/src/per/sai.h **** #pragma once
   2:../libs/libDaisy/src/per/sai.h **** #ifndef DSY_SAI_H
   3:../libs/libDaisy/src/per/sai.h **** #define DSY_SAI_H
   4:../libs/libDaisy/src/per/sai.h **** 
   5:../libs/libDaisy/src/per/sai.h **** #include "util/hal_map.h"
   6:../libs/libDaisy/src/per/sai.h **** #include "daisy_core.h"
   7:../libs/libDaisy/src/per/sai.h **** 
   8:../libs/libDaisy/src/per/sai.h **** namespace daisy
   9:../libs/libDaisy/src/per/sai.h **** {
  10:../libs/libDaisy/src/per/sai.h **** /** 
  11:../libs/libDaisy/src/per/sai.h ****  * Support for I2S Audio Protocol with different bit-depth, samplerate options
  12:../libs/libDaisy/src/per/sai.h ****  * Allows for master or slave, as well as freedom of selecting direction, 
  13:../libs/libDaisy/src/per/sai.h ****  * and other behavior for each peripheral, and block.
  14:../libs/libDaisy/src/per/sai.h ****  * 
  15:../libs/libDaisy/src/per/sai.h ****  * DMA Transfer commands must use buffers located within non-cached memory or use cache maintenance
  16:../libs/libDaisy/src/per/sai.h ****  * To declare an unitialized global element in the DMA memory section:
  17:../libs/libDaisy/src/per/sai.h ****  *    int32_t DSY_DMA_BUFFER_SECTOR my_buffer[96];
  18:../libs/libDaisy/src/per/sai.h ****  *
  19:../libs/libDaisy/src/per/sai.h ****  * Callback functions will be called once per half of the buffer. In the above example, 
  20:../libs/libDaisy/src/per/sai.h ****  * the callback function would be called once for every 48 samples.
  21:../libs/libDaisy/src/per/sai.h ****  * 
  22:../libs/libDaisy/src/per/sai.h ****  * Use SAI Handle like this:
  23:../libs/libDaisy/src/per/sai.h ****  * 
  24:../libs/libDaisy/src/per/sai.h ****  *  SaiHandle::Config sai_config;
  25:../libs/libDaisy/src/per/sai.h ****  *  sai_config.periph          = SaiHandle::Config::Peripheral::SAI_1;
  26:../libs/libDaisy/src/per/sai.h ****  *  sai_config.sr              = SaiHandle::Config::SampleRate::SAI_48KHZ;
  27:../libs/libDaisy/src/per/sai.h ****  *  sai_config.bit_depth       = SaiHandle::Config::BitDepth::SAI_24BIT;
  28:../libs/libDaisy/src/per/sai.h ****  *  sai_config.a_sync          = SaiHandle::Config::Sync::MASTER;
  29:../libs/libDaisy/src/per/sai.h ****  *  sai_config.b_sync          = SaiHandle::Config::Sync::SLAVE;
  30:../libs/libDaisy/src/per/sai.h ****  *  sai_config.a_dir           = SaiHandle::Config::Direction::RECEIVE;
  31:../libs/libDaisy/src/per/sai.h ****  *  sai_config.b_dir           = SaiHandle::Config::Direction::TRANSMIT;
  32:../libs/libDaisy/src/per/sai.h ****  *  sai_config.pin_config.fs   = {DSY_GPIOE, 4};
  33:../libs/libDaisy/src/per/sai.h ****  *  sai_config.pin_config.mclk = {DSY_GPIOE, 2};
  34:../libs/libDaisy/src/per/sai.h ****  *  sai_config.pin_config.sck  = {DSY_GPIOE, 5};
  35:../libs/libDaisy/src/per/sai.h ****  *  sai_config.pin_config.sa   = {DSY_GPIOE, 6};
  36:../libs/libDaisy/src/per/sai.h ****  *  sai_config.pin_config.sb   = {DSY_GPIOE, 3};
  37:../libs/libDaisy/src/per/sai.h ****  *  // Then Initialize
  38:../libs/libDaisy/src/per/sai.h ****  *  SaiHandle sai;
  39:../libs/libDaisy/src/per/sai.h ****  *  sai.Init(sai_config);
  40:../libs/libDaisy/src/per/sai.h ****  *  // Now you can use it:
  41:../libs/libDaisy/src/per/sai.h ****  *  sai.StartDma(. . .);
  42:../libs/libDaisy/src/per/sai.h ****  */
  43:../libs/libDaisy/src/per/sai.h **** class SaiHandle
  44:../libs/libDaisy/src/per/sai.h **** {
  45:../libs/libDaisy/src/per/sai.h ****   public:
ARM GAS  C:\Users\skipi\AppData\Local\Temp\cc6PZCfi.s 			page 152


  46:../libs/libDaisy/src/per/sai.h ****     /** Contains settings for initialising an SAI Interface */
  47:../libs/libDaisy/src/per/sai.h ****     struct Config
  48:../libs/libDaisy/src/per/sai.h ****     {
  49:../libs/libDaisy/src/per/sai.h ****         /** Specifies the internal peripheral to use (mapped to different hardware pins) */
  50:../libs/libDaisy/src/per/sai.h ****         enum class Peripheral
  51:../libs/libDaisy/src/per/sai.h ****         {
  52:../libs/libDaisy/src/per/sai.h ****             SAI_1,
  53:../libs/libDaisy/src/per/sai.h ****             SAI_2,
  54:../libs/libDaisy/src/per/sai.h ****         };
  55:../libs/libDaisy/src/per/sai.h **** 
  56:../libs/libDaisy/src/per/sai.h ****         /** Rate at which samples will be streaming to/from the device. */
  57:../libs/libDaisy/src/per/sai.h ****         enum class SampleRate
  58:../libs/libDaisy/src/per/sai.h ****         {
  59:../libs/libDaisy/src/per/sai.h ****             SAI_8KHZ,
  60:../libs/libDaisy/src/per/sai.h ****             SAI_16KHZ,
  61:../libs/libDaisy/src/per/sai.h ****             SAI_32KHZ,
  62:../libs/libDaisy/src/per/sai.h ****             SAI_48KHZ,
  63:../libs/libDaisy/src/per/sai.h ****             SAI_96KHZ,
  64:../libs/libDaisy/src/per/sai.h ****         };
  65:../libs/libDaisy/src/per/sai.h **** 
  66:../libs/libDaisy/src/per/sai.h ****         /** Bit Depth that the hardware expects to be transferred to/from the device. */
  67:../libs/libDaisy/src/per/sai.h ****         enum class BitDepth
  68:../libs/libDaisy/src/per/sai.h ****         {
  69:../libs/libDaisy/src/per/sai.h ****             SAI_16BIT,
  70:../libs/libDaisy/src/per/sai.h ****             SAI_24BIT,
  71:../libs/libDaisy/src/per/sai.h ****             SAI_32BIT,
  72:../libs/libDaisy/src/per/sai.h ****         };
  73:../libs/libDaisy/src/per/sai.h **** 
  74:../libs/libDaisy/src/per/sai.h ****         /** Specifies whether a particular block is the master or the slave 
  75:../libs/libDaisy/src/per/sai.h ****          ** If both are set to slave, no MCLK signal will be used, and it is
  76:../libs/libDaisy/src/per/sai.h ****          ** expected that the codec will have its own xtal.
  77:../libs/libDaisy/src/per/sai.h ****          */
  78:../libs/libDaisy/src/per/sai.h ****         enum class Sync
  79:../libs/libDaisy/src/per/sai.h ****         {
  80:../libs/libDaisy/src/per/sai.h ****             MASTER,
  81:../libs/libDaisy/src/per/sai.h ****             SLAVE,
  82:../libs/libDaisy/src/per/sai.h ****         };
  83:../libs/libDaisy/src/per/sai.h **** 
  84:../libs/libDaisy/src/per/sai.h ****         /** Specifies the direction for each peripheral block. */
  85:../libs/libDaisy/src/per/sai.h ****         enum class Direction
  86:../libs/libDaisy/src/per/sai.h ****         {
  87:../libs/libDaisy/src/per/sai.h ****             TRANSMIT,
  88:../libs/libDaisy/src/per/sai.h ****             RECEIVE,
  89:../libs/libDaisy/src/per/sai.h ****         };
  90:../libs/libDaisy/src/per/sai.h **** 
  91:../libs/libDaisy/src/per/sai.h ****         Peripheral periph;
  92:../libs/libDaisy/src/per/sai.h ****         struct
  93:../libs/libDaisy/src/per/sai.h ****         {
  94:../libs/libDaisy/src/per/sai.h ****             Pin mclk, fs, sck, sa, sb;
  95:../libs/libDaisy/src/per/sai.h ****         } pin_config;
  96:../libs/libDaisy/src/per/sai.h ****         SampleRate sr;
  97:../libs/libDaisy/src/per/sai.h ****         BitDepth   bit_depth;
  98:../libs/libDaisy/src/per/sai.h ****         Sync       a_sync, b_sync;
  99:../libs/libDaisy/src/per/sai.h ****         Direction  a_dir, b_dir;
 100:../libs/libDaisy/src/per/sai.h ****     };
 101:../libs/libDaisy/src/per/sai.h **** 
 102:../libs/libDaisy/src/per/sai.h ****     /** Return values for SAI functions */
ARM GAS  C:\Users\skipi\AppData\Local\Temp\cc6PZCfi.s 			page 153


 103:../libs/libDaisy/src/per/sai.h ****     enum class Result
 104:../libs/libDaisy/src/per/sai.h ****     {
 105:../libs/libDaisy/src/per/sai.h ****         OK,
 106:../libs/libDaisy/src/per/sai.h ****         ERR,
 107:../libs/libDaisy/src/per/sai.h ****     };
 108:../libs/libDaisy/src/per/sai.h **** 
 109:../libs/libDaisy/src/per/sai.h ****     SaiHandle() : pimpl_(nullptr) {}
 5554              		.loc 18 109 5 is_stmt 1 view .LVU1583
 5555              	.LBE1476:
 5556              	.LBE1410:
 5557              	.LBE1409:
 5558              	.LBE1408:
 5559              	.LBE1407:
 5560              		.loc 10 442 1 is_stmt 0 view .LVU1584
 5561 0000 2DE9F041 		push	{r4, r5, r6, r7, r8, lr}
 5562              		.cfi_def_cfa_offset 24
 5563              		.cfi_offset 4, -24
 5564              		.cfi_offset 5, -20
 5565              		.cfi_offset 6, -16
 5566              		.cfi_offset 7, -12
 5567              		.cfi_offset 8, -8
 5568              		.cfi_offset 14, -4
 5569              	.LBB1561:
 5570              	.LBB1559:
 5571              	.LBB1495:
 5572              	.LBB1489:
  21:../libs/libDaisy/src/daisy_seed.h ****     ~DaisySeed() {}
 5573              		.loc 1 21 17 view .LVU1585
 5574 0004 4FF60B73 		movw	r3, #65291
 5575              	.LBE1489:
 5576              	.LBE1495:
  17:src/PianoB.cpp **** 
 5577              		.loc 10 17 18 view .LVU1586
 5578 0008 8D4D     		ldr	r5, .L74
 5579              	.LBB1496:
 5580              	.LBB1490:
 5581              	.LBB1479:
 5582              	.LBB1412:
 5583              	.LBB1413:
 5584              		.loc 15 167 34 view .LVU1587
 5585 000a 0027     		movs	r7, #0
 5586 000c 8D48     		ldr	r0, .L74+4
 5587              	.LBE1413:
 5588              	.LBE1412:
 5589              	.LBE1479:
  21:../libs/libDaisy/src/daisy_seed.h ****     ~DaisySeed() {}
 5590              		.loc 1 21 17 view .LVU1588
 5591 000e 6FF0F412 		mvn	r2, #15991028
 5592              	.LBE1490:
 5593              	.LBE1496:
  21:src/PianoB.cpp **** static Ramo Bass1, Bass2;
 5594              		.loc 10 21 13 view .LVU1589
 5595 0012 8D4E     		ldr	r6, .L74+8
 5596              	.LBB1497:
 5597              	.LBB1491:
  21:../libs/libDaisy/src/daisy_seed.h ****     ~DaisySeed() {}
 5598              		.loc 1 21 17 view .LVU1590
ARM GAS  C:\Users\skipi\AppData\Local\Temp\cc6PZCfi.s 			page 154


 5599 0014 8365     		str	r3, [r0, #88]
 5600              	.LBE1491:
 5601              	.LBE1497:
  17:src/PianoB.cpp **** 
 5602              		.loc 10 17 18 view .LVU1591
 5603 0016 8D49     		ldr	r1, .L74+12
 5604              	.LBB1498:
 5605              	.LBB1492:
 5606              	.LBB1480:
 5607              	.LBB1423:
 5608              	.LBB1424:
  87:../libs/libDaisy/src/hid/audio.h ****     ~AudioHandle() {}
 5609              		.loc 6 87 35 view .LVU1592
 5610 0018 4761     		str	r7, [r0, #20]
 5611              	.LBE1424:
 5612              	.LBE1423:
 5613              	.LBE1480:
 5614              	.LBB1481:
 5615              	.LBB1427:
 5616              	.LBB1428:
 5617              		.loc 16 84 33 view .LVU1593
 5618 001a 0762     		str	r7, [r0, #32]
 5619              	.LBE1428:
 5620              	.LBE1427:
 5621              	.LBE1481:
 5622              	.LBB1482:
 5623              	.LBB1474:
 5624              	.LBB1472:
 5625              	.LBB1470:
 5626              	.LBB1468:
 5627              	.LBB1466:
  69:../libs/libDaisy/src/per/gpio.h ****         {
 5628              		.loc 17 69 73 view .LVU1594
 5629 001c 4766     		str	r7, [r0, #100]
 5630              	.LBE1466:
 5631              	.LBE1468:
 5632              	.LBE1470:
 5633              	.LBE1472:
 5634              	.LBE1474:
 5635              	.LBE1482:
 5636              	.LBB1483:
 5637              	.LBB1477:
 5638              	.LBB1478:
 5639              		.loc 18 109 33 view .LVU1595
 5640 001e 0767     		str	r7, [r0, #112]
 5641              	.LVL436:
 5642              		.loc 18 109 33 view .LVU1596
 5643              	.LBE1478:
 5644              	.LBE1477:
 5645              	.LBE1483:
 5646              	.LBE1492:
 5647              	.LBE1498:
  21:src/PianoB.cpp **** static Ramo Bass1, Bass2;
 5648              		.loc 10 21 13 view .LVU1597
 5649 0020 8B4C     		ldr	r4, .L74+16
  37:src/PianoB.cpp **** static Svf filter_Bass1, filter_Bass2;
 5650              		.loc 10 37 12 view .LVU1598
ARM GAS  C:\Users\skipi\AppData\Local\Temp\cc6PZCfi.s 			page 155


 5651 0022 DFF8B082 		ldr	r8, .L74+148
 5652              	.LBB1499:
 5653              	.LBB1493:
 5654              	.LBB1484:
 5655              	.LBB1442:
 5656              	.LBB1440:
 5657              	.LBB1438:
 5658              	.LBB1436:
  69:../libs/libDaisy/src/per/gpio.h ****         {
 5659              		.loc 17 69 73 view .LVU1599
 5660 0026 C0E90A37 		strd	r3, r7, [r0, #40]
 5661              	.LBE1436:
 5662              	.LBE1438:
 5663              	.LBE1440:
 5664              	.LBE1442:
 5665              	.LBE1484:
 5666              	.LBB1485:
 5667              	.LBB1456:
 5668              	.LBB1454:
 5669              	.LBB1452:
 5670              	.LBB1450:
 5671 002a C0E90F37 		strd	r3, r7, [r0, #60]
 5672              	.LBE1450:
 5673              	.LBE1452:
 5674              	.LBE1454:
 5675              	.LBE1456:
 5676              	.LBE1485:
  21:../libs/libDaisy/src/daisy_seed.h ****     ~DaisySeed() {}
 5677              		.loc 1 21 17 view .LVU1600
 5678 002e C0E90072 		strd	r7, r2, [r0]
 5679 0032 C0E90222 		strd	r2, r2, [r0, #8]
 5680              	.LBB1486:
 5681              	.LBB1443:
 5682              	.LBB1441:
 5683              	.LBB1439:
 5684              	.LBB1437:
  69:../libs/libDaisy/src/per/gpio.h ****         {
 5685              		.loc 17 69 73 view .LVU1601
 5686 0036 C0E90C77 		strd	r7, r7, [r0, #48]
 5687              	.LBE1437:
 5688              	.LBE1439:
 5689              	.LBE1441:
 5690              	.LBE1443:
 5691              	.LBE1486:
 5692              	.LBE1493:
 5693              	.LBE1499:
  17:src/PianoB.cpp **** 
 5694              		.loc 10 17 18 view .LVU1602
 5695 003a 2A46     		mov	r2, r5
 5696              	.LBB1500:
 5697              	.LBB1494:
 5698              	.LBB1487:
 5699              	.LBB1457:
 5700              	.LBB1455:
 5701              	.LBB1453:
 5702              	.LBB1451:
  69:../libs/libDaisy/src/per/gpio.h ****         {
ARM GAS  C:\Users\skipi\AppData\Local\Temp\cc6PZCfi.s 			page 156


 5703              		.loc 17 69 73 view .LVU1603
 5704 003c C0E91177 		strd	r7, r7, [r0, #68]
 5705              	.LBE1451:
 5706              	.LBE1453:
 5707              	.LBE1455:
 5708              	.LBE1457:
 5709              	.LBE1487:
 5710              	.LBB1488:
 5711              	.LBB1475:
 5712              	.LBB1473:
 5713              	.LBB1471:
 5714              	.LBB1469:
 5715              	.LBB1467:
 5716 0040 C0E91777 		strd	r7, r7, [r0, #92]
 5717              	.LBE1467:
 5718              	.LBE1469:
 5719              	.LBE1471:
 5720              	.LBE1473:
 5721              	.LBE1475:
 5722              	.LBE1488:
 5723              	.LBE1494:
 5724              	.LBE1500:
  17:src/PianoB.cpp **** 
 5725              		.loc 10 17 18 view .LVU1604
 5726 0044 FFF7FEFF 		bl	__aeabi_atexit
 5727              	.LVL437:
  21:src/PianoB.cpp **** static Ramo Bass1, Bass2;
 5728              		.loc 10 21 13 view .LVU1605
 5729 0048 3046     		mov	r0, r6
 5730 004a FFF7FEFF 		bl	_ZN4RamoC1Ev
 5731              	.LVL438:
 5732 004e 3046     		mov	r0, r6
  21:src/PianoB.cpp **** static Ramo Bass1, Bass2;
 5733              		.loc 10 21 21 view .LVU1606
 5734 0050 804E     		ldr	r6, .L74+20
  21:src/PianoB.cpp **** static Ramo Bass1, Bass2;
 5735              		.loc 10 21 13 view .LVU1607
 5736 0052 2A46     		mov	r2, r5
 5737 0054 2146     		mov	r1, r4
 5738 0056 FFF7FEFF 		bl	__aeabi_atexit
 5739              	.LVL439:
  21:src/PianoB.cpp **** static Ramo Bass1, Bass2;
 5740              		.loc 10 21 21 view .LVU1608
 5741 005a 3046     		mov	r0, r6
 5742 005c FFF7FEFF 		bl	_ZN4RamoC1Ev
 5743              	.LVL440:
 5744 0060 3046     		mov	r0, r6
  21:src/PianoB.cpp **** static Ramo Bass1, Bass2;
 5745              		.loc 10 21 29 view .LVU1609
 5746 0062 7D4E     		ldr	r6, .L74+24
  21:src/PianoB.cpp **** static Ramo Bass1, Bass2;
 5747              		.loc 10 21 21 view .LVU1610
 5748 0064 2A46     		mov	r2, r5
 5749 0066 2146     		mov	r1, r4
 5750 0068 FFF7FEFF 		bl	__aeabi_atexit
 5751              	.LVL441:
  21:src/PianoB.cpp **** static Ramo Bass1, Bass2;
ARM GAS  C:\Users\skipi\AppData\Local\Temp\cc6PZCfi.s 			page 157


 5752              		.loc 10 21 29 view .LVU1611
 5753 006c 3046     		mov	r0, r6
 5754 006e FFF7FEFF 		bl	_ZN4RamoC1Ev
 5755              	.LVL442:
 5756 0072 3046     		mov	r0, r6
  21:src/PianoB.cpp **** static Ramo Bass1, Bass2;
 5757              		.loc 10 21 37 view .LVU1612
 5758 0074 794E     		ldr	r6, .L74+28
  21:src/PianoB.cpp **** static Ramo Bass1, Bass2;
 5759              		.loc 10 21 29 view .LVU1613
 5760 0076 2A46     		mov	r2, r5
 5761 0078 2146     		mov	r1, r4
 5762 007a FFF7FEFF 		bl	__aeabi_atexit
 5763              	.LVL443:
  21:src/PianoB.cpp **** static Ramo Bass1, Bass2;
 5764              		.loc 10 21 37 view .LVU1614
 5765 007e 3046     		mov	r0, r6
 5766 0080 FFF7FEFF 		bl	_ZN4RamoC1Ev
 5767              	.LVL444:
 5768 0084 3046     		mov	r0, r6
  22:src/PianoB.cpp **** static Ramo Pad1, Pad2;                                                    // Object for the Ramo s
 5769              		.loc 10 22 13 view .LVU1615
 5770 0086 764E     		ldr	r6, .L74+32
  21:src/PianoB.cpp **** static Ramo Bass1, Bass2;
 5771              		.loc 10 21 37 view .LVU1616
 5772 0088 2A46     		mov	r2, r5
 5773 008a 2146     		mov	r1, r4
 5774 008c FFF7FEFF 		bl	__aeabi_atexit
 5775              	.LVL445:
  22:src/PianoB.cpp **** static Ramo Pad1, Pad2;                                                    // Object for the Ramo s
 5776              		.loc 10 22 13 view .LVU1617
 5777 0090 3046     		mov	r0, r6
 5778 0092 FFF7FEFF 		bl	_ZN4RamoC1Ev
 5779              	.LVL446:
 5780 0096 3046     		mov	r0, r6
  22:src/PianoB.cpp **** static Ramo Pad1, Pad2;                                                    // Object for the Ramo s
 5781              		.loc 10 22 20 view .LVU1618
 5782 0098 724E     		ldr	r6, .L74+36
  22:src/PianoB.cpp **** static Ramo Pad1, Pad2;                                                    // Object for the Ramo s
 5783              		.loc 10 22 13 view .LVU1619
 5784 009a 2A46     		mov	r2, r5
 5785 009c 2146     		mov	r1, r4
 5786 009e FFF7FEFF 		bl	__aeabi_atexit
 5787              	.LVL447:
  22:src/PianoB.cpp **** static Ramo Pad1, Pad2;                                                    // Object for the Ramo s
 5788              		.loc 10 22 20 view .LVU1620
 5789 00a2 3046     		mov	r0, r6
 5790 00a4 FFF7FEFF 		bl	_ZN4RamoC1Ev
 5791              	.LVL448:
 5792 00a8 3046     		mov	r0, r6
  23:src/PianoB.cpp ****  
 5793              		.loc 10 23 13 view .LVU1621
 5794 00aa 6F4E     		ldr	r6, .L74+40
  22:src/PianoB.cpp **** static Ramo Pad1, Pad2;                                                    // Object for the Ramo s
 5795              		.loc 10 22 20 view .LVU1622
 5796 00ac 2A46     		mov	r2, r5
 5797 00ae 2146     		mov	r1, r4
ARM GAS  C:\Users\skipi\AppData\Local\Temp\cc6PZCfi.s 			page 158


 5798 00b0 FFF7FEFF 		bl	__aeabi_atexit
 5799              	.LVL449:
  23:src/PianoB.cpp ****  
 5800              		.loc 10 23 13 view .LVU1623
 5801 00b4 3046     		mov	r0, r6
 5802 00b6 FFF7FEFF 		bl	_ZN4RamoC1Ev
 5803              	.LVL450:
 5804 00ba 3046     		mov	r0, r6
  23:src/PianoB.cpp ****  
 5805              		.loc 10 23 19 view .LVU1624
 5806 00bc 6B4E     		ldr	r6, .L74+44
  23:src/PianoB.cpp ****  
 5807              		.loc 10 23 13 view .LVU1625
 5808 00be 2A46     		mov	r2, r5
 5809 00c0 2146     		mov	r1, r4
 5810 00c2 FFF7FEFF 		bl	__aeabi_atexit
 5811              	.LVL451:
  23:src/PianoB.cpp ****  
 5812              		.loc 10 23 19 view .LVU1626
 5813 00c6 3046     		mov	r0, r6
 5814 00c8 FFF7FEFF 		bl	_ZN4RamoC1Ev
 5815              	.LVL452:
 5816 00cc 2146     		mov	r1, r4
  25:src/PianoB.cpp **** static Oscillator lfo_Bass1, lfo_Bass2;
 5817              		.loc 10 25 19 view .LVU1627
 5818 00ce 684C     		ldr	r4, .L74+48
  23:src/PianoB.cpp ****  
 5819              		.loc 10 23 19 view .LVU1628
 5820 00d0 2A46     		mov	r2, r5
 5821 00d2 3046     		mov	r0, r6
 5822              	.LBB1501:
 5823              	.LBB1502:
 5824              	.LBB1503:
  44:../libs/DaisySP/Source/Control/adsr.h ****     ~Adsr() {}
 5825              		.loc 7 44 12 view .LVU1629
 5826 00d4 674E     		ldr	r6, .L74+52
 5827              	.LBE1503:
 5828              	.LBE1502:
 5829              	.LBE1501:
  23:src/PianoB.cpp ****  
 5830              		.loc 10 23 19 view .LVU1630
 5831 00d6 FFF7FEFF 		bl	__aeabi_atexit
 5832              	.LVL453:
 5833              	.LBB1510:
 5834              	.LBI1510:
  23:../libs/DaisySP/Source/Synthesis/oscillator.h ****     ~Oscillator() {}
 5835              		.loc 8 23 5 is_stmt 1 view .LVU1631
  23:../libs/DaisySP/Source/Synthesis/oscillator.h ****     ~Oscillator() {}
 5836              		.loc 8 23 5 is_stmt 0 view .LVU1632
 5837              	.LBE1510:
  25:src/PianoB.cpp **** static Oscillator lfo_Bass1, lfo_Bass2;
 5838              		.loc 10 25 19 view .LVU1633
 5839 00da 2A46     		mov	r2, r5
 5840 00dc 2146     		mov	r1, r4
 5841 00de 6648     		ldr	r0, .L74+56
 5842 00e0 FFF7FEFF 		bl	__aeabi_atexit
 5843              	.LVL454:
ARM GAS  C:\Users\skipi\AppData\Local\Temp\cc6PZCfi.s 			page 159


 5844              	.LBB1511:
 5845              	.LBI1511:
  23:../libs/DaisySP/Source/Synthesis/oscillator.h ****     ~Oscillator() {}
 5846              		.loc 8 23 5 is_stmt 1 view .LVU1634
  23:../libs/DaisySP/Source/Synthesis/oscillator.h ****     ~Oscillator() {}
 5847              		.loc 8 23 5 is_stmt 0 view .LVU1635
 5848              	.LBE1511:
  25:src/PianoB.cpp **** static Oscillator lfo_Bass1, lfo_Bass2;
 5849              		.loc 10 25 31 view .LVU1636
 5850 00e4 2A46     		mov	r2, r5
 5851 00e6 2146     		mov	r1, r4
 5852 00e8 6448     		ldr	r0, .L74+60
 5853 00ea FFF7FEFF 		bl	__aeabi_atexit
 5854              	.LVL455:
 5855              	.LBB1512:
 5856              	.LBI1512:
  23:../libs/DaisySP/Source/Synthesis/oscillator.h ****     ~Oscillator() {}
 5857              		.loc 8 23 5 is_stmt 1 view .LVU1637
  23:../libs/DaisySP/Source/Synthesis/oscillator.h ****     ~Oscillator() {}
 5858              		.loc 8 23 5 is_stmt 0 view .LVU1638
 5859              	.LBE1512:
  25:src/PianoB.cpp **** static Oscillator lfo_Bass1, lfo_Bass2;
 5860              		.loc 10 25 43 view .LVU1639
 5861 00ee 2A46     		mov	r2, r5
 5862 00f0 2146     		mov	r1, r4
 5863 00f2 6348     		ldr	r0, .L74+64
 5864 00f4 FFF7FEFF 		bl	__aeabi_atexit
 5865              	.LVL456:
 5866              	.LBB1513:
 5867              	.LBI1513:
  23:../libs/DaisySP/Source/Synthesis/oscillator.h ****     ~Oscillator() {}
 5868              		.loc 8 23 5 is_stmt 1 view .LVU1640
  23:../libs/DaisySP/Source/Synthesis/oscillator.h ****     ~Oscillator() {}
 5869              		.loc 8 23 5 is_stmt 0 view .LVU1641
 5870              	.LBE1513:
  25:src/PianoB.cpp **** static Oscillator lfo_Bass1, lfo_Bass2;
 5871              		.loc 10 25 55 view .LVU1642
 5872 00f8 2A46     		mov	r2, r5
 5873 00fa 2146     		mov	r1, r4
 5874 00fc 6148     		ldr	r0, .L74+68
 5875 00fe FFF7FEFF 		bl	__aeabi_atexit
 5876              	.LVL457:
 5877              	.LBB1514:
 5878              	.LBI1514:
  23:../libs/DaisySP/Source/Synthesis/oscillator.h ****     ~Oscillator() {}
 5879              		.loc 8 23 5 is_stmt 1 view .LVU1643
  23:../libs/DaisySP/Source/Synthesis/oscillator.h ****     ~Oscillator() {}
 5880              		.loc 8 23 5 is_stmt 0 view .LVU1644
 5881              	.LBE1514:
  26:src/PianoB.cpp **** static Oscillator lfo_Pad1, lfo_Pad2;                                          // LFO object for mo
 5882              		.loc 10 26 19 view .LVU1645
 5883 0102 2A46     		mov	r2, r5
 5884 0104 2146     		mov	r1, r4
 5885 0106 6048     		ldr	r0, .L74+72
 5886 0108 FFF7FEFF 		bl	__aeabi_atexit
 5887              	.LVL458:
 5888              	.LBB1515:
ARM GAS  C:\Users\skipi\AppData\Local\Temp\cc6PZCfi.s 			page 160


 5889              	.LBI1515:
  23:../libs/DaisySP/Source/Synthesis/oscillator.h ****     ~Oscillator() {}
 5890              		.loc 8 23 5 is_stmt 1 view .LVU1646
  23:../libs/DaisySP/Source/Synthesis/oscillator.h ****     ~Oscillator() {}
 5891              		.loc 8 23 5 is_stmt 0 view .LVU1647
 5892              	.LBE1515:
  26:src/PianoB.cpp **** static Oscillator lfo_Pad1, lfo_Pad2;                                          // LFO object for mo
 5893              		.loc 10 26 30 view .LVU1648
 5894 010c 2A46     		mov	r2, r5
 5895 010e 2146     		mov	r1, r4
 5896 0110 5E48     		ldr	r0, .L74+76
 5897 0112 FFF7FEFF 		bl	__aeabi_atexit
 5898              	.LVL459:
 5899              	.LBB1516:
 5900              	.LBI1516:
  23:../libs/DaisySP/Source/Synthesis/oscillator.h ****     ~Oscillator() {}
 5901              		.loc 8 23 5 is_stmt 1 view .LVU1649
  23:../libs/DaisySP/Source/Synthesis/oscillator.h ****     ~Oscillator() {}
 5902              		.loc 8 23 5 is_stmt 0 view .LVU1650
 5903              	.LBE1516:
  27:src/PianoB.cpp **** 
 5904              		.loc 10 27 19 view .LVU1651
 5905 0116 2A46     		mov	r2, r5
 5906 0118 2146     		mov	r1, r4
 5907 011a 5D48     		ldr	r0, .L74+80
 5908 011c FFF7FEFF 		bl	__aeabi_atexit
 5909              	.LVL460:
 5910              	.LBB1517:
 5911              	.LBI1517:
  23:../libs/DaisySP/Source/Synthesis/oscillator.h ****     ~Oscillator() {}
 5912              		.loc 8 23 5 is_stmt 1 view .LVU1652
  23:../libs/DaisySP/Source/Synthesis/oscillator.h ****     ~Oscillator() {}
 5913              		.loc 8 23 5 is_stmt 0 view .LVU1653
 5914              	.LBE1517:
  27:src/PianoB.cpp **** 
 5915              		.loc 10 27 29 view .LVU1654
 5916 0120 2A46     		mov	r2, r5
 5917 0122 2146     		mov	r1, r4
 5918 0124 5B48     		ldr	r0, .L74+84
 5919              	.LBB1518:
 5920              	.LBB1507:
 5921              	.LBB1504:
  44:../libs/DaisySP/Source/Control/adsr.h ****     ~Adsr() {}
 5922              		.loc 7 44 12 view .LVU1655
 5923 0126 0024     		movs	r4, #0
 5924              	.LBE1504:
 5925              	.LBE1507:
 5926              	.LBE1518:
  27:src/PianoB.cpp **** 
 5927              		.loc 10 27 29 view .LVU1656
 5928 0128 FFF7FEFF 		bl	__aeabi_atexit
 5929              	.LVL461:
 5930              	.LBB1519:
 5931              	.LBI1501:
  44:../libs/DaisySP/Source/Control/adsr.h ****     ~Adsr() {}
 5932              		.loc 7 44 5 is_stmt 1 view .LVU1657
 5933              	.LBB1508:
ARM GAS  C:\Users\skipi\AppData\Local\Temp\cc6PZCfi.s 			page 161


 5934              	.LBB1505:
  44:../libs/DaisySP/Source/Control/adsr.h ****     ~Adsr() {}
 5935              		.loc 7 44 12 is_stmt 0 view .LVU1658
 5936 012c 5A48     		ldr	r0, .L74+88
 5937              	.LBE1505:
 5938              	.LBE1508:
 5939              	.LBE1519:
  29:src/PianoB.cpp **** static Adsr AmpEnv_Bass;
 5940              		.loc 10 29 13 view .LVU1659
 5941 012e 2A46     		mov	r2, r5
 5942 0130 5A49     		ldr	r1, .L74+92
 5943              	.LBB1520:
 5944              	.LBB1509:
 5945              	.LBB1506:
  44:../libs/DaisySP/Source/Control/adsr.h ****     ~Adsr() {}
 5946              		.loc 7 44 12 view .LVU1660
 5947 0132 8660     		str	r6, [r0, #8]	@ float
 5948 0134 0460     		str	r4, [r0]	@ float
 5949 0136 4460     		str	r4, [r0, #4]	@ float
 5950 0138 C460     		str	r4, [r0, #12]	@ float
 5951 013a 0661     		str	r6, [r0, #16]	@ float
 5952 013c 4661     		str	r6, [r0, #20]	@ float
 5953 013e 8661     		str	r6, [r0, #24]	@ float
 5954 0140 C461     		str	r4, [r0, #28]	@ float
 5955 0142 0462     		str	r4, [r0, #32]	@ float
 5956 0144 4462     		str	r4, [r0, #36]	@ float
 5957              	.LBE1506:
 5958 0146 8785     		strh	r7, [r0, #44]	@ movhi
 5959              	.LVL462:
  44:../libs/DaisySP/Source/Control/adsr.h ****     ~Adsr() {}
 5960              		.loc 7 44 12 view .LVU1661
 5961              	.LBE1509:
 5962              	.LBE1520:
  29:src/PianoB.cpp **** static Adsr AmpEnv_Bass;
 5963              		.loc 10 29 13 view .LVU1662
 5964 0148 FFF7FEFF 		bl	__aeabi_atexit
 5965              	.LVL463:
 5966              	.LBB1521:
 5967              	.LBI1521:
  44:../libs/DaisySP/Source/Control/adsr.h ****     ~Adsr() {}
 5968              		.loc 7 44 5 is_stmt 1 view .LVU1663
 5969              	.LBB1522:
 5970              	.LBB1523:
  44:../libs/DaisySP/Source/Control/adsr.h ****     ~Adsr() {}
 5971              		.loc 7 44 12 is_stmt 0 view .LVU1664
 5972 014c 5448     		ldr	r0, .L74+96
 5973              	.LBE1523:
 5974              	.LBE1522:
 5975              	.LBE1521:
  30:src/PianoB.cpp **** static Adsr AmpEnv_Pad;                                            // Envelope object for amplitude
 5976              		.loc 10 30 13 view .LVU1665
 5977 014e 2A46     		mov	r2, r5
 5978 0150 5249     		ldr	r1, .L74+92
 5979              	.LBB1526:
 5980              	.LBB1525:
 5981              	.LBB1524:
  44:../libs/DaisySP/Source/Control/adsr.h ****     ~Adsr() {}
ARM GAS  C:\Users\skipi\AppData\Local\Temp\cc6PZCfi.s 			page 162


 5982              		.loc 7 44 12 view .LVU1666
 5983 0152 0460     		str	r4, [r0]	@ float
 5984 0154 4460     		str	r4, [r0, #4]	@ float
 5985 0156 8660     		str	r6, [r0, #8]	@ float
 5986 0158 C460     		str	r4, [r0, #12]	@ float
 5987 015a 0661     		str	r6, [r0, #16]	@ float
 5988 015c 4661     		str	r6, [r0, #20]	@ float
 5989 015e 8661     		str	r6, [r0, #24]	@ float
 5990 0160 C461     		str	r4, [r0, #28]	@ float
 5991 0162 0462     		str	r4, [r0, #32]	@ float
 5992 0164 4462     		str	r4, [r0, #36]	@ float
 5993              	.LBE1524:
 5994 0166 8785     		strh	r7, [r0, #44]	@ movhi
 5995              	.LVL464:
  44:../libs/DaisySP/Source/Control/adsr.h ****     ~Adsr() {}
 5996              		.loc 7 44 12 view .LVU1667
 5997              	.LBE1525:
 5998              	.LBE1526:
  30:src/PianoB.cpp **** static Adsr AmpEnv_Pad;                                            // Envelope object for amplitude
 5999              		.loc 10 30 13 view .LVU1668
 6000 0168 FFF7FEFF 		bl	__aeabi_atexit
 6001              	.LVL465:
 6002              	.LBB1527:
 6003              	.LBI1527:
  44:../libs/DaisySP/Source/Control/adsr.h ****     ~Adsr() {}
 6004              		.loc 7 44 5 is_stmt 1 view .LVU1669
 6005              	.LBB1528:
 6006              	.LBB1529:
  44:../libs/DaisySP/Source/Control/adsr.h ****     ~Adsr() {}
 6007              		.loc 7 44 12 is_stmt 0 view .LVU1670
 6008 016c 4D48     		ldr	r0, .L74+100
 6009              	.LBE1529:
 6010              	.LBE1528:
 6011              	.LBE1527:
  31:src/PianoB.cpp **** 
 6012              		.loc 10 31 13 view .LVU1671
 6013 016e 2A46     		mov	r2, r5
 6014 0170 4A49     		ldr	r1, .L74+92
 6015              	.LBB1532:
 6016              	.LBB1531:
 6017              	.LBB1530:
  44:../libs/DaisySP/Source/Control/adsr.h ****     ~Adsr() {}
 6018              		.loc 7 44 12 view .LVU1672
 6019 0172 0460     		str	r4, [r0]	@ float
 6020 0174 4460     		str	r4, [r0, #4]	@ float
 6021 0176 8660     		str	r6, [r0, #8]	@ float
 6022 0178 C460     		str	r4, [r0, #12]	@ float
 6023 017a 0661     		str	r6, [r0, #16]	@ float
 6024 017c 4661     		str	r6, [r0, #20]	@ float
 6025 017e 8661     		str	r6, [r0, #24]	@ float
 6026 0180 C461     		str	r4, [r0, #28]	@ float
 6027 0182 0462     		str	r4, [r0, #32]	@ float
 6028 0184 4462     		str	r4, [r0, #36]	@ float
 6029              	.LBE1530:
 6030 0186 8785     		strh	r7, [r0, #44]	@ movhi
 6031              	.LVL466:
  44:../libs/DaisySP/Source/Control/adsr.h ****     ~Adsr() {}
ARM GAS  C:\Users\skipi\AppData\Local\Temp\cc6PZCfi.s 			page 163


 6032              		.loc 7 44 12 view .LVU1673
 6033              	.LBE1531:
 6034              	.LBE1532:
  31:src/PianoB.cpp **** 
 6035              		.loc 10 31 13 view .LVU1674
 6036 0188 FFF7FEFF 		bl	__aeabi_atexit
 6037              	.LVL467:
 6038              	.LBB1533:
 6039              	.LBI1533:
  44:../libs/DaisySP/Source/Control/adsr.h ****     ~Adsr() {}
 6040              		.loc 7 44 5 is_stmt 1 view .LVU1675
 6041              	.LBB1534:
 6042              	.LBB1535:
  44:../libs/DaisySP/Source/Control/adsr.h ****     ~Adsr() {}
 6043              		.loc 7 44 12 is_stmt 0 view .LVU1676
 6044 018c 4648     		ldr	r0, .L74+104
 6045              	.LBE1535:
 6046              	.LBE1534:
 6047              	.LBE1533:
  33:src/PianoB.cpp **** static Adsr FilterEnv_Bass;
 6048              		.loc 10 33 13 view .LVU1677
 6049 018e 2A46     		mov	r2, r5
 6050 0190 4249     		ldr	r1, .L74+92
 6051              	.LBB1538:
 6052              	.LBB1537:
 6053              	.LBB1536:
  44:../libs/DaisySP/Source/Control/adsr.h ****     ~Adsr() {}
 6054              		.loc 7 44 12 view .LVU1678
 6055 0192 0460     		str	r4, [r0]	@ float
 6056 0194 4460     		str	r4, [r0, #4]	@ float
 6057 0196 8660     		str	r6, [r0, #8]	@ float
 6058 0198 C460     		str	r4, [r0, #12]	@ float
 6059 019a 0661     		str	r6, [r0, #16]	@ float
 6060 019c 4661     		str	r6, [r0, #20]	@ float
 6061 019e 8661     		str	r6, [r0, #24]	@ float
 6062 01a0 C461     		str	r4, [r0, #28]	@ float
 6063 01a2 0462     		str	r4, [r0, #32]	@ float
 6064 01a4 4462     		str	r4, [r0, #36]	@ float
 6065              	.LBE1536:
 6066 01a6 8785     		strh	r7, [r0, #44]	@ movhi
 6067              	.LVL468:
  44:../libs/DaisySP/Source/Control/adsr.h ****     ~Adsr() {}
 6068              		.loc 7 44 12 view .LVU1679
 6069              	.LBE1537:
 6070              	.LBE1538:
  33:src/PianoB.cpp **** static Adsr FilterEnv_Bass;
 6071              		.loc 10 33 13 view .LVU1680
 6072 01a8 FFF7FEFF 		bl	__aeabi_atexit
 6073              	.LVL469:
 6074              	.LBB1539:
 6075              	.LBI1539:
  44:../libs/DaisySP/Source/Control/adsr.h ****     ~Adsr() {}
 6076              		.loc 7 44 5 is_stmt 1 view .LVU1681
 6077              	.LBB1540:
 6078              	.LBB1541:
  44:../libs/DaisySP/Source/Control/adsr.h ****     ~Adsr() {}
 6079              		.loc 7 44 12 is_stmt 0 view .LVU1682
ARM GAS  C:\Users\skipi\AppData\Local\Temp\cc6PZCfi.s 			page 164


 6080 01ac 3F48     		ldr	r0, .L74+108
 6081              	.LBE1541:
 6082              	.LBE1540:
 6083              	.LBE1539:
  34:src/PianoB.cpp **** static Adsr FilterEnv_Pad;                                        // Envelope object for filter
 6084              		.loc 10 34 13 view .LVU1683
 6085 01ae 2A46     		mov	r2, r5
 6086 01b0 3A49     		ldr	r1, .L74+92
 6087              	.LBB1544:
 6088              	.LBB1543:
 6089              	.LBB1542:
  44:../libs/DaisySP/Source/Control/adsr.h ****     ~Adsr() {}
 6090              		.loc 7 44 12 view .LVU1684
 6091 01b2 0460     		str	r4, [r0]	@ float
 6092 01b4 4460     		str	r4, [r0, #4]	@ float
 6093 01b6 8660     		str	r6, [r0, #8]	@ float
 6094 01b8 C460     		str	r4, [r0, #12]	@ float
 6095 01ba 0661     		str	r6, [r0, #16]	@ float
 6096 01bc 4661     		str	r6, [r0, #20]	@ float
 6097 01be 8661     		str	r6, [r0, #24]	@ float
 6098 01c0 C461     		str	r4, [r0, #28]	@ float
 6099 01c2 0462     		str	r4, [r0, #32]	@ float
 6100 01c4 4462     		str	r4, [r0, #36]	@ float
 6101              	.LBE1542:
 6102 01c6 8785     		strh	r7, [r0, #44]	@ movhi
 6103              	.LVL470:
  44:../libs/DaisySP/Source/Control/adsr.h ****     ~Adsr() {}
 6104              		.loc 7 44 12 view .LVU1685
 6105              	.LBE1543:
 6106              	.LBE1544:
  34:src/PianoB.cpp **** static Adsr FilterEnv_Pad;                                        // Envelope object for filter
 6107              		.loc 10 34 13 view .LVU1686
 6108 01c8 FFF7FEFF 		bl	__aeabi_atexit
 6109              	.LVL471:
 6110              	.LBB1545:
 6111              	.LBI1545:
  44:../libs/DaisySP/Source/Control/adsr.h ****     ~Adsr() {}
 6112              		.loc 7 44 5 is_stmt 1 view .LVU1687
 6113              	.LBB1546:
 6114              	.LBB1547:
  44:../libs/DaisySP/Source/Control/adsr.h ****     ~Adsr() {}
 6115              		.loc 7 44 12 is_stmt 0 view .LVU1688
 6116 01cc 3848     		ldr	r0, .L74+112
 6117              	.LBE1547:
 6118              	.LBE1546:
 6119              	.LBE1545:
  35:src/PianoB.cpp **** 
 6120              		.loc 10 35 13 view .LVU1689
 6121 01ce 2A46     		mov	r2, r5
 6122 01d0 3249     		ldr	r1, .L74+92
 6123              	.LBB1550:
 6124              	.LBB1549:
  44:../libs/DaisySP/Source/Control/adsr.h ****     ~Adsr() {}
 6125              		.loc 7 44 12 view .LVU1690
 6126 01d2 8785     		strh	r7, [r0, #44]	@ movhi
 6127              	.LVL472:
 6128              	.LBB1548:
ARM GAS  C:\Users\skipi\AppData\Local\Temp\cc6PZCfi.s 			page 165


  44:../libs/DaisySP/Source/Control/adsr.h ****     ~Adsr() {}
 6129              		.loc 7 44 12 view .LVU1691
 6130 01d4 0460     		str	r4, [r0]	@ float
 6131 01d6 4460     		str	r4, [r0, #4]	@ float
 6132 01d8 8660     		str	r6, [r0, #8]	@ float
 6133 01da C460     		str	r4, [r0, #12]	@ float
 6134 01dc 0661     		str	r6, [r0, #16]	@ float
 6135 01de 4661     		str	r6, [r0, #20]	@ float
 6136 01e0 8661     		str	r6, [r0, #24]	@ float
 6137 01e2 C461     		str	r4, [r0, #28]	@ float
 6138 01e4 0462     		str	r4, [r0, #32]	@ float
 6139 01e6 4462     		str	r4, [r0, #36]	@ float
 6140              	.LBE1548:
 6141              	.LBE1549:
 6142              	.LBE1550:
  35:src/PianoB.cpp **** 
 6143              		.loc 10 35 13 view .LVU1692
 6144 01e8 FFF7FEFF 		bl	__aeabi_atexit
 6145              	.LVL473:
 6146              	.LBB1551:
 6147              	.LBI1551:
  29:../libs/DaisySP/Source/Filters/svf.h ****     ~Svf() {}
 6148              		.loc 9 29 5 is_stmt 1 view .LVU1693
  29:../libs/DaisySP/Source/Filters/svf.h ****     ~Svf() {}
 6149              		.loc 9 29 5 is_stmt 0 view .LVU1694
 6150              	.LBE1551:
  37:src/PianoB.cpp **** static Svf filter_Bass1, filter_Bass2;
 6151              		.loc 10 37 12 view .LVU1695
 6152 01ec 2A46     		mov	r2, r5
 6153 01ee 4146     		mov	r1, r8
 6154 01f0 3048     		ldr	r0, .L74+116
 6155 01f2 FFF7FEFF 		bl	__aeabi_atexit
 6156              	.LVL474:
 6157              	.LBB1552:
 6158              	.LBI1552:
  29:../libs/DaisySP/Source/Filters/svf.h ****     ~Svf() {}
 6159              		.loc 9 29 5 is_stmt 1 view .LVU1696
  29:../libs/DaisySP/Source/Filters/svf.h ****     ~Svf() {}
 6160              		.loc 9 29 5 is_stmt 0 view .LVU1697
 6161              	.LBE1552:
  37:src/PianoB.cpp **** static Svf filter_Bass1, filter_Bass2;
 6162              		.loc 10 37 27 view .LVU1698
 6163 01f6 2A46     		mov	r2, r5
 6164 01f8 4146     		mov	r1, r8
 6165 01fa 2F48     		ldr	r0, .L74+120
 6166 01fc FFF7FEFF 		bl	__aeabi_atexit
 6167              	.LVL475:
 6168              	.LBB1553:
 6169              	.LBI1553:
  29:../libs/DaisySP/Source/Filters/svf.h ****     ~Svf() {}
 6170              		.loc 9 29 5 is_stmt 1 view .LVU1699
  29:../libs/DaisySP/Source/Filters/svf.h ****     ~Svf() {}
 6171              		.loc 9 29 5 is_stmt 0 view .LVU1700
 6172              	.LBE1553:
  37:src/PianoB.cpp **** static Svf filter_Bass1, filter_Bass2;
 6173              		.loc 10 37 42 view .LVU1701
 6174 0200 2A46     		mov	r2, r5
ARM GAS  C:\Users\skipi\AppData\Local\Temp\cc6PZCfi.s 			page 166


 6175 0202 4146     		mov	r1, r8
 6176 0204 2D48     		ldr	r0, .L74+124
 6177 0206 FFF7FEFF 		bl	__aeabi_atexit
 6178              	.LVL476:
 6179              	.LBB1554:
 6180              	.LBI1554:
  29:../libs/DaisySP/Source/Filters/svf.h ****     ~Svf() {}
 6181              		.loc 9 29 5 is_stmt 1 view .LVU1702
  29:../libs/DaisySP/Source/Filters/svf.h ****     ~Svf() {}
 6182              		.loc 9 29 5 is_stmt 0 view .LVU1703
 6183              	.LBE1554:
  37:src/PianoB.cpp **** static Svf filter_Bass1, filter_Bass2;
 6184              		.loc 10 37 57 view .LVU1704
 6185 020a 2A46     		mov	r2, r5
 6186 020c 4146     		mov	r1, r8
 6187 020e 2C48     		ldr	r0, .L74+128
 6188 0210 FFF7FEFF 		bl	__aeabi_atexit
 6189              	.LVL477:
 6190              	.LBB1555:
 6191              	.LBI1555:
  29:../libs/DaisySP/Source/Filters/svf.h ****     ~Svf() {}
 6192              		.loc 9 29 5 is_stmt 1 view .LVU1705
  29:../libs/DaisySP/Source/Filters/svf.h ****     ~Svf() {}
 6193              		.loc 9 29 5 is_stmt 0 view .LVU1706
 6194              	.LBE1555:
  38:src/PianoB.cpp **** static Svf filter_Pad1, filter_Pad2;                                          // Filter object for 
 6195              		.loc 10 38 12 view .LVU1707
 6196 0214 2A46     		mov	r2, r5
 6197 0216 4146     		mov	r1, r8
 6198 0218 2A48     		ldr	r0, .L74+132
 6199 021a FFF7FEFF 		bl	__aeabi_atexit
 6200              	.LVL478:
 6201              	.LBB1556:
 6202              	.LBI1556:
  29:../libs/DaisySP/Source/Filters/svf.h ****     ~Svf() {}
 6203              		.loc 9 29 5 is_stmt 1 view .LVU1708
  29:../libs/DaisySP/Source/Filters/svf.h ****     ~Svf() {}
 6204              		.loc 9 29 5 is_stmt 0 view .LVU1709
 6205              	.LBE1556:
  38:src/PianoB.cpp **** static Svf filter_Pad1, filter_Pad2;                                          // Filter object for 
 6206              		.loc 10 38 26 view .LVU1710
 6207 021e 2A46     		mov	r2, r5
 6208 0220 4146     		mov	r1, r8
 6209 0222 2948     		ldr	r0, .L74+136
 6210 0224 FFF7FEFF 		bl	__aeabi_atexit
 6211              	.LVL479:
 6212              	.LBB1557:
 6213              	.LBI1557:
  29:../libs/DaisySP/Source/Filters/svf.h ****     ~Svf() {}
 6214              		.loc 9 29 5 is_stmt 1 view .LVU1711
  29:../libs/DaisySP/Source/Filters/svf.h ****     ~Svf() {}
 6215              		.loc 9 29 5 is_stmt 0 view .LVU1712
 6216              	.LBE1557:
  39:src/PianoB.cpp **** 
 6217              		.loc 10 39 12 view .LVU1713
 6218 0228 2A46     		mov	r2, r5
 6219 022a 4146     		mov	r1, r8
ARM GAS  C:\Users\skipi\AppData\Local\Temp\cc6PZCfi.s 			page 167


 6220 022c 2748     		ldr	r0, .L74+140
 6221 022e FFF7FEFF 		bl	__aeabi_atexit
 6222              	.LVL480:
 6223              	.LBB1558:
 6224              	.LBI1558:
  29:../libs/DaisySP/Source/Filters/svf.h ****     ~Svf() {}
 6225              		.loc 9 29 5 is_stmt 1 view .LVU1714
  29:../libs/DaisySP/Source/Filters/svf.h ****     ~Svf() {}
 6226              		.loc 9 29 5 is_stmt 0 view .LVU1715
 6227              	.LBE1558:
  39:src/PianoB.cpp **** 
 6228              		.loc 10 39 25 view .LVU1716
 6229 0232 2A46     		mov	r2, r5
 6230 0234 4146     		mov	r1, r8
 6231 0236 2648     		ldr	r0, .L74+144
 6232              	.LBE1559:
 6233              	.LBE1561:
 6234              		.loc 10 442 1 view .LVU1717
 6235 0238 BDE8F041 		pop	{r4, r5, r6, r7, r8, lr}
 6236              		.cfi_restore 14
 6237              		.cfi_restore 8
 6238              		.cfi_restore 7
 6239              		.cfi_restore 6
 6240              		.cfi_restore 5
 6241              		.cfi_restore 4
 6242              		.cfi_def_cfa_offset 0
 6243              	.LBB1562:
 6244              	.LBB1560:
  39:src/PianoB.cpp **** 
 6245              		.loc 10 39 25 view .LVU1718
 6246 023c FFF7FEBF 		b	__aeabi_atexit
 6247              	.LVL481:
 6248              	.L75:
 6249              		.align	2
 6250              	.L74:
 6251 0240 00000000 		.word	__dso_handle
 6252 0244 00000000 		.word	.LANCHOR89
 6253 0248 00000000 		.word	.LANCHOR24
 6254 024c 00000000 		.word	_ZN5daisy9DaisySeedD1Ev
 6255 0250 00000000 		.word	_ZN4RamoD1Ev
 6256 0254 00000000 		.word	.LANCHOR25
 6257 0258 00000000 		.word	.LANCHOR26
 6258 025c 00000000 		.word	.LANCHOR27
 6259 0260 00000000 		.word	.LANCHOR28
 6260 0264 00000000 		.word	.LANCHOR29
 6261 0268 00000000 		.word	.LANCHOR30
 6262 026c 00000000 		.word	.LANCHOR31
 6263 0270 00000000 		.word	_ZN7daisysp10OscillatorD1Ev
 6264 0274 000080BF 		.word	-1082130432
 6265 0278 00000000 		.word	.LANCHOR1
 6266 027c 00000000 		.word	.LANCHOR3
 6267 0280 00000000 		.word	.LANCHOR5
 6268 0284 00000000 		.word	.LANCHOR7
 6269 0288 00000000 		.word	.LANCHOR9
 6270 028c 00000000 		.word	.LANCHOR11
 6271 0290 00000000 		.word	.LANCHOR13
 6272 0294 00000000 		.word	.LANCHOR15
ARM GAS  C:\Users\skipi\AppData\Local\Temp\cc6PZCfi.s 			page 168


 6273 0298 00000000 		.word	.LANCHOR41
 6274 029c 00000000 		.word	_ZN7daisysp4AdsrD1Ev
 6275 02a0 00000000 		.word	.LANCHOR49
 6276 02a4 00000000 		.word	.LANCHOR46
 6277 02a8 00000000 		.word	.LANCHOR52
 6278 02ac 00000000 		.word	.LANCHOR60
 6279 02b0 00000000 		.word	.LANCHOR57
 6280 02b4 00000000 		.word	.LANCHOR65
 6281 02b8 00000000 		.word	.LANCHOR66
 6282 02bc 00000000 		.word	.LANCHOR67
 6283 02c0 00000000 		.word	.LANCHOR68
 6284 02c4 00000000 		.word	.LANCHOR71
 6285 02c8 00000000 		.word	.LANCHOR72
 6286 02cc 00000000 		.word	.LANCHOR75
 6287 02d0 00000000 		.word	.LANCHOR76
 6288 02d4 00000000 		.word	_ZN7daisysp3SvfD1Ev
 6289              	.LBE1560:
 6290              	.LBE1562:
 6291              		.cfi_endproc
 6292              	.LFE5395:
 6294              		.section	.init_array,"aw",%init_array
 6295              		.align	2
 6296 0000 00000000 		.word	_GLOBAL__sub_I_wf_Pluck(target1)
 6297              		.global	knob
 6298              		.global	Gate
 6299              		.global	filt_env_Pad2
 6300              		.global	filt_env_Pad1
 6301              		.global	filt_env_Bass2
 6302              		.global	filt_env_Bass1
 6303              		.global	filt_env_Pluck4
 6304              		.global	filt_env_Pluck3
 6305              		.global	filt_env_Pluck2
 6306              		.global	filt_env_Pluck1
 6307              		.global	amp_env_Pad2
 6308              		.global	amp_env_Pad1
 6309              		.global	amp_env_Bass2
 6310              		.global	amp_env_Bass1
 6311              		.global	amp_env_Pluck4
 6312              		.global	amp_env_Pluck3
 6313              		.global	amp_env_Pluck2
 6314              		.global	amp_env_Pluck1
 6315              		.global	shape_Pad2
 6316              		.global	shape_Pad1
 6317              		.global	shape_Bass2
 6318              		.global	shape_Bass1
 6319              		.global	shape_Pluck4
 6320              		.global	shape_Pluck3
 6321              		.global	shape_Pluck2
 6322              		.global	shape_Pluck1
 6323              		.global	now_f_Pad2
 6324              		.global	now_f_Pad1
 6325              		.global	now_f_Bass2
 6326              		.global	now_f_Bass1
 6327              		.global	now_f_Pluck4
 6328              		.global	now_f_Pluck3
 6329              		.global	now_f_Pluck2
 6330              		.global	now_f_Pluck1
ARM GAS  C:\Users\skipi\AppData\Local\Temp\cc6PZCfi.s 			page 169


 6331              		.global	now_f_lfo_Pad2
 6332              		.global	now_f_lfo_Pad1
 6333              		.global	now_f_lfo_Pluck4
 6334              		.global	now_f_lfo_Pluck3
 6335              		.global	now_f_lfo_Pluck2
 6336              		.global	now_f_lfo_Pluck1
 6337              		.global	now_f_lfo_Bass2
 6338              		.global	now_f_lfo_Bass1
 6339              		.global	out_noFX
 6340              		.global	Raw_Pad2
 6341              		.global	Raw_Pad1
 6342              		.global	Raw_Bass2
 6343              		.global	Raw_Bass1
 6344              		.global	Raw_Pluck4
 6345              		.global	Raw_Pluck3
 6346              		.global	Raw_Pluck2
 6347              		.global	Raw_Pluck1
 6348              		.global	delayTime
 6349              		.global	time
 6350              		.global	mix_amp_Bass
 6351              		.global	Bass_Filter_ADSR
 6352              		.global	Bass_Amp_ADSR
 6353              		.global	drive_bass
 6354              		.global	res_bass
 6355              		.global	amp_lfo_Bass
 6356              		.global	Gate_Bass
 6357              		.global	ft_bass
 6358              		.global	f_lfo_Bass
 6359              		.global	f_Bass
 6360              		.global	g_Bass
 6361              		.global	f_EG_bass
 6362              		.global	ef_Bass
 6363              		.global	wf_Bass
 6364              		.global	mix_amp_Pad
 6365              		.global	Pad_Filter_ADSR
 6366              		.global	Pad_Amp_ADSR
 6367              		.global	drive_pad
 6368              		.global	res_pad
 6369              		.global	amp_lfo_Pad
 6370              		.global	Gate_Pad
 6371              		.global	ft_pad
 6372              		.global	f_lfo_Pad
 6373              		.global	f_Pad
 6374              		.global	g_Pad
 6375              		.global	f_EG_pad
 6376              		.global	ef_Pad
 6377              		.global	wf_Pad
 6378              		.global	mix_amp_Pluck
 6379              		.global	Pluck_Filter_ADSR
 6380              		.global	Pluck_Amp_ADSR
 6381              		.global	drive_pluck
 6382              		.global	res_pluck
 6383              		.global	amp_lfo_Pluck
 6384              		.global	Gate_Pluck
 6385              		.global	ft_pluck
 6386              		.global	f_lfo_Pluck
 6387              		.global	f_Pluck
ARM GAS  C:\Users\skipi\AppData\Local\Temp\cc6PZCfi.s 			page 170


 6388              		.global	g_Pluck
 6389              		.global	f_EG_pluck
 6390              		.global	ef_Pluck
 6391              		.global	wf_Pluck
 6392              		.section	.bss.Gate,"aw",%nobits
 6393              		.align	2
 6394              		.set	.LANCHOR40,. + 0
 6397              	Gate:
 6398 0000 00000000 		.space	32
 6398      00000000 
 6398      00000000 
 6398      00000000 
 6398      00000000 
 6399              		.section	.bss.Gate_Bass,"aw",%nobits
 6402              	Gate_Bass:
 6403 0000 00       		.space	1
 6404              		.section	.bss.Gate_Pad,"aw",%nobits
 6407              	Gate_Pad:
 6408 0000 00       		.space	1
 6409              		.section	.bss.Gate_Pluck,"aw",%nobits
 6412              	Gate_Pluck:
 6413 0000 00       		.space	1
 6414              		.section	.bss.Raw_Bass1,"aw",%nobits
 6415              		.align	2
 6416              		.set	.LANCHOR81,. + 0
 6419              	Raw_Bass1:
 6420 0000 00000000 		.space	4
 6421              		.section	.bss.Raw_Bass2,"aw",%nobits
 6422              		.align	2
 6423              		.set	.LANCHOR82,. + 0
 6426              	Raw_Bass2:
 6427 0000 00000000 		.space	4
 6428              		.section	.bss.Raw_Pad1,"aw",%nobits
 6429              		.align	2
 6430              		.set	.LANCHOR83,. + 0
 6433              	Raw_Pad1:
 6434 0000 00000000 		.space	4
 6435              		.section	.bss.Raw_Pad2,"aw",%nobits
 6436              		.align	2
 6437              		.set	.LANCHOR84,. + 0
 6440              	Raw_Pad2:
 6441 0000 00000000 		.space	4
 6442              		.section	.bss.Raw_Pluck1,"aw",%nobits
 6443              		.align	2
 6444              		.set	.LANCHOR77,. + 0
 6447              	Raw_Pluck1:
 6448 0000 00000000 		.space	4
 6449              		.section	.bss.Raw_Pluck2,"aw",%nobits
 6450              		.align	2
 6451              		.set	.LANCHOR78,. + 0
 6454              	Raw_Pluck2:
 6455 0000 00000000 		.space	4
 6456              		.section	.bss.Raw_Pluck3,"aw",%nobits
 6457              		.align	2
 6458              		.set	.LANCHOR79,. + 0
 6461              	Raw_Pluck3:
 6462 0000 00000000 		.space	4
ARM GAS  C:\Users\skipi\AppData\Local\Temp\cc6PZCfi.s 			page 171


 6463              		.section	.bss.Raw_Pluck4,"aw",%nobits
 6464              		.align	2
 6465              		.set	.LANCHOR80,. + 0
 6468              	Raw_Pluck4:
 6469 0000 00000000 		.space	4
 6470              		.section	.bss._ZL10AmpEnv_Pad,"aw",%nobits
 6471              		.align	2
 6472              		.set	.LANCHOR46,. + 0
 6475              	_ZL10AmpEnv_Pad:
 6476 0000 00000000 		.space	48
 6476      00000000 
 6476      00000000 
 6476      00000000 
 6476      00000000 
 6477              		.section	.bss._ZL10lfo_Pluck1,"aw",%nobits
 6478              		.align	2
 6479              		.set	.LANCHOR1,. + 0
 6482              	_ZL10lfo_Pluck1:
 6483 0000 00000000 		.space	44
 6483      00000000 
 6483      00000000 
 6483      00000000 
 6483      00000000 
 6484              		.section	.bss._ZL10lfo_Pluck2,"aw",%nobits
 6485              		.align	2
 6486              		.set	.LANCHOR3,. + 0
 6489              	_ZL10lfo_Pluck2:
 6490 0000 00000000 		.space	44
 6490      00000000 
 6490      00000000 
 6490      00000000 
 6490      00000000 
 6491              		.section	.bss._ZL10lfo_Pluck3,"aw",%nobits
 6492              		.align	2
 6493              		.set	.LANCHOR5,. + 0
 6496              	_ZL10lfo_Pluck3:
 6497 0000 00000000 		.space	44
 6497      00000000 
 6497      00000000 
 6497      00000000 
 6497      00000000 
 6498              		.section	.bss._ZL10lfo_Pluck4,"aw",%nobits
 6499              		.align	2
 6500              		.set	.LANCHOR7,. + 0
 6503              	_ZL10lfo_Pluck4:
 6504 0000 00000000 		.space	44
 6504      00000000 
 6504      00000000 
 6504      00000000 
 6504      00000000 
 6505              		.section	.bss._ZL11AmpEnv_Bass,"aw",%nobits
 6506              		.align	2
 6507              		.set	.LANCHOR49,. + 0
 6510              	_ZL11AmpEnv_Bass:
 6511 0000 00000000 		.space	48
 6511      00000000 
 6511      00000000 
ARM GAS  C:\Users\skipi\AppData\Local\Temp\cc6PZCfi.s 			page 172


 6511      00000000 
 6511      00000000 
 6512              		.section	.bss._ZL11filter_Pad1,"aw",%nobits
 6513              		.align	2
 6514              		.set	.LANCHOR75,. + 0
 6517              	_ZL11filter_Pad1:
 6518 0000 00000000 		.space	76
 6518      00000000 
 6518      00000000 
 6518      00000000 
 6518      00000000 
 6519              		.section	.bss._ZL11filter_Pad2,"aw",%nobits
 6520              		.align	2
 6521              		.set	.LANCHOR76,. + 0
 6524              	_ZL11filter_Pad2:
 6525 0000 00000000 		.space	76
 6525      00000000 
 6525      00000000 
 6525      00000000 
 6525      00000000 
 6526              		.section	.bss._ZL12AmpEnv_Pluck,"aw",%nobits
 6527              		.align	2
 6528              		.set	.LANCHOR41,. + 0
 6531              	_ZL12AmpEnv_Pluck:
 6532 0000 00000000 		.space	48
 6532      00000000 
 6532      00000000 
 6532      00000000 
 6532      00000000 
 6533              		.section	.bss._ZL12filter_Bass1,"aw",%nobits
 6534              		.align	2
 6535              		.set	.LANCHOR71,. + 0
 6538              	_ZL12filter_Bass1:
 6539 0000 00000000 		.space	76
 6539      00000000 
 6539      00000000 
 6539      00000000 
 6539      00000000 
 6540              		.section	.bss._ZL12filter_Bass2,"aw",%nobits
 6541              		.align	2
 6542              		.set	.LANCHOR72,. + 0
 6545              	_ZL12filter_Bass2:
 6546 0000 00000000 		.space	76
 6546      00000000 
 6546      00000000 
 6546      00000000 
 6546      00000000 
 6547              		.section	.bss._ZL13FilterEnv_Pad,"aw",%nobits
 6548              		.align	2
 6549              		.set	.LANCHOR57,. + 0
 6552              	_ZL13FilterEnv_Pad:
 6553 0000 00000000 		.space	48
 6553      00000000 
 6553      00000000 
 6553      00000000 
 6553      00000000 
 6554              		.section	.bss._ZL13filter_Pluck1,"aw",%nobits
ARM GAS  C:\Users\skipi\AppData\Local\Temp\cc6PZCfi.s 			page 173


 6555              		.align	2
 6556              		.set	.LANCHOR65,. + 0
 6559              	_ZL13filter_Pluck1:
 6560 0000 00000000 		.space	76
 6560      00000000 
 6560      00000000 
 6560      00000000 
 6560      00000000 
 6561              		.section	.bss._ZL13filter_Pluck2,"aw",%nobits
 6562              		.align	2
 6563              		.set	.LANCHOR66,. + 0
 6566              	_ZL13filter_Pluck2:
 6567 0000 00000000 		.space	76
 6567      00000000 
 6567      00000000 
 6567      00000000 
 6567      00000000 
 6568              		.section	.bss._ZL13filter_Pluck3,"aw",%nobits
 6569              		.align	2
 6570              		.set	.LANCHOR67,. + 0
 6573              	_ZL13filter_Pluck3:
 6574 0000 00000000 		.space	76
 6574      00000000 
 6574      00000000 
 6574      00000000 
 6574      00000000 
 6575              		.section	.bss._ZL13filter_Pluck4,"aw",%nobits
 6576              		.align	2
 6577              		.set	.LANCHOR68,. + 0
 6580              	_ZL13filter_Pluck4:
 6581 0000 00000000 		.space	76
 6581      00000000 
 6581      00000000 
 6581      00000000 
 6581      00000000 
 6582              		.section	.bss._ZL14FilterEnv_Bass,"aw",%nobits
 6583              		.align	2
 6584              		.set	.LANCHOR60,. + 0
 6587              	_ZL14FilterEnv_Bass:
 6588 0000 00000000 		.space	48
 6588      00000000 
 6588      00000000 
 6588      00000000 
 6588      00000000 
 6589              		.section	.bss._ZL15FilterEnv_Pluck,"aw",%nobits
 6590              		.align	2
 6591              		.set	.LANCHOR52,. + 0
 6594              	_ZL15FilterEnv_Pluck:
 6595 0000 00000000 		.space	48
 6595      00000000 
 6595      00000000 
 6595      00000000 
 6595      00000000 
 6596              		.section	.bss._ZL2hw,"aw",%nobits
 6597              		.align	2
 6598              		.set	.LANCHOR89,. + 0
 6601              	_ZL2hw:
ARM GAS  C:\Users\skipi\AppData\Local\Temp\cc6PZCfi.s 			page 174


 6602 0000 00000000 		.space	116
 6602      00000000 
 6602      00000000 
 6602      00000000 
 6602      00000000 
 6603              		.section	.bss._ZL4Pad1,"aw",%nobits
 6604              		.align	2
 6605              		.set	.LANCHOR30,. + 0
 6608              	_ZL4Pad1:
 6609 0000 00000000 		.space	60
 6609      00000000 
 6609      00000000 
 6609      00000000 
 6609      00000000 
 6610              		.section	.bss._ZL4Pad2,"aw",%nobits
 6611              		.align	2
 6612              		.set	.LANCHOR31,. + 0
 6615              	_ZL4Pad2:
 6616 0000 00000000 		.space	60
 6616      00000000 
 6616      00000000 
 6616      00000000 
 6616      00000000 
 6617              		.section	.bss._ZL5Bass1,"aw",%nobits
 6618              		.align	2
 6619              		.set	.LANCHOR28,. + 0
 6622              	_ZL5Bass1:
 6623 0000 00000000 		.space	60
 6623      00000000 
 6623      00000000 
 6623      00000000 
 6623      00000000 
 6624              		.section	.bss._ZL5Bass2,"aw",%nobits
 6625              		.align	2
 6626              		.set	.LANCHOR29,. + 0
 6629              	_ZL5Bass2:
 6630 0000 00000000 		.space	60
 6630      00000000 
 6630      00000000 
 6630      00000000 
 6630      00000000 
 6631              		.section	.bss._ZL6Pluck1,"aw",%nobits
 6632              		.align	2
 6633              		.set	.LANCHOR24,. + 0
 6636              	_ZL6Pluck1:
 6637 0000 00000000 		.space	60
 6637      00000000 
 6637      00000000 
 6637      00000000 
 6637      00000000 
 6638              		.section	.bss._ZL6Pluck2,"aw",%nobits
 6639              		.align	2
 6640              		.set	.LANCHOR25,. + 0
 6643              	_ZL6Pluck2:
 6644 0000 00000000 		.space	60
 6644      00000000 
 6644      00000000 
ARM GAS  C:\Users\skipi\AppData\Local\Temp\cc6PZCfi.s 			page 175


 6644      00000000 
 6644      00000000 
 6645              		.section	.bss._ZL6Pluck3,"aw",%nobits
 6646              		.align	2
 6647              		.set	.LANCHOR26,. + 0
 6650              	_ZL6Pluck3:
 6651 0000 00000000 		.space	60
 6651      00000000 
 6651      00000000 
 6651      00000000 
 6651      00000000 
 6652              		.section	.bss._ZL6Pluck4,"aw",%nobits
 6653              		.align	2
 6654              		.set	.LANCHOR27,. + 0
 6657              	_ZL6Pluck4:
 6658 0000 00000000 		.space	60
 6658      00000000 
 6658      00000000 
 6658      00000000 
 6658      00000000 
 6659              		.section	.bss._ZL8lfo_Pad1,"aw",%nobits
 6660              		.align	2
 6661              		.set	.LANCHOR13,. + 0
 6664              	_ZL8lfo_Pad1:
 6665 0000 00000000 		.space	44
 6665      00000000 
 6665      00000000 
 6665      00000000 
 6665      00000000 
 6666              		.section	.bss._ZL8lfo_Pad2,"aw",%nobits
 6667              		.align	2
 6668              		.set	.LANCHOR15,. + 0
 6671              	_ZL8lfo_Pad2:
 6672 0000 00000000 		.space	44
 6672      00000000 
 6672      00000000 
 6672      00000000 
 6672      00000000 
 6673              		.section	.bss._ZL9lfo_Bass1,"aw",%nobits
 6674              		.align	2
 6675              		.set	.LANCHOR9,. + 0
 6678              	_ZL9lfo_Bass1:
 6679 0000 00000000 		.space	44
 6679      00000000 
 6679      00000000 
 6679      00000000 
 6679      00000000 
 6680              		.section	.bss._ZL9lfo_Bass2,"aw",%nobits
 6681              		.align	2
 6682              		.set	.LANCHOR11,. + 0
 6685              	_ZL9lfo_Bass2:
 6686 0000 00000000 		.space	44
 6686      00000000 
 6686      00000000 
 6686      00000000 
 6686      00000000 
 6687              		.section	.bss.amp_env_Bass1,"aw",%nobits
ARM GAS  C:\Users\skipi\AppData\Local\Temp\cc6PZCfi.s 			page 176


 6688              		.align	2
 6689              		.set	.LANCHOR50,. + 0
 6692              	amp_env_Bass1:
 6693 0000 00000000 		.space	4
 6694              		.section	.bss.amp_env_Bass2,"aw",%nobits
 6695              		.align	2
 6696              		.set	.LANCHOR51,. + 0
 6699              	amp_env_Bass2:
 6700 0000 00000000 		.space	4
 6701              		.section	.bss.amp_env_Pad1,"aw",%nobits
 6702              		.align	2
 6703              		.set	.LANCHOR47,. + 0
 6706              	amp_env_Pad1:
 6707 0000 00000000 		.space	4
 6708              		.section	.bss.amp_env_Pad2,"aw",%nobits
 6709              		.align	2
 6710              		.set	.LANCHOR48,. + 0
 6713              	amp_env_Pad2:
 6714 0000 00000000 		.space	4
 6715              		.section	.bss.amp_env_Pluck1,"aw",%nobits
 6716              		.align	2
 6717              		.set	.LANCHOR42,. + 0
 6720              	amp_env_Pluck1:
 6721 0000 00000000 		.space	4
 6722              		.section	.bss.amp_env_Pluck2,"aw",%nobits
 6723              		.align	2
 6724              		.set	.LANCHOR43,. + 0
 6727              	amp_env_Pluck2:
 6728 0000 00000000 		.space	4
 6729              		.section	.bss.amp_env_Pluck3,"aw",%nobits
 6730              		.align	2
 6731              		.set	.LANCHOR44,. + 0
 6734              	amp_env_Pluck3:
 6735 0000 00000000 		.space	4
 6736              		.section	.bss.amp_env_Pluck4,"aw",%nobits
 6737              		.align	2
 6738              		.set	.LANCHOR45,. + 0
 6741              	amp_env_Pluck4:
 6742 0000 00000000 		.space	4
 6743              		.section	.bss.delayTime,"aw",%nobits
 6744              		.align	2
 6747              	delayTime:
 6748 0000 00000000 		.space	4
 6749              		.section	.bss.filt_env_Bass1,"aw",%nobits
 6750              		.align	2
 6751              		.set	.LANCHOR61,. + 0
 6754              	filt_env_Bass1:
 6755 0000 00000000 		.space	4
 6756              		.section	.bss.filt_env_Bass2,"aw",%nobits
 6757              		.align	2
 6758              		.set	.LANCHOR62,. + 0
 6761              	filt_env_Bass2:
 6762 0000 00000000 		.space	4
 6763              		.section	.bss.filt_env_Pad1,"aw",%nobits
 6764              		.align	2
 6765              		.set	.LANCHOR58,. + 0
 6768              	filt_env_Pad1:
ARM GAS  C:\Users\skipi\AppData\Local\Temp\cc6PZCfi.s 			page 177


 6769 0000 00000000 		.space	4
 6770              		.section	.bss.filt_env_Pad2,"aw",%nobits
 6771              		.align	2
 6772              		.set	.LANCHOR59,. + 0
 6775              	filt_env_Pad2:
 6776 0000 00000000 		.space	4
 6777              		.section	.bss.filt_env_Pluck1,"aw",%nobits
 6778              		.align	2
 6779              		.set	.LANCHOR53,. + 0
 6782              	filt_env_Pluck1:
 6783 0000 00000000 		.space	4
 6784              		.section	.bss.filt_env_Pluck2,"aw",%nobits
 6785              		.align	2
 6786              		.set	.LANCHOR54,. + 0
 6789              	filt_env_Pluck2:
 6790 0000 00000000 		.space	4
 6791              		.section	.bss.filt_env_Pluck3,"aw",%nobits
 6792              		.align	2
 6793              		.set	.LANCHOR55,. + 0
 6796              	filt_env_Pluck3:
 6797 0000 00000000 		.space	4
 6798              		.section	.bss.filt_env_Pluck4,"aw",%nobits
 6799              		.align	2
 6800              		.set	.LANCHOR56,. + 0
 6803              	filt_env_Pluck4:
 6804 0000 00000000 		.space	4
 6805              		.section	.bss.knob,"aw",%nobits
 6806              		.align	2
 6807              		.set	.LANCHOR117,. + 0
 6810              	knob:
 6811 0000 00000000 		.space	32
 6811      00000000 
 6811      00000000 
 6811      00000000 
 6811      00000000 
 6812              		.section	.bss.now_f_Bass1,"aw",%nobits
 6813              		.align	2
 6814              		.set	.LANCHOR36,. + 0
 6817              	now_f_Bass1:
 6818 0000 00000000 		.space	4
 6819              		.section	.bss.now_f_Bass2,"aw",%nobits
 6820              		.align	2
 6821              		.set	.LANCHOR37,. + 0
 6824              	now_f_Bass2:
 6825 0000 00000000 		.space	4
 6826              		.section	.bss.now_f_Pad1,"aw",%nobits
 6827              		.align	2
 6828              		.set	.LANCHOR38,. + 0
 6831              	now_f_Pad1:
 6832 0000 00000000 		.space	4
 6833              		.section	.bss.now_f_Pad2,"aw",%nobits
 6834              		.align	2
 6835              		.set	.LANCHOR39,. + 0
 6838              	now_f_Pad2:
 6839 0000 00000000 		.space	4
 6840              		.section	.bss.now_f_Pluck1,"aw",%nobits
 6841              		.align	2
ARM GAS  C:\Users\skipi\AppData\Local\Temp\cc6PZCfi.s 			page 178


 6842              		.set	.LANCHOR32,. + 0
 6845              	now_f_Pluck1:
 6846 0000 00000000 		.space	4
 6847              		.section	.bss.now_f_Pluck2,"aw",%nobits
 6848              		.align	2
 6849              		.set	.LANCHOR33,. + 0
 6852              	now_f_Pluck2:
 6853 0000 00000000 		.space	4
 6854              		.section	.bss.now_f_Pluck3,"aw",%nobits
 6855              		.align	2
 6856              		.set	.LANCHOR34,. + 0
 6859              	now_f_Pluck3:
 6860 0000 00000000 		.space	4
 6861              		.section	.bss.now_f_Pluck4,"aw",%nobits
 6862              		.align	2
 6863              		.set	.LANCHOR35,. + 0
 6866              	now_f_Pluck4:
 6867 0000 00000000 		.space	4
 6868              		.section	.bss.now_f_lfo_Bass1,"aw",%nobits
 6869              		.align	2
 6870              		.set	.LANCHOR8,. + 0
 6873              	now_f_lfo_Bass1:
 6874 0000 00000000 		.space	4
 6875              		.section	.bss.now_f_lfo_Bass2,"aw",%nobits
 6876              		.align	2
 6877              		.set	.LANCHOR10,. + 0
 6880              	now_f_lfo_Bass2:
 6881 0000 00000000 		.space	4
 6882              		.section	.bss.now_f_lfo_Pad1,"aw",%nobits
 6883              		.align	2
 6884              		.set	.LANCHOR12,. + 0
 6887              	now_f_lfo_Pad1:
 6888 0000 00000000 		.space	4
 6889              		.section	.bss.now_f_lfo_Pad2,"aw",%nobits
 6890              		.align	2
 6891              		.set	.LANCHOR14,. + 0
 6894              	now_f_lfo_Pad2:
 6895 0000 00000000 		.space	4
 6896              		.section	.bss.now_f_lfo_Pluck1,"aw",%nobits
 6897              		.align	2
 6898              		.set	.LANCHOR0,. + 0
 6901              	now_f_lfo_Pluck1:
 6902 0000 00000000 		.space	4
 6903              		.section	.bss.now_f_lfo_Pluck2,"aw",%nobits
 6904              		.align	2
 6905              		.set	.LANCHOR2,. + 0
 6908              	now_f_lfo_Pluck2:
 6909 0000 00000000 		.space	4
 6910              		.section	.bss.now_f_lfo_Pluck3,"aw",%nobits
 6911              		.align	2
 6912              		.set	.LANCHOR4,. + 0
 6915              	now_f_lfo_Pluck3:
 6916 0000 00000000 		.space	4
 6917              		.section	.bss.now_f_lfo_Pluck4,"aw",%nobits
 6918              		.align	2
 6919              		.set	.LANCHOR6,. + 0
 6922              	now_f_lfo_Pluck4:
ARM GAS  C:\Users\skipi\AppData\Local\Temp\cc6PZCfi.s 			page 179


 6923 0000 00000000 		.space	4
 6924              		.section	.bss.out_noFX,"aw",%nobits
 6925              		.align	2
 6926              		.set	.LANCHOR88,. + 0
 6929              	out_noFX:
 6930 0000 00000000 		.space	4
 6931              		.section	.bss.shape_Bass1,"aw",%nobits
 6932              		.align	2
 6933              		.set	.LANCHOR20,. + 0
 6936              	shape_Bass1:
 6937 0000 00000000 		.space	4
 6938              		.section	.bss.shape_Bass2,"aw",%nobits
 6939              		.align	2
 6940              		.set	.LANCHOR21,. + 0
 6943              	shape_Bass2:
 6944 0000 00000000 		.space	4
 6945              		.section	.bss.shape_Pad1,"aw",%nobits
 6946              		.align	2
 6947              		.set	.LANCHOR22,. + 0
 6950              	shape_Pad1:
 6951 0000 00000000 		.space	4
 6952              		.section	.bss.shape_Pad2,"aw",%nobits
 6953              		.align	2
 6954              		.set	.LANCHOR23,. + 0
 6957              	shape_Pad2:
 6958 0000 00000000 		.space	4
 6959              		.section	.bss.shape_Pluck1,"aw",%nobits
 6960              		.align	2
 6961              		.set	.LANCHOR16,. + 0
 6964              	shape_Pluck1:
 6965 0000 00000000 		.space	4
 6966              		.section	.bss.shape_Pluck2,"aw",%nobits
 6967              		.align	2
 6968              		.set	.LANCHOR17,. + 0
 6971              	shape_Pluck2:
 6972 0000 00000000 		.space	4
 6973              		.section	.bss.shape_Pluck3,"aw",%nobits
 6974              		.align	2
 6975              		.set	.LANCHOR18,. + 0
 6978              	shape_Pluck3:
 6979 0000 00000000 		.space	4
 6980              		.section	.bss.shape_Pluck4,"aw",%nobits
 6981              		.align	2
 6982              		.set	.LANCHOR19,. + 0
 6985              	shape_Pluck4:
 6986 0000 00000000 		.space	4
 6987              		.section	.bss.time,"aw",%nobits
 6988              		.align	2
 6991              	time:
 6992 0000 00000000 		.space	4
 6993              		.section	.data.Bass_Amp_ADSR,"aw"
 6994              		.align	2
 6995              		.set	.LANCHOR106,. + 0
 6998              	Bass_Amp_ADSR:
 6999 0000 9A99193E 		.word	1041865114
 7000 0004 0000003F 		.word	1056964608
 7001 0008 0000403F 		.word	1061158912
ARM GAS  C:\Users\skipi\AppData\Local\Temp\cc6PZCfi.s 			page 180


 7002 000c C3F5A83E 		.word	1051260355
 7003              		.section	.data.Bass_Filter_ADSR,"aw"
 7004              		.align	2
 7005              		.set	.LANCHOR115,. + 0
 7008              	Bass_Filter_ADSR:
 7009 0000 00002041 		.word	1092616192
 7010 0004 0000803F 		.word	1065353216
 7011 0008 9A99193F 		.word	1058642330
 7012 000c 0000003F 		.word	1056964608
 7013              		.section	.data.Pad_Amp_ADSR,"aw"
 7014              		.align	2
 7015              		.set	.LANCHOR107,. + 0
 7018              	Pad_Amp_ADSR:
 7019 0000 00004041 		.word	1094713344
 7020 0004 0000003F 		.word	1056964608
 7021 0008 CDCCCC3E 		.word	1053609165
 7022 000c 0000803F 		.word	1065353216
 7023              		.section	.data.Pad_Filter_ADSR,"aw"
 7024              		.align	2
 7025              		.set	.LANCHOR116,. + 0
 7028              	Pad_Filter_ADSR:
 7029 0000 00001041 		.word	1091567616
 7030 0004 CDCCCC3E 		.word	1053609165
 7031 0008 00000000 		.word	0
 7032 000c 0000803F 		.word	1065353216
 7033              		.section	.data.Pluck_Amp_ADSR,"aw"
 7034              		.align	2
 7035              		.set	.LANCHOR105,. + 0
 7038              	Pluck_Amp_ADSR:
 7039 0000 CDCC4C3D 		.word	1028443341
 7040 0004 713D8A3E 		.word	1049247089
 7041 0008 00000000 		.word	0
 7042 000c 0000803F 		.word	1065353216
 7043              		.section	.data.Pluck_Filter_ADSR,"aw"
 7044              		.align	2
 7045              		.set	.LANCHOR114,. + 0
 7048              	Pluck_Filter_ADSR:
 7049 0000 CDCCCC3D 		.word	1036831949
 7050 0004 8FC2F53C 		.word	1022739087
 7051 0008 00000000 		.word	0
 7052 000c 0000803F 		.word	1065353216
 7053              		.section	.data.amp_lfo_Bass,"aw"
 7054              		.align	2
 7055              		.set	.LANCHOR103,. + 0
 7058              	amp_lfo_Bass:
 7059 0000 9A99993E 		.word	1050253722
 7060              		.section	.data.amp_lfo_Pad,"aw"
 7061              		.align	2
 7062              		.set	.LANCHOR104,. + 0
 7065              	amp_lfo_Pad:
 7066 0000 9A99993E 		.word	1050253722
 7067              		.section	.data.amp_lfo_Pluck,"aw"
 7068              		.align	2
 7069              		.set	.LANCHOR102,. + 0
 7072              	amp_lfo_Pluck:
 7073 0000 9A99993E 		.word	1050253722
 7074              		.section	.data.drive_bass,"aw"
ARM GAS  C:\Users\skipi\AppData\Local\Temp\cc6PZCfi.s 			page 181


 7075              		.align	2
 7076              		.set	.LANCHOR112,. + 0
 7079              	drive_bass:
 7080 0000 0000003F 		.word	1056964608
 7081              		.section	.data.drive_pad,"aw"
 7082              		.align	2
 7083              		.set	.LANCHOR113,. + 0
 7086              	drive_pad:
 7087 0000 0000003F 		.word	1056964608
 7088              		.section	.data.drive_pluck,"aw"
 7089              		.align	2
 7090              		.set	.LANCHOR111,. + 0
 7093              	drive_pluck:
 7094 0000 0000003F 		.word	1056964608
 7095              		.section	.data.ef_Bass,"aw"
 7096              		.align	2
 7099              	ef_Bass:
 7100 0000 0000803F 		.word	1065353216
 7101 0004 0000803F 		.word	1065353216
 7102              		.section	.data.ef_Pad,"aw"
 7103              		.align	2
 7106              	ef_Pad:
 7107 0000 0000803F 		.word	1065353216
 7108 0004 0000803F 		.word	1065353216
 7109              		.section	.data.ef_Pluck,"aw"
 7110              		.align	2
 7113              	ef_Pluck:
 7114 0000 0000803F 		.word	1065353216
 7115 0004 0000803F 		.word	1065353216
 7116              		.section	.data.f_Bass,"aw"
 7117              		.align	2
 7118              		.set	.LANCHOR94,. + 0
 7121              	f_Bass:
 7122 0000 00005C42 		.word	1113325568
 7123              		.section	.data.f_EG_bass,"aw"
 7124              		.align	2
 7125              		.set	.LANCHOR69,. + 0
 7128              	f_EG_bass:
 7129 0000 00409C45 		.word	1167867904
 7130              		.section	.data.f_EG_pad,"aw"
 7131              		.align	2
 7132              		.set	.LANCHOR73,. + 0
 7135              	f_EG_pad:
 7136 0000 0000FA45 		.word	1174011904
 7137              		.section	.data.f_EG_pluck,"aw"
 7138              		.align	2
 7139              		.set	.LANCHOR63,. + 0
 7142              	f_EG_pluck:
 7143 0000 0000FA44 		.word	1157234688
 7144              		.section	.data.f_Pad,"aw"
 7145              		.align	2
 7146              		.set	.LANCHOR95,. + 0
 7149              	f_Pad:
 7150 0000 00005C43 		.word	1130102784
 7151              		.section	.data.f_Pluck,"aw"
 7152              		.align	2
 7153              		.set	.LANCHOR93,. + 0
ARM GAS  C:\Users\skipi\AppData\Local\Temp\cc6PZCfi.s 			page 182


 7156              	f_Pluck:
 7157 0000 0000DC43 		.word	1138491392
 7158              		.section	.data.f_lfo_Bass,"aw"
 7159              		.align	2
 7160              		.set	.LANCHOR100,. + 0
 7163              	f_lfo_Bass:
 7164 0000 00002041 		.word	1092616192
 7165              		.section	.data.f_lfo_Pad,"aw"
 7166              		.align	2
 7167              		.set	.LANCHOR101,. + 0
 7170              	f_lfo_Pad:
 7171 0000 00002041 		.word	1092616192
 7172              		.section	.data.f_lfo_Pluck,"aw"
 7173              		.align	2
 7174              		.set	.LANCHOR99,. + 0
 7177              	f_lfo_Pluck:
 7178 0000 00002041 		.word	1092616192
 7179              		.section	.data.ft_bass,"aw"
 7180              		.align	2
 7181              		.set	.LANCHOR70,. + 0
 7184              	ft_bass:
 7185 0000 00004843 		.word	1128792064
 7186              		.section	.data.ft_pad,"aw"
 7187              		.align	2
 7188              		.set	.LANCHOR74,. + 0
 7191              	ft_pad:
 7192 0000 0000FA43 		.word	1140457472
 7193              		.section	.data.ft_pluck,"aw"
 7194              		.align	2
 7195              		.set	.LANCHOR64,. + 0
 7198              	ft_pluck:
 7199 0000 00803B45 		.word	1161527296
 7200              		.section	.data.g_Bass,"aw"
 7201              		.align	2
 7202              		.set	.LANCHOR97,. + 0
 7205              	g_Bass:
 7206 0000 0000003F 		.word	1056964608
 7207 0004 0000003F 		.word	1056964608
 7208              		.section	.data.g_Pad,"aw"
 7209              		.align	2
 7210              		.set	.LANCHOR98,. + 0
 7213              	g_Pad:
 7214 0000 0000003F 		.word	1056964608
 7215 0004 0000003F 		.word	1056964608
 7216              		.section	.data.g_Pluck,"aw"
 7217              		.align	2
 7218              		.set	.LANCHOR96,. + 0
 7221              	g_Pluck:
 7222 0000 0000003F 		.word	1056964608
 7223 0004 0000003F 		.word	1056964608
 7224              		.section	.data.mix_amp_Bass,"aw"
 7225              		.align	2
 7226              		.set	.LANCHOR87,. + 0
 7229              	mix_amp_Bass:
 7230 0000 C3F5A83E 		.word	1051260355
 7231              		.section	.data.mix_amp_Pad,"aw"
 7232              		.align	2
ARM GAS  C:\Users\skipi\AppData\Local\Temp\cc6PZCfi.s 			page 183


 7233              		.set	.LANCHOR86,. + 0
 7236              	mix_amp_Pad:
 7237 0000 C3F5A83E 		.word	1051260355
 7238              		.section	.data.mix_amp_Pluck,"aw"
 7239              		.align	2
 7240              		.set	.LANCHOR85,. + 0
 7243              	mix_amp_Pluck:
 7244 0000 C3F5A83E 		.word	1051260355
 7245              		.section	.data.res_bass,"aw"
 7246              		.align	2
 7247              		.set	.LANCHOR109,. + 0
 7250              	res_bass:
 7251 0000 CDCCCC3D 		.word	1036831949
 7252              		.section	.data.res_pad,"aw"
 7253              		.align	2
 7254              		.set	.LANCHOR110,. + 0
 7257              	res_pad:
 7258 0000 CDCCCC3D 		.word	1036831949
 7259              		.section	.data.res_pluck,"aw"
 7260              		.align	2
 7261              		.set	.LANCHOR108,. + 0
 7264              	res_pluck:
 7265 0000 CDCCCC3D 		.word	1036831949
 7266              		.section	.data.wf_Bass,"aw"
 7267              		.align	2
 7268              		.set	.LANCHOR91,. + 0
 7271              	wf_Bass:
 7272 0000 0103     		.ascii	"\001\003"
 7273              		.section	.data.wf_Pad,"aw"
 7274              		.align	2
 7275              		.set	.LANCHOR92,. + 0
 7278              	wf_Pad:
 7279 0000 0302     		.ascii	"\003\002"
 7280              		.section	.data.wf_Pluck,"aw"
 7281              		.align	2
 7282              		.set	.LANCHOR90,. + 0
 7285              	wf_Pluck:
 7286 0000 0201     		.ascii	"\002\001"
 7287              		.text
 7288              	.Letext0:
 7289              		.file 19 "c:\\program files\\daisytoolchain\\arm-none-eabi\\include\\machine\\_default_types.h"
 7290              		.file 20 "c:\\program files\\daisytoolchain\\arm-none-eabi\\include\\sys\\_stdint.h"
 7291              		.file 21 "c:\\program files\\daisytoolchain\\arm-none-eabi\\include\\stdint.h"
 7292              		.file 22 "c:\\program files\\daisytoolchain\\lib\\gcc\\arm-none-eabi\\10.2.1\\include\\stddef.h"
 7293              		.file 23 "c:\\program files\\daisytoolchain\\arm-none-eabi\\include\\c++\\10.2.1\\cmath"
 7294              		.file 24 "c:\\program files\\daisytoolchain\\arm-none-eabi\\include\\c++\\10.2.1\\bits\\std_abs.h"
 7295              		.file 25 "c:\\program files\\daisytoolchain\\arm-none-eabi\\include\\c++\\10.2.1\\cstdlib"
 7296              		.file 26 "c:\\program files\\daisytoolchain\\arm-none-eabi\\include\\c++\\10.2.1\\cstdint"
 7297              		.file 27 "c:\\program files\\daisytoolchain\\arm-none-eabi\\include\\c++\\10.2.1\\type_traits"
 7298              		.file 28 "c:\\program files\\daisytoolchain\\arm-none-eabi\\include\\c++\\10.2.1\\debug\\debug.h"
 7299              		.file 29 "c:\\program files\\daisytoolchain\\arm-none-eabi\\include\\c++\\10.2.1\\arm-none-eabi\\t
 7300              		.file 30 "c:\\program files\\daisytoolchain\\arm-none-eabi\\include\\c++\\10.2.1\\bits\\algorithmf
 7301              		.file 31 "c:\\program files\\daisytoolchain\\arm-none-eabi\\include\\c++\\10.2.1\\bits\\stl_pair.h
 7302              		.file 32 "c:\\program files\\daisytoolchain\\arm-none-eabi\\include\\c++\\10.2.1\\bits\\exception_
 7303              		.file 33 "c:\\program files\\daisytoolchain\\arm-none-eabi\\include\\c++\\10.2.1\\cstdarg"
 7304              		.file 34 "c:\\program files\\daisytoolchain\\arm-none-eabi\\include\\c++\\10.2.1\\cstdio"
 7305              		.file 35 "c:\\program files\\daisytoolchain\\arm-none-eabi\\include\\c++\\10.2.1\\cstring"
ARM GAS  C:\Users\skipi\AppData\Local\Temp\cc6PZCfi.s 			page 184


 7306              		.file 36 "c:\\program files\\daisytoolchain\\arm-none-eabi\\include\\c++\\10.2.1\\cwchar"
 7307              		.file 37 "c:\\program files\\daisytoolchain\\arm-none-eabi\\include\\c++\\10.2.1\\clocale"
 7308              		.file 38 "c:\\program files\\daisytoolchain\\arm-none-eabi\\include\\c++\\10.2.1\\bits\\basic_stri
 7309              		.file 39 "c:\\program files\\daisytoolchain\\arm-none-eabi\\include\\c++\\10.2.1\\bits\\stl_tempbu
 7310              		.file 40 "c:\\program files\\daisytoolchain\\arm-none-eabi\\include\\c++\\10.2.1\\bits\\predefined
 7311              		.file 41 "c:\\program files\\daisytoolchain\\arm-none-eabi\\include\\sys\\_types.h"
 7312              		.file 42 "c:\\program files\\daisytoolchain\\arm-none-eabi\\include\\sys\\reent.h"
 7313              		.file 43 "c:\\program files\\daisytoolchain\\arm-none-eabi\\include\\sys\\lock.h"
 7314              		.file 44 "c:\\program files\\daisytoolchain\\arm-none-eabi\\include\\math.h"
 7315              		.file 45 "c:\\program files\\daisytoolchain\\arm-none-eabi\\include\\stdlib.h"
 7316              		.file 46 "c:\\program files\\daisytoolchain\\arm-none-eabi\\include\\c++\\10.2.1\\math.h"
 7317              		.file 47 "c:\\program files\\daisytoolchain\\arm-none-eabi\\include\\c++\\10.2.1\\stdlib.h"
 7318              		.file 48 "../libs/libDaisy/src/per/tim.h"
 7319              		.file 49 "../libs/libDaisy/src/hid/logger_impl.h"
 7320              		.file 50 "../libs/libDaisy/src/util/wav_format.h"
 7321              		.file 51 "../libs/libDaisy/src/dev/sr_595.h"
 7322              		.file 52 "../libs/libDaisy/src/dev/max11300.h"
 7323              		.file 53 "../libs/libDaisy/src/hid/logger.h"
 7324              		.file 54 "../libs/libDaisy/src/dev/sdram.h"
 7325              		.file 55 "c:\\program files\\daisytoolchain\\lib\\gcc\\arm-none-eabi\\10.2.1\\include\\stdarg.h"
 7326              		.file 56 "c:\\program files\\daisytoolchain\\arm-none-eabi\\include\\stdio.h"
 7327              		.file 57 "c:\\program files\\daisytoolchain\\arm-none-eabi\\include\\string.h"
 7328              		.file 58 "../libs/DaisySP/Source/Control/adenv.h"
 7329              		.file 59 "../libs/DaisySP/Source/Utility/dsp.h"
 7330              		.file 60 "c:\\program files\\daisytoolchain\\arm-none-eabi\\include\\wchar.h"
 7331              		.file 61 "c:\\program files\\daisytoolchain\\arm-none-eabi\\include\\locale.h"
 7332              		.file 62 "src/Ramo.h"
 7333              		.file 63 "<built-in>"
ARM GAS  C:\Users\skipi\AppData\Local\Temp\cc6PZCfi.s 			page 185


DEFINED SYMBOLS
                            *ABS*:00000000 PianoB.cpp
C:\Users\skipi\AppData\Local\Temp\cc6PZCfi.s:17     .text._ZN5daisy9DaisySeedD2Ev:00000000 $t
C:\Users\skipi\AppData\Local\Temp\cc6PZCfi.s:26     .text._ZN5daisy9DaisySeedD2Ev:00000000 _ZN5daisy9DaisySeedD2Ev
C:\Users\skipi\AppData\Local\Temp\cc6PZCfi.s:26     .text._ZN5daisy9DaisySeedD2Ev:00000000 _ZN5daisy9DaisySeedD1Ev
C:\Users\skipi\AppData\Local\Temp\cc6PZCfi.s:73     .text._ZN7daisysp4AdsrD2Ev:00000000 $t
C:\Users\skipi\AppData\Local\Temp\cc6PZCfi.s:81     .text._ZN7daisysp4AdsrD2Ev:00000000 _ZN7daisysp4AdsrD2Ev
C:\Users\skipi\AppData\Local\Temp\cc6PZCfi.s:81     .text._ZN7daisysp4AdsrD2Ev:00000000 _ZN7daisysp4AdsrD1Ev
C:\Users\skipi\AppData\Local\Temp\cc6PZCfi.s:98     .text._ZN7daisysp10OscillatorD2Ev:00000000 $t
C:\Users\skipi\AppData\Local\Temp\cc6PZCfi.s:106    .text._ZN7daisysp10OscillatorD2Ev:00000000 _ZN7daisysp10OscillatorD2Ev
C:\Users\skipi\AppData\Local\Temp\cc6PZCfi.s:106    .text._ZN7daisysp10OscillatorD2Ev:00000000 _ZN7daisysp10OscillatorD1Ev
C:\Users\skipi\AppData\Local\Temp\cc6PZCfi.s:123    .text._ZN7daisysp3SvfD2Ev:00000000 $t
C:\Users\skipi\AppData\Local\Temp\cc6PZCfi.s:131    .text._ZN7daisysp3SvfD2Ev:00000000 _ZN7daisysp3SvfD2Ev
C:\Users\skipi\AppData\Local\Temp\cc6PZCfi.s:131    .text._ZN7daisysp3SvfD2Ev:00000000 _ZN7daisysp3SvfD1Ev
C:\Users\skipi\AppData\Local\Temp\cc6PZCfi.s:148    .text._Z13AudioCallbackPKPKfPPfj:00000000 $t
C:\Users\skipi\AppData\Local\Temp\cc6PZCfi.s:156    .text._Z13AudioCallbackPKPKfPPfj:00000000 _Z13AudioCallbackPKPKfPPfj
C:\Users\skipi\AppData\Local\Temp\cc6PZCfi.s:767    .text._Z13AudioCallbackPKPKfPPfj:0000031c $d
C:\Users\skipi\AppData\Local\Temp\cc6PZCfi.s:828    .text._Z13AudioCallbackPKPKfPPfj:0000040c $t
C:\Users\skipi\AppData\Local\Temp\cc6PZCfi.s:1346   .text._Z13AudioCallbackPKPKfPPfj:00000728 $d
C:\Users\skipi\AppData\Local\Temp\cc6PZCfi.s:1394   .text._Z13AudioCallbackPKPKfPPfj:000007e0 $t
C:\Users\skipi\AppData\Local\Temp\cc6PZCfi.s:1428   .text._ZN7daisysp10Oscillator4InitEf:00000000 $t
C:\Users\skipi\AppData\Local\Temp\cc6PZCfi.s:1436   .text._ZN7daisysp10Oscillator4InitEf:00000000 _ZN7daisysp10Oscillator4InitEf
C:\Users\skipi\AppData\Local\Temp\cc6PZCfi.s:1505   .text._ZN7daisysp10Oscillator4InitEf:00000040 $d
C:\Users\skipi\AppData\Local\Temp\cc6PZCfi.s:1510   .text._Z8LogScalefff:00000000 $t
C:\Users\skipi\AppData\Local\Temp\cc6PZCfi.s:1518   .text._Z8LogScalefff:00000000 _Z8LogScalefff
C:\Users\skipi\AppData\Local\Temp\cc6PZCfi.s:1587   .text._ZN5daisy6Mpr121INS_18Mpr121I2CTransportEE13WriteRegisterEhh:00000000 $t
C:\Users\skipi\AppData\Local\Temp\cc6PZCfi.s:1595   .text._ZN5daisy6Mpr121INS_18Mpr121I2CTransportEE13WriteRegisterEhh:00000000 _ZN5daisy6Mpr121INS_18Mpr121I2CTransportEE13WriteRegisterEhh
C:\Users\skipi\AppData\Local\Temp\cc6PZCfi.s:1966   .text.startup.main:00000000 $t
C:\Users\skipi\AppData\Local\Temp\cc6PZCfi.s:1974   .text.startup.main:00000000 main
C:\Users\skipi\AppData\Local\Temp\cc6PZCfi.s:3335   .text.startup.main:0000032c $d
C:\Users\skipi\AppData\Local\Temp\cc6PZCfi.s:3341   .text.startup.main:00000340 $t
C:\Users\skipi\AppData\Local\Temp\cc6PZCfi.s:4250   .text.startup.main:00000658 $d
C:\Users\skipi\AppData\Local\Temp\cc6PZCfi.s:4289   .text.startup.main:000006f0 $t
C:\Users\skipi\AppData\Local\Temp\cc6PZCfi.s:4908   .text.startup.main:00000a18 $d
C:\Users\skipi\AppData\Local\Temp\cc6PZCfi.s:4941   .text.startup.main:00000a90 $t
C:\Users\skipi\AppData\Local\Temp\cc6PZCfi.s:5370   .text.startup.main:00000c4c $d
C:\Users\skipi\AppData\Local\Temp\cc6PZCfi.s:5397   .text.startup._GLOBAL__sub_I_wf_Pluck:00000000 $t
C:\Users\skipi\AppData\Local\Temp\cc6PZCfi.s:5404   .text.startup._GLOBAL__sub_I_wf_Pluck:00000000 _GLOBAL__sub_I_wf_Pluck
C:\Users\skipi\AppData\Local\Temp\cc6PZCfi.s:6251   .text.startup._GLOBAL__sub_I_wf_Pluck:00000240 $d
C:\Users\skipi\AppData\Local\Temp\cc6PZCfi.s:6295   .init_array:00000000 $d
C:\Users\skipi\AppData\Local\Temp\cc6PZCfi.s:6810   .bss.knob:00000000 knob
C:\Users\skipi\AppData\Local\Temp\cc6PZCfi.s:6397   .bss.Gate:00000000 Gate
C:\Users\skipi\AppData\Local\Temp\cc6PZCfi.s:6775   .bss.filt_env_Pad2:00000000 filt_env_Pad2
C:\Users\skipi\AppData\Local\Temp\cc6PZCfi.s:6768   .bss.filt_env_Pad1:00000000 filt_env_Pad1
C:\Users\skipi\AppData\Local\Temp\cc6PZCfi.s:6761   .bss.filt_env_Bass2:00000000 filt_env_Bass2
C:\Users\skipi\AppData\Local\Temp\cc6PZCfi.s:6754   .bss.filt_env_Bass1:00000000 filt_env_Bass1
C:\Users\skipi\AppData\Local\Temp\cc6PZCfi.s:6803   .bss.filt_env_Pluck4:00000000 filt_env_Pluck4
C:\Users\skipi\AppData\Local\Temp\cc6PZCfi.s:6796   .bss.filt_env_Pluck3:00000000 filt_env_Pluck3
C:\Users\skipi\AppData\Local\Temp\cc6PZCfi.s:6789   .bss.filt_env_Pluck2:00000000 filt_env_Pluck2
C:\Users\skipi\AppData\Local\Temp\cc6PZCfi.s:6782   .bss.filt_env_Pluck1:00000000 filt_env_Pluck1
C:\Users\skipi\AppData\Local\Temp\cc6PZCfi.s:6713   .bss.amp_env_Pad2:00000000 amp_env_Pad2
C:\Users\skipi\AppData\Local\Temp\cc6PZCfi.s:6706   .bss.amp_env_Pad1:00000000 amp_env_Pad1
C:\Users\skipi\AppData\Local\Temp\cc6PZCfi.s:6699   .bss.amp_env_Bass2:00000000 amp_env_Bass2
C:\Users\skipi\AppData\Local\Temp\cc6PZCfi.s:6692   .bss.amp_env_Bass1:00000000 amp_env_Bass1
C:\Users\skipi\AppData\Local\Temp\cc6PZCfi.s:6741   .bss.amp_env_Pluck4:00000000 amp_env_Pluck4
C:\Users\skipi\AppData\Local\Temp\cc6PZCfi.s:6734   .bss.amp_env_Pluck3:00000000 amp_env_Pluck3
C:\Users\skipi\AppData\Local\Temp\cc6PZCfi.s:6727   .bss.amp_env_Pluck2:00000000 amp_env_Pluck2
ARM GAS  C:\Users\skipi\AppData\Local\Temp\cc6PZCfi.s 			page 186


C:\Users\skipi\AppData\Local\Temp\cc6PZCfi.s:6720   .bss.amp_env_Pluck1:00000000 amp_env_Pluck1
C:\Users\skipi\AppData\Local\Temp\cc6PZCfi.s:6957   .bss.shape_Pad2:00000000 shape_Pad2
C:\Users\skipi\AppData\Local\Temp\cc6PZCfi.s:6950   .bss.shape_Pad1:00000000 shape_Pad1
C:\Users\skipi\AppData\Local\Temp\cc6PZCfi.s:6943   .bss.shape_Bass2:00000000 shape_Bass2
C:\Users\skipi\AppData\Local\Temp\cc6PZCfi.s:6936   .bss.shape_Bass1:00000000 shape_Bass1
C:\Users\skipi\AppData\Local\Temp\cc6PZCfi.s:6985   .bss.shape_Pluck4:00000000 shape_Pluck4
C:\Users\skipi\AppData\Local\Temp\cc6PZCfi.s:6978   .bss.shape_Pluck3:00000000 shape_Pluck3
C:\Users\skipi\AppData\Local\Temp\cc6PZCfi.s:6971   .bss.shape_Pluck2:00000000 shape_Pluck2
C:\Users\skipi\AppData\Local\Temp\cc6PZCfi.s:6964   .bss.shape_Pluck1:00000000 shape_Pluck1
C:\Users\skipi\AppData\Local\Temp\cc6PZCfi.s:6838   .bss.now_f_Pad2:00000000 now_f_Pad2
C:\Users\skipi\AppData\Local\Temp\cc6PZCfi.s:6831   .bss.now_f_Pad1:00000000 now_f_Pad1
C:\Users\skipi\AppData\Local\Temp\cc6PZCfi.s:6824   .bss.now_f_Bass2:00000000 now_f_Bass2
C:\Users\skipi\AppData\Local\Temp\cc6PZCfi.s:6817   .bss.now_f_Bass1:00000000 now_f_Bass1
C:\Users\skipi\AppData\Local\Temp\cc6PZCfi.s:6866   .bss.now_f_Pluck4:00000000 now_f_Pluck4
C:\Users\skipi\AppData\Local\Temp\cc6PZCfi.s:6859   .bss.now_f_Pluck3:00000000 now_f_Pluck3
C:\Users\skipi\AppData\Local\Temp\cc6PZCfi.s:6852   .bss.now_f_Pluck2:00000000 now_f_Pluck2
C:\Users\skipi\AppData\Local\Temp\cc6PZCfi.s:6845   .bss.now_f_Pluck1:00000000 now_f_Pluck1
C:\Users\skipi\AppData\Local\Temp\cc6PZCfi.s:6894   .bss.now_f_lfo_Pad2:00000000 now_f_lfo_Pad2
C:\Users\skipi\AppData\Local\Temp\cc6PZCfi.s:6887   .bss.now_f_lfo_Pad1:00000000 now_f_lfo_Pad1
C:\Users\skipi\AppData\Local\Temp\cc6PZCfi.s:6922   .bss.now_f_lfo_Pluck4:00000000 now_f_lfo_Pluck4
C:\Users\skipi\AppData\Local\Temp\cc6PZCfi.s:6915   .bss.now_f_lfo_Pluck3:00000000 now_f_lfo_Pluck3
C:\Users\skipi\AppData\Local\Temp\cc6PZCfi.s:6908   .bss.now_f_lfo_Pluck2:00000000 now_f_lfo_Pluck2
C:\Users\skipi\AppData\Local\Temp\cc6PZCfi.s:6901   .bss.now_f_lfo_Pluck1:00000000 now_f_lfo_Pluck1
C:\Users\skipi\AppData\Local\Temp\cc6PZCfi.s:6880   .bss.now_f_lfo_Bass2:00000000 now_f_lfo_Bass2
C:\Users\skipi\AppData\Local\Temp\cc6PZCfi.s:6873   .bss.now_f_lfo_Bass1:00000000 now_f_lfo_Bass1
C:\Users\skipi\AppData\Local\Temp\cc6PZCfi.s:6929   .bss.out_noFX:00000000 out_noFX
C:\Users\skipi\AppData\Local\Temp\cc6PZCfi.s:6440   .bss.Raw_Pad2:00000000 Raw_Pad2
C:\Users\skipi\AppData\Local\Temp\cc6PZCfi.s:6433   .bss.Raw_Pad1:00000000 Raw_Pad1
C:\Users\skipi\AppData\Local\Temp\cc6PZCfi.s:6426   .bss.Raw_Bass2:00000000 Raw_Bass2
C:\Users\skipi\AppData\Local\Temp\cc6PZCfi.s:6419   .bss.Raw_Bass1:00000000 Raw_Bass1
C:\Users\skipi\AppData\Local\Temp\cc6PZCfi.s:6468   .bss.Raw_Pluck4:00000000 Raw_Pluck4
C:\Users\skipi\AppData\Local\Temp\cc6PZCfi.s:6461   .bss.Raw_Pluck3:00000000 Raw_Pluck3
C:\Users\skipi\AppData\Local\Temp\cc6PZCfi.s:6454   .bss.Raw_Pluck2:00000000 Raw_Pluck2
C:\Users\skipi\AppData\Local\Temp\cc6PZCfi.s:6447   .bss.Raw_Pluck1:00000000 Raw_Pluck1
C:\Users\skipi\AppData\Local\Temp\cc6PZCfi.s:6747   .bss.delayTime:00000000 delayTime
C:\Users\skipi\AppData\Local\Temp\cc6PZCfi.s:6991   .bss.time:00000000 time
C:\Users\skipi\AppData\Local\Temp\cc6PZCfi.s:7229   .data.mix_amp_Bass:00000000 mix_amp_Bass
C:\Users\skipi\AppData\Local\Temp\cc6PZCfi.s:7008   .data.Bass_Filter_ADSR:00000000 Bass_Filter_ADSR
C:\Users\skipi\AppData\Local\Temp\cc6PZCfi.s:6998   .data.Bass_Amp_ADSR:00000000 Bass_Amp_ADSR
C:\Users\skipi\AppData\Local\Temp\cc6PZCfi.s:7079   .data.drive_bass:00000000 drive_bass
C:\Users\skipi\AppData\Local\Temp\cc6PZCfi.s:7250   .data.res_bass:00000000 res_bass
C:\Users\skipi\AppData\Local\Temp\cc6PZCfi.s:7058   .data.amp_lfo_Bass:00000000 amp_lfo_Bass
C:\Users\skipi\AppData\Local\Temp\cc6PZCfi.s:6402   .bss.Gate_Bass:00000000 Gate_Bass
C:\Users\skipi\AppData\Local\Temp\cc6PZCfi.s:7184   .data.ft_bass:00000000 ft_bass
C:\Users\skipi\AppData\Local\Temp\cc6PZCfi.s:7163   .data.f_lfo_Bass:00000000 f_lfo_Bass
C:\Users\skipi\AppData\Local\Temp\cc6PZCfi.s:7121   .data.f_Bass:00000000 f_Bass
C:\Users\skipi\AppData\Local\Temp\cc6PZCfi.s:7205   .data.g_Bass:00000000 g_Bass
C:\Users\skipi\AppData\Local\Temp\cc6PZCfi.s:7128   .data.f_EG_bass:00000000 f_EG_bass
C:\Users\skipi\AppData\Local\Temp\cc6PZCfi.s:7099   .data.ef_Bass:00000000 ef_Bass
C:\Users\skipi\AppData\Local\Temp\cc6PZCfi.s:7271   .data.wf_Bass:00000000 wf_Bass
C:\Users\skipi\AppData\Local\Temp\cc6PZCfi.s:7236   .data.mix_amp_Pad:00000000 mix_amp_Pad
C:\Users\skipi\AppData\Local\Temp\cc6PZCfi.s:7028   .data.Pad_Filter_ADSR:00000000 Pad_Filter_ADSR
C:\Users\skipi\AppData\Local\Temp\cc6PZCfi.s:7018   .data.Pad_Amp_ADSR:00000000 Pad_Amp_ADSR
C:\Users\skipi\AppData\Local\Temp\cc6PZCfi.s:7086   .data.drive_pad:00000000 drive_pad
C:\Users\skipi\AppData\Local\Temp\cc6PZCfi.s:7257   .data.res_pad:00000000 res_pad
C:\Users\skipi\AppData\Local\Temp\cc6PZCfi.s:7065   .data.amp_lfo_Pad:00000000 amp_lfo_Pad
C:\Users\skipi\AppData\Local\Temp\cc6PZCfi.s:6407   .bss.Gate_Pad:00000000 Gate_Pad
ARM GAS  C:\Users\skipi\AppData\Local\Temp\cc6PZCfi.s 			page 187


C:\Users\skipi\AppData\Local\Temp\cc6PZCfi.s:7191   .data.ft_pad:00000000 ft_pad
C:\Users\skipi\AppData\Local\Temp\cc6PZCfi.s:7170   .data.f_lfo_Pad:00000000 f_lfo_Pad
C:\Users\skipi\AppData\Local\Temp\cc6PZCfi.s:7149   .data.f_Pad:00000000 f_Pad
C:\Users\skipi\AppData\Local\Temp\cc6PZCfi.s:7213   .data.g_Pad:00000000 g_Pad
C:\Users\skipi\AppData\Local\Temp\cc6PZCfi.s:7135   .data.f_EG_pad:00000000 f_EG_pad
C:\Users\skipi\AppData\Local\Temp\cc6PZCfi.s:7106   .data.ef_Pad:00000000 ef_Pad
C:\Users\skipi\AppData\Local\Temp\cc6PZCfi.s:7278   .data.wf_Pad:00000000 wf_Pad
C:\Users\skipi\AppData\Local\Temp\cc6PZCfi.s:7243   .data.mix_amp_Pluck:00000000 mix_amp_Pluck
C:\Users\skipi\AppData\Local\Temp\cc6PZCfi.s:7048   .data.Pluck_Filter_ADSR:00000000 Pluck_Filter_ADSR
C:\Users\skipi\AppData\Local\Temp\cc6PZCfi.s:7038   .data.Pluck_Amp_ADSR:00000000 Pluck_Amp_ADSR
C:\Users\skipi\AppData\Local\Temp\cc6PZCfi.s:7093   .data.drive_pluck:00000000 drive_pluck
C:\Users\skipi\AppData\Local\Temp\cc6PZCfi.s:7264   .data.res_pluck:00000000 res_pluck
C:\Users\skipi\AppData\Local\Temp\cc6PZCfi.s:7072   .data.amp_lfo_Pluck:00000000 amp_lfo_Pluck
C:\Users\skipi\AppData\Local\Temp\cc6PZCfi.s:6412   .bss.Gate_Pluck:00000000 Gate_Pluck
C:\Users\skipi\AppData\Local\Temp\cc6PZCfi.s:7198   .data.ft_pluck:00000000 ft_pluck
C:\Users\skipi\AppData\Local\Temp\cc6PZCfi.s:7177   .data.f_lfo_Pluck:00000000 f_lfo_Pluck
C:\Users\skipi\AppData\Local\Temp\cc6PZCfi.s:7156   .data.f_Pluck:00000000 f_Pluck
C:\Users\skipi\AppData\Local\Temp\cc6PZCfi.s:7221   .data.g_Pluck:00000000 g_Pluck
C:\Users\skipi\AppData\Local\Temp\cc6PZCfi.s:7142   .data.f_EG_pluck:00000000 f_EG_pluck
C:\Users\skipi\AppData\Local\Temp\cc6PZCfi.s:7113   .data.ef_Pluck:00000000 ef_Pluck
C:\Users\skipi\AppData\Local\Temp\cc6PZCfi.s:7285   .data.wf_Pluck:00000000 wf_Pluck
C:\Users\skipi\AppData\Local\Temp\cc6PZCfi.s:6393   .bss.Gate:00000000 $d
C:\Users\skipi\AppData\Local\Temp\cc6PZCfi.s:6403   .bss.Gate_Bass:00000000 $d
C:\Users\skipi\AppData\Local\Temp\cc6PZCfi.s:6408   .bss.Gate_Pad:00000000 $d
C:\Users\skipi\AppData\Local\Temp\cc6PZCfi.s:6413   .bss.Gate_Pluck:00000000 $d
C:\Users\skipi\AppData\Local\Temp\cc6PZCfi.s:6415   .bss.Raw_Bass1:00000000 $d
C:\Users\skipi\AppData\Local\Temp\cc6PZCfi.s:6422   .bss.Raw_Bass2:00000000 $d
C:\Users\skipi\AppData\Local\Temp\cc6PZCfi.s:6429   .bss.Raw_Pad1:00000000 $d
C:\Users\skipi\AppData\Local\Temp\cc6PZCfi.s:6436   .bss.Raw_Pad2:00000000 $d
C:\Users\skipi\AppData\Local\Temp\cc6PZCfi.s:6443   .bss.Raw_Pluck1:00000000 $d
C:\Users\skipi\AppData\Local\Temp\cc6PZCfi.s:6450   .bss.Raw_Pluck2:00000000 $d
C:\Users\skipi\AppData\Local\Temp\cc6PZCfi.s:6457   .bss.Raw_Pluck3:00000000 $d
C:\Users\skipi\AppData\Local\Temp\cc6PZCfi.s:6464   .bss.Raw_Pluck4:00000000 $d
C:\Users\skipi\AppData\Local\Temp\cc6PZCfi.s:6471   .bss._ZL10AmpEnv_Pad:00000000 $d
C:\Users\skipi\AppData\Local\Temp\cc6PZCfi.s:6475   .bss._ZL10AmpEnv_Pad:00000000 _ZL10AmpEnv_Pad
C:\Users\skipi\AppData\Local\Temp\cc6PZCfi.s:6478   .bss._ZL10lfo_Pluck1:00000000 $d
C:\Users\skipi\AppData\Local\Temp\cc6PZCfi.s:6482   .bss._ZL10lfo_Pluck1:00000000 _ZL10lfo_Pluck1
C:\Users\skipi\AppData\Local\Temp\cc6PZCfi.s:6485   .bss._ZL10lfo_Pluck2:00000000 $d
C:\Users\skipi\AppData\Local\Temp\cc6PZCfi.s:6489   .bss._ZL10lfo_Pluck2:00000000 _ZL10lfo_Pluck2
C:\Users\skipi\AppData\Local\Temp\cc6PZCfi.s:6492   .bss._ZL10lfo_Pluck3:00000000 $d
C:\Users\skipi\AppData\Local\Temp\cc6PZCfi.s:6496   .bss._ZL10lfo_Pluck3:00000000 _ZL10lfo_Pluck3
C:\Users\skipi\AppData\Local\Temp\cc6PZCfi.s:6499   .bss._ZL10lfo_Pluck4:00000000 $d
C:\Users\skipi\AppData\Local\Temp\cc6PZCfi.s:6503   .bss._ZL10lfo_Pluck4:00000000 _ZL10lfo_Pluck4
C:\Users\skipi\AppData\Local\Temp\cc6PZCfi.s:6506   .bss._ZL11AmpEnv_Bass:00000000 $d
C:\Users\skipi\AppData\Local\Temp\cc6PZCfi.s:6510   .bss._ZL11AmpEnv_Bass:00000000 _ZL11AmpEnv_Bass
C:\Users\skipi\AppData\Local\Temp\cc6PZCfi.s:6513   .bss._ZL11filter_Pad1:00000000 $d
C:\Users\skipi\AppData\Local\Temp\cc6PZCfi.s:6517   .bss._ZL11filter_Pad1:00000000 _ZL11filter_Pad1
C:\Users\skipi\AppData\Local\Temp\cc6PZCfi.s:6520   .bss._ZL11filter_Pad2:00000000 $d
C:\Users\skipi\AppData\Local\Temp\cc6PZCfi.s:6524   .bss._ZL11filter_Pad2:00000000 _ZL11filter_Pad2
C:\Users\skipi\AppData\Local\Temp\cc6PZCfi.s:6527   .bss._ZL12AmpEnv_Pluck:00000000 $d
C:\Users\skipi\AppData\Local\Temp\cc6PZCfi.s:6531   .bss._ZL12AmpEnv_Pluck:00000000 _ZL12AmpEnv_Pluck
C:\Users\skipi\AppData\Local\Temp\cc6PZCfi.s:6534   .bss._ZL12filter_Bass1:00000000 $d
C:\Users\skipi\AppData\Local\Temp\cc6PZCfi.s:6538   .bss._ZL12filter_Bass1:00000000 _ZL12filter_Bass1
C:\Users\skipi\AppData\Local\Temp\cc6PZCfi.s:6541   .bss._ZL12filter_Bass2:00000000 $d
C:\Users\skipi\AppData\Local\Temp\cc6PZCfi.s:6545   .bss._ZL12filter_Bass2:00000000 _ZL12filter_Bass2
C:\Users\skipi\AppData\Local\Temp\cc6PZCfi.s:6548   .bss._ZL13FilterEnv_Pad:00000000 $d
C:\Users\skipi\AppData\Local\Temp\cc6PZCfi.s:6552   .bss._ZL13FilterEnv_Pad:00000000 _ZL13FilterEnv_Pad
ARM GAS  C:\Users\skipi\AppData\Local\Temp\cc6PZCfi.s 			page 188


C:\Users\skipi\AppData\Local\Temp\cc6PZCfi.s:6555   .bss._ZL13filter_Pluck1:00000000 $d
C:\Users\skipi\AppData\Local\Temp\cc6PZCfi.s:6559   .bss._ZL13filter_Pluck1:00000000 _ZL13filter_Pluck1
C:\Users\skipi\AppData\Local\Temp\cc6PZCfi.s:6562   .bss._ZL13filter_Pluck2:00000000 $d
C:\Users\skipi\AppData\Local\Temp\cc6PZCfi.s:6566   .bss._ZL13filter_Pluck2:00000000 _ZL13filter_Pluck2
C:\Users\skipi\AppData\Local\Temp\cc6PZCfi.s:6569   .bss._ZL13filter_Pluck3:00000000 $d
C:\Users\skipi\AppData\Local\Temp\cc6PZCfi.s:6573   .bss._ZL13filter_Pluck3:00000000 _ZL13filter_Pluck3
C:\Users\skipi\AppData\Local\Temp\cc6PZCfi.s:6576   .bss._ZL13filter_Pluck4:00000000 $d
C:\Users\skipi\AppData\Local\Temp\cc6PZCfi.s:6580   .bss._ZL13filter_Pluck4:00000000 _ZL13filter_Pluck4
C:\Users\skipi\AppData\Local\Temp\cc6PZCfi.s:6583   .bss._ZL14FilterEnv_Bass:00000000 $d
C:\Users\skipi\AppData\Local\Temp\cc6PZCfi.s:6587   .bss._ZL14FilterEnv_Bass:00000000 _ZL14FilterEnv_Bass
C:\Users\skipi\AppData\Local\Temp\cc6PZCfi.s:6590   .bss._ZL15FilterEnv_Pluck:00000000 $d
C:\Users\skipi\AppData\Local\Temp\cc6PZCfi.s:6594   .bss._ZL15FilterEnv_Pluck:00000000 _ZL15FilterEnv_Pluck
C:\Users\skipi\AppData\Local\Temp\cc6PZCfi.s:6597   .bss._ZL2hw:00000000 $d
C:\Users\skipi\AppData\Local\Temp\cc6PZCfi.s:6601   .bss._ZL2hw:00000000 _ZL2hw
C:\Users\skipi\AppData\Local\Temp\cc6PZCfi.s:6604   .bss._ZL4Pad1:00000000 $d
C:\Users\skipi\AppData\Local\Temp\cc6PZCfi.s:6608   .bss._ZL4Pad1:00000000 _ZL4Pad1
C:\Users\skipi\AppData\Local\Temp\cc6PZCfi.s:6611   .bss._ZL4Pad2:00000000 $d
C:\Users\skipi\AppData\Local\Temp\cc6PZCfi.s:6615   .bss._ZL4Pad2:00000000 _ZL4Pad2
C:\Users\skipi\AppData\Local\Temp\cc6PZCfi.s:6618   .bss._ZL5Bass1:00000000 $d
C:\Users\skipi\AppData\Local\Temp\cc6PZCfi.s:6622   .bss._ZL5Bass1:00000000 _ZL5Bass1
C:\Users\skipi\AppData\Local\Temp\cc6PZCfi.s:6625   .bss._ZL5Bass2:00000000 $d
C:\Users\skipi\AppData\Local\Temp\cc6PZCfi.s:6629   .bss._ZL5Bass2:00000000 _ZL5Bass2
C:\Users\skipi\AppData\Local\Temp\cc6PZCfi.s:6632   .bss._ZL6Pluck1:00000000 $d
C:\Users\skipi\AppData\Local\Temp\cc6PZCfi.s:6636   .bss._ZL6Pluck1:00000000 _ZL6Pluck1
C:\Users\skipi\AppData\Local\Temp\cc6PZCfi.s:6639   .bss._ZL6Pluck2:00000000 $d
C:\Users\skipi\AppData\Local\Temp\cc6PZCfi.s:6643   .bss._ZL6Pluck2:00000000 _ZL6Pluck2
C:\Users\skipi\AppData\Local\Temp\cc6PZCfi.s:6646   .bss._ZL6Pluck3:00000000 $d
C:\Users\skipi\AppData\Local\Temp\cc6PZCfi.s:6650   .bss._ZL6Pluck3:00000000 _ZL6Pluck3
C:\Users\skipi\AppData\Local\Temp\cc6PZCfi.s:6653   .bss._ZL6Pluck4:00000000 $d
C:\Users\skipi\AppData\Local\Temp\cc6PZCfi.s:6657   .bss._ZL6Pluck4:00000000 _ZL6Pluck4
C:\Users\skipi\AppData\Local\Temp\cc6PZCfi.s:6660   .bss._ZL8lfo_Pad1:00000000 $d
C:\Users\skipi\AppData\Local\Temp\cc6PZCfi.s:6664   .bss._ZL8lfo_Pad1:00000000 _ZL8lfo_Pad1
C:\Users\skipi\AppData\Local\Temp\cc6PZCfi.s:6667   .bss._ZL8lfo_Pad2:00000000 $d
C:\Users\skipi\AppData\Local\Temp\cc6PZCfi.s:6671   .bss._ZL8lfo_Pad2:00000000 _ZL8lfo_Pad2
C:\Users\skipi\AppData\Local\Temp\cc6PZCfi.s:6674   .bss._ZL9lfo_Bass1:00000000 $d
C:\Users\skipi\AppData\Local\Temp\cc6PZCfi.s:6678   .bss._ZL9lfo_Bass1:00000000 _ZL9lfo_Bass1
C:\Users\skipi\AppData\Local\Temp\cc6PZCfi.s:6681   .bss._ZL9lfo_Bass2:00000000 $d
C:\Users\skipi\AppData\Local\Temp\cc6PZCfi.s:6685   .bss._ZL9lfo_Bass2:00000000 _ZL9lfo_Bass2
C:\Users\skipi\AppData\Local\Temp\cc6PZCfi.s:6688   .bss.amp_env_Bass1:00000000 $d
C:\Users\skipi\AppData\Local\Temp\cc6PZCfi.s:6695   .bss.amp_env_Bass2:00000000 $d
C:\Users\skipi\AppData\Local\Temp\cc6PZCfi.s:6702   .bss.amp_env_Pad1:00000000 $d
C:\Users\skipi\AppData\Local\Temp\cc6PZCfi.s:6709   .bss.amp_env_Pad2:00000000 $d
C:\Users\skipi\AppData\Local\Temp\cc6PZCfi.s:6716   .bss.amp_env_Pluck1:00000000 $d
C:\Users\skipi\AppData\Local\Temp\cc6PZCfi.s:6723   .bss.amp_env_Pluck2:00000000 $d
C:\Users\skipi\AppData\Local\Temp\cc6PZCfi.s:6730   .bss.amp_env_Pluck3:00000000 $d
C:\Users\skipi\AppData\Local\Temp\cc6PZCfi.s:6737   .bss.amp_env_Pluck4:00000000 $d
C:\Users\skipi\AppData\Local\Temp\cc6PZCfi.s:6744   .bss.delayTime:00000000 $d
C:\Users\skipi\AppData\Local\Temp\cc6PZCfi.s:6750   .bss.filt_env_Bass1:00000000 $d
C:\Users\skipi\AppData\Local\Temp\cc6PZCfi.s:6757   .bss.filt_env_Bass2:00000000 $d
C:\Users\skipi\AppData\Local\Temp\cc6PZCfi.s:6764   .bss.filt_env_Pad1:00000000 $d
C:\Users\skipi\AppData\Local\Temp\cc6PZCfi.s:6771   .bss.filt_env_Pad2:00000000 $d
C:\Users\skipi\AppData\Local\Temp\cc6PZCfi.s:6778   .bss.filt_env_Pluck1:00000000 $d
C:\Users\skipi\AppData\Local\Temp\cc6PZCfi.s:6785   .bss.filt_env_Pluck2:00000000 $d
C:\Users\skipi\AppData\Local\Temp\cc6PZCfi.s:6792   .bss.filt_env_Pluck3:00000000 $d
C:\Users\skipi\AppData\Local\Temp\cc6PZCfi.s:6799   .bss.filt_env_Pluck4:00000000 $d
C:\Users\skipi\AppData\Local\Temp\cc6PZCfi.s:6806   .bss.knob:00000000 $d
C:\Users\skipi\AppData\Local\Temp\cc6PZCfi.s:6813   .bss.now_f_Bass1:00000000 $d
ARM GAS  C:\Users\skipi\AppData\Local\Temp\cc6PZCfi.s 			page 189


C:\Users\skipi\AppData\Local\Temp\cc6PZCfi.s:6820   .bss.now_f_Bass2:00000000 $d
C:\Users\skipi\AppData\Local\Temp\cc6PZCfi.s:6827   .bss.now_f_Pad1:00000000 $d
C:\Users\skipi\AppData\Local\Temp\cc6PZCfi.s:6834   .bss.now_f_Pad2:00000000 $d
C:\Users\skipi\AppData\Local\Temp\cc6PZCfi.s:6841   .bss.now_f_Pluck1:00000000 $d
C:\Users\skipi\AppData\Local\Temp\cc6PZCfi.s:6848   .bss.now_f_Pluck2:00000000 $d
C:\Users\skipi\AppData\Local\Temp\cc6PZCfi.s:6855   .bss.now_f_Pluck3:00000000 $d
C:\Users\skipi\AppData\Local\Temp\cc6PZCfi.s:6862   .bss.now_f_Pluck4:00000000 $d
C:\Users\skipi\AppData\Local\Temp\cc6PZCfi.s:6869   .bss.now_f_lfo_Bass1:00000000 $d
C:\Users\skipi\AppData\Local\Temp\cc6PZCfi.s:6876   .bss.now_f_lfo_Bass2:00000000 $d
C:\Users\skipi\AppData\Local\Temp\cc6PZCfi.s:6883   .bss.now_f_lfo_Pad1:00000000 $d
C:\Users\skipi\AppData\Local\Temp\cc6PZCfi.s:6890   .bss.now_f_lfo_Pad2:00000000 $d
C:\Users\skipi\AppData\Local\Temp\cc6PZCfi.s:6897   .bss.now_f_lfo_Pluck1:00000000 $d
C:\Users\skipi\AppData\Local\Temp\cc6PZCfi.s:6904   .bss.now_f_lfo_Pluck2:00000000 $d
C:\Users\skipi\AppData\Local\Temp\cc6PZCfi.s:6911   .bss.now_f_lfo_Pluck3:00000000 $d
C:\Users\skipi\AppData\Local\Temp\cc6PZCfi.s:6918   .bss.now_f_lfo_Pluck4:00000000 $d
C:\Users\skipi\AppData\Local\Temp\cc6PZCfi.s:6925   .bss.out_noFX:00000000 $d
C:\Users\skipi\AppData\Local\Temp\cc6PZCfi.s:6932   .bss.shape_Bass1:00000000 $d
C:\Users\skipi\AppData\Local\Temp\cc6PZCfi.s:6939   .bss.shape_Bass2:00000000 $d
C:\Users\skipi\AppData\Local\Temp\cc6PZCfi.s:6946   .bss.shape_Pad1:00000000 $d
C:\Users\skipi\AppData\Local\Temp\cc6PZCfi.s:6953   .bss.shape_Pad2:00000000 $d
C:\Users\skipi\AppData\Local\Temp\cc6PZCfi.s:6960   .bss.shape_Pluck1:00000000 $d
C:\Users\skipi\AppData\Local\Temp\cc6PZCfi.s:6967   .bss.shape_Pluck2:00000000 $d
C:\Users\skipi\AppData\Local\Temp\cc6PZCfi.s:6974   .bss.shape_Pluck3:00000000 $d
C:\Users\skipi\AppData\Local\Temp\cc6PZCfi.s:6981   .bss.shape_Pluck4:00000000 $d
C:\Users\skipi\AppData\Local\Temp\cc6PZCfi.s:6988   .bss.time:00000000 $d
C:\Users\skipi\AppData\Local\Temp\cc6PZCfi.s:6994   .data.Bass_Amp_ADSR:00000000 $d
C:\Users\skipi\AppData\Local\Temp\cc6PZCfi.s:7004   .data.Bass_Filter_ADSR:00000000 $d
C:\Users\skipi\AppData\Local\Temp\cc6PZCfi.s:7014   .data.Pad_Amp_ADSR:00000000 $d
C:\Users\skipi\AppData\Local\Temp\cc6PZCfi.s:7024   .data.Pad_Filter_ADSR:00000000 $d
C:\Users\skipi\AppData\Local\Temp\cc6PZCfi.s:7034   .data.Pluck_Amp_ADSR:00000000 $d
C:\Users\skipi\AppData\Local\Temp\cc6PZCfi.s:7044   .data.Pluck_Filter_ADSR:00000000 $d
C:\Users\skipi\AppData\Local\Temp\cc6PZCfi.s:7054   .data.amp_lfo_Bass:00000000 $d
C:\Users\skipi\AppData\Local\Temp\cc6PZCfi.s:7061   .data.amp_lfo_Pad:00000000 $d
C:\Users\skipi\AppData\Local\Temp\cc6PZCfi.s:7068   .data.amp_lfo_Pluck:00000000 $d
C:\Users\skipi\AppData\Local\Temp\cc6PZCfi.s:7075   .data.drive_bass:00000000 $d
C:\Users\skipi\AppData\Local\Temp\cc6PZCfi.s:7082   .data.drive_pad:00000000 $d
C:\Users\skipi\AppData\Local\Temp\cc6PZCfi.s:7089   .data.drive_pluck:00000000 $d
C:\Users\skipi\AppData\Local\Temp\cc6PZCfi.s:7096   .data.ef_Bass:00000000 $d
C:\Users\skipi\AppData\Local\Temp\cc6PZCfi.s:7103   .data.ef_Pad:00000000 $d
C:\Users\skipi\AppData\Local\Temp\cc6PZCfi.s:7110   .data.ef_Pluck:00000000 $d
C:\Users\skipi\AppData\Local\Temp\cc6PZCfi.s:7117   .data.f_Bass:00000000 $d
C:\Users\skipi\AppData\Local\Temp\cc6PZCfi.s:7124   .data.f_EG_bass:00000000 $d
C:\Users\skipi\AppData\Local\Temp\cc6PZCfi.s:7131   .data.f_EG_pad:00000000 $d
C:\Users\skipi\AppData\Local\Temp\cc6PZCfi.s:7138   .data.f_EG_pluck:00000000 $d
C:\Users\skipi\AppData\Local\Temp\cc6PZCfi.s:7145   .data.f_Pad:00000000 $d
C:\Users\skipi\AppData\Local\Temp\cc6PZCfi.s:7152   .data.f_Pluck:00000000 $d
C:\Users\skipi\AppData\Local\Temp\cc6PZCfi.s:7159   .data.f_lfo_Bass:00000000 $d
C:\Users\skipi\AppData\Local\Temp\cc6PZCfi.s:7166   .data.f_lfo_Pad:00000000 $d
C:\Users\skipi\AppData\Local\Temp\cc6PZCfi.s:7173   .data.f_lfo_Pluck:00000000 $d
C:\Users\skipi\AppData\Local\Temp\cc6PZCfi.s:7180   .data.ft_bass:00000000 $d
C:\Users\skipi\AppData\Local\Temp\cc6PZCfi.s:7187   .data.ft_pad:00000000 $d
C:\Users\skipi\AppData\Local\Temp\cc6PZCfi.s:7194   .data.ft_pluck:00000000 $d
C:\Users\skipi\AppData\Local\Temp\cc6PZCfi.s:7201   .data.g_Bass:00000000 $d
C:\Users\skipi\AppData\Local\Temp\cc6PZCfi.s:7209   .data.g_Pad:00000000 $d
C:\Users\skipi\AppData\Local\Temp\cc6PZCfi.s:7217   .data.g_Pluck:00000000 $d
C:\Users\skipi\AppData\Local\Temp\cc6PZCfi.s:7225   .data.mix_amp_Bass:00000000 $d
C:\Users\skipi\AppData\Local\Temp\cc6PZCfi.s:7232   .data.mix_amp_Pad:00000000 $d
ARM GAS  C:\Users\skipi\AppData\Local\Temp\cc6PZCfi.s 			page 190


C:\Users\skipi\AppData\Local\Temp\cc6PZCfi.s:7239   .data.mix_amp_Pluck:00000000 $d
C:\Users\skipi\AppData\Local\Temp\cc6PZCfi.s:7246   .data.res_bass:00000000 $d
C:\Users\skipi\AppData\Local\Temp\cc6PZCfi.s:7253   .data.res_pad:00000000 $d
C:\Users\skipi\AppData\Local\Temp\cc6PZCfi.s:7260   .data.res_pluck:00000000 $d
C:\Users\skipi\AppData\Local\Temp\cc6PZCfi.s:7267   .data.wf_Bass:00000000 $d
C:\Users\skipi\AppData\Local\Temp\cc6PZCfi.s:7274   .data.wf_Pad:00000000 $d
C:\Users\skipi\AppData\Local\Temp\cc6PZCfi.s:7281   .data.wf_Pluck:00000000 $d
                           .group:00000000 _ZN5daisy9DaisySeedD5Ev
                           .group:00000000 _ZN7daisysp4AdsrD5Ev
                           .group:00000000 _ZN7daisysp10OscillatorD5Ev
                           .group:00000000 _ZN7daisysp3SvfD5Ev

UNDEFINED SYMBOLS
_ZN7daisysp10Oscillator12CalcPhaseIncEf
_ZN7daisysp10Oscillator7ProcessEv
_ZN4Ramo8SetShapeEf
_ZN4Ramo7SetFreqEf
_ZN7daisysp4Adsr7ProcessEb
_ZN7daisysp3Svf7SetFreqEf
_ZN4Ramo7SetGainEf
_ZN4Ramo7ProcessEv
_ZN7daisysp3Svf7ProcessEf
logf
expf
_ZN5daisy9I2CHandle16TransmitBlockingEtPhtm
_ZN5daisy9I2CHandle15ReceiveBlockingEtPhtm
_ZN5daisy9DaisySeed9ConfigureEv
_ZN5daisy9DaisySeed4InitEb
_ZN5daisy6LoggerILNS_17LoggerDestinationE1EE8StartLogEb
_ZN5daisy9DaisySeed7DelayMsEj
_ZN5daisy9I2CHandle4InitERKNS0_6ConfigE
_ZN5daisy6System5DelayEm
_ZN5daisy9DaisySeed17SetAudioBlockSizeEj
_ZN5daisy9DaisySeed18SetAudioSampleRateENS_9SaiHandle6Config10SampleRateE
_ZN5daisy9DaisySeed15AudioSampleRateEv
_ZN4Ramo4InitEf
_ZN4Ramo12SetWaveformsEPh
_ZN4Ramo6SetAmpEPf
_ZN7daisysp4Adsr4InitEfi
_ZN7daisysp4Adsr7SetTimeEif
_ZN7daisysp3Svf4InitEf
_ZN7daisysp3Svf6SetResEf
_ZN7daisysp3Svf8SetDriveEf
_ZN5daisy9DaisySeed10StartAudioEPFvPKPKfPPfjE
rand
__aeabi_atexit
_ZN4RamoC1Ev
__dso_handle
_ZN4RamoD1Ev
