ARM GAS  C:\Users\skipi\AppData\Local\Temp\ccnbanHd.s 			page 1


   1              		.cpu cortex-m7
   2              		.eabi_attribute 28, 1
   3              		.eabi_attribute 20, 1
   4              		.eabi_attribute 21, 1
   5              		.eabi_attribute 23, 3
   6              		.eabi_attribute 24, 1
   7              		.eabi_attribute 25, 1
   8              		.eabi_attribute 26, 1
   9              		.eabi_attribute 30, 2
  10              		.eabi_attribute 34, 1
  11              		.eabi_attribute 18, 4
  12              		.file	"AudioEngine.cpp"
  13              		.text
  14              	.Ltext0:
  15              		.cfi_sections	.debug_frame
  16              		.section	.text._ZN11AudioEngineC2Ev,"ax",%progbits
  17              		.align	1
  18              		.p2align 2,,3
  19              		.global	_ZN11AudioEngineC2Ev
  20              		.arch armv7e-m
  21              		.syntax unified
  22              		.thumb
  23              		.thumb_func
  24              		.fpu fpv5-d16
  26              	_ZN11AudioEngineC2Ev:
  27              	.LVL0:
  28              	.LFB3576:
  29              		.file 1 "PSP/AudioEngine.cpp"
   1:PSP/AudioEngine.cpp **** #include "AudioEngine.h"
   2:PSP/AudioEngine.cpp **** #include "AudioEngineConfig.h"
   3:PSP/AudioEngine.cpp **** 
   4:PSP/AudioEngine.cpp **** AudioEngine::AudioEngine() {}
  30              		.loc 1 4 1 view -0
  31              		.cfi_startproc
  32              		@ args = 0, pretend = 0, frame = 0
  33              		@ frame_needed = 0, uses_anonymous_args = 0
  34              		@ link register save eliminated.
  35              	.LBB128:
  36              	.LBB129:
  37              		.file 2 "../libs/PoliTeKDSP/libs/DaisySP/Source/Control/adsr.h"
   1:../libs/PoliTeKDSP/libs/DaisySP/Source/Control/adsr.h **** /*
   2:../libs/PoliTeKDSP/libs/DaisySP/Source/Control/adsr.h **** Copyright (c) 2020 Electrosmith, Corp, Paul Batchelor
   3:../libs/PoliTeKDSP/libs/DaisySP/Source/Control/adsr.h **** 
   4:../libs/PoliTeKDSP/libs/DaisySP/Source/Control/adsr.h **** Use of this source code is governed by an MIT-style
   5:../libs/PoliTeKDSP/libs/DaisySP/Source/Control/adsr.h **** license that can be found in the LICENSE file or at
   6:../libs/PoliTeKDSP/libs/DaisySP/Source/Control/adsr.h **** https://opensource.org/licenses/MIT.
   7:../libs/PoliTeKDSP/libs/DaisySP/Source/Control/adsr.h **** */
   8:../libs/PoliTeKDSP/libs/DaisySP/Source/Control/adsr.h **** 
   9:../libs/PoliTeKDSP/libs/DaisySP/Source/Control/adsr.h **** #pragma once
  10:../libs/PoliTeKDSP/libs/DaisySP/Source/Control/adsr.h **** #ifndef DSY_ADSR_H
  11:../libs/PoliTeKDSP/libs/DaisySP/Source/Control/adsr.h **** #define DSY_ADSR_H
  12:../libs/PoliTeKDSP/libs/DaisySP/Source/Control/adsr.h **** 
  13:../libs/PoliTeKDSP/libs/DaisySP/Source/Control/adsr.h **** #include <stdint.h>
  14:../libs/PoliTeKDSP/libs/DaisySP/Source/Control/adsr.h **** #ifdef __cplusplus
  15:../libs/PoliTeKDSP/libs/DaisySP/Source/Control/adsr.h **** 
  16:../libs/PoliTeKDSP/libs/DaisySP/Source/Control/adsr.h **** namespace daisysp
  17:../libs/PoliTeKDSP/libs/DaisySP/Source/Control/adsr.h **** {
ARM GAS  C:\Users\skipi\AppData\Local\Temp\ccnbanHd.s 			page 2


  18:../libs/PoliTeKDSP/libs/DaisySP/Source/Control/adsr.h **** /** Distinct stages that the phase of the envelope can be located in.
  19:../libs/PoliTeKDSP/libs/DaisySP/Source/Control/adsr.h **** - IDLE   = located at phase location 0, and not currently running
  20:../libs/PoliTeKDSP/libs/DaisySP/Source/Control/adsr.h **** - ATTACK  = First segment of envelope where phase moves from 0 to 1
  21:../libs/PoliTeKDSP/libs/DaisySP/Source/Control/adsr.h **** - DECAY   = Second segment of envelope where phase moves from 1 to SUSTAIN value
  22:../libs/PoliTeKDSP/libs/DaisySP/Source/Control/adsr.h **** - RELEASE =     Fourth segment of envelop where phase moves from SUSTAIN to 0
  23:../libs/PoliTeKDSP/libs/DaisySP/Source/Control/adsr.h **** */
  24:../libs/PoliTeKDSP/libs/DaisySP/Source/Control/adsr.h **** enum
  25:../libs/PoliTeKDSP/libs/DaisySP/Source/Control/adsr.h **** {
  26:../libs/PoliTeKDSP/libs/DaisySP/Source/Control/adsr.h ****     ADSR_SEG_IDLE    = 0,
  27:../libs/PoliTeKDSP/libs/DaisySP/Source/Control/adsr.h ****     ADSR_SEG_ATTACK  = 1,
  28:../libs/PoliTeKDSP/libs/DaisySP/Source/Control/adsr.h ****     ADSR_SEG_DECAY   = 2,
  29:../libs/PoliTeKDSP/libs/DaisySP/Source/Control/adsr.h ****     ADSR_SEG_RELEASE = 4
  30:../libs/PoliTeKDSP/libs/DaisySP/Source/Control/adsr.h **** };
  31:../libs/PoliTeKDSP/libs/DaisySP/Source/Control/adsr.h **** 
  32:../libs/PoliTeKDSP/libs/DaisySP/Source/Control/adsr.h **** 
  33:../libs/PoliTeKDSP/libs/DaisySP/Source/Control/adsr.h **** /** adsr envelope module
  34:../libs/PoliTeKDSP/libs/DaisySP/Source/Control/adsr.h **** 
  35:../libs/PoliTeKDSP/libs/DaisySP/Source/Control/adsr.h **** Original author(s) : Paul Batchelor
  36:../libs/PoliTeKDSP/libs/DaisySP/Source/Control/adsr.h **** 
  37:../libs/PoliTeKDSP/libs/DaisySP/Source/Control/adsr.h **** Ported from Soundpipe by Ben Sergentanis, May 2020
  38:../libs/PoliTeKDSP/libs/DaisySP/Source/Control/adsr.h ****  
  39:../libs/PoliTeKDSP/libs/DaisySP/Source/Control/adsr.h **** Remake by Steffan DIedrichsen, May 2021
  40:../libs/PoliTeKDSP/libs/DaisySP/Source/Control/adsr.h **** */
  41:../libs/PoliTeKDSP/libs/DaisySP/Source/Control/adsr.h **** class Adsr
  42:../libs/PoliTeKDSP/libs/DaisySP/Source/Control/adsr.h **** {
  43:../libs/PoliTeKDSP/libs/DaisySP/Source/Control/adsr.h ****   public:
  44:../libs/PoliTeKDSP/libs/DaisySP/Source/Control/adsr.h ****     Adsr() {}
  38              		.loc 2 44 12 is_stmt 0 view .LVU1
  39 0000 0021     		movs	r1, #0
  40              	.LVL1:
  41              		.loc 2 44 12 view .LVU2
  42              	.LBE129:
  43              	.LBE128:
  44              	.LBB131:
  45              	.LBI131:
  46              		.file 3 "../libs/PoliTeKDSP/libs/DaisySP/Source/Synthesis/oscillator.h"
   1:../libs/PoliTeKDSP/libs/DaisySP/Source/Synthesis/oscillator.h **** /*
   2:../libs/PoliTeKDSP/libs/DaisySP/Source/Synthesis/oscillator.h **** Copyright (c) 2020 Electrosmith, Corp
   3:../libs/PoliTeKDSP/libs/DaisySP/Source/Synthesis/oscillator.h **** 
   4:../libs/PoliTeKDSP/libs/DaisySP/Source/Synthesis/oscillator.h **** Use of this source code is governed by an MIT-style
   5:../libs/PoliTeKDSP/libs/DaisySP/Source/Synthesis/oscillator.h **** license that can be found in the LICENSE file or at
   6:../libs/PoliTeKDSP/libs/DaisySP/Source/Synthesis/oscillator.h **** https://opensource.org/licenses/MIT.
   7:../libs/PoliTeKDSP/libs/DaisySP/Source/Synthesis/oscillator.h **** */
   8:../libs/PoliTeKDSP/libs/DaisySP/Source/Synthesis/oscillator.h **** 
   9:../libs/PoliTeKDSP/libs/DaisySP/Source/Synthesis/oscillator.h **** #pragma once
  10:../libs/PoliTeKDSP/libs/DaisySP/Source/Synthesis/oscillator.h **** #ifndef DSY_OSCILLATOR_H
  11:../libs/PoliTeKDSP/libs/DaisySP/Source/Synthesis/oscillator.h **** #define DSY_OSCILLATOR_H
  12:../libs/PoliTeKDSP/libs/DaisySP/Source/Synthesis/oscillator.h **** #include <stdint.h>
  13:../libs/PoliTeKDSP/libs/DaisySP/Source/Synthesis/oscillator.h **** #include "Utility/dsp.h"
  14:../libs/PoliTeKDSP/libs/DaisySP/Source/Synthesis/oscillator.h **** #ifdef __cplusplus
  15:../libs/PoliTeKDSP/libs/DaisySP/Source/Synthesis/oscillator.h **** 
  16:../libs/PoliTeKDSP/libs/DaisySP/Source/Synthesis/oscillator.h **** namespace daisysp
  17:../libs/PoliTeKDSP/libs/DaisySP/Source/Synthesis/oscillator.h **** {
  18:../libs/PoliTeKDSP/libs/DaisySP/Source/Synthesis/oscillator.h **** /** Synthesis of several waveforms, including polyBLEP bandlimited waveforms.
  19:../libs/PoliTeKDSP/libs/DaisySP/Source/Synthesis/oscillator.h **** */
  20:../libs/PoliTeKDSP/libs/DaisySP/Source/Synthesis/oscillator.h **** class Oscillator
  21:../libs/PoliTeKDSP/libs/DaisySP/Source/Synthesis/oscillator.h **** {
ARM GAS  C:\Users\skipi\AppData\Local\Temp\ccnbanHd.s 			page 3


  22:../libs/PoliTeKDSP/libs/DaisySP/Source/Synthesis/oscillator.h ****   public:
  23:../libs/PoliTeKDSP/libs/DaisySP/Source/Synthesis/oscillator.h ****     Oscillator() {}
  47              		.loc 3 23 5 is_stmt 1 view .LVU3
  48              		.loc 3 23 5 is_stmt 0 view .LVU4
  49              	.LBE131:
  50              	.LBB132:
  51              	.LBI132:
  52              		.loc 3 23 5 is_stmt 1 view .LVU5
  53              		.loc 3 23 5 is_stmt 0 view .LVU6
  54              	.LBE132:
  55              	.LBB133:
  56              	.LBI133:
  57              		.loc 3 23 5 is_stmt 1 view .LVU7
  58              		.loc 3 23 5 is_stmt 0 view .LVU8
  59              	.LBE133:
  60              	.LBB134:
  61              	.LBI134:
  62              		.loc 3 23 5 is_stmt 1 view .LVU9
  63              		.loc 3 23 5 is_stmt 0 view .LVU10
  64              	.LBE134:
  65              	.LBB135:
  66              	.LBI128:
  67              		.loc 2 44 5 is_stmt 1 view .LVU11
  68              	.LBB130:
  69              		.loc 2 44 12 is_stmt 0 view .LVU12
  70 0002 DFF878C0 		ldr	ip, .L3
  71 0006 0022     		movs	r2, #0
  72 0008 C0F8B010 		str	r1, [r0, #176]	@ float
  73 000c C0F8B410 		str	r1, [r0, #180]	@ float
  74 0010 C0F8B8C0 		str	ip, [r0, #184]	@ float
  75 0014 C0F8BC10 		str	r1, [r0, #188]	@ float
  76 0018 C0F8C0C0 		str	ip, [r0, #192]	@ float
  77 001c C0F8C4C0 		str	ip, [r0, #196]	@ float
  78 0020 C0F8C8C0 		str	ip, [r0, #200]	@ float
  79 0024 C0F8CC10 		str	r1, [r0, #204]	@ float
  80 0028 C0F8D010 		str	r1, [r0, #208]	@ float
  81 002c C0F8D410 		str	r1, [r0, #212]	@ float
  82 0030 A0F8DC20 		strh	r2, [r0, #220]	@ movhi
  83              	.LVL2:
  84              		.loc 2 44 12 view .LVU13
  85              	.LBE130:
  86              	.LBE135:
  87              	.LBB136:
  88              	.LBI136:
  89              		.loc 2 44 5 is_stmt 1 view .LVU14
  90              	.LBB137:
  91              		.loc 2 44 12 is_stmt 0 view .LVU15
  92 0034 C0F8E010 		str	r1, [r0, #224]	@ float
  93 0038 C0F8E410 		str	r1, [r0, #228]	@ float
  94 003c C0F8E8C0 		str	ip, [r0, #232]	@ float
  95 0040 C0F8EC10 		str	r1, [r0, #236]	@ float
  96 0044 C0F8F0C0 		str	ip, [r0, #240]	@ float
  97 0048 C0F8F4C0 		str	ip, [r0, #244]	@ float
  98 004c C0F8F8C0 		str	ip, [r0, #248]	@ float
  99 0050 C0F8FC10 		str	r1, [r0, #252]	@ float
 100 0054 C0F80011 		str	r1, [r0, #256]	@ float
 101 0058 C0F80411 		str	r1, [r0, #260]	@ float
ARM GAS  C:\Users\skipi\AppData\Local\Temp\ccnbanHd.s 			page 4


 102 005c A0F80C21 		strh	r2, [r0, #268]	@ movhi
 103              	.LVL3:
 104              		.loc 2 44 12 view .LVU16
 105              	.LBE137:
 106              	.LBE136:
 107              	.LBB138:
 108              	.LBI138:
 109              		.file 4 "../libs/PoliTeKDSP/libs/DaisySP/Source/Filters/ladder.h"
   1:../libs/PoliTeKDSP/libs/DaisySP/Source/Filters/ladder.h **** /* Ported from Audio Library for Teensy, Ladder Filter
   2:../libs/PoliTeKDSP/libs/DaisySP/Source/Filters/ladder.h ****  * Copyright (c) 2021, Richard van Hoesel
   3:../libs/PoliTeKDSP/libs/DaisySP/Source/Filters/ladder.h ****  * Copyright (c) 2024, Infrasonic Audio LLC
   4:../libs/PoliTeKDSP/libs/DaisySP/Source/Filters/ladder.h ****  *
   5:../libs/PoliTeKDSP/libs/DaisySP/Source/Filters/ladder.h ****  * Permission is hereby granted, free of charge, to any person obtaining a copy
   6:../libs/PoliTeKDSP/libs/DaisySP/Source/Filters/ladder.h ****  * of this software and associated documentation files (the "Software"), to deal
   7:../libs/PoliTeKDSP/libs/DaisySP/Source/Filters/ladder.h ****  * in the Software without restriction, including without limitation the rights
   8:../libs/PoliTeKDSP/libs/DaisySP/Source/Filters/ladder.h ****  * to use, copy, modify, merge, publish, distribute, sublicense, and/or sell
   9:../libs/PoliTeKDSP/libs/DaisySP/Source/Filters/ladder.h ****  * copies of the Software, and to permit persons to whom the Software is
  10:../libs/PoliTeKDSP/libs/DaisySP/Source/Filters/ladder.h ****  * furnished to do so, subject to the following conditions:
  11:../libs/PoliTeKDSP/libs/DaisySP/Source/Filters/ladder.h ****  *
  12:../libs/PoliTeKDSP/libs/DaisySP/Source/Filters/ladder.h ****  * The above copyright notice, development funding notice, and this permission
  13:../libs/PoliTeKDSP/libs/DaisySP/Source/Filters/ladder.h ****  * notice shall be included in all copies or substantial portions of the Software.
  14:../libs/PoliTeKDSP/libs/DaisySP/Source/Filters/ladder.h ****  *
  15:../libs/PoliTeKDSP/libs/DaisySP/Source/Filters/ladder.h ****  * THE SOFTWARE IS PROVIDED "AS IS", WITHOUT WARRANTY OF ANY KIND, EXPRESS OR
  16:../libs/PoliTeKDSP/libs/DaisySP/Source/Filters/ladder.h ****  * IMPLIED, INCLUDING BUT NOT LIMITED TO THE WARRANTIES OF MERCHANTABILITY,
  17:../libs/PoliTeKDSP/libs/DaisySP/Source/Filters/ladder.h ****  * FITNESS FOR A PARTICULAR PURPOSE AND NONINFRINGEMENT. IN NO EVENT SHALL THE
  18:../libs/PoliTeKDSP/libs/DaisySP/Source/Filters/ladder.h ****  * AUTHORS OR COPYRIGHT HOLDERS BE LIABLE FOR ANY CLAIM, DAMAGES OR OTHER
  19:../libs/PoliTeKDSP/libs/DaisySP/Source/Filters/ladder.h ****  * LIABILITY, WHETHER IN AN ACTION OF CONTRACT, TORT OR OTHERWISE, ARISING FROM,
  20:../libs/PoliTeKDSP/libs/DaisySP/Source/Filters/ladder.h ****  * OUT OF OR IN CONNECTION WITH THE SOFTWARE OR THE USE OR OTHER DEALINGS IN
  21:../libs/PoliTeKDSP/libs/DaisySP/Source/Filters/ladder.h ****  * THE SOFTWARE.
  22:../libs/PoliTeKDSP/libs/DaisySP/Source/Filters/ladder.h ****  */
  23:../libs/PoliTeKDSP/libs/DaisySP/Source/Filters/ladder.h **** 
  24:../libs/PoliTeKDSP/libs/DaisySP/Source/Filters/ladder.h **** //-----------------------------------------------------------
  25:../libs/PoliTeKDSP/libs/DaisySP/Source/Filters/ladder.h **** // Huovilainen New Moog (HNM) model as per CMJ jun 2006
  26:../libs/PoliTeKDSP/libs/DaisySP/Source/Filters/ladder.h **** // Richard van Hoesel, v. 1.03, Feb. 14 2021
  27:../libs/PoliTeKDSP/libs/DaisySP/Source/Filters/ladder.h **** // v1.7 (Infrasonic/Daisy) add configurable filter mode
  28:../libs/PoliTeKDSP/libs/DaisySP/Source/Filters/ladder.h **** // v1.6 (Infrasonic/Daisy) removes polyphase FIR, uses 4x linear
  29:../libs/PoliTeKDSP/libs/DaisySP/Source/Filters/ladder.h **** //      oversampling for performance reasons
  30:../libs/PoliTeKDSP/libs/DaisySP/Source/Filters/ladder.h **** // v1.5 adds polyphase FIR or Linear interpolation
  31:../libs/PoliTeKDSP/libs/DaisySP/Source/Filters/ladder.h **** // v1.4 FC extended to 18.7kHz, max res to 1.8, 4x oversampling,
  32:../libs/PoliTeKDSP/libs/DaisySP/Source/Filters/ladder.h **** //      and a minor Q-tuning adjustment
  33:../libs/PoliTeKDSP/libs/DaisySP/Source/Filters/ladder.h **** // v.1.03 adds oversampling, extended resonance,
  34:../libs/PoliTeKDSP/libs/DaisySP/Source/Filters/ladder.h **** // and exposes parameters input_drive and passband_gain
  35:../libs/PoliTeKDSP/libs/DaisySP/Source/Filters/ladder.h **** // v.1.02 now includes both cutoff and resonance "CV" modulation inputs
  36:../libs/PoliTeKDSP/libs/DaisySP/Source/Filters/ladder.h **** // please retain this header if you use this code.
  37:../libs/PoliTeKDSP/libs/DaisySP/Source/Filters/ladder.h **** //-----------------------------------------------------------
  38:../libs/PoliTeKDSP/libs/DaisySP/Source/Filters/ladder.h **** 
  39:../libs/PoliTeKDSP/libs/DaisySP/Source/Filters/ladder.h **** #pragma once
  40:../libs/PoliTeKDSP/libs/DaisySP/Source/Filters/ladder.h **** #ifndef DSY_LADDER_H
  41:../libs/PoliTeKDSP/libs/DaisySP/Source/Filters/ladder.h **** #define DSY_LADDER_H
  42:../libs/PoliTeKDSP/libs/DaisySP/Source/Filters/ladder.h **** 
  43:../libs/PoliTeKDSP/libs/DaisySP/Source/Filters/ladder.h **** #include <stdlib.h>
  44:../libs/PoliTeKDSP/libs/DaisySP/Source/Filters/ladder.h **** #include <stdint.h>
  45:../libs/PoliTeKDSP/libs/DaisySP/Source/Filters/ladder.h **** #include <array>
  46:../libs/PoliTeKDSP/libs/DaisySP/Source/Filters/ladder.h **** #ifdef __cplusplus
  47:../libs/PoliTeKDSP/libs/DaisySP/Source/Filters/ladder.h **** 
  48:../libs/PoliTeKDSP/libs/DaisySP/Source/Filters/ladder.h **** namespace daisysp
  49:../libs/PoliTeKDSP/libs/DaisySP/Source/Filters/ladder.h **** {
ARM GAS  C:\Users\skipi\AppData\Local\Temp\ccnbanHd.s 			page 5


  50:../libs/PoliTeKDSP/libs/DaisySP/Source/Filters/ladder.h **** /**
  51:../libs/PoliTeKDSP/libs/DaisySP/Source/Filters/ladder.h ****  * 4-pole ladder filter model with selectable filter type (LP/BP/HP 12 or 24 dB/oct),
  52:../libs/PoliTeKDSP/libs/DaisySP/Source/Filters/ladder.h ****  * drive, passband gain compensation, and stable self-oscillation.
  53:../libs/PoliTeKDSP/libs/DaisySP/Source/Filters/ladder.h ****  *
  54:../libs/PoliTeKDSP/libs/DaisySP/Source/Filters/ladder.h ****  *
  55:../libs/PoliTeKDSP/libs/DaisySP/Source/Filters/ladder.h ****  */
  56:../libs/PoliTeKDSP/libs/DaisySP/Source/Filters/ladder.h **** class LadderFilter
  57:../libs/PoliTeKDSP/libs/DaisySP/Source/Filters/ladder.h **** {
  58:../libs/PoliTeKDSP/libs/DaisySP/Source/Filters/ladder.h ****   public:
  59:../libs/PoliTeKDSP/libs/DaisySP/Source/Filters/ladder.h ****     enum class FilterMode
  60:../libs/PoliTeKDSP/libs/DaisySP/Source/Filters/ladder.h ****     {
  61:../libs/PoliTeKDSP/libs/DaisySP/Source/Filters/ladder.h ****         LP24,
  62:../libs/PoliTeKDSP/libs/DaisySP/Source/Filters/ladder.h ****         LP12,
  63:../libs/PoliTeKDSP/libs/DaisySP/Source/Filters/ladder.h ****         BP24,
  64:../libs/PoliTeKDSP/libs/DaisySP/Source/Filters/ladder.h ****         BP12,
  65:../libs/PoliTeKDSP/libs/DaisySP/Source/Filters/ladder.h ****         HP24,
  66:../libs/PoliTeKDSP/libs/DaisySP/Source/Filters/ladder.h ****         HP12
  67:../libs/PoliTeKDSP/libs/DaisySP/Source/Filters/ladder.h ****     };
  68:../libs/PoliTeKDSP/libs/DaisySP/Source/Filters/ladder.h **** 
  69:../libs/PoliTeKDSP/libs/DaisySP/Source/Filters/ladder.h ****     LadderFilter()  = default;
 110              		.loc 4 69 5 is_stmt 1 view .LVU17
 111              	.LBB139:
 112 0060 C0E94722 		strd	r2, r2, [r0, #284]
 113 0064 C0E94922 		strd	r2, r2, [r0, #292]
 114 0068 C0E94B22 		strd	r2, r2, [r0, #300]
 115 006c C0E94D22 		strd	r2, r2, [r0, #308]
 116 0070 C0E94F22 		strd	r2, r2, [r0, #316]
 117 0074 C0E95122 		strd	r2, r2, [r0, #324]
 118              	.LVL4:
 119              		.loc 4 69 5 is_stmt 0 view .LVU18
 120              	.LBE139:
 121              	.LBE138:
 122              		.loc 1 4 29 view .LVU19
 123 0078 7047     		bx	lr
 124              	.L4:
 125 007a 00BF     		.align	2
 126              	.L3:
 127 007c 000080BF 		.word	-1082130432
 128              		.cfi_endproc
 129              	.LFE3576:
 131              		.global	_ZN11AudioEngineC1Ev
 132              		.thumb_set _ZN11AudioEngineC1Ev,_ZN11AudioEngineC2Ev
 133              		.section	.text._ZN11AudioEngineD2Ev,"ax",%progbits
 134              		.align	1
 135              		.p2align 2,,3
 136              		.global	_ZN11AudioEngineD2Ev
 137              		.syntax unified
 138              		.thumb
 139              		.thumb_func
 140              		.fpu fpv5-d16
 142              	_ZN11AudioEngineD2Ev:
 143              	.LVL5:
 144              	.LFB3579:
   5:PSP/AudioEngine.cpp **** AudioEngine::~AudioEngine() {}
 145              		.loc 1 5 1 is_stmt 1 view -0
 146              		.cfi_startproc
 147              		@ args = 0, pretend = 0, frame = 0
ARM GAS  C:\Users\skipi\AppData\Local\Temp\ccnbanHd.s 			page 6


 148              		@ frame_needed = 0, uses_anonymous_args = 0
 149              		@ link register save eliminated.
 150              	.LBB140:
 151              	.LBI140:
  45:../libs/PoliTeKDSP/libs/DaisySP/Source/Control/adsr.h ****     ~Adsr() {}
 152              		.loc 2 45 5 view .LVU21
 153              		.loc 2 45 5 is_stmt 0 view .LVU22
 154              	.LBE140:
 155              	.LBB141:
 156              	.LBI141:
 157              		.loc 2 45 5 is_stmt 1 view .LVU23
 158              		.loc 2 45 5 is_stmt 0 view .LVU24
 159              	.LBE141:
 160              	.LBB142:
 161              	.LBI142:
  24:../libs/PoliTeKDSP/libs/DaisySP/Source/Synthesis/oscillator.h ****     ~Oscillator() {}
 162              		.loc 3 24 5 is_stmt 1 view .LVU25
 163              		.loc 3 24 5 is_stmt 0 view .LVU26
 164              	.LBE142:
 165              	.LBB143:
 166              	.LBI143:
 167              		.loc 3 24 5 is_stmt 1 view .LVU27
 168              		.loc 3 24 5 is_stmt 0 view .LVU28
 169              	.LBE143:
 170              	.LBB144:
 171              	.LBI144:
 172              		.loc 3 24 5 is_stmt 1 view .LVU29
 173              		.loc 3 24 5 is_stmt 0 view .LVU30
 174              	.LBE144:
 175              	.LBB145:
 176              	.LBI145:
 177              		.loc 3 24 5 is_stmt 1 view .LVU31
 178              		.loc 3 24 5 is_stmt 0 view .LVU32
 179              	.LBE145:
 180              		.loc 1 5 30 view .LVU33
 181 0000 7047     		bx	lr
 182              		.cfi_endproc
 183              	.LFE3579:
 185              		.global	_ZN11AudioEngineD1Ev
 186              		.thumb_set _ZN11AudioEngineD1Ev,_ZN11AudioEngineD2Ev
 187 0002 00BF     		.section	.text._ZN11AudioEngine9SetPresetE11SynthPreset,"ax",%progbits
 188              		.align	1
 189              		.p2align 2,,3
 190              		.global	_ZN11AudioEngine9SetPresetE11SynthPreset
 191              		.syntax unified
 192              		.thumb
 193              		.thumb_func
 194              		.fpu fpv5-d16
 196              	_ZN11AudioEngine9SetPresetE11SynthPreset:
 197              	.LVL6:
 198              	.LFB3582:
   6:PSP/AudioEngine.cpp **** 
   7:PSP/AudioEngine.cpp **** void AudioEngine::Init(float sample_rate) {
   8:PSP/AudioEngine.cpp ****     // Inizializzazione moduli
   9:PSP/AudioEngine.cpp ****     _osc1.Init(sample_rate);
  10:PSP/AudioEngine.cpp ****     _osc2.Init(sample_rate);
  11:PSP/AudioEngine.cpp ****     _lfo1.Init(sample_rate);
ARM GAS  C:\Users\skipi\AppData\Local\Temp\ccnbanHd.s 			page 7


  12:PSP/AudioEngine.cpp ****     _lfo2.Init(sample_rate);
  13:PSP/AudioEngine.cpp ****     _Amp_env.Init(sample_rate);
  14:PSP/AudioEngine.cpp ****     _Filt_env.Init(sample_rate);
  15:PSP/AudioEngine.cpp ****     _Filt.Init(sample_rate);
  16:PSP/AudioEngine.cpp **** 
  17:PSP/AudioEngine.cpp ****     _lastGate = false;
  18:PSP/AudioEngine.cpp ****     _currentFreq = 440.0f;
  19:PSP/AudioEngine.cpp ****     
  20:PSP/AudioEngine.cpp ****     // Configura un preset di default
  21:PSP/AudioEngine.cpp ****     SetPreset(PRESET_LEAD);
  22:PSP/AudioEngine.cpp **** }
  23:PSP/AudioEngine.cpp **** 
  24:PSP/AudioEngine.cpp **** void AudioEngine::SetPreset(SynthPreset preset) {
 199              		.loc 1 24 49 is_stmt 1 view -0
 200              		.cfi_startproc
 201              		@ args = 0, pretend = 0, frame = 8
 202              		@ frame_needed = 0, uses_anonymous_args = 0
  25:PSP/AudioEngine.cpp ****     _currentPreset = preset;
 203              		.loc 1 25 5 view .LVU35
  26:PSP/AudioEngine.cpp **** 
  27:PSP/AudioEngine.cpp ****     // 1. Popolamento delle struct in base al preset
  28:PSP/AudioEngine.cpp ****     switch (preset) {
 204              		.loc 1 28 5 is_stmt 0 view .LVU36
 205 0000 0129     		cmp	r1, #1
  24:PSP/AudioEngine.cpp ****     _currentPreset = preset;
 206              		.loc 1 24 49 view .LVU37
 207 0002 70B5     		push	{r4, r5, r6, lr}
 208              		.cfi_def_cfa_offset 16
 209              		.cfi_offset 4, -16
 210              		.cfi_offset 5, -12
 211              		.cfi_offset 6, -8
 212              		.cfi_offset 14, -4
 213 0004 0446     		mov	r4, r0
 214 0006 2DED028B 		vpush.64	{d8}
 215              		.cfi_def_cfa_offset 24
 216              		.cfi_offset 80, -24
 217              		.cfi_offset 81, -20
  25:PSP/AudioEngine.cpp ****     _currentPreset = preset;
 218              		.loc 1 25 20 view .LVU38
 219 000a 80F8DC11 		strb	r1, [r0, #476]
 220              		.loc 1 28 5 is_stmt 1 view .LVU39
  24:PSP/AudioEngine.cpp ****     _currentPreset = preset;
 221              		.loc 1 24 49 is_stmt 0 view .LVU40
 222 000e 82B0     		sub	sp, sp, #8
 223              		.cfi_def_cfa_offset 32
 224              		.loc 1 28 5 view .LVU41
 225 0010 00F0CB80 		beq	.L7
 226 0014 0229     		cmp	r1, #2
 227 0016 00F0DF81 		beq	.L8
 228 001a 0029     		cmp	r1, #0
 229 001c 00F02281 		beq	.L9
  29:PSP/AudioEngine.cpp ****         case PRESET_PAD:
  30:PSP/AudioEngine.cpp ****             _osc1Param.Waveform = pad_waveform1;
  31:PSP/AudioEngine.cpp ****             _osc1Param.Amp      = pad_amp1;
  32:PSP/AudioEngine.cpp ****             _osc1Param.Shape    = pad_shape1;
  33:PSP/AudioEngine.cpp ****             
  34:PSP/AudioEngine.cpp ****             _osc2Param.Waveform = pad_waveform2;
ARM GAS  C:\Users\skipi\AppData\Local\Temp\ccnbanHd.s 			page 8


  35:PSP/AudioEngine.cpp ****             _osc2Param.Amp      = pad_amp2;
  36:PSP/AudioEngine.cpp ****             _osc2Param.Shape    = pad_shape2; 
  37:PSP/AudioEngine.cpp **** 
  38:PSP/AudioEngine.cpp ****             _lfo1Param.Waveform = lfo_pad_waveform1;
  39:PSP/AudioEngine.cpp ****             _lfo1Param.Amp      = lfo_pad_Amp1;
  40:PSP/AudioEngine.cpp ****             _lfo1Param.Shape    = lfo_pad_Shape1;
  41:PSP/AudioEngine.cpp **** 
  42:PSP/AudioEngine.cpp ****             _lfo2Param.Waveform = lfo_pad_waveform2;
  43:PSP/AudioEngine.cpp ****             _lfo2Param.Amp      = lfo_pad_Amp2;
  44:PSP/AudioEngine.cpp ****             _lfo2Param.Shape    = lfo_pad_Shape2;
  45:PSP/AudioEngine.cpp **** 
  46:PSP/AudioEngine.cpp ****             _Amp_envParam.Attack  = pad_attack;
  47:PSP/AudioEngine.cpp ****             _Amp_envParam.Decay   = pad_decay;
  48:PSP/AudioEngine.cpp ****             _Amp_envParam.Release = pad_release;
  49:PSP/AudioEngine.cpp ****             _Amp_envParam.Sustain = pad_sustain;
  50:PSP/AudioEngine.cpp **** 
  51:PSP/AudioEngine.cpp ****             _Filt_envParam.Attack  = pad_fattack;
  52:PSP/AudioEngine.cpp ****             _Filt_envParam.Decay   = pad_fdecay;
  53:PSP/AudioEngine.cpp ****             _Filt_envParam.Release = pad_frelease;
  54:PSP/AudioEngine.cpp ****             _Filt_envParam.Sustain = pad_fsustain;
  55:PSP/AudioEngine.cpp **** 
  56:PSP/AudioEngine.cpp ****             _FiltParam.Cutoff    = pad_cutoff_freq;
  57:PSP/AudioEngine.cpp ****             _FiltParam.Resonance = pad_res;
  58:PSP/AudioEngine.cpp ****             break;
  59:PSP/AudioEngine.cpp **** 
  60:PSP/AudioEngine.cpp ****         case PRESET_PLUCK:
  61:PSP/AudioEngine.cpp ****             _osc1Param.Waveform = pluck_waveform1;
  62:PSP/AudioEngine.cpp ****             _osc1Param.Amp      = pluck_amp1;
  63:PSP/AudioEngine.cpp ****             _osc1Param.Shape    = pluck_shape1;
  64:PSP/AudioEngine.cpp **** 
  65:PSP/AudioEngine.cpp ****             _osc2Param.Waveform = pluck_waveform2;
  66:PSP/AudioEngine.cpp ****             _osc2Param.Amp      = pluck_amp2;
  67:PSP/AudioEngine.cpp ****             _osc2Param.Shape    = pluck_shape2;
  68:PSP/AudioEngine.cpp **** 
  69:PSP/AudioEngine.cpp ****             _lfo1Param.Waveform = lfo_pluck_waveform1;
  70:PSP/AudioEngine.cpp ****             _lfo1Param.Amp      = lfo_pluck_Amp1;
  71:PSP/AudioEngine.cpp ****             _lfo1Param.Shape    = lfo_pluck_Shape1;
  72:PSP/AudioEngine.cpp **** 
  73:PSP/AudioEngine.cpp ****             _lfo2Param.Waveform = lfo_pluck_waveform2;
  74:PSP/AudioEngine.cpp ****             _lfo2Param.Amp      = lfo_pluck_Amp2;
  75:PSP/AudioEngine.cpp ****             _lfo2Param.Shape    = lfo_pluck_Shape2;
  76:PSP/AudioEngine.cpp **** 
  77:PSP/AudioEngine.cpp ****             _Amp_envParam.Attack  = pluck_attack;
  78:PSP/AudioEngine.cpp ****             _Amp_envParam.Decay   = pluck_decay;
  79:PSP/AudioEngine.cpp ****             _Amp_envParam.Release = pluck_release;
  80:PSP/AudioEngine.cpp ****             _Amp_envParam.Sustain = pluck_sustain;
  81:PSP/AudioEngine.cpp **** 
  82:PSP/AudioEngine.cpp ****             _Filt_envParam.Attack  = pluck_fattack;
  83:PSP/AudioEngine.cpp ****             _Filt_envParam.Decay   = pluck_fdecay;
  84:PSP/AudioEngine.cpp ****             _Filt_envParam.Release = pluck_frelease;
  85:PSP/AudioEngine.cpp ****             _Filt_envParam.Sustain = pluck_fsustain;
  86:PSP/AudioEngine.cpp **** 
  87:PSP/AudioEngine.cpp ****             _FiltParam.Cutoff    = pluck_cutoff_freq;
  88:PSP/AudioEngine.cpp ****             _FiltParam.Resonance = pluck_res;
  89:PSP/AudioEngine.cpp ****             break;
  90:PSP/AudioEngine.cpp **** 
  91:PSP/AudioEngine.cpp ****         case PRESET_LEAD:
ARM GAS  C:\Users\skipi\AppData\Local\Temp\ccnbanHd.s 			page 9


  92:PSP/AudioEngine.cpp ****             _osc1Param.Waveform = lead_waveform1;
  93:PSP/AudioEngine.cpp ****             _osc1Param.Amp      = lead_amp1;
  94:PSP/AudioEngine.cpp ****             _osc1Param.Shape    = lead_shape1;
  95:PSP/AudioEngine.cpp **** 
  96:PSP/AudioEngine.cpp ****             _osc2Param.Waveform = lead_waveform2;
  97:PSP/AudioEngine.cpp ****             _osc2Param.Amp      = lead_amp2;
  98:PSP/AudioEngine.cpp ****             _osc2Param.Shape    = lead_shape2;
  99:PSP/AudioEngine.cpp **** 
 100:PSP/AudioEngine.cpp ****             _lfo1Param.Waveform = lfo_lead_waveform1;
 101:PSP/AudioEngine.cpp ****             _lfo1Param.Amp      = lfo_lead_Amp1;
 102:PSP/AudioEngine.cpp ****             _lfo1Param.Shape    = lfo_lead_Shape1;
 103:PSP/AudioEngine.cpp **** 
 104:PSP/AudioEngine.cpp ****             _lfo2Param.Waveform = lfo_lead_waveform2;
 105:PSP/AudioEngine.cpp ****             _lfo2Param.Amp      = lfo_lead_Amp2;
 106:PSP/AudioEngine.cpp ****             _lfo2Param.Shape    = lfo_lead_Shape2;
 107:PSP/AudioEngine.cpp **** 
 108:PSP/AudioEngine.cpp ****             _Amp_envParam.Attack  = lead_attack;
 109:PSP/AudioEngine.cpp ****             _Amp_envParam.Decay   = lead_decay;
 110:PSP/AudioEngine.cpp ****             _Amp_envParam.Release = lead_release;
 111:PSP/AudioEngine.cpp ****             _Amp_envParam.Sustain = lead_sustain;
 112:PSP/AudioEngine.cpp **** 
 113:PSP/AudioEngine.cpp ****             _Filt_envParam.Attack  = lead_fattack;
 114:PSP/AudioEngine.cpp ****             _Filt_envParam.Decay   = lead_fdecay;
 115:PSP/AudioEngine.cpp ****             _Filt_envParam.Release = lead_frelease;
 116:PSP/AudioEngine.cpp ****             _Filt_envParam.Sustain = lead_fsustain;
 117:PSP/AudioEngine.cpp ****             _Filt_envParam.Amp = lead_fAmp;
 118:PSP/AudioEngine.cpp **** 
 119:PSP/AudioEngine.cpp ****             _FiltParam.Cutoff    = lead_cutoff_freq;
 120:PSP/AudioEngine.cpp ****             _FiltParam.Resonance = lead_res;
 121:PSP/AudioEngine.cpp ****             break;
 122:PSP/AudioEngine.cpp **** 
 123:PSP/AudioEngine.cpp ****         default:
 124:PSP/AudioEngine.cpp ****             break;
 125:PSP/AudioEngine.cpp ****     }
 126:PSP/AudioEngine.cpp **** 
 127:PSP/AudioEngine.cpp ****     // 2. Applicazione dei parametri estratti agli oggetti DSP
 128:PSP/AudioEngine.cpp ****     _osc1.SetWaveform(_osc1Param.Waveform);
 230              		.loc 1 128 22 view .LVU42
 231 0020 90F86C11 		ldrb	r1, [r0, #364]	@ zero_extendqisi2
 232              	.LVL7:
 129:PSP/AudioEngine.cpp ****     _osc1.SetAmp(_osc1Param.Amp);
 233              		.loc 1 129 17 view .LVU43
 234 0024 D0F870C1 		ldr	ip, [r0, #368]	@ float
 130:PSP/AudioEngine.cpp ****     _osc1.SetPw(_osc1Param.Shape);
 235              		.loc 1 130 16 view .LVU44
 236 0028 D0ED5D6A 		vldr.32	s13, [r0, #372]
 131:PSP/AudioEngine.cpp ****     
 132:PSP/AudioEngine.cpp ****     _osc2.SetWaveform(_osc2Param.Waveform);
 237              		.loc 1 132 22 view .LVU45
 238 002c 90F87C21 		ldrb	r2, [r0, #380]	@ zero_extendqisi2
 133:PSP/AudioEngine.cpp ****     _osc2.SetAmp(_osc2Param.Amp);
 134:PSP/AudioEngine.cpp ****     _osc2.SetPw(_osc2Param.Shape);
 239              		.loc 1 134 16 view .LVU46
 240 0030 94ED617A 		vldr.32	s14, [r4, #388]
 133:PSP/AudioEngine.cpp ****     _osc2.SetAmp(_osc2Param.Amp);
 241              		.loc 1 133 17 view .LVU47
 242 0034 D0F88001 		ldr	r0, [r0, #384]	@ float
ARM GAS  C:\Users\skipi\AppData\Local\Temp\ccnbanHd.s 			page 10


 243              	.LVL8:
 135:PSP/AudioEngine.cpp **** 
 136:PSP/AudioEngine.cpp ****     _lfo1.SetWaveform(_lfo1Param.Waveform);
 137:PSP/AudioEngine.cpp ****     _lfo1.SetAmp(_lfo1Param.Amp);
 138:PSP/AudioEngine.cpp ****     _lfo1.SetPw(_lfo1Param.Shape);
 244              		.loc 1 138 16 view .LVU48
 245 0038 D4ED657A 		vldr.32	s15, [r4, #404]
 136:PSP/AudioEngine.cpp ****     _lfo1.SetAmp(_lfo1Param.Amp);
 246              		.loc 1 136 22 view .LVU49
 247 003c 94F88C31 		ldrb	r3, [r4, #396]	@ zero_extendqisi2
 137:PSP/AudioEngine.cpp ****     _lfo1.SetPw(_lfo1Param.Shape);
 248              		.loc 1 137 17 view .LVU50
 249 0040 D4F89051 		ldr	r5, [r4, #400]	@ float
 250              	.L10:
 128:PSP/AudioEngine.cpp ****     _osc1.SetAmp(_osc1Param.Amp);
 251              		.loc 1 128 5 is_stmt 1 view .LVU51
 252              	.LVL9:
 253              	.LBB146:
 254              	.LBI146:
  25:../libs/PoliTeKDSP/libs/DaisySP/Source/Synthesis/oscillator.h ****     /** Choices for output waveforms, POLYBLEP are appropriately labeled. Others are naive forms.
  26:../libs/PoliTeKDSP/libs/DaisySP/Source/Synthesis/oscillator.h ****     */
  27:../libs/PoliTeKDSP/libs/DaisySP/Source/Synthesis/oscillator.h ****     enum
  28:../libs/PoliTeKDSP/libs/DaisySP/Source/Synthesis/oscillator.h ****     {
  29:../libs/PoliTeKDSP/libs/DaisySP/Source/Synthesis/oscillator.h ****         WAVE_SIN,
  30:../libs/PoliTeKDSP/libs/DaisySP/Source/Synthesis/oscillator.h ****         WAVE_TRI,
  31:../libs/PoliTeKDSP/libs/DaisySP/Source/Synthesis/oscillator.h ****         WAVE_SAW,
  32:../libs/PoliTeKDSP/libs/DaisySP/Source/Synthesis/oscillator.h ****         WAVE_RAMP,
  33:../libs/PoliTeKDSP/libs/DaisySP/Source/Synthesis/oscillator.h ****         WAVE_SQUARE,
  34:../libs/PoliTeKDSP/libs/DaisySP/Source/Synthesis/oscillator.h ****         WAVE_POLYBLEP_TRI,
  35:../libs/PoliTeKDSP/libs/DaisySP/Source/Synthesis/oscillator.h ****         WAVE_POLYBLEP_SAW,
  36:../libs/PoliTeKDSP/libs/DaisySP/Source/Synthesis/oscillator.h ****         WAVE_POLYBLEP_SQUARE,
  37:../libs/PoliTeKDSP/libs/DaisySP/Source/Synthesis/oscillator.h ****         WAVE_LAST,
  38:../libs/PoliTeKDSP/libs/DaisySP/Source/Synthesis/oscillator.h ****     };
  39:../libs/PoliTeKDSP/libs/DaisySP/Source/Synthesis/oscillator.h **** 
  40:../libs/PoliTeKDSP/libs/DaisySP/Source/Synthesis/oscillator.h **** 
  41:../libs/PoliTeKDSP/libs/DaisySP/Source/Synthesis/oscillator.h ****     /** Initializes the Oscillator
  42:../libs/PoliTeKDSP/libs/DaisySP/Source/Synthesis/oscillator.h **** 
  43:../libs/PoliTeKDSP/libs/DaisySP/Source/Synthesis/oscillator.h ****         \param sample_rate - sample rate of the audio engine being run, and the frequency that the 
  44:../libs/PoliTeKDSP/libs/DaisySP/Source/Synthesis/oscillator.h **** 
  45:../libs/PoliTeKDSP/libs/DaisySP/Source/Synthesis/oscillator.h ****         Defaults:
  46:../libs/PoliTeKDSP/libs/DaisySP/Source/Synthesis/oscillator.h ****         - freq_ = 100 Hz
  47:../libs/PoliTeKDSP/libs/DaisySP/Source/Synthesis/oscillator.h ****         - amp_ = 0.5
  48:../libs/PoliTeKDSP/libs/DaisySP/Source/Synthesis/oscillator.h ****         - waveform_ = sine wave.
  49:../libs/PoliTeKDSP/libs/DaisySP/Source/Synthesis/oscillator.h ****     */
  50:../libs/PoliTeKDSP/libs/DaisySP/Source/Synthesis/oscillator.h ****     void Init(float sample_rate)
  51:../libs/PoliTeKDSP/libs/DaisySP/Source/Synthesis/oscillator.h ****     {
  52:../libs/PoliTeKDSP/libs/DaisySP/Source/Synthesis/oscillator.h ****         sr_        = sample_rate;
  53:../libs/PoliTeKDSP/libs/DaisySP/Source/Synthesis/oscillator.h ****         sr_recip_  = 1.0f / sample_rate;
  54:../libs/PoliTeKDSP/libs/DaisySP/Source/Synthesis/oscillator.h ****         freq_      = 100.0f;
  55:../libs/PoliTeKDSP/libs/DaisySP/Source/Synthesis/oscillator.h ****         amp_       = 0.5f;
  56:../libs/PoliTeKDSP/libs/DaisySP/Source/Synthesis/oscillator.h ****         pw_        = 0.5f;
  57:../libs/PoliTeKDSP/libs/DaisySP/Source/Synthesis/oscillator.h ****         phase_     = 0.0f;
  58:../libs/PoliTeKDSP/libs/DaisySP/Source/Synthesis/oscillator.h ****         phase_inc_ = CalcPhaseInc(freq_);
  59:../libs/PoliTeKDSP/libs/DaisySP/Source/Synthesis/oscillator.h ****         waveform_  = WAVE_SIN;
  60:../libs/PoliTeKDSP/libs/DaisySP/Source/Synthesis/oscillator.h ****         eoc_       = true;
  61:../libs/PoliTeKDSP/libs/DaisySP/Source/Synthesis/oscillator.h ****         eor_       = true;
  62:../libs/PoliTeKDSP/libs/DaisySP/Source/Synthesis/oscillator.h ****     }
ARM GAS  C:\Users\skipi\AppData\Local\Temp\ccnbanHd.s 			page 11


  63:../libs/PoliTeKDSP/libs/DaisySP/Source/Synthesis/oscillator.h **** 
  64:../libs/PoliTeKDSP/libs/DaisySP/Source/Synthesis/oscillator.h **** 
  65:../libs/PoliTeKDSP/libs/DaisySP/Source/Synthesis/oscillator.h ****     /** Changes the frequency of the Oscillator, and recalculates phase increment.
  66:../libs/PoliTeKDSP/libs/DaisySP/Source/Synthesis/oscillator.h ****     */
  67:../libs/PoliTeKDSP/libs/DaisySP/Source/Synthesis/oscillator.h ****     inline void SetFreq(const float f)
  68:../libs/PoliTeKDSP/libs/DaisySP/Source/Synthesis/oscillator.h ****     {
  69:../libs/PoliTeKDSP/libs/DaisySP/Source/Synthesis/oscillator.h ****         freq_      = f;
  70:../libs/PoliTeKDSP/libs/DaisySP/Source/Synthesis/oscillator.h ****         phase_inc_ = CalcPhaseInc(f);
  71:../libs/PoliTeKDSP/libs/DaisySP/Source/Synthesis/oscillator.h ****     }
  72:../libs/PoliTeKDSP/libs/DaisySP/Source/Synthesis/oscillator.h **** 
  73:../libs/PoliTeKDSP/libs/DaisySP/Source/Synthesis/oscillator.h **** 
  74:../libs/PoliTeKDSP/libs/DaisySP/Source/Synthesis/oscillator.h ****     /** Sets the amplitude of the waveform.
  75:../libs/PoliTeKDSP/libs/DaisySP/Source/Synthesis/oscillator.h ****     */
  76:../libs/PoliTeKDSP/libs/DaisySP/Source/Synthesis/oscillator.h ****     inline void SetAmp(const float a) { amp_ = a; }
  77:../libs/PoliTeKDSP/libs/DaisySP/Source/Synthesis/oscillator.h ****     /** Sets the waveform to be synthesized by the Process() function.
  78:../libs/PoliTeKDSP/libs/DaisySP/Source/Synthesis/oscillator.h ****     */
  79:../libs/PoliTeKDSP/libs/DaisySP/Source/Synthesis/oscillator.h ****     inline void SetWaveform(const uint8_t wf)
 255              		.loc 3 79 17 view .LVU52
 256              	.LBB147:
  80:../libs/PoliTeKDSP/libs/DaisySP/Source/Synthesis/oscillator.h ****     {
  81:../libs/PoliTeKDSP/libs/DaisySP/Source/Synthesis/oscillator.h ****         waveform_ = wf < WAVE_LAST ? wf : WAVE_SIN;
 257              		.loc 3 81 9 view .LVU53
 258              		.loc 3 81 19 is_stmt 0 view .LVU54
 259 0044 0829     		cmp	r1, #8
 260              	.LBE147:
 261              	.LBE146:
 139:PSP/AudioEngine.cpp ****     _lfo1.SetFreq(_lfo1Param.Freq);
 262              		.loc 1 139 18 view .LVU55
 263 0046 94ED660A 		vldr.32	s0, [r4, #408]
 264              	.LBB150:
 265              	.LBB151:
 266              	.LBB152:
 267              	.LBB153:
 268              	.LBB154:
 269              		.file 5 "../libs/PoliTeKDSP/libs/DaisySP/Source/Utility/dsp.h"
   1:../libs/PoliTeKDSP/libs/DaisySP/Source/Utility/dsp.h **** /*
   2:../libs/PoliTeKDSP/libs/DaisySP/Source/Utility/dsp.h **** Copyright (c) 2020 Electrosmith, Corp, Emilie Gillet
   3:../libs/PoliTeKDSP/libs/DaisySP/Source/Utility/dsp.h **** 
   4:../libs/PoliTeKDSP/libs/DaisySP/Source/Utility/dsp.h **** Use of this source code is governed by an MIT-style
   5:../libs/PoliTeKDSP/libs/DaisySP/Source/Utility/dsp.h **** license that can be found in the LICENSE file or at
   6:../libs/PoliTeKDSP/libs/DaisySP/Source/Utility/dsp.h **** https://opensource.org/licenses/MIT.
   7:../libs/PoliTeKDSP/libs/DaisySP/Source/Utility/dsp.h **** */
   8:../libs/PoliTeKDSP/libs/DaisySP/Source/Utility/dsp.h **** 
   9:../libs/PoliTeKDSP/libs/DaisySP/Source/Utility/dsp.h **** /** Helpful defines, functions, and other utilities for use in/with daisysp modules.
  10:../libs/PoliTeKDSP/libs/DaisySP/Source/Utility/dsp.h **** */
  11:../libs/PoliTeKDSP/libs/DaisySP/Source/Utility/dsp.h **** #pragma once
  12:../libs/PoliTeKDSP/libs/DaisySP/Source/Utility/dsp.h **** #ifndef DSY_CORE_DSP
  13:../libs/PoliTeKDSP/libs/DaisySP/Source/Utility/dsp.h **** #define DSY_CORE_DSP
  14:../libs/PoliTeKDSP/libs/DaisySP/Source/Utility/dsp.h **** #include <cassert>
  15:../libs/PoliTeKDSP/libs/DaisySP/Source/Utility/dsp.h **** #include <cstdint>
  16:../libs/PoliTeKDSP/libs/DaisySP/Source/Utility/dsp.h **** #include <random>
  17:../libs/PoliTeKDSP/libs/DaisySP/Source/Utility/dsp.h **** #include <cmath>
  18:../libs/PoliTeKDSP/libs/DaisySP/Source/Utility/dsp.h **** 
  19:../libs/PoliTeKDSP/libs/DaisySP/Source/Utility/dsp.h **** /** PIs
  20:../libs/PoliTeKDSP/libs/DaisySP/Source/Utility/dsp.h **** */
  21:../libs/PoliTeKDSP/libs/DaisySP/Source/Utility/dsp.h **** #define PI_F 3.1415927410125732421875f
  22:../libs/PoliTeKDSP/libs/DaisySP/Source/Utility/dsp.h **** #define TWOPI_F (2.0f * PI_F)
ARM GAS  C:\Users\skipi\AppData\Local\Temp\ccnbanHd.s 			page 12


  23:../libs/PoliTeKDSP/libs/DaisySP/Source/Utility/dsp.h **** #define HALFPI_F (PI_F * 0.5f)
  24:../libs/PoliTeKDSP/libs/DaisySP/Source/Utility/dsp.h **** #define DSY_MIN(in, mn) (in < mn ? in : mn)
  25:../libs/PoliTeKDSP/libs/DaisySP/Source/Utility/dsp.h **** #define DSY_MAX(in, mx) (in > mx ? in : mx)
  26:../libs/PoliTeKDSP/libs/DaisySP/Source/Utility/dsp.h **** #define DSY_CLAMP(in, mn, mx) (DSY_MIN(DSY_MAX(in, mn), mx))
  27:../libs/PoliTeKDSP/libs/DaisySP/Source/Utility/dsp.h **** #define DSY_COUNTOF(_arr) (sizeof(_arr) / sizeof(_arr[0]))
  28:../libs/PoliTeKDSP/libs/DaisySP/Source/Utility/dsp.h **** 
  29:../libs/PoliTeKDSP/libs/DaisySP/Source/Utility/dsp.h **** namespace daisysp
  30:../libs/PoliTeKDSP/libs/DaisySP/Source/Utility/dsp.h **** {
  31:../libs/PoliTeKDSP/libs/DaisySP/Source/Utility/dsp.h **** //Avoids division for random floats. e.g. rand() * kRandFrac
  32:../libs/PoliTeKDSP/libs/DaisySP/Source/Utility/dsp.h **** static constexpr float kRandFrac = 1.f / (float)RAND_MAX;
  33:../libs/PoliTeKDSP/libs/DaisySP/Source/Utility/dsp.h **** 
  34:../libs/PoliTeKDSP/libs/DaisySP/Source/Utility/dsp.h **** //Convert from semitones to other units. e.g. 2 ^ (kOneTwelfth * x)
  35:../libs/PoliTeKDSP/libs/DaisySP/Source/Utility/dsp.h **** static constexpr float kOneTwelfth = 1.f / 12.f;
  36:../libs/PoliTeKDSP/libs/DaisySP/Source/Utility/dsp.h **** 
  37:../libs/PoliTeKDSP/libs/DaisySP/Source/Utility/dsp.h **** /** efficient floating point min/max
  38:../libs/PoliTeKDSP/libs/DaisySP/Source/Utility/dsp.h **** c/o stephen mccaul
  39:../libs/PoliTeKDSP/libs/DaisySP/Source/Utility/dsp.h **** */
  40:../libs/PoliTeKDSP/libs/DaisySP/Source/Utility/dsp.h **** inline float fmax(float a, float b)
  41:../libs/PoliTeKDSP/libs/DaisySP/Source/Utility/dsp.h **** {
  42:../libs/PoliTeKDSP/libs/DaisySP/Source/Utility/dsp.h ****     float r;
  43:../libs/PoliTeKDSP/libs/DaisySP/Source/Utility/dsp.h **** #ifdef __arm__
  44:../libs/PoliTeKDSP/libs/DaisySP/Source/Utility/dsp.h ****     asm("vmaxnm.f32 %[d], %[n], %[m]" : [d] "=t"(r) : [n] "t"(a), [m] "t"(b) :);
 270              		.loc 5 44 5 view .LVU56
 271 004a DFEDB58A 		vldr.32	s17, .L22
 272              	.LBE154:
 273              	.LBE153:
 274              	.LBB157:
 275              	.LBB158:
  45:../libs/PoliTeKDSP/libs/DaisySP/Source/Utility/dsp.h **** #else
  46:../libs/PoliTeKDSP/libs/DaisySP/Source/Utility/dsp.h ****     r = (a > b) ? a : b;
  47:../libs/PoliTeKDSP/libs/DaisySP/Source/Utility/dsp.h **** #endif // __arm__
  48:../libs/PoliTeKDSP/libs/DaisySP/Source/Utility/dsp.h ****     return r;
  49:../libs/PoliTeKDSP/libs/DaisySP/Source/Utility/dsp.h **** }
  50:../libs/PoliTeKDSP/libs/DaisySP/Source/Utility/dsp.h **** 
  51:../libs/PoliTeKDSP/libs/DaisySP/Source/Utility/dsp.h **** inline float fmin(float a, float b)
  52:../libs/PoliTeKDSP/libs/DaisySP/Source/Utility/dsp.h **** {
  53:../libs/PoliTeKDSP/libs/DaisySP/Source/Utility/dsp.h ****     float r;
  54:../libs/PoliTeKDSP/libs/DaisySP/Source/Utility/dsp.h **** #ifdef __arm__
  55:../libs/PoliTeKDSP/libs/DaisySP/Source/Utility/dsp.h ****     asm("vminnm.f32 %[d], %[n], %[m]" : [d] "=t"(r) : [n] "t"(a), [m] "t"(b) :);
 276              		.loc 5 55 5 view .LVU57
 277 004e B7EE008A 		vmov.f32	s16, #1.0e+0
 278              	.LBE158:
 279              	.LBE157:
 280              	.LBE152:
 281              	.LBE151:
 282              	.LBE150:
 283              	.LBB174:
 284              	.LBB148:
 285              		.loc 3 81 19 view .LVU58
 286 0052 28BF     		it	cs
 287 0054 0021     		movcs	r1, #0
 288              	.LBE148:
 289              	.LBE174:
 290              	.LBB175:
 291              	.LBB176:
 292 0056 082A     		cmp	r2, #8
 293              	.LBE176:
ARM GAS  C:\Users\skipi\AppData\Local\Temp\ccnbanHd.s 			page 13


 294              	.LBE175:
 295              	.LBB180:
 296              	.LBB181:
  76:../libs/PoliTeKDSP/libs/DaisySP/Source/Synthesis/oscillator.h ****     /** Sets the waveform to be synthesized by the Process() function.
 297              		.loc 3 76 46 view .LVU59
 298 0058 C4F804C0 		str	ip, [r4, #4]	@ float
 299              	.LBE181:
 300              	.LBE180:
 301              	.LBB183:
 302              	.LBB177:
 303              		.loc 3 81 19 view .LVU60
 304 005c 28BF     		it	cs
 305 005e 0022     		movcs	r2, #0
 306              	.LBE177:
 307              	.LBE183:
 308              	.LBB184:
 309              	.LBB185:
 310 0060 082B     		cmp	r3, #8
 311              	.LBE185:
 312              	.LBE184:
 313              	.LBB189:
 314              	.LBB149:
 315 0062 2170     		strb	r1, [r4]
 316              	.LVL10:
 317              		.loc 3 81 19 view .LVU61
 318              	.LBE149:
 319              	.LBE189:
 129:PSP/AudioEngine.cpp ****     _osc1.SetPw(_osc1Param.Shape);
 320              		.loc 1 129 5 is_stmt 1 view .LVU62
 321              	.LBB190:
 322              	.LBI180:
  76:../libs/PoliTeKDSP/libs/DaisySP/Source/Synthesis/oscillator.h ****     /** Sets the waveform to be synthesized by the Process() function.
 323              		.loc 3 76 17 view .LVU63
 324              	.LBB182:
  76:../libs/PoliTeKDSP/libs/DaisySP/Source/Synthesis/oscillator.h ****     /** Sets the waveform to be synthesized by the Process() function.
 325              		.loc 3 76 41 view .LVU64
  76:../libs/PoliTeKDSP/libs/DaisySP/Source/Synthesis/oscillator.h ****     /** Sets the waveform to be synthesized by the Process() function.
 326              		.loc 3 76 41 is_stmt 0 view .LVU65
 327              	.LBE182:
 328              	.LBE190:
 130:PSP/AudioEngine.cpp ****     
 329              		.loc 1 130 5 is_stmt 1 view .LVU66
 330              	.LBB191:
 331              	.LBI150:
  82:../libs/PoliTeKDSP/libs/DaisySP/Source/Synthesis/oscillator.h ****     }
  83:../libs/PoliTeKDSP/libs/DaisySP/Source/Synthesis/oscillator.h ****     /** Sets the pulse width for WAVE_SQUARE and WAVE_POLYBLEP_SQUARE (range 0 - 1)
  84:../libs/PoliTeKDSP/libs/DaisySP/Source/Synthesis/oscillator.h ****      */
  85:../libs/PoliTeKDSP/libs/DaisySP/Source/Synthesis/oscillator.h ****     inline void SetPw(const float pw) { pw_ = fclamp(pw, 0.0f, 1.0f); }
 332              		.loc 3 85 17 view .LVU67
 333              	.LBB169:
 334              		.loc 3 85 41 view .LVU68
 335              	.LBB165:
 336              	.LBI152:
  56:../libs/PoliTeKDSP/libs/DaisySP/Source/Utility/dsp.h **** #else
  57:../libs/PoliTeKDSP/libs/DaisySP/Source/Utility/dsp.h ****     r = (a < b) ? a : b;
  58:../libs/PoliTeKDSP/libs/DaisySP/Source/Utility/dsp.h **** #endif // __arm__
  59:../libs/PoliTeKDSP/libs/DaisySP/Source/Utility/dsp.h ****     return r;
ARM GAS  C:\Users\skipi\AppData\Local\Temp\ccnbanHd.s 			page 14


  60:../libs/PoliTeKDSP/libs/DaisySP/Source/Utility/dsp.h **** }
  61:../libs/PoliTeKDSP/libs/DaisySP/Source/Utility/dsp.h **** 
  62:../libs/PoliTeKDSP/libs/DaisySP/Source/Utility/dsp.h **** /** quick fp clamp
  63:../libs/PoliTeKDSP/libs/DaisySP/Source/Utility/dsp.h **** */
  64:../libs/PoliTeKDSP/libs/DaisySP/Source/Utility/dsp.h **** inline float fclamp(float in, float min, float max)
 337              		.loc 5 64 14 view .LVU69
 338              	.LBE165:
 339              	.LBE169:
 340              	.LBE191:
  65:../libs/PoliTeKDSP/libs/DaisySP/Source/Utility/dsp.h **** {
  66:../libs/PoliTeKDSP/libs/DaisySP/Source/Utility/dsp.h ****     return fmin(fmax(in, min), max);
 341              		.loc 5 66 5 view .LVU70
 342              	.LBB192:
 343              	.LBB170:
 344              	.LBB166:
 345              	.LBB161:
 346              	.LBI153:
  40:../libs/PoliTeKDSP/libs/DaisySP/Source/Utility/dsp.h **** {
 347              		.loc 5 40 14 view .LVU71
 348              	.LBB155:
  42:../libs/PoliTeKDSP/libs/DaisySP/Source/Utility/dsp.h **** #ifdef __arm__
 349              		.loc 5 42 5 view .LVU72
  44:../libs/PoliTeKDSP/libs/DaisySP/Source/Utility/dsp.h **** #else
 350              		.loc 5 44 5 view .LVU73
 351              	.LBE155:
 352              	.LBE161:
 353              	.LBE166:
 354              	.LBE170:
 355              	.LBE192:
 356              	.LBB193:
 357              	.LBB186:
  81:../libs/PoliTeKDSP/libs/DaisySP/Source/Synthesis/oscillator.h ****     }
 358              		.loc 3 81 19 is_stmt 0 view .LVU74
 359 0064 28BF     		it	cs
 360 0066 0023     		movcs	r3, #0
 361              	.LBE186:
 362              	.LBE193:
 363              	.LBB194:
 364              	.LBB195:
  76:../libs/PoliTeKDSP/libs/DaisySP/Source/Synthesis/oscillator.h ****     /** Sets the waveform to be synthesized by the Process() function.
 365              		.loc 3 76 46 view .LVU75
 366 0068 2063     		str	r0, [r4, #48]	@ float
 367              	.LBE195:
 368              	.LBE194:
 369              	.LBB197:
 370              	.LBB178:
  81:../libs/PoliTeKDSP/libs/DaisySP/Source/Synthesis/oscillator.h ****     }
 371              		.loc 3 81 19 view .LVU76
 372 006a 84F82C20 		strb	r2, [r4, #44]
 373              	.LBE178:
 374              	.LBE197:
 375              	.LBB198:
 376              	.LBB199:
  70:../libs/PoliTeKDSP/libs/DaisySP/Source/Synthesis/oscillator.h ****     }
 377              		.loc 3 70 34 view .LVU77
 378 006e 04F15800 		add	r0, r4, #88
 379              	.LBE199:
ARM GAS  C:\Users\skipi\AppData\Local\Temp\ccnbanHd.s 			page 15


 380              	.LBE198:
 381              	.LBB204:
 382              	.LBB187:
  81:../libs/PoliTeKDSP/libs/DaisySP/Source/Synthesis/oscillator.h ****     }
 383              		.loc 3 81 19 view .LVU78
 384 0072 84F85830 		strb	r3, [r4, #88]
 385              	.LBE187:
 386              	.LBE204:
 387              	.LBB205:
 388              	.LBB206:
  76:../libs/PoliTeKDSP/libs/DaisySP/Source/Synthesis/oscillator.h ****     /** Sets the waveform to be synthesized by the Process() function.
 389              		.loc 3 76 46 view .LVU79
 390 0076 E565     		str	r5, [r4, #92]	@ float
 391              	.LBE206:
 392              	.LBE205:
 140:PSP/AudioEngine.cpp ****     
 141:PSP/AudioEngine.cpp ****     _lfo2.SetWaveform(_lfo2Param.Waveform);
 142:PSP/AudioEngine.cpp ****     _lfo2.SetAmp(_lfo2Param.Amp);
 143:PSP/AudioEngine.cpp ****     _lfo2.SetPw(_lfo2Param.Shape);
 144:PSP/AudioEngine.cpp ****     _lfo2.SetFreq(_lfo2Param.Freq);
 145:PSP/AudioEngine.cpp **** 
 146:PSP/AudioEngine.cpp ****     _Amp_env.SetTime(daisysp::ADSR_SEG_ATTACK,  _Amp_envParam.Attack);
 393              		.loc 1 146 21 view .LVU80
 394 0078 04F1B005 		add	r5, r4, #176
 395              	.LBB208:
 396              	.LBB171:
 397              	.LBB167:
 398              	.LBB162:
 399              	.LBB156:
  44:../libs/PoliTeKDSP/libs/DaisySP/Source/Utility/dsp.h **** #else
 400              		.loc 5 44 5 view .LVU81
 401              		.syntax unified
 402              	@ 44 "../libs/PoliTeKDSP/libs/DaisySP/Source/Utility/dsp.h" 1
 403 007c C6FEA86A 		vmaxnm.f32 s13, s13, s17
 404              	@ 0 "" 2
 405              	.LVL11:
  48:../libs/PoliTeKDSP/libs/DaisySP/Source/Utility/dsp.h **** }
 406              		.loc 5 48 5 is_stmt 1 view .LVU82
  48:../libs/PoliTeKDSP/libs/DaisySP/Source/Utility/dsp.h **** }
 407              		.loc 5 48 5 is_stmt 0 view .LVU83
 408              		.thumb
 409              		.syntax unified
 410              	.LBE156:
 411              	.LBE162:
 412              	.LBB163:
 413              	.LBI157:
  51:../libs/PoliTeKDSP/libs/DaisySP/Source/Utility/dsp.h **** {
 414              		.loc 5 51 14 is_stmt 1 view .LVU84
 415              	.LBB159:
  53:../libs/PoliTeKDSP/libs/DaisySP/Source/Utility/dsp.h **** #ifdef __arm__
 416              		.loc 5 53 5 view .LVU85
  55:../libs/PoliTeKDSP/libs/DaisySP/Source/Utility/dsp.h **** #else
 417              		.loc 5 55 5 view .LVU86
 418              	.LBE159:
 419              	.LBE163:
 420              	.LBE167:
 421              	.LBE171:
ARM GAS  C:\Users\skipi\AppData\Local\Temp\ccnbanHd.s 			page 16


 422              	.LBE208:
 423              	.LBB209:
 424              	.LBB210:
 425              	.LBB211:
 426              	.LBB212:
 427              	.LBB213:
  44:../libs/PoliTeKDSP/libs/DaisySP/Source/Utility/dsp.h **** #else
 428              		.loc 5 44 5 is_stmt 0 view .LVU87
 429              		.syntax unified
 430              	@ 44 "../libs/PoliTeKDSP/libs/DaisySP/Source/Utility/dsp.h" 1
 431 0080 87FE287A 		vmaxnm.f32 s14, s14, s17
 432              	@ 0 "" 2
 433              		.thumb
 434              		.syntax unified
 435              	.LBE213:
 436              	.LBE212:
 437              	.LBE211:
 438              	.LBE210:
 439              	.LBE209:
 440              	.LBB227:
 441              	.LBB172:
 442              	.LBB168:
 443              	.LBB164:
 444              	.LBB160:
  55:../libs/PoliTeKDSP/libs/DaisySP/Source/Utility/dsp.h **** #else
 445              		.loc 5 55 5 view .LVU88
 446              		.syntax unified
 447              	@ 55 "../libs/PoliTeKDSP/libs/DaisySP/Source/Utility/dsp.h" 1
 448 0084 C6FEC86A 		vminnm.f32 s13, s13, s16
 449              	@ 0 "" 2
 450              	.LVL12:
  59:../libs/PoliTeKDSP/libs/DaisySP/Source/Utility/dsp.h **** }
 451              		.loc 5 59 5 is_stmt 1 view .LVU89
  59:../libs/PoliTeKDSP/libs/DaisySP/Source/Utility/dsp.h **** }
 452              		.loc 5 59 5 is_stmt 0 view .LVU90
 453              		.thumb
 454              		.syntax unified
 455              	.LBE160:
 456              	.LBE164:
 457              	.LBE168:
 458              	.LBE172:
 459              	.LBE227:
 460              	.LBB228:
 461              	.LBB223:
 462              	.LBB220:
 463              	.LBB215:
 464              	.LBB216:
  55:../libs/PoliTeKDSP/libs/DaisySP/Source/Utility/dsp.h **** #else
 465              		.loc 5 55 5 view .LVU91
 466              		.syntax unified
 467              	@ 55 "../libs/PoliTeKDSP/libs/DaisySP/Source/Utility/dsp.h" 1
 468 0088 87FE487A 		vminnm.f32 s14, s14, s16
 469              	@ 0 "" 2
 470              		.thumb
 471              		.syntax unified
 472              	.LBE216:
 473              	.LBE215:
ARM GAS  C:\Users\skipi\AppData\Local\Temp\ccnbanHd.s 			page 17


 474              	.LBE220:
 475              	.LBE223:
 476              	.LBE228:
 477              	.LBB229:
 478              	.LBB173:
 479              		.loc 3 85 45 view .LVU92
 480 008c C4ED036A 		vstr.32	s13, [r4, #12]
 481              	.LBE173:
 482              	.LBE229:
 483              	.LBB230:
 484              	.LBB224:
 485 0090 84ED0E7A 		vstr.32	s14, [r4, #56]
 486              	.LBE224:
 487              	.LBE230:
 488              	.LBB231:
 489              	.LBB232:
 490              	.LBB233:
 491              	.LBB234:
 492              	.LBB235:
  44:../libs/PoliTeKDSP/libs/DaisySP/Source/Utility/dsp.h **** #else
 493              		.loc 5 44 5 view .LVU93
 494              		.syntax unified
 495              	@ 44 "../libs/PoliTeKDSP/libs/DaisySP/Source/Utility/dsp.h" 1
 496 0094 C7FEA87A 		vmaxnm.f32 s15, s15, s17
 497              	@ 0 "" 2
 498              	.LVL13:
  44:../libs/PoliTeKDSP/libs/DaisySP/Source/Utility/dsp.h **** #else
 499              		.loc 5 44 5 view .LVU94
 500              		.thumb
 501              		.syntax unified
 502              	.LBE235:
 503              	.LBE234:
 504              	.LBE233:
 505              	.LBE232:
 506              	.LBE231:
 132:PSP/AudioEngine.cpp ****     _osc2.SetAmp(_osc2Param.Amp);
 507              		.loc 1 132 5 is_stmt 1 view .LVU95
 508              	.LBB248:
 509              	.LBI175:
  79:../libs/PoliTeKDSP/libs/DaisySP/Source/Synthesis/oscillator.h ****     {
 510              		.loc 3 79 17 view .LVU96
 511              	.LBB179:
  81:../libs/PoliTeKDSP/libs/DaisySP/Source/Synthesis/oscillator.h ****     }
 512              		.loc 3 81 9 view .LVU97
  81:../libs/PoliTeKDSP/libs/DaisySP/Source/Synthesis/oscillator.h ****     }
 513              		.loc 3 81 9 is_stmt 0 view .LVU98
 514              	.LBE179:
 515              	.LBE248:
 133:PSP/AudioEngine.cpp ****     _osc2.SetPw(_osc2Param.Shape);
 516              		.loc 1 133 5 is_stmt 1 view .LVU99
 517              	.LBB249:
 518              	.LBI194:
  76:../libs/PoliTeKDSP/libs/DaisySP/Source/Synthesis/oscillator.h ****     /** Sets the waveform to be synthesized by the Process() function.
 519              		.loc 3 76 17 view .LVU100
 520              	.LBB196:
  76:../libs/PoliTeKDSP/libs/DaisySP/Source/Synthesis/oscillator.h ****     /** Sets the waveform to be synthesized by the Process() function.
 521              		.loc 3 76 41 view .LVU101
ARM GAS  C:\Users\skipi\AppData\Local\Temp\ccnbanHd.s 			page 18


  76:../libs/PoliTeKDSP/libs/DaisySP/Source/Synthesis/oscillator.h ****     /** Sets the waveform to be synthesized by the Process() function.
 522              		.loc 3 76 41 is_stmt 0 view .LVU102
 523              	.LBE196:
 524              	.LBE249:
 134:PSP/AudioEngine.cpp **** 
 525              		.loc 1 134 5 is_stmt 1 view .LVU103
 526              	.LBB250:
 527              	.LBI209:
 528              		.loc 3 85 17 view .LVU104
 529              	.LBB225:
 530              		.loc 3 85 41 view .LVU105
 531              	.LBB221:
 532              	.LBI211:
  64:../libs/PoliTeKDSP/libs/DaisySP/Source/Utility/dsp.h **** {
 533              		.loc 5 64 14 view .LVU106
 534              	.LBE221:
 535              	.LBE225:
 536              	.LBE250:
 537              		.loc 5 66 5 view .LVU107
 538              	.LBB251:
 539              	.LBB226:
 540              	.LBB222:
 541              	.LBB218:
 542              	.LBI212:
  40:../libs/PoliTeKDSP/libs/DaisySP/Source/Utility/dsp.h **** {
 543              		.loc 5 40 14 view .LVU108
 544              	.LBB214:
  42:../libs/PoliTeKDSP/libs/DaisySP/Source/Utility/dsp.h **** #ifdef __arm__
 545              		.loc 5 42 5 view .LVU109
  44:../libs/PoliTeKDSP/libs/DaisySP/Source/Utility/dsp.h **** #else
 546              		.loc 5 44 5 view .LVU110
  48:../libs/PoliTeKDSP/libs/DaisySP/Source/Utility/dsp.h **** }
 547              		.loc 5 48 5 view .LVU111
  48:../libs/PoliTeKDSP/libs/DaisySP/Source/Utility/dsp.h **** }
 548              		.loc 5 48 5 is_stmt 0 view .LVU112
 549              	.LBE214:
 550              	.LBE218:
 551              	.LBB219:
 552              	.LBI215:
  51:../libs/PoliTeKDSP/libs/DaisySP/Source/Utility/dsp.h **** {
 553              		.loc 5 51 14 is_stmt 1 view .LVU113
 554              	.LBB217:
  53:../libs/PoliTeKDSP/libs/DaisySP/Source/Utility/dsp.h **** #ifdef __arm__
 555              		.loc 5 53 5 view .LVU114
  55:../libs/PoliTeKDSP/libs/DaisySP/Source/Utility/dsp.h **** #else
 556              		.loc 5 55 5 view .LVU115
  59:../libs/PoliTeKDSP/libs/DaisySP/Source/Utility/dsp.h **** }
 557              		.loc 5 59 5 view .LVU116
  59:../libs/PoliTeKDSP/libs/DaisySP/Source/Utility/dsp.h **** }
 558              		.loc 5 59 5 is_stmt 0 view .LVU117
 559              	.LBE217:
 560              	.LBE219:
 561              	.LBE222:
 562              	.LBE226:
 563              	.LBE251:
 136:PSP/AudioEngine.cpp ****     _lfo1.SetAmp(_lfo1Param.Amp);
 564              		.loc 1 136 5 is_stmt 1 view .LVU118
ARM GAS  C:\Users\skipi\AppData\Local\Temp\ccnbanHd.s 			page 19


 565              	.LBB252:
 566              	.LBI184:
  79:../libs/PoliTeKDSP/libs/DaisySP/Source/Synthesis/oscillator.h ****     {
 567              		.loc 3 79 17 view .LVU119
 568              	.LBB188:
  81:../libs/PoliTeKDSP/libs/DaisySP/Source/Synthesis/oscillator.h ****     }
 569              		.loc 3 81 9 view .LVU120
  81:../libs/PoliTeKDSP/libs/DaisySP/Source/Synthesis/oscillator.h ****     }
 570              		.loc 3 81 9 is_stmt 0 view .LVU121
 571              	.LBE188:
 572              	.LBE252:
 137:PSP/AudioEngine.cpp ****     _lfo1.SetPw(_lfo1Param.Shape);
 573              		.loc 1 137 5 is_stmt 1 view .LVU122
 574              	.LBB253:
 575              	.LBI205:
  76:../libs/PoliTeKDSP/libs/DaisySP/Source/Synthesis/oscillator.h ****     /** Sets the waveform to be synthesized by the Process() function.
 576              		.loc 3 76 17 view .LVU123
 577              	.LBB207:
  76:../libs/PoliTeKDSP/libs/DaisySP/Source/Synthesis/oscillator.h ****     /** Sets the waveform to be synthesized by the Process() function.
 578              		.loc 3 76 41 view .LVU124
  76:../libs/PoliTeKDSP/libs/DaisySP/Source/Synthesis/oscillator.h ****     /** Sets the waveform to be synthesized by the Process() function.
 579              		.loc 3 76 41 is_stmt 0 view .LVU125
 580              	.LBE207:
 581              	.LBE253:
 138:PSP/AudioEngine.cpp ****     _lfo1.SetFreq(_lfo1Param.Freq);
 582              		.loc 1 138 5 is_stmt 1 view .LVU126
 583              	.LBB254:
 584              	.LBI231:
 585              		.loc 3 85 17 view .LVU127
 586              	.LBB245:
 587              		.loc 3 85 41 view .LVU128
 588              	.LBB242:
 589              	.LBI233:
  64:../libs/PoliTeKDSP/libs/DaisySP/Source/Utility/dsp.h **** {
 590              		.loc 5 64 14 view .LVU129
 591              	.LBE242:
 592              	.LBE245:
 593              	.LBE254:
 594              		.loc 5 66 5 view .LVU130
 595              	.LBB255:
 596              	.LBB246:
 597              	.LBB243:
 598              	.LBB237:
 599              	.LBI234:
  40:../libs/PoliTeKDSP/libs/DaisySP/Source/Utility/dsp.h **** {
 600              		.loc 5 40 14 view .LVU131
 601              	.LBB236:
  42:../libs/PoliTeKDSP/libs/DaisySP/Source/Utility/dsp.h **** #ifdef __arm__
 602              		.loc 5 42 5 view .LVU132
  44:../libs/PoliTeKDSP/libs/DaisySP/Source/Utility/dsp.h **** #else
 603              		.loc 5 44 5 view .LVU133
  48:../libs/PoliTeKDSP/libs/DaisySP/Source/Utility/dsp.h **** }
 604              		.loc 5 48 5 view .LVU134
  48:../libs/PoliTeKDSP/libs/DaisySP/Source/Utility/dsp.h **** }
 605              		.loc 5 48 5 is_stmt 0 view .LVU135
 606              	.LBE236:
 607              	.LBE237:
ARM GAS  C:\Users\skipi\AppData\Local\Temp\ccnbanHd.s 			page 20


 608              	.LBB238:
 609              	.LBI238:
  51:../libs/PoliTeKDSP/libs/DaisySP/Source/Utility/dsp.h **** {
 610              		.loc 5 51 14 is_stmt 1 view .LVU136
 611              	.LBB239:
  53:../libs/PoliTeKDSP/libs/DaisySP/Source/Utility/dsp.h **** #ifdef __arm__
 612              		.loc 5 53 5 view .LVU137
  55:../libs/PoliTeKDSP/libs/DaisySP/Source/Utility/dsp.h **** #else
 613              		.loc 5 55 5 view .LVU138
 614              	.LBE239:
 615              	.LBE238:
 616              	.LBE243:
 617              	.LBE246:
 618              	.LBE255:
 619              	.LBB256:
 620              	.LBB200:
  69:../libs/PoliTeKDSP/libs/DaisySP/Source/Synthesis/oscillator.h ****         phase_inc_ = CalcPhaseInc(f);
 621              		.loc 3 69 20 is_stmt 0 view .LVU139
 622 0098 84ED180A 		vstr.32	s0, [r4, #96]
 623              	.LBE200:
 624              	.LBE256:
 625              	.LBB257:
 626              	.LBB247:
 627              	.LBB244:
 628              	.LBB241:
 629              	.LBB240:
  55:../libs/PoliTeKDSP/libs/DaisySP/Source/Utility/dsp.h **** #else
 630              		.loc 5 55 5 view .LVU140
 631              		.syntax unified
 632              	@ 55 "../libs/PoliTeKDSP/libs/DaisySP/Source/Utility/dsp.h" 1
 633 009c C7FEC87A 		vminnm.f32 s15, s15, s16
 634              	@ 0 "" 2
 635              	.LVL14:
  59:../libs/PoliTeKDSP/libs/DaisySP/Source/Utility/dsp.h **** }
 636              		.loc 5 59 5 is_stmt 1 view .LVU141
  59:../libs/PoliTeKDSP/libs/DaisySP/Source/Utility/dsp.h **** }
 637              		.loc 5 59 5 is_stmt 0 view .LVU142
 638              		.thumb
 639              		.syntax unified
 640              	.LBE240:
 641              	.LBE241:
 642              	.LBE244:
 643              		.loc 3 85 45 view .LVU143
 644 00a0 C4ED197A 		vstr.32	s15, [r4, #100]
 645              	.LVL15:
 646              		.loc 3 85 45 view .LVU144
 647              	.LBE247:
 648              	.LBE257:
 139:PSP/AudioEngine.cpp ****     
 649              		.loc 1 139 5 is_stmt 1 view .LVU145
 650              	.LBB258:
 651              	.LBI198:
  67:../libs/PoliTeKDSP/libs/DaisySP/Source/Synthesis/oscillator.h ****     {
 652              		.loc 3 67 17 view .LVU146
 653              	.LBB201:
  69:../libs/PoliTeKDSP/libs/DaisySP/Source/Synthesis/oscillator.h ****         phase_inc_ = CalcPhaseInc(f);
 654              		.loc 3 69 9 view .LVU147
ARM GAS  C:\Users\skipi\AppData\Local\Temp\ccnbanHd.s 			page 21


  70:../libs/PoliTeKDSP/libs/DaisySP/Source/Synthesis/oscillator.h ****     }
 655              		.loc 3 70 9 view .LVU148
  70:../libs/PoliTeKDSP/libs/DaisySP/Source/Synthesis/oscillator.h ****     }
 656              		.loc 3 70 34 is_stmt 0 view .LVU149
 657 00a4 FFF7FEFF 		bl	_ZN7daisysp10Oscillator12CalcPhaseIncEf
 658              	.LVL16:
  70:../libs/PoliTeKDSP/libs/DaisySP/Source/Synthesis/oscillator.h ****     }
 659              		.loc 3 70 34 view .LVU150
 660              	.LBE201:
 661              	.LBE258:
 141:PSP/AudioEngine.cpp ****     _lfo2.SetAmp(_lfo2Param.Amp);
 662              		.loc 1 141 22 view .LVU151
 663 00a8 94F89C31 		ldrb	r3, [r4, #412]	@ zero_extendqisi2
 664              	.LBB259:
 665              	.LBB202:
  70:../libs/PoliTeKDSP/libs/DaisySP/Source/Synthesis/oscillator.h ****     }
 666              		.loc 3 70 34 view .LVU152
 667 00ac B0EE407A 		vmov.f32	s14, s0
 668              	.LBE202:
 669              	.LBE259:
 670              	.LBB260:
 671              	.LBB261:
  76:../libs/PoliTeKDSP/libs/DaisySP/Source/Synthesis/oscillator.h ****     /** Sets the waveform to be synthesized by the Process() function.
 672              		.loc 3 76 46 view .LVU153
 673 00b0 D4F8A021 		ldr	r2, [r4, #416]	@ float
 674              	.LBE261:
 675              	.LBE260:
 676              	.LBB264:
 677              	.LBB265:
  81:../libs/PoliTeKDSP/libs/DaisySP/Source/Synthesis/oscillator.h ****     }
 678              		.loc 3 81 19 view .LVU154
 679 00b4 082B     		cmp	r3, #8
 680              	.LBE265:
 681              	.LBE264:
 144:PSP/AudioEngine.cpp **** 
 682              		.loc 1 144 18 view .LVU155
 683 00b6 94ED6A0A 		vldr.32	s0, [r4, #424]
 684              	.LBB269:
 685              	.LBB262:
  76:../libs/PoliTeKDSP/libs/DaisySP/Source/Synthesis/oscillator.h ****     /** Sets the waveform to be synthesized by the Process() function.
 686              		.loc 3 76 46 view .LVU156
 687 00ba C4F88820 		str	r2, [r4, #136]	@ float
 688              	.LBE262:
 689              	.LBE269:
 690              	.LBB270:
 691              	.LBB271:
  70:../libs/PoliTeKDSP/libs/DaisySP/Source/Synthesis/oscillator.h ****     }
 692              		.loc 3 70 34 view .LVU157
 693 00be 04F18400 		add	r0, r4, #132
 694              	.LBE271:
 695              	.LBE270:
 696              	.LBB275:
 697              	.LBB266:
  81:../libs/PoliTeKDSP/libs/DaisySP/Source/Synthesis/oscillator.h ****     }
 698              		.loc 3 81 19 view .LVU158
 699 00c2 28BF     		it	cs
 700 00c4 0023     		movcs	r3, #0
ARM GAS  C:\Users\skipi\AppData\Local\Temp\ccnbanHd.s 			page 22


 701              	.LBE266:
 702              	.LBE275:
 703              	.LBB276:
 704              	.LBB203:
  70:../libs/PoliTeKDSP/libs/DaisySP/Source/Synthesis/oscillator.h ****     }
 705              		.loc 3 70 20 view .LVU159
 706 00c6 84ED1D7A 		vstr.32	s14, [r4, #116]
 707              	.LBE203:
 708              	.LBE276:
 709              	.LBB277:
 710              	.LBB278:
 711              	.LBB279:
 712              	.LBB280:
 713              	.LBB281:
  44:../libs/PoliTeKDSP/libs/DaisySP/Source/Utility/dsp.h **** #else
 714              		.loc 5 44 5 view .LVU160
 715 00ca D4ED697A 		vldr.32	s15, [r4, #420]
 716              	.LBE281:
 717              	.LBE280:
 718              	.LBE279:
 719              	.LBE278:
 720              	.LBE277:
 721              	.LBB298:
 722              	.LBB267:
  81:../libs/PoliTeKDSP/libs/DaisySP/Source/Synthesis/oscillator.h ****     }
 723              		.loc 3 81 19 view .LVU161
 724 00ce 84F88430 		strb	r3, [r4, #132]
 725              	.LBE267:
 726              	.LBE298:
 727              	.LBB299:
 728              	.LBB294:
 729              	.LBB290:
 730              	.LBB284:
 731              	.LBB282:
  44:../libs/PoliTeKDSP/libs/DaisySP/Source/Utility/dsp.h **** #else
 732              		.loc 5 44 5 view .LVU162
 733              		.syntax unified
 734              	@ 44 "../libs/PoliTeKDSP/libs/DaisySP/Source/Utility/dsp.h" 1
 735 00d2 C7FEA87A 		vmaxnm.f32 s15, s15, s17
 736              	@ 0 "" 2
 737              	.LVL17:
  44:../libs/PoliTeKDSP/libs/DaisySP/Source/Utility/dsp.h **** #else
 738              		.loc 5 44 5 view .LVU163
 739              		.thumb
 740              		.syntax unified
 741              	.LBE282:
 742              	.LBE284:
 743              	.LBE290:
 744              	.LBE294:
 745              	.LBE299:
 141:PSP/AudioEngine.cpp ****     _lfo2.SetAmp(_lfo2Param.Amp);
 746              		.loc 1 141 5 is_stmt 1 view .LVU164
 747              	.LBB300:
 748              	.LBI264:
  79:../libs/PoliTeKDSP/libs/DaisySP/Source/Synthesis/oscillator.h ****     {
 749              		.loc 3 79 17 view .LVU165
 750              	.LBB268:
ARM GAS  C:\Users\skipi\AppData\Local\Temp\ccnbanHd.s 			page 23


  81:../libs/PoliTeKDSP/libs/DaisySP/Source/Synthesis/oscillator.h ****     }
 751              		.loc 3 81 9 view .LVU166
  81:../libs/PoliTeKDSP/libs/DaisySP/Source/Synthesis/oscillator.h ****     }
 752              		.loc 3 81 9 is_stmt 0 view .LVU167
 753              	.LBE268:
 754              	.LBE300:
 142:PSP/AudioEngine.cpp ****     _lfo2.SetPw(_lfo2Param.Shape);
 755              		.loc 1 142 5 is_stmt 1 view .LVU168
 756              	.LBB301:
 757              	.LBI260:
  76:../libs/PoliTeKDSP/libs/DaisySP/Source/Synthesis/oscillator.h ****     /** Sets the waveform to be synthesized by the Process() function.
 758              		.loc 3 76 17 view .LVU169
 759              	.LBB263:
  76:../libs/PoliTeKDSP/libs/DaisySP/Source/Synthesis/oscillator.h ****     /** Sets the waveform to be synthesized by the Process() function.
 760              		.loc 3 76 41 view .LVU170
  76:../libs/PoliTeKDSP/libs/DaisySP/Source/Synthesis/oscillator.h ****     /** Sets the waveform to be synthesized by the Process() function.
 761              		.loc 3 76 41 is_stmt 0 view .LVU171
 762              	.LBE263:
 763              	.LBE301:
 143:PSP/AudioEngine.cpp ****     _lfo2.SetFreq(_lfo2Param.Freq);
 764              		.loc 1 143 5 is_stmt 1 view .LVU172
 765              	.LBB302:
 766              	.LBI277:
 767              		.loc 3 85 17 view .LVU173
 768              	.LBB295:
 769              		.loc 3 85 41 view .LVU174
 770              	.LBB291:
 771              	.LBI279:
  64:../libs/PoliTeKDSP/libs/DaisySP/Source/Utility/dsp.h **** {
 772              		.loc 5 64 14 view .LVU175
 773              	.LBE291:
 774              	.LBE295:
 775              	.LBE302:
 776              		.loc 5 66 5 view .LVU176
 777              	.LBB303:
 778              	.LBB296:
 779              	.LBB292:
 780              	.LBB285:
 781              	.LBI280:
  40:../libs/PoliTeKDSP/libs/DaisySP/Source/Utility/dsp.h **** {
 782              		.loc 5 40 14 view .LVU177
 783              	.LBB283:
  42:../libs/PoliTeKDSP/libs/DaisySP/Source/Utility/dsp.h **** #ifdef __arm__
 784              		.loc 5 42 5 view .LVU178
  44:../libs/PoliTeKDSP/libs/DaisySP/Source/Utility/dsp.h **** #else
 785              		.loc 5 44 5 view .LVU179
  48:../libs/PoliTeKDSP/libs/DaisySP/Source/Utility/dsp.h **** }
 786              		.loc 5 48 5 view .LVU180
  48:../libs/PoliTeKDSP/libs/DaisySP/Source/Utility/dsp.h **** }
 787              		.loc 5 48 5 is_stmt 0 view .LVU181
 788              	.LBE283:
 789              	.LBE285:
 790              	.LBB286:
 791              	.LBI286:
  51:../libs/PoliTeKDSP/libs/DaisySP/Source/Utility/dsp.h **** {
 792              		.loc 5 51 14 is_stmt 1 view .LVU182
 793              	.LBB287:
ARM GAS  C:\Users\skipi\AppData\Local\Temp\ccnbanHd.s 			page 24


  53:../libs/PoliTeKDSP/libs/DaisySP/Source/Utility/dsp.h **** #ifdef __arm__
 794              		.loc 5 53 5 view .LVU183
  55:../libs/PoliTeKDSP/libs/DaisySP/Source/Utility/dsp.h **** #else
 795              		.loc 5 55 5 view .LVU184
 796              	.LBE287:
 797              	.LBE286:
 798              	.LBE292:
 799              	.LBE296:
 800              	.LBE303:
 801              	.LBB304:
 802              	.LBB272:
  69:../libs/PoliTeKDSP/libs/DaisySP/Source/Synthesis/oscillator.h ****         phase_inc_ = CalcPhaseInc(f);
 803              		.loc 3 69 20 is_stmt 0 view .LVU185
 804 00d6 84ED230A 		vstr.32	s0, [r4, #140]
 805              	.LBE272:
 806              	.LBE304:
 807              	.LBB305:
 808              	.LBB297:
 809              	.LBB293:
 810              	.LBB289:
 811              	.LBB288:
  55:../libs/PoliTeKDSP/libs/DaisySP/Source/Utility/dsp.h **** #else
 812              		.loc 5 55 5 view .LVU186
 813              		.syntax unified
 814              	@ 55 "../libs/PoliTeKDSP/libs/DaisySP/Source/Utility/dsp.h" 1
 815 00da C7FEC87A 		vminnm.f32 s15, s15, s16
 816              	@ 0 "" 2
 817              	.LVL18:
  59:../libs/PoliTeKDSP/libs/DaisySP/Source/Utility/dsp.h **** }
 818              		.loc 5 59 5 is_stmt 1 view .LVU187
  59:../libs/PoliTeKDSP/libs/DaisySP/Source/Utility/dsp.h **** }
 819              		.loc 5 59 5 is_stmt 0 view .LVU188
 820              		.thumb
 821              		.syntax unified
 822              	.LBE288:
 823              	.LBE289:
 824              	.LBE293:
 825              		.loc 3 85 45 view .LVU189
 826 00de C4ED247A 		vstr.32	s15, [r4, #144]
 827              	.LVL19:
 828              		.loc 3 85 45 view .LVU190
 829              	.LBE297:
 830              	.LBE305:
 144:PSP/AudioEngine.cpp **** 
 831              		.loc 1 144 5 is_stmt 1 view .LVU191
 832              	.LBB306:
 833              	.LBI270:
  67:../libs/PoliTeKDSP/libs/DaisySP/Source/Synthesis/oscillator.h ****     {
 834              		.loc 3 67 17 view .LVU192
 835              	.LBB273:
  69:../libs/PoliTeKDSP/libs/DaisySP/Source/Synthesis/oscillator.h ****         phase_inc_ = CalcPhaseInc(f);
 836              		.loc 3 69 9 view .LVU193
  70:../libs/PoliTeKDSP/libs/DaisySP/Source/Synthesis/oscillator.h ****     }
 837              		.loc 3 70 9 view .LVU194
  70:../libs/PoliTeKDSP/libs/DaisySP/Source/Synthesis/oscillator.h ****     }
 838              		.loc 3 70 34 is_stmt 0 view .LVU195
 839 00e2 FFF7FEFF 		bl	_ZN7daisysp10Oscillator12CalcPhaseIncEf
ARM GAS  C:\Users\skipi\AppData\Local\Temp\ccnbanHd.s 			page 25


 840              	.LVL20:
  70:../libs/PoliTeKDSP/libs/DaisySP/Source/Synthesis/oscillator.h ****     }
 841              		.loc 3 70 34 view .LVU196
 842 00e6 F0EE407A 		vmov.f32	s15, s0
 843              	.LBE273:
 844              	.LBE306:
 845              		.loc 1 146 21 view .LVU197
 846 00ea 0121     		movs	r1, #1
 847 00ec 94ED6B0A 		vldr.32	s0, [r4, #428]
 848 00f0 2846     		mov	r0, r5
 849 00f2 0195     		str	r5, [sp, #4]
 850              	.LBB307:
 851              	.LBB274:
  70:../libs/PoliTeKDSP/libs/DaisySP/Source/Synthesis/oscillator.h ****     }
 852              		.loc 3 70 20 view .LVU198
 853 00f4 C4ED287A 		vstr.32	s15, [r4, #160]
 854              	.LVL21:
  70:../libs/PoliTeKDSP/libs/DaisySP/Source/Synthesis/oscillator.h ****     }
 855              		.loc 3 70 20 view .LVU199
 856              	.LBE274:
 857              	.LBE307:
 858              		.loc 1 146 5 is_stmt 1 view .LVU200
 859              		.loc 1 146 21 is_stmt 0 view .LVU201
 860 00f8 FFF7FEFF 		bl	_ZN7daisysp4Adsr7SetTimeEif
 861              	.LVL22:
 147:PSP/AudioEngine.cpp ****     _Amp_env.SetTime(daisysp::ADSR_SEG_DECAY,   _Amp_envParam.Decay);
 862              		.loc 1 147 5 is_stmt 1 view .LVU202
 863              		.loc 1 147 21 is_stmt 0 view .LVU203
 864 00fc 94ED6C0A 		vldr.32	s0, [r4, #432]
 865 0100 0221     		movs	r1, #2
 866 0102 0198     		ldr	r0, [sp, #4]
 867 0104 FFF7FEFF 		bl	_ZN7daisysp4Adsr7SetTimeEif
 868              	.LVL23:
 148:PSP/AudioEngine.cpp ****     _Amp_env.SetTime(daisysp::ADSR_SEG_RELEASE, _Amp_envParam.Release);
 869              		.loc 1 148 5 is_stmt 1 view .LVU204
 870              		.loc 1 148 21 is_stmt 0 view .LVU205
 871 0108 94ED6E0A 		vldr.32	s0, [r4, #440]
 872 010c 0421     		movs	r1, #4
 873 010e 0198     		ldr	r0, [sp, #4]
 874 0110 FFF7FEFF 		bl	_ZN7daisysp4Adsr7SetTimeEif
 875              	.LVL24:
 149:PSP/AudioEngine.cpp ****     _Amp_env.SetSustainLevel(_Amp_envParam.Sustain);
 876              		.loc 1 149 5 is_stmt 1 view .LVU206
 877              		.loc 1 149 29 is_stmt 0 view .LVU207
 878 0114 D4ED6D7A 		vldr.32	s15, [r4, #436]
 879              	.LVL25:
 880              	.LBB308:
 881              	.LBI308:
  46:../libs/PoliTeKDSP/libs/DaisySP/Source/Control/adsr.h ****     /** Initializes the Adsr module.
  47:../libs/PoliTeKDSP/libs/DaisySP/Source/Control/adsr.h ****         \param sample_rate - The sample rate of the audio engine being run. 
  48:../libs/PoliTeKDSP/libs/DaisySP/Source/Control/adsr.h ****     */
  49:../libs/PoliTeKDSP/libs/DaisySP/Source/Control/adsr.h ****     void Init(float sample_rate, int blockSize = 1);
  50:../libs/PoliTeKDSP/libs/DaisySP/Source/Control/adsr.h ****     /**
  51:../libs/PoliTeKDSP/libs/DaisySP/Source/Control/adsr.h ****      \function Retrigger forces the envelope back to attack phase
  52:../libs/PoliTeKDSP/libs/DaisySP/Source/Control/adsr.h ****      \param hard  resets the history to zero, results in a click.
  53:../libs/PoliTeKDSP/libs/DaisySP/Source/Control/adsr.h ****      */
  54:../libs/PoliTeKDSP/libs/DaisySP/Source/Control/adsr.h ****     void Retrigger(bool hard);
ARM GAS  C:\Users\skipi\AppData\Local\Temp\ccnbanHd.s 			page 26


  55:../libs/PoliTeKDSP/libs/DaisySP/Source/Control/adsr.h ****     /** Processes one sample through the filter and returns one sample.
  56:../libs/PoliTeKDSP/libs/DaisySP/Source/Control/adsr.h ****         \param gate - trigger the envelope, hold it to sustain 
  57:../libs/PoliTeKDSP/libs/DaisySP/Source/Control/adsr.h ****     */
  58:../libs/PoliTeKDSP/libs/DaisySP/Source/Control/adsr.h ****     float Process(bool gate);
  59:../libs/PoliTeKDSP/libs/DaisySP/Source/Control/adsr.h ****     /** Sets time
  60:../libs/PoliTeKDSP/libs/DaisySP/Source/Control/adsr.h ****         Set time per segment in seconds
  61:../libs/PoliTeKDSP/libs/DaisySP/Source/Control/adsr.h ****     */
  62:../libs/PoliTeKDSP/libs/DaisySP/Source/Control/adsr.h ****     void SetTime(int seg, float time);
  63:../libs/PoliTeKDSP/libs/DaisySP/Source/Control/adsr.h ****     void SetAttackTime(float timeInS, float shape = 0.0f);
  64:../libs/PoliTeKDSP/libs/DaisySP/Source/Control/adsr.h ****     void SetDecayTime(float timeInS);
  65:../libs/PoliTeKDSP/libs/DaisySP/Source/Control/adsr.h ****     void SetReleaseTime(float timeInS);
  66:../libs/PoliTeKDSP/libs/DaisySP/Source/Control/adsr.h **** 
  67:../libs/PoliTeKDSP/libs/DaisySP/Source/Control/adsr.h ****   private:
  68:../libs/PoliTeKDSP/libs/DaisySP/Source/Control/adsr.h ****     void SetTimeConstant(float timeInS, float& time, float& coeff);
  69:../libs/PoliTeKDSP/libs/DaisySP/Source/Control/adsr.h **** 
  70:../libs/PoliTeKDSP/libs/DaisySP/Source/Control/adsr.h ****   public:
  71:../libs/PoliTeKDSP/libs/DaisySP/Source/Control/adsr.h ****     /** Sustain level
  72:../libs/PoliTeKDSP/libs/DaisySP/Source/Control/adsr.h ****         \param sus_level - sets sustain level, 0...1.0
  73:../libs/PoliTeKDSP/libs/DaisySP/Source/Control/adsr.h ****     */
  74:../libs/PoliTeKDSP/libs/DaisySP/Source/Control/adsr.h ****     inline void SetSustainLevel(float sus_level)
 882              		.loc 2 74 17 is_stmt 1 view .LVU208
 883              	.LBB309:
  75:../libs/PoliTeKDSP/libs/DaisySP/Source/Control/adsr.h ****     {
  76:../libs/PoliTeKDSP/libs/DaisySP/Source/Control/adsr.h ****         sus_level = (sus_level <= 0.f) ? -0.01f // forces envelope into idle
 884              		.loc 2 76 9 view .LVU209
 885              		.loc 2 76 40 is_stmt 0 view .LVU210
 886 0118 F4EEE87A 		vcmpe.f32	s15, s17
 887 011c F1EE10FA 		vmrs	APSR_nzcv, FPSCR
 888 0120 3DD9     		bls	.L17
  77:../libs/PoliTeKDSP/libs/DaisySP/Source/Control/adsr.h ****                                        : (sus_level > 1.f) ? 1.f : sus_level;
 889              		.loc 2 77 60 view .LVU211
 890 0122 F4EE487A 		vcmp.f32	s15, s16
 891 0126 F1EE10FA 		vmrs	APSR_nzcv, FPSCR
 892 012a 78FE277A 		vselgt.f32	s15, s16, s15
 893              	.LVL26:
 894              	.L15:
  78:../libs/PoliTeKDSP/libs/DaisySP/Source/Control/adsr.h ****         sus_level_ = sus_level;
 895              		.loc 2 78 9 is_stmt 1 view .LVU212
 896              	.LBE309:
 897              	.LBE308:
 150:PSP/AudioEngine.cpp **** 
 151:PSP/AudioEngine.cpp ****     _Filt_env.SetTime(daisysp::ADSR_SEG_ATTACK,  _Filt_envParam.Attack);
 898              		.loc 1 151 22 is_stmt 0 view .LVU213
 899 012e 04F1E000 		add	r0, r4, #224
 900              	.LBB312:
 901              	.LBB310:
 902              		.loc 2 78 20 view .LVU214
 903 0132 C4ED2C7A 		vstr.32	s15, [r4, #176]
 904              	.LVL27:
 905              		.loc 2 78 20 view .LVU215
 906              	.LBE310:
 907              	.LBE312:
 908              		.loc 1 151 5 is_stmt 1 view .LVU216
 909              		.loc 1 151 22 is_stmt 0 view .LVU217
 910 0136 94ED700A 		vldr.32	s0, [r4, #448]
 911 013a 0121     		movs	r1, #1
 912 013c 0190     		str	r0, [sp, #4]
ARM GAS  C:\Users\skipi\AppData\Local\Temp\ccnbanHd.s 			page 27


 913 013e FFF7FEFF 		bl	_ZN7daisysp4Adsr7SetTimeEif
 914              	.LVL28:
 152:PSP/AudioEngine.cpp ****     _Filt_env.SetTime(daisysp::ADSR_SEG_DECAY,   _Filt_envParam.Decay);
 915              		.loc 1 152 5 is_stmt 1 view .LVU218
 916              		.loc 1 152 22 is_stmt 0 view .LVU219
 917 0142 94ED710A 		vldr.32	s0, [r4, #452]
 918 0146 0221     		movs	r1, #2
 919 0148 0198     		ldr	r0, [sp, #4]
 920 014a FFF7FEFF 		bl	_ZN7daisysp4Adsr7SetTimeEif
 921              	.LVL29:
 153:PSP/AudioEngine.cpp ****     _Filt_env.SetTime(daisysp::ADSR_SEG_RELEASE, _Filt_envParam.Release);
 922              		.loc 1 153 5 is_stmt 1 view .LVU220
 923              		.loc 1 153 22 is_stmt 0 view .LVU221
 924 014e 94ED730A 		vldr.32	s0, [r4, #460]
 925 0152 0421     		movs	r1, #4
 926 0154 0198     		ldr	r0, [sp, #4]
 927 0156 FFF7FEFF 		bl	_ZN7daisysp4Adsr7SetTimeEif
 928              	.LVL30:
 154:PSP/AudioEngine.cpp ****     _Filt_env.SetSustainLevel(_Filt_envParam.Sustain);
 929              		.loc 1 154 5 is_stmt 1 view .LVU222
 930              		.loc 1 154 30 is_stmt 0 view .LVU223
 931 015a D4ED727A 		vldr.32	s15, [r4, #456]
 932              	.LVL31:
 933              	.LBB313:
 934              	.LBI313:
  74:../libs/PoliTeKDSP/libs/DaisySP/Source/Control/adsr.h ****     {
 935              		.loc 2 74 17 is_stmt 1 view .LVU224
 936              	.LBB314:
  76:../libs/PoliTeKDSP/libs/DaisySP/Source/Control/adsr.h ****                                        : (sus_level > 1.f) ? 1.f : sus_level;
 937              		.loc 2 76 9 view .LVU225
  76:../libs/PoliTeKDSP/libs/DaisySP/Source/Control/adsr.h ****                                        : (sus_level > 1.f) ? 1.f : sus_level;
 938              		.loc 2 76 40 is_stmt 0 view .LVU226
 939 015e F5EEC07A 		vcmpe.f32	s15, #0
 940 0162 F1EE10FA 		vmrs	APSR_nzcv, FPSCR
 941 0166 1DD9     		bls	.L19
  77:../libs/PoliTeKDSP/libs/DaisySP/Source/Control/adsr.h ****         sus_level_ = sus_level;
 942              		.loc 2 77 60 view .LVU227
 943 0168 B7EE007A 		vmov.f32	s14, #1.0e+0
 944 016c F4EE477A 		vcmp.f32	s15, s14
 945 0170 F1EE10FA 		vmrs	APSR_nzcv, FPSCR
 946 0174 77FE277A 		vselgt.f32	s15, s14, s15
 947              	.LVL32:
 948              	.L16:
 949              		.loc 2 78 9 is_stmt 1 view .LVU228
 950              	.LBE314:
 951              	.LBE313:
 155:PSP/AudioEngine.cpp ****     
 156:PSP/AudioEngine.cpp ****     _Filt.SetFreq(_FiltParam.Cutoff);
 952              		.loc 1 156 18 is_stmt 0 view .LVU229
 953 0178 04F58870 		add	r0, r4, #272
 954 017c 94ED750A 		vldr.32	s0, [r4, #468]
 955              	.LBB317:
 956              	.LBB315:
 957              		.loc 2 78 20 view .LVU230
 958 0180 C4ED387A 		vstr.32	s15, [r4, #224]
 959              	.LVL33:
 960              		.loc 2 78 20 view .LVU231
ARM GAS  C:\Users\skipi\AppData\Local\Temp\ccnbanHd.s 			page 28


 961              	.LBE315:
 962              	.LBE317:
 963              		.loc 1 156 5 is_stmt 1 view .LVU232
 964              		.loc 1 156 18 is_stmt 0 view .LVU233
 965 0184 0190     		str	r0, [sp, #4]
 966 0186 FFF7FEFF 		bl	_ZN7daisysp12LadderFilter7SetFreqEf
 967              	.LVL34:
 157:PSP/AudioEngine.cpp ****     _Filt.SetRes(_FiltParam.Resonance);
 968              		.loc 1 157 5 is_stmt 1 view .LVU234
 969              		.loc 1 157 17 is_stmt 0 view .LVU235
 970 018a 94ED760A 		vldr.32	s0, [r4, #472]
 971 018e 0198     		ldr	r0, [sp, #4]
 158:PSP/AudioEngine.cpp **** }
 972              		.loc 1 158 1 view .LVU236
 973 0190 02B0     		add	sp, sp, #8
 974              		.cfi_remember_state
 975              		.cfi_def_cfa_offset 24
 976              		@ sp needed
 977 0192 BDEC028B 		vldm	sp!, {d8}
 978              		.cfi_restore 80
 979              		.cfi_restore 81
 980              		.cfi_def_cfa_offset 16
 981 0196 BDE87040 		pop	{r4, r5, r6, lr}
 982              		.cfi_restore 14
 983              		.cfi_restore 6
 984              		.cfi_restore 5
 985              		.cfi_restore 4
 986              		.cfi_def_cfa_offset 0
 987              	.LVL35:
 157:PSP/AudioEngine.cpp ****     _Filt.SetRes(_FiltParam.Resonance);
 988              		.loc 1 157 17 view .LVU237
 989 019a FFF7FEBF 		b	_ZN7daisysp12LadderFilter6SetResEf
 990              	.LVL36:
 991              	.L17:
 992              		.cfi_restore_state
 993              	.LBB318:
 994              	.LBB311:
  76:../libs/PoliTeKDSP/libs/DaisySP/Source/Control/adsr.h ****                                        : (sus_level > 1.f) ? 1.f : sus_level;
 995              		.loc 2 76 40 view .LVU238
 996 019e DFED617A 		vldr.32	s15, .L22+4
 997              	.LVL37:
  76:../libs/PoliTeKDSP/libs/DaisySP/Source/Control/adsr.h ****                                        : (sus_level > 1.f) ? 1.f : sus_level;
 998              		.loc 2 76 40 view .LVU239
 999 01a2 C4E7     		b	.L15
 1000              	.LVL38:
 1001              	.L19:
  76:../libs/PoliTeKDSP/libs/DaisySP/Source/Control/adsr.h ****                                        : (sus_level > 1.f) ? 1.f : sus_level;
 1002              		.loc 2 76 40 view .LVU240
 1003              	.LBE311:
 1004              	.LBE318:
 1005              	.LBB319:
 1006              	.LBB316:
 1007 01a4 DFED5F7A 		vldr.32	s15, .L22+4
 1008              	.LVL39:
  76:../libs/PoliTeKDSP/libs/DaisySP/Source/Control/adsr.h ****                                        : (sus_level > 1.f) ? 1.f : sus_level;
 1009              		.loc 2 76 40 view .LVU241
 1010 01a8 E6E7     		b	.L16
ARM GAS  C:\Users\skipi\AppData\Local\Temp\ccnbanHd.s 			page 29


 1011              	.LVL40:
 1012              	.L7:
  76:../libs/PoliTeKDSP/libs/DaisySP/Source/Control/adsr.h ****                                        : (sus_level > 1.f) ? 1.f : sus_level;
 1013              		.loc 2 76 40 view .LVU242
 1014              	.LBE316:
 1015              	.LBE319:
  60:PSP/AudioEngine.cpp ****             _osc1Param.Waveform = pluck_waveform1;
 1016              		.loc 1 60 9 is_stmt 1 view .LVU243
  61:PSP/AudioEngine.cpp ****             _osc1Param.Amp      = pluck_amp1;
 1017              		.loc 1 61 13 view .LVU244
  71:PSP/AudioEngine.cpp **** 
 1018              		.loc 1 71 33 is_stmt 0 view .LVU245
 1019 01aa 5F4E     		ldr	r6, .L22+8
  63:PSP/AudioEngine.cpp **** 
 1020              		.loc 1 63 33 view .LVU246
 1021 01ac 5F4A     		ldr	r2, .L22+12
  71:PSP/AudioEngine.cpp **** 
 1022              		.loc 1 71 33 view .LVU247
 1023 01ae D6ED007A 		vldr.32	s15, [r6]
  73:PSP/AudioEngine.cpp ****             _lfo2Param.Amp      = lfo_pluck_Amp2;
 1024              		.loc 1 73 33 view .LVU248
 1025 01b2 5F4E     		ldr	r6, .L22+16
  65:PSP/AudioEngine.cpp ****             _osc2Param.Amp      = pluck_amp2;
 1026              		.loc 1 65 33 view .LVU249
 1027 01b4 5F4B     		ldr	r3, .L22+20
  73:PSP/AudioEngine.cpp ****             _lfo2Param.Amp      = lfo_pluck_Amp2;
 1028              		.loc 1 73 33 view .LVU250
 1029 01b6 3678     		ldrb	r6, [r6]	@ zero_extendqisi2
  63:PSP/AudioEngine.cpp **** 
 1030              		.loc 1 63 33 view .LVU251
 1031 01b8 D2ED006A 		vldr.32	s13, [r2]
  73:PSP/AudioEngine.cpp ****             _lfo2Param.Amp      = lfo_pluck_Amp2;
 1032              		.loc 1 73 33 view .LVU252
 1033 01bc 84F89C61 		strb	r6, [r4, #412]
  74:PSP/AudioEngine.cpp ****             _lfo2Param.Shape    = lfo_pluck_Shape2;
 1034              		.loc 1 74 33 view .LVU253
 1035 01c0 5D4E     		ldr	r6, .L22+24
  65:PSP/AudioEngine.cpp ****             _osc2Param.Amp      = pluck_amp2;
 1036              		.loc 1 65 33 view .LVU254
 1037 01c2 1A78     		ldrb	r2, [r3]	@ zero_extendqisi2
  74:PSP/AudioEngine.cpp ****             _lfo2Param.Shape    = lfo_pluck_Shape2;
 1038              		.loc 1 74 33 view .LVU255
 1039 01c4 3668     		ldr	r6, [r6]	@ float
  62:PSP/AudioEngine.cpp ****             _osc1Param.Shape    = pluck_shape1;
 1040              		.loc 1 62 33 view .LVU256
 1041 01c6 5D48     		ldr	r0, .L22+28
 1042              	.LVL41:
  74:PSP/AudioEngine.cpp ****             _lfo2Param.Shape    = lfo_pluck_Shape2;
 1043              		.loc 1 74 33 view .LVU257
 1044 01c8 C4F8A061 		str	r6, [r4, #416]	@ float
  75:PSP/AudioEngine.cpp **** 
 1045              		.loc 1 75 33 view .LVU258
 1046 01cc 5C4E     		ldr	r6, .L22+32
  66:PSP/AudioEngine.cpp ****             _osc2Param.Shape    = pluck_shape2;
 1047              		.loc 1 66 33 view .LVU259
 1048 01ce 5D4B     		ldr	r3, .L22+36
  75:PSP/AudioEngine.cpp **** 
ARM GAS  C:\Users\skipi\AppData\Local\Temp\ccnbanHd.s 			page 30


 1049              		.loc 1 75 33 view .LVU260
 1050 01d0 3668     		ldr	r6, [r6]	@ float
  62:PSP/AudioEngine.cpp ****             _osc1Param.Shape    = pluck_shape1;
 1051              		.loc 1 62 33 view .LVU261
 1052 01d2 D0F800C0 		ldr	ip, [r0]	@ float
  75:PSP/AudioEngine.cpp **** 
 1053              		.loc 1 75 33 view .LVU262
 1054 01d6 C4F8A461 		str	r6, [r4, #420]	@ float
  77:PSP/AudioEngine.cpp ****             _Amp_envParam.Decay   = pluck_decay;
 1055              		.loc 1 77 35 view .LVU263
 1056 01da 5B4E     		ldr	r6, .L22+40
  66:PSP/AudioEngine.cpp ****             _osc2Param.Shape    = pluck_shape2;
 1057              		.loc 1 66 33 view .LVU264
 1058 01dc 1868     		ldr	r0, [r3]	@ float
  77:PSP/AudioEngine.cpp ****             _Amp_envParam.Decay   = pluck_decay;
 1059              		.loc 1 77 35 view .LVU265
 1060 01de 3668     		ldr	r6, [r6]	@ float
  67:PSP/AudioEngine.cpp **** 
 1061              		.loc 1 67 33 view .LVU266
 1062 01e0 5A4B     		ldr	r3, .L22+44
  77:PSP/AudioEngine.cpp ****             _Amp_envParam.Decay   = pluck_decay;
 1063              		.loc 1 77 35 view .LVU267
 1064 01e2 C4F8AC61 		str	r6, [r4, #428]	@ float
  78:PSP/AudioEngine.cpp ****             _Amp_envParam.Release = pluck_release;
 1065              		.loc 1 78 35 view .LVU268
 1066 01e6 5A4E     		ldr	r6, .L22+48
  67:PSP/AudioEngine.cpp **** 
 1067              		.loc 1 67 33 view .LVU269
 1068 01e8 93ED007A 		vldr.32	s14, [r3]
  78:PSP/AudioEngine.cpp ****             _Amp_envParam.Release = pluck_release;
 1069              		.loc 1 78 35 view .LVU270
 1070 01ec 3668     		ldr	r6, [r6]	@ float
  61:PSP/AudioEngine.cpp ****             _osc1Param.Amp      = pluck_amp1;
 1071              		.loc 1 61 33 view .LVU271
 1072 01ee 5949     		ldr	r1, .L22+52
 1073              	.LVL42:
  78:PSP/AudioEngine.cpp ****             _Amp_envParam.Release = pluck_release;
 1074              		.loc 1 78 35 view .LVU272
 1075 01f0 C4F8B061 		str	r6, [r4, #432]	@ float
  79:PSP/AudioEngine.cpp ****             _Amp_envParam.Sustain = pluck_sustain;
 1076              		.loc 1 79 35 view .LVU273
 1077 01f4 584E     		ldr	r6, .L22+56
  69:PSP/AudioEngine.cpp ****             _lfo1Param.Amp      = lfo_pluck_Amp1;
 1078              		.loc 1 69 33 view .LVU274
 1079 01f6 594B     		ldr	r3, .L22+60
  79:PSP/AudioEngine.cpp ****             _Amp_envParam.Sustain = pluck_sustain;
 1080              		.loc 1 79 35 view .LVU275
 1081 01f8 3668     		ldr	r6, [r6]	@ float
  70:PSP/AudioEngine.cpp ****             _lfo1Param.Shape    = lfo_pluck_Shape1;
 1082              		.loc 1 70 33 view .LVU276
 1083 01fa 594D     		ldr	r5, .L22+64
  79:PSP/AudioEngine.cpp ****             _Amp_envParam.Sustain = pluck_sustain;
 1084              		.loc 1 79 35 view .LVU277
 1085 01fc C4F8B861 		str	r6, [r4, #440]	@ float
  80:PSP/AudioEngine.cpp **** 
 1086              		.loc 1 80 35 view .LVU278
 1087 0200 584E     		ldr	r6, .L22+68
ARM GAS  C:\Users\skipi\AppData\Local\Temp\ccnbanHd.s 			page 31


  61:PSP/AudioEngine.cpp ****             _osc1Param.Amp      = pluck_amp1;
 1088              		.loc 1 61 33 view .LVU279
 1089 0202 0978     		ldrb	r1, [r1]	@ zero_extendqisi2
  80:PSP/AudioEngine.cpp **** 
 1090              		.loc 1 80 35 view .LVU280
 1091 0204 3668     		ldr	r6, [r6]	@ float
  69:PSP/AudioEngine.cpp ****             _lfo1Param.Amp      = lfo_pluck_Amp1;
 1092              		.loc 1 69 33 view .LVU281
 1093 0206 1B78     		ldrb	r3, [r3]	@ zero_extendqisi2
  70:PSP/AudioEngine.cpp ****             _lfo1Param.Shape    = lfo_pluck_Shape1;
 1094              		.loc 1 70 33 view .LVU282
 1095 0208 2D68     		ldr	r5, [r5]	@ float
  80:PSP/AudioEngine.cpp **** 
 1096              		.loc 1 80 35 view .LVU283
 1097 020a C4F8B461 		str	r6, [r4, #436]	@ float
  82:PSP/AudioEngine.cpp ****             _Filt_envParam.Decay   = pluck_fdecay;
 1098              		.loc 1 82 36 view .LVU284
 1099 020e 564E     		ldr	r6, .L22+72
  61:PSP/AudioEngine.cpp ****             _osc1Param.Amp      = pluck_amp1;
 1100              		.loc 1 61 33 view .LVU285
 1101 0210 84F86C11 		strb	r1, [r4, #364]
  62:PSP/AudioEngine.cpp ****             _osc1Param.Shape    = pluck_shape1;
 1102              		.loc 1 62 13 is_stmt 1 view .LVU286
  62:PSP/AudioEngine.cpp ****             _osc1Param.Shape    = pluck_shape1;
 1103              		.loc 1 62 33 is_stmt 0 view .LVU287
 1104 0214 C4F870C1 		str	ip, [r4, #368]	@ float
  63:PSP/AudioEngine.cpp **** 
 1105              		.loc 1 63 13 is_stmt 1 view .LVU288
  63:PSP/AudioEngine.cpp **** 
 1106              		.loc 1 63 33 is_stmt 0 view .LVU289
 1107 0218 C4ED5D6A 		vstr.32	s13, [r4, #372]
  65:PSP/AudioEngine.cpp ****             _osc2Param.Amp      = pluck_amp2;
 1108              		.loc 1 65 13 is_stmt 1 view .LVU290
  65:PSP/AudioEngine.cpp ****             _osc2Param.Amp      = pluck_amp2;
 1109              		.loc 1 65 33 is_stmt 0 view .LVU291
 1110 021c 84F87C21 		strb	r2, [r4, #380]
  66:PSP/AudioEngine.cpp ****             _osc2Param.Shape    = pluck_shape2;
 1111              		.loc 1 66 13 is_stmt 1 view .LVU292
  66:PSP/AudioEngine.cpp ****             _osc2Param.Shape    = pluck_shape2;
 1112              		.loc 1 66 33 is_stmt 0 view .LVU293
 1113 0220 C4F88001 		str	r0, [r4, #384]	@ float
  67:PSP/AudioEngine.cpp **** 
 1114              		.loc 1 67 13 is_stmt 1 view .LVU294
  67:PSP/AudioEngine.cpp **** 
 1115              		.loc 1 67 33 is_stmt 0 view .LVU295
 1116 0224 84ED617A 		vstr.32	s14, [r4, #388]
  69:PSP/AudioEngine.cpp ****             _lfo1Param.Amp      = lfo_pluck_Amp1;
 1117              		.loc 1 69 13 is_stmt 1 view .LVU296
  69:PSP/AudioEngine.cpp ****             _lfo1Param.Amp      = lfo_pluck_Amp1;
 1118              		.loc 1 69 33 is_stmt 0 view .LVU297
 1119 0228 84F88C31 		strb	r3, [r4, #396]
  70:PSP/AudioEngine.cpp ****             _lfo1Param.Shape    = lfo_pluck_Shape1;
 1120              		.loc 1 70 13 is_stmt 1 view .LVU298
  70:PSP/AudioEngine.cpp ****             _lfo1Param.Shape    = lfo_pluck_Shape1;
 1121              		.loc 1 70 33 is_stmt 0 view .LVU299
 1122 022c C4F89051 		str	r5, [r4, #400]	@ float
  71:PSP/AudioEngine.cpp **** 
ARM GAS  C:\Users\skipi\AppData\Local\Temp\ccnbanHd.s 			page 32


 1123              		.loc 1 71 13 is_stmt 1 view .LVU300
  71:PSP/AudioEngine.cpp **** 
 1124              		.loc 1 71 33 is_stmt 0 view .LVU301
 1125 0230 C4ED657A 		vstr.32	s15, [r4, #404]
  73:PSP/AudioEngine.cpp ****             _lfo2Param.Amp      = lfo_pluck_Amp2;
 1126              		.loc 1 73 13 is_stmt 1 view .LVU302
  74:PSP/AudioEngine.cpp ****             _lfo2Param.Shape    = lfo_pluck_Shape2;
 1127              		.loc 1 74 13 view .LVU303
  75:PSP/AudioEngine.cpp **** 
 1128              		.loc 1 75 13 view .LVU304
  77:PSP/AudioEngine.cpp ****             _Amp_envParam.Decay   = pluck_decay;
 1129              		.loc 1 77 13 view .LVU305
  78:PSP/AudioEngine.cpp ****             _Amp_envParam.Release = pluck_release;
 1130              		.loc 1 78 13 view .LVU306
  79:PSP/AudioEngine.cpp ****             _Amp_envParam.Sustain = pluck_sustain;
 1131              		.loc 1 79 13 view .LVU307
  80:PSP/AudioEngine.cpp **** 
 1132              		.loc 1 80 13 view .LVU308
  82:PSP/AudioEngine.cpp ****             _Filt_envParam.Decay   = pluck_fdecay;
 1133              		.loc 1 82 13 view .LVU309
  82:PSP/AudioEngine.cpp ****             _Filt_envParam.Decay   = pluck_fdecay;
 1134              		.loc 1 82 36 is_stmt 0 view .LVU310
 1135 0234 3668     		ldr	r6, [r6]	@ float
 1136 0236 C4F8C061 		str	r6, [r4, #448]	@ float
  83:PSP/AudioEngine.cpp ****             _Filt_envParam.Release = pluck_frelease;
 1137              		.loc 1 83 13 is_stmt 1 view .LVU311
  83:PSP/AudioEngine.cpp ****             _Filt_envParam.Release = pluck_frelease;
 1138              		.loc 1 83 36 is_stmt 0 view .LVU312
 1139 023a 4C4E     		ldr	r6, .L22+76
 1140 023c 3668     		ldr	r6, [r6]	@ float
 1141 023e C4F8C461 		str	r6, [r4, #452]	@ float
  84:PSP/AudioEngine.cpp ****             _Filt_envParam.Sustain = pluck_fsustain;
 1142              		.loc 1 84 13 is_stmt 1 view .LVU313
  84:PSP/AudioEngine.cpp ****             _Filt_envParam.Sustain = pluck_fsustain;
 1143              		.loc 1 84 36 is_stmt 0 view .LVU314
 1144 0242 4B4E     		ldr	r6, .L22+80
 1145 0244 3668     		ldr	r6, [r6]	@ float
 1146 0246 C4F8CC61 		str	r6, [r4, #460]	@ float
  85:PSP/AudioEngine.cpp **** 
 1147              		.loc 1 85 13 is_stmt 1 view .LVU315
  85:PSP/AudioEngine.cpp **** 
 1148              		.loc 1 85 36 is_stmt 0 view .LVU316
 1149 024a 4A4E     		ldr	r6, .L22+84
 1150 024c 3668     		ldr	r6, [r6]	@ float
 1151 024e C4F8C861 		str	r6, [r4, #456]	@ float
  87:PSP/AudioEngine.cpp ****             _FiltParam.Resonance = pluck_res;
 1152              		.loc 1 87 13 is_stmt 1 view .LVU317
  87:PSP/AudioEngine.cpp ****             _FiltParam.Resonance = pluck_res;
 1153              		.loc 1 87 34 is_stmt 0 view .LVU318
 1154 0252 494E     		ldr	r6, .L22+88
 1155 0254 3668     		ldr	r6, [r6]	@ float
 1156 0256 C4F8D461 		str	r6, [r4, #468]	@ float
  88:PSP/AudioEngine.cpp ****             break;
 1157              		.loc 1 88 13 is_stmt 1 view .LVU319
  88:PSP/AudioEngine.cpp ****             break;
 1158              		.loc 1 88 34 is_stmt 0 view .LVU320
 1159 025a 484E     		ldr	r6, .L22+92
ARM GAS  C:\Users\skipi\AppData\Local\Temp\ccnbanHd.s 			page 33


 1160 025c 3668     		ldr	r6, [r6]	@ float
 1161 025e C4F8D861 		str	r6, [r4, #472]	@ float
  89:PSP/AudioEngine.cpp **** 
 1162              		.loc 1 89 13 is_stmt 1 view .LVU321
 1163 0262 EFE6     		b	.L10
 1164              	.LVL43:
 1165              	.L9:
  29:PSP/AudioEngine.cpp ****             _osc1Param.Waveform = pad_waveform1;
 1166              		.loc 1 29 9 view .LVU322
  30:PSP/AudioEngine.cpp ****             _osc1Param.Amp      = pad_amp1;
 1167              		.loc 1 30 13 view .LVU323
  40:PSP/AudioEngine.cpp **** 
 1168              		.loc 1 40 33 is_stmt 0 view .LVU324
 1169 0264 464E     		ldr	r6, .L22+96
  32:PSP/AudioEngine.cpp ****             
 1170              		.loc 1 32 33 view .LVU325
 1171 0266 474A     		ldr	r2, .L22+100
  40:PSP/AudioEngine.cpp **** 
 1172              		.loc 1 40 33 view .LVU326
 1173 0268 D6ED007A 		vldr.32	s15, [r6]
  42:PSP/AudioEngine.cpp ****             _lfo2Param.Amp      = lfo_pad_Amp2;
 1174              		.loc 1 42 33 view .LVU327
 1175 026c 464E     		ldr	r6, .L22+104
  34:PSP/AudioEngine.cpp ****             _osc2Param.Amp      = pad_amp2;
 1176              		.loc 1 34 33 view .LVU328
 1177 026e 474B     		ldr	r3, .L22+108
  42:PSP/AudioEngine.cpp ****             _lfo2Param.Amp      = lfo_pad_Amp2;
 1178              		.loc 1 42 33 view .LVU329
 1179 0270 3678     		ldrb	r6, [r6]	@ zero_extendqisi2
  32:PSP/AudioEngine.cpp ****             
 1180              		.loc 1 32 33 view .LVU330
 1181 0272 D2ED006A 		vldr.32	s13, [r2]
  42:PSP/AudioEngine.cpp ****             _lfo2Param.Amp      = lfo_pad_Amp2;
 1182              		.loc 1 42 33 view .LVU331
 1183 0276 84F89C61 		strb	r6, [r4, #412]
  43:PSP/AudioEngine.cpp ****             _lfo2Param.Shape    = lfo_pad_Shape2;
 1184              		.loc 1 43 33 view .LVU332
 1185 027a 454E     		ldr	r6, .L22+112
  34:PSP/AudioEngine.cpp ****             _osc2Param.Amp      = pad_amp2;
 1186              		.loc 1 34 33 view .LVU333
 1187 027c 1A78     		ldrb	r2, [r3]	@ zero_extendqisi2
  43:PSP/AudioEngine.cpp ****             _lfo2Param.Shape    = lfo_pad_Shape2;
 1188              		.loc 1 43 33 view .LVU334
 1189 027e 3668     		ldr	r6, [r6]	@ float
  31:PSP/AudioEngine.cpp ****             _osc1Param.Shape    = pad_shape1;
 1190              		.loc 1 31 33 view .LVU335
 1191 0280 4448     		ldr	r0, .L22+116
 1192              	.LVL44:
  43:PSP/AudioEngine.cpp ****             _lfo2Param.Shape    = lfo_pad_Shape2;
 1193              		.loc 1 43 33 view .LVU336
 1194 0282 C4F8A061 		str	r6, [r4, #416]	@ float
  44:PSP/AudioEngine.cpp **** 
 1195              		.loc 1 44 33 view .LVU337
 1196 0286 444E     		ldr	r6, .L22+120
  35:PSP/AudioEngine.cpp ****             _osc2Param.Shape    = pad_shape2; 
 1197              		.loc 1 35 33 view .LVU338
 1198 0288 444B     		ldr	r3, .L22+124
ARM GAS  C:\Users\skipi\AppData\Local\Temp\ccnbanHd.s 			page 34


  44:PSP/AudioEngine.cpp **** 
 1199              		.loc 1 44 33 view .LVU339
 1200 028a 3668     		ldr	r6, [r6]	@ float
  31:PSP/AudioEngine.cpp ****             _osc1Param.Shape    = pad_shape1;
 1201              		.loc 1 31 33 view .LVU340
 1202 028c D0F800C0 		ldr	ip, [r0]	@ float
  44:PSP/AudioEngine.cpp **** 
 1203              		.loc 1 44 33 view .LVU341
 1204 0290 C4F8A461 		str	r6, [r4, #420]	@ float
  46:PSP/AudioEngine.cpp ****             _Amp_envParam.Decay   = pad_decay;
 1205              		.loc 1 46 35 view .LVU342
 1206 0294 424E     		ldr	r6, .L22+128
  35:PSP/AudioEngine.cpp ****             _osc2Param.Shape    = pad_shape2; 
 1207              		.loc 1 35 33 view .LVU343
 1208 0296 1868     		ldr	r0, [r3]	@ float
  46:PSP/AudioEngine.cpp ****             _Amp_envParam.Decay   = pad_decay;
 1209              		.loc 1 46 35 view .LVU344
 1210 0298 3668     		ldr	r6, [r6]	@ float
  36:PSP/AudioEngine.cpp **** 
 1211              		.loc 1 36 33 view .LVU345
 1212 029a 424B     		ldr	r3, .L22+132
  46:PSP/AudioEngine.cpp ****             _Amp_envParam.Decay   = pad_decay;
 1213              		.loc 1 46 35 view .LVU346
 1214 029c C4F8AC61 		str	r6, [r4, #428]	@ float
  47:PSP/AudioEngine.cpp ****             _Amp_envParam.Release = pad_release;
 1215              		.loc 1 47 35 view .LVU347
 1216 02a0 414E     		ldr	r6, .L22+136
  36:PSP/AudioEngine.cpp **** 
 1217              		.loc 1 36 33 view .LVU348
 1218 02a2 93ED007A 		vldr.32	s14, [r3]
  47:PSP/AudioEngine.cpp ****             _Amp_envParam.Release = pad_release;
 1219              		.loc 1 47 35 view .LVU349
 1220 02a6 3668     		ldr	r6, [r6]	@ float
  30:PSP/AudioEngine.cpp ****             _osc1Param.Amp      = pad_amp1;
 1221              		.loc 1 30 33 view .LVU350
 1222 02a8 4049     		ldr	r1, .L22+140
 1223              	.LVL45:
  47:PSP/AudioEngine.cpp ****             _Amp_envParam.Release = pad_release;
 1224              		.loc 1 47 35 view .LVU351
 1225 02aa C4F8B061 		str	r6, [r4, #432]	@ float
  48:PSP/AudioEngine.cpp ****             _Amp_envParam.Sustain = pad_sustain;
 1226              		.loc 1 48 35 view .LVU352
 1227 02ae 404E     		ldr	r6, .L22+144
  38:PSP/AudioEngine.cpp ****             _lfo1Param.Amp      = lfo_pad_Amp1;
 1228              		.loc 1 38 33 view .LVU353
 1229 02b0 404B     		ldr	r3, .L22+148
  48:PSP/AudioEngine.cpp ****             _Amp_envParam.Sustain = pad_sustain;
 1230              		.loc 1 48 35 view .LVU354
 1231 02b2 3668     		ldr	r6, [r6]	@ float
  39:PSP/AudioEngine.cpp ****             _lfo1Param.Shape    = lfo_pad_Shape1;
 1232              		.loc 1 39 33 view .LVU355
 1233 02b4 404D     		ldr	r5, .L22+152
  48:PSP/AudioEngine.cpp ****             _Amp_envParam.Sustain = pad_sustain;
 1234              		.loc 1 48 35 view .LVU356
 1235 02b6 C4F8B861 		str	r6, [r4, #440]	@ float
  49:PSP/AudioEngine.cpp **** 
 1236              		.loc 1 49 35 view .LVU357
ARM GAS  C:\Users\skipi\AppData\Local\Temp\ccnbanHd.s 			page 35


 1237 02ba 404E     		ldr	r6, .L22+156
  30:PSP/AudioEngine.cpp ****             _osc1Param.Amp      = pad_amp1;
 1238              		.loc 1 30 33 view .LVU358
 1239 02bc 0978     		ldrb	r1, [r1]	@ zero_extendqisi2
  49:PSP/AudioEngine.cpp **** 
 1240              		.loc 1 49 35 view .LVU359
 1241 02be 3668     		ldr	r6, [r6]	@ float
  38:PSP/AudioEngine.cpp ****             _lfo1Param.Amp      = lfo_pad_Amp1;
 1242              		.loc 1 38 33 view .LVU360
 1243 02c0 1B78     		ldrb	r3, [r3]	@ zero_extendqisi2
  39:PSP/AudioEngine.cpp ****             _lfo1Param.Shape    = lfo_pad_Shape1;
 1244              		.loc 1 39 33 view .LVU361
 1245 02c2 2D68     		ldr	r5, [r5]	@ float
  49:PSP/AudioEngine.cpp **** 
 1246              		.loc 1 49 35 view .LVU362
 1247 02c4 C4F8B461 		str	r6, [r4, #436]	@ float
  51:PSP/AudioEngine.cpp ****             _Filt_envParam.Decay   = pad_fdecay;
 1248              		.loc 1 51 36 view .LVU363
 1249 02c8 3D4E     		ldr	r6, .L22+160
  30:PSP/AudioEngine.cpp ****             _osc1Param.Amp      = pad_amp1;
 1250              		.loc 1 30 33 view .LVU364
 1251 02ca 84F86C11 		strb	r1, [r4, #364]
  31:PSP/AudioEngine.cpp ****             _osc1Param.Shape    = pad_shape1;
 1252              		.loc 1 31 13 is_stmt 1 view .LVU365
  31:PSP/AudioEngine.cpp ****             _osc1Param.Shape    = pad_shape1;
 1253              		.loc 1 31 33 is_stmt 0 view .LVU366
 1254 02ce C4F870C1 		str	ip, [r4, #368]	@ float
  32:PSP/AudioEngine.cpp ****             
 1255              		.loc 1 32 13 is_stmt 1 view .LVU367
  32:PSP/AudioEngine.cpp ****             
 1256              		.loc 1 32 33 is_stmt 0 view .LVU368
 1257 02d2 C4ED5D6A 		vstr.32	s13, [r4, #372]
  34:PSP/AudioEngine.cpp ****             _osc2Param.Amp      = pad_amp2;
 1258              		.loc 1 34 13 is_stmt 1 view .LVU369
  34:PSP/AudioEngine.cpp ****             _osc2Param.Amp      = pad_amp2;
 1259              		.loc 1 34 33 is_stmt 0 view .LVU370
 1260 02d6 84F87C21 		strb	r2, [r4, #380]
  35:PSP/AudioEngine.cpp ****             _osc2Param.Shape    = pad_shape2; 
 1261              		.loc 1 35 13 is_stmt 1 view .LVU371
  35:PSP/AudioEngine.cpp ****             _osc2Param.Shape    = pad_shape2; 
 1262              		.loc 1 35 33 is_stmt 0 view .LVU372
 1263 02da C4F88001 		str	r0, [r4, #384]	@ float
  36:PSP/AudioEngine.cpp **** 
 1264              		.loc 1 36 13 is_stmt 1 view .LVU373
  36:PSP/AudioEngine.cpp **** 
 1265              		.loc 1 36 33 is_stmt 0 view .LVU374
 1266 02de 84ED617A 		vstr.32	s14, [r4, #388]
  38:PSP/AudioEngine.cpp ****             _lfo1Param.Amp      = lfo_pad_Amp1;
 1267              		.loc 1 38 13 is_stmt 1 view .LVU375
  38:PSP/AudioEngine.cpp ****             _lfo1Param.Amp      = lfo_pad_Amp1;
 1268              		.loc 1 38 33 is_stmt 0 view .LVU376
 1269 02e2 84F88C31 		strb	r3, [r4, #396]
  39:PSP/AudioEngine.cpp ****             _lfo1Param.Shape    = lfo_pad_Shape1;
 1270              		.loc 1 39 13 is_stmt 1 view .LVU377
  39:PSP/AudioEngine.cpp ****             _lfo1Param.Shape    = lfo_pad_Shape1;
 1271              		.loc 1 39 33 is_stmt 0 view .LVU378
 1272 02e6 C4F89051 		str	r5, [r4, #400]	@ float
ARM GAS  C:\Users\skipi\AppData\Local\Temp\ccnbanHd.s 			page 36


  40:PSP/AudioEngine.cpp **** 
 1273              		.loc 1 40 13 is_stmt 1 view .LVU379
  40:PSP/AudioEngine.cpp **** 
 1274              		.loc 1 40 33 is_stmt 0 view .LVU380
 1275 02ea C4ED657A 		vstr.32	s15, [r4, #404]
  42:PSP/AudioEngine.cpp ****             _lfo2Param.Amp      = lfo_pad_Amp2;
 1276              		.loc 1 42 13 is_stmt 1 view .LVU381
  43:PSP/AudioEngine.cpp ****             _lfo2Param.Shape    = lfo_pad_Shape2;
 1277              		.loc 1 43 13 view .LVU382
  44:PSP/AudioEngine.cpp **** 
 1278              		.loc 1 44 13 view .LVU383
  46:PSP/AudioEngine.cpp ****             _Amp_envParam.Decay   = pad_decay;
 1279              		.loc 1 46 13 view .LVU384
  47:PSP/AudioEngine.cpp ****             _Amp_envParam.Release = pad_release;
 1280              		.loc 1 47 13 view .LVU385
  48:PSP/AudioEngine.cpp ****             _Amp_envParam.Sustain = pad_sustain;
 1281              		.loc 1 48 13 view .LVU386
  49:PSP/AudioEngine.cpp **** 
 1282              		.loc 1 49 13 view .LVU387
  51:PSP/AudioEngine.cpp ****             _Filt_envParam.Decay   = pad_fdecay;
 1283              		.loc 1 51 13 view .LVU388
  51:PSP/AudioEngine.cpp ****             _Filt_envParam.Decay   = pad_fdecay;
 1284              		.loc 1 51 36 is_stmt 0 view .LVU389
 1285 02ee 3668     		ldr	r6, [r6]	@ float
 1286 02f0 C4F8C061 		str	r6, [r4, #448]	@ float
  52:PSP/AudioEngine.cpp ****             _Filt_envParam.Release = pad_frelease;
 1287              		.loc 1 52 13 is_stmt 1 view .LVU390
  52:PSP/AudioEngine.cpp ****             _Filt_envParam.Release = pad_frelease;
 1288              		.loc 1 52 36 is_stmt 0 view .LVU391
 1289 02f4 334E     		ldr	r6, .L22+164
 1290 02f6 3668     		ldr	r6, [r6]	@ float
 1291 02f8 C4F8C461 		str	r6, [r4, #452]	@ float
  53:PSP/AudioEngine.cpp ****             _Filt_envParam.Sustain = pad_fsustain;
 1292              		.loc 1 53 13 is_stmt 1 view .LVU392
  53:PSP/AudioEngine.cpp ****             _Filt_envParam.Sustain = pad_fsustain;
 1293              		.loc 1 53 36 is_stmt 0 view .LVU393
 1294 02fc 324E     		ldr	r6, .L22+168
 1295 02fe 3668     		ldr	r6, [r6]	@ float
 1296 0300 C4F8CC61 		str	r6, [r4, #460]	@ float
  54:PSP/AudioEngine.cpp **** 
 1297              		.loc 1 54 13 is_stmt 1 view .LVU394
  54:PSP/AudioEngine.cpp **** 
 1298              		.loc 1 54 36 is_stmt 0 view .LVU395
 1299 0304 314E     		ldr	r6, .L22+172
 1300 0306 3668     		ldr	r6, [r6]	@ float
 1301 0308 C4F8C861 		str	r6, [r4, #456]	@ float
  56:PSP/AudioEngine.cpp ****             _FiltParam.Resonance = pad_res;
 1302              		.loc 1 56 13 is_stmt 1 view .LVU396
  56:PSP/AudioEngine.cpp ****             _FiltParam.Resonance = pad_res;
 1303              		.loc 1 56 34 is_stmt 0 view .LVU397
 1304 030c 304E     		ldr	r6, .L22+176
 1305 030e 3668     		ldr	r6, [r6]	@ float
 1306 0310 C4F8D461 		str	r6, [r4, #468]	@ float
  57:PSP/AudioEngine.cpp ****             break;
 1307              		.loc 1 57 13 is_stmt 1 view .LVU398
  57:PSP/AudioEngine.cpp ****             break;
 1308              		.loc 1 57 34 is_stmt 0 view .LVU399
ARM GAS  C:\Users\skipi\AppData\Local\Temp\ccnbanHd.s 			page 37


 1309 0314 2F4E     		ldr	r6, .L22+180
 1310 0316 3668     		ldr	r6, [r6]	@ float
 1311 0318 C4F8D861 		str	r6, [r4, #472]	@ float
  58:PSP/AudioEngine.cpp **** 
 1312              		.loc 1 58 13 is_stmt 1 view .LVU400
 1313 031c 92E6     		b	.L10
 1314              	.L23:
 1315 031e 00BF     		.align	2
 1316              	.L22:
 1317 0320 00000000 		.word	0
 1318 0324 0AD723BC 		.word	-1138501878
 1319 0328 00000000 		.word	.LANCHOR30
 1320 032c 00000000 		.word	.LANCHOR24
 1321 0330 00000000 		.word	.LANCHOR31
 1322 0334 00000000 		.word	.LANCHOR25
 1323 0338 00000000 		.word	.LANCHOR32
 1324 033c 00000000 		.word	.LANCHOR23
 1325 0340 00000000 		.word	.LANCHOR33
 1326 0344 00000000 		.word	.LANCHOR26
 1327 0348 00000000 		.word	.LANCHOR34
 1328 034c 00000000 		.word	.LANCHOR27
 1329 0350 00000000 		.word	.LANCHOR35
 1330 0354 00000000 		.word	.LANCHOR22
 1331 0358 00000000 		.word	.LANCHOR36
 1332 035c 00000000 		.word	.LANCHOR28
 1333 0360 00000000 		.word	.LANCHOR29
 1334 0364 00000000 		.word	.LANCHOR37
 1335 0368 00000000 		.word	.LANCHOR38
 1336 036c 00000000 		.word	.LANCHOR39
 1337 0370 00000000 		.word	.LANCHOR40
 1338 0374 00000000 		.word	.LANCHOR41
 1339 0378 00000000 		.word	.LANCHOR42
 1340 037c 00000000 		.word	.LANCHOR43
 1341 0380 00000000 		.word	.LANCHOR8
 1342 0384 00000000 		.word	.LANCHOR2
 1343 0388 00000000 		.word	.LANCHOR9
 1344 038c 00000000 		.word	.LANCHOR3
 1345 0390 00000000 		.word	.LANCHOR10
 1346 0394 00000000 		.word	.LANCHOR1
 1347 0398 00000000 		.word	.LANCHOR11
 1348 039c 00000000 		.word	.LANCHOR4
 1349 03a0 00000000 		.word	.LANCHOR12
 1350 03a4 00000000 		.word	.LANCHOR5
 1351 03a8 00000000 		.word	.LANCHOR13
 1352 03ac 00000000 		.word	.LANCHOR0
 1353 03b0 00000000 		.word	.LANCHOR14
 1354 03b4 00000000 		.word	.LANCHOR6
 1355 03b8 00000000 		.word	.LANCHOR7
 1356 03bc 00000000 		.word	.LANCHOR15
 1357 03c0 00000000 		.word	.LANCHOR16
 1358 03c4 00000000 		.word	.LANCHOR17
 1359 03c8 00000000 		.word	.LANCHOR18
 1360 03cc 00000000 		.word	.LANCHOR19
 1361 03d0 00000000 		.word	.LANCHOR20
 1362 03d4 00000000 		.word	.LANCHOR21
 1363              	.LVL46:
 1364              	.L8:
ARM GAS  C:\Users\skipi\AppData\Local\Temp\ccnbanHd.s 			page 38


  91:PSP/AudioEngine.cpp ****             _osc1Param.Waveform = lead_waveform1;
 1365              		.loc 1 91 9 view .LVU401
  92:PSP/AudioEngine.cpp ****             _osc1Param.Amp      = lead_amp1;
 1366              		.loc 1 92 13 view .LVU402
 102:PSP/AudioEngine.cpp **** 
 1367              		.loc 1 102 33 is_stmt 0 view .LVU403
 1368 03d8 304E     		ldr	r6, .L24
  94:PSP/AudioEngine.cpp **** 
 1369              		.loc 1 94 33 view .LVU404
 1370 03da 314A     		ldr	r2, .L24+4
 102:PSP/AudioEngine.cpp **** 
 1371              		.loc 1 102 33 view .LVU405
 1372 03dc D6ED007A 		vldr.32	s15, [r6]
 104:PSP/AudioEngine.cpp ****             _lfo2Param.Amp      = lfo_lead_Amp2;
 1373              		.loc 1 104 33 view .LVU406
 1374 03e0 304E     		ldr	r6, .L24+8
  96:PSP/AudioEngine.cpp ****             _osc2Param.Amp      = lead_amp2;
 1375              		.loc 1 96 33 view .LVU407
 1376 03e2 314B     		ldr	r3, .L24+12
 104:PSP/AudioEngine.cpp ****             _lfo2Param.Amp      = lfo_lead_Amp2;
 1377              		.loc 1 104 33 view .LVU408
 1378 03e4 3678     		ldrb	r6, [r6]	@ zero_extendqisi2
  94:PSP/AudioEngine.cpp **** 
 1379              		.loc 1 94 33 view .LVU409
 1380 03e6 D2ED006A 		vldr.32	s13, [r2]
 104:PSP/AudioEngine.cpp ****             _lfo2Param.Amp      = lfo_lead_Amp2;
 1381              		.loc 1 104 33 view .LVU410
 1382 03ea 84F89C61 		strb	r6, [r4, #412]
 105:PSP/AudioEngine.cpp ****             _lfo2Param.Shape    = lfo_lead_Shape2;
 1383              		.loc 1 105 33 view .LVU411
 1384 03ee 2F4E     		ldr	r6, .L24+16
  96:PSP/AudioEngine.cpp ****             _osc2Param.Amp      = lead_amp2;
 1385              		.loc 1 96 33 view .LVU412
 1386 03f0 1A78     		ldrb	r2, [r3]	@ zero_extendqisi2
 105:PSP/AudioEngine.cpp ****             _lfo2Param.Shape    = lfo_lead_Shape2;
 1387              		.loc 1 105 33 view .LVU413
 1388 03f2 3668     		ldr	r6, [r6]	@ float
  93:PSP/AudioEngine.cpp ****             _osc1Param.Shape    = lead_shape1;
 1389              		.loc 1 93 33 view .LVU414
 1390 03f4 2E48     		ldr	r0, .L24+20
 1391              	.LVL47:
 105:PSP/AudioEngine.cpp ****             _lfo2Param.Shape    = lfo_lead_Shape2;
 1392              		.loc 1 105 33 view .LVU415
 1393 03f6 C4F8A061 		str	r6, [r4, #416]	@ float
 106:PSP/AudioEngine.cpp **** 
 1394              		.loc 1 106 33 view .LVU416
 1395 03fa 2E4E     		ldr	r6, .L24+24
  97:PSP/AudioEngine.cpp ****             _osc2Param.Shape    = lead_shape2;
 1396              		.loc 1 97 33 view .LVU417
 1397 03fc 2E4B     		ldr	r3, .L24+28
 106:PSP/AudioEngine.cpp **** 
 1398              		.loc 1 106 33 view .LVU418
 1399 03fe 3668     		ldr	r6, [r6]	@ float
  93:PSP/AudioEngine.cpp ****             _osc1Param.Shape    = lead_shape1;
 1400              		.loc 1 93 33 view .LVU419
 1401 0400 D0F800C0 		ldr	ip, [r0]	@ float
 106:PSP/AudioEngine.cpp **** 
ARM GAS  C:\Users\skipi\AppData\Local\Temp\ccnbanHd.s 			page 39


 1402              		.loc 1 106 33 view .LVU420
 1403 0404 C4F8A461 		str	r6, [r4, #420]	@ float
 108:PSP/AudioEngine.cpp ****             _Amp_envParam.Decay   = lead_decay;
 1404              		.loc 1 108 35 view .LVU421
 1405 0408 2C4E     		ldr	r6, .L24+32
  97:PSP/AudioEngine.cpp ****             _osc2Param.Shape    = lead_shape2;
 1406              		.loc 1 97 33 view .LVU422
 1407 040a 1868     		ldr	r0, [r3]	@ float
 108:PSP/AudioEngine.cpp ****             _Amp_envParam.Decay   = lead_decay;
 1408              		.loc 1 108 35 view .LVU423
 1409 040c 3668     		ldr	r6, [r6]	@ float
  98:PSP/AudioEngine.cpp **** 
 1410              		.loc 1 98 33 view .LVU424
 1411 040e 2C4B     		ldr	r3, .L24+36
 108:PSP/AudioEngine.cpp ****             _Amp_envParam.Decay   = lead_decay;
 1412              		.loc 1 108 35 view .LVU425
 1413 0410 C4F8AC61 		str	r6, [r4, #428]	@ float
 109:PSP/AudioEngine.cpp ****             _Amp_envParam.Release = lead_release;
 1414              		.loc 1 109 35 view .LVU426
 1415 0414 2B4E     		ldr	r6, .L24+40
  98:PSP/AudioEngine.cpp **** 
 1416              		.loc 1 98 33 view .LVU427
 1417 0416 93ED007A 		vldr.32	s14, [r3]
 109:PSP/AudioEngine.cpp ****             _Amp_envParam.Release = lead_release;
 1418              		.loc 1 109 35 view .LVU428
 1419 041a 3668     		ldr	r6, [r6]	@ float
  92:PSP/AudioEngine.cpp ****             _osc1Param.Amp      = lead_amp1;
 1420              		.loc 1 92 33 view .LVU429
 1421 041c 2A49     		ldr	r1, .L24+44
 1422              	.LVL48:
 109:PSP/AudioEngine.cpp ****             _Amp_envParam.Release = lead_release;
 1423              		.loc 1 109 35 view .LVU430
 1424 041e C4F8B061 		str	r6, [r4, #432]	@ float
 110:PSP/AudioEngine.cpp ****             _Amp_envParam.Sustain = lead_sustain;
 1425              		.loc 1 110 35 view .LVU431
 1426 0422 2A4E     		ldr	r6, .L24+48
 100:PSP/AudioEngine.cpp ****             _lfo1Param.Amp      = lfo_lead_Amp1;
 1427              		.loc 1 100 33 view .LVU432
 1428 0424 2A4B     		ldr	r3, .L24+52
 110:PSP/AudioEngine.cpp ****             _Amp_envParam.Sustain = lead_sustain;
 1429              		.loc 1 110 35 view .LVU433
 1430 0426 3668     		ldr	r6, [r6]	@ float
 101:PSP/AudioEngine.cpp ****             _lfo1Param.Shape    = lfo_lead_Shape1;
 1431              		.loc 1 101 33 view .LVU434
 1432 0428 2A4D     		ldr	r5, .L24+56
 110:PSP/AudioEngine.cpp ****             _Amp_envParam.Sustain = lead_sustain;
 1433              		.loc 1 110 35 view .LVU435
 1434 042a C4F8B861 		str	r6, [r4, #440]	@ float
 111:PSP/AudioEngine.cpp **** 
 1435              		.loc 1 111 35 view .LVU436
 1436 042e 2A4E     		ldr	r6, .L24+60
  92:PSP/AudioEngine.cpp ****             _osc1Param.Amp      = lead_amp1;
 1437              		.loc 1 92 33 view .LVU437
 1438 0430 0978     		ldrb	r1, [r1]	@ zero_extendqisi2
 111:PSP/AudioEngine.cpp **** 
 1439              		.loc 1 111 35 view .LVU438
 1440 0432 3668     		ldr	r6, [r6]	@ float
ARM GAS  C:\Users\skipi\AppData\Local\Temp\ccnbanHd.s 			page 40


 100:PSP/AudioEngine.cpp ****             _lfo1Param.Amp      = lfo_lead_Amp1;
 1441              		.loc 1 100 33 view .LVU439
 1442 0434 1B78     		ldrb	r3, [r3]	@ zero_extendqisi2
 101:PSP/AudioEngine.cpp ****             _lfo1Param.Shape    = lfo_lead_Shape1;
 1443              		.loc 1 101 33 view .LVU440
 1444 0436 2D68     		ldr	r5, [r5]	@ float
 111:PSP/AudioEngine.cpp **** 
 1445              		.loc 1 111 35 view .LVU441
 1446 0438 C4F8B461 		str	r6, [r4, #436]	@ float
 113:PSP/AudioEngine.cpp ****             _Filt_envParam.Decay   = lead_fdecay;
 1447              		.loc 1 113 36 view .LVU442
 1448 043c 274E     		ldr	r6, .L24+64
  92:PSP/AudioEngine.cpp ****             _osc1Param.Amp      = lead_amp1;
 1449              		.loc 1 92 33 view .LVU443
 1450 043e 84F86C11 		strb	r1, [r4, #364]
  93:PSP/AudioEngine.cpp ****             _osc1Param.Shape    = lead_shape1;
 1451              		.loc 1 93 13 is_stmt 1 view .LVU444
  93:PSP/AudioEngine.cpp ****             _osc1Param.Shape    = lead_shape1;
 1452              		.loc 1 93 33 is_stmt 0 view .LVU445
 1453 0442 C4F870C1 		str	ip, [r4, #368]	@ float
  94:PSP/AudioEngine.cpp **** 
 1454              		.loc 1 94 13 is_stmt 1 view .LVU446
  94:PSP/AudioEngine.cpp **** 
 1455              		.loc 1 94 33 is_stmt 0 view .LVU447
 1456 0446 C4ED5D6A 		vstr.32	s13, [r4, #372]
  96:PSP/AudioEngine.cpp ****             _osc2Param.Amp      = lead_amp2;
 1457              		.loc 1 96 13 is_stmt 1 view .LVU448
  96:PSP/AudioEngine.cpp ****             _osc2Param.Amp      = lead_amp2;
 1458              		.loc 1 96 33 is_stmt 0 view .LVU449
 1459 044a 84F87C21 		strb	r2, [r4, #380]
  97:PSP/AudioEngine.cpp ****             _osc2Param.Shape    = lead_shape2;
 1460              		.loc 1 97 13 is_stmt 1 view .LVU450
  97:PSP/AudioEngine.cpp ****             _osc2Param.Shape    = lead_shape2;
 1461              		.loc 1 97 33 is_stmt 0 view .LVU451
 1462 044e C4F88001 		str	r0, [r4, #384]	@ float
  98:PSP/AudioEngine.cpp **** 
 1463              		.loc 1 98 13 is_stmt 1 view .LVU452
  98:PSP/AudioEngine.cpp **** 
 1464              		.loc 1 98 33 is_stmt 0 view .LVU453
 1465 0452 84ED617A 		vstr.32	s14, [r4, #388]
 100:PSP/AudioEngine.cpp ****             _lfo1Param.Amp      = lfo_lead_Amp1;
 1466              		.loc 1 100 13 is_stmt 1 view .LVU454
 100:PSP/AudioEngine.cpp ****             _lfo1Param.Amp      = lfo_lead_Amp1;
 1467              		.loc 1 100 33 is_stmt 0 view .LVU455
 1468 0456 84F88C31 		strb	r3, [r4, #396]
 101:PSP/AudioEngine.cpp ****             _lfo1Param.Shape    = lfo_lead_Shape1;
 1469              		.loc 1 101 13 is_stmt 1 view .LVU456
 101:PSP/AudioEngine.cpp ****             _lfo1Param.Shape    = lfo_lead_Shape1;
 1470              		.loc 1 101 33 is_stmt 0 view .LVU457
 1471 045a C4F89051 		str	r5, [r4, #400]	@ float
 102:PSP/AudioEngine.cpp **** 
 1472              		.loc 1 102 13 is_stmt 1 view .LVU458
 102:PSP/AudioEngine.cpp **** 
 1473              		.loc 1 102 33 is_stmt 0 view .LVU459
 1474 045e C4ED657A 		vstr.32	s15, [r4, #404]
 104:PSP/AudioEngine.cpp ****             _lfo2Param.Amp      = lfo_lead_Amp2;
 1475              		.loc 1 104 13 is_stmt 1 view .LVU460
ARM GAS  C:\Users\skipi\AppData\Local\Temp\ccnbanHd.s 			page 41


 105:PSP/AudioEngine.cpp ****             _lfo2Param.Shape    = lfo_lead_Shape2;
 1476              		.loc 1 105 13 view .LVU461
 106:PSP/AudioEngine.cpp **** 
 1477              		.loc 1 106 13 view .LVU462
 108:PSP/AudioEngine.cpp ****             _Amp_envParam.Decay   = lead_decay;
 1478              		.loc 1 108 13 view .LVU463
 109:PSP/AudioEngine.cpp ****             _Amp_envParam.Release = lead_release;
 1479              		.loc 1 109 13 view .LVU464
 110:PSP/AudioEngine.cpp ****             _Amp_envParam.Sustain = lead_sustain;
 1480              		.loc 1 110 13 view .LVU465
 111:PSP/AudioEngine.cpp **** 
 1481              		.loc 1 111 13 view .LVU466
 113:PSP/AudioEngine.cpp ****             _Filt_envParam.Decay   = lead_fdecay;
 1482              		.loc 1 113 13 view .LVU467
 113:PSP/AudioEngine.cpp ****             _Filt_envParam.Decay   = lead_fdecay;
 1483              		.loc 1 113 36 is_stmt 0 view .LVU468
 1484 0462 3668     		ldr	r6, [r6]	@ float
 1485 0464 C4F8C061 		str	r6, [r4, #448]	@ float
 114:PSP/AudioEngine.cpp ****             _Filt_envParam.Release = lead_frelease;
 1486              		.loc 1 114 13 is_stmt 1 view .LVU469
 114:PSP/AudioEngine.cpp ****             _Filt_envParam.Release = lead_frelease;
 1487              		.loc 1 114 36 is_stmt 0 view .LVU470
 1488 0468 1D4E     		ldr	r6, .L24+68
 1489 046a 3668     		ldr	r6, [r6]	@ float
 1490 046c C4F8C461 		str	r6, [r4, #452]	@ float
 115:PSP/AudioEngine.cpp ****             _Filt_envParam.Sustain = lead_fsustain;
 1491              		.loc 1 115 13 is_stmt 1 view .LVU471
 115:PSP/AudioEngine.cpp ****             _Filt_envParam.Sustain = lead_fsustain;
 1492              		.loc 1 115 36 is_stmt 0 view .LVU472
 1493 0470 1C4E     		ldr	r6, .L24+72
 1494 0472 3668     		ldr	r6, [r6]	@ float
 1495 0474 C4F8CC61 		str	r6, [r4, #460]	@ float
 116:PSP/AudioEngine.cpp ****             _Filt_envParam.Amp = lead_fAmp;
 1496              		.loc 1 116 13 is_stmt 1 view .LVU473
 116:PSP/AudioEngine.cpp ****             _Filt_envParam.Amp = lead_fAmp;
 1497              		.loc 1 116 36 is_stmt 0 view .LVU474
 1498 0478 1B4E     		ldr	r6, .L24+76
 1499 047a 3668     		ldr	r6, [r6]	@ float
 1500 047c C4F8C861 		str	r6, [r4, #456]	@ float
 117:PSP/AudioEngine.cpp **** 
 1501              		.loc 1 117 13 is_stmt 1 view .LVU475
 117:PSP/AudioEngine.cpp **** 
 1502              		.loc 1 117 32 is_stmt 0 view .LVU476
 1503 0480 1A4E     		ldr	r6, .L24+80
 1504 0482 3668     		ldr	r6, [r6]	@ float
 1505 0484 C4F8D061 		str	r6, [r4, #464]	@ float
 119:PSP/AudioEngine.cpp ****             _FiltParam.Resonance = lead_res;
 1506              		.loc 1 119 13 is_stmt 1 view .LVU477
 119:PSP/AudioEngine.cpp ****             _FiltParam.Resonance = lead_res;
 1507              		.loc 1 119 34 is_stmt 0 view .LVU478
 1508 0488 194E     		ldr	r6, .L24+84
 1509 048a 3668     		ldr	r6, [r6]	@ float
 1510 048c C4F8D461 		str	r6, [r4, #468]	@ float
 120:PSP/AudioEngine.cpp ****             break;
 1511              		.loc 1 120 13 is_stmt 1 view .LVU479
 120:PSP/AudioEngine.cpp ****             break;
 1512              		.loc 1 120 34 is_stmt 0 view .LVU480
ARM GAS  C:\Users\skipi\AppData\Local\Temp\ccnbanHd.s 			page 42


 1513 0490 184E     		ldr	r6, .L24+88
 1514 0492 D6F800E0 		ldr	lr, [r6]	@ float
 1515 0496 C4F8D8E1 		str	lr, [r4, #472]	@ float
 121:PSP/AudioEngine.cpp **** 
 1516              		.loc 1 121 13 is_stmt 1 view .LVU481
 1517 049a D3E5     		b	.L10
 1518              	.L25:
 1519              		.align	2
 1520              	.L24:
 1521 049c 00000000 		.word	.LANCHOR52
 1522 04a0 00000000 		.word	.LANCHOR46
 1523 04a4 00000000 		.word	.LANCHOR53
 1524 04a8 00000000 		.word	.LANCHOR47
 1525 04ac 00000000 		.word	.LANCHOR54
 1526 04b0 00000000 		.word	.LANCHOR45
 1527 04b4 00000000 		.word	.LANCHOR55
 1528 04b8 00000000 		.word	.LANCHOR48
 1529 04bc 00000000 		.word	.LANCHOR56
 1530 04c0 00000000 		.word	.LANCHOR49
 1531 04c4 00000000 		.word	.LANCHOR57
 1532 04c8 00000000 		.word	.LANCHOR44
 1533 04cc 00000000 		.word	.LANCHOR58
 1534 04d0 00000000 		.word	.LANCHOR50
 1535 04d4 00000000 		.word	.LANCHOR51
 1536 04d8 00000000 		.word	.LANCHOR59
 1537 04dc 00000000 		.word	.LANCHOR60
 1538 04e0 00000000 		.word	.LANCHOR61
 1539 04e4 00000000 		.word	.LANCHOR62
 1540 04e8 00000000 		.word	.LANCHOR63
 1541 04ec 00000000 		.word	.LANCHOR64
 1542 04f0 00000000 		.word	.LANCHOR65
 1543 04f4 00000000 		.word	.LANCHOR66
 1544              		.cfi_endproc
 1545              	.LFE3582:
 1547              		.section	.text._ZN11AudioEngine4InitEf,"ax",%progbits
 1548              		.align	1
 1549              		.p2align 2,,3
 1550              		.global	_ZN11AudioEngine4InitEf
 1551              		.syntax unified
 1552              		.thumb
 1553              		.thumb_func
 1554              		.fpu fpv5-d16
 1556              	_ZN11AudioEngine4InitEf:
 1557              	.LVL49:
 1558              	.LFB3581:
   7:PSP/AudioEngine.cpp ****     // Inizializzazione moduli
 1559              		.loc 1 7 43 view -0
 1560              		.cfi_startproc
 1561              		@ args = 0, pretend = 0, frame = 0
 1562              		@ frame_needed = 0, uses_anonymous_args = 0
   9:PSP/AudioEngine.cpp ****     _osc2.Init(sample_rate);
 1563              		.loc 1 9 5 view .LVU483
 1564              	.LBB328:
 1565              	.LBB329:
  53:../libs/PoliTeKDSP/libs/DaisySP/Source/Synthesis/oscillator.h ****         freq_      = 100.0f;
 1566              		.loc 3 53 27 is_stmt 0 view .LVU484
 1567 0000 F7EE007A 		vmov.f32	s15, #1.0e+0
ARM GAS  C:\Users\skipi\AppData\Local\Temp\ccnbanHd.s 			page 43


 1568              	.LBE329:
 1569              	.LBE328:
   7:PSP/AudioEngine.cpp ****     // Inizializzazione moduli
 1570              		.loc 1 7 43 view .LVU485
 1571 0004 2DE9F041 		push	{r4, r5, r6, r7, r8, lr}
 1572              		.cfi_def_cfa_offset 24
 1573              		.cfi_offset 4, -24
 1574              		.cfi_offset 5, -20
 1575              		.cfi_offset 6, -16
 1576              		.cfi_offset 7, -12
 1577              		.cfi_offset 8, -8
 1578              		.cfi_offset 14, -4
 1579 0008 2DED048B 		vpush.64	{d8, d9}
 1580              		.cfi_def_cfa_offset 40
 1581              		.cfi_offset 80, -40
 1582              		.cfi_offset 81, -36
 1583              		.cfi_offset 82, -32
 1584              		.cfi_offset 83, -28
 1585              	.LBB335:
 1586              	.LBB330:
  53:../libs/PoliTeKDSP/libs/DaisySP/Source/Synthesis/oscillator.h ****         freq_      = 100.0f;
 1587              		.loc 3 53 27 view .LVU486
 1588 000c 87EE809A 		vdiv.f32	s18, s15, s0
  55:../libs/PoliTeKDSP/libs/DaisySP/Source/Synthesis/oscillator.h ****         pw_        = 0.5f;
 1589              		.loc 3 55 20 view .LVU487
 1590 0010 4FF07C55 		mov	r5, #1056964608
  54:../libs/PoliTeKDSP/libs/DaisySP/Source/Synthesis/oscillator.h ****         amp_       = 0.5f;
 1591              		.loc 3 54 20 view .LVU488
 1592 0014 DFED428A 		vldr.32	s17, .L28
  57:../libs/PoliTeKDSP/libs/DaisySP/Source/Synthesis/oscillator.h ****         phase_inc_ = CalcPhaseInc(freq_);
 1593              		.loc 3 57 20 view .LVU489
 1594 0018 4FF00008 		mov	r8, #0
  55:../libs/PoliTeKDSP/libs/DaisySP/Source/Synthesis/oscillator.h ****         pw_        = 0.5f;
 1595              		.loc 3 55 20 view .LVU490
 1596 001c 4560     		str	r5, [r0, #4]	@ float
 1597              	.LBE330:
 1598              	.LBE335:
   7:PSP/AudioEngine.cpp ****     // Inizializzazione moduli
 1599              		.loc 1 7 43 view .LVU491
 1600 001e 0446     		mov	r4, r0
 1601              	.LVL50:
 1602              	.LBB336:
 1603              	.LBI328:
  50:../libs/PoliTeKDSP/libs/DaisySP/Source/Synthesis/oscillator.h ****     {
 1604              		.loc 3 50 10 is_stmt 1 view .LVU492
 1605              	.LBB331:
  52:../libs/PoliTeKDSP/libs/DaisySP/Source/Synthesis/oscillator.h ****         sr_recip_  = 1.0f / sample_rate;
 1606              		.loc 3 52 9 view .LVU493
  54:../libs/PoliTeKDSP/libs/DaisySP/Source/Synthesis/oscillator.h ****         amp_       = 0.5f;
 1607              		.loc 3 54 20 is_stmt 0 view .LVU494
 1608 0020 C0ED028A 		vstr.32	s17, [r0, #8]
  59:../libs/PoliTeKDSP/libs/DaisySP/Source/Synthesis/oscillator.h ****         eoc_       = true;
 1609              		.loc 3 59 20 view .LVU495
 1610 0024 0026     		movs	r6, #0
  56:../libs/PoliTeKDSP/libs/DaisySP/Source/Synthesis/oscillator.h ****         phase_     = 0.0f;
 1611              		.loc 3 56 20 view .LVU496
 1612 0026 C560     		str	r5, [r0, #12]	@ float
ARM GAS  C:\Users\skipi\AppData\Local\Temp\ccnbanHd.s 			page 44


  61:../libs/PoliTeKDSP/libs/DaisySP/Source/Synthesis/oscillator.h ****     }
 1613              		.loc 3 61 20 view .LVU497
 1614 0028 40F20117 		movw	r7, #257
 1615              	.LBE331:
 1616              	.LBE336:
   7:PSP/AudioEngine.cpp ****     // Inizializzazione moduli
 1617              		.loc 1 7 43 view .LVU498
 1618 002c B0EE408A 		vmov.f32	s16, s0
 1619              	.LBB337:
 1620              	.LBB332:
  57:../libs/PoliTeKDSP/libs/DaisySP/Source/Synthesis/oscillator.h ****         phase_inc_ = CalcPhaseInc(freq_);
 1621              		.loc 3 57 20 view .LVU499
 1622 0030 C0F81880 		str	r8, [r0, #24]	@ float
  58:../libs/PoliTeKDSP/libs/DaisySP/Source/Synthesis/oscillator.h ****         waveform_  = WAVE_SIN;
 1623              		.loc 3 58 34 view .LVU500
 1624 0034 B0EE680A 		vmov.f32	s0, s17
 1625              	.LVL51:
  52:../libs/PoliTeKDSP/libs/DaisySP/Source/Synthesis/oscillator.h ****         sr_recip_  = 1.0f / sample_rate;
 1626              		.loc 3 52 20 view .LVU501
 1627 0038 80ED048A 		vstr.32	s16, [r0, #16]
  53:../libs/PoliTeKDSP/libs/DaisySP/Source/Synthesis/oscillator.h ****         freq_      = 100.0f;
 1628              		.loc 3 53 9 is_stmt 1 view .LVU502
  53:../libs/PoliTeKDSP/libs/DaisySP/Source/Synthesis/oscillator.h ****         freq_      = 100.0f;
 1629              		.loc 3 53 20 is_stmt 0 view .LVU503
 1630 003c 80ED059A 		vstr.32	s18, [r0, #20]
  54:../libs/PoliTeKDSP/libs/DaisySP/Source/Synthesis/oscillator.h ****         amp_       = 0.5f;
 1631              		.loc 3 54 9 is_stmt 1 view .LVU504
  55:../libs/PoliTeKDSP/libs/DaisySP/Source/Synthesis/oscillator.h ****         pw_        = 0.5f;
 1632              		.loc 3 55 9 view .LVU505
  56:../libs/PoliTeKDSP/libs/DaisySP/Source/Synthesis/oscillator.h ****         phase_     = 0.0f;
 1633              		.loc 3 56 9 view .LVU506
  57:../libs/PoliTeKDSP/libs/DaisySP/Source/Synthesis/oscillator.h ****         phase_inc_ = CalcPhaseInc(freq_);
 1634              		.loc 3 57 9 view .LVU507
  58:../libs/PoliTeKDSP/libs/DaisySP/Source/Synthesis/oscillator.h ****         waveform_  = WAVE_SIN;
 1635              		.loc 3 58 9 view .LVU508
  58:../libs/PoliTeKDSP/libs/DaisySP/Source/Synthesis/oscillator.h ****         waveform_  = WAVE_SIN;
 1636              		.loc 3 58 34 is_stmt 0 view .LVU509
 1637 0040 FFF7FEFF 		bl	_ZN7daisysp10Oscillator12CalcPhaseIncEf
 1638              	.LVL52:
  58:../libs/PoliTeKDSP/libs/DaisySP/Source/Synthesis/oscillator.h ****         waveform_  = WAVE_SIN;
 1639              		.loc 3 58 34 view .LVU510
 1640 0044 F0EE407A 		vmov.f32	s15, s0
 1641              	.LBE332:
 1642              	.LBE337:
 1643              	.LBB338:
 1644              	.LBB339:
 1645 0048 04F12C00 		add	r0, r4, #44
  52:../libs/PoliTeKDSP/libs/DaisySP/Source/Synthesis/oscillator.h ****         sr_recip_  = 1.0f / sample_rate;
 1646              		.loc 3 52 20 view .LVU511
 1647 004c 84ED0F8A 		vstr.32	s16, [r4, #60]
  53:../libs/PoliTeKDSP/libs/DaisySP/Source/Synthesis/oscillator.h ****         freq_      = 100.0f;
 1648              		.loc 3 53 20 view .LVU512
 1649 0050 84ED109A 		vstr.32	s18, [r4, #64]
  58:../libs/PoliTeKDSP/libs/DaisySP/Source/Synthesis/oscillator.h ****         waveform_  = WAVE_SIN;
 1650              		.loc 3 58 34 view .LVU513
 1651 0054 B0EE680A 		vmov.f32	s0, s17
 1652              	.LBE339:
ARM GAS  C:\Users\skipi\AppData\Local\Temp\ccnbanHd.s 			page 45


 1653              	.LBE338:
 1654              	.LBB344:
 1655              	.LBB333:
  58:../libs/PoliTeKDSP/libs/DaisySP/Source/Synthesis/oscillator.h ****         waveform_  = WAVE_SIN;
 1656              		.loc 3 58 20 view .LVU514
 1657 0058 C4ED077A 		vstr.32	s15, [r4, #28]
  59:../libs/PoliTeKDSP/libs/DaisySP/Source/Synthesis/oscillator.h ****         eoc_       = true;
 1658              		.loc 3 59 9 is_stmt 1 view .LVU515
  60:../libs/PoliTeKDSP/libs/DaisySP/Source/Synthesis/oscillator.h ****         eor_       = true;
 1659              		.loc 3 60 9 view .LVU516
  61:../libs/PoliTeKDSP/libs/DaisySP/Source/Synthesis/oscillator.h ****     }
 1660              		.loc 3 61 9 view .LVU517
 1661              	.LBE333:
 1662              	.LBE344:
 1663              	.LBB345:
 1664              	.LBB340:
  54:../libs/PoliTeKDSP/libs/DaisySP/Source/Synthesis/oscillator.h ****         amp_       = 0.5f;
 1665              		.loc 3 54 20 is_stmt 0 view .LVU518
 1666 005c C4ED0D8A 		vstr.32	s17, [r4, #52]
 1667              	.LBE340:
 1668              	.LBE345:
 1669              	.LBB346:
 1670              	.LBB334:
  59:../libs/PoliTeKDSP/libs/DaisySP/Source/Synthesis/oscillator.h ****         eoc_       = true;
 1671              		.loc 3 59 20 view .LVU519
 1672 0060 2670     		strb	r6, [r4]
  61:../libs/PoliTeKDSP/libs/DaisySP/Source/Synthesis/oscillator.h ****     }
 1673              		.loc 3 61 20 view .LVU520
 1674 0062 2785     		strh	r7, [r4, #40]	@ movhi
 1675              	.LVL53:
  61:../libs/PoliTeKDSP/libs/DaisySP/Source/Synthesis/oscillator.h ****     }
 1676              		.loc 3 61 20 view .LVU521
 1677              	.LBE334:
 1678              	.LBE346:
  10:PSP/AudioEngine.cpp ****     _lfo1.Init(sample_rate);
 1679              		.loc 1 10 5 is_stmt 1 view .LVU522
 1680              	.LBB347:
 1681              	.LBI338:
  50:../libs/PoliTeKDSP/libs/DaisySP/Source/Synthesis/oscillator.h ****     {
 1682              		.loc 3 50 10 view .LVU523
 1683              	.LBB341:
  52:../libs/PoliTeKDSP/libs/DaisySP/Source/Synthesis/oscillator.h ****         sr_recip_  = 1.0f / sample_rate;
 1684              		.loc 3 52 9 view .LVU524
  53:../libs/PoliTeKDSP/libs/DaisySP/Source/Synthesis/oscillator.h ****         freq_      = 100.0f;
 1685              		.loc 3 53 9 view .LVU525
  54:../libs/PoliTeKDSP/libs/DaisySP/Source/Synthesis/oscillator.h ****         amp_       = 0.5f;
 1686              		.loc 3 54 9 view .LVU526
  55:../libs/PoliTeKDSP/libs/DaisySP/Source/Synthesis/oscillator.h ****         pw_        = 0.5f;
 1687              		.loc 3 55 9 view .LVU527
  55:../libs/PoliTeKDSP/libs/DaisySP/Source/Synthesis/oscillator.h ****         pw_        = 0.5f;
 1688              		.loc 3 55 20 is_stmt 0 view .LVU528
 1689 0064 2563     		str	r5, [r4, #48]	@ float
  56:../libs/PoliTeKDSP/libs/DaisySP/Source/Synthesis/oscillator.h ****         phase_     = 0.0f;
 1690              		.loc 3 56 9 is_stmt 1 view .LVU529
  56:../libs/PoliTeKDSP/libs/DaisySP/Source/Synthesis/oscillator.h ****         phase_     = 0.0f;
 1691              		.loc 3 56 20 is_stmt 0 view .LVU530
 1692 0066 A563     		str	r5, [r4, #56]	@ float
ARM GAS  C:\Users\skipi\AppData\Local\Temp\ccnbanHd.s 			page 46


  57:../libs/PoliTeKDSP/libs/DaisySP/Source/Synthesis/oscillator.h ****         phase_inc_ = CalcPhaseInc(freq_);
 1693              		.loc 3 57 9 is_stmt 1 view .LVU531
  57:../libs/PoliTeKDSP/libs/DaisySP/Source/Synthesis/oscillator.h ****         phase_inc_ = CalcPhaseInc(freq_);
 1694              		.loc 3 57 20 is_stmt 0 view .LVU532
 1695 0068 C4F84480 		str	r8, [r4, #68]	@ float
  58:../libs/PoliTeKDSP/libs/DaisySP/Source/Synthesis/oscillator.h ****         waveform_  = WAVE_SIN;
 1696              		.loc 3 58 9 is_stmt 1 view .LVU533
  58:../libs/PoliTeKDSP/libs/DaisySP/Source/Synthesis/oscillator.h ****         waveform_  = WAVE_SIN;
 1697              		.loc 3 58 34 is_stmt 0 view .LVU534
 1698 006c FFF7FEFF 		bl	_ZN7daisysp10Oscillator12CalcPhaseIncEf
 1699              	.LVL54:
  58:../libs/PoliTeKDSP/libs/DaisySP/Source/Synthesis/oscillator.h ****         waveform_  = WAVE_SIN;
 1700              		.loc 3 58 34 view .LVU535
 1701              	.LBE341:
 1702              	.LBE347:
 1703              	.LBB348:
 1704              	.LBB349:
 1705 0070 04F15800 		add	r0, r4, #88
 1706              	.LBE349:
 1707              	.LBE348:
 1708              	.LBB354:
 1709              	.LBB342:
  58:../libs/PoliTeKDSP/libs/DaisySP/Source/Synthesis/oscillator.h ****         waveform_  = WAVE_SIN;
 1710              		.loc 3 58 20 view .LVU536
 1711 0074 84ED120A 		vstr.32	s0, [r4, #72]
  59:../libs/PoliTeKDSP/libs/DaisySP/Source/Synthesis/oscillator.h ****         eoc_       = true;
 1712              		.loc 3 59 9 is_stmt 1 view .LVU537
 1713              	.LBE342:
 1714              	.LBE354:
 1715              	.LBB355:
 1716              	.LBB350:
  58:../libs/PoliTeKDSP/libs/DaisySP/Source/Synthesis/oscillator.h ****         waveform_  = WAVE_SIN;
 1717              		.loc 3 58 34 is_stmt 0 view .LVU538
 1718 0078 B0EE680A 		vmov.f32	s0, s17
  52:../libs/PoliTeKDSP/libs/DaisySP/Source/Synthesis/oscillator.h ****         sr_recip_  = 1.0f / sample_rate;
 1719              		.loc 3 52 20 view .LVU539
 1720 007c 84ED1A8A 		vstr.32	s16, [r4, #104]
  53:../libs/PoliTeKDSP/libs/DaisySP/Source/Synthesis/oscillator.h ****         freq_      = 100.0f;
 1721              		.loc 3 53 20 view .LVU540
 1722 0080 84ED1B9A 		vstr.32	s18, [r4, #108]
  54:../libs/PoliTeKDSP/libs/DaisySP/Source/Synthesis/oscillator.h ****         amp_       = 0.5f;
 1723              		.loc 3 54 20 view .LVU541
 1724 0084 C4ED188A 		vstr.32	s17, [r4, #96]
 1725              	.LBE350:
 1726              	.LBE355:
 1727              	.LBB356:
 1728              	.LBB343:
  59:../libs/PoliTeKDSP/libs/DaisySP/Source/Synthesis/oscillator.h ****         eoc_       = true;
 1729              		.loc 3 59 20 view .LVU542
 1730 0088 84F82C60 		strb	r6, [r4, #44]
  60:../libs/PoliTeKDSP/libs/DaisySP/Source/Synthesis/oscillator.h ****         eor_       = true;
 1731              		.loc 3 60 9 is_stmt 1 view .LVU543
  61:../libs/PoliTeKDSP/libs/DaisySP/Source/Synthesis/oscillator.h ****     }
 1732              		.loc 3 61 9 view .LVU544
  61:../libs/PoliTeKDSP/libs/DaisySP/Source/Synthesis/oscillator.h ****     }
 1733              		.loc 3 61 20 is_stmt 0 view .LVU545
 1734 008c A4F85470 		strh	r7, [r4, #84]	@ movhi
ARM GAS  C:\Users\skipi\AppData\Local\Temp\ccnbanHd.s 			page 47


 1735              	.LVL55:
  61:../libs/PoliTeKDSP/libs/DaisySP/Source/Synthesis/oscillator.h ****     }
 1736              		.loc 3 61 20 view .LVU546
 1737              	.LBE343:
 1738              	.LBE356:
  11:PSP/AudioEngine.cpp ****     _lfo2.Init(sample_rate);
 1739              		.loc 1 11 5 is_stmt 1 view .LVU547
 1740              	.LBB357:
 1741              	.LBI348:
  50:../libs/PoliTeKDSP/libs/DaisySP/Source/Synthesis/oscillator.h ****     {
 1742              		.loc 3 50 10 view .LVU548
 1743              	.LBB351:
  52:../libs/PoliTeKDSP/libs/DaisySP/Source/Synthesis/oscillator.h ****         sr_recip_  = 1.0f / sample_rate;
 1744              		.loc 3 52 9 view .LVU549
  53:../libs/PoliTeKDSP/libs/DaisySP/Source/Synthesis/oscillator.h ****         freq_      = 100.0f;
 1745              		.loc 3 53 9 view .LVU550
  54:../libs/PoliTeKDSP/libs/DaisySP/Source/Synthesis/oscillator.h ****         amp_       = 0.5f;
 1746              		.loc 3 54 9 view .LVU551
  55:../libs/PoliTeKDSP/libs/DaisySP/Source/Synthesis/oscillator.h ****         pw_        = 0.5f;
 1747              		.loc 3 55 9 view .LVU552
  55:../libs/PoliTeKDSP/libs/DaisySP/Source/Synthesis/oscillator.h ****         pw_        = 0.5f;
 1748              		.loc 3 55 20 is_stmt 0 view .LVU553
 1749 0090 E565     		str	r5, [r4, #92]	@ float
  56:../libs/PoliTeKDSP/libs/DaisySP/Source/Synthesis/oscillator.h ****         phase_     = 0.0f;
 1750              		.loc 3 56 9 is_stmt 1 view .LVU554
  56:../libs/PoliTeKDSP/libs/DaisySP/Source/Synthesis/oscillator.h ****         phase_     = 0.0f;
 1751              		.loc 3 56 20 is_stmt 0 view .LVU555
 1752 0092 6566     		str	r5, [r4, #100]	@ float
  57:../libs/PoliTeKDSP/libs/DaisySP/Source/Synthesis/oscillator.h ****         phase_inc_ = CalcPhaseInc(freq_);
 1753              		.loc 3 57 9 is_stmt 1 view .LVU556
  57:../libs/PoliTeKDSP/libs/DaisySP/Source/Synthesis/oscillator.h ****         phase_inc_ = CalcPhaseInc(freq_);
 1754              		.loc 3 57 20 is_stmt 0 view .LVU557
 1755 0094 C4F87080 		str	r8, [r4, #112]	@ float
  58:../libs/PoliTeKDSP/libs/DaisySP/Source/Synthesis/oscillator.h ****         waveform_  = WAVE_SIN;
 1756              		.loc 3 58 9 is_stmt 1 view .LVU558
  58:../libs/PoliTeKDSP/libs/DaisySP/Source/Synthesis/oscillator.h ****         waveform_  = WAVE_SIN;
 1757              		.loc 3 58 34 is_stmt 0 view .LVU559
 1758 0098 FFF7FEFF 		bl	_ZN7daisysp10Oscillator12CalcPhaseIncEf
 1759              	.LVL56:
  58:../libs/PoliTeKDSP/libs/DaisySP/Source/Synthesis/oscillator.h ****         waveform_  = WAVE_SIN;
 1760              		.loc 3 58 34 view .LVU560
 1761              	.LBE351:
 1762              	.LBE357:
 1763              	.LBB358:
 1764              	.LBB359:
 1765 009c 04F18400 		add	r0, r4, #132
 1766              	.LBE359:
 1767              	.LBE358:
 1768              	.LBB363:
 1769              	.LBB352:
  58:../libs/PoliTeKDSP/libs/DaisySP/Source/Synthesis/oscillator.h ****         waveform_  = WAVE_SIN;
 1770              		.loc 3 58 20 view .LVU561
 1771 00a0 84ED1D0A 		vstr.32	s0, [r4, #116]
  59:../libs/PoliTeKDSP/libs/DaisySP/Source/Synthesis/oscillator.h ****         eoc_       = true;
 1772              		.loc 3 59 9 is_stmt 1 view .LVU562
 1773              	.LBE352:
 1774              	.LBE363:
ARM GAS  C:\Users\skipi\AppData\Local\Temp\ccnbanHd.s 			page 48


 1775              	.LBB364:
 1776              	.LBB360:
  58:../libs/PoliTeKDSP/libs/DaisySP/Source/Synthesis/oscillator.h ****         waveform_  = WAVE_SIN;
 1777              		.loc 3 58 34 is_stmt 0 view .LVU563
 1778 00a4 B0EE680A 		vmov.f32	s0, s17
  52:../libs/PoliTeKDSP/libs/DaisySP/Source/Synthesis/oscillator.h ****         sr_recip_  = 1.0f / sample_rate;
 1779              		.loc 3 52 20 view .LVU564
 1780 00a8 84ED258A 		vstr.32	s16, [r4, #148]
  53:../libs/PoliTeKDSP/libs/DaisySP/Source/Synthesis/oscillator.h ****         freq_      = 100.0f;
 1781              		.loc 3 53 20 view .LVU565
 1782 00ac 84ED269A 		vstr.32	s18, [r4, #152]
  54:../libs/PoliTeKDSP/libs/DaisySP/Source/Synthesis/oscillator.h ****         amp_       = 0.5f;
 1783              		.loc 3 54 20 view .LVU566
 1784 00b0 C4ED238A 		vstr.32	s17, [r4, #140]
  57:../libs/PoliTeKDSP/libs/DaisySP/Source/Synthesis/oscillator.h ****         phase_inc_ = CalcPhaseInc(freq_);
 1785              		.loc 3 57 20 view .LVU567
 1786 00b4 C4F89C80 		str	r8, [r4, #156]	@ float
 1787              	.LBE360:
 1788              	.LBE364:
 1789              	.LBB365:
 1790              	.LBB353:
  59:../libs/PoliTeKDSP/libs/DaisySP/Source/Synthesis/oscillator.h ****         eoc_       = true;
 1791              		.loc 3 59 20 view .LVU568
 1792 00b8 84F85860 		strb	r6, [r4, #88]
  60:../libs/PoliTeKDSP/libs/DaisySP/Source/Synthesis/oscillator.h ****         eor_       = true;
 1793              		.loc 3 60 9 is_stmt 1 view .LVU569
  61:../libs/PoliTeKDSP/libs/DaisySP/Source/Synthesis/oscillator.h ****     }
 1794              		.loc 3 61 9 view .LVU570
  61:../libs/PoliTeKDSP/libs/DaisySP/Source/Synthesis/oscillator.h ****     }
 1795              		.loc 3 61 20 is_stmt 0 view .LVU571
 1796 00bc A4F88070 		strh	r7, [r4, #128]	@ movhi
 1797              	.LVL57:
  61:../libs/PoliTeKDSP/libs/DaisySP/Source/Synthesis/oscillator.h ****     }
 1798              		.loc 3 61 20 view .LVU572
 1799              	.LBE353:
 1800              	.LBE365:
  12:PSP/AudioEngine.cpp ****     _Amp_env.Init(sample_rate);
 1801              		.loc 1 12 5 is_stmt 1 view .LVU573
 1802              	.LBB366:
 1803              	.LBI358:
  50:../libs/PoliTeKDSP/libs/DaisySP/Source/Synthesis/oscillator.h ****     {
 1804              		.loc 3 50 10 view .LVU574
 1805              	.LBB361:
  52:../libs/PoliTeKDSP/libs/DaisySP/Source/Synthesis/oscillator.h ****         sr_recip_  = 1.0f / sample_rate;
 1806              		.loc 3 52 9 view .LVU575
  53:../libs/PoliTeKDSP/libs/DaisySP/Source/Synthesis/oscillator.h ****         freq_      = 100.0f;
 1807              		.loc 3 53 9 view .LVU576
  54:../libs/PoliTeKDSP/libs/DaisySP/Source/Synthesis/oscillator.h ****         amp_       = 0.5f;
 1808              		.loc 3 54 9 view .LVU577
  55:../libs/PoliTeKDSP/libs/DaisySP/Source/Synthesis/oscillator.h ****         pw_        = 0.5f;
 1809              		.loc 3 55 9 view .LVU578
  55:../libs/PoliTeKDSP/libs/DaisySP/Source/Synthesis/oscillator.h ****         pw_        = 0.5f;
 1810              		.loc 3 55 20 is_stmt 0 view .LVU579
 1811 00c0 C4F88850 		str	r5, [r4, #136]	@ float
  56:../libs/PoliTeKDSP/libs/DaisySP/Source/Synthesis/oscillator.h ****         phase_     = 0.0f;
 1812              		.loc 3 56 9 is_stmt 1 view .LVU580
  56:../libs/PoliTeKDSP/libs/DaisySP/Source/Synthesis/oscillator.h ****         phase_     = 0.0f;
ARM GAS  C:\Users\skipi\AppData\Local\Temp\ccnbanHd.s 			page 49


 1813              		.loc 3 56 20 is_stmt 0 view .LVU581
 1814 00c4 C4F89050 		str	r5, [r4, #144]	@ float
  57:../libs/PoliTeKDSP/libs/DaisySP/Source/Synthesis/oscillator.h ****         phase_inc_ = CalcPhaseInc(freq_);
 1815              		.loc 3 57 9 is_stmt 1 view .LVU582
  58:../libs/PoliTeKDSP/libs/DaisySP/Source/Synthesis/oscillator.h ****         waveform_  = WAVE_SIN;
 1816              		.loc 3 58 9 view .LVU583
  58:../libs/PoliTeKDSP/libs/DaisySP/Source/Synthesis/oscillator.h ****         waveform_  = WAVE_SIN;
 1817              		.loc 3 58 34 is_stmt 0 view .LVU584
 1818 00c8 FFF7FEFF 		bl	_ZN7daisysp10Oscillator12CalcPhaseIncEf
 1819              	.LVL58:
  58:../libs/PoliTeKDSP/libs/DaisySP/Source/Synthesis/oscillator.h ****         waveform_  = WAVE_SIN;
 1820              		.loc 3 58 34 view .LVU585
 1821 00cc F0EE407A 		vmov.f32	s15, s0
 1822              	.LBE361:
 1823              	.LBE366:
  13:PSP/AudioEngine.cpp ****     _Filt_env.Init(sample_rate);
 1824              		.loc 1 13 18 view .LVU586
 1825 00d0 04F1B000 		add	r0, r4, #176
 1826 00d4 B0EE480A 		vmov.f32	s0, s16
 1827 00d8 0121     		movs	r1, #1
 1828              	.LBB367:
 1829              	.LBB362:
  59:../libs/PoliTeKDSP/libs/DaisySP/Source/Synthesis/oscillator.h ****         eoc_       = true;
 1830              		.loc 3 59 20 view .LVU587
 1831 00da 84F88460 		strb	r6, [r4, #132]
  58:../libs/PoliTeKDSP/libs/DaisySP/Source/Synthesis/oscillator.h ****         waveform_  = WAVE_SIN;
 1832              		.loc 3 58 20 view .LVU588
 1833 00de C4ED287A 		vstr.32	s15, [r4, #160]
  59:../libs/PoliTeKDSP/libs/DaisySP/Source/Synthesis/oscillator.h ****         eoc_       = true;
 1834              		.loc 3 59 9 is_stmt 1 view .LVU589
  60:../libs/PoliTeKDSP/libs/DaisySP/Source/Synthesis/oscillator.h ****         eor_       = true;
 1835              		.loc 3 60 9 view .LVU590
  61:../libs/PoliTeKDSP/libs/DaisySP/Source/Synthesis/oscillator.h ****     }
 1836              		.loc 3 61 9 view .LVU591
  61:../libs/PoliTeKDSP/libs/DaisySP/Source/Synthesis/oscillator.h ****     }
 1837              		.loc 3 61 20 is_stmt 0 view .LVU592
 1838 00e2 A4F8AC70 		strh	r7, [r4, #172]	@ movhi
 1839              	.LVL59:
  61:../libs/PoliTeKDSP/libs/DaisySP/Source/Synthesis/oscillator.h ****     }
 1840              		.loc 3 61 20 view .LVU593
 1841              	.LBE362:
 1842              	.LBE367:
  13:PSP/AudioEngine.cpp ****     _Filt_env.Init(sample_rate);
 1843              		.loc 1 13 5 is_stmt 1 view .LVU594
  13:PSP/AudioEngine.cpp ****     _Filt_env.Init(sample_rate);
 1844              		.loc 1 13 18 is_stmt 0 view .LVU595
 1845 00e6 FFF7FEFF 		bl	_ZN7daisysp4Adsr4InitEfi
 1846              	.LVL60:
  14:PSP/AudioEngine.cpp ****     _Filt.Init(sample_rate);
 1847              		.loc 1 14 5 is_stmt 1 view .LVU596
  14:PSP/AudioEngine.cpp ****     _Filt.Init(sample_rate);
 1848              		.loc 1 14 19 is_stmt 0 view .LVU597
 1849 00ea B0EE480A 		vmov.f32	s0, s16
 1850 00ee 0121     		movs	r1, #1
 1851 00f0 04F1E000 		add	r0, r4, #224
 1852 00f4 FFF7FEFF 		bl	_ZN7daisysp4Adsr4InitEfi
 1853              	.LVL61:
ARM GAS  C:\Users\skipi\AppData\Local\Temp\ccnbanHd.s 			page 50


  15:PSP/AudioEngine.cpp **** 
 1854              		.loc 1 15 5 is_stmt 1 view .LVU598
  15:PSP/AudioEngine.cpp **** 
 1855              		.loc 1 15 15 is_stmt 0 view .LVU599
 1856 00f8 04F58870 		add	r0, r4, #272
 1857 00fc B0EE480A 		vmov.f32	s0, s16
 1858 0100 FFF7FEFF 		bl	_ZN7daisysp12LadderFilter4InitEf
 1859              	.LVL62:
  17:PSP/AudioEngine.cpp ****     _currentFreq = 440.0f;
 1860              		.loc 1 17 5 is_stmt 1 view .LVU600
  18:PSP/AudioEngine.cpp ****     
 1861              		.loc 1 18 18 is_stmt 0 view .LVU601
 1862 0104 074B     		ldr	r3, .L28+4
  21:PSP/AudioEngine.cpp **** }
 1863              		.loc 1 21 14 view .LVU602
 1864 0106 2046     		mov	r0, r4
  17:PSP/AudioEngine.cpp ****     _currentFreq = 440.0f;
 1865              		.loc 1 17 15 view .LVU603
 1866 0108 84F8DD61 		strb	r6, [r4, #477]
  18:PSP/AudioEngine.cpp ****     
 1867              		.loc 1 18 5 is_stmt 1 view .LVU604
  18:PSP/AudioEngine.cpp ****     
 1868              		.loc 1 18 18 is_stmt 0 view .LVU605
 1869 010c C4F8E031 		str	r3, [r4, #480]	@ float
  21:PSP/AudioEngine.cpp **** }
 1870              		.loc 1 21 5 is_stmt 1 view .LVU606
  21:PSP/AudioEngine.cpp **** }
 1871              		.loc 1 21 14 is_stmt 0 view .LVU607
 1872 0110 0221     		movs	r1, #2
  22:PSP/AudioEngine.cpp **** 
 1873              		.loc 1 22 1 view .LVU608
 1874 0112 BDEC048B 		vldm	sp!, {d8-d9}
 1875              		.cfi_restore 82
 1876              		.cfi_restore 83
 1877              		.cfi_restore 80
 1878              		.cfi_restore 81
 1879              		.cfi_def_cfa_offset 24
 1880              	.LVL63:
  22:PSP/AudioEngine.cpp **** 
 1881              		.loc 1 22 1 view .LVU609
 1882 0116 BDE8F041 		pop	{r4, r5, r6, r7, r8, lr}
 1883              		.cfi_restore 14
 1884              		.cfi_restore 8
 1885              		.cfi_restore 7
 1886              		.cfi_restore 6
 1887              		.cfi_restore 5
 1888              		.cfi_restore 4
 1889              		.cfi_def_cfa_offset 0
 1890              	.LVL64:
  21:PSP/AudioEngine.cpp **** }
 1891              		.loc 1 21 14 view .LVU610
 1892 011a FFF7FEBF 		b	_ZN11AudioEngine9SetPresetE11SynthPreset
 1893              	.LVL65:
 1894              	.L29:
  21:PSP/AudioEngine.cpp **** }
 1895              		.loc 1 21 14 view .LVU611
 1896 011e 00BF     		.align	2
ARM GAS  C:\Users\skipi\AppData\Local\Temp\ccnbanHd.s 			page 51


 1897              	.L28:
 1898 0120 0000C842 		.word	1120403456
 1899 0124 0000DC43 		.word	1138491392
 1900              		.cfi_endproc
 1901              	.LFE3581:
 1903              		.section	.text._ZN11AudioEngine6UpdateE14ControlsStruct,"ax",%progbits
 1904              		.align	1
 1905              		.p2align 2,,3
 1906              		.global	_ZN11AudioEngine6UpdateE14ControlsStruct
 1907              		.syntax unified
 1908              		.thumb
 1909              		.thumb_func
 1910              		.fpu fpv5-d16
 1912              	_ZN11AudioEngine6UpdateE14ControlsStruct:
 1913              	.LVL66:
 1914              	.LFB3583:
 159:PSP/AudioEngine.cpp **** 
 160:PSP/AudioEngine.cpp **** void AudioEngine::Update(ControlsStruct Controls) {
 1915              		.loc 1 160 51 is_stmt 1 view -0
 1916              		.cfi_startproc
 1917              		@ args = 0, pretend = 0, frame = 8
 1918              		@ frame_needed = 0, uses_anonymous_args = 0
 1919              		.loc 1 160 51 is_stmt 0 view .LVU613
 1920 0000 70B5     		push	{r4, r5, r6, lr}
 1921              		.cfi_def_cfa_offset 16
 1922              		.cfi_offset 4, -16
 1923              		.cfi_offset 5, -12
 1924              		.cfi_offset 6, -8
 1925              		.cfi_offset 14, -4
 1926 0002 82B0     		sub	sp, sp, #8
 1927              		.cfi_def_cfa_offset 24
 1928              		.loc 1 160 51 view .LVU614
 1929 0004 0446     		mov	r4, r0
 1930 0006 02AB     		add	r3, sp, #8
 1931 0008 03E90600 		stmdb	r3, {r1, r2}
 1932 000c DDED007A 		vldr.32	s15, [sp]
 1933              	.LVL67:
 1934              		.loc 1 160 51 view .LVU615
 1935 0010 9DF80450 		ldrb	r5, [sp, #4]	@ zero_extendqisi2
 1936              	.LVL68:
 161:PSP/AudioEngine.cpp **** 
 162:PSP/AudioEngine.cpp ****     //Lead
 163:PSP/AudioEngine.cpp ****     _osc1Param.Freq = Controls.freq;
 1937              		.loc 1 163 5 is_stmt 1 view .LVU616
 164:PSP/AudioEngine.cpp ****     _osc2Param.Freq = Controls.freq *2.0f;
 1938              		.loc 1 164 37 is_stmt 0 view .LVU617
 1939 0014 37EEA77A 		vadd.f32	s14, s15, s15
 163:PSP/AudioEngine.cpp ****     _osc2Param.Freq = Controls.freq *2.0f;
 1940              		.loc 1 163 21 view .LVU618
 1941 0018 C0ED5E7A 		vstr.32	s15, [r0, #376]
 1942              		.loc 1 164 5 is_stmt 1 view .LVU619
 1943              		.loc 1 164 21 is_stmt 0 view .LVU620
 1944 001c 80ED627A 		vstr.32	s14, [r0, #392]
 165:PSP/AudioEngine.cpp **** 
 166:PSP/AudioEngine.cpp ****     if (Controls.gate && !_lastGate) {
 1945              		.loc 1 166 5 is_stmt 1 view .LVU621
 1946 0020 15B1     		cbz	r5, .L31
ARM GAS  C:\Users\skipi\AppData\Local\Temp\ccnbanHd.s 			page 52


 1947              		.loc 1 166 23 is_stmt 0 discriminator 1 view .LVU622
 1948 0022 90F8DD61 		ldrb	r6, [r0, #477]	@ zero_extendqisi2
 1949 0026 1EB1     		cbz	r6, .L36
 1950              	.L31:
 167:PSP/AudioEngine.cpp ****         _Amp_env.Retrigger(false);
 168:PSP/AudioEngine.cpp ****         _Filt_env.Retrigger(false);
 169:PSP/AudioEngine.cpp ****     }
 170:PSP/AudioEngine.cpp ****     _lastGate = Controls.gate;
 1951              		.loc 1 170 5 is_stmt 1 view .LVU623
 1952              		.loc 1 170 15 is_stmt 0 view .LVU624
 1953 0028 84F8DD51 		strb	r5, [r4, #477]
 171:PSP/AudioEngine.cpp **** }
 1954              		.loc 1 171 1 view .LVU625
 1955 002c 02B0     		add	sp, sp, #8
 1956              		.cfi_remember_state
 1957              		.cfi_def_cfa_offset 16
 1958              		@ sp needed
 1959 002e 70BD     		pop	{r4, r5, r6, pc}
 1960              	.LVL69:
 1961              	.L36:
 1962              		.cfi_restore_state
 167:PSP/AudioEngine.cpp ****         _Amp_env.Retrigger(false);
 1963              		.loc 1 167 9 is_stmt 1 view .LVU626
 167:PSP/AudioEngine.cpp ****         _Amp_env.Retrigger(false);
 1964              		.loc 1 167 27 is_stmt 0 view .LVU627
 1965 0030 3146     		mov	r1, r6
 1966 0032 B030     		adds	r0, r0, #176
 1967              	.LVL70:
 167:PSP/AudioEngine.cpp ****         _Amp_env.Retrigger(false);
 1968              		.loc 1 167 27 view .LVU628
 1969 0034 FFF7FEFF 		bl	_ZN7daisysp4Adsr9RetriggerEb
 1970              	.LVL71:
 168:PSP/AudioEngine.cpp ****     }
 1971              		.loc 1 168 9 is_stmt 1 view .LVU629
 168:PSP/AudioEngine.cpp ****     }
 1972              		.loc 1 168 28 is_stmt 0 view .LVU630
 1973 0038 3146     		mov	r1, r6
 1974 003a 04F1E000 		add	r0, r4, #224
 1975 003e FFF7FEFF 		bl	_ZN7daisysp4Adsr9RetriggerEb
 1976              	.LVL72:
 170:PSP/AudioEngine.cpp **** }
 1977              		.loc 1 170 5 is_stmt 1 view .LVU631
 170:PSP/AudioEngine.cpp **** }
 1978              		.loc 1 170 15 is_stmt 0 view .LVU632
 1979 0042 84F8DD51 		strb	r5, [r4, #477]
 1980              		.loc 1 171 1 view .LVU633
 1981 0046 02B0     		add	sp, sp, #8
 1982              		.cfi_def_cfa_offset 16
 1983              	.LVL73:
 1984              		.loc 1 171 1 view .LVU634
 1985              		@ sp needed
 1986 0048 70BD     		pop	{r4, r5, r6, pc}
 1987              		.loc 1 171 1 view .LVU635
 1988              		.cfi_endproc
 1989              	.LFE3583:
 1991 004a 00BF     		.section	.text._ZN11AudioEngine7ProcessEv,"ax",%progbits
 1992              		.align	1
ARM GAS  C:\Users\skipi\AppData\Local\Temp\ccnbanHd.s 			page 53


 1993              		.p2align 2,,3
 1994              		.global	_ZN11AudioEngine7ProcessEv
 1995              		.syntax unified
 1996              		.thumb
 1997              		.thumb_func
 1998              		.fpu fpv5-d16
 2000              	_ZN11AudioEngine7ProcessEv:
 2001              	.LVL74:
 2002              	.LFB3584:
 172:PSP/AudioEngine.cpp **** 
 173:PSP/AudioEngine.cpp **** float AudioEngine::Process() {
 2003              		.loc 1 173 30 is_stmt 1 view -0
 2004              		.cfi_startproc
 2005              		@ args = 0, pretend = 0, frame = 0
 2006              		@ frame_needed = 0, uses_anonymous_args = 0
 174:PSP/AudioEngine.cpp ****     float Amp_env_out;
 2007              		.loc 1 174 5 view .LVU637
 175:PSP/AudioEngine.cpp ****     float Fenv_out;
 2008              		.loc 1 175 5 view .LVU638
 176:PSP/AudioEngine.cpp ****     float sig;
 2009              		.loc 1 176 5 view .LVU639
 177:PSP/AudioEngine.cpp ****     float filtered_sig;
 2010              		.loc 1 177 5 view .LVU640
 178:PSP/AudioEngine.cpp **** 
 179:PSP/AudioEngine.cpp ****     switch (_currentPreset)
 2011              		.loc 1 179 5 view .LVU641
 2012              		.loc 1 179 13 is_stmt 0 view .LVU642
 2013 0000 90F8DC31 		ldrb	r3, [r0, #476]	@ zero_extendqisi2
 2014              		.loc 1 179 5 view .LVU643
 2015 0004 012B     		cmp	r3, #1
 173:PSP/AudioEngine.cpp ****     float Amp_env_out;
 2016              		.loc 1 173 30 view .LVU644
 2017 0006 70B5     		push	{r4, r5, r6, lr}
 2018              		.cfi_def_cfa_offset 16
 2019              		.cfi_offset 4, -16
 2020              		.cfi_offset 5, -12
 2021              		.cfi_offset 6, -8
 2022              		.cfi_offset 14, -4
 2023 0008 0446     		mov	r4, r0
 2024 000a 2DED028B 		vpush.64	{d8}
 2025              		.cfi_def_cfa_offset 24
 2026              		.cfi_offset 80, -24
 2027              		.cfi_offset 81, -20
 2028              		.loc 1 179 5 view .LVU645
 2029 000e 1DD0     		beq	.L39
 2030 0010 022B     		cmp	r3, #2
 2031 0012 1BD0     		beq	.L39
 2032 0014 D3B1     		cbz	r3, .L39
 180:PSP/AudioEngine.cpp ****     {
 181:PSP/AudioEngine.cpp ****     case PRESET_PAD://TODO
 182:PSP/AudioEngine.cpp ****         _osc1.SetFreq(_osc1Param.Freq * (1 +  _lfo1.Process()));
 183:PSP/AudioEngine.cpp ****         _osc2.SetFreq(_osc2Param.Freq * (1 +  _lfo2.Process()));
 2033              		.loc 1 183 22 view .LVU646
 2034 0016 00F12C06 		add	r6, r0, #44
 184:PSP/AudioEngine.cpp ****         Amp_env_out = _Amp_env.Process(_lastGate);
 185:PSP/AudioEngine.cpp ****         Fenv_out = _Filt_env.Process(_lastGate);
 186:PSP/AudioEngine.cpp ****         _Filt.SetFreq(lead_cutoff_freq * Fenv_out * _Filt_envParam.Amp);
ARM GAS  C:\Users\skipi\AppData\Local\Temp\ccnbanHd.s 			page 54


 2035              		.loc 1 186 22 view .LVU647
 2036 001a 00F58875 		add	r5, r0, #272
 2037              	.LVL75:
 2038              	.L41:
 187:PSP/AudioEngine.cpp ****         break;
 188:PSP/AudioEngine.cpp ****     case PRESET_PLUCK://TODO
 189:PSP/AudioEngine.cpp ****         _osc1.SetFreq(_osc1Param.Freq * (1 +  _lfo1.Process()));
 190:PSP/AudioEngine.cpp ****         _osc2.SetFreq(_osc2Param.Freq * (1 +  _lfo2.Process()));
 191:PSP/AudioEngine.cpp ****         Amp_env_out = _Amp_env.Process(_lastGate);
 192:PSP/AudioEngine.cpp ****         Fenv_out = _Filt_env.Process(_lastGate);
 193:PSP/AudioEngine.cpp ****         _Filt.SetFreq(lead_cutoff_freq * Fenv_out * _Filt_envParam.Amp);
 194:PSP/AudioEngine.cpp ****         break;
 195:PSP/AudioEngine.cpp ****     case PRESET_LEAD:
 196:PSP/AudioEngine.cpp ****         _osc1.SetFreq(_osc1Param.Freq * (1 +  _lfo1.Process()));
 197:PSP/AudioEngine.cpp ****         _osc2.SetFreq(_osc2Param.Freq * (1 +  _lfo2.Process()));
 198:PSP/AudioEngine.cpp ****         Amp_env_out = _Amp_env.Process(_lastGate);
 199:PSP/AudioEngine.cpp ****         Fenv_out = _Filt_env.Process(_lastGate);
 200:PSP/AudioEngine.cpp ****         _Filt.SetFreq(lead_cutoff_freq * Fenv_out * _Filt_envParam.Amp);
 201:PSP/AudioEngine.cpp ****         break;
 202:PSP/AudioEngine.cpp ****     
 203:PSP/AudioEngine.cpp ****     default:
 204:PSP/AudioEngine.cpp ****         break;
 205:PSP/AudioEngine.cpp ****     }
 206:PSP/AudioEngine.cpp **** 
 207:PSP/AudioEngine.cpp ****     sig = (_osc1.Process() + _osc2.Process())/2.0f;
 2039              		.loc 1 207 5 is_stmt 1 view .LVU648
 2040              		.loc 1 207 25 is_stmt 0 view .LVU649
 2041 001e 2046     		mov	r0, r4
 2042 0020 FFF7FEFF 		bl	_ZN7daisysp10Oscillator7ProcessEv
 2043              	.LVL76:
 2044 0024 B0EE408A 		vmov.f32	s16, s0
 2045              		.loc 1 207 43 view .LVU650
 2046 0028 3046     		mov	r0, r6
 2047 002a FFF7FEFF 		bl	_ZN7daisysp10Oscillator7ProcessEv
 2048              	.LVL77:
 2049              		.loc 1 207 9 view .LVU651
 2050 002e F6EE007A 		vmov.f32	s15, #5.0e-1
 2051              		.loc 1 207 28 view .LVU652
 2052 0032 38EE008A 		vadd.f32	s16, s16, s0
 208:PSP/AudioEngine.cpp ****     sig *= Amp_env_out;
 209:PSP/AudioEngine.cpp ****     filtered_sig = _Filt.Process(sig);
 2053              		.loc 1 209 33 view .LVU653
 2054 0036 2846     		mov	r0, r5
 207:PSP/AudioEngine.cpp ****     sig *= Amp_env_out;
 2055              		.loc 1 207 9 view .LVU654
 2056 0038 28EE278A 		vmul.f32	s16, s16, s15
 2057              	.LVL78:
 208:PSP/AudioEngine.cpp ****     sig *= Amp_env_out;
 2058              		.loc 1 208 5 is_stmt 1 view .LVU655
 2059              		.loc 1 209 5 view .LVU656
 2060              		.loc 1 209 33 is_stmt 0 view .LVU657
 2061 003c 28EE880A 		vmul.f32	s0, s17, s16
 2062              	.LVL79:
 210:PSP/AudioEngine.cpp ****     return  filtered_sig;
 211:PSP/AudioEngine.cpp **** }...
 2063              		.loc 1 211 1 view .LVU658
 2064 0040 BDEC028B 		vldm	sp!, {d8}
ARM GAS  C:\Users\skipi\AppData\Local\Temp\ccnbanHd.s 			page 55


 2065              		.cfi_remember_state
 2066              		.cfi_restore 80
 2067              		.cfi_restore 81
 2068              		.cfi_def_cfa_offset 16
 2069 0044 BDE87040 		pop	{r4, r5, r6, lr}
 2070              		.cfi_restore 14
 2071              		.cfi_restore 6
 2072              		.cfi_restore 5
 2073              		.cfi_restore 4
 2074              		.cfi_def_cfa_offset 0
 2075              	.LVL80:
 209:PSP/AudioEngine.cpp ****     filtered_sig = _Filt.Process(sig);
 2076              		.loc 1 209 33 view .LVU659
 2077 0048 FFF7FEBF 		b	_ZN7daisysp12LadderFilter7ProcessEf
 2078              	.LVL81:
 2079              	.L39:
 2080              		.cfi_restore_state
 195:PSP/AudioEngine.cpp ****     case PRESET_LEAD:
 2081              		.loc 1 195 5 is_stmt 1 view .LVU660
 196:PSP/AudioEngine.cpp ****         _osc1.SetFreq(_osc1Param.Freq * (1 +  _lfo1.Process()));
 2082              		.loc 1 196 9 view .LVU661
 196:PSP/AudioEngine.cpp ****         _osc1.SetFreq(_osc1Param.Freq * (1 +  _lfo1.Process()));
 2083              		.loc 1 196 44 is_stmt 0 view .LVU662
 2084 004c B7EE008A 		vmov.f32	s16, #1.0e+0
 196:PSP/AudioEngine.cpp ****         _osc1.SetFreq(_osc1Param.Freq * (1 +  _lfo1.Process()));
 2085              		.loc 1 196 60 view .LVU663
 2086 0050 04F15800 		add	r0, r4, #88
 2087              	.LVL82:
 196:PSP/AudioEngine.cpp ****         _osc1.SetFreq(_osc1Param.Freq * (1 +  _lfo1.Process()));
 2088              		.loc 1 196 34 view .LVU664
 2089 0054 D4ED5E8A 		vldr.32	s17, [r4, #376]
 196:PSP/AudioEngine.cpp ****         _osc1.SetFreq(_osc1Param.Freq * (1 +  _lfo1.Process()));
 2090              		.loc 1 196 60 view .LVU665
 2091 0058 FFF7FEFF 		bl	_ZN7daisysp10Oscillator7ProcessEv
 2092              	.LVL83:
 2093              	.LBB368:
 2094              	.LBB369:
  70:../libs/PoliTeKDSP/libs/DaisySP/Source/Synthesis/oscillator.h ****     }
 2095              		.loc 3 70 34 view .LVU666
 2096 005c 2046     		mov	r0, r4
 2097              	.LBE369:
 2098              	.LBE368:
 197:PSP/AudioEngine.cpp ****         _osc2.SetFreq(_osc2Param.Freq * (1 +  _lfo2.Process()));
 2099              		.loc 1 197 22 view .LVU667
 2100 005e 04F12C06 		add	r6, r4, #44
 196:PSP/AudioEngine.cpp ****         _osc1.SetFreq(_osc1Param.Freq * (1 +  _lfo1.Process()));
 2101              		.loc 1 196 44 view .LVU668
 2102 0062 30EE080A 		vadd.f32	s0, s0, s16
 200:PSP/AudioEngine.cpp ****         _Filt.SetFreq(lead_cutoff_freq * Fenv_out * _Filt_envParam.Amp);
 2103              		.loc 1 200 22 view .LVU669
 2104 0066 04F58875 		add	r5, r4, #272
 196:PSP/AudioEngine.cpp ****         _osc1.SetFreq(_osc1Param.Freq * (1 +  _lfo1.Process()));
 2105              		.loc 1 196 22 view .LVU670
 2106 006a 20EE280A 		vmul.f32	s0, s0, s17
 2107              	.LVL84:
 2108              	.LBB372:
 2109              	.LBI368:
ARM GAS  C:\Users\skipi\AppData\Local\Temp\ccnbanHd.s 			page 56


  67:../libs/PoliTeKDSP/libs/DaisySP/Source/Synthesis/oscillator.h ****     {
 2110              		.loc 3 67 17 is_stmt 1 view .LVU671
 2111              	.LBB370:
  69:../libs/PoliTeKDSP/libs/DaisySP/Source/Synthesis/oscillator.h ****         phase_inc_ = CalcPhaseInc(f);
 2112              		.loc 3 69 9 view .LVU672
  69:../libs/PoliTeKDSP/libs/DaisySP/Source/Synthesis/oscillator.h ****         phase_inc_ = CalcPhaseInc(f);
 2113              		.loc 3 69 20 is_stmt 0 view .LVU673
 2114 006e 84ED020A 		vstr.32	s0, [r4, #8]
  70:../libs/PoliTeKDSP/libs/DaisySP/Source/Synthesis/oscillator.h ****     }
 2115              		.loc 3 70 9 is_stmt 1 view .LVU674
  70:../libs/PoliTeKDSP/libs/DaisySP/Source/Synthesis/oscillator.h ****     }
 2116              		.loc 3 70 34 is_stmt 0 view .LVU675
 2117 0072 FFF7FEFF 		bl	_ZN7daisysp10Oscillator12CalcPhaseIncEf
 2118              	.LVL85:
  70:../libs/PoliTeKDSP/libs/DaisySP/Source/Synthesis/oscillator.h ****     }
 2119              		.loc 3 70 34 view .LVU676
 2120              	.LBE370:
 2121              	.LBE372:
 197:PSP/AudioEngine.cpp ****         _osc2.SetFreq(_osc2Param.Freq * (1 +  _lfo2.Process()));
 2122              		.loc 1 197 60 view .LVU677
 2123 0076 04F18400 		add	r0, r4, #132
 2124              	.LBB373:
 2125              	.LBB371:
  70:../libs/PoliTeKDSP/libs/DaisySP/Source/Synthesis/oscillator.h ****     }
 2126              		.loc 3 70 20 view .LVU678
 2127 007a 84ED070A 		vstr.32	s0, [r4, #28]
 2128              	.LVL86:
  70:../libs/PoliTeKDSP/libs/DaisySP/Source/Synthesis/oscillator.h ****     }
 2129              		.loc 3 70 20 view .LVU679
 2130              	.LBE371:
 2131              	.LBE373:
 197:PSP/AudioEngine.cpp ****         _osc2.SetFreq(_osc2Param.Freq * (1 +  _lfo2.Process()));
 2132              		.loc 1 197 9 is_stmt 1 view .LVU680
 197:PSP/AudioEngine.cpp ****         _osc2.SetFreq(_osc2Param.Freq * (1 +  _lfo2.Process()));
 2133              		.loc 1 197 34 is_stmt 0 view .LVU681
 2134 007e D4ED628A 		vldr.32	s17, [r4, #392]
 197:PSP/AudioEngine.cpp ****         _osc2.SetFreq(_osc2Param.Freq * (1 +  _lfo2.Process()));
 2135              		.loc 1 197 60 view .LVU682
 2136 0082 FFF7FEFF 		bl	_ZN7daisysp10Oscillator7ProcessEv
 2137              	.LVL87:
 197:PSP/AudioEngine.cpp ****         _osc2.SetFreq(_osc2Param.Freq * (1 +  _lfo2.Process()));
 2138              		.loc 1 197 44 view .LVU683
 2139 0086 30EE080A 		vadd.f32	s0, s0, s16
 2140              	.LBB374:
 2141              	.LBB375:
  70:../libs/PoliTeKDSP/libs/DaisySP/Source/Synthesis/oscillator.h ****     }
 2142              		.loc 3 70 34 view .LVU684
 2143 008a 3046     		mov	r0, r6
 2144              	.LBE375:
 2145              	.LBE374:
 197:PSP/AudioEngine.cpp ****         _osc2.SetFreq(_osc2Param.Freq * (1 +  _lfo2.Process()));
 2146              		.loc 1 197 22 view .LVU685
 2147 008c 20EE280A 		vmul.f32	s0, s0, s17
 2148              	.LVL88:
 2149              	.LBB378:
 2150              	.LBI374:
  67:../libs/PoliTeKDSP/libs/DaisySP/Source/Synthesis/oscillator.h ****     {
ARM GAS  C:\Users\skipi\AppData\Local\Temp\ccnbanHd.s 			page 57


 2151              		.loc 3 67 17 is_stmt 1 view .LVU686
 2152              	.LBB376:
  69:../libs/PoliTeKDSP/libs/DaisySP/Source/Synthesis/oscillator.h ****         phase_inc_ = CalcPhaseInc(f);
 2153              		.loc 3 69 9 view .LVU687
  69:../libs/PoliTeKDSP/libs/DaisySP/Source/Synthesis/oscillator.h ****         phase_inc_ = CalcPhaseInc(f);
 2154              		.loc 3 69 20 is_stmt 0 view .LVU688
 2155 0090 84ED0D0A 		vstr.32	s0, [r4, #52]
  70:../libs/PoliTeKDSP/libs/DaisySP/Source/Synthesis/oscillator.h ****     }
 2156              		.loc 3 70 9 is_stmt 1 view .LVU689
  70:../libs/PoliTeKDSP/libs/DaisySP/Source/Synthesis/oscillator.h ****     }
 2157              		.loc 3 70 34 is_stmt 0 view .LVU690
 2158 0094 FFF7FEFF 		bl	_ZN7daisysp10Oscillator12CalcPhaseIncEf
 2159              	.LVL89:
  70:../libs/PoliTeKDSP/libs/DaisySP/Source/Synthesis/oscillator.h ****     }
 2160              		.loc 3 70 34 view .LVU691
 2161              	.LBE376:
 2162              	.LBE378:
 198:PSP/AudioEngine.cpp ****         Amp_env_out = _Amp_env.Process(_lastGate);
 2163              		.loc 1 198 39 view .LVU692
 2164 0098 94F8DD11 		ldrb	r1, [r4, #477]	@ zero_extendqisi2
 2165 009c 04F1B000 		add	r0, r4, #176
 2166              	.LBB379:
 2167              	.LBB377:
  70:../libs/PoliTeKDSP/libs/DaisySP/Source/Synthesis/oscillator.h ****     }
 2168              		.loc 3 70 20 view .LVU693
 2169 00a0 84ED120A 		vstr.32	s0, [r4, #72]
 2170              	.LVL90:
  70:../libs/PoliTeKDSP/libs/DaisySP/Source/Synthesis/oscillator.h ****     }
 2171              		.loc 3 70 20 view .LVU694
 2172              	.LBE377:
 2173              	.LBE379:
 198:PSP/AudioEngine.cpp ****         Amp_env_out = _Amp_env.Process(_lastGate);
 2174              		.loc 1 198 9 is_stmt 1 view .LVU695
 198:PSP/AudioEngine.cpp ****         Amp_env_out = _Amp_env.Process(_lastGate);
 2175              		.loc 1 198 39 is_stmt 0 view .LVU696
 2176 00a4 FFF7FEFF 		bl	_ZN7daisysp4Adsr7ProcessEb
 2177              	.LVL91:
 199:PSP/AudioEngine.cpp ****         Fenv_out = _Filt_env.Process(_lastGate);
 2178              		.loc 1 199 37 view .LVU697
 2179 00a8 04F1E000 		add	r0, r4, #224
 2180 00ac 94F8DD11 		ldrb	r1, [r4, #477]	@ zero_extendqisi2
 198:PSP/AudioEngine.cpp ****         Amp_env_out = _Amp_env.Process(_lastGate);
 2181              		.loc 1 198 39 view .LVU698
 2182 00b0 F0EE408A 		vmov.f32	s17, s0
 2183              	.LVL92:
 199:PSP/AudioEngine.cpp ****         Fenv_out = _Filt_env.Process(_lastGate);
 2184              		.loc 1 199 9 is_stmt 1 view .LVU699
 199:PSP/AudioEngine.cpp ****         Fenv_out = _Filt_env.Process(_lastGate);
 2185              		.loc 1 199 37 is_stmt 0 view .LVU700
 2186 00b4 FFF7FEFF 		bl	_ZN7daisysp4Adsr7ProcessEb
 2187              	.LVL93:
 200:PSP/AudioEngine.cpp ****         _Filt.SetFreq(lead_cutoff_freq * Fenv_out * _Filt_envParam.Amp);
 2188              		.loc 1 200 9 is_stmt 1 view .LVU701
 200:PSP/AudioEngine.cpp ****         _Filt.SetFreq(lead_cutoff_freq * Fenv_out * _Filt_envParam.Amp);
 2189              		.loc 1 200 40 is_stmt 0 view .LVU702
 2190 00b8 064B     		ldr	r3, .L43
 200:PSP/AudioEngine.cpp ****         _Filt.SetFreq(lead_cutoff_freq * Fenv_out * _Filt_envParam.Amp);
ARM GAS  C:\Users\skipi\AppData\Local\Temp\ccnbanHd.s 			page 58


 2191              		.loc 1 200 22 view .LVU703
 2192 00ba D4ED747A 		vldr.32	s15, [r4, #464]
 2193 00be 2846     		mov	r0, r5
 200:PSP/AudioEngine.cpp ****         _Filt.SetFreq(lead_cutoff_freq * Fenv_out * _Filt_envParam.Amp);
 2194              		.loc 1 200 40 view .LVU704
 2195 00c0 93ED007A 		vldr.32	s14, [r3]
 2196 00c4 20EE070A 		vmul.f32	s0, s0, s14
 2197              	.LVL94:
 200:PSP/AudioEngine.cpp ****         _Filt.SetFreq(lead_cutoff_freq * Fenv_out * _Filt_envParam.Amp);
 2198              		.loc 1 200 22 view .LVU705
 2199 00c8 20EE270A 		vmul.f32	s0, s0, s15
 2200 00cc FFF7FEFF 		bl	_ZN7daisysp12LadderFilter7SetFreqEf
 2201              	.LVL95:
 201:PSP/AudioEngine.cpp ****         break;
 2202              		.loc 1 201 9 is_stmt 1 view .LVU706
 2203 00d0 A5E7     		b	.L41
 2204              	.L44:
 2205 00d2 00BF     		.align	2
 2206              	.L43:
 2207 00d4 00000000 		.word	.LANCHOR65
 2208              		.cfi_endproc
 2209              	.LFE3584:
 2211              		.global	lead_res
 2212              		.global	lead_cutoff_freq
 2213              		.global	lead_fAmp
 2214              		.global	lead_fsustain
 2215              		.global	lead_frelease
 2216              		.global	lead_fdecay
 2217              		.global	lead_fattack
 2218              		.global	lead_sustain
 2219              		.global	lead_release
 2220              		.global	lead_decay
 2221              		.global	lead_attack
 2222              		.global	lfo_lead_Shape2
 2223              		.global	lfo_lead_Amp2
 2224              		.global	lfo_lead_freq2
 2225              		.global	lfo_lead_waveform2
 2226              		.global	lfo_lead_Shape1
 2227              		.global	lfo_lead_Amp1
 2228              		.global	lfo_lead_freq1
 2229              		.global	lfo_lead_waveform1
 2230              		.global	lead_freq2
 2231              		.global	lead_shape2
 2232              		.global	lead_amp2
 2233              		.global	lead_waveform2
 2234              		.global	lead_freq1
 2235              		.global	lead_shape1
 2236              		.global	lead_amp1
 2237              		.global	lead_waveform1
 2238              		.global	pluck_res
 2239              		.global	pluck_cutoff_freq
 2240              		.global	pluck_fsustain
 2241              		.global	pluck_frelease
 2242              		.global	pluck_fdecay
 2243              		.global	pluck_fattack
 2244              		.global	pluck_sustain
 2245              		.global	pluck_release
ARM GAS  C:\Users\skipi\AppData\Local\Temp\ccnbanHd.s 			page 59


 2246              		.global	pluck_decay
 2247              		.global	pluck_attack
 2248              		.global	lfo_pluck_Shape2
 2249              		.global	lfo_pluck_Amp2
 2250              		.global	lfo_pluck_freq2
 2251              		.global	lfo_pluck_waveform2
 2252              		.global	lfo_pluck_Shape1
 2253              		.global	lfo_pluck_Amp1
 2254              		.global	lfo_pluck_freq1
 2255              		.global	lfo_pluck_waveform1
 2256              		.global	pluck_freq2
 2257              		.global	pluck_shape2
 2258              		.global	pluck_amp2
 2259              		.global	pluck_waveform2
 2260              		.global	pluck_freq1
 2261              		.global	pluck_shape1
 2262              		.global	pluck_amp1
 2263              		.global	pluck_waveform1
 2264              		.global	pad_res
 2265              		.global	pad_cutoff_freq
 2266              		.global	pad_fsustain
 2267              		.global	pad_frelease
 2268              		.global	pad_fdecay
 2269              		.global	pad_fattack
 2270              		.global	pad_sustain
 2271              		.global	pad_release
 2272              		.global	pad_decay
 2273              		.global	pad_attack
 2274              		.global	lfo_pad_Shape2
 2275              		.global	lfo_pad_Amp2
 2276              		.global	lfo_pad_freq2
 2277              		.global	lfo_pad_waveform2
 2278              		.global	lfo_pad_Shape1
 2279              		.global	lfo_pad_Amp1
 2280              		.global	lfo_pad_freq1
 2281              		.global	lfo_pad_waveform1
 2282              		.global	pad_freq2
 2283              		.global	pad_shape2
 2284              		.global	pad_amp2
 2285              		.global	pad_waveform2
 2286              		.global	pad_freq1
 2287              		.global	pad_shape1
 2288              		.global	pad_amp1
 2289              		.global	pad_waveform1
 2290              		.section	.bss.lfo_pad_waveform1,"aw",%nobits
 2291              		.set	.LANCHOR6,. + 0
 2294              	lfo_pad_waveform1:
 2295 0000 00       		.space	1
 2296              		.section	.bss.pluck_sustain,"aw",%nobits
 2297              		.align	2
 2298              		.set	.LANCHOR37,. + 0
 2301              	pluck_sustain:
 2302 0000 00000000 		.space	4
 2303              		.section	.data.lead_amp1,"aw"
 2304              		.align	2
 2305              		.set	.LANCHOR45,. + 0
 2308              	lead_amp1:
ARM GAS  C:\Users\skipi\AppData\Local\Temp\ccnbanHd.s 			page 60


 2309 0000 0000803F 		.word	1065353216
 2310              		.section	.data.lead_amp2,"aw"
 2311              		.align	2
 2312              		.set	.LANCHOR48,. + 0
 2315              	lead_amp2:
 2316 0000 0000803F 		.word	1065353216
 2317              		.section	.data.lead_attack,"aw"
 2318              		.align	2
 2319              		.set	.LANCHOR56,. + 0
 2322              	lead_attack:
 2323 0000 CDCC4C3D 		.word	1028443341
 2324              		.section	.data.lead_cutoff_freq,"aw"
 2325              		.align	2
 2326              		.set	.LANCHOR65,. + 0
 2329              	lead_cutoff_freq:
 2330 0000 00007A44 		.word	1148846080
 2331              		.section	.data.lead_decay,"aw"
 2332              		.align	2
 2333              		.set	.LANCHOR57,. + 0
 2336              	lead_decay:
 2337 0000 33333340 		.word	1077097267
 2338              		.section	.data.lead_fAmp,"aw"
 2339              		.align	2
 2340              		.set	.LANCHOR64,. + 0
 2343              	lead_fAmp:
 2344 0000 00000040 		.word	1073741824
 2345              		.section	.data.lead_fattack,"aw"
 2346              		.align	2
 2347              		.set	.LANCHOR60,. + 0
 2350              	lead_fattack:
 2351 0000 0000803F 		.word	1065353216
 2352              		.section	.data.lead_fdecay,"aw"
 2353              		.align	2
 2354              		.set	.LANCHOR61,. + 0
 2357              	lead_fdecay:
 2358 0000 CDCC4C3F 		.word	1061997773
 2359              		.section	.data.lead_frelease,"aw"
 2360              		.align	2
 2361              		.set	.LANCHOR62,. + 0
 2364              	lead_frelease:
 2365 0000 CDCC4C3F 		.word	1061997773
 2366              		.section	.data.lead_freq1,"aw"
 2367              		.align	2
 2370              	lead_freq1:
 2371 0000 0000DC43 		.word	1138491392
 2372              		.section	.data.lead_freq2,"aw"
 2373              		.align	2
 2376              	lead_freq2:
 2377 0000 0000DC43 		.word	1138491392
 2378              		.section	.data.lead_fsustain,"aw"
 2379              		.align	2
 2380              		.set	.LANCHOR63,. + 0
 2383              	lead_fsustain:
 2384 0000 9A99193F 		.word	1058642330
 2385              		.section	.data.lead_release,"aw"
 2386              		.align	2
 2387              		.set	.LANCHOR58,. + 0
ARM GAS  C:\Users\skipi\AppData\Local\Temp\ccnbanHd.s 			page 61


 2390              	lead_release:
 2391 0000 6666A63F 		.word	1067869798
 2392              		.section	.data.lead_res,"aw"
 2393              		.align	2
 2394              		.set	.LANCHOR66,. + 0
 2397              	lead_res:
 2398 0000 CDCCCC3E 		.word	1053609165
 2399              		.section	.data.lead_shape1,"aw"
 2400              		.align	2
 2401              		.set	.LANCHOR46,. + 0
 2404              	lead_shape1:
 2405 0000 CDCCCC3D 		.word	1036831949
 2406              		.section	.data.lead_shape2,"aw"
 2407              		.align	2
 2408              		.set	.LANCHOR49,. + 0
 2411              	lead_shape2:
 2412 0000 CDCCCC3D 		.word	1036831949
 2413              		.section	.data.lead_sustain,"aw"
 2414              		.align	2
 2415              		.set	.LANCHOR59,. + 0
 2418              	lead_sustain:
 2419 0000 9A99193F 		.word	1058642330
 2420              		.section	.data.lead_waveform1,"aw"
 2421              		.set	.LANCHOR44,. + 0
 2424              	lead_waveform1:
 2425 0000 07       		.byte	7
 2426              		.section	.data.lead_waveform2,"aw"
 2427              		.set	.LANCHOR47,. + 0
 2430              	lead_waveform2:
 2431 0000 07       		.byte	7
 2432              		.section	.data.lfo_lead_Amp1,"aw"
 2433              		.align	2
 2434              		.set	.LANCHOR51,. + 0
 2437              	lfo_lead_Amp1:
 2438 0000 CDCC4C3D 		.word	1028443341
 2439              		.section	.data.lfo_lead_Amp2,"aw"
 2440              		.align	2
 2441              		.set	.LANCHOR54,. + 0
 2444              	lfo_lead_Amp2:
 2445 0000 CDCC4C3D 		.word	1028443341
 2446              		.section	.data.lfo_lead_Shape1,"aw"
 2447              		.align	2
 2448              		.set	.LANCHOR52,. + 0
 2451              	lfo_lead_Shape1:
 2452 0000 0000003F 		.word	1056964608
 2453              		.section	.data.lfo_lead_Shape2,"aw"
 2454              		.align	2
 2455              		.set	.LANCHOR55,. + 0
 2458              	lfo_lead_Shape2:
 2459 0000 0000003F 		.word	1056964608
 2460              		.section	.data.lfo_lead_freq1,"aw"
 2461              		.align	2
 2464              	lfo_lead_freq1:
 2465 0000 3333333F 		.word	1060320051
 2466              		.section	.data.lfo_lead_freq2,"aw"
 2467              		.align	2
 2470              	lfo_lead_freq2:
ARM GAS  C:\Users\skipi\AppData\Local\Temp\ccnbanHd.s 			page 62


 2471 0000 3333333F 		.word	1060320051
 2472              		.section	.data.lfo_lead_waveform1,"aw"
 2473              		.set	.LANCHOR50,. + 0
 2476              	lfo_lead_waveform1:
 2477 0000 01       		.byte	1
 2478              		.section	.data.lfo_lead_waveform2,"aw"
 2479              		.set	.LANCHOR53,. + 0
 2482              	lfo_lead_waveform2:
 2483 0000 01       		.byte	1
 2484              		.section	.data.lfo_pad_Amp1,"aw"
 2485              		.align	2
 2486              		.set	.LANCHOR7,. + 0
 2489              	lfo_pad_Amp1:
 2490 0000 0AD7A33B 		.word	1000593162
 2491              		.section	.data.lfo_pad_Amp2,"aw"
 2492              		.align	2
 2493              		.set	.LANCHOR10,. + 0
 2496              	lfo_pad_Amp2:
 2497 0000 0AD7A33B 		.word	1000593162
 2498              		.section	.data.lfo_pad_Shape1,"aw"
 2499              		.align	2
 2500              		.set	.LANCHOR8,. + 0
 2503              	lfo_pad_Shape1:
 2504 0000 0000003F 		.word	1056964608
 2505              		.section	.data.lfo_pad_Shape2,"aw"
 2506              		.align	2
 2507              		.set	.LANCHOR11,. + 0
 2510              	lfo_pad_Shape2:
 2511 0000 0000003F 		.word	1056964608
 2512              		.section	.data.lfo_pad_freq1,"aw"
 2513              		.align	2
 2516              	lfo_pad_freq1:
 2517 0000 CDCC4C3E 		.word	1045220557
 2518              		.section	.data.lfo_pad_freq2,"aw"
 2519              		.align	2
 2522              	lfo_pad_freq2:
 2523 0000 CDCC4C3F 		.word	1061997773
 2524              		.section	.data.lfo_pad_waveform2,"aw"
 2525              		.set	.LANCHOR9,. + 0
 2528              	lfo_pad_waveform2:
 2529 0000 01       		.byte	1
 2530              		.section	.data.lfo_pluck_Amp1,"aw"
 2531              		.align	2
 2532              		.set	.LANCHOR29,. + 0
 2535              	lfo_pluck_Amp1:
 2536 0000 CDCC4C3D 		.word	1028443341
 2537              		.section	.data.lfo_pluck_Amp2,"aw"
 2538              		.align	2
 2539              		.set	.LANCHOR32,. + 0
 2542              	lfo_pluck_Amp2:
 2543 0000 0AD7A33B 		.word	1000593162
 2544              		.section	.data.lfo_pluck_Shape1,"aw"
 2545              		.align	2
 2546              		.set	.LANCHOR30,. + 0
 2549              	lfo_pluck_Shape1:
 2550 0000 0000003F 		.word	1056964608
 2551              		.section	.data.lfo_pluck_Shape2,"aw"
ARM GAS  C:\Users\skipi\AppData\Local\Temp\ccnbanHd.s 			page 63


 2552              		.align	2
 2553              		.set	.LANCHOR33,. + 0
 2556              	lfo_pluck_Shape2:
 2557 0000 0000003F 		.word	1056964608
 2558              		.section	.data.lfo_pluck_freq1,"aw"
 2559              		.align	2
 2562              	lfo_pluck_freq1:
 2563 0000 0000E040 		.word	1088421888
 2564              		.section	.data.lfo_pluck_freq2,"aw"
 2565              		.align	2
 2568              	lfo_pluck_freq2:
 2569 0000 3333333F 		.word	1060320051
 2570              		.section	.data.lfo_pluck_waveform1,"aw"
 2571              		.set	.LANCHOR28,. + 0
 2574              	lfo_pluck_waveform1:
 2575 0000 01       		.byte	1
 2576              		.section	.data.lfo_pluck_waveform2,"aw"
 2577              		.set	.LANCHOR31,. + 0
 2580              	lfo_pluck_waveform2:
 2581 0000 01       		.byte	1
 2582              		.section	.data.pad_amp1,"aw"
 2583              		.align	2
 2584              		.set	.LANCHOR1,. + 0
 2587              	pad_amp1:
 2588 0000 0000803F 		.word	1065353216
 2589              		.section	.data.pad_amp2,"aw"
 2590              		.align	2
 2591              		.set	.LANCHOR4,. + 0
 2594              	pad_amp2:
 2595 0000 0000803F 		.word	1065353216
 2596              		.section	.data.pad_attack,"aw"
 2597              		.align	2
 2598              		.set	.LANCHOR12,. + 0
 2601              	pad_attack:
 2602 0000 33333340 		.word	1077097267
 2603              		.section	.data.pad_cutoff_freq,"aw"
 2604              		.align	2
 2605              		.set	.LANCHOR20,. + 0
 2608              	pad_cutoff_freq:
 2609 0000 00007A44 		.word	1148846080
 2610              		.section	.data.pad_decay,"aw"
 2611              		.align	2
 2612              		.set	.LANCHOR13,. + 0
 2615              	pad_decay:
 2616 0000 0000803F 		.word	1065353216
 2617              		.section	.data.pad_fattack,"aw"
 2618              		.align	2
 2619              		.set	.LANCHOR16,. + 0
 2622              	pad_fattack:
 2623 0000 33333340 		.word	1077097267
 2624              		.section	.data.pad_fdecay,"aw"
 2625              		.align	2
 2626              		.set	.LANCHOR17,. + 0
 2629              	pad_fdecay:
 2630 0000 6666E63F 		.word	1072064102
 2631              		.section	.data.pad_frelease,"aw"
 2632              		.align	2
ARM GAS  C:\Users\skipi\AppData\Local\Temp\ccnbanHd.s 			page 64


 2633              		.set	.LANCHOR18,. + 0
 2636              	pad_frelease:
 2637 0000 00000040 		.word	1073741824
 2638              		.section	.data.pad_freq1,"aw"
 2639              		.align	2
 2642              	pad_freq1:
 2643 0000 0000DC43 		.word	1138491392
 2644              		.section	.data.pad_freq2,"aw"
 2645              		.align	2
 2648              	pad_freq2:
 2649 0000 0000DC43 		.word	1138491392
 2650              		.section	.data.pad_fsustain,"aw"
 2651              		.align	2
 2652              		.set	.LANCHOR19,. + 0
 2655              	pad_fsustain:
 2656 0000 CDCCCC3E 		.word	1053609165
 2657              		.section	.data.pad_release,"aw"
 2658              		.align	2
 2659              		.set	.LANCHOR14,. + 0
 2662              	pad_release:
 2663 0000 9A99993F 		.word	1067030938
 2664              		.section	.data.pad_res,"aw"
 2665              		.align	2
 2666              		.set	.LANCHOR21,. + 0
 2669              	pad_res:
 2670 0000 CDCCCC3E 		.word	1053609165
 2671              		.section	.data.pad_shape1,"aw"
 2672              		.align	2
 2673              		.set	.LANCHOR2,. + 0
 2676              	pad_shape1:
 2677 0000 0000003F 		.word	1056964608
 2678              		.section	.data.pad_shape2,"aw"
 2679              		.align	2
 2680              		.set	.LANCHOR5,. + 0
 2683              	pad_shape2:
 2684 0000 0000003F 		.word	1056964608
 2685              		.section	.data.pad_sustain,"aw"
 2686              		.align	2
 2687              		.set	.LANCHOR15,. + 0
 2690              	pad_sustain:
 2691 0000 CDCC4C3F 		.word	1061997773
 2692              		.section	.data.pad_waveform1,"aw"
 2693              		.set	.LANCHOR0,. + 0
 2696              	pad_waveform1:
 2697 0000 02       		.byte	2
 2698              		.section	.data.pad_waveform2,"aw"
 2699              		.set	.LANCHOR3,. + 0
 2702              	pad_waveform2:
 2703 0000 06       		.byte	6
 2704              		.section	.data.pluck_amp1,"aw"
 2705              		.align	2
 2706              		.set	.LANCHOR23,. + 0
 2709              	pluck_amp1:
 2710 0000 0000803F 		.word	1065353216
 2711              		.section	.data.pluck_amp2,"aw"
 2712              		.align	2
 2713              		.set	.LANCHOR26,. + 0
ARM GAS  C:\Users\skipi\AppData\Local\Temp\ccnbanHd.s 			page 65


 2716              	pluck_amp2:
 2717 0000 0000803F 		.word	1065353216
 2718              		.section	.data.pluck_attack,"aw"
 2719              		.align	2
 2720              		.set	.LANCHOR34,. + 0
 2723              	pluck_attack:
 2724 0000 0AD7233C 		.word	1008981770
 2725              		.section	.data.pluck_cutoff_freq,"aw"
 2726              		.align	2
 2727              		.set	.LANCHOR42,. + 0
 2730              	pluck_cutoff_freq:
 2731 0000 0000FA45 		.word	1174011904
 2732              		.section	.data.pluck_decay,"aw"
 2733              		.align	2
 2734              		.set	.LANCHOR35,. + 0
 2737              	pluck_decay:
 2738 0000 9A99193E 		.word	1041865114
 2739              		.section	.data.pluck_fattack,"aw"
 2740              		.align	2
 2741              		.set	.LANCHOR38,. + 0
 2744              	pluck_fattack:
 2745 0000 CDCCCC3D 		.word	1036831949
 2746              		.section	.data.pluck_fdecay,"aw"
 2747              		.align	2
 2748              		.set	.LANCHOR39,. + 0
 2751              	pluck_fdecay:
 2752 0000 6666E63F 		.word	1072064102
 2753              		.section	.data.pluck_frelease,"aw"
 2754              		.align	2
 2755              		.set	.LANCHOR40,. + 0
 2758              	pluck_frelease:
 2759 0000 00000040 		.word	1073741824
 2760              		.section	.data.pluck_freq1,"aw"
 2761              		.align	2
 2764              	pluck_freq1:
 2765 0000 0000DC43 		.word	1138491392
 2766              		.section	.data.pluck_freq2,"aw"
 2767              		.align	2
 2770              	pluck_freq2:
 2771 0000 0000DC43 		.word	1138491392
 2772              		.section	.data.pluck_fsustain,"aw"
 2773              		.align	2
 2774              		.set	.LANCHOR41,. + 0
 2777              	pluck_fsustain:
 2778 0000 CDCCCC3E 		.word	1053609165
 2779              		.section	.data.pluck_release,"aw"
 2780              		.align	2
 2781              		.set	.LANCHOR36,. + 0
 2784              	pluck_release:
 2785 0000 CDCC4C3F 		.word	1061997773
 2786              		.section	.data.pluck_res,"aw"
 2787              		.align	2
 2788              		.set	.LANCHOR43,. + 0
 2791              	pluck_res:
 2792 0000 CDCCCC3E 		.word	1053609165
 2793              		.section	.data.pluck_shape1,"aw"
 2794              		.align	2
ARM GAS  C:\Users\skipi\AppData\Local\Temp\ccnbanHd.s 			page 66


 2795              		.set	.LANCHOR24,. + 0
 2798              	pluck_shape1:
 2799 0000 0000003F 		.word	1056964608
 2800              		.section	.data.pluck_shape2,"aw"
 2801              		.align	2
 2802              		.set	.LANCHOR27,. + 0
 2805              	pluck_shape2:
 2806 0000 0000003F 		.word	1056964608
 2807              		.section	.data.pluck_waveform1,"aw"
 2808              		.set	.LANCHOR22,. + 0
 2811              	pluck_waveform1:
 2812 0000 01       		.byte	1
 2813              		.section	.data.pluck_waveform2,"aw"
 2814              		.set	.LANCHOR25,. + 0
 2817              	pluck_waveform2:
 2818 0000 01       		.byte	1
 2819              		.text
 2820              	.Letext0:
 2821              		.file 6 "c:\\program files\\daisytoolchain\\arm-none-eabi\\include\\machine\\_default_types.h"
 2822              		.file 7 "c:\\program files\\daisytoolchain\\arm-none-eabi\\include\\sys\\_stdint.h"
 2823              		.file 8 "c:\\program files\\daisytoolchain\\arm-none-eabi\\include\\stdint.h"
 2824              		.file 9 "c:\\program files\\daisytoolchain\\lib\\gcc\\arm-none-eabi\\10.2.1\\include\\stddef.h"
 2825              		.file 10 "c:\\program files\\daisytoolchain\\arm-none-eabi\\include\\c++\\10.2.1\\cmath"
 2826              		.file 11 "c:\\program files\\daisytoolchain\\arm-none-eabi\\include\\c++\\10.2.1\\bits\\std_abs.h"
 2827              		.file 12 "c:\\program files\\daisytoolchain\\arm-none-eabi\\include\\c++\\10.2.1\\cstdint"
 2828              		.file 13 "c:\\program files\\daisytoolchain\\arm-none-eabi\\include\\c++\\10.2.1\\cstdlib"
 2829              		.file 14 "c:\\program files\\daisytoolchain\\arm-none-eabi\\include\\c++\\10.2.1\\type_traits"
 2830              		.file 15 "c:\\program files\\daisytoolchain\\arm-none-eabi\\include\\c++\\10.2.1\\debug\\debug.h"
 2831              		.file 16 "c:\\program files\\daisytoolchain\\arm-none-eabi\\include\\c++\\10.2.1\\cwchar"
 2832              		.file 17 "c:\\program files\\daisytoolchain\\arm-none-eabi\\include\\c++\\10.2.1\\bits\\stl_pair.h
 2833              		.file 18 "c:\\program files\\daisytoolchain\\arm-none-eabi\\include\\c++\\10.2.1\\bits\\exception_
 2834              		.file 19 "c:\\program files\\daisytoolchain\\arm-none-eabi\\include\\c++\\10.2.1\\arm-none-eabi\\t
 2835              		.file 20 "c:\\program files\\daisytoolchain\\arm-none-eabi\\include\\c++\\10.2.1\\clocale"
 2836              		.file 21 "c:\\program files\\daisytoolchain\\arm-none-eabi\\include\\c++\\10.2.1\\cstdio"
 2837              		.file 22 "c:\\program files\\daisytoolchain\\arm-none-eabi\\include\\c++\\10.2.1\\bits\\basic_stri
 2838              		.file 23 "c:\\program files\\daisytoolchain\\arm-none-eabi\\include\\c++\\10.2.1\\bits\\charconv.h
 2839              		.file 24 "c:\\program files\\daisytoolchain\\arm-none-eabi\\include\\c++\\10.2.1\\bits\\algorithmf
 2840              		.file 25 "c:\\program files\\daisytoolchain\\arm-none-eabi\\include\\c++\\10.2.1\\cstring"
 2841              		.file 26 "c:\\program files\\daisytoolchain\\arm-none-eabi\\include\\c++\\10.2.1\\bits\\predefined
 2842              		.file 27 "c:\\program files\\daisytoolchain\\arm-none-eabi\\include\\sys\\_types.h"
 2843              		.file 28 "c:\\program files\\daisytoolchain\\arm-none-eabi\\include\\sys\\reent.h"
 2844              		.file 29 "c:\\program files\\daisytoolchain\\arm-none-eabi\\include\\sys\\lock.h"
 2845              		.file 30 "c:\\program files\\daisytoolchain\\arm-none-eabi\\include\\math.h"
 2846              		.file 31 "c:\\program files\\daisytoolchain\\arm-none-eabi\\include\\stdlib.h"
 2847              		.file 32 "c:\\program files\\daisytoolchain\\arm-none-eabi\\include\\c++\\10.2.1\\math.h"
 2848              		.file 33 "../libs/PoliTeKDSP/libs/DaisySP/Source/Control/adenv.h"
 2849              		.file 34 "c:\\program files\\daisytoolchain\\lib\\gcc\\arm-none-eabi\\10.2.1\\include\\stdarg.h"
 2850              		.file 35 "c:\\program files\\daisytoolchain\\arm-none-eabi\\include\\wchar.h"
 2851              		.file 36 "c:\\program files\\daisytoolchain\\arm-none-eabi\\include\\locale.h"
 2852              		.file 37 "c:\\program files\\daisytoolchain\\arm-none-eabi\\include\\stdio.h"
 2853              		.file 38 "c:\\program files\\daisytoolchain\\arm-none-eabi\\include\\c++\\10.2.1\\stdlib.h"
 2854              		.file 39 "c:\\program files\\daisytoolchain\\arm-none-eabi\\include\\string.h"
 2855              		.file 40 "PSP/AudioEngine.h"
 2856              		.file 41 "PSP/AudioEngineConfig.h"
 2857              		.file 42 "<built-in>"
ARM GAS  C:\Users\skipi\AppData\Local\Temp\ccnbanHd.s 			page 67

