ARM GAS  C:\Users\skipi\AppData\Local\Temp\cctYXDIM.s 			page 1


   1              		.cpu cortex-m7
   2              		.eabi_attribute 28, 1
   3              		.eabi_attribute 20, 1
   4              		.eabi_attribute 21, 1
   5              		.eabi_attribute 23, 3
   6              		.eabi_attribute 24, 1
   7              		.eabi_attribute 25, 1
   8              		.eabi_attribute 26, 1
   9              		.eabi_attribute 30, 2
  10              		.eabi_attribute 34, 1
  11              		.eabi_attribute 18, 4
  12              		.file	"displayHandler.cpp"
  13              		.section	.rodata.str1.4,"aMS",%progbits,1
  14              		.align	2
  15              	.LC0:
  16 0000 4300     		.ascii	"C\000"
  17 0002 0000     		.align	2
  18              	.LC1:
  19 0004 432300   		.ascii	"C#\000"
  20 0007 00       		.align	2
  21              	.LC2:
  22 0008 4400     		.ascii	"D\000"
  23 000a 0000     		.align	2
  24              	.LC3:
  25 000c 442300   		.ascii	"D#\000"
  26 000f 00       		.align	2
  27              	.LC4:
  28 0010 4500     		.ascii	"E\000"
  29 0012 0000     		.align	2
  30              	.LC5:
  31 0014 4600     		.ascii	"F\000"
  32 0016 0000     		.align	2
  33              	.LC6:
  34 0018 462300   		.ascii	"F#\000"
  35 001b 00       		.align	2
  36              	.LC7:
  37 001c 4700     		.ascii	"G\000"
  38 001e 0000     		.align	2
  39              	.LC8:
  40 0020 472300   		.ascii	"G#\000"
  41 0023 00       		.align	2
  42              	.LC9:
  43 0024 4100     		.ascii	"A\000"
  44 0026 0000     		.align	2
  45              	.LC10:
  46 0028 412300   		.ascii	"A#\000"
  47 002b 00       		.align	2
  48              	.LC11:
  49 002c 4200     		.ascii	"B\000"
  50 002e 0000     		.align	2
  51              	.LC13:
  52 0030 4D616A6F 		.ascii	"Major\000"
  52      7200
  53 0036 0000     		.align	2
  54              	.LC14:
  55 0038 4D696E6F 		.ascii	"MinorN\000"
  55      724E00
ARM GAS  C:\Users\skipi\AppData\Local\Temp\cctYXDIM.s 			page 2


  56 003f 00       		.align	2
  57              	.LC15:
  58 0040 4D696E6F 		.ascii	"MinorA\000"
  58      724100
  59 0047 00       		.align	2
  60              	.LC16:
  61 0048 4D696E6F 		.ascii	"MinorM\000"
  61      724D00
  62 004f 00       		.align	2
  63              	.LC17:
  64 0050 50656E74 		.ascii	"Penta\000"
  64      6100
  65 0056 0000     		.align	2
  66              	.LC18:
  67 0058 4368726F 		.ascii	"Chrom\000"
  67      6D00
  68 005e 0000     		.align	2
  69              	.LC19:
  70 0060 45736174 		.ascii	"Esat\000"
  70      00
  71 0065 000000   		.align	2
  72              	.LC21:
  73 0068 50616400 		.ascii	"Pad\000"
  74              		.align	2
  75              	.LC22:
  76 006c 506C7563 		.ascii	"Pluck\000"
  76      6B00
  77 0072 0000     		.align	2
  78              	.LC23:
  79 0074 526F7967 		.ascii	"Roygbib\000"
  79      62696200 
  80              		.text
  81              	.Ltext0:
  82              		.cfi_sections	.debug_frame
  83              		.section	.text._ZN5daisy11OledDisplayINS_13SSD130xDriverILj128ELj64ENS_19SSD130xI2CTransportEEEE4F
  84              		.align	1
  85              		.p2align 2,,3
  86              		.weak	_ZN5daisy11OledDisplayINS_13SSD130xDriverILj128ELj64ENS_19SSD130xI2CTransportEEEE4FillEb
  87              		.arch armv7e-m
  88              		.syntax unified
  89              		.thumb
  90              		.thumb_func
  91              		.fpu fpv5-d16
  93              	_ZN5daisy11OledDisplayINS_13SSD130xDriverILj128ELj64ENS_19SSD130xI2CTransportEEEE4FillEb:
  94              	.LVL0:
  95              	.LFB2808:
  96              		.file 1 "Display/../../libs/PoliTeKDSP/libs/libDaisy/src/hid/disp/oled_display.h"
   1:Display/../../libs/PoliTeKDSP/libs/libDaisy/src/hid/disp/oled_display.h **** #pragma once
   2:Display/../../libs/PoliTeKDSP/libs/libDaisy/src/hid/disp/oled_display.h **** #ifndef DSY_OLED_DISPLAY_H
   3:Display/../../libs/PoliTeKDSP/libs/libDaisy/src/hid/disp/oled_display.h **** #define DSY_OLED_DISPLAY_H /**< Macro */
   4:Display/../../libs/PoliTeKDSP/libs/libDaisy/src/hid/disp/oled_display.h **** 
   5:Display/../../libs/PoliTeKDSP/libs/libDaisy/src/hid/disp/oled_display.h **** #include "display.h"
   6:Display/../../libs/PoliTeKDSP/libs/libDaisy/src/hid/disp/oled_display.h **** 
   7:Display/../../libs/PoliTeKDSP/libs/libDaisy/src/hid/disp/oled_display.h **** namespace daisy
   8:Display/../../libs/PoliTeKDSP/libs/libDaisy/src/hid/disp/oled_display.h **** {
   9:Display/../../libs/PoliTeKDSP/libs/libDaisy/src/hid/disp/oled_display.h **** /** 
  10:Display/../../libs/PoliTeKDSP/libs/libDaisy/src/hid/disp/oled_display.h ****  * This class is for drawing to a monochrome OLED display. 
ARM GAS  C:\Users\skipi\AppData\Local\Temp\cctYXDIM.s 			page 3


  11:Display/../../libs/PoliTeKDSP/libs/libDaisy/src/hid/disp/oled_display.h ****  * @ingroup device
  12:Display/../../libs/PoliTeKDSP/libs/libDaisy/src/hid/disp/oled_display.h **** */
  13:Display/../../libs/PoliTeKDSP/libs/libDaisy/src/hid/disp/oled_display.h **** template <typename DisplayDriver>
  14:Display/../../libs/PoliTeKDSP/libs/libDaisy/src/hid/disp/oled_display.h **** class OledDisplay : public OneBitGraphicsDisplayImpl<OledDisplay<DisplayDriver>>
  15:Display/../../libs/PoliTeKDSP/libs/libDaisy/src/hid/disp/oled_display.h **** {
  16:Display/../../libs/PoliTeKDSP/libs/libDaisy/src/hid/disp/oled_display.h ****   public:
  17:Display/../../libs/PoliTeKDSP/libs/libDaisy/src/hid/disp/oled_display.h ****     OledDisplay() {}
  18:Display/../../libs/PoliTeKDSP/libs/libDaisy/src/hid/disp/oled_display.h ****     virtual ~OledDisplay() {}
  19:Display/../../libs/PoliTeKDSP/libs/libDaisy/src/hid/disp/oled_display.h **** 
  20:Display/../../libs/PoliTeKDSP/libs/libDaisy/src/hid/disp/oled_display.h ****     struct Config
  21:Display/../../libs/PoliTeKDSP/libs/libDaisy/src/hid/disp/oled_display.h ****     {
  22:Display/../../libs/PoliTeKDSP/libs/libDaisy/src/hid/disp/oled_display.h ****         typename DisplayDriver::Config driver_config;
  23:Display/../../libs/PoliTeKDSP/libs/libDaisy/src/hid/disp/oled_display.h ****     };
  24:Display/../../libs/PoliTeKDSP/libs/libDaisy/src/hid/disp/oled_display.h **** 
  25:Display/../../libs/PoliTeKDSP/libs/libDaisy/src/hid/disp/oled_display.h ****     void Init(Config config) { driver_.Init(config.driver_config); }
  26:Display/../../libs/PoliTeKDSP/libs/libDaisy/src/hid/disp/oled_display.h **** 
  27:Display/../../libs/PoliTeKDSP/libs/libDaisy/src/hid/disp/oled_display.h ****     uint16_t Height() const override { return driver_.Height(); }
  28:Display/../../libs/PoliTeKDSP/libs/libDaisy/src/hid/disp/oled_display.h ****     uint16_t Width() const override { return driver_.Width(); }
  29:Display/../../libs/PoliTeKDSP/libs/libDaisy/src/hid/disp/oled_display.h **** 
  30:Display/../../libs/PoliTeKDSP/libs/libDaisy/src/hid/disp/oled_display.h ****     /** 
  31:Display/../../libs/PoliTeKDSP/libs/libDaisy/src/hid/disp/oled_display.h ****     Fills the entire display with either on/off.
  32:Display/../../libs/PoliTeKDSP/libs/libDaisy/src/hid/disp/oled_display.h ****     \param on Sets on or off.
  33:Display/../../libs/PoliTeKDSP/libs/libDaisy/src/hid/disp/oled_display.h ****     */
  34:Display/../../libs/PoliTeKDSP/libs/libDaisy/src/hid/disp/oled_display.h ****     void Fill(bool on) override { driver_.Fill(on); }
  97              		.loc 1 34 10 view -0
  98              		.cfi_startproc
  99              		@ args = 0, pretend = 0, frame = 0
 100              		@ frame_needed = 0, uses_anonymous_args = 0
 101              		@ link register save eliminated.
 102              	.LBB15:
 103              	.LBI15:
 104              		.file 2 "Display/../../libs/PoliTeKDSP/libs/libDaisy/src/dev/oled_ssd130x.h"
   1:Display/../../libs/PoliTeKDSP/libs/libDaisy/src/dev/oled_ssd130x.h **** #pragma once
   2:Display/../../libs/PoliTeKDSP/libs/libDaisy/src/dev/oled_ssd130x.h **** #ifndef SA_OLED_SSD130X_H
   3:Display/../../libs/PoliTeKDSP/libs/libDaisy/src/dev/oled_ssd130x.h **** #define SA_OLED_SSD130X_H /**< & */
   4:Display/../../libs/PoliTeKDSP/libs/libDaisy/src/dev/oled_ssd130x.h **** 
   5:Display/../../libs/PoliTeKDSP/libs/libDaisy/src/dev/oled_ssd130x.h **** #include "per/i2c.h"
   6:Display/../../libs/PoliTeKDSP/libs/libDaisy/src/dev/oled_ssd130x.h **** #include "per/spi.h"
   7:Display/../../libs/PoliTeKDSP/libs/libDaisy/src/dev/oled_ssd130x.h **** #include "per/gpio.h"
   8:Display/../../libs/PoliTeKDSP/libs/libDaisy/src/dev/oled_ssd130x.h **** #include "sys/system.h"
   9:Display/../../libs/PoliTeKDSP/libs/libDaisy/src/dev/oled_ssd130x.h **** #include "stm32h7xx_hal.h"
  10:Display/../../libs/PoliTeKDSP/libs/libDaisy/src/dev/oled_ssd130x.h **** 
  11:Display/../../libs/PoliTeKDSP/libs/libDaisy/src/dev/oled_ssd130x.h **** namespace daisy
  12:Display/../../libs/PoliTeKDSP/libs/libDaisy/src/dev/oled_ssd130x.h **** {
  13:Display/../../libs/PoliTeKDSP/libs/libDaisy/src/dev/oled_ssd130x.h **** /**
  14:Display/../../libs/PoliTeKDSP/libs/libDaisy/src/dev/oled_ssd130x.h ****  * I2C Transport for SSD1306 / SSD1309 OLED display devices
  15:Display/../../libs/PoliTeKDSP/libs/libDaisy/src/dev/oled_ssd130x.h ****  */
  16:Display/../../libs/PoliTeKDSP/libs/libDaisy/src/dev/oled_ssd130x.h **** class SSD130xI2CTransport
  17:Display/../../libs/PoliTeKDSP/libs/libDaisy/src/dev/oled_ssd130x.h **** {
  18:Display/../../libs/PoliTeKDSP/libs/libDaisy/src/dev/oled_ssd130x.h ****   public:
  19:Display/../../libs/PoliTeKDSP/libs/libDaisy/src/dev/oled_ssd130x.h ****     struct Config
  20:Display/../../libs/PoliTeKDSP/libs/libDaisy/src/dev/oled_ssd130x.h ****     {
  21:Display/../../libs/PoliTeKDSP/libs/libDaisy/src/dev/oled_ssd130x.h ****         Config()
  22:Display/../../libs/PoliTeKDSP/libs/libDaisy/src/dev/oled_ssd130x.h ****         {
  23:Display/../../libs/PoliTeKDSP/libs/libDaisy/src/dev/oled_ssd130x.h ****             // Intialize using defaults
  24:Display/../../libs/PoliTeKDSP/libs/libDaisy/src/dev/oled_ssd130x.h ****             Defaults();
  25:Display/../../libs/PoliTeKDSP/libs/libDaisy/src/dev/oled_ssd130x.h ****         }
ARM GAS  C:\Users\skipi\AppData\Local\Temp\cctYXDIM.s 			page 4


  26:Display/../../libs/PoliTeKDSP/libs/libDaisy/src/dev/oled_ssd130x.h ****         I2CHandle::Config i2c_config;
  27:Display/../../libs/PoliTeKDSP/libs/libDaisy/src/dev/oled_ssd130x.h ****         uint8_t           i2c_address;
  28:Display/../../libs/PoliTeKDSP/libs/libDaisy/src/dev/oled_ssd130x.h ****         void              Defaults()
  29:Display/../../libs/PoliTeKDSP/libs/libDaisy/src/dev/oled_ssd130x.h ****         {
  30:Display/../../libs/PoliTeKDSP/libs/libDaisy/src/dev/oled_ssd130x.h ****             i2c_config.periph         = I2CHandle::Config::Peripheral::I2C_1;
  31:Display/../../libs/PoliTeKDSP/libs/libDaisy/src/dev/oled_ssd130x.h ****             i2c_config.speed          = I2CHandle::Config::Speed::I2C_1MHZ;
  32:Display/../../libs/PoliTeKDSP/libs/libDaisy/src/dev/oled_ssd130x.h ****             i2c_config.mode           = I2CHandle::Config::Mode::I2C_MASTER;
  33:Display/../../libs/PoliTeKDSP/libs/libDaisy/src/dev/oled_ssd130x.h ****             i2c_config.pin_config.scl = Pin(PORTB, 8);
  34:Display/../../libs/PoliTeKDSP/libs/libDaisy/src/dev/oled_ssd130x.h ****             i2c_config.pin_config.sda = Pin(PORTB, 9);
  35:Display/../../libs/PoliTeKDSP/libs/libDaisy/src/dev/oled_ssd130x.h ****             i2c_address               = 0x3C;
  36:Display/../../libs/PoliTeKDSP/libs/libDaisy/src/dev/oled_ssd130x.h ****         }
  37:Display/../../libs/PoliTeKDSP/libs/libDaisy/src/dev/oled_ssd130x.h ****     };
  38:Display/../../libs/PoliTeKDSP/libs/libDaisy/src/dev/oled_ssd130x.h ****     void Init(const Config& config)
  39:Display/../../libs/PoliTeKDSP/libs/libDaisy/src/dev/oled_ssd130x.h ****     {
  40:Display/../../libs/PoliTeKDSP/libs/libDaisy/src/dev/oled_ssd130x.h ****         i2c_address_ = config.i2c_address;
  41:Display/../../libs/PoliTeKDSP/libs/libDaisy/src/dev/oled_ssd130x.h ****         i2c_.Init(config.i2c_config);
  42:Display/../../libs/PoliTeKDSP/libs/libDaisy/src/dev/oled_ssd130x.h ****     };
  43:Display/../../libs/PoliTeKDSP/libs/libDaisy/src/dev/oled_ssd130x.h ****     void SendCommand(uint8_t cmd)
  44:Display/../../libs/PoliTeKDSP/libs/libDaisy/src/dev/oled_ssd130x.h ****     {
  45:Display/../../libs/PoliTeKDSP/libs/libDaisy/src/dev/oled_ssd130x.h ****         uint8_t buf[2] = {0X00, cmd};
  46:Display/../../libs/PoliTeKDSP/libs/libDaisy/src/dev/oled_ssd130x.h ****         i2c_.TransmitBlocking(i2c_address_, buf, 2, 1000);
  47:Display/../../libs/PoliTeKDSP/libs/libDaisy/src/dev/oled_ssd130x.h ****     };
  48:Display/../../libs/PoliTeKDSP/libs/libDaisy/src/dev/oled_ssd130x.h **** 
  49:Display/../../libs/PoliTeKDSP/libs/libDaisy/src/dev/oled_ssd130x.h ****     void SendData(uint8_t* buff, size_t size)
  50:Display/../../libs/PoliTeKDSP/libs/libDaisy/src/dev/oled_ssd130x.h ****     {
  51:Display/../../libs/PoliTeKDSP/libs/libDaisy/src/dev/oled_ssd130x.h ****         for(size_t i = 0; i < size; i++)
  52:Display/../../libs/PoliTeKDSP/libs/libDaisy/src/dev/oled_ssd130x.h ****         {
  53:Display/../../libs/PoliTeKDSP/libs/libDaisy/src/dev/oled_ssd130x.h ****             uint8_t buf[2] = {0X40, buff[i]};
  54:Display/../../libs/PoliTeKDSP/libs/libDaisy/src/dev/oled_ssd130x.h ****             i2c_.TransmitBlocking(i2c_address_, buf, 2, 1000);
  55:Display/../../libs/PoliTeKDSP/libs/libDaisy/src/dev/oled_ssd130x.h ****         }
  56:Display/../../libs/PoliTeKDSP/libs/libDaisy/src/dev/oled_ssd130x.h ****     };
  57:Display/../../libs/PoliTeKDSP/libs/libDaisy/src/dev/oled_ssd130x.h **** 
  58:Display/../../libs/PoliTeKDSP/libs/libDaisy/src/dev/oled_ssd130x.h ****   private:
  59:Display/../../libs/PoliTeKDSP/libs/libDaisy/src/dev/oled_ssd130x.h ****     daisy::I2CHandle i2c_;
  60:Display/../../libs/PoliTeKDSP/libs/libDaisy/src/dev/oled_ssd130x.h ****     uint8_t          i2c_address_;
  61:Display/../../libs/PoliTeKDSP/libs/libDaisy/src/dev/oled_ssd130x.h **** };
  62:Display/../../libs/PoliTeKDSP/libs/libDaisy/src/dev/oled_ssd130x.h **** 
  63:Display/../../libs/PoliTeKDSP/libs/libDaisy/src/dev/oled_ssd130x.h **** /**
  64:Display/../../libs/PoliTeKDSP/libs/libDaisy/src/dev/oled_ssd130x.h ****  * 4 Wire SPI Transport for SSD1306 / SSD1309 OLED display devices
  65:Display/../../libs/PoliTeKDSP/libs/libDaisy/src/dev/oled_ssd130x.h ****  */
  66:Display/../../libs/PoliTeKDSP/libs/libDaisy/src/dev/oled_ssd130x.h **** class SSD130x4WireSpiTransport
  67:Display/../../libs/PoliTeKDSP/libs/libDaisy/src/dev/oled_ssd130x.h **** {
  68:Display/../../libs/PoliTeKDSP/libs/libDaisy/src/dev/oled_ssd130x.h ****   public:
  69:Display/../../libs/PoliTeKDSP/libs/libDaisy/src/dev/oled_ssd130x.h ****     struct Config
  70:Display/../../libs/PoliTeKDSP/libs/libDaisy/src/dev/oled_ssd130x.h ****     {
  71:Display/../../libs/PoliTeKDSP/libs/libDaisy/src/dev/oled_ssd130x.h ****         Config()
  72:Display/../../libs/PoliTeKDSP/libs/libDaisy/src/dev/oled_ssd130x.h ****         {
  73:Display/../../libs/PoliTeKDSP/libs/libDaisy/src/dev/oled_ssd130x.h ****             // Initialize using defaults
  74:Display/../../libs/PoliTeKDSP/libs/libDaisy/src/dev/oled_ssd130x.h ****             Defaults();
  75:Display/../../libs/PoliTeKDSP/libs/libDaisy/src/dev/oled_ssd130x.h ****         }
  76:Display/../../libs/PoliTeKDSP/libs/libDaisy/src/dev/oled_ssd130x.h ****         SpiHandle::Config spi_config;
  77:Display/../../libs/PoliTeKDSP/libs/libDaisy/src/dev/oled_ssd130x.h ****         struct
  78:Display/../../libs/PoliTeKDSP/libs/libDaisy/src/dev/oled_ssd130x.h ****         {
  79:Display/../../libs/PoliTeKDSP/libs/libDaisy/src/dev/oled_ssd130x.h ****             Pin dc;    /**< & */
  80:Display/../../libs/PoliTeKDSP/libs/libDaisy/src/dev/oled_ssd130x.h ****             Pin reset; /**< & */
  81:Display/../../libs/PoliTeKDSP/libs/libDaisy/src/dev/oled_ssd130x.h ****         } pin_config;
  82:Display/../../libs/PoliTeKDSP/libs/libDaisy/src/dev/oled_ssd130x.h ****         bool useDma;
ARM GAS  C:\Users\skipi\AppData\Local\Temp\cctYXDIM.s 			page 5


  83:Display/../../libs/PoliTeKDSP/libs/libDaisy/src/dev/oled_ssd130x.h ****         void Defaults()
  84:Display/../../libs/PoliTeKDSP/libs/libDaisy/src/dev/oled_ssd130x.h ****         {
  85:Display/../../libs/PoliTeKDSP/libs/libDaisy/src/dev/oled_ssd130x.h ****             // SPI peripheral config
  86:Display/../../libs/PoliTeKDSP/libs/libDaisy/src/dev/oled_ssd130x.h ****             spi_config.periph = SpiHandle::Config::Peripheral::SPI_1;
  87:Display/../../libs/PoliTeKDSP/libs/libDaisy/src/dev/oled_ssd130x.h ****             spi_config.mode   = SpiHandle::Config::Mode::MASTER;
  88:Display/../../libs/PoliTeKDSP/libs/libDaisy/src/dev/oled_ssd130x.h ****             spi_config.direction
  89:Display/../../libs/PoliTeKDSP/libs/libDaisy/src/dev/oled_ssd130x.h ****                 = SpiHandle::Config::Direction::TWO_LINES_TX_ONLY;
  90:Display/../../libs/PoliTeKDSP/libs/libDaisy/src/dev/oled_ssd130x.h ****             spi_config.datasize       = 8;
  91:Display/../../libs/PoliTeKDSP/libs/libDaisy/src/dev/oled_ssd130x.h ****             spi_config.clock_polarity = SpiHandle::Config::ClockPolarity::LOW;
  92:Display/../../libs/PoliTeKDSP/libs/libDaisy/src/dev/oled_ssd130x.h ****             spi_config.clock_phase    = SpiHandle::Config::ClockPhase::ONE_EDGE;
  93:Display/../../libs/PoliTeKDSP/libs/libDaisy/src/dev/oled_ssd130x.h ****             spi_config.nss            = SpiHandle::Config::NSS::HARD_OUTPUT;
  94:Display/../../libs/PoliTeKDSP/libs/libDaisy/src/dev/oled_ssd130x.h ****             spi_config.baud_prescaler = SpiHandle::Config::BaudPrescaler::PS_8;
  95:Display/../../libs/PoliTeKDSP/libs/libDaisy/src/dev/oled_ssd130x.h ****             // SPI pin config
  96:Display/../../libs/PoliTeKDSP/libs/libDaisy/src/dev/oled_ssd130x.h ****             spi_config.pin_config.sclk = Pin(PORTG, 11);
  97:Display/../../libs/PoliTeKDSP/libs/libDaisy/src/dev/oled_ssd130x.h ****             spi_config.pin_config.miso = Pin(PORTX, 0);
  98:Display/../../libs/PoliTeKDSP/libs/libDaisy/src/dev/oled_ssd130x.h ****             spi_config.pin_config.mosi = Pin(PORTB, 5);
  99:Display/../../libs/PoliTeKDSP/libs/libDaisy/src/dev/oled_ssd130x.h ****             spi_config.pin_config.nss  = Pin(PORTG, 10);
 100:Display/../../libs/PoliTeKDSP/libs/libDaisy/src/dev/oled_ssd130x.h ****             // SSD130x control pin config
 101:Display/../../libs/PoliTeKDSP/libs/libDaisy/src/dev/oled_ssd130x.h ****             pin_config.dc    = Pin(PORTB, 4);
 102:Display/../../libs/PoliTeKDSP/libs/libDaisy/src/dev/oled_ssd130x.h ****             pin_config.reset = Pin(PORTB, 15);
 103:Display/../../libs/PoliTeKDSP/libs/libDaisy/src/dev/oled_ssd130x.h ****             // Using DMA off by default
 104:Display/../../libs/PoliTeKDSP/libs/libDaisy/src/dev/oled_ssd130x.h ****             useDma = false;
 105:Display/../../libs/PoliTeKDSP/libs/libDaisy/src/dev/oled_ssd130x.h ****         }
 106:Display/../../libs/PoliTeKDSP/libs/libDaisy/src/dev/oled_ssd130x.h ****     };
 107:Display/../../libs/PoliTeKDSP/libs/libDaisy/src/dev/oled_ssd130x.h ****     void Init(const Config& config)
 108:Display/../../libs/PoliTeKDSP/libs/libDaisy/src/dev/oled_ssd130x.h ****     {
 109:Display/../../libs/PoliTeKDSP/libs/libDaisy/src/dev/oled_ssd130x.h ****         // Initialize both GPIO
 110:Display/../../libs/PoliTeKDSP/libs/libDaisy/src/dev/oled_ssd130x.h ****         pin_dc_.Init(config.pin_config.dc, GPIO::Mode::OUTPUT);
 111:Display/../../libs/PoliTeKDSP/libs/libDaisy/src/dev/oled_ssd130x.h ****         pin_reset_.Init(config.pin_config.reset, GPIO::Mode::OUTPUT);
 112:Display/../../libs/PoliTeKDSP/libs/libDaisy/src/dev/oled_ssd130x.h **** 
 113:Display/../../libs/PoliTeKDSP/libs/libDaisy/src/dev/oled_ssd130x.h ****         // Initialize SPI
 114:Display/../../libs/PoliTeKDSP/libs/libDaisy/src/dev/oled_ssd130x.h ****         spi_.Init(config.spi_config);
 115:Display/../../libs/PoliTeKDSP/libs/libDaisy/src/dev/oled_ssd130x.h **** 
 116:Display/../../libs/PoliTeKDSP/libs/libDaisy/src/dev/oled_ssd130x.h ****         // Reset and Configure OLED.
 117:Display/../../libs/PoliTeKDSP/libs/libDaisy/src/dev/oled_ssd130x.h ****         pin_reset_.Write(0);
 118:Display/../../libs/PoliTeKDSP/libs/libDaisy/src/dev/oled_ssd130x.h ****         System::Delay(10);
 119:Display/../../libs/PoliTeKDSP/libs/libDaisy/src/dev/oled_ssd130x.h ****         pin_reset_.Write(1);
 120:Display/../../libs/PoliTeKDSP/libs/libDaisy/src/dev/oled_ssd130x.h ****         System::Delay(10);
 121:Display/../../libs/PoliTeKDSP/libs/libDaisy/src/dev/oled_ssd130x.h ****     };
 122:Display/../../libs/PoliTeKDSP/libs/libDaisy/src/dev/oled_ssd130x.h **** 
 123:Display/../../libs/PoliTeKDSP/libs/libDaisy/src/dev/oled_ssd130x.h ****     void SendCommand(uint8_t cmd)
 124:Display/../../libs/PoliTeKDSP/libs/libDaisy/src/dev/oled_ssd130x.h ****     {
 125:Display/../../libs/PoliTeKDSP/libs/libDaisy/src/dev/oled_ssd130x.h ****         pin_dc_.Write(0);
 126:Display/../../libs/PoliTeKDSP/libs/libDaisy/src/dev/oled_ssd130x.h ****         spi_.BlockingTransmit(&cmd, 1);
 127:Display/../../libs/PoliTeKDSP/libs/libDaisy/src/dev/oled_ssd130x.h ****     };
 128:Display/../../libs/PoliTeKDSP/libs/libDaisy/src/dev/oled_ssd130x.h **** 
 129:Display/../../libs/PoliTeKDSP/libs/libDaisy/src/dev/oled_ssd130x.h ****     void SendCommands(uint8_t* buff, size_t size)
 130:Display/../../libs/PoliTeKDSP/libs/libDaisy/src/dev/oled_ssd130x.h ****     {
 131:Display/../../libs/PoliTeKDSP/libs/libDaisy/src/dev/oled_ssd130x.h ****         pin_dc_.Write(0);
 132:Display/../../libs/PoliTeKDSP/libs/libDaisy/src/dev/oled_ssd130x.h ****         spi_.BlockingTransmit(buff, size);
 133:Display/../../libs/PoliTeKDSP/libs/libDaisy/src/dev/oled_ssd130x.h ****     };
 134:Display/../../libs/PoliTeKDSP/libs/libDaisy/src/dev/oled_ssd130x.h **** 
 135:Display/../../libs/PoliTeKDSP/libs/libDaisy/src/dev/oled_ssd130x.h ****     void SendData(uint8_t* buff, size_t size)
 136:Display/../../libs/PoliTeKDSP/libs/libDaisy/src/dev/oled_ssd130x.h ****     {
 137:Display/../../libs/PoliTeKDSP/libs/libDaisy/src/dev/oled_ssd130x.h ****         pin_dc_.Write(1);
 138:Display/../../libs/PoliTeKDSP/libs/libDaisy/src/dev/oled_ssd130x.h ****         spi_.BlockingTransmit(buff, size);
 139:Display/../../libs/PoliTeKDSP/libs/libDaisy/src/dev/oled_ssd130x.h ****     };
ARM GAS  C:\Users\skipi\AppData\Local\Temp\cctYXDIM.s 			page 6


 140:Display/../../libs/PoliTeKDSP/libs/libDaisy/src/dev/oled_ssd130x.h **** 
 141:Display/../../libs/PoliTeKDSP/libs/libDaisy/src/dev/oled_ssd130x.h ****     void SendDataDma(uint8_t*                          buff,
 142:Display/../../libs/PoliTeKDSP/libs/libDaisy/src/dev/oled_ssd130x.h ****                      size_t                            size,
 143:Display/../../libs/PoliTeKDSP/libs/libDaisy/src/dev/oled_ssd130x.h ****                      SpiHandle::EndCallbackFunctionPtr end_callback,
 144:Display/../../libs/PoliTeKDSP/libs/libDaisy/src/dev/oled_ssd130x.h ****                      void*                             context)
 145:Display/../../libs/PoliTeKDSP/libs/libDaisy/src/dev/oled_ssd130x.h ****     {
 146:Display/../../libs/PoliTeKDSP/libs/libDaisy/src/dev/oled_ssd130x.h ****         SCB_CleanInvalidateDCache_by_Addr(buff, size);
 147:Display/../../libs/PoliTeKDSP/libs/libDaisy/src/dev/oled_ssd130x.h ****         pin_dc_.Write(1);
 148:Display/../../libs/PoliTeKDSP/libs/libDaisy/src/dev/oled_ssd130x.h ****         spi_.DmaTransmit(buff, size, NULL, end_callback, context);
 149:Display/../../libs/PoliTeKDSP/libs/libDaisy/src/dev/oled_ssd130x.h ****     };
 150:Display/../../libs/PoliTeKDSP/libs/libDaisy/src/dev/oled_ssd130x.h **** 
 151:Display/../../libs/PoliTeKDSP/libs/libDaisy/src/dev/oled_ssd130x.h ****   private:
 152:Display/../../libs/PoliTeKDSP/libs/libDaisy/src/dev/oled_ssd130x.h ****     SpiHandle spi_;
 153:Display/../../libs/PoliTeKDSP/libs/libDaisy/src/dev/oled_ssd130x.h ****     GPIO      pin_reset_;
 154:Display/../../libs/PoliTeKDSP/libs/libDaisy/src/dev/oled_ssd130x.h ****     GPIO      pin_dc_;
 155:Display/../../libs/PoliTeKDSP/libs/libDaisy/src/dev/oled_ssd130x.h **** };
 156:Display/../../libs/PoliTeKDSP/libs/libDaisy/src/dev/oled_ssd130x.h **** 
 157:Display/../../libs/PoliTeKDSP/libs/libDaisy/src/dev/oled_ssd130x.h **** /**
 158:Display/../../libs/PoliTeKDSP/libs/libDaisy/src/dev/oled_ssd130x.h ****  * Soft SPI Transport for SSD1306 / SSD1309 OLED display devices
 159:Display/../../libs/PoliTeKDSP/libs/libDaisy/src/dev/oled_ssd130x.h ****  */
 160:Display/../../libs/PoliTeKDSP/libs/libDaisy/src/dev/oled_ssd130x.h **** class SSD130x4WireSoftSpiTransport
 161:Display/../../libs/PoliTeKDSP/libs/libDaisy/src/dev/oled_ssd130x.h **** {
 162:Display/../../libs/PoliTeKDSP/libs/libDaisy/src/dev/oled_ssd130x.h ****   public:
 163:Display/../../libs/PoliTeKDSP/libs/libDaisy/src/dev/oled_ssd130x.h ****     struct Config
 164:Display/../../libs/PoliTeKDSP/libs/libDaisy/src/dev/oled_ssd130x.h ****     {
 165:Display/../../libs/PoliTeKDSP/libs/libDaisy/src/dev/oled_ssd130x.h ****         Config()
 166:Display/../../libs/PoliTeKDSP/libs/libDaisy/src/dev/oled_ssd130x.h ****         {
 167:Display/../../libs/PoliTeKDSP/libs/libDaisy/src/dev/oled_ssd130x.h ****             // Initialize using defaults
 168:Display/../../libs/PoliTeKDSP/libs/libDaisy/src/dev/oled_ssd130x.h ****             Defaults();
 169:Display/../../libs/PoliTeKDSP/libs/libDaisy/src/dev/oled_ssd130x.h ****         }
 170:Display/../../libs/PoliTeKDSP/libs/libDaisy/src/dev/oled_ssd130x.h ****         struct
 171:Display/../../libs/PoliTeKDSP/libs/libDaisy/src/dev/oled_ssd130x.h ****         {
 172:Display/../../libs/PoliTeKDSP/libs/libDaisy/src/dev/oled_ssd130x.h ****             uint32_t sclk_delay;
 173:Display/../../libs/PoliTeKDSP/libs/libDaisy/src/dev/oled_ssd130x.h ****             Pin      sclk;
 174:Display/../../libs/PoliTeKDSP/libs/libDaisy/src/dev/oled_ssd130x.h ****             Pin      mosi;
 175:Display/../../libs/PoliTeKDSP/libs/libDaisy/src/dev/oled_ssd130x.h ****             Pin      dc;
 176:Display/../../libs/PoliTeKDSP/libs/libDaisy/src/dev/oled_ssd130x.h ****             Pin      reset;
 177:Display/../../libs/PoliTeKDSP/libs/libDaisy/src/dev/oled_ssd130x.h ****         } pin_config;
 178:Display/../../libs/PoliTeKDSP/libs/libDaisy/src/dev/oled_ssd130x.h ****         void Defaults()
 179:Display/../../libs/PoliTeKDSP/libs/libDaisy/src/dev/oled_ssd130x.h ****         {
 180:Display/../../libs/PoliTeKDSP/libs/libDaisy/src/dev/oled_ssd130x.h ****             pin_config.sclk_delay = 0; // fast as possible?!
 181:Display/../../libs/PoliTeKDSP/libs/libDaisy/src/dev/oled_ssd130x.h ****             // SPI peripheral config
 182:Display/../../libs/PoliTeKDSP/libs/libDaisy/src/dev/oled_ssd130x.h ****             pin_config.sclk = Pin(PORTD, 3); /**< D10 - SPI2 SCK  */
 183:Display/../../libs/PoliTeKDSP/libs/libDaisy/src/dev/oled_ssd130x.h ****             pin_config.mosi = Pin(PORTC, 3); /**< D9  - SPI2 MOSI */
 184:Display/../../libs/PoliTeKDSP/libs/libDaisy/src/dev/oled_ssd130x.h ****             // SSD130x control pin config
 185:Display/../../libs/PoliTeKDSP/libs/libDaisy/src/dev/oled_ssd130x.h ****             pin_config.dc    = Pin(PORTC, 11); //D2
 186:Display/../../libs/PoliTeKDSP/libs/libDaisy/src/dev/oled_ssd130x.h ****             pin_config.reset = Pin(PORTC, 10); //D3
 187:Display/../../libs/PoliTeKDSP/libs/libDaisy/src/dev/oled_ssd130x.h ****         }
 188:Display/../../libs/PoliTeKDSP/libs/libDaisy/src/dev/oled_ssd130x.h ****     };
 189:Display/../../libs/PoliTeKDSP/libs/libDaisy/src/dev/oled_ssd130x.h ****     void Init(const Config& config)
 190:Display/../../libs/PoliTeKDSP/libs/libDaisy/src/dev/oled_ssd130x.h ****     {
 191:Display/../../libs/PoliTeKDSP/libs/libDaisy/src/dev/oled_ssd130x.h ****         // Initialize both GPIO
 192:Display/../../libs/PoliTeKDSP/libs/libDaisy/src/dev/oled_ssd130x.h ****         pin_sclk_.Init(config.pin_config.sclk, GPIO::Mode::OUTPUT);
 193:Display/../../libs/PoliTeKDSP/libs/libDaisy/src/dev/oled_ssd130x.h ****         pin_sclk_.Write(1); //ClockPolarity::LOW
 194:Display/../../libs/PoliTeKDSP/libs/libDaisy/src/dev/oled_ssd130x.h ****         clk_delay = config.pin_config.sclk_delay;
 195:Display/../../libs/PoliTeKDSP/libs/libDaisy/src/dev/oled_ssd130x.h ****         pin_mosi_.Init(config.pin_config.mosi, GPIO::Mode::OUTPUT);
 196:Display/../../libs/PoliTeKDSP/libs/libDaisy/src/dev/oled_ssd130x.h ****         pin_mosi_.Write(0);
ARM GAS  C:\Users\skipi\AppData\Local\Temp\cctYXDIM.s 			page 7


 197:Display/../../libs/PoliTeKDSP/libs/libDaisy/src/dev/oled_ssd130x.h **** 
 198:Display/../../libs/PoliTeKDSP/libs/libDaisy/src/dev/oled_ssd130x.h ****         pin_dc_.Init(config.pin_config.dc, GPIO::Mode::OUTPUT);
 199:Display/../../libs/PoliTeKDSP/libs/libDaisy/src/dev/oled_ssd130x.h ****         pin_reset_.Init(config.pin_config.reset, GPIO::Mode::OUTPUT);
 200:Display/../../libs/PoliTeKDSP/libs/libDaisy/src/dev/oled_ssd130x.h **** 
 201:Display/../../libs/PoliTeKDSP/libs/libDaisy/src/dev/oled_ssd130x.h ****         // Reset and Configure OLED.
 202:Display/../../libs/PoliTeKDSP/libs/libDaisy/src/dev/oled_ssd130x.h ****         pin_reset_.Write(0);
 203:Display/../../libs/PoliTeKDSP/libs/libDaisy/src/dev/oled_ssd130x.h ****         System::Delay(10);
 204:Display/../../libs/PoliTeKDSP/libs/libDaisy/src/dev/oled_ssd130x.h ****         pin_reset_.Write(1);
 205:Display/../../libs/PoliTeKDSP/libs/libDaisy/src/dev/oled_ssd130x.h ****         System::Delay(10);
 206:Display/../../libs/PoliTeKDSP/libs/libDaisy/src/dev/oled_ssd130x.h ****     };
 207:Display/../../libs/PoliTeKDSP/libs/libDaisy/src/dev/oled_ssd130x.h ****     void SendCommand(uint8_t cmd)
 208:Display/../../libs/PoliTeKDSP/libs/libDaisy/src/dev/oled_ssd130x.h ****     {
 209:Display/../../libs/PoliTeKDSP/libs/libDaisy/src/dev/oled_ssd130x.h ****         pin_dc_.Write(0);
 210:Display/../../libs/PoliTeKDSP/libs/libDaisy/src/dev/oled_ssd130x.h ****         SoftSpiTransmit(cmd);
 211:Display/../../libs/PoliTeKDSP/libs/libDaisy/src/dev/oled_ssd130x.h ****     };
 212:Display/../../libs/PoliTeKDSP/libs/libDaisy/src/dev/oled_ssd130x.h **** 
 213:Display/../../libs/PoliTeKDSP/libs/libDaisy/src/dev/oled_ssd130x.h ****     void SendData(uint8_t* buff, size_t size)
 214:Display/../../libs/PoliTeKDSP/libs/libDaisy/src/dev/oled_ssd130x.h ****     {
 215:Display/../../libs/PoliTeKDSP/libs/libDaisy/src/dev/oled_ssd130x.h ****         pin_dc_.Write(1);
 216:Display/../../libs/PoliTeKDSP/libs/libDaisy/src/dev/oled_ssd130x.h ****         for(size_t i = 0; i < size; i++)
 217:Display/../../libs/PoliTeKDSP/libs/libDaisy/src/dev/oled_ssd130x.h ****             SoftSpiTransmit(buff[i]);
 218:Display/../../libs/PoliTeKDSP/libs/libDaisy/src/dev/oled_ssd130x.h ****     };
 219:Display/../../libs/PoliTeKDSP/libs/libDaisy/src/dev/oled_ssd130x.h **** 
 220:Display/../../libs/PoliTeKDSP/libs/libDaisy/src/dev/oled_ssd130x.h ****   private:
 221:Display/../../libs/PoliTeKDSP/libs/libDaisy/src/dev/oled_ssd130x.h ****     void SoftSpiTransmit(uint8_t val)
 222:Display/../../libs/PoliTeKDSP/libs/libDaisy/src/dev/oled_ssd130x.h ****     {
 223:Display/../../libs/PoliTeKDSP/libs/libDaisy/src/dev/oled_ssd130x.h ****         // bit flip
 224:Display/../../libs/PoliTeKDSP/libs/libDaisy/src/dev/oled_ssd130x.h ****         val = ((val & 0x01) << 7) | ((val & 0x02) << 5) | ((val & 0x04) << 3)
 225:Display/../../libs/PoliTeKDSP/libs/libDaisy/src/dev/oled_ssd130x.h ****               | ((val & 0x08) << 1) | ((val & 0x10) >> 1) | ((val & 0x20) >> 3)
 226:Display/../../libs/PoliTeKDSP/libs/libDaisy/src/dev/oled_ssd130x.h ****               | ((val & 0x40) >> 5) | ((val & 0x80) >> 7);
 227:Display/../../libs/PoliTeKDSP/libs/libDaisy/src/dev/oled_ssd130x.h **** 
 228:Display/../../libs/PoliTeKDSP/libs/libDaisy/src/dev/oled_ssd130x.h ****         for(uint8_t bit = 0u; bit < 8u; bit++)
 229:Display/../../libs/PoliTeKDSP/libs/libDaisy/src/dev/oled_ssd130x.h ****         {
 230:Display/../../libs/PoliTeKDSP/libs/libDaisy/src/dev/oled_ssd130x.h ****             pin_mosi_.Write((val & (1 << bit)) ? 1 : 0);
 231:Display/../../libs/PoliTeKDSP/libs/libDaisy/src/dev/oled_ssd130x.h **** 
 232:Display/../../libs/PoliTeKDSP/libs/libDaisy/src/dev/oled_ssd130x.h ****             System::DelayTicks(clk_delay);
 233:Display/../../libs/PoliTeKDSP/libs/libDaisy/src/dev/oled_ssd130x.h **** 
 234:Display/../../libs/PoliTeKDSP/libs/libDaisy/src/dev/oled_ssd130x.h ****             pin_sclk_.Toggle();
 235:Display/../../libs/PoliTeKDSP/libs/libDaisy/src/dev/oled_ssd130x.h **** 
 236:Display/../../libs/PoliTeKDSP/libs/libDaisy/src/dev/oled_ssd130x.h ****             System::DelayTicks(clk_delay);
 237:Display/../../libs/PoliTeKDSP/libs/libDaisy/src/dev/oled_ssd130x.h **** 
 238:Display/../../libs/PoliTeKDSP/libs/libDaisy/src/dev/oled_ssd130x.h ****             pin_sclk_.Toggle();
 239:Display/../../libs/PoliTeKDSP/libs/libDaisy/src/dev/oled_ssd130x.h ****         }
 240:Display/../../libs/PoliTeKDSP/libs/libDaisy/src/dev/oled_ssd130x.h ****     }
 241:Display/../../libs/PoliTeKDSP/libs/libDaisy/src/dev/oled_ssd130x.h **** 
 242:Display/../../libs/PoliTeKDSP/libs/libDaisy/src/dev/oled_ssd130x.h ****     uint32_t clk_delay;
 243:Display/../../libs/PoliTeKDSP/libs/libDaisy/src/dev/oled_ssd130x.h ****     GPIO     pin_sclk_;
 244:Display/../../libs/PoliTeKDSP/libs/libDaisy/src/dev/oled_ssd130x.h ****     GPIO     pin_mosi_;
 245:Display/../../libs/PoliTeKDSP/libs/libDaisy/src/dev/oled_ssd130x.h ****     GPIO     pin_reset_;
 246:Display/../../libs/PoliTeKDSP/libs/libDaisy/src/dev/oled_ssd130x.h ****     GPIO     pin_dc_;
 247:Display/../../libs/PoliTeKDSP/libs/libDaisy/src/dev/oled_ssd130x.h **** };
 248:Display/../../libs/PoliTeKDSP/libs/libDaisy/src/dev/oled_ssd130x.h **** 
 249:Display/../../libs/PoliTeKDSP/libs/libDaisy/src/dev/oled_ssd130x.h **** 
 250:Display/../../libs/PoliTeKDSP/libs/libDaisy/src/dev/oled_ssd130x.h **** /**
 251:Display/../../libs/PoliTeKDSP/libs/libDaisy/src/dev/oled_ssd130x.h ****  * A driver implementation for the SSD1306/SSD1309
 252:Display/../../libs/PoliTeKDSP/libs/libDaisy/src/dev/oled_ssd130x.h ****  */
 253:Display/../../libs/PoliTeKDSP/libs/libDaisy/src/dev/oled_ssd130x.h **** template <size_t width, size_t height, typename Transport>
ARM GAS  C:\Users\skipi\AppData\Local\Temp\cctYXDIM.s 			page 8


 254:Display/../../libs/PoliTeKDSP/libs/libDaisy/src/dev/oled_ssd130x.h **** class SSD130xDriver
 255:Display/../../libs/PoliTeKDSP/libs/libDaisy/src/dev/oled_ssd130x.h **** {
 256:Display/../../libs/PoliTeKDSP/libs/libDaisy/src/dev/oled_ssd130x.h ****   public:
 257:Display/../../libs/PoliTeKDSP/libs/libDaisy/src/dev/oled_ssd130x.h ****     struct Config
 258:Display/../../libs/PoliTeKDSP/libs/libDaisy/src/dev/oled_ssd130x.h ****     {
 259:Display/../../libs/PoliTeKDSP/libs/libDaisy/src/dev/oled_ssd130x.h ****         typename Transport::Config transport_config;
 260:Display/../../libs/PoliTeKDSP/libs/libDaisy/src/dev/oled_ssd130x.h ****     };
 261:Display/../../libs/PoliTeKDSP/libs/libDaisy/src/dev/oled_ssd130x.h **** 
 262:Display/../../libs/PoliTeKDSP/libs/libDaisy/src/dev/oled_ssd130x.h ****     void Init(Config config)
 263:Display/../../libs/PoliTeKDSP/libs/libDaisy/src/dev/oled_ssd130x.h ****     {
 264:Display/../../libs/PoliTeKDSP/libs/libDaisy/src/dev/oled_ssd130x.h ****         transport_.Init(config.transport_config);
 265:Display/../../libs/PoliTeKDSP/libs/libDaisy/src/dev/oled_ssd130x.h **** 
 266:Display/../../libs/PoliTeKDSP/libs/libDaisy/src/dev/oled_ssd130x.h ****         // Init routine...
 267:Display/../../libs/PoliTeKDSP/libs/libDaisy/src/dev/oled_ssd130x.h **** 
 268:Display/../../libs/PoliTeKDSP/libs/libDaisy/src/dev/oled_ssd130x.h ****         // Display Off
 269:Display/../../libs/PoliTeKDSP/libs/libDaisy/src/dev/oled_ssd130x.h ****         transport_.SendCommand(0xaE);
 270:Display/../../libs/PoliTeKDSP/libs/libDaisy/src/dev/oled_ssd130x.h ****         // Dimension dependent commands...
 271:Display/../../libs/PoliTeKDSP/libs/libDaisy/src/dev/oled_ssd130x.h ****         switch(height)
 272:Display/../../libs/PoliTeKDSP/libs/libDaisy/src/dev/oled_ssd130x.h ****         {
 273:Display/../../libs/PoliTeKDSP/libs/libDaisy/src/dev/oled_ssd130x.h ****             case 16:
 274:Display/../../libs/PoliTeKDSP/libs/libDaisy/src/dev/oled_ssd130x.h ****                 // Display Clock Divide Ratio
 275:Display/../../libs/PoliTeKDSP/libs/libDaisy/src/dev/oled_ssd130x.h ****                 transport_.SendCommand(0xD5);
 276:Display/../../libs/PoliTeKDSP/libs/libDaisy/src/dev/oled_ssd130x.h ****                 transport_.SendCommand(0x60);
 277:Display/../../libs/PoliTeKDSP/libs/libDaisy/src/dev/oled_ssd130x.h ****                 // Multiplex Ratio
 278:Display/../../libs/PoliTeKDSP/libs/libDaisy/src/dev/oled_ssd130x.h ****                 transport_.SendCommand(0xA8);
 279:Display/../../libs/PoliTeKDSP/libs/libDaisy/src/dev/oled_ssd130x.h ****                 transport_.SendCommand(0x0F);
 280:Display/../../libs/PoliTeKDSP/libs/libDaisy/src/dev/oled_ssd130x.h ****                 // COM Pins
 281:Display/../../libs/PoliTeKDSP/libs/libDaisy/src/dev/oled_ssd130x.h ****                 transport_.SendCommand(0xDA);
 282:Display/../../libs/PoliTeKDSP/libs/libDaisy/src/dev/oled_ssd130x.h ****                 transport_.SendCommand(0x02);
 283:Display/../../libs/PoliTeKDSP/libs/libDaisy/src/dev/oled_ssd130x.h ****                 break;
 284:Display/../../libs/PoliTeKDSP/libs/libDaisy/src/dev/oled_ssd130x.h ****             case 32:
 285:Display/../../libs/PoliTeKDSP/libs/libDaisy/src/dev/oled_ssd130x.h ****                 // Display Clock Divide Ratio
 286:Display/../../libs/PoliTeKDSP/libs/libDaisy/src/dev/oled_ssd130x.h ****                 transport_.SendCommand(0xD5);
 287:Display/../../libs/PoliTeKDSP/libs/libDaisy/src/dev/oled_ssd130x.h ****                 transport_.SendCommand(0x80);
 288:Display/../../libs/PoliTeKDSP/libs/libDaisy/src/dev/oled_ssd130x.h ****                 // Multiplex Ratio
 289:Display/../../libs/PoliTeKDSP/libs/libDaisy/src/dev/oled_ssd130x.h ****                 transport_.SendCommand(0xA8);
 290:Display/../../libs/PoliTeKDSP/libs/libDaisy/src/dev/oled_ssd130x.h ****                 transport_.SendCommand(0x1F);
 291:Display/../../libs/PoliTeKDSP/libs/libDaisy/src/dev/oled_ssd130x.h ****                 // COM Pins
 292:Display/../../libs/PoliTeKDSP/libs/libDaisy/src/dev/oled_ssd130x.h ****                 transport_.SendCommand(0xDA);
 293:Display/../../libs/PoliTeKDSP/libs/libDaisy/src/dev/oled_ssd130x.h ****                 if(width == 64)
 294:Display/../../libs/PoliTeKDSP/libs/libDaisy/src/dev/oled_ssd130x.h ****                 {
 295:Display/../../libs/PoliTeKDSP/libs/libDaisy/src/dev/oled_ssd130x.h ****                     transport_.SendCommand(0x12);
 296:Display/../../libs/PoliTeKDSP/libs/libDaisy/src/dev/oled_ssd130x.h ****                 }
 297:Display/../../libs/PoliTeKDSP/libs/libDaisy/src/dev/oled_ssd130x.h ****                 else
 298:Display/../../libs/PoliTeKDSP/libs/libDaisy/src/dev/oled_ssd130x.h ****                 {
 299:Display/../../libs/PoliTeKDSP/libs/libDaisy/src/dev/oled_ssd130x.h ****                     transport_.SendCommand(0x02);
 300:Display/../../libs/PoliTeKDSP/libs/libDaisy/src/dev/oled_ssd130x.h ****                 }
 301:Display/../../libs/PoliTeKDSP/libs/libDaisy/src/dev/oled_ssd130x.h **** 
 302:Display/../../libs/PoliTeKDSP/libs/libDaisy/src/dev/oled_ssd130x.h ****                 break;
 303:Display/../../libs/PoliTeKDSP/libs/libDaisy/src/dev/oled_ssd130x.h ****             case 48:
 304:Display/../../libs/PoliTeKDSP/libs/libDaisy/src/dev/oled_ssd130x.h ****                 // Display Clock Divide Ratio
 305:Display/../../libs/PoliTeKDSP/libs/libDaisy/src/dev/oled_ssd130x.h ****                 transport_.SendCommand(0xD5);
 306:Display/../../libs/PoliTeKDSP/libs/libDaisy/src/dev/oled_ssd130x.h ****                 transport_.SendCommand(0x80);
 307:Display/../../libs/PoliTeKDSP/libs/libDaisy/src/dev/oled_ssd130x.h ****                 // Multiplex Ratio
 308:Display/../../libs/PoliTeKDSP/libs/libDaisy/src/dev/oled_ssd130x.h ****                 transport_.SendCommand(0xA8);
 309:Display/../../libs/PoliTeKDSP/libs/libDaisy/src/dev/oled_ssd130x.h ****                 transport_.SendCommand(0x2F);
 310:Display/../../libs/PoliTeKDSP/libs/libDaisy/src/dev/oled_ssd130x.h ****                 // COM Pins
ARM GAS  C:\Users\skipi\AppData\Local\Temp\cctYXDIM.s 			page 9


 311:Display/../../libs/PoliTeKDSP/libs/libDaisy/src/dev/oled_ssd130x.h ****                 transport_.SendCommand(0xDA);
 312:Display/../../libs/PoliTeKDSP/libs/libDaisy/src/dev/oled_ssd130x.h ****                 transport_.SendCommand(0x12);
 313:Display/../../libs/PoliTeKDSP/libs/libDaisy/src/dev/oled_ssd130x.h ****                 break;
 314:Display/../../libs/PoliTeKDSP/libs/libDaisy/src/dev/oled_ssd130x.h ****             default: // 128
 315:Display/../../libs/PoliTeKDSP/libs/libDaisy/src/dev/oled_ssd130x.h ****                 // Display Clock Divide Ratio
 316:Display/../../libs/PoliTeKDSP/libs/libDaisy/src/dev/oled_ssd130x.h ****                 transport_.SendCommand(0xD5);
 317:Display/../../libs/PoliTeKDSP/libs/libDaisy/src/dev/oled_ssd130x.h ****                 transport_.SendCommand(0x80);
 318:Display/../../libs/PoliTeKDSP/libs/libDaisy/src/dev/oled_ssd130x.h ****                 // Multiplex Ratio
 319:Display/../../libs/PoliTeKDSP/libs/libDaisy/src/dev/oled_ssd130x.h ****                 transport_.SendCommand(0xA8);
 320:Display/../../libs/PoliTeKDSP/libs/libDaisy/src/dev/oled_ssd130x.h ****                 transport_.SendCommand(0x3F);
 321:Display/../../libs/PoliTeKDSP/libs/libDaisy/src/dev/oled_ssd130x.h ****                 // COM Pins
 322:Display/../../libs/PoliTeKDSP/libs/libDaisy/src/dev/oled_ssd130x.h ****                 transport_.SendCommand(0xDA);
 323:Display/../../libs/PoliTeKDSP/libs/libDaisy/src/dev/oled_ssd130x.h ****                 transport_.SendCommand(0x12);
 324:Display/../../libs/PoliTeKDSP/libs/libDaisy/src/dev/oled_ssd130x.h ****                 break;
 325:Display/../../libs/PoliTeKDSP/libs/libDaisy/src/dev/oled_ssd130x.h ****         }
 326:Display/../../libs/PoliTeKDSP/libs/libDaisy/src/dev/oled_ssd130x.h **** 
 327:Display/../../libs/PoliTeKDSP/libs/libDaisy/src/dev/oled_ssd130x.h ****         // Display Offset
 328:Display/../../libs/PoliTeKDSP/libs/libDaisy/src/dev/oled_ssd130x.h ****         transport_.SendCommand(0xD3);
 329:Display/../../libs/PoliTeKDSP/libs/libDaisy/src/dev/oled_ssd130x.h ****         transport_.SendCommand(0x00);
 330:Display/../../libs/PoliTeKDSP/libs/libDaisy/src/dev/oled_ssd130x.h ****         // Start Line Address
 331:Display/../../libs/PoliTeKDSP/libs/libDaisy/src/dev/oled_ssd130x.h ****         transport_.SendCommand(0x40);
 332:Display/../../libs/PoliTeKDSP/libs/libDaisy/src/dev/oled_ssd130x.h ****         // Normal Display
 333:Display/../../libs/PoliTeKDSP/libs/libDaisy/src/dev/oled_ssd130x.h ****         transport_.SendCommand(0xA6);
 334:Display/../../libs/PoliTeKDSP/libs/libDaisy/src/dev/oled_ssd130x.h ****         // All On Resume
 335:Display/../../libs/PoliTeKDSP/libs/libDaisy/src/dev/oled_ssd130x.h ****         transport_.SendCommand(0xA4);
 336:Display/../../libs/PoliTeKDSP/libs/libDaisy/src/dev/oled_ssd130x.h ****         // Charge Pump
 337:Display/../../libs/PoliTeKDSP/libs/libDaisy/src/dev/oled_ssd130x.h ****         transport_.SendCommand(0x8D);
 338:Display/../../libs/PoliTeKDSP/libs/libDaisy/src/dev/oled_ssd130x.h ****         transport_.SendCommand(0x14);
 339:Display/../../libs/PoliTeKDSP/libs/libDaisy/src/dev/oled_ssd130x.h ****         // Set Segment Remap
 340:Display/../../libs/PoliTeKDSP/libs/libDaisy/src/dev/oled_ssd130x.h ****         transport_.SendCommand(0xA1);
 341:Display/../../libs/PoliTeKDSP/libs/libDaisy/src/dev/oled_ssd130x.h ****         // COM Output Scan Direction
 342:Display/../../libs/PoliTeKDSP/libs/libDaisy/src/dev/oled_ssd130x.h ****         transport_.SendCommand(0xC8);
 343:Display/../../libs/PoliTeKDSP/libs/libDaisy/src/dev/oled_ssd130x.h ****         // Contrast Control
 344:Display/../../libs/PoliTeKDSP/libs/libDaisy/src/dev/oled_ssd130x.h ****         transport_.SendCommand(0x81);
 345:Display/../../libs/PoliTeKDSP/libs/libDaisy/src/dev/oled_ssd130x.h ****         transport_.SendCommand(0x8F);
 346:Display/../../libs/PoliTeKDSP/libs/libDaisy/src/dev/oled_ssd130x.h ****         // Pre Charge
 347:Display/../../libs/PoliTeKDSP/libs/libDaisy/src/dev/oled_ssd130x.h ****         transport_.SendCommand(0xD9);
 348:Display/../../libs/PoliTeKDSP/libs/libDaisy/src/dev/oled_ssd130x.h ****         transport_.SendCommand(0x25);
 349:Display/../../libs/PoliTeKDSP/libs/libDaisy/src/dev/oled_ssd130x.h ****         // VCOM Detect
 350:Display/../../libs/PoliTeKDSP/libs/libDaisy/src/dev/oled_ssd130x.h ****         transport_.SendCommand(0xDB);
 351:Display/../../libs/PoliTeKDSP/libs/libDaisy/src/dev/oled_ssd130x.h ****         transport_.SendCommand(0x34);
 352:Display/../../libs/PoliTeKDSP/libs/libDaisy/src/dev/oled_ssd130x.h **** 
 353:Display/../../libs/PoliTeKDSP/libs/libDaisy/src/dev/oled_ssd130x.h **** 
 354:Display/../../libs/PoliTeKDSP/libs/libDaisy/src/dev/oled_ssd130x.h ****         // Display On
 355:Display/../../libs/PoliTeKDSP/libs/libDaisy/src/dev/oled_ssd130x.h ****         transport_.SendCommand(0xAF); //--turn on oled panel
 356:Display/../../libs/PoliTeKDSP/libs/libDaisy/src/dev/oled_ssd130x.h ****     };
 357:Display/../../libs/PoliTeKDSP/libs/libDaisy/src/dev/oled_ssd130x.h **** 
 358:Display/../../libs/PoliTeKDSP/libs/libDaisy/src/dev/oled_ssd130x.h ****     size_t Width() const { return width; };
 359:Display/../../libs/PoliTeKDSP/libs/libDaisy/src/dev/oled_ssd130x.h ****     size_t Height() const { return height; };
 360:Display/../../libs/PoliTeKDSP/libs/libDaisy/src/dev/oled_ssd130x.h **** 
 361:Display/../../libs/PoliTeKDSP/libs/libDaisy/src/dev/oled_ssd130x.h ****     void DrawPixel(uint_fast8_t x, uint_fast8_t y, bool on)
 362:Display/../../libs/PoliTeKDSP/libs/libDaisy/src/dev/oled_ssd130x.h ****     {
 363:Display/../../libs/PoliTeKDSP/libs/libDaisy/src/dev/oled_ssd130x.h ****         if(x >= width || y >= height)
 364:Display/../../libs/PoliTeKDSP/libs/libDaisy/src/dev/oled_ssd130x.h ****             return;
 365:Display/../../libs/PoliTeKDSP/libs/libDaisy/src/dev/oled_ssd130x.h ****         if(on)
 366:Display/../../libs/PoliTeKDSP/libs/libDaisy/src/dev/oled_ssd130x.h ****             buffer_[x + (y / 8) * width] |= (1 << (y % 8));
 367:Display/../../libs/PoliTeKDSP/libs/libDaisy/src/dev/oled_ssd130x.h ****         else
ARM GAS  C:\Users\skipi\AppData\Local\Temp\cctYXDIM.s 			page 10


 368:Display/../../libs/PoliTeKDSP/libs/libDaisy/src/dev/oled_ssd130x.h ****             buffer_[x + (y / 8) * width] &= ~(1 << (y % 8));
 369:Display/../../libs/PoliTeKDSP/libs/libDaisy/src/dev/oled_ssd130x.h ****     }
 370:Display/../../libs/PoliTeKDSP/libs/libDaisy/src/dev/oled_ssd130x.h **** 
 371:Display/../../libs/PoliTeKDSP/libs/libDaisy/src/dev/oled_ssd130x.h ****     void Fill(bool on)
 105              		.loc 2 371 10 view .LVU1
 106              	.LBB16:
 372:Display/../../libs/PoliTeKDSP/libs/libDaisy/src/dev/oled_ssd130x.h ****     {
 373:Display/../../libs/PoliTeKDSP/libs/libDaisy/src/dev/oled_ssd130x.h ****         for(size_t i = 0; i < sizeof(buffer_); i++)
 107              		.loc 2 373 29 view .LVU2
 374:Display/../../libs/PoliTeKDSP/libs/libDaisy/src/dev/oled_ssd130x.h ****         {
 375:Display/../../libs/PoliTeKDSP/libs/libDaisy/src/dev/oled_ssd130x.h ****             buffer_[i] = on ? 0xff : 0x00;
 108              		.loc 2 375 24 is_stmt 0 view .LVU3
 109 0000 4942     		rsbs	r1, r1, #0
 110              	.LVL1:
 111              		.loc 2 375 24 view .LVU4
 112 0002 4FF48062 		mov	r2, #1024
 113 0006 1030     		adds	r0, r0, #16
 114              	.LVL2:
 115              		.loc 2 375 24 view .LVU5
 116 0008 C9B2     		uxtb	r1, r1
 117 000a FFF7FEBF 		b	memset
 118              	.LVL3:
 119              		.loc 2 375 24 view .LVU6
 120              	.LBE16:
 121              	.LBE15:
 122              		.cfi_endproc
 123              	.LFE2808:
 125 000e 00BF     		.section	.text._ZN5daisy11OledDisplayINS_13SSD130xDriverILj128ELj64ENS_19SSD130xI2CTransportEEEE6U
 126              		.align	1
 127              		.p2align 2,,3
 128              		.weak	_ZN5daisy11OledDisplayINS_13SSD130xDriverILj128ELj64ENS_19SSD130xI2CTransportEEEE6UpdateEv
 129              		.syntax unified
 130              		.thumb
 131              		.thumb_func
 132              		.fpu fpv5-d16
 134              	_ZN5daisy11OledDisplayINS_13SSD130xDriverILj128ELj64ENS_19SSD130xI2CTransportEEEE6UpdateEv:
 135              	.LVL4:
 136              	.LFB2807:
  35:Display/../../libs/PoliTeKDSP/libs/libDaisy/src/hid/disp/oled_display.h **** 
  36:Display/../../libs/PoliTeKDSP/libs/libDaisy/src/hid/disp/oled_display.h ****     /**
  37:Display/../../libs/PoliTeKDSP/libs/libDaisy/src/hid/disp/oled_display.h ****     Sets the pixel at the specified coordinate to be on/off.
  38:Display/../../libs/PoliTeKDSP/libs/libDaisy/src/hid/disp/oled_display.h ****     \param x   x Coordinate
  39:Display/../../libs/PoliTeKDSP/libs/libDaisy/src/hid/disp/oled_display.h ****     \param y   y coordinate
  40:Display/../../libs/PoliTeKDSP/libs/libDaisy/src/hid/disp/oled_display.h ****     \param on  on or off
  41:Display/../../libs/PoliTeKDSP/libs/libDaisy/src/hid/disp/oled_display.h ****     */
  42:Display/../../libs/PoliTeKDSP/libs/libDaisy/src/hid/disp/oled_display.h ****     void DrawPixel(uint_fast8_t x, uint_fast8_t y, bool on) override
  43:Display/../../libs/PoliTeKDSP/libs/libDaisy/src/hid/disp/oled_display.h ****     {
  44:Display/../../libs/PoliTeKDSP/libs/libDaisy/src/hid/disp/oled_display.h ****         driver_.DrawPixel(x, y, on);
  45:Display/../../libs/PoliTeKDSP/libs/libDaisy/src/hid/disp/oled_display.h ****     }
  46:Display/../../libs/PoliTeKDSP/libs/libDaisy/src/hid/disp/oled_display.h **** 
  47:Display/../../libs/PoliTeKDSP/libs/libDaisy/src/hid/disp/oled_display.h ****     /** 
  48:Display/../../libs/PoliTeKDSP/libs/libDaisy/src/hid/disp/oled_display.h ****     Writes the current display buffer to the OLED device using SPI or I2C depending on 
  49:Display/../../libs/PoliTeKDSP/libs/libDaisy/src/hid/disp/oled_display.h ****     how the object was initialized.
  50:Display/../../libs/PoliTeKDSP/libs/libDaisy/src/hid/disp/oled_display.h ****     */
  51:Display/../../libs/PoliTeKDSP/libs/libDaisy/src/hid/disp/oled_display.h ****     void Update() override { driver_.Update(); }
 137              		.loc 1 51 10 is_stmt 1 view -0
 138              		.cfi_startproc
ARM GAS  C:\Users\skipi\AppData\Local\Temp\cctYXDIM.s 			page 11


 139              		@ args = 0, pretend = 0, frame = 8
 140              		@ frame_needed = 0, uses_anonymous_args = 0
 141              		.loc 1 51 10 is_stmt 0 view .LVU8
 142 0000 2DE9F04F 		push	{r4, r5, r6, r7, r8, r9, r10, fp, lr}
 143              		.cfi_def_cfa_offset 36
 144              		.cfi_offset 4, -36
 145              		.cfi_offset 5, -32
 146              		.cfi_offset 6, -28
 147              		.cfi_offset 7, -24
 148              		.cfi_offset 8, -20
 149              		.cfi_offset 9, -16
 150              		.cfi_offset 10, -12
 151              		.cfi_offset 11, -8
 152              		.cfi_offset 14, -4
 153              	.LBB29:
 154              	.LBB30:
 155              	.LBB31:
 156              	.LBB32:
  46:Display/../../libs/PoliTeKDSP/libs/libDaisy/src/dev/oled_ssd130x.h ****     };
 157              		.loc 2 46 30 view .LVU9
 158 0004 4FF0B008 		mov	r8, #176
 159              	.LBE32:
 160              	.LBE31:
 161              	.LBE30:
 162              	.LBE29:
 163              		.loc 1 51 10 view .LVU10
 164 0008 85B0     		sub	sp, sp, #20
 165              		.cfi_def_cfa_offset 56
 166              		.loc 1 51 10 view .LVU11
 167 000a 0546     		mov	r5, r0
 168              	.LVL5:
 169              	.LBB44:
 170              	.LBI29:
 376:Display/../../libs/PoliTeKDSP/libs/libDaisy/src/dev/oled_ssd130x.h ****         }
 377:Display/../../libs/PoliTeKDSP/libs/libDaisy/src/dev/oled_ssd130x.h ****     };
 378:Display/../../libs/PoliTeKDSP/libs/libDaisy/src/dev/oled_ssd130x.h **** 
 379:Display/../../libs/PoliTeKDSP/libs/libDaisy/src/dev/oled_ssd130x.h ****     /**
 380:Display/../../libs/PoliTeKDSP/libs/libDaisy/src/dev/oled_ssd130x.h ****      * Update the display
 381:Display/../../libs/PoliTeKDSP/libs/libDaisy/src/dev/oled_ssd130x.h ****     */
 382:Display/../../libs/PoliTeKDSP/libs/libDaisy/src/dev/oled_ssd130x.h ****     void Update()
 171              		.loc 2 382 10 is_stmt 1 view .LVU12
 172              	.LBB43:
 383:Display/../../libs/PoliTeKDSP/libs/libDaisy/src/dev/oled_ssd130x.h ****     {
 384:Display/../../libs/PoliTeKDSP/libs/libDaisy/src/dev/oled_ssd130x.h ****         uint8_t i;
 385:Display/../../libs/PoliTeKDSP/libs/libDaisy/src/dev/oled_ssd130x.h ****         uint8_t high_column_addr;
 386:Display/../../libs/PoliTeKDSP/libs/libDaisy/src/dev/oled_ssd130x.h ****         switch(height)
 387:Display/../../libs/PoliTeKDSP/libs/libDaisy/src/dev/oled_ssd130x.h ****         {
 388:Display/../../libs/PoliTeKDSP/libs/libDaisy/src/dev/oled_ssd130x.h ****             case 32: high_column_addr = 0x12; break;
 389:Display/../../libs/PoliTeKDSP/libs/libDaisy/src/dev/oled_ssd130x.h **** 
 390:Display/../../libs/PoliTeKDSP/libs/libDaisy/src/dev/oled_ssd130x.h ****             default: high_column_addr = 0x10; break;
 391:Display/../../libs/PoliTeKDSP/libs/libDaisy/src/dev/oled_ssd130x.h ****         }
 392:Display/../../libs/PoliTeKDSP/libs/libDaisy/src/dev/oled_ssd130x.h ****         for(i = 0; i < (height / 8); i++)
 173              		.loc 2 392 22 view .LVU13
 174              	.LBB35:
 175              	.LBB33:
  46:Display/../../libs/PoliTeKDSP/libs/libDaisy/src/dev/oled_ssd130x.h ****     };
 176              		.loc 2 46 30 is_stmt 0 view .LVU14
ARM GAS  C:\Users\skipi\AppData\Local\Temp\cctYXDIM.s 			page 12


 177 000c 00F10807 		add	r7, r0, #8
 178              	.LVL6:
  46:Display/../../libs/PoliTeKDSP/libs/libDaisy/src/dev/oled_ssd130x.h ****     };
 179              		.loc 2 46 30 view .LVU15
 180 0010 00F18F06 		add	r6, r0, #143
 181 0014 00F28F49 		addw	r9, r0, #1167
 182              	.LVL7:
 183              	.L5:
  46:Display/../../libs/PoliTeKDSP/libs/libDaisy/src/dev/oled_ssd130x.h ****     };
 184              		.loc 2 46 30 view .LVU16
 185              	.LBE33:
 186              	.LBI31:
  43:Display/../../libs/PoliTeKDSP/libs/libDaisy/src/dev/oled_ssd130x.h ****     {
 187              		.loc 2 43 10 is_stmt 1 view .LVU17
 188              	.LBB34:
  45:Display/../../libs/PoliTeKDSP/libs/libDaisy/src/dev/oled_ssd130x.h ****         i2c_.TransmitBlocking(i2c_address_, buf, 2, 1000);
 189              		.loc 2 45 9 view .LVU18
  46:Display/../../libs/PoliTeKDSP/libs/libDaisy/src/dev/oled_ssd130x.h ****     };
 190              		.loc 2 46 30 is_stmt 0 view .LVU19
 191 0018 4FF47A7B 		mov	fp, #1000
  45:Display/../../libs/PoliTeKDSP/libs/libDaisy/src/dev/oled_ssd130x.h ****         i2c_.TransmitBlocking(i2c_address_, buf, 2, 1000);
 192              		.loc 2 45 17 view .LVU20
 193 001c 4FF0000A 		mov	r10, #0
  46:Display/../../libs/PoliTeKDSP/libs/libDaisy/src/dev/oled_ssd130x.h ****     };
 194              		.loc 2 46 30 view .LVU21
 195 0020 297B     		ldrb	r1, [r5, #12]	@ zero_extendqisi2
 196 0022 0223     		movs	r3, #2
 197 0024 03AA     		add	r2, sp, #12
 198 0026 3846     		mov	r0, r7
 199 0028 CDF800B0 		str	fp, [sp]
 200 002c A6F18004 		sub	r4, r6, #128
  45:Display/../../libs/PoliTeKDSP/libs/libDaisy/src/dev/oled_ssd130x.h ****         i2c_.TransmitBlocking(i2c_address_, buf, 2, 1000);
 201              		.loc 2 45 17 view .LVU22
 202 0030 8DF80CA0 		strb	r10, [sp, #12]
  45:Display/../../libs/PoliTeKDSP/libs/libDaisy/src/dev/oled_ssd130x.h ****         i2c_.TransmitBlocking(i2c_address_, buf, 2, 1000);
 203              		.loc 2 45 36 view .LVU23
 204 0034 8DF80D80 		strb	r8, [sp, #13]
  46:Display/../../libs/PoliTeKDSP/libs/libDaisy/src/dev/oled_ssd130x.h ****     };
 205              		.loc 2 46 9 is_stmt 1 view .LVU24
  46:Display/../../libs/PoliTeKDSP/libs/libDaisy/src/dev/oled_ssd130x.h ****     };
 206              		.loc 2 46 30 is_stmt 0 view .LVU25
 207 0038 FFF7FEFF 		bl	_ZN5daisy9I2CHandle16TransmitBlockingEtPhtm
 208              	.LVL8:
  46:Display/../../libs/PoliTeKDSP/libs/libDaisy/src/dev/oled_ssd130x.h ****     };
 209              		.loc 2 46 30 view .LVU26
 210              	.LBE34:
 211              	.LBE35:
 212              	.LBB36:
 213              	.LBI36:
  43:Display/../../libs/PoliTeKDSP/libs/libDaisy/src/dev/oled_ssd130x.h ****     {
 214              		.loc 2 43 10 is_stmt 1 view .LVU27
 215              	.LBB37:
  45:Display/../../libs/PoliTeKDSP/libs/libDaisy/src/dev/oled_ssd130x.h ****         i2c_.TransmitBlocking(i2c_address_, buf, 2, 1000);
 216              		.loc 2 45 9 view .LVU28
  46:Display/../../libs/PoliTeKDSP/libs/libDaisy/src/dev/oled_ssd130x.h ****     };
 217              		.loc 2 46 30 is_stmt 0 view .LVU29
 218 003c 297B     		ldrb	r1, [r5, #12]	@ zero_extendqisi2
ARM GAS  C:\Users\skipi\AppData\Local\Temp\cctYXDIM.s 			page 13


 219 003e 0223     		movs	r3, #2
 220 0040 03AA     		add	r2, sp, #12
 221 0042 3846     		mov	r0, r7
 222 0044 CDF800B0 		str	fp, [sp]
  45:Display/../../libs/PoliTeKDSP/libs/libDaisy/src/dev/oled_ssd130x.h ****         i2c_.TransmitBlocking(i2c_address_, buf, 2, 1000);
 223              		.loc 2 45 17 view .LVU30
 224 0048 8DF80CA0 		strb	r10, [sp, #12]
  45:Display/../../libs/PoliTeKDSP/libs/libDaisy/src/dev/oled_ssd130x.h ****         i2c_.TransmitBlocking(i2c_address_, buf, 2, 1000);
 225              		.loc 2 45 36 view .LVU31
 226 004c 8DF80DA0 		strb	r10, [sp, #13]
  46:Display/../../libs/PoliTeKDSP/libs/libDaisy/src/dev/oled_ssd130x.h ****     };
 227              		.loc 2 46 9 is_stmt 1 view .LVU32
  46:Display/../../libs/PoliTeKDSP/libs/libDaisy/src/dev/oled_ssd130x.h ****     };
 228              		.loc 2 46 30 is_stmt 0 view .LVU33
 229 0050 FFF7FEFF 		bl	_ZN5daisy9I2CHandle16TransmitBlockingEtPhtm
 230              	.LVL9:
  46:Display/../../libs/PoliTeKDSP/libs/libDaisy/src/dev/oled_ssd130x.h ****     };
 231              		.loc 2 46 30 view .LVU34
 232              	.LBE37:
 233              	.LBE36:
 234              	.LBB38:
 235              	.LBI38:
  43:Display/../../libs/PoliTeKDSP/libs/libDaisy/src/dev/oled_ssd130x.h ****     {
 236              		.loc 2 43 10 is_stmt 1 view .LVU35
 237              	.LBB39:
  45:Display/../../libs/PoliTeKDSP/libs/libDaisy/src/dev/oled_ssd130x.h ****         i2c_.TransmitBlocking(i2c_address_, buf, 2, 1000);
 238              		.loc 2 45 9 view .LVU36
  45:Display/../../libs/PoliTeKDSP/libs/libDaisy/src/dev/oled_ssd130x.h ****         i2c_.TransmitBlocking(i2c_address_, buf, 2, 1000);
 239              		.loc 2 45 36 is_stmt 0 view .LVU37
 240 0054 4FF0100C 		mov	ip, #16
  46:Display/../../libs/PoliTeKDSP/libs/libDaisy/src/dev/oled_ssd130x.h ****     };
 241              		.loc 2 46 30 view .LVU38
 242 0058 297B     		ldrb	r1, [r5, #12]	@ zero_extendqisi2
 243 005a 0223     		movs	r3, #2
 244 005c 03AA     		add	r2, sp, #12
 245 005e 3846     		mov	r0, r7
 246 0060 CDF800B0 		str	fp, [sp]
  45:Display/../../libs/PoliTeKDSP/libs/libDaisy/src/dev/oled_ssd130x.h ****         i2c_.TransmitBlocking(i2c_address_, buf, 2, 1000);
 247              		.loc 2 45 17 view .LVU39
 248 0064 8DF80CA0 		strb	r10, [sp, #12]
  45:Display/../../libs/PoliTeKDSP/libs/libDaisy/src/dev/oled_ssd130x.h ****         i2c_.TransmitBlocking(i2c_address_, buf, 2, 1000);
 249              		.loc 2 45 36 view .LVU40
 250 0068 8DF80DC0 		strb	ip, [sp, #13]
  46:Display/../../libs/PoliTeKDSP/libs/libDaisy/src/dev/oled_ssd130x.h ****     };
 251              		.loc 2 46 9 is_stmt 1 view .LVU41
  46:Display/../../libs/PoliTeKDSP/libs/libDaisy/src/dev/oled_ssd130x.h ****     };
 252              		.loc 2 46 30 is_stmt 0 view .LVU42
 253 006c FFF7FEFF 		bl	_ZN5daisy9I2CHandle16TransmitBlockingEtPhtm
 254              	.LVL10:
  46:Display/../../libs/PoliTeKDSP/libs/libDaisy/src/dev/oled_ssd130x.h ****     };
 255              		.loc 2 46 30 view .LVU43
 256              	.LBE39:
 257              	.LBE38:
 258              	.LBB40:
 259              	.LBI40:
  49:Display/../../libs/PoliTeKDSP/libs/libDaisy/src/dev/oled_ssd130x.h ****     {
 260              		.loc 2 49 10 is_stmt 1 view .LVU44
ARM GAS  C:\Users\skipi\AppData\Local\Temp\cctYXDIM.s 			page 14


 261              	.LBB41:
  51:Display/../../libs/PoliTeKDSP/libs/libDaisy/src/dev/oled_ssd130x.h ****         {
 262              		.loc 2 51 29 view .LVU45
 263              	.L4:
 264              	.LBB42:
  53:Display/../../libs/PoliTeKDSP/libs/libDaisy/src/dev/oled_ssd130x.h ****             i2c_.TransmitBlocking(i2c_address_, buf, 2, 1000);
 265              		.loc 2 53 13 view .LVU46
  54:Display/../../libs/PoliTeKDSP/libs/libDaisy/src/dev/oled_ssd130x.h ****         }
 266              		.loc 2 54 34 is_stmt 0 view .LVU47
 267 0070 4FF47A70 		mov	r0, #1000
  53:Display/../../libs/PoliTeKDSP/libs/libDaisy/src/dev/oled_ssd130x.h ****             i2c_.TransmitBlocking(i2c_address_, buf, 2, 1000);
 268              		.loc 2 53 44 view .LVU48
 269 0074 14F801CF 		ldrb	ip, [r4, #1]!	@ zero_extendqisi2
 270              	.LVL11:
  53:Display/../../libs/PoliTeKDSP/libs/libDaisy/src/dev/oled_ssd130x.h ****             i2c_.TransmitBlocking(i2c_address_, buf, 2, 1000);
 271              		.loc 2 53 21 view .LVU49
 272 0078 4FF0400E 		mov	lr, #64
  54:Display/../../libs/PoliTeKDSP/libs/libDaisy/src/dev/oled_ssd130x.h ****         }
 273              		.loc 2 54 34 view .LVU50
 274 007c 297B     		ldrb	r1, [r5, #12]	@ zero_extendqisi2
 275 007e 0223     		movs	r3, #2
 276 0080 0090     		str	r0, [sp]
 277 0082 03AA     		add	r2, sp, #12
 278 0084 3846     		mov	r0, r7
  53:Display/../../libs/PoliTeKDSP/libs/libDaisy/src/dev/oled_ssd130x.h ****             i2c_.TransmitBlocking(i2c_address_, buf, 2, 1000);
 279              		.loc 2 53 21 view .LVU51
 280 0086 8DF80CE0 		strb	lr, [sp, #12]
  53:Display/../../libs/PoliTeKDSP/libs/libDaisy/src/dev/oled_ssd130x.h ****             i2c_.TransmitBlocking(i2c_address_, buf, 2, 1000);
 281              		.loc 2 53 44 view .LVU52
 282 008a 8DF80DC0 		strb	ip, [sp, #13]
  54:Display/../../libs/PoliTeKDSP/libs/libDaisy/src/dev/oled_ssd130x.h ****         }
 283              		.loc 2 54 13 is_stmt 1 view .LVU53
  54:Display/../../libs/PoliTeKDSP/libs/libDaisy/src/dev/oled_ssd130x.h ****         }
 284              		.loc 2 54 34 is_stmt 0 view .LVU54
 285 008e FFF7FEFF 		bl	_ZN5daisy9I2CHandle16TransmitBlockingEtPhtm
 286              	.LVL12:
 287              	.LBE42:
  51:Display/../../libs/PoliTeKDSP/libs/libDaisy/src/dev/oled_ssd130x.h ****         {
 288              		.loc 2 51 9 is_stmt 1 view .LVU55
  51:Display/../../libs/PoliTeKDSP/libs/libDaisy/src/dev/oled_ssd130x.h ****         {
 289              		.loc 2 51 29 view .LVU56
 290 0092 B442     		cmp	r4, r6
 291 0094 ECD1     		bne	.L4
 292              	.LVL13:
  51:Display/../../libs/PoliTeKDSP/libs/libDaisy/src/dev/oled_ssd130x.h ****         {
 293              		.loc 2 51 29 is_stmt 0 view .LVU57
 294              	.LBE41:
 295              	.LBE40:
 296              		.loc 2 392 9 is_stmt 1 view .LVU58
 297              		.loc 2 392 22 view .LVU59
 298 0096 04F18006 		add	r6, r4, #128
 299 009a 08F10108 		add	r8, r8, #1
 300              	.LVL14:
 301              		.loc 2 392 22 is_stmt 0 view .LVU60
 302 009e 4E45     		cmp	r6, r9
 303 00a0 5FFA88F8 		uxtb	r8, r8
 304 00a4 B8D1     		bne	.L5
ARM GAS  C:\Users\skipi\AppData\Local\Temp\cctYXDIM.s 			page 15


 305              	.LBE43:
 306              	.LBE44:
 307              		.loc 1 51 48 view .LVU61
 308 00a6 05B0     		add	sp, sp, #20
 309              		.cfi_def_cfa_offset 36
 310              		@ sp needed
 311 00a8 BDE8F08F 		pop	{r4, r5, r6, r7, r8, r9, r10, fp, pc}
 312              		.loc 1 51 48 view .LVU62
 313              		.cfi_endproc
 314              	.LFE2807:
 316              		.section	.text._ZN5daisy25OneBitGraphicsDisplayImplINS_11OledDisplayINS_13SSD130xDriverILj128ELj64
 317              		.align	1
 318              		.p2align 2,,3
 319              		.weak	_ZN5daisy25OneBitGraphicsDisplayImplINS_11OledDisplayINS_13SSD130xDriverILj128ELj64ENS_19SSD
 320              		.syntax unified
 321              		.thumb
 322              		.thumb_func
 323              		.fpu fpv5-d16
 325              	_ZN5daisy25OneBitGraphicsDisplayImplINS_11OledDisplayINS_13SSD130xDriverILj128ELj64ENS_19SSD130xI2C
 326              	.LVL15:
 327              	.LFB2809:
 328              		.file 3 "Display/../../libs/PoliTeKDSP/libs/libDaisy/src/hid/disp/display.h"
   1:Display/../../libs/PoliTeKDSP/libs/libDaisy/src/hid/disp/display.h **** #pragma once
   2:Display/../../libs/PoliTeKDSP/libs/libDaisy/src/hid/disp/display.h **** #ifndef DSY_DISPLAY_H
   3:Display/../../libs/PoliTeKDSP/libs/libDaisy/src/hid/disp/display.h **** #define DSY_DISPLAY_H /**< Macro */
   4:Display/../../libs/PoliTeKDSP/libs/libDaisy/src/hid/disp/display.h **** #include <cmath>
   5:Display/../../libs/PoliTeKDSP/libs/libDaisy/src/hid/disp/display.h **** #include "util/oled_fonts.h"
   6:Display/../../libs/PoliTeKDSP/libs/libDaisy/src/hid/disp/display.h **** #include "daisy_core.h"
   7:Display/../../libs/PoliTeKDSP/libs/libDaisy/src/hid/disp/display.h **** #include "graphics_common.h"
   8:Display/../../libs/PoliTeKDSP/libs/libDaisy/src/hid/disp/display.h **** 
   9:Display/../../libs/PoliTeKDSP/libs/libDaisy/src/hid/disp/display.h **** #ifndef deg2rad
  10:Display/../../libs/PoliTeKDSP/libs/libDaisy/src/hid/disp/display.h **** #define deg2rad(deg) ((deg)*3.141592 / 180.0)
  11:Display/../../libs/PoliTeKDSP/libs/libDaisy/src/hid/disp/display.h **** #endif
  12:Display/../../libs/PoliTeKDSP/libs/libDaisy/src/hid/disp/display.h **** 
  13:Display/../../libs/PoliTeKDSP/libs/libDaisy/src/hid/disp/display.h **** namespace daisy
  14:Display/../../libs/PoliTeKDSP/libs/libDaisy/src/hid/disp/display.h **** {
  15:Display/../../libs/PoliTeKDSP/libs/libDaisy/src/hid/disp/display.h **** /** 
  16:Display/../../libs/PoliTeKDSP/libs/libDaisy/src/hid/disp/display.h ****  * This interface is used as a base class for all types of 1bit-per-pixel
  17:Display/../../libs/PoliTeKDSP/libs/libDaisy/src/hid/disp/display.h ****  * graphics displays.
  18:Display/../../libs/PoliTeKDSP/libs/libDaisy/src/hid/disp/display.h **** */
  19:Display/../../libs/PoliTeKDSP/libs/libDaisy/src/hid/disp/display.h **** class OneBitGraphicsDisplay
  20:Display/../../libs/PoliTeKDSP/libs/libDaisy/src/hid/disp/display.h **** {
  21:Display/../../libs/PoliTeKDSP/libs/libDaisy/src/hid/disp/display.h ****   public:
  22:Display/../../libs/PoliTeKDSP/libs/libDaisy/src/hid/disp/display.h ****     OneBitGraphicsDisplay() {}
  23:Display/../../libs/PoliTeKDSP/libs/libDaisy/src/hid/disp/display.h ****     virtual ~OneBitGraphicsDisplay() {}
  24:Display/../../libs/PoliTeKDSP/libs/libDaisy/src/hid/disp/display.h **** 
  25:Display/../../libs/PoliTeKDSP/libs/libDaisy/src/hid/disp/display.h ****     virtual uint16_t Height() const = 0;
  26:Display/../../libs/PoliTeKDSP/libs/libDaisy/src/hid/disp/display.h ****     virtual uint16_t Width() const  = 0;
  27:Display/../../libs/PoliTeKDSP/libs/libDaisy/src/hid/disp/display.h **** 
  28:Display/../../libs/PoliTeKDSP/libs/libDaisy/src/hid/disp/display.h ****     Rectangle GetBounds() const
  29:Display/../../libs/PoliTeKDSP/libs/libDaisy/src/hid/disp/display.h ****     {
  30:Display/../../libs/PoliTeKDSP/libs/libDaisy/src/hid/disp/display.h ****         return Rectangle(int16_t(Width()), int16_t(Height()));
  31:Display/../../libs/PoliTeKDSP/libs/libDaisy/src/hid/disp/display.h ****     }
  32:Display/../../libs/PoliTeKDSP/libs/libDaisy/src/hid/disp/display.h **** 
  33:Display/../../libs/PoliTeKDSP/libs/libDaisy/src/hid/disp/display.h **** 
  34:Display/../../libs/PoliTeKDSP/libs/libDaisy/src/hid/disp/display.h ****     size_t CurrentX() { return currentX_; };
  35:Display/../../libs/PoliTeKDSP/libs/libDaisy/src/hid/disp/display.h ****     size_t CurrentY() { return currentY_; };
ARM GAS  C:\Users\skipi\AppData\Local\Temp\cctYXDIM.s 			page 16


  36:Display/../../libs/PoliTeKDSP/libs/libDaisy/src/hid/disp/display.h **** 
  37:Display/../../libs/PoliTeKDSP/libs/libDaisy/src/hid/disp/display.h ****     /** 
  38:Display/../../libs/PoliTeKDSP/libs/libDaisy/src/hid/disp/display.h ****     Fills the entire display with either on/off.
  39:Display/../../libs/PoliTeKDSP/libs/libDaisy/src/hid/disp/display.h ****     \param on Sets on or off.
  40:Display/../../libs/PoliTeKDSP/libs/libDaisy/src/hid/disp/display.h ****     */
  41:Display/../../libs/PoliTeKDSP/libs/libDaisy/src/hid/disp/display.h ****     virtual void Fill(bool on) = 0;
  42:Display/../../libs/PoliTeKDSP/libs/libDaisy/src/hid/disp/display.h **** 
  43:Display/../../libs/PoliTeKDSP/libs/libDaisy/src/hid/disp/display.h ****     /**
  44:Display/../../libs/PoliTeKDSP/libs/libDaisy/src/hid/disp/display.h ****     Sets the pixel at the specified coordinate to be on/off.
  45:Display/../../libs/PoliTeKDSP/libs/libDaisy/src/hid/disp/display.h ****     \param x   x Coordinate
  46:Display/../../libs/PoliTeKDSP/libs/libDaisy/src/hid/disp/display.h ****     \param y   y coordinate
  47:Display/../../libs/PoliTeKDSP/libs/libDaisy/src/hid/disp/display.h ****     \param on  on or off
  48:Display/../../libs/PoliTeKDSP/libs/libDaisy/src/hid/disp/display.h ****     */
  49:Display/../../libs/PoliTeKDSP/libs/libDaisy/src/hid/disp/display.h ****     virtual void DrawPixel(uint_fast8_t x, uint_fast8_t y, bool on) = 0;
  50:Display/../../libs/PoliTeKDSP/libs/libDaisy/src/hid/disp/display.h **** 
  51:Display/../../libs/PoliTeKDSP/libs/libDaisy/src/hid/disp/display.h ****     /**
  52:Display/../../libs/PoliTeKDSP/libs/libDaisy/src/hid/disp/display.h ****     Draws a line from (x1, y1) to (y1, y2)
  53:Display/../../libs/PoliTeKDSP/libs/libDaisy/src/hid/disp/display.h ****     \param x1  x Coordinate of the starting point
  54:Display/../../libs/PoliTeKDSP/libs/libDaisy/src/hid/disp/display.h ****     \param y1  y Coordinate of the starting point
  55:Display/../../libs/PoliTeKDSP/libs/libDaisy/src/hid/disp/display.h ****     \param x2  x Coordinate of the ending point
  56:Display/../../libs/PoliTeKDSP/libs/libDaisy/src/hid/disp/display.h ****     \param y2  y Coordinate of the ending point
  57:Display/../../libs/PoliTeKDSP/libs/libDaisy/src/hid/disp/display.h ****     \param on  on or off
  58:Display/../../libs/PoliTeKDSP/libs/libDaisy/src/hid/disp/display.h ****     */
  59:Display/../../libs/PoliTeKDSP/libs/libDaisy/src/hid/disp/display.h ****     virtual void DrawLine(uint_fast8_t x1,
  60:Display/../../libs/PoliTeKDSP/libs/libDaisy/src/hid/disp/display.h ****                           uint_fast8_t y1,
  61:Display/../../libs/PoliTeKDSP/libs/libDaisy/src/hid/disp/display.h ****                           uint_fast8_t x2,
  62:Display/../../libs/PoliTeKDSP/libs/libDaisy/src/hid/disp/display.h ****                           uint_fast8_t y2,
  63:Display/../../libs/PoliTeKDSP/libs/libDaisy/src/hid/disp/display.h ****                           bool         on)
  64:Display/../../libs/PoliTeKDSP/libs/libDaisy/src/hid/disp/display.h ****         = 0;
  65:Display/../../libs/PoliTeKDSP/libs/libDaisy/src/hid/disp/display.h **** 
  66:Display/../../libs/PoliTeKDSP/libs/libDaisy/src/hid/disp/display.h ****     /**
  67:Display/../../libs/PoliTeKDSP/libs/libDaisy/src/hid/disp/display.h ****     Draws a rectangle based on two coordinates.
  68:Display/../../libs/PoliTeKDSP/libs/libDaisy/src/hid/disp/display.h ****     \param x1 x Coordinate of the first point
  69:Display/../../libs/PoliTeKDSP/libs/libDaisy/src/hid/disp/display.h ****     \param y1 y Coordinate of the first point
  70:Display/../../libs/PoliTeKDSP/libs/libDaisy/src/hid/disp/display.h ****     \param x2 x Coordinate of the second point
  71:Display/../../libs/PoliTeKDSP/libs/libDaisy/src/hid/disp/display.h ****     \param y2 y Coordinate of the second point
  72:Display/../../libs/PoliTeKDSP/libs/libDaisy/src/hid/disp/display.h ****     \param on on or off
  73:Display/../../libs/PoliTeKDSP/libs/libDaisy/src/hid/disp/display.h ****     \param fill fill the rectangle or draw only the outline
  74:Display/../../libs/PoliTeKDSP/libs/libDaisy/src/hid/disp/display.h ****     */
  75:Display/../../libs/PoliTeKDSP/libs/libDaisy/src/hid/disp/display.h ****     virtual void DrawRect(uint_fast8_t x1,
  76:Display/../../libs/PoliTeKDSP/libs/libDaisy/src/hid/disp/display.h ****                           uint_fast8_t y1,
  77:Display/../../libs/PoliTeKDSP/libs/libDaisy/src/hid/disp/display.h ****                           uint_fast8_t x2,
  78:Display/../../libs/PoliTeKDSP/libs/libDaisy/src/hid/disp/display.h ****                           uint_fast8_t y2,
  79:Display/../../libs/PoliTeKDSP/libs/libDaisy/src/hid/disp/display.h ****                           bool         on,
  80:Display/../../libs/PoliTeKDSP/libs/libDaisy/src/hid/disp/display.h ****                           bool         fill = false)
  81:Display/../../libs/PoliTeKDSP/libs/libDaisy/src/hid/disp/display.h ****         = 0;
  82:Display/../../libs/PoliTeKDSP/libs/libDaisy/src/hid/disp/display.h **** 
  83:Display/../../libs/PoliTeKDSP/libs/libDaisy/src/hid/disp/display.h ****     /**
  84:Display/../../libs/PoliTeKDSP/libs/libDaisy/src/hid/disp/display.h ****     Draws a rectangle.
  85:Display/../../libs/PoliTeKDSP/libs/libDaisy/src/hid/disp/display.h ****     \param rect the rectangle
  86:Display/../../libs/PoliTeKDSP/libs/libDaisy/src/hid/disp/display.h ****     \param on   on or off
  87:Display/../../libs/PoliTeKDSP/libs/libDaisy/src/hid/disp/display.h ****     \param fill fill the rectangle or draw only the outline
  88:Display/../../libs/PoliTeKDSP/libs/libDaisy/src/hid/disp/display.h ****     */
  89:Display/../../libs/PoliTeKDSP/libs/libDaisy/src/hid/disp/display.h ****     void DrawRect(const Rectangle& rect, bool on, bool fill = false)
  90:Display/../../libs/PoliTeKDSP/libs/libDaisy/src/hid/disp/display.h ****     {
  91:Display/../../libs/PoliTeKDSP/libs/libDaisy/src/hid/disp/display.h ****         DrawRect(rect.GetX(),
  92:Display/../../libs/PoliTeKDSP/libs/libDaisy/src/hid/disp/display.h ****                  rect.GetY(),
ARM GAS  C:\Users\skipi\AppData\Local\Temp\cctYXDIM.s 			page 17


  93:Display/../../libs/PoliTeKDSP/libs/libDaisy/src/hid/disp/display.h ****                  rect.GetRight(),
  94:Display/../../libs/PoliTeKDSP/libs/libDaisy/src/hid/disp/display.h ****                  rect.GetBottom(),
  95:Display/../../libs/PoliTeKDSP/libs/libDaisy/src/hid/disp/display.h ****                  on,
  96:Display/../../libs/PoliTeKDSP/libs/libDaisy/src/hid/disp/display.h ****                  fill);
  97:Display/../../libs/PoliTeKDSP/libs/libDaisy/src/hid/disp/display.h ****     }
  98:Display/../../libs/PoliTeKDSP/libs/libDaisy/src/hid/disp/display.h **** 
  99:Display/../../libs/PoliTeKDSP/libs/libDaisy/src/hid/disp/display.h ****     /**
 100:Display/../../libs/PoliTeKDSP/libs/libDaisy/src/hid/disp/display.h ****     Draws an arc around the specified coordinate
 101:Display/../../libs/PoliTeKDSP/libs/libDaisy/src/hid/disp/display.h ****     \param x           x Coordinate of the center of the arc
 102:Display/../../libs/PoliTeKDSP/libs/libDaisy/src/hid/disp/display.h ****     \param y           y Coordinate of the center of the arc
 103:Display/../../libs/PoliTeKDSP/libs/libDaisy/src/hid/disp/display.h ****     \param radius      radius of the arc
 104:Display/../../libs/PoliTeKDSP/libs/libDaisy/src/hid/disp/display.h ****     \param start_angle angle where to start the arc
 105:Display/../../libs/PoliTeKDSP/libs/libDaisy/src/hid/disp/display.h ****     \param sweep       total angle of the arc
 106:Display/../../libs/PoliTeKDSP/libs/libDaisy/src/hid/disp/display.h ****     \param on  on or off
 107:Display/../../libs/PoliTeKDSP/libs/libDaisy/src/hid/disp/display.h ****     */
 108:Display/../../libs/PoliTeKDSP/libs/libDaisy/src/hid/disp/display.h ****     virtual void DrawArc(uint_fast8_t x,
 109:Display/../../libs/PoliTeKDSP/libs/libDaisy/src/hid/disp/display.h ****                          uint_fast8_t y,
 110:Display/../../libs/PoliTeKDSP/libs/libDaisy/src/hid/disp/display.h ****                          uint_fast8_t radius,
 111:Display/../../libs/PoliTeKDSP/libs/libDaisy/src/hid/disp/display.h ****                          int_fast16_t start_angle,
 112:Display/../../libs/PoliTeKDSP/libs/libDaisy/src/hid/disp/display.h ****                          int_fast16_t sweep,
 113:Display/../../libs/PoliTeKDSP/libs/libDaisy/src/hid/disp/display.h ****                          bool         on)
 114:Display/../../libs/PoliTeKDSP/libs/libDaisy/src/hid/disp/display.h ****         = 0;
 115:Display/../../libs/PoliTeKDSP/libs/libDaisy/src/hid/disp/display.h **** 
 116:Display/../../libs/PoliTeKDSP/libs/libDaisy/src/hid/disp/display.h ****     /**
 117:Display/../../libs/PoliTeKDSP/libs/libDaisy/src/hid/disp/display.h ****     Draws a circle around the specified coordinate
 118:Display/../../libs/PoliTeKDSP/libs/libDaisy/src/hid/disp/display.h ****     \param x           x Coordinate of the center of the circle
 119:Display/../../libs/PoliTeKDSP/libs/libDaisy/src/hid/disp/display.h ****     \param y           y Coordinate of the center of the circle
 120:Display/../../libs/PoliTeKDSP/libs/libDaisy/src/hid/disp/display.h ****     \param radius      radius of the circle
 121:Display/../../libs/PoliTeKDSP/libs/libDaisy/src/hid/disp/display.h ****     \param on  on or off
 122:Display/../../libs/PoliTeKDSP/libs/libDaisy/src/hid/disp/display.h ****     */
 123:Display/../../libs/PoliTeKDSP/libs/libDaisy/src/hid/disp/display.h ****     void
 124:Display/../../libs/PoliTeKDSP/libs/libDaisy/src/hid/disp/display.h ****     DrawCircle(uint_fast8_t x, uint_fast8_t y, uint_fast8_t radius, bool on)
 125:Display/../../libs/PoliTeKDSP/libs/libDaisy/src/hid/disp/display.h ****     {
 126:Display/../../libs/PoliTeKDSP/libs/libDaisy/src/hid/disp/display.h ****         DrawArc(x, y, radius, 0, 360, on);
 127:Display/../../libs/PoliTeKDSP/libs/libDaisy/src/hid/disp/display.h ****     };
 128:Display/../../libs/PoliTeKDSP/libs/libDaisy/src/hid/disp/display.h **** 
 129:Display/../../libs/PoliTeKDSP/libs/libDaisy/src/hid/disp/display.h ****     /** 
 130:Display/../../libs/PoliTeKDSP/libs/libDaisy/src/hid/disp/display.h ****     Writes the character with the specific FontDef
 131:Display/../../libs/PoliTeKDSP/libs/libDaisy/src/hid/disp/display.h ****     to the display buffer at the current Cursor position.
 132:Display/../../libs/PoliTeKDSP/libs/libDaisy/src/hid/disp/display.h ****     \param ch character to be written
 133:Display/../../libs/PoliTeKDSP/libs/libDaisy/src/hid/disp/display.h ****     \param font font to be written in
 134:Display/../../libs/PoliTeKDSP/libs/libDaisy/src/hid/disp/display.h ****     \param on    on or off
 135:Display/../../libs/PoliTeKDSP/libs/libDaisy/src/hid/disp/display.h ****     \return &
 136:Display/../../libs/PoliTeKDSP/libs/libDaisy/src/hid/disp/display.h ****     */
 137:Display/../../libs/PoliTeKDSP/libs/libDaisy/src/hid/disp/display.h ****     virtual char WriteChar(char ch, FontDef font, bool on) = 0;
 138:Display/../../libs/PoliTeKDSP/libs/libDaisy/src/hid/disp/display.h **** 
 139:Display/../../libs/PoliTeKDSP/libs/libDaisy/src/hid/disp/display.h ****     /** 
 140:Display/../../libs/PoliTeKDSP/libs/libDaisy/src/hid/disp/display.h ****     Similar to WriteChar, except it will handle an entire String.
 141:Display/../../libs/PoliTeKDSP/libs/libDaisy/src/hid/disp/display.h ****     Wrapping does not happen automatically, so the width
 142:Display/../../libs/PoliTeKDSP/libs/libDaisy/src/hid/disp/display.h ****     of the string must be kept within the dimensions of the screen.
 143:Display/../../libs/PoliTeKDSP/libs/libDaisy/src/hid/disp/display.h ****     \param str string to be written
 144:Display/../../libs/PoliTeKDSP/libs/libDaisy/src/hid/disp/display.h ****     \param font font to use
 145:Display/../../libs/PoliTeKDSP/libs/libDaisy/src/hid/disp/display.h ****     \param on  on or off
 146:Display/../../libs/PoliTeKDSP/libs/libDaisy/src/hid/disp/display.h ****     \return &
 147:Display/../../libs/PoliTeKDSP/libs/libDaisy/src/hid/disp/display.h ****     */
 148:Display/../../libs/PoliTeKDSP/libs/libDaisy/src/hid/disp/display.h ****     virtual char WriteString(const char* str, FontDef font, bool on) = 0;
 149:Display/../../libs/PoliTeKDSP/libs/libDaisy/src/hid/disp/display.h **** 
ARM GAS  C:\Users\skipi\AppData\Local\Temp\cctYXDIM.s 			page 18


 150:Display/../../libs/PoliTeKDSP/libs/libDaisy/src/hid/disp/display.h ****     /** 
 151:Display/../../libs/PoliTeKDSP/libs/libDaisy/src/hid/disp/display.h ****     Similar to WriteString but justified within a bounding box.
 152:Display/../../libs/PoliTeKDSP/libs/libDaisy/src/hid/disp/display.h ****     \param str          string to be written
 153:Display/../../libs/PoliTeKDSP/libs/libDaisy/src/hid/disp/display.h ****     \param font         font to use
 154:Display/../../libs/PoliTeKDSP/libs/libDaisy/src/hid/disp/display.h ****     \param boundingBox  the bounding box to draw the text in
 155:Display/../../libs/PoliTeKDSP/libs/libDaisy/src/hid/disp/display.h ****     \param alignment    the alignment to use
 156:Display/../../libs/PoliTeKDSP/libs/libDaisy/src/hid/disp/display.h ****     \param on           on or off
 157:Display/../../libs/PoliTeKDSP/libs/libDaisy/src/hid/disp/display.h ****     \return The rectangle that was drawn to
 158:Display/../../libs/PoliTeKDSP/libs/libDaisy/src/hid/disp/display.h ****     */
 159:Display/../../libs/PoliTeKDSP/libs/libDaisy/src/hid/disp/display.h ****     virtual Rectangle WriteStringAligned(const char*    str,
 160:Display/../../libs/PoliTeKDSP/libs/libDaisy/src/hid/disp/display.h ****                                          const FontDef& font,
 161:Display/../../libs/PoliTeKDSP/libs/libDaisy/src/hid/disp/display.h ****                                          Rectangle      boundingBox,
 162:Display/../../libs/PoliTeKDSP/libs/libDaisy/src/hid/disp/display.h ****                                          Alignment      alignment,
 163:Display/../../libs/PoliTeKDSP/libs/libDaisy/src/hid/disp/display.h ****                                          bool           on)
 164:Display/../../libs/PoliTeKDSP/libs/libDaisy/src/hid/disp/display.h ****         = 0;
 165:Display/../../libs/PoliTeKDSP/libs/libDaisy/src/hid/disp/display.h **** 
 166:Display/../../libs/PoliTeKDSP/libs/libDaisy/src/hid/disp/display.h ****     /** 
 167:Display/../../libs/PoliTeKDSP/libs/libDaisy/src/hid/disp/display.h ****     Moves the 'Cursor' position used for WriteChar, and WriteStr to the specified coordinate.
 168:Display/../../libs/PoliTeKDSP/libs/libDaisy/src/hid/disp/display.h ****     \param x x pos
 169:Display/../../libs/PoliTeKDSP/libs/libDaisy/src/hid/disp/display.h ****     \param y y pos
 170:Display/../../libs/PoliTeKDSP/libs/libDaisy/src/hid/disp/display.h ****     */
 171:Display/../../libs/PoliTeKDSP/libs/libDaisy/src/hid/disp/display.h ****     void SetCursor(uint16_t x, uint16_t y)
 172:Display/../../libs/PoliTeKDSP/libs/libDaisy/src/hid/disp/display.h ****     {
 173:Display/../../libs/PoliTeKDSP/libs/libDaisy/src/hid/disp/display.h ****         currentX_ = (x >= Width()) ? Width() - 1 : x;
 174:Display/../../libs/PoliTeKDSP/libs/libDaisy/src/hid/disp/display.h ****         currentY_ = (y >= Height()) ? Height() - 1 : y;
 175:Display/../../libs/PoliTeKDSP/libs/libDaisy/src/hid/disp/display.h ****     }
 176:Display/../../libs/PoliTeKDSP/libs/libDaisy/src/hid/disp/display.h **** 
 177:Display/../../libs/PoliTeKDSP/libs/libDaisy/src/hid/disp/display.h ****     /** 
 178:Display/../../libs/PoliTeKDSP/libs/libDaisy/src/hid/disp/display.h ****     Writes the current display buffer to the OLED device using SPI or I2C depending on 
 179:Display/../../libs/PoliTeKDSP/libs/libDaisy/src/hid/disp/display.h ****     how the object was initialized.
 180:Display/../../libs/PoliTeKDSP/libs/libDaisy/src/hid/disp/display.h ****     */
 181:Display/../../libs/PoliTeKDSP/libs/libDaisy/src/hid/disp/display.h ****     virtual void Update() = 0;
 182:Display/../../libs/PoliTeKDSP/libs/libDaisy/src/hid/disp/display.h **** 
 183:Display/../../libs/PoliTeKDSP/libs/libDaisy/src/hid/disp/display.h ****     /** 
 184:Display/../../libs/PoliTeKDSP/libs/libDaisy/src/hid/disp/display.h ****     Returns true if the Update has finished, used for chained DMA transfers
 185:Display/../../libs/PoliTeKDSP/libs/libDaisy/src/hid/disp/display.h ****     */
 186:Display/../../libs/PoliTeKDSP/libs/libDaisy/src/hid/disp/display.h ****     virtual bool UpdateFinished() = 0;
 187:Display/../../libs/PoliTeKDSP/libs/libDaisy/src/hid/disp/display.h **** 
 188:Display/../../libs/PoliTeKDSP/libs/libDaisy/src/hid/disp/display.h ****   protected:
 189:Display/../../libs/PoliTeKDSP/libs/libDaisy/src/hid/disp/display.h ****     uint16_t currentX_;
 190:Display/../../libs/PoliTeKDSP/libs/libDaisy/src/hid/disp/display.h ****     uint16_t currentY_;
 191:Display/../../libs/PoliTeKDSP/libs/libDaisy/src/hid/disp/display.h **** };
 192:Display/../../libs/PoliTeKDSP/libs/libDaisy/src/hid/disp/display.h **** 
 193:Display/../../libs/PoliTeKDSP/libs/libDaisy/src/hid/disp/display.h **** /** This class is intended as a intermediary class for your actual implementation of the OneBitGrap
 194:Display/../../libs/PoliTeKDSP/libs/libDaisy/src/hid/disp/display.h ****  *  interface. It uses the CRTP design pattern where the template argument is the child class. It p
 195:Display/../../libs/PoliTeKDSP/libs/libDaisy/src/hid/disp/display.h ****  *  implementations for most of the functions, except DrawPixel(), Update() and Fill(), which you'l
 196:Display/../../libs/PoliTeKDSP/libs/libDaisy/src/hid/disp/display.h ****  *  to provide in your child class.
 197:Display/../../libs/PoliTeKDSP/libs/libDaisy/src/hid/disp/display.h ****  *  The main goal of this class is to provide common drawing functions without relying on massive a
 198:Display/../../libs/PoliTeKDSP/libs/libDaisy/src/hid/disp/display.h ****  *  virtual function calls that would result in a performance loss. To achieve this, any drawing fu
 199:Display/../../libs/PoliTeKDSP/libs/libDaisy/src/hid/disp/display.h ****  *  is implemented here and internally calls other drawing functions (e.g. DrawRect() which interna
 200:Display/../../libs/PoliTeKDSP/libs/libDaisy/src/hid/disp/display.h ****  *  DrawPixel() and DrawLine()) makes these calls via the qualified name of these functions to expl
 201:Display/../../libs/PoliTeKDSP/libs/libDaisy/src/hid/disp/display.h ****  *  suppress the virtual dispatch mechanism like this:
 202:Display/../../libs/PoliTeKDSP/libs/libDaisy/src/hid/disp/display.h ****  * 
 203:Display/../../libs/PoliTeKDSP/libs/libDaisy/src/hid/disp/display.h ****  *      ChildType::DrawPixel(...); // no virtual function call; direct call into the child class fu
 204:Display/../../libs/PoliTeKDSP/libs/libDaisy/src/hid/disp/display.h ****  *  
 205:Display/../../libs/PoliTeKDSP/libs/libDaisy/src/hid/disp/display.h ****  *  To create a custom OneBitGraphicsDisplay implementation, you can 
 206:Display/../../libs/PoliTeKDSP/libs/libDaisy/src/hid/disp/display.h ****  *  A) inherit from OneBitGraphicsDisplay directly and provide all the drawing functions yourself
ARM GAS  C:\Users\skipi\AppData\Local\Temp\cctYXDIM.s 			page 19


 207:Display/../../libs/PoliTeKDSP/libs/libDaisy/src/hid/disp/display.h ****  *  B) Inherit from OneBitGraphicsDisplayImpl and only provide DrawPixel(), Fill() and Update()
 208:Display/../../libs/PoliTeKDSP/libs/libDaisy/src/hid/disp/display.h ****  *     like this:
 209:Display/../../libs/PoliTeKDSP/libs/libDaisy/src/hid/disp/display.h ****  *  
 210:Display/../../libs/PoliTeKDSP/libs/libDaisy/src/hid/disp/display.h ****  *      class MyDisplayClass : public OneBitGraphicsDisplayImpl<MyDisplayClass> 
 211:Display/../../libs/PoliTeKDSP/libs/libDaisy/src/hid/disp/display.h ****  *      {
 212:Display/../../libs/PoliTeKDSP/libs/libDaisy/src/hid/disp/display.h ****  *      public:
 213:Display/../../libs/PoliTeKDSP/libs/libDaisy/src/hid/disp/display.h ****  *          void Fill() override { ... };
 214:Display/../../libs/PoliTeKDSP/libs/libDaisy/src/hid/disp/display.h ****  *          void DrawPixel(uint_fast8_t x, uint_fast8_t y, bool on) override { ... };
 215:Display/../../libs/PoliTeKDSP/libs/libDaisy/src/hid/disp/display.h ****  *          void Update() override { ... }
 216:Display/../../libs/PoliTeKDSP/libs/libDaisy/src/hid/disp/display.h ****  *      };
 217:Display/../../libs/PoliTeKDSP/libs/libDaisy/src/hid/disp/display.h ****  *  
 218:Display/../../libs/PoliTeKDSP/libs/libDaisy/src/hid/disp/display.h ****  */
 219:Display/../../libs/PoliTeKDSP/libs/libDaisy/src/hid/disp/display.h **** template <class ChildType>
 220:Display/../../libs/PoliTeKDSP/libs/libDaisy/src/hid/disp/display.h **** class OneBitGraphicsDisplayImpl : public OneBitGraphicsDisplay
 221:Display/../../libs/PoliTeKDSP/libs/libDaisy/src/hid/disp/display.h **** {
 222:Display/../../libs/PoliTeKDSP/libs/libDaisy/src/hid/disp/display.h ****   public:
 223:Display/../../libs/PoliTeKDSP/libs/libDaisy/src/hid/disp/display.h ****     OneBitGraphicsDisplayImpl() {}
 224:Display/../../libs/PoliTeKDSP/libs/libDaisy/src/hid/disp/display.h ****     virtual ~OneBitGraphicsDisplayImpl() {}
 225:Display/../../libs/PoliTeKDSP/libs/libDaisy/src/hid/disp/display.h **** 
 226:Display/../../libs/PoliTeKDSP/libs/libDaisy/src/hid/disp/display.h ****     void DrawLine(uint_fast8_t x1,
 329              		.loc 3 226 10 is_stmt 1 view -0
 330              		.cfi_startproc
 331              		@ args = 8, pretend = 0, frame = 8
 332              		@ frame_needed = 0, uses_anonymous_args = 0
 333              		.loc 3 226 10 is_stmt 0 view .LVU64
 334 0000 2DE9F04F 		push	{r4, r5, r6, r7, r8, r9, r10, fp, lr}
 335              		.cfi_def_cfa_offset 36
 336              		.cfi_offset 4, -36
 337              		.cfi_offset 5, -32
 338              		.cfi_offset 6, -28
 339              		.cfi_offset 7, -24
 340              		.cfi_offset 8, -20
 341              		.cfi_offset 9, -16
 342              		.cfi_offset 10, -12
 343              		.cfi_offset 11, -8
 344              		.cfi_offset 14, -4
 345 0004 83B0     		sub	sp, sp, #12
 346              		.cfi_def_cfa_offset 48
 227:Display/../../libs/PoliTeKDSP/libs/libDaisy/src/hid/disp/display.h ****                   uint_fast8_t y1,
 228:Display/../../libs/PoliTeKDSP/libs/libDaisy/src/hid/disp/display.h ****                   uint_fast8_t x2,
 229:Display/../../libs/PoliTeKDSP/libs/libDaisy/src/hid/disp/display.h ****                   uint_fast8_t y2,
 230:Display/../../libs/PoliTeKDSP/libs/libDaisy/src/hid/disp/display.h ****                   bool         on) override
 231:Display/../../libs/PoliTeKDSP/libs/libDaisy/src/hid/disp/display.h ****     {
 232:Display/../../libs/PoliTeKDSP/libs/libDaisy/src/hid/disp/display.h ****         int_fast16_t deltaX = abs((int_fast16_t)x2 - (int_fast16_t)x1);
 347              		.loc 3 232 52 view .LVU65
 348 0006 5C1A     		subs	r4, r3, r1
 226:Display/../../libs/PoliTeKDSP/libs/libDaisy/src/hid/disp/display.h ****                   uint_fast8_t y1,
 349              		.loc 3 226 10 view .LVU66
 350 0008 0C9E     		ldr	r6, [sp, #48]
 351              		.loc 3 232 22 view .LVU67
 352 000a 002C     		cmp	r4, #0
 226:Display/../../libs/PoliTeKDSP/libs/libDaisy/src/hid/disp/display.h ****                   uint_fast8_t y1,
 353              		.loc 3 226 10 view .LVU68
 354 000c 9DF83490 		ldrb	r9, [sp, #52]	@ zero_extendqisi2
 233:Display/../../libs/PoliTeKDSP/libs/libDaisy/src/hid/disp/display.h ****         int_fast16_t deltaY = abs((int_fast16_t)y2 - (int_fast16_t)y1);
 355              		.loc 3 233 52 view .LVU69
 356 0010 A6EB0208 		sub	r8, r6, r2
ARM GAS  C:\Users\skipi\AppData\Local\Temp\cctYXDIM.s 			page 20


 232:Display/../../libs/PoliTeKDSP/libs/libDaisy/src/hid/disp/display.h ****         int_fast16_t deltaY = abs((int_fast16_t)y2 - (int_fast16_t)y1);
 357              		.loc 3 232 22 view .LVU70
 358 0014 B8BF     		it	lt
 359 0016 6442     		rsblt	r4, r4, #0
 360              	.LVL16:
 361              		.loc 3 233 22 view .LVU71
 362 0018 B8F1000F 		cmp	r8, #0
 363 001c B8BF     		it	lt
 364 001e C8F10008 		rsblt	r8, r8, #0
 365              	.LVL17:
 234:Display/../../libs/PoliTeKDSP/libs/libDaisy/src/hid/disp/display.h ****         int_fast16_t signX  = ((x1 < x2) ? 1 : -1);
 366              		.loc 3 234 42 view .LVU72
 367 0022 8B42     		cmp	r3, r1
 368 0024 8CBF     		ite	hi
 369 0026 4FF0010A 		movhi	r10, #1
 370 002a 4FF0FF3A 		movls	r10, #-1
 371              	.LVL18:
 235:Display/../../libs/PoliTeKDSP/libs/libDaisy/src/hid/disp/display.h ****         int_fast16_t signY  = ((y1 < y2) ? 1 : -1);
 372              		.loc 3 235 42 view .LVU73
 373 002e 9642     		cmp	r6, r2
 236:Display/../../libs/PoliTeKDSP/libs/libDaisy/src/hid/disp/display.h ****         int_fast16_t error  = deltaX - deltaY;
 374              		.loc 3 236 22 view .LVU74
 375 0030 A4EB080C 		sub	ip, r4, r8
 235:Display/../../libs/PoliTeKDSP/libs/libDaisy/src/hid/disp/display.h ****         int_fast16_t signY  = ((y1 < y2) ? 1 : -1);
 376              		.loc 3 235 42 view .LVU75
 377 0034 51D8     		bhi	.L11
 378              	.LVL19:
 379              	.LBB61:
 380              	.LBI61:
  42:Display/../../libs/PoliTeKDSP/libs/libDaisy/src/hid/disp/oled_display.h ****     {
 381              		.loc 1 42 10 is_stmt 1 discriminator 4 view .LVU76
 382              	.LBB62:
 383              	.LBI62:
 361:Display/../../libs/PoliTeKDSP/libs/libDaisy/src/dev/oled_ssd130x.h ****     {
 384              		.loc 2 361 10 discriminator 4 view .LVU77
 385              	.LBE62:
 386              	.LBE61:
 235:Display/../../libs/PoliTeKDSP/libs/libDaisy/src/hid/disp/display.h ****         int_fast16_t error  = deltaX - deltaY;
 387              		.loc 3 235 42 is_stmt 0 discriminator 4 view .LVU78
 388 0036 4FF0FF35 		mov	r5, #-1
 389              	.LBB78:
 390              	.LBB72:
 391              	.LBB63:
 363:Display/../../libs/PoliTeKDSP/libs/libDaisy/src/dev/oled_ssd130x.h ****             return;
 392              		.loc 2 363 9 discriminator 4 view .LVU79
 393 003a 7F2B     		cmp	r3, #127
 394              	.LBE63:
 395              	.LBE72:
 396              	.LBE78:
 235:Display/../../libs/PoliTeKDSP/libs/libDaisy/src/hid/disp/display.h ****         int_fast16_t error  = deltaX - deltaY;
 397              		.loc 3 235 42 discriminator 4 view .LVU80
 398 003c 0195     		str	r5, [sp, #4]
 399              	.LBB79:
 400              	.LBB73:
 401              	.LBB68:
 363:Display/../../libs/PoliTeKDSP/libs/libDaisy/src/dev/oled_ssd130x.h ****             return;
 402              		.loc 2 363 9 discriminator 4 view .LVU81
ARM GAS  C:\Users\skipi\AppData\Local\Temp\cctYXDIM.s 			page 21


 403 003e 12D8     		bhi	.L12
 404 0040 3F2E     		cmp	r6, #63
 405 0042 10D8     		bhi	.L12
 406              	.LVL20:
 407              	.L23:
 366:Display/../../libs/PoliTeKDSP/libs/libDaisy/src/dev/oled_ssd130x.h ****         else
 408              		.loc 2 366 28 view .LVU82
 409 0044 F508     		lsrs	r5, r6, #3
 366:Display/../../libs/PoliTeKDSP/libs/libDaisy/src/dev/oled_ssd130x.h ****         else
 410              		.loc 2 366 54 view .LVU83
 411 0046 06F0070E 		and	lr, r6, #7
 366:Display/../../libs/PoliTeKDSP/libs/libDaisy/src/dev/oled_ssd130x.h ****         else
 412              		.loc 2 366 48 view .LVU84
 413 004a 0127     		movs	r7, #1
 366:Display/../../libs/PoliTeKDSP/libs/libDaisy/src/dev/oled_ssd130x.h ****         else
 414              		.loc 2 366 42 view .LVU85
 415 004c 03EBC515 		add	r5, r3, r5, lsl #7
 416 0050 0544     		add	r5, r5, r0
 365:Display/../../libs/PoliTeKDSP/libs/libDaisy/src/dev/oled_ssd130x.h ****             buffer_[x + (y / 8) * width] |= (1 << (y % 8));
 417              		.loc 2 365 9 view .LVU86
 418 0052 B9F1000F 		cmp	r9, #0
 419 0056 47D0     		beq	.L13
 366:Display/../../libs/PoliTeKDSP/libs/libDaisy/src/dev/oled_ssd130x.h ****         else
 420              		.loc 2 366 48 view .LVU87
 421 0058 07FA0EF7 		lsl	r7, r7, lr
 366:Display/../../libs/PoliTeKDSP/libs/libDaisy/src/dev/oled_ssd130x.h ****         else
 422              		.loc 2 366 42 view .LVU88
 423 005c 95F810E0 		ldrb	lr, [r5, #16]	@ zero_extendqisi2
 424 0060 47EA0E07 		orr	r7, r7, lr
 425 0064 2F74     		strb	r7, [r5, #16]
 426              	.LVL21:
 427              	.L12:
 366:Display/../../libs/PoliTeKDSP/libs/libDaisy/src/dev/oled_ssd130x.h ****         else
 428              		.loc 2 366 42 view .LVU89
 429              	.LBE68:
 430              	.LBE73:
 431              	.LBE79:
 237:Display/../../libs/PoliTeKDSP/libs/libDaisy/src/hid/disp/display.h ****         int_fast16_t error2;
 238:Display/../../libs/PoliTeKDSP/libs/libDaisy/src/hid/disp/display.h **** 
 239:Display/../../libs/PoliTeKDSP/libs/libDaisy/src/hid/disp/display.h ****         // If we write "ChildType::DrawPixel(x2, y2, on);", we end up with
 240:Display/../../libs/PoliTeKDSP/libs/libDaisy/src/hid/disp/display.h ****         // all sorts of weird compiler errors when the Child class is a template
 241:Display/../../libs/PoliTeKDSP/libs/libDaisy/src/hid/disp/display.h ****         // class. The only way around this is to use this very verbose syntax:
 242:Display/../../libs/PoliTeKDSP/libs/libDaisy/src/hid/disp/display.h ****         ((ChildType*)(this))->ChildType::DrawPixel(x2, y2, on);
 243:Display/../../libs/PoliTeKDSP/libs/libDaisy/src/hid/disp/display.h **** 
 244:Display/../../libs/PoliTeKDSP/libs/libDaisy/src/hid/disp/display.h ****         while((x1 != x2) || (y1 != y2))
 432              		.loc 3 244 26 is_stmt 1 view .LVU90
 433 0066 9642     		cmp	r6, r2
 434 0068 01D1     		bne	.L16
 435              	.L35:
 436              		.loc 3 244 26 is_stmt 0 view .LVU91
 437 006a 8B42     		cmp	r3, r1
 438 006c 29D0     		beq	.L9
 439              	.L16:
 440              	.LVL22:
 245:Display/../../libs/PoliTeKDSP/libs/libDaisy/src/hid/disp/display.h ****         {
 246:Display/../../libs/PoliTeKDSP/libs/libDaisy/src/hid/disp/display.h ****             ((ChildType*)(this))->ChildType::DrawPixel(x1, y1, on);
 247:Display/../../libs/PoliTeKDSP/libs/libDaisy/src/hid/disp/display.h ****             error2 = error * 2;
ARM GAS  C:\Users\skipi\AppData\Local\Temp\cctYXDIM.s 			page 22


 248:Display/../../libs/PoliTeKDSP/libs/libDaisy/src/hid/disp/display.h ****             if(error2 > -deltaY)
 441              		.loc 3 248 23 view .LVU92
 442 006e C8F10007 		rsb	r7, r8, #0
 443              	.L18:
 444              	.LVL23:
 445              	.LBB80:
 446              	.LBI80:
  42:Display/../../libs/PoliTeKDSP/libs/libDaisy/src/hid/disp/oled_display.h ****     {
 447              		.loc 1 42 10 is_stmt 1 view .LVU93
 448              	.LBB81:
 449              	.LBI81:
 361:Display/../../libs/PoliTeKDSP/libs/libDaisy/src/dev/oled_ssd130x.h ****     {
 450              		.loc 2 361 10 view .LVU94
 451              	.LBB82:
 363:Display/../../libs/PoliTeKDSP/libs/libDaisy/src/dev/oled_ssd130x.h ****             return;
 452              		.loc 2 363 9 is_stmt 0 view .LVU95
 453 0072 7F29     		cmp	r1, #127
 454 0074 14D8     		bhi	.L19
 455 0076 3F2A     		cmp	r2, #63
 456 0078 12D8     		bhi	.L19
 366:Display/../../libs/PoliTeKDSP/libs/libDaisy/src/dev/oled_ssd130x.h ****         else
 457              		.loc 2 366 28 view .LVU96
 458 007a D508     		lsrs	r5, r2, #3
 366:Display/../../libs/PoliTeKDSP/libs/libDaisy/src/dev/oled_ssd130x.h ****         else
 459              		.loc 2 366 54 view .LVU97
 460 007c 02F0070B 		and	fp, r2, #7
 366:Display/../../libs/PoliTeKDSP/libs/libDaisy/src/dev/oled_ssd130x.h ****         else
 461              		.loc 2 366 48 view .LVU98
 462 0080 4FF0010E 		mov	lr, #1
 366:Display/../../libs/PoliTeKDSP/libs/libDaisy/src/dev/oled_ssd130x.h ****         else
 463              		.loc 2 366 42 view .LVU99
 464 0084 01EBC515 		add	r5, r1, r5, lsl #7
 465 0088 0544     		add	r5, r5, r0
 365:Display/../../libs/PoliTeKDSP/libs/libDaisy/src/dev/oled_ssd130x.h ****             buffer_[x + (y / 8) * width] |= (1 << (y % 8));
 466              		.loc 2 365 9 view .LVU100
 467 008a B9F1000F 		cmp	r9, #0
 468 008e 1BD0     		beq	.L20
 366:Display/../../libs/PoliTeKDSP/libs/libDaisy/src/dev/oled_ssd130x.h ****         else
 469              		.loc 2 366 48 view .LVU101
 470 0090 0EFA0BFE 		lsl	lr, lr, fp
 366:Display/../../libs/PoliTeKDSP/libs/libDaisy/src/dev/oled_ssd130x.h ****         else
 471              		.loc 2 366 42 view .LVU102
 472 0094 95F810B0 		ldrb	fp, [r5, #16]	@ zero_extendqisi2
 473 0098 4EEA0B0E 		orr	lr, lr, fp
 474 009c 85F810E0 		strb	lr, [r5, #16]
 475              	.L19:
 476              	.LVL24:
 366:Display/../../libs/PoliTeKDSP/libs/libDaisy/src/dev/oled_ssd130x.h ****         else
 477              		.loc 2 366 42 view .LVU103
 478              	.LBE82:
 479              	.LBE81:
 480              	.LBE80:
 481              		.loc 3 248 13 view .LVU104
 482 00a0 B7EB4C0F 		cmp	r7, ip, lsl #1
 247:Display/../../libs/PoliTeKDSP/libs/libDaisy/src/hid/disp/display.h ****             if(error2 > -deltaY)
 483              		.loc 3 247 20 view .LVU105
 484 00a4 4FEA4C05 		lsl	r5, ip, #1
ARM GAS  C:\Users\skipi\AppData\Local\Temp\cctYXDIM.s 			page 23


 485              	.LVL25:
 486              		.loc 3 248 13 view .LVU106
 487 00a8 02DA     		bge	.L21
 249:Display/../../libs/PoliTeKDSP/libs/libDaisy/src/hid/disp/display.h ****             {
 250:Display/../../libs/PoliTeKDSP/libs/libDaisy/src/hid/disp/display.h ****                 error -= deltaY;
 488              		.loc 3 250 23 view .LVU107
 489 00aa ACEB080C 		sub	ip, ip, r8
 490              	.LVL26:
 251:Display/../../libs/PoliTeKDSP/libs/libDaisy/src/hid/disp/display.h ****                 x1 += signX;
 491              		.loc 3 251 20 view .LVU108
 492 00ae 5144     		add	r1, r1, r10
 493              	.LVL27:
 494              	.L21:
 252:Display/../../libs/PoliTeKDSP/libs/libDaisy/src/hid/disp/display.h ****             }
 253:Display/../../libs/PoliTeKDSP/libs/libDaisy/src/hid/disp/display.h **** 
 254:Display/../../libs/PoliTeKDSP/libs/libDaisy/src/hid/disp/display.h ****             if(error2 < deltaX)
 495              		.loc 3 254 13 view .LVU109
 496 00b0 AC42     		cmp	r4, r5
 497 00b2 02DD     		ble	.L22
 255:Display/../../libs/PoliTeKDSP/libs/libDaisy/src/hid/disp/display.h ****             {
 256:Display/../../libs/PoliTeKDSP/libs/libDaisy/src/hid/disp/display.h ****                 error += deltaX;
 257:Display/../../libs/PoliTeKDSP/libs/libDaisy/src/hid/disp/display.h ****                 y1 += signY;
 498              		.loc 3 257 20 view .LVU110
 499 00b4 019D     		ldr	r5, [sp, #4]
 500              	.LVL28:
 256:Display/../../libs/PoliTeKDSP/libs/libDaisy/src/hid/disp/display.h ****                 y1 += signY;
 501              		.loc 3 256 23 view .LVU111
 502 00b6 A444     		add	ip, ip, r4
 503              	.LVL29:
 504              		.loc 3 257 20 view .LVU112
 505 00b8 2A44     		add	r2, r2, r5
 506              	.LVL30:
 507              	.L22:
 244:Display/../../libs/PoliTeKDSP/libs/libDaisy/src/hid/disp/display.h ****         {
 508              		.loc 3 244 26 is_stmt 1 view .LVU113
 509 00ba 9942     		cmp	r1, r3
 510 00bc D9D1     		bne	.L18
 244:Display/../../libs/PoliTeKDSP/libs/libDaisy/src/hid/disp/display.h ****         {
 511              		.loc 3 244 26 is_stmt 0 view .LVU114
 512 00be 9642     		cmp	r6, r2
 513 00c0 D7D1     		bne	.L18
 514              	.L9:
 258:Display/../../libs/PoliTeKDSP/libs/libDaisy/src/hid/disp/display.h ****             }
 259:Display/../../libs/PoliTeKDSP/libs/libDaisy/src/hid/disp/display.h ****         }
 260:Display/../../libs/PoliTeKDSP/libs/libDaisy/src/hid/disp/display.h ****     }
 515              		.loc 3 260 5 view .LVU115
 516 00c2 03B0     		add	sp, sp, #12
 517              		.cfi_remember_state
 518              		.cfi_def_cfa_offset 36
 519              		@ sp needed
 520 00c4 BDE8F08F 		pop	{r4, r5, r6, r7, r8, r9, r10, fp, pc}
 521              	.LVL31:
 522              	.L20:
 523              		.cfi_restore_state
 524              	.LBB87:
 525              	.LBB86:
 526              	.LBB85:
ARM GAS  C:\Users\skipi\AppData\Local\Temp\cctYXDIM.s 			page 24


 527              	.LBB83:
 528              	.LBI83:
 361:Display/../../libs/PoliTeKDSP/libs/libDaisy/src/dev/oled_ssd130x.h ****     {
 529              		.loc 2 361 10 is_stmt 1 view .LVU116
 530              	.LBB84:
 368:Display/../../libs/PoliTeKDSP/libs/libDaisy/src/dev/oled_ssd130x.h ****     }
 531              		.loc 2 368 49 is_stmt 0 view .LVU117
 532 00c8 0EFA0BFB 		lsl	fp, lr, fp
 368:Display/../../libs/PoliTeKDSP/libs/libDaisy/src/dev/oled_ssd130x.h ****     }
 533              		.loc 2 368 42 view .LVU118
 534 00cc 95F810E0 		ldrb	lr, [r5, #16]	@ zero_extendqisi2
 535 00d0 2EEA0B0E 		bic	lr, lr, fp
 536 00d4 85F810E0 		strb	lr, [r5, #16]
 537 00d8 E2E7     		b	.L19
 538              	.LVL32:
 539              	.L11:
 368:Display/../../libs/PoliTeKDSP/libs/libDaisy/src/dev/oled_ssd130x.h ****     }
 540              		.loc 2 368 42 view .LVU119
 541              	.LBE84:
 542              	.LBE83:
 543              	.LBE85:
 544              	.LBE86:
 545              	.LBE87:
 546              	.LBB88:
  42:Display/../../libs/PoliTeKDSP/libs/libDaisy/src/hid/disp/oled_display.h ****     {
 547              		.loc 1 42 10 is_stmt 1 view .LVU120
 548              	.LBB74:
 361:Display/../../libs/PoliTeKDSP/libs/libDaisy/src/dev/oled_ssd130x.h ****     {
 549              		.loc 2 361 10 view .LVU121
 550              	.LBE74:
 551              	.LBE88:
 235:Display/../../libs/PoliTeKDSP/libs/libDaisy/src/hid/disp/display.h ****         int_fast16_t error  = deltaX - deltaY;
 552              		.loc 3 235 42 is_stmt 0 view .LVU122
 553 00da 0125     		movs	r5, #1
 554              	.LBB89:
 555              	.LBB75:
 556              	.LBB69:
 363:Display/../../libs/PoliTeKDSP/libs/libDaisy/src/dev/oled_ssd130x.h ****             return;
 557              		.loc 2 363 9 view .LVU123
 558 00dc 7F2B     		cmp	r3, #127
 559              	.LBE69:
 560              	.LBE75:
 561              	.LBE89:
 235:Display/../../libs/PoliTeKDSP/libs/libDaisy/src/hid/disp/display.h ****         int_fast16_t error  = deltaX - deltaY;
 562              		.loc 3 235 42 view .LVU124
 563 00de 0195     		str	r5, [sp, #4]
 564              	.LBB90:
 565              	.LBB76:
 566              	.LBB70:
 363:Display/../../libs/PoliTeKDSP/libs/libDaisy/src/dev/oled_ssd130x.h ****             return;
 567              		.loc 2 363 9 view .LVU125
 568 00e0 C5D8     		bhi	.L16
 569 00e2 3F2E     		cmp	r6, #63
 570 00e4 AED9     		bls	.L23
 571 00e6 C2E7     		b	.L16
 572              	.LVL33:
 573              	.L13:
ARM GAS  C:\Users\skipi\AppData\Local\Temp\cctYXDIM.s 			page 25


 574              	.LBB64:
 575              	.LBI64:
 361:Display/../../libs/PoliTeKDSP/libs/libDaisy/src/dev/oled_ssd130x.h ****     {
 576              		.loc 2 361 10 is_stmt 1 view .LVU126
 577              	.LBB65:
 368:Display/../../libs/PoliTeKDSP/libs/libDaisy/src/dev/oled_ssd130x.h ****     }
 578              		.loc 2 368 49 is_stmt 0 view .LVU127
 579 00e8 07FA0EFE 		lsl	lr, r7, lr
 368:Display/../../libs/PoliTeKDSP/libs/libDaisy/src/dev/oled_ssd130x.h ****     }
 580              		.loc 2 368 42 view .LVU128
 581 00ec 2F7C     		ldrb	r7, [r5, #16]	@ zero_extendqisi2
 582              	.LBE65:
 583              	.LBE64:
 584              	.LBE70:
 585              	.LBE76:
 586              	.LBE90:
 244:Display/../../libs/PoliTeKDSP/libs/libDaisy/src/hid/disp/display.h ****         {
 587              		.loc 3 244 26 view .LVU129
 588 00ee 9642     		cmp	r6, r2
 589              	.LBB91:
 590              	.LBB77:
 591              	.LBB71:
 592              	.LBB67:
 593              	.LBB66:
 368:Display/../../libs/PoliTeKDSP/libs/libDaisy/src/dev/oled_ssd130x.h ****     }
 594              		.loc 2 368 42 view .LVU130
 595 00f0 27EA0E07 		bic	r7, r7, lr
 596 00f4 2F74     		strb	r7, [r5, #16]
 597              	.LVL34:
 368:Display/../../libs/PoliTeKDSP/libs/libDaisy/src/dev/oled_ssd130x.h ****     }
 598              		.loc 2 368 42 view .LVU131
 599              	.LBE66:
 600              	.LBE67:
 601              	.LBE71:
 602              	.LBE77:
 603              	.LBE91:
 244:Display/../../libs/PoliTeKDSP/libs/libDaisy/src/hid/disp/display.h ****         {
 604              		.loc 3 244 26 is_stmt 1 view .LVU132
 605 00f6 B8D0     		beq	.L35
 606 00f8 B9E7     		b	.L16
 607              		.cfi_endproc
 608              	.LFE2809:
 610 00fa 00BF     		.section	.rodata._ZN14DisplayHandlerC2EPN5daisy11OledDisplayINS0_13SSD130xDriverILj128ELj64ENS0_19
 611              		.align	2
 612              	.LC25:
 613 0000 506F6C69 		.ascii	"PoliTeK PSP\000"
 613      54654B20 
 613      50535000 
 614              		.section	.text._ZN14DisplayHandlerC2EPN5daisy11OledDisplayINS0_13SSD130xDriverILj128ELj64ENS0_19SS
 615              		.align	1
 616              		.p2align 2,,3
 617              		.global	_ZN14DisplayHandlerC2EPN5daisy11OledDisplayINS0_13SSD130xDriverILj128ELj64ENS0_19SSD130xI2
 618              		.syntax unified
 619              		.thumb
 620              		.thumb_func
 621              		.fpu fpv5-d16
 623              	_ZN14DisplayHandlerC2EPN5daisy11OledDisplayINS0_13SSD130xDriverILj128ELj64ENS0_19SSD130xI2CTranspor
ARM GAS  C:\Users\skipi\AppData\Local\Temp\cctYXDIM.s 			page 26


 624              	.LVL35:
 625              	.LFB2782:
 626              		.file 4 "Display/displayHandler.cpp"
   1:Display/displayHandler.cpp **** #include "displayHandler.h" // Usa .hpp per coerenza con il tuo header
   2:Display/displayHandler.cpp **** #include <string.h>
   3:Display/displayHandler.cpp **** #include <stdio.h>
   4:Display/displayHandler.cpp **** 
   5:Display/displayHandler.cpp **** DisplayHandler::DisplayHandler(MyOledDisplay* displayPtr, bool triggerEnabled) {
 627              		.loc 4 5 1 view -0
 628              		.cfi_startproc
 629              		@ args = 0, pretend = 0, frame = 0
 630              		@ frame_needed = 0, uses_anonymous_args = 0
 631              	.LBB92:
 632              		.loc 4 5 78 is_stmt 0 view .LVU134
 633 0000 8023     		movs	r3, #128
 634              	.LBE92:
 635              		.loc 4 5 1 view .LVU135
 636 0002 2DE9F041 		push	{r4, r5, r6, r7, r8, lr}
 637              		.cfi_def_cfa_offset 24
 638              		.cfi_offset 4, -24
 639              		.cfi_offset 5, -20
 640              		.cfi_offset 6, -16
 641              		.cfi_offset 7, -12
 642              		.cfi_offset 8, -8
 643              		.cfi_offset 14, -4
 644              	.LBB93:
 645              		.loc 4 5 78 view .LVU136
 646 0006 4FF00008 		mov	r8, #0
 647 000a 0125     		movs	r5, #1
 648 000c C0F80838 		str	r3, [r0, #2056]
 649              	.LBE93:
 650              		.loc 4 5 1 view .LVU137
 651 0010 0446     		mov	r4, r0
 652              	.LBB94:
 653              		.loc 4 5 78 view .LVU138
 654 0012 0F4B     		ldr	r3, .L38
 655              	.LBE94:
 656              		.loc 4 5 1 view .LVU139
 657 0014 0E46     		mov	r6, r1
 658 0016 1746     		mov	r7, r2
 659              	.LBB95:
   6:Display/displayHandler.cpp ****     // Pulizia sicura di entrambi i buffer
   7:Display/displayHandler.cpp ****     memset((void*) _circBuffer_ptr, 0, BUFFER_SIZE * sizeof(float));
 660              		.loc 4 7 11 view .LVU140
 661 0018 4146     		mov	r1, r8
 662              	.LVL36:
   5:Display/displayHandler.cpp ****     // Pulizia sicura di entrambi i buffer
 663              		.loc 4 5 78 view .LVU141
 664 001a C0F81438 		str	r3, [r0, #2068]
 665              		.loc 4 7 11 view .LVU142
 666 001e 4FF48062 		mov	r2, #1024
 667              	.LVL37:
   5:Display/displayHandler.cpp ****     // Pulizia sicura di entrambi i buffer
 668              		.loc 4 5 78 view .LVU143
 669 0022 C0F80C88 		str	r8, [r0, #2060]
 670              		.loc 4 7 11 view .LVU144
 671 0026 0830     		adds	r0, r0, #8
ARM GAS  C:\Users\skipi\AppData\Local\Temp\cctYXDIM.s 			page 27


 672              	.LVL38:
   5:Display/displayHandler.cpp ****     // Pulizia sicura di entrambi i buffer
 673              		.loc 4 5 78 view .LVU145
 674 0028 C0F81058 		str	r5, [r0, #2064]
 675 002c C0F81458 		str	r5, [r0, #2068]
 676              		.loc 4 7 5 is_stmt 1 view .LVU146
 677              		.loc 4 7 11 is_stmt 0 view .LVU147
 678 0030 FFF7FEFF 		bl	memset
 679              	.LVL39:
   8:Display/displayHandler.cpp ****     memset((void*) _dispBuffer_ptr, 0, BUFFER_SIZE * sizeof(float));
 680              		.loc 4 8 5 is_stmt 1 view .LVU148
 681              		.loc 4 8 11 is_stmt 0 view .LVU149
 682 0034 4FF48062 		mov	r2, #1024
 683 0038 4146     		mov	r1, r8
 684 003a 04F58160 		add	r0, r4, #1032
 685 003e FFF7FEFF 		bl	memset
 686              	.LVL40:
   9:Display/displayHandler.cpp ****     
  10:Display/displayHandler.cpp ****     _writeHead = 0;
 687              		.loc 4 10 5 is_stmt 1 view .LVU150
  11:Display/displayHandler.cpp ****     _windowSize = WINDOW_SIZE; 
 688              		.loc 4 11 5 view .LVU151
  12:Display/displayHandler.cpp ****     _triggerEnabled = triggerEnabled;
 689              		.loc 4 12 5 view .LVU152
 690              	.LBE95:
  13:Display/displayHandler.cpp ****     _displayPtr = displayPtr;
  14:Display/displayHandler.cpp ****     _currentState = DisplayState::WAVEFORM_VIEWER;
  15:Display/displayHandler.cpp ****     _standbyText = "PoliTeK PSP";
  16:Display/displayHandler.cpp **** }
 691              		.loc 4 16 1 is_stmt 0 view .LVU153
 692 0042 2046     		mov	r0, r4
 693              	.LBB96:
  12:Display/displayHandler.cpp ****     _triggerEnabled = triggerEnabled;
 694              		.loc 4 12 21 view .LVU154
 695 0044 84F81078 		strb	r7, [r4, #2064]
  13:Display/displayHandler.cpp ****     _displayPtr = displayPtr;
 696              		.loc 4 13 5 is_stmt 1 view .LVU155
  13:Display/displayHandler.cpp ****     _displayPtr = displayPtr;
 697              		.loc 4 13 17 is_stmt 0 view .LVU156
 698 0048 2660     		str	r6, [r4]
  14:Display/displayHandler.cpp ****     _standbyText = "PoliTeK PSP";
 699              		.loc 4 14 5 is_stmt 1 view .LVU157
  14:Display/displayHandler.cpp ****     _standbyText = "PoliTeK PSP";
 700              		.loc 4 14 19 is_stmt 0 view .LVU158
 701 004a 2571     		strb	r5, [r4, #4]
  15:Display/displayHandler.cpp **** }
 702              		.loc 4 15 5 is_stmt 1 view .LVU159
 703              	.LBE96:
 704              		.loc 4 16 1 is_stmt 0 view .LVU160
 705 004c BDE8F081 		pop	{r4, r5, r6, r7, r8, pc}
 706              	.LVL41:
 707              	.L39:
 708              		.loc 4 16 1 view .LVU161
 709              		.align	2
 710              	.L38:
 711 0050 00000000 		.word	.LC25
 712              		.cfi_endproc
ARM GAS  C:\Users\skipi\AppData\Local\Temp\cctYXDIM.s 			page 28


 713              	.LFE2782:
 715              		.global	_ZN14DisplayHandlerC1EPN5daisy11OledDisplayINS0_13SSD130xDriverILj128ELj64ENS0_19SSD130xI2
 716              		.thumb_set _ZN14DisplayHandlerC1EPN5daisy11OledDisplayINS0_13SSD130xDriverILj128ELj64ENS0_19SSD130
 717              		.section	.text._ZN14DisplayHandler8SetStateE12DisplayState,"ax",%progbits
 718              		.align	1
 719              		.p2align 2,,3
 720              		.global	_ZN14DisplayHandler8SetStateE12DisplayState
 721              		.syntax unified
 722              		.thumb
 723              		.thumb_func
 724              		.fpu fpv5-d16
 726              	_ZN14DisplayHandler8SetStateE12DisplayState:
 727              	.LVL42:
 728              	.LFB2785:
  17:Display/displayHandler.cpp **** 
  18:Display/displayHandler.cpp **** void DisplayHandler::Update() {
  19:Display/displayHandler.cpp ****     switch (_currentState) {
  20:Display/displayHandler.cpp ****         case DisplayState::STANDBY:
  21:Display/displayHandler.cpp ****             drawStandbyScreen();
  22:Display/displayHandler.cpp ****             break;
  23:Display/displayHandler.cpp **** 
  24:Display/displayHandler.cpp ****         case DisplayState::WAVEFORM_VIEWER:
  25:Display/displayHandler.cpp ****             drawWaveForm();
  26:Display/displayHandler.cpp ****             break;
  27:Display/displayHandler.cpp **** 
  28:Display/displayHandler.cpp ****         case DisplayState::MENU_MODE:
  29:Display/displayHandler.cpp ****             // In MENU_MODE il disegno effettivo viene fatto chiamando
  30:Display/displayHandler.cpp ****             // esplicitamente DrawMainMenu(), DrawFloatParameter(), ecc.
  31:Display/displayHandler.cpp ****             // Qui non facciamo nulla prima dell'aggiornamento hardware.
  32:Display/displayHandler.cpp ****             break;
  33:Display/displayHandler.cpp ****     }
  34:Display/displayHandler.cpp ****     
  35:Display/displayHandler.cpp ****     // Spinge fisicamente i pixel sullo schermo I2C/SPI
  36:Display/displayHandler.cpp ****     _displayPtr->Update();
  37:Display/displayHandler.cpp **** }
  38:Display/displayHandler.cpp **** 
  39:Display/displayHandler.cpp **** void DisplayHandler::SetState(DisplayState newState) {
 729              		.loc 4 39 54 is_stmt 1 view -0
 730              		.cfi_startproc
 731              		@ args = 0, pretend = 0, frame = 0
 732              		@ frame_needed = 0, uses_anonymous_args = 0
  40:Display/displayHandler.cpp ****     _displayPtr->Fill(false);
 733              		.loc 4 40 5 view .LVU163
  39:Display/displayHandler.cpp ****     _displayPtr->Fill(false);
 734              		.loc 4 39 54 is_stmt 0 view .LVU164
 735 0000 38B5     		push	{r3, r4, r5, lr}
 736              		.cfi_def_cfa_offset 16
 737              		.cfi_offset 3, -16
 738              		.cfi_offset 4, -12
 739              		.cfi_offset 5, -8
 740              		.cfi_offset 14, -4
  39:Display/displayHandler.cpp ****     _displayPtr->Fill(false);
 741              		.loc 4 39 54 view .LVU165
 742 0002 0446     		mov	r4, r0
 743              		.loc 4 40 5 view .LVU166
 744 0004 0068     		ldr	r0, [r0]
 745              	.LVL43:
ARM GAS  C:\Users\skipi\AppData\Local\Temp\cctYXDIM.s 			page 29


 746              		.loc 4 40 5 view .LVU167
 747 0006 094A     		ldr	r2, .L44
  39:Display/displayHandler.cpp ****     _displayPtr->Fill(false);
 748              		.loc 4 39 54 view .LVU168
 749 0008 0D46     		mov	r5, r1
 750              		.loc 4 40 28 view .LVU169
 751 000a 0368     		ldr	r3, [r0]
 752 000c 1B69     		ldr	r3, [r3, #16]
 753 000e 9342     		cmp	r3, r2
 754 0010 07D1     		bne	.L41
 755              	.LBB101:
 756              	.LBB102:
 757              	.LBB103:
 375:Display/../../libs/PoliTeKDSP/libs/libDaisy/src/dev/oled_ssd130x.h ****         }
 758              		.loc 2 375 24 view .LVU170
 759 0012 4FF48062 		mov	r2, #1024
 760 0016 0021     		movs	r1, #0
 761              	.LVL44:
 375:Display/../../libs/PoliTeKDSP/libs/libDaisy/src/dev/oled_ssd130x.h ****         }
 762              		.loc 2 375 24 view .LVU171
 763 0018 1030     		adds	r0, r0, #16
 764 001a FFF7FEFF 		bl	memset
 765              	.LVL45:
 766              	.LBE103:
 767              	.LBE102:
 768              	.LBE101:
  41:Display/displayHandler.cpp ****     _currentState = newState;
 769              		.loc 4 41 5 is_stmt 1 view .LVU172
 770              		.loc 4 41 19 is_stmt 0 view .LVU173
 771 001e 2571     		strb	r5, [r4, #4]
  42:Display/displayHandler.cpp **** }
 772              		.loc 4 42 1 view .LVU174
 773 0020 38BD     		pop	{r3, r4, r5, pc}
 774              	.LVL46:
 775              	.L41:
  40:Display/displayHandler.cpp ****     _currentState = newState;
 776              		.loc 4 40 22 view .LVU175
 777 0022 0021     		movs	r1, #0
 778              	.LVL47:
  40:Display/displayHandler.cpp ****     _currentState = newState;
 779              		.loc 4 40 22 view .LVU176
 780 0024 9847     		blx	r3
 781              	.LVL48:
  41:Display/displayHandler.cpp ****     _currentState = newState;
 782              		.loc 4 41 5 is_stmt 1 view .LVU177
  41:Display/displayHandler.cpp ****     _currentState = newState;
 783              		.loc 4 41 19 is_stmt 0 view .LVU178
 784 0026 2571     		strb	r5, [r4, #4]
 785              		.loc 4 42 1 view .LVU179
 786 0028 38BD     		pop	{r3, r4, r5, pc}
 787              	.LVL49:
 788              	.L45:
 789              		.loc 4 42 1 view .LVU180
 790 002a 00BF     		.align	2
 791              	.L44:
 792 002c 00000000 		.word	_ZN5daisy11OledDisplayINS_13SSD130xDriverILj128ELj64ENS_19SSD130xI2CTransportEEEE4FillEb
 793              		.cfi_endproc
ARM GAS  C:\Users\skipi\AppData\Local\Temp\cctYXDIM.s 			page 30


 794              	.LFE2785:
 796              		.section	.text._ZN14DisplayHandler14SetStandbyTextEPKc,"ax",%progbits
 797              		.align	1
 798              		.p2align 2,,3
 799              		.global	_ZN14DisplayHandler14SetStandbyTextEPKc
 800              		.syntax unified
 801              		.thumb
 802              		.thumb_func
 803              		.fpu fpv5-d16
 805              	_ZN14DisplayHandler14SetStandbyTextEPKc:
 806              	.LVL50:
 807              	.LFB2786:
  43:Display/displayHandler.cpp **** 
  44:Display/displayHandler.cpp **** void DisplayHandler::SetStandbyText(const char* text) {
 808              		.loc 4 44 55 is_stmt 1 view -0
 809              		.cfi_startproc
 810              		@ args = 0, pretend = 0, frame = 0
 811              		@ frame_needed = 0, uses_anonymous_args = 0
 812              		@ link register save eliminated.
  45:Display/displayHandler.cpp ****     if(text != nullptr) {
 813              		.loc 4 45 5 view .LVU182
 814 0000 79B1     		cbz	r1, .L46
  46:Display/displayHandler.cpp ****         _standbyText = text;
 815              		.loc 4 46 9 view .LVU183
  47:Display/displayHandler.cpp ****         if (_currentState == DisplayState::STANDBY) {
 816              		.loc 4 47 9 is_stmt 0 view .LVU184
 817 0002 0379     		ldrb	r3, [r0, #4]	@ zero_extendqisi2
  46:Display/displayHandler.cpp ****         _standbyText = text;
 818              		.loc 4 46 22 view .LVU185
 819 0004 C0F81418 		str	r1, [r0, #2068]
 820              		.loc 4 47 9 is_stmt 1 view .LVU186
 821 0008 5BB9     		cbnz	r3, .L46
  48:Display/displayHandler.cpp ****             _displayPtr->Fill(false);
 822              		.loc 4 48 13 view .LVU187
 823 000a 0068     		ldr	r0, [r0]
 824              	.LVL51:
 825              		.loc 4 48 13 is_stmt 0 view .LVU188
 826 000c 0649     		ldr	r1, .L51
 827              	.LVL52:
 828              		.loc 4 48 36 view .LVU189
 829 000e 0268     		ldr	r2, [r0]
 830 0010 1269     		ldr	r2, [r2, #16]
 831 0012 8A42     		cmp	r2, r1
 832 0014 06D1     		bne	.L50
 833              	.LBB108:
 834              	.LBB109:
 835              	.LBB110:
 375:Display/../../libs/PoliTeKDSP/libs/libDaisy/src/dev/oled_ssd130x.h ****         }
 836              		.loc 2 375 24 view .LVU190
 837 0016 4FF48062 		mov	r2, #1024
 838 001a 1946     		mov	r1, r3
 839 001c 1030     		adds	r0, r0, #16
 840 001e FFF7FEBF 		b	memset
 841              	.LVL53:
 842              	.L46:
 375:Display/../../libs/PoliTeKDSP/libs/libDaisy/src/dev/oled_ssd130x.h ****         }
 843              		.loc 2 375 24 view .LVU191
ARM GAS  C:\Users\skipi\AppData\Local\Temp\cctYXDIM.s 			page 31


 844              	.LBE110:
 845              	.LBE109:
 846              	.LBE108:
  49:Display/displayHandler.cpp ****         }
  50:Display/displayHandler.cpp ****     }
  51:Display/displayHandler.cpp **** }
 847              		.loc 4 51 1 view .LVU192
 848 0022 7047     		bx	lr
 849              	.LVL54:
 850              	.L50:
  48:Display/displayHandler.cpp ****         }
 851              		.loc 4 48 30 view .LVU193
 852 0024 1946     		mov	r1, r3
 853 0026 1047     		bx	r2	@ indirect register sibling call
 854              	.LVL55:
 855              	.L52:
  48:Display/displayHandler.cpp ****         }
 856              		.loc 4 48 30 view .LVU194
 857              		.align	2
 858              	.L51:
 859 0028 00000000 		.word	_ZN5daisy11OledDisplayINS_13SSD130xDriverILj128ELj64ENS_19SSD130xI2CTransportEEEE4FillEb
 860              		.cfi_endproc
 861              	.LFE2786:
 863              		.section	.text._ZN14DisplayHandler15pushAudioSampleEf,"ax",%progbits
 864              		.align	1
 865              		.p2align 2,,3
 866              		.global	_ZN14DisplayHandler15pushAudioSampleEf
 867              		.syntax unified
 868              		.thumb
 869              		.thumb_func
 870              		.fpu fpv5-d16
 872              	_ZN14DisplayHandler15pushAudioSampleEf:
 873              	.LVL56:
 874              	.LFB2787:
  52:Display/displayHandler.cpp **** 
  53:Display/displayHandler.cpp **** void DisplayHandler::pushAudioSample(float sample) {
 875              		.loc 4 53 52 is_stmt 1 view -0
 876              		.cfi_startproc
 877              		@ args = 0, pretend = 0, frame = 0
 878              		@ frame_needed = 0, uses_anonymous_args = 0
 879              		@ link register save eliminated.
  54:Display/displayHandler.cpp ****     _circBuffer_ptr[_writeHead] = sample;
 880              		.loc 4 54 5 view .LVU196
 881              		.loc 4 54 21 is_stmt 0 view .LVU197
 882 0000 D0F80C28 		ldr	r2, [r0, #2060]
  55:Display/displayHandler.cpp ****     _writeHead = (_writeHead + 1) % BUFFER_SIZE;
 883              		.loc 4 55 30 view .LVU198
 884 0004 531C     		adds	r3, r2, #1
  54:Display/displayHandler.cpp ****     _circBuffer_ptr[_writeHead] = sample;
 885              		.loc 4 54 33 view .LVU199
 886 0006 00EB8202 		add	r2, r0, r2, lsl #2
 887              		.loc 4 55 35 view .LVU200
 888 000a 5942     		rsbs	r1, r3, #0
  54:Display/displayHandler.cpp ****     _circBuffer_ptr[_writeHead] = sample;
 889              		.loc 4 54 33 view .LVU201
 890 000c 82ED020A 		vstr.32	s0, [r2, #8]
 891              		.loc 4 55 5 is_stmt 1 view .LVU202
ARM GAS  C:\Users\skipi\AppData\Local\Temp\cctYXDIM.s 			page 32


 892              		.loc 4 55 35 is_stmt 0 view .LVU203
 893 0010 DBB2     		uxtb	r3, r3
 894 0012 CAB2     		uxtb	r2, r1
 895 0014 58BF     		it	pl
 896 0016 5342     		rsbpl	r3, r2, #0
 897              		.loc 4 55 16 view .LVU204
 898 0018 C0F80C38 		str	r3, [r0, #2060]
  56:Display/displayHandler.cpp **** }
 899              		.loc 4 56 1 view .LVU205
 900 001c 7047     		bx	lr
 901              		.cfi_endproc
 902              	.LFE2787:
 904 001e 00BF     		.section	.text._ZN14DisplayHandler11findTriggerEv,"ax",%progbits
 905              		.align	1
 906              		.p2align 2,,3
 907              		.global	_ZN14DisplayHandler11findTriggerEv
 908              		.syntax unified
 909              		.thumb
 910              		.thumb_func
 911              		.fpu fpv5-d16
 913              	_ZN14DisplayHandler11findTriggerEv:
 914              	.LVL57:
 915              	.LFB2788:
  57:Display/displayHandler.cpp **** 
  58:Display/displayHandler.cpp **** int DisplayHandler::findTrigger() {
 916              		.loc 4 58 35 is_stmt 1 view -0
 917              		.cfi_startproc
 918              		@ args = 0, pretend = 0, frame = 0
 919              		@ frame_needed = 0, uses_anonymous_args = 0
  59:Display/displayHandler.cpp ****     float currVal = 0;
 920              		.loc 4 59 5 view .LVU207
  60:Display/displayHandler.cpp ****     float nextVal = 0;
 921              		.loc 4 60 5 view .LVU208
  61:Display/displayHandler.cpp ****     static int trigIdx = 0;
 922              		.loc 4 61 5 view .LVU209
  62:Display/displayHandler.cpp **** 
  63:Display/displayHandler.cpp ****     int oldestSampleIdx = _writeHead + 1;
 923              		.loc 4 63 5 view .LVU210
  64:Display/displayHandler.cpp **** 
  65:Display/displayHandler.cpp ****     if (_triggerEnabled) {
 924              		.loc 4 65 5 view .LVU211
 925              	.LBB111:
 926 0000 90F81038 		ldrb	r3, [r0, #2064]	@ zero_extendqisi2
 927 0004 13B9     		cbnz	r3, .L72
 928              	.LBE111:
  66:Display/displayHandler.cpp ****         for (int i = oldestSampleIdx; i < oldestSampleIdx + _windowSize; i++) {
  67:Display/displayHandler.cpp ****             currVal = _circBuffer_ptr[i % BUFFER_SIZE];
  68:Display/displayHandler.cpp ****             nextVal = _circBuffer_ptr[(i + 1) % BUFFER_SIZE];
  69:Display/displayHandler.cpp ****              
  70:Display/displayHandler.cpp ****             if (currVal < 0.0f && nextVal >= 0.0f) {
  71:Display/displayHandler.cpp ****                 trigIdx = i % BUFFER_SIZE;
  72:Display/displayHandler.cpp ****                 return trigIdx; 
  73:Display/displayHandler.cpp ****             }
  74:Display/displayHandler.cpp ****         }
  75:Display/displayHandler.cpp ****     }           
  76:Display/displayHandler.cpp ****     return trigIdx;
 929              		.loc 4 76 5 view .LVU212
ARM GAS  C:\Users\skipi\AppData\Local\Temp\cctYXDIM.s 			page 33


 930              		.loc 4 76 12 is_stmt 0 view .LVU213
 931 0006 1F4B     		ldr	r3, .L73
 932 0008 1868     		ldr	r0, [r3]
 933              	.LVL58:
  77:Display/displayHandler.cpp **** }
 934              		.loc 4 77 1 view .LVU214
 935 000a 7047     		bx	lr
 936              	.LVL59:
 937              	.L72:
  63:Display/displayHandler.cpp **** 
 938              		.loc 4 63 9 view .LVU215
 939 000c D0F80C38 		ldr	r3, [r0, #2060]
 940              	.LBB115:
 941              	.LBB112:
  66:Display/displayHandler.cpp ****         for (int i = oldestSampleIdx; i < oldestSampleIdx + _windowSize; i++) {
 942              		.loc 4 66 59 view .LVU216
 943 0010 D0F80828 		ldr	r2, [r0, #2056]
 944              	.LBE112:
 945              	.LBE115:
  63:Display/displayHandler.cpp **** 
 946              		.loc 4 63 9 view .LVU217
 947 0014 0133     		adds	r3, r3, #1
 948              	.LVL60:
 949              	.LBB116:
 950              	.LBB113:
  66:Display/displayHandler.cpp ****         for (int i = oldestSampleIdx; i < oldestSampleIdx + _windowSize; i++) {
 951              		.loc 4 66 41 is_stmt 1 view .LVU218
 952              	.LBE113:
 953              	.LBE116:
  58:Display/displayHandler.cpp ****     float currVal = 0;
 954              		.loc 4 58 35 is_stmt 0 view .LVU219
 955 0016 00B5     		push	{lr}
 956              		.cfi_def_cfa_offset 4
 957              		.cfi_offset 14, -4
 958              	.LBB117:
 959              	.LBB114:
  66:Display/displayHandler.cpp ****             currVal = _circBuffer_ptr[i % BUFFER_SIZE];
 960              		.loc 4 66 59 view .LVU220
 961 0018 03EB020E 		add	lr, r3, r2
  66:Display/displayHandler.cpp ****             currVal = _circBuffer_ptr[i % BUFFER_SIZE];
 962              		.loc 4 66 41 view .LVU221
 963 001c 7345     		cmp	r3, lr
 964 001e 2DDA     		bge	.L55
  67:Display/displayHandler.cpp ****             nextVal = _circBuffer_ptr[(i + 1) % BUFFER_SIZE];
 965              		.loc 4 67 41 view .LVU222
 966 0020 5942     		rsbs	r1, r3, #0
 967 0022 DAB2     		uxtb	r2, r3
 968 0024 C9B2     		uxtb	r1, r1
 969 0026 58BF     		it	pl
 970 0028 4A42     		rsbpl	r2, r1, #0
  67:Display/displayHandler.cpp ****             nextVal = _circBuffer_ptr[(i + 1) % BUFFER_SIZE];
 971              		.loc 4 67 21 view .LVU223
 972 002a 00EB8202 		add	r2, r0, r2, lsl #2
 973 002e D2ED027A 		vldr.32	s15, [r2, #8]
 974 0032 01E0     		b	.L56
 975              	.LVL61:
 976              	.L57:
ARM GAS  C:\Users\skipi\AppData\Local\Temp\cctYXDIM.s 			page 34


  66:Display/displayHandler.cpp ****             currVal = _circBuffer_ptr[i % BUFFER_SIZE];
 977              		.loc 4 66 41 discriminator 1 view .LVU224
 978 0034 7345     		cmp	r3, lr
 979 0036 21D0     		beq	.L55
 980              	.LVL62:
 981              	.L56:
  67:Display/displayHandler.cpp ****             nextVal = _circBuffer_ptr[(i + 1) % BUFFER_SIZE];
 982              		.loc 4 67 13 is_stmt 1 view .LVU225
  68:Display/displayHandler.cpp ****              
 983              		.loc 4 68 13 view .LVU226
 984 0038 9C46     		mov	ip, r3
  68:Display/displayHandler.cpp ****              
 985              		.loc 4 68 42 is_stmt 0 view .LVU227
 986 003a 0133     		adds	r3, r3, #1
 987              	.LVL63:
  66:Display/displayHandler.cpp ****             currVal = _circBuffer_ptr[i % BUFFER_SIZE];
 988              		.loc 4 66 41 is_stmt 1 view .LVU228
 989 003c B0EE677A 		vmov.f32	s14, s15
  68:Display/displayHandler.cpp ****              
 990              		.loc 4 68 47 is_stmt 0 view .LVU229
 991 0040 5942     		rsbs	r1, r3, #0
 992 0042 DAB2     		uxtb	r2, r3
  70:Display/displayHandler.cpp ****                 trigIdx = i % BUFFER_SIZE;
 993              		.loc 4 70 13 view .LVU230
 994 0044 B5EEC07A 		vcmpe.f32	s14, #0
  68:Display/displayHandler.cpp ****              
 995              		.loc 4 68 47 view .LVU231
 996 0048 C9B2     		uxtb	r1, r1
 997 004a 58BF     		it	pl
 998 004c 4A42     		rsbpl	r2, r1, #0
  70:Display/displayHandler.cpp ****                 trigIdx = i % BUFFER_SIZE;
 999              		.loc 4 70 13 view .LVU232
 1000 004e F1EE10FA 		vmrs	APSR_nzcv, FPSCR
  68:Display/displayHandler.cpp ****              
 1001              		.loc 4 68 21 view .LVU233
 1002 0052 00EB8202 		add	r2, r0, r2, lsl #2
 1003 0056 D2ED027A 		vldr.32	s15, [r2, #8]
 1004              	.LVL64:
  70:Display/displayHandler.cpp ****                 trigIdx = i % BUFFER_SIZE;
 1005              		.loc 4 70 13 is_stmt 1 view .LVU234
 1006 005a EBD5     		bpl	.L57
  70:Display/displayHandler.cpp ****                 trigIdx = i % BUFFER_SIZE;
 1007              		.loc 4 70 32 is_stmt 0 discriminator 1 view .LVU235
 1008 005c F5EEC07A 		vcmpe.f32	s15, #0
 1009 0060 F1EE10FA 		vmrs	APSR_nzcv, FPSCR
 1010 0064 E6DB     		blt	.L57
  67:Display/displayHandler.cpp ****             nextVal = _circBuffer_ptr[(i + 1) % BUFFER_SIZE];
 1011              		.loc 4 67 41 view .LVU236
 1012 0066 DCF10003 		rsbs	r3, ip, #0
 1013              	.LVL65:
  67:Display/displayHandler.cpp ****             nextVal = _circBuffer_ptr[(i + 1) % BUFFER_SIZE];
 1014              		.loc 4 67 41 view .LVU237
 1015 006a 5FFA8CF0 		uxtb	r0, ip
 1016              	.LVL66:
  71:Display/displayHandler.cpp ****                 return trigIdx; 
 1017              		.loc 4 71 25 view .LVU238
 1018 006e 054A     		ldr	r2, .L73
ARM GAS  C:\Users\skipi\AppData\Local\Temp\cctYXDIM.s 			page 35


  67:Display/displayHandler.cpp ****             nextVal = _circBuffer_ptr[(i + 1) % BUFFER_SIZE];
 1019              		.loc 4 67 41 view .LVU239
 1020 0070 DBB2     		uxtb	r3, r3
 1021 0072 58BF     		it	pl
 1022 0074 5842     		rsbpl	r0, r3, #0
  71:Display/displayHandler.cpp ****                 return trigIdx; 
 1023              		.loc 4 71 17 is_stmt 1 view .LVU240
  71:Display/displayHandler.cpp ****                 return trigIdx; 
 1024              		.loc 4 71 25 is_stmt 0 view .LVU241
 1025 0076 1060     		str	r0, [r2]
  72:Display/displayHandler.cpp ****             }
 1026              		.loc 4 72 17 is_stmt 1 view .LVU242
 1027              	.LBE114:
 1028              	.LBE117:
 1029              		.loc 4 77 1 is_stmt 0 view .LVU243
 1030 0078 5DF804FB 		ldr	pc, [sp], #4
 1031              	.LVL67:
 1032              	.L55:
  76:Display/displayHandler.cpp **** }
 1033              		.loc 4 76 5 is_stmt 1 view .LVU244
  76:Display/displayHandler.cpp **** }
 1034              		.loc 4 76 12 is_stmt 0 view .LVU245
 1035 007c 014B     		ldr	r3, .L73
 1036 007e 1868     		ldr	r0, [r3]
 1037              	.LVL68:
 1038              		.loc 4 77 1 view .LVU246
 1039 0080 5DF804FB 		ldr	pc, [sp], #4
 1040              	.L74:
 1041              		.align	2
 1042              	.L73:
 1043 0084 00000000 		.word	.LANCHOR0
 1044              		.cfi_endproc
 1045              	.LFE2788:
 1047              		.section	.text._ZN14DisplayHandler12drawWaveFormEv,"ax",%progbits
 1048              		.align	1
 1049              		.p2align 2,,3
 1050              		.global	_ZN14DisplayHandler12drawWaveFormEv
 1051              		.syntax unified
 1052              		.thumb
 1053              		.thumb_func
 1054              		.fpu fpv5-d16
 1056              	_ZN14DisplayHandler12drawWaveFormEv:
 1057              	.LVL69:
 1058              	.LFB2789:
  78:Display/displayHandler.cpp **** 
  79:Display/displayHandler.cpp **** void DisplayHandler::drawWaveForm() {
 1059              		.loc 4 79 37 is_stmt 1 view -0
 1060              		.cfi_startproc
 1061              		@ args = 0, pretend = 0, frame = 16
 1062              		@ frame_needed = 0, uses_anonymous_args = 0
  80:Display/displayHandler.cpp ****     int zeroOfScreen = 32; 
 1063              		.loc 4 80 5 view .LVU248
  81:Display/displayHandler.cpp ****     int y1, y2;
 1064              		.loc 4 81 5 view .LVU249
  82:Display/displayHandler.cpp ****     int idx = 0;
 1065              		.loc 4 82 5 view .LVU250
  83:Display/displayHandler.cpp **** 
ARM GAS  C:\Users\skipi\AppData\Local\Temp\cctYXDIM.s 			page 36


  84:Display/displayHandler.cpp ****     _displayPtr->SetCursor(0, zeroOfScreen);
 1066              		.loc 4 84 5 view .LVU251
  79:Display/displayHandler.cpp ****     int zeroOfScreen = 32; 
 1067              		.loc 4 79 37 is_stmt 0 view .LVU252
 1068 0000 2DE9F04F 		push	{r4, r5, r6, r7, r8, r9, r10, fp, lr}
 1069              		.cfi_def_cfa_offset 36
 1070              		.cfi_offset 4, -36
 1071              		.cfi_offset 5, -32
 1072              		.cfi_offset 6, -28
 1073              		.cfi_offset 7, -24
 1074              		.cfi_offset 8, -20
 1075              		.cfi_offset 9, -16
 1076              		.cfi_offset 10, -12
 1077              		.cfi_offset 11, -8
 1078              		.cfi_offset 14, -4
 1079              		.loc 4 84 5 view .LVU253
 1080 0004 0468     		ldr	r4, [r0]
 1081              	.LVL70:
 1082              	.LBB139:
 1083              	.LBI139:
 171:Display/../../libs/PoliTeKDSP/libs/libDaisy/src/hid/disp/display.h ****     {
 1084              		.loc 3 171 10 is_stmt 1 view .LVU254
 1085              	.LBB140:
 173:Display/../../libs/PoliTeKDSP/libs/libDaisy/src/hid/disp/display.h ****         currentY_ = (y >= Height()) ? Height() - 1 : y;
 1086              		.loc 3 173 9 view .LVU255
 1087              	.LBE140:
 1088              	.LBE139:
  79:Display/displayHandler.cpp ****     int zeroOfScreen = 32; 
 1089              		.loc 4 79 37 is_stmt 0 view .LVU256
 1090 0006 87B0     		sub	sp, sp, #28
 1091              		.cfi_def_cfa_offset 64
  79:Display/displayHandler.cpp ****     int zeroOfScreen = 32; 
 1092              		.loc 4 79 37 view .LVU257
 1093 0008 0646     		mov	r6, r0
 1094              	.LBB144:
 1095              	.LBB141:
 173:Display/../../libs/PoliTeKDSP/libs/libDaisy/src/hid/disp/display.h ****         currentY_ = (y >= Height()) ? Height() - 1 : y;
 1096              		.loc 3 173 33 view .LVU258
 1097 000a 2368     		ldr	r3, [r4]
 173:Display/../../libs/PoliTeKDSP/libs/libDaisy/src/hid/disp/display.h ****         currentY_ = (y >= Height()) ? Height() - 1 : y;
 1098              		.loc 3 173 32 view .LVU259
 1099 000c 2046     		mov	r0, r4
 1100              	.LVL71:
 173:Display/../../libs/PoliTeKDSP/libs/libDaisy/src/hid/disp/display.h ****         currentY_ = (y >= Height()) ? Height() - 1 : y;
 1101              		.loc 3 173 32 view .LVU260
 1102 000e DB68     		ldr	r3, [r3, #12]
 1103 0010 9847     		blx	r3
 1104              	.LVL72:
 173:Display/../../libs/PoliTeKDSP/libs/libDaisy/src/hid/disp/display.h ****         currentY_ = (y >= Height()) ? Height() - 1 : y;
 1105              		.loc 3 173 19 view .LVU261
 1106 0012 0028     		cmp	r0, #0
 1107 0014 40F0CB80 		bne	.L93
 173:Display/../../libs/PoliTeKDSP/libs/libDaisy/src/hid/disp/display.h ****         currentY_ = (y >= Height()) ? Height() - 1 : y;
 1108              		.loc 3 173 44 view .LVU262
 1109 0018 2368     		ldr	r3, [r4]
 173:Display/../../libs/PoliTeKDSP/libs/libDaisy/src/hid/disp/display.h ****         currentY_ = (y >= Height()) ? Height() - 1 : y;
 1110              		.loc 3 173 43 view .LVU263
ARM GAS  C:\Users\skipi\AppData\Local\Temp\cctYXDIM.s 			page 37


 1111 001a 2046     		mov	r0, r4
 1112 001c DB68     		ldr	r3, [r3, #12]
 1113 001e 9847     		blx	r3
 1114              	.LVL73:
 173:Display/../../libs/PoliTeKDSP/libs/libDaisy/src/hid/disp/display.h ****         currentY_ = (y >= Height()) ? Height() - 1 : y;
 1115              		.loc 3 173 19 view .LVU264
 1116 0020 0138     		subs	r0, r0, #1
 1117 0022 83B2     		uxth	r3, r0
 1118              	.L76:
 174:Display/../../libs/PoliTeKDSP/libs/libDaisy/src/hid/disp/display.h ****     }
 1119              		.loc 3 174 34 view .LVU265
 1120 0024 2268     		ldr	r2, [r4]
 174:Display/../../libs/PoliTeKDSP/libs/libDaisy/src/hid/disp/display.h ****     }
 1121              		.loc 3 174 33 view .LVU266
 1122 0026 2046     		mov	r0, r4
 173:Display/../../libs/PoliTeKDSP/libs/libDaisy/src/hid/disp/display.h ****         currentY_ = (y >= Height()) ? Height() - 1 : y;
 1123              		.loc 3 173 19 view .LVU267
 1124 0028 A380     		strh	r3, [r4, #4]	@ movhi
 174:Display/../../libs/PoliTeKDSP/libs/libDaisy/src/hid/disp/display.h ****     }
 1125              		.loc 3 174 9 is_stmt 1 view .LVU268
 174:Display/../../libs/PoliTeKDSP/libs/libDaisy/src/hid/disp/display.h ****     }
 1126              		.loc 3 174 33 is_stmt 0 view .LVU269
 1127 002a 9368     		ldr	r3, [r2, #8]
 1128 002c 9847     		blx	r3
 1129              	.LVL74:
 174:Display/../../libs/PoliTeKDSP/libs/libDaisy/src/hid/disp/display.h ****     }
 1130              		.loc 3 174 19 view .LVU270
 1131 002e 2028     		cmp	r0, #32
 1132 0030 00F2BB80 		bhi	.L94
 174:Display/../../libs/PoliTeKDSP/libs/libDaisy/src/hid/disp/display.h ****     }
 1133              		.loc 3 174 46 view .LVU271
 1134 0034 2368     		ldr	r3, [r4]
 174:Display/../../libs/PoliTeKDSP/libs/libDaisy/src/hid/disp/display.h ****     }
 1135              		.loc 3 174 45 view .LVU272
 1136 0036 2046     		mov	r0, r4
 1137 0038 9B68     		ldr	r3, [r3, #8]
 1138 003a 9847     		blx	r3
 1139              	.LVL75:
 174:Display/../../libs/PoliTeKDSP/libs/libDaisy/src/hid/disp/display.h ****     }
 1140              		.loc 3 174 19 view .LVU273
 1141 003c 0138     		subs	r0, r0, #1
 1142 003e 83B2     		uxth	r3, r0
 1143              	.L77:
 1144              	.LBE141:
 1145              	.LBE144:
  85:Display/displayHandler.cpp ****     _displayPtr->Fill(false);
 1146              		.loc 4 85 5 view .LVU274
 1147 0040 3068     		ldr	r0, [r6]
 1148              	.LBB145:
 1149              	.LBB142:
 174:Display/../../libs/PoliTeKDSP/libs/libDaisy/src/hid/disp/display.h ****     }
 1150              		.loc 3 174 19 view .LVU275
 1151 0042 E380     		strh	r3, [r4, #6]	@ movhi
 1152              	.LVL76:
 174:Display/../../libs/PoliTeKDSP/libs/libDaisy/src/hid/disp/display.h ****     }
 1153              		.loc 3 174 19 view .LVU276
 1154              	.LBE142:
ARM GAS  C:\Users\skipi\AppData\Local\Temp\cctYXDIM.s 			page 38


 1155              	.LBE145:
 1156              		.loc 4 85 5 is_stmt 1 view .LVU277
 1157              		.loc 4 85 28 is_stmt 0 view .LVU278
 1158 0044 0368     		ldr	r3, [r0]
 1159 0046 5C4A     		ldr	r2, .L103
 1160 0048 1B69     		ldr	r3, [r3, #16]
 1161 004a 9342     		cmp	r3, r2
 1162 004c 40F0B180 		bne	.L78
 1163              	.LBB146:
 1164              	.LBB147:
 1165              	.LBB148:
 375:Display/../../libs/PoliTeKDSP/libs/libDaisy/src/dev/oled_ssd130x.h ****         }
 1166              		.loc 2 375 24 view .LVU279
 1167 0050 4FF48062 		mov	r2, #1024
 1168 0054 0021     		movs	r1, #0
 1169 0056 1030     		adds	r0, r0, #16
 1170 0058 FFF7FEFF 		bl	memset
 1171              	.LVL77:
 1172              	.L79:
 1173              	.LBE148:
 1174              	.LBE147:
 1175              	.LBE146:
  86:Display/displayHandler.cpp **** 
  87:Display/displayHandler.cpp ****     idx = findTrigger();
 1176              		.loc 4 87 5 is_stmt 1 view .LVU280
 1177              		.loc 4 87 22 is_stmt 0 view .LVU281
 1178 005c 3046     		mov	r0, r6
 1179 005e FFF7FEFF 		bl	_ZN14DisplayHandler11findTriggerEv
 1180              	.LVL78:
 1181              	.LBB149:
  88:Display/displayHandler.cpp ****     
  89:Display/displayHandler.cpp ****     // Copia opzionale nel buffer stabile se vuoi evitare glitch durante il disegno
  90:Display/displayHandler.cpp ****     // memcpy(_dispBuffer_ptr, _circBuffer_ptr, BUFFER_SIZE * sizeof(float));
  91:Display/displayHandler.cpp ****     
  92:Display/displayHandler.cpp ****     for (int i = idx; i < idx + _windowSize; i++) {
 1182              		.loc 4 92 25 view .LVU282
 1183 0062 D6F80838 		ldr	r3, [r6, #2056]
 1184              	.LBE149:
  87:Display/displayHandler.cpp ****     
 1185              		.loc 4 87 22 view .LVU283
 1186 0066 0590     		str	r0, [sp, #20]
 1187              	.LVL79:
 1188              		.loc 4 92 5 is_stmt 1 view .LVU284
 1189              	.LBB176:
 1190              		.loc 4 92 25 view .LVU285
 1191 0068 002B     		cmp	r3, #0
 1192 006a 7CDD     		ble	.L75
 1193 006c C3B2     		uxtb	r3, r0
 1194              		.loc 4 92 14 is_stmt 0 view .LVU286
 1195 006e 8246     		mov	r10, r0
 1196              		.loc 4 92 25 view .LVU287
 1197 0070 0127     		movs	r7, #1
 1198 0072 B046     		mov	r8, r6
 1199 0074 0493     		str	r3, [sp, #16]
 1200              	.LVL80:
 1201              	.L81:
  93:Display/displayHandler.cpp ****         y1 = zeroOfScreen - (int)(_circBuffer_ptr[i % BUFFER_SIZE] * _yscale);
ARM GAS  C:\Users\skipi\AppData\Local\Temp\cctYXDIM.s 			page 39


 1202              		.loc 4 93 9 is_stmt 1 view .LVU288
 1203              		.loc 4 93 53 is_stmt 0 view .LVU289
 1204 0076 DAF10004 		rsbs	r4, r10, #0
  94:Display/displayHandler.cpp ****         y2 = zeroOfScreen - (int)(_circBuffer_ptr[(i + 1) % BUFFER_SIZE] * _yscale);
 1205              		.loc 4 94 54 view .LVU290
 1206 007a 0AF1010A 		add	r10, r10, #1
 1207              	.LVL81:
  93:Display/displayHandler.cpp ****         y1 = zeroOfScreen - (int)(_circBuffer_ptr[i % BUFFER_SIZE] * _yscale);
 1208              		.loc 4 93 53 view .LVU291
 1209 007e 049A     		ldr	r2, [sp, #16]
 1210 0080 07F1FF31 		add	r1, r7, #-1
 1211 0084 E4B2     		uxtb	r4, r4
  93:Display/displayHandler.cpp ****         y1 = zeroOfScreen - (int)(_circBuffer_ptr[i % BUFFER_SIZE] * _yscale);
 1212              		.loc 4 93 68 view .LVU292
 1213 0086 D8F81838 		ldr	r3, [r8, #2072]
  95:Display/displayHandler.cpp ****         
  96:Display/displayHandler.cpp ****         if (y1 < 0) { y1 = 0; } 
  97:Display/displayHandler.cpp ****         if (y1 > 63) { y1 = 63; }
  98:Display/displayHandler.cpp ****         if (y2 < 0) { y2 = 0; } 
  99:Display/displayHandler.cpp ****         if (y2 > 63) { y2 = 63; }
 100:Display/displayHandler.cpp **** 
 101:Display/displayHandler.cpp ****         _displayPtr->DrawLine(i - idx, y1, (i + 1) - idx, y2, true);
 1214              		.loc 4 101 9 view .LVU293
 1215 008a D8F80000 		ldr	r0, [r8]
  94:Display/displayHandler.cpp ****         y2 = zeroOfScreen - (int)(_circBuffer_ptr[(i + 1) % BUFFER_SIZE] * _yscale);
 1216              		.loc 4 94 59 view .LVU294
 1217 008e 5FFA8AF6 		uxtb	r6, r10
  93:Display/displayHandler.cpp ****         y2 = zeroOfScreen - (int)(_circBuffer_ptr[(i + 1) % BUFFER_SIZE] * _yscale);
 1218              		.loc 4 93 53 view .LVU295
 1219 0092 58BF     		it	pl
 1220 0094 6242     		rsbpl	r2, r4, #0
  94:Display/displayHandler.cpp ****         y2 = zeroOfScreen - (int)(_circBuffer_ptr[(i + 1) % BUFFER_SIZE] * _yscale);
 1221              		.loc 4 94 59 view .LVU296
 1222 0096 DAF10004 		rsbs	r4, r10, #0
  93:Display/displayHandler.cpp ****         y2 = zeroOfScreen - (int)(_circBuffer_ptr[(i + 1) % BUFFER_SIZE] * _yscale);
 1223              		.loc 4 93 68 view .LVU297
 1224 009a 07EE903A 		vmov	s15, r3	@ int
 1225              		.loc 4 101 67 view .LVU298
 1226 009e 0368     		ldr	r3, [r0]
  94:Display/displayHandler.cpp ****         y2 = zeroOfScreen - (int)(_circBuffer_ptr[(i + 1) % BUFFER_SIZE] * _yscale);
 1227              		.loc 4 94 59 view .LVU299
 1228 00a0 E4B2     		uxtb	r4, r4
 1229 00a2 0496     		str	r6, [sp, #16]
 1230              		.loc 4 101 67 view .LVU300
 1231 00a4 9D69     		ldr	r5, [r3, #24]
  93:Display/displayHandler.cpp ****         y2 = zeroOfScreen - (int)(_circBuffer_ptr[(i + 1) % BUFFER_SIZE] * _yscale);
 1232              		.loc 4 93 66 view .LVU301
 1233 00a6 08EB8202 		add	r2, r8, r2, lsl #2
  94:Display/displayHandler.cpp ****         y2 = zeroOfScreen - (int)(_circBuffer_ptr[(i + 1) % BUFFER_SIZE] * _yscale);
 1234              		.loc 4 94 59 view .LVU302
 1235 00aa 3346     		mov	r3, r6
 1236 00ac 58BF     		it	pl
 1237 00ae 6342     		rsbpl	r3, r4, #0
  93:Display/displayHandler.cpp ****         y2 = zeroOfScreen - (int)(_circBuffer_ptr[(i + 1) % BUFFER_SIZE] * _yscale);
 1238              		.loc 4 93 68 view .LVU303
 1239 00b0 F8EEE77A 		vcvt.f32.s32	s15, s15
 1240 00b4 92ED027A 		vldr.32	s14, [r2, #8]
ARM GAS  C:\Users\skipi\AppData\Local\Temp\cctYXDIM.s 			page 40


  94:Display/displayHandler.cpp ****         y2 = zeroOfScreen - (int)(_circBuffer_ptr[(i + 1) % BUFFER_SIZE] * _yscale);
 1241              		.loc 4 94 72 view .LVU304
 1242 00b8 08EB8303 		add	r3, r8, r3, lsl #2
  93:Display/displayHandler.cpp ****         y2 = zeroOfScreen - (int)(_circBuffer_ptr[(i + 1) % BUFFER_SIZE] * _yscale);
 1243              		.loc 4 93 68 view .LVU305
 1244 00bc 27EE877A 		vmul.f32	s14, s15, s14
  94:Display/displayHandler.cpp ****         y2 = zeroOfScreen - (int)(_circBuffer_ptr[(i + 1) % BUFFER_SIZE] * _yscale);
 1245              		.loc 4 94 74 view .LVU306
 1246 00c0 D3ED026A 		vldr.32	s13, [r3, #8]
 1247 00c4 3D4B     		ldr	r3, .L103+4
 1248 00c6 67EEA67A 		vmul.f32	s15, s15, s13
  93:Display/displayHandler.cpp ****         y2 = zeroOfScreen - (int)(_circBuffer_ptr[(i + 1) % BUFFER_SIZE] * _yscale);
 1249              		.loc 4 93 29 view .LVU307
 1250 00ca BDEEC77A 		vcvt.s32.f32	s14, s14
 1251 00ce 9D42     		cmp	r5, r3
  94:Display/displayHandler.cpp ****         y2 = zeroOfScreen - (int)(_circBuffer_ptr[(i + 1) % BUFFER_SIZE] * _yscale);
 1252              		.loc 4 94 29 view .LVU308
 1253 00d0 FDEEE77A 		vcvt.s32.f32	s15, s15
  93:Display/displayHandler.cpp ****         y2 = zeroOfScreen - (int)(_circBuffer_ptr[(i + 1) % BUFFER_SIZE] * _yscale);
 1254              		.loc 4 93 29 view .LVU309
 1255 00d4 17EE102A 		vmov	r2, s14	@ int
  94:Display/displayHandler.cpp ****         y2 = zeroOfScreen - (int)(_circBuffer_ptr[(i + 1) % BUFFER_SIZE] * _yscale);
 1256              		.loc 4 94 29 view .LVU310
 1257 00d8 17EE906A 		vmov	r6, s15	@ int
  93:Display/displayHandler.cpp ****         y2 = zeroOfScreen - (int)(_circBuffer_ptr[(i + 1) % BUFFER_SIZE] * _yscale);
 1258              		.loc 4 93 12 view .LVU311
 1259 00dc C2F12002 		rsb	r2, r2, #32
 1260              	.LVL82:
  94:Display/displayHandler.cpp ****         y2 = zeroOfScreen - (int)(_circBuffer_ptr[(i + 1) % BUFFER_SIZE] * _yscale);
 1261              		.loc 4 94 9 is_stmt 1 view .LVU312
  96:Display/displayHandler.cpp ****         if (y1 > 63) { y1 = 63; }
 1262              		.loc 4 96 9 view .LVU313
  94:Display/displayHandler.cpp ****         
 1263              		.loc 4 94 12 is_stmt 0 view .LVU314
 1264 00e0 C6F12006 		rsb	r6, r6, #32
 1265 00e4 82F30602 		usat	r2, #6, r2
 1266              	.LVL83:
  98:Display/displayHandler.cpp ****         if (y2 > 63) { y2 = 63; }
 1267              		.loc 4 98 9 is_stmt 1 view .LVU315
 1268 00e8 86F30606 		usat	r6, #6, r6
 1269              	.LVL84:
 1270              		.loc 4 101 9 view .LVU316
 1271              		.loc 4 101 30 is_stmt 0 view .LVU317
 1272 00ec 1446     		mov	r4, r2
 1273 00ee 56D1     		bne	.L82
 1274              	.LVL85:
 1275              	.LBB150:
 1276              	.LBI150:
 226:Display/../../libs/PoliTeKDSP/libs/libDaisy/src/hid/disp/display.h ****                   uint_fast8_t y1,
 1277              		.loc 3 226 10 is_stmt 1 view .LVU318
 1278              	.LBB151:
 233:Display/../../libs/PoliTeKDSP/libs/libDaisy/src/hid/disp/display.h ****         int_fast16_t signX  = ((x1 < x2) ? 1 : -1);
 1279              		.loc 3 233 52 is_stmt 0 view .LVU319
 1280 00f0 A6EB0209 		sub	r9, r6, r2
 233:Display/../../libs/PoliTeKDSP/libs/libDaisy/src/hid/disp/display.h ****         int_fast16_t signX  = ((x1 < x2) ? 1 : -1);
 1281              		.loc 3 233 22 view .LVU320
 1282 00f4 B9F1000F 		cmp	r9, #0
ARM GAS  C:\Users\skipi\AppData\Local\Temp\cctYXDIM.s 			page 41


 1283 00f8 B8BF     		it	lt
 1284 00fa C9F10009 		rsblt	r9, r9, #0
 1285              	.LVL86:
 235:Display/../../libs/PoliTeKDSP/libs/libDaisy/src/hid/disp/display.h ****         int_fast16_t error  = deltaX - deltaY;
 1286              		.loc 3 235 42 view .LVU321
 1287 00fe B242     		cmp	r2, r6
 236:Display/../../libs/PoliTeKDSP/libs/libDaisy/src/hid/disp/display.h ****         int_fast16_t error2;
 1288              		.loc 3 236 22 view .LVU322
 1289 0100 C9F10105 		rsb	r5, r9, #1
 235:Display/../../libs/PoliTeKDSP/libs/libDaisy/src/hid/disp/display.h ****         int_fast16_t error  = deltaX - deltaY;
 1290              		.loc 3 235 42 view .LVU323
 1291 0104 36D2     		bcs	.L102
 1292              	.LVL87:
 1293              	.LBB152:
 1294              	.LBI152:
  42:Display/../../libs/PoliTeKDSP/libs/libDaisy/src/hid/disp/oled_display.h ****     {
 1295              		.loc 1 42 10 is_stmt 1 view .LVU324
 1296              	.LBB153:
 1297              	.LBI153:
 361:Display/../../libs/PoliTeKDSP/libs/libDaisy/src/dev/oled_ssd130x.h ****     {
 1298              		.loc 2 361 10 view .LVU325
 1299              	.LBE153:
 1300              	.LBE152:
 235:Display/../../libs/PoliTeKDSP/libs/libDaisy/src/hid/disp/display.h ****         int_fast16_t error  = deltaX - deltaY;
 1301              		.loc 3 235 42 is_stmt 0 view .LVU326
 1302 0106 0123     		movs	r3, #1
 1303              	.LBB163:
 1304              	.LBB158:
 1305              	.LBB154:
 363:Display/../../libs/PoliTeKDSP/libs/libDaisy/src/dev/oled_ssd130x.h ****             return;
 1306              		.loc 2 363 9 view .LVU327
 1307 0108 7F2F     		cmp	r7, #127
 1308              	.LBE154:
 1309              	.LBE158:
 1310              	.LBE163:
 235:Display/../../libs/PoliTeKDSP/libs/libDaisy/src/hid/disp/display.h ****         int_fast16_t error  = deltaX - deltaY;
 1311              		.loc 3 235 42 view .LVU328
 1312 010a 0393     		str	r3, [sp, #12]
 1313              	.LBB164:
 1314              	.LBB159:
 1315              	.LBB155:
 363:Display/../../libs/PoliTeKDSP/libs/libDaisy/src/dev/oled_ssd130x.h ****             return;
 1316              		.loc 2 363 9 view .LVU329
 1317 010c 37D9     		bls	.L92
 1318              	.LVL88:
 1319              	.L85:
 363:Display/../../libs/PoliTeKDSP/libs/libDaisy/src/dev/oled_ssd130x.h ****             return;
 1320              		.loc 2 363 9 view .LVU330
 1321              	.LBE155:
 1322              	.LBE159:
 1323              	.LBE164:
 248:Display/../../libs/PoliTeKDSP/libs/libDaisy/src/hid/disp/display.h ****             {
 1324              		.loc 3 248 23 view .LVU331
 1325 010e C9F1000E 		rsb	lr, r9, #0
 1326              	.LVL89:
 1327              	.L88:
 1328              	.LBB165:
ARM GAS  C:\Users\skipi\AppData\Local\Temp\cctYXDIM.s 			page 42


 1329              	.LBI165:
  42:Display/../../libs/PoliTeKDSP/libs/libDaisy/src/hid/disp/oled_display.h ****     {
 1330              		.loc 1 42 10 is_stmt 1 view .LVU332
 1331              	.LBB166:
 1332              	.LBI166:
 361:Display/../../libs/PoliTeKDSP/libs/libDaisy/src/dev/oled_ssd130x.h ****     {
 1333              		.loc 2 361 10 view .LVU333
 1334              	.LBB167:
 366:Display/../../libs/PoliTeKDSP/libs/libDaisy/src/dev/oled_ssd130x.h ****         else
 1335              		.loc 2 366 48 is_stmt 0 view .LVU334
 1336 0112 4FF0010C 		mov	ip, #1
 366:Display/../../libs/PoliTeKDSP/libs/libDaisy/src/dev/oled_ssd130x.h ****         else
 1337              		.loc 2 366 28 view .LVU335
 1338 0116 E308     		lsrs	r3, r4, #3
 366:Display/../../libs/PoliTeKDSP/libs/libDaisy/src/dev/oled_ssd130x.h ****         else
 1339              		.loc 2 366 54 view .LVU336
 1340 0118 04F00702 		and	r2, r4, #7
 363:Display/../../libs/PoliTeKDSP/libs/libDaisy/src/dev/oled_ssd130x.h ****             return;
 1341              		.loc 2 363 9 view .LVU337
 1342 011c 7F29     		cmp	r1, #127
 366:Display/../../libs/PoliTeKDSP/libs/libDaisy/src/dev/oled_ssd130x.h ****         else
 1343              		.loc 2 366 42 view .LVU338
 1344 011e 01EBC313 		add	r3, r1, r3, lsl #7
 1345              	.LBE167:
 1346              	.LBE166:
 1347              	.LBE165:
 247:Display/../../libs/PoliTeKDSP/libs/libDaisy/src/hid/disp/display.h ****             if(error2 > -deltaY)
 1348              		.loc 3 247 20 view .LVU339
 1349 0122 05FA0CFB 		lsl	fp, r5, ip
 1350              	.LVL90:
 1351              	.LBB170:
 1352              	.LBB169:
 1353              	.LBB168:
 366:Display/../../libs/PoliTeKDSP/libs/libDaisy/src/dev/oled_ssd130x.h ****         else
 1354              		.loc 2 366 48 view .LVU340
 1355 0126 0CFA02F2 		lsl	r2, ip, r2
 363:Display/../../libs/PoliTeKDSP/libs/libDaisy/src/dev/oled_ssd130x.h ****             return;
 1356              		.loc 2 363 9 view .LVU341
 1357 012a 07D8     		bhi	.L89
 1358 012c 3F2C     		cmp	r4, #63
 366:Display/../../libs/PoliTeKDSP/libs/libDaisy/src/dev/oled_ssd130x.h ****         else
 1359              		.loc 2 366 42 view .LVU342
 1360 012e 0344     		add	r3, r3, r0
 363:Display/../../libs/PoliTeKDSP/libs/libDaisy/src/dev/oled_ssd130x.h ****             return;
 1361              		.loc 2 363 9 view .LVU343
 1362 0130 04D8     		bhi	.L89
 366:Display/../../libs/PoliTeKDSP/libs/libDaisy/src/dev/oled_ssd130x.h ****         else
 1363              		.loc 2 366 42 view .LVU344
 1364 0132 93F810C0 		ldrb	ip, [r3, #16]	@ zero_extendqisi2
 1365 0136 42EA0C02 		orr	r2, r2, ip
 1366 013a 1A74     		strb	r2, [r3, #16]
 1367              	.L89:
 366:Display/../../libs/PoliTeKDSP/libs/libDaisy/src/dev/oled_ssd130x.h ****         else
 1368              		.loc 2 366 42 view .LVU345
 1369              	.LBE168:
 1370              	.LBE169:
 1371              	.LBE170:
ARM GAS  C:\Users\skipi\AppData\Local\Temp\cctYXDIM.s 			page 43


 248:Display/../../libs/PoliTeKDSP/libs/libDaisy/src/hid/disp/display.h ****             {
 1372              		.loc 3 248 13 view .LVU346
 1373 013c BEEB450F 		cmp	lr, r5, lsl #1
 1374 0140 14DA     		bge	.L90
 254:Display/../../libs/PoliTeKDSP/libs/libDaisy/src/hid/disp/display.h ****             {
 1375              		.loc 3 254 13 view .LVU347
 1376 0142 BBF1000F 		cmp	fp, #0
 250:Display/../../libs/PoliTeKDSP/libs/libDaisy/src/hid/disp/display.h ****                 x1 += signX;
 1377              		.loc 3 250 23 view .LVU348
 1378 0146 A5EB0905 		sub	r5, r5, r9
 1379              	.LVL91:
 251:Display/../../libs/PoliTeKDSP/libs/libDaisy/src/hid/disp/display.h ****             }
 1380              		.loc 3 251 20 view .LVU349
 1381 014a 01F10101 		add	r1, r1, #1
 1382              	.LVL92:
 254:Display/../../libs/PoliTeKDSP/libs/libDaisy/src/hid/disp/display.h ****             {
 1383              		.loc 3 254 13 view .LVU350
 1384 014e 0DDD     		ble	.L90
 1385              	.L91:
 244:Display/../../libs/PoliTeKDSP/libs/libDaisy/src/hid/disp/display.h ****         {
 1386              		.loc 3 244 26 is_stmt 1 view .LVU351
 1387 0150 B942     		cmp	r1, r7
 1388 0152 DED1     		bne	.L88
 244:Display/../../libs/PoliTeKDSP/libs/libDaisy/src/hid/disp/display.h ****         {
 1389              		.loc 3 244 26 is_stmt 0 view .LVU352
 1390 0154 A642     		cmp	r6, r4
 1391 0156 DCD1     		bne	.L88
 1392              	.LVL93:
 1393              	.L86:
 244:Display/../../libs/PoliTeKDSP/libs/libDaisy/src/hid/disp/display.h ****         {
 1394              		.loc 3 244 26 view .LVU353
 1395              	.LBE151:
 1396              	.LBE150:
  92:Display/displayHandler.cpp ****         y1 = zeroOfScreen - (int)(_circBuffer_ptr[i % BUFFER_SIZE] * _yscale);
 1397              		.loc 4 92 25 is_stmt 1 discriminator 1 view .LVU354
  92:Display/displayHandler.cpp ****         y1 = zeroOfScreen - (int)(_circBuffer_ptr[i % BUFFER_SIZE] * _yscale);
 1398              		.loc 4 92 31 is_stmt 0 discriminator 1 view .LVU355
 1399 0158 D8F80838 		ldr	r3, [r8, #2056]
  92:Display/displayHandler.cpp ****         y1 = zeroOfScreen - (int)(_circBuffer_ptr[i % BUFFER_SIZE] * _yscale);
 1400              		.loc 4 92 25 discriminator 1 view .LVU356
 1401 015c 0137     		adds	r7, r7, #1
  92:Display/displayHandler.cpp ****         y1 = zeroOfScreen - (int)(_circBuffer_ptr[i % BUFFER_SIZE] * _yscale);
 1402              		.loc 4 92 31 discriminator 1 view .LVU357
 1403 015e 059A     		ldr	r2, [sp, #20]
 1404 0160 1344     		add	r3, r3, r2
  92:Display/displayHandler.cpp ****         y1 = zeroOfScreen - (int)(_circBuffer_ptr[i % BUFFER_SIZE] * _yscale);
 1405              		.loc 4 92 25 discriminator 1 view .LVU358
 1406 0162 5345     		cmp	r3, r10
 1407 0164 87DC     		bgt	.L81
 1408              	.LVL94:
 1409              	.L75:
  92:Display/displayHandler.cpp ****         y1 = zeroOfScreen - (int)(_circBuffer_ptr[i % BUFFER_SIZE] * _yscale);
 1410              		.loc 4 92 25 discriminator 1 view .LVU359
 1411              	.LBE176:
 102:Display/displayHandler.cpp ****     }   
 103:Display/displayHandler.cpp **** 
 104:Display/displayHandler.cpp **** 
ARM GAS  C:\Users\skipi\AppData\Local\Temp\cctYXDIM.s 			page 44


 105:Display/displayHandler.cpp **** }
 1412              		.loc 4 105 1 view .LVU360
 1413 0166 07B0     		add	sp, sp, #28
 1414              		.cfi_remember_state
 1415              		.cfi_def_cfa_offset 36
 1416              		@ sp needed
 1417 0168 BDE8F08F 		pop	{r4, r5, r6, r7, r8, r9, r10, fp, pc}
 1418              	.LVL95:
 1419              	.L90:
 1420              		.cfi_restore_state
 1421              	.LBB177:
 1422              	.LBB175:
 1423              	.LBB174:
 257:Display/../../libs/PoliTeKDSP/libs/libDaisy/src/hid/disp/display.h ****             }
 1424              		.loc 3 257 20 view .LVU361
 1425 016c 039B     		ldr	r3, [sp, #12]
 256:Display/../../libs/PoliTeKDSP/libs/libDaisy/src/hid/disp/display.h ****                 y1 += signY;
 1426              		.loc 3 256 23 view .LVU362
 1427 016e 0135     		adds	r5, r5, #1
 1428              	.LVL96:
 257:Display/../../libs/PoliTeKDSP/libs/libDaisy/src/hid/disp/display.h ****             }
 1429              		.loc 3 257 20 view .LVU363
 1430 0170 1C44     		add	r4, r4, r3
 1431              	.LVL97:
 257:Display/../../libs/PoliTeKDSP/libs/libDaisy/src/hid/disp/display.h ****             }
 1432              		.loc 3 257 20 view .LVU364
 1433 0172 EDE7     		b	.L91
 1434              	.LVL98:
 1435              	.L102:
 1436              	.LBB171:
  42:Display/../../libs/PoliTeKDSP/libs/libDaisy/src/hid/disp/oled_display.h ****     {
 1437              		.loc 1 42 10 is_stmt 1 view .LVU365
 1438              	.LBB160:
 361:Display/../../libs/PoliTeKDSP/libs/libDaisy/src/dev/oled_ssd130x.h ****     {
 1439              		.loc 2 361 10 view .LVU366
 1440              	.LBE160:
 1441              	.LBE171:
 235:Display/../../libs/PoliTeKDSP/libs/libDaisy/src/hid/disp/display.h ****         int_fast16_t error  = deltaX - deltaY;
 1442              		.loc 3 235 42 is_stmt 0 view .LVU367
 1443 0174 4FF0FF33 		mov	r3, #-1
 1444              	.LBB172:
 1445              	.LBB161:
 1446              	.LBB156:
 363:Display/../../libs/PoliTeKDSP/libs/libDaisy/src/dev/oled_ssd130x.h ****             return;
 1447              		.loc 2 363 9 view .LVU368
 1448 0178 7F2F     		cmp	r7, #127
 1449              	.LBE156:
 1450              	.LBE161:
 1451              	.LBE172:
 235:Display/../../libs/PoliTeKDSP/libs/libDaisy/src/hid/disp/display.h ****         int_fast16_t error  = deltaX - deltaY;
 1452              		.loc 3 235 42 view .LVU369
 1453 017a 0393     		str	r3, [sp, #12]
 1454              	.LBB173:
 1455              	.LBB162:
 1456              	.LBB157:
 363:Display/../../libs/PoliTeKDSP/libs/libDaisy/src/dev/oled_ssd130x.h ****             return;
 1457              		.loc 2 363 9 view .LVU370
ARM GAS  C:\Users\skipi\AppData\Local\Temp\cctYXDIM.s 			page 45


 1458 017c C7D8     		bhi	.L85
 1459              	.LVL99:
 1460              	.L92:
 366:Display/../../libs/PoliTeKDSP/libs/libDaisy/src/dev/oled_ssd130x.h ****         else
 1461              		.loc 2 366 28 view .LVU371
 1462 017e F308     		lsrs	r3, r6, #3
 366:Display/../../libs/PoliTeKDSP/libs/libDaisy/src/dev/oled_ssd130x.h ****         else
 1463              		.loc 2 366 48 view .LVU372
 1464 0180 4FF0010C 		mov	ip, #1
 366:Display/../../libs/PoliTeKDSP/libs/libDaisy/src/dev/oled_ssd130x.h ****         else
 1465              		.loc 2 366 54 view .LVU373
 1466 0184 06F00702 		and	r2, r6, #7
 1467              	.LVL100:
 366:Display/../../libs/PoliTeKDSP/libs/libDaisy/src/dev/oled_ssd130x.h ****         else
 1468              		.loc 2 366 42 view .LVU374
 1469 0188 07EBC313 		add	r3, r7, r3, lsl #7
 366:Display/../../libs/PoliTeKDSP/libs/libDaisy/src/dev/oled_ssd130x.h ****         else
 1470              		.loc 2 366 48 view .LVU375
 1471 018c 0CFA02F2 		lsl	r2, ip, r2
 366:Display/../../libs/PoliTeKDSP/libs/libDaisy/src/dev/oled_ssd130x.h ****         else
 1472              		.loc 2 366 42 view .LVU376
 1473 0190 0344     		add	r3, r3, r0
 1474 0192 93F810C0 		ldrb	ip, [r3, #16]	@ zero_extendqisi2
 1475 0196 42EA0C02 		orr	r2, r2, ip
 1476 019a 1A74     		strb	r2, [r3, #16]
 1477 019c B7E7     		b	.L85
 1478              	.LVL101:
 1479              	.L82:
 366:Display/../../libs/PoliTeKDSP/libs/libDaisy/src/dev/oled_ssd130x.h ****         else
 1480              		.loc 2 366 42 view .LVU377
 1481              	.LBE157:
 1482              	.LBE162:
 1483              	.LBE173:
 1484              	.LBE174:
 1485              	.LBE175:
 101:Display/displayHandler.cpp ****     }   
 1486              		.loc 4 101 30 view .LVU378
 1487 019e 0123     		movs	r3, #1
 1488 01a0 0096     		str	r6, [sp]
 1489 01a2 0193     		str	r3, [sp, #4]
 1490 01a4 3B46     		mov	r3, r7
 1491 01a6 A847     		blx	r5
 1492              	.LVL102:
 101:Display/displayHandler.cpp ****     }   
 1493              		.loc 4 101 30 view .LVU379
 1494 01a8 D6E7     		b	.L86
 1495              	.LVL103:
 1496              	.L94:
 101:Display/displayHandler.cpp ****     }   
 1497              		.loc 4 101 30 view .LVU380
 1498              	.LBE177:
 1499              	.LBB178:
 1500              	.LBB143:
 174:Display/../../libs/PoliTeKDSP/libs/libDaisy/src/hid/disp/display.h ****     }
 1501              		.loc 3 174 19 view .LVU381
 1502 01aa 2023     		movs	r3, #32
 1503 01ac 48E7     		b	.L77
ARM GAS  C:\Users\skipi\AppData\Local\Temp\cctYXDIM.s 			page 46


 1504              	.L93:
 173:Display/../../libs/PoliTeKDSP/libs/libDaisy/src/hid/disp/display.h ****         currentY_ = (y >= Height()) ? Height() - 1 : y;
 1505              		.loc 3 173 19 view .LVU382
 1506 01ae 0023     		movs	r3, #0
 1507 01b0 38E7     		b	.L76
 1508              	.LVL104:
 1509              	.L78:
 173:Display/../../libs/PoliTeKDSP/libs/libDaisy/src/hid/disp/display.h ****         currentY_ = (y >= Height()) ? Height() - 1 : y;
 1510              		.loc 3 173 19 view .LVU383
 1511              	.LBE143:
 1512              	.LBE178:
  85:Display/displayHandler.cpp **** 
 1513              		.loc 4 85 22 view .LVU384
 1514 01b2 0021     		movs	r1, #0
 1515 01b4 9847     		blx	r3
 1516              	.LVL105:
 1517 01b6 51E7     		b	.L79
 1518              	.L104:
 1519              		.align	2
 1520              	.L103:
 1521 01b8 00000000 		.word	_ZN5daisy11OledDisplayINS_13SSD130xDriverILj128ELj64ENS_19SSD130xI2CTransportEEEE4FillEb
 1522 01bc 00000000 		.word	_ZN5daisy25OneBitGraphicsDisplayImplINS_11OledDisplayINS_13SSD130xDriverILj128ELj64ENS_19SSD
 1523              		.cfi_endproc
 1524              	.LFE2789:
 1526              		.section	.text._ZN14DisplayHandler9SetYscaleEi,"ax",%progbits
 1527              		.align	1
 1528              		.p2align 2,,3
 1529              		.global	_ZN14DisplayHandler9SetYscaleEi
 1530              		.syntax unified
 1531              		.thumb
 1532              		.thumb_func
 1533              		.fpu fpv5-d16
 1535              	_ZN14DisplayHandler9SetYscaleEi:
 1536              	.LVL106:
 1537              	.LFB2790:
 106:Display/displayHandler.cpp **** 
 107:Display/displayHandler.cpp **** void DisplayHandler::SetYscale(int yscale){
 1538              		.loc 4 107 43 is_stmt 1 view -0
 1539              		.cfi_startproc
 1540              		@ args = 0, pretend = 0, frame = 0
 1541              		@ frame_needed = 0, uses_anonymous_args = 0
 1542              		@ link register save eliminated.
 108:Display/displayHandler.cpp ****     _yscale=yscale;
 1543              		.loc 4 108 5 view .LVU386
 1544              		.loc 4 108 12 is_stmt 0 view .LVU387
 1545 0000 C0F81818 		str	r1, [r0, #2072]
 109:Display/displayHandler.cpp **** }
 1546              		.loc 4 109 1 view .LVU388
 1547 0004 7047     		bx	lr
 1548              		.cfi_endproc
 1549              	.LFE2790:
 1551 0006 00BF     		.section	.text._ZN14DisplayHandler17drawStandbyScreenEv,"ax",%progbits
 1552              		.align	1
 1553              		.p2align 2,,3
 1554              		.global	_ZN14DisplayHandler17drawStandbyScreenEv
 1555              		.syntax unified
 1556              		.thumb
ARM GAS  C:\Users\skipi\AppData\Local\Temp\cctYXDIM.s 			page 47


 1557              		.thumb_func
 1558              		.fpu fpv5-d16
 1560              	_ZN14DisplayHandler17drawStandbyScreenEv:
 1561              	.LVL107:
 1562              	.LFB2791:
 110:Display/displayHandler.cpp **** 
 111:Display/displayHandler.cpp **** // LONG FUNCTION AHEAD -> prints test logo atm
 112:Display/displayHandler.cpp **** void DisplayHandler::drawStandbyScreen(){
 1563              		.loc 4 112 41 is_stmt 1 view -0
 1564              		.cfi_startproc
 1565              		@ args = 0, pretend = 0, frame = 0
 1566              		@ frame_needed = 0, uses_anonymous_args = 0
 113:Display/displayHandler.cpp ****   _displayPtr->SetCursor(0,0);
 1567              		.loc 4 113 3 view .LVU390
 112:Display/displayHandler.cpp ****   _displayPtr->SetCursor(0,0);
 1568              		.loc 4 112 41 is_stmt 0 view .LVU391
 1569 0000 30B5     		push	{r4, r5, lr}
 1570              		.cfi_def_cfa_offset 12
 1571              		.cfi_offset 4, -12
 1572              		.cfi_offset 5, -8
 1573              		.cfi_offset 14, -4
 1574              		.loc 4 113 3 view .LVU392
 1575 0002 0468     		ldr	r4, [r0]
 1576              	.LVL108:
 1577              	.LBB181:
 1578              	.LBI181:
 171:Display/../../libs/PoliTeKDSP/libs/libDaisy/src/hid/disp/display.h ****     {
 1579              		.loc 3 171 10 is_stmt 1 view .LVU393
 1580              	.LBB182:
 173:Display/../../libs/PoliTeKDSP/libs/libDaisy/src/hid/disp/display.h ****         currentY_ = (y >= Height()) ? Height() - 1 : y;
 1581              		.loc 3 173 9 view .LVU394
 1582              	.LBE182:
 1583              	.LBE181:
 112:Display/displayHandler.cpp ****   _displayPtr->SetCursor(0,0);
 1584              		.loc 4 112 41 is_stmt 0 view .LVU395
 1585 0004 83B0     		sub	sp, sp, #12
 1586              		.cfi_def_cfa_offset 24
 112:Display/displayHandler.cpp ****   _displayPtr->SetCursor(0,0);
 1587              		.loc 4 112 41 view .LVU396
 1588 0006 0546     		mov	r5, r0
 1589              	.LBB186:
 1590              	.LBB183:
 173:Display/../../libs/PoliTeKDSP/libs/libDaisy/src/hid/disp/display.h ****         currentY_ = (y >= Height()) ? Height() - 1 : y;
 1591              		.loc 3 173 33 view .LVU397
 1592 0008 2368     		ldr	r3, [r4]
 173:Display/../../libs/PoliTeKDSP/libs/libDaisy/src/hid/disp/display.h ****         currentY_ = (y >= Height()) ? Height() - 1 : y;
 1593              		.loc 3 173 32 view .LVU398
 1594 000a 2046     		mov	r0, r4
 1595              	.LVL109:
 173:Display/../../libs/PoliTeKDSP/libs/libDaisy/src/hid/disp/display.h ****         currentY_ = (y >= Height()) ? Height() - 1 : y;
 1596              		.loc 3 173 32 view .LVU399
 1597 000c DB68     		ldr	r3, [r3, #12]
 1598 000e 9847     		blx	r3
 1599              	.LVL110:
 173:Display/../../libs/PoliTeKDSP/libs/libDaisy/src/hid/disp/display.h ****         currentY_ = (y >= Height()) ? Height() - 1 : y;
 1600              		.loc 3 173 19 view .LVU400
 1601 0010 F0B9     		cbnz	r0, .L109
ARM GAS  C:\Users\skipi\AppData\Local\Temp\cctYXDIM.s 			page 48


 173:Display/../../libs/PoliTeKDSP/libs/libDaisy/src/hid/disp/display.h ****         currentY_ = (y >= Height()) ? Height() - 1 : y;
 1602              		.loc 3 173 44 view .LVU401
 1603 0012 2368     		ldr	r3, [r4]
 173:Display/../../libs/PoliTeKDSP/libs/libDaisy/src/hid/disp/display.h ****         currentY_ = (y >= Height()) ? Height() - 1 : y;
 1604              		.loc 3 173 43 view .LVU402
 1605 0014 2046     		mov	r0, r4
 1606 0016 DB68     		ldr	r3, [r3, #12]
 1607 0018 9847     		blx	r3
 1608              	.LVL111:
 173:Display/../../libs/PoliTeKDSP/libs/libDaisy/src/hid/disp/display.h ****         currentY_ = (y >= Height()) ? Height() - 1 : y;
 1609              		.loc 3 173 19 view .LVU403
 1610 001a 0138     		subs	r0, r0, #1
 1611 001c 83B2     		uxth	r3, r0
 1612              	.L107:
 174:Display/../../libs/PoliTeKDSP/libs/libDaisy/src/hid/disp/display.h ****     }
 1613              		.loc 3 174 34 view .LVU404
 1614 001e 2268     		ldr	r2, [r4]
 174:Display/../../libs/PoliTeKDSP/libs/libDaisy/src/hid/disp/display.h ****     }
 1615              		.loc 3 174 33 view .LVU405
 1616 0020 2046     		mov	r0, r4
 173:Display/../../libs/PoliTeKDSP/libs/libDaisy/src/hid/disp/display.h ****         currentY_ = (y >= Height()) ? Height() - 1 : y;
 1617              		.loc 3 173 19 view .LVU406
 1618 0022 A380     		strh	r3, [r4, #4]	@ movhi
 174:Display/../../libs/PoliTeKDSP/libs/libDaisy/src/hid/disp/display.h ****     }
 1619              		.loc 3 174 9 is_stmt 1 view .LVU407
 174:Display/../../libs/PoliTeKDSP/libs/libDaisy/src/hid/disp/display.h ****     }
 1620              		.loc 3 174 33 is_stmt 0 view .LVU408
 1621 0024 9368     		ldr	r3, [r2, #8]
 1622 0026 9847     		blx	r3
 1623              	.LVL112:
 174:Display/../../libs/PoliTeKDSP/libs/libDaisy/src/hid/disp/display.h ****     }
 1624              		.loc 3 174 19 view .LVU409
 1625 0028 A0B9     		cbnz	r0, .L110
 174:Display/../../libs/PoliTeKDSP/libs/libDaisy/src/hid/disp/display.h ****     }
 1626              		.loc 3 174 46 view .LVU410
 1627 002a 2368     		ldr	r3, [r4]
 174:Display/../../libs/PoliTeKDSP/libs/libDaisy/src/hid/disp/display.h ****     }
 1628              		.loc 3 174 45 view .LVU411
 1629 002c 2046     		mov	r0, r4
 1630 002e 9B68     		ldr	r3, [r3, #8]
 1631 0030 9847     		blx	r3
 1632              	.LVL113:
 174:Display/../../libs/PoliTeKDSP/libs/libDaisy/src/hid/disp/display.h ****     }
 1633              		.loc 3 174 19 view .LVU412
 1634 0032 0138     		subs	r0, r0, #1
 1635 0034 83B2     		uxth	r3, r0
 1636              	.L108:
 1637              	.LBE183:
 1638              	.LBE186:
 114:Display/displayHandler.cpp ****         _displayPtr->WriteString(_standbyText, Font_11x18, true);
 1639              		.loc 4 114 9 view .LVU413
 1640 0036 2868     		ldr	r0, [r5]
 1641              		.loc 4 114 33 view .LVU414
 1642 0038 074A     		ldr	r2, .L112
 1643              	.LBB187:
 1644              	.LBB184:
 174:Display/../../libs/PoliTeKDSP/libs/libDaisy/src/hid/disp/display.h ****     }
ARM GAS  C:\Users\skipi\AppData\Local\Temp\cctYXDIM.s 			page 49


 1645              		.loc 3 174 19 view .LVU415
 1646 003a E380     		strh	r3, [r4, #6]	@ movhi
 1647              	.LVL114:
 174:Display/../../libs/PoliTeKDSP/libs/libDaisy/src/hid/disp/display.h ****     }
 1648              		.loc 3 174 19 view .LVU416
 1649              	.LBE184:
 1650              	.LBE187:
 1651              		.loc 4 114 9 is_stmt 1 view .LVU417
 1652              		.loc 4 114 33 is_stmt 0 view .LVU418
 1653 003c 0123     		movs	r3, #1
 1654              		.loc 4 114 64 view .LVU419
 1655 003e 0468     		ldr	r4, [r0]
 1656              		.loc 4 114 33 view .LVU420
 1657 0040 D5F81418 		ldr	r1, [r5, #2068]
 1658 0044 0093     		str	r3, [sp]
 1659 0046 A46A     		ldr	r4, [r4, #40]
 1660 0048 0CCA     		ldm	r2, {r2, r3}
 1661 004a A047     		blx	r4
 1662              	.LVL115:
 115:Display/displayHandler.cpp **** }
 1663              		.loc 4 115 1 view .LVU421
 1664 004c 03B0     		add	sp, sp, #12
 1665              		.cfi_remember_state
 1666              		.cfi_def_cfa_offset 12
 1667              		@ sp needed
 1668 004e 30BD     		pop	{r4, r5, pc}
 1669              	.LVL116:
 1670              	.L109:
 1671              		.cfi_restore_state
 1672              	.LBB188:
 1673              	.LBB185:
 173:Display/../../libs/PoliTeKDSP/libs/libDaisy/src/hid/disp/display.h ****         currentY_ = (y >= Height()) ? Height() - 1 : y;
 1674              		.loc 3 173 19 view .LVU422
 1675 0050 0023     		movs	r3, #0
 1676 0052 E4E7     		b	.L107
 1677              	.L110:
 174:Display/../../libs/PoliTeKDSP/libs/libDaisy/src/hid/disp/display.h ****     }
 1678              		.loc 3 174 19 view .LVU423
 1679 0054 0023     		movs	r3, #0
 1680 0056 EEE7     		b	.L108
 1681              	.L113:
 1682              		.align	2
 1683              	.L112:
 1684 0058 00000000 		.word	Font_11x18
 1685              	.LBE185:
 1686              	.LBE188:
 1687              		.cfi_endproc
 1688              	.LFE2791:
 1690              		.section	.text._ZN14DisplayHandler6UpdateEv,"ax",%progbits
 1691              		.align	1
 1692              		.p2align 2,,3
 1693              		.global	_ZN14DisplayHandler6UpdateEv
 1694              		.syntax unified
 1695              		.thumb
 1696              		.thumb_func
 1697              		.fpu fpv5-d16
 1699              	_ZN14DisplayHandler6UpdateEv:
ARM GAS  C:\Users\skipi\AppData\Local\Temp\cctYXDIM.s 			page 50


 1700              	.LVL117:
 1701              	.LFB2784:
  18:Display/displayHandler.cpp ****     switch (_currentState) {
 1702              		.loc 4 18 31 is_stmt 1 view -0
 1703              		.cfi_startproc
 1704              		@ args = 0, pretend = 0, frame = 8
 1705              		@ frame_needed = 0, uses_anonymous_args = 0
  19:Display/displayHandler.cpp ****         case DisplayState::STANDBY:
 1706              		.loc 4 19 5 view .LVU425
  19:Display/displayHandler.cpp ****         case DisplayState::STANDBY:
 1707              		.loc 4 19 13 is_stmt 0 view .LVU426
 1708 0000 0379     		ldrb	r3, [r0, #4]	@ zero_extendqisi2
  18:Display/displayHandler.cpp ****     switch (_currentState) {
 1709              		.loc 4 18 31 view .LVU427
 1710 0002 2DE9F047 		push	{r4, r5, r6, r7, r8, r9, r10, lr}
 1711              		.cfi_def_cfa_offset 32
 1712              		.cfi_offset 4, -32
 1713              		.cfi_offset 5, -28
 1714              		.cfi_offset 6, -24
 1715              		.cfi_offset 7, -20
 1716              		.cfi_offset 8, -16
 1717              		.cfi_offset 9, -12
 1718              		.cfi_offset 10, -8
 1719              		.cfi_offset 14, -4
 1720 0006 0446     		mov	r4, r0
 1721 0008 84B0     		sub	sp, sp, #16
 1722              		.cfi_def_cfa_offset 48
  19:Display/displayHandler.cpp ****         case DisplayState::STANDBY:
 1723              		.loc 4 19 5 view .LVU428
 1724 000a 002B     		cmp	r3, #0
 1725 000c 55D0     		beq	.L115
 1726 000e 012B     		cmp	r3, #1
 1727 0010 01D1     		bne	.L117
  24:Display/displayHandler.cpp ****             drawWaveForm();
 1728              		.loc 4 24 9 is_stmt 1 view .LVU429
  25:Display/displayHandler.cpp ****             break;
 1729              		.loc 4 25 13 view .LVU430
  25:Display/displayHandler.cpp ****             break;
 1730              		.loc 4 25 25 is_stmt 0 view .LVU431
 1731 0012 FFF7FEFF 		bl	_ZN14DisplayHandler12drawWaveFormEv
 1732              	.LVL118:
  26:Display/displayHandler.cpp **** 
 1733              		.loc 4 26 13 is_stmt 1 view .LVU432
 1734              	.L117:
  36:Display/displayHandler.cpp **** }
 1735              		.loc 4 36 5 view .LVU433
 1736 0016 2668     		ldr	r6, [r4]
 1737 0018 2C4A     		ldr	r2, .L124
  36:Display/displayHandler.cpp **** }
 1738              		.loc 4 36 25 is_stmt 0 view .LVU434
 1739 001a 3368     		ldr	r3, [r6]
 1740 001c 1B6B     		ldr	r3, [r3, #48]
 1741 001e 9342     		cmp	r3, r2
 1742 0020 4ED1     		bne	.L118
 1743              	.LBB203:
 1744              	.LBB204:
 1745              	.LBB205:
ARM GAS  C:\Users\skipi\AppData\Local\Temp\cctYXDIM.s 			page 51


 1746              	.LBB206:
 1747              	.LBB207:
  46:Display/../../libs/PoliTeKDSP/libs/libDaisy/src/dev/oled_ssd130x.h ****     };
 1748              		.loc 2 46 30 view .LVU435
 1749 0022 06F10808 		add	r8, r6, #8
 1750 0026 06F18F07 		add	r7, r6, #143
 1751 002a 06F28F4A 		addw	r10, r6, #1167
 1752 002e 4FF0B009 		mov	r9, #176
 1753              	.LVL119:
 1754              	.L121:
  46:Display/../../libs/PoliTeKDSP/libs/libDaisy/src/dev/oled_ssd130x.h ****     };
 1755              		.loc 2 46 30 view .LVU436
 1756              	.LBE207:
 1757              	.LBI206:
  43:Display/../../libs/PoliTeKDSP/libs/libDaisy/src/dev/oled_ssd130x.h ****     {
 1758              		.loc 2 43 10 is_stmt 1 view .LVU437
 1759              	.LBB208:
  45:Display/../../libs/PoliTeKDSP/libs/libDaisy/src/dev/oled_ssd130x.h ****         i2c_.TransmitBlocking(i2c_address_, buf, 2, 1000);
 1760              		.loc 2 45 9 view .LVU438
  45:Display/../../libs/PoliTeKDSP/libs/libDaisy/src/dev/oled_ssd130x.h ****         i2c_.TransmitBlocking(i2c_address_, buf, 2, 1000);
 1761              		.loc 2 45 17 is_stmt 0 view .LVU439
 1762 0032 0024     		movs	r4, #0
  46:Display/../../libs/PoliTeKDSP/libs/libDaisy/src/dev/oled_ssd130x.h ****     };
 1763              		.loc 2 46 30 view .LVU440
 1764 0034 4FF47A75 		mov	r5, #1000
 1765 0038 0223     		movs	r3, #2
 1766 003a 03AA     		add	r2, sp, #12
  45:Display/../../libs/PoliTeKDSP/libs/libDaisy/src/dev/oled_ssd130x.h ****         i2c_.TransmitBlocking(i2c_address_, buf, 2, 1000);
 1767              		.loc 2 45 17 view .LVU441
 1768 003c 8DF80C40 		strb	r4, [sp, #12]
  46:Display/../../libs/PoliTeKDSP/libs/libDaisy/src/dev/oled_ssd130x.h ****     };
 1769              		.loc 2 46 30 view .LVU442
 1770 0040 4046     		mov	r0, r8
  45:Display/../../libs/PoliTeKDSP/libs/libDaisy/src/dev/oled_ssd130x.h ****         i2c_.TransmitBlocking(i2c_address_, buf, 2, 1000);
 1771              		.loc 2 45 36 view .LVU443
 1772 0042 8DF80D90 		strb	r9, [sp, #13]
  46:Display/../../libs/PoliTeKDSP/libs/libDaisy/src/dev/oled_ssd130x.h ****     };
 1773              		.loc 2 46 9 is_stmt 1 view .LVU444
  46:Display/../../libs/PoliTeKDSP/libs/libDaisy/src/dev/oled_ssd130x.h ****     };
 1774              		.loc 2 46 30 is_stmt 0 view .LVU445
 1775 0046 317B     		ldrb	r1, [r6, #12]	@ zero_extendqisi2
 1776 0048 0095     		str	r5, [sp]
 1777 004a FFF7FEFF 		bl	_ZN5daisy9I2CHandle16TransmitBlockingEtPhtm
 1778              	.LVL120:
  46:Display/../../libs/PoliTeKDSP/libs/libDaisy/src/dev/oled_ssd130x.h ****     };
 1779              		.loc 2 46 30 view .LVU446
 1780              	.LBE208:
 1781              	.LBE206:
 1782              	.LBB209:
 1783              	.LBI209:
  43:Display/../../libs/PoliTeKDSP/libs/libDaisy/src/dev/oled_ssd130x.h ****     {
 1784              		.loc 2 43 10 is_stmt 1 view .LVU447
 1785              	.LBB210:
  45:Display/../../libs/PoliTeKDSP/libs/libDaisy/src/dev/oled_ssd130x.h ****         i2c_.TransmitBlocking(i2c_address_, buf, 2, 1000);
 1786              		.loc 2 45 9 view .LVU448
  45:Display/../../libs/PoliTeKDSP/libs/libDaisy/src/dev/oled_ssd130x.h ****         i2c_.TransmitBlocking(i2c_address_, buf, 2, 1000);
 1787              		.loc 2 45 17 is_stmt 0 view .LVU449
ARM GAS  C:\Users\skipi\AppData\Local\Temp\cctYXDIM.s 			page 52


 1788 004e 8DF80C40 		strb	r4, [sp, #12]
  45:Display/../../libs/PoliTeKDSP/libs/libDaisy/src/dev/oled_ssd130x.h ****         i2c_.TransmitBlocking(i2c_address_, buf, 2, 1000);
 1789              		.loc 2 45 36 view .LVU450
 1790 0052 8DF80D40 		strb	r4, [sp, #13]
  46:Display/../../libs/PoliTeKDSP/libs/libDaisy/src/dev/oled_ssd130x.h ****     };
 1791              		.loc 2 46 9 is_stmt 1 view .LVU451
  46:Display/../../libs/PoliTeKDSP/libs/libDaisy/src/dev/oled_ssd130x.h ****     };
 1792              		.loc 2 46 30 is_stmt 0 view .LVU452
 1793 0056 0223     		movs	r3, #2
 1794 0058 317B     		ldrb	r1, [r6, #12]	@ zero_extendqisi2
 1795 005a 03AA     		add	r2, sp, #12
 1796 005c 4046     		mov	r0, r8
 1797 005e 0095     		str	r5, [sp]
 1798 0060 FFF7FEFF 		bl	_ZN5daisy9I2CHandle16TransmitBlockingEtPhtm
 1799              	.LVL121:
  46:Display/../../libs/PoliTeKDSP/libs/libDaisy/src/dev/oled_ssd130x.h ****     };
 1800              		.loc 2 46 30 view .LVU453
 1801              	.LBE210:
 1802              	.LBE209:
 1803              	.LBB211:
 1804              	.LBI211:
  43:Display/../../libs/PoliTeKDSP/libs/libDaisy/src/dev/oled_ssd130x.h ****     {
 1805              		.loc 2 43 10 is_stmt 1 view .LVU454
 1806              	.LBB212:
  45:Display/../../libs/PoliTeKDSP/libs/libDaisy/src/dev/oled_ssd130x.h ****         i2c_.TransmitBlocking(i2c_address_, buf, 2, 1000);
 1807              		.loc 2 45 9 view .LVU455
  45:Display/../../libs/PoliTeKDSP/libs/libDaisy/src/dev/oled_ssd130x.h ****         i2c_.TransmitBlocking(i2c_address_, buf, 2, 1000);
 1808              		.loc 2 45 36 is_stmt 0 view .LVU456
 1809 0064 1023     		movs	r3, #16
  45:Display/../../libs/PoliTeKDSP/libs/libDaisy/src/dev/oled_ssd130x.h ****         i2c_.TransmitBlocking(i2c_address_, buf, 2, 1000);
 1810              		.loc 2 45 17 view .LVU457
 1811 0066 8DF80C40 		strb	r4, [sp, #12]
  46:Display/../../libs/PoliTeKDSP/libs/libDaisy/src/dev/oled_ssd130x.h ****     };
 1812              		.loc 2 46 30 view .LVU458
 1813 006a 03AA     		add	r2, sp, #12
  45:Display/../../libs/PoliTeKDSP/libs/libDaisy/src/dev/oled_ssd130x.h ****         i2c_.TransmitBlocking(i2c_address_, buf, 2, 1000);
 1814              		.loc 2 45 36 view .LVU459
 1815 006c 8DF80D30 		strb	r3, [sp, #13]
  46:Display/../../libs/PoliTeKDSP/libs/libDaisy/src/dev/oled_ssd130x.h ****     };
 1816              		.loc 2 46 9 is_stmt 1 view .LVU460
  46:Display/../../libs/PoliTeKDSP/libs/libDaisy/src/dev/oled_ssd130x.h ****     };
 1817              		.loc 2 46 30 is_stmt 0 view .LVU461
 1818 0070 4046     		mov	r0, r8
 1819 0072 317B     		ldrb	r1, [r6, #12]	@ zero_extendqisi2
 1820 0074 0223     		movs	r3, #2
 1821 0076 0095     		str	r5, [sp]
 1822 0078 A7F18004 		sub	r4, r7, #128
 1823 007c FFF7FEFF 		bl	_ZN5daisy9I2CHandle16TransmitBlockingEtPhtm
 1824              	.LVL122:
  46:Display/../../libs/PoliTeKDSP/libs/libDaisy/src/dev/oled_ssd130x.h ****     };
 1825              		.loc 2 46 30 view .LVU462
 1826              	.LBE212:
 1827              	.LBE211:
 1828              	.LBB213:
 1829              	.LBI213:
  49:Display/../../libs/PoliTeKDSP/libs/libDaisy/src/dev/oled_ssd130x.h ****     {
 1830              		.loc 2 49 10 is_stmt 1 view .LVU463
ARM GAS  C:\Users\skipi\AppData\Local\Temp\cctYXDIM.s 			page 53


 1831              	.LBB214:
  51:Display/../../libs/PoliTeKDSP/libs/libDaisy/src/dev/oled_ssd130x.h ****         {
 1832              		.loc 2 51 29 view .LVU464
 1833              	.L119:
 1834              	.LBB215:
  53:Display/../../libs/PoliTeKDSP/libs/libDaisy/src/dev/oled_ssd130x.h ****             i2c_.TransmitBlocking(i2c_address_, buf, 2, 1000);
 1835              		.loc 2 53 13 view .LVU465
  53:Display/../../libs/PoliTeKDSP/libs/libDaisy/src/dev/oled_ssd130x.h ****             i2c_.TransmitBlocking(i2c_address_, buf, 2, 1000);
 1836              		.loc 2 53 21 is_stmt 0 view .LVU466
 1837 0080 4021     		movs	r1, #64
  54:Display/../../libs/PoliTeKDSP/libs/libDaisy/src/dev/oled_ssd130x.h ****         }
 1838              		.loc 2 54 34 view .LVU467
 1839 0082 4FF47A75 		mov	r5, #1000
 1840 0086 0223     		movs	r3, #2
 1841 0088 03AA     		add	r2, sp, #12
  53:Display/../../libs/PoliTeKDSP/libs/libDaisy/src/dev/oled_ssd130x.h ****             i2c_.TransmitBlocking(i2c_address_, buf, 2, 1000);
 1842              		.loc 2 53 21 view .LVU468
 1843 008a 8DF80C10 		strb	r1, [sp, #12]
  54:Display/../../libs/PoliTeKDSP/libs/libDaisy/src/dev/oled_ssd130x.h ****         }
 1844              		.loc 2 54 34 view .LVU469
 1845 008e 4046     		mov	r0, r8
  53:Display/../../libs/PoliTeKDSP/libs/libDaisy/src/dev/oled_ssd130x.h ****             i2c_.TransmitBlocking(i2c_address_, buf, 2, 1000);
 1846              		.loc 2 53 43 view .LVU470
 1847 0090 14F8011F 		ldrb	r1, [r4, #1]!	@ zero_extendqisi2
 1848              	.LVL123:
  53:Display/../../libs/PoliTeKDSP/libs/libDaisy/src/dev/oled_ssd130x.h ****             i2c_.TransmitBlocking(i2c_address_, buf, 2, 1000);
 1849              		.loc 2 53 44 view .LVU471
 1850 0094 8DF80D10 		strb	r1, [sp, #13]
  54:Display/../../libs/PoliTeKDSP/libs/libDaisy/src/dev/oled_ssd130x.h ****         }
 1851              		.loc 2 54 13 is_stmt 1 view .LVU472
  54:Display/../../libs/PoliTeKDSP/libs/libDaisy/src/dev/oled_ssd130x.h ****         }
 1852              		.loc 2 54 34 is_stmt 0 view .LVU473
 1853 0098 317B     		ldrb	r1, [r6, #12]	@ zero_extendqisi2
 1854 009a 0095     		str	r5, [sp]
 1855 009c FFF7FEFF 		bl	_ZN5daisy9I2CHandle16TransmitBlockingEtPhtm
 1856              	.LVL124:
 1857              	.LBE215:
  51:Display/../../libs/PoliTeKDSP/libs/libDaisy/src/dev/oled_ssd130x.h ****         {
 1858              		.loc 2 51 9 is_stmt 1 view .LVU474
  51:Display/../../libs/PoliTeKDSP/libs/libDaisy/src/dev/oled_ssd130x.h ****         {
 1859              		.loc 2 51 29 view .LVU475
 1860 00a0 BC42     		cmp	r4, r7
 1861 00a2 EDD1     		bne	.L119
 1862              	.LVL125:
  51:Display/../../libs/PoliTeKDSP/libs/libDaisy/src/dev/oled_ssd130x.h ****         {
 1863              		.loc 2 51 29 is_stmt 0 view .LVU476
 1864              	.LBE214:
 1865              	.LBE213:
 1866              		.loc 2 392 9 is_stmt 1 view .LVU477
 1867              		.loc 2 392 22 view .LVU478
 1868 00a4 04F18007 		add	r7, r4, #128
 1869 00a8 09F10109 		add	r9, r9, #1
 1870              	.LVL126:
 1871              		.loc 2 392 22 is_stmt 0 view .LVU479
 1872 00ac BA45     		cmp	r10, r7
 1873 00ae 5FFA89F9 		uxtb	r9, r9
 1874 00b2 BED1     		bne	.L121
ARM GAS  C:\Users\skipi\AppData\Local\Temp\cctYXDIM.s 			page 54


 1875              	.LBE205:
 1876              	.LBE204:
 1877              	.LBE203:
  37:Display/displayHandler.cpp **** 
 1878              		.loc 4 37 1 view .LVU480
 1879 00b4 04B0     		add	sp, sp, #16
 1880              		.cfi_remember_state
 1881              		.cfi_def_cfa_offset 32
 1882              		@ sp needed
 1883 00b6 BDE8F087 		pop	{r4, r5, r6, r7, r8, r9, r10, pc}
 1884              	.LVL127:
 1885              	.L115:
 1886              		.cfi_restore_state
  20:Display/displayHandler.cpp ****             drawStandbyScreen();
 1887              		.loc 4 20 9 is_stmt 1 view .LVU481
  21:Display/displayHandler.cpp ****             break;
 1888              		.loc 4 21 13 view .LVU482
  21:Display/displayHandler.cpp ****             break;
 1889              		.loc 4 21 30 is_stmt 0 view .LVU483
 1890 00ba FFF7FEFF 		bl	_ZN14DisplayHandler17drawStandbyScreenEv
 1891              	.LVL128:
  22:Display/displayHandler.cpp **** 
 1892              		.loc 4 22 13 is_stmt 1 view .LVU484
 1893 00be AAE7     		b	.L117
 1894              	.L118:
  36:Display/displayHandler.cpp **** }
 1895              		.loc 4 36 24 is_stmt 0 view .LVU485
 1896 00c0 3046     		mov	r0, r6
  37:Display/displayHandler.cpp **** 
 1897              		.loc 4 37 1 view .LVU486
 1898 00c2 04B0     		add	sp, sp, #16
 1899              		.cfi_def_cfa_offset 32
 1900              		@ sp needed
 1901 00c4 BDE8F047 		pop	{r4, r5, r6, r7, r8, r9, r10, lr}
 1902              		.cfi_restore 14
 1903              		.cfi_restore 10
 1904              		.cfi_restore 9
 1905              		.cfi_restore 8
 1906              		.cfi_restore 7
 1907              		.cfi_restore 6
 1908              		.cfi_restore 5
 1909              		.cfi_restore 4
 1910              		.cfi_def_cfa_offset 0
 1911              	.LVL129:
  36:Display/displayHandler.cpp **** }
 1912              		.loc 4 36 24 view .LVU487
 1913 00c8 1847     		bx	r3	@ indirect register sibling call
 1914              	.LVL130:
 1915              	.L125:
 1916 00ca 00BF     		.align	2
 1917              	.L124:
 1918 00cc 00000000 		.word	_ZN5daisy11OledDisplayINS_13SSD130xDriverILj128ELj64ENS_19SSD130xI2CTransportEEEE6UpdateEv
 1919              		.cfi_endproc
 1920              	.LFE2784:
 1922              		.section	.rodata._ZN14DisplayHandler12DrawMainMenuEi.str1.4,"aMS",%progbits,1
 1923              		.align	2
 1924              	.LC26:
ARM GAS  C:\Users\skipi\AppData\Local\Temp\cctYXDIM.s 			page 55


 1925 0000 2D204D41 		.ascii	"- MAIN MENU -\000"
 1925      494E204D 
 1925      454E5520 
 1925      2D00
 1926 000e 0000     		.align	2
 1927              	.LC27:
 1928 0010 43616C69 		.ascii	"Calibration\000"
 1928      62726174 
 1928      696F6E00 
 1929              		.align	2
 1930              	.LC28:
 1931 001c 5363616C 		.ascii	"Scales\000"
 1931      657300
 1932 0023 00       		.align	2
 1933              	.LC29:
 1934 0024 50726573 		.ascii	"Presets\000"
 1934      65747300 
 1935              		.align	2
 1936              	.LC30:
 1937 002c 45786974 		.ascii	"Exit\000"
 1937      00
 1938 0031 000000   		.align	2
 1939              	.LC31:
 1940 0034 3E00     		.ascii	">\000"
 1941              		.section	.text._ZN14DisplayHandler12DrawMainMenuEi,"ax",%progbits
 1942              		.align	1
 1943              		.p2align 2,,3
 1944              		.global	_ZN14DisplayHandler12DrawMainMenuEi
 1945              		.syntax unified
 1946              		.thumb
 1947              		.thumb_func
 1948              		.fpu fpv5-d16
 1950              	_ZN14DisplayHandler12DrawMainMenuEi:
 1951              	.LVL131:
 1952              	.LFB2792:
 116:Display/displayHandler.cpp **** 
 117:Display/displayHandler.cpp **** // --- METODI PUBBLICI PER IL MENU ---
 118:Display/displayHandler.cpp **** 
 119:Display/displayHandler.cpp **** void DisplayHandler::DrawMainMenu(int cursorIndex) {
 1953              		.loc 4 119 52 is_stmt 1 view -0
 1954              		.cfi_startproc
 1955              		@ args = 0, pretend = 0, frame = 0
 1956              		@ frame_needed = 0, uses_anonymous_args = 0
 120:Display/displayHandler.cpp ****     _displayPtr->Fill(false);
 1957              		.loc 4 120 5 view .LVU489
 119:Display/displayHandler.cpp ****     _displayPtr->Fill(false);
 1958              		.loc 4 119 52 is_stmt 0 view .LVU490
 1959 0000 F0B5     		push	{r4, r5, r6, r7, lr}
 1960              		.cfi_def_cfa_offset 20
 1961              		.cfi_offset 4, -20
 1962              		.cfi_offset 5, -16
 1963              		.cfi_offset 6, -12
 1964              		.cfi_offset 7, -8
 1965              		.cfi_offset 14, -4
 1966 0002 0546     		mov	r5, r0
 1967              		.loc 4 120 5 view .LVU491
 1968 0004 0068     		ldr	r0, [r0]
ARM GAS  C:\Users\skipi\AppData\Local\Temp\cctYXDIM.s 			page 56


 1969              	.LVL132:
 1970              		.loc 4 120 5 view .LVU492
 1971 0006 864A     		ldr	r2, .L153
 119:Display/displayHandler.cpp ****     _displayPtr->Fill(false);
 1972              		.loc 4 119 52 view .LVU493
 1973 0008 83B0     		sub	sp, sp, #12
 1974              		.cfi_def_cfa_offset 32
 1975              		.loc 4 120 28 view .LVU494
 1976 000a 0368     		ldr	r3, [r0]
 119:Display/displayHandler.cpp ****     _displayPtr->Fill(false);
 1977              		.loc 4 119 52 view .LVU495
 1978 000c 0C46     		mov	r4, r1
 1979              		.loc 4 120 28 view .LVU496
 1980 000e 1B69     		ldr	r3, [r3, #16]
 1981 0010 9342     		cmp	r3, r2
 1982 0012 40F00181 		bne	.L127
 1983              	.LBB232:
 1984              	.LBB233:
 1985              	.LBB234:
 375:Display/../../libs/PoliTeKDSP/libs/libDaisy/src/dev/oled_ssd130x.h ****         }
 1986              		.loc 2 375 24 view .LVU497
 1987 0016 4FF48062 		mov	r2, #1024
 1988 001a 0021     		movs	r1, #0
 1989              	.LVL133:
 375:Display/../../libs/PoliTeKDSP/libs/libDaisy/src/dev/oled_ssd130x.h ****         }
 1990              		.loc 2 375 24 view .LVU498
 1991 001c 1030     		adds	r0, r0, #16
 1992 001e FFF7FEFF 		bl	memset
 1993              	.LVL134:
 1994              	.L128:
 1995              	.LBE234:
 1996              	.LBE233:
 1997              	.LBE232:
 121:Display/displayHandler.cpp ****     
 122:Display/displayHandler.cpp ****     _displayPtr->SetCursor(0, 0);
 1998              		.loc 4 122 5 is_stmt 1 view .LVU499
 1999 0022 2E68     		ldr	r6, [r5]
 2000              	.LVL135:
 2001              	.LBB235:
 2002              	.LBI235:
 171:Display/../../libs/PoliTeKDSP/libs/libDaisy/src/hid/disp/display.h ****     {
 2003              		.loc 3 171 10 view .LVU500
 2004              	.LBB236:
 173:Display/../../libs/PoliTeKDSP/libs/libDaisy/src/hid/disp/display.h ****         currentY_ = (y >= Height()) ? Height() - 1 : y;
 2005              		.loc 3 173 9 view .LVU501
 173:Display/../../libs/PoliTeKDSP/libs/libDaisy/src/hid/disp/display.h ****         currentY_ = (y >= Height()) ? Height() - 1 : y;
 2006              		.loc 3 173 33 is_stmt 0 view .LVU502
 2007 0024 3368     		ldr	r3, [r6]
 173:Display/../../libs/PoliTeKDSP/libs/libDaisy/src/hid/disp/display.h ****         currentY_ = (y >= Height()) ? Height() - 1 : y;
 2008              		.loc 3 173 32 view .LVU503
 2009 0026 3046     		mov	r0, r6
 2010 0028 DB68     		ldr	r3, [r3, #12]
 2011 002a 9847     		blx	r3
 2012              	.LVL136:
 173:Display/../../libs/PoliTeKDSP/libs/libDaisy/src/hid/disp/display.h ****         currentY_ = (y >= Height()) ? Height() - 1 : y;
 2013              		.loc 3 173 19 view .LVU504
 2014 002c 0028     		cmp	r0, #0
ARM GAS  C:\Users\skipi\AppData\Local\Temp\cctYXDIM.s 			page 57


 2015 002e 40F0F180 		bne	.L141
 173:Display/../../libs/PoliTeKDSP/libs/libDaisy/src/hid/disp/display.h ****         currentY_ = (y >= Height()) ? Height() - 1 : y;
 2016              		.loc 3 173 44 view .LVU505
 2017 0032 3368     		ldr	r3, [r6]
 173:Display/../../libs/PoliTeKDSP/libs/libDaisy/src/hid/disp/display.h ****         currentY_ = (y >= Height()) ? Height() - 1 : y;
 2018              		.loc 3 173 43 view .LVU506
 2019 0034 3046     		mov	r0, r6
 2020 0036 DB68     		ldr	r3, [r3, #12]
 2021 0038 9847     		blx	r3
 2022              	.LVL137:
 173:Display/../../libs/PoliTeKDSP/libs/libDaisy/src/hid/disp/display.h ****         currentY_ = (y >= Height()) ? Height() - 1 : y;
 2023              		.loc 3 173 19 view .LVU507
 2024 003a 0138     		subs	r0, r0, #1
 2025 003c 83B2     		uxth	r3, r0
 2026              	.L129:
 174:Display/../../libs/PoliTeKDSP/libs/libDaisy/src/hid/disp/display.h ****     }
 2027              		.loc 3 174 34 view .LVU508
 2028 003e 3268     		ldr	r2, [r6]
 174:Display/../../libs/PoliTeKDSP/libs/libDaisy/src/hid/disp/display.h ****     }
 2029              		.loc 3 174 33 view .LVU509
 2030 0040 3046     		mov	r0, r6
 173:Display/../../libs/PoliTeKDSP/libs/libDaisy/src/hid/disp/display.h ****         currentY_ = (y >= Height()) ? Height() - 1 : y;
 2031              		.loc 3 173 19 view .LVU510
 2032 0042 B380     		strh	r3, [r6, #4]	@ movhi
 174:Display/../../libs/PoliTeKDSP/libs/libDaisy/src/hid/disp/display.h ****     }
 2033              		.loc 3 174 9 is_stmt 1 view .LVU511
 174:Display/../../libs/PoliTeKDSP/libs/libDaisy/src/hid/disp/display.h ****     }
 2034              		.loc 3 174 33 is_stmt 0 view .LVU512
 2035 0044 9368     		ldr	r3, [r2, #8]
 2036 0046 9847     		blx	r3
 2037              	.LVL138:
 174:Display/../../libs/PoliTeKDSP/libs/libDaisy/src/hid/disp/display.h ****     }
 2038              		.loc 3 174 19 view .LVU513
 2039 0048 0028     		cmp	r0, #0
 2040 004a 40F0E180 		bne	.L142
 174:Display/../../libs/PoliTeKDSP/libs/libDaisy/src/hid/disp/display.h ****     }
 2041              		.loc 3 174 46 view .LVU514
 2042 004e 3368     		ldr	r3, [r6]
 174:Display/../../libs/PoliTeKDSP/libs/libDaisy/src/hid/disp/display.h ****     }
 2043              		.loc 3 174 45 view .LVU515
 2044 0050 3046     		mov	r0, r6
 2045 0052 9B68     		ldr	r3, [r3, #8]
 2046 0054 9847     		blx	r3
 2047              	.LVL139:
 174:Display/../../libs/PoliTeKDSP/libs/libDaisy/src/hid/disp/display.h ****     }
 2048              		.loc 3 174 19 view .LVU516
 2049 0056 0138     		subs	r0, r0, #1
 2050 0058 83B2     		uxth	r3, r0
 2051              	.L130:
 2052              	.LBE236:
 2053              	.LBE235:
 123:Display/displayHandler.cpp ****     _displayPtr->WriteString("- MAIN MENU -", Font_7x10, true);
 2054              		.loc 4 123 5 view .LVU517
 2055 005a 2868     		ldr	r0, [r5]
 2056              		.loc 4 123 29 view .LVU518
 2057 005c 0122     		movs	r2, #1
 2058              	.LBB239:
ARM GAS  C:\Users\skipi\AppData\Local\Temp\cctYXDIM.s 			page 58


 2059              	.LBB237:
 174:Display/../../libs/PoliTeKDSP/libs/libDaisy/src/hid/disp/display.h ****     }
 2060              		.loc 3 174 19 view .LVU519
 2061 005e F380     		strh	r3, [r6, #6]	@ movhi
 2062              	.LVL140:
 174:Display/../../libs/PoliTeKDSP/libs/libDaisy/src/hid/disp/display.h ****     }
 2063              		.loc 3 174 19 view .LVU520
 2064              	.LBE237:
 2065              	.LBE239:
 2066              		.loc 4 123 5 is_stmt 1 view .LVU521
 2067              		.loc 4 123 62 is_stmt 0 view .LVU522
 2068 0060 0368     		ldr	r3, [r0]
 2069              		.loc 4 123 29 view .LVU523
 2070 0062 704E     		ldr	r6, .L153+4
 2071 0064 0092     		str	r2, [sp]
 2072 0066 7049     		ldr	r1, .L153+8
 2073 0068 9F6A     		ldr	r7, [r3, #40]
 2074 006a 96E80C00 		ldm	r6, {r2, r3}
 2075 006e B847     		blx	r7
 2076              	.LVL141:
 124:Display/displayHandler.cpp **** 
 125:Display/displayHandler.cpp ****     _displayPtr->SetCursor(10, 15); _displayPtr->WriteString("Calibration", Font_7x10, true);
 2077              		.loc 4 125 5 is_stmt 1 view .LVU524
 2078 0070 2F68     		ldr	r7, [r5]
 2079              	.LVL142:
 2080              	.LBB240:
 2081              	.LBI240:
 171:Display/../../libs/PoliTeKDSP/libs/libDaisy/src/hid/disp/display.h ****     {
 2082              		.loc 3 171 10 view .LVU525
 2083              	.LBB241:
 173:Display/../../libs/PoliTeKDSP/libs/libDaisy/src/hid/disp/display.h ****         currentY_ = (y >= Height()) ? Height() - 1 : y;
 2084              		.loc 3 173 9 view .LVU526
 173:Display/../../libs/PoliTeKDSP/libs/libDaisy/src/hid/disp/display.h ****         currentY_ = (y >= Height()) ? Height() - 1 : y;
 2085              		.loc 3 173 33 is_stmt 0 view .LVU527
 2086 0072 3B68     		ldr	r3, [r7]
 173:Display/../../libs/PoliTeKDSP/libs/libDaisy/src/hid/disp/display.h ****         currentY_ = (y >= Height()) ? Height() - 1 : y;
 2087              		.loc 3 173 32 view .LVU528
 2088 0074 3846     		mov	r0, r7
 2089 0076 DB68     		ldr	r3, [r3, #12]
 2090 0078 9847     		blx	r3
 2091              	.LVL143:
 173:Display/../../libs/PoliTeKDSP/libs/libDaisy/src/hid/disp/display.h ****         currentY_ = (y >= Height()) ? Height() - 1 : y;
 2092              		.loc 3 173 19 view .LVU529
 2093 007a 0A28     		cmp	r0, #10
 2094 007c 00F2C680 		bhi	.L143
 173:Display/../../libs/PoliTeKDSP/libs/libDaisy/src/hid/disp/display.h ****         currentY_ = (y >= Height()) ? Height() - 1 : y;
 2095              		.loc 3 173 44 view .LVU530
 2096 0080 3B68     		ldr	r3, [r7]
 173:Display/../../libs/PoliTeKDSP/libs/libDaisy/src/hid/disp/display.h ****         currentY_ = (y >= Height()) ? Height() - 1 : y;
 2097              		.loc 3 173 43 view .LVU531
 2098 0082 3846     		mov	r0, r7
 2099 0084 DB68     		ldr	r3, [r3, #12]
 2100 0086 9847     		blx	r3
 2101              	.LVL144:
 173:Display/../../libs/PoliTeKDSP/libs/libDaisy/src/hid/disp/display.h ****         currentY_ = (y >= Height()) ? Height() - 1 : y;
 2102              		.loc 3 173 19 view .LVU532
 2103 0088 0138     		subs	r0, r0, #1
ARM GAS  C:\Users\skipi\AppData\Local\Temp\cctYXDIM.s 			page 59


 2104 008a 83B2     		uxth	r3, r0
 2105              	.L131:
 2106 008c BB80     		strh	r3, [r7, #4]	@ movhi
 174:Display/../../libs/PoliTeKDSP/libs/libDaisy/src/hid/disp/display.h ****     }
 2107              		.loc 3 174 9 is_stmt 1 view .LVU533
 174:Display/../../libs/PoliTeKDSP/libs/libDaisy/src/hid/disp/display.h ****     }
 2108              		.loc 3 174 33 is_stmt 0 view .LVU534
 2109 008e 3846     		mov	r0, r7
 174:Display/../../libs/PoliTeKDSP/libs/libDaisy/src/hid/disp/display.h ****     }
 2110              		.loc 3 174 34 view .LVU535
 2111 0090 3B68     		ldr	r3, [r7]
 174:Display/../../libs/PoliTeKDSP/libs/libDaisy/src/hid/disp/display.h ****     }
 2112              		.loc 3 174 33 view .LVU536
 2113 0092 9B68     		ldr	r3, [r3, #8]
 2114 0094 9847     		blx	r3
 2115              	.LVL145:
 174:Display/../../libs/PoliTeKDSP/libs/libDaisy/src/hid/disp/display.h ****     }
 2116              		.loc 3 174 19 view .LVU537
 2117 0096 0F28     		cmp	r0, #15
 2118 0098 00F2B680 		bhi	.L144
 174:Display/../../libs/PoliTeKDSP/libs/libDaisy/src/hid/disp/display.h ****     }
 2119              		.loc 3 174 46 view .LVU538
 2120 009c 3B68     		ldr	r3, [r7]
 174:Display/../../libs/PoliTeKDSP/libs/libDaisy/src/hid/disp/display.h ****     }
 2121              		.loc 3 174 45 view .LVU539
 2122 009e 3846     		mov	r0, r7
 2123 00a0 9B68     		ldr	r3, [r3, #8]
 2124 00a2 9847     		blx	r3
 2125              	.LVL146:
 174:Display/../../libs/PoliTeKDSP/libs/libDaisy/src/hid/disp/display.h ****     }
 2126              		.loc 3 174 19 view .LVU540
 2127 00a4 0138     		subs	r0, r0, #1
 2128 00a6 83B2     		uxth	r3, r0
 2129              	.L132:
 2130              	.LBE241:
 2131              	.LBE240:
 2132              		.loc 4 125 37 view .LVU541
 2133 00a8 2868     		ldr	r0, [r5]
 2134              		.loc 4 125 61 view .LVU542
 2135 00aa 0122     		movs	r2, #1
 2136              	.LBB244:
 2137              	.LBB242:
 174:Display/../../libs/PoliTeKDSP/libs/libDaisy/src/hid/disp/display.h ****     }
 2138              		.loc 3 174 19 view .LVU543
 2139 00ac FB80     		strh	r3, [r7, #6]	@ movhi
 2140              	.LVL147:
 174:Display/../../libs/PoliTeKDSP/libs/libDaisy/src/hid/disp/display.h ****     }
 2141              		.loc 3 174 19 view .LVU544
 2142              	.LBE242:
 2143              	.LBE244:
 2144              		.loc 4 125 37 is_stmt 1 view .LVU545
 2145              		.loc 4 125 92 is_stmt 0 view .LVU546
 2146 00ae 0368     		ldr	r3, [r0]
 2147              		.loc 4 125 61 view .LVU547
 2148 00b0 5E49     		ldr	r1, .L153+12
 2149 00b2 0092     		str	r2, [sp]
 2150 00b4 9F6A     		ldr	r7, [r3, #40]
ARM GAS  C:\Users\skipi\AppData\Local\Temp\cctYXDIM.s 			page 60


 2151 00b6 96E80C00 		ldm	r6, {r2, r3}
 2152 00ba B847     		blx	r7
 2153              	.LVL148:
 126:Display/displayHandler.cpp ****     _displayPtr->SetCursor(10, 27); _displayPtr->WriteString("Scales", Font_7x10, true);
 2154              		.loc 4 126 5 is_stmt 1 view .LVU548
 2155 00bc 2F68     		ldr	r7, [r5]
 2156              	.LVL149:
 2157              	.LBB245:
 2158              	.LBI245:
 171:Display/../../libs/PoliTeKDSP/libs/libDaisy/src/hid/disp/display.h ****     {
 2159              		.loc 3 171 10 view .LVU549
 2160              	.LBB246:
 173:Display/../../libs/PoliTeKDSP/libs/libDaisy/src/hid/disp/display.h ****         currentY_ = (y >= Height()) ? Height() - 1 : y;
 2161              		.loc 3 173 9 view .LVU550
 173:Display/../../libs/PoliTeKDSP/libs/libDaisy/src/hid/disp/display.h ****         currentY_ = (y >= Height()) ? Height() - 1 : y;
 2162              		.loc 3 173 33 is_stmt 0 view .LVU551
 2163 00be 3B68     		ldr	r3, [r7]
 173:Display/../../libs/PoliTeKDSP/libs/libDaisy/src/hid/disp/display.h ****         currentY_ = (y >= Height()) ? Height() - 1 : y;
 2164              		.loc 3 173 32 view .LVU552
 2165 00c0 3846     		mov	r0, r7
 2166 00c2 DB68     		ldr	r3, [r3, #12]
 2167 00c4 9847     		blx	r3
 2168              	.LVL150:
 173:Display/../../libs/PoliTeKDSP/libs/libDaisy/src/hid/disp/display.h ****         currentY_ = (y >= Height()) ? Height() - 1 : y;
 2169              		.loc 3 173 19 view .LVU553
 2170 00c6 0A28     		cmp	r0, #10
 2171 00c8 00F29C80 		bhi	.L145
 173:Display/../../libs/PoliTeKDSP/libs/libDaisy/src/hid/disp/display.h ****         currentY_ = (y >= Height()) ? Height() - 1 : y;
 2172              		.loc 3 173 44 view .LVU554
 2173 00cc 3B68     		ldr	r3, [r7]
 173:Display/../../libs/PoliTeKDSP/libs/libDaisy/src/hid/disp/display.h ****         currentY_ = (y >= Height()) ? Height() - 1 : y;
 2174              		.loc 3 173 43 view .LVU555
 2175 00ce 3846     		mov	r0, r7
 2176 00d0 DB68     		ldr	r3, [r3, #12]
 2177 00d2 9847     		blx	r3
 2178              	.LVL151:
 173:Display/../../libs/PoliTeKDSP/libs/libDaisy/src/hid/disp/display.h ****         currentY_ = (y >= Height()) ? Height() - 1 : y;
 2179              		.loc 3 173 19 view .LVU556
 2180 00d4 0138     		subs	r0, r0, #1
 2181 00d6 83B2     		uxth	r3, r0
 2182              	.L133:
 2183 00d8 BB80     		strh	r3, [r7, #4]	@ movhi
 174:Display/../../libs/PoliTeKDSP/libs/libDaisy/src/hid/disp/display.h ****     }
 2184              		.loc 3 174 9 is_stmt 1 view .LVU557
 174:Display/../../libs/PoliTeKDSP/libs/libDaisy/src/hid/disp/display.h ****     }
 2185              		.loc 3 174 33 is_stmt 0 view .LVU558
 2186 00da 3846     		mov	r0, r7
 174:Display/../../libs/PoliTeKDSP/libs/libDaisy/src/hid/disp/display.h ****     }
 2187              		.loc 3 174 34 view .LVU559
 2188 00dc 3B68     		ldr	r3, [r7]
 174:Display/../../libs/PoliTeKDSP/libs/libDaisy/src/hid/disp/display.h ****     }
 2189              		.loc 3 174 33 view .LVU560
 2190 00de 9B68     		ldr	r3, [r3, #8]
 2191 00e0 9847     		blx	r3
 2192              	.LVL152:
 174:Display/../../libs/PoliTeKDSP/libs/libDaisy/src/hid/disp/display.h ****     }
 2193              		.loc 3 174 19 view .LVU561
ARM GAS  C:\Users\skipi\AppData\Local\Temp\cctYXDIM.s 			page 61


 2194 00e2 1B28     		cmp	r0, #27
 2195 00e4 00F28C80 		bhi	.L146
 174:Display/../../libs/PoliTeKDSP/libs/libDaisy/src/hid/disp/display.h ****     }
 2196              		.loc 3 174 46 view .LVU562
 2197 00e8 3B68     		ldr	r3, [r7]
 174:Display/../../libs/PoliTeKDSP/libs/libDaisy/src/hid/disp/display.h ****     }
 2198              		.loc 3 174 45 view .LVU563
 2199 00ea 3846     		mov	r0, r7
 2200 00ec 9B68     		ldr	r3, [r3, #8]
 2201 00ee 9847     		blx	r3
 2202              	.LVL153:
 174:Display/../../libs/PoliTeKDSP/libs/libDaisy/src/hid/disp/display.h ****     }
 2203              		.loc 3 174 19 view .LVU564
 2204 00f0 0138     		subs	r0, r0, #1
 2205 00f2 83B2     		uxth	r3, r0
 2206              	.L134:
 2207              	.LBE246:
 2208              	.LBE245:
 2209              		.loc 4 126 37 view .LVU565
 2210 00f4 2868     		ldr	r0, [r5]
 2211              		.loc 4 126 61 view .LVU566
 2212 00f6 0122     		movs	r2, #1
 2213              	.LBB249:
 2214              	.LBB247:
 174:Display/../../libs/PoliTeKDSP/libs/libDaisy/src/hid/disp/display.h ****     }
 2215              		.loc 3 174 19 view .LVU567
 2216 00f8 FB80     		strh	r3, [r7, #6]	@ movhi
 2217              	.LVL154:
 174:Display/../../libs/PoliTeKDSP/libs/libDaisy/src/hid/disp/display.h ****     }
 2218              		.loc 3 174 19 view .LVU568
 2219              	.LBE247:
 2220              	.LBE249:
 2221              		.loc 4 126 37 is_stmt 1 view .LVU569
 2222              		.loc 4 126 87 is_stmt 0 view .LVU570
 2223 00fa 0368     		ldr	r3, [r0]
 2224              		.loc 4 126 61 view .LVU571
 2225 00fc 4C49     		ldr	r1, .L153+16
 2226 00fe 0092     		str	r2, [sp]
 2227 0100 9F6A     		ldr	r7, [r3, #40]
 2228 0102 96E80C00 		ldm	r6, {r2, r3}
 2229 0106 B847     		blx	r7
 2230              	.LVL155:
 127:Display/displayHandler.cpp ****     _displayPtr->SetCursor(10, 39); _displayPtr->WriteString("Presets", Font_7x10, true);
 2231              		.loc 4 127 5 is_stmt 1 view .LVU572
 2232 0108 2F68     		ldr	r7, [r5]
 2233              	.LVL156:
 2234              	.LBB250:
 2235              	.LBI250:
 171:Display/../../libs/PoliTeKDSP/libs/libDaisy/src/hid/disp/display.h ****     {
 2236              		.loc 3 171 10 view .LVU573
 2237              	.LBB251:
 173:Display/../../libs/PoliTeKDSP/libs/libDaisy/src/hid/disp/display.h ****         currentY_ = (y >= Height()) ? Height() - 1 : y;
 2238              		.loc 3 173 9 view .LVU574
 173:Display/../../libs/PoliTeKDSP/libs/libDaisy/src/hid/disp/display.h ****         currentY_ = (y >= Height()) ? Height() - 1 : y;
 2239              		.loc 3 173 33 is_stmt 0 view .LVU575
 2240 010a 3B68     		ldr	r3, [r7]
 173:Display/../../libs/PoliTeKDSP/libs/libDaisy/src/hid/disp/display.h ****         currentY_ = (y >= Height()) ? Height() - 1 : y;
ARM GAS  C:\Users\skipi\AppData\Local\Temp\cctYXDIM.s 			page 62


 2241              		.loc 3 173 32 view .LVU576
 2242 010c 3846     		mov	r0, r7
 2243 010e DB68     		ldr	r3, [r3, #12]
 2244 0110 9847     		blx	r3
 2245              	.LVL157:
 173:Display/../../libs/PoliTeKDSP/libs/libDaisy/src/hid/disp/display.h ****         currentY_ = (y >= Height()) ? Height() - 1 : y;
 2246              		.loc 3 173 19 view .LVU577
 2247 0112 0A28     		cmp	r0, #10
 2248 0114 72D8     		bhi	.L147
 173:Display/../../libs/PoliTeKDSP/libs/libDaisy/src/hid/disp/display.h ****         currentY_ = (y >= Height()) ? Height() - 1 : y;
 2249              		.loc 3 173 44 view .LVU578
 2250 0116 3B68     		ldr	r3, [r7]
 173:Display/../../libs/PoliTeKDSP/libs/libDaisy/src/hid/disp/display.h ****         currentY_ = (y >= Height()) ? Height() - 1 : y;
 2251              		.loc 3 173 43 view .LVU579
 2252 0118 3846     		mov	r0, r7
 2253 011a DB68     		ldr	r3, [r3, #12]
 2254 011c 9847     		blx	r3
 2255              	.LVL158:
 173:Display/../../libs/PoliTeKDSP/libs/libDaisy/src/hid/disp/display.h ****         currentY_ = (y >= Height()) ? Height() - 1 : y;
 2256              		.loc 3 173 19 view .LVU580
 2257 011e 0138     		subs	r0, r0, #1
 2258 0120 83B2     		uxth	r3, r0
 2259              	.L135:
 2260 0122 BB80     		strh	r3, [r7, #4]	@ movhi
 174:Display/../../libs/PoliTeKDSP/libs/libDaisy/src/hid/disp/display.h ****     }
 2261              		.loc 3 174 9 is_stmt 1 view .LVU581
 174:Display/../../libs/PoliTeKDSP/libs/libDaisy/src/hid/disp/display.h ****     }
 2262              		.loc 3 174 33 is_stmt 0 view .LVU582
 2263 0124 3846     		mov	r0, r7
 174:Display/../../libs/PoliTeKDSP/libs/libDaisy/src/hid/disp/display.h ****     }
 2264              		.loc 3 174 34 view .LVU583
 2265 0126 3B68     		ldr	r3, [r7]
 174:Display/../../libs/PoliTeKDSP/libs/libDaisy/src/hid/disp/display.h ****     }
 2266              		.loc 3 174 33 view .LVU584
 2267 0128 9B68     		ldr	r3, [r3, #8]
 2268 012a 9847     		blx	r3
 2269              	.LVL159:
 174:Display/../../libs/PoliTeKDSP/libs/libDaisy/src/hid/disp/display.h ****     }
 2270              		.loc 3 174 19 view .LVU585
 2271 012c 2728     		cmp	r0, #39
 2272 012e 63D8     		bhi	.L148
 174:Display/../../libs/PoliTeKDSP/libs/libDaisy/src/hid/disp/display.h ****     }
 2273              		.loc 3 174 46 view .LVU586
 2274 0130 3B68     		ldr	r3, [r7]
 174:Display/../../libs/PoliTeKDSP/libs/libDaisy/src/hid/disp/display.h ****     }
 2275              		.loc 3 174 45 view .LVU587
 2276 0132 3846     		mov	r0, r7
 2277 0134 9B68     		ldr	r3, [r3, #8]
 2278 0136 9847     		blx	r3
 2279              	.LVL160:
 174:Display/../../libs/PoliTeKDSP/libs/libDaisy/src/hid/disp/display.h ****     }
 2280              		.loc 3 174 19 view .LVU588
 2281 0138 0138     		subs	r0, r0, #1
 2282 013a 83B2     		uxth	r3, r0
 2283              	.L136:
 2284              	.LBE251:
 2285              	.LBE250:
ARM GAS  C:\Users\skipi\AppData\Local\Temp\cctYXDIM.s 			page 63


 2286              		.loc 4 127 37 view .LVU589
 2287 013c 2868     		ldr	r0, [r5]
 2288              		.loc 4 127 61 view .LVU590
 2289 013e 0122     		movs	r2, #1
 2290              	.LBB254:
 2291              	.LBB252:
 174:Display/../../libs/PoliTeKDSP/libs/libDaisy/src/hid/disp/display.h ****     }
 2292              		.loc 3 174 19 view .LVU591
 2293 0140 FB80     		strh	r3, [r7, #6]	@ movhi
 2294              	.LVL161:
 174:Display/../../libs/PoliTeKDSP/libs/libDaisy/src/hid/disp/display.h ****     }
 2295              		.loc 3 174 19 view .LVU592
 2296              	.LBE252:
 2297              	.LBE254:
 2298              		.loc 4 127 37 is_stmt 1 view .LVU593
 2299              		.loc 4 127 88 is_stmt 0 view .LVU594
 2300 0142 0368     		ldr	r3, [r0]
 2301              		.loc 4 127 61 view .LVU595
 2302 0144 3B49     		ldr	r1, .L153+20
 2303 0146 0092     		str	r2, [sp]
 2304 0148 9F6A     		ldr	r7, [r3, #40]
 2305 014a 96E80C00 		ldm	r6, {r2, r3}
 2306 014e B847     		blx	r7
 2307              	.LVL162:
 128:Display/displayHandler.cpp ****     _displayPtr->SetCursor(10, 51); _displayPtr->WriteString("Exit", Font_7x10, true);
 2308              		.loc 4 128 5 is_stmt 1 view .LVU596
 2309 0150 2F68     		ldr	r7, [r5]
 2310              	.LVL163:
 2311              	.LBB255:
 2312              	.LBI255:
 171:Display/../../libs/PoliTeKDSP/libs/libDaisy/src/hid/disp/display.h ****     {
 2313              		.loc 3 171 10 view .LVU597
 2314              	.LBB256:
 173:Display/../../libs/PoliTeKDSP/libs/libDaisy/src/hid/disp/display.h ****         currentY_ = (y >= Height()) ? Height() - 1 : y;
 2315              		.loc 3 173 9 view .LVU598
 173:Display/../../libs/PoliTeKDSP/libs/libDaisy/src/hid/disp/display.h ****         currentY_ = (y >= Height()) ? Height() - 1 : y;
 2316              		.loc 3 173 33 is_stmt 0 view .LVU599
 2317 0152 3B68     		ldr	r3, [r7]
 173:Display/../../libs/PoliTeKDSP/libs/libDaisy/src/hid/disp/display.h ****         currentY_ = (y >= Height()) ? Height() - 1 : y;
 2318              		.loc 3 173 32 view .LVU600
 2319 0154 3846     		mov	r0, r7
 2320 0156 DB68     		ldr	r3, [r3, #12]
 2321 0158 9847     		blx	r3
 2322              	.LVL164:
 173:Display/../../libs/PoliTeKDSP/libs/libDaisy/src/hid/disp/display.h ****         currentY_ = (y >= Height()) ? Height() - 1 : y;
 2323              		.loc 3 173 19 view .LVU601
 2324 015a 0A28     		cmp	r0, #10
 2325 015c 4AD8     		bhi	.L149
 173:Display/../../libs/PoliTeKDSP/libs/libDaisy/src/hid/disp/display.h ****         currentY_ = (y >= Height()) ? Height() - 1 : y;
 2326              		.loc 3 173 44 view .LVU602
 2327 015e 3B68     		ldr	r3, [r7]
 173:Display/../../libs/PoliTeKDSP/libs/libDaisy/src/hid/disp/display.h ****         currentY_ = (y >= Height()) ? Height() - 1 : y;
 2328              		.loc 3 173 43 view .LVU603
 2329 0160 3846     		mov	r0, r7
 2330 0162 DB68     		ldr	r3, [r3, #12]
 2331 0164 9847     		blx	r3
 2332              	.LVL165:
ARM GAS  C:\Users\skipi\AppData\Local\Temp\cctYXDIM.s 			page 64


 173:Display/../../libs/PoliTeKDSP/libs/libDaisy/src/hid/disp/display.h ****         currentY_ = (y >= Height()) ? Height() - 1 : y;
 2333              		.loc 3 173 19 view .LVU604
 2334 0166 0138     		subs	r0, r0, #1
 2335 0168 83B2     		uxth	r3, r0
 2336              	.L137:
 2337 016a BB80     		strh	r3, [r7, #4]	@ movhi
 174:Display/../../libs/PoliTeKDSP/libs/libDaisy/src/hid/disp/display.h ****     }
 2338              		.loc 3 174 9 is_stmt 1 view .LVU605
 174:Display/../../libs/PoliTeKDSP/libs/libDaisy/src/hid/disp/display.h ****     }
 2339              		.loc 3 174 33 is_stmt 0 view .LVU606
 2340 016c 3846     		mov	r0, r7
 174:Display/../../libs/PoliTeKDSP/libs/libDaisy/src/hid/disp/display.h ****     }
 2341              		.loc 3 174 34 view .LVU607
 2342 016e 3B68     		ldr	r3, [r7]
 174:Display/../../libs/PoliTeKDSP/libs/libDaisy/src/hid/disp/display.h ****     }
 2343              		.loc 3 174 33 view .LVU608
 2344 0170 9B68     		ldr	r3, [r3, #8]
 2345 0172 9847     		blx	r3
 2346              	.LVL166:
 174:Display/../../libs/PoliTeKDSP/libs/libDaisy/src/hid/disp/display.h ****     }
 2347              		.loc 3 174 19 view .LVU609
 2348 0174 3328     		cmp	r0, #51
 2349 0176 3BD8     		bhi	.L150
 174:Display/../../libs/PoliTeKDSP/libs/libDaisy/src/hid/disp/display.h ****     }
 2350              		.loc 3 174 46 view .LVU610
 2351 0178 3B68     		ldr	r3, [r7]
 174:Display/../../libs/PoliTeKDSP/libs/libDaisy/src/hid/disp/display.h ****     }
 2352              		.loc 3 174 45 view .LVU611
 2353 017a 3846     		mov	r0, r7
 2354 017c 9B68     		ldr	r3, [r3, #8]
 2355 017e 9847     		blx	r3
 2356              	.LVL167:
 174:Display/../../libs/PoliTeKDSP/libs/libDaisy/src/hid/disp/display.h ****     }
 2357              		.loc 3 174 19 view .LVU612
 2358 0180 0138     		subs	r0, r0, #1
 2359 0182 83B2     		uxth	r3, r0
 2360              	.L138:
 2361              	.LBE256:
 2362              	.LBE255:
 2363              		.loc 4 128 37 view .LVU613
 2364 0184 2868     		ldr	r0, [r5]
 2365              		.loc 4 128 61 view .LVU614
 2366 0186 0122     		movs	r2, #1
 2367              	.LBB259:
 2368              	.LBB257:
 174:Display/../../libs/PoliTeKDSP/libs/libDaisy/src/hid/disp/display.h ****     }
 2369              		.loc 3 174 19 view .LVU615
 2370 0188 FB80     		strh	r3, [r7, #6]	@ movhi
 2371              	.LVL168:
 174:Display/../../libs/PoliTeKDSP/libs/libDaisy/src/hid/disp/display.h ****     }
 2372              		.loc 3 174 19 view .LVU616
 2373              	.LBE257:
 2374              	.LBE259:
 2375              		.loc 4 128 37 is_stmt 1 view .LVU617
 129:Display/displayHandler.cpp **** 
 130:Display/displayHandler.cpp ****     // Disegna il cursore (spaziatura di 12 pixel sull'asse Y)
 131:Display/displayHandler.cpp ****     int cursorY = 15 + (cursorIndex * 12);
ARM GAS  C:\Users\skipi\AppData\Local\Temp\cctYXDIM.s 			page 65


 2376              		.loc 4 131 37 is_stmt 0 view .LVU618
 2377 018a 04EB4404 		add	r4, r4, r4, lsl #1
 2378              	.LVL169:
 128:Display/displayHandler.cpp **** 
 2379              		.loc 4 128 85 view .LVU619
 2380 018e 0368     		ldr	r3, [r0]
 128:Display/displayHandler.cpp **** 
 2381              		.loc 4 128 61 view .LVU620
 2382 0190 2949     		ldr	r1, .L153+24
 2383              		.loc 4 131 37 view .LVU621
 2384 0192 A400     		lsls	r4, r4, #2
 128:Display/displayHandler.cpp **** 
 2385              		.loc 4 128 61 view .LVU622
 2386 0194 0092     		str	r2, [sp]
 2387 0196 9F6A     		ldr	r7, [r3, #40]
 2388              		.loc 4 131 9 view .LVU623
 2389 0198 0F34     		adds	r4, r4, #15
 128:Display/displayHandler.cpp **** 
 2390              		.loc 4 128 61 view .LVU624
 2391 019a 96E80C00 		ldm	r6, {r2, r3}
 2392 019e B847     		blx	r7
 2393              	.LVL170:
 2394              		.loc 4 131 5 is_stmt 1 view .LVU625
 132:Display/displayHandler.cpp ****     _displayPtr->SetCursor(0, cursorY);
 2395              		.loc 4 132 5 view .LVU626
 2396 01a0 2F68     		ldr	r7, [r5]
 2397              		.loc 4 132 27 is_stmt 0 view .LVU627
 2398 01a2 A4B2     		uxth	r4, r4
 2399              	.LVL171:
 2400              	.LBB260:
 2401              	.LBI260:
 171:Display/../../libs/PoliTeKDSP/libs/libDaisy/src/hid/disp/display.h ****     {
 2402              		.loc 3 171 10 is_stmt 1 view .LVU628
 2403              	.LBB261:
 173:Display/../../libs/PoliTeKDSP/libs/libDaisy/src/hid/disp/display.h ****         currentY_ = (y >= Height()) ? Height() - 1 : y;
 2404              		.loc 3 173 9 view .LVU629
 173:Display/../../libs/PoliTeKDSP/libs/libDaisy/src/hid/disp/display.h ****         currentY_ = (y >= Height()) ? Height() - 1 : y;
 2405              		.loc 3 173 33 is_stmt 0 view .LVU630
 2406 01a4 3B68     		ldr	r3, [r7]
 173:Display/../../libs/PoliTeKDSP/libs/libDaisy/src/hid/disp/display.h ****         currentY_ = (y >= Height()) ? Height() - 1 : y;
 2407              		.loc 3 173 32 view .LVU631
 2408 01a6 3846     		mov	r0, r7
 2409 01a8 DB68     		ldr	r3, [r3, #12]
 2410 01aa 9847     		blx	r3
 2411              	.LVL172:
 173:Display/../../libs/PoliTeKDSP/libs/libDaisy/src/hid/disp/display.h ****         currentY_ = (y >= Height()) ? Height() - 1 : y;
 2412              		.loc 3 173 19 view .LVU632
 2413 01ac F0B9     		cbnz	r0, .L151
 173:Display/../../libs/PoliTeKDSP/libs/libDaisy/src/hid/disp/display.h ****         currentY_ = (y >= Height()) ? Height() - 1 : y;
 2414              		.loc 3 173 44 view .LVU633
 2415 01ae 3B68     		ldr	r3, [r7]
 173:Display/../../libs/PoliTeKDSP/libs/libDaisy/src/hid/disp/display.h ****         currentY_ = (y >= Height()) ? Height() - 1 : y;
 2416              		.loc 3 173 43 view .LVU634
 2417 01b0 3846     		mov	r0, r7
 2418 01b2 DB68     		ldr	r3, [r3, #12]
 2419 01b4 9847     		blx	r3
 2420              	.LVL173:
ARM GAS  C:\Users\skipi\AppData\Local\Temp\cctYXDIM.s 			page 66


 173:Display/../../libs/PoliTeKDSP/libs/libDaisy/src/hid/disp/display.h ****         currentY_ = (y >= Height()) ? Height() - 1 : y;
 2421              		.loc 3 173 19 view .LVU635
 2422 01b6 0138     		subs	r0, r0, #1
 2423 01b8 83B2     		uxth	r3, r0
 2424              	.L139:
 2425 01ba BB80     		strh	r3, [r7, #4]	@ movhi
 174:Display/../../libs/PoliTeKDSP/libs/libDaisy/src/hid/disp/display.h ****     }
 2426              		.loc 3 174 9 is_stmt 1 view .LVU636
 174:Display/../../libs/PoliTeKDSP/libs/libDaisy/src/hid/disp/display.h ****     }
 2427              		.loc 3 174 33 is_stmt 0 view .LVU637
 2428 01bc 3846     		mov	r0, r7
 174:Display/../../libs/PoliTeKDSP/libs/libDaisy/src/hid/disp/display.h ****     }
 2429              		.loc 3 174 34 view .LVU638
 2430 01be 3B68     		ldr	r3, [r7]
 174:Display/../../libs/PoliTeKDSP/libs/libDaisy/src/hid/disp/display.h ****     }
 2431              		.loc 3 174 33 view .LVU639
 2432 01c0 9B68     		ldr	r3, [r3, #8]
 2433 01c2 9847     		blx	r3
 2434              	.LVL174:
 174:Display/../../libs/PoliTeKDSP/libs/libDaisy/src/hid/disp/display.h ****     }
 2435              		.loc 3 174 19 view .LVU640
 2436 01c4 8442     		cmp	r4, r0
 2437 01c6 05D3     		bcc	.L140
 174:Display/../../libs/PoliTeKDSP/libs/libDaisy/src/hid/disp/display.h ****     }
 2438              		.loc 3 174 46 view .LVU641
 2439 01c8 3B68     		ldr	r3, [r7]
 174:Display/../../libs/PoliTeKDSP/libs/libDaisy/src/hid/disp/display.h ****     }
 2440              		.loc 3 174 45 view .LVU642
 2441 01ca 3846     		mov	r0, r7
 2442 01cc 9B68     		ldr	r3, [r3, #8]
 2443 01ce 9847     		blx	r3
 2444              	.LVL175:
 174:Display/../../libs/PoliTeKDSP/libs/libDaisy/src/hid/disp/display.h ****     }
 2445              		.loc 3 174 19 view .LVU643
 2446 01d0 0138     		subs	r0, r0, #1
 2447 01d2 84B2     		uxth	r4, r0
 2448              	.LVL176:
 2449              	.L140:
 174:Display/../../libs/PoliTeKDSP/libs/libDaisy/src/hid/disp/display.h ****     }
 2450              		.loc 3 174 19 view .LVU644
 2451              	.LBE261:
 2452              	.LBE260:
 133:Display/displayHandler.cpp ****     _displayPtr->WriteString(">", Font_7x10, true);
 2453              		.loc 4 133 5 view .LVU645
 2454 01d4 2868     		ldr	r0, [r5]
 2455              		.loc 4 133 29 view .LVU646
 2456 01d6 0123     		movs	r3, #1
 2457              	.LBB264:
 2458              	.LBB262:
 174:Display/../../libs/PoliTeKDSP/libs/libDaisy/src/hid/disp/display.h ****     }
 2459              		.loc 3 174 19 view .LVU647
 2460 01d8 FC80     		strh	r4, [r7, #6]	@ movhi
 2461              	.LVL177:
 174:Display/../../libs/PoliTeKDSP/libs/libDaisy/src/hid/disp/display.h ****     }
 2462              		.loc 3 174 19 view .LVU648
 2463              	.LBE262:
 2464              	.LBE264:
ARM GAS  C:\Users\skipi\AppData\Local\Temp\cctYXDIM.s 			page 67


 2465              		.loc 4 133 5 is_stmt 1 view .LVU649
 2466              		.loc 4 133 50 is_stmt 0 view .LVU650
 2467 01da 0168     		ldr	r1, [r0]
 2468              		.loc 4 133 29 view .LVU651
 2469 01dc 0093     		str	r3, [sp]
 2470 01de 8C6A     		ldr	r4, [r1, #40]
 2471 01e0 1649     		ldr	r1, .L153+28
 2472 01e2 96E80C00 		ldm	r6, {r2, r3}
 2473 01e6 A047     		blx	r4
 2474              	.LVL178:
 134:Display/displayHandler.cpp **** }
 2475              		.loc 4 134 1 view .LVU652
 2476 01e8 03B0     		add	sp, sp, #12
 2477              		.cfi_remember_state
 2478              		.cfi_def_cfa_offset 20
 2479              		@ sp needed
 2480 01ea F0BD     		pop	{r4, r5, r6, r7, pc}
 2481              	.LVL179:
 2482              	.L151:
 2483              		.cfi_restore_state
 2484              	.LBB265:
 2485              	.LBB263:
 173:Display/../../libs/PoliTeKDSP/libs/libDaisy/src/hid/disp/display.h ****         currentY_ = (y >= Height()) ? Height() - 1 : y;
 2486              		.loc 3 173 19 view .LVU653
 2487 01ec 0023     		movs	r3, #0
 2488 01ee E4E7     		b	.L139
 2489              	.LVL180:
 2490              	.L150:
 173:Display/../../libs/PoliTeKDSP/libs/libDaisy/src/hid/disp/display.h ****         currentY_ = (y >= Height()) ? Height() - 1 : y;
 2491              		.loc 3 173 19 view .LVU654
 2492              	.LBE263:
 2493              	.LBE265:
 2494              	.LBB266:
 2495              	.LBB258:
 174:Display/../../libs/PoliTeKDSP/libs/libDaisy/src/hid/disp/display.h ****     }
 2496              		.loc 3 174 19 view .LVU655
 2497 01f0 3323     		movs	r3, #51
 2498 01f2 C7E7     		b	.L138
 2499              	.L149:
 173:Display/../../libs/PoliTeKDSP/libs/libDaisy/src/hid/disp/display.h ****         currentY_ = (y >= Height()) ? Height() - 1 : y;
 2500              		.loc 3 173 19 view .LVU656
 2501 01f4 0A23     		movs	r3, #10
 2502 01f6 B8E7     		b	.L137
 2503              	.LVL181:
 2504              	.L148:
 173:Display/../../libs/PoliTeKDSP/libs/libDaisy/src/hid/disp/display.h ****         currentY_ = (y >= Height()) ? Height() - 1 : y;
 2505              		.loc 3 173 19 view .LVU657
 2506              	.LBE258:
 2507              	.LBE266:
 2508              	.LBB267:
 2509              	.LBB253:
 174:Display/../../libs/PoliTeKDSP/libs/libDaisy/src/hid/disp/display.h ****     }
 2510              		.loc 3 174 19 view .LVU658
 2511 01f8 2723     		movs	r3, #39
 2512 01fa 9FE7     		b	.L136
 2513              	.L147:
 173:Display/../../libs/PoliTeKDSP/libs/libDaisy/src/hid/disp/display.h ****         currentY_ = (y >= Height()) ? Height() - 1 : y;
ARM GAS  C:\Users\skipi\AppData\Local\Temp\cctYXDIM.s 			page 68


 2514              		.loc 3 173 19 view .LVU659
 2515 01fc 0A23     		movs	r3, #10
 2516 01fe 90E7     		b	.L135
 2517              	.LVL182:
 2518              	.L146:
 173:Display/../../libs/PoliTeKDSP/libs/libDaisy/src/hid/disp/display.h ****         currentY_ = (y >= Height()) ? Height() - 1 : y;
 2519              		.loc 3 173 19 view .LVU660
 2520              	.LBE253:
 2521              	.LBE267:
 2522              	.LBB268:
 2523              	.LBB248:
 174:Display/../../libs/PoliTeKDSP/libs/libDaisy/src/hid/disp/display.h ****     }
 2524              		.loc 3 174 19 view .LVU661
 2525 0200 1B23     		movs	r3, #27
 2526 0202 77E7     		b	.L134
 2527              	.L145:
 173:Display/../../libs/PoliTeKDSP/libs/libDaisy/src/hid/disp/display.h ****         currentY_ = (y >= Height()) ? Height() - 1 : y;
 2528              		.loc 3 173 19 view .LVU662
 2529 0204 0A23     		movs	r3, #10
 2530 0206 67E7     		b	.L133
 2531              	.LVL183:
 2532              	.L144:
 173:Display/../../libs/PoliTeKDSP/libs/libDaisy/src/hid/disp/display.h ****         currentY_ = (y >= Height()) ? Height() - 1 : y;
 2533              		.loc 3 173 19 view .LVU663
 2534              	.LBE248:
 2535              	.LBE268:
 2536              	.LBB269:
 2537              	.LBB243:
 174:Display/../../libs/PoliTeKDSP/libs/libDaisy/src/hid/disp/display.h ****     }
 2538              		.loc 3 174 19 view .LVU664
 2539 0208 0F23     		movs	r3, #15
 2540 020a 4DE7     		b	.L132
 2541              	.L143:
 173:Display/../../libs/PoliTeKDSP/libs/libDaisy/src/hid/disp/display.h ****         currentY_ = (y >= Height()) ? Height() - 1 : y;
 2542              		.loc 3 173 19 view .LVU665
 2543 020c 0A23     		movs	r3, #10
 2544 020e 3DE7     		b	.L131
 2545              	.LVL184:
 2546              	.L142:
 173:Display/../../libs/PoliTeKDSP/libs/libDaisy/src/hid/disp/display.h ****         currentY_ = (y >= Height()) ? Height() - 1 : y;
 2547              		.loc 3 173 19 view .LVU666
 2548              	.LBE243:
 2549              	.LBE269:
 2550              	.LBB270:
 2551              	.LBB238:
 174:Display/../../libs/PoliTeKDSP/libs/libDaisy/src/hid/disp/display.h ****     }
 2552              		.loc 3 174 19 view .LVU667
 2553 0210 0023     		movs	r3, #0
 2554 0212 22E7     		b	.L130
 2555              	.L141:
 173:Display/../../libs/PoliTeKDSP/libs/libDaisy/src/hid/disp/display.h ****         currentY_ = (y >= Height()) ? Height() - 1 : y;
 2556              		.loc 3 173 19 view .LVU668
 2557 0214 0023     		movs	r3, #0
 2558 0216 12E7     		b	.L129
 2559              	.LVL185:
 2560              	.L127:
 173:Display/../../libs/PoliTeKDSP/libs/libDaisy/src/hid/disp/display.h ****         currentY_ = (y >= Height()) ? Height() - 1 : y;
ARM GAS  C:\Users\skipi\AppData\Local\Temp\cctYXDIM.s 			page 69


 2561              		.loc 3 173 19 view .LVU669
 2562              	.LBE238:
 2563              	.LBE270:
 120:Display/displayHandler.cpp ****     
 2564              		.loc 4 120 22 view .LVU670
 2565 0218 0021     		movs	r1, #0
 2566              	.LVL186:
 120:Display/displayHandler.cpp ****     
 2567              		.loc 4 120 22 view .LVU671
 2568 021a 9847     		blx	r3
 2569              	.LVL187:
 2570 021c 01E7     		b	.L128
 2571              	.L154:
 2572 021e 00BF     		.align	2
 2573              	.L153:
 2574 0220 00000000 		.word	_ZN5daisy11OledDisplayINS_13SSD130xDriverILj128ELj64ENS_19SSD130xI2CTransportEEEE4FillEb
 2575 0224 00000000 		.word	Font_7x10
 2576 0228 00000000 		.word	.LC26
 2577 022c 10000000 		.word	.LC27
 2578 0230 1C000000 		.word	.LC28
 2579 0234 24000000 		.word	.LC29
 2580 0238 2C000000 		.word	.LC30
 2581 023c 34000000 		.word	.LC31
 2582              		.cfi_endproc
 2583              	.LFE2792:
 2585              		.section	.rodata._ZN14DisplayHandler18DrawCalibrationHubEi.str1.4,"aMS",%progbits,1
 2586              		.align	2
 2587              	.LC32:
 2588 0000 2D204341 		.ascii	"- CALIBRATION -\000"
 2588      4C494252 
 2588      4154494F 
 2588      4E202D00 
 2589              		.align	2
 2590              	.LC33:
 2591 0010 44656C74 		.ascii	"Delta\000"
 2591      6100
 2592 0016 0000     		.align	2
 2593              	.LC34:
 2594 0018 43757276 		.ascii	"Curve\000"
 2594      6500
 2595 001e 0000     		.align	2
 2596              	.LC35:
 2597 0020 4261636B 		.ascii	"Back\000"
 2597      00
 2598              		.section	.text._ZN14DisplayHandler18DrawCalibrationHubEi,"ax",%progbits
 2599              		.align	1
 2600              		.p2align 2,,3
 2601              		.global	_ZN14DisplayHandler18DrawCalibrationHubEi
 2602              		.syntax unified
 2603              		.thumb
 2604              		.thumb_func
 2605              		.fpu fpv5-d16
 2607              	_ZN14DisplayHandler18DrawCalibrationHubEi:
 2608              	.LVL188:
 2609              	.LFB2793:
 135:Display/displayHandler.cpp **** 
 136:Display/displayHandler.cpp **** void DisplayHandler::DrawCalibrationHub(int cursorIndex) {
ARM GAS  C:\Users\skipi\AppData\Local\Temp\cctYXDIM.s 			page 70


 2610              		.loc 4 136 58 is_stmt 1 view -0
 2611              		.cfi_startproc
 2612              		@ args = 0, pretend = 0, frame = 0
 2613              		@ frame_needed = 0, uses_anonymous_args = 0
 137:Display/displayHandler.cpp ****     _displayPtr->Fill(false);
 2614              		.loc 4 137 5 view .LVU673
 136:Display/displayHandler.cpp ****     _displayPtr->Fill(false);
 2615              		.loc 4 136 58 is_stmt 0 view .LVU674
 2616 0000 F0B5     		push	{r4, r5, r6, r7, lr}
 2617              		.cfi_def_cfa_offset 20
 2618              		.cfi_offset 4, -20
 2619              		.cfi_offset 5, -16
 2620              		.cfi_offset 6, -12
 2621              		.cfi_offset 7, -8
 2622              		.cfi_offset 14, -4
 2623 0002 0546     		mov	r5, r0
 2624              		.loc 4 137 5 view .LVU675
 2625 0004 0068     		ldr	r0, [r0]
 2626              	.LVL189:
 2627              		.loc 4 137 5 view .LVU676
 2628 0006 714A     		ldr	r2, .L178
 136:Display/displayHandler.cpp ****     _displayPtr->Fill(false);
 2629              		.loc 4 136 58 view .LVU677
 2630 0008 83B0     		sub	sp, sp, #12
 2631              		.cfi_def_cfa_offset 32
 2632              		.loc 4 137 28 view .LVU678
 2633 000a 0368     		ldr	r3, [r0]
 136:Display/displayHandler.cpp ****     _displayPtr->Fill(false);
 2634              		.loc 4 136 58 view .LVU679
 2635 000c 0C46     		mov	r4, r1
 2636              		.loc 4 137 28 view .LVU680
 2637 000e 1B69     		ldr	r3, [r3, #16]
 2638 0010 9342     		cmp	r3, r2
 2639 0012 40F0D780 		bne	.L156
 2640              	.LBB285:
 2641              	.LBB286:
 2642              	.LBB287:
 375:Display/../../libs/PoliTeKDSP/libs/libDaisy/src/dev/oled_ssd130x.h ****         }
 2643              		.loc 2 375 24 view .LVU681
 2644 0016 4FF48062 		mov	r2, #1024
 2645 001a 0021     		movs	r1, #0
 2646              	.LVL190:
 375:Display/../../libs/PoliTeKDSP/libs/libDaisy/src/dev/oled_ssd130x.h ****         }
 2647              		.loc 2 375 24 view .LVU682
 2648 001c 1030     		adds	r0, r0, #16
 2649 001e FFF7FEFF 		bl	memset
 2650              	.LVL191:
 2651              	.L157:
 2652              	.LBE287:
 2653              	.LBE286:
 2654              	.LBE285:
 138:Display/displayHandler.cpp ****     
 139:Display/displayHandler.cpp ****     _displayPtr->SetCursor(0, 0);
 2655              		.loc 4 139 5 is_stmt 1 view .LVU683
 2656 0022 2E68     		ldr	r6, [r5]
 2657              	.LVL192:
 2658              	.LBB288:
ARM GAS  C:\Users\skipi\AppData\Local\Temp\cctYXDIM.s 			page 71


 2659              	.LBI288:
 171:Display/../../libs/PoliTeKDSP/libs/libDaisy/src/hid/disp/display.h ****     {
 2660              		.loc 3 171 10 view .LVU684
 2661              	.LBB289:
 173:Display/../../libs/PoliTeKDSP/libs/libDaisy/src/hid/disp/display.h ****         currentY_ = (y >= Height()) ? Height() - 1 : y;
 2662              		.loc 3 173 9 view .LVU685
 173:Display/../../libs/PoliTeKDSP/libs/libDaisy/src/hid/disp/display.h ****         currentY_ = (y >= Height()) ? Height() - 1 : y;
 2663              		.loc 3 173 33 is_stmt 0 view .LVU686
 2664 0024 3368     		ldr	r3, [r6]
 173:Display/../../libs/PoliTeKDSP/libs/libDaisy/src/hid/disp/display.h ****         currentY_ = (y >= Height()) ? Height() - 1 : y;
 2665              		.loc 3 173 32 view .LVU687
 2666 0026 3046     		mov	r0, r6
 2667 0028 DB68     		ldr	r3, [r3, #12]
 2668 002a 9847     		blx	r3
 2669              	.LVL193:
 173:Display/../../libs/PoliTeKDSP/libs/libDaisy/src/hid/disp/display.h ****         currentY_ = (y >= Height()) ? Height() - 1 : y;
 2670              		.loc 3 173 19 view .LVU688
 2671 002c 0028     		cmp	r0, #0
 2672 002e 40F0C780 		bne	.L168
 173:Display/../../libs/PoliTeKDSP/libs/libDaisy/src/hid/disp/display.h ****         currentY_ = (y >= Height()) ? Height() - 1 : y;
 2673              		.loc 3 173 44 view .LVU689
 2674 0032 3368     		ldr	r3, [r6]
 173:Display/../../libs/PoliTeKDSP/libs/libDaisy/src/hid/disp/display.h ****         currentY_ = (y >= Height()) ? Height() - 1 : y;
 2675              		.loc 3 173 43 view .LVU690
 2676 0034 3046     		mov	r0, r6
 2677 0036 DB68     		ldr	r3, [r3, #12]
 2678 0038 9847     		blx	r3
 2679              	.LVL194:
 173:Display/../../libs/PoliTeKDSP/libs/libDaisy/src/hid/disp/display.h ****         currentY_ = (y >= Height()) ? Height() - 1 : y;
 2680              		.loc 3 173 19 view .LVU691
 2681 003a 0138     		subs	r0, r0, #1
 2682 003c 83B2     		uxth	r3, r0
 2683              	.L158:
 174:Display/../../libs/PoliTeKDSP/libs/libDaisy/src/hid/disp/display.h ****     }
 2684              		.loc 3 174 34 view .LVU692
 2685 003e 3268     		ldr	r2, [r6]
 174:Display/../../libs/PoliTeKDSP/libs/libDaisy/src/hid/disp/display.h ****     }
 2686              		.loc 3 174 33 view .LVU693
 2687 0040 3046     		mov	r0, r6
 173:Display/../../libs/PoliTeKDSP/libs/libDaisy/src/hid/disp/display.h ****         currentY_ = (y >= Height()) ? Height() - 1 : y;
 2688              		.loc 3 173 19 view .LVU694
 2689 0042 B380     		strh	r3, [r6, #4]	@ movhi
 174:Display/../../libs/PoliTeKDSP/libs/libDaisy/src/hid/disp/display.h ****     }
 2690              		.loc 3 174 9 is_stmt 1 view .LVU695
 174:Display/../../libs/PoliTeKDSP/libs/libDaisy/src/hid/disp/display.h ****     }
 2691              		.loc 3 174 33 is_stmt 0 view .LVU696
 2692 0044 9368     		ldr	r3, [r2, #8]
 2693 0046 9847     		blx	r3
 2694              	.LVL195:
 174:Display/../../libs/PoliTeKDSP/libs/libDaisy/src/hid/disp/display.h ****     }
 2695              		.loc 3 174 19 view .LVU697
 2696 0048 0028     		cmp	r0, #0
 2697 004a 40F0B780 		bne	.L169
 174:Display/../../libs/PoliTeKDSP/libs/libDaisy/src/hid/disp/display.h ****     }
 2698              		.loc 3 174 46 view .LVU698
 2699 004e 3368     		ldr	r3, [r6]
 174:Display/../../libs/PoliTeKDSP/libs/libDaisy/src/hid/disp/display.h ****     }
ARM GAS  C:\Users\skipi\AppData\Local\Temp\cctYXDIM.s 			page 72


 2700              		.loc 3 174 45 view .LVU699
 2701 0050 3046     		mov	r0, r6
 2702 0052 9B68     		ldr	r3, [r3, #8]
 2703 0054 9847     		blx	r3
 2704              	.LVL196:
 174:Display/../../libs/PoliTeKDSP/libs/libDaisy/src/hid/disp/display.h ****     }
 2705              		.loc 3 174 19 view .LVU700
 2706 0056 0138     		subs	r0, r0, #1
 2707 0058 83B2     		uxth	r3, r0
 2708              	.L159:
 2709              	.LBE289:
 2710              	.LBE288:
 140:Display/displayHandler.cpp ****     _displayPtr->WriteString("- CALIBRATION -", Font_7x10, true);
 2711              		.loc 4 140 5 view .LVU701
 2712 005a 2868     		ldr	r0, [r5]
 2713              		.loc 4 140 29 view .LVU702
 2714 005c 0122     		movs	r2, #1
 2715              	.LBB292:
 2716              	.LBB290:
 174:Display/../../libs/PoliTeKDSP/libs/libDaisy/src/hid/disp/display.h ****     }
 2717              		.loc 3 174 19 view .LVU703
 2718 005e F380     		strh	r3, [r6, #6]	@ movhi
 2719              	.LVL197:
 174:Display/../../libs/PoliTeKDSP/libs/libDaisy/src/hid/disp/display.h ****     }
 2720              		.loc 3 174 19 view .LVU704
 2721              	.LBE290:
 2722              	.LBE292:
 2723              		.loc 4 140 5 is_stmt 1 view .LVU705
 2724              		.loc 4 140 64 is_stmt 0 view .LVU706
 2725 0060 0368     		ldr	r3, [r0]
 2726              		.loc 4 140 29 view .LVU707
 2727 0062 5B4E     		ldr	r6, .L178+4
 2728 0064 0092     		str	r2, [sp]
 2729 0066 5B49     		ldr	r1, .L178+8
 2730 0068 9F6A     		ldr	r7, [r3, #40]
 2731 006a 96E80C00 		ldm	r6, {r2, r3}
 2732 006e B847     		blx	r7
 2733              	.LVL198:
 141:Display/displayHandler.cpp **** 
 142:Display/displayHandler.cpp ****     _displayPtr->SetCursor(10, 15); _displayPtr->WriteString("Delta", Font_7x10, true);
 2734              		.loc 4 142 5 is_stmt 1 view .LVU708
 2735 0070 2F68     		ldr	r7, [r5]
 2736              	.LVL199:
 2737              	.LBB293:
 2738              	.LBI293:
 171:Display/../../libs/PoliTeKDSP/libs/libDaisy/src/hid/disp/display.h ****     {
 2739              		.loc 3 171 10 view .LVU709
 2740              	.LBB294:
 173:Display/../../libs/PoliTeKDSP/libs/libDaisy/src/hid/disp/display.h ****         currentY_ = (y >= Height()) ? Height() - 1 : y;
 2741              		.loc 3 173 9 view .LVU710
 173:Display/../../libs/PoliTeKDSP/libs/libDaisy/src/hid/disp/display.h ****         currentY_ = (y >= Height()) ? Height() - 1 : y;
 2742              		.loc 3 173 33 is_stmt 0 view .LVU711
 2743 0072 3B68     		ldr	r3, [r7]
 173:Display/../../libs/PoliTeKDSP/libs/libDaisy/src/hid/disp/display.h ****         currentY_ = (y >= Height()) ? Height() - 1 : y;
 2744              		.loc 3 173 32 view .LVU712
 2745 0074 3846     		mov	r0, r7
 2746 0076 DB68     		ldr	r3, [r3, #12]
ARM GAS  C:\Users\skipi\AppData\Local\Temp\cctYXDIM.s 			page 73


 2747 0078 9847     		blx	r3
 2748              	.LVL200:
 173:Display/../../libs/PoliTeKDSP/libs/libDaisy/src/hid/disp/display.h ****         currentY_ = (y >= Height()) ? Height() - 1 : y;
 2749              		.loc 3 173 19 view .LVU713
 2750 007a 0A28     		cmp	r0, #10
 2751 007c 00F29C80 		bhi	.L170
 173:Display/../../libs/PoliTeKDSP/libs/libDaisy/src/hid/disp/display.h ****         currentY_ = (y >= Height()) ? Height() - 1 : y;
 2752              		.loc 3 173 44 view .LVU714
 2753 0080 3B68     		ldr	r3, [r7]
 173:Display/../../libs/PoliTeKDSP/libs/libDaisy/src/hid/disp/display.h ****         currentY_ = (y >= Height()) ? Height() - 1 : y;
 2754              		.loc 3 173 43 view .LVU715
 2755 0082 3846     		mov	r0, r7
 2756 0084 DB68     		ldr	r3, [r3, #12]
 2757 0086 9847     		blx	r3
 2758              	.LVL201:
 173:Display/../../libs/PoliTeKDSP/libs/libDaisy/src/hid/disp/display.h ****         currentY_ = (y >= Height()) ? Height() - 1 : y;
 2759              		.loc 3 173 19 view .LVU716
 2760 0088 0138     		subs	r0, r0, #1
 2761 008a 83B2     		uxth	r3, r0
 2762              	.L160:
 2763 008c BB80     		strh	r3, [r7, #4]	@ movhi
 174:Display/../../libs/PoliTeKDSP/libs/libDaisy/src/hid/disp/display.h ****     }
 2764              		.loc 3 174 9 is_stmt 1 view .LVU717
 174:Display/../../libs/PoliTeKDSP/libs/libDaisy/src/hid/disp/display.h ****     }
 2765              		.loc 3 174 33 is_stmt 0 view .LVU718
 2766 008e 3846     		mov	r0, r7
 174:Display/../../libs/PoliTeKDSP/libs/libDaisy/src/hid/disp/display.h ****     }
 2767              		.loc 3 174 34 view .LVU719
 2768 0090 3B68     		ldr	r3, [r7]
 174:Display/../../libs/PoliTeKDSP/libs/libDaisy/src/hid/disp/display.h ****     }
 2769              		.loc 3 174 33 view .LVU720
 2770 0092 9B68     		ldr	r3, [r3, #8]
 2771 0094 9847     		blx	r3
 2772              	.LVL202:
 174:Display/../../libs/PoliTeKDSP/libs/libDaisy/src/hid/disp/display.h ****     }
 2773              		.loc 3 174 19 view .LVU721
 2774 0096 0F28     		cmp	r0, #15
 2775 0098 00F28C80 		bhi	.L171
 174:Display/../../libs/PoliTeKDSP/libs/libDaisy/src/hid/disp/display.h ****     }
 2776              		.loc 3 174 46 view .LVU722
 2777 009c 3B68     		ldr	r3, [r7]
 174:Display/../../libs/PoliTeKDSP/libs/libDaisy/src/hid/disp/display.h ****     }
 2778              		.loc 3 174 45 view .LVU723
 2779 009e 3846     		mov	r0, r7
 2780 00a0 9B68     		ldr	r3, [r3, #8]
 2781 00a2 9847     		blx	r3
 2782              	.LVL203:
 174:Display/../../libs/PoliTeKDSP/libs/libDaisy/src/hid/disp/display.h ****     }
 2783              		.loc 3 174 19 view .LVU724
 2784 00a4 0138     		subs	r0, r0, #1
 2785 00a6 83B2     		uxth	r3, r0
 2786              	.L161:
 2787              	.LBE294:
 2788              	.LBE293:
 2789              		.loc 4 142 37 view .LVU725
 2790 00a8 2868     		ldr	r0, [r5]
 2791              		.loc 4 142 61 view .LVU726
ARM GAS  C:\Users\skipi\AppData\Local\Temp\cctYXDIM.s 			page 74


 2792 00aa 0122     		movs	r2, #1
 2793              	.LBB297:
 2794              	.LBB295:
 174:Display/../../libs/PoliTeKDSP/libs/libDaisy/src/hid/disp/display.h ****     }
 2795              		.loc 3 174 19 view .LVU727
 2796 00ac FB80     		strh	r3, [r7, #6]	@ movhi
 2797              	.LVL204:
 174:Display/../../libs/PoliTeKDSP/libs/libDaisy/src/hid/disp/display.h ****     }
 2798              		.loc 3 174 19 view .LVU728
 2799              	.LBE295:
 2800              	.LBE297:
 2801              		.loc 4 142 37 is_stmt 1 view .LVU729
 2802              		.loc 4 142 86 is_stmt 0 view .LVU730
 2803 00ae 0368     		ldr	r3, [r0]
 2804              		.loc 4 142 61 view .LVU731
 2805 00b0 4949     		ldr	r1, .L178+12
 2806 00b2 0092     		str	r2, [sp]
 2807 00b4 9F6A     		ldr	r7, [r3, #40]
 2808 00b6 96E80C00 		ldm	r6, {r2, r3}
 2809 00ba B847     		blx	r7
 2810              	.LVL205:
 143:Display/displayHandler.cpp ****     _displayPtr->SetCursor(10, 27); _displayPtr->WriteString("Curve", Font_7x10, true);
 2811              		.loc 4 143 5 is_stmt 1 view .LVU732
 2812 00bc 2F68     		ldr	r7, [r5]
 2813              	.LVL206:
 2814              	.LBB298:
 2815              	.LBI298:
 171:Display/../../libs/PoliTeKDSP/libs/libDaisy/src/hid/disp/display.h ****     {
 2816              		.loc 3 171 10 view .LVU733
 2817              	.LBB299:
 173:Display/../../libs/PoliTeKDSP/libs/libDaisy/src/hid/disp/display.h ****         currentY_ = (y >= Height()) ? Height() - 1 : y;
 2818              		.loc 3 173 9 view .LVU734
 173:Display/../../libs/PoliTeKDSP/libs/libDaisy/src/hid/disp/display.h ****         currentY_ = (y >= Height()) ? Height() - 1 : y;
 2819              		.loc 3 173 33 is_stmt 0 view .LVU735
 2820 00be 3B68     		ldr	r3, [r7]
 173:Display/../../libs/PoliTeKDSP/libs/libDaisy/src/hid/disp/display.h ****         currentY_ = (y >= Height()) ? Height() - 1 : y;
 2821              		.loc 3 173 32 view .LVU736
 2822 00c0 3846     		mov	r0, r7
 2823 00c2 DB68     		ldr	r3, [r3, #12]
 2824 00c4 9847     		blx	r3
 2825              	.LVL207:
 173:Display/../../libs/PoliTeKDSP/libs/libDaisy/src/hid/disp/display.h ****         currentY_ = (y >= Height()) ? Height() - 1 : y;
 2826              		.loc 3 173 19 view .LVU737
 2827 00c6 0A28     		cmp	r0, #10
 2828 00c8 72D8     		bhi	.L172
 173:Display/../../libs/PoliTeKDSP/libs/libDaisy/src/hid/disp/display.h ****         currentY_ = (y >= Height()) ? Height() - 1 : y;
 2829              		.loc 3 173 44 view .LVU738
 2830 00ca 3B68     		ldr	r3, [r7]
 173:Display/../../libs/PoliTeKDSP/libs/libDaisy/src/hid/disp/display.h ****         currentY_ = (y >= Height()) ? Height() - 1 : y;
 2831              		.loc 3 173 43 view .LVU739
 2832 00cc 3846     		mov	r0, r7
 2833 00ce DB68     		ldr	r3, [r3, #12]
 2834 00d0 9847     		blx	r3
 2835              	.LVL208:
 173:Display/../../libs/PoliTeKDSP/libs/libDaisy/src/hid/disp/display.h ****         currentY_ = (y >= Height()) ? Height() - 1 : y;
 2836              		.loc 3 173 19 view .LVU740
 2837 00d2 0138     		subs	r0, r0, #1
ARM GAS  C:\Users\skipi\AppData\Local\Temp\cctYXDIM.s 			page 75


 2838 00d4 83B2     		uxth	r3, r0
 2839              	.L162:
 2840 00d6 BB80     		strh	r3, [r7, #4]	@ movhi
 174:Display/../../libs/PoliTeKDSP/libs/libDaisy/src/hid/disp/display.h ****     }
 2841              		.loc 3 174 9 is_stmt 1 view .LVU741
 174:Display/../../libs/PoliTeKDSP/libs/libDaisy/src/hid/disp/display.h ****     }
 2842              		.loc 3 174 33 is_stmt 0 view .LVU742
 2843 00d8 3846     		mov	r0, r7
 174:Display/../../libs/PoliTeKDSP/libs/libDaisy/src/hid/disp/display.h ****     }
 2844              		.loc 3 174 34 view .LVU743
 2845 00da 3B68     		ldr	r3, [r7]
 174:Display/../../libs/PoliTeKDSP/libs/libDaisy/src/hid/disp/display.h ****     }
 2846              		.loc 3 174 33 view .LVU744
 2847 00dc 9B68     		ldr	r3, [r3, #8]
 2848 00de 9847     		blx	r3
 2849              	.LVL209:
 174:Display/../../libs/PoliTeKDSP/libs/libDaisy/src/hid/disp/display.h ****     }
 2850              		.loc 3 174 19 view .LVU745
 2851 00e0 1B28     		cmp	r0, #27
 2852 00e2 63D8     		bhi	.L173
 174:Display/../../libs/PoliTeKDSP/libs/libDaisy/src/hid/disp/display.h ****     }
 2853              		.loc 3 174 46 view .LVU746
 2854 00e4 3B68     		ldr	r3, [r7]
 174:Display/../../libs/PoliTeKDSP/libs/libDaisy/src/hid/disp/display.h ****     }
 2855              		.loc 3 174 45 view .LVU747
 2856 00e6 3846     		mov	r0, r7
 2857 00e8 9B68     		ldr	r3, [r3, #8]
 2858 00ea 9847     		blx	r3
 2859              	.LVL210:
 174:Display/../../libs/PoliTeKDSP/libs/libDaisy/src/hid/disp/display.h ****     }
 2860              		.loc 3 174 19 view .LVU748
 2861 00ec 0138     		subs	r0, r0, #1
 2862 00ee 83B2     		uxth	r3, r0
 2863              	.L163:
 2864              	.LBE299:
 2865              	.LBE298:
 2866              		.loc 4 143 37 view .LVU749
 2867 00f0 2868     		ldr	r0, [r5]
 2868              		.loc 4 143 61 view .LVU750
 2869 00f2 0122     		movs	r2, #1
 2870              	.LBB302:
 2871              	.LBB300:
 174:Display/../../libs/PoliTeKDSP/libs/libDaisy/src/hid/disp/display.h ****     }
 2872              		.loc 3 174 19 view .LVU751
 2873 00f4 FB80     		strh	r3, [r7, #6]	@ movhi
 2874              	.LVL211:
 174:Display/../../libs/PoliTeKDSP/libs/libDaisy/src/hid/disp/display.h ****     }
 2875              		.loc 3 174 19 view .LVU752
 2876              	.LBE300:
 2877              	.LBE302:
 2878              		.loc 4 143 37 is_stmt 1 view .LVU753
 2879              		.loc 4 143 86 is_stmt 0 view .LVU754
 2880 00f6 0368     		ldr	r3, [r0]
 2881              		.loc 4 143 61 view .LVU755
 2882 00f8 3849     		ldr	r1, .L178+16
 2883 00fa 0092     		str	r2, [sp]
 2884 00fc 9F6A     		ldr	r7, [r3, #40]
ARM GAS  C:\Users\skipi\AppData\Local\Temp\cctYXDIM.s 			page 76


 2885 00fe 96E80C00 		ldm	r6, {r2, r3}
 2886 0102 B847     		blx	r7
 2887              	.LVL212:
 144:Display/displayHandler.cpp ****     _displayPtr->SetCursor(10, 39); _displayPtr->WriteString("Back", Font_7x10, true);
 2888              		.loc 4 144 5 is_stmt 1 view .LVU756
 2889 0104 2F68     		ldr	r7, [r5]
 2890              	.LVL213:
 2891              	.LBB303:
 2892              	.LBI303:
 171:Display/../../libs/PoliTeKDSP/libs/libDaisy/src/hid/disp/display.h ****     {
 2893              		.loc 3 171 10 view .LVU757
 2894              	.LBB304:
 173:Display/../../libs/PoliTeKDSP/libs/libDaisy/src/hid/disp/display.h ****         currentY_ = (y >= Height()) ? Height() - 1 : y;
 2895              		.loc 3 173 9 view .LVU758
 173:Display/../../libs/PoliTeKDSP/libs/libDaisy/src/hid/disp/display.h ****         currentY_ = (y >= Height()) ? Height() - 1 : y;
 2896              		.loc 3 173 33 is_stmt 0 view .LVU759
 2897 0106 3B68     		ldr	r3, [r7]
 173:Display/../../libs/PoliTeKDSP/libs/libDaisy/src/hid/disp/display.h ****         currentY_ = (y >= Height()) ? Height() - 1 : y;
 2898              		.loc 3 173 32 view .LVU760
 2899 0108 3846     		mov	r0, r7
 2900 010a DB68     		ldr	r3, [r3, #12]
 2901 010c 9847     		blx	r3
 2902              	.LVL214:
 173:Display/../../libs/PoliTeKDSP/libs/libDaisy/src/hid/disp/display.h ****         currentY_ = (y >= Height()) ? Height() - 1 : y;
 2903              		.loc 3 173 19 view .LVU761
 2904 010e 0A28     		cmp	r0, #10
 2905 0110 4AD8     		bhi	.L174
 173:Display/../../libs/PoliTeKDSP/libs/libDaisy/src/hid/disp/display.h ****         currentY_ = (y >= Height()) ? Height() - 1 : y;
 2906              		.loc 3 173 44 view .LVU762
 2907 0112 3B68     		ldr	r3, [r7]
 173:Display/../../libs/PoliTeKDSP/libs/libDaisy/src/hid/disp/display.h ****         currentY_ = (y >= Height()) ? Height() - 1 : y;
 2908              		.loc 3 173 43 view .LVU763
 2909 0114 3846     		mov	r0, r7
 2910 0116 DB68     		ldr	r3, [r3, #12]
 2911 0118 9847     		blx	r3
 2912              	.LVL215:
 173:Display/../../libs/PoliTeKDSP/libs/libDaisy/src/hid/disp/display.h ****         currentY_ = (y >= Height()) ? Height() - 1 : y;
 2913              		.loc 3 173 19 view .LVU764
 2914 011a 0138     		subs	r0, r0, #1
 2915 011c 83B2     		uxth	r3, r0
 2916              	.L164:
 2917 011e BB80     		strh	r3, [r7, #4]	@ movhi
 174:Display/../../libs/PoliTeKDSP/libs/libDaisy/src/hid/disp/display.h ****     }
 2918              		.loc 3 174 9 is_stmt 1 view .LVU765
 174:Display/../../libs/PoliTeKDSP/libs/libDaisy/src/hid/disp/display.h ****     }
 2919              		.loc 3 174 33 is_stmt 0 view .LVU766
 2920 0120 3846     		mov	r0, r7
 174:Display/../../libs/PoliTeKDSP/libs/libDaisy/src/hid/disp/display.h ****     }
 2921              		.loc 3 174 34 view .LVU767
 2922 0122 3B68     		ldr	r3, [r7]
 174:Display/../../libs/PoliTeKDSP/libs/libDaisy/src/hid/disp/display.h ****     }
 2923              		.loc 3 174 33 view .LVU768
 2924 0124 9B68     		ldr	r3, [r3, #8]
 2925 0126 9847     		blx	r3
 2926              	.LVL216:
 174:Display/../../libs/PoliTeKDSP/libs/libDaisy/src/hid/disp/display.h ****     }
 2927              		.loc 3 174 19 view .LVU769
ARM GAS  C:\Users\skipi\AppData\Local\Temp\cctYXDIM.s 			page 77


 2928 0128 2728     		cmp	r0, #39
 2929 012a 3BD8     		bhi	.L175
 174:Display/../../libs/PoliTeKDSP/libs/libDaisy/src/hid/disp/display.h ****     }
 2930              		.loc 3 174 46 view .LVU770
 2931 012c 3B68     		ldr	r3, [r7]
 174:Display/../../libs/PoliTeKDSP/libs/libDaisy/src/hid/disp/display.h ****     }
 2932              		.loc 3 174 45 view .LVU771
 2933 012e 3846     		mov	r0, r7
 2934 0130 9B68     		ldr	r3, [r3, #8]
 2935 0132 9847     		blx	r3
 2936              	.LVL217:
 174:Display/../../libs/PoliTeKDSP/libs/libDaisy/src/hid/disp/display.h ****     }
 2937              		.loc 3 174 19 view .LVU772
 2938 0134 0138     		subs	r0, r0, #1
 2939 0136 83B2     		uxth	r3, r0
 2940              	.L165:
 2941              	.LBE304:
 2942              	.LBE303:
 2943              		.loc 4 144 37 view .LVU773
 2944 0138 2868     		ldr	r0, [r5]
 2945              		.loc 4 144 61 view .LVU774
 2946 013a 0122     		movs	r2, #1
 2947              	.LBB307:
 2948              	.LBB305:
 174:Display/../../libs/PoliTeKDSP/libs/libDaisy/src/hid/disp/display.h ****     }
 2949              		.loc 3 174 19 view .LVU775
 2950 013c FB80     		strh	r3, [r7, #6]	@ movhi
 2951              	.LVL218:
 174:Display/../../libs/PoliTeKDSP/libs/libDaisy/src/hid/disp/display.h ****     }
 2952              		.loc 3 174 19 view .LVU776
 2953              	.LBE305:
 2954              	.LBE307:
 2955              		.loc 4 144 37 is_stmt 1 view .LVU777
 145:Display/displayHandler.cpp **** 
 146:Display/displayHandler.cpp ****     int cursorY = 15 + (cursorIndex * 12);
 2956              		.loc 4 146 37 is_stmt 0 view .LVU778
 2957 013e 04EB4404 		add	r4, r4, r4, lsl #1
 2958              	.LVL219:
 144:Display/displayHandler.cpp **** 
 2959              		.loc 4 144 85 view .LVU779
 2960 0142 0368     		ldr	r3, [r0]
 144:Display/displayHandler.cpp **** 
 2961              		.loc 4 144 61 view .LVU780
 2962 0144 2649     		ldr	r1, .L178+20
 2963              		.loc 4 146 37 view .LVU781
 2964 0146 A400     		lsls	r4, r4, #2
 144:Display/displayHandler.cpp **** 
 2965              		.loc 4 144 61 view .LVU782
 2966 0148 0092     		str	r2, [sp]
 2967 014a 9F6A     		ldr	r7, [r3, #40]
 2968              		.loc 4 146 9 view .LVU783
 2969 014c 0F34     		adds	r4, r4, #15
 144:Display/displayHandler.cpp **** 
 2970              		.loc 4 144 61 view .LVU784
 2971 014e 96E80C00 		ldm	r6, {r2, r3}
 2972 0152 B847     		blx	r7
 2973              	.LVL220:
ARM GAS  C:\Users\skipi\AppData\Local\Temp\cctYXDIM.s 			page 78


 2974              		.loc 4 146 5 is_stmt 1 view .LVU785
 147:Display/displayHandler.cpp ****     _displayPtr->SetCursor(0, cursorY);
 2975              		.loc 4 147 5 view .LVU786
 2976 0154 2F68     		ldr	r7, [r5]
 2977              		.loc 4 147 27 is_stmt 0 view .LVU787
 2978 0156 A4B2     		uxth	r4, r4
 2979              	.LVL221:
 2980              	.LBB308:
 2981              	.LBI308:
 171:Display/../../libs/PoliTeKDSP/libs/libDaisy/src/hid/disp/display.h ****     {
 2982              		.loc 3 171 10 is_stmt 1 view .LVU788
 2983              	.LBB309:
 173:Display/../../libs/PoliTeKDSP/libs/libDaisy/src/hid/disp/display.h ****         currentY_ = (y >= Height()) ? Height() - 1 : y;
 2984              		.loc 3 173 9 view .LVU789
 173:Display/../../libs/PoliTeKDSP/libs/libDaisy/src/hid/disp/display.h ****         currentY_ = (y >= Height()) ? Height() - 1 : y;
 2985              		.loc 3 173 33 is_stmt 0 view .LVU790
 2986 0158 3B68     		ldr	r3, [r7]
 173:Display/../../libs/PoliTeKDSP/libs/libDaisy/src/hid/disp/display.h ****         currentY_ = (y >= Height()) ? Height() - 1 : y;
 2987              		.loc 3 173 32 view .LVU791
 2988 015a 3846     		mov	r0, r7
 2989 015c DB68     		ldr	r3, [r3, #12]
 2990 015e 9847     		blx	r3
 2991              	.LVL222:
 173:Display/../../libs/PoliTeKDSP/libs/libDaisy/src/hid/disp/display.h ****         currentY_ = (y >= Height()) ? Height() - 1 : y;
 2992              		.loc 3 173 19 view .LVU792
 2993 0160 F0B9     		cbnz	r0, .L176
 173:Display/../../libs/PoliTeKDSP/libs/libDaisy/src/hid/disp/display.h ****         currentY_ = (y >= Height()) ? Height() - 1 : y;
 2994              		.loc 3 173 44 view .LVU793
 2995 0162 3B68     		ldr	r3, [r7]
 173:Display/../../libs/PoliTeKDSP/libs/libDaisy/src/hid/disp/display.h ****         currentY_ = (y >= Height()) ? Height() - 1 : y;
 2996              		.loc 3 173 43 view .LVU794
 2997 0164 3846     		mov	r0, r7
 2998 0166 DB68     		ldr	r3, [r3, #12]
 2999 0168 9847     		blx	r3
 3000              	.LVL223:
 173:Display/../../libs/PoliTeKDSP/libs/libDaisy/src/hid/disp/display.h ****         currentY_ = (y >= Height()) ? Height() - 1 : y;
 3001              		.loc 3 173 19 view .LVU795
 3002 016a 0138     		subs	r0, r0, #1
 3003 016c 83B2     		uxth	r3, r0
 3004              	.L166:
 3005 016e BB80     		strh	r3, [r7, #4]	@ movhi
 174:Display/../../libs/PoliTeKDSP/libs/libDaisy/src/hid/disp/display.h ****     }
 3006              		.loc 3 174 9 is_stmt 1 view .LVU796
 174:Display/../../libs/PoliTeKDSP/libs/libDaisy/src/hid/disp/display.h ****     }
 3007              		.loc 3 174 33 is_stmt 0 view .LVU797
 3008 0170 3846     		mov	r0, r7
 174:Display/../../libs/PoliTeKDSP/libs/libDaisy/src/hid/disp/display.h ****     }
 3009              		.loc 3 174 34 view .LVU798
 3010 0172 3B68     		ldr	r3, [r7]
 174:Display/../../libs/PoliTeKDSP/libs/libDaisy/src/hid/disp/display.h ****     }
 3011              		.loc 3 174 33 view .LVU799
 3012 0174 9B68     		ldr	r3, [r3, #8]
 3013 0176 9847     		blx	r3
 3014              	.LVL224:
 174:Display/../../libs/PoliTeKDSP/libs/libDaisy/src/hid/disp/display.h ****     }
 3015              		.loc 3 174 19 view .LVU800
 3016 0178 8442     		cmp	r4, r0
ARM GAS  C:\Users\skipi\AppData\Local\Temp\cctYXDIM.s 			page 79


 3017 017a 05D3     		bcc	.L167
 174:Display/../../libs/PoliTeKDSP/libs/libDaisy/src/hid/disp/display.h ****     }
 3018              		.loc 3 174 46 view .LVU801
 3019 017c 3B68     		ldr	r3, [r7]
 174:Display/../../libs/PoliTeKDSP/libs/libDaisy/src/hid/disp/display.h ****     }
 3020              		.loc 3 174 45 view .LVU802
 3021 017e 3846     		mov	r0, r7
 3022 0180 9B68     		ldr	r3, [r3, #8]
 3023 0182 9847     		blx	r3
 3024              	.LVL225:
 174:Display/../../libs/PoliTeKDSP/libs/libDaisy/src/hid/disp/display.h ****     }
 3025              		.loc 3 174 19 view .LVU803
 3026 0184 0138     		subs	r0, r0, #1
 3027 0186 84B2     		uxth	r4, r0
 3028              	.LVL226:
 3029              	.L167:
 174:Display/../../libs/PoliTeKDSP/libs/libDaisy/src/hid/disp/display.h ****     }
 3030              		.loc 3 174 19 view .LVU804
 3031              	.LBE309:
 3032              	.LBE308:
 148:Display/displayHandler.cpp ****     _displayPtr->WriteString(">", Font_7x10, true);
 3033              		.loc 4 148 5 view .LVU805
 3034 0188 2868     		ldr	r0, [r5]
 3035              		.loc 4 148 29 view .LVU806
 3036 018a 0123     		movs	r3, #1
 3037              	.LBB312:
 3038              	.LBB310:
 174:Display/../../libs/PoliTeKDSP/libs/libDaisy/src/hid/disp/display.h ****     }
 3039              		.loc 3 174 19 view .LVU807
 3040 018c FC80     		strh	r4, [r7, #6]	@ movhi
 3041              	.LVL227:
 174:Display/../../libs/PoliTeKDSP/libs/libDaisy/src/hid/disp/display.h ****     }
 3042              		.loc 3 174 19 view .LVU808
 3043              	.LBE310:
 3044              	.LBE312:
 3045              		.loc 4 148 5 is_stmt 1 view .LVU809
 3046              		.loc 4 148 50 is_stmt 0 view .LVU810
 3047 018e 0168     		ldr	r1, [r0]
 3048              		.loc 4 148 29 view .LVU811
 3049 0190 0093     		str	r3, [sp]
 3050 0192 8C6A     		ldr	r4, [r1, #40]
 3051 0194 1349     		ldr	r1, .L178+24
 3052 0196 96E80C00 		ldm	r6, {r2, r3}
 3053 019a A047     		blx	r4
 3054              	.LVL228:
 149:Display/displayHandler.cpp **** }
 3055              		.loc 4 149 1 view .LVU812
 3056 019c 03B0     		add	sp, sp, #12
 3057              		.cfi_remember_state
 3058              		.cfi_def_cfa_offset 20
 3059              		@ sp needed
 3060 019e F0BD     		pop	{r4, r5, r6, r7, pc}
 3061              	.LVL229:
 3062              	.L176:
 3063              		.cfi_restore_state
 3064              	.LBB313:
 3065              	.LBB311:
ARM GAS  C:\Users\skipi\AppData\Local\Temp\cctYXDIM.s 			page 80


 173:Display/../../libs/PoliTeKDSP/libs/libDaisy/src/hid/disp/display.h ****         currentY_ = (y >= Height()) ? Height() - 1 : y;
 3066              		.loc 3 173 19 view .LVU813
 3067 01a0 0023     		movs	r3, #0
 3068 01a2 E4E7     		b	.L166
 3069              	.LVL230:
 3070              	.L175:
 173:Display/../../libs/PoliTeKDSP/libs/libDaisy/src/hid/disp/display.h ****         currentY_ = (y >= Height()) ? Height() - 1 : y;
 3071              		.loc 3 173 19 view .LVU814
 3072              	.LBE311:
 3073              	.LBE313:
 3074              	.LBB314:
 3075              	.LBB306:
 174:Display/../../libs/PoliTeKDSP/libs/libDaisy/src/hid/disp/display.h ****     }
 3076              		.loc 3 174 19 view .LVU815
 3077 01a4 2723     		movs	r3, #39
 3078 01a6 C7E7     		b	.L165
 3079              	.L174:
 173:Display/../../libs/PoliTeKDSP/libs/libDaisy/src/hid/disp/display.h ****         currentY_ = (y >= Height()) ? Height() - 1 : y;
 3080              		.loc 3 173 19 view .LVU816
 3081 01a8 0A23     		movs	r3, #10
 3082 01aa B8E7     		b	.L164
 3083              	.LVL231:
 3084              	.L173:
 173:Display/../../libs/PoliTeKDSP/libs/libDaisy/src/hid/disp/display.h ****         currentY_ = (y >= Height()) ? Height() - 1 : y;
 3085              		.loc 3 173 19 view .LVU817
 3086              	.LBE306:
 3087              	.LBE314:
 3088              	.LBB315:
 3089              	.LBB301:
 174:Display/../../libs/PoliTeKDSP/libs/libDaisy/src/hid/disp/display.h ****     }
 3090              		.loc 3 174 19 view .LVU818
 3091 01ac 1B23     		movs	r3, #27
 3092 01ae 9FE7     		b	.L163
 3093              	.L172:
 173:Display/../../libs/PoliTeKDSP/libs/libDaisy/src/hid/disp/display.h ****         currentY_ = (y >= Height()) ? Height() - 1 : y;
 3094              		.loc 3 173 19 view .LVU819
 3095 01b0 0A23     		movs	r3, #10
 3096 01b2 90E7     		b	.L162
 3097              	.LVL232:
 3098              	.L171:
 173:Display/../../libs/PoliTeKDSP/libs/libDaisy/src/hid/disp/display.h ****         currentY_ = (y >= Height()) ? Height() - 1 : y;
 3099              		.loc 3 173 19 view .LVU820
 3100              	.LBE301:
 3101              	.LBE315:
 3102              	.LBB316:
 3103              	.LBB296:
 174:Display/../../libs/PoliTeKDSP/libs/libDaisy/src/hid/disp/display.h ****     }
 3104              		.loc 3 174 19 view .LVU821
 3105 01b4 0F23     		movs	r3, #15
 3106 01b6 77E7     		b	.L161
 3107              	.L170:
 173:Display/../../libs/PoliTeKDSP/libs/libDaisy/src/hid/disp/display.h ****         currentY_ = (y >= Height()) ? Height() - 1 : y;
 3108              		.loc 3 173 19 view .LVU822
 3109 01b8 0A23     		movs	r3, #10
 3110 01ba 67E7     		b	.L160
 3111              	.LVL233:
 3112              	.L169:
ARM GAS  C:\Users\skipi\AppData\Local\Temp\cctYXDIM.s 			page 81


 173:Display/../../libs/PoliTeKDSP/libs/libDaisy/src/hid/disp/display.h ****         currentY_ = (y >= Height()) ? Height() - 1 : y;
 3113              		.loc 3 173 19 view .LVU823
 3114              	.LBE296:
 3115              	.LBE316:
 3116              	.LBB317:
 3117              	.LBB291:
 174:Display/../../libs/PoliTeKDSP/libs/libDaisy/src/hid/disp/display.h ****     }
 3118              		.loc 3 174 19 view .LVU824
 3119 01bc 0023     		movs	r3, #0
 3120 01be 4CE7     		b	.L159
 3121              	.L168:
 173:Display/../../libs/PoliTeKDSP/libs/libDaisy/src/hid/disp/display.h ****         currentY_ = (y >= Height()) ? Height() - 1 : y;
 3122              		.loc 3 173 19 view .LVU825
 3123 01c0 0023     		movs	r3, #0
 3124 01c2 3CE7     		b	.L158
 3125              	.LVL234:
 3126              	.L156:
 173:Display/../../libs/PoliTeKDSP/libs/libDaisy/src/hid/disp/display.h ****         currentY_ = (y >= Height()) ? Height() - 1 : y;
 3127              		.loc 3 173 19 view .LVU826
 3128              	.LBE291:
 3129              	.LBE317:
 137:Display/displayHandler.cpp ****     
 3130              		.loc 4 137 22 view .LVU827
 3131 01c4 0021     		movs	r1, #0
 3132              	.LVL235:
 137:Display/displayHandler.cpp ****     
 3133              		.loc 4 137 22 view .LVU828
 3134 01c6 9847     		blx	r3
 3135              	.LVL236:
 3136 01c8 2BE7     		b	.L157
 3137              	.L179:
 3138 01ca 00BF     		.align	2
 3139              	.L178:
 3140 01cc 00000000 		.word	_ZN5daisy11OledDisplayINS_13SSD130xDriverILj128ELj64ENS_19SSD130xI2CTransportEEEE4FillEb
 3141 01d0 00000000 		.word	Font_7x10
 3142 01d4 00000000 		.word	.LC32
 3143 01d8 10000000 		.word	.LC33
 3144 01dc 18000000 		.word	.LC34
 3145 01e0 20000000 		.word	.LC35
 3146 01e4 34000000 		.word	.LC31
 3147              		.cfi_endproc
 3148              	.LFE2793:
 3150              		.section	.rodata._ZN14DisplayHandler13DrawScalesHubEi.str1.4,"aMS",%progbits,1
 3151              		.align	2
 3152              	.LC36:
 3153 0000 2D205343 		.ascii	"- SCALES -\000"
 3153      414C4553 
 3153      202D00
 3154 000b 00       		.align	2
 3155              	.LC37:
 3156 000c 526F6F74 		.ascii	"Root Note\000"
 3156      204E6F74 
 3156      6500
 3157 0016 0000     		.align	2
 3158              	.LC38:
 3159 0018 5363616C 		.ascii	"Scale Type\000"
 3159      65205479 
ARM GAS  C:\Users\skipi\AppData\Local\Temp\cctYXDIM.s 			page 82


 3159      706500
 3160 0023 00       		.align	2
 3161              	.LC39:
 3162 0024 4F637461 		.ascii	"Octave\000"
 3162      766500
 3163              		.section	.text._ZN14DisplayHandler13DrawScalesHubEi,"ax",%progbits
 3164              		.align	1
 3165              		.p2align 2,,3
 3166              		.global	_ZN14DisplayHandler13DrawScalesHubEi
 3167              		.syntax unified
 3168              		.thumb
 3169              		.thumb_func
 3170              		.fpu fpv5-d16
 3172              	_ZN14DisplayHandler13DrawScalesHubEi:
 3173              	.LVL237:
 3174              	.LFB2794:
 150:Display/displayHandler.cpp **** 
 151:Display/displayHandler.cpp **** void DisplayHandler::DrawScalesHub(int cursorIndex) {
 3175              		.loc 4 151 53 is_stmt 1 view -0
 3176              		.cfi_startproc
 3177              		@ args = 0, pretend = 0, frame = 0
 3178              		@ frame_needed = 0, uses_anonymous_args = 0
 152:Display/displayHandler.cpp ****     _displayPtr->Fill(false);
 3179              		.loc 4 152 5 view .LVU830
 151:Display/displayHandler.cpp ****     _displayPtr->Fill(false);
 3180              		.loc 4 151 53 is_stmt 0 view .LVU831
 3181 0000 F0B5     		push	{r4, r5, r6, r7, lr}
 3182              		.cfi_def_cfa_offset 20
 3183              		.cfi_offset 4, -20
 3184              		.cfi_offset 5, -16
 3185              		.cfi_offset 6, -12
 3186              		.cfi_offset 7, -8
 3187              		.cfi_offset 14, -4
 3188 0002 0546     		mov	r5, r0
 3189              		.loc 4 152 5 view .LVU832
 3190 0004 0068     		ldr	r0, [r0]
 3191              	.LVL238:
 3192              		.loc 4 152 5 view .LVU833
 3193 0006 864A     		ldr	r2, .L207
 151:Display/displayHandler.cpp ****     _displayPtr->Fill(false);
 3194              		.loc 4 151 53 view .LVU834
 3195 0008 83B0     		sub	sp, sp, #12
 3196              		.cfi_def_cfa_offset 32
 3197              		.loc 4 152 28 view .LVU835
 3198 000a 0368     		ldr	r3, [r0]
 151:Display/displayHandler.cpp ****     _displayPtr->Fill(false);
 3199              		.loc 4 151 53 view .LVU836
 3200 000c 0C46     		mov	r4, r1
 3201              		.loc 4 152 28 view .LVU837
 3202 000e 1B69     		ldr	r3, [r3, #16]
 3203 0010 9342     		cmp	r3, r2
 3204 0012 40F00181 		bne	.L181
 3205              	.LBB334:
 3206              	.LBB335:
 3207              	.LBB336:
 375:Display/../../libs/PoliTeKDSP/libs/libDaisy/src/dev/oled_ssd130x.h ****         }
 3208              		.loc 2 375 24 view .LVU838
ARM GAS  C:\Users\skipi\AppData\Local\Temp\cctYXDIM.s 			page 83


 3209 0016 4FF48062 		mov	r2, #1024
 3210 001a 0021     		movs	r1, #0
 3211              	.LVL239:
 375:Display/../../libs/PoliTeKDSP/libs/libDaisy/src/dev/oled_ssd130x.h ****         }
 3212              		.loc 2 375 24 view .LVU839
 3213 001c 1030     		adds	r0, r0, #16
 3214 001e FFF7FEFF 		bl	memset
 3215              	.LVL240:
 3216              	.L182:
 3217              	.LBE336:
 3218              	.LBE335:
 3219              	.LBE334:
 153:Display/displayHandler.cpp ****     
 154:Display/displayHandler.cpp ****     _displayPtr->SetCursor(0, 0);
 3220              		.loc 4 154 5 is_stmt 1 view .LVU840
 3221 0022 2E68     		ldr	r6, [r5]
 3222              	.LVL241:
 3223              	.LBB337:
 3224              	.LBI337:
 171:Display/../../libs/PoliTeKDSP/libs/libDaisy/src/hid/disp/display.h ****     {
 3225              		.loc 3 171 10 view .LVU841
 3226              	.LBB338:
 173:Display/../../libs/PoliTeKDSP/libs/libDaisy/src/hid/disp/display.h ****         currentY_ = (y >= Height()) ? Height() - 1 : y;
 3227              		.loc 3 173 9 view .LVU842
 173:Display/../../libs/PoliTeKDSP/libs/libDaisy/src/hid/disp/display.h ****         currentY_ = (y >= Height()) ? Height() - 1 : y;
 3228              		.loc 3 173 33 is_stmt 0 view .LVU843
 3229 0024 3368     		ldr	r3, [r6]
 173:Display/../../libs/PoliTeKDSP/libs/libDaisy/src/hid/disp/display.h ****         currentY_ = (y >= Height()) ? Height() - 1 : y;
 3230              		.loc 3 173 32 view .LVU844
 3231 0026 3046     		mov	r0, r6
 3232 0028 DB68     		ldr	r3, [r3, #12]
 3233 002a 9847     		blx	r3
 3234              	.LVL242:
 173:Display/../../libs/PoliTeKDSP/libs/libDaisy/src/hid/disp/display.h ****         currentY_ = (y >= Height()) ? Height() - 1 : y;
 3235              		.loc 3 173 19 view .LVU845
 3236 002c 0028     		cmp	r0, #0
 3237 002e 40F0F180 		bne	.L195
 173:Display/../../libs/PoliTeKDSP/libs/libDaisy/src/hid/disp/display.h ****         currentY_ = (y >= Height()) ? Height() - 1 : y;
 3238              		.loc 3 173 44 view .LVU846
 3239 0032 3368     		ldr	r3, [r6]
 173:Display/../../libs/PoliTeKDSP/libs/libDaisy/src/hid/disp/display.h ****         currentY_ = (y >= Height()) ? Height() - 1 : y;
 3240              		.loc 3 173 43 view .LVU847
 3241 0034 3046     		mov	r0, r6
 3242 0036 DB68     		ldr	r3, [r3, #12]
 3243 0038 9847     		blx	r3
 3244              	.LVL243:
 173:Display/../../libs/PoliTeKDSP/libs/libDaisy/src/hid/disp/display.h ****         currentY_ = (y >= Height()) ? Height() - 1 : y;
 3245              		.loc 3 173 19 view .LVU848
 3246 003a 0138     		subs	r0, r0, #1
 3247 003c 83B2     		uxth	r3, r0
 3248              	.L183:
 174:Display/../../libs/PoliTeKDSP/libs/libDaisy/src/hid/disp/display.h ****     }
 3249              		.loc 3 174 34 view .LVU849
 3250 003e 3268     		ldr	r2, [r6]
 174:Display/../../libs/PoliTeKDSP/libs/libDaisy/src/hid/disp/display.h ****     }
 3251              		.loc 3 174 33 view .LVU850
 3252 0040 3046     		mov	r0, r6
ARM GAS  C:\Users\skipi\AppData\Local\Temp\cctYXDIM.s 			page 84


 173:Display/../../libs/PoliTeKDSP/libs/libDaisy/src/hid/disp/display.h ****         currentY_ = (y >= Height()) ? Height() - 1 : y;
 3253              		.loc 3 173 19 view .LVU851
 3254 0042 B380     		strh	r3, [r6, #4]	@ movhi
 174:Display/../../libs/PoliTeKDSP/libs/libDaisy/src/hid/disp/display.h ****     }
 3255              		.loc 3 174 9 is_stmt 1 view .LVU852
 174:Display/../../libs/PoliTeKDSP/libs/libDaisy/src/hid/disp/display.h ****     }
 3256              		.loc 3 174 33 is_stmt 0 view .LVU853
 3257 0044 9368     		ldr	r3, [r2, #8]
 3258 0046 9847     		blx	r3
 3259              	.LVL244:
 174:Display/../../libs/PoliTeKDSP/libs/libDaisy/src/hid/disp/display.h ****     }
 3260              		.loc 3 174 19 view .LVU854
 3261 0048 0028     		cmp	r0, #0
 3262 004a 40F0E180 		bne	.L196
 174:Display/../../libs/PoliTeKDSP/libs/libDaisy/src/hid/disp/display.h ****     }
 3263              		.loc 3 174 46 view .LVU855
 3264 004e 3368     		ldr	r3, [r6]
 174:Display/../../libs/PoliTeKDSP/libs/libDaisy/src/hid/disp/display.h ****     }
 3265              		.loc 3 174 45 view .LVU856
 3266 0050 3046     		mov	r0, r6
 3267 0052 9B68     		ldr	r3, [r3, #8]
 3268 0054 9847     		blx	r3
 3269              	.LVL245:
 174:Display/../../libs/PoliTeKDSP/libs/libDaisy/src/hid/disp/display.h ****     }
 3270              		.loc 3 174 19 view .LVU857
 3271 0056 0138     		subs	r0, r0, #1
 3272 0058 83B2     		uxth	r3, r0
 3273              	.L184:
 3274              	.LBE338:
 3275              	.LBE337:
 155:Display/displayHandler.cpp ****     _displayPtr->WriteString("- SCALES -", Font_7x10, true);
 3276              		.loc 4 155 5 view .LVU858
 3277 005a 2868     		ldr	r0, [r5]
 3278              		.loc 4 155 29 view .LVU859
 3279 005c 0122     		movs	r2, #1
 3280              	.LBB341:
 3281              	.LBB339:
 174:Display/../../libs/PoliTeKDSP/libs/libDaisy/src/hid/disp/display.h ****     }
 3282              		.loc 3 174 19 view .LVU860
 3283 005e F380     		strh	r3, [r6, #6]	@ movhi
 3284              	.LVL246:
 174:Display/../../libs/PoliTeKDSP/libs/libDaisy/src/hid/disp/display.h ****     }
 3285              		.loc 3 174 19 view .LVU861
 3286              	.LBE339:
 3287              	.LBE341:
 3288              		.loc 4 155 5 is_stmt 1 view .LVU862
 3289              		.loc 4 155 59 is_stmt 0 view .LVU863
 3290 0060 0368     		ldr	r3, [r0]
 3291              		.loc 4 155 29 view .LVU864
 3292 0062 704E     		ldr	r6, .L207+4
 3293 0064 0092     		str	r2, [sp]
 3294 0066 7049     		ldr	r1, .L207+8
 3295 0068 9F6A     		ldr	r7, [r3, #40]
 3296 006a 96E80C00 		ldm	r6, {r2, r3}
 3297 006e B847     		blx	r7
 3298              	.LVL247:
 156:Display/displayHandler.cpp **** 
ARM GAS  C:\Users\skipi\AppData\Local\Temp\cctYXDIM.s 			page 85


 157:Display/displayHandler.cpp ****     _displayPtr->SetCursor(10, 15); _displayPtr->WriteString("Root Note", Font_7x10, true);
 3299              		.loc 4 157 5 is_stmt 1 view .LVU865
 3300 0070 2F68     		ldr	r7, [r5]
 3301              	.LVL248:
 3302              	.LBB342:
 3303              	.LBI342:
 171:Display/../../libs/PoliTeKDSP/libs/libDaisy/src/hid/disp/display.h ****     {
 3304              		.loc 3 171 10 view .LVU866
 3305              	.LBB343:
 173:Display/../../libs/PoliTeKDSP/libs/libDaisy/src/hid/disp/display.h ****         currentY_ = (y >= Height()) ? Height() - 1 : y;
 3306              		.loc 3 173 9 view .LVU867
 173:Display/../../libs/PoliTeKDSP/libs/libDaisy/src/hid/disp/display.h ****         currentY_ = (y >= Height()) ? Height() - 1 : y;
 3307              		.loc 3 173 33 is_stmt 0 view .LVU868
 3308 0072 3B68     		ldr	r3, [r7]
 173:Display/../../libs/PoliTeKDSP/libs/libDaisy/src/hid/disp/display.h ****         currentY_ = (y >= Height()) ? Height() - 1 : y;
 3309              		.loc 3 173 32 view .LVU869
 3310 0074 3846     		mov	r0, r7
 3311 0076 DB68     		ldr	r3, [r3, #12]
 3312 0078 9847     		blx	r3
 3313              	.LVL249:
 173:Display/../../libs/PoliTeKDSP/libs/libDaisy/src/hid/disp/display.h ****         currentY_ = (y >= Height()) ? Height() - 1 : y;
 3314              		.loc 3 173 19 view .LVU870
 3315 007a 0A28     		cmp	r0, #10
 3316 007c 00F2C680 		bhi	.L197
 173:Display/../../libs/PoliTeKDSP/libs/libDaisy/src/hid/disp/display.h ****         currentY_ = (y >= Height()) ? Height() - 1 : y;
 3317              		.loc 3 173 44 view .LVU871
 3318 0080 3B68     		ldr	r3, [r7]
 173:Display/../../libs/PoliTeKDSP/libs/libDaisy/src/hid/disp/display.h ****         currentY_ = (y >= Height()) ? Height() - 1 : y;
 3319              		.loc 3 173 43 view .LVU872
 3320 0082 3846     		mov	r0, r7
 3321 0084 DB68     		ldr	r3, [r3, #12]
 3322 0086 9847     		blx	r3
 3323              	.LVL250:
 173:Display/../../libs/PoliTeKDSP/libs/libDaisy/src/hid/disp/display.h ****         currentY_ = (y >= Height()) ? Height() - 1 : y;
 3324              		.loc 3 173 19 view .LVU873
 3325 0088 0138     		subs	r0, r0, #1
 3326 008a 83B2     		uxth	r3, r0
 3327              	.L185:
 3328 008c BB80     		strh	r3, [r7, #4]	@ movhi
 174:Display/../../libs/PoliTeKDSP/libs/libDaisy/src/hid/disp/display.h ****     }
 3329              		.loc 3 174 9 is_stmt 1 view .LVU874
 174:Display/../../libs/PoliTeKDSP/libs/libDaisy/src/hid/disp/display.h ****     }
 3330              		.loc 3 174 33 is_stmt 0 view .LVU875
 3331 008e 3846     		mov	r0, r7
 174:Display/../../libs/PoliTeKDSP/libs/libDaisy/src/hid/disp/display.h ****     }
 3332              		.loc 3 174 34 view .LVU876
 3333 0090 3B68     		ldr	r3, [r7]
 174:Display/../../libs/PoliTeKDSP/libs/libDaisy/src/hid/disp/display.h ****     }
 3334              		.loc 3 174 33 view .LVU877
 3335 0092 9B68     		ldr	r3, [r3, #8]
 3336 0094 9847     		blx	r3
 3337              	.LVL251:
 174:Display/../../libs/PoliTeKDSP/libs/libDaisy/src/hid/disp/display.h ****     }
 3338              		.loc 3 174 19 view .LVU878
 3339 0096 0F28     		cmp	r0, #15
 3340 0098 00F2B680 		bhi	.L198
 174:Display/../../libs/PoliTeKDSP/libs/libDaisy/src/hid/disp/display.h ****     }
ARM GAS  C:\Users\skipi\AppData\Local\Temp\cctYXDIM.s 			page 86


 3341              		.loc 3 174 46 view .LVU879
 3342 009c 3B68     		ldr	r3, [r7]
 174:Display/../../libs/PoliTeKDSP/libs/libDaisy/src/hid/disp/display.h ****     }
 3343              		.loc 3 174 45 view .LVU880
 3344 009e 3846     		mov	r0, r7
 3345 00a0 9B68     		ldr	r3, [r3, #8]
 3346 00a2 9847     		blx	r3
 3347              	.LVL252:
 174:Display/../../libs/PoliTeKDSP/libs/libDaisy/src/hid/disp/display.h ****     }
 3348              		.loc 3 174 19 view .LVU881
 3349 00a4 0138     		subs	r0, r0, #1
 3350 00a6 83B2     		uxth	r3, r0
 3351              	.L186:
 3352              	.LBE343:
 3353              	.LBE342:
 3354              		.loc 4 157 37 view .LVU882
 3355 00a8 2868     		ldr	r0, [r5]
 3356              		.loc 4 157 61 view .LVU883
 3357 00aa 0122     		movs	r2, #1
 3358              	.LBB346:
 3359              	.LBB344:
 174:Display/../../libs/PoliTeKDSP/libs/libDaisy/src/hid/disp/display.h ****     }
 3360              		.loc 3 174 19 view .LVU884
 3361 00ac FB80     		strh	r3, [r7, #6]	@ movhi
 3362              	.LVL253:
 174:Display/../../libs/PoliTeKDSP/libs/libDaisy/src/hid/disp/display.h ****     }
 3363              		.loc 3 174 19 view .LVU885
 3364              	.LBE344:
 3365              	.LBE346:
 3366              		.loc 4 157 37 is_stmt 1 view .LVU886
 3367              		.loc 4 157 90 is_stmt 0 view .LVU887
 3368 00ae 0368     		ldr	r3, [r0]
 3369              		.loc 4 157 61 view .LVU888
 3370 00b0 5E49     		ldr	r1, .L207+12
 3371 00b2 0092     		str	r2, [sp]
 3372 00b4 9F6A     		ldr	r7, [r3, #40]
 3373 00b6 96E80C00 		ldm	r6, {r2, r3}
 3374 00ba B847     		blx	r7
 3375              	.LVL254:
 158:Display/displayHandler.cpp ****     _displayPtr->SetCursor(10, 27); _displayPtr->WriteString("Scale Type", Font_7x10, true);
 3376              		.loc 4 158 5 is_stmt 1 view .LVU889
 3377 00bc 2F68     		ldr	r7, [r5]
 3378              	.LVL255:
 3379              	.LBB347:
 3380              	.LBI347:
 171:Display/../../libs/PoliTeKDSP/libs/libDaisy/src/hid/disp/display.h ****     {
 3381              		.loc 3 171 10 view .LVU890
 3382              	.LBB348:
 173:Display/../../libs/PoliTeKDSP/libs/libDaisy/src/hid/disp/display.h ****         currentY_ = (y >= Height()) ? Height() - 1 : y;
 3383              		.loc 3 173 9 view .LVU891
 173:Display/../../libs/PoliTeKDSP/libs/libDaisy/src/hid/disp/display.h ****         currentY_ = (y >= Height()) ? Height() - 1 : y;
 3384              		.loc 3 173 33 is_stmt 0 view .LVU892
 3385 00be 3B68     		ldr	r3, [r7]
 173:Display/../../libs/PoliTeKDSP/libs/libDaisy/src/hid/disp/display.h ****         currentY_ = (y >= Height()) ? Height() - 1 : y;
 3386              		.loc 3 173 32 view .LVU893
 3387 00c0 3846     		mov	r0, r7
 3388 00c2 DB68     		ldr	r3, [r3, #12]
ARM GAS  C:\Users\skipi\AppData\Local\Temp\cctYXDIM.s 			page 87


 3389 00c4 9847     		blx	r3
 3390              	.LVL256:
 173:Display/../../libs/PoliTeKDSP/libs/libDaisy/src/hid/disp/display.h ****         currentY_ = (y >= Height()) ? Height() - 1 : y;
 3391              		.loc 3 173 19 view .LVU894
 3392 00c6 0A28     		cmp	r0, #10
 3393 00c8 00F29C80 		bhi	.L199
 173:Display/../../libs/PoliTeKDSP/libs/libDaisy/src/hid/disp/display.h ****         currentY_ = (y >= Height()) ? Height() - 1 : y;
 3394              		.loc 3 173 44 view .LVU895
 3395 00cc 3B68     		ldr	r3, [r7]
 173:Display/../../libs/PoliTeKDSP/libs/libDaisy/src/hid/disp/display.h ****         currentY_ = (y >= Height()) ? Height() - 1 : y;
 3396              		.loc 3 173 43 view .LVU896
 3397 00ce 3846     		mov	r0, r7
 3398 00d0 DB68     		ldr	r3, [r3, #12]
 3399 00d2 9847     		blx	r3
 3400              	.LVL257:
 173:Display/../../libs/PoliTeKDSP/libs/libDaisy/src/hid/disp/display.h ****         currentY_ = (y >= Height()) ? Height() - 1 : y;
 3401              		.loc 3 173 19 view .LVU897
 3402 00d4 0138     		subs	r0, r0, #1
 3403 00d6 83B2     		uxth	r3, r0
 3404              	.L187:
 3405 00d8 BB80     		strh	r3, [r7, #4]	@ movhi
 174:Display/../../libs/PoliTeKDSP/libs/libDaisy/src/hid/disp/display.h ****     }
 3406              		.loc 3 174 9 is_stmt 1 view .LVU898
 174:Display/../../libs/PoliTeKDSP/libs/libDaisy/src/hid/disp/display.h ****     }
 3407              		.loc 3 174 33 is_stmt 0 view .LVU899
 3408 00da 3846     		mov	r0, r7
 174:Display/../../libs/PoliTeKDSP/libs/libDaisy/src/hid/disp/display.h ****     }
 3409              		.loc 3 174 34 view .LVU900
 3410 00dc 3B68     		ldr	r3, [r7]
 174:Display/../../libs/PoliTeKDSP/libs/libDaisy/src/hid/disp/display.h ****     }
 3411              		.loc 3 174 33 view .LVU901
 3412 00de 9B68     		ldr	r3, [r3, #8]
 3413 00e0 9847     		blx	r3
 3414              	.LVL258:
 174:Display/../../libs/PoliTeKDSP/libs/libDaisy/src/hid/disp/display.h ****     }
 3415              		.loc 3 174 19 view .LVU902
 3416 00e2 1B28     		cmp	r0, #27
 3417 00e4 00F28C80 		bhi	.L200
 174:Display/../../libs/PoliTeKDSP/libs/libDaisy/src/hid/disp/display.h ****     }
 3418              		.loc 3 174 46 view .LVU903
 3419 00e8 3B68     		ldr	r3, [r7]
 174:Display/../../libs/PoliTeKDSP/libs/libDaisy/src/hid/disp/display.h ****     }
 3420              		.loc 3 174 45 view .LVU904
 3421 00ea 3846     		mov	r0, r7
 3422 00ec 9B68     		ldr	r3, [r3, #8]
 3423 00ee 9847     		blx	r3
 3424              	.LVL259:
 174:Display/../../libs/PoliTeKDSP/libs/libDaisy/src/hid/disp/display.h ****     }
 3425              		.loc 3 174 19 view .LVU905
 3426 00f0 0138     		subs	r0, r0, #1
 3427 00f2 83B2     		uxth	r3, r0
 3428              	.L188:
 3429              	.LBE348:
 3430              	.LBE347:
 3431              		.loc 4 158 37 view .LVU906
 3432 00f4 2868     		ldr	r0, [r5]
 3433              		.loc 4 158 61 view .LVU907
ARM GAS  C:\Users\skipi\AppData\Local\Temp\cctYXDIM.s 			page 88


 3434 00f6 0122     		movs	r2, #1
 3435              	.LBB351:
 3436              	.LBB349:
 174:Display/../../libs/PoliTeKDSP/libs/libDaisy/src/hid/disp/display.h ****     }
 3437              		.loc 3 174 19 view .LVU908
 3438 00f8 FB80     		strh	r3, [r7, #6]	@ movhi
 3439              	.LVL260:
 174:Display/../../libs/PoliTeKDSP/libs/libDaisy/src/hid/disp/display.h ****     }
 3440              		.loc 3 174 19 view .LVU909
 3441              	.LBE349:
 3442              	.LBE351:
 3443              		.loc 4 158 37 is_stmt 1 view .LVU910
 3444              		.loc 4 158 91 is_stmt 0 view .LVU911
 3445 00fa 0368     		ldr	r3, [r0]
 3446              		.loc 4 158 61 view .LVU912
 3447 00fc 4C49     		ldr	r1, .L207+16
 3448 00fe 0092     		str	r2, [sp]
 3449 0100 9F6A     		ldr	r7, [r3, #40]
 3450 0102 96E80C00 		ldm	r6, {r2, r3}
 3451 0106 B847     		blx	r7
 3452              	.LVL261:
 159:Display/displayHandler.cpp ****     _displayPtr->SetCursor(10, 39); _displayPtr->WriteString("Octave", Font_7x10, true);
 3453              		.loc 4 159 5 is_stmt 1 view .LVU913
 3454 0108 2F68     		ldr	r7, [r5]
 3455              	.LVL262:
 3456              	.LBB352:
 3457              	.LBI352:
 171:Display/../../libs/PoliTeKDSP/libs/libDaisy/src/hid/disp/display.h ****     {
 3458              		.loc 3 171 10 view .LVU914
 3459              	.LBB353:
 173:Display/../../libs/PoliTeKDSP/libs/libDaisy/src/hid/disp/display.h ****         currentY_ = (y >= Height()) ? Height() - 1 : y;
 3460              		.loc 3 173 9 view .LVU915
 173:Display/../../libs/PoliTeKDSP/libs/libDaisy/src/hid/disp/display.h ****         currentY_ = (y >= Height()) ? Height() - 1 : y;
 3461              		.loc 3 173 33 is_stmt 0 view .LVU916
 3462 010a 3B68     		ldr	r3, [r7]
 173:Display/../../libs/PoliTeKDSP/libs/libDaisy/src/hid/disp/display.h ****         currentY_ = (y >= Height()) ? Height() - 1 : y;
 3463              		.loc 3 173 32 view .LVU917
 3464 010c 3846     		mov	r0, r7
 3465 010e DB68     		ldr	r3, [r3, #12]
 3466 0110 9847     		blx	r3
 3467              	.LVL263:
 173:Display/../../libs/PoliTeKDSP/libs/libDaisy/src/hid/disp/display.h ****         currentY_ = (y >= Height()) ? Height() - 1 : y;
 3468              		.loc 3 173 19 view .LVU918
 3469 0112 0A28     		cmp	r0, #10
 3470 0114 72D8     		bhi	.L201
 173:Display/../../libs/PoliTeKDSP/libs/libDaisy/src/hid/disp/display.h ****         currentY_ = (y >= Height()) ? Height() - 1 : y;
 3471              		.loc 3 173 44 view .LVU919
 3472 0116 3B68     		ldr	r3, [r7]
 173:Display/../../libs/PoliTeKDSP/libs/libDaisy/src/hid/disp/display.h ****         currentY_ = (y >= Height()) ? Height() - 1 : y;
 3473              		.loc 3 173 43 view .LVU920
 3474 0118 3846     		mov	r0, r7
 3475 011a DB68     		ldr	r3, [r3, #12]
 3476 011c 9847     		blx	r3
 3477              	.LVL264:
 173:Display/../../libs/PoliTeKDSP/libs/libDaisy/src/hid/disp/display.h ****         currentY_ = (y >= Height()) ? Height() - 1 : y;
 3478              		.loc 3 173 19 view .LVU921
 3479 011e 0138     		subs	r0, r0, #1
ARM GAS  C:\Users\skipi\AppData\Local\Temp\cctYXDIM.s 			page 89


 3480 0120 83B2     		uxth	r3, r0
 3481              	.L189:
 3482 0122 BB80     		strh	r3, [r7, #4]	@ movhi
 174:Display/../../libs/PoliTeKDSP/libs/libDaisy/src/hid/disp/display.h ****     }
 3483              		.loc 3 174 9 is_stmt 1 view .LVU922
 174:Display/../../libs/PoliTeKDSP/libs/libDaisy/src/hid/disp/display.h ****     }
 3484              		.loc 3 174 33 is_stmt 0 view .LVU923
 3485 0124 3846     		mov	r0, r7
 174:Display/../../libs/PoliTeKDSP/libs/libDaisy/src/hid/disp/display.h ****     }
 3486              		.loc 3 174 34 view .LVU924
 3487 0126 3B68     		ldr	r3, [r7]
 174:Display/../../libs/PoliTeKDSP/libs/libDaisy/src/hid/disp/display.h ****     }
 3488              		.loc 3 174 33 view .LVU925
 3489 0128 9B68     		ldr	r3, [r3, #8]
 3490 012a 9847     		blx	r3
 3491              	.LVL265:
 174:Display/../../libs/PoliTeKDSP/libs/libDaisy/src/hid/disp/display.h ****     }
 3492              		.loc 3 174 19 view .LVU926
 3493 012c 2728     		cmp	r0, #39
 3494 012e 63D8     		bhi	.L202
 174:Display/../../libs/PoliTeKDSP/libs/libDaisy/src/hid/disp/display.h ****     }
 3495              		.loc 3 174 46 view .LVU927
 3496 0130 3B68     		ldr	r3, [r7]
 174:Display/../../libs/PoliTeKDSP/libs/libDaisy/src/hid/disp/display.h ****     }
 3497              		.loc 3 174 45 view .LVU928
 3498 0132 3846     		mov	r0, r7
 3499 0134 9B68     		ldr	r3, [r3, #8]
 3500 0136 9847     		blx	r3
 3501              	.LVL266:
 174:Display/../../libs/PoliTeKDSP/libs/libDaisy/src/hid/disp/display.h ****     }
 3502              		.loc 3 174 19 view .LVU929
 3503 0138 0138     		subs	r0, r0, #1
 3504 013a 83B2     		uxth	r3, r0
 3505              	.L190:
 3506              	.LBE353:
 3507              	.LBE352:
 3508              		.loc 4 159 37 view .LVU930
 3509 013c 2868     		ldr	r0, [r5]
 3510              		.loc 4 159 61 view .LVU931
 3511 013e 0122     		movs	r2, #1
 3512              	.LBB356:
 3513              	.LBB354:
 174:Display/../../libs/PoliTeKDSP/libs/libDaisy/src/hid/disp/display.h ****     }
 3514              		.loc 3 174 19 view .LVU932
 3515 0140 FB80     		strh	r3, [r7, #6]	@ movhi
 3516              	.LVL267:
 174:Display/../../libs/PoliTeKDSP/libs/libDaisy/src/hid/disp/display.h ****     }
 3517              		.loc 3 174 19 view .LVU933
 3518              	.LBE354:
 3519              	.LBE356:
 3520              		.loc 4 159 37 is_stmt 1 view .LVU934
 3521              		.loc 4 159 87 is_stmt 0 view .LVU935
 3522 0142 0368     		ldr	r3, [r0]
 3523              		.loc 4 159 61 view .LVU936
 3524 0144 3B49     		ldr	r1, .L207+20
 3525 0146 0092     		str	r2, [sp]
 3526 0148 9F6A     		ldr	r7, [r3, #40]
ARM GAS  C:\Users\skipi\AppData\Local\Temp\cctYXDIM.s 			page 90


 3527 014a 96E80C00 		ldm	r6, {r2, r3}
 3528 014e B847     		blx	r7
 3529              	.LVL268:
 160:Display/displayHandler.cpp ****     _displayPtr->SetCursor(10, 51); _displayPtr->WriteString("Back", Font_7x10, true);
 3530              		.loc 4 160 5 is_stmt 1 view .LVU937
 3531 0150 2F68     		ldr	r7, [r5]
 3532              	.LVL269:
 3533              	.LBB357:
 3534              	.LBI357:
 171:Display/../../libs/PoliTeKDSP/libs/libDaisy/src/hid/disp/display.h ****     {
 3535              		.loc 3 171 10 view .LVU938
 3536              	.LBB358:
 173:Display/../../libs/PoliTeKDSP/libs/libDaisy/src/hid/disp/display.h ****         currentY_ = (y >= Height()) ? Height() - 1 : y;
 3537              		.loc 3 173 9 view .LVU939
 173:Display/../../libs/PoliTeKDSP/libs/libDaisy/src/hid/disp/display.h ****         currentY_ = (y >= Height()) ? Height() - 1 : y;
 3538              		.loc 3 173 33 is_stmt 0 view .LVU940
 3539 0152 3B68     		ldr	r3, [r7]
 173:Display/../../libs/PoliTeKDSP/libs/libDaisy/src/hid/disp/display.h ****         currentY_ = (y >= Height()) ? Height() - 1 : y;
 3540              		.loc 3 173 32 view .LVU941
 3541 0154 3846     		mov	r0, r7
 3542 0156 DB68     		ldr	r3, [r3, #12]
 3543 0158 9847     		blx	r3
 3544              	.LVL270:
 173:Display/../../libs/PoliTeKDSP/libs/libDaisy/src/hid/disp/display.h ****         currentY_ = (y >= Height()) ? Height() - 1 : y;
 3545              		.loc 3 173 19 view .LVU942
 3546 015a 0A28     		cmp	r0, #10
 3547 015c 4AD8     		bhi	.L203
 173:Display/../../libs/PoliTeKDSP/libs/libDaisy/src/hid/disp/display.h ****         currentY_ = (y >= Height()) ? Height() - 1 : y;
 3548              		.loc 3 173 44 view .LVU943
 3549 015e 3B68     		ldr	r3, [r7]
 173:Display/../../libs/PoliTeKDSP/libs/libDaisy/src/hid/disp/display.h ****         currentY_ = (y >= Height()) ? Height() - 1 : y;
 3550              		.loc 3 173 43 view .LVU944
 3551 0160 3846     		mov	r0, r7
 3552 0162 DB68     		ldr	r3, [r3, #12]
 3553 0164 9847     		blx	r3
 3554              	.LVL271:
 173:Display/../../libs/PoliTeKDSP/libs/libDaisy/src/hid/disp/display.h ****         currentY_ = (y >= Height()) ? Height() - 1 : y;
 3555              		.loc 3 173 19 view .LVU945
 3556 0166 0138     		subs	r0, r0, #1
 3557 0168 83B2     		uxth	r3, r0
 3558              	.L191:
 3559 016a BB80     		strh	r3, [r7, #4]	@ movhi
 174:Display/../../libs/PoliTeKDSP/libs/libDaisy/src/hid/disp/display.h ****     }
 3560              		.loc 3 174 9 is_stmt 1 view .LVU946
 174:Display/../../libs/PoliTeKDSP/libs/libDaisy/src/hid/disp/display.h ****     }
 3561              		.loc 3 174 33 is_stmt 0 view .LVU947
 3562 016c 3846     		mov	r0, r7
 174:Display/../../libs/PoliTeKDSP/libs/libDaisy/src/hid/disp/display.h ****     }
 3563              		.loc 3 174 34 view .LVU948
 3564 016e 3B68     		ldr	r3, [r7]
 174:Display/../../libs/PoliTeKDSP/libs/libDaisy/src/hid/disp/display.h ****     }
 3565              		.loc 3 174 33 view .LVU949
 3566 0170 9B68     		ldr	r3, [r3, #8]
 3567 0172 9847     		blx	r3
 3568              	.LVL272:
 174:Display/../../libs/PoliTeKDSP/libs/libDaisy/src/hid/disp/display.h ****     }
 3569              		.loc 3 174 19 view .LVU950
ARM GAS  C:\Users\skipi\AppData\Local\Temp\cctYXDIM.s 			page 91


 3570 0174 3328     		cmp	r0, #51
 3571 0176 3BD8     		bhi	.L204
 174:Display/../../libs/PoliTeKDSP/libs/libDaisy/src/hid/disp/display.h ****     }
 3572              		.loc 3 174 46 view .LVU951
 3573 0178 3B68     		ldr	r3, [r7]
 174:Display/../../libs/PoliTeKDSP/libs/libDaisy/src/hid/disp/display.h ****     }
 3574              		.loc 3 174 45 view .LVU952
 3575 017a 3846     		mov	r0, r7
 3576 017c 9B68     		ldr	r3, [r3, #8]
 3577 017e 9847     		blx	r3
 3578              	.LVL273:
 174:Display/../../libs/PoliTeKDSP/libs/libDaisy/src/hid/disp/display.h ****     }
 3579              		.loc 3 174 19 view .LVU953
 3580 0180 0138     		subs	r0, r0, #1
 3581 0182 83B2     		uxth	r3, r0
 3582              	.L192:
 3583              	.LBE358:
 3584              	.LBE357:
 3585              		.loc 4 160 37 view .LVU954
 3586 0184 2868     		ldr	r0, [r5]
 3587              		.loc 4 160 61 view .LVU955
 3588 0186 0122     		movs	r2, #1
 3589              	.LBB361:
 3590              	.LBB359:
 174:Display/../../libs/PoliTeKDSP/libs/libDaisy/src/hid/disp/display.h ****     }
 3591              		.loc 3 174 19 view .LVU956
 3592 0188 FB80     		strh	r3, [r7, #6]	@ movhi
 3593              	.LVL274:
 174:Display/../../libs/PoliTeKDSP/libs/libDaisy/src/hid/disp/display.h ****     }
 3594              		.loc 3 174 19 view .LVU957
 3595              	.LBE359:
 3596              	.LBE361:
 3597              		.loc 4 160 37 is_stmt 1 view .LVU958
 161:Display/displayHandler.cpp **** 
 162:Display/displayHandler.cpp ****     int cursorY = 15 + (cursorIndex * 12);
 3598              		.loc 4 162 37 is_stmt 0 view .LVU959
 3599 018a 04EB4404 		add	r4, r4, r4, lsl #1
 3600              	.LVL275:
 160:Display/displayHandler.cpp **** 
 3601              		.loc 4 160 85 view .LVU960
 3602 018e 0368     		ldr	r3, [r0]
 160:Display/displayHandler.cpp **** 
 3603              		.loc 4 160 61 view .LVU961
 3604 0190 2949     		ldr	r1, .L207+24
 3605              		.loc 4 162 37 view .LVU962
 3606 0192 A400     		lsls	r4, r4, #2
 160:Display/displayHandler.cpp **** 
 3607              		.loc 4 160 61 view .LVU963
 3608 0194 0092     		str	r2, [sp]
 3609 0196 9F6A     		ldr	r7, [r3, #40]
 3610              		.loc 4 162 9 view .LVU964
 3611 0198 0F34     		adds	r4, r4, #15
 160:Display/displayHandler.cpp **** 
 3612              		.loc 4 160 61 view .LVU965
 3613 019a 96E80C00 		ldm	r6, {r2, r3}
 3614 019e B847     		blx	r7
 3615              	.LVL276:
ARM GAS  C:\Users\skipi\AppData\Local\Temp\cctYXDIM.s 			page 92


 3616              		.loc 4 162 5 is_stmt 1 view .LVU966
 163:Display/displayHandler.cpp ****     _displayPtr->SetCursor(0, cursorY);
 3617              		.loc 4 163 5 view .LVU967
 3618 01a0 2F68     		ldr	r7, [r5]
 3619              		.loc 4 163 27 is_stmt 0 view .LVU968
 3620 01a2 A4B2     		uxth	r4, r4
 3621              	.LVL277:
 3622              	.LBB362:
 3623              	.LBI362:
 171:Display/../../libs/PoliTeKDSP/libs/libDaisy/src/hid/disp/display.h ****     {
 3624              		.loc 3 171 10 is_stmt 1 view .LVU969
 3625              	.LBB363:
 173:Display/../../libs/PoliTeKDSP/libs/libDaisy/src/hid/disp/display.h ****         currentY_ = (y >= Height()) ? Height() - 1 : y;
 3626              		.loc 3 173 9 view .LVU970
 173:Display/../../libs/PoliTeKDSP/libs/libDaisy/src/hid/disp/display.h ****         currentY_ = (y >= Height()) ? Height() - 1 : y;
 3627              		.loc 3 173 33 is_stmt 0 view .LVU971
 3628 01a4 3B68     		ldr	r3, [r7]
 173:Display/../../libs/PoliTeKDSP/libs/libDaisy/src/hid/disp/display.h ****         currentY_ = (y >= Height()) ? Height() - 1 : y;
 3629              		.loc 3 173 32 view .LVU972
 3630 01a6 3846     		mov	r0, r7
 3631 01a8 DB68     		ldr	r3, [r3, #12]
 3632 01aa 9847     		blx	r3
 3633              	.LVL278:
 173:Display/../../libs/PoliTeKDSP/libs/libDaisy/src/hid/disp/display.h ****         currentY_ = (y >= Height()) ? Height() - 1 : y;
 3634              		.loc 3 173 19 view .LVU973
 3635 01ac F0B9     		cbnz	r0, .L205
 173:Display/../../libs/PoliTeKDSP/libs/libDaisy/src/hid/disp/display.h ****         currentY_ = (y >= Height()) ? Height() - 1 : y;
 3636              		.loc 3 173 44 view .LVU974
 3637 01ae 3B68     		ldr	r3, [r7]
 173:Display/../../libs/PoliTeKDSP/libs/libDaisy/src/hid/disp/display.h ****         currentY_ = (y >= Height()) ? Height() - 1 : y;
 3638              		.loc 3 173 43 view .LVU975
 3639 01b0 3846     		mov	r0, r7
 3640 01b2 DB68     		ldr	r3, [r3, #12]
 3641 01b4 9847     		blx	r3
 3642              	.LVL279:
 173:Display/../../libs/PoliTeKDSP/libs/libDaisy/src/hid/disp/display.h ****         currentY_ = (y >= Height()) ? Height() - 1 : y;
 3643              		.loc 3 173 19 view .LVU976
 3644 01b6 0138     		subs	r0, r0, #1
 3645 01b8 83B2     		uxth	r3, r0
 3646              	.L193:
 3647 01ba BB80     		strh	r3, [r7, #4]	@ movhi
 174:Display/../../libs/PoliTeKDSP/libs/libDaisy/src/hid/disp/display.h ****     }
 3648              		.loc 3 174 9 is_stmt 1 view .LVU977
 174:Display/../../libs/PoliTeKDSP/libs/libDaisy/src/hid/disp/display.h ****     }
 3649              		.loc 3 174 33 is_stmt 0 view .LVU978
 3650 01bc 3846     		mov	r0, r7
 174:Display/../../libs/PoliTeKDSP/libs/libDaisy/src/hid/disp/display.h ****     }
 3651              		.loc 3 174 34 view .LVU979
 3652 01be 3B68     		ldr	r3, [r7]
 174:Display/../../libs/PoliTeKDSP/libs/libDaisy/src/hid/disp/display.h ****     }
 3653              		.loc 3 174 33 view .LVU980
 3654 01c0 9B68     		ldr	r3, [r3, #8]
 3655 01c2 9847     		blx	r3
 3656              	.LVL280:
 174:Display/../../libs/PoliTeKDSP/libs/libDaisy/src/hid/disp/display.h ****     }
 3657              		.loc 3 174 19 view .LVU981
 3658 01c4 8442     		cmp	r4, r0
ARM GAS  C:\Users\skipi\AppData\Local\Temp\cctYXDIM.s 			page 93


 3659 01c6 05D3     		bcc	.L194
 174:Display/../../libs/PoliTeKDSP/libs/libDaisy/src/hid/disp/display.h ****     }
 3660              		.loc 3 174 46 view .LVU982
 3661 01c8 3B68     		ldr	r3, [r7]
 174:Display/../../libs/PoliTeKDSP/libs/libDaisy/src/hid/disp/display.h ****     }
 3662              		.loc 3 174 45 view .LVU983
 3663 01ca 3846     		mov	r0, r7
 3664 01cc 9B68     		ldr	r3, [r3, #8]
 3665 01ce 9847     		blx	r3
 3666              	.LVL281:
 174:Display/../../libs/PoliTeKDSP/libs/libDaisy/src/hid/disp/display.h ****     }
 3667              		.loc 3 174 19 view .LVU984
 3668 01d0 0138     		subs	r0, r0, #1
 3669 01d2 84B2     		uxth	r4, r0
 3670              	.LVL282:
 3671              	.L194:
 174:Display/../../libs/PoliTeKDSP/libs/libDaisy/src/hid/disp/display.h ****     }
 3672              		.loc 3 174 19 view .LVU985
 3673              	.LBE363:
 3674              	.LBE362:
 164:Display/displayHandler.cpp ****     _displayPtr->WriteString(">", Font_7x10, true);
 3675              		.loc 4 164 5 view .LVU986
 3676 01d4 2868     		ldr	r0, [r5]
 3677              		.loc 4 164 29 view .LVU987
 3678 01d6 0123     		movs	r3, #1
 3679              	.LBB366:
 3680              	.LBB364:
 174:Display/../../libs/PoliTeKDSP/libs/libDaisy/src/hid/disp/display.h ****     }
 3681              		.loc 3 174 19 view .LVU988
 3682 01d8 FC80     		strh	r4, [r7, #6]	@ movhi
 3683              	.LVL283:
 174:Display/../../libs/PoliTeKDSP/libs/libDaisy/src/hid/disp/display.h ****     }
 3684              		.loc 3 174 19 view .LVU989
 3685              	.LBE364:
 3686              	.LBE366:
 3687              		.loc 4 164 5 is_stmt 1 view .LVU990
 3688              		.loc 4 164 50 is_stmt 0 view .LVU991
 3689 01da 0168     		ldr	r1, [r0]
 3690              		.loc 4 164 29 view .LVU992
 3691 01dc 0093     		str	r3, [sp]
 3692 01de 8C6A     		ldr	r4, [r1, #40]
 3693 01e0 1649     		ldr	r1, .L207+28
 3694 01e2 96E80C00 		ldm	r6, {r2, r3}
 3695 01e6 A047     		blx	r4
 3696              	.LVL284:
 165:Display/displayHandler.cpp **** }
 3697              		.loc 4 165 1 view .LVU993
 3698 01e8 03B0     		add	sp, sp, #12
 3699              		.cfi_remember_state
 3700              		.cfi_def_cfa_offset 20
 3701              		@ sp needed
 3702 01ea F0BD     		pop	{r4, r5, r6, r7, pc}
 3703              	.LVL285:
 3704              	.L205:
 3705              		.cfi_restore_state
 3706              	.LBB367:
 3707              	.LBB365:
ARM GAS  C:\Users\skipi\AppData\Local\Temp\cctYXDIM.s 			page 94


 173:Display/../../libs/PoliTeKDSP/libs/libDaisy/src/hid/disp/display.h ****         currentY_ = (y >= Height()) ? Height() - 1 : y;
 3708              		.loc 3 173 19 view .LVU994
 3709 01ec 0023     		movs	r3, #0
 3710 01ee E4E7     		b	.L193
 3711              	.LVL286:
 3712              	.L204:
 173:Display/../../libs/PoliTeKDSP/libs/libDaisy/src/hid/disp/display.h ****         currentY_ = (y >= Height()) ? Height() - 1 : y;
 3713              		.loc 3 173 19 view .LVU995
 3714              	.LBE365:
 3715              	.LBE367:
 3716              	.LBB368:
 3717              	.LBB360:
 174:Display/../../libs/PoliTeKDSP/libs/libDaisy/src/hid/disp/display.h ****     }
 3718              		.loc 3 174 19 view .LVU996
 3719 01f0 3323     		movs	r3, #51
 3720 01f2 C7E7     		b	.L192
 3721              	.L203:
 173:Display/../../libs/PoliTeKDSP/libs/libDaisy/src/hid/disp/display.h ****         currentY_ = (y >= Height()) ? Height() - 1 : y;
 3722              		.loc 3 173 19 view .LVU997
 3723 01f4 0A23     		movs	r3, #10
 3724 01f6 B8E7     		b	.L191
 3725              	.LVL287:
 3726              	.L202:
 173:Display/../../libs/PoliTeKDSP/libs/libDaisy/src/hid/disp/display.h ****         currentY_ = (y >= Height()) ? Height() - 1 : y;
 3727              		.loc 3 173 19 view .LVU998
 3728              	.LBE360:
 3729              	.LBE368:
 3730              	.LBB369:
 3731              	.LBB355:
 174:Display/../../libs/PoliTeKDSP/libs/libDaisy/src/hid/disp/display.h ****     }
 3732              		.loc 3 174 19 view .LVU999
 3733 01f8 2723     		movs	r3, #39
 3734 01fa 9FE7     		b	.L190
 3735              	.L201:
 173:Display/../../libs/PoliTeKDSP/libs/libDaisy/src/hid/disp/display.h ****         currentY_ = (y >= Height()) ? Height() - 1 : y;
 3736              		.loc 3 173 19 view .LVU1000
 3737 01fc 0A23     		movs	r3, #10
 3738 01fe 90E7     		b	.L189
 3739              	.LVL288:
 3740              	.L200:
 173:Display/../../libs/PoliTeKDSP/libs/libDaisy/src/hid/disp/display.h ****         currentY_ = (y >= Height()) ? Height() - 1 : y;
 3741              		.loc 3 173 19 view .LVU1001
 3742              	.LBE355:
 3743              	.LBE369:
 3744              	.LBB370:
 3745              	.LBB350:
 174:Display/../../libs/PoliTeKDSP/libs/libDaisy/src/hid/disp/display.h ****     }
 3746              		.loc 3 174 19 view .LVU1002
 3747 0200 1B23     		movs	r3, #27
 3748 0202 77E7     		b	.L188
 3749              	.L199:
 173:Display/../../libs/PoliTeKDSP/libs/libDaisy/src/hid/disp/display.h ****         currentY_ = (y >= Height()) ? Height() - 1 : y;
 3750              		.loc 3 173 19 view .LVU1003
 3751 0204 0A23     		movs	r3, #10
 3752 0206 67E7     		b	.L187
 3753              	.LVL289:
 3754              	.L198:
ARM GAS  C:\Users\skipi\AppData\Local\Temp\cctYXDIM.s 			page 95


 173:Display/../../libs/PoliTeKDSP/libs/libDaisy/src/hid/disp/display.h ****         currentY_ = (y >= Height()) ? Height() - 1 : y;
 3755              		.loc 3 173 19 view .LVU1004
 3756              	.LBE350:
 3757              	.LBE370:
 3758              	.LBB371:
 3759              	.LBB345:
 174:Display/../../libs/PoliTeKDSP/libs/libDaisy/src/hid/disp/display.h ****     }
 3760              		.loc 3 174 19 view .LVU1005
 3761 0208 0F23     		movs	r3, #15
 3762 020a 4DE7     		b	.L186
 3763              	.L197:
 173:Display/../../libs/PoliTeKDSP/libs/libDaisy/src/hid/disp/display.h ****         currentY_ = (y >= Height()) ? Height() - 1 : y;
 3764              		.loc 3 173 19 view .LVU1006
 3765 020c 0A23     		movs	r3, #10
 3766 020e 3DE7     		b	.L185
 3767              	.LVL290:
 3768              	.L196:
 173:Display/../../libs/PoliTeKDSP/libs/libDaisy/src/hid/disp/display.h ****         currentY_ = (y >= Height()) ? Height() - 1 : y;
 3769              		.loc 3 173 19 view .LVU1007
 3770              	.LBE345:
 3771              	.LBE371:
 3772              	.LBB372:
 3773              	.LBB340:
 174:Display/../../libs/PoliTeKDSP/libs/libDaisy/src/hid/disp/display.h ****     }
 3774              		.loc 3 174 19 view .LVU1008
 3775 0210 0023     		movs	r3, #0
 3776 0212 22E7     		b	.L184
 3777              	.L195:
 173:Display/../../libs/PoliTeKDSP/libs/libDaisy/src/hid/disp/display.h ****         currentY_ = (y >= Height()) ? Height() - 1 : y;
 3778              		.loc 3 173 19 view .LVU1009
 3779 0214 0023     		movs	r3, #0
 3780 0216 12E7     		b	.L183
 3781              	.LVL291:
 3782              	.L181:
 173:Display/../../libs/PoliTeKDSP/libs/libDaisy/src/hid/disp/display.h ****         currentY_ = (y >= Height()) ? Height() - 1 : y;
 3783              		.loc 3 173 19 view .LVU1010
 3784              	.LBE340:
 3785              	.LBE372:
 152:Display/displayHandler.cpp ****     
 3786              		.loc 4 152 22 view .LVU1011
 3787 0218 0021     		movs	r1, #0
 3788              	.LVL292:
 152:Display/displayHandler.cpp ****     
 3789              		.loc 4 152 22 view .LVU1012
 3790 021a 9847     		blx	r3
 3791              	.LVL293:
 3792 021c 01E7     		b	.L182
 3793              	.L208:
 3794 021e 00BF     		.align	2
 3795              	.L207:
 3796 0220 00000000 		.word	_ZN5daisy11OledDisplayINS_13SSD130xDriverILj128ELj64ENS_19SSD130xI2CTransportEEEE4FillEb
 3797 0224 00000000 		.word	Font_7x10
 3798 0228 00000000 		.word	.LC36
 3799 022c 0C000000 		.word	.LC37
 3800 0230 18000000 		.word	.LC38
 3801 0234 24000000 		.word	.LC39
 3802 0238 20000000 		.word	.LC35
ARM GAS  C:\Users\skipi\AppData\Local\Temp\cctYXDIM.s 			page 96


 3803 023c 34000000 		.word	.LC31
 3804              		.cfi_endproc
 3805              	.LFE2794:
 3807              		.section	.rodata._ZN14DisplayHandler18DrawFloatParameterEPKcf.str1.4,"aMS",%progbits,1
 3808              		.align	2
 3809              	.LC40:
 3810 0000 45444954 		.ascii	"EDIT:\000"
 3810      3A00
 3811 0006 0000     		.align	2
 3812              	.LC41:
 3813 0008 25642E25 		.ascii	"%d.%02d\000"
 3813      30326400 
 3814              		.section	.text._ZN14DisplayHandler18DrawFloatParameterEPKcf,"ax",%progbits
 3815              		.align	1
 3816              		.p2align 2,,3
 3817              		.global	_ZN14DisplayHandler18DrawFloatParameterEPKcf
 3818              		.syntax unified
 3819              		.thumb
 3820              		.thumb_func
 3821              		.fpu fpv5-d16
 3823              	_ZN14DisplayHandler18DrawFloatParameterEPKcf:
 3824              	.LVL294:
 3825              	.LFB2795:
 166:Display/displayHandler.cpp **** 
 167:Display/displayHandler.cpp **** void DisplayHandler::DrawFloatParameter(const char* paramName, float value) {
 3826              		.loc 4 167 77 is_stmt 1 view -0
 3827              		.cfi_startproc
 3828              		@ args = 0, pretend = 0, frame = 16
 3829              		@ frame_needed = 0, uses_anonymous_args = 0
 168:Display/displayHandler.cpp ****     _displayPtr->Fill(false);
 3830              		.loc 4 168 5 view .LVU1014
 167:Display/displayHandler.cpp ****     _displayPtr->Fill(false);
 3831              		.loc 4 167 77 is_stmt 0 view .LVU1015
 3832 0000 70B5     		push	{r4, r5, r6, lr}
 3833              		.cfi_def_cfa_offset 16
 3834              		.cfi_offset 4, -16
 3835              		.cfi_offset 5, -12
 3836              		.cfi_offset 6, -8
 3837              		.cfi_offset 14, -4
 3838 0002 0446     		mov	r4, r0
 3839              		.loc 4 168 5 view .LVU1016
 3840 0004 0068     		ldr	r0, [r0]
 3841              	.LVL295:
 3842              		.loc 4 168 5 view .LVU1017
 3843 0006 544A     		ldr	r2, .L225
 167:Display/displayHandler.cpp ****     _displayPtr->Fill(false);
 3844              		.loc 4 167 77 view .LVU1018
 3845 0008 0E46     		mov	r6, r1
 3846              		.loc 4 168 28 view .LVU1019
 3847 000a 0368     		ldr	r3, [r0]
 3848 000c 1B69     		ldr	r3, [r3, #16]
 3849 000e 9342     		cmp	r3, r2
 167:Display/displayHandler.cpp ****     _displayPtr->Fill(false);
 3850              		.loc 4 167 77 view .LVU1020
 3851 0010 2DED028B 		vpush.64	{d8}
 3852              		.cfi_def_cfa_offset 24
 3853              		.cfi_offset 80, -24
ARM GAS  C:\Users\skipi\AppData\Local\Temp\cctYXDIM.s 			page 97


 3854              		.cfi_offset 81, -20
 3855 0014 B0EE408A 		vmov.f32	s16, s0
 3856 0018 86B0     		sub	sp, sp, #24
 3857              		.cfi_def_cfa_offset 48
 3858 001a 40F09980 		bne	.L210
 3859              	.LBB383:
 3860              	.LBB384:
 3861              	.LBB385:
 375:Display/../../libs/PoliTeKDSP/libs/libDaisy/src/dev/oled_ssd130x.h ****         }
 3862              		.loc 2 375 24 view .LVU1021
 3863 001e 4FF48062 		mov	r2, #1024
 3864 0022 0021     		movs	r1, #0
 3865              	.LVL296:
 375:Display/../../libs/PoliTeKDSP/libs/libDaisy/src/dev/oled_ssd130x.h ****         }
 3866              		.loc 2 375 24 view .LVU1022
 3867 0024 1030     		adds	r0, r0, #16
 3868 0026 FFF7FEFF 		bl	memset
 3869              	.LVL297:
 3870              	.L211:
 375:Display/../../libs/PoliTeKDSP/libs/libDaisy/src/dev/oled_ssd130x.h ****         }
 3871              		.loc 2 375 24 view .LVU1023
 3872              	.LBE385:
 3873              	.LBE384:
 3874              	.LBE383:
 169:Display/displayHandler.cpp ****     
 170:Display/displayHandler.cpp ****     // Titolo piccolo
 171:Display/displayHandler.cpp ****     _displayPtr->SetCursor(0, 0);
 3875              		.loc 4 171 5 is_stmt 1 view .LVU1024
 3876 002a 2568     		ldr	r5, [r4]
 3877              	.LVL298:
 3878              	.LBB386:
 3879              	.LBI386:
 171:Display/../../libs/PoliTeKDSP/libs/libDaisy/src/hid/disp/display.h ****     {
 3880              		.loc 3 171 10 view .LVU1025
 3881              	.LBB387:
 173:Display/../../libs/PoliTeKDSP/libs/libDaisy/src/hid/disp/display.h ****         currentY_ = (y >= Height()) ? Height() - 1 : y;
 3882              		.loc 3 173 9 view .LVU1026
 173:Display/../../libs/PoliTeKDSP/libs/libDaisy/src/hid/disp/display.h ****         currentY_ = (y >= Height()) ? Height() - 1 : y;
 3883              		.loc 3 173 33 is_stmt 0 view .LVU1027
 3884 002c 2B68     		ldr	r3, [r5]
 173:Display/../../libs/PoliTeKDSP/libs/libDaisy/src/hid/disp/display.h ****         currentY_ = (y >= Height()) ? Height() - 1 : y;
 3885              		.loc 3 173 32 view .LVU1028
 3886 002e 2846     		mov	r0, r5
 3887 0030 DB68     		ldr	r3, [r3, #12]
 3888 0032 9847     		blx	r3
 3889              	.LVL299:
 173:Display/../../libs/PoliTeKDSP/libs/libDaisy/src/hid/disp/display.h ****         currentY_ = (y >= Height()) ? Height() - 1 : y;
 3890              		.loc 3 173 19 view .LVU1029
 3891 0034 0028     		cmp	r0, #0
 3892 0036 7FD1     		bne	.L218
 173:Display/../../libs/PoliTeKDSP/libs/libDaisy/src/hid/disp/display.h ****         currentY_ = (y >= Height()) ? Height() - 1 : y;
 3893              		.loc 3 173 44 view .LVU1030
 3894 0038 2B68     		ldr	r3, [r5]
 173:Display/../../libs/PoliTeKDSP/libs/libDaisy/src/hid/disp/display.h ****         currentY_ = (y >= Height()) ? Height() - 1 : y;
 3895              		.loc 3 173 43 view .LVU1031
 3896 003a 2846     		mov	r0, r5
 3897 003c DB68     		ldr	r3, [r3, #12]
ARM GAS  C:\Users\skipi\AppData\Local\Temp\cctYXDIM.s 			page 98


 3898 003e 9847     		blx	r3
 3899              	.LVL300:
 173:Display/../../libs/PoliTeKDSP/libs/libDaisy/src/hid/disp/display.h ****         currentY_ = (y >= Height()) ? Height() - 1 : y;
 3900              		.loc 3 173 19 view .LVU1032
 3901 0040 0138     		subs	r0, r0, #1
 3902 0042 83B2     		uxth	r3, r0
 3903              	.L212:
 174:Display/../../libs/PoliTeKDSP/libs/libDaisy/src/hid/disp/display.h ****     }
 3904              		.loc 3 174 34 view .LVU1033
 3905 0044 2A68     		ldr	r2, [r5]
 174:Display/../../libs/PoliTeKDSP/libs/libDaisy/src/hid/disp/display.h ****     }
 3906              		.loc 3 174 33 view .LVU1034
 3907 0046 2846     		mov	r0, r5
 173:Display/../../libs/PoliTeKDSP/libs/libDaisy/src/hid/disp/display.h ****         currentY_ = (y >= Height()) ? Height() - 1 : y;
 3908              		.loc 3 173 19 view .LVU1035
 3909 0048 AB80     		strh	r3, [r5, #4]	@ movhi
 174:Display/../../libs/PoliTeKDSP/libs/libDaisy/src/hid/disp/display.h ****     }
 3910              		.loc 3 174 9 is_stmt 1 view .LVU1036
 174:Display/../../libs/PoliTeKDSP/libs/libDaisy/src/hid/disp/display.h ****     }
 3911              		.loc 3 174 33 is_stmt 0 view .LVU1037
 3912 004a 9368     		ldr	r3, [r2, #8]
 3913 004c 9847     		blx	r3
 3914              	.LVL301:
 174:Display/../../libs/PoliTeKDSP/libs/libDaisy/src/hid/disp/display.h ****     }
 3915              		.loc 3 174 19 view .LVU1038
 3916 004e 0028     		cmp	r0, #0
 3917 0050 7CD1     		bne	.L219
 174:Display/../../libs/PoliTeKDSP/libs/libDaisy/src/hid/disp/display.h ****     }
 3918              		.loc 3 174 46 view .LVU1039
 3919 0052 2B68     		ldr	r3, [r5]
 174:Display/../../libs/PoliTeKDSP/libs/libDaisy/src/hid/disp/display.h ****     }
 3920              		.loc 3 174 45 view .LVU1040
 3921 0054 2846     		mov	r0, r5
 3922 0056 9B68     		ldr	r3, [r3, #8]
 3923 0058 9847     		blx	r3
 3924              	.LVL302:
 174:Display/../../libs/PoliTeKDSP/libs/libDaisy/src/hid/disp/display.h ****     }
 3925              		.loc 3 174 19 view .LVU1041
 3926 005a 0138     		subs	r0, r0, #1
 3927 005c 83B2     		uxth	r3, r0
 3928              	.L213:
 3929              	.LBE387:
 3930              	.LBE386:
 172:Display/displayHandler.cpp ****     _displayPtr->WriteString("EDIT:", Font_7x10, true);
 3931              		.loc 4 172 5 view .LVU1042
 3932 005e 2068     		ldr	r0, [r4]
 3933              		.loc 4 172 29 view .LVU1043
 3934 0060 0121     		movs	r1, #1
 3935              	.LBB391:
 3936              	.LBB388:
 174:Display/../../libs/PoliTeKDSP/libs/libDaisy/src/hid/disp/display.h ****     }
 3937              		.loc 3 174 19 view .LVU1044
 3938 0062 EB80     		strh	r3, [r5, #6]	@ movhi
 3939              	.LVL303:
 174:Display/../../libs/PoliTeKDSP/libs/libDaisy/src/hid/disp/display.h ****     }
 3940              		.loc 3 174 19 view .LVU1045
 3941              	.LBE388:
ARM GAS  C:\Users\skipi\AppData\Local\Temp\cctYXDIM.s 			page 99


 3942              	.LBE391:
 3943              		.loc 4 172 5 is_stmt 1 view .LVU1046
 3944              		.loc 4 172 54 is_stmt 0 view .LVU1047
 3945 0064 0268     		ldr	r2, [r0]
 3946              		.loc 4 172 29 view .LVU1048
 3947 0066 3D4B     		ldr	r3, .L225+4
 3948 0068 0091     		str	r1, [sp]
 3949 006a 3D49     		ldr	r1, .L225+8
 3950 006c 956A     		ldr	r5, [r2, #40]
 3951 006e 0CCB     		ldm	r3, {r2, r3}
 3952 0070 A847     		blx	r5
 3953              	.LVL304:
 173:Display/displayHandler.cpp ****     
 174:Display/displayHandler.cpp ****     // Nome parametro medio
 175:Display/displayHandler.cpp ****     _displayPtr->SetCursor(0, 12);
 3954              		.loc 4 175 5 is_stmt 1 view .LVU1049
 3955 0072 2568     		ldr	r5, [r4]
 3956              	.LVL305:
 3957              	.LBB392:
 3958              	.LBI392:
 171:Display/../../libs/PoliTeKDSP/libs/libDaisy/src/hid/disp/display.h ****     {
 3959              		.loc 3 171 10 view .LVU1050
 3960              	.LBB393:
 173:Display/../../libs/PoliTeKDSP/libs/libDaisy/src/hid/disp/display.h ****         currentY_ = (y >= Height()) ? Height() - 1 : y;
 3961              		.loc 3 173 9 view .LVU1051
 173:Display/../../libs/PoliTeKDSP/libs/libDaisy/src/hid/disp/display.h ****         currentY_ = (y >= Height()) ? Height() - 1 : y;
 3962              		.loc 3 173 33 is_stmt 0 view .LVU1052
 3963 0074 2B68     		ldr	r3, [r5]
 173:Display/../../libs/PoliTeKDSP/libs/libDaisy/src/hid/disp/display.h ****         currentY_ = (y >= Height()) ? Height() - 1 : y;
 3964              		.loc 3 173 32 view .LVU1053
 3965 0076 2846     		mov	r0, r5
 3966 0078 DB68     		ldr	r3, [r3, #12]
 3967 007a 9847     		blx	r3
 3968              	.LVL306:
 173:Display/../../libs/PoliTeKDSP/libs/libDaisy/src/hid/disp/display.h ****         currentY_ = (y >= Height()) ? Height() - 1 : y;
 3969              		.loc 3 173 19 view .LVU1054
 3970 007c 0028     		cmp	r0, #0
 3971 007e 63D1     		bne	.L220
 173:Display/../../libs/PoliTeKDSP/libs/libDaisy/src/hid/disp/display.h ****         currentY_ = (y >= Height()) ? Height() - 1 : y;
 3972              		.loc 3 173 44 view .LVU1055
 3973 0080 2B68     		ldr	r3, [r5]
 173:Display/../../libs/PoliTeKDSP/libs/libDaisy/src/hid/disp/display.h ****         currentY_ = (y >= Height()) ? Height() - 1 : y;
 3974              		.loc 3 173 43 view .LVU1056
 3975 0082 2846     		mov	r0, r5
 3976 0084 DB68     		ldr	r3, [r3, #12]
 3977 0086 9847     		blx	r3
 3978              	.LVL307:
 173:Display/../../libs/PoliTeKDSP/libs/libDaisy/src/hid/disp/display.h ****         currentY_ = (y >= Height()) ? Height() - 1 : y;
 3979              		.loc 3 173 19 view .LVU1057
 3980 0088 0138     		subs	r0, r0, #1
 3981 008a 83B2     		uxth	r3, r0
 3982              	.L214:
 174:Display/../../libs/PoliTeKDSP/libs/libDaisy/src/hid/disp/display.h ****     }
 3983              		.loc 3 174 34 view .LVU1058
 3984 008c 2A68     		ldr	r2, [r5]
 174:Display/../../libs/PoliTeKDSP/libs/libDaisy/src/hid/disp/display.h ****     }
 3985              		.loc 3 174 33 view .LVU1059
ARM GAS  C:\Users\skipi\AppData\Local\Temp\cctYXDIM.s 			page 100


 3986 008e 2846     		mov	r0, r5
 173:Display/../../libs/PoliTeKDSP/libs/libDaisy/src/hid/disp/display.h ****         currentY_ = (y >= Height()) ? Height() - 1 : y;
 3987              		.loc 3 173 19 view .LVU1060
 3988 0090 AB80     		strh	r3, [r5, #4]	@ movhi
 174:Display/../../libs/PoliTeKDSP/libs/libDaisy/src/hid/disp/display.h ****     }
 3989              		.loc 3 174 9 is_stmt 1 view .LVU1061
 174:Display/../../libs/PoliTeKDSP/libs/libDaisy/src/hid/disp/display.h ****     }
 3990              		.loc 3 174 33 is_stmt 0 view .LVU1062
 3991 0092 9368     		ldr	r3, [r2, #8]
 3992 0094 9847     		blx	r3
 3993              	.LVL308:
 174:Display/../../libs/PoliTeKDSP/libs/libDaisy/src/hid/disp/display.h ****     }
 3994              		.loc 3 174 19 view .LVU1063
 3995 0096 0C28     		cmp	r0, #12
 3996 0098 54D8     		bhi	.L221
 174:Display/../../libs/PoliTeKDSP/libs/libDaisy/src/hid/disp/display.h ****     }
 3997              		.loc 3 174 46 view .LVU1064
 3998 009a 2B68     		ldr	r3, [r5]
 174:Display/../../libs/PoliTeKDSP/libs/libDaisy/src/hid/disp/display.h ****     }
 3999              		.loc 3 174 45 view .LVU1065
 4000 009c 2846     		mov	r0, r5
 4001 009e 9B68     		ldr	r3, [r3, #8]
 4002 00a0 9847     		blx	r3
 4003              	.LVL309:
 174:Display/../../libs/PoliTeKDSP/libs/libDaisy/src/hid/disp/display.h ****     }
 4004              		.loc 3 174 19 view .LVU1066
 4005 00a2 0138     		subs	r0, r0, #1
 4006 00a4 83B2     		uxth	r3, r0
 4007              	.L215:
 4008              	.LBE393:
 4009              	.LBE392:
 176:Display/displayHandler.cpp ****     _displayPtr->WriteString(paramName, Font_11x18, true);
 4010              		.loc 4 176 5 view .LVU1067
 4011 00a6 2068     		ldr	r0, [r4]
 4012              		.loc 4 176 29 view .LVU1068
 4013 00a8 3146     		mov	r1, r6
 4014              	.LBB396:
 4015              	.LBB394:
 174:Display/../../libs/PoliTeKDSP/libs/libDaisy/src/hid/disp/display.h ****     }
 4016              		.loc 3 174 19 view .LVU1069
 4017 00aa EB80     		strh	r3, [r5, #6]	@ movhi
 4018              	.LVL310:
 174:Display/../../libs/PoliTeKDSP/libs/libDaisy/src/hid/disp/display.h ****     }
 4019              		.loc 3 174 19 view .LVU1070
 4020              	.LBE394:
 4021              	.LBE396:
 4022              		.loc 4 176 5 is_stmt 1 view .LVU1071
 4023              		.loc 4 176 29 is_stmt 0 view .LVU1072
 4024 00ac 0122     		movs	r2, #1
 4025              		.loc 4 176 57 view .LVU1073
 4026 00ae 0368     		ldr	r3, [r0]
 4027              		.loc 4 176 29 view .LVU1074
 4028 00b0 2C4E     		ldr	r6, .L225+12
 4029              	.LVL311:
 4030              		.loc 4 176 29 view .LVU1075
 4031 00b2 0092     		str	r2, [sp]
 4032 00b4 9D6A     		ldr	r5, [r3, #40]
ARM GAS  C:\Users\skipi\AppData\Local\Temp\cctYXDIM.s 			page 101


 4033 00b6 96E80C00 		ldm	r6, {r2, r3}
 4034 00ba A847     		blx	r5
 4035              	.LVL312:
 177:Display/displayHandler.cpp **** 
 178:Display/displayHandler.cpp ****     // Estrazione manuale (già corretta la tua, la rendiamo solo più robusta)
 179:Display/displayHandler.cpp ****     int intPart = (int)value;
 4036              		.loc 4 179 5 is_stmt 1 view .LVU1076
 4037              		.loc 4 179 9 is_stmt 0 view .LVU1077
 4038 00bc FDEEC87A 		vcvt.s32.f32	s15, s16
 4039              	.LVL313:
 180:Display/displayHandler.cpp ****     int decPart = (int)((value - (float)intPart) * 100.0f); // Due decimali
 4040              		.loc 4 180 5 is_stmt 1 view .LVU1078
 4041              		.loc 4 180 50 is_stmt 0 view .LVU1079
 4042 00c0 9FED297A 		vldr.32	s14, .L225+16
 181:Display/displayHandler.cpp ****     if (decPart < 0) decPart = -decPart;
 182:Display/displayHandler.cpp **** 
 183:Display/displayHandler.cpp ****     char valBuffer[16];
 184:Display/displayHandler.cpp ****     sprintf(valBuffer, "%d.%02d", intPart, decPart); // %02d aggiunge lo zero (es: 5.05 invece di 5
 4043              		.loc 4 184 12 view .LVU1080
 4044 00c4 02A8     		add	r0, sp, #8
 4045 00c6 2949     		ldr	r1, .L225+20
 180:Display/displayHandler.cpp ****     int decPart = (int)((value - (float)intPart) * 100.0f); // Due decimali
 4046              		.loc 4 180 34 view .LVU1081
 4047 00c8 F8EEE76A 		vcvt.f32.s32	s13, s15
 4048              		.loc 4 184 12 view .LVU1082
 4049 00cc 17EE902A 		vmov	r2, s15	@ int
 180:Display/displayHandler.cpp ****     int decPart = (int)((value - (float)intPart) * 100.0f); // Due decimali
 4050              		.loc 4 180 32 view .LVU1083
 4051 00d0 78EE667A 		vsub.f32	s15, s16, s13
 4052              	.LVL314:
 180:Display/displayHandler.cpp ****     int decPart = (int)((value - (float)intPart) * 100.0f); // Due decimali
 4053              		.loc 4 180 50 view .LVU1084
 4054 00d4 67EE877A 		vmul.f32	s15, s15, s14
 180:Display/displayHandler.cpp ****     int decPart = (int)((value - (float)intPart) * 100.0f); // Due decimali
 4055              		.loc 4 180 9 view .LVU1085
 4056 00d8 FDEEE77A 		vcvt.s32.f32	s15, s15
 4057 00dc 17EE903A 		vmov	r3, s15	@ int
 4058              	.LVL315:
 181:Display/displayHandler.cpp ****     if (decPart < 0) decPart = -decPart;
 4059              		.loc 4 181 5 is_stmt 1 view .LVU1086
 183:Display/displayHandler.cpp ****     sprintf(valBuffer, "%d.%02d", intPart, decPart); // %02d aggiunge lo zero (es: 5.05 invece di 5
 4060              		.loc 4 183 5 view .LVU1087
 4061              		.loc 4 184 5 view .LVU1088
 4062              		.loc 4 184 12 is_stmt 0 view .LVU1089
 4063 00e0 002B     		cmp	r3, #0
 4064 00e2 B8BF     		it	lt
 4065 00e4 5B42     		rsblt	r3, r3, #0
 4066              	.LVL316:
 4067              		.loc 4 184 12 view .LVU1090
 4068 00e6 FFF7FEFF 		bl	sprintf
 4069              	.LVL317:
 185:Display/displayHandler.cpp ****     
 186:Display/displayHandler.cpp ****     // Valore centrale - alzato un po' per sicurezza
 187:Display/displayHandler.cpp ****     _displayPtr->SetCursor(0, 35); 
 4070              		.loc 4 187 5 is_stmt 1 view .LVU1091
 4071 00ea 2568     		ldr	r5, [r4]
 4072              	.LVL318:
ARM GAS  C:\Users\skipi\AppData\Local\Temp\cctYXDIM.s 			page 102


 4073              	.LBB397:
 4074              	.LBI397:
 171:Display/../../libs/PoliTeKDSP/libs/libDaisy/src/hid/disp/display.h ****     {
 4075              		.loc 3 171 10 view .LVU1092
 4076              	.LBB398:
 173:Display/../../libs/PoliTeKDSP/libs/libDaisy/src/hid/disp/display.h ****         currentY_ = (y >= Height()) ? Height() - 1 : y;
 4077              		.loc 3 173 9 view .LVU1093
 173:Display/../../libs/PoliTeKDSP/libs/libDaisy/src/hid/disp/display.h ****         currentY_ = (y >= Height()) ? Height() - 1 : y;
 4078              		.loc 3 173 33 is_stmt 0 view .LVU1094
 4079 00ec 2B68     		ldr	r3, [r5]
 173:Display/../../libs/PoliTeKDSP/libs/libDaisy/src/hid/disp/display.h ****         currentY_ = (y >= Height()) ? Height() - 1 : y;
 4080              		.loc 3 173 32 view .LVU1095
 4081 00ee 2846     		mov	r0, r5
 4082 00f0 DB68     		ldr	r3, [r3, #12]
 4083 00f2 9847     		blx	r3
 4084              	.LVL319:
 173:Display/../../libs/PoliTeKDSP/libs/libDaisy/src/hid/disp/display.h ****         currentY_ = (y >= Height()) ? Height() - 1 : y;
 4085              		.loc 3 173 19 view .LVU1096
 4086 00f4 20BB     		cbnz	r0, .L222
 173:Display/../../libs/PoliTeKDSP/libs/libDaisy/src/hid/disp/display.h ****         currentY_ = (y >= Height()) ? Height() - 1 : y;
 4087              		.loc 3 173 44 view .LVU1097
 4088 00f6 2B68     		ldr	r3, [r5]
 173:Display/../../libs/PoliTeKDSP/libs/libDaisy/src/hid/disp/display.h ****         currentY_ = (y >= Height()) ? Height() - 1 : y;
 4089              		.loc 3 173 43 view .LVU1098
 4090 00f8 2846     		mov	r0, r5
 4091 00fa DB68     		ldr	r3, [r3, #12]
 4092 00fc 9847     		blx	r3
 4093              	.LVL320:
 173:Display/../../libs/PoliTeKDSP/libs/libDaisy/src/hid/disp/display.h ****         currentY_ = (y >= Height()) ? Height() - 1 : y;
 4094              		.loc 3 173 19 view .LVU1099
 4095 00fe 0138     		subs	r0, r0, #1
 4096 0100 83B2     		uxth	r3, r0
 4097              	.L216:
 4098 0102 AB80     		strh	r3, [r5, #4]	@ movhi
 174:Display/../../libs/PoliTeKDSP/libs/libDaisy/src/hid/disp/display.h ****     }
 4099              		.loc 3 174 9 is_stmt 1 view .LVU1100
 174:Display/../../libs/PoliTeKDSP/libs/libDaisy/src/hid/disp/display.h ****     }
 4100              		.loc 3 174 33 is_stmt 0 view .LVU1101
 4101 0104 2846     		mov	r0, r5
 174:Display/../../libs/PoliTeKDSP/libs/libDaisy/src/hid/disp/display.h ****     }
 4102              		.loc 3 174 34 view .LVU1102
 4103 0106 2B68     		ldr	r3, [r5]
 174:Display/../../libs/PoliTeKDSP/libs/libDaisy/src/hid/disp/display.h ****     }
 4104              		.loc 3 174 33 view .LVU1103
 4105 0108 9B68     		ldr	r3, [r3, #8]
 4106 010a 9847     		blx	r3
 4107              	.LVL321:
 174:Display/../../libs/PoliTeKDSP/libs/libDaisy/src/hid/disp/display.h ****     }
 4108              		.loc 3 174 19 view .LVU1104
 4109 010c 2328     		cmp	r0, #35
 4110 010e 15D8     		bhi	.L223
 174:Display/../../libs/PoliTeKDSP/libs/libDaisy/src/hid/disp/display.h ****     }
 4111              		.loc 3 174 46 view .LVU1105
 4112 0110 2B68     		ldr	r3, [r5]
 174:Display/../../libs/PoliTeKDSP/libs/libDaisy/src/hid/disp/display.h ****     }
 4113              		.loc 3 174 45 view .LVU1106
 4114 0112 2846     		mov	r0, r5
ARM GAS  C:\Users\skipi\AppData\Local\Temp\cctYXDIM.s 			page 103


 4115 0114 9B68     		ldr	r3, [r3, #8]
 4116 0116 9847     		blx	r3
 4117              	.LVL322:
 174:Display/../../libs/PoliTeKDSP/libs/libDaisy/src/hid/disp/display.h ****     }
 4118              		.loc 3 174 19 view .LVU1107
 4119 0118 0138     		subs	r0, r0, #1
 4120 011a 83B2     		uxth	r3, r0
 4121              	.L217:
 4122              	.LBE398:
 4123              	.LBE397:
 188:Display/displayHandler.cpp ****     _displayPtr->WriteString(valBuffer, Font_11x18, true); 
 4124              		.loc 4 188 5 view .LVU1108
 4125 011c 2068     		ldr	r0, [r4]
 4126              		.loc 4 188 29 view .LVU1109
 4127 011e 0121     		movs	r1, #1
 4128              	.LBB401:
 4129              	.LBB399:
 174:Display/../../libs/PoliTeKDSP/libs/libDaisy/src/hid/disp/display.h ****     }
 4130              		.loc 3 174 19 view .LVU1110
 4131 0120 EB80     		strh	r3, [r5, #6]	@ movhi
 4132              	.LVL323:
 174:Display/../../libs/PoliTeKDSP/libs/libDaisy/src/hid/disp/display.h ****     }
 4133              		.loc 3 174 19 view .LVU1111
 4134              	.LBE399:
 4135              	.LBE401:
 4136              		.loc 4 188 5 is_stmt 1 view .LVU1112
 4137              		.loc 4 188 57 is_stmt 0 view .LVU1113
 4138 0122 0468     		ldr	r4, [r0]
 4139              	.LVL324:
 4140              		.loc 4 188 29 view .LVU1114
 4141 0124 96E80C00 		ldm	r6, {r2, r3}
 4142 0128 0091     		str	r1, [sp]
 4143 012a 02A9     		add	r1, sp, #8
 4144 012c A46A     		ldr	r4, [r4, #40]
 4145 012e A047     		blx	r4
 4146              	.LVL325:
 189:Display/displayHandler.cpp **** }
 4147              		.loc 4 189 1 view .LVU1115
 4148 0130 06B0     		add	sp, sp, #24
 4149              		.cfi_remember_state
 4150              		.cfi_def_cfa_offset 24
 4151              		@ sp needed
 4152 0132 BDEC028B 		vldm	sp!, {d8}
 4153              		.cfi_restore 80
 4154              		.cfi_restore 81
 4155              		.cfi_def_cfa_offset 16
 4156              	.LVL326:
 4157              		.loc 4 189 1 view .LVU1116
 4158 0136 70BD     		pop	{r4, r5, r6, pc}
 4159              	.LVL327:
 4160              	.L218:
 4161              		.cfi_restore_state
 4162              	.LBB402:
 4163              	.LBB389:
 173:Display/../../libs/PoliTeKDSP/libs/libDaisy/src/hid/disp/display.h ****         currentY_ = (y >= Height()) ? Height() - 1 : y;
 4164              		.loc 3 173 19 view .LVU1117
 4165 0138 0023     		movs	r3, #0
ARM GAS  C:\Users\skipi\AppData\Local\Temp\cctYXDIM.s 			page 104


 4166 013a 83E7     		b	.L212
 4167              	.LVL328:
 4168              	.L223:
 173:Display/../../libs/PoliTeKDSP/libs/libDaisy/src/hid/disp/display.h ****         currentY_ = (y >= Height()) ? Height() - 1 : y;
 4169              		.loc 3 173 19 view .LVU1118
 4170              	.LBE389:
 4171              	.LBE402:
 4172              	.LBB403:
 4173              	.LBB400:
 174:Display/../../libs/PoliTeKDSP/libs/libDaisy/src/hid/disp/display.h ****     }
 4174              		.loc 3 174 19 view .LVU1119
 4175 013c 2323     		movs	r3, #35
 4176 013e EDE7     		b	.L217
 4177              	.L222:
 173:Display/../../libs/PoliTeKDSP/libs/libDaisy/src/hid/disp/display.h ****         currentY_ = (y >= Height()) ? Height() - 1 : y;
 4178              		.loc 3 173 19 view .LVU1120
 4179 0140 0023     		movs	r3, #0
 4180 0142 DEE7     		b	.L216
 4181              	.LVL329:
 4182              	.L221:
 173:Display/../../libs/PoliTeKDSP/libs/libDaisy/src/hid/disp/display.h ****         currentY_ = (y >= Height()) ? Height() - 1 : y;
 4183              		.loc 3 173 19 view .LVU1121
 4184              	.LBE400:
 4185              	.LBE403:
 4186              	.LBB404:
 4187              	.LBB395:
 174:Display/../../libs/PoliTeKDSP/libs/libDaisy/src/hid/disp/display.h ****     }
 4188              		.loc 3 174 19 view .LVU1122
 4189 0144 0C23     		movs	r3, #12
 4190 0146 AEE7     		b	.L215
 4191              	.L220:
 173:Display/../../libs/PoliTeKDSP/libs/libDaisy/src/hid/disp/display.h ****         currentY_ = (y >= Height()) ? Height() - 1 : y;
 4192              		.loc 3 173 19 view .LVU1123
 4193 0148 0023     		movs	r3, #0
 4194 014a 9FE7     		b	.L214
 4195              	.LVL330:
 4196              	.L219:
 173:Display/../../libs/PoliTeKDSP/libs/libDaisy/src/hid/disp/display.h ****         currentY_ = (y >= Height()) ? Height() - 1 : y;
 4197              		.loc 3 173 19 view .LVU1124
 4198              	.LBE395:
 4199              	.LBE404:
 4200              	.LBB405:
 4201              	.LBB390:
 174:Display/../../libs/PoliTeKDSP/libs/libDaisy/src/hid/disp/display.h ****     }
 4202              		.loc 3 174 19 view .LVU1125
 4203 014c 0023     		movs	r3, #0
 4204 014e 86E7     		b	.L213
 4205              	.LVL331:
 4206              	.L210:
 174:Display/../../libs/PoliTeKDSP/libs/libDaisy/src/hid/disp/display.h ****     }
 4207              		.loc 3 174 19 view .LVU1126
 4208              	.LBE390:
 4209              	.LBE405:
 168:Display/displayHandler.cpp ****     
 4210              		.loc 4 168 22 view .LVU1127
 4211 0150 0021     		movs	r1, #0
 4212              	.LVL332:
ARM GAS  C:\Users\skipi\AppData\Local\Temp\cctYXDIM.s 			page 105


 168:Display/displayHandler.cpp ****     
 4213              		.loc 4 168 22 view .LVU1128
 4214 0152 9847     		blx	r3
 4215              	.LVL333:
 168:Display/displayHandler.cpp ****     
 4216              		.loc 4 168 22 view .LVU1129
 4217 0154 69E7     		b	.L211
 4218              	.L226:
 4219 0156 00BF     		.align	2
 4220              	.L225:
 4221 0158 00000000 		.word	_ZN5daisy11OledDisplayINS_13SSD130xDriverILj128ELj64ENS_19SSD130xI2CTransportEEEE4FillEb
 4222 015c 00000000 		.word	Font_7x10
 4223 0160 00000000 		.word	.LC40
 4224 0164 00000000 		.word	Font_11x18
 4225 0168 0000C842 		.word	1120403456
 4226 016c 08000000 		.word	.LC41
 4227              		.cfi_endproc
 4228              	.LFE2795:
 4230              		.section	.rodata._ZN14DisplayHandler16DrawIntParameterEPKci.str1.4,"aMS",%progbits,1
 4231              		.align	2
 4232              	.LC42:
 4233 0000 45444954 		.ascii	"EDITING:\000"
 4233      494E473A 
 4233      00
 4234 0009 000000   		.align	2
 4235              	.LC43:
 4236 000c 524F4F54 		.ascii	"ROOT\000"
 4236      00
 4237 0011 000000   		.align	2
 4238              	.LC45:
 4239 0014 5343414C 		.ascii	"SCALE\000"
 4239      4500
 4240 001a 0000     		.align	2
 4241              	.LC47:
 4242 001c 50524553 		.ascii	"PRESET\000"
 4242      455400
 4243 0023 00       		.align	2
 4244              	.LC49:
 4245 0024 256400   		.ascii	"%d\000"
 4246              		.section	.text._ZN14DisplayHandler16DrawIntParameterEPKci,"ax",%progbits
 4247              		.align	1
 4248              		.p2align 2,,3
 4249              		.global	_ZN14DisplayHandler16DrawIntParameterEPKci
 4250              		.syntax unified
 4251              		.thumb
 4252              		.thumb_func
 4253              		.fpu fpv5-d16
 4255              	_ZN14DisplayHandler16DrawIntParameterEPKci:
 4256              	.LVL334:
 4257              	.LFB2796:
 190:Display/displayHandler.cpp **** 
 191:Display/displayHandler.cpp **** void DisplayHandler::DrawIntParameter(const char* paramName, int value) {
 4258              		.loc 4 191 73 is_stmt 1 view -0
 4259              		.cfi_startproc
 4260              		@ args = 0, pretend = 0, frame = 64
 4261              		@ frame_needed = 0, uses_anonymous_args = 0
 192:Display/displayHandler.cpp **** 
ARM GAS  C:\Users\skipi\AppData\Local\Temp\cctYXDIM.s 			page 106


 193:Display/displayHandler.cpp ****     _displayPtr->Fill(false);
 4262              		.loc 4 193 5 view .LVU1131
 191:Display/displayHandler.cpp **** 
 4263              		.loc 4 191 73 is_stmt 0 view .LVU1132
 4264 0000 2DE9F043 		push	{r4, r5, r6, r7, r8, r9, lr}
 4265              		.cfi_def_cfa_offset 28
 4266              		.cfi_offset 4, -28
 4267              		.cfi_offset 5, -24
 4268              		.cfi_offset 6, -20
 4269              		.cfi_offset 7, -16
 4270              		.cfi_offset 8, -12
 4271              		.cfi_offset 9, -8
 4272              		.cfi_offset 14, -4
 4273 0004 0446     		mov	r4, r0
 4274              		.loc 4 193 5 view .LVU1133
 4275 0006 0068     		ldr	r0, [r0]
 4276              	.LVL335:
 191:Display/displayHandler.cpp **** 
 4277              		.loc 4 191 73 view .LVU1134
 4278 0008 1746     		mov	r7, r2
 4279 000a 804A     		ldr	r2, .L249
 4280              	.LVL336:
 4281              		.loc 4 193 28 view .LVU1135
 4282 000c 0368     		ldr	r3, [r0]
 191:Display/displayHandler.cpp **** 
 4283              		.loc 4 191 73 view .LVU1136
 4284 000e 93B0     		sub	sp, sp, #76
 4285              		.cfi_def_cfa_offset 104
 191:Display/displayHandler.cpp **** 
 4286              		.loc 4 191 73 view .LVU1137
 4287 0010 0E46     		mov	r6, r1
 4288              		.loc 4 193 28 view .LVU1138
 4289 0012 1B69     		ldr	r3, [r3, #16]
 4290 0014 9342     		cmp	r3, r2
 4291 0016 40F0F580 		bne	.L228
 4292              	.LBB422:
 4293              	.LBB423:
 4294              	.LBB424:
 375:Display/../../libs/PoliTeKDSP/libs/libDaisy/src/dev/oled_ssd130x.h ****         }
 4295              		.loc 2 375 24 view .LVU1139
 4296 001a 4FF48062 		mov	r2, #1024
 4297 001e 1030     		adds	r0, r0, #16
 4298 0020 0021     		movs	r1, #0
 4299              	.LVL337:
 375:Display/../../libs/PoliTeKDSP/libs/libDaisy/src/dev/oled_ssd130x.h ****         }
 4300              		.loc 2 375 24 view .LVU1140
 4301 0022 FFF7FEFF 		bl	memset
 4302              	.LVL338:
 4303              	.L229:
 4304              	.LBE424:
 4305              	.LBE423:
 4306              	.LBE422:
 194:Display/displayHandler.cpp ****     
 195:Display/displayHandler.cpp ****     // 1. Intestazione fissa
 196:Display/displayHandler.cpp ****     _displayPtr->SetCursor(0, 0);
 4307              		.loc 4 196 5 is_stmt 1 view .LVU1141
 4308 0026 2568     		ldr	r5, [r4]
ARM GAS  C:\Users\skipi\AppData\Local\Temp\cctYXDIM.s 			page 107


 4309              	.LVL339:
 4310              	.LBB425:
 4311              	.LBI425:
 171:Display/../../libs/PoliTeKDSP/libs/libDaisy/src/hid/disp/display.h ****     {
 4312              		.loc 3 171 10 view .LVU1142
 4313              	.LBB426:
 173:Display/../../libs/PoliTeKDSP/libs/libDaisy/src/hid/disp/display.h ****         currentY_ = (y >= Height()) ? Height() - 1 : y;
 4314              		.loc 3 173 9 view .LVU1143
 173:Display/../../libs/PoliTeKDSP/libs/libDaisy/src/hid/disp/display.h ****         currentY_ = (y >= Height()) ? Height() - 1 : y;
 4315              		.loc 3 173 33 is_stmt 0 view .LVU1144
 4316 0028 2B68     		ldr	r3, [r5]
 173:Display/../../libs/PoliTeKDSP/libs/libDaisy/src/hid/disp/display.h ****         currentY_ = (y >= Height()) ? Height() - 1 : y;
 4317              		.loc 3 173 32 view .LVU1145
 4318 002a 2846     		mov	r0, r5
 4319 002c DB68     		ldr	r3, [r3, #12]
 4320 002e 9847     		blx	r3
 4321              	.LVL340:
 173:Display/../../libs/PoliTeKDSP/libs/libDaisy/src/hid/disp/display.h ****         currentY_ = (y >= Height()) ? Height() - 1 : y;
 4322              		.loc 3 173 19 view .LVU1146
 4323 0030 0028     		cmp	r0, #0
 4324 0032 40F09580 		bne	.L240
 173:Display/../../libs/PoliTeKDSP/libs/libDaisy/src/hid/disp/display.h ****         currentY_ = (y >= Height()) ? Height() - 1 : y;
 4325              		.loc 3 173 44 view .LVU1147
 4326 0036 2B68     		ldr	r3, [r5]
 173:Display/../../libs/PoliTeKDSP/libs/libDaisy/src/hid/disp/display.h ****         currentY_ = (y >= Height()) ? Height() - 1 : y;
 4327              		.loc 3 173 43 view .LVU1148
 4328 0038 2846     		mov	r0, r5
 4329 003a DB68     		ldr	r3, [r3, #12]
 4330 003c 9847     		blx	r3
 4331              	.LVL341:
 173:Display/../../libs/PoliTeKDSP/libs/libDaisy/src/hid/disp/display.h ****         currentY_ = (y >= Height()) ? Height() - 1 : y;
 4332              		.loc 3 173 19 view .LVU1149
 4333 003e 0138     		subs	r0, r0, #1
 4334 0040 83B2     		uxth	r3, r0
 4335              	.L230:
 4336 0042 AB80     		strh	r3, [r5, #4]	@ movhi
 174:Display/../../libs/PoliTeKDSP/libs/libDaisy/src/hid/disp/display.h ****     }
 4337              		.loc 3 174 9 is_stmt 1 view .LVU1150
 174:Display/../../libs/PoliTeKDSP/libs/libDaisy/src/hid/disp/display.h ****     }
 4338              		.loc 3 174 33 is_stmt 0 view .LVU1151
 4339 0044 2846     		mov	r0, r5
 174:Display/../../libs/PoliTeKDSP/libs/libDaisy/src/hid/disp/display.h ****     }
 4340              		.loc 3 174 34 view .LVU1152
 4341 0046 2B68     		ldr	r3, [r5]
 174:Display/../../libs/PoliTeKDSP/libs/libDaisy/src/hid/disp/display.h ****     }
 4342              		.loc 3 174 33 view .LVU1153
 4343 0048 9B68     		ldr	r3, [r3, #8]
 4344 004a 9847     		blx	r3
 4345              	.LVL342:
 174:Display/../../libs/PoliTeKDSP/libs/libDaisy/src/hid/disp/display.h ****     }
 4346              		.loc 3 174 19 view .LVU1154
 4347 004c 0028     		cmp	r0, #0
 4348 004e 40F08D80 		bne	.L241
 174:Display/../../libs/PoliTeKDSP/libs/libDaisy/src/hid/disp/display.h ****     }
 4349              		.loc 3 174 46 view .LVU1155
 4350 0052 2B68     		ldr	r3, [r5]
 174:Display/../../libs/PoliTeKDSP/libs/libDaisy/src/hid/disp/display.h ****     }
ARM GAS  C:\Users\skipi\AppData\Local\Temp\cctYXDIM.s 			page 108


 4351              		.loc 3 174 45 view .LVU1156
 4352 0054 2846     		mov	r0, r5
 4353 0056 9B68     		ldr	r3, [r3, #8]
 4354 0058 9847     		blx	r3
 4355              	.LVL343:
 174:Display/../../libs/PoliTeKDSP/libs/libDaisy/src/hid/disp/display.h ****     }
 4356              		.loc 3 174 19 view .LVU1157
 4357 005a 0138     		subs	r0, r0, #1
 4358 005c 83B2     		uxth	r3, r0
 4359              	.L231:
 4360              	.LBE426:
 4361              	.LBE425:
 197:Display/displayHandler.cpp ****     _displayPtr->WriteString("EDITING:", Font_7x10, true);
 4362              		.loc 4 197 5 view .LVU1158
 4363 005e 2068     		ldr	r0, [r4]
 4364              		.loc 4 197 29 view .LVU1159
 4365 0060 0121     		movs	r1, #1
 4366              	.LBB430:
 4367              	.LBB427:
 174:Display/../../libs/PoliTeKDSP/libs/libDaisy/src/hid/disp/display.h ****     }
 4368              		.loc 3 174 19 view .LVU1160
 4369 0062 EB80     		strh	r3, [r5, #6]	@ movhi
 4370              	.LVL344:
 174:Display/../../libs/PoliTeKDSP/libs/libDaisy/src/hid/disp/display.h ****     }
 4371              		.loc 3 174 19 view .LVU1161
 4372              	.LBE427:
 4373              	.LBE430:
 4374              		.loc 4 197 5 is_stmt 1 view .LVU1162
 4375              		.loc 4 197 57 is_stmt 0 view .LVU1163
 4376 0064 0268     		ldr	r2, [r0]
 4377              		.loc 4 197 29 view .LVU1164
 4378 0066 6A4B     		ldr	r3, .L249+4
 4379 0068 0091     		str	r1, [sp]
 4380 006a 6A49     		ldr	r1, .L249+8
 4381 006c 956A     		ldr	r5, [r2, #40]
 4382 006e 0CCB     		ldm	r3, {r2, r3}
 4383 0070 A847     		blx	r5
 4384              	.LVL345:
 198:Display/displayHandler.cpp ****     
 199:Display/displayHandler.cpp ****     // 2. Nome del parametro (es. ROOT, SCALE, OCTAVE)
 200:Display/displayHandler.cpp ****     _displayPtr->SetCursor(0, 15);
 4385              		.loc 4 200 5 is_stmt 1 view .LVU1165
 4386 0072 2568     		ldr	r5, [r4]
 4387              	.LVL346:
 4388              	.LBB431:
 4389              	.LBI431:
 171:Display/../../libs/PoliTeKDSP/libs/libDaisy/src/hid/disp/display.h ****     {
 4390              		.loc 3 171 10 view .LVU1166
 4391              	.LBB432:
 173:Display/../../libs/PoliTeKDSP/libs/libDaisy/src/hid/disp/display.h ****         currentY_ = (y >= Height()) ? Height() - 1 : y;
 4392              		.loc 3 173 9 view .LVU1167
 173:Display/../../libs/PoliTeKDSP/libs/libDaisy/src/hid/disp/display.h ****         currentY_ = (y >= Height()) ? Height() - 1 : y;
 4393              		.loc 3 173 33 is_stmt 0 view .LVU1168
 4394 0074 2B68     		ldr	r3, [r5]
 173:Display/../../libs/PoliTeKDSP/libs/libDaisy/src/hid/disp/display.h ****         currentY_ = (y >= Height()) ? Height() - 1 : y;
 4395              		.loc 3 173 32 view .LVU1169
 4396 0076 2846     		mov	r0, r5
ARM GAS  C:\Users\skipi\AppData\Local\Temp\cctYXDIM.s 			page 109


 4397 0078 DB68     		ldr	r3, [r3, #12]
 4398 007a 9847     		blx	r3
 4399              	.LVL347:
 173:Display/../../libs/PoliTeKDSP/libs/libDaisy/src/hid/disp/display.h ****         currentY_ = (y >= Height()) ? Height() - 1 : y;
 4400              		.loc 3 173 19 view .LVU1170
 4401 007c 0028     		cmp	r0, #0
 4402 007e 73D1     		bne	.L242
 173:Display/../../libs/PoliTeKDSP/libs/libDaisy/src/hid/disp/display.h ****         currentY_ = (y >= Height()) ? Height() - 1 : y;
 4403              		.loc 3 173 44 view .LVU1171
 4404 0080 2B68     		ldr	r3, [r5]
 173:Display/../../libs/PoliTeKDSP/libs/libDaisy/src/hid/disp/display.h ****         currentY_ = (y >= Height()) ? Height() - 1 : y;
 4405              		.loc 3 173 43 view .LVU1172
 4406 0082 2846     		mov	r0, r5
 4407 0084 DB68     		ldr	r3, [r3, #12]
 4408 0086 9847     		blx	r3
 4409              	.LVL348:
 173:Display/../../libs/PoliTeKDSP/libs/libDaisy/src/hid/disp/display.h ****         currentY_ = (y >= Height()) ? Height() - 1 : y;
 4410              		.loc 3 173 19 view .LVU1173
 4411 0088 0138     		subs	r0, r0, #1
 4412 008a 83B2     		uxth	r3, r0
 4413              	.L232:
 4414 008c AB80     		strh	r3, [r5, #4]	@ movhi
 174:Display/../../libs/PoliTeKDSP/libs/libDaisy/src/hid/disp/display.h ****     }
 4415              		.loc 3 174 9 is_stmt 1 view .LVU1174
 174:Display/../../libs/PoliTeKDSP/libs/libDaisy/src/hid/disp/display.h ****     }
 4416              		.loc 3 174 33 is_stmt 0 view .LVU1175
 4417 008e 2846     		mov	r0, r5
 174:Display/../../libs/PoliTeKDSP/libs/libDaisy/src/hid/disp/display.h ****     }
 4418              		.loc 3 174 34 view .LVU1176
 4419 0090 2B68     		ldr	r3, [r5]
 174:Display/../../libs/PoliTeKDSP/libs/libDaisy/src/hid/disp/display.h ****     }
 4420              		.loc 3 174 33 view .LVU1177
 4421 0092 9B68     		ldr	r3, [r3, #8]
 4422 0094 9847     		blx	r3
 4423              	.LVL349:
 174:Display/../../libs/PoliTeKDSP/libs/libDaisy/src/hid/disp/display.h ****     }
 4424              		.loc 3 174 19 view .LVU1178
 4425 0096 0F28     		cmp	r0, #15
 4426 0098 64D8     		bhi	.L243
 174:Display/../../libs/PoliTeKDSP/libs/libDaisy/src/hid/disp/display.h ****     }
 4427              		.loc 3 174 46 view .LVU1179
 4428 009a 2B68     		ldr	r3, [r5]
 174:Display/../../libs/PoliTeKDSP/libs/libDaisy/src/hid/disp/display.h ****     }
 4429              		.loc 3 174 45 view .LVU1180
 4430 009c 2846     		mov	r0, r5
 4431 009e 9B68     		ldr	r3, [r3, #8]
 4432 00a0 9847     		blx	r3
 4433              	.LVL350:
 174:Display/../../libs/PoliTeKDSP/libs/libDaisy/src/hid/disp/display.h ****     }
 4434              		.loc 3 174 19 view .LVU1181
 4435 00a2 0138     		subs	r0, r0, #1
 4436 00a4 83B2     		uxth	r3, r0
 4437              	.L233:
 4438              	.LBE432:
 4439              	.LBE431:
 201:Display/displayHandler.cpp ****     _displayPtr->WriteString(paramName, Font_11x18, true);
 4440              		.loc 4 201 5 view .LVU1182
ARM GAS  C:\Users\skipi\AppData\Local\Temp\cctYXDIM.s 			page 110


 4441 00a6 2068     		ldr	r0, [r4]
 4442              		.loc 4 201 29 view .LVU1183
 4443 00a8 0122     		movs	r2, #1
 4444              	.LBB435:
 4445              	.LBB433:
 174:Display/../../libs/PoliTeKDSP/libs/libDaisy/src/hid/disp/display.h ****     }
 4446              		.loc 3 174 19 view .LVU1184
 4447 00aa EB80     		strh	r3, [r5, #6]	@ movhi
 4448              	.LVL351:
 174:Display/../../libs/PoliTeKDSP/libs/libDaisy/src/hid/disp/display.h ****     }
 4449              		.loc 3 174 19 view .LVU1185
 4450              	.LBE433:
 4451              	.LBE435:
 4452              		.loc 4 201 5 is_stmt 1 view .LVU1186
 4453              		.loc 4 201 29 is_stmt 0 view .LVU1187
 4454 00ac 3146     		mov	r1, r6
 4455              		.loc 4 201 57 view .LVU1188
 4456 00ae 0368     		ldr	r3, [r0]
 4457              		.loc 4 201 29 view .LVU1189
 4458 00b0 DFF88881 		ldr	r8, .L249+48
 4459 00b4 0092     		str	r2, [sp]
 4460 00b6 9D6A     		ldr	r5, [r3, #40]
 4461 00b8 98E80C00 		ldm	r8, {r2, r3}
 4462 00bc A847     		blx	r5
 4463              	.LVL352:
 202:Display/displayHandler.cpp **** 
 203:Display/displayHandler.cpp ****     // 3. Logica di "Traduzione" dei valori
 204:Display/displayHandler.cpp ****     char valBuffer[16];
 4464              		.loc 4 204 5 is_stmt 1 view .LVU1190
 205:Display/displayHandler.cpp **** 
 206:Display/displayHandler.cpp ****     // Se stiamo modificando la ROOT (0-11)
 207:Display/displayHandler.cpp ****     if (strcmp(paramName, "ROOT") == 0) {
 4465              		.loc 4 207 5 view .LVU1191
 4466              	.LBB436:
 4467              		.loc 4 207 15 is_stmt 0 view .LVU1192
 4468 00be 5649     		ldr	r1, .L249+12
 4469 00c0 3046     		mov	r0, r6
 4470 00c2 FFF7FEFF 		bl	strcmp
 4471              	.LVL353:
 4472              		.loc 4 207 5 view .LVU1193
 4473 00c6 0028     		cmp	r0, #0
 4474 00c8 75D0     		beq	.L247
 4475              	.LBE436:
 208:Display/displayHandler.cpp ****         const char* notes[] = {"C", "C#", "D", "D#", "E", "F", "F#", "G", "G#", "A", "A#", "B"};
 209:Display/displayHandler.cpp ****         sprintf(valBuffer, "%s", notes[value % 12]);
 210:Display/displayHandler.cpp ****     }
 211:Display/displayHandler.cpp ****     // Se stiamo modificando la SCALE (0-6)
 212:Display/displayHandler.cpp ****     else if (strcmp(paramName, "SCALE") == 0) {
 4476              		.loc 4 212 10 is_stmt 1 view .LVU1194
 4477              	.LBB446:
 4478              	.LBB437:
 4479              		.loc 4 212 20 is_stmt 0 view .LVU1195
 4480 00ca 5449     		ldr	r1, .L249+16
 4481 00cc 3046     		mov	r0, r6
 4482 00ce FFF7FEFF 		bl	strcmp
 4483              	.LVL354:
 4484              		.loc 4 212 10 view .LVU1196
ARM GAS  C:\Users\skipi\AppData\Local\Temp\cctYXDIM.s 			page 111


 4485 00d2 0028     		cmp	r0, #0
 4486 00d4 4CD0     		beq	.L248
 4487              	.LBE437:
 4488              	.LBE446:
 213:Display/displayHandler.cpp ****         const char* scales[] = {"Major", "MinorN", "MinorA", "MinorM", "Penta", "Chrom", "Esat"};
 214:Display/displayHandler.cpp ****         sprintf(valBuffer, "%s", scales[value % 7]);
 215:Display/displayHandler.cpp ****     }else if (strcmp(paramName, "PRESET") == 0){
 4489              		.loc 4 215 11 is_stmt 1 view .LVU1197
 4490              	.LBB447:
 4491              	.LBB442:
 4492              	.LBB438:
 4493              		.loc 4 215 21 is_stmt 0 view .LVU1198
 4494 00d6 5249     		ldr	r1, .L249+20
 4495 00d8 3046     		mov	r0, r6
 4496 00da FFF7FEFF 		bl	strcmp
 4497              	.LVL355:
 4498              		.loc 4 215 11 view .LVU1199
 4499 00de 0028     		cmp	r0, #0
 4500 00e0 40F08880 		bne	.L237
 4501              	.LBB439:
 216:Display/displayHandler.cpp ****         const char* presets[] = {"Pad","Pluck","Roygbib"};
 4502              		.loc 4 216 9 is_stmt 1 view .LVU1200
 217:Display/displayHandler.cpp ****         sprintf(valBuffer, "%s", presets[value % 3]);
 4503              		.loc 4 217 48 is_stmt 0 view .LVU1201
 4504 00e4 4F4B     		ldr	r3, .L249+24
 216:Display/displayHandler.cpp ****         const char* presets[] = {"Pad","Pluck","Roygbib"};
 4505              		.loc 4 216 21 view .LVU1202
 4506 00e6 06AD     		add	r5, sp, #24
 4507 00e8 4F4A     		ldr	r2, .L249+28
 4508              		.loc 4 217 16 view .LVU1203
 4509 00ea 0DF10809 		add	r9, sp, #8
 4510              		.loc 4 217 48 view .LVU1204
 4511 00ee 83FB0713 		smull	r1, r3, r3, r7
 4512              		.loc 4 217 16 view .LVU1205
 4513 00f2 12A9     		add	r1, sp, #72
 4514              		.loc 4 217 48 view .LVU1206
 4515 00f4 A3EBE773 		sub	r3, r3, r7, asr #31
 4516 00f8 03EB4303 		add	r3, r3, r3, lsl #1
 4517 00fc FB1A     		subs	r3, r7, r3
 4518              		.loc 4 217 16 view .LVU1207
 4519 00fe 01EB8303 		add	r3, r1, r3, lsl #2
 216:Display/displayHandler.cpp ****         const char* presets[] = {"Pad","Pluck","Roygbib"};
 4520              		.loc 4 216 21 view .LVU1208
 4521 0102 07CA     		ldm	r2, {r0, r1, r2}
 4522 0104 85E80700 		stm	r5, {r0, r1, r2}
 4523              		.loc 4 217 9 is_stmt 1 view .LVU1209
 4524              		.loc 4 217 16 is_stmt 0 view .LVU1210
 4525 0108 4846     		mov	r0, r9
 4526 010a 53F8301C 		ldr	r1, [r3, #-48]
 4527 010e FFF7FEFF 		bl	strcpy
 4528              	.LVL356:
 4529              	.L235:
 4530              		.loc 4 217 16 view .LVU1211
 4531              	.LBE439:
 4532              	.LBE438:
 4533              	.LBE442:
 4534              	.LBE447:
ARM GAS  C:\Users\skipi\AppData\Local\Temp\cctYXDIM.s 			page 112


 218:Display/displayHandler.cpp ****     } else {
 219:Display/displayHandler.cpp ****         sprintf(valBuffer, "%d", value);
 220:Display/displayHandler.cpp ****     }
 221:Display/displayHandler.cpp ****     
 222:Display/displayHandler.cpp ****     // 4. Disegno del valore (abbassato a Y=38 per non uscire dallo schermo)
 223:Display/displayHandler.cpp ****     _displayPtr->SetCursor(0, 38);
 4535              		.loc 4 223 5 is_stmt 1 view .LVU1212
 4536 0112 2568     		ldr	r5, [r4]
 4537              	.LVL357:
 4538              	.LBB448:
 4539              	.LBI448:
 171:Display/../../libs/PoliTeKDSP/libs/libDaisy/src/hid/disp/display.h ****     {
 4540              		.loc 3 171 10 view .LVU1213
 4541              	.LBB449:
 173:Display/../../libs/PoliTeKDSP/libs/libDaisy/src/hid/disp/display.h ****         currentY_ = (y >= Height()) ? Height() - 1 : y;
 4542              		.loc 3 173 9 view .LVU1214
 173:Display/../../libs/PoliTeKDSP/libs/libDaisy/src/hid/disp/display.h ****         currentY_ = (y >= Height()) ? Height() - 1 : y;
 4543              		.loc 3 173 33 is_stmt 0 view .LVU1215
 4544 0114 2B68     		ldr	r3, [r5]
 173:Display/../../libs/PoliTeKDSP/libs/libDaisy/src/hid/disp/display.h ****         currentY_ = (y >= Height()) ? Height() - 1 : y;
 4545              		.loc 3 173 32 view .LVU1216
 4546 0116 2846     		mov	r0, r5
 4547 0118 DB68     		ldr	r3, [r3, #12]
 4548 011a 9847     		blx	r3
 4549              	.LVL358:
 173:Display/../../libs/PoliTeKDSP/libs/libDaisy/src/hid/disp/display.h ****         currentY_ = (y >= Height()) ? Height() - 1 : y;
 4550              		.loc 3 173 19 view .LVU1217
 4551 011c 0028     		cmp	r0, #0
 4552 011e 48D1     		bne	.L244
 173:Display/../../libs/PoliTeKDSP/libs/libDaisy/src/hid/disp/display.h ****         currentY_ = (y >= Height()) ? Height() - 1 : y;
 4553              		.loc 3 173 44 view .LVU1218
 4554 0120 2B68     		ldr	r3, [r5]
 173:Display/../../libs/PoliTeKDSP/libs/libDaisy/src/hid/disp/display.h ****         currentY_ = (y >= Height()) ? Height() - 1 : y;
 4555              		.loc 3 173 43 view .LVU1219
 4556 0122 2846     		mov	r0, r5
 4557 0124 DB68     		ldr	r3, [r3, #12]
 4558 0126 9847     		blx	r3
 4559              	.LVL359:
 173:Display/../../libs/PoliTeKDSP/libs/libDaisy/src/hid/disp/display.h ****         currentY_ = (y >= Height()) ? Height() - 1 : y;
 4560              		.loc 3 173 19 view .LVU1220
 4561 0128 0138     		subs	r0, r0, #1
 4562 012a 83B2     		uxth	r3, r0
 4563              	.L238:
 4564 012c AB80     		strh	r3, [r5, #4]	@ movhi
 174:Display/../../libs/PoliTeKDSP/libs/libDaisy/src/hid/disp/display.h ****     }
 4565              		.loc 3 174 9 is_stmt 1 view .LVU1221
 174:Display/../../libs/PoliTeKDSP/libs/libDaisy/src/hid/disp/display.h ****     }
 4566              		.loc 3 174 33 is_stmt 0 view .LVU1222
 4567 012e 2846     		mov	r0, r5
 174:Display/../../libs/PoliTeKDSP/libs/libDaisy/src/hid/disp/display.h ****     }
 4568              		.loc 3 174 34 view .LVU1223
 4569 0130 2B68     		ldr	r3, [r5]
 174:Display/../../libs/PoliTeKDSP/libs/libDaisy/src/hid/disp/display.h ****     }
 4570              		.loc 3 174 33 view .LVU1224
 4571 0132 9B68     		ldr	r3, [r3, #8]
 4572 0134 9847     		blx	r3
 4573              	.LVL360:
ARM GAS  C:\Users\skipi\AppData\Local\Temp\cctYXDIM.s 			page 113


 174:Display/../../libs/PoliTeKDSP/libs/libDaisy/src/hid/disp/display.h ****     }
 4574              		.loc 3 174 19 view .LVU1225
 4575 0136 2628     		cmp	r0, #38
 4576 0138 39D8     		bhi	.L245
 174:Display/../../libs/PoliTeKDSP/libs/libDaisy/src/hid/disp/display.h ****     }
 4577              		.loc 3 174 46 view .LVU1226
 4578 013a 2B68     		ldr	r3, [r5]
 174:Display/../../libs/PoliTeKDSP/libs/libDaisy/src/hid/disp/display.h ****     }
 4579              		.loc 3 174 45 view .LVU1227
 4580 013c 2846     		mov	r0, r5
 4581 013e 9B68     		ldr	r3, [r3, #8]
 4582 0140 9847     		blx	r3
 4583              	.LVL361:
 174:Display/../../libs/PoliTeKDSP/libs/libDaisy/src/hid/disp/display.h ****     }
 4584              		.loc 3 174 19 view .LVU1228
 4585 0142 0138     		subs	r0, r0, #1
 4586 0144 83B2     		uxth	r3, r0
 4587              	.L239:
 4588              	.LBE449:
 4589              	.LBE448:
 224:Display/displayHandler.cpp ****     _displayPtr->WriteString(valBuffer, Font_11x18, true); 
 4590              		.loc 4 224 5 view .LVU1229
 4591 0146 2068     		ldr	r0, [r4]
 4592              		.loc 4 224 29 view .LVU1230
 4593 0148 0121     		movs	r1, #1
 4594              	.LBB452:
 4595              	.LBB450:
 174:Display/../../libs/PoliTeKDSP/libs/libDaisy/src/hid/disp/display.h ****     }
 4596              		.loc 3 174 19 view .LVU1231
 4597 014a EB80     		strh	r3, [r5, #6]	@ movhi
 4598              	.LVL362:
 174:Display/../../libs/PoliTeKDSP/libs/libDaisy/src/hid/disp/display.h ****     }
 4599              		.loc 3 174 19 view .LVU1232
 4600              	.LBE450:
 4601              	.LBE452:
 4602              		.loc 4 224 5 is_stmt 1 view .LVU1233
 4603              		.loc 4 224 57 is_stmt 0 view .LVU1234
 4604 014c 0468     		ldr	r4, [r0]
 4605              	.LVL363:
 4606              		.loc 4 224 29 view .LVU1235
 4607 014e 0091     		str	r1, [sp]
 4608 0150 4946     		mov	r1, r9
 4609 0152 A46A     		ldr	r4, [r4, #40]
 4610 0154 98E80C00 		ldm	r8, {r2, r3}
 4611 0158 A047     		blx	r4
 4612              	.LVL364:
 225:Display/displayHandler.cpp **** 
 226:Display/displayHandler.cpp **** }...
 4613              		.loc 4 226 1 view .LVU1236
 4614 015a 13B0     		add	sp, sp, #76
 4615              		.cfi_remember_state
 4616              		.cfi_def_cfa_offset 28
 4617              		@ sp needed
 4618 015c BDE8F083 		pop	{r4, r5, r6, r7, r8, r9, pc}
 4619              	.LVL365:
 4620              	.L240:
 4621              		.cfi_restore_state
ARM GAS  C:\Users\skipi\AppData\Local\Temp\cctYXDIM.s 			page 114


 4622              	.LBB453:
 4623              	.LBB428:
 173:Display/../../libs/PoliTeKDSP/libs/libDaisy/src/hid/disp/display.h ****         currentY_ = (y >= Height()) ? Height() - 1 : y;
 4624              		.loc 3 173 19 view .LVU1237
 4625 0160 0023     		movs	r3, #0
 4626 0162 6EE7     		b	.L230
 4627              	.LVL366:
 4628              	.L243:
 173:Display/../../libs/PoliTeKDSP/libs/libDaisy/src/hid/disp/display.h ****         currentY_ = (y >= Height()) ? Height() - 1 : y;
 4629              		.loc 3 173 19 view .LVU1238
 4630              	.LBE428:
 4631              	.LBE453:
 4632              	.LBB454:
 4633              	.LBB434:
 174:Display/../../libs/PoliTeKDSP/libs/libDaisy/src/hid/disp/display.h ****     }
 4634              		.loc 3 174 19 view .LVU1239
 4635 0164 0F23     		movs	r3, #15
 4636 0166 9EE7     		b	.L233
 4637              	.L242:
 173:Display/../../libs/PoliTeKDSP/libs/libDaisy/src/hid/disp/display.h ****         currentY_ = (y >= Height()) ? Height() - 1 : y;
 4638              		.loc 3 173 19 view .LVU1240
 4639 0168 0023     		movs	r3, #0
 4640 016a 8FE7     		b	.L232
 4641              	.LVL367:
 4642              	.L241:
 173:Display/../../libs/PoliTeKDSP/libs/libDaisy/src/hid/disp/display.h ****         currentY_ = (y >= Height()) ? Height() - 1 : y;
 4643              		.loc 3 173 19 view .LVU1241
 4644              	.LBE434:
 4645              	.LBE454:
 4646              	.LBB455:
 4647              	.LBB429:
 174:Display/../../libs/PoliTeKDSP/libs/libDaisy/src/hid/disp/display.h ****     }
 4648              		.loc 3 174 19 view .LVU1242
 4649 016c 0023     		movs	r3, #0
 4650 016e 76E7     		b	.L231
 4651              	.LVL368:
 4652              	.L248:
 174:Display/../../libs/PoliTeKDSP/libs/libDaisy/src/hid/disp/display.h ****     }
 4653              		.loc 3 174 19 view .LVU1243
 4654              	.LBE429:
 4655              	.LBE455:
 4656              	.LBB456:
 4657              	.LBB443:
 4658              	.LBB440:
 213:Display/displayHandler.cpp ****         const char* scales[] = {"Major", "MinorN", "MinorA", "MinorM", "Penta", "Chrom", "Esat"};
 4659              		.loc 4 213 9 is_stmt 1 view .LVU1244
 214:Display/displayHandler.cpp ****         sprintf(valBuffer, "%s", scales[value % 7]);
 4660              		.loc 4 214 47 is_stmt 0 view .LVU1245
 4661 0170 2E4B     		ldr	r3, .L249+32
 213:Display/displayHandler.cpp ****         const char* scales[] = {"Major", "MinorN", "MinorA", "MinorM", "Penta", "Chrom", "Esat"};
 4662              		.loc 4 213 21 view .LVU1246
 4663 0172 06AE     		add	r6, sp, #24
 4664              	.LVL369:
 213:Display/displayHandler.cpp ****         const char* scales[] = {"Major", "MinorN", "MinorA", "MinorM", "Penta", "Chrom", "Esat"};
 4665              		.loc 4 213 21 view .LVU1247
 4666 0174 DFF8C8C0 		ldr	ip, .L249+52
 214:Display/displayHandler.cpp ****         sprintf(valBuffer, "%s", scales[value % 7]);
ARM GAS  C:\Users\skipi\AppData\Local\Temp\cctYXDIM.s 			page 115


 4667              		.loc 4 214 16 view .LVU1248
 4668 0178 0DF10809 		add	r9, sp, #8
 214:Display/displayHandler.cpp ****         sprintf(valBuffer, "%s", scales[value % 7]);
 4669              		.loc 4 214 47 view .LVU1249
 4670 017c 83FB0723 		smull	r2, r3, r3, r7
 4671 0180 DA19     		adds	r2, r3, r7
 4672 0182 FB17     		asrs	r3, r7, #31
 4673 0184 C3EBA203 		rsb	r3, r3, r2, asr #2
 4674 0188 C3EBC303 		rsb	r3, r3, r3, lsl #3
 4675 018c FD1A     		subs	r5, r7, r3
 214:Display/displayHandler.cpp ****         sprintf(valBuffer, "%s", scales[value % 7]);
 4676              		.loc 4 214 16 view .LVU1250
 4677 018e 12AB     		add	r3, sp, #72
 4678 0190 03EB8505 		add	r5, r3, r5, lsl #2
 213:Display/displayHandler.cpp ****         const char* scales[] = {"Major", "MinorN", "MinorA", "MinorM", "Penta", "Chrom", "Esat"};
 4679              		.loc 4 213 21 view .LVU1251
 4680 0194 BCE80F00 		ldmia	ip!, {r0, r1, r2, r3}
 4681 0198 0FC6     		stmia	r6!, {r0, r1, r2, r3}
 4682 019a 9CE80700 		ldm	ip, {r0, r1, r2}
 4683 019e 86E80700 		stm	r6, {r0, r1, r2}
 214:Display/displayHandler.cpp ****         sprintf(valBuffer, "%s", scales[value % 7]);
 4684              		.loc 4 214 9 is_stmt 1 view .LVU1252
 214:Display/displayHandler.cpp ****         sprintf(valBuffer, "%s", scales[value % 7]);
 4685              		.loc 4 214 16 is_stmt 0 view .LVU1253
 4686 01a2 4846     		mov	r0, r9
 4687 01a4 55F8301C 		ldr	r1, [r5, #-48]
 4688 01a8 FFF7FEFF 		bl	strcpy
 4689              	.LVL370:
 4690              	.LBE440:
 4691 01ac B1E7     		b	.L235
 4692              	.LVL371:
 4693              	.L245:
 214:Display/displayHandler.cpp ****         sprintf(valBuffer, "%s", scales[value % 7]);
 4694              		.loc 4 214 16 view .LVU1254
 4695              	.LBE443:
 4696              	.LBE456:
 4697              	.LBB457:
 4698              	.LBB451:
 174:Display/../../libs/PoliTeKDSP/libs/libDaisy/src/hid/disp/display.h ****     }
 4699              		.loc 3 174 19 view .LVU1255
 4700 01ae 2623     		movs	r3, #38
 4701 01b0 C9E7     		b	.L239
 4702              	.L244:
 173:Display/../../libs/PoliTeKDSP/libs/libDaisy/src/hid/disp/display.h ****         currentY_ = (y >= Height()) ? Height() - 1 : y;
 4703              		.loc 3 173 19 view .LVU1256
 4704 01b2 0023     		movs	r3, #0
 4705 01b4 BAE7     		b	.L238
 4706              	.LVL372:
 4707              	.L247:
 173:Display/../../libs/PoliTeKDSP/libs/libDaisy/src/hid/disp/display.h ****         currentY_ = (y >= Height()) ? Height() - 1 : y;
 4708              		.loc 3 173 19 view .LVU1257
 4709              	.LBE451:
 4710              	.LBE457:
 4711              	.LBB458:
 4712              	.LBB444:
 208:Display/displayHandler.cpp ****         const char* notes[] = {"C", "C#", "D", "D#", "E", "F", "F#", "G", "G#", "A", "A#", "B"};
 4713              		.loc 4 208 9 is_stmt 1 view .LVU1258
ARM GAS  C:\Users\skipi\AppData\Local\Temp\cctYXDIM.s 			page 116


 209:Display/displayHandler.cpp ****         sprintf(valBuffer, "%s", notes[value % 12]);
 4714              		.loc 4 209 46 is_stmt 0 view .LVU1259
 4715 01b6 1E4A     		ldr	r2, .L249+36
 208:Display/displayHandler.cpp ****         const char* notes[] = {"C", "C#", "D", "D#", "E", "F", "F#", "G", "G#", "A", "A#", "B"};
 4716              		.loc 4 208 21 view .LVU1260
 4717 01b8 06AD     		add	r5, sp, #24
 4718 01ba 1E4E     		ldr	r6, .L249+40
 4719              	.LVL373:
 209:Display/displayHandler.cpp ****         sprintf(valBuffer, "%s", notes[value % 12]);
 4720              		.loc 4 209 16 view .LVU1261
 4721 01bc 0DF10809 		add	r9, sp, #8
 209:Display/displayHandler.cpp ****         sprintf(valBuffer, "%s", notes[value % 12]);
 4722              		.loc 4 209 46 view .LVU1262
 4723 01c0 82FB0732 		smull	r3, r2, r2, r7
 4724 01c4 FB17     		asrs	r3, r7, #31
 4725 01c6 C3EB6203 		rsb	r3, r3, r2, asr #1
 4726 01ca 03EB4303 		add	r3, r3, r3, lsl #1
 4727 01ce A7EB8307 		sub	r7, r7, r3, lsl #2
 4728              	.LVL374:
 209:Display/displayHandler.cpp ****         sprintf(valBuffer, "%s", notes[value % 12]);
 4729              		.loc 4 209 16 view .LVU1263
 4730 01d2 12AB     		add	r3, sp, #72
 4731 01d4 03EB8707 		add	r7, r3, r7, lsl #2
 208:Display/displayHandler.cpp ****         const char* notes[] = {"C", "C#", "D", "D#", "E", "F", "F#", "G", "G#", "A", "A#", "B"};
 4732              		.loc 4 208 21 view .LVU1264
 4733 01d8 0FCE     		ldmia	r6!, {r0, r1, r2, r3}
 4734 01da 0FC5     		stmia	r5!, {r0, r1, r2, r3}
 4735 01dc 0FCE     		ldmia	r6!, {r0, r1, r2, r3}
 4736 01de 0FC5     		stmia	r5!, {r0, r1, r2, r3}
 4737 01e0 96E80F00 		ldm	r6, {r0, r1, r2, r3}
 4738 01e4 85E80F00 		stm	r5, {r0, r1, r2, r3}
 209:Display/displayHandler.cpp ****         sprintf(valBuffer, "%s", notes[value % 12]);
 4739              		.loc 4 209 9 is_stmt 1 view .LVU1265
 209:Display/displayHandler.cpp ****         sprintf(valBuffer, "%s", notes[value % 12]);
 4740              		.loc 4 209 16 is_stmt 0 view .LVU1266
 4741 01e8 4846     		mov	r0, r9
 4742 01ea 57F8301C 		ldr	r1, [r7, #-48]
 4743 01ee FFF7FEFF 		bl	strcpy
 4744              	.LVL375:
 4745              	.LBE444:
 4746 01f2 8EE7     		b	.L235
 4747              	.LVL376:
 4748              	.L237:
 4749              	.LBB445:
 4750              	.LBB441:
 219:Display/displayHandler.cpp ****         sprintf(valBuffer, "%d", value);
 4751              		.loc 4 219 9 is_stmt 1 view .LVU1267
 219:Display/displayHandler.cpp ****         sprintf(valBuffer, "%d", value);
 4752              		.loc 4 219 16 is_stmt 0 view .LVU1268
 4753 01f4 0DF10809 		add	r9, sp, #8
 4754 01f8 3A46     		mov	r2, r7
 4755 01fa 0F49     		ldr	r1, .L249+44
 4756 01fc 4846     		mov	r0, r9
 4757 01fe FFF7FEFF 		bl	sprintf
 4758              	.LVL377:
 4759 0202 86E7     		b	.L235
 4760              	.LVL378:
ARM GAS  C:\Users\skipi\AppData\Local\Temp\cctYXDIM.s 			page 117


 4761              	.L228:
 219:Display/displayHandler.cpp ****         sprintf(valBuffer, "%d", value);
 4762              		.loc 4 219 16 view .LVU1269
 4763              	.LBE441:
 4764              	.LBE445:
 4765              	.LBE458:
 193:Display/displayHandler.cpp ****     _displayPtr->Fill(false);
 4766              		.loc 4 193 22 view .LVU1270
 4767 0204 0021     		movs	r1, #0
 4768              	.LVL379:
 193:Display/displayHandler.cpp ****     _displayPtr->Fill(false);
 4769              		.loc 4 193 22 view .LVU1271
 4770 0206 9847     		blx	r3
 4771              	.LVL380:
 4772 0208 0DE7     		b	.L229
 4773              	.L250:
 4774 020a 00BF     		.align	2
 4775              	.L249:
 4776 020c 00000000 		.word	_ZN5daisy11OledDisplayINS_13SSD130xDriverILj128ELj64ENS_19SSD130xI2CTransportEEEE4FillEb
 4777 0210 00000000 		.word	Font_7x10
 4778 0214 00000000 		.word	.LC42
 4779 0218 0C000000 		.word	.LC43
 4780 021c 14000000 		.word	.LC45
 4781 0220 1C000000 		.word	.LC47
 4782 0224 56555555 		.word	1431655766
 4783 0228 4C000000 		.word	.LANCHOR1+76
 4784 022c 93244992 		.word	-1840700269
 4785 0230 ABAAAA2A 		.word	715827883
 4786 0234 00000000 		.word	.LANCHOR1
 4787 0238 24000000 		.word	.LC49
 4788 023c 00000000 		.word	Font_11x18
 4789 0240 30000000 		.word	.LANCHOR1+48
 4790              		.cfi_endproc
 4791              	.LFE2796:
 4793              		.section	.rodata
 4794              		.align	2
 4795              		.set	.LANCHOR1,. + 0
 4796              	.LC44:
 4797 0000 00000000 		.word	.LC0
 4798 0004 04000000 		.word	.LC1
 4799 0008 08000000 		.word	.LC2
 4800 000c 0C000000 		.word	.LC3
 4801 0010 10000000 		.word	.LC4
 4802 0014 14000000 		.word	.LC5
 4803 0018 18000000 		.word	.LC6
 4804 001c 1C000000 		.word	.LC7
 4805 0020 20000000 		.word	.LC8
 4806 0024 24000000 		.word	.LC9
 4807 0028 28000000 		.word	.LC10
 4808 002c 2C000000 		.word	.LC11
 4809              	.LC46:
 4810 0030 30000000 		.word	.LC13
 4811 0034 38000000 		.word	.LC14
 4812 0038 40000000 		.word	.LC15
 4813 003c 48000000 		.word	.LC16
 4814 0040 50000000 		.word	.LC17
 4815 0044 58000000 		.word	.LC18
ARM GAS  C:\Users\skipi\AppData\Local\Temp\cctYXDIM.s 			page 118


 4816 0048 60000000 		.word	.LC19
 4817              	.LC48:
 4818 004c 68000000 		.word	.LC21
 4819 0050 6C000000 		.word	.LC22
 4820 0054 74000000 		.word	.LC23
 4821              		.section	.bss._ZZN14DisplayHandler11findTriggerEvE7trigIdx,"aw",%nobits
 4822              		.align	2
 4823              		.set	.LANCHOR0,. + 0
 4826              	_ZZN14DisplayHandler11findTriggerEvE7trigIdx:
 4827 0000 00000000 		.space	4
 4828              		.text
 4829              	.Letext0:
 4830              		.file 5 "c:\\program files\\daisytoolchain\\arm-none-eabi\\include\\machine\\_default_types.h"
 4831              		.file 6 "c:\\program files\\daisytoolchain\\arm-none-eabi\\include\\sys\\_stdint.h"
 4832              		.file 7 "c:\\program files\\daisytoolchain\\arm-none-eabi\\include\\stdint.h"
 4833              		.file 8 "c:\\program files\\daisytoolchain\\lib\\gcc\\arm-none-eabi\\10.2.1\\include\\stddef.h"
 4834              		.file 9 "c:\\program files\\daisytoolchain\\arm-none-eabi\\include\\c++\\10.2.1\\cmath"
 4835              		.file 10 "c:\\program files\\daisytoolchain\\arm-none-eabi\\include\\c++\\10.2.1\\bits\\std_abs.h"
 4836              		.file 11 "c:\\program files\\daisytoolchain\\arm-none-eabi\\include\\c++\\10.2.1\\cstdlib"
 4837              		.file 12 "c:\\program files\\daisytoolchain\\arm-none-eabi\\include\\c++\\10.2.1\\cstdint"
 4838              		.file 13 "c:\\program files\\daisytoolchain\\arm-none-eabi\\include\\c++\\10.2.1\\type_traits"
 4839              		.file 14 "c:\\program files\\daisytoolchain\\arm-none-eabi\\include\\c++\\10.2.1\\debug\\debug.h"
 4840              		.file 15 "c:\\program files\\daisytoolchain\\arm-none-eabi\\include\\c++\\10.2.1\\arm-none-eabi\\t
 4841              		.file 16 "c:\\program files\\daisytoolchain\\arm-none-eabi\\include\\c++\\10.2.1\\bits\\algorithmf
 4842              		.file 17 "c:\\program files\\daisytoolchain\\arm-none-eabi\\include\\c++\\10.2.1\\bits\\stl_pair.h
 4843              		.file 18 "c:\\program files\\daisytoolchain\\arm-none-eabi\\include\\c++\\10.2.1\\bits\\exception_
 4844              		.file 19 "c:\\program files\\daisytoolchain\\arm-none-eabi\\include\\c++\\10.2.1\\cstdarg"
 4845              		.file 20 "c:\\program files\\daisytoolchain\\arm-none-eabi\\include\\c++\\10.2.1\\cstdio"
 4846              		.file 21 "c:\\program files\\daisytoolchain\\arm-none-eabi\\include\\c++\\10.2.1\\cstring"
 4847              		.file 22 "c:\\program files\\daisytoolchain\\arm-none-eabi\\include\\c++\\10.2.1\\cstddef"
 4848              		.file 23 "c:\\program files\\daisytoolchain\\arm-none-eabi\\include\\c++\\10.2.1\\bits\\predefined
 4849              		.file 24 "c:\\program files\\daisytoolchain\\arm-none-eabi\\include\\sys\\_types.h"
 4850              		.file 25 "c:\\program files\\daisytoolchain\\arm-none-eabi\\include\\sys\\reent.h"
 4851              		.file 26 "c:\\program files\\daisytoolchain\\arm-none-eabi\\include\\sys\\lock.h"
 4852              		.file 27 "c:\\program files\\daisytoolchain\\arm-none-eabi\\include\\math.h"
 4853              		.file 28 "c:\\program files\\daisytoolchain\\arm-none-eabi\\include\\stdlib.h"
 4854              		.file 29 "c:\\program files\\daisytoolchain\\arm-none-eabi\\include\\c++\\10.2.1\\math.h"
 4855              		.file 30 "c:\\program files\\daisytoolchain\\arm-none-eabi\\include\\c++\\10.2.1\\stdlib.h"
 4856              		.file 31 "../libs/PoliTeKDSP/libs/libDaisy/src/daisy_core.h"
 4857              		.file 32 "../libs/PoliTeKDSP/libs/libDaisy/src/per/i2c.h"
 4858              		.file 33 "Display/../../libs/PoliTeKDSP/libs/libDaisy/src/hid/disp/graphics_common.h"
 4859              		.file 34 "Display/../../libs/PoliTeKDSP/libs/libDaisy/src/dev/max11300.h"
 4860              		.file 35 "Display/../../libs/PoliTeKDSP/libs/libDaisy/src/dev/sr_595.h"
 4861              		.file 36 "../libs/PoliTeKDSP/libs/libDaisy/src/util/wav_format.h"
 4862              		.file 37 "Display/../../libs/PoliTeKDSP/libs/libDaisy/src/daisy_seed.h"
 4863              		.file 38 "c:\\program files\\daisytoolchain\\lib\\gcc\\arm-none-eabi\\10.2.1\\include\\stdarg.h"
 4864              		.file 39 "c:\\program files\\daisytoolchain\\arm-none-eabi\\include\\stdio.h"
 4865              		.file 40 "../libs/PoliTeKDSP/libs/libDaisy/src/util/oled_fonts.h"
 4866              		.file 41 "c:\\program files\\daisytoolchain\\arm-none-eabi\\include\\string.h"
 4867              		.file 42 "../libs/PoliTeKDSP/libs/libDaisy/Middlewares/Third_Party/FatFs/src/integer.h"
 4868              		.file 43 "../libs/PoliTeKDSP/libs/libDaisy/Middlewares/Third_Party/FatFs/src/ff.h"
 4869              		.file 44 "Display/displayHandler.h"
 4870              		.file 45 "<built-in>"
ARM GAS  C:\Users\skipi\AppData\Local\Temp\cctYXDIM.s 			page 119


DEFINED SYMBOLS
                            *ABS*:00000000 displayHandler.cpp
C:\Users\skipi\AppData\Local\Temp\cctYXDIM.s:14     .rodata.str1.4:00000000 $d
C:\Users\skipi\AppData\Local\Temp\cctYXDIM.s:84     .text._ZN5daisy11OledDisplayINS_13SSD130xDriverILj128ELj64ENS_19SSD130xI2CTransportEEEE4FillEb:00000000 $t
C:\Users\skipi\AppData\Local\Temp\cctYXDIM.s:93     .text._ZN5daisy11OledDisplayINS_13SSD130xDriverILj128ELj64ENS_19SSD130xI2CTransportEEEE4FillEb:00000000 _ZN5daisy11OledDisplayINS_13SSD130xDriverILj128ELj64ENS_19SSD130xI2CTransportEEEE4FillEb
C:\Users\skipi\AppData\Local\Temp\cctYXDIM.s:126    .text._ZN5daisy11OledDisplayINS_13SSD130xDriverILj128ELj64ENS_19SSD130xI2CTransportEEEE6UpdateEv:00000000 $t
C:\Users\skipi\AppData\Local\Temp\cctYXDIM.s:134    .text._ZN5daisy11OledDisplayINS_13SSD130xDriverILj128ELj64ENS_19SSD130xI2CTransportEEEE6UpdateEv:00000000 _ZN5daisy11OledDisplayINS_13SSD130xDriverILj128ELj64ENS_19SSD130xI2CTransportEEEE6UpdateEv
C:\Users\skipi\AppData\Local\Temp\cctYXDIM.s:317    .text._ZN5daisy25OneBitGraphicsDisplayImplINS_11OledDisplayINS_13SSD130xDriverILj128ELj64ENS_19SSD130xI2CTransportEEEEEE8DrawLineEjjjjb:00000000 $t
C:\Users\skipi\AppData\Local\Temp\cctYXDIM.s:325    .text._ZN5daisy25OneBitGraphicsDisplayImplINS_11OledDisplayINS_13SSD130xDriverILj128ELj64ENS_19SSD130xI2CTransportEEEEEE8DrawLineEjjjjb:00000000 _ZN5daisy25OneBitGraphicsDisplayImplINS_11OledDisplayINS_13SSD130xDriverILj128ELj64ENS_19SSD130xI2CTransportEEEEEE8DrawLineEjjjjb
C:\Users\skipi\AppData\Local\Temp\cctYXDIM.s:611    .rodata._ZN14DisplayHandlerC2EPN5daisy11OledDisplayINS0_13SSD130xDriverILj128ELj64ENS0_19SSD130xI2CTransportEEEEEb.str1.4:00000000 $d
C:\Users\skipi\AppData\Local\Temp\cctYXDIM.s:615    .text._ZN14DisplayHandlerC2EPN5daisy11OledDisplayINS0_13SSD130xDriverILj128ELj64ENS0_19SSD130xI2CTransportEEEEEb:00000000 $t
C:\Users\skipi\AppData\Local\Temp\cctYXDIM.s:623    .text._ZN14DisplayHandlerC2EPN5daisy11OledDisplayINS0_13SSD130xDriverILj128ELj64ENS0_19SSD130xI2CTransportEEEEEb:00000000 _ZN14DisplayHandlerC2EPN5daisy11OledDisplayINS0_13SSD130xDriverILj128ELj64ENS0_19SSD130xI2CTransportEEEEEb
C:\Users\skipi\AppData\Local\Temp\cctYXDIM.s:711    .text._ZN14DisplayHandlerC2EPN5daisy11OledDisplayINS0_13SSD130xDriverILj128ELj64ENS0_19SSD130xI2CTransportEEEEEb:00000050 $d
C:\Users\skipi\AppData\Local\Temp\cctYXDIM.s:623    .text._ZN14DisplayHandlerC2EPN5daisy11OledDisplayINS0_13SSD130xDriverILj128ELj64ENS0_19SSD130xI2CTransportEEEEEb:00000000 _ZN14DisplayHandlerC1EPN5daisy11OledDisplayINS0_13SSD130xDriverILj128ELj64ENS0_19SSD130xI2CTransportEEEEEb
C:\Users\skipi\AppData\Local\Temp\cctYXDIM.s:718    .text._ZN14DisplayHandler8SetStateE12DisplayState:00000000 $t
C:\Users\skipi\AppData\Local\Temp\cctYXDIM.s:726    .text._ZN14DisplayHandler8SetStateE12DisplayState:00000000 _ZN14DisplayHandler8SetStateE12DisplayState
C:\Users\skipi\AppData\Local\Temp\cctYXDIM.s:792    .text._ZN14DisplayHandler8SetStateE12DisplayState:0000002c $d
C:\Users\skipi\AppData\Local\Temp\cctYXDIM.s:797    .text._ZN14DisplayHandler14SetStandbyTextEPKc:00000000 $t
C:\Users\skipi\AppData\Local\Temp\cctYXDIM.s:805    .text._ZN14DisplayHandler14SetStandbyTextEPKc:00000000 _ZN14DisplayHandler14SetStandbyTextEPKc
C:\Users\skipi\AppData\Local\Temp\cctYXDIM.s:859    .text._ZN14DisplayHandler14SetStandbyTextEPKc:00000028 $d
C:\Users\skipi\AppData\Local\Temp\cctYXDIM.s:864    .text._ZN14DisplayHandler15pushAudioSampleEf:00000000 $t
C:\Users\skipi\AppData\Local\Temp\cctYXDIM.s:872    .text._ZN14DisplayHandler15pushAudioSampleEf:00000000 _ZN14DisplayHandler15pushAudioSampleEf
C:\Users\skipi\AppData\Local\Temp\cctYXDIM.s:905    .text._ZN14DisplayHandler11findTriggerEv:00000000 $t
C:\Users\skipi\AppData\Local\Temp\cctYXDIM.s:913    .text._ZN14DisplayHandler11findTriggerEv:00000000 _ZN14DisplayHandler11findTriggerEv
C:\Users\skipi\AppData\Local\Temp\cctYXDIM.s:1043   .text._ZN14DisplayHandler11findTriggerEv:00000084 $d
C:\Users\skipi\AppData\Local\Temp\cctYXDIM.s:1048   .text._ZN14DisplayHandler12drawWaveFormEv:00000000 $t
C:\Users\skipi\AppData\Local\Temp\cctYXDIM.s:1056   .text._ZN14DisplayHandler12drawWaveFormEv:00000000 _ZN14DisplayHandler12drawWaveFormEv
C:\Users\skipi\AppData\Local\Temp\cctYXDIM.s:1521   .text._ZN14DisplayHandler12drawWaveFormEv:000001b8 $d
C:\Users\skipi\AppData\Local\Temp\cctYXDIM.s:1527   .text._ZN14DisplayHandler9SetYscaleEi:00000000 $t
C:\Users\skipi\AppData\Local\Temp\cctYXDIM.s:1535   .text._ZN14DisplayHandler9SetYscaleEi:00000000 _ZN14DisplayHandler9SetYscaleEi
C:\Users\skipi\AppData\Local\Temp\cctYXDIM.s:1552   .text._ZN14DisplayHandler17drawStandbyScreenEv:00000000 $t
C:\Users\skipi\AppData\Local\Temp\cctYXDIM.s:1560   .text._ZN14DisplayHandler17drawStandbyScreenEv:00000000 _ZN14DisplayHandler17drawStandbyScreenEv
C:\Users\skipi\AppData\Local\Temp\cctYXDIM.s:1684   .text._ZN14DisplayHandler17drawStandbyScreenEv:00000058 $d
C:\Users\skipi\AppData\Local\Temp\cctYXDIM.s:1691   .text._ZN14DisplayHandler6UpdateEv:00000000 $t
C:\Users\skipi\AppData\Local\Temp\cctYXDIM.s:1699   .text._ZN14DisplayHandler6UpdateEv:00000000 _ZN14DisplayHandler6UpdateEv
C:\Users\skipi\AppData\Local\Temp\cctYXDIM.s:1918   .text._ZN14DisplayHandler6UpdateEv:000000cc $d
C:\Users\skipi\AppData\Local\Temp\cctYXDIM.s:1923   .rodata._ZN14DisplayHandler12DrawMainMenuEi.str1.4:00000000 $d
C:\Users\skipi\AppData\Local\Temp\cctYXDIM.s:1942   .text._ZN14DisplayHandler12DrawMainMenuEi:00000000 $t
C:\Users\skipi\AppData\Local\Temp\cctYXDIM.s:1950   .text._ZN14DisplayHandler12DrawMainMenuEi:00000000 _ZN14DisplayHandler12DrawMainMenuEi
C:\Users\skipi\AppData\Local\Temp\cctYXDIM.s:2574   .text._ZN14DisplayHandler12DrawMainMenuEi:00000220 $d
C:\Users\skipi\AppData\Local\Temp\cctYXDIM.s:2586   .rodata._ZN14DisplayHandler18DrawCalibrationHubEi.str1.4:00000000 $d
C:\Users\skipi\AppData\Local\Temp\cctYXDIM.s:2599   .text._ZN14DisplayHandler18DrawCalibrationHubEi:00000000 $t
C:\Users\skipi\AppData\Local\Temp\cctYXDIM.s:2607   .text._ZN14DisplayHandler18DrawCalibrationHubEi:00000000 _ZN14DisplayHandler18DrawCalibrationHubEi
C:\Users\skipi\AppData\Local\Temp\cctYXDIM.s:3140   .text._ZN14DisplayHandler18DrawCalibrationHubEi:000001cc $d
C:\Users\skipi\AppData\Local\Temp\cctYXDIM.s:3151   .rodata._ZN14DisplayHandler13DrawScalesHubEi.str1.4:00000000 $d
C:\Users\skipi\AppData\Local\Temp\cctYXDIM.s:3164   .text._ZN14DisplayHandler13DrawScalesHubEi:00000000 $t
C:\Users\skipi\AppData\Local\Temp\cctYXDIM.s:3172   .text._ZN14DisplayHandler13DrawScalesHubEi:00000000 _ZN14DisplayHandler13DrawScalesHubEi
C:\Users\skipi\AppData\Local\Temp\cctYXDIM.s:3796   .text._ZN14DisplayHandler13DrawScalesHubEi:00000220 $d
C:\Users\skipi\AppData\Local\Temp\cctYXDIM.s:3808   .rodata._ZN14DisplayHandler18DrawFloatParameterEPKcf.str1.4:00000000 $d
C:\Users\skipi\AppData\Local\Temp\cctYXDIM.s:3815   .text._ZN14DisplayHandler18DrawFloatParameterEPKcf:00000000 $t
C:\Users\skipi\AppData\Local\Temp\cctYXDIM.s:3823   .text._ZN14DisplayHandler18DrawFloatParameterEPKcf:00000000 _ZN14DisplayHandler18DrawFloatParameterEPKcf
C:\Users\skipi\AppData\Local\Temp\cctYXDIM.s:4221   .text._ZN14DisplayHandler18DrawFloatParameterEPKcf:00000158 $d
C:\Users\skipi\AppData\Local\Temp\cctYXDIM.s:4231   .rodata._ZN14DisplayHandler16DrawIntParameterEPKci.str1.4:00000000 $d
C:\Users\skipi\AppData\Local\Temp\cctYXDIM.s:4247   .text._ZN14DisplayHandler16DrawIntParameterEPKci:00000000 $t
C:\Users\skipi\AppData\Local\Temp\cctYXDIM.s:4255   .text._ZN14DisplayHandler16DrawIntParameterEPKci:00000000 _ZN14DisplayHandler16DrawIntParameterEPKci
C:\Users\skipi\AppData\Local\Temp\cctYXDIM.s:4776   .text._ZN14DisplayHandler16DrawIntParameterEPKci:0000020c $d
C:\Users\skipi\AppData\Local\Temp\cctYXDIM.s:4794   .rodata:00000000 $d
ARM GAS  C:\Users\skipi\AppData\Local\Temp\cctYXDIM.s 			page 120


C:\Users\skipi\AppData\Local\Temp\cctYXDIM.s:4822   .bss._ZZN14DisplayHandler11findTriggerEvE7trigIdx:00000000 $d
C:\Users\skipi\AppData\Local\Temp\cctYXDIM.s:4826   .bss._ZZN14DisplayHandler11findTriggerEvE7trigIdx:00000000 _ZZN14DisplayHandler11findTriggerEvE7trigIdx

UNDEFINED SYMBOLS
memset
_ZN5daisy9I2CHandle16TransmitBlockingEtPhtm
Font_11x18
Font_7x10
sprintf
strcmp
strcpy
