ARM GAS  C:\Users\skipi\AppData\Local\Temp\ccerdDJR.s 			page 1


   1              		.cpu cortex-m7
   2              		.eabi_attribute 28, 1
   3              		.eabi_attribute 20, 1
   4              		.eabi_attribute 21, 1
   5              		.eabi_attribute 23, 3
   6              		.eabi_attribute 24, 1
   7              		.eabi_attribute 25, 1
   8              		.eabi_attribute 26, 1
   9              		.eabi_attribute 30, 2
  10              		.eabi_attribute 34, 1
  11              		.eabi_attribute 18, 4
  12              		.file	"displayHandler.cpp"
  13              		.text
  14              	.Ltext0:
  15              		.cfi_sections	.debug_frame
  16              		.section	.text._ZN5daisy11OledDisplayINS_13SSD130xDriverILj128ELj64ENS_19SSD130xI2CTransportEEEE4F
  17              		.align	1
  18              		.p2align 2,,3
  19              		.weak	_ZN5daisy11OledDisplayINS_13SSD130xDriverILj128ELj64ENS_19SSD130xI2CTransportEEEE4FillEb
  20              		.arch armv7e-m
  21              		.syntax unified
  22              		.thumb
  23              		.thumb_func
  24              		.fpu fpv5-d16
  26              	_ZN5daisy11OledDisplayINS_13SSD130xDriverILj128ELj64ENS_19SSD130xI2CTransportEEEE4FillEb:
  27              	.LVL0:
  28              	.LFB2808:
  29              		.file 1 "Display/../../libs/PoliTeKDSP/libs/libDaisy/src/hid/disp/oled_display.h"
   1:Display/../../libs/PoliTeKDSP/libs/libDaisy/src/hid/disp/oled_display.h **** #pragma once
   2:Display/../../libs/PoliTeKDSP/libs/libDaisy/src/hid/disp/oled_display.h **** #ifndef DSY_OLED_DISPLAY_H
   3:Display/../../libs/PoliTeKDSP/libs/libDaisy/src/hid/disp/oled_display.h **** #define DSY_OLED_DISPLAY_H /**< Macro */
   4:Display/../../libs/PoliTeKDSP/libs/libDaisy/src/hid/disp/oled_display.h **** 
   5:Display/../../libs/PoliTeKDSP/libs/libDaisy/src/hid/disp/oled_display.h **** #include "display.h"
   6:Display/../../libs/PoliTeKDSP/libs/libDaisy/src/hid/disp/oled_display.h **** 
   7:Display/../../libs/PoliTeKDSP/libs/libDaisy/src/hid/disp/oled_display.h **** namespace daisy
   8:Display/../../libs/PoliTeKDSP/libs/libDaisy/src/hid/disp/oled_display.h **** {
   9:Display/../../libs/PoliTeKDSP/libs/libDaisy/src/hid/disp/oled_display.h **** /** 
  10:Display/../../libs/PoliTeKDSP/libs/libDaisy/src/hid/disp/oled_display.h ****  * This class is for drawing to a monochrome OLED display. 
  11:Display/../../libs/PoliTeKDSP/libs/libDaisy/src/hid/disp/oled_display.h ****  * @ingroup device
  12:Display/../../libs/PoliTeKDSP/libs/libDaisy/src/hid/disp/oled_display.h **** */
  13:Display/../../libs/PoliTeKDSP/libs/libDaisy/src/hid/disp/oled_display.h **** template <typename DisplayDriver>
  14:Display/../../libs/PoliTeKDSP/libs/libDaisy/src/hid/disp/oled_display.h **** class OledDisplay : public OneBitGraphicsDisplayImpl<OledDisplay<DisplayDriver>>
  15:Display/../../libs/PoliTeKDSP/libs/libDaisy/src/hid/disp/oled_display.h **** {
  16:Display/../../libs/PoliTeKDSP/libs/libDaisy/src/hid/disp/oled_display.h ****   public:
  17:Display/../../libs/PoliTeKDSP/libs/libDaisy/src/hid/disp/oled_display.h ****     OledDisplay() {}
  18:Display/../../libs/PoliTeKDSP/libs/libDaisy/src/hid/disp/oled_display.h ****     virtual ~OledDisplay() {}
  19:Display/../../libs/PoliTeKDSP/libs/libDaisy/src/hid/disp/oled_display.h **** 
  20:Display/../../libs/PoliTeKDSP/libs/libDaisy/src/hid/disp/oled_display.h ****     struct Config
  21:Display/../../libs/PoliTeKDSP/libs/libDaisy/src/hid/disp/oled_display.h ****     {
  22:Display/../../libs/PoliTeKDSP/libs/libDaisy/src/hid/disp/oled_display.h ****         typename DisplayDriver::Config driver_config;
  23:Display/../../libs/PoliTeKDSP/libs/libDaisy/src/hid/disp/oled_display.h ****     };
  24:Display/../../libs/PoliTeKDSP/libs/libDaisy/src/hid/disp/oled_display.h **** 
  25:Display/../../libs/PoliTeKDSP/libs/libDaisy/src/hid/disp/oled_display.h ****     void Init(Config config) { driver_.Init(config.driver_config); }
  26:Display/../../libs/PoliTeKDSP/libs/libDaisy/src/hid/disp/oled_display.h **** 
  27:Display/../../libs/PoliTeKDSP/libs/libDaisy/src/hid/disp/oled_display.h ****     uint16_t Height() const override { return driver_.Height(); }
  28:Display/../../libs/PoliTeKDSP/libs/libDaisy/src/hid/disp/oled_display.h ****     uint16_t Width() const override { return driver_.Width(); }
  29:Display/../../libs/PoliTeKDSP/libs/libDaisy/src/hid/disp/oled_display.h **** 
ARM GAS  C:\Users\skipi\AppData\Local\Temp\ccerdDJR.s 			page 2


  30:Display/../../libs/PoliTeKDSP/libs/libDaisy/src/hid/disp/oled_display.h ****     /** 
  31:Display/../../libs/PoliTeKDSP/libs/libDaisy/src/hid/disp/oled_display.h ****     Fills the entire display with either on/off.
  32:Display/../../libs/PoliTeKDSP/libs/libDaisy/src/hid/disp/oled_display.h ****     \param on Sets on or off.
  33:Display/../../libs/PoliTeKDSP/libs/libDaisy/src/hid/disp/oled_display.h ****     */
  34:Display/../../libs/PoliTeKDSP/libs/libDaisy/src/hid/disp/oled_display.h ****     void Fill(bool on) override { driver_.Fill(on); }
  30              		.loc 1 34 10 view -0
  31              		.cfi_startproc
  32              		@ args = 0, pretend = 0, frame = 0
  33              		@ frame_needed = 0, uses_anonymous_args = 0
  34              		@ link register save eliminated.
  35              	.LBB15:
  36              	.LBI15:
  37              		.file 2 "Display/../../libs/PoliTeKDSP/libs/libDaisy/src/dev/oled_ssd130x.h"
   1:Display/../../libs/PoliTeKDSP/libs/libDaisy/src/dev/oled_ssd130x.h **** #pragma once
   2:Display/../../libs/PoliTeKDSP/libs/libDaisy/src/dev/oled_ssd130x.h **** #ifndef SA_OLED_SSD130X_H
   3:Display/../../libs/PoliTeKDSP/libs/libDaisy/src/dev/oled_ssd130x.h **** #define SA_OLED_SSD130X_H /**< & */
   4:Display/../../libs/PoliTeKDSP/libs/libDaisy/src/dev/oled_ssd130x.h **** 
   5:Display/../../libs/PoliTeKDSP/libs/libDaisy/src/dev/oled_ssd130x.h **** #include "per/i2c.h"
   6:Display/../../libs/PoliTeKDSP/libs/libDaisy/src/dev/oled_ssd130x.h **** #include "per/spi.h"
   7:Display/../../libs/PoliTeKDSP/libs/libDaisy/src/dev/oled_ssd130x.h **** #include "per/gpio.h"
   8:Display/../../libs/PoliTeKDSP/libs/libDaisy/src/dev/oled_ssd130x.h **** #include "sys/system.h"
   9:Display/../../libs/PoliTeKDSP/libs/libDaisy/src/dev/oled_ssd130x.h **** #include "stm32h7xx_hal.h"
  10:Display/../../libs/PoliTeKDSP/libs/libDaisy/src/dev/oled_ssd130x.h **** 
  11:Display/../../libs/PoliTeKDSP/libs/libDaisy/src/dev/oled_ssd130x.h **** namespace daisy
  12:Display/../../libs/PoliTeKDSP/libs/libDaisy/src/dev/oled_ssd130x.h **** {
  13:Display/../../libs/PoliTeKDSP/libs/libDaisy/src/dev/oled_ssd130x.h **** /**
  14:Display/../../libs/PoliTeKDSP/libs/libDaisy/src/dev/oled_ssd130x.h ****  * I2C Transport for SSD1306 / SSD1309 OLED display devices
  15:Display/../../libs/PoliTeKDSP/libs/libDaisy/src/dev/oled_ssd130x.h ****  */
  16:Display/../../libs/PoliTeKDSP/libs/libDaisy/src/dev/oled_ssd130x.h **** class SSD130xI2CTransport
  17:Display/../../libs/PoliTeKDSP/libs/libDaisy/src/dev/oled_ssd130x.h **** {
  18:Display/../../libs/PoliTeKDSP/libs/libDaisy/src/dev/oled_ssd130x.h ****   public:
  19:Display/../../libs/PoliTeKDSP/libs/libDaisy/src/dev/oled_ssd130x.h ****     struct Config
  20:Display/../../libs/PoliTeKDSP/libs/libDaisy/src/dev/oled_ssd130x.h ****     {
  21:Display/../../libs/PoliTeKDSP/libs/libDaisy/src/dev/oled_ssd130x.h ****         Config()
  22:Display/../../libs/PoliTeKDSP/libs/libDaisy/src/dev/oled_ssd130x.h ****         {
  23:Display/../../libs/PoliTeKDSP/libs/libDaisy/src/dev/oled_ssd130x.h ****             // Intialize using defaults
  24:Display/../../libs/PoliTeKDSP/libs/libDaisy/src/dev/oled_ssd130x.h ****             Defaults();
  25:Display/../../libs/PoliTeKDSP/libs/libDaisy/src/dev/oled_ssd130x.h ****         }
  26:Display/../../libs/PoliTeKDSP/libs/libDaisy/src/dev/oled_ssd130x.h ****         I2CHandle::Config i2c_config;
  27:Display/../../libs/PoliTeKDSP/libs/libDaisy/src/dev/oled_ssd130x.h ****         uint8_t           i2c_address;
  28:Display/../../libs/PoliTeKDSP/libs/libDaisy/src/dev/oled_ssd130x.h ****         void              Defaults()
  29:Display/../../libs/PoliTeKDSP/libs/libDaisy/src/dev/oled_ssd130x.h ****         {
  30:Display/../../libs/PoliTeKDSP/libs/libDaisy/src/dev/oled_ssd130x.h ****             i2c_config.periph         = I2CHandle::Config::Peripheral::I2C_1;
  31:Display/../../libs/PoliTeKDSP/libs/libDaisy/src/dev/oled_ssd130x.h ****             i2c_config.speed          = I2CHandle::Config::Speed::I2C_1MHZ;
  32:Display/../../libs/PoliTeKDSP/libs/libDaisy/src/dev/oled_ssd130x.h ****             i2c_config.mode           = I2CHandle::Config::Mode::I2C_MASTER;
  33:Display/../../libs/PoliTeKDSP/libs/libDaisy/src/dev/oled_ssd130x.h ****             i2c_config.pin_config.scl = Pin(PORTB, 8);
  34:Display/../../libs/PoliTeKDSP/libs/libDaisy/src/dev/oled_ssd130x.h ****             i2c_config.pin_config.sda = Pin(PORTB, 9);
  35:Display/../../libs/PoliTeKDSP/libs/libDaisy/src/dev/oled_ssd130x.h ****             i2c_address               = 0x3C;
  36:Display/../../libs/PoliTeKDSP/libs/libDaisy/src/dev/oled_ssd130x.h ****         }
  37:Display/../../libs/PoliTeKDSP/libs/libDaisy/src/dev/oled_ssd130x.h ****     };
  38:Display/../../libs/PoliTeKDSP/libs/libDaisy/src/dev/oled_ssd130x.h ****     void Init(const Config& config)
  39:Display/../../libs/PoliTeKDSP/libs/libDaisy/src/dev/oled_ssd130x.h ****     {
  40:Display/../../libs/PoliTeKDSP/libs/libDaisy/src/dev/oled_ssd130x.h ****         i2c_address_ = config.i2c_address;
  41:Display/../../libs/PoliTeKDSP/libs/libDaisy/src/dev/oled_ssd130x.h ****         i2c_.Init(config.i2c_config);
  42:Display/../../libs/PoliTeKDSP/libs/libDaisy/src/dev/oled_ssd130x.h ****     };
  43:Display/../../libs/PoliTeKDSP/libs/libDaisy/src/dev/oled_ssd130x.h ****     void SendCommand(uint8_t cmd)
  44:Display/../../libs/PoliTeKDSP/libs/libDaisy/src/dev/oled_ssd130x.h ****     {
ARM GAS  C:\Users\skipi\AppData\Local\Temp\ccerdDJR.s 			page 3


  45:Display/../../libs/PoliTeKDSP/libs/libDaisy/src/dev/oled_ssd130x.h ****         uint8_t buf[2] = {0X00, cmd};
  46:Display/../../libs/PoliTeKDSP/libs/libDaisy/src/dev/oled_ssd130x.h ****         i2c_.TransmitBlocking(i2c_address_, buf, 2, 1000);
  47:Display/../../libs/PoliTeKDSP/libs/libDaisy/src/dev/oled_ssd130x.h ****     };
  48:Display/../../libs/PoliTeKDSP/libs/libDaisy/src/dev/oled_ssd130x.h **** 
  49:Display/../../libs/PoliTeKDSP/libs/libDaisy/src/dev/oled_ssd130x.h ****     void SendData(uint8_t* buff, size_t size)
  50:Display/../../libs/PoliTeKDSP/libs/libDaisy/src/dev/oled_ssd130x.h ****     {
  51:Display/../../libs/PoliTeKDSP/libs/libDaisy/src/dev/oled_ssd130x.h ****         for(size_t i = 0; i < size; i++)
  52:Display/../../libs/PoliTeKDSP/libs/libDaisy/src/dev/oled_ssd130x.h ****         {
  53:Display/../../libs/PoliTeKDSP/libs/libDaisy/src/dev/oled_ssd130x.h ****             uint8_t buf[2] = {0X40, buff[i]};
  54:Display/../../libs/PoliTeKDSP/libs/libDaisy/src/dev/oled_ssd130x.h ****             i2c_.TransmitBlocking(i2c_address_, buf, 2, 1000);
  55:Display/../../libs/PoliTeKDSP/libs/libDaisy/src/dev/oled_ssd130x.h ****         }
  56:Display/../../libs/PoliTeKDSP/libs/libDaisy/src/dev/oled_ssd130x.h ****     };
  57:Display/../../libs/PoliTeKDSP/libs/libDaisy/src/dev/oled_ssd130x.h **** 
  58:Display/../../libs/PoliTeKDSP/libs/libDaisy/src/dev/oled_ssd130x.h ****   private:
  59:Display/../../libs/PoliTeKDSP/libs/libDaisy/src/dev/oled_ssd130x.h ****     daisy::I2CHandle i2c_;
  60:Display/../../libs/PoliTeKDSP/libs/libDaisy/src/dev/oled_ssd130x.h ****     uint8_t          i2c_address_;
  61:Display/../../libs/PoliTeKDSP/libs/libDaisy/src/dev/oled_ssd130x.h **** };
  62:Display/../../libs/PoliTeKDSP/libs/libDaisy/src/dev/oled_ssd130x.h **** 
  63:Display/../../libs/PoliTeKDSP/libs/libDaisy/src/dev/oled_ssd130x.h **** /**
  64:Display/../../libs/PoliTeKDSP/libs/libDaisy/src/dev/oled_ssd130x.h ****  * 4 Wire SPI Transport for SSD1306 / SSD1309 OLED display devices
  65:Display/../../libs/PoliTeKDSP/libs/libDaisy/src/dev/oled_ssd130x.h ****  */
  66:Display/../../libs/PoliTeKDSP/libs/libDaisy/src/dev/oled_ssd130x.h **** class SSD130x4WireSpiTransport
  67:Display/../../libs/PoliTeKDSP/libs/libDaisy/src/dev/oled_ssd130x.h **** {
  68:Display/../../libs/PoliTeKDSP/libs/libDaisy/src/dev/oled_ssd130x.h ****   public:
  69:Display/../../libs/PoliTeKDSP/libs/libDaisy/src/dev/oled_ssd130x.h ****     struct Config
  70:Display/../../libs/PoliTeKDSP/libs/libDaisy/src/dev/oled_ssd130x.h ****     {
  71:Display/../../libs/PoliTeKDSP/libs/libDaisy/src/dev/oled_ssd130x.h ****         Config()
  72:Display/../../libs/PoliTeKDSP/libs/libDaisy/src/dev/oled_ssd130x.h ****         {
  73:Display/../../libs/PoliTeKDSP/libs/libDaisy/src/dev/oled_ssd130x.h ****             // Initialize using defaults
  74:Display/../../libs/PoliTeKDSP/libs/libDaisy/src/dev/oled_ssd130x.h ****             Defaults();
  75:Display/../../libs/PoliTeKDSP/libs/libDaisy/src/dev/oled_ssd130x.h ****         }
  76:Display/../../libs/PoliTeKDSP/libs/libDaisy/src/dev/oled_ssd130x.h ****         SpiHandle::Config spi_config;
  77:Display/../../libs/PoliTeKDSP/libs/libDaisy/src/dev/oled_ssd130x.h ****         struct
  78:Display/../../libs/PoliTeKDSP/libs/libDaisy/src/dev/oled_ssd130x.h ****         {
  79:Display/../../libs/PoliTeKDSP/libs/libDaisy/src/dev/oled_ssd130x.h ****             Pin dc;    /**< & */
  80:Display/../../libs/PoliTeKDSP/libs/libDaisy/src/dev/oled_ssd130x.h ****             Pin reset; /**< & */
  81:Display/../../libs/PoliTeKDSP/libs/libDaisy/src/dev/oled_ssd130x.h ****         } pin_config;
  82:Display/../../libs/PoliTeKDSP/libs/libDaisy/src/dev/oled_ssd130x.h ****         bool useDma;
  83:Display/../../libs/PoliTeKDSP/libs/libDaisy/src/dev/oled_ssd130x.h ****         void Defaults()
  84:Display/../../libs/PoliTeKDSP/libs/libDaisy/src/dev/oled_ssd130x.h ****         {
  85:Display/../../libs/PoliTeKDSP/libs/libDaisy/src/dev/oled_ssd130x.h ****             // SPI peripheral config
  86:Display/../../libs/PoliTeKDSP/libs/libDaisy/src/dev/oled_ssd130x.h ****             spi_config.periph = SpiHandle::Config::Peripheral::SPI_1;
  87:Display/../../libs/PoliTeKDSP/libs/libDaisy/src/dev/oled_ssd130x.h ****             spi_config.mode   = SpiHandle::Config::Mode::MASTER;
  88:Display/../../libs/PoliTeKDSP/libs/libDaisy/src/dev/oled_ssd130x.h ****             spi_config.direction
  89:Display/../../libs/PoliTeKDSP/libs/libDaisy/src/dev/oled_ssd130x.h ****                 = SpiHandle::Config::Direction::TWO_LINES_TX_ONLY;
  90:Display/../../libs/PoliTeKDSP/libs/libDaisy/src/dev/oled_ssd130x.h ****             spi_config.datasize       = 8;
  91:Display/../../libs/PoliTeKDSP/libs/libDaisy/src/dev/oled_ssd130x.h ****             spi_config.clock_polarity = SpiHandle::Config::ClockPolarity::LOW;
  92:Display/../../libs/PoliTeKDSP/libs/libDaisy/src/dev/oled_ssd130x.h ****             spi_config.clock_phase    = SpiHandle::Config::ClockPhase::ONE_EDGE;
  93:Display/../../libs/PoliTeKDSP/libs/libDaisy/src/dev/oled_ssd130x.h ****             spi_config.nss            = SpiHandle::Config::NSS::HARD_OUTPUT;
  94:Display/../../libs/PoliTeKDSP/libs/libDaisy/src/dev/oled_ssd130x.h ****             spi_config.baud_prescaler = SpiHandle::Config::BaudPrescaler::PS_8;
  95:Display/../../libs/PoliTeKDSP/libs/libDaisy/src/dev/oled_ssd130x.h ****             // SPI pin config
  96:Display/../../libs/PoliTeKDSP/libs/libDaisy/src/dev/oled_ssd130x.h ****             spi_config.pin_config.sclk = Pin(PORTG, 11);
  97:Display/../../libs/PoliTeKDSP/libs/libDaisy/src/dev/oled_ssd130x.h ****             spi_config.pin_config.miso = Pin(PORTX, 0);
  98:Display/../../libs/PoliTeKDSP/libs/libDaisy/src/dev/oled_ssd130x.h ****             spi_config.pin_config.mosi = Pin(PORTB, 5);
  99:Display/../../libs/PoliTeKDSP/libs/libDaisy/src/dev/oled_ssd130x.h ****             spi_config.pin_config.nss  = Pin(PORTG, 10);
 100:Display/../../libs/PoliTeKDSP/libs/libDaisy/src/dev/oled_ssd130x.h ****             // SSD130x control pin config
 101:Display/../../libs/PoliTeKDSP/libs/libDaisy/src/dev/oled_ssd130x.h ****             pin_config.dc    = Pin(PORTB, 4);
ARM GAS  C:\Users\skipi\AppData\Local\Temp\ccerdDJR.s 			page 4


 102:Display/../../libs/PoliTeKDSP/libs/libDaisy/src/dev/oled_ssd130x.h ****             pin_config.reset = Pin(PORTB, 15);
 103:Display/../../libs/PoliTeKDSP/libs/libDaisy/src/dev/oled_ssd130x.h ****             // Using DMA off by default
 104:Display/../../libs/PoliTeKDSP/libs/libDaisy/src/dev/oled_ssd130x.h ****             useDma = false;
 105:Display/../../libs/PoliTeKDSP/libs/libDaisy/src/dev/oled_ssd130x.h ****         }
 106:Display/../../libs/PoliTeKDSP/libs/libDaisy/src/dev/oled_ssd130x.h ****     };
 107:Display/../../libs/PoliTeKDSP/libs/libDaisy/src/dev/oled_ssd130x.h ****     void Init(const Config& config)
 108:Display/../../libs/PoliTeKDSP/libs/libDaisy/src/dev/oled_ssd130x.h ****     {
 109:Display/../../libs/PoliTeKDSP/libs/libDaisy/src/dev/oled_ssd130x.h ****         // Initialize both GPIO
 110:Display/../../libs/PoliTeKDSP/libs/libDaisy/src/dev/oled_ssd130x.h ****         pin_dc_.Init(config.pin_config.dc, GPIO::Mode::OUTPUT);
 111:Display/../../libs/PoliTeKDSP/libs/libDaisy/src/dev/oled_ssd130x.h ****         pin_reset_.Init(config.pin_config.reset, GPIO::Mode::OUTPUT);
 112:Display/../../libs/PoliTeKDSP/libs/libDaisy/src/dev/oled_ssd130x.h **** 
 113:Display/../../libs/PoliTeKDSP/libs/libDaisy/src/dev/oled_ssd130x.h ****         // Initialize SPI
 114:Display/../../libs/PoliTeKDSP/libs/libDaisy/src/dev/oled_ssd130x.h ****         spi_.Init(config.spi_config);
 115:Display/../../libs/PoliTeKDSP/libs/libDaisy/src/dev/oled_ssd130x.h **** 
 116:Display/../../libs/PoliTeKDSP/libs/libDaisy/src/dev/oled_ssd130x.h ****         // Reset and Configure OLED.
 117:Display/../../libs/PoliTeKDSP/libs/libDaisy/src/dev/oled_ssd130x.h ****         pin_reset_.Write(0);
 118:Display/../../libs/PoliTeKDSP/libs/libDaisy/src/dev/oled_ssd130x.h ****         System::Delay(10);
 119:Display/../../libs/PoliTeKDSP/libs/libDaisy/src/dev/oled_ssd130x.h ****         pin_reset_.Write(1);
 120:Display/../../libs/PoliTeKDSP/libs/libDaisy/src/dev/oled_ssd130x.h ****         System::Delay(10);
 121:Display/../../libs/PoliTeKDSP/libs/libDaisy/src/dev/oled_ssd130x.h ****     };
 122:Display/../../libs/PoliTeKDSP/libs/libDaisy/src/dev/oled_ssd130x.h **** 
 123:Display/../../libs/PoliTeKDSP/libs/libDaisy/src/dev/oled_ssd130x.h ****     void SendCommand(uint8_t cmd)
 124:Display/../../libs/PoliTeKDSP/libs/libDaisy/src/dev/oled_ssd130x.h ****     {
 125:Display/../../libs/PoliTeKDSP/libs/libDaisy/src/dev/oled_ssd130x.h ****         pin_dc_.Write(0);
 126:Display/../../libs/PoliTeKDSP/libs/libDaisy/src/dev/oled_ssd130x.h ****         spi_.BlockingTransmit(&cmd, 1);
 127:Display/../../libs/PoliTeKDSP/libs/libDaisy/src/dev/oled_ssd130x.h ****     };
 128:Display/../../libs/PoliTeKDSP/libs/libDaisy/src/dev/oled_ssd130x.h **** 
 129:Display/../../libs/PoliTeKDSP/libs/libDaisy/src/dev/oled_ssd130x.h ****     void SendCommands(uint8_t* buff, size_t size)
 130:Display/../../libs/PoliTeKDSP/libs/libDaisy/src/dev/oled_ssd130x.h ****     {
 131:Display/../../libs/PoliTeKDSP/libs/libDaisy/src/dev/oled_ssd130x.h ****         pin_dc_.Write(0);
 132:Display/../../libs/PoliTeKDSP/libs/libDaisy/src/dev/oled_ssd130x.h ****         spi_.BlockingTransmit(buff, size);
 133:Display/../../libs/PoliTeKDSP/libs/libDaisy/src/dev/oled_ssd130x.h ****     };
 134:Display/../../libs/PoliTeKDSP/libs/libDaisy/src/dev/oled_ssd130x.h **** 
 135:Display/../../libs/PoliTeKDSP/libs/libDaisy/src/dev/oled_ssd130x.h ****     void SendData(uint8_t* buff, size_t size)
 136:Display/../../libs/PoliTeKDSP/libs/libDaisy/src/dev/oled_ssd130x.h ****     {
 137:Display/../../libs/PoliTeKDSP/libs/libDaisy/src/dev/oled_ssd130x.h ****         pin_dc_.Write(1);
 138:Display/../../libs/PoliTeKDSP/libs/libDaisy/src/dev/oled_ssd130x.h ****         spi_.BlockingTransmit(buff, size);
 139:Display/../../libs/PoliTeKDSP/libs/libDaisy/src/dev/oled_ssd130x.h ****     };
 140:Display/../../libs/PoliTeKDSP/libs/libDaisy/src/dev/oled_ssd130x.h **** 
 141:Display/../../libs/PoliTeKDSP/libs/libDaisy/src/dev/oled_ssd130x.h ****     void SendDataDma(uint8_t*                          buff,
 142:Display/../../libs/PoliTeKDSP/libs/libDaisy/src/dev/oled_ssd130x.h ****                      size_t                            size,
 143:Display/../../libs/PoliTeKDSP/libs/libDaisy/src/dev/oled_ssd130x.h ****                      SpiHandle::EndCallbackFunctionPtr end_callback,
 144:Display/../../libs/PoliTeKDSP/libs/libDaisy/src/dev/oled_ssd130x.h ****                      void*                             context)
 145:Display/../../libs/PoliTeKDSP/libs/libDaisy/src/dev/oled_ssd130x.h ****     {
 146:Display/../../libs/PoliTeKDSP/libs/libDaisy/src/dev/oled_ssd130x.h ****         SCB_CleanInvalidateDCache_by_Addr(buff, size);
 147:Display/../../libs/PoliTeKDSP/libs/libDaisy/src/dev/oled_ssd130x.h ****         pin_dc_.Write(1);
 148:Display/../../libs/PoliTeKDSP/libs/libDaisy/src/dev/oled_ssd130x.h ****         spi_.DmaTransmit(buff, size, NULL, end_callback, context);
 149:Display/../../libs/PoliTeKDSP/libs/libDaisy/src/dev/oled_ssd130x.h ****     };
 150:Display/../../libs/PoliTeKDSP/libs/libDaisy/src/dev/oled_ssd130x.h **** 
 151:Display/../../libs/PoliTeKDSP/libs/libDaisy/src/dev/oled_ssd130x.h ****   private:
 152:Display/../../libs/PoliTeKDSP/libs/libDaisy/src/dev/oled_ssd130x.h ****     SpiHandle spi_;
 153:Display/../../libs/PoliTeKDSP/libs/libDaisy/src/dev/oled_ssd130x.h ****     GPIO      pin_reset_;
 154:Display/../../libs/PoliTeKDSP/libs/libDaisy/src/dev/oled_ssd130x.h ****     GPIO      pin_dc_;
 155:Display/../../libs/PoliTeKDSP/libs/libDaisy/src/dev/oled_ssd130x.h **** };
 156:Display/../../libs/PoliTeKDSP/libs/libDaisy/src/dev/oled_ssd130x.h **** 
 157:Display/../../libs/PoliTeKDSP/libs/libDaisy/src/dev/oled_ssd130x.h **** /**
 158:Display/../../libs/PoliTeKDSP/libs/libDaisy/src/dev/oled_ssd130x.h ****  * Soft SPI Transport for SSD1306 / SSD1309 OLED display devices
ARM GAS  C:\Users\skipi\AppData\Local\Temp\ccerdDJR.s 			page 5


 159:Display/../../libs/PoliTeKDSP/libs/libDaisy/src/dev/oled_ssd130x.h ****  */
 160:Display/../../libs/PoliTeKDSP/libs/libDaisy/src/dev/oled_ssd130x.h **** class SSD130x4WireSoftSpiTransport
 161:Display/../../libs/PoliTeKDSP/libs/libDaisy/src/dev/oled_ssd130x.h **** {
 162:Display/../../libs/PoliTeKDSP/libs/libDaisy/src/dev/oled_ssd130x.h ****   public:
 163:Display/../../libs/PoliTeKDSP/libs/libDaisy/src/dev/oled_ssd130x.h ****     struct Config
 164:Display/../../libs/PoliTeKDSP/libs/libDaisy/src/dev/oled_ssd130x.h ****     {
 165:Display/../../libs/PoliTeKDSP/libs/libDaisy/src/dev/oled_ssd130x.h ****         Config()
 166:Display/../../libs/PoliTeKDSP/libs/libDaisy/src/dev/oled_ssd130x.h ****         {
 167:Display/../../libs/PoliTeKDSP/libs/libDaisy/src/dev/oled_ssd130x.h ****             // Initialize using defaults
 168:Display/../../libs/PoliTeKDSP/libs/libDaisy/src/dev/oled_ssd130x.h ****             Defaults();
 169:Display/../../libs/PoliTeKDSP/libs/libDaisy/src/dev/oled_ssd130x.h ****         }
 170:Display/../../libs/PoliTeKDSP/libs/libDaisy/src/dev/oled_ssd130x.h ****         struct
 171:Display/../../libs/PoliTeKDSP/libs/libDaisy/src/dev/oled_ssd130x.h ****         {
 172:Display/../../libs/PoliTeKDSP/libs/libDaisy/src/dev/oled_ssd130x.h ****             uint32_t sclk_delay;
 173:Display/../../libs/PoliTeKDSP/libs/libDaisy/src/dev/oled_ssd130x.h ****             Pin      sclk;
 174:Display/../../libs/PoliTeKDSP/libs/libDaisy/src/dev/oled_ssd130x.h ****             Pin      mosi;
 175:Display/../../libs/PoliTeKDSP/libs/libDaisy/src/dev/oled_ssd130x.h ****             Pin      dc;
 176:Display/../../libs/PoliTeKDSP/libs/libDaisy/src/dev/oled_ssd130x.h ****             Pin      reset;
 177:Display/../../libs/PoliTeKDSP/libs/libDaisy/src/dev/oled_ssd130x.h ****         } pin_config;
 178:Display/../../libs/PoliTeKDSP/libs/libDaisy/src/dev/oled_ssd130x.h ****         void Defaults()
 179:Display/../../libs/PoliTeKDSP/libs/libDaisy/src/dev/oled_ssd130x.h ****         {
 180:Display/../../libs/PoliTeKDSP/libs/libDaisy/src/dev/oled_ssd130x.h ****             pin_config.sclk_delay = 0; // fast as possible?!
 181:Display/../../libs/PoliTeKDSP/libs/libDaisy/src/dev/oled_ssd130x.h ****             // SPI peripheral config
 182:Display/../../libs/PoliTeKDSP/libs/libDaisy/src/dev/oled_ssd130x.h ****             pin_config.sclk = Pin(PORTD, 3); /**< D10 - SPI2 SCK  */
 183:Display/../../libs/PoliTeKDSP/libs/libDaisy/src/dev/oled_ssd130x.h ****             pin_config.mosi = Pin(PORTC, 3); /**< D9  - SPI2 MOSI */
 184:Display/../../libs/PoliTeKDSP/libs/libDaisy/src/dev/oled_ssd130x.h ****             // SSD130x control pin config
 185:Display/../../libs/PoliTeKDSP/libs/libDaisy/src/dev/oled_ssd130x.h ****             pin_config.dc    = Pin(PORTC, 11); //D2
 186:Display/../../libs/PoliTeKDSP/libs/libDaisy/src/dev/oled_ssd130x.h ****             pin_config.reset = Pin(PORTC, 10); //D3
 187:Display/../../libs/PoliTeKDSP/libs/libDaisy/src/dev/oled_ssd130x.h ****         }
 188:Display/../../libs/PoliTeKDSP/libs/libDaisy/src/dev/oled_ssd130x.h ****     };
 189:Display/../../libs/PoliTeKDSP/libs/libDaisy/src/dev/oled_ssd130x.h ****     void Init(const Config& config)
 190:Display/../../libs/PoliTeKDSP/libs/libDaisy/src/dev/oled_ssd130x.h ****     {
 191:Display/../../libs/PoliTeKDSP/libs/libDaisy/src/dev/oled_ssd130x.h ****         // Initialize both GPIO
 192:Display/../../libs/PoliTeKDSP/libs/libDaisy/src/dev/oled_ssd130x.h ****         pin_sclk_.Init(config.pin_config.sclk, GPIO::Mode::OUTPUT);
 193:Display/../../libs/PoliTeKDSP/libs/libDaisy/src/dev/oled_ssd130x.h ****         pin_sclk_.Write(1); //ClockPolarity::LOW
 194:Display/../../libs/PoliTeKDSP/libs/libDaisy/src/dev/oled_ssd130x.h ****         clk_delay = config.pin_config.sclk_delay;
 195:Display/../../libs/PoliTeKDSP/libs/libDaisy/src/dev/oled_ssd130x.h ****         pin_mosi_.Init(config.pin_config.mosi, GPIO::Mode::OUTPUT);
 196:Display/../../libs/PoliTeKDSP/libs/libDaisy/src/dev/oled_ssd130x.h ****         pin_mosi_.Write(0);
 197:Display/../../libs/PoliTeKDSP/libs/libDaisy/src/dev/oled_ssd130x.h **** 
 198:Display/../../libs/PoliTeKDSP/libs/libDaisy/src/dev/oled_ssd130x.h ****         pin_dc_.Init(config.pin_config.dc, GPIO::Mode::OUTPUT);
 199:Display/../../libs/PoliTeKDSP/libs/libDaisy/src/dev/oled_ssd130x.h ****         pin_reset_.Init(config.pin_config.reset, GPIO::Mode::OUTPUT);
 200:Display/../../libs/PoliTeKDSP/libs/libDaisy/src/dev/oled_ssd130x.h **** 
 201:Display/../../libs/PoliTeKDSP/libs/libDaisy/src/dev/oled_ssd130x.h ****         // Reset and Configure OLED.
 202:Display/../../libs/PoliTeKDSP/libs/libDaisy/src/dev/oled_ssd130x.h ****         pin_reset_.Write(0);
 203:Display/../../libs/PoliTeKDSP/libs/libDaisy/src/dev/oled_ssd130x.h ****         System::Delay(10);
 204:Display/../../libs/PoliTeKDSP/libs/libDaisy/src/dev/oled_ssd130x.h ****         pin_reset_.Write(1);
 205:Display/../../libs/PoliTeKDSP/libs/libDaisy/src/dev/oled_ssd130x.h ****         System::Delay(10);
 206:Display/../../libs/PoliTeKDSP/libs/libDaisy/src/dev/oled_ssd130x.h ****     };
 207:Display/../../libs/PoliTeKDSP/libs/libDaisy/src/dev/oled_ssd130x.h ****     void SendCommand(uint8_t cmd)
 208:Display/../../libs/PoliTeKDSP/libs/libDaisy/src/dev/oled_ssd130x.h ****     {
 209:Display/../../libs/PoliTeKDSP/libs/libDaisy/src/dev/oled_ssd130x.h ****         pin_dc_.Write(0);
 210:Display/../../libs/PoliTeKDSP/libs/libDaisy/src/dev/oled_ssd130x.h ****         SoftSpiTransmit(cmd);
 211:Display/../../libs/PoliTeKDSP/libs/libDaisy/src/dev/oled_ssd130x.h ****     };
 212:Display/../../libs/PoliTeKDSP/libs/libDaisy/src/dev/oled_ssd130x.h **** 
 213:Display/../../libs/PoliTeKDSP/libs/libDaisy/src/dev/oled_ssd130x.h ****     void SendData(uint8_t* buff, size_t size)
 214:Display/../../libs/PoliTeKDSP/libs/libDaisy/src/dev/oled_ssd130x.h ****     {
 215:Display/../../libs/PoliTeKDSP/libs/libDaisy/src/dev/oled_ssd130x.h ****         pin_dc_.Write(1);
ARM GAS  C:\Users\skipi\AppData\Local\Temp\ccerdDJR.s 			page 6


 216:Display/../../libs/PoliTeKDSP/libs/libDaisy/src/dev/oled_ssd130x.h ****         for(size_t i = 0; i < size; i++)
 217:Display/../../libs/PoliTeKDSP/libs/libDaisy/src/dev/oled_ssd130x.h ****             SoftSpiTransmit(buff[i]);
 218:Display/../../libs/PoliTeKDSP/libs/libDaisy/src/dev/oled_ssd130x.h ****     };
 219:Display/../../libs/PoliTeKDSP/libs/libDaisy/src/dev/oled_ssd130x.h **** 
 220:Display/../../libs/PoliTeKDSP/libs/libDaisy/src/dev/oled_ssd130x.h ****   private:
 221:Display/../../libs/PoliTeKDSP/libs/libDaisy/src/dev/oled_ssd130x.h ****     void SoftSpiTransmit(uint8_t val)
 222:Display/../../libs/PoliTeKDSP/libs/libDaisy/src/dev/oled_ssd130x.h ****     {
 223:Display/../../libs/PoliTeKDSP/libs/libDaisy/src/dev/oled_ssd130x.h ****         // bit flip
 224:Display/../../libs/PoliTeKDSP/libs/libDaisy/src/dev/oled_ssd130x.h ****         val = ((val & 0x01) << 7) | ((val & 0x02) << 5) | ((val & 0x04) << 3)
 225:Display/../../libs/PoliTeKDSP/libs/libDaisy/src/dev/oled_ssd130x.h ****               | ((val & 0x08) << 1) | ((val & 0x10) >> 1) | ((val & 0x20) >> 3)
 226:Display/../../libs/PoliTeKDSP/libs/libDaisy/src/dev/oled_ssd130x.h ****               | ((val & 0x40) >> 5) | ((val & 0x80) >> 7);
 227:Display/../../libs/PoliTeKDSP/libs/libDaisy/src/dev/oled_ssd130x.h **** 
 228:Display/../../libs/PoliTeKDSP/libs/libDaisy/src/dev/oled_ssd130x.h ****         for(uint8_t bit = 0u; bit < 8u; bit++)
 229:Display/../../libs/PoliTeKDSP/libs/libDaisy/src/dev/oled_ssd130x.h ****         {
 230:Display/../../libs/PoliTeKDSP/libs/libDaisy/src/dev/oled_ssd130x.h ****             pin_mosi_.Write((val & (1 << bit)) ? 1 : 0);
 231:Display/../../libs/PoliTeKDSP/libs/libDaisy/src/dev/oled_ssd130x.h **** 
 232:Display/../../libs/PoliTeKDSP/libs/libDaisy/src/dev/oled_ssd130x.h ****             System::DelayTicks(clk_delay);
 233:Display/../../libs/PoliTeKDSP/libs/libDaisy/src/dev/oled_ssd130x.h **** 
 234:Display/../../libs/PoliTeKDSP/libs/libDaisy/src/dev/oled_ssd130x.h ****             pin_sclk_.Toggle();
 235:Display/../../libs/PoliTeKDSP/libs/libDaisy/src/dev/oled_ssd130x.h **** 
 236:Display/../../libs/PoliTeKDSP/libs/libDaisy/src/dev/oled_ssd130x.h ****             System::DelayTicks(clk_delay);
 237:Display/../../libs/PoliTeKDSP/libs/libDaisy/src/dev/oled_ssd130x.h **** 
 238:Display/../../libs/PoliTeKDSP/libs/libDaisy/src/dev/oled_ssd130x.h ****             pin_sclk_.Toggle();
 239:Display/../../libs/PoliTeKDSP/libs/libDaisy/src/dev/oled_ssd130x.h ****         }
 240:Display/../../libs/PoliTeKDSP/libs/libDaisy/src/dev/oled_ssd130x.h ****     }
 241:Display/../../libs/PoliTeKDSP/libs/libDaisy/src/dev/oled_ssd130x.h **** 
 242:Display/../../libs/PoliTeKDSP/libs/libDaisy/src/dev/oled_ssd130x.h ****     uint32_t clk_delay;
 243:Display/../../libs/PoliTeKDSP/libs/libDaisy/src/dev/oled_ssd130x.h ****     GPIO     pin_sclk_;
 244:Display/../../libs/PoliTeKDSP/libs/libDaisy/src/dev/oled_ssd130x.h ****     GPIO     pin_mosi_;
 245:Display/../../libs/PoliTeKDSP/libs/libDaisy/src/dev/oled_ssd130x.h ****     GPIO     pin_reset_;
 246:Display/../../libs/PoliTeKDSP/libs/libDaisy/src/dev/oled_ssd130x.h ****     GPIO     pin_dc_;
 247:Display/../../libs/PoliTeKDSP/libs/libDaisy/src/dev/oled_ssd130x.h **** };
 248:Display/../../libs/PoliTeKDSP/libs/libDaisy/src/dev/oled_ssd130x.h **** 
 249:Display/../../libs/PoliTeKDSP/libs/libDaisy/src/dev/oled_ssd130x.h **** 
 250:Display/../../libs/PoliTeKDSP/libs/libDaisy/src/dev/oled_ssd130x.h **** /**
 251:Display/../../libs/PoliTeKDSP/libs/libDaisy/src/dev/oled_ssd130x.h ****  * A driver implementation for the SSD1306/SSD1309
 252:Display/../../libs/PoliTeKDSP/libs/libDaisy/src/dev/oled_ssd130x.h ****  */
 253:Display/../../libs/PoliTeKDSP/libs/libDaisy/src/dev/oled_ssd130x.h **** template <size_t width, size_t height, typename Transport>
 254:Display/../../libs/PoliTeKDSP/libs/libDaisy/src/dev/oled_ssd130x.h **** class SSD130xDriver
 255:Display/../../libs/PoliTeKDSP/libs/libDaisy/src/dev/oled_ssd130x.h **** {
 256:Display/../../libs/PoliTeKDSP/libs/libDaisy/src/dev/oled_ssd130x.h ****   public:
 257:Display/../../libs/PoliTeKDSP/libs/libDaisy/src/dev/oled_ssd130x.h ****     struct Config
 258:Display/../../libs/PoliTeKDSP/libs/libDaisy/src/dev/oled_ssd130x.h ****     {
 259:Display/../../libs/PoliTeKDSP/libs/libDaisy/src/dev/oled_ssd130x.h ****         typename Transport::Config transport_config;
 260:Display/../../libs/PoliTeKDSP/libs/libDaisy/src/dev/oled_ssd130x.h ****     };
 261:Display/../../libs/PoliTeKDSP/libs/libDaisy/src/dev/oled_ssd130x.h **** 
 262:Display/../../libs/PoliTeKDSP/libs/libDaisy/src/dev/oled_ssd130x.h ****     void Init(Config config)
 263:Display/../../libs/PoliTeKDSP/libs/libDaisy/src/dev/oled_ssd130x.h ****     {
 264:Display/../../libs/PoliTeKDSP/libs/libDaisy/src/dev/oled_ssd130x.h ****         transport_.Init(config.transport_config);
 265:Display/../../libs/PoliTeKDSP/libs/libDaisy/src/dev/oled_ssd130x.h **** 
 266:Display/../../libs/PoliTeKDSP/libs/libDaisy/src/dev/oled_ssd130x.h ****         // Init routine...
 267:Display/../../libs/PoliTeKDSP/libs/libDaisy/src/dev/oled_ssd130x.h **** 
 268:Display/../../libs/PoliTeKDSP/libs/libDaisy/src/dev/oled_ssd130x.h ****         // Display Off
 269:Display/../../libs/PoliTeKDSP/libs/libDaisy/src/dev/oled_ssd130x.h ****         transport_.SendCommand(0xaE);
 270:Display/../../libs/PoliTeKDSP/libs/libDaisy/src/dev/oled_ssd130x.h ****         // Dimension dependent commands...
 271:Display/../../libs/PoliTeKDSP/libs/libDaisy/src/dev/oled_ssd130x.h ****         switch(height)
 272:Display/../../libs/PoliTeKDSP/libs/libDaisy/src/dev/oled_ssd130x.h ****         {
ARM GAS  C:\Users\skipi\AppData\Local\Temp\ccerdDJR.s 			page 7


 273:Display/../../libs/PoliTeKDSP/libs/libDaisy/src/dev/oled_ssd130x.h ****             case 16:
 274:Display/../../libs/PoliTeKDSP/libs/libDaisy/src/dev/oled_ssd130x.h ****                 // Display Clock Divide Ratio
 275:Display/../../libs/PoliTeKDSP/libs/libDaisy/src/dev/oled_ssd130x.h ****                 transport_.SendCommand(0xD5);
 276:Display/../../libs/PoliTeKDSP/libs/libDaisy/src/dev/oled_ssd130x.h ****                 transport_.SendCommand(0x60);
 277:Display/../../libs/PoliTeKDSP/libs/libDaisy/src/dev/oled_ssd130x.h ****                 // Multiplex Ratio
 278:Display/../../libs/PoliTeKDSP/libs/libDaisy/src/dev/oled_ssd130x.h ****                 transport_.SendCommand(0xA8);
 279:Display/../../libs/PoliTeKDSP/libs/libDaisy/src/dev/oled_ssd130x.h ****                 transport_.SendCommand(0x0F);
 280:Display/../../libs/PoliTeKDSP/libs/libDaisy/src/dev/oled_ssd130x.h ****                 // COM Pins
 281:Display/../../libs/PoliTeKDSP/libs/libDaisy/src/dev/oled_ssd130x.h ****                 transport_.SendCommand(0xDA);
 282:Display/../../libs/PoliTeKDSP/libs/libDaisy/src/dev/oled_ssd130x.h ****                 transport_.SendCommand(0x02);
 283:Display/../../libs/PoliTeKDSP/libs/libDaisy/src/dev/oled_ssd130x.h ****                 break;
 284:Display/../../libs/PoliTeKDSP/libs/libDaisy/src/dev/oled_ssd130x.h ****             case 32:
 285:Display/../../libs/PoliTeKDSP/libs/libDaisy/src/dev/oled_ssd130x.h ****                 // Display Clock Divide Ratio
 286:Display/../../libs/PoliTeKDSP/libs/libDaisy/src/dev/oled_ssd130x.h ****                 transport_.SendCommand(0xD5);
 287:Display/../../libs/PoliTeKDSP/libs/libDaisy/src/dev/oled_ssd130x.h ****                 transport_.SendCommand(0x80);
 288:Display/../../libs/PoliTeKDSP/libs/libDaisy/src/dev/oled_ssd130x.h ****                 // Multiplex Ratio
 289:Display/../../libs/PoliTeKDSP/libs/libDaisy/src/dev/oled_ssd130x.h ****                 transport_.SendCommand(0xA8);
 290:Display/../../libs/PoliTeKDSP/libs/libDaisy/src/dev/oled_ssd130x.h ****                 transport_.SendCommand(0x1F);
 291:Display/../../libs/PoliTeKDSP/libs/libDaisy/src/dev/oled_ssd130x.h ****                 // COM Pins
 292:Display/../../libs/PoliTeKDSP/libs/libDaisy/src/dev/oled_ssd130x.h ****                 transport_.SendCommand(0xDA);
 293:Display/../../libs/PoliTeKDSP/libs/libDaisy/src/dev/oled_ssd130x.h ****                 if(width == 64)
 294:Display/../../libs/PoliTeKDSP/libs/libDaisy/src/dev/oled_ssd130x.h ****                 {
 295:Display/../../libs/PoliTeKDSP/libs/libDaisy/src/dev/oled_ssd130x.h ****                     transport_.SendCommand(0x12);
 296:Display/../../libs/PoliTeKDSP/libs/libDaisy/src/dev/oled_ssd130x.h ****                 }
 297:Display/../../libs/PoliTeKDSP/libs/libDaisy/src/dev/oled_ssd130x.h ****                 else
 298:Display/../../libs/PoliTeKDSP/libs/libDaisy/src/dev/oled_ssd130x.h ****                 {
 299:Display/../../libs/PoliTeKDSP/libs/libDaisy/src/dev/oled_ssd130x.h ****                     transport_.SendCommand(0x02);
 300:Display/../../libs/PoliTeKDSP/libs/libDaisy/src/dev/oled_ssd130x.h ****                 }
 301:Display/../../libs/PoliTeKDSP/libs/libDaisy/src/dev/oled_ssd130x.h **** 
 302:Display/../../libs/PoliTeKDSP/libs/libDaisy/src/dev/oled_ssd130x.h ****                 break;
 303:Display/../../libs/PoliTeKDSP/libs/libDaisy/src/dev/oled_ssd130x.h ****             case 48:
 304:Display/../../libs/PoliTeKDSP/libs/libDaisy/src/dev/oled_ssd130x.h ****                 // Display Clock Divide Ratio
 305:Display/../../libs/PoliTeKDSP/libs/libDaisy/src/dev/oled_ssd130x.h ****                 transport_.SendCommand(0xD5);
 306:Display/../../libs/PoliTeKDSP/libs/libDaisy/src/dev/oled_ssd130x.h ****                 transport_.SendCommand(0x80);
 307:Display/../../libs/PoliTeKDSP/libs/libDaisy/src/dev/oled_ssd130x.h ****                 // Multiplex Ratio
 308:Display/../../libs/PoliTeKDSP/libs/libDaisy/src/dev/oled_ssd130x.h ****                 transport_.SendCommand(0xA8);
 309:Display/../../libs/PoliTeKDSP/libs/libDaisy/src/dev/oled_ssd130x.h ****                 transport_.SendCommand(0x2F);
 310:Display/../../libs/PoliTeKDSP/libs/libDaisy/src/dev/oled_ssd130x.h ****                 // COM Pins
 311:Display/../../libs/PoliTeKDSP/libs/libDaisy/src/dev/oled_ssd130x.h ****                 transport_.SendCommand(0xDA);
 312:Display/../../libs/PoliTeKDSP/libs/libDaisy/src/dev/oled_ssd130x.h ****                 transport_.SendCommand(0x12);
 313:Display/../../libs/PoliTeKDSP/libs/libDaisy/src/dev/oled_ssd130x.h ****                 break;
 314:Display/../../libs/PoliTeKDSP/libs/libDaisy/src/dev/oled_ssd130x.h ****             default: // 128
 315:Display/../../libs/PoliTeKDSP/libs/libDaisy/src/dev/oled_ssd130x.h ****                 // Display Clock Divide Ratio
 316:Display/../../libs/PoliTeKDSP/libs/libDaisy/src/dev/oled_ssd130x.h ****                 transport_.SendCommand(0xD5);
 317:Display/../../libs/PoliTeKDSP/libs/libDaisy/src/dev/oled_ssd130x.h ****                 transport_.SendCommand(0x80);
 318:Display/../../libs/PoliTeKDSP/libs/libDaisy/src/dev/oled_ssd130x.h ****                 // Multiplex Ratio
 319:Display/../../libs/PoliTeKDSP/libs/libDaisy/src/dev/oled_ssd130x.h ****                 transport_.SendCommand(0xA8);
 320:Display/../../libs/PoliTeKDSP/libs/libDaisy/src/dev/oled_ssd130x.h ****                 transport_.SendCommand(0x3F);
 321:Display/../../libs/PoliTeKDSP/libs/libDaisy/src/dev/oled_ssd130x.h ****                 // COM Pins
 322:Display/../../libs/PoliTeKDSP/libs/libDaisy/src/dev/oled_ssd130x.h ****                 transport_.SendCommand(0xDA);
 323:Display/../../libs/PoliTeKDSP/libs/libDaisy/src/dev/oled_ssd130x.h ****                 transport_.SendCommand(0x12);
 324:Display/../../libs/PoliTeKDSP/libs/libDaisy/src/dev/oled_ssd130x.h ****                 break;
 325:Display/../../libs/PoliTeKDSP/libs/libDaisy/src/dev/oled_ssd130x.h ****         }
 326:Display/../../libs/PoliTeKDSP/libs/libDaisy/src/dev/oled_ssd130x.h **** 
 327:Display/../../libs/PoliTeKDSP/libs/libDaisy/src/dev/oled_ssd130x.h ****         // Display Offset
 328:Display/../../libs/PoliTeKDSP/libs/libDaisy/src/dev/oled_ssd130x.h ****         transport_.SendCommand(0xD3);
 329:Display/../../libs/PoliTeKDSP/libs/libDaisy/src/dev/oled_ssd130x.h ****         transport_.SendCommand(0x00);
ARM GAS  C:\Users\skipi\AppData\Local\Temp\ccerdDJR.s 			page 8


 330:Display/../../libs/PoliTeKDSP/libs/libDaisy/src/dev/oled_ssd130x.h ****         // Start Line Address
 331:Display/../../libs/PoliTeKDSP/libs/libDaisy/src/dev/oled_ssd130x.h ****         transport_.SendCommand(0x40);
 332:Display/../../libs/PoliTeKDSP/libs/libDaisy/src/dev/oled_ssd130x.h ****         // Normal Display
 333:Display/../../libs/PoliTeKDSP/libs/libDaisy/src/dev/oled_ssd130x.h ****         transport_.SendCommand(0xA6);
 334:Display/../../libs/PoliTeKDSP/libs/libDaisy/src/dev/oled_ssd130x.h ****         // All On Resume
 335:Display/../../libs/PoliTeKDSP/libs/libDaisy/src/dev/oled_ssd130x.h ****         transport_.SendCommand(0xA4);
 336:Display/../../libs/PoliTeKDSP/libs/libDaisy/src/dev/oled_ssd130x.h ****         // Charge Pump
 337:Display/../../libs/PoliTeKDSP/libs/libDaisy/src/dev/oled_ssd130x.h ****         transport_.SendCommand(0x8D);
 338:Display/../../libs/PoliTeKDSP/libs/libDaisy/src/dev/oled_ssd130x.h ****         transport_.SendCommand(0x14);
 339:Display/../../libs/PoliTeKDSP/libs/libDaisy/src/dev/oled_ssd130x.h ****         // Set Segment Remap
 340:Display/../../libs/PoliTeKDSP/libs/libDaisy/src/dev/oled_ssd130x.h ****         transport_.SendCommand(0xA1);
 341:Display/../../libs/PoliTeKDSP/libs/libDaisy/src/dev/oled_ssd130x.h ****         // COM Output Scan Direction
 342:Display/../../libs/PoliTeKDSP/libs/libDaisy/src/dev/oled_ssd130x.h ****         transport_.SendCommand(0xC8);
 343:Display/../../libs/PoliTeKDSP/libs/libDaisy/src/dev/oled_ssd130x.h ****         // Contrast Control
 344:Display/../../libs/PoliTeKDSP/libs/libDaisy/src/dev/oled_ssd130x.h ****         transport_.SendCommand(0x81);
 345:Display/../../libs/PoliTeKDSP/libs/libDaisy/src/dev/oled_ssd130x.h ****         transport_.SendCommand(0x8F);
 346:Display/../../libs/PoliTeKDSP/libs/libDaisy/src/dev/oled_ssd130x.h ****         // Pre Charge
 347:Display/../../libs/PoliTeKDSP/libs/libDaisy/src/dev/oled_ssd130x.h ****         transport_.SendCommand(0xD9);
 348:Display/../../libs/PoliTeKDSP/libs/libDaisy/src/dev/oled_ssd130x.h ****         transport_.SendCommand(0x25);
 349:Display/../../libs/PoliTeKDSP/libs/libDaisy/src/dev/oled_ssd130x.h ****         // VCOM Detect
 350:Display/../../libs/PoliTeKDSP/libs/libDaisy/src/dev/oled_ssd130x.h ****         transport_.SendCommand(0xDB);
 351:Display/../../libs/PoliTeKDSP/libs/libDaisy/src/dev/oled_ssd130x.h ****         transport_.SendCommand(0x34);
 352:Display/../../libs/PoliTeKDSP/libs/libDaisy/src/dev/oled_ssd130x.h **** 
 353:Display/../../libs/PoliTeKDSP/libs/libDaisy/src/dev/oled_ssd130x.h **** 
 354:Display/../../libs/PoliTeKDSP/libs/libDaisy/src/dev/oled_ssd130x.h ****         // Display On
 355:Display/../../libs/PoliTeKDSP/libs/libDaisy/src/dev/oled_ssd130x.h ****         transport_.SendCommand(0xAF); //--turn on oled panel
 356:Display/../../libs/PoliTeKDSP/libs/libDaisy/src/dev/oled_ssd130x.h ****     };
 357:Display/../../libs/PoliTeKDSP/libs/libDaisy/src/dev/oled_ssd130x.h **** 
 358:Display/../../libs/PoliTeKDSP/libs/libDaisy/src/dev/oled_ssd130x.h ****     size_t Width() const { return width; };
 359:Display/../../libs/PoliTeKDSP/libs/libDaisy/src/dev/oled_ssd130x.h ****     size_t Height() const { return height; };
 360:Display/../../libs/PoliTeKDSP/libs/libDaisy/src/dev/oled_ssd130x.h **** 
 361:Display/../../libs/PoliTeKDSP/libs/libDaisy/src/dev/oled_ssd130x.h ****     void DrawPixel(uint_fast8_t x, uint_fast8_t y, bool on)
 362:Display/../../libs/PoliTeKDSP/libs/libDaisy/src/dev/oled_ssd130x.h ****     {
 363:Display/../../libs/PoliTeKDSP/libs/libDaisy/src/dev/oled_ssd130x.h ****         if(x >= width || y >= height)
 364:Display/../../libs/PoliTeKDSP/libs/libDaisy/src/dev/oled_ssd130x.h ****             return;
 365:Display/../../libs/PoliTeKDSP/libs/libDaisy/src/dev/oled_ssd130x.h ****         if(on)
 366:Display/../../libs/PoliTeKDSP/libs/libDaisy/src/dev/oled_ssd130x.h ****             buffer_[x + (y / 8) * width] |= (1 << (y % 8));
 367:Display/../../libs/PoliTeKDSP/libs/libDaisy/src/dev/oled_ssd130x.h ****         else
 368:Display/../../libs/PoliTeKDSP/libs/libDaisy/src/dev/oled_ssd130x.h ****             buffer_[x + (y / 8) * width] &= ~(1 << (y % 8));
 369:Display/../../libs/PoliTeKDSP/libs/libDaisy/src/dev/oled_ssd130x.h ****     }
 370:Display/../../libs/PoliTeKDSP/libs/libDaisy/src/dev/oled_ssd130x.h **** 
 371:Display/../../libs/PoliTeKDSP/libs/libDaisy/src/dev/oled_ssd130x.h ****     void Fill(bool on)
  38              		.loc 2 371 10 view .LVU1
  39              	.LBB16:
 372:Display/../../libs/PoliTeKDSP/libs/libDaisy/src/dev/oled_ssd130x.h ****     {
 373:Display/../../libs/PoliTeKDSP/libs/libDaisy/src/dev/oled_ssd130x.h ****         for(size_t i = 0; i < sizeof(buffer_); i++)
  40              		.loc 2 373 29 view .LVU2
 374:Display/../../libs/PoliTeKDSP/libs/libDaisy/src/dev/oled_ssd130x.h ****         {
 375:Display/../../libs/PoliTeKDSP/libs/libDaisy/src/dev/oled_ssd130x.h ****             buffer_[i] = on ? 0xff : 0x00;
  41              		.loc 2 375 24 is_stmt 0 view .LVU3
  42 0000 4942     		rsbs	r1, r1, #0
  43              	.LVL1:
  44              		.loc 2 375 24 view .LVU4
  45 0002 4FF48062 		mov	r2, #1024
  46 0006 1030     		adds	r0, r0, #16
  47              	.LVL2:
  48              		.loc 2 375 24 view .LVU5
ARM GAS  C:\Users\skipi\AppData\Local\Temp\ccerdDJR.s 			page 9


  49 0008 C9B2     		uxtb	r1, r1
  50 000a FFF7FEBF 		b	memset
  51              	.LVL3:
  52              		.loc 2 375 24 view .LVU6
  53              	.LBE16:
  54              	.LBE15:
  55              		.cfi_endproc
  56              	.LFE2808:
  58 000e 00BF     		.section	.text._ZN5daisy11OledDisplayINS_13SSD130xDriverILj128ELj64ENS_19SSD130xI2CTransportEEEE6U
  59              		.align	1
  60              		.p2align 2,,3
  61              		.weak	_ZN5daisy11OledDisplayINS_13SSD130xDriverILj128ELj64ENS_19SSD130xI2CTransportEEEE6UpdateEv
  62              		.syntax unified
  63              		.thumb
  64              		.thumb_func
  65              		.fpu fpv5-d16
  67              	_ZN5daisy11OledDisplayINS_13SSD130xDriverILj128ELj64ENS_19SSD130xI2CTransportEEEE6UpdateEv:
  68              	.LVL4:
  69              	.LFB2807:
  35:Display/../../libs/PoliTeKDSP/libs/libDaisy/src/hid/disp/oled_display.h **** 
  36:Display/../../libs/PoliTeKDSP/libs/libDaisy/src/hid/disp/oled_display.h ****     /**
  37:Display/../../libs/PoliTeKDSP/libs/libDaisy/src/hid/disp/oled_display.h ****     Sets the pixel at the specified coordinate to be on/off.
  38:Display/../../libs/PoliTeKDSP/libs/libDaisy/src/hid/disp/oled_display.h ****     \param x   x Coordinate
  39:Display/../../libs/PoliTeKDSP/libs/libDaisy/src/hid/disp/oled_display.h ****     \param y   y coordinate
  40:Display/../../libs/PoliTeKDSP/libs/libDaisy/src/hid/disp/oled_display.h ****     \param on  on or off
  41:Display/../../libs/PoliTeKDSP/libs/libDaisy/src/hid/disp/oled_display.h ****     */
  42:Display/../../libs/PoliTeKDSP/libs/libDaisy/src/hid/disp/oled_display.h ****     void DrawPixel(uint_fast8_t x, uint_fast8_t y, bool on) override
  43:Display/../../libs/PoliTeKDSP/libs/libDaisy/src/hid/disp/oled_display.h ****     {
  44:Display/../../libs/PoliTeKDSP/libs/libDaisy/src/hid/disp/oled_display.h ****         driver_.DrawPixel(x, y, on);
  45:Display/../../libs/PoliTeKDSP/libs/libDaisy/src/hid/disp/oled_display.h ****     }
  46:Display/../../libs/PoliTeKDSP/libs/libDaisy/src/hid/disp/oled_display.h **** 
  47:Display/../../libs/PoliTeKDSP/libs/libDaisy/src/hid/disp/oled_display.h ****     /** 
  48:Display/../../libs/PoliTeKDSP/libs/libDaisy/src/hid/disp/oled_display.h ****     Writes the current display buffer to the OLED device using SPI or I2C depending on 
  49:Display/../../libs/PoliTeKDSP/libs/libDaisy/src/hid/disp/oled_display.h ****     how the object was initialized.
  50:Display/../../libs/PoliTeKDSP/libs/libDaisy/src/hid/disp/oled_display.h ****     */
  51:Display/../../libs/PoliTeKDSP/libs/libDaisy/src/hid/disp/oled_display.h ****     void Update() override { driver_.Update(); }
  70              		.loc 1 51 10 is_stmt 1 view -0
  71              		.cfi_startproc
  72              		@ args = 0, pretend = 0, frame = 8
  73              		@ frame_needed = 0, uses_anonymous_args = 0
  74              		.loc 1 51 10 is_stmt 0 view .LVU8
  75 0000 2DE9F04F 		push	{r4, r5, r6, r7, r8, r9, r10, fp, lr}
  76              		.cfi_def_cfa_offset 36
  77              		.cfi_offset 4, -36
  78              		.cfi_offset 5, -32
  79              		.cfi_offset 6, -28
  80              		.cfi_offset 7, -24
  81              		.cfi_offset 8, -20
  82              		.cfi_offset 9, -16
  83              		.cfi_offset 10, -12
  84              		.cfi_offset 11, -8
  85              		.cfi_offset 14, -4
  86              	.LBB29:
  87              	.LBB30:
  88              	.LBB31:
  89              	.LBB32:
  46:Display/../../libs/PoliTeKDSP/libs/libDaisy/src/dev/oled_ssd130x.h ****     };
ARM GAS  C:\Users\skipi\AppData\Local\Temp\ccerdDJR.s 			page 10


  90              		.loc 2 46 30 view .LVU9
  91 0004 4FF0B008 		mov	r8, #176
  92              	.LBE32:
  93              	.LBE31:
  94              	.LBE30:
  95              	.LBE29:
  96              		.loc 1 51 10 view .LVU10
  97 0008 85B0     		sub	sp, sp, #20
  98              		.cfi_def_cfa_offset 56
  99              		.loc 1 51 10 view .LVU11
 100 000a 0546     		mov	r5, r0
 101              	.LVL5:
 102              	.LBB44:
 103              	.LBI29:
 376:Display/../../libs/PoliTeKDSP/libs/libDaisy/src/dev/oled_ssd130x.h ****         }
 377:Display/../../libs/PoliTeKDSP/libs/libDaisy/src/dev/oled_ssd130x.h ****     };
 378:Display/../../libs/PoliTeKDSP/libs/libDaisy/src/dev/oled_ssd130x.h **** 
 379:Display/../../libs/PoliTeKDSP/libs/libDaisy/src/dev/oled_ssd130x.h ****     /**
 380:Display/../../libs/PoliTeKDSP/libs/libDaisy/src/dev/oled_ssd130x.h ****      * Update the display
 381:Display/../../libs/PoliTeKDSP/libs/libDaisy/src/dev/oled_ssd130x.h ****     */
 382:Display/../../libs/PoliTeKDSP/libs/libDaisy/src/dev/oled_ssd130x.h ****     void Update()
 104              		.loc 2 382 10 is_stmt 1 view .LVU12
 105              	.LBB43:
 383:Display/../../libs/PoliTeKDSP/libs/libDaisy/src/dev/oled_ssd130x.h ****     {
 384:Display/../../libs/PoliTeKDSP/libs/libDaisy/src/dev/oled_ssd130x.h ****         uint8_t i;
 385:Display/../../libs/PoliTeKDSP/libs/libDaisy/src/dev/oled_ssd130x.h ****         uint8_t high_column_addr;
 386:Display/../../libs/PoliTeKDSP/libs/libDaisy/src/dev/oled_ssd130x.h ****         switch(height)
 387:Display/../../libs/PoliTeKDSP/libs/libDaisy/src/dev/oled_ssd130x.h ****         {
 388:Display/../../libs/PoliTeKDSP/libs/libDaisy/src/dev/oled_ssd130x.h ****             case 32: high_column_addr = 0x12; break;
 389:Display/../../libs/PoliTeKDSP/libs/libDaisy/src/dev/oled_ssd130x.h **** 
 390:Display/../../libs/PoliTeKDSP/libs/libDaisy/src/dev/oled_ssd130x.h ****             default: high_column_addr = 0x10; break;
 391:Display/../../libs/PoliTeKDSP/libs/libDaisy/src/dev/oled_ssd130x.h ****         }
 392:Display/../../libs/PoliTeKDSP/libs/libDaisy/src/dev/oled_ssd130x.h ****         for(i = 0; i < (height / 8); i++)
 106              		.loc 2 392 22 view .LVU13
 107              	.LBB35:
 108              	.LBB33:
  46:Display/../../libs/PoliTeKDSP/libs/libDaisy/src/dev/oled_ssd130x.h ****     };
 109              		.loc 2 46 30 is_stmt 0 view .LVU14
 110 000c 00F10807 		add	r7, r0, #8
 111              	.LVL6:
  46:Display/../../libs/PoliTeKDSP/libs/libDaisy/src/dev/oled_ssd130x.h ****     };
 112              		.loc 2 46 30 view .LVU15
 113 0010 00F18F06 		add	r6, r0, #143
 114 0014 00F28F49 		addw	r9, r0, #1167
 115              	.LVL7:
 116              	.L5:
  46:Display/../../libs/PoliTeKDSP/libs/libDaisy/src/dev/oled_ssd130x.h ****     };
 117              		.loc 2 46 30 view .LVU16
 118              	.LBE33:
 119              	.LBI31:
  43:Display/../../libs/PoliTeKDSP/libs/libDaisy/src/dev/oled_ssd130x.h ****     {
 120              		.loc 2 43 10 is_stmt 1 view .LVU17
 121              	.LBB34:
  45:Display/../../libs/PoliTeKDSP/libs/libDaisy/src/dev/oled_ssd130x.h ****         i2c_.TransmitBlocking(i2c_address_, buf, 2, 1000);
 122              		.loc 2 45 9 view .LVU18
  46:Display/../../libs/PoliTeKDSP/libs/libDaisy/src/dev/oled_ssd130x.h ****     };
 123              		.loc 2 46 30 is_stmt 0 view .LVU19
ARM GAS  C:\Users\skipi\AppData\Local\Temp\ccerdDJR.s 			page 11


 124 0018 4FF47A7B 		mov	fp, #1000
  45:Display/../../libs/PoliTeKDSP/libs/libDaisy/src/dev/oled_ssd130x.h ****         i2c_.TransmitBlocking(i2c_address_, buf, 2, 1000);
 125              		.loc 2 45 17 view .LVU20
 126 001c 4FF0000A 		mov	r10, #0
  46:Display/../../libs/PoliTeKDSP/libs/libDaisy/src/dev/oled_ssd130x.h ****     };
 127              		.loc 2 46 30 view .LVU21
 128 0020 297B     		ldrb	r1, [r5, #12]	@ zero_extendqisi2
 129 0022 0223     		movs	r3, #2
 130 0024 03AA     		add	r2, sp, #12
 131 0026 3846     		mov	r0, r7
 132 0028 CDF800B0 		str	fp, [sp]
 133 002c A6F18004 		sub	r4, r6, #128
  45:Display/../../libs/PoliTeKDSP/libs/libDaisy/src/dev/oled_ssd130x.h ****         i2c_.TransmitBlocking(i2c_address_, buf, 2, 1000);
 134              		.loc 2 45 17 view .LVU22
 135 0030 8DF80CA0 		strb	r10, [sp, #12]
  45:Display/../../libs/PoliTeKDSP/libs/libDaisy/src/dev/oled_ssd130x.h ****         i2c_.TransmitBlocking(i2c_address_, buf, 2, 1000);
 136              		.loc 2 45 36 view .LVU23
 137 0034 8DF80D80 		strb	r8, [sp, #13]
  46:Display/../../libs/PoliTeKDSP/libs/libDaisy/src/dev/oled_ssd130x.h ****     };
 138              		.loc 2 46 9 is_stmt 1 view .LVU24
  46:Display/../../libs/PoliTeKDSP/libs/libDaisy/src/dev/oled_ssd130x.h ****     };
 139              		.loc 2 46 30 is_stmt 0 view .LVU25
 140 0038 FFF7FEFF 		bl	_ZN5daisy9I2CHandle16TransmitBlockingEtPhtm
 141              	.LVL8:
  46:Display/../../libs/PoliTeKDSP/libs/libDaisy/src/dev/oled_ssd130x.h ****     };
 142              		.loc 2 46 30 view .LVU26
 143              	.LBE34:
 144              	.LBE35:
 145              	.LBB36:
 146              	.LBI36:
  43:Display/../../libs/PoliTeKDSP/libs/libDaisy/src/dev/oled_ssd130x.h ****     {
 147              		.loc 2 43 10 is_stmt 1 view .LVU27
 148              	.LBB37:
  45:Display/../../libs/PoliTeKDSP/libs/libDaisy/src/dev/oled_ssd130x.h ****         i2c_.TransmitBlocking(i2c_address_, buf, 2, 1000);
 149              		.loc 2 45 9 view .LVU28
  46:Display/../../libs/PoliTeKDSP/libs/libDaisy/src/dev/oled_ssd130x.h ****     };
 150              		.loc 2 46 30 is_stmt 0 view .LVU29
 151 003c 297B     		ldrb	r1, [r5, #12]	@ zero_extendqisi2
 152 003e 0223     		movs	r3, #2
 153 0040 03AA     		add	r2, sp, #12
 154 0042 3846     		mov	r0, r7
 155 0044 CDF800B0 		str	fp, [sp]
  45:Display/../../libs/PoliTeKDSP/libs/libDaisy/src/dev/oled_ssd130x.h ****         i2c_.TransmitBlocking(i2c_address_, buf, 2, 1000);
 156              		.loc 2 45 17 view .LVU30
 157 0048 8DF80CA0 		strb	r10, [sp, #12]
  45:Display/../../libs/PoliTeKDSP/libs/libDaisy/src/dev/oled_ssd130x.h ****         i2c_.TransmitBlocking(i2c_address_, buf, 2, 1000);
 158              		.loc 2 45 36 view .LVU31
 159 004c 8DF80DA0 		strb	r10, [sp, #13]
  46:Display/../../libs/PoliTeKDSP/libs/libDaisy/src/dev/oled_ssd130x.h ****     };
 160              		.loc 2 46 9 is_stmt 1 view .LVU32
  46:Display/../../libs/PoliTeKDSP/libs/libDaisy/src/dev/oled_ssd130x.h ****     };
 161              		.loc 2 46 30 is_stmt 0 view .LVU33
 162 0050 FFF7FEFF 		bl	_ZN5daisy9I2CHandle16TransmitBlockingEtPhtm
 163              	.LVL9:
  46:Display/../../libs/PoliTeKDSP/libs/libDaisy/src/dev/oled_ssd130x.h ****     };
 164              		.loc 2 46 30 view .LVU34
 165              	.LBE37:
ARM GAS  C:\Users\skipi\AppData\Local\Temp\ccerdDJR.s 			page 12


 166              	.LBE36:
 167              	.LBB38:
 168              	.LBI38:
  43:Display/../../libs/PoliTeKDSP/libs/libDaisy/src/dev/oled_ssd130x.h ****     {
 169              		.loc 2 43 10 is_stmt 1 view .LVU35
 170              	.LBB39:
  45:Display/../../libs/PoliTeKDSP/libs/libDaisy/src/dev/oled_ssd130x.h ****         i2c_.TransmitBlocking(i2c_address_, buf, 2, 1000);
 171              		.loc 2 45 9 view .LVU36
  45:Display/../../libs/PoliTeKDSP/libs/libDaisy/src/dev/oled_ssd130x.h ****         i2c_.TransmitBlocking(i2c_address_, buf, 2, 1000);
 172              		.loc 2 45 36 is_stmt 0 view .LVU37
 173 0054 4FF0100C 		mov	ip, #16
  46:Display/../../libs/PoliTeKDSP/libs/libDaisy/src/dev/oled_ssd130x.h ****     };
 174              		.loc 2 46 30 view .LVU38
 175 0058 297B     		ldrb	r1, [r5, #12]	@ zero_extendqisi2
 176 005a 0223     		movs	r3, #2
 177 005c 03AA     		add	r2, sp, #12
 178 005e 3846     		mov	r0, r7
 179 0060 CDF800B0 		str	fp, [sp]
  45:Display/../../libs/PoliTeKDSP/libs/libDaisy/src/dev/oled_ssd130x.h ****         i2c_.TransmitBlocking(i2c_address_, buf, 2, 1000);
 180              		.loc 2 45 17 view .LVU39
 181 0064 8DF80CA0 		strb	r10, [sp, #12]
  45:Display/../../libs/PoliTeKDSP/libs/libDaisy/src/dev/oled_ssd130x.h ****         i2c_.TransmitBlocking(i2c_address_, buf, 2, 1000);
 182              		.loc 2 45 36 view .LVU40
 183 0068 8DF80DC0 		strb	ip, [sp, #13]
  46:Display/../../libs/PoliTeKDSP/libs/libDaisy/src/dev/oled_ssd130x.h ****     };
 184              		.loc 2 46 9 is_stmt 1 view .LVU41
  46:Display/../../libs/PoliTeKDSP/libs/libDaisy/src/dev/oled_ssd130x.h ****     };
 185              		.loc 2 46 30 is_stmt 0 view .LVU42
 186 006c FFF7FEFF 		bl	_ZN5daisy9I2CHandle16TransmitBlockingEtPhtm
 187              	.LVL10:
  46:Display/../../libs/PoliTeKDSP/libs/libDaisy/src/dev/oled_ssd130x.h ****     };
 188              		.loc 2 46 30 view .LVU43
 189              	.LBE39:
 190              	.LBE38:
 191              	.LBB40:
 192              	.LBI40:
  49:Display/../../libs/PoliTeKDSP/libs/libDaisy/src/dev/oled_ssd130x.h ****     {
 193              		.loc 2 49 10 is_stmt 1 view .LVU44
 194              	.LBB41:
  51:Display/../../libs/PoliTeKDSP/libs/libDaisy/src/dev/oled_ssd130x.h ****         {
 195              		.loc 2 51 29 view .LVU45
 196              	.L4:
 197              	.LBB42:
  53:Display/../../libs/PoliTeKDSP/libs/libDaisy/src/dev/oled_ssd130x.h ****             i2c_.TransmitBlocking(i2c_address_, buf, 2, 1000);
 198              		.loc 2 53 13 view .LVU46
  54:Display/../../libs/PoliTeKDSP/libs/libDaisy/src/dev/oled_ssd130x.h ****         }
 199              		.loc 2 54 34 is_stmt 0 view .LVU47
 200 0070 4FF47A70 		mov	r0, #1000
  53:Display/../../libs/PoliTeKDSP/libs/libDaisy/src/dev/oled_ssd130x.h ****             i2c_.TransmitBlocking(i2c_address_, buf, 2, 1000);
 201              		.loc 2 53 44 view .LVU48
 202 0074 14F801CF 		ldrb	ip, [r4, #1]!	@ zero_extendqisi2
 203              	.LVL11:
  53:Display/../../libs/PoliTeKDSP/libs/libDaisy/src/dev/oled_ssd130x.h ****             i2c_.TransmitBlocking(i2c_address_, buf, 2, 1000);
 204              		.loc 2 53 21 view .LVU49
 205 0078 4FF0400E 		mov	lr, #64
  54:Display/../../libs/PoliTeKDSP/libs/libDaisy/src/dev/oled_ssd130x.h ****         }
 206              		.loc 2 54 34 view .LVU50
ARM GAS  C:\Users\skipi\AppData\Local\Temp\ccerdDJR.s 			page 13


 207 007c 297B     		ldrb	r1, [r5, #12]	@ zero_extendqisi2
 208 007e 0223     		movs	r3, #2
 209 0080 0090     		str	r0, [sp]
 210 0082 03AA     		add	r2, sp, #12
 211 0084 3846     		mov	r0, r7
  53:Display/../../libs/PoliTeKDSP/libs/libDaisy/src/dev/oled_ssd130x.h ****             i2c_.TransmitBlocking(i2c_address_, buf, 2, 1000);
 212              		.loc 2 53 21 view .LVU51
 213 0086 8DF80CE0 		strb	lr, [sp, #12]
  53:Display/../../libs/PoliTeKDSP/libs/libDaisy/src/dev/oled_ssd130x.h ****             i2c_.TransmitBlocking(i2c_address_, buf, 2, 1000);
 214              		.loc 2 53 44 view .LVU52
 215 008a 8DF80DC0 		strb	ip, [sp, #13]
  54:Display/../../libs/PoliTeKDSP/libs/libDaisy/src/dev/oled_ssd130x.h ****         }
 216              		.loc 2 54 13 is_stmt 1 view .LVU53
  54:Display/../../libs/PoliTeKDSP/libs/libDaisy/src/dev/oled_ssd130x.h ****         }
 217              		.loc 2 54 34 is_stmt 0 view .LVU54
 218 008e FFF7FEFF 		bl	_ZN5daisy9I2CHandle16TransmitBlockingEtPhtm
 219              	.LVL12:
 220              	.LBE42:
  51:Display/../../libs/PoliTeKDSP/libs/libDaisy/src/dev/oled_ssd130x.h ****         {
 221              		.loc 2 51 9 is_stmt 1 view .LVU55
  51:Display/../../libs/PoliTeKDSP/libs/libDaisy/src/dev/oled_ssd130x.h ****         {
 222              		.loc 2 51 29 view .LVU56
 223 0092 B442     		cmp	r4, r6
 224 0094 ECD1     		bne	.L4
 225              	.LVL13:
  51:Display/../../libs/PoliTeKDSP/libs/libDaisy/src/dev/oled_ssd130x.h ****         {
 226              		.loc 2 51 29 is_stmt 0 view .LVU57
 227              	.LBE41:
 228              	.LBE40:
 229              		.loc 2 392 9 is_stmt 1 view .LVU58
 230              		.loc 2 392 22 view .LVU59
 231 0096 04F18006 		add	r6, r4, #128
 232 009a 08F10108 		add	r8, r8, #1
 233              	.LVL14:
 234              		.loc 2 392 22 is_stmt 0 view .LVU60
 235 009e 4E45     		cmp	r6, r9
 236 00a0 5FFA88F8 		uxtb	r8, r8
 237 00a4 B8D1     		bne	.L5
 238              	.LBE43:
 239              	.LBE44:
 240              		.loc 1 51 48 view .LVU61
 241 00a6 05B0     		add	sp, sp, #20
 242              		.cfi_def_cfa_offset 36
 243              		@ sp needed
 244 00a8 BDE8F08F 		pop	{r4, r5, r6, r7, r8, r9, r10, fp, pc}
 245              		.loc 1 51 48 view .LVU62
 246              		.cfi_endproc
 247              	.LFE2807:
 249              		.section	.text._ZN5daisy25OneBitGraphicsDisplayImplINS_11OledDisplayINS_13SSD130xDriverILj128ELj64
 250              		.align	1
 251              		.p2align 2,,3
 252              		.weak	_ZN5daisy25OneBitGraphicsDisplayImplINS_11OledDisplayINS_13SSD130xDriverILj128ELj64ENS_19SSD
 253              		.syntax unified
 254              		.thumb
 255              		.thumb_func
 256              		.fpu fpv5-d16
 258              	_ZN5daisy25OneBitGraphicsDisplayImplINS_11OledDisplayINS_13SSD130xDriverILj128ELj64ENS_19SSD130xI2C
ARM GAS  C:\Users\skipi\AppData\Local\Temp\ccerdDJR.s 			page 14


 259              	.LVL15:
 260              	.LFB2809:
 261              		.file 3 "Display/../../libs/PoliTeKDSP/libs/libDaisy/src/hid/disp/display.h"
   1:Display/../../libs/PoliTeKDSP/libs/libDaisy/src/hid/disp/display.h **** #pragma once
   2:Display/../../libs/PoliTeKDSP/libs/libDaisy/src/hid/disp/display.h **** #ifndef DSY_DISPLAY_H
   3:Display/../../libs/PoliTeKDSP/libs/libDaisy/src/hid/disp/display.h **** #define DSY_DISPLAY_H /**< Macro */
   4:Display/../../libs/PoliTeKDSP/libs/libDaisy/src/hid/disp/display.h **** #include <cmath>
   5:Display/../../libs/PoliTeKDSP/libs/libDaisy/src/hid/disp/display.h **** #include "util/oled_fonts.h"
   6:Display/../../libs/PoliTeKDSP/libs/libDaisy/src/hid/disp/display.h **** #include "daisy_core.h"
   7:Display/../../libs/PoliTeKDSP/libs/libDaisy/src/hid/disp/display.h **** #include "graphics_common.h"
   8:Display/../../libs/PoliTeKDSP/libs/libDaisy/src/hid/disp/display.h **** 
   9:Display/../../libs/PoliTeKDSP/libs/libDaisy/src/hid/disp/display.h **** #ifndef deg2rad
  10:Display/../../libs/PoliTeKDSP/libs/libDaisy/src/hid/disp/display.h **** #define deg2rad(deg) ((deg)*3.141592 / 180.0)
  11:Display/../../libs/PoliTeKDSP/libs/libDaisy/src/hid/disp/display.h **** #endif
  12:Display/../../libs/PoliTeKDSP/libs/libDaisy/src/hid/disp/display.h **** 
  13:Display/../../libs/PoliTeKDSP/libs/libDaisy/src/hid/disp/display.h **** namespace daisy
  14:Display/../../libs/PoliTeKDSP/libs/libDaisy/src/hid/disp/display.h **** {
  15:Display/../../libs/PoliTeKDSP/libs/libDaisy/src/hid/disp/display.h **** /** 
  16:Display/../../libs/PoliTeKDSP/libs/libDaisy/src/hid/disp/display.h ****  * This interface is used as a base class for all types of 1bit-per-pixel
  17:Display/../../libs/PoliTeKDSP/libs/libDaisy/src/hid/disp/display.h ****  * graphics displays.
  18:Display/../../libs/PoliTeKDSP/libs/libDaisy/src/hid/disp/display.h **** */
  19:Display/../../libs/PoliTeKDSP/libs/libDaisy/src/hid/disp/display.h **** class OneBitGraphicsDisplay
  20:Display/../../libs/PoliTeKDSP/libs/libDaisy/src/hid/disp/display.h **** {
  21:Display/../../libs/PoliTeKDSP/libs/libDaisy/src/hid/disp/display.h ****   public:
  22:Display/../../libs/PoliTeKDSP/libs/libDaisy/src/hid/disp/display.h ****     OneBitGraphicsDisplay() {}
  23:Display/../../libs/PoliTeKDSP/libs/libDaisy/src/hid/disp/display.h ****     virtual ~OneBitGraphicsDisplay() {}
  24:Display/../../libs/PoliTeKDSP/libs/libDaisy/src/hid/disp/display.h **** 
  25:Display/../../libs/PoliTeKDSP/libs/libDaisy/src/hid/disp/display.h ****     virtual uint16_t Height() const = 0;
  26:Display/../../libs/PoliTeKDSP/libs/libDaisy/src/hid/disp/display.h ****     virtual uint16_t Width() const  = 0;
  27:Display/../../libs/PoliTeKDSP/libs/libDaisy/src/hid/disp/display.h **** 
  28:Display/../../libs/PoliTeKDSP/libs/libDaisy/src/hid/disp/display.h ****     Rectangle GetBounds() const
  29:Display/../../libs/PoliTeKDSP/libs/libDaisy/src/hid/disp/display.h ****     {
  30:Display/../../libs/PoliTeKDSP/libs/libDaisy/src/hid/disp/display.h ****         return Rectangle(int16_t(Width()), int16_t(Height()));
  31:Display/../../libs/PoliTeKDSP/libs/libDaisy/src/hid/disp/display.h ****     }
  32:Display/../../libs/PoliTeKDSP/libs/libDaisy/src/hid/disp/display.h **** 
  33:Display/../../libs/PoliTeKDSP/libs/libDaisy/src/hid/disp/display.h **** 
  34:Display/../../libs/PoliTeKDSP/libs/libDaisy/src/hid/disp/display.h ****     size_t CurrentX() { return currentX_; };
  35:Display/../../libs/PoliTeKDSP/libs/libDaisy/src/hid/disp/display.h ****     size_t CurrentY() { return currentY_; };
  36:Display/../../libs/PoliTeKDSP/libs/libDaisy/src/hid/disp/display.h **** 
  37:Display/../../libs/PoliTeKDSP/libs/libDaisy/src/hid/disp/display.h ****     /** 
  38:Display/../../libs/PoliTeKDSP/libs/libDaisy/src/hid/disp/display.h ****     Fills the entire display with either on/off.
  39:Display/../../libs/PoliTeKDSP/libs/libDaisy/src/hid/disp/display.h ****     \param on Sets on or off.
  40:Display/../../libs/PoliTeKDSP/libs/libDaisy/src/hid/disp/display.h ****     */
  41:Display/../../libs/PoliTeKDSP/libs/libDaisy/src/hid/disp/display.h ****     virtual void Fill(bool on) = 0;
  42:Display/../../libs/PoliTeKDSP/libs/libDaisy/src/hid/disp/display.h **** 
  43:Display/../../libs/PoliTeKDSP/libs/libDaisy/src/hid/disp/display.h ****     /**
  44:Display/../../libs/PoliTeKDSP/libs/libDaisy/src/hid/disp/display.h ****     Sets the pixel at the specified coordinate to be on/off.
  45:Display/../../libs/PoliTeKDSP/libs/libDaisy/src/hid/disp/display.h ****     \param x   x Coordinate
  46:Display/../../libs/PoliTeKDSP/libs/libDaisy/src/hid/disp/display.h ****     \param y   y coordinate
  47:Display/../../libs/PoliTeKDSP/libs/libDaisy/src/hid/disp/display.h ****     \param on  on or off
  48:Display/../../libs/PoliTeKDSP/libs/libDaisy/src/hid/disp/display.h ****     */
  49:Display/../../libs/PoliTeKDSP/libs/libDaisy/src/hid/disp/display.h ****     virtual void DrawPixel(uint_fast8_t x, uint_fast8_t y, bool on) = 0;
  50:Display/../../libs/PoliTeKDSP/libs/libDaisy/src/hid/disp/display.h **** 
  51:Display/../../libs/PoliTeKDSP/libs/libDaisy/src/hid/disp/display.h ****     /**
  52:Display/../../libs/PoliTeKDSP/libs/libDaisy/src/hid/disp/display.h ****     Draws a line from (x1, y1) to (y1, y2)
  53:Display/../../libs/PoliTeKDSP/libs/libDaisy/src/hid/disp/display.h ****     \param x1  x Coordinate of the starting point
  54:Display/../../libs/PoliTeKDSP/libs/libDaisy/src/hid/disp/display.h ****     \param y1  y Coordinate of the starting point
ARM GAS  C:\Users\skipi\AppData\Local\Temp\ccerdDJR.s 			page 15


  55:Display/../../libs/PoliTeKDSP/libs/libDaisy/src/hid/disp/display.h ****     \param x2  x Coordinate of the ending point
  56:Display/../../libs/PoliTeKDSP/libs/libDaisy/src/hid/disp/display.h ****     \param y2  y Coordinate of the ending point
  57:Display/../../libs/PoliTeKDSP/libs/libDaisy/src/hid/disp/display.h ****     \param on  on or off
  58:Display/../../libs/PoliTeKDSP/libs/libDaisy/src/hid/disp/display.h ****     */
  59:Display/../../libs/PoliTeKDSP/libs/libDaisy/src/hid/disp/display.h ****     virtual void DrawLine(uint_fast8_t x1,
  60:Display/../../libs/PoliTeKDSP/libs/libDaisy/src/hid/disp/display.h ****                           uint_fast8_t y1,
  61:Display/../../libs/PoliTeKDSP/libs/libDaisy/src/hid/disp/display.h ****                           uint_fast8_t x2,
  62:Display/../../libs/PoliTeKDSP/libs/libDaisy/src/hid/disp/display.h ****                           uint_fast8_t y2,
  63:Display/../../libs/PoliTeKDSP/libs/libDaisy/src/hid/disp/display.h ****                           bool         on)
  64:Display/../../libs/PoliTeKDSP/libs/libDaisy/src/hid/disp/display.h ****         = 0;
  65:Display/../../libs/PoliTeKDSP/libs/libDaisy/src/hid/disp/display.h **** 
  66:Display/../../libs/PoliTeKDSP/libs/libDaisy/src/hid/disp/display.h ****     /**
  67:Display/../../libs/PoliTeKDSP/libs/libDaisy/src/hid/disp/display.h ****     Draws a rectangle based on two coordinates.
  68:Display/../../libs/PoliTeKDSP/libs/libDaisy/src/hid/disp/display.h ****     \param x1 x Coordinate of the first point
  69:Display/../../libs/PoliTeKDSP/libs/libDaisy/src/hid/disp/display.h ****     \param y1 y Coordinate of the first point
  70:Display/../../libs/PoliTeKDSP/libs/libDaisy/src/hid/disp/display.h ****     \param x2 x Coordinate of the second point
  71:Display/../../libs/PoliTeKDSP/libs/libDaisy/src/hid/disp/display.h ****     \param y2 y Coordinate of the second point
  72:Display/../../libs/PoliTeKDSP/libs/libDaisy/src/hid/disp/display.h ****     \param on on or off
  73:Display/../../libs/PoliTeKDSP/libs/libDaisy/src/hid/disp/display.h ****     \param fill fill the rectangle or draw only the outline
  74:Display/../../libs/PoliTeKDSP/libs/libDaisy/src/hid/disp/display.h ****     */
  75:Display/../../libs/PoliTeKDSP/libs/libDaisy/src/hid/disp/display.h ****     virtual void DrawRect(uint_fast8_t x1,
  76:Display/../../libs/PoliTeKDSP/libs/libDaisy/src/hid/disp/display.h ****                           uint_fast8_t y1,
  77:Display/../../libs/PoliTeKDSP/libs/libDaisy/src/hid/disp/display.h ****                           uint_fast8_t x2,
  78:Display/../../libs/PoliTeKDSP/libs/libDaisy/src/hid/disp/display.h ****                           uint_fast8_t y2,
  79:Display/../../libs/PoliTeKDSP/libs/libDaisy/src/hid/disp/display.h ****                           bool         on,
  80:Display/../../libs/PoliTeKDSP/libs/libDaisy/src/hid/disp/display.h ****                           bool         fill = false)
  81:Display/../../libs/PoliTeKDSP/libs/libDaisy/src/hid/disp/display.h ****         = 0;
  82:Display/../../libs/PoliTeKDSP/libs/libDaisy/src/hid/disp/display.h **** 
  83:Display/../../libs/PoliTeKDSP/libs/libDaisy/src/hid/disp/display.h ****     /**
  84:Display/../../libs/PoliTeKDSP/libs/libDaisy/src/hid/disp/display.h ****     Draws a rectangle.
  85:Display/../../libs/PoliTeKDSP/libs/libDaisy/src/hid/disp/display.h ****     \param rect the rectangle
  86:Display/../../libs/PoliTeKDSP/libs/libDaisy/src/hid/disp/display.h ****     \param on   on or off
  87:Display/../../libs/PoliTeKDSP/libs/libDaisy/src/hid/disp/display.h ****     \param fill fill the rectangle or draw only the outline
  88:Display/../../libs/PoliTeKDSP/libs/libDaisy/src/hid/disp/display.h ****     */
  89:Display/../../libs/PoliTeKDSP/libs/libDaisy/src/hid/disp/display.h ****     void DrawRect(const Rectangle& rect, bool on, bool fill = false)
  90:Display/../../libs/PoliTeKDSP/libs/libDaisy/src/hid/disp/display.h ****     {
  91:Display/../../libs/PoliTeKDSP/libs/libDaisy/src/hid/disp/display.h ****         DrawRect(rect.GetX(),
  92:Display/../../libs/PoliTeKDSP/libs/libDaisy/src/hid/disp/display.h ****                  rect.GetY(),
  93:Display/../../libs/PoliTeKDSP/libs/libDaisy/src/hid/disp/display.h ****                  rect.GetRight(),
  94:Display/../../libs/PoliTeKDSP/libs/libDaisy/src/hid/disp/display.h ****                  rect.GetBottom(),
  95:Display/../../libs/PoliTeKDSP/libs/libDaisy/src/hid/disp/display.h ****                  on,
  96:Display/../../libs/PoliTeKDSP/libs/libDaisy/src/hid/disp/display.h ****                  fill);
  97:Display/../../libs/PoliTeKDSP/libs/libDaisy/src/hid/disp/display.h ****     }
  98:Display/../../libs/PoliTeKDSP/libs/libDaisy/src/hid/disp/display.h **** 
  99:Display/../../libs/PoliTeKDSP/libs/libDaisy/src/hid/disp/display.h ****     /**
 100:Display/../../libs/PoliTeKDSP/libs/libDaisy/src/hid/disp/display.h ****     Draws an arc around the specified coordinate
 101:Display/../../libs/PoliTeKDSP/libs/libDaisy/src/hid/disp/display.h ****     \param x           x Coordinate of the center of the arc
 102:Display/../../libs/PoliTeKDSP/libs/libDaisy/src/hid/disp/display.h ****     \param y           y Coordinate of the center of the arc
 103:Display/../../libs/PoliTeKDSP/libs/libDaisy/src/hid/disp/display.h ****     \param radius      radius of the arc
 104:Display/../../libs/PoliTeKDSP/libs/libDaisy/src/hid/disp/display.h ****     \param start_angle angle where to start the arc
 105:Display/../../libs/PoliTeKDSP/libs/libDaisy/src/hid/disp/display.h ****     \param sweep       total angle of the arc
 106:Display/../../libs/PoliTeKDSP/libs/libDaisy/src/hid/disp/display.h ****     \param on  on or off
 107:Display/../../libs/PoliTeKDSP/libs/libDaisy/src/hid/disp/display.h ****     */
 108:Display/../../libs/PoliTeKDSP/libs/libDaisy/src/hid/disp/display.h ****     virtual void DrawArc(uint_fast8_t x,
 109:Display/../../libs/PoliTeKDSP/libs/libDaisy/src/hid/disp/display.h ****                          uint_fast8_t y,
 110:Display/../../libs/PoliTeKDSP/libs/libDaisy/src/hid/disp/display.h ****                          uint_fast8_t radius,
 111:Display/../../libs/PoliTeKDSP/libs/libDaisy/src/hid/disp/display.h ****                          int_fast16_t start_angle,
ARM GAS  C:\Users\skipi\AppData\Local\Temp\ccerdDJR.s 			page 16


 112:Display/../../libs/PoliTeKDSP/libs/libDaisy/src/hid/disp/display.h ****                          int_fast16_t sweep,
 113:Display/../../libs/PoliTeKDSP/libs/libDaisy/src/hid/disp/display.h ****                          bool         on)
 114:Display/../../libs/PoliTeKDSP/libs/libDaisy/src/hid/disp/display.h ****         = 0;
 115:Display/../../libs/PoliTeKDSP/libs/libDaisy/src/hid/disp/display.h **** 
 116:Display/../../libs/PoliTeKDSP/libs/libDaisy/src/hid/disp/display.h ****     /**
 117:Display/../../libs/PoliTeKDSP/libs/libDaisy/src/hid/disp/display.h ****     Draws a circle around the specified coordinate
 118:Display/../../libs/PoliTeKDSP/libs/libDaisy/src/hid/disp/display.h ****     \param x           x Coordinate of the center of the circle
 119:Display/../../libs/PoliTeKDSP/libs/libDaisy/src/hid/disp/display.h ****     \param y           y Coordinate of the center of the circle
 120:Display/../../libs/PoliTeKDSP/libs/libDaisy/src/hid/disp/display.h ****     \param radius      radius of the circle
 121:Display/../../libs/PoliTeKDSP/libs/libDaisy/src/hid/disp/display.h ****     \param on  on or off
 122:Display/../../libs/PoliTeKDSP/libs/libDaisy/src/hid/disp/display.h ****     */
 123:Display/../../libs/PoliTeKDSP/libs/libDaisy/src/hid/disp/display.h ****     void
 124:Display/../../libs/PoliTeKDSP/libs/libDaisy/src/hid/disp/display.h ****     DrawCircle(uint_fast8_t x, uint_fast8_t y, uint_fast8_t radius, bool on)
 125:Display/../../libs/PoliTeKDSP/libs/libDaisy/src/hid/disp/display.h ****     {
 126:Display/../../libs/PoliTeKDSP/libs/libDaisy/src/hid/disp/display.h ****         DrawArc(x, y, radius, 0, 360, on);
 127:Display/../../libs/PoliTeKDSP/libs/libDaisy/src/hid/disp/display.h ****     };
 128:Display/../../libs/PoliTeKDSP/libs/libDaisy/src/hid/disp/display.h **** 
 129:Display/../../libs/PoliTeKDSP/libs/libDaisy/src/hid/disp/display.h ****     /** 
 130:Display/../../libs/PoliTeKDSP/libs/libDaisy/src/hid/disp/display.h ****     Writes the character with the specific FontDef
 131:Display/../../libs/PoliTeKDSP/libs/libDaisy/src/hid/disp/display.h ****     to the display buffer at the current Cursor position.
 132:Display/../../libs/PoliTeKDSP/libs/libDaisy/src/hid/disp/display.h ****     \param ch character to be written
 133:Display/../../libs/PoliTeKDSP/libs/libDaisy/src/hid/disp/display.h ****     \param font font to be written in
 134:Display/../../libs/PoliTeKDSP/libs/libDaisy/src/hid/disp/display.h ****     \param on    on or off
 135:Display/../../libs/PoliTeKDSP/libs/libDaisy/src/hid/disp/display.h ****     \return &
 136:Display/../../libs/PoliTeKDSP/libs/libDaisy/src/hid/disp/display.h ****     */
 137:Display/../../libs/PoliTeKDSP/libs/libDaisy/src/hid/disp/display.h ****     virtual char WriteChar(char ch, FontDef font, bool on) = 0;
 138:Display/../../libs/PoliTeKDSP/libs/libDaisy/src/hid/disp/display.h **** 
 139:Display/../../libs/PoliTeKDSP/libs/libDaisy/src/hid/disp/display.h ****     /** 
 140:Display/../../libs/PoliTeKDSP/libs/libDaisy/src/hid/disp/display.h ****     Similar to WriteChar, except it will handle an entire String.
 141:Display/../../libs/PoliTeKDSP/libs/libDaisy/src/hid/disp/display.h ****     Wrapping does not happen automatically, so the width
 142:Display/../../libs/PoliTeKDSP/libs/libDaisy/src/hid/disp/display.h ****     of the string must be kept within the dimensions of the screen.
 143:Display/../../libs/PoliTeKDSP/libs/libDaisy/src/hid/disp/display.h ****     \param str string to be written
 144:Display/../../libs/PoliTeKDSP/libs/libDaisy/src/hid/disp/display.h ****     \param font font to use
 145:Display/../../libs/PoliTeKDSP/libs/libDaisy/src/hid/disp/display.h ****     \param on  on or off
 146:Display/../../libs/PoliTeKDSP/libs/libDaisy/src/hid/disp/display.h ****     \return &
 147:Display/../../libs/PoliTeKDSP/libs/libDaisy/src/hid/disp/display.h ****     */
 148:Display/../../libs/PoliTeKDSP/libs/libDaisy/src/hid/disp/display.h ****     virtual char WriteString(const char* str, FontDef font, bool on) = 0;
 149:Display/../../libs/PoliTeKDSP/libs/libDaisy/src/hid/disp/display.h **** 
 150:Display/../../libs/PoliTeKDSP/libs/libDaisy/src/hid/disp/display.h ****     /** 
 151:Display/../../libs/PoliTeKDSP/libs/libDaisy/src/hid/disp/display.h ****     Similar to WriteString but justified within a bounding box.
 152:Display/../../libs/PoliTeKDSP/libs/libDaisy/src/hid/disp/display.h ****     \param str          string to be written
 153:Display/../../libs/PoliTeKDSP/libs/libDaisy/src/hid/disp/display.h ****     \param font         font to use
 154:Display/../../libs/PoliTeKDSP/libs/libDaisy/src/hid/disp/display.h ****     \param boundingBox  the bounding box to draw the text in
 155:Display/../../libs/PoliTeKDSP/libs/libDaisy/src/hid/disp/display.h ****     \param alignment    the alignment to use
 156:Display/../../libs/PoliTeKDSP/libs/libDaisy/src/hid/disp/display.h ****     \param on           on or off
 157:Display/../../libs/PoliTeKDSP/libs/libDaisy/src/hid/disp/display.h ****     \return The rectangle that was drawn to
 158:Display/../../libs/PoliTeKDSP/libs/libDaisy/src/hid/disp/display.h ****     */
 159:Display/../../libs/PoliTeKDSP/libs/libDaisy/src/hid/disp/display.h ****     virtual Rectangle WriteStringAligned(const char*    str,
 160:Display/../../libs/PoliTeKDSP/libs/libDaisy/src/hid/disp/display.h ****                                          const FontDef& font,
 161:Display/../../libs/PoliTeKDSP/libs/libDaisy/src/hid/disp/display.h ****                                          Rectangle      boundingBox,
 162:Display/../../libs/PoliTeKDSP/libs/libDaisy/src/hid/disp/display.h ****                                          Alignment      alignment,
 163:Display/../../libs/PoliTeKDSP/libs/libDaisy/src/hid/disp/display.h ****                                          bool           on)
 164:Display/../../libs/PoliTeKDSP/libs/libDaisy/src/hid/disp/display.h ****         = 0;
 165:Display/../../libs/PoliTeKDSP/libs/libDaisy/src/hid/disp/display.h **** 
 166:Display/../../libs/PoliTeKDSP/libs/libDaisy/src/hid/disp/display.h ****     /** 
 167:Display/../../libs/PoliTeKDSP/libs/libDaisy/src/hid/disp/display.h ****     Moves the 'Cursor' position used for WriteChar, and WriteStr to the specified coordinate.
 168:Display/../../libs/PoliTeKDSP/libs/libDaisy/src/hid/disp/display.h ****     \param x x pos
ARM GAS  C:\Users\skipi\AppData\Local\Temp\ccerdDJR.s 			page 17


 169:Display/../../libs/PoliTeKDSP/libs/libDaisy/src/hid/disp/display.h ****     \param y y pos
 170:Display/../../libs/PoliTeKDSP/libs/libDaisy/src/hid/disp/display.h ****     */
 171:Display/../../libs/PoliTeKDSP/libs/libDaisy/src/hid/disp/display.h ****     void SetCursor(uint16_t x, uint16_t y)
 172:Display/../../libs/PoliTeKDSP/libs/libDaisy/src/hid/disp/display.h ****     {
 173:Display/../../libs/PoliTeKDSP/libs/libDaisy/src/hid/disp/display.h ****         currentX_ = (x >= Width()) ? Width() - 1 : x;
 174:Display/../../libs/PoliTeKDSP/libs/libDaisy/src/hid/disp/display.h ****         currentY_ = (y >= Height()) ? Height() - 1 : y;
 175:Display/../../libs/PoliTeKDSP/libs/libDaisy/src/hid/disp/display.h ****     }
 176:Display/../../libs/PoliTeKDSP/libs/libDaisy/src/hid/disp/display.h **** 
 177:Display/../../libs/PoliTeKDSP/libs/libDaisy/src/hid/disp/display.h ****     /** 
 178:Display/../../libs/PoliTeKDSP/libs/libDaisy/src/hid/disp/display.h ****     Writes the current display buffer to the OLED device using SPI or I2C depending on 
 179:Display/../../libs/PoliTeKDSP/libs/libDaisy/src/hid/disp/display.h ****     how the object was initialized.
 180:Display/../../libs/PoliTeKDSP/libs/libDaisy/src/hid/disp/display.h ****     */
 181:Display/../../libs/PoliTeKDSP/libs/libDaisy/src/hid/disp/display.h ****     virtual void Update() = 0;
 182:Display/../../libs/PoliTeKDSP/libs/libDaisy/src/hid/disp/display.h **** 
 183:Display/../../libs/PoliTeKDSP/libs/libDaisy/src/hid/disp/display.h ****     /** 
 184:Display/../../libs/PoliTeKDSP/libs/libDaisy/src/hid/disp/display.h ****     Returns true if the Update has finished, used for chained DMA transfers
 185:Display/../../libs/PoliTeKDSP/libs/libDaisy/src/hid/disp/display.h ****     */
 186:Display/../../libs/PoliTeKDSP/libs/libDaisy/src/hid/disp/display.h ****     virtual bool UpdateFinished() = 0;
 187:Display/../../libs/PoliTeKDSP/libs/libDaisy/src/hid/disp/display.h **** 
 188:Display/../../libs/PoliTeKDSP/libs/libDaisy/src/hid/disp/display.h ****   protected:
 189:Display/../../libs/PoliTeKDSP/libs/libDaisy/src/hid/disp/display.h ****     uint16_t currentX_;
 190:Display/../../libs/PoliTeKDSP/libs/libDaisy/src/hid/disp/display.h ****     uint16_t currentY_;
 191:Display/../../libs/PoliTeKDSP/libs/libDaisy/src/hid/disp/display.h **** };
 192:Display/../../libs/PoliTeKDSP/libs/libDaisy/src/hid/disp/display.h **** 
 193:Display/../../libs/PoliTeKDSP/libs/libDaisy/src/hid/disp/display.h **** /** This class is intended as a intermediary class for your actual implementation of the OneBitGrap
 194:Display/../../libs/PoliTeKDSP/libs/libDaisy/src/hid/disp/display.h ****  *  interface. It uses the CRTP design pattern where the template argument is the child class. It p
 195:Display/../../libs/PoliTeKDSP/libs/libDaisy/src/hid/disp/display.h ****  *  implementations for most of the functions, except DrawPixel(), Update() and Fill(), which you'l
 196:Display/../../libs/PoliTeKDSP/libs/libDaisy/src/hid/disp/display.h ****  *  to provide in your child class.
 197:Display/../../libs/PoliTeKDSP/libs/libDaisy/src/hid/disp/display.h ****  *  The main goal of this class is to provide common drawing functions without relying on massive a
 198:Display/../../libs/PoliTeKDSP/libs/libDaisy/src/hid/disp/display.h ****  *  virtual function calls that would result in a performance loss. To achieve this, any drawing fu
 199:Display/../../libs/PoliTeKDSP/libs/libDaisy/src/hid/disp/display.h ****  *  is implemented here and internally calls other drawing functions (e.g. DrawRect() which interna
 200:Display/../../libs/PoliTeKDSP/libs/libDaisy/src/hid/disp/display.h ****  *  DrawPixel() and DrawLine()) makes these calls via the qualified name of these functions to expl
 201:Display/../../libs/PoliTeKDSP/libs/libDaisy/src/hid/disp/display.h ****  *  suppress the virtual dispatch mechanism like this:
 202:Display/../../libs/PoliTeKDSP/libs/libDaisy/src/hid/disp/display.h ****  * 
 203:Display/../../libs/PoliTeKDSP/libs/libDaisy/src/hid/disp/display.h ****  *      ChildType::DrawPixel(...); // no virtual function call; direct call into the child class fu
 204:Display/../../libs/PoliTeKDSP/libs/libDaisy/src/hid/disp/display.h ****  *  
 205:Display/../../libs/PoliTeKDSP/libs/libDaisy/src/hid/disp/display.h ****  *  To create a custom OneBitGraphicsDisplay implementation, you can 
 206:Display/../../libs/PoliTeKDSP/libs/libDaisy/src/hid/disp/display.h ****  *  A) inherit from OneBitGraphicsDisplay directly and provide all the drawing functions yourself
 207:Display/../../libs/PoliTeKDSP/libs/libDaisy/src/hid/disp/display.h ****  *  B) Inherit from OneBitGraphicsDisplayImpl and only provide DrawPixel(), Fill() and Update()
 208:Display/../../libs/PoliTeKDSP/libs/libDaisy/src/hid/disp/display.h ****  *     like this:
 209:Display/../../libs/PoliTeKDSP/libs/libDaisy/src/hid/disp/display.h ****  *  
 210:Display/../../libs/PoliTeKDSP/libs/libDaisy/src/hid/disp/display.h ****  *      class MyDisplayClass : public OneBitGraphicsDisplayImpl<MyDisplayClass> 
 211:Display/../../libs/PoliTeKDSP/libs/libDaisy/src/hid/disp/display.h ****  *      {
 212:Display/../../libs/PoliTeKDSP/libs/libDaisy/src/hid/disp/display.h ****  *      public:
 213:Display/../../libs/PoliTeKDSP/libs/libDaisy/src/hid/disp/display.h ****  *          void Fill() override { ... };
 214:Display/../../libs/PoliTeKDSP/libs/libDaisy/src/hid/disp/display.h ****  *          void DrawPixel(uint_fast8_t x, uint_fast8_t y, bool on) override { ... };
 215:Display/../../libs/PoliTeKDSP/libs/libDaisy/src/hid/disp/display.h ****  *          void Update() override { ... }
 216:Display/../../libs/PoliTeKDSP/libs/libDaisy/src/hid/disp/display.h ****  *      };
 217:Display/../../libs/PoliTeKDSP/libs/libDaisy/src/hid/disp/display.h ****  *  
 218:Display/../../libs/PoliTeKDSP/libs/libDaisy/src/hid/disp/display.h ****  */
 219:Display/../../libs/PoliTeKDSP/libs/libDaisy/src/hid/disp/display.h **** template <class ChildType>
 220:Display/../../libs/PoliTeKDSP/libs/libDaisy/src/hid/disp/display.h **** class OneBitGraphicsDisplayImpl : public OneBitGraphicsDisplay
 221:Display/../../libs/PoliTeKDSP/libs/libDaisy/src/hid/disp/display.h **** {
 222:Display/../../libs/PoliTeKDSP/libs/libDaisy/src/hid/disp/display.h ****   public:
 223:Display/../../libs/PoliTeKDSP/libs/libDaisy/src/hid/disp/display.h ****     OneBitGraphicsDisplayImpl() {}
 224:Display/../../libs/PoliTeKDSP/libs/libDaisy/src/hid/disp/display.h ****     virtual ~OneBitGraphicsDisplayImpl() {}
 225:Display/../../libs/PoliTeKDSP/libs/libDaisy/src/hid/disp/display.h **** 
ARM GAS  C:\Users\skipi\AppData\Local\Temp\ccerdDJR.s 			page 18


 226:Display/../../libs/PoliTeKDSP/libs/libDaisy/src/hid/disp/display.h ****     void DrawLine(uint_fast8_t x1,
 262              		.loc 3 226 10 is_stmt 1 view -0
 263              		.cfi_startproc
 264              		@ args = 8, pretend = 0, frame = 8
 265              		@ frame_needed = 0, uses_anonymous_args = 0
 266              		.loc 3 226 10 is_stmt 0 view .LVU64
 267 0000 2DE9F04F 		push	{r4, r5, r6, r7, r8, r9, r10, fp, lr}
 268              		.cfi_def_cfa_offset 36
 269              		.cfi_offset 4, -36
 270              		.cfi_offset 5, -32
 271              		.cfi_offset 6, -28
 272              		.cfi_offset 7, -24
 273              		.cfi_offset 8, -20
 274              		.cfi_offset 9, -16
 275              		.cfi_offset 10, -12
 276              		.cfi_offset 11, -8
 277              		.cfi_offset 14, -4
 278 0004 83B0     		sub	sp, sp, #12
 279              		.cfi_def_cfa_offset 48
 227:Display/../../libs/PoliTeKDSP/libs/libDaisy/src/hid/disp/display.h ****                   uint_fast8_t y1,
 228:Display/../../libs/PoliTeKDSP/libs/libDaisy/src/hid/disp/display.h ****                   uint_fast8_t x2,
 229:Display/../../libs/PoliTeKDSP/libs/libDaisy/src/hid/disp/display.h ****                   uint_fast8_t y2,
 230:Display/../../libs/PoliTeKDSP/libs/libDaisy/src/hid/disp/display.h ****                   bool         on) override
 231:Display/../../libs/PoliTeKDSP/libs/libDaisy/src/hid/disp/display.h ****     {
 232:Display/../../libs/PoliTeKDSP/libs/libDaisy/src/hid/disp/display.h ****         int_fast16_t deltaX = abs((int_fast16_t)x2 - (int_fast16_t)x1);
 280              		.loc 3 232 52 view .LVU65
 281 0006 5C1A     		subs	r4, r3, r1
 226:Display/../../libs/PoliTeKDSP/libs/libDaisy/src/hid/disp/display.h ****                   uint_fast8_t y1,
 282              		.loc 3 226 10 view .LVU66
 283 0008 0C9E     		ldr	r6, [sp, #48]
 284              		.loc 3 232 22 view .LVU67
 285 000a 002C     		cmp	r4, #0
 226:Display/../../libs/PoliTeKDSP/libs/libDaisy/src/hid/disp/display.h ****                   uint_fast8_t y1,
 286              		.loc 3 226 10 view .LVU68
 287 000c 9DF83490 		ldrb	r9, [sp, #52]	@ zero_extendqisi2
 233:Display/../../libs/PoliTeKDSP/libs/libDaisy/src/hid/disp/display.h ****         int_fast16_t deltaY = abs((int_fast16_t)y2 - (int_fast16_t)y1);
 288              		.loc 3 233 52 view .LVU69
 289 0010 A6EB0208 		sub	r8, r6, r2
 232:Display/../../libs/PoliTeKDSP/libs/libDaisy/src/hid/disp/display.h ****         int_fast16_t deltaY = abs((int_fast16_t)y2 - (int_fast16_t)y1);
 290              		.loc 3 232 22 view .LVU70
 291 0014 B8BF     		it	lt
 292 0016 6442     		rsblt	r4, r4, #0
 293              	.LVL16:
 294              		.loc 3 233 22 view .LVU71
 295 0018 B8F1000F 		cmp	r8, #0
 296 001c B8BF     		it	lt
 297 001e C8F10008 		rsblt	r8, r8, #0
 298              	.LVL17:
 234:Display/../../libs/PoliTeKDSP/libs/libDaisy/src/hid/disp/display.h ****         int_fast16_t signX  = ((x1 < x2) ? 1 : -1);
 299              		.loc 3 234 42 view .LVU72
 300 0022 8B42     		cmp	r3, r1
 301 0024 8CBF     		ite	hi
 302 0026 4FF0010A 		movhi	r10, #1
 303 002a 4FF0FF3A 		movls	r10, #-1
 304              	.LVL18:
 235:Display/../../libs/PoliTeKDSP/libs/libDaisy/src/hid/disp/display.h ****         int_fast16_t signY  = ((y1 < y2) ? 1 : -1);
 305              		.loc 3 235 42 view .LVU73
ARM GAS  C:\Users\skipi\AppData\Local\Temp\ccerdDJR.s 			page 19


 306 002e 9642     		cmp	r6, r2
 236:Display/../../libs/PoliTeKDSP/libs/libDaisy/src/hid/disp/display.h ****         int_fast16_t error  = deltaX - deltaY;
 307              		.loc 3 236 22 view .LVU74
 308 0030 A4EB080C 		sub	ip, r4, r8
 235:Display/../../libs/PoliTeKDSP/libs/libDaisy/src/hid/disp/display.h ****         int_fast16_t signY  = ((y1 < y2) ? 1 : -1);
 309              		.loc 3 235 42 view .LVU75
 310 0034 51D8     		bhi	.L11
 311              	.LVL19:
 312              	.LBB61:
 313              	.LBI61:
  42:Display/../../libs/PoliTeKDSP/libs/libDaisy/src/hid/disp/oled_display.h ****     {
 314              		.loc 1 42 10 is_stmt 1 discriminator 4 view .LVU76
 315              	.LBB62:
 316              	.LBI62:
 361:Display/../../libs/PoliTeKDSP/libs/libDaisy/src/dev/oled_ssd130x.h ****     {
 317              		.loc 2 361 10 discriminator 4 view .LVU77
 318              	.LBE62:
 319              	.LBE61:
 235:Display/../../libs/PoliTeKDSP/libs/libDaisy/src/hid/disp/display.h ****         int_fast16_t error  = deltaX - deltaY;
 320              		.loc 3 235 42 is_stmt 0 discriminator 4 view .LVU78
 321 0036 4FF0FF35 		mov	r5, #-1
 322              	.LBB78:
 323              	.LBB72:
 324              	.LBB63:
 363:Display/../../libs/PoliTeKDSP/libs/libDaisy/src/dev/oled_ssd130x.h ****             return;
 325              		.loc 2 363 9 discriminator 4 view .LVU79
 326 003a 7F2B     		cmp	r3, #127
 327              	.LBE63:
 328              	.LBE72:
 329              	.LBE78:
 235:Display/../../libs/PoliTeKDSP/libs/libDaisy/src/hid/disp/display.h ****         int_fast16_t error  = deltaX - deltaY;
 330              		.loc 3 235 42 discriminator 4 view .LVU80
 331 003c 0195     		str	r5, [sp, #4]
 332              	.LBB79:
 333              	.LBB73:
 334              	.LBB68:
 363:Display/../../libs/PoliTeKDSP/libs/libDaisy/src/dev/oled_ssd130x.h ****             return;
 335              		.loc 2 363 9 discriminator 4 view .LVU81
 336 003e 12D8     		bhi	.L12
 337 0040 3F2E     		cmp	r6, #63
 338 0042 10D8     		bhi	.L12
 339              	.LVL20:
 340              	.L23:
 366:Display/../../libs/PoliTeKDSP/libs/libDaisy/src/dev/oled_ssd130x.h ****         else
 341              		.loc 2 366 28 view .LVU82
 342 0044 F508     		lsrs	r5, r6, #3
 366:Display/../../libs/PoliTeKDSP/libs/libDaisy/src/dev/oled_ssd130x.h ****         else
 343              		.loc 2 366 54 view .LVU83
 344 0046 06F0070E 		and	lr, r6, #7
 366:Display/../../libs/PoliTeKDSP/libs/libDaisy/src/dev/oled_ssd130x.h ****         else
 345              		.loc 2 366 48 view .LVU84
 346 004a 0127     		movs	r7, #1
 366:Display/../../libs/PoliTeKDSP/libs/libDaisy/src/dev/oled_ssd130x.h ****         else
 347              		.loc 2 366 42 view .LVU85
 348 004c 03EBC515 		add	r5, r3, r5, lsl #7
 349 0050 0544     		add	r5, r5, r0
 365:Display/../../libs/PoliTeKDSP/libs/libDaisy/src/dev/oled_ssd130x.h ****             buffer_[x + (y / 8) * width] |= (1 << (y % 8));
ARM GAS  C:\Users\skipi\AppData\Local\Temp\ccerdDJR.s 			page 20


 350              		.loc 2 365 9 view .LVU86
 351 0052 B9F1000F 		cmp	r9, #0
 352 0056 47D0     		beq	.L13
 366:Display/../../libs/PoliTeKDSP/libs/libDaisy/src/dev/oled_ssd130x.h ****         else
 353              		.loc 2 366 48 view .LVU87
 354 0058 07FA0EF7 		lsl	r7, r7, lr
 366:Display/../../libs/PoliTeKDSP/libs/libDaisy/src/dev/oled_ssd130x.h ****         else
 355              		.loc 2 366 42 view .LVU88
 356 005c 95F810E0 		ldrb	lr, [r5, #16]	@ zero_extendqisi2
 357 0060 47EA0E07 		orr	r7, r7, lr
 358 0064 2F74     		strb	r7, [r5, #16]
 359              	.LVL21:
 360              	.L12:
 366:Display/../../libs/PoliTeKDSP/libs/libDaisy/src/dev/oled_ssd130x.h ****         else
 361              		.loc 2 366 42 view .LVU89
 362              	.LBE68:
 363              	.LBE73:
 364              	.LBE79:
 237:Display/../../libs/PoliTeKDSP/libs/libDaisy/src/hid/disp/display.h ****         int_fast16_t error2;
 238:Display/../../libs/PoliTeKDSP/libs/libDaisy/src/hid/disp/display.h **** 
 239:Display/../../libs/PoliTeKDSP/libs/libDaisy/src/hid/disp/display.h ****         // If we write "ChildType::DrawPixel(x2, y2, on);", we end up with
 240:Display/../../libs/PoliTeKDSP/libs/libDaisy/src/hid/disp/display.h ****         // all sorts of weird compiler errors when the Child class is a template
 241:Display/../../libs/PoliTeKDSP/libs/libDaisy/src/hid/disp/display.h ****         // class. The only way around this is to use this very verbose syntax:
 242:Display/../../libs/PoliTeKDSP/libs/libDaisy/src/hid/disp/display.h ****         ((ChildType*)(this))->ChildType::DrawPixel(x2, y2, on);
 243:Display/../../libs/PoliTeKDSP/libs/libDaisy/src/hid/disp/display.h **** 
 244:Display/../../libs/PoliTeKDSP/libs/libDaisy/src/hid/disp/display.h ****         while((x1 != x2) || (y1 != y2))
 365              		.loc 3 244 26 is_stmt 1 view .LVU90
 366 0066 9642     		cmp	r6, r2
 367 0068 01D1     		bne	.L16
 368              	.L35:
 369              		.loc 3 244 26 is_stmt 0 view .LVU91
 370 006a 8B42     		cmp	r3, r1
 371 006c 29D0     		beq	.L9
 372              	.L16:
 373              	.LVL22:
 245:Display/../../libs/PoliTeKDSP/libs/libDaisy/src/hid/disp/display.h ****         {
 246:Display/../../libs/PoliTeKDSP/libs/libDaisy/src/hid/disp/display.h ****             ((ChildType*)(this))->ChildType::DrawPixel(x1, y1, on);
 247:Display/../../libs/PoliTeKDSP/libs/libDaisy/src/hid/disp/display.h ****             error2 = error * 2;
 248:Display/../../libs/PoliTeKDSP/libs/libDaisy/src/hid/disp/display.h ****             if(error2 > -deltaY)
 374              		.loc 3 248 23 view .LVU92
 375 006e C8F10007 		rsb	r7, r8, #0
 376              	.L18:
 377              	.LVL23:
 378              	.LBB80:
 379              	.LBI80:
  42:Display/../../libs/PoliTeKDSP/libs/libDaisy/src/hid/disp/oled_display.h ****     {
 380              		.loc 1 42 10 is_stmt 1 view .LVU93
 381              	.LBB81:
 382              	.LBI81:
 361:Display/../../libs/PoliTeKDSP/libs/libDaisy/src/dev/oled_ssd130x.h ****     {
 383              		.loc 2 361 10 view .LVU94
 384              	.LBB82:
 363:Display/../../libs/PoliTeKDSP/libs/libDaisy/src/dev/oled_ssd130x.h ****             return;
 385              		.loc 2 363 9 is_stmt 0 view .LVU95
 386 0072 7F29     		cmp	r1, #127
 387 0074 14D8     		bhi	.L19
 388 0076 3F2A     		cmp	r2, #63
ARM GAS  C:\Users\skipi\AppData\Local\Temp\ccerdDJR.s 			page 21


 389 0078 12D8     		bhi	.L19
 366:Display/../../libs/PoliTeKDSP/libs/libDaisy/src/dev/oled_ssd130x.h ****         else
 390              		.loc 2 366 28 view .LVU96
 391 007a D508     		lsrs	r5, r2, #3
 366:Display/../../libs/PoliTeKDSP/libs/libDaisy/src/dev/oled_ssd130x.h ****         else
 392              		.loc 2 366 54 view .LVU97
 393 007c 02F0070B 		and	fp, r2, #7
 366:Display/../../libs/PoliTeKDSP/libs/libDaisy/src/dev/oled_ssd130x.h ****         else
 394              		.loc 2 366 48 view .LVU98
 395 0080 4FF0010E 		mov	lr, #1
 366:Display/../../libs/PoliTeKDSP/libs/libDaisy/src/dev/oled_ssd130x.h ****         else
 396              		.loc 2 366 42 view .LVU99
 397 0084 01EBC515 		add	r5, r1, r5, lsl #7
 398 0088 0544     		add	r5, r5, r0
 365:Display/../../libs/PoliTeKDSP/libs/libDaisy/src/dev/oled_ssd130x.h ****             buffer_[x + (y / 8) * width] |= (1 << (y % 8));
 399              		.loc 2 365 9 view .LVU100
 400 008a B9F1000F 		cmp	r9, #0
 401 008e 1BD0     		beq	.L20
 366:Display/../../libs/PoliTeKDSP/libs/libDaisy/src/dev/oled_ssd130x.h ****         else
 402              		.loc 2 366 48 view .LVU101
 403 0090 0EFA0BFE 		lsl	lr, lr, fp
 366:Display/../../libs/PoliTeKDSP/libs/libDaisy/src/dev/oled_ssd130x.h ****         else
 404              		.loc 2 366 42 view .LVU102
 405 0094 95F810B0 		ldrb	fp, [r5, #16]	@ zero_extendqisi2
 406 0098 4EEA0B0E 		orr	lr, lr, fp
 407 009c 85F810E0 		strb	lr, [r5, #16]
 408              	.L19:
 409              	.LVL24:
 366:Display/../../libs/PoliTeKDSP/libs/libDaisy/src/dev/oled_ssd130x.h ****         else
 410              		.loc 2 366 42 view .LVU103
 411              	.LBE82:
 412              	.LBE81:
 413              	.LBE80:
 414              		.loc 3 248 13 view .LVU104
 415 00a0 B7EB4C0F 		cmp	r7, ip, lsl #1
 247:Display/../../libs/PoliTeKDSP/libs/libDaisy/src/hid/disp/display.h ****             if(error2 > -deltaY)
 416              		.loc 3 247 20 view .LVU105
 417 00a4 4FEA4C05 		lsl	r5, ip, #1
 418              	.LVL25:
 419              		.loc 3 248 13 view .LVU106
 420 00a8 02DA     		bge	.L21
 249:Display/../../libs/PoliTeKDSP/libs/libDaisy/src/hid/disp/display.h ****             {
 250:Display/../../libs/PoliTeKDSP/libs/libDaisy/src/hid/disp/display.h ****                 error -= deltaY;
 421              		.loc 3 250 23 view .LVU107
 422 00aa ACEB080C 		sub	ip, ip, r8
 423              	.LVL26:
 251:Display/../../libs/PoliTeKDSP/libs/libDaisy/src/hid/disp/display.h ****                 x1 += signX;
 424              		.loc 3 251 20 view .LVU108
 425 00ae 5144     		add	r1, r1, r10
 426              	.LVL27:
 427              	.L21:
 252:Display/../../libs/PoliTeKDSP/libs/libDaisy/src/hid/disp/display.h ****             }
 253:Display/../../libs/PoliTeKDSP/libs/libDaisy/src/hid/disp/display.h **** 
 254:Display/../../libs/PoliTeKDSP/libs/libDaisy/src/hid/disp/display.h ****             if(error2 < deltaX)
 428              		.loc 3 254 13 view .LVU109
 429 00b0 AC42     		cmp	r4, r5
 430 00b2 02DD     		ble	.L22
ARM GAS  C:\Users\skipi\AppData\Local\Temp\ccerdDJR.s 			page 22


 255:Display/../../libs/PoliTeKDSP/libs/libDaisy/src/hid/disp/display.h ****             {
 256:Display/../../libs/PoliTeKDSP/libs/libDaisy/src/hid/disp/display.h ****                 error += deltaX;
 257:Display/../../libs/PoliTeKDSP/libs/libDaisy/src/hid/disp/display.h ****                 y1 += signY;
 431              		.loc 3 257 20 view .LVU110
 432 00b4 019D     		ldr	r5, [sp, #4]
 433              	.LVL28:
 256:Display/../../libs/PoliTeKDSP/libs/libDaisy/src/hid/disp/display.h ****                 y1 += signY;
 434              		.loc 3 256 23 view .LVU111
 435 00b6 A444     		add	ip, ip, r4
 436              	.LVL29:
 437              		.loc 3 257 20 view .LVU112
 438 00b8 2A44     		add	r2, r2, r5
 439              	.LVL30:
 440              	.L22:
 244:Display/../../libs/PoliTeKDSP/libs/libDaisy/src/hid/disp/display.h ****         {
 441              		.loc 3 244 26 is_stmt 1 view .LVU113
 442 00ba 9942     		cmp	r1, r3
 443 00bc D9D1     		bne	.L18
 244:Display/../../libs/PoliTeKDSP/libs/libDaisy/src/hid/disp/display.h ****         {
 444              		.loc 3 244 26 is_stmt 0 view .LVU114
 445 00be 9642     		cmp	r6, r2
 446 00c0 D7D1     		bne	.L18
 447              	.L9:
 258:Display/../../libs/PoliTeKDSP/libs/libDaisy/src/hid/disp/display.h ****             }
 259:Display/../../libs/PoliTeKDSP/libs/libDaisy/src/hid/disp/display.h ****         }
 260:Display/../../libs/PoliTeKDSP/libs/libDaisy/src/hid/disp/display.h ****     }
 448              		.loc 3 260 5 view .LVU115
 449 00c2 03B0     		add	sp, sp, #12
 450              		.cfi_remember_state
 451              		.cfi_def_cfa_offset 36
 452              		@ sp needed
 453 00c4 BDE8F08F 		pop	{r4, r5, r6, r7, r8, r9, r10, fp, pc}
 454              	.LVL31:
 455              	.L20:
 456              		.cfi_restore_state
 457              	.LBB87:
 458              	.LBB86:
 459              	.LBB85:
 460              	.LBB83:
 461              	.LBI83:
 361:Display/../../libs/PoliTeKDSP/libs/libDaisy/src/dev/oled_ssd130x.h ****     {
 462              		.loc 2 361 10 is_stmt 1 view .LVU116
 463              	.LBB84:
 368:Display/../../libs/PoliTeKDSP/libs/libDaisy/src/dev/oled_ssd130x.h ****     }
 464              		.loc 2 368 49 is_stmt 0 view .LVU117
 465 00c8 0EFA0BFB 		lsl	fp, lr, fp
 368:Display/../../libs/PoliTeKDSP/libs/libDaisy/src/dev/oled_ssd130x.h ****     }
 466              		.loc 2 368 42 view .LVU118
 467 00cc 95F810E0 		ldrb	lr, [r5, #16]	@ zero_extendqisi2
 468 00d0 2EEA0B0E 		bic	lr, lr, fp
 469 00d4 85F810E0 		strb	lr, [r5, #16]
 470 00d8 E2E7     		b	.L19
 471              	.LVL32:
 472              	.L11:
 368:Display/../../libs/PoliTeKDSP/libs/libDaisy/src/dev/oled_ssd130x.h ****     }
 473              		.loc 2 368 42 view .LVU119
 474              	.LBE84:
ARM GAS  C:\Users\skipi\AppData\Local\Temp\ccerdDJR.s 			page 23


 475              	.LBE83:
 476              	.LBE85:
 477              	.LBE86:
 478              	.LBE87:
 479              	.LBB88:
  42:Display/../../libs/PoliTeKDSP/libs/libDaisy/src/hid/disp/oled_display.h ****     {
 480              		.loc 1 42 10 is_stmt 1 view .LVU120
 481              	.LBB74:
 361:Display/../../libs/PoliTeKDSP/libs/libDaisy/src/dev/oled_ssd130x.h ****     {
 482              		.loc 2 361 10 view .LVU121
 483              	.LBE74:
 484              	.LBE88:
 235:Display/../../libs/PoliTeKDSP/libs/libDaisy/src/hid/disp/display.h ****         int_fast16_t error  = deltaX - deltaY;
 485              		.loc 3 235 42 is_stmt 0 view .LVU122
 486 00da 0125     		movs	r5, #1
 487              	.LBB89:
 488              	.LBB75:
 489              	.LBB69:
 363:Display/../../libs/PoliTeKDSP/libs/libDaisy/src/dev/oled_ssd130x.h ****             return;
 490              		.loc 2 363 9 view .LVU123
 491 00dc 7F2B     		cmp	r3, #127
 492              	.LBE69:
 493              	.LBE75:
 494              	.LBE89:
 235:Display/../../libs/PoliTeKDSP/libs/libDaisy/src/hid/disp/display.h ****         int_fast16_t error  = deltaX - deltaY;
 495              		.loc 3 235 42 view .LVU124
 496 00de 0195     		str	r5, [sp, #4]
 497              	.LBB90:
 498              	.LBB76:
 499              	.LBB70:
 363:Display/../../libs/PoliTeKDSP/libs/libDaisy/src/dev/oled_ssd130x.h ****             return;
 500              		.loc 2 363 9 view .LVU125
 501 00e0 C5D8     		bhi	.L16
 502 00e2 3F2E     		cmp	r6, #63
 503 00e4 AED9     		bls	.L23
 504 00e6 C2E7     		b	.L16
 505              	.LVL33:
 506              	.L13:
 507              	.LBB64:
 508              	.LBI64:
 361:Display/../../libs/PoliTeKDSP/libs/libDaisy/src/dev/oled_ssd130x.h ****     {
 509              		.loc 2 361 10 is_stmt 1 view .LVU126
 510              	.LBB65:
 368:Display/../../libs/PoliTeKDSP/libs/libDaisy/src/dev/oled_ssd130x.h ****     }
 511              		.loc 2 368 49 is_stmt 0 view .LVU127
 512 00e8 07FA0EFE 		lsl	lr, r7, lr
 368:Display/../../libs/PoliTeKDSP/libs/libDaisy/src/dev/oled_ssd130x.h ****     }
 513              		.loc 2 368 42 view .LVU128
 514 00ec 2F7C     		ldrb	r7, [r5, #16]	@ zero_extendqisi2
 515              	.LBE65:
 516              	.LBE64:
 517              	.LBE70:
 518              	.LBE76:
 519              	.LBE90:
 244:Display/../../libs/PoliTeKDSP/libs/libDaisy/src/hid/disp/display.h ****         {
 520              		.loc 3 244 26 view .LVU129
 521 00ee 9642     		cmp	r6, r2
ARM GAS  C:\Users\skipi\AppData\Local\Temp\ccerdDJR.s 			page 24


 522              	.LBB91:
 523              	.LBB77:
 524              	.LBB71:
 525              	.LBB67:
 526              	.LBB66:
 368:Display/../../libs/PoliTeKDSP/libs/libDaisy/src/dev/oled_ssd130x.h ****     }
 527              		.loc 2 368 42 view .LVU130
 528 00f0 27EA0E07 		bic	r7, r7, lr
 529 00f4 2F74     		strb	r7, [r5, #16]
 530              	.LVL34:
 368:Display/../../libs/PoliTeKDSP/libs/libDaisy/src/dev/oled_ssd130x.h ****     }
 531              		.loc 2 368 42 view .LVU131
 532              	.LBE66:
 533              	.LBE67:
 534              	.LBE71:
 535              	.LBE77:
 536              	.LBE91:
 244:Display/../../libs/PoliTeKDSP/libs/libDaisy/src/hid/disp/display.h ****         {
 537              		.loc 3 244 26 is_stmt 1 view .LVU132
 538 00f6 B8D0     		beq	.L35
 539 00f8 B9E7     		b	.L16
 540              		.cfi_endproc
 541              	.LFE2809:
 543 00fa 00BF     		.section	.rodata._ZN14DisplayHandlerC2EPN5daisy11OledDisplayINS0_13SSD130xDriverILj128ELj64ENS0_19
 544              		.align	2
 545              	.LC0:
 546 0000 506F6C69 		.ascii	"PoliTeK PSP\000"
 546      54654B20 
 546      50535000 
 547              		.section	.text._ZN14DisplayHandlerC2EPN5daisy11OledDisplayINS0_13SSD130xDriverILj128ELj64ENS0_19SS
 548              		.align	1
 549              		.p2align 2,,3
 550              		.global	_ZN14DisplayHandlerC2EPN5daisy11OledDisplayINS0_13SSD130xDriverILj128ELj64ENS0_19SSD130xI2
 551              		.syntax unified
 552              		.thumb
 553              		.thumb_func
 554              		.fpu fpv5-d16
 556              	_ZN14DisplayHandlerC2EPN5daisy11OledDisplayINS0_13SSD130xDriverILj128ELj64ENS0_19SSD130xI2CTranspor
 557              	.LVL35:
 558              	.LFB2782:
 559              		.file 4 "Display/displayHandler.cpp"
   1:Display/displayHandler.cpp **** #include "displayHandler.h"
   2:Display/displayHandler.cpp **** #include <string.h>
   3:Display/displayHandler.cpp **** #include <stdio.h>
   4:Display/displayHandler.cpp **** 
   5:Display/displayHandler.cpp **** DisplayHandler::DisplayHandler(MyOledDisplay* displayPtr, bool triggerEnabled) {
 560              		.loc 4 5 1 view -0
 561              		.cfi_startproc
 562              		@ args = 0, pretend = 0, frame = 0
 563              		@ frame_needed = 0, uses_anonymous_args = 0
 564              	.LBB92:
 565              		.loc 4 5 78 is_stmt 0 view .LVU134
 566 0000 8023     		movs	r3, #128
 567              	.LBE92:
 568              		.loc 4 5 1 view .LVU135
 569 0002 2DE9F041 		push	{r4, r5, r6, r7, r8, lr}
 570              		.cfi_def_cfa_offset 24
ARM GAS  C:\Users\skipi\AppData\Local\Temp\ccerdDJR.s 			page 25


 571              		.cfi_offset 4, -24
 572              		.cfi_offset 5, -20
 573              		.cfi_offset 6, -16
 574              		.cfi_offset 7, -12
 575              		.cfi_offset 8, -8
 576              		.cfi_offset 14, -4
 577              	.LBB93:
 578              		.loc 4 5 78 view .LVU136
 579 0006 0027     		movs	r7, #0
 580 0008 4FF00108 		mov	r8, #1
 581 000c C0F80838 		str	r3, [r0, #2056]
 582              	.LBE93:
 583              		.loc 4 5 1 view .LVU137
 584 0010 0446     		mov	r4, r0
 585              	.LBB94:
 586              		.loc 4 5 78 view .LVU138
 587 0012 104B     		ldr	r3, .L38
 588              	.LBE94:
 589              		.loc 4 5 1 view .LVU139
 590 0014 0D46     		mov	r5, r1
 591 0016 1646     		mov	r6, r2
 592              	.LBB95:
   6:Display/displayHandler.cpp ****     memset((void*) _circBuffer_ptr, 0, BUFFER_SIZE * sizeof(float));
 593              		.loc 4 6 11 view .LVU140
 594 0018 3946     		mov	r1, r7
 595              	.LVL36:
   5:Display/displayHandler.cpp ****     memset((void*) _circBuffer_ptr, 0, BUFFER_SIZE * sizeof(float));
 596              		.loc 4 5 78 view .LVU141
 597 001a C0F81438 		str	r3, [r0, #2068]
 598              		.loc 4 6 11 view .LVU142
 599 001e 4FF48062 		mov	r2, #1024
 600              	.LVL37:
   5:Display/displayHandler.cpp ****     memset((void*) _circBuffer_ptr, 0, BUFFER_SIZE * sizeof(float));
 601              		.loc 4 5 78 view .LVU143
 602 0022 C0F80C78 		str	r7, [r0, #2060]
 603              		.loc 4 6 11 view .LVU144
 604 0026 0830     		adds	r0, r0, #8
 605              	.LVL38:
   5:Display/displayHandler.cpp ****     memset((void*) _circBuffer_ptr, 0, BUFFER_SIZE * sizeof(float));
 606              		.loc 4 5 78 view .LVU145
 607 0028 C0F81488 		str	r8, [r0, #2068]
 608              		.loc 4 6 5 is_stmt 1 view .LVU146
 609              		.loc 4 6 11 is_stmt 0 view .LVU147
 610 002c FFF7FEFF 		bl	memset
 611              	.LVL39:
   7:Display/displayHandler.cpp ****     memset((void*) _dispBuffer_ptr, 0, BUFFER_SIZE * sizeof(float));
 612              		.loc 4 7 5 is_stmt 1 view .LVU148
 613              		.loc 4 7 11 is_stmt 0 view .LVU149
 614 0030 4FF48062 		mov	r2, #1024
 615 0034 3946     		mov	r1, r7
 616 0036 04F58160 		add	r0, r4, #1032
 617 003a FFF7FEFF 		bl	memset
 618              	.LVL40:
   8:Display/displayHandler.cpp ****     
   9:Display/displayHandler.cpp ****     _writeHead = 0;
 619              		.loc 4 9 5 is_stmt 1 view .LVU150
  10:Display/displayHandler.cpp ****     _windowSize = WINDOW_SIZE; 
ARM GAS  C:\Users\skipi\AppData\Local\Temp\ccerdDJR.s 			page 26


 620              		.loc 4 10 5 view .LVU151
  11:Display/displayHandler.cpp ****     _triggerEnabled = triggerEnabled;
 621              		.loc 4 11 5 view .LVU152
  12:Display/displayHandler.cpp ****     _displayPtr = displayPtr;
  13:Display/displayHandler.cpp ****     _currentState = DisplayState::WAVEFORM_VIEWER;
  14:Display/displayHandler.cpp ****     _standbyText = "PoliTeK PSP";
  15:Display/displayHandler.cpp ****     _yscale = 20; // Default di sicurezza
 622              		.loc 4 15 13 is_stmt 0 view .LVU153
 623 003e 1423     		movs	r3, #20
 624              	.LBE95:
  16:Display/displayHandler.cpp **** }
 625              		.loc 4 16 1 view .LVU154
 626 0040 2046     		mov	r0, r4
 627              	.LBB96:
  11:Display/displayHandler.cpp ****     _triggerEnabled = triggerEnabled;
 628              		.loc 4 11 21 view .LVU155
 629 0042 84F81068 		strb	r6, [r4, #2064]
  12:Display/displayHandler.cpp ****     _displayPtr = displayPtr;
 630              		.loc 4 12 5 is_stmt 1 view .LVU156
  12:Display/displayHandler.cpp ****     _displayPtr = displayPtr;
 631              		.loc 4 12 17 is_stmt 0 view .LVU157
 632 0046 2560     		str	r5, [r4]
  13:Display/displayHandler.cpp ****     _standbyText = "PoliTeK PSP";
 633              		.loc 4 13 5 is_stmt 1 view .LVU158
  13:Display/displayHandler.cpp ****     _standbyText = "PoliTeK PSP";
 634              		.loc 4 13 19 is_stmt 0 view .LVU159
 635 0048 84F80480 		strb	r8, [r4, #4]
  14:Display/displayHandler.cpp ****     _yscale = 20; // Default di sicurezza
 636              		.loc 4 14 5 is_stmt 1 view .LVU160
  15:Display/displayHandler.cpp **** }
 637              		.loc 4 15 5 view .LVU161
  15:Display/displayHandler.cpp **** }
 638              		.loc 4 15 13 is_stmt 0 view .LVU162
 639 004c C4F81838 		str	r3, [r4, #2072]
 640              	.LBE96:
 641              		.loc 4 16 1 view .LVU163
 642 0050 BDE8F081 		pop	{r4, r5, r6, r7, r8, pc}
 643              	.LVL41:
 644              	.L39:
 645              		.loc 4 16 1 view .LVU164
 646              		.align	2
 647              	.L38:
 648 0054 00000000 		.word	.LC0
 649              		.cfi_endproc
 650              	.LFE2782:
 652              		.global	_ZN14DisplayHandlerC1EPN5daisy11OledDisplayINS0_13SSD130xDriverILj128ELj64ENS0_19SSD130xI2
 653              		.thumb_set _ZN14DisplayHandlerC1EPN5daisy11OledDisplayINS0_13SSD130xDriverILj128ELj64ENS0_19SSD130
 654              		.section	.text._ZN14DisplayHandler8SetStateE12DisplayState,"ax",%progbits
 655              		.align	1
 656              		.p2align 2,,3
 657              		.global	_ZN14DisplayHandler8SetStateE12DisplayState
 658              		.syntax unified
 659              		.thumb
 660              		.thumb_func
 661              		.fpu fpv5-d16
 663              	_ZN14DisplayHandler8SetStateE12DisplayState:
 664              	.LVL42:
ARM GAS  C:\Users\skipi\AppData\Local\Temp\ccerdDJR.s 			page 27


 665              	.LFB2785:
  17:Display/displayHandler.cpp **** 
  18:Display/displayHandler.cpp **** void DisplayHandler::Update() {
  19:Display/displayHandler.cpp ****     switch (_currentState) {
  20:Display/displayHandler.cpp ****         case DisplayState::STANDBY:
  21:Display/displayHandler.cpp ****             drawStandbyScreen();
  22:Display/displayHandler.cpp ****             break;
  23:Display/displayHandler.cpp **** 
  24:Display/displayHandler.cpp ****         case DisplayState::WAVEFORM_VIEWER:
  25:Display/displayHandler.cpp ****             drawWaveForm();
  26:Display/displayHandler.cpp ****             break;
  27:Display/displayHandler.cpp **** 
  28:Display/displayHandler.cpp ****         case DisplayState::MENU_MODE:
  29:Display/displayHandler.cpp ****             break;
  30:Display/displayHandler.cpp ****     }
  31:Display/displayHandler.cpp ****     
  32:Display/displayHandler.cpp ****     _displayPtr->Update();
  33:Display/displayHandler.cpp **** }
  34:Display/displayHandler.cpp **** 
  35:Display/displayHandler.cpp **** void DisplayHandler::SetState(DisplayState newState) {
 666              		.loc 4 35 54 is_stmt 1 view -0
 667              		.cfi_startproc
 668              		@ args = 0, pretend = 0, frame = 0
 669              		@ frame_needed = 0, uses_anonymous_args = 0
  36:Display/displayHandler.cpp ****     _displayPtr->Fill(false);
 670              		.loc 4 36 5 view .LVU166
  35:Display/displayHandler.cpp ****     _displayPtr->Fill(false);
 671              		.loc 4 35 54 is_stmt 0 view .LVU167
 672 0000 38B5     		push	{r3, r4, r5, lr}
 673              		.cfi_def_cfa_offset 16
 674              		.cfi_offset 3, -16
 675              		.cfi_offset 4, -12
 676              		.cfi_offset 5, -8
 677              		.cfi_offset 14, -4
  35:Display/displayHandler.cpp ****     _displayPtr->Fill(false);
 678              		.loc 4 35 54 view .LVU168
 679 0002 0446     		mov	r4, r0
 680              		.loc 4 36 5 view .LVU169
 681 0004 0068     		ldr	r0, [r0]
 682              	.LVL43:
 683              		.loc 4 36 5 view .LVU170
 684 0006 094A     		ldr	r2, .L44
  35:Display/displayHandler.cpp ****     _displayPtr->Fill(false);
 685              		.loc 4 35 54 view .LVU171
 686 0008 0D46     		mov	r5, r1
 687              		.loc 4 36 28 view .LVU172
 688 000a 0368     		ldr	r3, [r0]
 689 000c 1B69     		ldr	r3, [r3, #16]
 690 000e 9342     		cmp	r3, r2
 691 0010 07D1     		bne	.L41
 692              	.LBB101:
 693              	.LBB102:
 694              	.LBB103:
 375:Display/../../libs/PoliTeKDSP/libs/libDaisy/src/dev/oled_ssd130x.h ****         }
 695              		.loc 2 375 24 view .LVU173
 696 0012 4FF48062 		mov	r2, #1024
 697 0016 0021     		movs	r1, #0
ARM GAS  C:\Users\skipi\AppData\Local\Temp\ccerdDJR.s 			page 28


 698              	.LVL44:
 375:Display/../../libs/PoliTeKDSP/libs/libDaisy/src/dev/oled_ssd130x.h ****         }
 699              		.loc 2 375 24 view .LVU174
 700 0018 1030     		adds	r0, r0, #16
 701 001a FFF7FEFF 		bl	memset
 702              	.LVL45:
 703              	.LBE103:
 704              	.LBE102:
 705              	.LBE101:
  37:Display/displayHandler.cpp ****     _currentState = newState;
 706              		.loc 4 37 5 is_stmt 1 view .LVU175
 707              		.loc 4 37 19 is_stmt 0 view .LVU176
 708 001e 2571     		strb	r5, [r4, #4]
  38:Display/displayHandler.cpp **** }
 709              		.loc 4 38 1 view .LVU177
 710 0020 38BD     		pop	{r3, r4, r5, pc}
 711              	.LVL46:
 712              	.L41:
  36:Display/displayHandler.cpp ****     _currentState = newState;
 713              		.loc 4 36 22 view .LVU178
 714 0022 0021     		movs	r1, #0
 715              	.LVL47:
  36:Display/displayHandler.cpp ****     _currentState = newState;
 716              		.loc 4 36 22 view .LVU179
 717 0024 9847     		blx	r3
 718              	.LVL48:
  37:Display/displayHandler.cpp ****     _currentState = newState;
 719              		.loc 4 37 5 is_stmt 1 view .LVU180
  37:Display/displayHandler.cpp ****     _currentState = newState;
 720              		.loc 4 37 19 is_stmt 0 view .LVU181
 721 0026 2571     		strb	r5, [r4, #4]
 722              		.loc 4 38 1 view .LVU182
 723 0028 38BD     		pop	{r3, r4, r5, pc}
 724              	.LVL49:
 725              	.L45:
 726              		.loc 4 38 1 view .LVU183
 727 002a 00BF     		.align	2
 728              	.L44:
 729 002c 00000000 		.word	_ZN5daisy11OledDisplayINS_13SSD130xDriverILj128ELj64ENS_19SSD130xI2CTransportEEEE4FillEb
 730              		.cfi_endproc
 731              	.LFE2785:
 733              		.section	.text._ZN14DisplayHandler14SetStandbyTextEPKc,"ax",%progbits
 734              		.align	1
 735              		.p2align 2,,3
 736              		.global	_ZN14DisplayHandler14SetStandbyTextEPKc
 737              		.syntax unified
 738              		.thumb
 739              		.thumb_func
 740              		.fpu fpv5-d16
 742              	_ZN14DisplayHandler14SetStandbyTextEPKc:
 743              	.LVL50:
 744              	.LFB2786:
  39:Display/displayHandler.cpp **** 
  40:Display/displayHandler.cpp **** void DisplayHandler::SetStandbyText(const char* text) {
 745              		.loc 4 40 55 is_stmt 1 view -0
 746              		.cfi_startproc
 747              		@ args = 0, pretend = 0, frame = 0
ARM GAS  C:\Users\skipi\AppData\Local\Temp\ccerdDJR.s 			page 29


 748              		@ frame_needed = 0, uses_anonymous_args = 0
 749              		@ link register save eliminated.
  41:Display/displayHandler.cpp ****     if(text != nullptr) {
 750              		.loc 4 41 5 view .LVU185
 751 0000 79B1     		cbz	r1, .L46
  42:Display/displayHandler.cpp ****         _standbyText = text;
 752              		.loc 4 42 9 view .LVU186
  43:Display/displayHandler.cpp ****         if (_currentState == DisplayState::STANDBY) {
 753              		.loc 4 43 9 is_stmt 0 view .LVU187
 754 0002 0379     		ldrb	r3, [r0, #4]	@ zero_extendqisi2
  42:Display/displayHandler.cpp ****         _standbyText = text;
 755              		.loc 4 42 22 view .LVU188
 756 0004 C0F81418 		str	r1, [r0, #2068]
 757              		.loc 4 43 9 is_stmt 1 view .LVU189
 758 0008 5BB9     		cbnz	r3, .L46
  44:Display/displayHandler.cpp ****             _displayPtr->Fill(false);
 759              		.loc 4 44 13 view .LVU190
 760 000a 0068     		ldr	r0, [r0]
 761              	.LVL51:
 762              		.loc 4 44 13 is_stmt 0 view .LVU191
 763 000c 0649     		ldr	r1, .L51
 764              	.LVL52:
 765              		.loc 4 44 36 view .LVU192
 766 000e 0268     		ldr	r2, [r0]
 767 0010 1269     		ldr	r2, [r2, #16]
 768 0012 8A42     		cmp	r2, r1
 769 0014 06D1     		bne	.L50
 770              	.LBB108:
 771              	.LBB109:
 772              	.LBB110:
 375:Display/../../libs/PoliTeKDSP/libs/libDaisy/src/dev/oled_ssd130x.h ****         }
 773              		.loc 2 375 24 view .LVU193
 774 0016 4FF48062 		mov	r2, #1024
 775 001a 1946     		mov	r1, r3
 776 001c 1030     		adds	r0, r0, #16
 777 001e FFF7FEBF 		b	memset
 778              	.LVL53:
 779              	.L46:
 375:Display/../../libs/PoliTeKDSP/libs/libDaisy/src/dev/oled_ssd130x.h ****         }
 780              		.loc 2 375 24 view .LVU194
 781              	.LBE110:
 782              	.LBE109:
 783              	.LBE108:
  45:Display/displayHandler.cpp ****         }
  46:Display/displayHandler.cpp ****     }
  47:Display/displayHandler.cpp **** }
 784              		.loc 4 47 1 view .LVU195
 785 0022 7047     		bx	lr
 786              	.LVL54:
 787              	.L50:
  44:Display/displayHandler.cpp ****         }
 788              		.loc 4 44 30 view .LVU196
 789 0024 1946     		mov	r1, r3
 790 0026 1047     		bx	r2	@ indirect register sibling call
 791              	.LVL55:
 792              	.L52:
  44:Display/displayHandler.cpp ****         }
ARM GAS  C:\Users\skipi\AppData\Local\Temp\ccerdDJR.s 			page 30


 793              		.loc 4 44 30 view .LVU197
 794              		.align	2
 795              	.L51:
 796 0028 00000000 		.word	_ZN5daisy11OledDisplayINS_13SSD130xDriverILj128ELj64ENS_19SSD130xI2CTransportEEEE4FillEb
 797              		.cfi_endproc
 798              	.LFE2786:
 800              		.section	.text._ZN14DisplayHandler15pushAudioSampleEf,"ax",%progbits
 801              		.align	1
 802              		.p2align 2,,3
 803              		.global	_ZN14DisplayHandler15pushAudioSampleEf
 804              		.syntax unified
 805              		.thumb
 806              		.thumb_func
 807              		.fpu fpv5-d16
 809              	_ZN14DisplayHandler15pushAudioSampleEf:
 810              	.LVL56:
 811              	.LFB2787:
  48:Display/displayHandler.cpp **** 
  49:Display/displayHandler.cpp **** void DisplayHandler::pushAudioSample(float sample) {
 812              		.loc 4 49 52 is_stmt 1 view -0
 813              		.cfi_startproc
 814              		@ args = 0, pretend = 0, frame = 0
 815              		@ frame_needed = 0, uses_anonymous_args = 0
 816              		@ link register save eliminated.
  50:Display/displayHandler.cpp ****     _circBuffer_ptr[_writeHead] = sample;
 817              		.loc 4 50 5 view .LVU199
 818              		.loc 4 50 21 is_stmt 0 view .LVU200
 819 0000 D0F80C28 		ldr	r2, [r0, #2060]
  51:Display/displayHandler.cpp ****     _writeHead = (_writeHead + 1) % BUFFER_SIZE;
 820              		.loc 4 51 30 view .LVU201
 821 0004 531C     		adds	r3, r2, #1
  50:Display/displayHandler.cpp ****     _circBuffer_ptr[_writeHead] = sample;
 822              		.loc 4 50 33 view .LVU202
 823 0006 00EB8202 		add	r2, r0, r2, lsl #2
 824              		.loc 4 51 35 view .LVU203
 825 000a 5942     		rsbs	r1, r3, #0
  50:Display/displayHandler.cpp ****     _circBuffer_ptr[_writeHead] = sample;
 826              		.loc 4 50 33 view .LVU204
 827 000c 82ED020A 		vstr.32	s0, [r2, #8]
 828              		.loc 4 51 5 is_stmt 1 view .LVU205
 829              		.loc 4 51 35 is_stmt 0 view .LVU206
 830 0010 DBB2     		uxtb	r3, r3
 831 0012 CAB2     		uxtb	r2, r1
 832 0014 58BF     		it	pl
 833 0016 5342     		rsbpl	r3, r2, #0
 834              		.loc 4 51 16 view .LVU207
 835 0018 C0F80C38 		str	r3, [r0, #2060]
  52:Display/displayHandler.cpp **** }
 836              		.loc 4 52 1 view .LVU208
 837 001c 7047     		bx	lr
 838              		.cfi_endproc
 839              	.LFE2787:
 841 001e 00BF     		.section	.text._ZN14DisplayHandler11findTriggerEv,"ax",%progbits
 842              		.align	1
 843              		.p2align 2,,3
 844              		.global	_ZN14DisplayHandler11findTriggerEv
 845              		.syntax unified
ARM GAS  C:\Users\skipi\AppData\Local\Temp\ccerdDJR.s 			page 31


 846              		.thumb
 847              		.thumb_func
 848              		.fpu fpv5-d16
 850              	_ZN14DisplayHandler11findTriggerEv:
 851              	.LVL57:
 852              	.LFB2788:
  53:Display/displayHandler.cpp **** 
  54:Display/displayHandler.cpp **** int DisplayHandler::findTrigger() {
 853              		.loc 4 54 35 is_stmt 1 view -0
 854              		.cfi_startproc
 855              		@ args = 0, pretend = 0, frame = 0
 856              		@ frame_needed = 0, uses_anonymous_args = 0
  55:Display/displayHandler.cpp ****     float currVal = 0;
 857              		.loc 4 55 5 view .LVU210
  56:Display/displayHandler.cpp ****     float nextVal = 0;
 858              		.loc 4 56 5 view .LVU211
  57:Display/displayHandler.cpp ****     static int trigIdx = 0;
 859              		.loc 4 57 5 view .LVU212
  58:Display/displayHandler.cpp **** 
  59:Display/displayHandler.cpp ****     int oldestSampleIdx = _writeHead + 1;
 860              		.loc 4 59 5 view .LVU213
  60:Display/displayHandler.cpp **** 
  61:Display/displayHandler.cpp ****     if (_triggerEnabled) {
 861              		.loc 4 61 5 view .LVU214
 862              	.LBB111:
 863 0000 90F81038 		ldrb	r3, [r0, #2064]	@ zero_extendqisi2
 864 0004 13B9     		cbnz	r3, .L72
 865              	.LBE111:
  62:Display/displayHandler.cpp ****         for (int i = oldestSampleIdx; i < oldestSampleIdx + _windowSize; i++) {
  63:Display/displayHandler.cpp ****             currVal = _circBuffer_ptr[i % BUFFER_SIZE];
  64:Display/displayHandler.cpp ****             nextVal = _circBuffer_ptr[(i + 1) % BUFFER_SIZE];
  65:Display/displayHandler.cpp ****              
  66:Display/displayHandler.cpp ****             if (currVal < 0.0f && nextVal >= 0.0f) {
  67:Display/displayHandler.cpp ****                 trigIdx = i % BUFFER_SIZE;
  68:Display/displayHandler.cpp ****                 return trigIdx; 
  69:Display/displayHandler.cpp ****             }
  70:Display/displayHandler.cpp ****         }
  71:Display/displayHandler.cpp ****     }           
  72:Display/displayHandler.cpp ****     return trigIdx;
 866              		.loc 4 72 5 view .LVU215
 867              		.loc 4 72 12 is_stmt 0 view .LVU216
 868 0006 1F4B     		ldr	r3, .L73
 869 0008 1868     		ldr	r0, [r3]
 870              	.LVL58:
  73:Display/displayHandler.cpp **** }
 871              		.loc 4 73 1 view .LVU217
 872 000a 7047     		bx	lr
 873              	.LVL59:
 874              	.L72:
  59:Display/displayHandler.cpp **** 
 875              		.loc 4 59 9 view .LVU218
 876 000c D0F80C38 		ldr	r3, [r0, #2060]
 877              	.LBB115:
 878              	.LBB112:
  62:Display/displayHandler.cpp ****         for (int i = oldestSampleIdx; i < oldestSampleIdx + _windowSize; i++) {
 879              		.loc 4 62 59 view .LVU219
 880 0010 D0F80828 		ldr	r2, [r0, #2056]
ARM GAS  C:\Users\skipi\AppData\Local\Temp\ccerdDJR.s 			page 32


 881              	.LBE112:
 882              	.LBE115:
  59:Display/displayHandler.cpp **** 
 883              		.loc 4 59 9 view .LVU220
 884 0014 0133     		adds	r3, r3, #1
 885              	.LVL60:
 886              	.LBB116:
 887              	.LBB113:
  62:Display/displayHandler.cpp ****         for (int i = oldestSampleIdx; i < oldestSampleIdx + _windowSize; i++) {
 888              		.loc 4 62 41 is_stmt 1 view .LVU221
 889              	.LBE113:
 890              	.LBE116:
  54:Display/displayHandler.cpp ****     float currVal = 0;
 891              		.loc 4 54 35 is_stmt 0 view .LVU222
 892 0016 00B5     		push	{lr}
 893              		.cfi_def_cfa_offset 4
 894              		.cfi_offset 14, -4
 895              	.LBB117:
 896              	.LBB114:
  62:Display/displayHandler.cpp ****             currVal = _circBuffer_ptr[i % BUFFER_SIZE];
 897              		.loc 4 62 59 view .LVU223
 898 0018 03EB020E 		add	lr, r3, r2
  62:Display/displayHandler.cpp ****             currVal = _circBuffer_ptr[i % BUFFER_SIZE];
 899              		.loc 4 62 41 view .LVU224
 900 001c 7345     		cmp	r3, lr
 901 001e 2DDA     		bge	.L55
  63:Display/displayHandler.cpp ****             nextVal = _circBuffer_ptr[(i + 1) % BUFFER_SIZE];
 902              		.loc 4 63 41 view .LVU225
 903 0020 5942     		rsbs	r1, r3, #0
 904 0022 DAB2     		uxtb	r2, r3
 905 0024 C9B2     		uxtb	r1, r1
 906 0026 58BF     		it	pl
 907 0028 4A42     		rsbpl	r2, r1, #0
  63:Display/displayHandler.cpp ****             nextVal = _circBuffer_ptr[(i + 1) % BUFFER_SIZE];
 908              		.loc 4 63 21 view .LVU226
 909 002a 00EB8202 		add	r2, r0, r2, lsl #2
 910 002e D2ED027A 		vldr.32	s15, [r2, #8]
 911 0032 01E0     		b	.L56
 912              	.LVL61:
 913              	.L57:
  62:Display/displayHandler.cpp ****             currVal = _circBuffer_ptr[i % BUFFER_SIZE];
 914              		.loc 4 62 41 discriminator 1 view .LVU227
 915 0034 7345     		cmp	r3, lr
 916 0036 21D0     		beq	.L55
 917              	.LVL62:
 918              	.L56:
  63:Display/displayHandler.cpp ****             nextVal = _circBuffer_ptr[(i + 1) % BUFFER_SIZE];
 919              		.loc 4 63 13 is_stmt 1 view .LVU228
  64:Display/displayHandler.cpp ****              
 920              		.loc 4 64 13 view .LVU229
 921 0038 9C46     		mov	ip, r3
  64:Display/displayHandler.cpp ****              
 922              		.loc 4 64 42 is_stmt 0 view .LVU230
 923 003a 0133     		adds	r3, r3, #1
 924              	.LVL63:
  62:Display/displayHandler.cpp ****             currVal = _circBuffer_ptr[i % BUFFER_SIZE];
 925              		.loc 4 62 41 is_stmt 1 view .LVU231
ARM GAS  C:\Users\skipi\AppData\Local\Temp\ccerdDJR.s 			page 33


 926 003c B0EE677A 		vmov.f32	s14, s15
  64:Display/displayHandler.cpp ****              
 927              		.loc 4 64 47 is_stmt 0 view .LVU232
 928 0040 5942     		rsbs	r1, r3, #0
 929 0042 DAB2     		uxtb	r2, r3
  66:Display/displayHandler.cpp ****                 trigIdx = i % BUFFER_SIZE;
 930              		.loc 4 66 13 view .LVU233
 931 0044 B5EEC07A 		vcmpe.f32	s14, #0
  64:Display/displayHandler.cpp ****              
 932              		.loc 4 64 47 view .LVU234
 933 0048 C9B2     		uxtb	r1, r1
 934 004a 58BF     		it	pl
 935 004c 4A42     		rsbpl	r2, r1, #0
  66:Display/displayHandler.cpp ****                 trigIdx = i % BUFFER_SIZE;
 936              		.loc 4 66 13 view .LVU235
 937 004e F1EE10FA 		vmrs	APSR_nzcv, FPSCR
  64:Display/displayHandler.cpp ****              
 938              		.loc 4 64 21 view .LVU236
 939 0052 00EB8202 		add	r2, r0, r2, lsl #2
 940 0056 D2ED027A 		vldr.32	s15, [r2, #8]
 941              	.LVL64:
  66:Display/displayHandler.cpp ****                 trigIdx = i % BUFFER_SIZE;
 942              		.loc 4 66 13 is_stmt 1 view .LVU237
 943 005a EBD5     		bpl	.L57
  66:Display/displayHandler.cpp ****                 trigIdx = i % BUFFER_SIZE;
 944              		.loc 4 66 32 is_stmt 0 discriminator 1 view .LVU238
 945 005c F5EEC07A 		vcmpe.f32	s15, #0
 946 0060 F1EE10FA 		vmrs	APSR_nzcv, FPSCR
 947 0064 E6DB     		blt	.L57
  63:Display/displayHandler.cpp ****             nextVal = _circBuffer_ptr[(i + 1) % BUFFER_SIZE];
 948              		.loc 4 63 41 view .LVU239
 949 0066 DCF10003 		rsbs	r3, ip, #0
 950              	.LVL65:
  63:Display/displayHandler.cpp ****             nextVal = _circBuffer_ptr[(i + 1) % BUFFER_SIZE];
 951              		.loc 4 63 41 view .LVU240
 952 006a 5FFA8CF0 		uxtb	r0, ip
 953              	.LVL66:
  67:Display/displayHandler.cpp ****                 return trigIdx; 
 954              		.loc 4 67 25 view .LVU241
 955 006e 054A     		ldr	r2, .L73
  63:Display/displayHandler.cpp ****             nextVal = _circBuffer_ptr[(i + 1) % BUFFER_SIZE];
 956              		.loc 4 63 41 view .LVU242
 957 0070 DBB2     		uxtb	r3, r3
 958 0072 58BF     		it	pl
 959 0074 5842     		rsbpl	r0, r3, #0
  67:Display/displayHandler.cpp ****                 return trigIdx; 
 960              		.loc 4 67 17 is_stmt 1 view .LVU243
  67:Display/displayHandler.cpp ****                 return trigIdx; 
 961              		.loc 4 67 25 is_stmt 0 view .LVU244
 962 0076 1060     		str	r0, [r2]
  68:Display/displayHandler.cpp ****             }
 963              		.loc 4 68 17 is_stmt 1 view .LVU245
 964              	.LBE114:
 965              	.LBE117:
 966              		.loc 4 73 1 is_stmt 0 view .LVU246
 967 0078 5DF804FB 		ldr	pc, [sp], #4
 968              	.LVL67:
ARM GAS  C:\Users\skipi\AppData\Local\Temp\ccerdDJR.s 			page 34


 969              	.L55:
  72:Display/displayHandler.cpp **** }
 970              		.loc 4 72 5 is_stmt 1 view .LVU247
  72:Display/displayHandler.cpp **** }
 971              		.loc 4 72 12 is_stmt 0 view .LVU248
 972 007c 014B     		ldr	r3, .L73
 973 007e 1868     		ldr	r0, [r3]
 974              	.LVL68:
 975              		.loc 4 73 1 view .LVU249
 976 0080 5DF804FB 		ldr	pc, [sp], #4
 977              	.L74:
 978              		.align	2
 979              	.L73:
 980 0084 00000000 		.word	.LANCHOR0
 981              		.cfi_endproc
 982              	.LFE2788:
 984              		.section	.text._ZN14DisplayHandler12drawWaveFormEv,"ax",%progbits
 985              		.align	1
 986              		.p2align 2,,3
 987              		.global	_ZN14DisplayHandler12drawWaveFormEv
 988              		.syntax unified
 989              		.thumb
 990              		.thumb_func
 991              		.fpu fpv5-d16
 993              	_ZN14DisplayHandler12drawWaveFormEv:
 994              	.LVL69:
 995              	.LFB2789:
  74:Display/displayHandler.cpp **** 
  75:Display/displayHandler.cpp **** void DisplayHandler::drawWaveForm() {
 996              		.loc 4 75 37 is_stmt 1 view -0
 997              		.cfi_startproc
 998              		@ args = 0, pretend = 0, frame = 16
 999              		@ frame_needed = 0, uses_anonymous_args = 0
  76:Display/displayHandler.cpp ****     int zeroOfScreen = 32; 
 1000              		.loc 4 76 5 view .LVU251
  77:Display/displayHandler.cpp ****     int y1, y2;
 1001              		.loc 4 77 5 view .LVU252
  78:Display/displayHandler.cpp ****     int idx = 0;
 1002              		.loc 4 78 5 view .LVU253
  79:Display/displayHandler.cpp **** 
  80:Display/displayHandler.cpp ****     _displayPtr->SetCursor(0, zeroOfScreen);
 1003              		.loc 4 80 5 view .LVU254
  75:Display/displayHandler.cpp ****     int zeroOfScreen = 32; 
 1004              		.loc 4 75 37 is_stmt 0 view .LVU255
 1005 0000 2DE9F04F 		push	{r4, r5, r6, r7, r8, r9, r10, fp, lr}
 1006              		.cfi_def_cfa_offset 36
 1007              		.cfi_offset 4, -36
 1008              		.cfi_offset 5, -32
 1009              		.cfi_offset 6, -28
 1010              		.cfi_offset 7, -24
 1011              		.cfi_offset 8, -20
 1012              		.cfi_offset 9, -16
 1013              		.cfi_offset 10, -12
 1014              		.cfi_offset 11, -8
 1015              		.cfi_offset 14, -4
 1016              		.loc 4 80 5 view .LVU256
 1017 0004 0468     		ldr	r4, [r0]
ARM GAS  C:\Users\skipi\AppData\Local\Temp\ccerdDJR.s 			page 35


 1018              	.LVL70:
 1019              	.LBB139:
 1020              	.LBI139:
 171:Display/../../libs/PoliTeKDSP/libs/libDaisy/src/hid/disp/display.h ****     {
 1021              		.loc 3 171 10 is_stmt 1 view .LVU257
 1022              	.LBB140:
 173:Display/../../libs/PoliTeKDSP/libs/libDaisy/src/hid/disp/display.h ****         currentY_ = (y >= Height()) ? Height() - 1 : y;
 1023              		.loc 3 173 9 view .LVU258
 1024              	.LBE140:
 1025              	.LBE139:
  75:Display/displayHandler.cpp ****     int zeroOfScreen = 32; 
 1026              		.loc 4 75 37 is_stmt 0 view .LVU259
 1027 0006 87B0     		sub	sp, sp, #28
 1028              		.cfi_def_cfa_offset 64
  75:Display/displayHandler.cpp ****     int zeroOfScreen = 32; 
 1029              		.loc 4 75 37 view .LVU260
 1030 0008 0646     		mov	r6, r0
 1031              	.LBB144:
 1032              	.LBB141:
 173:Display/../../libs/PoliTeKDSP/libs/libDaisy/src/hid/disp/display.h ****         currentY_ = (y >= Height()) ? Height() - 1 : y;
 1033              		.loc 3 173 33 view .LVU261
 1034 000a 2368     		ldr	r3, [r4]
 173:Display/../../libs/PoliTeKDSP/libs/libDaisy/src/hid/disp/display.h ****         currentY_ = (y >= Height()) ? Height() - 1 : y;
 1035              		.loc 3 173 32 view .LVU262
 1036 000c 2046     		mov	r0, r4
 1037              	.LVL71:
 173:Display/../../libs/PoliTeKDSP/libs/libDaisy/src/hid/disp/display.h ****         currentY_ = (y >= Height()) ? Height() - 1 : y;
 1038              		.loc 3 173 32 view .LVU263
 1039 000e DB68     		ldr	r3, [r3, #12]
 1040 0010 9847     		blx	r3
 1041              	.LVL72:
 173:Display/../../libs/PoliTeKDSP/libs/libDaisy/src/hid/disp/display.h ****         currentY_ = (y >= Height()) ? Height() - 1 : y;
 1042              		.loc 3 173 19 view .LVU264
 1043 0012 0028     		cmp	r0, #0
 1044 0014 40F0CB80 		bne	.L93
 173:Display/../../libs/PoliTeKDSP/libs/libDaisy/src/hid/disp/display.h ****         currentY_ = (y >= Height()) ? Height() - 1 : y;
 1045              		.loc 3 173 44 view .LVU265
 1046 0018 2368     		ldr	r3, [r4]
 173:Display/../../libs/PoliTeKDSP/libs/libDaisy/src/hid/disp/display.h ****         currentY_ = (y >= Height()) ? Height() - 1 : y;
 1047              		.loc 3 173 43 view .LVU266
 1048 001a 2046     		mov	r0, r4
 1049 001c DB68     		ldr	r3, [r3, #12]
 1050 001e 9847     		blx	r3
 1051              	.LVL73:
 173:Display/../../libs/PoliTeKDSP/libs/libDaisy/src/hid/disp/display.h ****         currentY_ = (y >= Height()) ? Height() - 1 : y;
 1052              		.loc 3 173 19 view .LVU267
 1053 0020 0138     		subs	r0, r0, #1
 1054 0022 83B2     		uxth	r3, r0
 1055              	.L76:
 174:Display/../../libs/PoliTeKDSP/libs/libDaisy/src/hid/disp/display.h ****     }
 1056              		.loc 3 174 34 view .LVU268
 1057 0024 2268     		ldr	r2, [r4]
 174:Display/../../libs/PoliTeKDSP/libs/libDaisy/src/hid/disp/display.h ****     }
 1058              		.loc 3 174 33 view .LVU269
 1059 0026 2046     		mov	r0, r4
 173:Display/../../libs/PoliTeKDSP/libs/libDaisy/src/hid/disp/display.h ****         currentY_ = (y >= Height()) ? Height() - 1 : y;
 1060              		.loc 3 173 19 view .LVU270
ARM GAS  C:\Users\skipi\AppData\Local\Temp\ccerdDJR.s 			page 36


 1061 0028 A380     		strh	r3, [r4, #4]	@ movhi
 174:Display/../../libs/PoliTeKDSP/libs/libDaisy/src/hid/disp/display.h ****     }
 1062              		.loc 3 174 9 is_stmt 1 view .LVU271
 174:Display/../../libs/PoliTeKDSP/libs/libDaisy/src/hid/disp/display.h ****     }
 1063              		.loc 3 174 33 is_stmt 0 view .LVU272
 1064 002a 9368     		ldr	r3, [r2, #8]
 1065 002c 9847     		blx	r3
 1066              	.LVL74:
 174:Display/../../libs/PoliTeKDSP/libs/libDaisy/src/hid/disp/display.h ****     }
 1067              		.loc 3 174 19 view .LVU273
 1068 002e 2028     		cmp	r0, #32
 1069 0030 00F2BB80 		bhi	.L94
 174:Display/../../libs/PoliTeKDSP/libs/libDaisy/src/hid/disp/display.h ****     }
 1070              		.loc 3 174 46 view .LVU274
 1071 0034 2368     		ldr	r3, [r4]
 174:Display/../../libs/PoliTeKDSP/libs/libDaisy/src/hid/disp/display.h ****     }
 1072              		.loc 3 174 45 view .LVU275
 1073 0036 2046     		mov	r0, r4
 1074 0038 9B68     		ldr	r3, [r3, #8]
 1075 003a 9847     		blx	r3
 1076              	.LVL75:
 174:Display/../../libs/PoliTeKDSP/libs/libDaisy/src/hid/disp/display.h ****     }
 1077              		.loc 3 174 19 view .LVU276
 1078 003c 0138     		subs	r0, r0, #1
 1079 003e 83B2     		uxth	r3, r0
 1080              	.L77:
 1081              	.LBE141:
 1082              	.LBE144:
  81:Display/displayHandler.cpp ****     _displayPtr->Fill(false);
 1083              		.loc 4 81 5 view .LVU277
 1084 0040 3068     		ldr	r0, [r6]
 1085              	.LBB145:
 1086              	.LBB142:
 174:Display/../../libs/PoliTeKDSP/libs/libDaisy/src/hid/disp/display.h ****     }
 1087              		.loc 3 174 19 view .LVU278
 1088 0042 E380     		strh	r3, [r4, #6]	@ movhi
 1089              	.LVL76:
 174:Display/../../libs/PoliTeKDSP/libs/libDaisy/src/hid/disp/display.h ****     }
 1090              		.loc 3 174 19 view .LVU279
 1091              	.LBE142:
 1092              	.LBE145:
 1093              		.loc 4 81 5 is_stmt 1 view .LVU280
 1094              		.loc 4 81 28 is_stmt 0 view .LVU281
 1095 0044 0368     		ldr	r3, [r0]
 1096 0046 5C4A     		ldr	r2, .L103
 1097 0048 1B69     		ldr	r3, [r3, #16]
 1098 004a 9342     		cmp	r3, r2
 1099 004c 40F0B180 		bne	.L78
 1100              	.LBB146:
 1101              	.LBB147:
 1102              	.LBB148:
 375:Display/../../libs/PoliTeKDSP/libs/libDaisy/src/dev/oled_ssd130x.h ****         }
 1103              		.loc 2 375 24 view .LVU282
 1104 0050 4FF48062 		mov	r2, #1024
 1105 0054 0021     		movs	r1, #0
 1106 0056 1030     		adds	r0, r0, #16
 1107 0058 FFF7FEFF 		bl	memset
ARM GAS  C:\Users\skipi\AppData\Local\Temp\ccerdDJR.s 			page 37


 1108              	.LVL77:
 1109              	.L79:
 1110              	.LBE148:
 1111              	.LBE147:
 1112              	.LBE146:
  82:Display/displayHandler.cpp **** 
  83:Display/displayHandler.cpp ****     idx = findTrigger();
 1113              		.loc 4 83 5 is_stmt 1 view .LVU283
 1114              		.loc 4 83 22 is_stmt 0 view .LVU284
 1115 005c 3046     		mov	r0, r6
 1116 005e FFF7FEFF 		bl	_ZN14DisplayHandler11findTriggerEv
 1117              	.LVL78:
 1118              	.LBB149:
  84:Display/displayHandler.cpp ****     
  85:Display/displayHandler.cpp ****     for (int i = idx; i < idx + _windowSize; i++) {
 1119              		.loc 4 85 25 view .LVU285
 1120 0062 D6F80838 		ldr	r3, [r6, #2056]
 1121              	.LBE149:
  83:Display/displayHandler.cpp ****     
 1122              		.loc 4 83 22 view .LVU286
 1123 0066 0590     		str	r0, [sp, #20]
 1124              	.LVL79:
 1125              		.loc 4 85 5 is_stmt 1 view .LVU287
 1126              	.LBB176:
 1127              		.loc 4 85 25 view .LVU288
 1128 0068 002B     		cmp	r3, #0
 1129 006a 7CDD     		ble	.L75
 1130 006c C3B2     		uxtb	r3, r0
 1131              		.loc 4 85 14 is_stmt 0 view .LVU289
 1132 006e 8246     		mov	r10, r0
 1133              		.loc 4 85 25 view .LVU290
 1134 0070 0127     		movs	r7, #1
 1135 0072 B046     		mov	r8, r6
 1136 0074 0493     		str	r3, [sp, #16]
 1137              	.LVL80:
 1138              	.L81:
  86:Display/displayHandler.cpp ****         y1 = zeroOfScreen - (int)(_circBuffer_ptr[i % BUFFER_SIZE] * _yscale);
 1139              		.loc 4 86 9 is_stmt 1 view .LVU291
 1140              		.loc 4 86 53 is_stmt 0 view .LVU292
 1141 0076 DAF10004 		rsbs	r4, r10, #0
  87:Display/displayHandler.cpp ****         y2 = zeroOfScreen - (int)(_circBuffer_ptr[(i + 1) % BUFFER_SIZE] * _yscale);
 1142              		.loc 4 87 54 view .LVU293
 1143 007a 0AF1010A 		add	r10, r10, #1
 1144              	.LVL81:
  86:Display/displayHandler.cpp ****         y1 = zeroOfScreen - (int)(_circBuffer_ptr[i % BUFFER_SIZE] * _yscale);
 1145              		.loc 4 86 53 view .LVU294
 1146 007e 049A     		ldr	r2, [sp, #16]
 1147 0080 07F1FF31 		add	r1, r7, #-1
 1148 0084 E4B2     		uxtb	r4, r4
  86:Display/displayHandler.cpp ****         y1 = zeroOfScreen - (int)(_circBuffer_ptr[i % BUFFER_SIZE] * _yscale);
 1149              		.loc 4 86 68 view .LVU295
 1150 0086 D8F81838 		ldr	r3, [r8, #2072]
  88:Display/displayHandler.cpp ****         
  89:Display/displayHandler.cpp ****         if (y1 < 0) { y1 = 0; } 
  90:Display/displayHandler.cpp ****         if (y1 > 63) { y1 = 63; }
  91:Display/displayHandler.cpp ****         if (y2 < 0) { y2 = 0; } 
  92:Display/displayHandler.cpp ****         if (y2 > 63) { y2 = 63; }
ARM GAS  C:\Users\skipi\AppData\Local\Temp\ccerdDJR.s 			page 38


  93:Display/displayHandler.cpp **** 
  94:Display/displayHandler.cpp ****         _displayPtr->DrawLine(i - idx, y1, (i + 1) - idx, y2, true);
 1151              		.loc 4 94 9 view .LVU296
 1152 008a D8F80000 		ldr	r0, [r8]
  87:Display/displayHandler.cpp ****         y2 = zeroOfScreen - (int)(_circBuffer_ptr[(i + 1) % BUFFER_SIZE] * _yscale);
 1153              		.loc 4 87 59 view .LVU297
 1154 008e 5FFA8AF6 		uxtb	r6, r10
  86:Display/displayHandler.cpp ****         y2 = zeroOfScreen - (int)(_circBuffer_ptr[(i + 1) % BUFFER_SIZE] * _yscale);
 1155              		.loc 4 86 53 view .LVU298
 1156 0092 58BF     		it	pl
 1157 0094 6242     		rsbpl	r2, r4, #0
  87:Display/displayHandler.cpp ****         y2 = zeroOfScreen - (int)(_circBuffer_ptr[(i + 1) % BUFFER_SIZE] * _yscale);
 1158              		.loc 4 87 59 view .LVU299
 1159 0096 DAF10004 		rsbs	r4, r10, #0
  86:Display/displayHandler.cpp ****         y2 = zeroOfScreen - (int)(_circBuffer_ptr[(i + 1) % BUFFER_SIZE] * _yscale);
 1160              		.loc 4 86 68 view .LVU300
 1161 009a 07EE903A 		vmov	s15, r3	@ int
 1162              		.loc 4 94 67 view .LVU301
 1163 009e 0368     		ldr	r3, [r0]
  87:Display/displayHandler.cpp ****         y2 = zeroOfScreen - (int)(_circBuffer_ptr[(i + 1) % BUFFER_SIZE] * _yscale);
 1164              		.loc 4 87 59 view .LVU302
 1165 00a0 E4B2     		uxtb	r4, r4
 1166 00a2 0496     		str	r6, [sp, #16]
 1167              		.loc 4 94 67 view .LVU303
 1168 00a4 9D69     		ldr	r5, [r3, #24]
  86:Display/displayHandler.cpp ****         y2 = zeroOfScreen - (int)(_circBuffer_ptr[(i + 1) % BUFFER_SIZE] * _yscale);
 1169              		.loc 4 86 66 view .LVU304
 1170 00a6 08EB8202 		add	r2, r8, r2, lsl #2
  87:Display/displayHandler.cpp ****         y2 = zeroOfScreen - (int)(_circBuffer_ptr[(i + 1) % BUFFER_SIZE] * _yscale);
 1171              		.loc 4 87 59 view .LVU305
 1172 00aa 3346     		mov	r3, r6
 1173 00ac 58BF     		it	pl
 1174 00ae 6342     		rsbpl	r3, r4, #0
  86:Display/displayHandler.cpp ****         y2 = zeroOfScreen - (int)(_circBuffer_ptr[(i + 1) % BUFFER_SIZE] * _yscale);
 1175              		.loc 4 86 68 view .LVU306
 1176 00b0 F8EEE77A 		vcvt.f32.s32	s15, s15
 1177 00b4 92ED027A 		vldr.32	s14, [r2, #8]
  87:Display/displayHandler.cpp ****         y2 = zeroOfScreen - (int)(_circBuffer_ptr[(i + 1) % BUFFER_SIZE] * _yscale);
 1178              		.loc 4 87 72 view .LVU307
 1179 00b8 08EB8303 		add	r3, r8, r3, lsl #2
  86:Display/displayHandler.cpp ****         y2 = zeroOfScreen - (int)(_circBuffer_ptr[(i + 1) % BUFFER_SIZE] * _yscale);
 1180              		.loc 4 86 68 view .LVU308
 1181 00bc 27EE877A 		vmul.f32	s14, s15, s14
  87:Display/displayHandler.cpp ****         y2 = zeroOfScreen - (int)(_circBuffer_ptr[(i + 1) % BUFFER_SIZE] * _yscale);
 1182              		.loc 4 87 74 view .LVU309
 1183 00c0 D3ED026A 		vldr.32	s13, [r3, #8]
 1184 00c4 3D4B     		ldr	r3, .L103+4
 1185 00c6 67EEA67A 		vmul.f32	s15, s15, s13
  86:Display/displayHandler.cpp ****         y2 = zeroOfScreen - (int)(_circBuffer_ptr[(i + 1) % BUFFER_SIZE] * _yscale);
 1186              		.loc 4 86 29 view .LVU310
 1187 00ca BDEEC77A 		vcvt.s32.f32	s14, s14
 1188 00ce 9D42     		cmp	r5, r3
  87:Display/displayHandler.cpp ****         y2 = zeroOfScreen - (int)(_circBuffer_ptr[(i + 1) % BUFFER_SIZE] * _yscale);
 1189              		.loc 4 87 29 view .LVU311
 1190 00d0 FDEEE77A 		vcvt.s32.f32	s15, s15
  86:Display/displayHandler.cpp ****         y2 = zeroOfScreen - (int)(_circBuffer_ptr[(i + 1) % BUFFER_SIZE] * _yscale);
 1191              		.loc 4 86 29 view .LVU312
ARM GAS  C:\Users\skipi\AppData\Local\Temp\ccerdDJR.s 			page 39


 1192 00d4 17EE102A 		vmov	r2, s14	@ int
  87:Display/displayHandler.cpp ****         y2 = zeroOfScreen - (int)(_circBuffer_ptr[(i + 1) % BUFFER_SIZE] * _yscale);
 1193              		.loc 4 87 29 view .LVU313
 1194 00d8 17EE906A 		vmov	r6, s15	@ int
  86:Display/displayHandler.cpp ****         y2 = zeroOfScreen - (int)(_circBuffer_ptr[(i + 1) % BUFFER_SIZE] * _yscale);
 1195              		.loc 4 86 12 view .LVU314
 1196 00dc C2F12002 		rsb	r2, r2, #32
 1197              	.LVL82:
  87:Display/displayHandler.cpp ****         y2 = zeroOfScreen - (int)(_circBuffer_ptr[(i + 1) % BUFFER_SIZE] * _yscale);
 1198              		.loc 4 87 9 is_stmt 1 view .LVU315
  89:Display/displayHandler.cpp ****         if (y1 > 63) { y1 = 63; }
 1199              		.loc 4 89 9 view .LVU316
  87:Display/displayHandler.cpp ****         
 1200              		.loc 4 87 12 is_stmt 0 view .LVU317
 1201 00e0 C6F12006 		rsb	r6, r6, #32
 1202 00e4 82F30602 		usat	r2, #6, r2
 1203              	.LVL83:
  91:Display/displayHandler.cpp ****         if (y2 > 63) { y2 = 63; }
 1204              		.loc 4 91 9 is_stmt 1 view .LVU318
 1205 00e8 86F30606 		usat	r6, #6, r6
 1206              	.LVL84:
 1207              		.loc 4 94 9 view .LVU319
 1208              		.loc 4 94 30 is_stmt 0 view .LVU320
 1209 00ec 1446     		mov	r4, r2
 1210 00ee 56D1     		bne	.L82
 1211              	.LVL85:
 1212              	.LBB150:
 1213              	.LBI150:
 226:Display/../../libs/PoliTeKDSP/libs/libDaisy/src/hid/disp/display.h ****                   uint_fast8_t y1,
 1214              		.loc 3 226 10 is_stmt 1 view .LVU321
 1215              	.LBB151:
 233:Display/../../libs/PoliTeKDSP/libs/libDaisy/src/hid/disp/display.h ****         int_fast16_t signX  = ((x1 < x2) ? 1 : -1);
 1216              		.loc 3 233 52 is_stmt 0 view .LVU322
 1217 00f0 A6EB0209 		sub	r9, r6, r2
 233:Display/../../libs/PoliTeKDSP/libs/libDaisy/src/hid/disp/display.h ****         int_fast16_t signX  = ((x1 < x2) ? 1 : -1);
 1218              		.loc 3 233 22 view .LVU323
 1219 00f4 B9F1000F 		cmp	r9, #0
 1220 00f8 B8BF     		it	lt
 1221 00fa C9F10009 		rsblt	r9, r9, #0
 1222              	.LVL86:
 235:Display/../../libs/PoliTeKDSP/libs/libDaisy/src/hid/disp/display.h ****         int_fast16_t error  = deltaX - deltaY;
 1223              		.loc 3 235 42 view .LVU324
 1224 00fe B242     		cmp	r2, r6
 236:Display/../../libs/PoliTeKDSP/libs/libDaisy/src/hid/disp/display.h ****         int_fast16_t error2;
 1225              		.loc 3 236 22 view .LVU325
 1226 0100 C9F10105 		rsb	r5, r9, #1
 235:Display/../../libs/PoliTeKDSP/libs/libDaisy/src/hid/disp/display.h ****         int_fast16_t error  = deltaX - deltaY;
 1227              		.loc 3 235 42 view .LVU326
 1228 0104 36D2     		bcs	.L102
 1229              	.LVL87:
 1230              	.LBB152:
 1231              	.LBI152:
  42:Display/../../libs/PoliTeKDSP/libs/libDaisy/src/hid/disp/oled_display.h ****     {
 1232              		.loc 1 42 10 is_stmt 1 view .LVU327
 1233              	.LBB153:
 1234              	.LBI153:
 361:Display/../../libs/PoliTeKDSP/libs/libDaisy/src/dev/oled_ssd130x.h ****     {
ARM GAS  C:\Users\skipi\AppData\Local\Temp\ccerdDJR.s 			page 40


 1235              		.loc 2 361 10 view .LVU328
 1236              	.LBE153:
 1237              	.LBE152:
 235:Display/../../libs/PoliTeKDSP/libs/libDaisy/src/hid/disp/display.h ****         int_fast16_t error  = deltaX - deltaY;
 1238              		.loc 3 235 42 is_stmt 0 view .LVU329
 1239 0106 0123     		movs	r3, #1
 1240              	.LBB163:
 1241              	.LBB158:
 1242              	.LBB154:
 363:Display/../../libs/PoliTeKDSP/libs/libDaisy/src/dev/oled_ssd130x.h ****             return;
 1243              		.loc 2 363 9 view .LVU330
 1244 0108 7F2F     		cmp	r7, #127
 1245              	.LBE154:
 1246              	.LBE158:
 1247              	.LBE163:
 235:Display/../../libs/PoliTeKDSP/libs/libDaisy/src/hid/disp/display.h ****         int_fast16_t error  = deltaX - deltaY;
 1248              		.loc 3 235 42 view .LVU331
 1249 010a 0393     		str	r3, [sp, #12]
 1250              	.LBB164:
 1251              	.LBB159:
 1252              	.LBB155:
 363:Display/../../libs/PoliTeKDSP/libs/libDaisy/src/dev/oled_ssd130x.h ****             return;
 1253              		.loc 2 363 9 view .LVU332
 1254 010c 37D9     		bls	.L92
 1255              	.LVL88:
 1256              	.L85:
 363:Display/../../libs/PoliTeKDSP/libs/libDaisy/src/dev/oled_ssd130x.h ****             return;
 1257              		.loc 2 363 9 view .LVU333
 1258              	.LBE155:
 1259              	.LBE159:
 1260              	.LBE164:
 248:Display/../../libs/PoliTeKDSP/libs/libDaisy/src/hid/disp/display.h ****             {
 1261              		.loc 3 248 23 view .LVU334
 1262 010e C9F1000E 		rsb	lr, r9, #0
 1263              	.LVL89:
 1264              	.L88:
 1265              	.LBB165:
 1266              	.LBI165:
  42:Display/../../libs/PoliTeKDSP/libs/libDaisy/src/hid/disp/oled_display.h ****     {
 1267              		.loc 1 42 10 is_stmt 1 view .LVU335
 1268              	.LBB166:
 1269              	.LBI166:
 361:Display/../../libs/PoliTeKDSP/libs/libDaisy/src/dev/oled_ssd130x.h ****     {
 1270              		.loc 2 361 10 view .LVU336
 1271              	.LBB167:
 366:Display/../../libs/PoliTeKDSP/libs/libDaisy/src/dev/oled_ssd130x.h ****         else
 1272              		.loc 2 366 48 is_stmt 0 view .LVU337
 1273 0112 4FF0010C 		mov	ip, #1
 366:Display/../../libs/PoliTeKDSP/libs/libDaisy/src/dev/oled_ssd130x.h ****         else
 1274              		.loc 2 366 28 view .LVU338
 1275 0116 E308     		lsrs	r3, r4, #3
 366:Display/../../libs/PoliTeKDSP/libs/libDaisy/src/dev/oled_ssd130x.h ****         else
 1276              		.loc 2 366 54 view .LVU339
 1277 0118 04F00702 		and	r2, r4, #7
 363:Display/../../libs/PoliTeKDSP/libs/libDaisy/src/dev/oled_ssd130x.h ****             return;
 1278              		.loc 2 363 9 view .LVU340
 1279 011c 7F29     		cmp	r1, #127
ARM GAS  C:\Users\skipi\AppData\Local\Temp\ccerdDJR.s 			page 41


 366:Display/../../libs/PoliTeKDSP/libs/libDaisy/src/dev/oled_ssd130x.h ****         else
 1280              		.loc 2 366 42 view .LVU341
 1281 011e 01EBC313 		add	r3, r1, r3, lsl #7
 1282              	.LBE167:
 1283              	.LBE166:
 1284              	.LBE165:
 247:Display/../../libs/PoliTeKDSP/libs/libDaisy/src/hid/disp/display.h ****             if(error2 > -deltaY)
 1285              		.loc 3 247 20 view .LVU342
 1286 0122 05FA0CFB 		lsl	fp, r5, ip
 1287              	.LVL90:
 1288              	.LBB170:
 1289              	.LBB169:
 1290              	.LBB168:
 366:Display/../../libs/PoliTeKDSP/libs/libDaisy/src/dev/oled_ssd130x.h ****         else
 1291              		.loc 2 366 48 view .LVU343
 1292 0126 0CFA02F2 		lsl	r2, ip, r2
 363:Display/../../libs/PoliTeKDSP/libs/libDaisy/src/dev/oled_ssd130x.h ****             return;
 1293              		.loc 2 363 9 view .LVU344
 1294 012a 07D8     		bhi	.L89
 1295 012c 3F2C     		cmp	r4, #63
 366:Display/../../libs/PoliTeKDSP/libs/libDaisy/src/dev/oled_ssd130x.h ****         else
 1296              		.loc 2 366 42 view .LVU345
 1297 012e 0344     		add	r3, r3, r0
 363:Display/../../libs/PoliTeKDSP/libs/libDaisy/src/dev/oled_ssd130x.h ****             return;
 1298              		.loc 2 363 9 view .LVU346
 1299 0130 04D8     		bhi	.L89
 366:Display/../../libs/PoliTeKDSP/libs/libDaisy/src/dev/oled_ssd130x.h ****         else
 1300              		.loc 2 366 42 view .LVU347
 1301 0132 93F810C0 		ldrb	ip, [r3, #16]	@ zero_extendqisi2
 1302 0136 42EA0C02 		orr	r2, r2, ip
 1303 013a 1A74     		strb	r2, [r3, #16]
 1304              	.L89:
 366:Display/../../libs/PoliTeKDSP/libs/libDaisy/src/dev/oled_ssd130x.h ****         else
 1305              		.loc 2 366 42 view .LVU348
 1306              	.LBE168:
 1307              	.LBE169:
 1308              	.LBE170:
 248:Display/../../libs/PoliTeKDSP/libs/libDaisy/src/hid/disp/display.h ****             {
 1309              		.loc 3 248 13 view .LVU349
 1310 013c BEEB450F 		cmp	lr, r5, lsl #1
 1311 0140 14DA     		bge	.L90
 254:Display/../../libs/PoliTeKDSP/libs/libDaisy/src/hid/disp/display.h ****             {
 1312              		.loc 3 254 13 view .LVU350
 1313 0142 BBF1000F 		cmp	fp, #0
 250:Display/../../libs/PoliTeKDSP/libs/libDaisy/src/hid/disp/display.h ****                 x1 += signX;
 1314              		.loc 3 250 23 view .LVU351
 1315 0146 A5EB0905 		sub	r5, r5, r9
 1316              	.LVL91:
 251:Display/../../libs/PoliTeKDSP/libs/libDaisy/src/hid/disp/display.h ****             }
 1317              		.loc 3 251 20 view .LVU352
 1318 014a 01F10101 		add	r1, r1, #1
 1319              	.LVL92:
 254:Display/../../libs/PoliTeKDSP/libs/libDaisy/src/hid/disp/display.h ****             {
 1320              		.loc 3 254 13 view .LVU353
 1321 014e 0DDD     		ble	.L90
 1322              	.L91:
 244:Display/../../libs/PoliTeKDSP/libs/libDaisy/src/hid/disp/display.h ****         {
ARM GAS  C:\Users\skipi\AppData\Local\Temp\ccerdDJR.s 			page 42


 1323              		.loc 3 244 26 is_stmt 1 view .LVU354
 1324 0150 B942     		cmp	r1, r7
 1325 0152 DED1     		bne	.L88
 244:Display/../../libs/PoliTeKDSP/libs/libDaisy/src/hid/disp/display.h ****         {
 1326              		.loc 3 244 26 is_stmt 0 view .LVU355
 1327 0154 A642     		cmp	r6, r4
 1328 0156 DCD1     		bne	.L88
 1329              	.LVL93:
 1330              	.L86:
 244:Display/../../libs/PoliTeKDSP/libs/libDaisy/src/hid/disp/display.h ****         {
 1331              		.loc 3 244 26 view .LVU356
 1332              	.LBE151:
 1333              	.LBE150:
  85:Display/displayHandler.cpp ****         y1 = zeroOfScreen - (int)(_circBuffer_ptr[i % BUFFER_SIZE] * _yscale);
 1334              		.loc 4 85 25 is_stmt 1 discriminator 1 view .LVU357
  85:Display/displayHandler.cpp ****         y1 = zeroOfScreen - (int)(_circBuffer_ptr[i % BUFFER_SIZE] * _yscale);
 1335              		.loc 4 85 31 is_stmt 0 discriminator 1 view .LVU358
 1336 0158 D8F80838 		ldr	r3, [r8, #2056]
  85:Display/displayHandler.cpp ****         y1 = zeroOfScreen - (int)(_circBuffer_ptr[i % BUFFER_SIZE] * _yscale);
 1337              		.loc 4 85 25 discriminator 1 view .LVU359
 1338 015c 0137     		adds	r7, r7, #1
  85:Display/displayHandler.cpp ****         y1 = zeroOfScreen - (int)(_circBuffer_ptr[i % BUFFER_SIZE] * _yscale);
 1339              		.loc 4 85 31 discriminator 1 view .LVU360
 1340 015e 059A     		ldr	r2, [sp, #20]
 1341 0160 1344     		add	r3, r3, r2
  85:Display/displayHandler.cpp ****         y1 = zeroOfScreen - (int)(_circBuffer_ptr[i % BUFFER_SIZE] * _yscale);
 1342              		.loc 4 85 25 discriminator 1 view .LVU361
 1343 0162 5345     		cmp	r3, r10
 1344 0164 87DC     		bgt	.L81
 1345              	.LVL94:
 1346              	.L75:
  85:Display/displayHandler.cpp ****         y1 = zeroOfScreen - (int)(_circBuffer_ptr[i % BUFFER_SIZE] * _yscale);
 1347              		.loc 4 85 25 discriminator 1 view .LVU362
 1348              	.LBE176:
  95:Display/displayHandler.cpp ****     }   
  96:Display/displayHandler.cpp **** }
 1349              		.loc 4 96 1 view .LVU363
 1350 0166 07B0     		add	sp, sp, #28
 1351              		.cfi_remember_state
 1352              		.cfi_def_cfa_offset 36
 1353              		@ sp needed
 1354 0168 BDE8F08F 		pop	{r4, r5, r6, r7, r8, r9, r10, fp, pc}
 1355              	.LVL95:
 1356              	.L90:
 1357              		.cfi_restore_state
 1358              	.LBB177:
 1359              	.LBB175:
 1360              	.LBB174:
 257:Display/../../libs/PoliTeKDSP/libs/libDaisy/src/hid/disp/display.h ****             }
 1361              		.loc 3 257 20 view .LVU364
 1362 016c 039B     		ldr	r3, [sp, #12]
 256:Display/../../libs/PoliTeKDSP/libs/libDaisy/src/hid/disp/display.h ****                 y1 += signY;
 1363              		.loc 3 256 23 view .LVU365
 1364 016e 0135     		adds	r5, r5, #1
 1365              	.LVL96:
 257:Display/../../libs/PoliTeKDSP/libs/libDaisy/src/hid/disp/display.h ****             }
 1366              		.loc 3 257 20 view .LVU366
ARM GAS  C:\Users\skipi\AppData\Local\Temp\ccerdDJR.s 			page 43


 1367 0170 1C44     		add	r4, r4, r3
 1368              	.LVL97:
 257:Display/../../libs/PoliTeKDSP/libs/libDaisy/src/hid/disp/display.h ****             }
 1369              		.loc 3 257 20 view .LVU367
 1370 0172 EDE7     		b	.L91
 1371              	.LVL98:
 1372              	.L102:
 1373              	.LBB171:
  42:Display/../../libs/PoliTeKDSP/libs/libDaisy/src/hid/disp/oled_display.h ****     {
 1374              		.loc 1 42 10 is_stmt 1 view .LVU368
 1375              	.LBB160:
 361:Display/../../libs/PoliTeKDSP/libs/libDaisy/src/dev/oled_ssd130x.h ****     {
 1376              		.loc 2 361 10 view .LVU369
 1377              	.LBE160:
 1378              	.LBE171:
 235:Display/../../libs/PoliTeKDSP/libs/libDaisy/src/hid/disp/display.h ****         int_fast16_t error  = deltaX - deltaY;
 1379              		.loc 3 235 42 is_stmt 0 view .LVU370
 1380 0174 4FF0FF33 		mov	r3, #-1
 1381              	.LBB172:
 1382              	.LBB161:
 1383              	.LBB156:
 363:Display/../../libs/PoliTeKDSP/libs/libDaisy/src/dev/oled_ssd130x.h ****             return;
 1384              		.loc 2 363 9 view .LVU371
 1385 0178 7F2F     		cmp	r7, #127
 1386              	.LBE156:
 1387              	.LBE161:
 1388              	.LBE172:
 235:Display/../../libs/PoliTeKDSP/libs/libDaisy/src/hid/disp/display.h ****         int_fast16_t error  = deltaX - deltaY;
 1389              		.loc 3 235 42 view .LVU372
 1390 017a 0393     		str	r3, [sp, #12]
 1391              	.LBB173:
 1392              	.LBB162:
 1393              	.LBB157:
 363:Display/../../libs/PoliTeKDSP/libs/libDaisy/src/dev/oled_ssd130x.h ****             return;
 1394              		.loc 2 363 9 view .LVU373
 1395 017c C7D8     		bhi	.L85
 1396              	.LVL99:
 1397              	.L92:
 366:Display/../../libs/PoliTeKDSP/libs/libDaisy/src/dev/oled_ssd130x.h ****         else
 1398              		.loc 2 366 28 view .LVU374
 1399 017e F308     		lsrs	r3, r6, #3
 366:Display/../../libs/PoliTeKDSP/libs/libDaisy/src/dev/oled_ssd130x.h ****         else
 1400              		.loc 2 366 48 view .LVU375
 1401 0180 4FF0010C 		mov	ip, #1
 366:Display/../../libs/PoliTeKDSP/libs/libDaisy/src/dev/oled_ssd130x.h ****         else
 1402              		.loc 2 366 54 view .LVU376
 1403 0184 06F00702 		and	r2, r6, #7
 1404              	.LVL100:
 366:Display/../../libs/PoliTeKDSP/libs/libDaisy/src/dev/oled_ssd130x.h ****         else
 1405              		.loc 2 366 42 view .LVU377
 1406 0188 07EBC313 		add	r3, r7, r3, lsl #7
 366:Display/../../libs/PoliTeKDSP/libs/libDaisy/src/dev/oled_ssd130x.h ****         else
 1407              		.loc 2 366 48 view .LVU378
 1408 018c 0CFA02F2 		lsl	r2, ip, r2
 366:Display/../../libs/PoliTeKDSP/libs/libDaisy/src/dev/oled_ssd130x.h ****         else
 1409              		.loc 2 366 42 view .LVU379
 1410 0190 0344     		add	r3, r3, r0
ARM GAS  C:\Users\skipi\AppData\Local\Temp\ccerdDJR.s 			page 44


 1411 0192 93F810C0 		ldrb	ip, [r3, #16]	@ zero_extendqisi2
 1412 0196 42EA0C02 		orr	r2, r2, ip
 1413 019a 1A74     		strb	r2, [r3, #16]
 1414 019c B7E7     		b	.L85
 1415              	.LVL101:
 1416              	.L82:
 366:Display/../../libs/PoliTeKDSP/libs/libDaisy/src/dev/oled_ssd130x.h ****         else
 1417              		.loc 2 366 42 view .LVU380
 1418              	.LBE157:
 1419              	.LBE162:
 1420              	.LBE173:
 1421              	.LBE174:
 1422              	.LBE175:
  94:Display/displayHandler.cpp ****     }   
 1423              		.loc 4 94 30 view .LVU381
 1424 019e 0123     		movs	r3, #1
 1425 01a0 0096     		str	r6, [sp]
 1426 01a2 0193     		str	r3, [sp, #4]
 1427 01a4 3B46     		mov	r3, r7
 1428 01a6 A847     		blx	r5
 1429              	.LVL102:
  94:Display/displayHandler.cpp ****     }   
 1430              		.loc 4 94 30 view .LVU382
 1431 01a8 D6E7     		b	.L86
 1432              	.LVL103:
 1433              	.L94:
  94:Display/displayHandler.cpp ****     }   
 1434              		.loc 4 94 30 view .LVU383
 1435              	.LBE177:
 1436              	.LBB178:
 1437              	.LBB143:
 174:Display/../../libs/PoliTeKDSP/libs/libDaisy/src/hid/disp/display.h ****     }
 1438              		.loc 3 174 19 view .LVU384
 1439 01aa 2023     		movs	r3, #32
 1440 01ac 48E7     		b	.L77
 1441              	.L93:
 173:Display/../../libs/PoliTeKDSP/libs/libDaisy/src/hid/disp/display.h ****         currentY_ = (y >= Height()) ? Height() - 1 : y;
 1442              		.loc 3 173 19 view .LVU385
 1443 01ae 0023     		movs	r3, #0
 1444 01b0 38E7     		b	.L76
 1445              	.LVL104:
 1446              	.L78:
 173:Display/../../libs/PoliTeKDSP/libs/libDaisy/src/hid/disp/display.h ****         currentY_ = (y >= Height()) ? Height() - 1 : y;
 1447              		.loc 3 173 19 view .LVU386
 1448              	.LBE143:
 1449              	.LBE178:
  81:Display/displayHandler.cpp **** 
 1450              		.loc 4 81 22 view .LVU387
 1451 01b2 0021     		movs	r1, #0
 1452 01b4 9847     		blx	r3
 1453              	.LVL105:
 1454 01b6 51E7     		b	.L79
 1455              	.L104:
 1456              		.align	2
 1457              	.L103:
 1458 01b8 00000000 		.word	_ZN5daisy11OledDisplayINS_13SSD130xDriverILj128ELj64ENS_19SSD130xI2CTransportEEEE4FillEb
 1459 01bc 00000000 		.word	_ZN5daisy25OneBitGraphicsDisplayImplINS_11OledDisplayINS_13SSD130xDriverILj128ELj64ENS_19SSD
ARM GAS  C:\Users\skipi\AppData\Local\Temp\ccerdDJR.s 			page 45


 1460              		.cfi_endproc
 1461              	.LFE2789:
 1463              		.section	.text._ZN14DisplayHandler9SetYscaleEi,"ax",%progbits
 1464              		.align	1
 1465              		.p2align 2,,3
 1466              		.global	_ZN14DisplayHandler9SetYscaleEi
 1467              		.syntax unified
 1468              		.thumb
 1469              		.thumb_func
 1470              		.fpu fpv5-d16
 1472              	_ZN14DisplayHandler9SetYscaleEi:
 1473              	.LVL106:
 1474              	.LFB2790:
  97:Display/displayHandler.cpp **** 
  98:Display/displayHandler.cpp **** void DisplayHandler::SetYscale(int yscale){
 1475              		.loc 4 98 43 is_stmt 1 view -0
 1476              		.cfi_startproc
 1477              		@ args = 0, pretend = 0, frame = 0
 1478              		@ frame_needed = 0, uses_anonymous_args = 0
 1479              		@ link register save eliminated.
  99:Display/displayHandler.cpp ****     _yscale=yscale;
 1480              		.loc 4 99 5 view .LVU389
 1481              		.loc 4 99 12 is_stmt 0 view .LVU390
 1482 0000 C0F81818 		str	r1, [r0, #2072]
 100:Display/displayHandler.cpp **** }
 1483              		.loc 4 100 1 view .LVU391
 1484 0004 7047     		bx	lr
 1485              		.cfi_endproc
 1486              	.LFE2790:
 1488 0006 00BF     		.section	.text._ZN14DisplayHandler17drawStandbyScreenEv,"ax",%progbits
 1489              		.align	1
 1490              		.p2align 2,,3
 1491              		.global	_ZN14DisplayHandler17drawStandbyScreenEv
 1492              		.syntax unified
 1493              		.thumb
 1494              		.thumb_func
 1495              		.fpu fpv5-d16
 1497              	_ZN14DisplayHandler17drawStandbyScreenEv:
 1498              	.LVL107:
 1499              	.LFB2791:
 101:Display/displayHandler.cpp **** 
 102:Display/displayHandler.cpp **** void DisplayHandler::drawStandbyScreen(){
 1500              		.loc 4 102 41 is_stmt 1 view -0
 1501              		.cfi_startproc
 1502              		@ args = 0, pretend = 0, frame = 0
 1503              		@ frame_needed = 0, uses_anonymous_args = 0
 103:Display/displayHandler.cpp ****     _displayPtr->SetCursor(0,0);
 1504              		.loc 4 103 5 view .LVU393
 102:Display/displayHandler.cpp ****     _displayPtr->SetCursor(0,0);
 1505              		.loc 4 102 41 is_stmt 0 view .LVU394
 1506 0000 30B5     		push	{r4, r5, lr}
 1507              		.cfi_def_cfa_offset 12
 1508              		.cfi_offset 4, -12
 1509              		.cfi_offset 5, -8
 1510              		.cfi_offset 14, -4
 1511              		.loc 4 103 5 view .LVU395
 1512 0002 0468     		ldr	r4, [r0]
ARM GAS  C:\Users\skipi\AppData\Local\Temp\ccerdDJR.s 			page 46


 1513              	.LVL108:
 1514              	.LBB181:
 1515              	.LBI181:
 171:Display/../../libs/PoliTeKDSP/libs/libDaisy/src/hid/disp/display.h ****     {
 1516              		.loc 3 171 10 is_stmt 1 view .LVU396
 1517              	.LBB182:
 173:Display/../../libs/PoliTeKDSP/libs/libDaisy/src/hid/disp/display.h ****         currentY_ = (y >= Height()) ? Height() - 1 : y;
 1518              		.loc 3 173 9 view .LVU397
 1519              	.LBE182:
 1520              	.LBE181:
 102:Display/displayHandler.cpp ****     _displayPtr->SetCursor(0,0);
 1521              		.loc 4 102 41 is_stmt 0 view .LVU398
 1522 0004 83B0     		sub	sp, sp, #12
 1523              		.cfi_def_cfa_offset 24
 102:Display/displayHandler.cpp ****     _displayPtr->SetCursor(0,0);
 1524              		.loc 4 102 41 view .LVU399
 1525 0006 0546     		mov	r5, r0
 1526              	.LBB186:
 1527              	.LBB183:
 173:Display/../../libs/PoliTeKDSP/libs/libDaisy/src/hid/disp/display.h ****         currentY_ = (y >= Height()) ? Height() - 1 : y;
 1528              		.loc 3 173 33 view .LVU400
 1529 0008 2368     		ldr	r3, [r4]
 173:Display/../../libs/PoliTeKDSP/libs/libDaisy/src/hid/disp/display.h ****         currentY_ = (y >= Height()) ? Height() - 1 : y;
 1530              		.loc 3 173 32 view .LVU401
 1531 000a 2046     		mov	r0, r4
 1532              	.LVL109:
 173:Display/../../libs/PoliTeKDSP/libs/libDaisy/src/hid/disp/display.h ****         currentY_ = (y >= Height()) ? Height() - 1 : y;
 1533              		.loc 3 173 32 view .LVU402
 1534 000c DB68     		ldr	r3, [r3, #12]
 1535 000e 9847     		blx	r3
 1536              	.LVL110:
 173:Display/../../libs/PoliTeKDSP/libs/libDaisy/src/hid/disp/display.h ****         currentY_ = (y >= Height()) ? Height() - 1 : y;
 1537              		.loc 3 173 19 view .LVU403
 1538 0010 F0B9     		cbnz	r0, .L109
 173:Display/../../libs/PoliTeKDSP/libs/libDaisy/src/hid/disp/display.h ****         currentY_ = (y >= Height()) ? Height() - 1 : y;
 1539              		.loc 3 173 44 view .LVU404
 1540 0012 2368     		ldr	r3, [r4]
 173:Display/../../libs/PoliTeKDSP/libs/libDaisy/src/hid/disp/display.h ****         currentY_ = (y >= Height()) ? Height() - 1 : y;
 1541              		.loc 3 173 43 view .LVU405
 1542 0014 2046     		mov	r0, r4
 1543 0016 DB68     		ldr	r3, [r3, #12]
 1544 0018 9847     		blx	r3
 1545              	.LVL111:
 173:Display/../../libs/PoliTeKDSP/libs/libDaisy/src/hid/disp/display.h ****         currentY_ = (y >= Height()) ? Height() - 1 : y;
 1546              		.loc 3 173 19 view .LVU406
 1547 001a 0138     		subs	r0, r0, #1
 1548 001c 83B2     		uxth	r3, r0
 1549              	.L107:
 174:Display/../../libs/PoliTeKDSP/libs/libDaisy/src/hid/disp/display.h ****     }
 1550              		.loc 3 174 34 view .LVU407
 1551 001e 2268     		ldr	r2, [r4]
 174:Display/../../libs/PoliTeKDSP/libs/libDaisy/src/hid/disp/display.h ****     }
 1552              		.loc 3 174 33 view .LVU408
 1553 0020 2046     		mov	r0, r4
 173:Display/../../libs/PoliTeKDSP/libs/libDaisy/src/hid/disp/display.h ****         currentY_ = (y >= Height()) ? Height() - 1 : y;
 1554              		.loc 3 173 19 view .LVU409
 1555 0022 A380     		strh	r3, [r4, #4]	@ movhi
ARM GAS  C:\Users\skipi\AppData\Local\Temp\ccerdDJR.s 			page 47


 174:Display/../../libs/PoliTeKDSP/libs/libDaisy/src/hid/disp/display.h ****     }
 1556              		.loc 3 174 9 is_stmt 1 view .LVU410
 174:Display/../../libs/PoliTeKDSP/libs/libDaisy/src/hid/disp/display.h ****     }
 1557              		.loc 3 174 33 is_stmt 0 view .LVU411
 1558 0024 9368     		ldr	r3, [r2, #8]
 1559 0026 9847     		blx	r3
 1560              	.LVL112:
 174:Display/../../libs/PoliTeKDSP/libs/libDaisy/src/hid/disp/display.h ****     }
 1561              		.loc 3 174 19 view .LVU412
 1562 0028 A0B9     		cbnz	r0, .L110
 174:Display/../../libs/PoliTeKDSP/libs/libDaisy/src/hid/disp/display.h ****     }
 1563              		.loc 3 174 46 view .LVU413
 1564 002a 2368     		ldr	r3, [r4]
 174:Display/../../libs/PoliTeKDSP/libs/libDaisy/src/hid/disp/display.h ****     }
 1565              		.loc 3 174 45 view .LVU414
 1566 002c 2046     		mov	r0, r4
 1567 002e 9B68     		ldr	r3, [r3, #8]
 1568 0030 9847     		blx	r3
 1569              	.LVL113:
 174:Display/../../libs/PoliTeKDSP/libs/libDaisy/src/hid/disp/display.h ****     }
 1570              		.loc 3 174 19 view .LVU415
 1571 0032 0138     		subs	r0, r0, #1
 1572 0034 83B2     		uxth	r3, r0
 1573              	.L108:
 1574              	.LBE183:
 1575              	.LBE186:
 104:Display/displayHandler.cpp ****     _displayPtr->WriteString(_standbyText, Font_11x18, true);
 1576              		.loc 4 104 5 view .LVU416
 1577 0036 2868     		ldr	r0, [r5]
 1578              		.loc 4 104 29 view .LVU417
 1579 0038 074A     		ldr	r2, .L112
 1580              	.LBB187:
 1581              	.LBB184:
 174:Display/../../libs/PoliTeKDSP/libs/libDaisy/src/hid/disp/display.h ****     }
 1582              		.loc 3 174 19 view .LVU418
 1583 003a E380     		strh	r3, [r4, #6]	@ movhi
 1584              	.LVL114:
 174:Display/../../libs/PoliTeKDSP/libs/libDaisy/src/hid/disp/display.h ****     }
 1585              		.loc 3 174 19 view .LVU419
 1586              	.LBE184:
 1587              	.LBE187:
 1588              		.loc 4 104 5 is_stmt 1 view .LVU420
 1589              		.loc 4 104 29 is_stmt 0 view .LVU421
 1590 003c 0123     		movs	r3, #1
 1591              		.loc 4 104 60 view .LVU422
 1592 003e 0468     		ldr	r4, [r0]
 1593              		.loc 4 104 29 view .LVU423
 1594 0040 D5F81418 		ldr	r1, [r5, #2068]
 1595 0044 0093     		str	r3, [sp]
 1596 0046 A46A     		ldr	r4, [r4, #40]
 1597 0048 0CCA     		ldm	r2, {r2, r3}
 1598 004a A047     		blx	r4
 1599              	.LVL115:
 105:Display/displayHandler.cpp **** }
 1600              		.loc 4 105 1 view .LVU424
 1601 004c 03B0     		add	sp, sp, #12
 1602              		.cfi_remember_state
ARM GAS  C:\Users\skipi\AppData\Local\Temp\ccerdDJR.s 			page 48


 1603              		.cfi_def_cfa_offset 12
 1604              		@ sp needed
 1605 004e 30BD     		pop	{r4, r5, pc}
 1606              	.LVL116:
 1607              	.L109:
 1608              		.cfi_restore_state
 1609              	.LBB188:
 1610              	.LBB185:
 173:Display/../../libs/PoliTeKDSP/libs/libDaisy/src/hid/disp/display.h ****         currentY_ = (y >= Height()) ? Height() - 1 : y;
 1611              		.loc 3 173 19 view .LVU425
 1612 0050 0023     		movs	r3, #0
 1613 0052 E4E7     		b	.L107
 1614              	.L110:
 174:Display/../../libs/PoliTeKDSP/libs/libDaisy/src/hid/disp/display.h ****     }
 1615              		.loc 3 174 19 view .LVU426
 1616 0054 0023     		movs	r3, #0
 1617 0056 EEE7     		b	.L108
 1618              	.L113:
 1619              		.align	2
 1620              	.L112:
 1621 0058 00000000 		.word	Font_11x18
 1622              	.LBE185:
 1623              	.LBE188:
 1624              		.cfi_endproc
 1625              	.LFE2791:
 1627              		.section	.text._ZN14DisplayHandler6UpdateEv,"ax",%progbits
 1628              		.align	1
 1629              		.p2align 2,,3
 1630              		.global	_ZN14DisplayHandler6UpdateEv
 1631              		.syntax unified
 1632              		.thumb
 1633              		.thumb_func
 1634              		.fpu fpv5-d16
 1636              	_ZN14DisplayHandler6UpdateEv:
 1637              	.LVL117:
 1638              	.LFB2784:
  18:Display/displayHandler.cpp ****     switch (_currentState) {
 1639              		.loc 4 18 31 is_stmt 1 view -0
 1640              		.cfi_startproc
 1641              		@ args = 0, pretend = 0, frame = 8
 1642              		@ frame_needed = 0, uses_anonymous_args = 0
  19:Display/displayHandler.cpp ****         case DisplayState::STANDBY:
 1643              		.loc 4 19 5 view .LVU428
  19:Display/displayHandler.cpp ****         case DisplayState::STANDBY:
 1644              		.loc 4 19 13 is_stmt 0 view .LVU429
 1645 0000 0379     		ldrb	r3, [r0, #4]	@ zero_extendqisi2
  18:Display/displayHandler.cpp ****     switch (_currentState) {
 1646              		.loc 4 18 31 view .LVU430
 1647 0002 2DE9F047 		push	{r4, r5, r6, r7, r8, r9, r10, lr}
 1648              		.cfi_def_cfa_offset 32
 1649              		.cfi_offset 4, -32
 1650              		.cfi_offset 5, -28
 1651              		.cfi_offset 6, -24
 1652              		.cfi_offset 7, -20
 1653              		.cfi_offset 8, -16
 1654              		.cfi_offset 9, -12
 1655              		.cfi_offset 10, -8
ARM GAS  C:\Users\skipi\AppData\Local\Temp\ccerdDJR.s 			page 49


 1656              		.cfi_offset 14, -4
 1657 0006 0446     		mov	r4, r0
 1658 0008 84B0     		sub	sp, sp, #16
 1659              		.cfi_def_cfa_offset 48
  19:Display/displayHandler.cpp ****         case DisplayState::STANDBY:
 1660              		.loc 4 19 5 view .LVU431
 1661 000a 002B     		cmp	r3, #0
 1662 000c 55D0     		beq	.L115
 1663 000e 012B     		cmp	r3, #1
 1664 0010 01D1     		bne	.L117
  24:Display/displayHandler.cpp ****             drawWaveForm();
 1665              		.loc 4 24 9 is_stmt 1 view .LVU432
  25:Display/displayHandler.cpp ****             break;
 1666              		.loc 4 25 13 view .LVU433
  25:Display/displayHandler.cpp ****             break;
 1667              		.loc 4 25 25 is_stmt 0 view .LVU434
 1668 0012 FFF7FEFF 		bl	_ZN14DisplayHandler12drawWaveFormEv
 1669              	.LVL118:
  26:Display/displayHandler.cpp **** 
 1670              		.loc 4 26 13 is_stmt 1 view .LVU435
 1671              	.L117:
  32:Display/displayHandler.cpp **** }
 1672              		.loc 4 32 5 view .LVU436
 1673 0016 2668     		ldr	r6, [r4]
 1674 0018 2C4A     		ldr	r2, .L124
  32:Display/displayHandler.cpp **** }
 1675              		.loc 4 32 25 is_stmt 0 view .LVU437
 1676 001a 3368     		ldr	r3, [r6]
 1677 001c 1B6B     		ldr	r3, [r3, #48]
 1678 001e 9342     		cmp	r3, r2
 1679 0020 4ED1     		bne	.L118
 1680              	.LBB203:
 1681              	.LBB204:
 1682              	.LBB205:
 1683              	.LBB206:
 1684              	.LBB207:
  46:Display/../../libs/PoliTeKDSP/libs/libDaisy/src/dev/oled_ssd130x.h ****     };
 1685              		.loc 2 46 30 view .LVU438
 1686 0022 06F10808 		add	r8, r6, #8
 1687 0026 06F18F07 		add	r7, r6, #143
 1688 002a 06F28F4A 		addw	r10, r6, #1167
 1689 002e 4FF0B009 		mov	r9, #176
 1690              	.LVL119:
 1691              	.L121:
  46:Display/../../libs/PoliTeKDSP/libs/libDaisy/src/dev/oled_ssd130x.h ****     };
 1692              		.loc 2 46 30 view .LVU439
 1693              	.LBE207:
 1694              	.LBI206:
  43:Display/../../libs/PoliTeKDSP/libs/libDaisy/src/dev/oled_ssd130x.h ****     {
 1695              		.loc 2 43 10 is_stmt 1 view .LVU440
 1696              	.LBB208:
  45:Display/../../libs/PoliTeKDSP/libs/libDaisy/src/dev/oled_ssd130x.h ****         i2c_.TransmitBlocking(i2c_address_, buf, 2, 1000);
 1697              		.loc 2 45 9 view .LVU441
  45:Display/../../libs/PoliTeKDSP/libs/libDaisy/src/dev/oled_ssd130x.h ****         i2c_.TransmitBlocking(i2c_address_, buf, 2, 1000);
 1698              		.loc 2 45 17 is_stmt 0 view .LVU442
 1699 0032 0024     		movs	r4, #0
  46:Display/../../libs/PoliTeKDSP/libs/libDaisy/src/dev/oled_ssd130x.h ****     };
ARM GAS  C:\Users\skipi\AppData\Local\Temp\ccerdDJR.s 			page 50


 1700              		.loc 2 46 30 view .LVU443
 1701 0034 4FF47A75 		mov	r5, #1000
 1702 0038 0223     		movs	r3, #2
 1703 003a 03AA     		add	r2, sp, #12
  45:Display/../../libs/PoliTeKDSP/libs/libDaisy/src/dev/oled_ssd130x.h ****         i2c_.TransmitBlocking(i2c_address_, buf, 2, 1000);
 1704              		.loc 2 45 17 view .LVU444
 1705 003c 8DF80C40 		strb	r4, [sp, #12]
  46:Display/../../libs/PoliTeKDSP/libs/libDaisy/src/dev/oled_ssd130x.h ****     };
 1706              		.loc 2 46 30 view .LVU445
 1707 0040 4046     		mov	r0, r8
  45:Display/../../libs/PoliTeKDSP/libs/libDaisy/src/dev/oled_ssd130x.h ****         i2c_.TransmitBlocking(i2c_address_, buf, 2, 1000);
 1708              		.loc 2 45 36 view .LVU446
 1709 0042 8DF80D90 		strb	r9, [sp, #13]
  46:Display/../../libs/PoliTeKDSP/libs/libDaisy/src/dev/oled_ssd130x.h ****     };
 1710              		.loc 2 46 9 is_stmt 1 view .LVU447
  46:Display/../../libs/PoliTeKDSP/libs/libDaisy/src/dev/oled_ssd130x.h ****     };
 1711              		.loc 2 46 30 is_stmt 0 view .LVU448
 1712 0046 317B     		ldrb	r1, [r6, #12]	@ zero_extendqisi2
 1713 0048 0095     		str	r5, [sp]
 1714 004a FFF7FEFF 		bl	_ZN5daisy9I2CHandle16TransmitBlockingEtPhtm
 1715              	.LVL120:
  46:Display/../../libs/PoliTeKDSP/libs/libDaisy/src/dev/oled_ssd130x.h ****     };
 1716              		.loc 2 46 30 view .LVU449
 1717              	.LBE208:
 1718              	.LBE206:
 1719              	.LBB209:
 1720              	.LBI209:
  43:Display/../../libs/PoliTeKDSP/libs/libDaisy/src/dev/oled_ssd130x.h ****     {
 1721              		.loc 2 43 10 is_stmt 1 view .LVU450
 1722              	.LBB210:
  45:Display/../../libs/PoliTeKDSP/libs/libDaisy/src/dev/oled_ssd130x.h ****         i2c_.TransmitBlocking(i2c_address_, buf, 2, 1000);
 1723              		.loc 2 45 9 view .LVU451
  45:Display/../../libs/PoliTeKDSP/libs/libDaisy/src/dev/oled_ssd130x.h ****         i2c_.TransmitBlocking(i2c_address_, buf, 2, 1000);
 1724              		.loc 2 45 17 is_stmt 0 view .LVU452
 1725 004e 8DF80C40 		strb	r4, [sp, #12]
  45:Display/../../libs/PoliTeKDSP/libs/libDaisy/src/dev/oled_ssd130x.h ****         i2c_.TransmitBlocking(i2c_address_, buf, 2, 1000);
 1726              		.loc 2 45 36 view .LVU453
 1727 0052 8DF80D40 		strb	r4, [sp, #13]
  46:Display/../../libs/PoliTeKDSP/libs/libDaisy/src/dev/oled_ssd130x.h ****     };
 1728              		.loc 2 46 9 is_stmt 1 view .LVU454
  46:Display/../../libs/PoliTeKDSP/libs/libDaisy/src/dev/oled_ssd130x.h ****     };
 1729              		.loc 2 46 30 is_stmt 0 view .LVU455
 1730 0056 0223     		movs	r3, #2
 1731 0058 317B     		ldrb	r1, [r6, #12]	@ zero_extendqisi2
 1732 005a 03AA     		add	r2, sp, #12
 1733 005c 4046     		mov	r0, r8
 1734 005e 0095     		str	r5, [sp]
 1735 0060 FFF7FEFF 		bl	_ZN5daisy9I2CHandle16TransmitBlockingEtPhtm
 1736              	.LVL121:
  46:Display/../../libs/PoliTeKDSP/libs/libDaisy/src/dev/oled_ssd130x.h ****     };
 1737              		.loc 2 46 30 view .LVU456
 1738              	.LBE210:
 1739              	.LBE209:
 1740              	.LBB211:
 1741              	.LBI211:
  43:Display/../../libs/PoliTeKDSP/libs/libDaisy/src/dev/oled_ssd130x.h ****     {
 1742              		.loc 2 43 10 is_stmt 1 view .LVU457
ARM GAS  C:\Users\skipi\AppData\Local\Temp\ccerdDJR.s 			page 51


 1743              	.LBB212:
  45:Display/../../libs/PoliTeKDSP/libs/libDaisy/src/dev/oled_ssd130x.h ****         i2c_.TransmitBlocking(i2c_address_, buf, 2, 1000);
 1744              		.loc 2 45 9 view .LVU458
  45:Display/../../libs/PoliTeKDSP/libs/libDaisy/src/dev/oled_ssd130x.h ****         i2c_.TransmitBlocking(i2c_address_, buf, 2, 1000);
 1745              		.loc 2 45 36 is_stmt 0 view .LVU459
 1746 0064 1023     		movs	r3, #16
  45:Display/../../libs/PoliTeKDSP/libs/libDaisy/src/dev/oled_ssd130x.h ****         i2c_.TransmitBlocking(i2c_address_, buf, 2, 1000);
 1747              		.loc 2 45 17 view .LVU460
 1748 0066 8DF80C40 		strb	r4, [sp, #12]
  46:Display/../../libs/PoliTeKDSP/libs/libDaisy/src/dev/oled_ssd130x.h ****     };
 1749              		.loc 2 46 30 view .LVU461
 1750 006a 03AA     		add	r2, sp, #12
  45:Display/../../libs/PoliTeKDSP/libs/libDaisy/src/dev/oled_ssd130x.h ****         i2c_.TransmitBlocking(i2c_address_, buf, 2, 1000);
 1751              		.loc 2 45 36 view .LVU462
 1752 006c 8DF80D30 		strb	r3, [sp, #13]
  46:Display/../../libs/PoliTeKDSP/libs/libDaisy/src/dev/oled_ssd130x.h ****     };
 1753              		.loc 2 46 9 is_stmt 1 view .LVU463
  46:Display/../../libs/PoliTeKDSP/libs/libDaisy/src/dev/oled_ssd130x.h ****     };
 1754              		.loc 2 46 30 is_stmt 0 view .LVU464
 1755 0070 4046     		mov	r0, r8
 1756 0072 317B     		ldrb	r1, [r6, #12]	@ zero_extendqisi2
 1757 0074 0223     		movs	r3, #2
 1758 0076 0095     		str	r5, [sp]
 1759 0078 A7F18004 		sub	r4, r7, #128
 1760 007c FFF7FEFF 		bl	_ZN5daisy9I2CHandle16TransmitBlockingEtPhtm
 1761              	.LVL122:
  46:Display/../../libs/PoliTeKDSP/libs/libDaisy/src/dev/oled_ssd130x.h ****     };
 1762              		.loc 2 46 30 view .LVU465
 1763              	.LBE212:
 1764              	.LBE211:
 1765              	.LBB213:
 1766              	.LBI213:
  49:Display/../../libs/PoliTeKDSP/libs/libDaisy/src/dev/oled_ssd130x.h ****     {
 1767              		.loc 2 49 10 is_stmt 1 view .LVU466
 1768              	.LBB214:
  51:Display/../../libs/PoliTeKDSP/libs/libDaisy/src/dev/oled_ssd130x.h ****         {
 1769              		.loc 2 51 29 view .LVU467
 1770              	.L119:
 1771              	.LBB215:
  53:Display/../../libs/PoliTeKDSP/libs/libDaisy/src/dev/oled_ssd130x.h ****             i2c_.TransmitBlocking(i2c_address_, buf, 2, 1000);
 1772              		.loc 2 53 13 view .LVU468
  53:Display/../../libs/PoliTeKDSP/libs/libDaisy/src/dev/oled_ssd130x.h ****             i2c_.TransmitBlocking(i2c_address_, buf, 2, 1000);
 1773              		.loc 2 53 21 is_stmt 0 view .LVU469
 1774 0080 4021     		movs	r1, #64
  54:Display/../../libs/PoliTeKDSP/libs/libDaisy/src/dev/oled_ssd130x.h ****         }
 1775              		.loc 2 54 34 view .LVU470
 1776 0082 4FF47A75 		mov	r5, #1000
 1777 0086 0223     		movs	r3, #2
 1778 0088 03AA     		add	r2, sp, #12
  53:Display/../../libs/PoliTeKDSP/libs/libDaisy/src/dev/oled_ssd130x.h ****             i2c_.TransmitBlocking(i2c_address_, buf, 2, 1000);
 1779              		.loc 2 53 21 view .LVU471
 1780 008a 8DF80C10 		strb	r1, [sp, #12]
  54:Display/../../libs/PoliTeKDSP/libs/libDaisy/src/dev/oled_ssd130x.h ****         }
 1781              		.loc 2 54 34 view .LVU472
 1782 008e 4046     		mov	r0, r8
  53:Display/../../libs/PoliTeKDSP/libs/libDaisy/src/dev/oled_ssd130x.h ****             i2c_.TransmitBlocking(i2c_address_, buf, 2, 1000);
 1783              		.loc 2 53 43 view .LVU473
ARM GAS  C:\Users\skipi\AppData\Local\Temp\ccerdDJR.s 			page 52


 1784 0090 14F8011F 		ldrb	r1, [r4, #1]!	@ zero_extendqisi2
 1785              	.LVL123:
  53:Display/../../libs/PoliTeKDSP/libs/libDaisy/src/dev/oled_ssd130x.h ****             i2c_.TransmitBlocking(i2c_address_, buf, 2, 1000);
 1786              		.loc 2 53 44 view .LVU474
 1787 0094 8DF80D10 		strb	r1, [sp, #13]
  54:Display/../../libs/PoliTeKDSP/libs/libDaisy/src/dev/oled_ssd130x.h ****         }
 1788              		.loc 2 54 13 is_stmt 1 view .LVU475
  54:Display/../../libs/PoliTeKDSP/libs/libDaisy/src/dev/oled_ssd130x.h ****         }
 1789              		.loc 2 54 34 is_stmt 0 view .LVU476
 1790 0098 317B     		ldrb	r1, [r6, #12]	@ zero_extendqisi2
 1791 009a 0095     		str	r5, [sp]
 1792 009c FFF7FEFF 		bl	_ZN5daisy9I2CHandle16TransmitBlockingEtPhtm
 1793              	.LVL124:
 1794              	.LBE215:
  51:Display/../../libs/PoliTeKDSP/libs/libDaisy/src/dev/oled_ssd130x.h ****         {
 1795              		.loc 2 51 9 is_stmt 1 view .LVU477
  51:Display/../../libs/PoliTeKDSP/libs/libDaisy/src/dev/oled_ssd130x.h ****         {
 1796              		.loc 2 51 29 view .LVU478
 1797 00a0 BC42     		cmp	r4, r7
 1798 00a2 EDD1     		bne	.L119
 1799              	.LVL125:
  51:Display/../../libs/PoliTeKDSP/libs/libDaisy/src/dev/oled_ssd130x.h ****         {
 1800              		.loc 2 51 29 is_stmt 0 view .LVU479
 1801              	.LBE214:
 1802              	.LBE213:
 1803              		.loc 2 392 9 is_stmt 1 view .LVU480
 1804              		.loc 2 392 22 view .LVU481
 1805 00a4 04F18007 		add	r7, r4, #128
 1806 00a8 09F10109 		add	r9, r9, #1
 1807              	.LVL126:
 1808              		.loc 2 392 22 is_stmt 0 view .LVU482
 1809 00ac BA45     		cmp	r10, r7
 1810 00ae 5FFA89F9 		uxtb	r9, r9
 1811 00b2 BED1     		bne	.L121
 1812              	.LBE205:
 1813              	.LBE204:
 1814              	.LBE203:
  33:Display/displayHandler.cpp **** 
 1815              		.loc 4 33 1 view .LVU483
 1816 00b4 04B0     		add	sp, sp, #16
 1817              		.cfi_remember_state
 1818              		.cfi_def_cfa_offset 32
 1819              		@ sp needed
 1820 00b6 BDE8F087 		pop	{r4, r5, r6, r7, r8, r9, r10, pc}
 1821              	.LVL127:
 1822              	.L115:
 1823              		.cfi_restore_state
  20:Display/displayHandler.cpp ****             drawStandbyScreen();
 1824              		.loc 4 20 9 is_stmt 1 view .LVU484
  21:Display/displayHandler.cpp ****             break;
 1825              		.loc 4 21 13 view .LVU485
  21:Display/displayHandler.cpp ****             break;
 1826              		.loc 4 21 30 is_stmt 0 view .LVU486
 1827 00ba FFF7FEFF 		bl	_ZN14DisplayHandler17drawStandbyScreenEv
 1828              	.LVL128:
  22:Display/displayHandler.cpp **** 
 1829              		.loc 4 22 13 is_stmt 1 view .LVU487
ARM GAS  C:\Users\skipi\AppData\Local\Temp\ccerdDJR.s 			page 53


 1830 00be AAE7     		b	.L117
 1831              	.L118:
  32:Display/displayHandler.cpp **** }
 1832              		.loc 4 32 24 is_stmt 0 view .LVU488
 1833 00c0 3046     		mov	r0, r6
  33:Display/displayHandler.cpp **** 
 1834              		.loc 4 33 1 view .LVU489
 1835 00c2 04B0     		add	sp, sp, #16
 1836              		.cfi_def_cfa_offset 32
 1837              		@ sp needed
 1838 00c4 BDE8F047 		pop	{r4, r5, r6, r7, r8, r9, r10, lr}
 1839              		.cfi_restore 14
 1840              		.cfi_restore 10
 1841              		.cfi_restore 9
 1842              		.cfi_restore 8
 1843              		.cfi_restore 7
 1844              		.cfi_restore 6
 1845              		.cfi_restore 5
 1846              		.cfi_restore 4
 1847              		.cfi_def_cfa_offset 0
 1848              	.LVL129:
  32:Display/displayHandler.cpp **** }
 1849              		.loc 4 32 24 view .LVU490
 1850 00c8 1847     		bx	r3	@ indirect register sibling call
 1851              	.LVL130:
 1852              	.L125:
 1853 00ca 00BF     		.align	2
 1854              	.L124:
 1855 00cc 00000000 		.word	_ZN5daisy11OledDisplayINS_13SSD130xDriverILj128ELj64ENS_19SSD130xI2CTransportEEEE6UpdateEv
 1856              		.cfi_endproc
 1857              	.LFE2784:
 1859              		.section	.rodata._ZN14DisplayHandler12DrawMainMenuEi.str1.4,"aMS",%progbits,1
 1860              		.align	2
 1861              	.LC1:
 1862 0000 2D204D41 		.ascii	"- MAIN MENU -\000"
 1862      494E204D 
 1862      454E5520 
 1862      2D00
 1863 000e 0000     		.align	2
 1864              	.LC2:
 1865 0010 43616C69 		.ascii	"Calibration\000"
 1865      62726174 
 1865      696F6E00 
 1866              		.align	2
 1867              	.LC3:
 1868 001c 5363616C 		.ascii	"Scales\000"
 1868      657300
 1869 0023 00       		.align	2
 1870              	.LC4:
 1871 0024 50726573 		.ascii	"Presets\000"
 1871      65747300 
 1872              		.align	2
 1873              	.LC5:
 1874 002c 45786974 		.ascii	"Exit\000"
 1874      00
 1875 0031 000000   		.align	2
 1876              	.LC6:
ARM GAS  C:\Users\skipi\AppData\Local\Temp\ccerdDJR.s 			page 54


 1877 0034 3E00     		.ascii	">\000"
 1878              		.section	.text._ZN14DisplayHandler12DrawMainMenuEi,"ax",%progbits
 1879              		.align	1
 1880              		.p2align 2,,3
 1881              		.global	_ZN14DisplayHandler12DrawMainMenuEi
 1882              		.syntax unified
 1883              		.thumb
 1884              		.thumb_func
 1885              		.fpu fpv5-d16
 1887              	_ZN14DisplayHandler12DrawMainMenuEi:
 1888              	.LVL131:
 1889              	.LFB2792:
 106:Display/displayHandler.cpp **** 
 107:Display/displayHandler.cpp **** // ============================================================================
 108:Display/displayHandler.cpp **** // METODI PUBBLICI PER IL MENU (SPAZIATURA OTTIMIZZATA PER 64PX)
 109:Display/displayHandler.cpp **** // ============================================================================
 110:Display/displayHandler.cpp **** 
 111:Display/displayHandler.cpp **** void DisplayHandler::DrawMainMenu(int cursorIndex) {
 1890              		.loc 4 111 52 is_stmt 1 view -0
 1891              		.cfi_startproc
 1892              		@ args = 0, pretend = 0, frame = 0
 1893              		@ frame_needed = 0, uses_anonymous_args = 0
 112:Display/displayHandler.cpp ****     _displayPtr->Fill(false);
 1894              		.loc 4 112 5 view .LVU492
 111:Display/displayHandler.cpp ****     _displayPtr->Fill(false);
 1895              		.loc 4 111 52 is_stmt 0 view .LVU493
 1896 0000 F0B5     		push	{r4, r5, r6, r7, lr}
 1897              		.cfi_def_cfa_offset 20
 1898              		.cfi_offset 4, -20
 1899              		.cfi_offset 5, -16
 1900              		.cfi_offset 6, -12
 1901              		.cfi_offset 7, -8
 1902              		.cfi_offset 14, -4
 1903 0002 0546     		mov	r5, r0
 1904              		.loc 4 112 5 view .LVU494
 1905 0004 0068     		ldr	r0, [r0]
 1906              	.LVL132:
 1907              		.loc 4 112 5 view .LVU495
 1908 0006 864A     		ldr	r2, .L153
 111:Display/displayHandler.cpp ****     _displayPtr->Fill(false);
 1909              		.loc 4 111 52 view .LVU496
 1910 0008 83B0     		sub	sp, sp, #12
 1911              		.cfi_def_cfa_offset 32
 1912              		.loc 4 112 28 view .LVU497
 1913 000a 0368     		ldr	r3, [r0]
 111:Display/displayHandler.cpp ****     _displayPtr->Fill(false);
 1914              		.loc 4 111 52 view .LVU498
 1915 000c 0C46     		mov	r4, r1
 1916              		.loc 4 112 28 view .LVU499
 1917 000e 1B69     		ldr	r3, [r3, #16]
 1918 0010 9342     		cmp	r3, r2
 1919 0012 40F00181 		bne	.L127
 1920              	.LBB232:
 1921              	.LBB233:
 1922              	.LBB234:
 375:Display/../../libs/PoliTeKDSP/libs/libDaisy/src/dev/oled_ssd130x.h ****         }
 1923              		.loc 2 375 24 view .LVU500
ARM GAS  C:\Users\skipi\AppData\Local\Temp\ccerdDJR.s 			page 55


 1924 0016 4FF48062 		mov	r2, #1024
 1925 001a 0021     		movs	r1, #0
 1926              	.LVL133:
 375:Display/../../libs/PoliTeKDSP/libs/libDaisy/src/dev/oled_ssd130x.h ****         }
 1927              		.loc 2 375 24 view .LVU501
 1928 001c 1030     		adds	r0, r0, #16
 1929 001e FFF7FEFF 		bl	memset
 1930              	.LVL134:
 1931              	.L128:
 1932              	.LBE234:
 1933              	.LBE233:
 1934              	.LBE232:
 113:Display/displayHandler.cpp ****     
 114:Display/displayHandler.cpp ****     _displayPtr->SetCursor(0, 0);
 1935              		.loc 4 114 5 is_stmt 1 view .LVU502
 1936 0022 2E68     		ldr	r6, [r5]
 1937              	.LVL135:
 1938              	.LBB235:
 1939              	.LBI235:
 171:Display/../../libs/PoliTeKDSP/libs/libDaisy/src/hid/disp/display.h ****     {
 1940              		.loc 3 171 10 view .LVU503
 1941              	.LBB236:
 173:Display/../../libs/PoliTeKDSP/libs/libDaisy/src/hid/disp/display.h ****         currentY_ = (y >= Height()) ? Height() - 1 : y;
 1942              		.loc 3 173 9 view .LVU504
 173:Display/../../libs/PoliTeKDSP/libs/libDaisy/src/hid/disp/display.h ****         currentY_ = (y >= Height()) ? Height() - 1 : y;
 1943              		.loc 3 173 33 is_stmt 0 view .LVU505
 1944 0024 3368     		ldr	r3, [r6]
 173:Display/../../libs/PoliTeKDSP/libs/libDaisy/src/hid/disp/display.h ****         currentY_ = (y >= Height()) ? Height() - 1 : y;
 1945              		.loc 3 173 32 view .LVU506
 1946 0026 3046     		mov	r0, r6
 1947 0028 DB68     		ldr	r3, [r3, #12]
 1948 002a 9847     		blx	r3
 1949              	.LVL136:
 173:Display/../../libs/PoliTeKDSP/libs/libDaisy/src/hid/disp/display.h ****         currentY_ = (y >= Height()) ? Height() - 1 : y;
 1950              		.loc 3 173 19 view .LVU507
 1951 002c 0028     		cmp	r0, #0
 1952 002e 40F0F180 		bne	.L141
 173:Display/../../libs/PoliTeKDSP/libs/libDaisy/src/hid/disp/display.h ****         currentY_ = (y >= Height()) ? Height() - 1 : y;
 1953              		.loc 3 173 44 view .LVU508
 1954 0032 3368     		ldr	r3, [r6]
 173:Display/../../libs/PoliTeKDSP/libs/libDaisy/src/hid/disp/display.h ****         currentY_ = (y >= Height()) ? Height() - 1 : y;
 1955              		.loc 3 173 43 view .LVU509
 1956 0034 3046     		mov	r0, r6
 1957 0036 DB68     		ldr	r3, [r3, #12]
 1958 0038 9847     		blx	r3
 1959              	.LVL137:
 173:Display/../../libs/PoliTeKDSP/libs/libDaisy/src/hid/disp/display.h ****         currentY_ = (y >= Height()) ? Height() - 1 : y;
 1960              		.loc 3 173 19 view .LVU510
 1961 003a 0138     		subs	r0, r0, #1
 1962 003c 83B2     		uxth	r3, r0
 1963              	.L129:
 174:Display/../../libs/PoliTeKDSP/libs/libDaisy/src/hid/disp/display.h ****     }
 1964              		.loc 3 174 34 view .LVU511
 1965 003e 3268     		ldr	r2, [r6]
 174:Display/../../libs/PoliTeKDSP/libs/libDaisy/src/hid/disp/display.h ****     }
 1966              		.loc 3 174 33 view .LVU512
 1967 0040 3046     		mov	r0, r6
ARM GAS  C:\Users\skipi\AppData\Local\Temp\ccerdDJR.s 			page 56


 173:Display/../../libs/PoliTeKDSP/libs/libDaisy/src/hid/disp/display.h ****         currentY_ = (y >= Height()) ? Height() - 1 : y;
 1968              		.loc 3 173 19 view .LVU513
 1969 0042 B380     		strh	r3, [r6, #4]	@ movhi
 174:Display/../../libs/PoliTeKDSP/libs/libDaisy/src/hid/disp/display.h ****     }
 1970              		.loc 3 174 9 is_stmt 1 view .LVU514
 174:Display/../../libs/PoliTeKDSP/libs/libDaisy/src/hid/disp/display.h ****     }
 1971              		.loc 3 174 33 is_stmt 0 view .LVU515
 1972 0044 9368     		ldr	r3, [r2, #8]
 1973 0046 9847     		blx	r3
 1974              	.LVL138:
 174:Display/../../libs/PoliTeKDSP/libs/libDaisy/src/hid/disp/display.h ****     }
 1975              		.loc 3 174 19 view .LVU516
 1976 0048 0028     		cmp	r0, #0
 1977 004a 40F0E180 		bne	.L142
 174:Display/../../libs/PoliTeKDSP/libs/libDaisy/src/hid/disp/display.h ****     }
 1978              		.loc 3 174 46 view .LVU517
 1979 004e 3368     		ldr	r3, [r6]
 174:Display/../../libs/PoliTeKDSP/libs/libDaisy/src/hid/disp/display.h ****     }
 1980              		.loc 3 174 45 view .LVU518
 1981 0050 3046     		mov	r0, r6
 1982 0052 9B68     		ldr	r3, [r3, #8]
 1983 0054 9847     		blx	r3
 1984              	.LVL139:
 174:Display/../../libs/PoliTeKDSP/libs/libDaisy/src/hid/disp/display.h ****     }
 1985              		.loc 3 174 19 view .LVU519
 1986 0056 0138     		subs	r0, r0, #1
 1987 0058 83B2     		uxth	r3, r0
 1988              	.L130:
 1989              	.LBE236:
 1990              	.LBE235:
 115:Display/displayHandler.cpp ****     _displayPtr->WriteString("- MAIN MENU -", Font_7x10, true);
 1991              		.loc 4 115 5 view .LVU520
 1992 005a 2868     		ldr	r0, [r5]
 1993              		.loc 4 115 29 view .LVU521
 1994 005c 0122     		movs	r2, #1
 1995              	.LBB239:
 1996              	.LBB237:
 174:Display/../../libs/PoliTeKDSP/libs/libDaisy/src/hid/disp/display.h ****     }
 1997              		.loc 3 174 19 view .LVU522
 1998 005e F380     		strh	r3, [r6, #6]	@ movhi
 1999              	.LVL140:
 174:Display/../../libs/PoliTeKDSP/libs/libDaisy/src/hid/disp/display.h ****     }
 2000              		.loc 3 174 19 view .LVU523
 2001              	.LBE237:
 2002              	.LBE239:
 2003              		.loc 4 115 5 is_stmt 1 view .LVU524
 2004              		.loc 4 115 62 is_stmt 0 view .LVU525
 2005 0060 0368     		ldr	r3, [r0]
 2006              		.loc 4 115 29 view .LVU526
 2007 0062 704E     		ldr	r6, .L153+4
 2008 0064 0092     		str	r2, [sp]
 2009 0066 7049     		ldr	r1, .L153+8
 2010 0068 9F6A     		ldr	r7, [r3, #40]
 2011 006a 96E80C00 		ldm	r6, {r2, r3}
 2012 006e B847     		blx	r7
 2013              	.LVL141:
 116:Display/displayHandler.cpp **** 
ARM GAS  C:\Users\skipi\AppData\Local\Temp\ccerdDJR.s 			page 57


 117:Display/displayHandler.cpp ****     _displayPtr->SetCursor(10, 13); _displayPtr->WriteString("Calibration", Font_7x10, true);
 2014              		.loc 4 117 5 is_stmt 1 view .LVU527
 2015 0070 2F68     		ldr	r7, [r5]
 2016              	.LVL142:
 2017              	.LBB240:
 2018              	.LBI240:
 171:Display/../../libs/PoliTeKDSP/libs/libDaisy/src/hid/disp/display.h ****     {
 2019              		.loc 3 171 10 view .LVU528
 2020              	.LBB241:
 173:Display/../../libs/PoliTeKDSP/libs/libDaisy/src/hid/disp/display.h ****         currentY_ = (y >= Height()) ? Height() - 1 : y;
 2021              		.loc 3 173 9 view .LVU529
 173:Display/../../libs/PoliTeKDSP/libs/libDaisy/src/hid/disp/display.h ****         currentY_ = (y >= Height()) ? Height() - 1 : y;
 2022              		.loc 3 173 33 is_stmt 0 view .LVU530
 2023 0072 3B68     		ldr	r3, [r7]
 173:Display/../../libs/PoliTeKDSP/libs/libDaisy/src/hid/disp/display.h ****         currentY_ = (y >= Height()) ? Height() - 1 : y;
 2024              		.loc 3 173 32 view .LVU531
 2025 0074 3846     		mov	r0, r7
 2026 0076 DB68     		ldr	r3, [r3, #12]
 2027 0078 9847     		blx	r3
 2028              	.LVL143:
 173:Display/../../libs/PoliTeKDSP/libs/libDaisy/src/hid/disp/display.h ****         currentY_ = (y >= Height()) ? Height() - 1 : y;
 2029              		.loc 3 173 19 view .LVU532
 2030 007a 0A28     		cmp	r0, #10
 2031 007c 00F2C680 		bhi	.L143
 173:Display/../../libs/PoliTeKDSP/libs/libDaisy/src/hid/disp/display.h ****         currentY_ = (y >= Height()) ? Height() - 1 : y;
 2032              		.loc 3 173 44 view .LVU533
 2033 0080 3B68     		ldr	r3, [r7]
 173:Display/../../libs/PoliTeKDSP/libs/libDaisy/src/hid/disp/display.h ****         currentY_ = (y >= Height()) ? Height() - 1 : y;
 2034              		.loc 3 173 43 view .LVU534
 2035 0082 3846     		mov	r0, r7
 2036 0084 DB68     		ldr	r3, [r3, #12]
 2037 0086 9847     		blx	r3
 2038              	.LVL144:
 173:Display/../../libs/PoliTeKDSP/libs/libDaisy/src/hid/disp/display.h ****         currentY_ = (y >= Height()) ? Height() - 1 : y;
 2039              		.loc 3 173 19 view .LVU535
 2040 0088 0138     		subs	r0, r0, #1
 2041 008a 83B2     		uxth	r3, r0
 2042              	.L131:
 2043 008c BB80     		strh	r3, [r7, #4]	@ movhi
 174:Display/../../libs/PoliTeKDSP/libs/libDaisy/src/hid/disp/display.h ****     }
 2044              		.loc 3 174 9 is_stmt 1 view .LVU536
 174:Display/../../libs/PoliTeKDSP/libs/libDaisy/src/hid/disp/display.h ****     }
 2045              		.loc 3 174 33 is_stmt 0 view .LVU537
 2046 008e 3846     		mov	r0, r7
 174:Display/../../libs/PoliTeKDSP/libs/libDaisy/src/hid/disp/display.h ****     }
 2047              		.loc 3 174 34 view .LVU538
 2048 0090 3B68     		ldr	r3, [r7]
 174:Display/../../libs/PoliTeKDSP/libs/libDaisy/src/hid/disp/display.h ****     }
 2049              		.loc 3 174 33 view .LVU539
 2050 0092 9B68     		ldr	r3, [r3, #8]
 2051 0094 9847     		blx	r3
 2052              	.LVL145:
 174:Display/../../libs/PoliTeKDSP/libs/libDaisy/src/hid/disp/display.h ****     }
 2053              		.loc 3 174 19 view .LVU540
 2054 0096 0D28     		cmp	r0, #13
 2055 0098 00F2B680 		bhi	.L144
 174:Display/../../libs/PoliTeKDSP/libs/libDaisy/src/hid/disp/display.h ****     }
ARM GAS  C:\Users\skipi\AppData\Local\Temp\ccerdDJR.s 			page 58


 2056              		.loc 3 174 46 view .LVU541
 2057 009c 3B68     		ldr	r3, [r7]
 174:Display/../../libs/PoliTeKDSP/libs/libDaisy/src/hid/disp/display.h ****     }
 2058              		.loc 3 174 45 view .LVU542
 2059 009e 3846     		mov	r0, r7
 2060 00a0 9B68     		ldr	r3, [r3, #8]
 2061 00a2 9847     		blx	r3
 2062              	.LVL146:
 174:Display/../../libs/PoliTeKDSP/libs/libDaisy/src/hid/disp/display.h ****     }
 2063              		.loc 3 174 19 view .LVU543
 2064 00a4 0138     		subs	r0, r0, #1
 2065 00a6 83B2     		uxth	r3, r0
 2066              	.L132:
 2067              	.LBE241:
 2068              	.LBE240:
 2069              		.loc 4 117 37 view .LVU544
 2070 00a8 2868     		ldr	r0, [r5]
 2071              		.loc 4 117 61 view .LVU545
 2072 00aa 0122     		movs	r2, #1
 2073              	.LBB244:
 2074              	.LBB242:
 174:Display/../../libs/PoliTeKDSP/libs/libDaisy/src/hid/disp/display.h ****     }
 2075              		.loc 3 174 19 view .LVU546
 2076 00ac FB80     		strh	r3, [r7, #6]	@ movhi
 2077              	.LVL147:
 174:Display/../../libs/PoliTeKDSP/libs/libDaisy/src/hid/disp/display.h ****     }
 2078              		.loc 3 174 19 view .LVU547
 2079              	.LBE242:
 2080              	.LBE244:
 2081              		.loc 4 117 37 is_stmt 1 view .LVU548
 2082              		.loc 4 117 92 is_stmt 0 view .LVU549
 2083 00ae 0368     		ldr	r3, [r0]
 2084              		.loc 4 117 61 view .LVU550
 2085 00b0 5E49     		ldr	r1, .L153+12
 2086 00b2 0092     		str	r2, [sp]
 2087 00b4 9F6A     		ldr	r7, [r3, #40]
 2088 00b6 96E80C00 		ldm	r6, {r2, r3}
 2089 00ba B847     		blx	r7
 2090              	.LVL148:
 118:Display/displayHandler.cpp ****     _displayPtr->SetCursor(10, 23); _displayPtr->WriteString("Scales", Font_7x10, true);
 2091              		.loc 4 118 5 is_stmt 1 view .LVU551
 2092 00bc 2F68     		ldr	r7, [r5]
 2093              	.LVL149:
 2094              	.LBB245:
 2095              	.LBI245:
 171:Display/../../libs/PoliTeKDSP/libs/libDaisy/src/hid/disp/display.h ****     {
 2096              		.loc 3 171 10 view .LVU552
 2097              	.LBB246:
 173:Display/../../libs/PoliTeKDSP/libs/libDaisy/src/hid/disp/display.h ****         currentY_ = (y >= Height()) ? Height() - 1 : y;
 2098              		.loc 3 173 9 view .LVU553
 173:Display/../../libs/PoliTeKDSP/libs/libDaisy/src/hid/disp/display.h ****         currentY_ = (y >= Height()) ? Height() - 1 : y;
 2099              		.loc 3 173 33 is_stmt 0 view .LVU554
 2100 00be 3B68     		ldr	r3, [r7]
 173:Display/../../libs/PoliTeKDSP/libs/libDaisy/src/hid/disp/display.h ****         currentY_ = (y >= Height()) ? Height() - 1 : y;
 2101              		.loc 3 173 32 view .LVU555
 2102 00c0 3846     		mov	r0, r7
 2103 00c2 DB68     		ldr	r3, [r3, #12]
ARM GAS  C:\Users\skipi\AppData\Local\Temp\ccerdDJR.s 			page 59


 2104 00c4 9847     		blx	r3
 2105              	.LVL150:
 173:Display/../../libs/PoliTeKDSP/libs/libDaisy/src/hid/disp/display.h ****         currentY_ = (y >= Height()) ? Height() - 1 : y;
 2106              		.loc 3 173 19 view .LVU556
 2107 00c6 0A28     		cmp	r0, #10
 2108 00c8 00F29C80 		bhi	.L145
 173:Display/../../libs/PoliTeKDSP/libs/libDaisy/src/hid/disp/display.h ****         currentY_ = (y >= Height()) ? Height() - 1 : y;
 2109              		.loc 3 173 44 view .LVU557
 2110 00cc 3B68     		ldr	r3, [r7]
 173:Display/../../libs/PoliTeKDSP/libs/libDaisy/src/hid/disp/display.h ****         currentY_ = (y >= Height()) ? Height() - 1 : y;
 2111              		.loc 3 173 43 view .LVU558
 2112 00ce 3846     		mov	r0, r7
 2113 00d0 DB68     		ldr	r3, [r3, #12]
 2114 00d2 9847     		blx	r3
 2115              	.LVL151:
 173:Display/../../libs/PoliTeKDSP/libs/libDaisy/src/hid/disp/display.h ****         currentY_ = (y >= Height()) ? Height() - 1 : y;
 2116              		.loc 3 173 19 view .LVU559
 2117 00d4 0138     		subs	r0, r0, #1
 2118 00d6 83B2     		uxth	r3, r0
 2119              	.L133:
 2120 00d8 BB80     		strh	r3, [r7, #4]	@ movhi
 174:Display/../../libs/PoliTeKDSP/libs/libDaisy/src/hid/disp/display.h ****     }
 2121              		.loc 3 174 9 is_stmt 1 view .LVU560
 174:Display/../../libs/PoliTeKDSP/libs/libDaisy/src/hid/disp/display.h ****     }
 2122              		.loc 3 174 33 is_stmt 0 view .LVU561
 2123 00da 3846     		mov	r0, r7
 174:Display/../../libs/PoliTeKDSP/libs/libDaisy/src/hid/disp/display.h ****     }
 2124              		.loc 3 174 34 view .LVU562
 2125 00dc 3B68     		ldr	r3, [r7]
 174:Display/../../libs/PoliTeKDSP/libs/libDaisy/src/hid/disp/display.h ****     }
 2126              		.loc 3 174 33 view .LVU563
 2127 00de 9B68     		ldr	r3, [r3, #8]
 2128 00e0 9847     		blx	r3
 2129              	.LVL152:
 174:Display/../../libs/PoliTeKDSP/libs/libDaisy/src/hid/disp/display.h ****     }
 2130              		.loc 3 174 19 view .LVU564
 2131 00e2 1728     		cmp	r0, #23
 2132 00e4 00F28C80 		bhi	.L146
 174:Display/../../libs/PoliTeKDSP/libs/libDaisy/src/hid/disp/display.h ****     }
 2133              		.loc 3 174 46 view .LVU565
 2134 00e8 3B68     		ldr	r3, [r7]
 174:Display/../../libs/PoliTeKDSP/libs/libDaisy/src/hid/disp/display.h ****     }
 2135              		.loc 3 174 45 view .LVU566
 2136 00ea 3846     		mov	r0, r7
 2137 00ec 9B68     		ldr	r3, [r3, #8]
 2138 00ee 9847     		blx	r3
 2139              	.LVL153:
 174:Display/../../libs/PoliTeKDSP/libs/libDaisy/src/hid/disp/display.h ****     }
 2140              		.loc 3 174 19 view .LVU567
 2141 00f0 0138     		subs	r0, r0, #1
 2142 00f2 83B2     		uxth	r3, r0
 2143              	.L134:
 2144              	.LBE246:
 2145              	.LBE245:
 2146              		.loc 4 118 37 view .LVU568
 2147 00f4 2868     		ldr	r0, [r5]
 2148              		.loc 4 118 61 view .LVU569
ARM GAS  C:\Users\skipi\AppData\Local\Temp\ccerdDJR.s 			page 60


 2149 00f6 0122     		movs	r2, #1
 2150              	.LBB249:
 2151              	.LBB247:
 174:Display/../../libs/PoliTeKDSP/libs/libDaisy/src/hid/disp/display.h ****     }
 2152              		.loc 3 174 19 view .LVU570
 2153 00f8 FB80     		strh	r3, [r7, #6]	@ movhi
 2154              	.LVL154:
 174:Display/../../libs/PoliTeKDSP/libs/libDaisy/src/hid/disp/display.h ****     }
 2155              		.loc 3 174 19 view .LVU571
 2156              	.LBE247:
 2157              	.LBE249:
 2158              		.loc 4 118 37 is_stmt 1 view .LVU572
 2159              		.loc 4 118 87 is_stmt 0 view .LVU573
 2160 00fa 0368     		ldr	r3, [r0]
 2161              		.loc 4 118 61 view .LVU574
 2162 00fc 4C49     		ldr	r1, .L153+16
 2163 00fe 0092     		str	r2, [sp]
 2164 0100 9F6A     		ldr	r7, [r3, #40]
 2165 0102 96E80C00 		ldm	r6, {r2, r3}
 2166 0106 B847     		blx	r7
 2167              	.LVL155:
 119:Display/displayHandler.cpp ****     _displayPtr->SetCursor(10, 33); _displayPtr->WriteString("Presets", Font_7x10, true);
 2168              		.loc 4 119 5 is_stmt 1 view .LVU575
 2169 0108 2F68     		ldr	r7, [r5]
 2170              	.LVL156:
 2171              	.LBB250:
 2172              	.LBI250:
 171:Display/../../libs/PoliTeKDSP/libs/libDaisy/src/hid/disp/display.h ****     {
 2173              		.loc 3 171 10 view .LVU576
 2174              	.LBB251:
 173:Display/../../libs/PoliTeKDSP/libs/libDaisy/src/hid/disp/display.h ****         currentY_ = (y >= Height()) ? Height() - 1 : y;
 2175              		.loc 3 173 9 view .LVU577
 173:Display/../../libs/PoliTeKDSP/libs/libDaisy/src/hid/disp/display.h ****         currentY_ = (y >= Height()) ? Height() - 1 : y;
 2176              		.loc 3 173 33 is_stmt 0 view .LVU578
 2177 010a 3B68     		ldr	r3, [r7]
 173:Display/../../libs/PoliTeKDSP/libs/libDaisy/src/hid/disp/display.h ****         currentY_ = (y >= Height()) ? Height() - 1 : y;
 2178              		.loc 3 173 32 view .LVU579
 2179 010c 3846     		mov	r0, r7
 2180 010e DB68     		ldr	r3, [r3, #12]
 2181 0110 9847     		blx	r3
 2182              	.LVL157:
 173:Display/../../libs/PoliTeKDSP/libs/libDaisy/src/hid/disp/display.h ****         currentY_ = (y >= Height()) ? Height() - 1 : y;
 2183              		.loc 3 173 19 view .LVU580
 2184 0112 0A28     		cmp	r0, #10
 2185 0114 72D8     		bhi	.L147
 173:Display/../../libs/PoliTeKDSP/libs/libDaisy/src/hid/disp/display.h ****         currentY_ = (y >= Height()) ? Height() - 1 : y;
 2186              		.loc 3 173 44 view .LVU581
 2187 0116 3B68     		ldr	r3, [r7]
 173:Display/../../libs/PoliTeKDSP/libs/libDaisy/src/hid/disp/display.h ****         currentY_ = (y >= Height()) ? Height() - 1 : y;
 2188              		.loc 3 173 43 view .LVU582
 2189 0118 3846     		mov	r0, r7
 2190 011a DB68     		ldr	r3, [r3, #12]
 2191 011c 9847     		blx	r3
 2192              	.LVL158:
 173:Display/../../libs/PoliTeKDSP/libs/libDaisy/src/hid/disp/display.h ****         currentY_ = (y >= Height()) ? Height() - 1 : y;
 2193              		.loc 3 173 19 view .LVU583
 2194 011e 0138     		subs	r0, r0, #1
ARM GAS  C:\Users\skipi\AppData\Local\Temp\ccerdDJR.s 			page 61


 2195 0120 83B2     		uxth	r3, r0
 2196              	.L135:
 2197 0122 BB80     		strh	r3, [r7, #4]	@ movhi
 174:Display/../../libs/PoliTeKDSP/libs/libDaisy/src/hid/disp/display.h ****     }
 2198              		.loc 3 174 9 is_stmt 1 view .LVU584
 174:Display/../../libs/PoliTeKDSP/libs/libDaisy/src/hid/disp/display.h ****     }
 2199              		.loc 3 174 33 is_stmt 0 view .LVU585
 2200 0124 3846     		mov	r0, r7
 174:Display/../../libs/PoliTeKDSP/libs/libDaisy/src/hid/disp/display.h ****     }
 2201              		.loc 3 174 34 view .LVU586
 2202 0126 3B68     		ldr	r3, [r7]
 174:Display/../../libs/PoliTeKDSP/libs/libDaisy/src/hid/disp/display.h ****     }
 2203              		.loc 3 174 33 view .LVU587
 2204 0128 9B68     		ldr	r3, [r3, #8]
 2205 012a 9847     		blx	r3
 2206              	.LVL159:
 174:Display/../../libs/PoliTeKDSP/libs/libDaisy/src/hid/disp/display.h ****     }
 2207              		.loc 3 174 19 view .LVU588
 2208 012c 2128     		cmp	r0, #33
 2209 012e 63D8     		bhi	.L148
 174:Display/../../libs/PoliTeKDSP/libs/libDaisy/src/hid/disp/display.h ****     }
 2210              		.loc 3 174 46 view .LVU589
 2211 0130 3B68     		ldr	r3, [r7]
 174:Display/../../libs/PoliTeKDSP/libs/libDaisy/src/hid/disp/display.h ****     }
 2212              		.loc 3 174 45 view .LVU590
 2213 0132 3846     		mov	r0, r7
 2214 0134 9B68     		ldr	r3, [r3, #8]
 2215 0136 9847     		blx	r3
 2216              	.LVL160:
 174:Display/../../libs/PoliTeKDSP/libs/libDaisy/src/hid/disp/display.h ****     }
 2217              		.loc 3 174 19 view .LVU591
 2218 0138 0138     		subs	r0, r0, #1
 2219 013a 83B2     		uxth	r3, r0
 2220              	.L136:
 2221              	.LBE251:
 2222              	.LBE250:
 2223              		.loc 4 119 37 view .LVU592
 2224 013c 2868     		ldr	r0, [r5]
 2225              		.loc 4 119 61 view .LVU593
 2226 013e 0122     		movs	r2, #1
 2227              	.LBB254:
 2228              	.LBB252:
 174:Display/../../libs/PoliTeKDSP/libs/libDaisy/src/hid/disp/display.h ****     }
 2229              		.loc 3 174 19 view .LVU594
 2230 0140 FB80     		strh	r3, [r7, #6]	@ movhi
 2231              	.LVL161:
 174:Display/../../libs/PoliTeKDSP/libs/libDaisy/src/hid/disp/display.h ****     }
 2232              		.loc 3 174 19 view .LVU595
 2233              	.LBE252:
 2234              	.LBE254:
 2235              		.loc 4 119 37 is_stmt 1 view .LVU596
 2236              		.loc 4 119 88 is_stmt 0 view .LVU597
 2237 0142 0368     		ldr	r3, [r0]
 2238              		.loc 4 119 61 view .LVU598
 2239 0144 3B49     		ldr	r1, .L153+20
 2240 0146 0092     		str	r2, [sp]
 2241 0148 9F6A     		ldr	r7, [r3, #40]
ARM GAS  C:\Users\skipi\AppData\Local\Temp\ccerdDJR.s 			page 62


 2242 014a 96E80C00 		ldm	r6, {r2, r3}
 2243 014e B847     		blx	r7
 2244              	.LVL162:
 120:Display/displayHandler.cpp ****     _displayPtr->SetCursor(10, 43); _displayPtr->WriteString("Exit", Font_7x10, true);
 2245              		.loc 4 120 5 is_stmt 1 view .LVU599
 2246 0150 2F68     		ldr	r7, [r5]
 2247              	.LVL163:
 2248              	.LBB255:
 2249              	.LBI255:
 171:Display/../../libs/PoliTeKDSP/libs/libDaisy/src/hid/disp/display.h ****     {
 2250              		.loc 3 171 10 view .LVU600
 2251              	.LBB256:
 173:Display/../../libs/PoliTeKDSP/libs/libDaisy/src/hid/disp/display.h ****         currentY_ = (y >= Height()) ? Height() - 1 : y;
 2252              		.loc 3 173 9 view .LVU601
 173:Display/../../libs/PoliTeKDSP/libs/libDaisy/src/hid/disp/display.h ****         currentY_ = (y >= Height()) ? Height() - 1 : y;
 2253              		.loc 3 173 33 is_stmt 0 view .LVU602
 2254 0152 3B68     		ldr	r3, [r7]
 173:Display/../../libs/PoliTeKDSP/libs/libDaisy/src/hid/disp/display.h ****         currentY_ = (y >= Height()) ? Height() - 1 : y;
 2255              		.loc 3 173 32 view .LVU603
 2256 0154 3846     		mov	r0, r7
 2257 0156 DB68     		ldr	r3, [r3, #12]
 2258 0158 9847     		blx	r3
 2259              	.LVL164:
 173:Display/../../libs/PoliTeKDSP/libs/libDaisy/src/hid/disp/display.h ****         currentY_ = (y >= Height()) ? Height() - 1 : y;
 2260              		.loc 3 173 19 view .LVU604
 2261 015a 0A28     		cmp	r0, #10
 2262 015c 4AD8     		bhi	.L149
 173:Display/../../libs/PoliTeKDSP/libs/libDaisy/src/hid/disp/display.h ****         currentY_ = (y >= Height()) ? Height() - 1 : y;
 2263              		.loc 3 173 44 view .LVU605
 2264 015e 3B68     		ldr	r3, [r7]
 173:Display/../../libs/PoliTeKDSP/libs/libDaisy/src/hid/disp/display.h ****         currentY_ = (y >= Height()) ? Height() - 1 : y;
 2265              		.loc 3 173 43 view .LVU606
 2266 0160 3846     		mov	r0, r7
 2267 0162 DB68     		ldr	r3, [r3, #12]
 2268 0164 9847     		blx	r3
 2269              	.LVL165:
 173:Display/../../libs/PoliTeKDSP/libs/libDaisy/src/hid/disp/display.h ****         currentY_ = (y >= Height()) ? Height() - 1 : y;
 2270              		.loc 3 173 19 view .LVU607
 2271 0166 0138     		subs	r0, r0, #1
 2272 0168 83B2     		uxth	r3, r0
 2273              	.L137:
 2274 016a BB80     		strh	r3, [r7, #4]	@ movhi
 174:Display/../../libs/PoliTeKDSP/libs/libDaisy/src/hid/disp/display.h ****     }
 2275              		.loc 3 174 9 is_stmt 1 view .LVU608
 174:Display/../../libs/PoliTeKDSP/libs/libDaisy/src/hid/disp/display.h ****     }
 2276              		.loc 3 174 33 is_stmt 0 view .LVU609
 2277 016c 3846     		mov	r0, r7
 174:Display/../../libs/PoliTeKDSP/libs/libDaisy/src/hid/disp/display.h ****     }
 2278              		.loc 3 174 34 view .LVU610
 2279 016e 3B68     		ldr	r3, [r7]
 174:Display/../../libs/PoliTeKDSP/libs/libDaisy/src/hid/disp/display.h ****     }
 2280              		.loc 3 174 33 view .LVU611
 2281 0170 9B68     		ldr	r3, [r3, #8]
 2282 0172 9847     		blx	r3
 2283              	.LVL166:
 174:Display/../../libs/PoliTeKDSP/libs/libDaisy/src/hid/disp/display.h ****     }
 2284              		.loc 3 174 19 view .LVU612
ARM GAS  C:\Users\skipi\AppData\Local\Temp\ccerdDJR.s 			page 63


 2285 0174 2B28     		cmp	r0, #43
 2286 0176 3BD8     		bhi	.L150
 174:Display/../../libs/PoliTeKDSP/libs/libDaisy/src/hid/disp/display.h ****     }
 2287              		.loc 3 174 46 view .LVU613
 2288 0178 3B68     		ldr	r3, [r7]
 174:Display/../../libs/PoliTeKDSP/libs/libDaisy/src/hid/disp/display.h ****     }
 2289              		.loc 3 174 45 view .LVU614
 2290 017a 3846     		mov	r0, r7
 2291 017c 9B68     		ldr	r3, [r3, #8]
 2292 017e 9847     		blx	r3
 2293              	.LVL167:
 174:Display/../../libs/PoliTeKDSP/libs/libDaisy/src/hid/disp/display.h ****     }
 2294              		.loc 3 174 19 view .LVU615
 2295 0180 0138     		subs	r0, r0, #1
 2296 0182 83B2     		uxth	r3, r0
 2297              	.L138:
 2298              	.LBE256:
 2299              	.LBE255:
 2300              		.loc 4 120 37 view .LVU616
 2301 0184 2868     		ldr	r0, [r5]
 2302              		.loc 4 120 61 view .LVU617
 2303 0186 0122     		movs	r2, #1
 2304              	.LBB259:
 2305              	.LBB257:
 174:Display/../../libs/PoliTeKDSP/libs/libDaisy/src/hid/disp/display.h ****     }
 2306              		.loc 3 174 19 view .LVU618
 2307 0188 FB80     		strh	r3, [r7, #6]	@ movhi
 2308              	.LVL168:
 174:Display/../../libs/PoliTeKDSP/libs/libDaisy/src/hid/disp/display.h ****     }
 2309              		.loc 3 174 19 view .LVU619
 2310              	.LBE257:
 2311              	.LBE259:
 2312              		.loc 4 120 37 is_stmt 1 view .LVU620
 121:Display/displayHandler.cpp **** 
 122:Display/displayHandler.cpp ****     int cursorY = 13 + (cursorIndex * 10);
 2313              		.loc 4 122 37 is_stmt 0 view .LVU621
 2314 018a 04EB8404 		add	r4, r4, r4, lsl #2
 2315              	.LVL169:
 120:Display/displayHandler.cpp **** 
 2316              		.loc 4 120 85 view .LVU622
 2317 018e 0368     		ldr	r3, [r0]
 120:Display/displayHandler.cpp **** 
 2318              		.loc 4 120 61 view .LVU623
 2319 0190 2949     		ldr	r1, .L153+24
 2320              		.loc 4 122 37 view .LVU624
 2321 0192 6400     		lsls	r4, r4, #1
 120:Display/displayHandler.cpp **** 
 2322              		.loc 4 120 61 view .LVU625
 2323 0194 0092     		str	r2, [sp]
 2324 0196 9F6A     		ldr	r7, [r3, #40]
 2325              		.loc 4 122 9 view .LVU626
 2326 0198 0D34     		adds	r4, r4, #13
 120:Display/displayHandler.cpp **** 
 2327              		.loc 4 120 61 view .LVU627
 2328 019a 96E80C00 		ldm	r6, {r2, r3}
 2329 019e B847     		blx	r7
 2330              	.LVL170:
ARM GAS  C:\Users\skipi\AppData\Local\Temp\ccerdDJR.s 			page 64


 2331              		.loc 4 122 5 is_stmt 1 view .LVU628
 123:Display/displayHandler.cpp ****     _displayPtr->SetCursor(0, cursorY);
 2332              		.loc 4 123 5 view .LVU629
 2333 01a0 2F68     		ldr	r7, [r5]
 2334              		.loc 4 123 27 is_stmt 0 view .LVU630
 2335 01a2 A4B2     		uxth	r4, r4
 2336              	.LVL171:
 2337              	.LBB260:
 2338              	.LBI260:
 171:Display/../../libs/PoliTeKDSP/libs/libDaisy/src/hid/disp/display.h ****     {
 2339              		.loc 3 171 10 is_stmt 1 view .LVU631
 2340              	.LBB261:
 173:Display/../../libs/PoliTeKDSP/libs/libDaisy/src/hid/disp/display.h ****         currentY_ = (y >= Height()) ? Height() - 1 : y;
 2341              		.loc 3 173 9 view .LVU632
 173:Display/../../libs/PoliTeKDSP/libs/libDaisy/src/hid/disp/display.h ****         currentY_ = (y >= Height()) ? Height() - 1 : y;
 2342              		.loc 3 173 33 is_stmt 0 view .LVU633
 2343 01a4 3B68     		ldr	r3, [r7]
 173:Display/../../libs/PoliTeKDSP/libs/libDaisy/src/hid/disp/display.h ****         currentY_ = (y >= Height()) ? Height() - 1 : y;
 2344              		.loc 3 173 32 view .LVU634
 2345 01a6 3846     		mov	r0, r7
 2346 01a8 DB68     		ldr	r3, [r3, #12]
 2347 01aa 9847     		blx	r3
 2348              	.LVL172:
 173:Display/../../libs/PoliTeKDSP/libs/libDaisy/src/hid/disp/display.h ****         currentY_ = (y >= Height()) ? Height() - 1 : y;
 2349              		.loc 3 173 19 view .LVU635
 2350 01ac F0B9     		cbnz	r0, .L151
 173:Display/../../libs/PoliTeKDSP/libs/libDaisy/src/hid/disp/display.h ****         currentY_ = (y >= Height()) ? Height() - 1 : y;
 2351              		.loc 3 173 44 view .LVU636
 2352 01ae 3B68     		ldr	r3, [r7]
 173:Display/../../libs/PoliTeKDSP/libs/libDaisy/src/hid/disp/display.h ****         currentY_ = (y >= Height()) ? Height() - 1 : y;
 2353              		.loc 3 173 43 view .LVU637
 2354 01b0 3846     		mov	r0, r7
 2355 01b2 DB68     		ldr	r3, [r3, #12]
 2356 01b4 9847     		blx	r3
 2357              	.LVL173:
 173:Display/../../libs/PoliTeKDSP/libs/libDaisy/src/hid/disp/display.h ****         currentY_ = (y >= Height()) ? Height() - 1 : y;
 2358              		.loc 3 173 19 view .LVU638
 2359 01b6 0138     		subs	r0, r0, #1
 2360 01b8 83B2     		uxth	r3, r0
 2361              	.L139:
 2362 01ba BB80     		strh	r3, [r7, #4]	@ movhi
 174:Display/../../libs/PoliTeKDSP/libs/libDaisy/src/hid/disp/display.h ****     }
 2363              		.loc 3 174 9 is_stmt 1 view .LVU639
 174:Display/../../libs/PoliTeKDSP/libs/libDaisy/src/hid/disp/display.h ****     }
 2364              		.loc 3 174 33 is_stmt 0 view .LVU640
 2365 01bc 3846     		mov	r0, r7
 174:Display/../../libs/PoliTeKDSP/libs/libDaisy/src/hid/disp/display.h ****     }
 2366              		.loc 3 174 34 view .LVU641
 2367 01be 3B68     		ldr	r3, [r7]
 174:Display/../../libs/PoliTeKDSP/libs/libDaisy/src/hid/disp/display.h ****     }
 2368              		.loc 3 174 33 view .LVU642
 2369 01c0 9B68     		ldr	r3, [r3, #8]
 2370 01c2 9847     		blx	r3
 2371              	.LVL174:
 174:Display/../../libs/PoliTeKDSP/libs/libDaisy/src/hid/disp/display.h ****     }
 2372              		.loc 3 174 19 view .LVU643
 2373 01c4 8442     		cmp	r4, r0
ARM GAS  C:\Users\skipi\AppData\Local\Temp\ccerdDJR.s 			page 65


 2374 01c6 05D3     		bcc	.L140
 174:Display/../../libs/PoliTeKDSP/libs/libDaisy/src/hid/disp/display.h ****     }
 2375              		.loc 3 174 46 view .LVU644
 2376 01c8 3B68     		ldr	r3, [r7]
 174:Display/../../libs/PoliTeKDSP/libs/libDaisy/src/hid/disp/display.h ****     }
 2377              		.loc 3 174 45 view .LVU645
 2378 01ca 3846     		mov	r0, r7
 2379 01cc 9B68     		ldr	r3, [r3, #8]
 2380 01ce 9847     		blx	r3
 2381              	.LVL175:
 174:Display/../../libs/PoliTeKDSP/libs/libDaisy/src/hid/disp/display.h ****     }
 2382              		.loc 3 174 19 view .LVU646
 2383 01d0 0138     		subs	r0, r0, #1
 2384 01d2 84B2     		uxth	r4, r0
 2385              	.LVL176:
 2386              	.L140:
 174:Display/../../libs/PoliTeKDSP/libs/libDaisy/src/hid/disp/display.h ****     }
 2387              		.loc 3 174 19 view .LVU647
 2388              	.LBE261:
 2389              	.LBE260:
 124:Display/displayHandler.cpp ****     _displayPtr->WriteString(">", Font_7x10, true);
 2390              		.loc 4 124 5 view .LVU648
 2391 01d4 2868     		ldr	r0, [r5]
 2392              		.loc 4 124 29 view .LVU649
 2393 01d6 0123     		movs	r3, #1
 2394              	.LBB264:
 2395              	.LBB262:
 174:Display/../../libs/PoliTeKDSP/libs/libDaisy/src/hid/disp/display.h ****     }
 2396              		.loc 3 174 19 view .LVU650
 2397 01d8 FC80     		strh	r4, [r7, #6]	@ movhi
 2398              	.LVL177:
 174:Display/../../libs/PoliTeKDSP/libs/libDaisy/src/hid/disp/display.h ****     }
 2399              		.loc 3 174 19 view .LVU651
 2400              	.LBE262:
 2401              	.LBE264:
 2402              		.loc 4 124 5 is_stmt 1 view .LVU652
 2403              		.loc 4 124 50 is_stmt 0 view .LVU653
 2404 01da 0168     		ldr	r1, [r0]
 2405              		.loc 4 124 29 view .LVU654
 2406 01dc 0093     		str	r3, [sp]
 2407 01de 8C6A     		ldr	r4, [r1, #40]
 2408 01e0 1649     		ldr	r1, .L153+28
 2409 01e2 96E80C00 		ldm	r6, {r2, r3}
 2410 01e6 A047     		blx	r4
 2411              	.LVL178:
 125:Display/displayHandler.cpp **** }
 2412              		.loc 4 125 1 view .LVU655
 2413 01e8 03B0     		add	sp, sp, #12
 2414              		.cfi_remember_state
 2415              		.cfi_def_cfa_offset 20
 2416              		@ sp needed
 2417 01ea F0BD     		pop	{r4, r5, r6, r7, pc}
 2418              	.LVL179:
 2419              	.L151:
 2420              		.cfi_restore_state
 2421              	.LBB265:
 2422              	.LBB263:
ARM GAS  C:\Users\skipi\AppData\Local\Temp\ccerdDJR.s 			page 66


 173:Display/../../libs/PoliTeKDSP/libs/libDaisy/src/hid/disp/display.h ****         currentY_ = (y >= Height()) ? Height() - 1 : y;
 2423              		.loc 3 173 19 view .LVU656
 2424 01ec 0023     		movs	r3, #0
 2425 01ee E4E7     		b	.L139
 2426              	.LVL180:
 2427              	.L150:
 173:Display/../../libs/PoliTeKDSP/libs/libDaisy/src/hid/disp/display.h ****         currentY_ = (y >= Height()) ? Height() - 1 : y;
 2428              		.loc 3 173 19 view .LVU657
 2429              	.LBE263:
 2430              	.LBE265:
 2431              	.LBB266:
 2432              	.LBB258:
 174:Display/../../libs/PoliTeKDSP/libs/libDaisy/src/hid/disp/display.h ****     }
 2433              		.loc 3 174 19 view .LVU658
 2434 01f0 2B23     		movs	r3, #43
 2435 01f2 C7E7     		b	.L138
 2436              	.L149:
 173:Display/../../libs/PoliTeKDSP/libs/libDaisy/src/hid/disp/display.h ****         currentY_ = (y >= Height()) ? Height() - 1 : y;
 2437              		.loc 3 173 19 view .LVU659
 2438 01f4 0A23     		movs	r3, #10
 2439 01f6 B8E7     		b	.L137
 2440              	.LVL181:
 2441              	.L148:
 173:Display/../../libs/PoliTeKDSP/libs/libDaisy/src/hid/disp/display.h ****         currentY_ = (y >= Height()) ? Height() - 1 : y;
 2442              		.loc 3 173 19 view .LVU660
 2443              	.LBE258:
 2444              	.LBE266:
 2445              	.LBB267:
 2446              	.LBB253:
 174:Display/../../libs/PoliTeKDSP/libs/libDaisy/src/hid/disp/display.h ****     }
 2447              		.loc 3 174 19 view .LVU661
 2448 01f8 2123     		movs	r3, #33
 2449 01fa 9FE7     		b	.L136
 2450              	.L147:
 173:Display/../../libs/PoliTeKDSP/libs/libDaisy/src/hid/disp/display.h ****         currentY_ = (y >= Height()) ? Height() - 1 : y;
 2451              		.loc 3 173 19 view .LVU662
 2452 01fc 0A23     		movs	r3, #10
 2453 01fe 90E7     		b	.L135
 2454              	.LVL182:
 2455              	.L146:
 173:Display/../../libs/PoliTeKDSP/libs/libDaisy/src/hid/disp/display.h ****         currentY_ = (y >= Height()) ? Height() - 1 : y;
 2456              		.loc 3 173 19 view .LVU663
 2457              	.LBE253:
 2458              	.LBE267:
 2459              	.LBB268:
 2460              	.LBB248:
 174:Display/../../libs/PoliTeKDSP/libs/libDaisy/src/hid/disp/display.h ****     }
 2461              		.loc 3 174 19 view .LVU664
 2462 0200 1723     		movs	r3, #23
 2463 0202 77E7     		b	.L134
 2464              	.L145:
 173:Display/../../libs/PoliTeKDSP/libs/libDaisy/src/hid/disp/display.h ****         currentY_ = (y >= Height()) ? Height() - 1 : y;
 2465              		.loc 3 173 19 view .LVU665
 2466 0204 0A23     		movs	r3, #10
 2467 0206 67E7     		b	.L133
 2468              	.LVL183:
 2469              	.L144:
ARM GAS  C:\Users\skipi\AppData\Local\Temp\ccerdDJR.s 			page 67


 173:Display/../../libs/PoliTeKDSP/libs/libDaisy/src/hid/disp/display.h ****         currentY_ = (y >= Height()) ? Height() - 1 : y;
 2470              		.loc 3 173 19 view .LVU666
 2471              	.LBE248:
 2472              	.LBE268:
 2473              	.LBB269:
 2474              	.LBB243:
 174:Display/../../libs/PoliTeKDSP/libs/libDaisy/src/hid/disp/display.h ****     }
 2475              		.loc 3 174 19 view .LVU667
 2476 0208 0D23     		movs	r3, #13
 2477 020a 4DE7     		b	.L132
 2478              	.L143:
 173:Display/../../libs/PoliTeKDSP/libs/libDaisy/src/hid/disp/display.h ****         currentY_ = (y >= Height()) ? Height() - 1 : y;
 2479              		.loc 3 173 19 view .LVU668
 2480 020c 0A23     		movs	r3, #10
 2481 020e 3DE7     		b	.L131
 2482              	.LVL184:
 2483              	.L142:
 173:Display/../../libs/PoliTeKDSP/libs/libDaisy/src/hid/disp/display.h ****         currentY_ = (y >= Height()) ? Height() - 1 : y;
 2484              		.loc 3 173 19 view .LVU669
 2485              	.LBE243:
 2486              	.LBE269:
 2487              	.LBB270:
 2488              	.LBB238:
 174:Display/../../libs/PoliTeKDSP/libs/libDaisy/src/hid/disp/display.h ****     }
 2489              		.loc 3 174 19 view .LVU670
 2490 0210 0023     		movs	r3, #0
 2491 0212 22E7     		b	.L130
 2492              	.L141:
 173:Display/../../libs/PoliTeKDSP/libs/libDaisy/src/hid/disp/display.h ****         currentY_ = (y >= Height()) ? Height() - 1 : y;
 2493              		.loc 3 173 19 view .LVU671
 2494 0214 0023     		movs	r3, #0
 2495 0216 12E7     		b	.L129
 2496              	.LVL185:
 2497              	.L127:
 173:Display/../../libs/PoliTeKDSP/libs/libDaisy/src/hid/disp/display.h ****         currentY_ = (y >= Height()) ? Height() - 1 : y;
 2498              		.loc 3 173 19 view .LVU672
 2499              	.LBE238:
 2500              	.LBE270:
 112:Display/displayHandler.cpp ****     
 2501              		.loc 4 112 22 view .LVU673
 2502 0218 0021     		movs	r1, #0
 2503              	.LVL186:
 112:Display/displayHandler.cpp ****     
 2504              		.loc 4 112 22 view .LVU674
 2505 021a 9847     		blx	r3
 2506              	.LVL187:
 2507 021c 01E7     		b	.L128
 2508              	.L154:
 2509 021e 00BF     		.align	2
 2510              	.L153:
 2511 0220 00000000 		.word	_ZN5daisy11OledDisplayINS_13SSD130xDriverILj128ELj64ENS_19SSD130xI2CTransportEEEE4FillEb
 2512 0224 00000000 		.word	Font_7x10
 2513 0228 00000000 		.word	.LC1
 2514 022c 10000000 		.word	.LC2
 2515 0230 1C000000 		.word	.LC3
 2516 0234 24000000 		.word	.LC4
 2517 0238 2C000000 		.word	.LC5
ARM GAS  C:\Users\skipi\AppData\Local\Temp\ccerdDJR.s 			page 68


 2518 023c 34000000 		.word	.LC6
 2519              		.cfi_endproc
 2520              	.LFE2792:
 2522              		.section	.rodata._ZN14DisplayHandler18DrawCalibrationHubEi.str1.4,"aMS",%progbits,1
 2523              		.align	2
 2524              	.LC7:
 2525 0000 2D204341 		.ascii	"- CALIBRATION -\000"
 2525      4C494252 
 2525      4154494F 
 2525      4E202D00 
 2526              		.align	2
 2527              	.LC8:
 2528 0010 44656C74 		.ascii	"Delta\000"
 2528      6100
 2529 0016 0000     		.align	2
 2530              	.LC9:
 2531 0018 43757276 		.ascii	"Curve\000"
 2531      6500
 2532 001e 0000     		.align	2
 2533              	.LC10:
 2534 0020 48797374 		.ascii	"Hysteresis\000"
 2534      65726573 
 2534      697300
 2535 002b 00       		.align	2
 2536              	.LC11:
 2537 002c 46696C74 		.ascii	"Filter Type\000"
 2537      65722054 
 2537      79706500 
 2538              		.align	2
 2539              	.LC12:
 2540 0038 4261636B 		.ascii	"Back\000"
 2540      00
 2541              		.section	.text._ZN14DisplayHandler18DrawCalibrationHubEi,"ax",%progbits
 2542              		.align	1
 2543              		.p2align 2,,3
 2544              		.global	_ZN14DisplayHandler18DrawCalibrationHubEi
 2545              		.syntax unified
 2546              		.thumb
 2547              		.thumb_func
 2548              		.fpu fpv5-d16
 2550              	_ZN14DisplayHandler18DrawCalibrationHubEi:
 2551              	.LVL188:
 2552              	.LFB2793:
 126:Display/displayHandler.cpp **** 
 127:Display/displayHandler.cpp **** void DisplayHandler::DrawCalibrationHub(int cursorIndex) {
 2553              		.loc 4 127 58 is_stmt 1 view -0
 2554              		.cfi_startproc
 2555              		@ args = 0, pretend = 0, frame = 0
 2556              		@ frame_needed = 0, uses_anonymous_args = 0
 128:Display/displayHandler.cpp ****     _displayPtr->Fill(false);
 2557              		.loc 4 128 5 view .LVU676
 127:Display/displayHandler.cpp ****     _displayPtr->Fill(false);
 2558              		.loc 4 127 58 is_stmt 0 view .LVU677
 2559 0000 F0B5     		push	{r4, r5, r6, r7, lr}
 2560              		.cfi_def_cfa_offset 20
 2561              		.cfi_offset 4, -20
 2562              		.cfi_offset 5, -16
ARM GAS  C:\Users\skipi\AppData\Local\Temp\ccerdDJR.s 			page 69


 2563              		.cfi_offset 6, -12
 2564              		.cfi_offset 7, -8
 2565              		.cfi_offset 14, -4
 2566 0002 0446     		mov	r4, r0
 2567              		.loc 4 128 5 view .LVU678
 2568 0004 0068     		ldr	r0, [r0]
 2569              	.LVL189:
 2570              		.loc 4 128 5 view .LVU679
 2571 0006 984A     		ldr	r2, .L186
 127:Display/displayHandler.cpp ****     _displayPtr->Fill(false);
 2572              		.loc 4 127 58 view .LVU680
 2573 0008 83B0     		sub	sp, sp, #12
 2574              		.cfi_def_cfa_offset 32
 2575              		.loc 4 128 28 view .LVU681
 2576 000a 0368     		ldr	r3, [r0]
 127:Display/displayHandler.cpp ****     _displayPtr->Fill(false);
 2577              		.loc 4 127 58 view .LVU682
 2578 000c 0D46     		mov	r5, r1
 2579              		.loc 4 128 28 view .LVU683
 2580 000e 1B69     		ldr	r3, [r3, #16]
 2581 0010 9342     		cmp	r3, r2
 2582 0012 40F03D81 		bne	.L156
 2583              	.LBB289:
 2584              	.LBB290:
 2585              	.LBB291:
 375:Display/../../libs/PoliTeKDSP/libs/libDaisy/src/dev/oled_ssd130x.h ****         }
 2586              		.loc 2 375 24 view .LVU684
 2587 0016 4FF48062 		mov	r2, #1024
 2588 001a 0021     		movs	r1, #0
 2589              	.LVL190:
 375:Display/../../libs/PoliTeKDSP/libs/libDaisy/src/dev/oled_ssd130x.h ****         }
 2590              		.loc 2 375 24 view .LVU685
 2591 001c 1030     		adds	r0, r0, #16
 2592 001e FFF7FEFF 		bl	memset
 2593              	.LVL191:
 2594              	.L157:
 2595              	.LBE291:
 2596              	.LBE290:
 2597              	.LBE289:
 129:Display/displayHandler.cpp ****     
 130:Display/displayHandler.cpp ****     _displayPtr->SetCursor(0, 0);
 2598              		.loc 4 130 5 is_stmt 1 view .LVU686
 2599 0022 2668     		ldr	r6, [r4]
 2600              	.LVL192:
 2601              	.LBB292:
 2602              	.LBI292:
 171:Display/../../libs/PoliTeKDSP/libs/libDaisy/src/hid/disp/display.h ****     {
 2603              		.loc 3 171 10 view .LVU687
 2604              	.LBB293:
 173:Display/../../libs/PoliTeKDSP/libs/libDaisy/src/hid/disp/display.h ****         currentY_ = (y >= Height()) ? Height() - 1 : y;
 2605              		.loc 3 173 9 view .LVU688
 173:Display/../../libs/PoliTeKDSP/libs/libDaisy/src/hid/disp/display.h ****         currentY_ = (y >= Height()) ? Height() - 1 : y;
 2606              		.loc 3 173 33 is_stmt 0 view .LVU689
 2607 0024 3368     		ldr	r3, [r6]
 173:Display/../../libs/PoliTeKDSP/libs/libDaisy/src/hid/disp/display.h ****         currentY_ = (y >= Height()) ? Height() - 1 : y;
 2608              		.loc 3 173 32 view .LVU690
 2609 0026 3046     		mov	r0, r6
ARM GAS  C:\Users\skipi\AppData\Local\Temp\ccerdDJR.s 			page 70


 2610 0028 DB68     		ldr	r3, [r3, #12]
 2611 002a 9847     		blx	r3
 2612              	.LVL193:
 173:Display/../../libs/PoliTeKDSP/libs/libDaisy/src/hid/disp/display.h ****         currentY_ = (y >= Height()) ? Height() - 1 : y;
 2613              		.loc 3 173 19 view .LVU691
 2614 002c 0028     		cmp	r0, #0
 2615 002e 40F02D81 		bne	.L172
 173:Display/../../libs/PoliTeKDSP/libs/libDaisy/src/hid/disp/display.h ****         currentY_ = (y >= Height()) ? Height() - 1 : y;
 2616              		.loc 3 173 44 view .LVU692
 2617 0032 3368     		ldr	r3, [r6]
 173:Display/../../libs/PoliTeKDSP/libs/libDaisy/src/hid/disp/display.h ****         currentY_ = (y >= Height()) ? Height() - 1 : y;
 2618              		.loc 3 173 43 view .LVU693
 2619 0034 3046     		mov	r0, r6
 2620 0036 DB68     		ldr	r3, [r3, #12]
 2621 0038 9847     		blx	r3
 2622              	.LVL194:
 173:Display/../../libs/PoliTeKDSP/libs/libDaisy/src/hid/disp/display.h ****         currentY_ = (y >= Height()) ? Height() - 1 : y;
 2623              		.loc 3 173 19 view .LVU694
 2624 003a 0138     		subs	r0, r0, #1
 2625 003c 83B2     		uxth	r3, r0
 2626              	.L158:
 174:Display/../../libs/PoliTeKDSP/libs/libDaisy/src/hid/disp/display.h ****     }
 2627              		.loc 3 174 34 view .LVU695
 2628 003e 3268     		ldr	r2, [r6]
 174:Display/../../libs/PoliTeKDSP/libs/libDaisy/src/hid/disp/display.h ****     }
 2629              		.loc 3 174 33 view .LVU696
 2630 0040 3046     		mov	r0, r6
 173:Display/../../libs/PoliTeKDSP/libs/libDaisy/src/hid/disp/display.h ****         currentY_ = (y >= Height()) ? Height() - 1 : y;
 2631              		.loc 3 173 19 view .LVU697
 2632 0042 B380     		strh	r3, [r6, #4]	@ movhi
 174:Display/../../libs/PoliTeKDSP/libs/libDaisy/src/hid/disp/display.h ****     }
 2633              		.loc 3 174 9 is_stmt 1 view .LVU698
 174:Display/../../libs/PoliTeKDSP/libs/libDaisy/src/hid/disp/display.h ****     }
 2634              		.loc 3 174 33 is_stmt 0 view .LVU699
 2635 0044 9368     		ldr	r3, [r2, #8]
 2636 0046 9847     		blx	r3
 2637              	.LVL195:
 174:Display/../../libs/PoliTeKDSP/libs/libDaisy/src/hid/disp/display.h ****     }
 2638              		.loc 3 174 19 view .LVU700
 2639 0048 0028     		cmp	r0, #0
 2640 004a 40F00B81 		bne	.L173
 174:Display/../../libs/PoliTeKDSP/libs/libDaisy/src/hid/disp/display.h ****     }
 2641              		.loc 3 174 46 view .LVU701
 2642 004e 3368     		ldr	r3, [r6]
 174:Display/../../libs/PoliTeKDSP/libs/libDaisy/src/hid/disp/display.h ****     }
 2643              		.loc 3 174 45 view .LVU702
 2644 0050 3046     		mov	r0, r6
 2645 0052 9B68     		ldr	r3, [r3, #8]
 2646 0054 9847     		blx	r3
 2647              	.LVL196:
 174:Display/../../libs/PoliTeKDSP/libs/libDaisy/src/hid/disp/display.h ****     }
 2648              		.loc 3 174 19 view .LVU703
 2649 0056 0138     		subs	r0, r0, #1
 2650 0058 83B2     		uxth	r3, r0
 2651              	.L159:
 2652              	.LBE293:
 2653              	.LBE292:
ARM GAS  C:\Users\skipi\AppData\Local\Temp\ccerdDJR.s 			page 71


 131:Display/displayHandler.cpp ****     _displayPtr->WriteString("- CALIBRATION -", Font_7x10, true);
 2654              		.loc 4 131 5 view .LVU704
 2655 005a 2068     		ldr	r0, [r4]
 2656              		.loc 4 131 29 view .LVU705
 2657 005c 0122     		movs	r2, #1
 2658              	.LBB296:
 2659              	.LBB294:
 174:Display/../../libs/PoliTeKDSP/libs/libDaisy/src/hid/disp/display.h ****     }
 2660              		.loc 3 174 19 view .LVU706
 2661 005e F380     		strh	r3, [r6, #6]	@ movhi
 2662              	.LVL197:
 174:Display/../../libs/PoliTeKDSP/libs/libDaisy/src/hid/disp/display.h ****     }
 2663              		.loc 3 174 19 view .LVU707
 2664              	.LBE294:
 2665              	.LBE296:
 2666              		.loc 4 131 5 is_stmt 1 view .LVU708
 2667              		.loc 4 131 64 is_stmt 0 view .LVU709
 2668 0060 0368     		ldr	r3, [r0]
 2669              		.loc 4 131 29 view .LVU710
 2670 0062 824E     		ldr	r6, .L186+4
 2671 0064 0092     		str	r2, [sp]
 2672 0066 8249     		ldr	r1, .L186+8
 2673 0068 9F6A     		ldr	r7, [r3, #40]
 2674 006a 96E80C00 		ldm	r6, {r2, r3}
 2675 006e B847     		blx	r7
 2676              	.LVL198:
 132:Display/displayHandler.cpp **** 
 133:Display/displayHandler.cpp ****     _displayPtr->SetCursor(10, 13); _displayPtr->WriteString("Delta", Font_7x10, true);
 2677              		.loc 4 133 5 is_stmt 1 view .LVU711
 2678 0070 2768     		ldr	r7, [r4]
 2679              	.LVL199:
 2680              	.LBB297:
 2681              	.LBI297:
 171:Display/../../libs/PoliTeKDSP/libs/libDaisy/src/hid/disp/display.h ****     {
 2682              		.loc 3 171 10 view .LVU712
 2683              	.LBB298:
 173:Display/../../libs/PoliTeKDSP/libs/libDaisy/src/hid/disp/display.h ****         currentY_ = (y >= Height()) ? Height() - 1 : y;
 2684              		.loc 3 173 9 view .LVU713
 173:Display/../../libs/PoliTeKDSP/libs/libDaisy/src/hid/disp/display.h ****         currentY_ = (y >= Height()) ? Height() - 1 : y;
 2685              		.loc 3 173 33 is_stmt 0 view .LVU714
 2686 0072 3B68     		ldr	r3, [r7]
 173:Display/../../libs/PoliTeKDSP/libs/libDaisy/src/hid/disp/display.h ****         currentY_ = (y >= Height()) ? Height() - 1 : y;
 2687              		.loc 3 173 32 view .LVU715
 2688 0074 3846     		mov	r0, r7
 2689 0076 DB68     		ldr	r3, [r3, #12]
 2690 0078 9847     		blx	r3
 2691              	.LVL200:
 173:Display/../../libs/PoliTeKDSP/libs/libDaisy/src/hid/disp/display.h ****         currentY_ = (y >= Height()) ? Height() - 1 : y;
 2692              		.loc 3 173 19 view .LVU716
 2693 007a 0A28     		cmp	r0, #10
 2694 007c 00F2F080 		bhi	.L174
 173:Display/../../libs/PoliTeKDSP/libs/libDaisy/src/hid/disp/display.h ****         currentY_ = (y >= Height()) ? Height() - 1 : y;
 2695              		.loc 3 173 44 view .LVU717
 2696 0080 3B68     		ldr	r3, [r7]
 173:Display/../../libs/PoliTeKDSP/libs/libDaisy/src/hid/disp/display.h ****         currentY_ = (y >= Height()) ? Height() - 1 : y;
 2697              		.loc 3 173 43 view .LVU718
 2698 0082 3846     		mov	r0, r7
ARM GAS  C:\Users\skipi\AppData\Local\Temp\ccerdDJR.s 			page 72


 2699 0084 DB68     		ldr	r3, [r3, #12]
 2700 0086 9847     		blx	r3
 2701              	.LVL201:
 173:Display/../../libs/PoliTeKDSP/libs/libDaisy/src/hid/disp/display.h ****         currentY_ = (y >= Height()) ? Height() - 1 : y;
 2702              		.loc 3 173 19 view .LVU719
 2703 0088 0138     		subs	r0, r0, #1
 2704 008a 83B2     		uxth	r3, r0
 2705              	.L160:
 2706 008c BB80     		strh	r3, [r7, #4]	@ movhi
 174:Display/../../libs/PoliTeKDSP/libs/libDaisy/src/hid/disp/display.h ****     }
 2707              		.loc 3 174 9 is_stmt 1 view .LVU720
 174:Display/../../libs/PoliTeKDSP/libs/libDaisy/src/hid/disp/display.h ****     }
 2708              		.loc 3 174 33 is_stmt 0 view .LVU721
 2709 008e 3846     		mov	r0, r7
 174:Display/../../libs/PoliTeKDSP/libs/libDaisy/src/hid/disp/display.h ****     }
 2710              		.loc 3 174 34 view .LVU722
 2711 0090 3B68     		ldr	r3, [r7]
 174:Display/../../libs/PoliTeKDSP/libs/libDaisy/src/hid/disp/display.h ****     }
 2712              		.loc 3 174 33 view .LVU723
 2713 0092 9B68     		ldr	r3, [r3, #8]
 2714 0094 9847     		blx	r3
 2715              	.LVL202:
 174:Display/../../libs/PoliTeKDSP/libs/libDaisy/src/hid/disp/display.h ****     }
 2716              		.loc 3 174 19 view .LVU724
 2717 0096 0D28     		cmp	r0, #13
 2718 0098 00F2E080 		bhi	.L175
 174:Display/../../libs/PoliTeKDSP/libs/libDaisy/src/hid/disp/display.h ****     }
 2719              		.loc 3 174 46 view .LVU725
 2720 009c 3B68     		ldr	r3, [r7]
 174:Display/../../libs/PoliTeKDSP/libs/libDaisy/src/hid/disp/display.h ****     }
 2721              		.loc 3 174 45 view .LVU726
 2722 009e 3846     		mov	r0, r7
 2723 00a0 9B68     		ldr	r3, [r3, #8]
 2724 00a2 9847     		blx	r3
 2725              	.LVL203:
 174:Display/../../libs/PoliTeKDSP/libs/libDaisy/src/hid/disp/display.h ****     }
 2726              		.loc 3 174 19 view .LVU727
 2727 00a4 0138     		subs	r0, r0, #1
 2728 00a6 83B2     		uxth	r3, r0
 2729              	.L161:
 2730              	.LBE298:
 2731              	.LBE297:
 2732              		.loc 4 133 37 view .LVU728
 2733 00a8 2068     		ldr	r0, [r4]
 2734              		.loc 4 133 61 view .LVU729
 2735 00aa 0122     		movs	r2, #1
 2736              	.LBB301:
 2737              	.LBB299:
 174:Display/../../libs/PoliTeKDSP/libs/libDaisy/src/hid/disp/display.h ****     }
 2738              		.loc 3 174 19 view .LVU730
 2739 00ac FB80     		strh	r3, [r7, #6]	@ movhi
 2740              	.LVL204:
 174:Display/../../libs/PoliTeKDSP/libs/libDaisy/src/hid/disp/display.h ****     }
 2741              		.loc 3 174 19 view .LVU731
 2742              	.LBE299:
 2743              	.LBE301:
 2744              		.loc 4 133 37 is_stmt 1 view .LVU732
ARM GAS  C:\Users\skipi\AppData\Local\Temp\ccerdDJR.s 			page 73


 2745              		.loc 4 133 86 is_stmt 0 view .LVU733
 2746 00ae 0368     		ldr	r3, [r0]
 2747              		.loc 4 133 61 view .LVU734
 2748 00b0 7049     		ldr	r1, .L186+12
 2749 00b2 0092     		str	r2, [sp]
 2750 00b4 9F6A     		ldr	r7, [r3, #40]
 2751 00b6 96E80C00 		ldm	r6, {r2, r3}
 2752 00ba B847     		blx	r7
 2753              	.LVL205:
 134:Display/displayHandler.cpp ****     _displayPtr->SetCursor(10, 23); _displayPtr->WriteString("Curve", Font_7x10, true);
 2754              		.loc 4 134 5 is_stmt 1 view .LVU735
 2755 00bc 2768     		ldr	r7, [r4]
 2756              	.LVL206:
 2757              	.LBB302:
 2758              	.LBI302:
 171:Display/../../libs/PoliTeKDSP/libs/libDaisy/src/hid/disp/display.h ****     {
 2759              		.loc 3 171 10 view .LVU736
 2760              	.LBB303:
 173:Display/../../libs/PoliTeKDSP/libs/libDaisy/src/hid/disp/display.h ****         currentY_ = (y >= Height()) ? Height() - 1 : y;
 2761              		.loc 3 173 9 view .LVU737
 173:Display/../../libs/PoliTeKDSP/libs/libDaisy/src/hid/disp/display.h ****         currentY_ = (y >= Height()) ? Height() - 1 : y;
 2762              		.loc 3 173 33 is_stmt 0 view .LVU738
 2763 00be 3B68     		ldr	r3, [r7]
 173:Display/../../libs/PoliTeKDSP/libs/libDaisy/src/hid/disp/display.h ****         currentY_ = (y >= Height()) ? Height() - 1 : y;
 2764              		.loc 3 173 32 view .LVU739
 2765 00c0 3846     		mov	r0, r7
 2766 00c2 DB68     		ldr	r3, [r3, #12]
 2767 00c4 9847     		blx	r3
 2768              	.LVL207:
 173:Display/../../libs/PoliTeKDSP/libs/libDaisy/src/hid/disp/display.h ****         currentY_ = (y >= Height()) ? Height() - 1 : y;
 2769              		.loc 3 173 19 view .LVU740
 2770 00c6 0A28     		cmp	r0, #10
 2771 00c8 00F2C680 		bhi	.L176
 173:Display/../../libs/PoliTeKDSP/libs/libDaisy/src/hid/disp/display.h ****         currentY_ = (y >= Height()) ? Height() - 1 : y;
 2772              		.loc 3 173 44 view .LVU741
 2773 00cc 3B68     		ldr	r3, [r7]
 173:Display/../../libs/PoliTeKDSP/libs/libDaisy/src/hid/disp/display.h ****         currentY_ = (y >= Height()) ? Height() - 1 : y;
 2774              		.loc 3 173 43 view .LVU742
 2775 00ce 3846     		mov	r0, r7
 2776 00d0 DB68     		ldr	r3, [r3, #12]
 2777 00d2 9847     		blx	r3
 2778              	.LVL208:
 173:Display/../../libs/PoliTeKDSP/libs/libDaisy/src/hid/disp/display.h ****         currentY_ = (y >= Height()) ? Height() - 1 : y;
 2779              		.loc 3 173 19 view .LVU743
 2780 00d4 0138     		subs	r0, r0, #1
 2781 00d6 83B2     		uxth	r3, r0
 2782              	.L162:
 2783 00d8 BB80     		strh	r3, [r7, #4]	@ movhi
 174:Display/../../libs/PoliTeKDSP/libs/libDaisy/src/hid/disp/display.h ****     }
 2784              		.loc 3 174 9 is_stmt 1 view .LVU744
 174:Display/../../libs/PoliTeKDSP/libs/libDaisy/src/hid/disp/display.h ****     }
 2785              		.loc 3 174 33 is_stmt 0 view .LVU745
 2786 00da 3846     		mov	r0, r7
 174:Display/../../libs/PoliTeKDSP/libs/libDaisy/src/hid/disp/display.h ****     }
 2787              		.loc 3 174 34 view .LVU746
 2788 00dc 3B68     		ldr	r3, [r7]
 174:Display/../../libs/PoliTeKDSP/libs/libDaisy/src/hid/disp/display.h ****     }
ARM GAS  C:\Users\skipi\AppData\Local\Temp\ccerdDJR.s 			page 74


 2789              		.loc 3 174 33 view .LVU747
 2790 00de 9B68     		ldr	r3, [r3, #8]
 2791 00e0 9847     		blx	r3
 2792              	.LVL209:
 174:Display/../../libs/PoliTeKDSP/libs/libDaisy/src/hid/disp/display.h ****     }
 2793              		.loc 3 174 19 view .LVU748
 2794 00e2 1728     		cmp	r0, #23
 2795 00e4 00F2B680 		bhi	.L177
 174:Display/../../libs/PoliTeKDSP/libs/libDaisy/src/hid/disp/display.h ****     }
 2796              		.loc 3 174 46 view .LVU749
 2797 00e8 3B68     		ldr	r3, [r7]
 174:Display/../../libs/PoliTeKDSP/libs/libDaisy/src/hid/disp/display.h ****     }
 2798              		.loc 3 174 45 view .LVU750
 2799 00ea 3846     		mov	r0, r7
 2800 00ec 9B68     		ldr	r3, [r3, #8]
 2801 00ee 9847     		blx	r3
 2802              	.LVL210:
 174:Display/../../libs/PoliTeKDSP/libs/libDaisy/src/hid/disp/display.h ****     }
 2803              		.loc 3 174 19 view .LVU751
 2804 00f0 0138     		subs	r0, r0, #1
 2805 00f2 83B2     		uxth	r3, r0
 2806              	.L163:
 2807              	.LBE303:
 2808              	.LBE302:
 2809              		.loc 4 134 37 view .LVU752
 2810 00f4 2068     		ldr	r0, [r4]
 2811              		.loc 4 134 61 view .LVU753
 2812 00f6 0122     		movs	r2, #1
 2813              	.LBB306:
 2814              	.LBB304:
 174:Display/../../libs/PoliTeKDSP/libs/libDaisy/src/hid/disp/display.h ****     }
 2815              		.loc 3 174 19 view .LVU754
 2816 00f8 FB80     		strh	r3, [r7, #6]	@ movhi
 2817              	.LVL211:
 174:Display/../../libs/PoliTeKDSP/libs/libDaisy/src/hid/disp/display.h ****     }
 2818              		.loc 3 174 19 view .LVU755
 2819              	.LBE304:
 2820              	.LBE306:
 2821              		.loc 4 134 37 is_stmt 1 view .LVU756
 2822              		.loc 4 134 86 is_stmt 0 view .LVU757
 2823 00fa 0368     		ldr	r3, [r0]
 2824              		.loc 4 134 61 view .LVU758
 2825 00fc 5E49     		ldr	r1, .L186+16
 2826 00fe 0092     		str	r2, [sp]
 2827 0100 9F6A     		ldr	r7, [r3, #40]
 2828 0102 96E80C00 		ldm	r6, {r2, r3}
 2829 0106 B847     		blx	r7
 2830              	.LVL212:
 135:Display/displayHandler.cpp ****     _displayPtr->SetCursor(10, 33); _displayPtr->WriteString("Hysteresis", Font_7x10, true);
 2831              		.loc 4 135 5 is_stmt 1 view .LVU759
 2832 0108 2768     		ldr	r7, [r4]
 2833              	.LVL213:
 2834              	.LBB307:
 2835              	.LBI307:
 171:Display/../../libs/PoliTeKDSP/libs/libDaisy/src/hid/disp/display.h ****     {
 2836              		.loc 3 171 10 view .LVU760
 2837              	.LBB308:
ARM GAS  C:\Users\skipi\AppData\Local\Temp\ccerdDJR.s 			page 75


 173:Display/../../libs/PoliTeKDSP/libs/libDaisy/src/hid/disp/display.h ****         currentY_ = (y >= Height()) ? Height() - 1 : y;
 2838              		.loc 3 173 9 view .LVU761
 173:Display/../../libs/PoliTeKDSP/libs/libDaisy/src/hid/disp/display.h ****         currentY_ = (y >= Height()) ? Height() - 1 : y;
 2839              		.loc 3 173 33 is_stmt 0 view .LVU762
 2840 010a 3B68     		ldr	r3, [r7]
 173:Display/../../libs/PoliTeKDSP/libs/libDaisy/src/hid/disp/display.h ****         currentY_ = (y >= Height()) ? Height() - 1 : y;
 2841              		.loc 3 173 32 view .LVU763
 2842 010c 3846     		mov	r0, r7
 2843 010e DB68     		ldr	r3, [r3, #12]
 2844 0110 9847     		blx	r3
 2845              	.LVL214:
 173:Display/../../libs/PoliTeKDSP/libs/libDaisy/src/hid/disp/display.h ****         currentY_ = (y >= Height()) ? Height() - 1 : y;
 2846              		.loc 3 173 19 view .LVU764
 2847 0112 0A28     		cmp	r0, #10
 2848 0114 00F29C80 		bhi	.L178
 173:Display/../../libs/PoliTeKDSP/libs/libDaisy/src/hid/disp/display.h ****         currentY_ = (y >= Height()) ? Height() - 1 : y;
 2849              		.loc 3 173 44 view .LVU765
 2850 0118 3B68     		ldr	r3, [r7]
 173:Display/../../libs/PoliTeKDSP/libs/libDaisy/src/hid/disp/display.h ****         currentY_ = (y >= Height()) ? Height() - 1 : y;
 2851              		.loc 3 173 43 view .LVU766
 2852 011a 3846     		mov	r0, r7
 2853 011c DB68     		ldr	r3, [r3, #12]
 2854 011e 9847     		blx	r3
 2855              	.LVL215:
 173:Display/../../libs/PoliTeKDSP/libs/libDaisy/src/hid/disp/display.h ****         currentY_ = (y >= Height()) ? Height() - 1 : y;
 2856              		.loc 3 173 19 view .LVU767
 2857 0120 0138     		subs	r0, r0, #1
 2858 0122 83B2     		uxth	r3, r0
 2859              	.L164:
 2860 0124 BB80     		strh	r3, [r7, #4]	@ movhi
 174:Display/../../libs/PoliTeKDSP/libs/libDaisy/src/hid/disp/display.h ****     }
 2861              		.loc 3 174 9 is_stmt 1 view .LVU768
 174:Display/../../libs/PoliTeKDSP/libs/libDaisy/src/hid/disp/display.h ****     }
 2862              		.loc 3 174 33 is_stmt 0 view .LVU769
 2863 0126 3846     		mov	r0, r7
 174:Display/../../libs/PoliTeKDSP/libs/libDaisy/src/hid/disp/display.h ****     }
 2864              		.loc 3 174 34 view .LVU770
 2865 0128 3B68     		ldr	r3, [r7]
 174:Display/../../libs/PoliTeKDSP/libs/libDaisy/src/hid/disp/display.h ****     }
 2866              		.loc 3 174 33 view .LVU771
 2867 012a 9B68     		ldr	r3, [r3, #8]
 2868 012c 9847     		blx	r3
 2869              	.LVL216:
 174:Display/../../libs/PoliTeKDSP/libs/libDaisy/src/hid/disp/display.h ****     }
 2870              		.loc 3 174 19 view .LVU772
 2871 012e 2128     		cmp	r0, #33
 2872 0130 00F28C80 		bhi	.L179
 174:Display/../../libs/PoliTeKDSP/libs/libDaisy/src/hid/disp/display.h ****     }
 2873              		.loc 3 174 46 view .LVU773
 2874 0134 3B68     		ldr	r3, [r7]
 174:Display/../../libs/PoliTeKDSP/libs/libDaisy/src/hid/disp/display.h ****     }
 2875              		.loc 3 174 45 view .LVU774
 2876 0136 3846     		mov	r0, r7
 2877 0138 9B68     		ldr	r3, [r3, #8]
 2878 013a 9847     		blx	r3
 2879              	.LVL217:
 174:Display/../../libs/PoliTeKDSP/libs/libDaisy/src/hid/disp/display.h ****     }
ARM GAS  C:\Users\skipi\AppData\Local\Temp\ccerdDJR.s 			page 76


 2880              		.loc 3 174 19 view .LVU775
 2881 013c 0138     		subs	r0, r0, #1
 2882 013e 83B2     		uxth	r3, r0
 2883              	.L165:
 2884              	.LBE308:
 2885              	.LBE307:
 2886              		.loc 4 135 37 view .LVU776
 2887 0140 2068     		ldr	r0, [r4]
 2888              		.loc 4 135 61 view .LVU777
 2889 0142 0122     		movs	r2, #1
 2890              	.LBB311:
 2891              	.LBB309:
 174:Display/../../libs/PoliTeKDSP/libs/libDaisy/src/hid/disp/display.h ****     }
 2892              		.loc 3 174 19 view .LVU778
 2893 0144 FB80     		strh	r3, [r7, #6]	@ movhi
 2894              	.LVL218:
 174:Display/../../libs/PoliTeKDSP/libs/libDaisy/src/hid/disp/display.h ****     }
 2895              		.loc 3 174 19 view .LVU779
 2896              	.LBE309:
 2897              	.LBE311:
 2898              		.loc 4 135 37 is_stmt 1 view .LVU780
 2899              		.loc 4 135 91 is_stmt 0 view .LVU781
 2900 0146 0368     		ldr	r3, [r0]
 2901              		.loc 4 135 61 view .LVU782
 2902 0148 4C49     		ldr	r1, .L186+20
 2903 014a 0092     		str	r2, [sp]
 2904 014c 9F6A     		ldr	r7, [r3, #40]
 2905 014e 96E80C00 		ldm	r6, {r2, r3}
 2906 0152 B847     		blx	r7
 2907              	.LVL219:
 136:Display/displayHandler.cpp ****     _displayPtr->SetCursor(10, 43); _displayPtr->WriteString("Filter Type", Font_7x10, true); 
 2908              		.loc 4 136 5 is_stmt 1 view .LVU783
 2909 0154 2768     		ldr	r7, [r4]
 2910              	.LVL220:
 2911              	.LBB312:
 2912              	.LBI312:
 171:Display/../../libs/PoliTeKDSP/libs/libDaisy/src/hid/disp/display.h ****     {
 2913              		.loc 3 171 10 view .LVU784
 2914              	.LBB313:
 173:Display/../../libs/PoliTeKDSP/libs/libDaisy/src/hid/disp/display.h ****         currentY_ = (y >= Height()) ? Height() - 1 : y;
 2915              		.loc 3 173 9 view .LVU785
 173:Display/../../libs/PoliTeKDSP/libs/libDaisy/src/hid/disp/display.h ****         currentY_ = (y >= Height()) ? Height() - 1 : y;
 2916              		.loc 3 173 33 is_stmt 0 view .LVU786
 2917 0156 3B68     		ldr	r3, [r7]
 173:Display/../../libs/PoliTeKDSP/libs/libDaisy/src/hid/disp/display.h ****         currentY_ = (y >= Height()) ? Height() - 1 : y;
 2918              		.loc 3 173 32 view .LVU787
 2919 0158 3846     		mov	r0, r7
 2920 015a DB68     		ldr	r3, [r3, #12]
 2921 015c 9847     		blx	r3
 2922              	.LVL221:
 173:Display/../../libs/PoliTeKDSP/libs/libDaisy/src/hid/disp/display.h ****         currentY_ = (y >= Height()) ? Height() - 1 : y;
 2923              		.loc 3 173 19 view .LVU788
 2924 015e 0A28     		cmp	r0, #10
 2925 0160 72D8     		bhi	.L180
 173:Display/../../libs/PoliTeKDSP/libs/libDaisy/src/hid/disp/display.h ****         currentY_ = (y >= Height()) ? Height() - 1 : y;
 2926              		.loc 3 173 44 view .LVU789
 2927 0162 3B68     		ldr	r3, [r7]
ARM GAS  C:\Users\skipi\AppData\Local\Temp\ccerdDJR.s 			page 77


 173:Display/../../libs/PoliTeKDSP/libs/libDaisy/src/hid/disp/display.h ****         currentY_ = (y >= Height()) ? Height() - 1 : y;
 2928              		.loc 3 173 43 view .LVU790
 2929 0164 3846     		mov	r0, r7
 2930 0166 DB68     		ldr	r3, [r3, #12]
 2931 0168 9847     		blx	r3
 2932              	.LVL222:
 173:Display/../../libs/PoliTeKDSP/libs/libDaisy/src/hid/disp/display.h ****         currentY_ = (y >= Height()) ? Height() - 1 : y;
 2933              		.loc 3 173 19 view .LVU791
 2934 016a 0138     		subs	r0, r0, #1
 2935 016c 83B2     		uxth	r3, r0
 2936              	.L166:
 2937 016e BB80     		strh	r3, [r7, #4]	@ movhi
 174:Display/../../libs/PoliTeKDSP/libs/libDaisy/src/hid/disp/display.h ****     }
 2938              		.loc 3 174 9 is_stmt 1 view .LVU792
 174:Display/../../libs/PoliTeKDSP/libs/libDaisy/src/hid/disp/display.h ****     }
 2939              		.loc 3 174 33 is_stmt 0 view .LVU793
 2940 0170 3846     		mov	r0, r7
 174:Display/../../libs/PoliTeKDSP/libs/libDaisy/src/hid/disp/display.h ****     }
 2941              		.loc 3 174 34 view .LVU794
 2942 0172 3B68     		ldr	r3, [r7]
 174:Display/../../libs/PoliTeKDSP/libs/libDaisy/src/hid/disp/display.h ****     }
 2943              		.loc 3 174 33 view .LVU795
 2944 0174 9B68     		ldr	r3, [r3, #8]
 2945 0176 9847     		blx	r3
 2946              	.LVL223:
 174:Display/../../libs/PoliTeKDSP/libs/libDaisy/src/hid/disp/display.h ****     }
 2947              		.loc 3 174 19 view .LVU796
 2948 0178 2B28     		cmp	r0, #43
 2949 017a 63D8     		bhi	.L181
 174:Display/../../libs/PoliTeKDSP/libs/libDaisy/src/hid/disp/display.h ****     }
 2950              		.loc 3 174 46 view .LVU797
 2951 017c 3B68     		ldr	r3, [r7]
 174:Display/../../libs/PoliTeKDSP/libs/libDaisy/src/hid/disp/display.h ****     }
 2952              		.loc 3 174 45 view .LVU798
 2953 017e 3846     		mov	r0, r7
 2954 0180 9B68     		ldr	r3, [r3, #8]
 2955 0182 9847     		blx	r3
 2956              	.LVL224:
 174:Display/../../libs/PoliTeKDSP/libs/libDaisy/src/hid/disp/display.h ****     }
 2957              		.loc 3 174 19 view .LVU799
 2958 0184 0138     		subs	r0, r0, #1
 2959 0186 83B2     		uxth	r3, r0
 2960              	.L167:
 2961              	.LBE313:
 2962              	.LBE312:
 2963              		.loc 4 136 37 view .LVU800
 2964 0188 2068     		ldr	r0, [r4]
 2965              		.loc 4 136 61 view .LVU801
 2966 018a 0122     		movs	r2, #1
 2967              	.LBB316:
 2968              	.LBB314:
 174:Display/../../libs/PoliTeKDSP/libs/libDaisy/src/hid/disp/display.h ****     }
 2969              		.loc 3 174 19 view .LVU802
 2970 018c FB80     		strh	r3, [r7, #6]	@ movhi
 2971              	.LVL225:
 174:Display/../../libs/PoliTeKDSP/libs/libDaisy/src/hid/disp/display.h ****     }
 2972              		.loc 3 174 19 view .LVU803
ARM GAS  C:\Users\skipi\AppData\Local\Temp\ccerdDJR.s 			page 78


 2973              	.LBE314:
 2974              	.LBE316:
 2975              		.loc 4 136 37 is_stmt 1 view .LVU804
 2976              		.loc 4 136 92 is_stmt 0 view .LVU805
 2977 018e 0368     		ldr	r3, [r0]
 2978              		.loc 4 136 61 view .LVU806
 2979 0190 3B49     		ldr	r1, .L186+24
 2980 0192 0092     		str	r2, [sp]
 2981 0194 9F6A     		ldr	r7, [r3, #40]
 2982 0196 96E80C00 		ldm	r6, {r2, r3}
 2983 019a B847     		blx	r7
 2984              	.LVL226:
 137:Display/displayHandler.cpp ****     _displayPtr->SetCursor(10, 53); _displayPtr->WriteString("Back", Font_7x10, true); 
 2985              		.loc 4 137 5 is_stmt 1 view .LVU807
 2986 019c 2768     		ldr	r7, [r4]
 2987              	.LVL227:
 2988              	.LBB317:
 2989              	.LBI317:
 171:Display/../../libs/PoliTeKDSP/libs/libDaisy/src/hid/disp/display.h ****     {
 2990              		.loc 3 171 10 view .LVU808
 2991              	.LBB318:
 173:Display/../../libs/PoliTeKDSP/libs/libDaisy/src/hid/disp/display.h ****         currentY_ = (y >= Height()) ? Height() - 1 : y;
 2992              		.loc 3 173 9 view .LVU809
 173:Display/../../libs/PoliTeKDSP/libs/libDaisy/src/hid/disp/display.h ****         currentY_ = (y >= Height()) ? Height() - 1 : y;
 2993              		.loc 3 173 33 is_stmt 0 view .LVU810
 2994 019e 3B68     		ldr	r3, [r7]
 173:Display/../../libs/PoliTeKDSP/libs/libDaisy/src/hid/disp/display.h ****         currentY_ = (y >= Height()) ? Height() - 1 : y;
 2995              		.loc 3 173 32 view .LVU811
 2996 01a0 3846     		mov	r0, r7
 2997 01a2 DB68     		ldr	r3, [r3, #12]
 2998 01a4 9847     		blx	r3
 2999              	.LVL228:
 173:Display/../../libs/PoliTeKDSP/libs/libDaisy/src/hid/disp/display.h ****         currentY_ = (y >= Height()) ? Height() - 1 : y;
 3000              		.loc 3 173 19 view .LVU812
 3001 01a6 0A28     		cmp	r0, #10
 3002 01a8 4AD8     		bhi	.L182
 173:Display/../../libs/PoliTeKDSP/libs/libDaisy/src/hid/disp/display.h ****         currentY_ = (y >= Height()) ? Height() - 1 : y;
 3003              		.loc 3 173 44 view .LVU813
 3004 01aa 3B68     		ldr	r3, [r7]
 173:Display/../../libs/PoliTeKDSP/libs/libDaisy/src/hid/disp/display.h ****         currentY_ = (y >= Height()) ? Height() - 1 : y;
 3005              		.loc 3 173 43 view .LVU814
 3006 01ac 3846     		mov	r0, r7
 3007 01ae DB68     		ldr	r3, [r3, #12]
 3008 01b0 9847     		blx	r3
 3009              	.LVL229:
 173:Display/../../libs/PoliTeKDSP/libs/libDaisy/src/hid/disp/display.h ****         currentY_ = (y >= Height()) ? Height() - 1 : y;
 3010              		.loc 3 173 19 view .LVU815
 3011 01b2 0138     		subs	r0, r0, #1
 3012 01b4 83B2     		uxth	r3, r0
 3013              	.L168:
 3014 01b6 BB80     		strh	r3, [r7, #4]	@ movhi
 174:Display/../../libs/PoliTeKDSP/libs/libDaisy/src/hid/disp/display.h ****     }
 3015              		.loc 3 174 9 is_stmt 1 view .LVU816
 174:Display/../../libs/PoliTeKDSP/libs/libDaisy/src/hid/disp/display.h ****     }
 3016              		.loc 3 174 33 is_stmt 0 view .LVU817
 3017 01b8 3846     		mov	r0, r7
 174:Display/../../libs/PoliTeKDSP/libs/libDaisy/src/hid/disp/display.h ****     }
ARM GAS  C:\Users\skipi\AppData\Local\Temp\ccerdDJR.s 			page 79


 3018              		.loc 3 174 34 view .LVU818
 3019 01ba 3B68     		ldr	r3, [r7]
 174:Display/../../libs/PoliTeKDSP/libs/libDaisy/src/hid/disp/display.h ****     }
 3020              		.loc 3 174 33 view .LVU819
 3021 01bc 9B68     		ldr	r3, [r3, #8]
 3022 01be 9847     		blx	r3
 3023              	.LVL230:
 174:Display/../../libs/PoliTeKDSP/libs/libDaisy/src/hid/disp/display.h ****     }
 3024              		.loc 3 174 19 view .LVU820
 3025 01c0 3528     		cmp	r0, #53
 3026 01c2 3BD8     		bhi	.L183
 174:Display/../../libs/PoliTeKDSP/libs/libDaisy/src/hid/disp/display.h ****     }
 3027              		.loc 3 174 46 view .LVU821
 3028 01c4 3B68     		ldr	r3, [r7]
 174:Display/../../libs/PoliTeKDSP/libs/libDaisy/src/hid/disp/display.h ****     }
 3029              		.loc 3 174 45 view .LVU822
 3030 01c6 3846     		mov	r0, r7
 3031 01c8 9B68     		ldr	r3, [r3, #8]
 3032 01ca 9847     		blx	r3
 3033              	.LVL231:
 174:Display/../../libs/PoliTeKDSP/libs/libDaisy/src/hid/disp/display.h ****     }
 3034              		.loc 3 174 19 view .LVU823
 3035 01cc 0138     		subs	r0, r0, #1
 3036 01ce 83B2     		uxth	r3, r0
 3037              	.L169:
 3038              	.LBE318:
 3039              	.LBE317:
 3040              		.loc 4 137 37 view .LVU824
 3041 01d0 2068     		ldr	r0, [r4]
 3042              		.loc 4 137 61 view .LVU825
 3043 01d2 0122     		movs	r2, #1
 3044              	.LBB321:
 3045              	.LBB319:
 174:Display/../../libs/PoliTeKDSP/libs/libDaisy/src/hid/disp/display.h ****     }
 3046              		.loc 3 174 19 view .LVU826
 3047 01d4 FB80     		strh	r3, [r7, #6]	@ movhi
 3048              	.LVL232:
 174:Display/../../libs/PoliTeKDSP/libs/libDaisy/src/hid/disp/display.h ****     }
 3049              		.loc 3 174 19 view .LVU827
 3050              	.LBE319:
 3051              	.LBE321:
 3052              		.loc 4 137 37 is_stmt 1 view .LVU828
 138:Display/displayHandler.cpp **** 
 139:Display/displayHandler.cpp ****     int cursorY = 13 + (cursorIndex * 10);
 3053              		.loc 4 139 37 is_stmt 0 view .LVU829
 3054 01d6 05EB8505 		add	r5, r5, r5, lsl #2
 3055              	.LVL233:
 137:Display/displayHandler.cpp **** 
 3056              		.loc 4 137 85 view .LVU830
 3057 01da 0368     		ldr	r3, [r0]
 137:Display/displayHandler.cpp **** 
 3058              		.loc 4 137 61 view .LVU831
 3059 01dc 2949     		ldr	r1, .L186+28
 3060              		.loc 4 139 37 view .LVU832
 3061 01de 6D00     		lsls	r5, r5, #1
 137:Display/displayHandler.cpp **** 
 3062              		.loc 4 137 61 view .LVU833
ARM GAS  C:\Users\skipi\AppData\Local\Temp\ccerdDJR.s 			page 80


 3063 01e0 0092     		str	r2, [sp]
 3064 01e2 9F6A     		ldr	r7, [r3, #40]
 3065              		.loc 4 139 9 view .LVU834
 3066 01e4 0D35     		adds	r5, r5, #13
 137:Display/displayHandler.cpp **** 
 3067              		.loc 4 137 61 view .LVU835
 3068 01e6 96E80C00 		ldm	r6, {r2, r3}
 3069 01ea B847     		blx	r7
 3070              	.LVL234:
 3071              		.loc 4 139 5 is_stmt 1 view .LVU836
 140:Display/displayHandler.cpp ****     _displayPtr->SetCursor(0, cursorY);
 3072              		.loc 4 140 5 view .LVU837
 3073 01ec 2768     		ldr	r7, [r4]
 3074              		.loc 4 140 27 is_stmt 0 view .LVU838
 3075 01ee ADB2     		uxth	r5, r5
 3076              	.LVL235:
 3077              	.LBB322:
 3078              	.LBI322:
 171:Display/../../libs/PoliTeKDSP/libs/libDaisy/src/hid/disp/display.h ****     {
 3079              		.loc 3 171 10 is_stmt 1 view .LVU839
 3080              	.LBB323:
 173:Display/../../libs/PoliTeKDSP/libs/libDaisy/src/hid/disp/display.h ****         currentY_ = (y >= Height()) ? Height() - 1 : y;
 3081              		.loc 3 173 9 view .LVU840
 173:Display/../../libs/PoliTeKDSP/libs/libDaisy/src/hid/disp/display.h ****         currentY_ = (y >= Height()) ? Height() - 1 : y;
 3082              		.loc 3 173 33 is_stmt 0 view .LVU841
 3083 01f0 3B68     		ldr	r3, [r7]
 173:Display/../../libs/PoliTeKDSP/libs/libDaisy/src/hid/disp/display.h ****         currentY_ = (y >= Height()) ? Height() - 1 : y;
 3084              		.loc 3 173 32 view .LVU842
 3085 01f2 3846     		mov	r0, r7
 3086 01f4 DB68     		ldr	r3, [r3, #12]
 3087 01f6 9847     		blx	r3
 3088              	.LVL236:
 173:Display/../../libs/PoliTeKDSP/libs/libDaisy/src/hid/disp/display.h ****         currentY_ = (y >= Height()) ? Height() - 1 : y;
 3089              		.loc 3 173 19 view .LVU843
 3090 01f8 F0B9     		cbnz	r0, .L184
 173:Display/../../libs/PoliTeKDSP/libs/libDaisy/src/hid/disp/display.h ****         currentY_ = (y >= Height()) ? Height() - 1 : y;
 3091              		.loc 3 173 44 view .LVU844
 3092 01fa 3B68     		ldr	r3, [r7]
 173:Display/../../libs/PoliTeKDSP/libs/libDaisy/src/hid/disp/display.h ****         currentY_ = (y >= Height()) ? Height() - 1 : y;
 3093              		.loc 3 173 43 view .LVU845
 3094 01fc 3846     		mov	r0, r7
 3095 01fe DB68     		ldr	r3, [r3, #12]
 3096 0200 9847     		blx	r3
 3097              	.LVL237:
 173:Display/../../libs/PoliTeKDSP/libs/libDaisy/src/hid/disp/display.h ****         currentY_ = (y >= Height()) ? Height() - 1 : y;
 3098              		.loc 3 173 19 view .LVU846
 3099 0202 0138     		subs	r0, r0, #1
 3100 0204 83B2     		uxth	r3, r0
 3101              	.L170:
 3102 0206 BB80     		strh	r3, [r7, #4]	@ movhi
 174:Display/../../libs/PoliTeKDSP/libs/libDaisy/src/hid/disp/display.h ****     }
 3103              		.loc 3 174 9 is_stmt 1 view .LVU847
 174:Display/../../libs/PoliTeKDSP/libs/libDaisy/src/hid/disp/display.h ****     }
 3104              		.loc 3 174 33 is_stmt 0 view .LVU848
 3105 0208 3846     		mov	r0, r7
 174:Display/../../libs/PoliTeKDSP/libs/libDaisy/src/hid/disp/display.h ****     }
 3106              		.loc 3 174 34 view .LVU849
ARM GAS  C:\Users\skipi\AppData\Local\Temp\ccerdDJR.s 			page 81


 3107 020a 3B68     		ldr	r3, [r7]
 174:Display/../../libs/PoliTeKDSP/libs/libDaisy/src/hid/disp/display.h ****     }
 3108              		.loc 3 174 33 view .LVU850
 3109 020c 9B68     		ldr	r3, [r3, #8]
 3110 020e 9847     		blx	r3
 3111              	.LVL238:
 174:Display/../../libs/PoliTeKDSP/libs/libDaisy/src/hid/disp/display.h ****     }
 3112              		.loc 3 174 19 view .LVU851
 3113 0210 8542     		cmp	r5, r0
 3114 0212 05D3     		bcc	.L171
 174:Display/../../libs/PoliTeKDSP/libs/libDaisy/src/hid/disp/display.h ****     }
 3115              		.loc 3 174 46 view .LVU852
 3116 0214 3B68     		ldr	r3, [r7]
 174:Display/../../libs/PoliTeKDSP/libs/libDaisy/src/hid/disp/display.h ****     }
 3117              		.loc 3 174 45 view .LVU853
 3118 0216 3846     		mov	r0, r7
 3119 0218 9B68     		ldr	r3, [r3, #8]
 3120 021a 9847     		blx	r3
 3121              	.LVL239:
 174:Display/../../libs/PoliTeKDSP/libs/libDaisy/src/hid/disp/display.h ****     }
 3122              		.loc 3 174 19 view .LVU854
 3123 021c 0138     		subs	r0, r0, #1
 3124 021e 85B2     		uxth	r5, r0
 3125              	.LVL240:
 3126              	.L171:
 174:Display/../../libs/PoliTeKDSP/libs/libDaisy/src/hid/disp/display.h ****     }
 3127              		.loc 3 174 19 view .LVU855
 3128              	.LBE323:
 3129              	.LBE322:
 141:Display/displayHandler.cpp ****     _displayPtr->WriteString(">", Font_7x10, true);
 3130              		.loc 4 141 5 view .LVU856
 3131 0220 2068     		ldr	r0, [r4]
 3132              		.loc 4 141 29 view .LVU857
 3133 0222 0123     		movs	r3, #1
 3134              	.LBB326:
 3135              	.LBB324:
 174:Display/../../libs/PoliTeKDSP/libs/libDaisy/src/hid/disp/display.h ****     }
 3136              		.loc 3 174 19 view .LVU858
 3137 0224 FD80     		strh	r5, [r7, #6]	@ movhi
 3138              	.LVL241:
 174:Display/../../libs/PoliTeKDSP/libs/libDaisy/src/hid/disp/display.h ****     }
 3139              		.loc 3 174 19 view .LVU859
 3140              	.LBE324:
 3141              	.LBE326:
 3142              		.loc 4 141 5 is_stmt 1 view .LVU860
 3143              		.loc 4 141 50 is_stmt 0 view .LVU861
 3144 0226 0168     		ldr	r1, [r0]
 3145              		.loc 4 141 29 view .LVU862
 3146 0228 0093     		str	r3, [sp]
 3147 022a 8C6A     		ldr	r4, [r1, #40]
 3148              	.LVL242:
 3149              		.loc 4 141 29 view .LVU863
 3150 022c 1649     		ldr	r1, .L186+32
 3151 022e 96E80C00 		ldm	r6, {r2, r3}
 3152 0232 A047     		blx	r4
 3153              	.LVL243:
 142:Display/displayHandler.cpp **** }
ARM GAS  C:\Users\skipi\AppData\Local\Temp\ccerdDJR.s 			page 82


 3154              		.loc 4 142 1 view .LVU864
 3155 0234 03B0     		add	sp, sp, #12
 3156              		.cfi_remember_state
 3157              		.cfi_def_cfa_offset 20
 3158              		@ sp needed
 3159 0236 F0BD     		pop	{r4, r5, r6, r7, pc}
 3160              	.LVL244:
 3161              	.L184:
 3162              		.cfi_restore_state
 3163              	.LBB327:
 3164              	.LBB325:
 173:Display/../../libs/PoliTeKDSP/libs/libDaisy/src/hid/disp/display.h ****         currentY_ = (y >= Height()) ? Height() - 1 : y;
 3165              		.loc 3 173 19 view .LVU865
 3166 0238 0023     		movs	r3, #0
 3167 023a E4E7     		b	.L170
 3168              	.LVL245:
 3169              	.L183:
 173:Display/../../libs/PoliTeKDSP/libs/libDaisy/src/hid/disp/display.h ****         currentY_ = (y >= Height()) ? Height() - 1 : y;
 3170              		.loc 3 173 19 view .LVU866
 3171              	.LBE325:
 3172              	.LBE327:
 3173              	.LBB328:
 3174              	.LBB320:
 174:Display/../../libs/PoliTeKDSP/libs/libDaisy/src/hid/disp/display.h ****     }
 3175              		.loc 3 174 19 view .LVU867
 3176 023c 3523     		movs	r3, #53
 3177 023e C7E7     		b	.L169
 3178              	.L182:
 173:Display/../../libs/PoliTeKDSP/libs/libDaisy/src/hid/disp/display.h ****         currentY_ = (y >= Height()) ? Height() - 1 : y;
 3179              		.loc 3 173 19 view .LVU868
 3180 0240 0A23     		movs	r3, #10
 3181 0242 B8E7     		b	.L168
 3182              	.LVL246:
 3183              	.L181:
 173:Display/../../libs/PoliTeKDSP/libs/libDaisy/src/hid/disp/display.h ****         currentY_ = (y >= Height()) ? Height() - 1 : y;
 3184              		.loc 3 173 19 view .LVU869
 3185              	.LBE320:
 3186              	.LBE328:
 3187              	.LBB329:
 3188              	.LBB315:
 174:Display/../../libs/PoliTeKDSP/libs/libDaisy/src/hid/disp/display.h ****     }
 3189              		.loc 3 174 19 view .LVU870
 3190 0244 2B23     		movs	r3, #43
 3191 0246 9FE7     		b	.L167
 3192              	.L180:
 173:Display/../../libs/PoliTeKDSP/libs/libDaisy/src/hid/disp/display.h ****         currentY_ = (y >= Height()) ? Height() - 1 : y;
 3193              		.loc 3 173 19 view .LVU871
 3194 0248 0A23     		movs	r3, #10
 3195 024a 90E7     		b	.L166
 3196              	.LVL247:
 3197              	.L179:
 173:Display/../../libs/PoliTeKDSP/libs/libDaisy/src/hid/disp/display.h ****         currentY_ = (y >= Height()) ? Height() - 1 : y;
 3198              		.loc 3 173 19 view .LVU872
 3199              	.LBE315:
 3200              	.LBE329:
 3201              	.LBB330:
 3202              	.LBB310:
ARM GAS  C:\Users\skipi\AppData\Local\Temp\ccerdDJR.s 			page 83


 174:Display/../../libs/PoliTeKDSP/libs/libDaisy/src/hid/disp/display.h ****     }
 3203              		.loc 3 174 19 view .LVU873
 3204 024c 2123     		movs	r3, #33
 3205 024e 77E7     		b	.L165
 3206              	.L178:
 173:Display/../../libs/PoliTeKDSP/libs/libDaisy/src/hid/disp/display.h ****         currentY_ = (y >= Height()) ? Height() - 1 : y;
 3207              		.loc 3 173 19 view .LVU874
 3208 0250 0A23     		movs	r3, #10
 3209 0252 67E7     		b	.L164
 3210              	.LVL248:
 3211              	.L177:
 173:Display/../../libs/PoliTeKDSP/libs/libDaisy/src/hid/disp/display.h ****         currentY_ = (y >= Height()) ? Height() - 1 : y;
 3212              		.loc 3 173 19 view .LVU875
 3213              	.LBE310:
 3214              	.LBE330:
 3215              	.LBB331:
 3216              	.LBB305:
 174:Display/../../libs/PoliTeKDSP/libs/libDaisy/src/hid/disp/display.h ****     }
 3217              		.loc 3 174 19 view .LVU876
 3218 0254 1723     		movs	r3, #23
 3219 0256 4DE7     		b	.L163
 3220              	.L176:
 173:Display/../../libs/PoliTeKDSP/libs/libDaisy/src/hid/disp/display.h ****         currentY_ = (y >= Height()) ? Height() - 1 : y;
 3221              		.loc 3 173 19 view .LVU877
 3222 0258 0A23     		movs	r3, #10
 3223 025a 3DE7     		b	.L162
 3224              	.LVL249:
 3225              	.L175:
 173:Display/../../libs/PoliTeKDSP/libs/libDaisy/src/hid/disp/display.h ****         currentY_ = (y >= Height()) ? Height() - 1 : y;
 3226              		.loc 3 173 19 view .LVU878
 3227              	.LBE305:
 3228              	.LBE331:
 3229              	.LBB332:
 3230              	.LBB300:
 174:Display/../../libs/PoliTeKDSP/libs/libDaisy/src/hid/disp/display.h ****     }
 3231              		.loc 3 174 19 view .LVU879
 3232 025c 0D23     		movs	r3, #13
 3233 025e 23E7     		b	.L161
 3234              	.L174:
 173:Display/../../libs/PoliTeKDSP/libs/libDaisy/src/hid/disp/display.h ****         currentY_ = (y >= Height()) ? Height() - 1 : y;
 3235              		.loc 3 173 19 view .LVU880
 3236 0260 0A23     		movs	r3, #10
 3237 0262 13E7     		b	.L160
 3238              	.LVL250:
 3239              	.L173:
 173:Display/../../libs/PoliTeKDSP/libs/libDaisy/src/hid/disp/display.h ****         currentY_ = (y >= Height()) ? Height() - 1 : y;
 3240              		.loc 3 173 19 view .LVU881
 3241              	.LBE300:
 3242              	.LBE332:
 3243              	.LBB333:
 3244              	.LBB295:
 174:Display/../../libs/PoliTeKDSP/libs/libDaisy/src/hid/disp/display.h ****     }
 3245              		.loc 3 174 19 view .LVU882
 3246 0264 0023     		movs	r3, #0
 3247 0266 F8E6     		b	.L159
 3248              	.L187:
 3249              		.align	2
ARM GAS  C:\Users\skipi\AppData\Local\Temp\ccerdDJR.s 			page 84


 3250              	.L186:
 3251 0268 00000000 		.word	_ZN5daisy11OledDisplayINS_13SSD130xDriverILj128ELj64ENS_19SSD130xI2CTransportEEEE4FillEb
 3252 026c 00000000 		.word	Font_7x10
 3253 0270 00000000 		.word	.LC7
 3254 0274 10000000 		.word	.LC8
 3255 0278 18000000 		.word	.LC9
 3256 027c 20000000 		.word	.LC10
 3257 0280 2C000000 		.word	.LC11
 3258 0284 38000000 		.word	.LC12
 3259 0288 34000000 		.word	.LC6
 3260              	.L172:
 173:Display/../../libs/PoliTeKDSP/libs/libDaisy/src/hid/disp/display.h ****         currentY_ = (y >= Height()) ? Height() - 1 : y;
 3261              		.loc 3 173 19 view .LVU883
 3262 028c 0023     		movs	r3, #0
 3263 028e D6E6     		b	.L158
 3264              	.LVL251:
 3265              	.L156:
 173:Display/../../libs/PoliTeKDSP/libs/libDaisy/src/hid/disp/display.h ****         currentY_ = (y >= Height()) ? Height() - 1 : y;
 3266              		.loc 3 173 19 view .LVU884
 3267              	.LBE295:
 3268              	.LBE333:
 128:Display/displayHandler.cpp ****     
 3269              		.loc 4 128 22 view .LVU885
 3270 0290 0021     		movs	r1, #0
 3271              	.LVL252:
 128:Display/displayHandler.cpp ****     
 3272              		.loc 4 128 22 view .LVU886
 3273 0292 9847     		blx	r3
 3274              	.LVL253:
 3275 0294 C5E6     		b	.L157
 3276              		.cfi_endproc
 3277              	.LFE2793:
 3279 0296 00BF     		.section	.rodata._ZN14DisplayHandler13DrawScalesHubEi.str1.4,"aMS",%progbits,1
 3280              		.align	2
 3281              	.LC13:
 3282 0000 2D205343 		.ascii	"- SCALES -\000"
 3282      414C4553 
 3282      202D00
 3283 000b 00       		.align	2
 3284              	.LC14:
 3285 000c 526F6F74 		.ascii	"Root Note\000"
 3285      204E6F74 
 3285      6500
 3286 0016 0000     		.align	2
 3287              	.LC15:
 3288 0018 5363616C 		.ascii	"Scale Type\000"
 3288      65205479 
 3288      706500
 3289 0023 00       		.align	2
 3290              	.LC16:
 3291 0024 4F637461 		.ascii	"Octave\000"
 3291      766500
 3292              		.section	.text._ZN14DisplayHandler13DrawScalesHubEi,"ax",%progbits
 3293              		.align	1
 3294              		.p2align 2,,3
 3295              		.global	_ZN14DisplayHandler13DrawScalesHubEi
 3296              		.syntax unified
ARM GAS  C:\Users\skipi\AppData\Local\Temp\ccerdDJR.s 			page 85


 3297              		.thumb
 3298              		.thumb_func
 3299              		.fpu fpv5-d16
 3301              	_ZN14DisplayHandler13DrawScalesHubEi:
 3302              	.LVL254:
 3303              	.LFB2794:
 143:Display/displayHandler.cpp **** 
 144:Display/displayHandler.cpp **** void DisplayHandler::DrawScalesHub(int cursorIndex) {
 3304              		.loc 4 144 53 is_stmt 1 view -0
 3305              		.cfi_startproc
 3306              		@ args = 0, pretend = 0, frame = 0
 3307              		@ frame_needed = 0, uses_anonymous_args = 0
 145:Display/displayHandler.cpp ****     _displayPtr->Fill(false);
 3308              		.loc 4 145 5 view .LVU888
 144:Display/displayHandler.cpp ****     _displayPtr->Fill(false);
 3309              		.loc 4 144 53 is_stmt 0 view .LVU889
 3310 0000 F0B5     		push	{r4, r5, r6, r7, lr}
 3311              		.cfi_def_cfa_offset 20
 3312              		.cfi_offset 4, -20
 3313              		.cfi_offset 5, -16
 3314              		.cfi_offset 6, -12
 3315              		.cfi_offset 7, -8
 3316              		.cfi_offset 14, -4
 3317 0002 0546     		mov	r5, r0
 3318              		.loc 4 145 5 view .LVU890
 3319 0004 0068     		ldr	r0, [r0]
 3320              	.LVL255:
 3321              		.loc 4 145 5 view .LVU891
 3322 0006 864A     		ldr	r2, .L215
 144:Display/displayHandler.cpp ****     _displayPtr->Fill(false);
 3323              		.loc 4 144 53 view .LVU892
 3324 0008 83B0     		sub	sp, sp, #12
 3325              		.cfi_def_cfa_offset 32
 3326              		.loc 4 145 28 view .LVU893
 3327 000a 0368     		ldr	r3, [r0]
 144:Display/displayHandler.cpp ****     _displayPtr->Fill(false);
 3328              		.loc 4 144 53 view .LVU894
 3329 000c 0C46     		mov	r4, r1
 3330              		.loc 4 145 28 view .LVU895
 3331 000e 1B69     		ldr	r3, [r3, #16]
 3332 0010 9342     		cmp	r3, r2
 3333 0012 40F00181 		bne	.L189
 3334              	.LBB350:
 3335              	.LBB351:
 3336              	.LBB352:
 375:Display/../../libs/PoliTeKDSP/libs/libDaisy/src/dev/oled_ssd130x.h ****         }
 3337              		.loc 2 375 24 view .LVU896
 3338 0016 4FF48062 		mov	r2, #1024
 3339 001a 0021     		movs	r1, #0
 3340              	.LVL256:
 375:Display/../../libs/PoliTeKDSP/libs/libDaisy/src/dev/oled_ssd130x.h ****         }
 3341              		.loc 2 375 24 view .LVU897
 3342 001c 1030     		adds	r0, r0, #16
 3343 001e FFF7FEFF 		bl	memset
 3344              	.LVL257:
 3345              	.L190:
 3346              	.LBE352:
ARM GAS  C:\Users\skipi\AppData\Local\Temp\ccerdDJR.s 			page 86


 3347              	.LBE351:
 3348              	.LBE350:
 146:Display/displayHandler.cpp ****     
 147:Display/displayHandler.cpp ****     _displayPtr->SetCursor(0, 0);
 3349              		.loc 4 147 5 is_stmt 1 view .LVU898
 3350 0022 2E68     		ldr	r6, [r5]
 3351              	.LVL258:
 3352              	.LBB353:
 3353              	.LBI353:
 171:Display/../../libs/PoliTeKDSP/libs/libDaisy/src/hid/disp/display.h ****     {
 3354              		.loc 3 171 10 view .LVU899
 3355              	.LBB354:
 173:Display/../../libs/PoliTeKDSP/libs/libDaisy/src/hid/disp/display.h ****         currentY_ = (y >= Height()) ? Height() - 1 : y;
 3356              		.loc 3 173 9 view .LVU900
 173:Display/../../libs/PoliTeKDSP/libs/libDaisy/src/hid/disp/display.h ****         currentY_ = (y >= Height()) ? Height() - 1 : y;
 3357              		.loc 3 173 33 is_stmt 0 view .LVU901
 3358 0024 3368     		ldr	r3, [r6]
 173:Display/../../libs/PoliTeKDSP/libs/libDaisy/src/hid/disp/display.h ****         currentY_ = (y >= Height()) ? Height() - 1 : y;
 3359              		.loc 3 173 32 view .LVU902
 3360 0026 3046     		mov	r0, r6
 3361 0028 DB68     		ldr	r3, [r3, #12]
 3362 002a 9847     		blx	r3
 3363              	.LVL259:
 173:Display/../../libs/PoliTeKDSP/libs/libDaisy/src/hid/disp/display.h ****         currentY_ = (y >= Height()) ? Height() - 1 : y;
 3364              		.loc 3 173 19 view .LVU903
 3365 002c 0028     		cmp	r0, #0
 3366 002e 40F0F180 		bne	.L203
 173:Display/../../libs/PoliTeKDSP/libs/libDaisy/src/hid/disp/display.h ****         currentY_ = (y >= Height()) ? Height() - 1 : y;
 3367              		.loc 3 173 44 view .LVU904
 3368 0032 3368     		ldr	r3, [r6]
 173:Display/../../libs/PoliTeKDSP/libs/libDaisy/src/hid/disp/display.h ****         currentY_ = (y >= Height()) ? Height() - 1 : y;
 3369              		.loc 3 173 43 view .LVU905
 3370 0034 3046     		mov	r0, r6
 3371 0036 DB68     		ldr	r3, [r3, #12]
 3372 0038 9847     		blx	r3
 3373              	.LVL260:
 173:Display/../../libs/PoliTeKDSP/libs/libDaisy/src/hid/disp/display.h ****         currentY_ = (y >= Height()) ? Height() - 1 : y;
 3374              		.loc 3 173 19 view .LVU906
 3375 003a 0138     		subs	r0, r0, #1
 3376 003c 83B2     		uxth	r3, r0
 3377              	.L191:
 174:Display/../../libs/PoliTeKDSP/libs/libDaisy/src/hid/disp/display.h ****     }
 3378              		.loc 3 174 34 view .LVU907
 3379 003e 3268     		ldr	r2, [r6]
 174:Display/../../libs/PoliTeKDSP/libs/libDaisy/src/hid/disp/display.h ****     }
 3380              		.loc 3 174 33 view .LVU908
 3381 0040 3046     		mov	r0, r6
 173:Display/../../libs/PoliTeKDSP/libs/libDaisy/src/hid/disp/display.h ****         currentY_ = (y >= Height()) ? Height() - 1 : y;
 3382              		.loc 3 173 19 view .LVU909
 3383 0042 B380     		strh	r3, [r6, #4]	@ movhi
 174:Display/../../libs/PoliTeKDSP/libs/libDaisy/src/hid/disp/display.h ****     }
 3384              		.loc 3 174 9 is_stmt 1 view .LVU910
 174:Display/../../libs/PoliTeKDSP/libs/libDaisy/src/hid/disp/display.h ****     }
 3385              		.loc 3 174 33 is_stmt 0 view .LVU911
 3386 0044 9368     		ldr	r3, [r2, #8]
 3387 0046 9847     		blx	r3
 3388              	.LVL261:
ARM GAS  C:\Users\skipi\AppData\Local\Temp\ccerdDJR.s 			page 87


 174:Display/../../libs/PoliTeKDSP/libs/libDaisy/src/hid/disp/display.h ****     }
 3389              		.loc 3 174 19 view .LVU912
 3390 0048 0028     		cmp	r0, #0
 3391 004a 40F0E180 		bne	.L204
 174:Display/../../libs/PoliTeKDSP/libs/libDaisy/src/hid/disp/display.h ****     }
 3392              		.loc 3 174 46 view .LVU913
 3393 004e 3368     		ldr	r3, [r6]
 174:Display/../../libs/PoliTeKDSP/libs/libDaisy/src/hid/disp/display.h ****     }
 3394              		.loc 3 174 45 view .LVU914
 3395 0050 3046     		mov	r0, r6
 3396 0052 9B68     		ldr	r3, [r3, #8]
 3397 0054 9847     		blx	r3
 3398              	.LVL262:
 174:Display/../../libs/PoliTeKDSP/libs/libDaisy/src/hid/disp/display.h ****     }
 3399              		.loc 3 174 19 view .LVU915
 3400 0056 0138     		subs	r0, r0, #1
 3401 0058 83B2     		uxth	r3, r0
 3402              	.L192:
 3403              	.LBE354:
 3404              	.LBE353:
 148:Display/displayHandler.cpp ****     _displayPtr->WriteString("- SCALES -", Font_7x10, true);
 3405              		.loc 4 148 5 view .LVU916
 3406 005a 2868     		ldr	r0, [r5]
 3407              		.loc 4 148 29 view .LVU917
 3408 005c 0122     		movs	r2, #1
 3409              	.LBB357:
 3410              	.LBB355:
 174:Display/../../libs/PoliTeKDSP/libs/libDaisy/src/hid/disp/display.h ****     }
 3411              		.loc 3 174 19 view .LVU918
 3412 005e F380     		strh	r3, [r6, #6]	@ movhi
 3413              	.LVL263:
 174:Display/../../libs/PoliTeKDSP/libs/libDaisy/src/hid/disp/display.h ****     }
 3414              		.loc 3 174 19 view .LVU919
 3415              	.LBE355:
 3416              	.LBE357:
 3417              		.loc 4 148 5 is_stmt 1 view .LVU920
 3418              		.loc 4 148 59 is_stmt 0 view .LVU921
 3419 0060 0368     		ldr	r3, [r0]
 3420              		.loc 4 148 29 view .LVU922
 3421 0062 704E     		ldr	r6, .L215+4
 3422 0064 0092     		str	r2, [sp]
 3423 0066 7049     		ldr	r1, .L215+8
 3424 0068 9F6A     		ldr	r7, [r3, #40]
 3425 006a 96E80C00 		ldm	r6, {r2, r3}
 3426 006e B847     		blx	r7
 3427              	.LVL264:
 149:Display/displayHandler.cpp **** 
 150:Display/displayHandler.cpp ****     _displayPtr->SetCursor(10, 13); _displayPtr->WriteString("Root Note", Font_7x10, true);
 3428              		.loc 4 150 5 is_stmt 1 view .LVU923
 3429 0070 2F68     		ldr	r7, [r5]
 3430              	.LVL265:
 3431              	.LBB358:
 3432              	.LBI358:
 171:Display/../../libs/PoliTeKDSP/libs/libDaisy/src/hid/disp/display.h ****     {
 3433              		.loc 3 171 10 view .LVU924
 3434              	.LBB359:
 173:Display/../../libs/PoliTeKDSP/libs/libDaisy/src/hid/disp/display.h ****         currentY_ = (y >= Height()) ? Height() - 1 : y;
ARM GAS  C:\Users\skipi\AppData\Local\Temp\ccerdDJR.s 			page 88


 3435              		.loc 3 173 9 view .LVU925
 173:Display/../../libs/PoliTeKDSP/libs/libDaisy/src/hid/disp/display.h ****         currentY_ = (y >= Height()) ? Height() - 1 : y;
 3436              		.loc 3 173 33 is_stmt 0 view .LVU926
 3437 0072 3B68     		ldr	r3, [r7]
 173:Display/../../libs/PoliTeKDSP/libs/libDaisy/src/hid/disp/display.h ****         currentY_ = (y >= Height()) ? Height() - 1 : y;
 3438              		.loc 3 173 32 view .LVU927
 3439 0074 3846     		mov	r0, r7
 3440 0076 DB68     		ldr	r3, [r3, #12]
 3441 0078 9847     		blx	r3
 3442              	.LVL266:
 173:Display/../../libs/PoliTeKDSP/libs/libDaisy/src/hid/disp/display.h ****         currentY_ = (y >= Height()) ? Height() - 1 : y;
 3443              		.loc 3 173 19 view .LVU928
 3444 007a 0A28     		cmp	r0, #10
 3445 007c 00F2C680 		bhi	.L205
 173:Display/../../libs/PoliTeKDSP/libs/libDaisy/src/hid/disp/display.h ****         currentY_ = (y >= Height()) ? Height() - 1 : y;
 3446              		.loc 3 173 44 view .LVU929
 3447 0080 3B68     		ldr	r3, [r7]
 173:Display/../../libs/PoliTeKDSP/libs/libDaisy/src/hid/disp/display.h ****         currentY_ = (y >= Height()) ? Height() - 1 : y;
 3448              		.loc 3 173 43 view .LVU930
 3449 0082 3846     		mov	r0, r7
 3450 0084 DB68     		ldr	r3, [r3, #12]
 3451 0086 9847     		blx	r3
 3452              	.LVL267:
 173:Display/../../libs/PoliTeKDSP/libs/libDaisy/src/hid/disp/display.h ****         currentY_ = (y >= Height()) ? Height() - 1 : y;
 3453              		.loc 3 173 19 view .LVU931
 3454 0088 0138     		subs	r0, r0, #1
 3455 008a 83B2     		uxth	r3, r0
 3456              	.L193:
 3457 008c BB80     		strh	r3, [r7, #4]	@ movhi
 174:Display/../../libs/PoliTeKDSP/libs/libDaisy/src/hid/disp/display.h ****     }
 3458              		.loc 3 174 9 is_stmt 1 view .LVU932
 174:Display/../../libs/PoliTeKDSP/libs/libDaisy/src/hid/disp/display.h ****     }
 3459              		.loc 3 174 33 is_stmt 0 view .LVU933
 3460 008e 3846     		mov	r0, r7
 174:Display/../../libs/PoliTeKDSP/libs/libDaisy/src/hid/disp/display.h ****     }
 3461              		.loc 3 174 34 view .LVU934
 3462 0090 3B68     		ldr	r3, [r7]
 174:Display/../../libs/PoliTeKDSP/libs/libDaisy/src/hid/disp/display.h ****     }
 3463              		.loc 3 174 33 view .LVU935
 3464 0092 9B68     		ldr	r3, [r3, #8]
 3465 0094 9847     		blx	r3
 3466              	.LVL268:
 174:Display/../../libs/PoliTeKDSP/libs/libDaisy/src/hid/disp/display.h ****     }
 3467              		.loc 3 174 19 view .LVU936
 3468 0096 0D28     		cmp	r0, #13
 3469 0098 00F2B680 		bhi	.L206
 174:Display/../../libs/PoliTeKDSP/libs/libDaisy/src/hid/disp/display.h ****     }
 3470              		.loc 3 174 46 view .LVU937
 3471 009c 3B68     		ldr	r3, [r7]
 174:Display/../../libs/PoliTeKDSP/libs/libDaisy/src/hid/disp/display.h ****     }
 3472              		.loc 3 174 45 view .LVU938
 3473 009e 3846     		mov	r0, r7
 3474 00a0 9B68     		ldr	r3, [r3, #8]
 3475 00a2 9847     		blx	r3
 3476              	.LVL269:
 174:Display/../../libs/PoliTeKDSP/libs/libDaisy/src/hid/disp/display.h ****     }
 3477              		.loc 3 174 19 view .LVU939
ARM GAS  C:\Users\skipi\AppData\Local\Temp\ccerdDJR.s 			page 89


 3478 00a4 0138     		subs	r0, r0, #1
 3479 00a6 83B2     		uxth	r3, r0
 3480              	.L194:
 3481              	.LBE359:
 3482              	.LBE358:
 3483              		.loc 4 150 37 view .LVU940
 3484 00a8 2868     		ldr	r0, [r5]
 3485              		.loc 4 150 61 view .LVU941
 3486 00aa 0122     		movs	r2, #1
 3487              	.LBB362:
 3488              	.LBB360:
 174:Display/../../libs/PoliTeKDSP/libs/libDaisy/src/hid/disp/display.h ****     }
 3489              		.loc 3 174 19 view .LVU942
 3490 00ac FB80     		strh	r3, [r7, #6]	@ movhi
 3491              	.LVL270:
 174:Display/../../libs/PoliTeKDSP/libs/libDaisy/src/hid/disp/display.h ****     }
 3492              		.loc 3 174 19 view .LVU943
 3493              	.LBE360:
 3494              	.LBE362:
 3495              		.loc 4 150 37 is_stmt 1 view .LVU944
 3496              		.loc 4 150 90 is_stmt 0 view .LVU945
 3497 00ae 0368     		ldr	r3, [r0]
 3498              		.loc 4 150 61 view .LVU946
 3499 00b0 5E49     		ldr	r1, .L215+12
 3500 00b2 0092     		str	r2, [sp]
 3501 00b4 9F6A     		ldr	r7, [r3, #40]
 3502 00b6 96E80C00 		ldm	r6, {r2, r3}
 3503 00ba B847     		blx	r7
 3504              	.LVL271:
 151:Display/displayHandler.cpp ****     _displayPtr->SetCursor(10, 23); _displayPtr->WriteString("Scale Type", Font_7x10, true);
 3505              		.loc 4 151 5 is_stmt 1 view .LVU947
 3506 00bc 2F68     		ldr	r7, [r5]
 3507              	.LVL272:
 3508              	.LBB363:
 3509              	.LBI363:
 171:Display/../../libs/PoliTeKDSP/libs/libDaisy/src/hid/disp/display.h ****     {
 3510              		.loc 3 171 10 view .LVU948
 3511              	.LBB364:
 173:Display/../../libs/PoliTeKDSP/libs/libDaisy/src/hid/disp/display.h ****         currentY_ = (y >= Height()) ? Height() - 1 : y;
 3512              		.loc 3 173 9 view .LVU949
 173:Display/../../libs/PoliTeKDSP/libs/libDaisy/src/hid/disp/display.h ****         currentY_ = (y >= Height()) ? Height() - 1 : y;
 3513              		.loc 3 173 33 is_stmt 0 view .LVU950
 3514 00be 3B68     		ldr	r3, [r7]
 173:Display/../../libs/PoliTeKDSP/libs/libDaisy/src/hid/disp/display.h ****         currentY_ = (y >= Height()) ? Height() - 1 : y;
 3515              		.loc 3 173 32 view .LVU951
 3516 00c0 3846     		mov	r0, r7
 3517 00c2 DB68     		ldr	r3, [r3, #12]
 3518 00c4 9847     		blx	r3
 3519              	.LVL273:
 173:Display/../../libs/PoliTeKDSP/libs/libDaisy/src/hid/disp/display.h ****         currentY_ = (y >= Height()) ? Height() - 1 : y;
 3520              		.loc 3 173 19 view .LVU952
 3521 00c6 0A28     		cmp	r0, #10
 3522 00c8 00F29C80 		bhi	.L207
 173:Display/../../libs/PoliTeKDSP/libs/libDaisy/src/hid/disp/display.h ****         currentY_ = (y >= Height()) ? Height() - 1 : y;
 3523              		.loc 3 173 44 view .LVU953
 3524 00cc 3B68     		ldr	r3, [r7]
 173:Display/../../libs/PoliTeKDSP/libs/libDaisy/src/hid/disp/display.h ****         currentY_ = (y >= Height()) ? Height() - 1 : y;
ARM GAS  C:\Users\skipi\AppData\Local\Temp\ccerdDJR.s 			page 90


 3525              		.loc 3 173 43 view .LVU954
 3526 00ce 3846     		mov	r0, r7
 3527 00d0 DB68     		ldr	r3, [r3, #12]
 3528 00d2 9847     		blx	r3
 3529              	.LVL274:
 173:Display/../../libs/PoliTeKDSP/libs/libDaisy/src/hid/disp/display.h ****         currentY_ = (y >= Height()) ? Height() - 1 : y;
 3530              		.loc 3 173 19 view .LVU955
 3531 00d4 0138     		subs	r0, r0, #1
 3532 00d6 83B2     		uxth	r3, r0
 3533              	.L195:
 3534 00d8 BB80     		strh	r3, [r7, #4]	@ movhi
 174:Display/../../libs/PoliTeKDSP/libs/libDaisy/src/hid/disp/display.h ****     }
 3535              		.loc 3 174 9 is_stmt 1 view .LVU956
 174:Display/../../libs/PoliTeKDSP/libs/libDaisy/src/hid/disp/display.h ****     }
 3536              		.loc 3 174 33 is_stmt 0 view .LVU957
 3537 00da 3846     		mov	r0, r7
 174:Display/../../libs/PoliTeKDSP/libs/libDaisy/src/hid/disp/display.h ****     }
 3538              		.loc 3 174 34 view .LVU958
 3539 00dc 3B68     		ldr	r3, [r7]
 174:Display/../../libs/PoliTeKDSP/libs/libDaisy/src/hid/disp/display.h ****     }
 3540              		.loc 3 174 33 view .LVU959
 3541 00de 9B68     		ldr	r3, [r3, #8]
 3542 00e0 9847     		blx	r3
 3543              	.LVL275:
 174:Display/../../libs/PoliTeKDSP/libs/libDaisy/src/hid/disp/display.h ****     }
 3544              		.loc 3 174 19 view .LVU960
 3545 00e2 1728     		cmp	r0, #23
 3546 00e4 00F28C80 		bhi	.L208
 174:Display/../../libs/PoliTeKDSP/libs/libDaisy/src/hid/disp/display.h ****     }
 3547              		.loc 3 174 46 view .LVU961
 3548 00e8 3B68     		ldr	r3, [r7]
 174:Display/../../libs/PoliTeKDSP/libs/libDaisy/src/hid/disp/display.h ****     }
 3549              		.loc 3 174 45 view .LVU962
 3550 00ea 3846     		mov	r0, r7
 3551 00ec 9B68     		ldr	r3, [r3, #8]
 3552 00ee 9847     		blx	r3
 3553              	.LVL276:
 174:Display/../../libs/PoliTeKDSP/libs/libDaisy/src/hid/disp/display.h ****     }
 3554              		.loc 3 174 19 view .LVU963
 3555 00f0 0138     		subs	r0, r0, #1
 3556 00f2 83B2     		uxth	r3, r0
 3557              	.L196:
 3558              	.LBE364:
 3559              	.LBE363:
 3560              		.loc 4 151 37 view .LVU964
 3561 00f4 2868     		ldr	r0, [r5]
 3562              		.loc 4 151 61 view .LVU965
 3563 00f6 0122     		movs	r2, #1
 3564              	.LBB367:
 3565              	.LBB365:
 174:Display/../../libs/PoliTeKDSP/libs/libDaisy/src/hid/disp/display.h ****     }
 3566              		.loc 3 174 19 view .LVU966
 3567 00f8 FB80     		strh	r3, [r7, #6]	@ movhi
 3568              	.LVL277:
 174:Display/../../libs/PoliTeKDSP/libs/libDaisy/src/hid/disp/display.h ****     }
 3569              		.loc 3 174 19 view .LVU967
 3570              	.LBE365:
ARM GAS  C:\Users\skipi\AppData\Local\Temp\ccerdDJR.s 			page 91


 3571              	.LBE367:
 3572              		.loc 4 151 37 is_stmt 1 view .LVU968
 3573              		.loc 4 151 91 is_stmt 0 view .LVU969
 3574 00fa 0368     		ldr	r3, [r0]
 3575              		.loc 4 151 61 view .LVU970
 3576 00fc 4C49     		ldr	r1, .L215+16
 3577 00fe 0092     		str	r2, [sp]
 3578 0100 9F6A     		ldr	r7, [r3, #40]
 3579 0102 96E80C00 		ldm	r6, {r2, r3}
 3580 0106 B847     		blx	r7
 3581              	.LVL278:
 152:Display/displayHandler.cpp ****     _displayPtr->SetCursor(10, 33); _displayPtr->WriteString("Octave", Font_7x10, true);
 3582              		.loc 4 152 5 is_stmt 1 view .LVU971
 3583 0108 2F68     		ldr	r7, [r5]
 3584              	.LVL279:
 3585              	.LBB368:
 3586              	.LBI368:
 171:Display/../../libs/PoliTeKDSP/libs/libDaisy/src/hid/disp/display.h ****     {
 3587              		.loc 3 171 10 view .LVU972
 3588              	.LBB369:
 173:Display/../../libs/PoliTeKDSP/libs/libDaisy/src/hid/disp/display.h ****         currentY_ = (y >= Height()) ? Height() - 1 : y;
 3589              		.loc 3 173 9 view .LVU973
 173:Display/../../libs/PoliTeKDSP/libs/libDaisy/src/hid/disp/display.h ****         currentY_ = (y >= Height()) ? Height() - 1 : y;
 3590              		.loc 3 173 33 is_stmt 0 view .LVU974
 3591 010a 3B68     		ldr	r3, [r7]
 173:Display/../../libs/PoliTeKDSP/libs/libDaisy/src/hid/disp/display.h ****         currentY_ = (y >= Height()) ? Height() - 1 : y;
 3592              		.loc 3 173 32 view .LVU975
 3593 010c 3846     		mov	r0, r7
 3594 010e DB68     		ldr	r3, [r3, #12]
 3595 0110 9847     		blx	r3
 3596              	.LVL280:
 173:Display/../../libs/PoliTeKDSP/libs/libDaisy/src/hid/disp/display.h ****         currentY_ = (y >= Height()) ? Height() - 1 : y;
 3597              		.loc 3 173 19 view .LVU976
 3598 0112 0A28     		cmp	r0, #10
 3599 0114 72D8     		bhi	.L209
 173:Display/../../libs/PoliTeKDSP/libs/libDaisy/src/hid/disp/display.h ****         currentY_ = (y >= Height()) ? Height() - 1 : y;
 3600              		.loc 3 173 44 view .LVU977
 3601 0116 3B68     		ldr	r3, [r7]
 173:Display/../../libs/PoliTeKDSP/libs/libDaisy/src/hid/disp/display.h ****         currentY_ = (y >= Height()) ? Height() - 1 : y;
 3602              		.loc 3 173 43 view .LVU978
 3603 0118 3846     		mov	r0, r7
 3604 011a DB68     		ldr	r3, [r3, #12]
 3605 011c 9847     		blx	r3
 3606              	.LVL281:
 173:Display/../../libs/PoliTeKDSP/libs/libDaisy/src/hid/disp/display.h ****         currentY_ = (y >= Height()) ? Height() - 1 : y;
 3607              		.loc 3 173 19 view .LVU979
 3608 011e 0138     		subs	r0, r0, #1
 3609 0120 83B2     		uxth	r3, r0
 3610              	.L197:
 3611 0122 BB80     		strh	r3, [r7, #4]	@ movhi
 174:Display/../../libs/PoliTeKDSP/libs/libDaisy/src/hid/disp/display.h ****     }
 3612              		.loc 3 174 9 is_stmt 1 view .LVU980
 174:Display/../../libs/PoliTeKDSP/libs/libDaisy/src/hid/disp/display.h ****     }
 3613              		.loc 3 174 33 is_stmt 0 view .LVU981
 3614 0124 3846     		mov	r0, r7
 174:Display/../../libs/PoliTeKDSP/libs/libDaisy/src/hid/disp/display.h ****     }
 3615              		.loc 3 174 34 view .LVU982
ARM GAS  C:\Users\skipi\AppData\Local\Temp\ccerdDJR.s 			page 92


 3616 0126 3B68     		ldr	r3, [r7]
 174:Display/../../libs/PoliTeKDSP/libs/libDaisy/src/hid/disp/display.h ****     }
 3617              		.loc 3 174 33 view .LVU983
 3618 0128 9B68     		ldr	r3, [r3, #8]
 3619 012a 9847     		blx	r3
 3620              	.LVL282:
 174:Display/../../libs/PoliTeKDSP/libs/libDaisy/src/hid/disp/display.h ****     }
 3621              		.loc 3 174 19 view .LVU984
 3622 012c 2128     		cmp	r0, #33
 3623 012e 63D8     		bhi	.L210
 174:Display/../../libs/PoliTeKDSP/libs/libDaisy/src/hid/disp/display.h ****     }
 3624              		.loc 3 174 46 view .LVU985
 3625 0130 3B68     		ldr	r3, [r7]
 174:Display/../../libs/PoliTeKDSP/libs/libDaisy/src/hid/disp/display.h ****     }
 3626              		.loc 3 174 45 view .LVU986
 3627 0132 3846     		mov	r0, r7
 3628 0134 9B68     		ldr	r3, [r3, #8]
 3629 0136 9847     		blx	r3
 3630              	.LVL283:
 174:Display/../../libs/PoliTeKDSP/libs/libDaisy/src/hid/disp/display.h ****     }
 3631              		.loc 3 174 19 view .LVU987
 3632 0138 0138     		subs	r0, r0, #1
 3633 013a 83B2     		uxth	r3, r0
 3634              	.L198:
 3635              	.LBE369:
 3636              	.LBE368:
 3637              		.loc 4 152 37 view .LVU988
 3638 013c 2868     		ldr	r0, [r5]
 3639              		.loc 4 152 61 view .LVU989
 3640 013e 0122     		movs	r2, #1
 3641              	.LBB372:
 3642              	.LBB370:
 174:Display/../../libs/PoliTeKDSP/libs/libDaisy/src/hid/disp/display.h ****     }
 3643              		.loc 3 174 19 view .LVU990
 3644 0140 FB80     		strh	r3, [r7, #6]	@ movhi
 3645              	.LVL284:
 174:Display/../../libs/PoliTeKDSP/libs/libDaisy/src/hid/disp/display.h ****     }
 3646              		.loc 3 174 19 view .LVU991
 3647              	.LBE370:
 3648              	.LBE372:
 3649              		.loc 4 152 37 is_stmt 1 view .LVU992
 3650              		.loc 4 152 87 is_stmt 0 view .LVU993
 3651 0142 0368     		ldr	r3, [r0]
 3652              		.loc 4 152 61 view .LVU994
 3653 0144 3B49     		ldr	r1, .L215+20
 3654 0146 0092     		str	r2, [sp]
 3655 0148 9F6A     		ldr	r7, [r3, #40]
 3656 014a 96E80C00 		ldm	r6, {r2, r3}
 3657 014e B847     		blx	r7
 3658              	.LVL285:
 153:Display/displayHandler.cpp ****     _displayPtr->SetCursor(10, 43); _displayPtr->WriteString("Back", Font_7x10, true);
 3659              		.loc 4 153 5 is_stmt 1 view .LVU995
 3660 0150 2F68     		ldr	r7, [r5]
 3661              	.LVL286:
 3662              	.LBB373:
 3663              	.LBI373:
 171:Display/../../libs/PoliTeKDSP/libs/libDaisy/src/hid/disp/display.h ****     {
ARM GAS  C:\Users\skipi\AppData\Local\Temp\ccerdDJR.s 			page 93


 3664              		.loc 3 171 10 view .LVU996
 3665              	.LBB374:
 173:Display/../../libs/PoliTeKDSP/libs/libDaisy/src/hid/disp/display.h ****         currentY_ = (y >= Height()) ? Height() - 1 : y;
 3666              		.loc 3 173 9 view .LVU997
 173:Display/../../libs/PoliTeKDSP/libs/libDaisy/src/hid/disp/display.h ****         currentY_ = (y >= Height()) ? Height() - 1 : y;
 3667              		.loc 3 173 33 is_stmt 0 view .LVU998
 3668 0152 3B68     		ldr	r3, [r7]
 173:Display/../../libs/PoliTeKDSP/libs/libDaisy/src/hid/disp/display.h ****         currentY_ = (y >= Height()) ? Height() - 1 : y;
 3669              		.loc 3 173 32 view .LVU999
 3670 0154 3846     		mov	r0, r7
 3671 0156 DB68     		ldr	r3, [r3, #12]
 3672 0158 9847     		blx	r3
 3673              	.LVL287:
 173:Display/../../libs/PoliTeKDSP/libs/libDaisy/src/hid/disp/display.h ****         currentY_ = (y >= Height()) ? Height() - 1 : y;
 3674              		.loc 3 173 19 view .LVU1000
 3675 015a 0A28     		cmp	r0, #10
 3676 015c 4AD8     		bhi	.L211
 173:Display/../../libs/PoliTeKDSP/libs/libDaisy/src/hid/disp/display.h ****         currentY_ = (y >= Height()) ? Height() - 1 : y;
 3677              		.loc 3 173 44 view .LVU1001
 3678 015e 3B68     		ldr	r3, [r7]
 173:Display/../../libs/PoliTeKDSP/libs/libDaisy/src/hid/disp/display.h ****         currentY_ = (y >= Height()) ? Height() - 1 : y;
 3679              		.loc 3 173 43 view .LVU1002
 3680 0160 3846     		mov	r0, r7
 3681 0162 DB68     		ldr	r3, [r3, #12]
 3682 0164 9847     		blx	r3
 3683              	.LVL288:
 173:Display/../../libs/PoliTeKDSP/libs/libDaisy/src/hid/disp/display.h ****         currentY_ = (y >= Height()) ? Height() - 1 : y;
 3684              		.loc 3 173 19 view .LVU1003
 3685 0166 0138     		subs	r0, r0, #1
 3686 0168 83B2     		uxth	r3, r0
 3687              	.L199:
 3688 016a BB80     		strh	r3, [r7, #4]	@ movhi
 174:Display/../../libs/PoliTeKDSP/libs/libDaisy/src/hid/disp/display.h ****     }
 3689              		.loc 3 174 9 is_stmt 1 view .LVU1004
 174:Display/../../libs/PoliTeKDSP/libs/libDaisy/src/hid/disp/display.h ****     }
 3690              		.loc 3 174 33 is_stmt 0 view .LVU1005
 3691 016c 3846     		mov	r0, r7
 174:Display/../../libs/PoliTeKDSP/libs/libDaisy/src/hid/disp/display.h ****     }
 3692              		.loc 3 174 34 view .LVU1006
 3693 016e 3B68     		ldr	r3, [r7]
 174:Display/../../libs/PoliTeKDSP/libs/libDaisy/src/hid/disp/display.h ****     }
 3694              		.loc 3 174 33 view .LVU1007
 3695 0170 9B68     		ldr	r3, [r3, #8]
 3696 0172 9847     		blx	r3
 3697              	.LVL289:
 174:Display/../../libs/PoliTeKDSP/libs/libDaisy/src/hid/disp/display.h ****     }
 3698              		.loc 3 174 19 view .LVU1008
 3699 0174 2B28     		cmp	r0, #43
 3700 0176 3BD8     		bhi	.L212
 174:Display/../../libs/PoliTeKDSP/libs/libDaisy/src/hid/disp/display.h ****     }
 3701              		.loc 3 174 46 view .LVU1009
 3702 0178 3B68     		ldr	r3, [r7]
 174:Display/../../libs/PoliTeKDSP/libs/libDaisy/src/hid/disp/display.h ****     }
 3703              		.loc 3 174 45 view .LVU1010
 3704 017a 3846     		mov	r0, r7
 3705 017c 9B68     		ldr	r3, [r3, #8]
 3706 017e 9847     		blx	r3
ARM GAS  C:\Users\skipi\AppData\Local\Temp\ccerdDJR.s 			page 94


 3707              	.LVL290:
 174:Display/../../libs/PoliTeKDSP/libs/libDaisy/src/hid/disp/display.h ****     }
 3708              		.loc 3 174 19 view .LVU1011
 3709 0180 0138     		subs	r0, r0, #1
 3710 0182 83B2     		uxth	r3, r0
 3711              	.L200:
 3712              	.LBE374:
 3713              	.LBE373:
 3714              		.loc 4 153 37 view .LVU1012
 3715 0184 2868     		ldr	r0, [r5]
 3716              		.loc 4 153 61 view .LVU1013
 3717 0186 0122     		movs	r2, #1
 3718              	.LBB377:
 3719              	.LBB375:
 174:Display/../../libs/PoliTeKDSP/libs/libDaisy/src/hid/disp/display.h ****     }
 3720              		.loc 3 174 19 view .LVU1014
 3721 0188 FB80     		strh	r3, [r7, #6]	@ movhi
 3722              	.LVL291:
 174:Display/../../libs/PoliTeKDSP/libs/libDaisy/src/hid/disp/display.h ****     }
 3723              		.loc 3 174 19 view .LVU1015
 3724              	.LBE375:
 3725              	.LBE377:
 3726              		.loc 4 153 37 is_stmt 1 view .LVU1016
 154:Display/displayHandler.cpp **** 
 155:Display/displayHandler.cpp ****     int cursorY = 13 + (cursorIndex * 10);
 3727              		.loc 4 155 37 is_stmt 0 view .LVU1017
 3728 018a 04EB8404 		add	r4, r4, r4, lsl #2
 3729              	.LVL292:
 153:Display/displayHandler.cpp **** 
 3730              		.loc 4 153 85 view .LVU1018
 3731 018e 0368     		ldr	r3, [r0]
 153:Display/displayHandler.cpp **** 
 3732              		.loc 4 153 61 view .LVU1019
 3733 0190 2949     		ldr	r1, .L215+24
 3734              		.loc 4 155 37 view .LVU1020
 3735 0192 6400     		lsls	r4, r4, #1
 153:Display/displayHandler.cpp **** 
 3736              		.loc 4 153 61 view .LVU1021
 3737 0194 0092     		str	r2, [sp]
 3738 0196 9F6A     		ldr	r7, [r3, #40]
 3739              		.loc 4 155 9 view .LVU1022
 3740 0198 0D34     		adds	r4, r4, #13
 153:Display/displayHandler.cpp **** 
 3741              		.loc 4 153 61 view .LVU1023
 3742 019a 96E80C00 		ldm	r6, {r2, r3}
 3743 019e B847     		blx	r7
 3744              	.LVL293:
 3745              		.loc 4 155 5 is_stmt 1 view .LVU1024
 156:Display/displayHandler.cpp ****     _displayPtr->SetCursor(0, cursorY);
 3746              		.loc 4 156 5 view .LVU1025
 3747 01a0 2F68     		ldr	r7, [r5]
 3748              		.loc 4 156 27 is_stmt 0 view .LVU1026
 3749 01a2 A4B2     		uxth	r4, r4
 3750              	.LVL294:
 3751              	.LBB378:
 3752              	.LBI378:
 171:Display/../../libs/PoliTeKDSP/libs/libDaisy/src/hid/disp/display.h ****     {
ARM GAS  C:\Users\skipi\AppData\Local\Temp\ccerdDJR.s 			page 95


 3753              		.loc 3 171 10 is_stmt 1 view .LVU1027
 3754              	.LBB379:
 173:Display/../../libs/PoliTeKDSP/libs/libDaisy/src/hid/disp/display.h ****         currentY_ = (y >= Height()) ? Height() - 1 : y;
 3755              		.loc 3 173 9 view .LVU1028
 173:Display/../../libs/PoliTeKDSP/libs/libDaisy/src/hid/disp/display.h ****         currentY_ = (y >= Height()) ? Height() - 1 : y;
 3756              		.loc 3 173 33 is_stmt 0 view .LVU1029
 3757 01a4 3B68     		ldr	r3, [r7]
 173:Display/../../libs/PoliTeKDSP/libs/libDaisy/src/hid/disp/display.h ****         currentY_ = (y >= Height()) ? Height() - 1 : y;
 3758              		.loc 3 173 32 view .LVU1030
 3759 01a6 3846     		mov	r0, r7
 3760 01a8 DB68     		ldr	r3, [r3, #12]
 3761 01aa 9847     		blx	r3
 3762              	.LVL295:
 173:Display/../../libs/PoliTeKDSP/libs/libDaisy/src/hid/disp/display.h ****         currentY_ = (y >= Height()) ? Height() - 1 : y;
 3763              		.loc 3 173 19 view .LVU1031
 3764 01ac F0B9     		cbnz	r0, .L213
 173:Display/../../libs/PoliTeKDSP/libs/libDaisy/src/hid/disp/display.h ****         currentY_ = (y >= Height()) ? Height() - 1 : y;
 3765              		.loc 3 173 44 view .LVU1032
 3766 01ae 3B68     		ldr	r3, [r7]
 173:Display/../../libs/PoliTeKDSP/libs/libDaisy/src/hid/disp/display.h ****         currentY_ = (y >= Height()) ? Height() - 1 : y;
 3767              		.loc 3 173 43 view .LVU1033
 3768 01b0 3846     		mov	r0, r7
 3769 01b2 DB68     		ldr	r3, [r3, #12]
 3770 01b4 9847     		blx	r3
 3771              	.LVL296:
 173:Display/../../libs/PoliTeKDSP/libs/libDaisy/src/hid/disp/display.h ****         currentY_ = (y >= Height()) ? Height() - 1 : y;
 3772              		.loc 3 173 19 view .LVU1034
 3773 01b6 0138     		subs	r0, r0, #1
 3774 01b8 83B2     		uxth	r3, r0
 3775              	.L201:
 3776 01ba BB80     		strh	r3, [r7, #4]	@ movhi
 174:Display/../../libs/PoliTeKDSP/libs/libDaisy/src/hid/disp/display.h ****     }
 3777              		.loc 3 174 9 is_stmt 1 view .LVU1035
 174:Display/../../libs/PoliTeKDSP/libs/libDaisy/src/hid/disp/display.h ****     }
 3778              		.loc 3 174 33 is_stmt 0 view .LVU1036
 3779 01bc 3846     		mov	r0, r7
 174:Display/../../libs/PoliTeKDSP/libs/libDaisy/src/hid/disp/display.h ****     }
 3780              		.loc 3 174 34 view .LVU1037
 3781 01be 3B68     		ldr	r3, [r7]
 174:Display/../../libs/PoliTeKDSP/libs/libDaisy/src/hid/disp/display.h ****     }
 3782              		.loc 3 174 33 view .LVU1038
 3783 01c0 9B68     		ldr	r3, [r3, #8]
 3784 01c2 9847     		blx	r3
 3785              	.LVL297:
 174:Display/../../libs/PoliTeKDSP/libs/libDaisy/src/hid/disp/display.h ****     }
 3786              		.loc 3 174 19 view .LVU1039
 3787 01c4 8442     		cmp	r4, r0
 3788 01c6 05D3     		bcc	.L202
 174:Display/../../libs/PoliTeKDSP/libs/libDaisy/src/hid/disp/display.h ****     }
 3789              		.loc 3 174 46 view .LVU1040
 3790 01c8 3B68     		ldr	r3, [r7]
 174:Display/../../libs/PoliTeKDSP/libs/libDaisy/src/hid/disp/display.h ****     }
 3791              		.loc 3 174 45 view .LVU1041
 3792 01ca 3846     		mov	r0, r7
 3793 01cc 9B68     		ldr	r3, [r3, #8]
 3794 01ce 9847     		blx	r3
 3795              	.LVL298:
ARM GAS  C:\Users\skipi\AppData\Local\Temp\ccerdDJR.s 			page 96


 174:Display/../../libs/PoliTeKDSP/libs/libDaisy/src/hid/disp/display.h ****     }
 3796              		.loc 3 174 19 view .LVU1042
 3797 01d0 0138     		subs	r0, r0, #1
 3798 01d2 84B2     		uxth	r4, r0
 3799              	.LVL299:
 3800              	.L202:
 174:Display/../../libs/PoliTeKDSP/libs/libDaisy/src/hid/disp/display.h ****     }
 3801              		.loc 3 174 19 view .LVU1043
 3802              	.LBE379:
 3803              	.LBE378:
 157:Display/displayHandler.cpp ****     _displayPtr->WriteString(">", Font_7x10, true);
 3804              		.loc 4 157 5 view .LVU1044
 3805 01d4 2868     		ldr	r0, [r5]
 3806              		.loc 4 157 29 view .LVU1045
 3807 01d6 0123     		movs	r3, #1
 3808              	.LBB382:
 3809              	.LBB380:
 174:Display/../../libs/PoliTeKDSP/libs/libDaisy/src/hid/disp/display.h ****     }
 3810              		.loc 3 174 19 view .LVU1046
 3811 01d8 FC80     		strh	r4, [r7, #6]	@ movhi
 3812              	.LVL300:
 174:Display/../../libs/PoliTeKDSP/libs/libDaisy/src/hid/disp/display.h ****     }
 3813              		.loc 3 174 19 view .LVU1047
 3814              	.LBE380:
 3815              	.LBE382:
 3816              		.loc 4 157 5 is_stmt 1 view .LVU1048
 3817              		.loc 4 157 50 is_stmt 0 view .LVU1049
 3818 01da 0168     		ldr	r1, [r0]
 3819              		.loc 4 157 29 view .LVU1050
 3820 01dc 0093     		str	r3, [sp]
 3821 01de 8C6A     		ldr	r4, [r1, #40]
 3822 01e0 1649     		ldr	r1, .L215+28
 3823 01e2 96E80C00 		ldm	r6, {r2, r3}
 3824 01e6 A047     		blx	r4
 3825              	.LVL301:
 158:Display/displayHandler.cpp **** }
 3826              		.loc 4 158 1 view .LVU1051
 3827 01e8 03B0     		add	sp, sp, #12
 3828              		.cfi_remember_state
 3829              		.cfi_def_cfa_offset 20
 3830              		@ sp needed
 3831 01ea F0BD     		pop	{r4, r5, r6, r7, pc}
 3832              	.LVL302:
 3833              	.L213:
 3834              		.cfi_restore_state
 3835              	.LBB383:
 3836              	.LBB381:
 173:Display/../../libs/PoliTeKDSP/libs/libDaisy/src/hid/disp/display.h ****         currentY_ = (y >= Height()) ? Height() - 1 : y;
 3837              		.loc 3 173 19 view .LVU1052
 3838 01ec 0023     		movs	r3, #0
 3839 01ee E4E7     		b	.L201
 3840              	.LVL303:
 3841              	.L212:
 173:Display/../../libs/PoliTeKDSP/libs/libDaisy/src/hid/disp/display.h ****         currentY_ = (y >= Height()) ? Height() - 1 : y;
 3842              		.loc 3 173 19 view .LVU1053
 3843              	.LBE381:
 3844              	.LBE383:
ARM GAS  C:\Users\skipi\AppData\Local\Temp\ccerdDJR.s 			page 97


 3845              	.LBB384:
 3846              	.LBB376:
 174:Display/../../libs/PoliTeKDSP/libs/libDaisy/src/hid/disp/display.h ****     }
 3847              		.loc 3 174 19 view .LVU1054
 3848 01f0 2B23     		movs	r3, #43
 3849 01f2 C7E7     		b	.L200
 3850              	.L211:
 173:Display/../../libs/PoliTeKDSP/libs/libDaisy/src/hid/disp/display.h ****         currentY_ = (y >= Height()) ? Height() - 1 : y;
 3851              		.loc 3 173 19 view .LVU1055
 3852 01f4 0A23     		movs	r3, #10
 3853 01f6 B8E7     		b	.L199
 3854              	.LVL304:
 3855              	.L210:
 173:Display/../../libs/PoliTeKDSP/libs/libDaisy/src/hid/disp/display.h ****         currentY_ = (y >= Height()) ? Height() - 1 : y;
 3856              		.loc 3 173 19 view .LVU1056
 3857              	.LBE376:
 3858              	.LBE384:
 3859              	.LBB385:
 3860              	.LBB371:
 174:Display/../../libs/PoliTeKDSP/libs/libDaisy/src/hid/disp/display.h ****     }
 3861              		.loc 3 174 19 view .LVU1057
 3862 01f8 2123     		movs	r3, #33
 3863 01fa 9FE7     		b	.L198
 3864              	.L209:
 173:Display/../../libs/PoliTeKDSP/libs/libDaisy/src/hid/disp/display.h ****         currentY_ = (y >= Height()) ? Height() - 1 : y;
 3865              		.loc 3 173 19 view .LVU1058
 3866 01fc 0A23     		movs	r3, #10
 3867 01fe 90E7     		b	.L197
 3868              	.LVL305:
 3869              	.L208:
 173:Display/../../libs/PoliTeKDSP/libs/libDaisy/src/hid/disp/display.h ****         currentY_ = (y >= Height()) ? Height() - 1 : y;
 3870              		.loc 3 173 19 view .LVU1059
 3871              	.LBE371:
 3872              	.LBE385:
 3873              	.LBB386:
 3874              	.LBB366:
 174:Display/../../libs/PoliTeKDSP/libs/libDaisy/src/hid/disp/display.h ****     }
 3875              		.loc 3 174 19 view .LVU1060
 3876 0200 1723     		movs	r3, #23
 3877 0202 77E7     		b	.L196
 3878              	.L207:
 173:Display/../../libs/PoliTeKDSP/libs/libDaisy/src/hid/disp/display.h ****         currentY_ = (y >= Height()) ? Height() - 1 : y;
 3879              		.loc 3 173 19 view .LVU1061
 3880 0204 0A23     		movs	r3, #10
 3881 0206 67E7     		b	.L195
 3882              	.LVL306:
 3883              	.L206:
 173:Display/../../libs/PoliTeKDSP/libs/libDaisy/src/hid/disp/display.h ****         currentY_ = (y >= Height()) ? Height() - 1 : y;
 3884              		.loc 3 173 19 view .LVU1062
 3885              	.LBE366:
 3886              	.LBE386:
 3887              	.LBB387:
 3888              	.LBB361:
 174:Display/../../libs/PoliTeKDSP/libs/libDaisy/src/hid/disp/display.h ****     }
 3889              		.loc 3 174 19 view .LVU1063
 3890 0208 0D23     		movs	r3, #13
 3891 020a 4DE7     		b	.L194
ARM GAS  C:\Users\skipi\AppData\Local\Temp\ccerdDJR.s 			page 98


 3892              	.L205:
 173:Display/../../libs/PoliTeKDSP/libs/libDaisy/src/hid/disp/display.h ****         currentY_ = (y >= Height()) ? Height() - 1 : y;
 3893              		.loc 3 173 19 view .LVU1064
 3894 020c 0A23     		movs	r3, #10
 3895 020e 3DE7     		b	.L193
 3896              	.LVL307:
 3897              	.L204:
 173:Display/../../libs/PoliTeKDSP/libs/libDaisy/src/hid/disp/display.h ****         currentY_ = (y >= Height()) ? Height() - 1 : y;
 3898              		.loc 3 173 19 view .LVU1065
 3899              	.LBE361:
 3900              	.LBE387:
 3901              	.LBB388:
 3902              	.LBB356:
 174:Display/../../libs/PoliTeKDSP/libs/libDaisy/src/hid/disp/display.h ****     }
 3903              		.loc 3 174 19 view .LVU1066
 3904 0210 0023     		movs	r3, #0
 3905 0212 22E7     		b	.L192
 3906              	.L203:
 173:Display/../../libs/PoliTeKDSP/libs/libDaisy/src/hid/disp/display.h ****         currentY_ = (y >= Height()) ? Height() - 1 : y;
 3907              		.loc 3 173 19 view .LVU1067
 3908 0214 0023     		movs	r3, #0
 3909 0216 12E7     		b	.L191
 3910              	.LVL308:
 3911              	.L189:
 173:Display/../../libs/PoliTeKDSP/libs/libDaisy/src/hid/disp/display.h ****         currentY_ = (y >= Height()) ? Height() - 1 : y;
 3912              		.loc 3 173 19 view .LVU1068
 3913              	.LBE356:
 3914              	.LBE388:
 145:Display/displayHandler.cpp ****     
 3915              		.loc 4 145 22 view .LVU1069
 3916 0218 0021     		movs	r1, #0
 3917              	.LVL309:
 145:Display/displayHandler.cpp ****     
 3918              		.loc 4 145 22 view .LVU1070
 3919 021a 9847     		blx	r3
 3920              	.LVL310:
 3921 021c 01E7     		b	.L190
 3922              	.L216:
 3923 021e 00BF     		.align	2
 3924              	.L215:
 3925 0220 00000000 		.word	_ZN5daisy11OledDisplayINS_13SSD130xDriverILj128ELj64ENS_19SSD130xI2CTransportEEEE4FillEb
 3926 0224 00000000 		.word	Font_7x10
 3927 0228 00000000 		.word	.LC13
 3928 022c 0C000000 		.word	.LC14
 3929 0230 18000000 		.word	.LC15
 3930 0234 24000000 		.word	.LC16
 3931 0238 38000000 		.word	.LC12
 3932 023c 34000000 		.word	.LC6
 3933              		.cfi_endproc
 3934              	.LFE2794:
 3936              		.section	.rodata._ZN14DisplayHandler18DrawFloatParameterEPKcf.str1.4,"aMS",%progbits,1
 3937              		.align	2
 3938              	.LC17:
 3939 0000 45444954 		.ascii	"EDIT:\000"
 3939      3A00
 3940 0006 0000     		.align	2
 3941              	.LC18:
ARM GAS  C:\Users\skipi\AppData\Local\Temp\ccerdDJR.s 			page 99


 3942 0008 25642E25 		.ascii	"%d.%02d\000"
 3942      30326400 
 3943              		.section	.text._ZN14DisplayHandler18DrawFloatParameterEPKcf,"ax",%progbits
 3944              		.align	1
 3945              		.p2align 2,,3
 3946              		.global	_ZN14DisplayHandler18DrawFloatParameterEPKcf
 3947              		.syntax unified
 3948              		.thumb
 3949              		.thumb_func
 3950              		.fpu fpv5-d16
 3952              	_ZN14DisplayHandler18DrawFloatParameterEPKcf:
 3953              	.LVL311:
 3954              	.LFB2795:
 159:Display/displayHandler.cpp **** 
 160:Display/displayHandler.cpp **** void DisplayHandler::DrawFloatParameter(const char* paramName, float value) {
 3955              		.loc 4 160 77 is_stmt 1 view -0
 3956              		.cfi_startproc
 3957              		@ args = 0, pretend = 0, frame = 16
 3958              		@ frame_needed = 0, uses_anonymous_args = 0
 161:Display/displayHandler.cpp ****     _displayPtr->Fill(false);
 3959              		.loc 4 161 5 view .LVU1072
 160:Display/displayHandler.cpp ****     _displayPtr->Fill(false);
 3960              		.loc 4 160 77 is_stmt 0 view .LVU1073
 3961 0000 70B5     		push	{r4, r5, r6, lr}
 3962              		.cfi_def_cfa_offset 16
 3963              		.cfi_offset 4, -16
 3964              		.cfi_offset 5, -12
 3965              		.cfi_offset 6, -8
 3966              		.cfi_offset 14, -4
 3967 0002 0446     		mov	r4, r0
 3968              		.loc 4 161 5 view .LVU1074
 3969 0004 0068     		ldr	r0, [r0]
 3970              	.LVL312:
 3971              		.loc 4 161 5 view .LVU1075
 3972 0006 544A     		ldr	r2, .L233
 160:Display/displayHandler.cpp ****     _displayPtr->Fill(false);
 3973              		.loc 4 160 77 view .LVU1076
 3974 0008 0E46     		mov	r6, r1
 3975              		.loc 4 161 28 view .LVU1077
 3976 000a 0368     		ldr	r3, [r0]
 3977 000c 1B69     		ldr	r3, [r3, #16]
 3978 000e 9342     		cmp	r3, r2
 160:Display/displayHandler.cpp ****     _displayPtr->Fill(false);
 3979              		.loc 4 160 77 view .LVU1078
 3980 0010 2DED028B 		vpush.64	{d8}
 3981              		.cfi_def_cfa_offset 24
 3982              		.cfi_offset 80, -24
 3983              		.cfi_offset 81, -20
 3984 0014 B0EE408A 		vmov.f32	s16, s0
 3985 0018 86B0     		sub	sp, sp, #24
 3986              		.cfi_def_cfa_offset 48
 3987 001a 40F09980 		bne	.L218
 3988              	.LBB399:
 3989              	.LBB400:
 3990              	.LBB401:
 375:Display/../../libs/PoliTeKDSP/libs/libDaisy/src/dev/oled_ssd130x.h ****         }
 3991              		.loc 2 375 24 view .LVU1079
ARM GAS  C:\Users\skipi\AppData\Local\Temp\ccerdDJR.s 			page 100


 3992 001e 4FF48062 		mov	r2, #1024
 3993 0022 0021     		movs	r1, #0
 3994              	.LVL313:
 375:Display/../../libs/PoliTeKDSP/libs/libDaisy/src/dev/oled_ssd130x.h ****         }
 3995              		.loc 2 375 24 view .LVU1080
 3996 0024 1030     		adds	r0, r0, #16
 3997 0026 FFF7FEFF 		bl	memset
 3998              	.LVL314:
 3999              	.L219:
 375:Display/../../libs/PoliTeKDSP/libs/libDaisy/src/dev/oled_ssd130x.h ****         }
 4000              		.loc 2 375 24 view .LVU1081
 4001              	.LBE401:
 4002              	.LBE400:
 4003              	.LBE399:
 162:Display/displayHandler.cpp ****     
 163:Display/displayHandler.cpp ****     _displayPtr->SetCursor(0, 0);
 4004              		.loc 4 163 5 is_stmt 1 view .LVU1082
 4005 002a 2568     		ldr	r5, [r4]
 4006              	.LVL315:
 4007              	.LBB402:
 4008              	.LBI402:
 171:Display/../../libs/PoliTeKDSP/libs/libDaisy/src/hid/disp/display.h ****     {
 4009              		.loc 3 171 10 view .LVU1083
 4010              	.LBB403:
 173:Display/../../libs/PoliTeKDSP/libs/libDaisy/src/hid/disp/display.h ****         currentY_ = (y >= Height()) ? Height() - 1 : y;
 4011              		.loc 3 173 9 view .LVU1084
 173:Display/../../libs/PoliTeKDSP/libs/libDaisy/src/hid/disp/display.h ****         currentY_ = (y >= Height()) ? Height() - 1 : y;
 4012              		.loc 3 173 33 is_stmt 0 view .LVU1085
 4013 002c 2B68     		ldr	r3, [r5]
 173:Display/../../libs/PoliTeKDSP/libs/libDaisy/src/hid/disp/display.h ****         currentY_ = (y >= Height()) ? Height() - 1 : y;
 4014              		.loc 3 173 32 view .LVU1086
 4015 002e 2846     		mov	r0, r5
 4016 0030 DB68     		ldr	r3, [r3, #12]
 4017 0032 9847     		blx	r3
 4018              	.LVL316:
 173:Display/../../libs/PoliTeKDSP/libs/libDaisy/src/hid/disp/display.h ****         currentY_ = (y >= Height()) ? Height() - 1 : y;
 4019              		.loc 3 173 19 view .LVU1087
 4020 0034 0028     		cmp	r0, #0
 4021 0036 7FD1     		bne	.L226
 173:Display/../../libs/PoliTeKDSP/libs/libDaisy/src/hid/disp/display.h ****         currentY_ = (y >= Height()) ? Height() - 1 : y;
 4022              		.loc 3 173 44 view .LVU1088
 4023 0038 2B68     		ldr	r3, [r5]
 173:Display/../../libs/PoliTeKDSP/libs/libDaisy/src/hid/disp/display.h ****         currentY_ = (y >= Height()) ? Height() - 1 : y;
 4024              		.loc 3 173 43 view .LVU1089
 4025 003a 2846     		mov	r0, r5
 4026 003c DB68     		ldr	r3, [r3, #12]
 4027 003e 9847     		blx	r3
 4028              	.LVL317:
 173:Display/../../libs/PoliTeKDSP/libs/libDaisy/src/hid/disp/display.h ****         currentY_ = (y >= Height()) ? Height() - 1 : y;
 4029              		.loc 3 173 19 view .LVU1090
 4030 0040 0138     		subs	r0, r0, #1
 4031 0042 83B2     		uxth	r3, r0
 4032              	.L220:
 174:Display/../../libs/PoliTeKDSP/libs/libDaisy/src/hid/disp/display.h ****     }
 4033              		.loc 3 174 34 view .LVU1091
 4034 0044 2A68     		ldr	r2, [r5]
 174:Display/../../libs/PoliTeKDSP/libs/libDaisy/src/hid/disp/display.h ****     }
ARM GAS  C:\Users\skipi\AppData\Local\Temp\ccerdDJR.s 			page 101


 4035              		.loc 3 174 33 view .LVU1092
 4036 0046 2846     		mov	r0, r5
 173:Display/../../libs/PoliTeKDSP/libs/libDaisy/src/hid/disp/display.h ****         currentY_ = (y >= Height()) ? Height() - 1 : y;
 4037              		.loc 3 173 19 view .LVU1093
 4038 0048 AB80     		strh	r3, [r5, #4]	@ movhi
 174:Display/../../libs/PoliTeKDSP/libs/libDaisy/src/hid/disp/display.h ****     }
 4039              		.loc 3 174 9 is_stmt 1 view .LVU1094
 174:Display/../../libs/PoliTeKDSP/libs/libDaisy/src/hid/disp/display.h ****     }
 4040              		.loc 3 174 33 is_stmt 0 view .LVU1095
 4041 004a 9368     		ldr	r3, [r2, #8]
 4042 004c 9847     		blx	r3
 4043              	.LVL318:
 174:Display/../../libs/PoliTeKDSP/libs/libDaisy/src/hid/disp/display.h ****     }
 4044              		.loc 3 174 19 view .LVU1096
 4045 004e 0028     		cmp	r0, #0
 4046 0050 7CD1     		bne	.L227
 174:Display/../../libs/PoliTeKDSP/libs/libDaisy/src/hid/disp/display.h ****     }
 4047              		.loc 3 174 46 view .LVU1097
 4048 0052 2B68     		ldr	r3, [r5]
 174:Display/../../libs/PoliTeKDSP/libs/libDaisy/src/hid/disp/display.h ****     }
 4049              		.loc 3 174 45 view .LVU1098
 4050 0054 2846     		mov	r0, r5
 4051 0056 9B68     		ldr	r3, [r3, #8]
 4052 0058 9847     		blx	r3
 4053              	.LVL319:
 174:Display/../../libs/PoliTeKDSP/libs/libDaisy/src/hid/disp/display.h ****     }
 4054              		.loc 3 174 19 view .LVU1099
 4055 005a 0138     		subs	r0, r0, #1
 4056 005c 83B2     		uxth	r3, r0
 4057              	.L221:
 4058              	.LBE403:
 4059              	.LBE402:
 164:Display/displayHandler.cpp ****     _displayPtr->WriteString("EDIT:", Font_7x10, true);
 4060              		.loc 4 164 5 view .LVU1100
 4061 005e 2068     		ldr	r0, [r4]
 4062              		.loc 4 164 29 view .LVU1101
 4063 0060 0121     		movs	r1, #1
 4064              	.LBB407:
 4065              	.LBB404:
 174:Display/../../libs/PoliTeKDSP/libs/libDaisy/src/hid/disp/display.h ****     }
 4066              		.loc 3 174 19 view .LVU1102
 4067 0062 EB80     		strh	r3, [r5, #6]	@ movhi
 4068              	.LVL320:
 174:Display/../../libs/PoliTeKDSP/libs/libDaisy/src/hid/disp/display.h ****     }
 4069              		.loc 3 174 19 view .LVU1103
 4070              	.LBE404:
 4071              	.LBE407:
 4072              		.loc 4 164 5 is_stmt 1 view .LVU1104
 4073              		.loc 4 164 54 is_stmt 0 view .LVU1105
 4074 0064 0268     		ldr	r2, [r0]
 4075              		.loc 4 164 29 view .LVU1106
 4076 0066 3D4B     		ldr	r3, .L233+4
 4077 0068 0091     		str	r1, [sp]
 4078 006a 3D49     		ldr	r1, .L233+8
 4079 006c 956A     		ldr	r5, [r2, #40]
 4080 006e 0CCB     		ldm	r3, {r2, r3}
 4081 0070 A847     		blx	r5
ARM GAS  C:\Users\skipi\AppData\Local\Temp\ccerdDJR.s 			page 102


 4082              	.LVL321:
 165:Display/displayHandler.cpp ****     
 166:Display/displayHandler.cpp ****     _displayPtr->SetCursor(0, 12);
 4083              		.loc 4 166 5 is_stmt 1 view .LVU1107
 4084 0072 2568     		ldr	r5, [r4]
 4085              	.LVL322:
 4086              	.LBB408:
 4087              	.LBI408:
 171:Display/../../libs/PoliTeKDSP/libs/libDaisy/src/hid/disp/display.h ****     {
 4088              		.loc 3 171 10 view .LVU1108
 4089              	.LBB409:
 173:Display/../../libs/PoliTeKDSP/libs/libDaisy/src/hid/disp/display.h ****         currentY_ = (y >= Height()) ? Height() - 1 : y;
 4090              		.loc 3 173 9 view .LVU1109
 173:Display/../../libs/PoliTeKDSP/libs/libDaisy/src/hid/disp/display.h ****         currentY_ = (y >= Height()) ? Height() - 1 : y;
 4091              		.loc 3 173 33 is_stmt 0 view .LVU1110
 4092 0074 2B68     		ldr	r3, [r5]
 173:Display/../../libs/PoliTeKDSP/libs/libDaisy/src/hid/disp/display.h ****         currentY_ = (y >= Height()) ? Height() - 1 : y;
 4093              		.loc 3 173 32 view .LVU1111
 4094 0076 2846     		mov	r0, r5
 4095 0078 DB68     		ldr	r3, [r3, #12]
 4096 007a 9847     		blx	r3
 4097              	.LVL323:
 173:Display/../../libs/PoliTeKDSP/libs/libDaisy/src/hid/disp/display.h ****         currentY_ = (y >= Height()) ? Height() - 1 : y;
 4098              		.loc 3 173 19 view .LVU1112
 4099 007c 0028     		cmp	r0, #0
 4100 007e 63D1     		bne	.L228
 173:Display/../../libs/PoliTeKDSP/libs/libDaisy/src/hid/disp/display.h ****         currentY_ = (y >= Height()) ? Height() - 1 : y;
 4101              		.loc 3 173 44 view .LVU1113
 4102 0080 2B68     		ldr	r3, [r5]
 173:Display/../../libs/PoliTeKDSP/libs/libDaisy/src/hid/disp/display.h ****         currentY_ = (y >= Height()) ? Height() - 1 : y;
 4103              		.loc 3 173 43 view .LVU1114
 4104 0082 2846     		mov	r0, r5
 4105 0084 DB68     		ldr	r3, [r3, #12]
 4106 0086 9847     		blx	r3
 4107              	.LVL324:
 173:Display/../../libs/PoliTeKDSP/libs/libDaisy/src/hid/disp/display.h ****         currentY_ = (y >= Height()) ? Height() - 1 : y;
 4108              		.loc 3 173 19 view .LVU1115
 4109 0088 0138     		subs	r0, r0, #1
 4110 008a 83B2     		uxth	r3, r0
 4111              	.L222:
 174:Display/../../libs/PoliTeKDSP/libs/libDaisy/src/hid/disp/display.h ****     }
 4112              		.loc 3 174 34 view .LVU1116
 4113 008c 2A68     		ldr	r2, [r5]
 174:Display/../../libs/PoliTeKDSP/libs/libDaisy/src/hid/disp/display.h ****     }
 4114              		.loc 3 174 33 view .LVU1117
 4115 008e 2846     		mov	r0, r5
 173:Display/../../libs/PoliTeKDSP/libs/libDaisy/src/hid/disp/display.h ****         currentY_ = (y >= Height()) ? Height() - 1 : y;
 4116              		.loc 3 173 19 view .LVU1118
 4117 0090 AB80     		strh	r3, [r5, #4]	@ movhi
 174:Display/../../libs/PoliTeKDSP/libs/libDaisy/src/hid/disp/display.h ****     }
 4118              		.loc 3 174 9 is_stmt 1 view .LVU1119
 174:Display/../../libs/PoliTeKDSP/libs/libDaisy/src/hid/disp/display.h ****     }
 4119              		.loc 3 174 33 is_stmt 0 view .LVU1120
 4120 0092 9368     		ldr	r3, [r2, #8]
 4121 0094 9847     		blx	r3
 4122              	.LVL325:
 174:Display/../../libs/PoliTeKDSP/libs/libDaisy/src/hid/disp/display.h ****     }
ARM GAS  C:\Users\skipi\AppData\Local\Temp\ccerdDJR.s 			page 103


 4123              		.loc 3 174 19 view .LVU1121
 4124 0096 0C28     		cmp	r0, #12
 4125 0098 54D8     		bhi	.L229
 174:Display/../../libs/PoliTeKDSP/libs/libDaisy/src/hid/disp/display.h ****     }
 4126              		.loc 3 174 46 view .LVU1122
 4127 009a 2B68     		ldr	r3, [r5]
 174:Display/../../libs/PoliTeKDSP/libs/libDaisy/src/hid/disp/display.h ****     }
 4128              		.loc 3 174 45 view .LVU1123
 4129 009c 2846     		mov	r0, r5
 4130 009e 9B68     		ldr	r3, [r3, #8]
 4131 00a0 9847     		blx	r3
 4132              	.LVL326:
 174:Display/../../libs/PoliTeKDSP/libs/libDaisy/src/hid/disp/display.h ****     }
 4133              		.loc 3 174 19 view .LVU1124
 4134 00a2 0138     		subs	r0, r0, #1
 4135 00a4 83B2     		uxth	r3, r0
 4136              	.L223:
 4137              	.LBE409:
 4138              	.LBE408:
 167:Display/displayHandler.cpp ****     _displayPtr->WriteString(paramName, Font_11x18, true);
 4139              		.loc 4 167 5 view .LVU1125
 4140 00a6 2068     		ldr	r0, [r4]
 4141              		.loc 4 167 29 view .LVU1126
 4142 00a8 3146     		mov	r1, r6
 4143              	.LBB412:
 4144              	.LBB410:
 174:Display/../../libs/PoliTeKDSP/libs/libDaisy/src/hid/disp/display.h ****     }
 4145              		.loc 3 174 19 view .LVU1127
 4146 00aa EB80     		strh	r3, [r5, #6]	@ movhi
 4147              	.LVL327:
 174:Display/../../libs/PoliTeKDSP/libs/libDaisy/src/hid/disp/display.h ****     }
 4148              		.loc 3 174 19 view .LVU1128
 4149              	.LBE410:
 4150              	.LBE412:
 4151              		.loc 4 167 5 is_stmt 1 view .LVU1129
 4152              		.loc 4 167 29 is_stmt 0 view .LVU1130
 4153 00ac 0122     		movs	r2, #1
 4154              		.loc 4 167 57 view .LVU1131
 4155 00ae 0368     		ldr	r3, [r0]
 4156              		.loc 4 167 29 view .LVU1132
 4157 00b0 2C4E     		ldr	r6, .L233+12
 4158              	.LVL328:
 4159              		.loc 4 167 29 view .LVU1133
 4160 00b2 0092     		str	r2, [sp]
 4161 00b4 9D6A     		ldr	r5, [r3, #40]
 4162 00b6 96E80C00 		ldm	r6, {r2, r3}
 4163 00ba A847     		blx	r5
 4164              	.LVL329:
 168:Display/displayHandler.cpp **** 
 169:Display/displayHandler.cpp ****     int intPart = (int)value;
 4165              		.loc 4 169 5 is_stmt 1 view .LVU1134
 4166              		.loc 4 169 9 is_stmt 0 view .LVU1135
 4167 00bc FDEEC87A 		vcvt.s32.f32	s15, s16
 4168              	.LVL330:
 170:Display/displayHandler.cpp ****     int decPart = (int)((value - (float)intPart) * 100.0f);
 4169              		.loc 4 170 5 is_stmt 1 view .LVU1136
 4170              		.loc 4 170 50 is_stmt 0 view .LVU1137
ARM GAS  C:\Users\skipi\AppData\Local\Temp\ccerdDJR.s 			page 104


 4171 00c0 9FED297A 		vldr.32	s14, .L233+16
 171:Display/displayHandler.cpp ****     if (decPart < 0) decPart = -decPart;
 172:Display/displayHandler.cpp **** 
 173:Display/displayHandler.cpp ****     char valBuffer[16];
 174:Display/displayHandler.cpp ****     sprintf(valBuffer, "%d.%02d", intPart, decPart);
 4172              		.loc 4 174 12 view .LVU1138
 4173 00c4 02A8     		add	r0, sp, #8
 4174 00c6 2949     		ldr	r1, .L233+20
 170:Display/displayHandler.cpp ****     int decPart = (int)((value - (float)intPart) * 100.0f);
 4175              		.loc 4 170 34 view .LVU1139
 4176 00c8 F8EEE76A 		vcvt.f32.s32	s13, s15
 4177              		.loc 4 174 12 view .LVU1140
 4178 00cc 17EE902A 		vmov	r2, s15	@ int
 170:Display/displayHandler.cpp ****     int decPart = (int)((value - (float)intPart) * 100.0f);
 4179              		.loc 4 170 32 view .LVU1141
 4180 00d0 78EE667A 		vsub.f32	s15, s16, s13
 4181              	.LVL331:
 170:Display/displayHandler.cpp ****     int decPart = (int)((value - (float)intPart) * 100.0f);
 4182              		.loc 4 170 50 view .LVU1142
 4183 00d4 67EE877A 		vmul.f32	s15, s15, s14
 170:Display/displayHandler.cpp ****     int decPart = (int)((value - (float)intPart) * 100.0f);
 4184              		.loc 4 170 9 view .LVU1143
 4185 00d8 FDEEE77A 		vcvt.s32.f32	s15, s15
 4186 00dc 17EE903A 		vmov	r3, s15	@ int
 4187              	.LVL332:
 171:Display/displayHandler.cpp ****     if (decPart < 0) decPart = -decPart;
 4188              		.loc 4 171 5 is_stmt 1 view .LVU1144
 173:Display/displayHandler.cpp ****     sprintf(valBuffer, "%d.%02d", intPart, decPart);
 4189              		.loc 4 173 5 view .LVU1145
 4190              		.loc 4 174 5 view .LVU1146
 4191              		.loc 4 174 12 is_stmt 0 view .LVU1147
 4192 00e0 002B     		cmp	r3, #0
 4193 00e2 B8BF     		it	lt
 4194 00e4 5B42     		rsblt	r3, r3, #0
 4195              	.LVL333:
 4196              		.loc 4 174 12 view .LVU1148
 4197 00e6 FFF7FEFF 		bl	sprintf
 4198              	.LVL334:
 175:Display/displayHandler.cpp ****     
 176:Display/displayHandler.cpp ****     _displayPtr->SetCursor(0, 35); 
 4199              		.loc 4 176 5 is_stmt 1 view .LVU1149
 4200 00ea 2568     		ldr	r5, [r4]
 4201              	.LVL335:
 4202              	.LBB413:
 4203              	.LBI413:
 171:Display/../../libs/PoliTeKDSP/libs/libDaisy/src/hid/disp/display.h ****     {
 4204              		.loc 3 171 10 view .LVU1150
 4205              	.LBB414:
 173:Display/../../libs/PoliTeKDSP/libs/libDaisy/src/hid/disp/display.h ****         currentY_ = (y >= Height()) ? Height() - 1 : y;
 4206              		.loc 3 173 9 view .LVU1151
 173:Display/../../libs/PoliTeKDSP/libs/libDaisy/src/hid/disp/display.h ****         currentY_ = (y >= Height()) ? Height() - 1 : y;
 4207              		.loc 3 173 33 is_stmt 0 view .LVU1152
 4208 00ec 2B68     		ldr	r3, [r5]
 173:Display/../../libs/PoliTeKDSP/libs/libDaisy/src/hid/disp/display.h ****         currentY_ = (y >= Height()) ? Height() - 1 : y;
 4209              		.loc 3 173 32 view .LVU1153
 4210 00ee 2846     		mov	r0, r5
 4211 00f0 DB68     		ldr	r3, [r3, #12]
ARM GAS  C:\Users\skipi\AppData\Local\Temp\ccerdDJR.s 			page 105


 4212 00f2 9847     		blx	r3
 4213              	.LVL336:
 173:Display/../../libs/PoliTeKDSP/libs/libDaisy/src/hid/disp/display.h ****         currentY_ = (y >= Height()) ? Height() - 1 : y;
 4214              		.loc 3 173 19 view .LVU1154
 4215 00f4 20BB     		cbnz	r0, .L230
 173:Display/../../libs/PoliTeKDSP/libs/libDaisy/src/hid/disp/display.h ****         currentY_ = (y >= Height()) ? Height() - 1 : y;
 4216              		.loc 3 173 44 view .LVU1155
 4217 00f6 2B68     		ldr	r3, [r5]
 173:Display/../../libs/PoliTeKDSP/libs/libDaisy/src/hid/disp/display.h ****         currentY_ = (y >= Height()) ? Height() - 1 : y;
 4218              		.loc 3 173 43 view .LVU1156
 4219 00f8 2846     		mov	r0, r5
 4220 00fa DB68     		ldr	r3, [r3, #12]
 4221 00fc 9847     		blx	r3
 4222              	.LVL337:
 173:Display/../../libs/PoliTeKDSP/libs/libDaisy/src/hid/disp/display.h ****         currentY_ = (y >= Height()) ? Height() - 1 : y;
 4223              		.loc 3 173 19 view .LVU1157
 4224 00fe 0138     		subs	r0, r0, #1
 4225 0100 83B2     		uxth	r3, r0
 4226              	.L224:
 4227 0102 AB80     		strh	r3, [r5, #4]	@ movhi
 174:Display/../../libs/PoliTeKDSP/libs/libDaisy/src/hid/disp/display.h ****     }
 4228              		.loc 3 174 9 is_stmt 1 view .LVU1158
 174:Display/../../libs/PoliTeKDSP/libs/libDaisy/src/hid/disp/display.h ****     }
 4229              		.loc 3 174 33 is_stmt 0 view .LVU1159
 4230 0104 2846     		mov	r0, r5
 174:Display/../../libs/PoliTeKDSP/libs/libDaisy/src/hid/disp/display.h ****     }
 4231              		.loc 3 174 34 view .LVU1160
 4232 0106 2B68     		ldr	r3, [r5]
 174:Display/../../libs/PoliTeKDSP/libs/libDaisy/src/hid/disp/display.h ****     }
 4233              		.loc 3 174 33 view .LVU1161
 4234 0108 9B68     		ldr	r3, [r3, #8]
 4235 010a 9847     		blx	r3
 4236              	.LVL338:
 174:Display/../../libs/PoliTeKDSP/libs/libDaisy/src/hid/disp/display.h ****     }
 4237              		.loc 3 174 19 view .LVU1162
 4238 010c 2328     		cmp	r0, #35
 4239 010e 15D8     		bhi	.L231
 174:Display/../../libs/PoliTeKDSP/libs/libDaisy/src/hid/disp/display.h ****     }
 4240              		.loc 3 174 46 view .LVU1163
 4241 0110 2B68     		ldr	r3, [r5]
 174:Display/../../libs/PoliTeKDSP/libs/libDaisy/src/hid/disp/display.h ****     }
 4242              		.loc 3 174 45 view .LVU1164
 4243 0112 2846     		mov	r0, r5
 4244 0114 9B68     		ldr	r3, [r3, #8]
 4245 0116 9847     		blx	r3
 4246              	.LVL339:
 174:Display/../../libs/PoliTeKDSP/libs/libDaisy/src/hid/disp/display.h ****     }
 4247              		.loc 3 174 19 view .LVU1165
 4248 0118 0138     		subs	r0, r0, #1
 4249 011a 83B2     		uxth	r3, r0
 4250              	.L225:
 4251              	.LBE414:
 4252              	.LBE413:
 177:Display/displayHandler.cpp ****     _displayPtr->WriteString(valBuffer, Font_11x18, true); 
 4253              		.loc 4 177 5 view .LVU1166
 4254 011c 2068     		ldr	r0, [r4]
 4255              		.loc 4 177 29 view .LVU1167
ARM GAS  C:\Users\skipi\AppData\Local\Temp\ccerdDJR.s 			page 106


 4256 011e 0121     		movs	r1, #1
 4257              	.LBB417:
 4258              	.LBB415:
 174:Display/../../libs/PoliTeKDSP/libs/libDaisy/src/hid/disp/display.h ****     }
 4259              		.loc 3 174 19 view .LVU1168
 4260 0120 EB80     		strh	r3, [r5, #6]	@ movhi
 4261              	.LVL340:
 174:Display/../../libs/PoliTeKDSP/libs/libDaisy/src/hid/disp/display.h ****     }
 4262              		.loc 3 174 19 view .LVU1169
 4263              	.LBE415:
 4264              	.LBE417:
 4265              		.loc 4 177 5 is_stmt 1 view .LVU1170
 4266              		.loc 4 177 57 is_stmt 0 view .LVU1171
 4267 0122 0468     		ldr	r4, [r0]
 4268              	.LVL341:
 4269              		.loc 4 177 29 view .LVU1172
 4270 0124 96E80C00 		ldm	r6, {r2, r3}
 4271 0128 0091     		str	r1, [sp]
 4272 012a 02A9     		add	r1, sp, #8
 4273 012c A46A     		ldr	r4, [r4, #40]
 4274 012e A047     		blx	r4
 4275              	.LVL342:
 178:Display/displayHandler.cpp **** }
 4276              		.loc 4 178 1 view .LVU1173
 4277 0130 06B0     		add	sp, sp, #24
 4278              		.cfi_remember_state
 4279              		.cfi_def_cfa_offset 24
 4280              		@ sp needed
 4281 0132 BDEC028B 		vldm	sp!, {d8}
 4282              		.cfi_restore 80
 4283              		.cfi_restore 81
 4284              		.cfi_def_cfa_offset 16
 4285              	.LVL343:
 4286              		.loc 4 178 1 view .LVU1174
 4287 0136 70BD     		pop	{r4, r5, r6, pc}
 4288              	.LVL344:
 4289              	.L226:
 4290              		.cfi_restore_state
 4291              	.LBB418:
 4292              	.LBB405:
 173:Display/../../libs/PoliTeKDSP/libs/libDaisy/src/hid/disp/display.h ****         currentY_ = (y >= Height()) ? Height() - 1 : y;
 4293              		.loc 3 173 19 view .LVU1175
 4294 0138 0023     		movs	r3, #0
 4295 013a 83E7     		b	.L220
 4296              	.LVL345:
 4297              	.L231:
 173:Display/../../libs/PoliTeKDSP/libs/libDaisy/src/hid/disp/display.h ****         currentY_ = (y >= Height()) ? Height() - 1 : y;
 4298              		.loc 3 173 19 view .LVU1176
 4299              	.LBE405:
 4300              	.LBE418:
 4301              	.LBB419:
 4302              	.LBB416:
 174:Display/../../libs/PoliTeKDSP/libs/libDaisy/src/hid/disp/display.h ****     }
 4303              		.loc 3 174 19 view .LVU1177
 4304 013c 2323     		movs	r3, #35
 4305 013e EDE7     		b	.L225
 4306              	.L230:
ARM GAS  C:\Users\skipi\AppData\Local\Temp\ccerdDJR.s 			page 107


 173:Display/../../libs/PoliTeKDSP/libs/libDaisy/src/hid/disp/display.h ****         currentY_ = (y >= Height()) ? Height() - 1 : y;
 4307              		.loc 3 173 19 view .LVU1178
 4308 0140 0023     		movs	r3, #0
 4309 0142 DEE7     		b	.L224
 4310              	.LVL346:
 4311              	.L229:
 173:Display/../../libs/PoliTeKDSP/libs/libDaisy/src/hid/disp/display.h ****         currentY_ = (y >= Height()) ? Height() - 1 : y;
 4312              		.loc 3 173 19 view .LVU1179
 4313              	.LBE416:
 4314              	.LBE419:
 4315              	.LBB420:
 4316              	.LBB411:
 174:Display/../../libs/PoliTeKDSP/libs/libDaisy/src/hid/disp/display.h ****     }
 4317              		.loc 3 174 19 view .LVU1180
 4318 0144 0C23     		movs	r3, #12
 4319 0146 AEE7     		b	.L223
 4320              	.L228:
 173:Display/../../libs/PoliTeKDSP/libs/libDaisy/src/hid/disp/display.h ****         currentY_ = (y >= Height()) ? Height() - 1 : y;
 4321              		.loc 3 173 19 view .LVU1181
 4322 0148 0023     		movs	r3, #0
 4323 014a 9FE7     		b	.L222
 4324              	.LVL347:
 4325              	.L227:
 173:Display/../../libs/PoliTeKDSP/libs/libDaisy/src/hid/disp/display.h ****         currentY_ = (y >= Height()) ? Height() - 1 : y;
 4326              		.loc 3 173 19 view .LVU1182
 4327              	.LBE411:
 4328              	.LBE420:
 4329              	.LBB421:
 4330              	.LBB406:
 174:Display/../../libs/PoliTeKDSP/libs/libDaisy/src/hid/disp/display.h ****     }
 4331              		.loc 3 174 19 view .LVU1183
 4332 014c 0023     		movs	r3, #0
 4333 014e 86E7     		b	.L221
 4334              	.LVL348:
 4335              	.L218:
 174:Display/../../libs/PoliTeKDSP/libs/libDaisy/src/hid/disp/display.h ****     }
 4336              		.loc 3 174 19 view .LVU1184
 4337              	.LBE406:
 4338              	.LBE421:
 161:Display/displayHandler.cpp ****     
 4339              		.loc 4 161 22 view .LVU1185
 4340 0150 0021     		movs	r1, #0
 4341              	.LVL349:
 161:Display/displayHandler.cpp ****     
 4342              		.loc 4 161 22 view .LVU1186
 4343 0152 9847     		blx	r3
 4344              	.LVL350:
 161:Display/displayHandler.cpp ****     
 4345              		.loc 4 161 22 view .LVU1187
 4346 0154 69E7     		b	.L219
 4347              	.L234:
 4348 0156 00BF     		.align	2
 4349              	.L233:
 4350 0158 00000000 		.word	_ZN5daisy11OledDisplayINS_13SSD130xDriverILj128ELj64ENS_19SSD130xI2CTransportEEEE4FillEb
 4351 015c 00000000 		.word	Font_7x10
 4352 0160 00000000 		.word	.LC17
 4353 0164 00000000 		.word	Font_11x18
ARM GAS  C:\Users\skipi\AppData\Local\Temp\ccerdDJR.s 			page 108


 4354 0168 0000C842 		.word	1120403456
 4355 016c 08000000 		.word	.LC18
 4356              		.cfi_endproc
 4357              	.LFE2795:
 4359              		.section	.rodata._ZN14DisplayHandler16DrawIntParameterEPKci.str1.4,"aMS",%progbits,1
 4360              		.align	2
 4361              	.LC19:
 4362 0000 45444954 		.ascii	"EDITING:\000"
 4362      494E473A 
 4362      00
 4363 0009 000000   		.align	2
 4364              	.LC20:
 4365 000c 524F4F54 		.ascii	"ROOT\000"
 4365      00
 4366 0011 000000   		.align	2
 4367              	.LC21:
 4368 0014 5343414C 		.ascii	"SCALE\000"
 4368      4500
 4369 001a 0000     		.align	2
 4370              	.LC22:
 4371 001c 50524553 		.ascii	"PRESET\000"
 4371      455400
 4372 0023 00       		.align	2
 4373              	.LC23:
 4374 0024 48595354 		.ascii	"HYSTERESIS\000"
 4374      45524553 
 4374      495300
 4375 002f 00       		.align	2
 4376              	.LC24:
 4377 0030 25642025 		.ascii	"%d %%\000"
 4377      2500
 4378 0036 0000     		.align	2
 4379              	.LC25:
 4380 0038 46494C54 		.ascii	"FILTER TYPE\000"
 4380      45522054 
 4380      59504500 
 4381              		.align	2
 4382              	.LC26:
 4383 0044 256400   		.ascii	"%d\000"
 4384              		.section	.text._ZN14DisplayHandler16DrawIntParameterEPKci,"ax",%progbits
 4385              		.align	1
 4386              		.p2align 2,,3
 4387              		.global	_ZN14DisplayHandler16DrawIntParameterEPKci
 4388              		.syntax unified
 4389              		.thumb
 4390              		.thumb_func
 4391              		.fpu fpv5-d16
 4393              	_ZN14DisplayHandler16DrawIntParameterEPKci:
 4394              	.LVL351:
 4395              	.LFB2796:
 179:Display/displayHandler.cpp **** 
 180:Display/displayHandler.cpp **** void DisplayHandler::DrawIntParameter(const char* paramName, int value) {
 4396              		.loc 4 180 73 is_stmt 1 view -0
 4397              		.cfi_startproc
 4398              		@ args = 0, pretend = 0, frame = 16
 4399              		@ frame_needed = 0, uses_anonymous_args = 0
 181:Display/displayHandler.cpp ****     _displayPtr->Fill(false);
ARM GAS  C:\Users\skipi\AppData\Local\Temp\ccerdDJR.s 			page 109


 4400              		.loc 4 181 5 view .LVU1189
 180:Display/displayHandler.cpp ****     _displayPtr->Fill(false);
 4401              		.loc 4 180 73 is_stmt 0 view .LVU1190
 4402 0000 2DE9F041 		push	{r4, r5, r6, r7, r8, lr}
 4403              		.cfi_def_cfa_offset 24
 4404              		.cfi_offset 4, -24
 4405              		.cfi_offset 5, -20
 4406              		.cfi_offset 6, -16
 4407              		.cfi_offset 7, -12
 4408              		.cfi_offset 8, -8
 4409              		.cfi_offset 14, -4
 4410 0004 0446     		mov	r4, r0
 4411              		.loc 4 181 5 view .LVU1191
 4412 0006 0068     		ldr	r0, [r0]
 4413              	.LVL352:
 180:Display/displayHandler.cpp ****     _displayPtr->Fill(false);
 4414              		.loc 4 180 73 view .LVU1192
 4415 0008 1746     		mov	r7, r2
 4416 000a 7D4A     		ldr	r2, .L261
 4417              	.LVL353:
 4418              		.loc 4 181 28 view .LVU1193
 4419 000c 0368     		ldr	r3, [r0]
 180:Display/displayHandler.cpp ****     _displayPtr->Fill(false);
 4420              		.loc 4 180 73 view .LVU1194
 4421 000e 86B0     		sub	sp, sp, #24
 4422              		.cfi_def_cfa_offset 48
 180:Display/displayHandler.cpp ****     _displayPtr->Fill(false);
 4423              		.loc 4 180 73 view .LVU1195
 4424 0010 0E46     		mov	r6, r1
 4425              		.loc 4 181 28 view .LVU1196
 4426 0012 1B69     		ldr	r3, [r3, #16]
 4427 0014 9342     		cmp	r3, r2
 4428 0016 40F0D280 		bne	.L236
 4429              	.LBB441:
 4430              	.LBB442:
 4431              	.LBB443:
 375:Display/../../libs/PoliTeKDSP/libs/libDaisy/src/dev/oled_ssd130x.h ****         }
 4432              		.loc 2 375 24 view .LVU1197
 4433 001a 4FF48062 		mov	r2, #1024
 4434 001e 1030     		adds	r0, r0, #16
 4435 0020 0021     		movs	r1, #0
 4436              	.LVL354:
 375:Display/../../libs/PoliTeKDSP/libs/libDaisy/src/dev/oled_ssd130x.h ****         }
 4437              		.loc 2 375 24 view .LVU1198
 4438 0022 FFF7FEFF 		bl	memset
 4439              	.LVL355:
 4440              	.L237:
 4441              	.LBE443:
 4442              	.LBE442:
 4443              	.LBE441:
 182:Display/displayHandler.cpp ****     
 183:Display/displayHandler.cpp ****     _displayPtr->SetCursor(0, 0);
 4444              		.loc 4 183 5 is_stmt 1 view .LVU1199
 4445 0026 2568     		ldr	r5, [r4]
 4446              	.LVL356:
 4447              	.LBB444:
 4448              	.LBI444:
ARM GAS  C:\Users\skipi\AppData\Local\Temp\ccerdDJR.s 			page 110


 171:Display/../../libs/PoliTeKDSP/libs/libDaisy/src/hid/disp/display.h ****     {
 4449              		.loc 3 171 10 view .LVU1200
 4450              	.LBB445:
 173:Display/../../libs/PoliTeKDSP/libs/libDaisy/src/hid/disp/display.h ****         currentY_ = (y >= Height()) ? Height() - 1 : y;
 4451              		.loc 3 173 9 view .LVU1201
 173:Display/../../libs/PoliTeKDSP/libs/libDaisy/src/hid/disp/display.h ****         currentY_ = (y >= Height()) ? Height() - 1 : y;
 4452              		.loc 3 173 33 is_stmt 0 view .LVU1202
 4453 0028 2B68     		ldr	r3, [r5]
 173:Display/../../libs/PoliTeKDSP/libs/libDaisy/src/hid/disp/display.h ****         currentY_ = (y >= Height()) ? Height() - 1 : y;
 4454              		.loc 3 173 32 view .LVU1203
 4455 002a 2846     		mov	r0, r5
 4456 002c DB68     		ldr	r3, [r3, #12]
 4457 002e 9847     		blx	r3
 4458              	.LVL357:
 173:Display/../../libs/PoliTeKDSP/libs/libDaisy/src/hid/disp/display.h ****         currentY_ = (y >= Height()) ? Height() - 1 : y;
 4459              		.loc 3 173 19 view .LVU1204
 4460 0030 0028     		cmp	r0, #0
 4461 0032 6FD1     		bne	.L250
 173:Display/../../libs/PoliTeKDSP/libs/libDaisy/src/hid/disp/display.h ****         currentY_ = (y >= Height()) ? Height() - 1 : y;
 4462              		.loc 3 173 44 view .LVU1205
 4463 0034 2B68     		ldr	r3, [r5]
 173:Display/../../libs/PoliTeKDSP/libs/libDaisy/src/hid/disp/display.h ****         currentY_ = (y >= Height()) ? Height() - 1 : y;
 4464              		.loc 3 173 43 view .LVU1206
 4465 0036 2846     		mov	r0, r5
 4466 0038 DB68     		ldr	r3, [r3, #12]
 4467 003a 9847     		blx	r3
 4468              	.LVL358:
 173:Display/../../libs/PoliTeKDSP/libs/libDaisy/src/hid/disp/display.h ****         currentY_ = (y >= Height()) ? Height() - 1 : y;
 4469              		.loc 3 173 19 view .LVU1207
 4470 003c 0138     		subs	r0, r0, #1
 4471 003e 83B2     		uxth	r3, r0
 4472              	.L238:
 4473 0040 AB80     		strh	r3, [r5, #4]	@ movhi
 174:Display/../../libs/PoliTeKDSP/libs/libDaisy/src/hid/disp/display.h ****     }
 4474              		.loc 3 174 9 is_stmt 1 view .LVU1208
 174:Display/../../libs/PoliTeKDSP/libs/libDaisy/src/hid/disp/display.h ****     }
 4475              		.loc 3 174 33 is_stmt 0 view .LVU1209
 4476 0042 2846     		mov	r0, r5
 174:Display/../../libs/PoliTeKDSP/libs/libDaisy/src/hid/disp/display.h ****     }
 4477              		.loc 3 174 34 view .LVU1210
 4478 0044 2B68     		ldr	r3, [r5]
 174:Display/../../libs/PoliTeKDSP/libs/libDaisy/src/hid/disp/display.h ****     }
 4479              		.loc 3 174 33 view .LVU1211
 4480 0046 9B68     		ldr	r3, [r3, #8]
 4481 0048 9847     		blx	r3
 4482              	.LVL359:
 174:Display/../../libs/PoliTeKDSP/libs/libDaisy/src/hid/disp/display.h ****     }
 4483              		.loc 3 174 19 view .LVU1212
 4484 004a 0028     		cmp	r0, #0
 4485 004c 68D1     		bne	.L251
 174:Display/../../libs/PoliTeKDSP/libs/libDaisy/src/hid/disp/display.h ****     }
 4486              		.loc 3 174 46 view .LVU1213
 4487 004e 2B68     		ldr	r3, [r5]
 174:Display/../../libs/PoliTeKDSP/libs/libDaisy/src/hid/disp/display.h ****     }
 4488              		.loc 3 174 45 view .LVU1214
 4489 0050 2846     		mov	r0, r5
 4490 0052 9B68     		ldr	r3, [r3, #8]
ARM GAS  C:\Users\skipi\AppData\Local\Temp\ccerdDJR.s 			page 111


 4491 0054 9847     		blx	r3
 4492              	.LVL360:
 174:Display/../../libs/PoliTeKDSP/libs/libDaisy/src/hid/disp/display.h ****     }
 4493              		.loc 3 174 19 view .LVU1215
 4494 0056 0138     		subs	r0, r0, #1
 4495 0058 83B2     		uxth	r3, r0
 4496              	.L239:
 4497              	.LBE445:
 4498              	.LBE444:
 184:Display/displayHandler.cpp ****     _displayPtr->WriteString("EDITING:", Font_7x10, true);
 4499              		.loc 4 184 5 view .LVU1216
 4500 005a 2068     		ldr	r0, [r4]
 4501              		.loc 4 184 29 view .LVU1217
 4502 005c 0121     		movs	r1, #1
 4503              	.LBB449:
 4504              	.LBB446:
 174:Display/../../libs/PoliTeKDSP/libs/libDaisy/src/hid/disp/display.h ****     }
 4505              		.loc 3 174 19 view .LVU1218
 4506 005e EB80     		strh	r3, [r5, #6]	@ movhi
 4507              	.LVL361:
 174:Display/../../libs/PoliTeKDSP/libs/libDaisy/src/hid/disp/display.h ****     }
 4508              		.loc 3 174 19 view .LVU1219
 4509              	.LBE446:
 4510              	.LBE449:
 4511              		.loc 4 184 5 is_stmt 1 view .LVU1220
 4512              		.loc 4 184 57 is_stmt 0 view .LVU1221
 4513 0060 0268     		ldr	r2, [r0]
 4514              		.loc 4 184 29 view .LVU1222
 4515 0062 684B     		ldr	r3, .L261+4
 4516 0064 0091     		str	r1, [sp]
 4517 0066 6849     		ldr	r1, .L261+8
 4518 0068 956A     		ldr	r5, [r2, #40]
 4519 006a 0CCB     		ldm	r3, {r2, r3}
 4520 006c A847     		blx	r5
 4521              	.LVL362:
 185:Display/displayHandler.cpp ****     
 186:Display/displayHandler.cpp ****     _displayPtr->SetCursor(0, 15);
 4522              		.loc 4 186 5 is_stmt 1 view .LVU1223
 4523 006e 2568     		ldr	r5, [r4]
 4524              	.LVL363:
 4525              	.LBB450:
 4526              	.LBI450:
 171:Display/../../libs/PoliTeKDSP/libs/libDaisy/src/hid/disp/display.h ****     {
 4527              		.loc 3 171 10 view .LVU1224
 4528              	.LBB451:
 173:Display/../../libs/PoliTeKDSP/libs/libDaisy/src/hid/disp/display.h ****         currentY_ = (y >= Height()) ? Height() - 1 : y;
 4529              		.loc 3 173 9 view .LVU1225
 173:Display/../../libs/PoliTeKDSP/libs/libDaisy/src/hid/disp/display.h ****         currentY_ = (y >= Height()) ? Height() - 1 : y;
 4530              		.loc 3 173 33 is_stmt 0 view .LVU1226
 4531 0070 2B68     		ldr	r3, [r5]
 173:Display/../../libs/PoliTeKDSP/libs/libDaisy/src/hid/disp/display.h ****         currentY_ = (y >= Height()) ? Height() - 1 : y;
 4532              		.loc 3 173 32 view .LVU1227
 4533 0072 2846     		mov	r0, r5
 4534 0074 DB68     		ldr	r3, [r3, #12]
 4535 0076 9847     		blx	r3
 4536              	.LVL364:
 173:Display/../../libs/PoliTeKDSP/libs/libDaisy/src/hid/disp/display.h ****         currentY_ = (y >= Height()) ? Height() - 1 : y;
ARM GAS  C:\Users\skipi\AppData\Local\Temp\ccerdDJR.s 			page 112


 4537              		.loc 3 173 19 view .LVU1228
 4538 0078 0028     		cmp	r0, #0
 4539 007a 4FD1     		bne	.L252
 173:Display/../../libs/PoliTeKDSP/libs/libDaisy/src/hid/disp/display.h ****         currentY_ = (y >= Height()) ? Height() - 1 : y;
 4540              		.loc 3 173 44 view .LVU1229
 4541 007c 2B68     		ldr	r3, [r5]
 173:Display/../../libs/PoliTeKDSP/libs/libDaisy/src/hid/disp/display.h ****         currentY_ = (y >= Height()) ? Height() - 1 : y;
 4542              		.loc 3 173 43 view .LVU1230
 4543 007e 2846     		mov	r0, r5
 4544 0080 DB68     		ldr	r3, [r3, #12]
 4545 0082 9847     		blx	r3
 4546              	.LVL365:
 173:Display/../../libs/PoliTeKDSP/libs/libDaisy/src/hid/disp/display.h ****         currentY_ = (y >= Height()) ? Height() - 1 : y;
 4547              		.loc 3 173 19 view .LVU1231
 4548 0084 0138     		subs	r0, r0, #1
 4549 0086 83B2     		uxth	r3, r0
 4550              	.L240:
 4551 0088 AB80     		strh	r3, [r5, #4]	@ movhi
 174:Display/../../libs/PoliTeKDSP/libs/libDaisy/src/hid/disp/display.h ****     }
 4552              		.loc 3 174 9 is_stmt 1 view .LVU1232
 174:Display/../../libs/PoliTeKDSP/libs/libDaisy/src/hid/disp/display.h ****     }
 4553              		.loc 3 174 33 is_stmt 0 view .LVU1233
 4554 008a 2846     		mov	r0, r5
 174:Display/../../libs/PoliTeKDSP/libs/libDaisy/src/hid/disp/display.h ****     }
 4555              		.loc 3 174 34 view .LVU1234
 4556 008c 2B68     		ldr	r3, [r5]
 174:Display/../../libs/PoliTeKDSP/libs/libDaisy/src/hid/disp/display.h ****     }
 4557              		.loc 3 174 33 view .LVU1235
 4558 008e 9B68     		ldr	r3, [r3, #8]
 4559 0090 9847     		blx	r3
 4560              	.LVL366:
 174:Display/../../libs/PoliTeKDSP/libs/libDaisy/src/hid/disp/display.h ****     }
 4561              		.loc 3 174 19 view .LVU1236
 4562 0092 0F28     		cmp	r0, #15
 4563 0094 40D8     		bhi	.L253
 174:Display/../../libs/PoliTeKDSP/libs/libDaisy/src/hid/disp/display.h ****     }
 4564              		.loc 3 174 46 view .LVU1237
 4565 0096 2B68     		ldr	r3, [r5]
 174:Display/../../libs/PoliTeKDSP/libs/libDaisy/src/hid/disp/display.h ****     }
 4566              		.loc 3 174 45 view .LVU1238
 4567 0098 2846     		mov	r0, r5
 4568 009a 9B68     		ldr	r3, [r3, #8]
 4569 009c 9847     		blx	r3
 4570              	.LVL367:
 174:Display/../../libs/PoliTeKDSP/libs/libDaisy/src/hid/disp/display.h ****     }
 4571              		.loc 3 174 19 view .LVU1239
 4572 009e 0138     		subs	r0, r0, #1
 4573 00a0 83B2     		uxth	r3, r0
 4574              	.L241:
 4575              	.LBE451:
 4576              	.LBE450:
 187:Display/displayHandler.cpp ****     _displayPtr->WriteString(paramName, Font_11x18, true);
 4577              		.loc 4 187 5 view .LVU1240
 4578 00a2 2068     		ldr	r0, [r4]
 4579              		.loc 4 187 29 view .LVU1241
 4580 00a4 0122     		movs	r2, #1
 4581              	.LBB454:
ARM GAS  C:\Users\skipi\AppData\Local\Temp\ccerdDJR.s 			page 113


 4582              	.LBB452:
 174:Display/../../libs/PoliTeKDSP/libs/libDaisy/src/hid/disp/display.h ****     }
 4583              		.loc 3 174 19 view .LVU1242
 4584 00a6 EB80     		strh	r3, [r5, #6]	@ movhi
 4585              	.LVL368:
 174:Display/../../libs/PoliTeKDSP/libs/libDaisy/src/hid/disp/display.h ****     }
 4586              		.loc 3 174 19 view .LVU1243
 4587              	.LBE452:
 4588              	.LBE454:
 4589              		.loc 4 187 5 is_stmt 1 view .LVU1244
 4590              		.loc 4 187 29 is_stmt 0 view .LVU1245
 4591 00a8 3146     		mov	r1, r6
 4592              		.loc 4 187 57 view .LVU1246
 4593 00aa 0368     		ldr	r3, [r0]
 4594              		.loc 4 187 29 view .LVU1247
 4595 00ac DFF89481 		ldr	r8, .L261+68
 4596 00b0 0092     		str	r2, [sp]
 4597 00b2 9D6A     		ldr	r5, [r3, #40]
 4598 00b4 98E80C00 		ldm	r8, {r2, r3}
 4599 00b8 A847     		blx	r5
 4600              	.LVL369:
 188:Display/displayHandler.cpp **** 
 189:Display/displayHandler.cpp ****     char valBuffer[16];
 4601              		.loc 4 189 5 is_stmt 1 view .LVU1248
 190:Display/displayHandler.cpp **** 
 191:Display/displayHandler.cpp ****     if (strcmp(paramName, "ROOT") == 0) {
 4602              		.loc 4 191 5 view .LVU1249
 4603              	.LBB455:
 4604              		.loc 4 191 15 is_stmt 0 view .LVU1250
 4605 00ba 5449     		ldr	r1, .L261+12
 4606 00bc 3046     		mov	r0, r6
 4607 00be FFF7FEFF 		bl	strcmp
 4608              	.LVL370:
 4609              		.loc 4 191 5 view .LVU1251
 4610 00c2 0028     		cmp	r0, #0
 4611 00c4 69D0     		beq	.L257
 4612              	.LBE455:
 192:Display/displayHandler.cpp ****         static const char* notes[] = {"C", "C#", "D", "D#", "E", "F", "F#", "G", "G#", "A", "A#", "
 193:Display/displayHandler.cpp ****         sprintf(valBuffer, "%s", notes[value % 12]);
 194:Display/displayHandler.cpp ****     }
 195:Display/displayHandler.cpp ****     else if (strcmp(paramName, "SCALE") == 0) {
 4613              		.loc 4 195 10 is_stmt 1 view .LVU1252
 4614              	.LBB476:
 4615              	.LBB456:
 4616              		.loc 4 195 20 is_stmt 0 view .LVU1253
 4617 00c6 5249     		ldr	r1, .L261+16
 4618 00c8 3046     		mov	r0, r6
 4619 00ca FFF7FEFF 		bl	strcmp
 4620              	.LVL371:
 4621              		.loc 4 195 10 view .LVU1254
 4622 00ce 48B3     		cbz	r0, .L258
 4623              	.LBE456:
 4624              	.LBE476:
 196:Display/displayHandler.cpp ****         static const char* scales[] = {"Major", "MinorN", "MinorA", "MinorM", "Penta", "Chrom", "Es
 197:Display/displayHandler.cpp ****         sprintf(valBuffer, "%s", scales[value % 7]);
 198:Display/displayHandler.cpp ****     }
 199:Display/displayHandler.cpp ****     else if (strcmp(paramName, "PRESET") == 0) {
ARM GAS  C:\Users\skipi\AppData\Local\Temp\ccerdDJR.s 			page 114


 4625              		.loc 4 199 10 is_stmt 1 view .LVU1255
 4626              	.LBB477:
 4627              	.LBB470:
 4628              	.LBB457:
 4629              		.loc 4 199 20 is_stmt 0 view .LVU1256
 4630 00d0 5049     		ldr	r1, .L261+20
 4631 00d2 3046     		mov	r0, r6
 4632 00d4 FFF7FEFF 		bl	strcmp
 4633              	.LVL372:
 4634              		.loc 4 199 10 view .LVU1257
 4635 00d8 0028     		cmp	r0, #0
 4636 00da 7AD0     		beq	.L259
 4637              	.LBE457:
 4638              	.LBE470:
 4639              	.LBE477:
 200:Display/displayHandler.cpp ****         static const char* presets[] = {"Pad", "Pluck", "Roygbib"};
 201:Display/displayHandler.cpp ****         sprintf(valBuffer, "%s", presets[value % 3]);
 202:Display/displayHandler.cpp ****     }
 203:Display/displayHandler.cpp ****     else if (strcmp(paramName, "HYSTERESIS") == 0) {
 4640              		.loc 4 203 10 is_stmt 1 view .LVU1258
 4641              	.LBB478:
 4642              	.LBB471:
 4643              	.LBB466:
 4644              	.LBB458:
 4645              		.loc 4 203 20 is_stmt 0 view .LVU1259
 4646 00dc 4E49     		ldr	r1, .L261+24
 4647 00de 3046     		mov	r0, r6
 4648 00e0 FFF7FEFF 		bl	strcmp
 4649              	.LVL373:
 4650              		.loc 4 203 10 view .LVU1260
 4651 00e4 0028     		cmp	r0, #0
 4652 00e6 00F08480 		beq	.L260
 4653              	.LBE458:
 4654              	.LBE466:
 4655              	.LBE471:
 4656              	.LBE478:
 204:Display/displayHandler.cpp ****         sprintf(valBuffer, "%d %%", value); 
 205:Display/displayHandler.cpp ****     }
 206:Display/displayHandler.cpp ****     else if (strcmp(paramName, "FILTER TYPE") == 0) { 
 4657              		.loc 4 206 10 is_stmt 1 view .LVU1261
 4658              	.LBB479:
 4659              	.LBB472:
 4660              	.LBB467:
 4661              	.LBB462:
 4662              	.LBB459:
 4663              		.loc 4 206 20 is_stmt 0 view .LVU1262
 4664 00ea 4C49     		ldr	r1, .L261+28
 4665 00ec 3046     		mov	r0, r6
 4666 00ee FFF7FEFF 		bl	strcmp
 4667              	.LVL374:
 4668              		.loc 4 206 10 view .LVU1263
 4669 00f2 0028     		cmp	r0, #0
 4670 00f4 66D1     		bne	.L247
 4671              	.LBB460:
 207:Display/displayHandler.cpp ****         static const char* filters[] = {"Btrwth 2nd", "Btrwth 4th", "Bessel 2nd", "Bessel 4th"};
 4672              		.loc 4 207 9 is_stmt 1 view .LVU1264
 208:Display/displayHandler.cpp ****         sprintf(valBuffer, "%s", filters[value % 4]);
ARM GAS  C:\Users\skipi\AppData\Local\Temp\ccerdDJR.s 			page 115


 4673              		.loc 4 208 9 view .LVU1265
 4674              		.loc 4 208 48 is_stmt 0 view .LVU1266
 4675 00f6 7B42     		rsbs	r3, r7, #0
 4676              		.loc 4 208 16 view .LVU1267
 4677 00f8 494A     		ldr	r2, .L261+32
 4678              		.loc 4 208 48 view .LVU1268
 4679 00fa 07F00307 		and	r7, r7, #3
 4680              	.LVL375:
 4681              		.loc 4 208 16 view .LVU1269
 4682 00fe 02AE     		add	r6, sp, #8
 4683              	.LVL376:
 4684              		.loc 4 208 48 view .LVU1270
 4685 0100 03F00303 		and	r3, r3, #3
 4686              		.loc 4 208 16 view .LVU1271
 4687 0104 3046     		mov	r0, r6
 4688              		.loc 4 208 48 view .LVU1272
 4689 0106 58BF     		it	pl
 4690 0108 5F42     		rsbpl	r7, r3, #0
 4691              		.loc 4 208 16 view .LVU1273
 4692 010a 52F82710 		ldr	r1, [r2, r7, lsl #2]
 4693 010e FFF7FEFF 		bl	strcpy
 4694              	.LVL377:
 4695              	.LBE460:
 4696 0112 18E0     		b	.L243
 4697              	.LVL378:
 4698              	.L250:
 4699              		.loc 4 208 16 view .LVU1274
 4700              	.LBE459:
 4701              	.LBE462:
 4702              	.LBE467:
 4703              	.LBE472:
 4704              	.LBE479:
 4705              	.LBB480:
 4706              	.LBB447:
 173:Display/../../libs/PoliTeKDSP/libs/libDaisy/src/hid/disp/display.h ****         currentY_ = (y >= Height()) ? Height() - 1 : y;
 4707              		.loc 3 173 19 view .LVU1275
 4708 0114 0023     		movs	r3, #0
 4709 0116 93E7     		b	.L238
 4710              	.LVL379:
 4711              	.L253:
 173:Display/../../libs/PoliTeKDSP/libs/libDaisy/src/hid/disp/display.h ****         currentY_ = (y >= Height()) ? Height() - 1 : y;
 4712              		.loc 3 173 19 view .LVU1276
 4713              	.LBE447:
 4714              	.LBE480:
 4715              	.LBB481:
 4716              	.LBB453:
 174:Display/../../libs/PoliTeKDSP/libs/libDaisy/src/hid/disp/display.h ****     }
 4717              		.loc 3 174 19 view .LVU1277
 4718 0118 0F23     		movs	r3, #15
 4719 011a C2E7     		b	.L241
 4720              	.L252:
 173:Display/../../libs/PoliTeKDSP/libs/libDaisy/src/hid/disp/display.h ****         currentY_ = (y >= Height()) ? Height() - 1 : y;
 4721              		.loc 3 173 19 view .LVU1278
 4722 011c 0023     		movs	r3, #0
 4723 011e B3E7     		b	.L240
 4724              	.LVL380:
 4725              	.L251:
ARM GAS  C:\Users\skipi\AppData\Local\Temp\ccerdDJR.s 			page 116


 173:Display/../../libs/PoliTeKDSP/libs/libDaisy/src/hid/disp/display.h ****         currentY_ = (y >= Height()) ? Height() - 1 : y;
 4726              		.loc 3 173 19 view .LVU1279
 4727              	.LBE453:
 4728              	.LBE481:
 4729              	.LBB482:
 4730              	.LBB448:
 174:Display/../../libs/PoliTeKDSP/libs/libDaisy/src/hid/disp/display.h ****     }
 4731              		.loc 3 174 19 view .LVU1280
 4732 0120 0023     		movs	r3, #0
 4733 0122 9AE7     		b	.L239
 4734              	.LVL381:
 4735              	.L258:
 174:Display/../../libs/PoliTeKDSP/libs/libDaisy/src/hid/disp/display.h ****     }
 4736              		.loc 3 174 19 view .LVU1281
 4737              	.LBE448:
 4738              	.LBE482:
 4739              	.LBB483:
 4740              	.LBB473:
 4741              	.LBB468:
 196:Display/displayHandler.cpp ****         sprintf(valBuffer, "%s", scales[value % 7]);
 4742              		.loc 4 196 9 is_stmt 1 view .LVU1282
 197:Display/displayHandler.cpp ****     }
 4743              		.loc 4 197 9 view .LVU1283
 197:Display/displayHandler.cpp ****     }
 4744              		.loc 4 197 47 is_stmt 0 view .LVU1284
 4745 0124 3F4A     		ldr	r2, .L261+36
 4746 0126 FB17     		asrs	r3, r7, #31
 197:Display/displayHandler.cpp ****     }
 4747              		.loc 4 197 16 view .LVU1285
 4748 0128 3F49     		ldr	r1, .L261+40
 4749 012a 02AE     		add	r6, sp, #8
 4750              	.LVL382:
 197:Display/displayHandler.cpp ****     }
 4751              		.loc 4 197 47 view .LVU1286
 4752 012c 82FB0702 		smull	r0, r2, r2, r7
 197:Display/displayHandler.cpp ****     }
 4753              		.loc 4 197 16 view .LVU1287
 4754 0130 3046     		mov	r0, r6
 197:Display/displayHandler.cpp ****     }
 4755              		.loc 4 197 47 view .LVU1288
 4756 0132 3A44     		add	r2, r2, r7
 4757 0134 C3EBA203 		rsb	r3, r3, r2, asr #2
 4758 0138 C3EBC303 		rsb	r3, r3, r3, lsl #3
 4759 013c FF1A     		subs	r7, r7, r3
 4760              	.LVL383:
 197:Display/displayHandler.cpp ****     }
 4761              		.loc 4 197 16 view .LVU1289
 4762 013e 51F82710 		ldr	r1, [r1, r7, lsl #2]
 4763 0142 FFF7FEFF 		bl	strcpy
 4764              	.LVL384:
 4765              	.L243:
 197:Display/displayHandler.cpp ****     }
 4766              		.loc 4 197 16 view .LVU1290
 4767              	.LBE468:
 4768              	.LBE473:
 4769              	.LBE483:
 209:Display/displayHandler.cpp ****     }
ARM GAS  C:\Users\skipi\AppData\Local\Temp\ccerdDJR.s 			page 117


 210:Display/displayHandler.cpp ****     else {
 211:Display/displayHandler.cpp ****         sprintf(valBuffer, "%d", value);
 212:Display/displayHandler.cpp ****     }
 213:Display/displayHandler.cpp ****     
 214:Display/displayHandler.cpp ****     _displayPtr->SetCursor(0, 38);
 4770              		.loc 4 214 5 is_stmt 1 view .LVU1291
 4771 0146 2568     		ldr	r5, [r4]
 4772              	.LVL385:
 4773              	.LBB484:
 4774              	.LBI484:
 171:Display/../../libs/PoliTeKDSP/libs/libDaisy/src/hid/disp/display.h ****     {
 4775              		.loc 3 171 10 view .LVU1292
 4776              	.LBB485:
 173:Display/../../libs/PoliTeKDSP/libs/libDaisy/src/hid/disp/display.h ****         currentY_ = (y >= Height()) ? Height() - 1 : y;
 4777              		.loc 3 173 9 view .LVU1293
 173:Display/../../libs/PoliTeKDSP/libs/libDaisy/src/hid/disp/display.h ****         currentY_ = (y >= Height()) ? Height() - 1 : y;
 4778              		.loc 3 173 33 is_stmt 0 view .LVU1294
 4779 0148 2B68     		ldr	r3, [r5]
 173:Display/../../libs/PoliTeKDSP/libs/libDaisy/src/hid/disp/display.h ****         currentY_ = (y >= Height()) ? Height() - 1 : y;
 4780              		.loc 3 173 32 view .LVU1295
 4781 014a 2846     		mov	r0, r5
 4782 014c DB68     		ldr	r3, [r3, #12]
 4783 014e 9847     		blx	r3
 4784              	.LVL386:
 173:Display/../../libs/PoliTeKDSP/libs/libDaisy/src/hid/disp/display.h ****         currentY_ = (y >= Height()) ? Height() - 1 : y;
 4785              		.loc 3 173 19 view .LVU1296
 4786 0150 F8B9     		cbnz	r0, .L254
 173:Display/../../libs/PoliTeKDSP/libs/libDaisy/src/hid/disp/display.h ****         currentY_ = (y >= Height()) ? Height() - 1 : y;
 4787              		.loc 3 173 44 view .LVU1297
 4788 0152 2B68     		ldr	r3, [r5]
 173:Display/../../libs/PoliTeKDSP/libs/libDaisy/src/hid/disp/display.h ****         currentY_ = (y >= Height()) ? Height() - 1 : y;
 4789              		.loc 3 173 43 view .LVU1298
 4790 0154 2846     		mov	r0, r5
 4791 0156 DB68     		ldr	r3, [r3, #12]
 4792 0158 9847     		blx	r3
 4793              	.LVL387:
 173:Display/../../libs/PoliTeKDSP/libs/libDaisy/src/hid/disp/display.h ****         currentY_ = (y >= Height()) ? Height() - 1 : y;
 4794              		.loc 3 173 19 view .LVU1299
 4795 015a 0138     		subs	r0, r0, #1
 4796 015c 83B2     		uxth	r3, r0
 4797              	.L248:
 4798 015e AB80     		strh	r3, [r5, #4]	@ movhi
 174:Display/../../libs/PoliTeKDSP/libs/libDaisy/src/hid/disp/display.h ****     }
 4799              		.loc 3 174 9 is_stmt 1 view .LVU1300
 174:Display/../../libs/PoliTeKDSP/libs/libDaisy/src/hid/disp/display.h ****     }
 4800              		.loc 3 174 33 is_stmt 0 view .LVU1301
 4801 0160 2846     		mov	r0, r5
 174:Display/../../libs/PoliTeKDSP/libs/libDaisy/src/hid/disp/display.h ****     }
 4802              		.loc 3 174 34 view .LVU1302
 4803 0162 2B68     		ldr	r3, [r5]
 174:Display/../../libs/PoliTeKDSP/libs/libDaisy/src/hid/disp/display.h ****     }
 4804              		.loc 3 174 33 view .LVU1303
 4805 0164 9B68     		ldr	r3, [r3, #8]
 4806 0166 9847     		blx	r3
 4807              	.LVL388:
 174:Display/../../libs/PoliTeKDSP/libs/libDaisy/src/hid/disp/display.h ****     }
 4808              		.loc 3 174 19 view .LVU1304
ARM GAS  C:\Users\skipi\AppData\Local\Temp\ccerdDJR.s 			page 118


 4809 0168 2628     		cmp	r0, #38
 4810 016a 14D8     		bhi	.L255
 174:Display/../../libs/PoliTeKDSP/libs/libDaisy/src/hid/disp/display.h ****     }
 4811              		.loc 3 174 46 view .LVU1305
 4812 016c 2B68     		ldr	r3, [r5]
 174:Display/../../libs/PoliTeKDSP/libs/libDaisy/src/hid/disp/display.h ****     }
 4813              		.loc 3 174 45 view .LVU1306
 4814 016e 2846     		mov	r0, r5
 4815 0170 9B68     		ldr	r3, [r3, #8]
 4816 0172 9847     		blx	r3
 4817              	.LVL389:
 174:Display/../../libs/PoliTeKDSP/libs/libDaisy/src/hid/disp/display.h ****     }
 4818              		.loc 3 174 19 view .LVU1307
 4819 0174 0138     		subs	r0, r0, #1
 4820 0176 83B2     		uxth	r3, r0
 4821              	.L249:
 4822              	.LBE485:
 4823              	.LBE484:
 215:Display/displayHandler.cpp ****     _displayPtr->WriteString(valBuffer, Font_11x18, true); 
 4824              		.loc 4 215 5 view .LVU1308
 4825 0178 2068     		ldr	r0, [r4]
 4826              		.loc 4 215 29 view .LVU1309
 4827 017a 0121     		movs	r1, #1
 4828              	.LBB488:
 4829              	.LBB486:
 174:Display/../../libs/PoliTeKDSP/libs/libDaisy/src/hid/disp/display.h ****     }
 4830              		.loc 3 174 19 view .LVU1310
 4831 017c EB80     		strh	r3, [r5, #6]	@ movhi
 4832              	.LVL390:
 174:Display/../../libs/PoliTeKDSP/libs/libDaisy/src/hid/disp/display.h ****     }
 4833              		.loc 3 174 19 view .LVU1311
 4834              	.LBE486:
 4835              	.LBE488:
 4836              		.loc 4 215 5 is_stmt 1 view .LVU1312
 4837              		.loc 4 215 57 is_stmt 0 view .LVU1313
 4838 017e 0468     		ldr	r4, [r0]
 4839              	.LVL391:
 4840              		.loc 4 215 29 view .LVU1314
 4841 0180 0091     		str	r1, [sp]
 4842 0182 3146     		mov	r1, r6
 4843 0184 A46A     		ldr	r4, [r4, #40]
 4844 0186 98E80C00 		ldm	r8, {r2, r3}
 4845 018a A047     		blx	r4
 4846              	.LVL392:
 216:Display/displayHandler.cpp **** }...
 4847              		.loc 4 216 1 view .LVU1315
 4848 018c 06B0     		add	sp, sp, #24
 4849              		.cfi_remember_state
 4850              		.cfi_def_cfa_offset 24
 4851              		@ sp needed
 4852 018e BDE8F081 		pop	{r4, r5, r6, r7, r8, pc}
 4853              	.LVL393:
 4854              	.L254:
 4855              		.cfi_restore_state
 4856              	.LBB489:
 4857              	.LBB487:
 173:Display/../../libs/PoliTeKDSP/libs/libDaisy/src/hid/disp/display.h ****         currentY_ = (y >= Height()) ? Height() - 1 : y;
ARM GAS  C:\Users\skipi\AppData\Local\Temp\ccerdDJR.s 			page 119


 4858              		.loc 3 173 19 view .LVU1316
 4859 0192 0023     		movs	r3, #0
 4860 0194 E3E7     		b	.L248
 4861              	.L255:
 174:Display/../../libs/PoliTeKDSP/libs/libDaisy/src/hid/disp/display.h ****     }
 4862              		.loc 3 174 19 view .LVU1317
 4863 0196 2623     		movs	r3, #38
 4864 0198 EEE7     		b	.L249
 4865              	.LVL394:
 4866              	.L257:
 174:Display/../../libs/PoliTeKDSP/libs/libDaisy/src/hid/disp/display.h ****     }
 4867              		.loc 3 174 19 view .LVU1318
 4868              	.LBE487:
 4869              	.LBE489:
 4870              	.LBB490:
 4871              	.LBB474:
 192:Display/displayHandler.cpp ****         static const char* notes[] = {"C", "C#", "D", "D#", "E", "F", "F#", "G", "G#", "A", "A#", "
 4872              		.loc 4 192 9 is_stmt 1 view .LVU1319
 193:Display/displayHandler.cpp ****         sprintf(valBuffer, "%s", notes[value % 12]);
 4873              		.loc 4 193 9 view .LVU1320
 193:Display/displayHandler.cpp ****         sprintf(valBuffer, "%s", notes[value % 12]);
 4874              		.loc 4 193 46 is_stmt 0 view .LVU1321
 4875 019a 244A     		ldr	r2, .L261+44
 4876 019c FB17     		asrs	r3, r7, #31
 193:Display/displayHandler.cpp ****         sprintf(valBuffer, "%s", notes[value % 12]);
 4877              		.loc 4 193 16 view .LVU1322
 4878 019e 02AE     		add	r6, sp, #8
 4879              	.LVL395:
 193:Display/displayHandler.cpp ****         sprintf(valBuffer, "%s", notes[value % 12]);
 4880              		.loc 4 193 16 view .LVU1323
 4881 01a0 2349     		ldr	r1, .L261+48
 193:Display/displayHandler.cpp ****         sprintf(valBuffer, "%s", notes[value % 12]);
 4882              		.loc 4 193 46 view .LVU1324
 4883 01a2 82FB0702 		smull	r0, r2, r2, r7
 193:Display/displayHandler.cpp ****         sprintf(valBuffer, "%s", notes[value % 12]);
 4884              		.loc 4 193 16 view .LVU1325
 4885 01a6 3046     		mov	r0, r6
 193:Display/displayHandler.cpp ****         sprintf(valBuffer, "%s", notes[value % 12]);
 4886              		.loc 4 193 46 view .LVU1326
 4887 01a8 C3EB6203 		rsb	r3, r3, r2, asr #1
 4888 01ac 03EB4303 		add	r3, r3, r3, lsl #1
 4889 01b0 A7EB8307 		sub	r7, r7, r3, lsl #2
 4890              	.LVL396:
 193:Display/displayHandler.cpp ****         sprintf(valBuffer, "%s", notes[value % 12]);
 4891              		.loc 4 193 16 view .LVU1327
 4892 01b4 51F82710 		ldr	r1, [r1, r7, lsl #2]
 4893 01b8 FFF7FEFF 		bl	strcpy
 4894              	.LVL397:
 4895              	.LBE474:
 4896 01bc C3E7     		b	.L243
 4897              	.LVL398:
 4898              	.L236:
 193:Display/displayHandler.cpp ****         sprintf(valBuffer, "%s", notes[value % 12]);
 4899              		.loc 4 193 16 view .LVU1328
 4900              	.LBE490:
 181:Display/displayHandler.cpp ****     _displayPtr->Fill(false);
 4901              		.loc 4 181 22 view .LVU1329
ARM GAS  C:\Users\skipi\AppData\Local\Temp\ccerdDJR.s 			page 120


 4902 01be 0021     		movs	r1, #0
 4903              	.LVL399:
 181:Display/displayHandler.cpp ****     _displayPtr->Fill(false);
 4904              		.loc 4 181 22 view .LVU1330
 4905 01c0 9847     		blx	r3
 4906              	.LVL400:
 4907 01c2 30E7     		b	.L237
 4908              	.L247:
 4909              	.LBB491:
 4910              	.LBB475:
 4911              	.LBB469:
 4912              	.LBB463:
 4913              	.LBB461:
 211:Display/displayHandler.cpp ****         sprintf(valBuffer, "%d", value);
 4914              		.loc 4 211 9 is_stmt 1 view .LVU1331
 211:Display/displayHandler.cpp ****         sprintf(valBuffer, "%d", value);
 4915              		.loc 4 211 16 is_stmt 0 view .LVU1332
 4916 01c4 02AE     		add	r6, sp, #8
 4917              	.LVL401:
 211:Display/displayHandler.cpp ****         sprintf(valBuffer, "%d", value);
 4918              		.loc 4 211 16 view .LVU1333
 4919 01c6 3A46     		mov	r2, r7
 4920 01c8 1A49     		ldr	r1, .L261+52
 4921 01ca 3046     		mov	r0, r6
 4922 01cc FFF7FEFF 		bl	sprintf
 4923              	.LVL402:
 4924 01d0 B9E7     		b	.L243
 4925              	.LVL403:
 4926              	.L259:
 211:Display/displayHandler.cpp ****         sprintf(valBuffer, "%d", value);
 4927              		.loc 4 211 16 view .LVU1334
 4928              	.LBE461:
 4929              	.LBE463:
 4930              	.LBB464:
 200:Display/displayHandler.cpp ****         static const char* presets[] = {"Pad", "Pluck", "Roygbib"};
 4931              		.loc 4 200 9 is_stmt 1 view .LVU1335
 201:Display/displayHandler.cpp ****         sprintf(valBuffer, "%s", presets[value % 3]);
 4932              		.loc 4 201 9 view .LVU1336
 201:Display/displayHandler.cpp ****         sprintf(valBuffer, "%s", presets[value % 3]);
 4933              		.loc 4 201 48 is_stmt 0 view .LVU1337
 4934 01d2 194B     		ldr	r3, .L261+56
 201:Display/displayHandler.cpp ****         sprintf(valBuffer, "%s", presets[value % 3]);
 4935              		.loc 4 201 16 view .LVU1338
 4936 01d4 02AE     		add	r6, sp, #8
 4937              	.LVL404:
 201:Display/displayHandler.cpp ****         sprintf(valBuffer, "%s", presets[value % 3]);
 4938              		.loc 4 201 16 view .LVU1339
 4939 01d6 194A     		ldr	r2, .L261+60
 201:Display/displayHandler.cpp ****         sprintf(valBuffer, "%s", presets[value % 3]);
 4940              		.loc 4 201 48 view .LVU1340
 4941 01d8 83FB0713 		smull	r1, r3, r3, r7
 201:Display/displayHandler.cpp ****         sprintf(valBuffer, "%s", presets[value % 3]);
 4942              		.loc 4 201 16 view .LVU1341
 4943 01dc 3046     		mov	r0, r6
 201:Display/displayHandler.cpp ****         sprintf(valBuffer, "%s", presets[value % 3]);
 4944              		.loc 4 201 48 view .LVU1342
 4945 01de A3EBE773 		sub	r3, r3, r7, asr #31
ARM GAS  C:\Users\skipi\AppData\Local\Temp\ccerdDJR.s 			page 121


 4946 01e2 03EB4303 		add	r3, r3, r3, lsl #1
 4947 01e6 FF1A     		subs	r7, r7, r3
 4948              	.LVL405:
 201:Display/displayHandler.cpp ****         sprintf(valBuffer, "%s", presets[value % 3]);
 4949              		.loc 4 201 16 view .LVU1343
 4950 01e8 52F82710 		ldr	r1, [r2, r7, lsl #2]
 4951 01ec FFF7FEFF 		bl	strcpy
 4952              	.LVL406:
 4953              	.LBE464:
 4954 01f0 A9E7     		b	.L243
 4955              	.LVL407:
 4956              	.L260:
 4957              	.LBB465:
 204:Display/displayHandler.cpp ****         sprintf(valBuffer, "%d %%", value); 
 4958              		.loc 4 204 9 is_stmt 1 view .LVU1344
 204:Display/displayHandler.cpp ****         sprintf(valBuffer, "%d %%", value); 
 4959              		.loc 4 204 16 is_stmt 0 view .LVU1345
 4960 01f2 02AE     		add	r6, sp, #8
 4961              	.LVL408:
 204:Display/displayHandler.cpp ****         sprintf(valBuffer, "%d %%", value); 
 4962              		.loc 4 204 16 view .LVU1346
 4963 01f4 3A46     		mov	r2, r7
 4964 01f6 1249     		ldr	r1, .L261+64
 4965 01f8 3046     		mov	r0, r6
 4966 01fa FFF7FEFF 		bl	sprintf
 4967              	.LVL409:
 4968 01fe A2E7     		b	.L243
 4969              	.L262:
 4970              		.align	2
 4971              	.L261:
 4972 0200 00000000 		.word	_ZN5daisy11OledDisplayINS_13SSD130xDriverILj128ELj64ENS_19SSD130xI2CTransportEEEE4FillEb
 4973 0204 00000000 		.word	Font_7x10
 4974 0208 00000000 		.word	.LC19
 4975 020c 0C000000 		.word	.LC20
 4976 0210 14000000 		.word	.LC21
 4977 0214 1C000000 		.word	.LC22
 4978 0218 24000000 		.word	.LC23
 4979 021c 38000000 		.word	.LC25
 4980 0220 00000000 		.word	.LANCHOR4
 4981 0224 93244992 		.word	-1840700269
 4982 0228 00000000 		.word	.LANCHOR2
 4983 022c ABAAAA2A 		.word	715827883
 4984 0230 00000000 		.word	.LANCHOR1
 4985 0234 44000000 		.word	.LC26
 4986 0238 56555555 		.word	1431655766
 4987 023c 00000000 		.word	.LANCHOR3
 4988 0240 30000000 		.word	.LC24
 4989 0244 00000000 		.word	Font_11x18
 4990              	.LBE465:
 4991              	.LBE469:
 4992              	.LBE475:
 4993              	.LBE491:
 4994              		.cfi_endproc
 4995              	.LFE2796:
 4997              		.section	.rodata.str1.4,"aMS",%progbits,1
 4998              		.align	2
 4999              	.LC27:
ARM GAS  C:\Users\skipi\AppData\Local\Temp\ccerdDJR.s 			page 122


 5000 0000 42747277 		.ascii	"Btrwth 2nd\000"
 5000      74682032 
 5000      6E6400
 5001 000b 00       		.align	2
 5002              	.LC28:
 5003 000c 42747277 		.ascii	"Btrwth 4th\000"
 5003      74682034 
 5003      746800
 5004 0017 00       		.align	2
 5005              	.LC29:
 5006 0018 42657373 		.ascii	"Bessel 2nd\000"
 5006      656C2032 
 5006      6E6400
 5007 0023 00       		.align	2
 5008              	.LC30:
 5009 0024 42657373 		.ascii	"Bessel 4th\000"
 5009      656C2034 
 5009      746800
 5010 002f 00       		.align	2
 5011              	.LC31:
 5012 0030 50616400 		.ascii	"Pad\000"
 5013              		.align	2
 5014              	.LC32:
 5015 0034 506C7563 		.ascii	"Pluck\000"
 5015      6B00
 5016 003a 0000     		.align	2
 5017              	.LC33:
 5018 003c 526F7967 		.ascii	"Roygbib\000"
 5018      62696200 
 5019              		.align	2
 5020              	.LC34:
 5021 0044 4D616A6F 		.ascii	"Major\000"
 5021      7200
 5022 004a 0000     		.align	2
 5023              	.LC35:
 5024 004c 4D696E6F 		.ascii	"MinorN\000"
 5024      724E00
 5025 0053 00       		.align	2
 5026              	.LC36:
 5027 0054 4D696E6F 		.ascii	"MinorA\000"
 5027      724100
 5028 005b 00       		.align	2
 5029              	.LC37:
 5030 005c 4D696E6F 		.ascii	"MinorM\000"
 5030      724D00
 5031 0063 00       		.align	2
 5032              	.LC38:
 5033 0064 50656E74 		.ascii	"Penta\000"
 5033      6100
 5034 006a 0000     		.align	2
 5035              	.LC39:
 5036 006c 4368726F 		.ascii	"Chrom\000"
 5036      6D00
 5037 0072 0000     		.align	2
 5038              	.LC40:
 5039 0074 45736174 		.ascii	"Esat\000"
 5039      00
ARM GAS  C:\Users\skipi\AppData\Local\Temp\ccerdDJR.s 			page 123


 5040 0079 000000   		.align	2
 5041              	.LC41:
 5042 007c 4300     		.ascii	"C\000"
 5043 007e 0000     		.align	2
 5044              	.LC42:
 5045 0080 432300   		.ascii	"C#\000"
 5046 0083 00       		.align	2
 5047              	.LC43:
 5048 0084 4400     		.ascii	"D\000"
 5049 0086 0000     		.align	2
 5050              	.LC44:
 5051 0088 442300   		.ascii	"D#\000"
 5052 008b 00       		.align	2
 5053              	.LC45:
 5054 008c 4500     		.ascii	"E\000"
 5055 008e 0000     		.align	2
 5056              	.LC46:
 5057 0090 4600     		.ascii	"F\000"
 5058 0092 0000     		.align	2
 5059              	.LC47:
 5060 0094 462300   		.ascii	"F#\000"
 5061 0097 00       		.align	2
 5062              	.LC48:
 5063 0098 4700     		.ascii	"G\000"
 5064 009a 0000     		.align	2
 5065              	.LC49:
 5066 009c 472300   		.ascii	"G#\000"
 5067 009f 00       		.align	2
 5068              	.LC50:
 5069 00a0 4100     		.ascii	"A\000"
 5070 00a2 0000     		.align	2
 5071              	.LC51:
 5072 00a4 412300   		.ascii	"A#\000"
 5073 00a7 00       		.align	2
 5074              	.LC52:
 5075 00a8 4200     		.ascii	"B\000"
 5076              		.section	.bss._ZZN14DisplayHandler11findTriggerEvE7trigIdx,"aw",%nobits
 5077              		.align	2
 5078              		.set	.LANCHOR0,. + 0
 5081              	_ZZN14DisplayHandler11findTriggerEvE7trigIdx:
 5082 0000 00000000 		.space	4
 5083              		.section	.rodata._ZZN14DisplayHandler16DrawIntParameterEPKciE5notes,"a"
 5084              		.align	2
 5085              		.set	.LANCHOR1,. + 0
 5088              	_ZZN14DisplayHandler16DrawIntParameterEPKciE5notes:
 5089 0000 7C000000 		.word	.LC41
 5090 0004 80000000 		.word	.LC42
 5091 0008 84000000 		.word	.LC43
 5092 000c 88000000 		.word	.LC44
 5093 0010 8C000000 		.word	.LC45
 5094 0014 90000000 		.word	.LC46
 5095 0018 94000000 		.word	.LC47
 5096 001c 98000000 		.word	.LC48
 5097 0020 9C000000 		.word	.LC49
 5098 0024 A0000000 		.word	.LC50
 5099 0028 A4000000 		.word	.LC51
 5100 002c A8000000 		.word	.LC52
ARM GAS  C:\Users\skipi\AppData\Local\Temp\ccerdDJR.s 			page 124


 5101              		.section	.rodata._ZZN14DisplayHandler16DrawIntParameterEPKciE6scales,"a"
 5102              		.align	2
 5103              		.set	.LANCHOR2,. + 0
 5106              	_ZZN14DisplayHandler16DrawIntParameterEPKciE6scales:
 5107 0000 44000000 		.word	.LC34
 5108 0004 4C000000 		.word	.LC35
 5109 0008 54000000 		.word	.LC36
 5110 000c 5C000000 		.word	.LC37
 5111 0010 64000000 		.word	.LC38
 5112 0014 6C000000 		.word	.LC39
 5113 0018 74000000 		.word	.LC40
 5114              		.section	.rodata._ZZN14DisplayHandler16DrawIntParameterEPKciE7filters,"a"
 5115              		.align	2
 5116              		.set	.LANCHOR4,. + 0
 5119              	_ZZN14DisplayHandler16DrawIntParameterEPKciE7filters:
 5120 0000 00000000 		.word	.LC27
 5121 0004 0C000000 		.word	.LC28
 5122 0008 18000000 		.word	.LC29
 5123 000c 24000000 		.word	.LC30
 5124              		.section	.rodata._ZZN14DisplayHandler16DrawIntParameterEPKciE7presets,"a"
 5125              		.align	2
 5126              		.set	.LANCHOR3,. + 0
 5129              	_ZZN14DisplayHandler16DrawIntParameterEPKciE7presets:
 5130 0000 30000000 		.word	.LC31
 5131 0004 34000000 		.word	.LC32
 5132 0008 3C000000 		.word	.LC33
 5133              		.text
 5134              	.Letext0:
 5135              		.file 5 "c:\\program files\\daisytoolchain\\arm-none-eabi\\include\\machine\\_default_types.h"
 5136              		.file 6 "c:\\program files\\daisytoolchain\\arm-none-eabi\\include\\sys\\_stdint.h"
 5137              		.file 7 "c:\\program files\\daisytoolchain\\arm-none-eabi\\include\\stdint.h"
 5138              		.file 8 "c:\\program files\\daisytoolchain\\lib\\gcc\\arm-none-eabi\\10.2.1\\include\\stddef.h"
 5139              		.file 9 "c:\\program files\\daisytoolchain\\arm-none-eabi\\include\\c++\\10.2.1\\cmath"
 5140              		.file 10 "c:\\program files\\daisytoolchain\\arm-none-eabi\\include\\c++\\10.2.1\\bits\\std_abs.h"
 5141              		.file 11 "c:\\program files\\daisytoolchain\\arm-none-eabi\\include\\c++\\10.2.1\\cstdlib"
 5142              		.file 12 "c:\\program files\\daisytoolchain\\arm-none-eabi\\include\\c++\\10.2.1\\cstdint"
 5143              		.file 13 "c:\\program files\\daisytoolchain\\arm-none-eabi\\include\\c++\\10.2.1\\type_traits"
 5144              		.file 14 "c:\\program files\\daisytoolchain\\arm-none-eabi\\include\\c++\\10.2.1\\debug\\debug.h"
 5145              		.file 15 "c:\\program files\\daisytoolchain\\arm-none-eabi\\include\\c++\\10.2.1\\arm-none-eabi\\t
 5146              		.file 16 "c:\\program files\\daisytoolchain\\arm-none-eabi\\include\\c++\\10.2.1\\bits\\algorithmf
 5147              		.file 17 "c:\\program files\\daisytoolchain\\arm-none-eabi\\include\\c++\\10.2.1\\bits\\stl_pair.h
 5148              		.file 18 "c:\\program files\\daisytoolchain\\arm-none-eabi\\include\\c++\\10.2.1\\bits\\exception_
 5149              		.file 19 "c:\\program files\\daisytoolchain\\arm-none-eabi\\include\\c++\\10.2.1\\cstdarg"
 5150              		.file 20 "c:\\program files\\daisytoolchain\\arm-none-eabi\\include\\c++\\10.2.1\\cstdio"
 5151              		.file 21 "c:\\program files\\daisytoolchain\\arm-none-eabi\\include\\c++\\10.2.1\\cstring"
 5152              		.file 22 "c:\\program files\\daisytoolchain\\arm-none-eabi\\include\\c++\\10.2.1\\cstddef"
 5153              		.file 23 "c:\\program files\\daisytoolchain\\arm-none-eabi\\include\\c++\\10.2.1\\bits\\predefined
 5154              		.file 24 "c:\\program files\\daisytoolchain\\arm-none-eabi\\include\\sys\\_types.h"
 5155              		.file 25 "c:\\program files\\daisytoolchain\\arm-none-eabi\\include\\sys\\reent.h"
 5156              		.file 26 "c:\\program files\\daisytoolchain\\arm-none-eabi\\include\\sys\\lock.h"
 5157              		.file 27 "c:\\program files\\daisytoolchain\\arm-none-eabi\\include\\math.h"
 5158              		.file 28 "c:\\program files\\daisytoolchain\\arm-none-eabi\\include\\stdlib.h"
 5159              		.file 29 "c:\\program files\\daisytoolchain\\arm-none-eabi\\include\\c++\\10.2.1\\math.h"
 5160              		.file 30 "c:\\program files\\daisytoolchain\\arm-none-eabi\\include\\c++\\10.2.1\\stdlib.h"
 5161              		.file 31 "../libs/PoliTeKDSP/libs/libDaisy/src/daisy_core.h"
 5162              		.file 32 "../libs/PoliTeKDSP/libs/libDaisy/src/per/i2c.h"
 5163              		.file 33 "Display/../../libs/PoliTeKDSP/libs/libDaisy/src/hid/disp/graphics_common.h"
ARM GAS  C:\Users\skipi\AppData\Local\Temp\ccerdDJR.s 			page 125


 5164              		.file 34 "Display/../../libs/PoliTeKDSP/libs/libDaisy/src/dev/max11300.h"
 5165              		.file 35 "Display/../../libs/PoliTeKDSP/libs/libDaisy/src/dev/sr_595.h"
 5166              		.file 36 "../libs/PoliTeKDSP/libs/libDaisy/src/util/wav_format.h"
 5167              		.file 37 "Display/../../libs/PoliTeKDSP/libs/libDaisy/src/daisy_seed.h"
 5168              		.file 38 "c:\\program files\\daisytoolchain\\lib\\gcc\\arm-none-eabi\\10.2.1\\include\\stdarg.h"
 5169              		.file 39 "c:\\program files\\daisytoolchain\\arm-none-eabi\\include\\stdio.h"
 5170              		.file 40 "../libs/PoliTeKDSP/libs/libDaisy/src/util/oled_fonts.h"
 5171              		.file 41 "c:\\program files\\daisytoolchain\\arm-none-eabi\\include\\string.h"
 5172              		.file 42 "../libs/PoliTeKDSP/libs/libDaisy/Middlewares/Third_Party/FatFs/src/integer.h"
 5173              		.file 43 "../libs/PoliTeKDSP/libs/libDaisy/Middlewares/Third_Party/FatFs/src/ff.h"
 5174              		.file 44 "Display/displayHandler.h"
 5175              		.file 45 "<built-in>"
ARM GAS  C:\Users\skipi\AppData\Local\Temp\ccerdDJR.s 			page 126


DEFINED SYMBOLS
                            *ABS*:00000000 displayHandler.cpp
C:\Users\skipi\AppData\Local\Temp\ccerdDJR.s:17     .text._ZN5daisy11OledDisplayINS_13SSD130xDriverILj128ELj64ENS_19SSD130xI2CTransportEEEE4FillEb:00000000 $t
C:\Users\skipi\AppData\Local\Temp\ccerdDJR.s:26     .text._ZN5daisy11OledDisplayINS_13SSD130xDriverILj128ELj64ENS_19SSD130xI2CTransportEEEE4FillEb:00000000 _ZN5daisy11OledDisplayINS_13SSD130xDriverILj128ELj64ENS_19SSD130xI2CTransportEEEE4FillEb
C:\Users\skipi\AppData\Local\Temp\ccerdDJR.s:59     .text._ZN5daisy11OledDisplayINS_13SSD130xDriverILj128ELj64ENS_19SSD130xI2CTransportEEEE6UpdateEv:00000000 $t
C:\Users\skipi\AppData\Local\Temp\ccerdDJR.s:67     .text._ZN5daisy11OledDisplayINS_13SSD130xDriverILj128ELj64ENS_19SSD130xI2CTransportEEEE6UpdateEv:00000000 _ZN5daisy11OledDisplayINS_13SSD130xDriverILj128ELj64ENS_19SSD130xI2CTransportEEEE6UpdateEv
C:\Users\skipi\AppData\Local\Temp\ccerdDJR.s:250    .text._ZN5daisy25OneBitGraphicsDisplayImplINS_11OledDisplayINS_13SSD130xDriverILj128ELj64ENS_19SSD130xI2CTransportEEEEEE8DrawLineEjjjjb:00000000 $t
C:\Users\skipi\AppData\Local\Temp\ccerdDJR.s:258    .text._ZN5daisy25OneBitGraphicsDisplayImplINS_11OledDisplayINS_13SSD130xDriverILj128ELj64ENS_19SSD130xI2CTransportEEEEEE8DrawLineEjjjjb:00000000 _ZN5daisy25OneBitGraphicsDisplayImplINS_11OledDisplayINS_13SSD130xDriverILj128ELj64ENS_19SSD130xI2CTransportEEEEEE8DrawLineEjjjjb
C:\Users\skipi\AppData\Local\Temp\ccerdDJR.s:544    .rodata._ZN14DisplayHandlerC2EPN5daisy11OledDisplayINS0_13SSD130xDriverILj128ELj64ENS0_19SSD130xI2CTransportEEEEEb.str1.4:00000000 $d
C:\Users\skipi\AppData\Local\Temp\ccerdDJR.s:548    .text._ZN14DisplayHandlerC2EPN5daisy11OledDisplayINS0_13SSD130xDriverILj128ELj64ENS0_19SSD130xI2CTransportEEEEEb:00000000 $t
C:\Users\skipi\AppData\Local\Temp\ccerdDJR.s:556    .text._ZN14DisplayHandlerC2EPN5daisy11OledDisplayINS0_13SSD130xDriverILj128ELj64ENS0_19SSD130xI2CTransportEEEEEb:00000000 _ZN14DisplayHandlerC2EPN5daisy11OledDisplayINS0_13SSD130xDriverILj128ELj64ENS0_19SSD130xI2CTransportEEEEEb
C:\Users\skipi\AppData\Local\Temp\ccerdDJR.s:648    .text._ZN14DisplayHandlerC2EPN5daisy11OledDisplayINS0_13SSD130xDriverILj128ELj64ENS0_19SSD130xI2CTransportEEEEEb:00000054 $d
C:\Users\skipi\AppData\Local\Temp\ccerdDJR.s:556    .text._ZN14DisplayHandlerC2EPN5daisy11OledDisplayINS0_13SSD130xDriverILj128ELj64ENS0_19SSD130xI2CTransportEEEEEb:00000000 _ZN14DisplayHandlerC1EPN5daisy11OledDisplayINS0_13SSD130xDriverILj128ELj64ENS0_19SSD130xI2CTransportEEEEEb
C:\Users\skipi\AppData\Local\Temp\ccerdDJR.s:655    .text._ZN14DisplayHandler8SetStateE12DisplayState:00000000 $t
C:\Users\skipi\AppData\Local\Temp\ccerdDJR.s:663    .text._ZN14DisplayHandler8SetStateE12DisplayState:00000000 _ZN14DisplayHandler8SetStateE12DisplayState
C:\Users\skipi\AppData\Local\Temp\ccerdDJR.s:729    .text._ZN14DisplayHandler8SetStateE12DisplayState:0000002c $d
C:\Users\skipi\AppData\Local\Temp\ccerdDJR.s:734    .text._ZN14DisplayHandler14SetStandbyTextEPKc:00000000 $t
C:\Users\skipi\AppData\Local\Temp\ccerdDJR.s:742    .text._ZN14DisplayHandler14SetStandbyTextEPKc:00000000 _ZN14DisplayHandler14SetStandbyTextEPKc
C:\Users\skipi\AppData\Local\Temp\ccerdDJR.s:796    .text._ZN14DisplayHandler14SetStandbyTextEPKc:00000028 $d
C:\Users\skipi\AppData\Local\Temp\ccerdDJR.s:801    .text._ZN14DisplayHandler15pushAudioSampleEf:00000000 $t
C:\Users\skipi\AppData\Local\Temp\ccerdDJR.s:809    .text._ZN14DisplayHandler15pushAudioSampleEf:00000000 _ZN14DisplayHandler15pushAudioSampleEf
C:\Users\skipi\AppData\Local\Temp\ccerdDJR.s:842    .text._ZN14DisplayHandler11findTriggerEv:00000000 $t
C:\Users\skipi\AppData\Local\Temp\ccerdDJR.s:850    .text._ZN14DisplayHandler11findTriggerEv:00000000 _ZN14DisplayHandler11findTriggerEv
C:\Users\skipi\AppData\Local\Temp\ccerdDJR.s:980    .text._ZN14DisplayHandler11findTriggerEv:00000084 $d
C:\Users\skipi\AppData\Local\Temp\ccerdDJR.s:985    .text._ZN14DisplayHandler12drawWaveFormEv:00000000 $t
C:\Users\skipi\AppData\Local\Temp\ccerdDJR.s:993    .text._ZN14DisplayHandler12drawWaveFormEv:00000000 _ZN14DisplayHandler12drawWaveFormEv
C:\Users\skipi\AppData\Local\Temp\ccerdDJR.s:1458   .text._ZN14DisplayHandler12drawWaveFormEv:000001b8 $d
C:\Users\skipi\AppData\Local\Temp\ccerdDJR.s:1464   .text._ZN14DisplayHandler9SetYscaleEi:00000000 $t
C:\Users\skipi\AppData\Local\Temp\ccerdDJR.s:1472   .text._ZN14DisplayHandler9SetYscaleEi:00000000 _ZN14DisplayHandler9SetYscaleEi
C:\Users\skipi\AppData\Local\Temp\ccerdDJR.s:1489   .text._ZN14DisplayHandler17drawStandbyScreenEv:00000000 $t
C:\Users\skipi\AppData\Local\Temp\ccerdDJR.s:1497   .text._ZN14DisplayHandler17drawStandbyScreenEv:00000000 _ZN14DisplayHandler17drawStandbyScreenEv
C:\Users\skipi\AppData\Local\Temp\ccerdDJR.s:1621   .text._ZN14DisplayHandler17drawStandbyScreenEv:00000058 $d
C:\Users\skipi\AppData\Local\Temp\ccerdDJR.s:1628   .text._ZN14DisplayHandler6UpdateEv:00000000 $t
C:\Users\skipi\AppData\Local\Temp\ccerdDJR.s:1636   .text._ZN14DisplayHandler6UpdateEv:00000000 _ZN14DisplayHandler6UpdateEv
C:\Users\skipi\AppData\Local\Temp\ccerdDJR.s:1855   .text._ZN14DisplayHandler6UpdateEv:000000cc $d
C:\Users\skipi\AppData\Local\Temp\ccerdDJR.s:1860   .rodata._ZN14DisplayHandler12DrawMainMenuEi.str1.4:00000000 $d
C:\Users\skipi\AppData\Local\Temp\ccerdDJR.s:1879   .text._ZN14DisplayHandler12DrawMainMenuEi:00000000 $t
C:\Users\skipi\AppData\Local\Temp\ccerdDJR.s:1887   .text._ZN14DisplayHandler12DrawMainMenuEi:00000000 _ZN14DisplayHandler12DrawMainMenuEi
C:\Users\skipi\AppData\Local\Temp\ccerdDJR.s:2511   .text._ZN14DisplayHandler12DrawMainMenuEi:00000220 $d
C:\Users\skipi\AppData\Local\Temp\ccerdDJR.s:2523   .rodata._ZN14DisplayHandler18DrawCalibrationHubEi.str1.4:00000000 $d
C:\Users\skipi\AppData\Local\Temp\ccerdDJR.s:2542   .text._ZN14DisplayHandler18DrawCalibrationHubEi:00000000 $t
C:\Users\skipi\AppData\Local\Temp\ccerdDJR.s:2550   .text._ZN14DisplayHandler18DrawCalibrationHubEi:00000000 _ZN14DisplayHandler18DrawCalibrationHubEi
C:\Users\skipi\AppData\Local\Temp\ccerdDJR.s:3251   .text._ZN14DisplayHandler18DrawCalibrationHubEi:00000268 $d
C:\Users\skipi\AppData\Local\Temp\ccerdDJR.s:3262   .text._ZN14DisplayHandler18DrawCalibrationHubEi:0000028c $t
C:\Users\skipi\AppData\Local\Temp\ccerdDJR.s:3280   .rodata._ZN14DisplayHandler13DrawScalesHubEi.str1.4:00000000 $d
C:\Users\skipi\AppData\Local\Temp\ccerdDJR.s:3293   .text._ZN14DisplayHandler13DrawScalesHubEi:00000000 $t
C:\Users\skipi\AppData\Local\Temp\ccerdDJR.s:3301   .text._ZN14DisplayHandler13DrawScalesHubEi:00000000 _ZN14DisplayHandler13DrawScalesHubEi
C:\Users\skipi\AppData\Local\Temp\ccerdDJR.s:3925   .text._ZN14DisplayHandler13DrawScalesHubEi:00000220 $d
C:\Users\skipi\AppData\Local\Temp\ccerdDJR.s:3937   .rodata._ZN14DisplayHandler18DrawFloatParameterEPKcf.str1.4:00000000 $d
C:\Users\skipi\AppData\Local\Temp\ccerdDJR.s:3944   .text._ZN14DisplayHandler18DrawFloatParameterEPKcf:00000000 $t
C:\Users\skipi\AppData\Local\Temp\ccerdDJR.s:3952   .text._ZN14DisplayHandler18DrawFloatParameterEPKcf:00000000 _ZN14DisplayHandler18DrawFloatParameterEPKcf
C:\Users\skipi\AppData\Local\Temp\ccerdDJR.s:4350   .text._ZN14DisplayHandler18DrawFloatParameterEPKcf:00000158 $d
C:\Users\skipi\AppData\Local\Temp\ccerdDJR.s:4360   .rodata._ZN14DisplayHandler16DrawIntParameterEPKci.str1.4:00000000 $d
C:\Users\skipi\AppData\Local\Temp\ccerdDJR.s:4385   .text._ZN14DisplayHandler16DrawIntParameterEPKci:00000000 $t
C:\Users\skipi\AppData\Local\Temp\ccerdDJR.s:4393   .text._ZN14DisplayHandler16DrawIntParameterEPKci:00000000 _ZN14DisplayHandler16DrawIntParameterEPKci
C:\Users\skipi\AppData\Local\Temp\ccerdDJR.s:4972   .text._ZN14DisplayHandler16DrawIntParameterEPKci:00000200 $d
C:\Users\skipi\AppData\Local\Temp\ccerdDJR.s:4998   .rodata.str1.4:00000000 $d
ARM GAS  C:\Users\skipi\AppData\Local\Temp\ccerdDJR.s 			page 127


C:\Users\skipi\AppData\Local\Temp\ccerdDJR.s:5077   .bss._ZZN14DisplayHandler11findTriggerEvE7trigIdx:00000000 $d
C:\Users\skipi\AppData\Local\Temp\ccerdDJR.s:5081   .bss._ZZN14DisplayHandler11findTriggerEvE7trigIdx:00000000 _ZZN14DisplayHandler11findTriggerEvE7trigIdx
C:\Users\skipi\AppData\Local\Temp\ccerdDJR.s:5084   .rodata._ZZN14DisplayHandler16DrawIntParameterEPKciE5notes:00000000 $d
C:\Users\skipi\AppData\Local\Temp\ccerdDJR.s:5088   .rodata._ZZN14DisplayHandler16DrawIntParameterEPKciE5notes:00000000 _ZZN14DisplayHandler16DrawIntParameterEPKciE5notes
C:\Users\skipi\AppData\Local\Temp\ccerdDJR.s:5102   .rodata._ZZN14DisplayHandler16DrawIntParameterEPKciE6scales:00000000 $d
C:\Users\skipi\AppData\Local\Temp\ccerdDJR.s:5106   .rodata._ZZN14DisplayHandler16DrawIntParameterEPKciE6scales:00000000 _ZZN14DisplayHandler16DrawIntParameterEPKciE6scales
C:\Users\skipi\AppData\Local\Temp\ccerdDJR.s:5115   .rodata._ZZN14DisplayHandler16DrawIntParameterEPKciE7filters:00000000 $d
C:\Users\skipi\AppData\Local\Temp\ccerdDJR.s:5119   .rodata._ZZN14DisplayHandler16DrawIntParameterEPKciE7filters:00000000 _ZZN14DisplayHandler16DrawIntParameterEPKciE7filters
C:\Users\skipi\AppData\Local\Temp\ccerdDJR.s:5125   .rodata._ZZN14DisplayHandler16DrawIntParameterEPKciE7presets:00000000 $d
C:\Users\skipi\AppData\Local\Temp\ccerdDJR.s:5129   .rodata._ZZN14DisplayHandler16DrawIntParameterEPKciE7presets:00000000 _ZZN14DisplayHandler16DrawIntParameterEPKciE7presets

UNDEFINED SYMBOLS
memset
_ZN5daisy9I2CHandle16TransmitBlockingEtPhtm
Font_11x18
Font_7x10
sprintf
strcmp
strcpy
