ARM GAS  C:\Users\39351\AppData\Local\Temp\ccMNzW4C.s 			page 1


   1              		.cpu cortex-m7
   2              		.eabi_attribute 28, 1
   3              		.eabi_attribute 20, 1
   4              		.eabi_attribute 21, 1
   5              		.eabi_attribute 23, 3
   6              		.eabi_attribute 24, 1
   7              		.eabi_attribute 25, 1
   8              		.eabi_attribute 26, 1
   9              		.eabi_attribute 30, 2
  10              		.eabi_attribute 34, 1
  11              		.eabi_attribute 18, 4
  12              		.file	"displayHandler.cpp"
  13              		.text
  14              	.Ltext0:
  15              		.cfi_sections	.debug_frame
  16              		.section	.text._ZN5daisy11OledDisplayINS_13SSD130xDriverILj128ELj64ENS_19SSD130xI2CTransportEEEE4F
  17              		.align	1
  18              		.p2align 2,,3
  19              		.weak	_ZN5daisy11OledDisplayINS_13SSD130xDriverILj128ELj64ENS_19SSD130xI2CTransportEEEE4FillEb
  20              		.arch armv7e-m
  21              		.syntax unified
  22              		.thumb
  23              		.thumb_func
  24              		.fpu fpv5-d16
  26              	_ZN5daisy11OledDisplayINS_13SSD130xDriverILj128ELj64ENS_19SSD130xI2CTransportEEEE4FillEb:
  27              	.LVL0:
  28              	.LFB2804:
  29              		.file 1 "Display/../../libs/PoliTeKDSP/libs/libDaisy/src/hid/disp/oled_display.h"
   1:Display/../../libs/PoliTeKDSP/libs/libDaisy/src/hid/disp/oled_display.h **** #pragma once
   2:Display/../../libs/PoliTeKDSP/libs/libDaisy/src/hid/disp/oled_display.h **** #ifndef DSY_OLED_DISPLAY_H
   3:Display/../../libs/PoliTeKDSP/libs/libDaisy/src/hid/disp/oled_display.h **** #define DSY_OLED_DISPLAY_H /**< Macro */
   4:Display/../../libs/PoliTeKDSP/libs/libDaisy/src/hid/disp/oled_display.h **** 
   5:Display/../../libs/PoliTeKDSP/libs/libDaisy/src/hid/disp/oled_display.h **** #include "display.h"
   6:Display/../../libs/PoliTeKDSP/libs/libDaisy/src/hid/disp/oled_display.h **** 
   7:Display/../../libs/PoliTeKDSP/libs/libDaisy/src/hid/disp/oled_display.h **** namespace daisy
   8:Display/../../libs/PoliTeKDSP/libs/libDaisy/src/hid/disp/oled_display.h **** {
   9:Display/../../libs/PoliTeKDSP/libs/libDaisy/src/hid/disp/oled_display.h **** /** 
  10:Display/../../libs/PoliTeKDSP/libs/libDaisy/src/hid/disp/oled_display.h ****  * This class is for drawing to a monochrome OLED display. 
  11:Display/../../libs/PoliTeKDSP/libs/libDaisy/src/hid/disp/oled_display.h ****  * @ingroup device
  12:Display/../../libs/PoliTeKDSP/libs/libDaisy/src/hid/disp/oled_display.h **** */
  13:Display/../../libs/PoliTeKDSP/libs/libDaisy/src/hid/disp/oled_display.h **** template <typename DisplayDriver>
  14:Display/../../libs/PoliTeKDSP/libs/libDaisy/src/hid/disp/oled_display.h **** class OledDisplay : public OneBitGraphicsDisplayImpl<OledDisplay<DisplayDriver>>
  15:Display/../../libs/PoliTeKDSP/libs/libDaisy/src/hid/disp/oled_display.h **** {
  16:Display/../../libs/PoliTeKDSP/libs/libDaisy/src/hid/disp/oled_display.h ****   public:
  17:Display/../../libs/PoliTeKDSP/libs/libDaisy/src/hid/disp/oled_display.h ****     OledDisplay() {}
  18:Display/../../libs/PoliTeKDSP/libs/libDaisy/src/hid/disp/oled_display.h ****     virtual ~OledDisplay() {}
  19:Display/../../libs/PoliTeKDSP/libs/libDaisy/src/hid/disp/oled_display.h **** 
  20:Display/../../libs/PoliTeKDSP/libs/libDaisy/src/hid/disp/oled_display.h ****     struct Config
  21:Display/../../libs/PoliTeKDSP/libs/libDaisy/src/hid/disp/oled_display.h ****     {
  22:Display/../../libs/PoliTeKDSP/libs/libDaisy/src/hid/disp/oled_display.h ****         typename DisplayDriver::Config driver_config;
  23:Display/../../libs/PoliTeKDSP/libs/libDaisy/src/hid/disp/oled_display.h ****     };
  24:Display/../../libs/PoliTeKDSP/libs/libDaisy/src/hid/disp/oled_display.h **** 
  25:Display/../../libs/PoliTeKDSP/libs/libDaisy/src/hid/disp/oled_display.h ****     void Init(Config config) { driver_.Init(config.driver_config); }
  26:Display/../../libs/PoliTeKDSP/libs/libDaisy/src/hid/disp/oled_display.h **** 
  27:Display/../../libs/PoliTeKDSP/libs/libDaisy/src/hid/disp/oled_display.h ****     uint16_t Height() const override { return driver_.Height(); }
  28:Display/../../libs/PoliTeKDSP/libs/libDaisy/src/hid/disp/oled_display.h ****     uint16_t Width() const override { return driver_.Width(); }
  29:Display/../../libs/PoliTeKDSP/libs/libDaisy/src/hid/disp/oled_display.h **** 
ARM GAS  C:\Users\39351\AppData\Local\Temp\ccMNzW4C.s 			page 2


  30:Display/../../libs/PoliTeKDSP/libs/libDaisy/src/hid/disp/oled_display.h ****     /** 
  31:Display/../../libs/PoliTeKDSP/libs/libDaisy/src/hid/disp/oled_display.h ****     Fills the entire display with either on/off.
  32:Display/../../libs/PoliTeKDSP/libs/libDaisy/src/hid/disp/oled_display.h ****     \param on Sets on or off.
  33:Display/../../libs/PoliTeKDSP/libs/libDaisy/src/hid/disp/oled_display.h ****     */
  34:Display/../../libs/PoliTeKDSP/libs/libDaisy/src/hid/disp/oled_display.h ****     void Fill(bool on) override { driver_.Fill(on); }
  30              		.loc 1 34 10 view -0
  31              		.cfi_startproc
  32              		@ args = 0, pretend = 0, frame = 0
  33              		@ frame_needed = 0, uses_anonymous_args = 0
  34              		@ link register save eliminated.
  35              	.LBB15:
  36              	.LBI15:
  37              		.file 2 "Display/../../libs/PoliTeKDSP/libs/libDaisy/src/dev/oled_ssd130x.h"
   1:Display/../../libs/PoliTeKDSP/libs/libDaisy/src/dev/oled_ssd130x.h **** #pragma once
   2:Display/../../libs/PoliTeKDSP/libs/libDaisy/src/dev/oled_ssd130x.h **** #ifndef SA_OLED_SSD130X_H
   3:Display/../../libs/PoliTeKDSP/libs/libDaisy/src/dev/oled_ssd130x.h **** #define SA_OLED_SSD130X_H /**< & */
   4:Display/../../libs/PoliTeKDSP/libs/libDaisy/src/dev/oled_ssd130x.h **** 
   5:Display/../../libs/PoliTeKDSP/libs/libDaisy/src/dev/oled_ssd130x.h **** #include "per/i2c.h"
   6:Display/../../libs/PoliTeKDSP/libs/libDaisy/src/dev/oled_ssd130x.h **** #include "per/spi.h"
   7:Display/../../libs/PoliTeKDSP/libs/libDaisy/src/dev/oled_ssd130x.h **** #include "per/gpio.h"
   8:Display/../../libs/PoliTeKDSP/libs/libDaisy/src/dev/oled_ssd130x.h **** #include "sys/system.h"
   9:Display/../../libs/PoliTeKDSP/libs/libDaisy/src/dev/oled_ssd130x.h **** #include "stm32h7xx_hal.h"
  10:Display/../../libs/PoliTeKDSP/libs/libDaisy/src/dev/oled_ssd130x.h **** 
  11:Display/../../libs/PoliTeKDSP/libs/libDaisy/src/dev/oled_ssd130x.h **** namespace daisy
  12:Display/../../libs/PoliTeKDSP/libs/libDaisy/src/dev/oled_ssd130x.h **** {
  13:Display/../../libs/PoliTeKDSP/libs/libDaisy/src/dev/oled_ssd130x.h **** /**
  14:Display/../../libs/PoliTeKDSP/libs/libDaisy/src/dev/oled_ssd130x.h ****  * I2C Transport for SSD1306 / SSD1309 OLED display devices
  15:Display/../../libs/PoliTeKDSP/libs/libDaisy/src/dev/oled_ssd130x.h ****  */
  16:Display/../../libs/PoliTeKDSP/libs/libDaisy/src/dev/oled_ssd130x.h **** class SSD130xI2CTransport
  17:Display/../../libs/PoliTeKDSP/libs/libDaisy/src/dev/oled_ssd130x.h **** {
  18:Display/../../libs/PoliTeKDSP/libs/libDaisy/src/dev/oled_ssd130x.h ****   public:
  19:Display/../../libs/PoliTeKDSP/libs/libDaisy/src/dev/oled_ssd130x.h ****     struct Config
  20:Display/../../libs/PoliTeKDSP/libs/libDaisy/src/dev/oled_ssd130x.h ****     {
  21:Display/../../libs/PoliTeKDSP/libs/libDaisy/src/dev/oled_ssd130x.h ****         Config()
  22:Display/../../libs/PoliTeKDSP/libs/libDaisy/src/dev/oled_ssd130x.h ****         {
  23:Display/../../libs/PoliTeKDSP/libs/libDaisy/src/dev/oled_ssd130x.h ****             // Intialize using defaults
  24:Display/../../libs/PoliTeKDSP/libs/libDaisy/src/dev/oled_ssd130x.h ****             Defaults();
  25:Display/../../libs/PoliTeKDSP/libs/libDaisy/src/dev/oled_ssd130x.h ****         }
  26:Display/../../libs/PoliTeKDSP/libs/libDaisy/src/dev/oled_ssd130x.h ****         I2CHandle::Config i2c_config;
  27:Display/../../libs/PoliTeKDSP/libs/libDaisy/src/dev/oled_ssd130x.h ****         uint8_t           i2c_address;
  28:Display/../../libs/PoliTeKDSP/libs/libDaisy/src/dev/oled_ssd130x.h ****         void              Defaults()
  29:Display/../../libs/PoliTeKDSP/libs/libDaisy/src/dev/oled_ssd130x.h ****         {
  30:Display/../../libs/PoliTeKDSP/libs/libDaisy/src/dev/oled_ssd130x.h ****             i2c_config.periph         = I2CHandle::Config::Peripheral::I2C_1;
  31:Display/../../libs/PoliTeKDSP/libs/libDaisy/src/dev/oled_ssd130x.h ****             i2c_config.speed          = I2CHandle::Config::Speed::I2C_1MHZ;
  32:Display/../../libs/PoliTeKDSP/libs/libDaisy/src/dev/oled_ssd130x.h ****             i2c_config.mode           = I2CHandle::Config::Mode::I2C_MASTER;
  33:Display/../../libs/PoliTeKDSP/libs/libDaisy/src/dev/oled_ssd130x.h ****             i2c_config.pin_config.scl = Pin(PORTB, 8);
  34:Display/../../libs/PoliTeKDSP/libs/libDaisy/src/dev/oled_ssd130x.h ****             i2c_config.pin_config.sda = Pin(PORTB, 9);
  35:Display/../../libs/PoliTeKDSP/libs/libDaisy/src/dev/oled_ssd130x.h ****             i2c_address               = 0x3C;
  36:Display/../../libs/PoliTeKDSP/libs/libDaisy/src/dev/oled_ssd130x.h ****         }
  37:Display/../../libs/PoliTeKDSP/libs/libDaisy/src/dev/oled_ssd130x.h ****     };
  38:Display/../../libs/PoliTeKDSP/libs/libDaisy/src/dev/oled_ssd130x.h ****     void Init(const Config& config)
  39:Display/../../libs/PoliTeKDSP/libs/libDaisy/src/dev/oled_ssd130x.h ****     {
  40:Display/../../libs/PoliTeKDSP/libs/libDaisy/src/dev/oled_ssd130x.h ****         i2c_address_ = config.i2c_address;
  41:Display/../../libs/PoliTeKDSP/libs/libDaisy/src/dev/oled_ssd130x.h ****         i2c_.Init(config.i2c_config);
  42:Display/../../libs/PoliTeKDSP/libs/libDaisy/src/dev/oled_ssd130x.h ****     };
  43:Display/../../libs/PoliTeKDSP/libs/libDaisy/src/dev/oled_ssd130x.h ****     void SendCommand(uint8_t cmd)
  44:Display/../../libs/PoliTeKDSP/libs/libDaisy/src/dev/oled_ssd130x.h ****     {
ARM GAS  C:\Users\39351\AppData\Local\Temp\ccMNzW4C.s 			page 3


  45:Display/../../libs/PoliTeKDSP/libs/libDaisy/src/dev/oled_ssd130x.h ****         uint8_t buf[2] = {0X00, cmd};
  46:Display/../../libs/PoliTeKDSP/libs/libDaisy/src/dev/oled_ssd130x.h ****         i2c_.TransmitBlocking(i2c_address_, buf, 2, 1000);
  47:Display/../../libs/PoliTeKDSP/libs/libDaisy/src/dev/oled_ssd130x.h ****     };
  48:Display/../../libs/PoliTeKDSP/libs/libDaisy/src/dev/oled_ssd130x.h **** 
  49:Display/../../libs/PoliTeKDSP/libs/libDaisy/src/dev/oled_ssd130x.h ****     void SendData(uint8_t* buff, size_t size)
  50:Display/../../libs/PoliTeKDSP/libs/libDaisy/src/dev/oled_ssd130x.h ****     {
  51:Display/../../libs/PoliTeKDSP/libs/libDaisy/src/dev/oled_ssd130x.h ****         for(size_t i = 0; i < size; i++)
  52:Display/../../libs/PoliTeKDSP/libs/libDaisy/src/dev/oled_ssd130x.h ****         {
  53:Display/../../libs/PoliTeKDSP/libs/libDaisy/src/dev/oled_ssd130x.h ****             uint8_t buf[2] = {0X40, buff[i]};
  54:Display/../../libs/PoliTeKDSP/libs/libDaisy/src/dev/oled_ssd130x.h ****             i2c_.TransmitBlocking(i2c_address_, buf, 2, 1000);
  55:Display/../../libs/PoliTeKDSP/libs/libDaisy/src/dev/oled_ssd130x.h ****         }
  56:Display/../../libs/PoliTeKDSP/libs/libDaisy/src/dev/oled_ssd130x.h ****     };
  57:Display/../../libs/PoliTeKDSP/libs/libDaisy/src/dev/oled_ssd130x.h **** 
  58:Display/../../libs/PoliTeKDSP/libs/libDaisy/src/dev/oled_ssd130x.h ****   private:
  59:Display/../../libs/PoliTeKDSP/libs/libDaisy/src/dev/oled_ssd130x.h ****     daisy::I2CHandle i2c_;
  60:Display/../../libs/PoliTeKDSP/libs/libDaisy/src/dev/oled_ssd130x.h ****     uint8_t          i2c_address_;
  61:Display/../../libs/PoliTeKDSP/libs/libDaisy/src/dev/oled_ssd130x.h **** };
  62:Display/../../libs/PoliTeKDSP/libs/libDaisy/src/dev/oled_ssd130x.h **** 
  63:Display/../../libs/PoliTeKDSP/libs/libDaisy/src/dev/oled_ssd130x.h **** /**
  64:Display/../../libs/PoliTeKDSP/libs/libDaisy/src/dev/oled_ssd130x.h ****  * 4 Wire SPI Transport for SSD1306 / SSD1309 OLED display devices
  65:Display/../../libs/PoliTeKDSP/libs/libDaisy/src/dev/oled_ssd130x.h ****  */
  66:Display/../../libs/PoliTeKDSP/libs/libDaisy/src/dev/oled_ssd130x.h **** class SSD130x4WireSpiTransport
  67:Display/../../libs/PoliTeKDSP/libs/libDaisy/src/dev/oled_ssd130x.h **** {
  68:Display/../../libs/PoliTeKDSP/libs/libDaisy/src/dev/oled_ssd130x.h ****   public:
  69:Display/../../libs/PoliTeKDSP/libs/libDaisy/src/dev/oled_ssd130x.h ****     struct Config
  70:Display/../../libs/PoliTeKDSP/libs/libDaisy/src/dev/oled_ssd130x.h ****     {
  71:Display/../../libs/PoliTeKDSP/libs/libDaisy/src/dev/oled_ssd130x.h ****         Config()
  72:Display/../../libs/PoliTeKDSP/libs/libDaisy/src/dev/oled_ssd130x.h ****         {
  73:Display/../../libs/PoliTeKDSP/libs/libDaisy/src/dev/oled_ssd130x.h ****             // Initialize using defaults
  74:Display/../../libs/PoliTeKDSP/libs/libDaisy/src/dev/oled_ssd130x.h ****             Defaults();
  75:Display/../../libs/PoliTeKDSP/libs/libDaisy/src/dev/oled_ssd130x.h ****         }
  76:Display/../../libs/PoliTeKDSP/libs/libDaisy/src/dev/oled_ssd130x.h ****         SpiHandle::Config spi_config;
  77:Display/../../libs/PoliTeKDSP/libs/libDaisy/src/dev/oled_ssd130x.h ****         struct
  78:Display/../../libs/PoliTeKDSP/libs/libDaisy/src/dev/oled_ssd130x.h ****         {
  79:Display/../../libs/PoliTeKDSP/libs/libDaisy/src/dev/oled_ssd130x.h ****             Pin dc;    /**< & */
  80:Display/../../libs/PoliTeKDSP/libs/libDaisy/src/dev/oled_ssd130x.h ****             Pin reset; /**< & */
  81:Display/../../libs/PoliTeKDSP/libs/libDaisy/src/dev/oled_ssd130x.h ****         } pin_config;
  82:Display/../../libs/PoliTeKDSP/libs/libDaisy/src/dev/oled_ssd130x.h ****         bool useDma;
  83:Display/../../libs/PoliTeKDSP/libs/libDaisy/src/dev/oled_ssd130x.h ****         void Defaults()
  84:Display/../../libs/PoliTeKDSP/libs/libDaisy/src/dev/oled_ssd130x.h ****         {
  85:Display/../../libs/PoliTeKDSP/libs/libDaisy/src/dev/oled_ssd130x.h ****             // SPI peripheral config
  86:Display/../../libs/PoliTeKDSP/libs/libDaisy/src/dev/oled_ssd130x.h ****             spi_config.periph = SpiHandle::Config::Peripheral::SPI_1;
  87:Display/../../libs/PoliTeKDSP/libs/libDaisy/src/dev/oled_ssd130x.h ****             spi_config.mode   = SpiHandle::Config::Mode::MASTER;
  88:Display/../../libs/PoliTeKDSP/libs/libDaisy/src/dev/oled_ssd130x.h ****             spi_config.direction
  89:Display/../../libs/PoliTeKDSP/libs/libDaisy/src/dev/oled_ssd130x.h ****                 = SpiHandle::Config::Direction::TWO_LINES_TX_ONLY;
  90:Display/../../libs/PoliTeKDSP/libs/libDaisy/src/dev/oled_ssd130x.h ****             spi_config.datasize       = 8;
  91:Display/../../libs/PoliTeKDSP/libs/libDaisy/src/dev/oled_ssd130x.h ****             spi_config.clock_polarity = SpiHandle::Config::ClockPolarity::LOW;
  92:Display/../../libs/PoliTeKDSP/libs/libDaisy/src/dev/oled_ssd130x.h ****             spi_config.clock_phase    = SpiHandle::Config::ClockPhase::ONE_EDGE;
  93:Display/../../libs/PoliTeKDSP/libs/libDaisy/src/dev/oled_ssd130x.h ****             spi_config.nss            = SpiHandle::Config::NSS::HARD_OUTPUT;
  94:Display/../../libs/PoliTeKDSP/libs/libDaisy/src/dev/oled_ssd130x.h ****             spi_config.baud_prescaler = SpiHandle::Config::BaudPrescaler::PS_8;
  95:Display/../../libs/PoliTeKDSP/libs/libDaisy/src/dev/oled_ssd130x.h ****             // SPI pin config
  96:Display/../../libs/PoliTeKDSP/libs/libDaisy/src/dev/oled_ssd130x.h ****             spi_config.pin_config.sclk = Pin(PORTG, 11);
  97:Display/../../libs/PoliTeKDSP/libs/libDaisy/src/dev/oled_ssd130x.h ****             spi_config.pin_config.miso = Pin(PORTX, 0);
  98:Display/../../libs/PoliTeKDSP/libs/libDaisy/src/dev/oled_ssd130x.h ****             spi_config.pin_config.mosi = Pin(PORTB, 5);
  99:Display/../../libs/PoliTeKDSP/libs/libDaisy/src/dev/oled_ssd130x.h ****             spi_config.pin_config.nss  = Pin(PORTG, 10);
 100:Display/../../libs/PoliTeKDSP/libs/libDaisy/src/dev/oled_ssd130x.h ****             // SSD130x control pin config
 101:Display/../../libs/PoliTeKDSP/libs/libDaisy/src/dev/oled_ssd130x.h ****             pin_config.dc    = Pin(PORTB, 4);
ARM GAS  C:\Users\39351\AppData\Local\Temp\ccMNzW4C.s 			page 4


 102:Display/../../libs/PoliTeKDSP/libs/libDaisy/src/dev/oled_ssd130x.h ****             pin_config.reset = Pin(PORTB, 15);
 103:Display/../../libs/PoliTeKDSP/libs/libDaisy/src/dev/oled_ssd130x.h ****             // Using DMA off by default
 104:Display/../../libs/PoliTeKDSP/libs/libDaisy/src/dev/oled_ssd130x.h ****             useDma = false;
 105:Display/../../libs/PoliTeKDSP/libs/libDaisy/src/dev/oled_ssd130x.h ****         }
 106:Display/../../libs/PoliTeKDSP/libs/libDaisy/src/dev/oled_ssd130x.h ****     };
 107:Display/../../libs/PoliTeKDSP/libs/libDaisy/src/dev/oled_ssd130x.h ****     void Init(const Config& config)
 108:Display/../../libs/PoliTeKDSP/libs/libDaisy/src/dev/oled_ssd130x.h ****     {
 109:Display/../../libs/PoliTeKDSP/libs/libDaisy/src/dev/oled_ssd130x.h ****         // Initialize both GPIO
 110:Display/../../libs/PoliTeKDSP/libs/libDaisy/src/dev/oled_ssd130x.h ****         pin_dc_.Init(config.pin_config.dc, GPIO::Mode::OUTPUT);
 111:Display/../../libs/PoliTeKDSP/libs/libDaisy/src/dev/oled_ssd130x.h ****         pin_reset_.Init(config.pin_config.reset, GPIO::Mode::OUTPUT);
 112:Display/../../libs/PoliTeKDSP/libs/libDaisy/src/dev/oled_ssd130x.h **** 
 113:Display/../../libs/PoliTeKDSP/libs/libDaisy/src/dev/oled_ssd130x.h ****         // Initialize SPI
 114:Display/../../libs/PoliTeKDSP/libs/libDaisy/src/dev/oled_ssd130x.h ****         spi_.Init(config.spi_config);
 115:Display/../../libs/PoliTeKDSP/libs/libDaisy/src/dev/oled_ssd130x.h **** 
 116:Display/../../libs/PoliTeKDSP/libs/libDaisy/src/dev/oled_ssd130x.h ****         // Reset and Configure OLED.
 117:Display/../../libs/PoliTeKDSP/libs/libDaisy/src/dev/oled_ssd130x.h ****         pin_reset_.Write(0);
 118:Display/../../libs/PoliTeKDSP/libs/libDaisy/src/dev/oled_ssd130x.h ****         System::Delay(10);
 119:Display/../../libs/PoliTeKDSP/libs/libDaisy/src/dev/oled_ssd130x.h ****         pin_reset_.Write(1);
 120:Display/../../libs/PoliTeKDSP/libs/libDaisy/src/dev/oled_ssd130x.h ****         System::Delay(10);
 121:Display/../../libs/PoliTeKDSP/libs/libDaisy/src/dev/oled_ssd130x.h ****     };
 122:Display/../../libs/PoliTeKDSP/libs/libDaisy/src/dev/oled_ssd130x.h **** 
 123:Display/../../libs/PoliTeKDSP/libs/libDaisy/src/dev/oled_ssd130x.h ****     void SendCommand(uint8_t cmd)
 124:Display/../../libs/PoliTeKDSP/libs/libDaisy/src/dev/oled_ssd130x.h ****     {
 125:Display/../../libs/PoliTeKDSP/libs/libDaisy/src/dev/oled_ssd130x.h ****         pin_dc_.Write(0);
 126:Display/../../libs/PoliTeKDSP/libs/libDaisy/src/dev/oled_ssd130x.h ****         spi_.BlockingTransmit(&cmd, 1);
 127:Display/../../libs/PoliTeKDSP/libs/libDaisy/src/dev/oled_ssd130x.h ****     };
 128:Display/../../libs/PoliTeKDSP/libs/libDaisy/src/dev/oled_ssd130x.h **** 
 129:Display/../../libs/PoliTeKDSP/libs/libDaisy/src/dev/oled_ssd130x.h ****     void SendCommands(uint8_t* buff, size_t size)
 130:Display/../../libs/PoliTeKDSP/libs/libDaisy/src/dev/oled_ssd130x.h ****     {
 131:Display/../../libs/PoliTeKDSP/libs/libDaisy/src/dev/oled_ssd130x.h ****         pin_dc_.Write(0);
 132:Display/../../libs/PoliTeKDSP/libs/libDaisy/src/dev/oled_ssd130x.h ****         spi_.BlockingTransmit(buff, size);
 133:Display/../../libs/PoliTeKDSP/libs/libDaisy/src/dev/oled_ssd130x.h ****     };
 134:Display/../../libs/PoliTeKDSP/libs/libDaisy/src/dev/oled_ssd130x.h **** 
 135:Display/../../libs/PoliTeKDSP/libs/libDaisy/src/dev/oled_ssd130x.h ****     void SendData(uint8_t* buff, size_t size)
 136:Display/../../libs/PoliTeKDSP/libs/libDaisy/src/dev/oled_ssd130x.h ****     {
 137:Display/../../libs/PoliTeKDSP/libs/libDaisy/src/dev/oled_ssd130x.h ****         pin_dc_.Write(1);
 138:Display/../../libs/PoliTeKDSP/libs/libDaisy/src/dev/oled_ssd130x.h ****         spi_.BlockingTransmit(buff, size);
 139:Display/../../libs/PoliTeKDSP/libs/libDaisy/src/dev/oled_ssd130x.h ****     };
 140:Display/../../libs/PoliTeKDSP/libs/libDaisy/src/dev/oled_ssd130x.h **** 
 141:Display/../../libs/PoliTeKDSP/libs/libDaisy/src/dev/oled_ssd130x.h ****     void SendDataDma(uint8_t*                          buff,
 142:Display/../../libs/PoliTeKDSP/libs/libDaisy/src/dev/oled_ssd130x.h ****                      size_t                            size,
 143:Display/../../libs/PoliTeKDSP/libs/libDaisy/src/dev/oled_ssd130x.h ****                      SpiHandle::EndCallbackFunctionPtr end_callback,
 144:Display/../../libs/PoliTeKDSP/libs/libDaisy/src/dev/oled_ssd130x.h ****                      void*                             context)
 145:Display/../../libs/PoliTeKDSP/libs/libDaisy/src/dev/oled_ssd130x.h ****     {
 146:Display/../../libs/PoliTeKDSP/libs/libDaisy/src/dev/oled_ssd130x.h ****         SCB_CleanInvalidateDCache_by_Addr(buff, size);
 147:Display/../../libs/PoliTeKDSP/libs/libDaisy/src/dev/oled_ssd130x.h ****         pin_dc_.Write(1);
 148:Display/../../libs/PoliTeKDSP/libs/libDaisy/src/dev/oled_ssd130x.h ****         spi_.DmaTransmit(buff, size, NULL, end_callback, context);
 149:Display/../../libs/PoliTeKDSP/libs/libDaisy/src/dev/oled_ssd130x.h ****     };
 150:Display/../../libs/PoliTeKDSP/libs/libDaisy/src/dev/oled_ssd130x.h **** 
 151:Display/../../libs/PoliTeKDSP/libs/libDaisy/src/dev/oled_ssd130x.h ****   private:
 152:Display/../../libs/PoliTeKDSP/libs/libDaisy/src/dev/oled_ssd130x.h ****     SpiHandle spi_;
 153:Display/../../libs/PoliTeKDSP/libs/libDaisy/src/dev/oled_ssd130x.h ****     GPIO      pin_reset_;
 154:Display/../../libs/PoliTeKDSP/libs/libDaisy/src/dev/oled_ssd130x.h ****     GPIO      pin_dc_;
 155:Display/../../libs/PoliTeKDSP/libs/libDaisy/src/dev/oled_ssd130x.h **** };
 156:Display/../../libs/PoliTeKDSP/libs/libDaisy/src/dev/oled_ssd130x.h **** 
 157:Display/../../libs/PoliTeKDSP/libs/libDaisy/src/dev/oled_ssd130x.h **** /**
 158:Display/../../libs/PoliTeKDSP/libs/libDaisy/src/dev/oled_ssd130x.h ****  * Soft SPI Transport for SSD1306 / SSD1309 OLED display devices
ARM GAS  C:\Users\39351\AppData\Local\Temp\ccMNzW4C.s 			page 5


 159:Display/../../libs/PoliTeKDSP/libs/libDaisy/src/dev/oled_ssd130x.h ****  */
 160:Display/../../libs/PoliTeKDSP/libs/libDaisy/src/dev/oled_ssd130x.h **** class SSD130x4WireSoftSpiTransport
 161:Display/../../libs/PoliTeKDSP/libs/libDaisy/src/dev/oled_ssd130x.h **** {
 162:Display/../../libs/PoliTeKDSP/libs/libDaisy/src/dev/oled_ssd130x.h ****   public:
 163:Display/../../libs/PoliTeKDSP/libs/libDaisy/src/dev/oled_ssd130x.h ****     struct Config
 164:Display/../../libs/PoliTeKDSP/libs/libDaisy/src/dev/oled_ssd130x.h ****     {
 165:Display/../../libs/PoliTeKDSP/libs/libDaisy/src/dev/oled_ssd130x.h ****         Config()
 166:Display/../../libs/PoliTeKDSP/libs/libDaisy/src/dev/oled_ssd130x.h ****         {
 167:Display/../../libs/PoliTeKDSP/libs/libDaisy/src/dev/oled_ssd130x.h ****             // Initialize using defaults
 168:Display/../../libs/PoliTeKDSP/libs/libDaisy/src/dev/oled_ssd130x.h ****             Defaults();
 169:Display/../../libs/PoliTeKDSP/libs/libDaisy/src/dev/oled_ssd130x.h ****         }
 170:Display/../../libs/PoliTeKDSP/libs/libDaisy/src/dev/oled_ssd130x.h ****         struct
 171:Display/../../libs/PoliTeKDSP/libs/libDaisy/src/dev/oled_ssd130x.h ****         {
 172:Display/../../libs/PoliTeKDSP/libs/libDaisy/src/dev/oled_ssd130x.h ****             uint32_t sclk_delay;
 173:Display/../../libs/PoliTeKDSP/libs/libDaisy/src/dev/oled_ssd130x.h ****             Pin      sclk;
 174:Display/../../libs/PoliTeKDSP/libs/libDaisy/src/dev/oled_ssd130x.h ****             Pin      mosi;
 175:Display/../../libs/PoliTeKDSP/libs/libDaisy/src/dev/oled_ssd130x.h ****             Pin      dc;
 176:Display/../../libs/PoliTeKDSP/libs/libDaisy/src/dev/oled_ssd130x.h ****             Pin      reset;
 177:Display/../../libs/PoliTeKDSP/libs/libDaisy/src/dev/oled_ssd130x.h ****         } pin_config;
 178:Display/../../libs/PoliTeKDSP/libs/libDaisy/src/dev/oled_ssd130x.h ****         void Defaults()
 179:Display/../../libs/PoliTeKDSP/libs/libDaisy/src/dev/oled_ssd130x.h ****         {
 180:Display/../../libs/PoliTeKDSP/libs/libDaisy/src/dev/oled_ssd130x.h ****             pin_config.sclk_delay = 0; // fast as possible?!
 181:Display/../../libs/PoliTeKDSP/libs/libDaisy/src/dev/oled_ssd130x.h ****             // SPI peripheral config
 182:Display/../../libs/PoliTeKDSP/libs/libDaisy/src/dev/oled_ssd130x.h ****             pin_config.sclk = Pin(PORTD, 3); /**< D10 - SPI2 SCK  */
 183:Display/../../libs/PoliTeKDSP/libs/libDaisy/src/dev/oled_ssd130x.h ****             pin_config.mosi = Pin(PORTC, 3); /**< D9  - SPI2 MOSI */
 184:Display/../../libs/PoliTeKDSP/libs/libDaisy/src/dev/oled_ssd130x.h ****             // SSD130x control pin config
 185:Display/../../libs/PoliTeKDSP/libs/libDaisy/src/dev/oled_ssd130x.h ****             pin_config.dc    = Pin(PORTC, 11); //D2
 186:Display/../../libs/PoliTeKDSP/libs/libDaisy/src/dev/oled_ssd130x.h ****             pin_config.reset = Pin(PORTC, 10); //D3
 187:Display/../../libs/PoliTeKDSP/libs/libDaisy/src/dev/oled_ssd130x.h ****         }
 188:Display/../../libs/PoliTeKDSP/libs/libDaisy/src/dev/oled_ssd130x.h ****     };
 189:Display/../../libs/PoliTeKDSP/libs/libDaisy/src/dev/oled_ssd130x.h ****     void Init(const Config& config)
 190:Display/../../libs/PoliTeKDSP/libs/libDaisy/src/dev/oled_ssd130x.h ****     {
 191:Display/../../libs/PoliTeKDSP/libs/libDaisy/src/dev/oled_ssd130x.h ****         // Initialize both GPIO
 192:Display/../../libs/PoliTeKDSP/libs/libDaisy/src/dev/oled_ssd130x.h ****         pin_sclk_.Init(config.pin_config.sclk, GPIO::Mode::OUTPUT);
 193:Display/../../libs/PoliTeKDSP/libs/libDaisy/src/dev/oled_ssd130x.h ****         pin_sclk_.Write(1); //ClockPolarity::LOW
 194:Display/../../libs/PoliTeKDSP/libs/libDaisy/src/dev/oled_ssd130x.h ****         clk_delay = config.pin_config.sclk_delay;
 195:Display/../../libs/PoliTeKDSP/libs/libDaisy/src/dev/oled_ssd130x.h ****         pin_mosi_.Init(config.pin_config.mosi, GPIO::Mode::OUTPUT);
 196:Display/../../libs/PoliTeKDSP/libs/libDaisy/src/dev/oled_ssd130x.h ****         pin_mosi_.Write(0);
 197:Display/../../libs/PoliTeKDSP/libs/libDaisy/src/dev/oled_ssd130x.h **** 
 198:Display/../../libs/PoliTeKDSP/libs/libDaisy/src/dev/oled_ssd130x.h ****         pin_dc_.Init(config.pin_config.dc, GPIO::Mode::OUTPUT);
 199:Display/../../libs/PoliTeKDSP/libs/libDaisy/src/dev/oled_ssd130x.h ****         pin_reset_.Init(config.pin_config.reset, GPIO::Mode::OUTPUT);
 200:Display/../../libs/PoliTeKDSP/libs/libDaisy/src/dev/oled_ssd130x.h **** 
 201:Display/../../libs/PoliTeKDSP/libs/libDaisy/src/dev/oled_ssd130x.h ****         // Reset and Configure OLED.
 202:Display/../../libs/PoliTeKDSP/libs/libDaisy/src/dev/oled_ssd130x.h ****         pin_reset_.Write(0);
 203:Display/../../libs/PoliTeKDSP/libs/libDaisy/src/dev/oled_ssd130x.h ****         System::Delay(10);
 204:Display/../../libs/PoliTeKDSP/libs/libDaisy/src/dev/oled_ssd130x.h ****         pin_reset_.Write(1);
 205:Display/../../libs/PoliTeKDSP/libs/libDaisy/src/dev/oled_ssd130x.h ****         System::Delay(10);
 206:Display/../../libs/PoliTeKDSP/libs/libDaisy/src/dev/oled_ssd130x.h ****     };
 207:Display/../../libs/PoliTeKDSP/libs/libDaisy/src/dev/oled_ssd130x.h ****     void SendCommand(uint8_t cmd)
 208:Display/../../libs/PoliTeKDSP/libs/libDaisy/src/dev/oled_ssd130x.h ****     {
 209:Display/../../libs/PoliTeKDSP/libs/libDaisy/src/dev/oled_ssd130x.h ****         pin_dc_.Write(0);
 210:Display/../../libs/PoliTeKDSP/libs/libDaisy/src/dev/oled_ssd130x.h ****         SoftSpiTransmit(cmd);
 211:Display/../../libs/PoliTeKDSP/libs/libDaisy/src/dev/oled_ssd130x.h ****     };
 212:Display/../../libs/PoliTeKDSP/libs/libDaisy/src/dev/oled_ssd130x.h **** 
 213:Display/../../libs/PoliTeKDSP/libs/libDaisy/src/dev/oled_ssd130x.h ****     void SendData(uint8_t* buff, size_t size)
 214:Display/../../libs/PoliTeKDSP/libs/libDaisy/src/dev/oled_ssd130x.h ****     {
 215:Display/../../libs/PoliTeKDSP/libs/libDaisy/src/dev/oled_ssd130x.h ****         pin_dc_.Write(1);
ARM GAS  C:\Users\39351\AppData\Local\Temp\ccMNzW4C.s 			page 6


 216:Display/../../libs/PoliTeKDSP/libs/libDaisy/src/dev/oled_ssd130x.h ****         for(size_t i = 0; i < size; i++)
 217:Display/../../libs/PoliTeKDSP/libs/libDaisy/src/dev/oled_ssd130x.h ****             SoftSpiTransmit(buff[i]);
 218:Display/../../libs/PoliTeKDSP/libs/libDaisy/src/dev/oled_ssd130x.h ****     };
 219:Display/../../libs/PoliTeKDSP/libs/libDaisy/src/dev/oled_ssd130x.h **** 
 220:Display/../../libs/PoliTeKDSP/libs/libDaisy/src/dev/oled_ssd130x.h ****   private:
 221:Display/../../libs/PoliTeKDSP/libs/libDaisy/src/dev/oled_ssd130x.h ****     void SoftSpiTransmit(uint8_t val)
 222:Display/../../libs/PoliTeKDSP/libs/libDaisy/src/dev/oled_ssd130x.h ****     {
 223:Display/../../libs/PoliTeKDSP/libs/libDaisy/src/dev/oled_ssd130x.h ****         // bit flip
 224:Display/../../libs/PoliTeKDSP/libs/libDaisy/src/dev/oled_ssd130x.h ****         val = ((val & 0x01) << 7) | ((val & 0x02) << 5) | ((val & 0x04) << 3)
 225:Display/../../libs/PoliTeKDSP/libs/libDaisy/src/dev/oled_ssd130x.h ****               | ((val & 0x08) << 1) | ((val & 0x10) >> 1) | ((val & 0x20) >> 3)
 226:Display/../../libs/PoliTeKDSP/libs/libDaisy/src/dev/oled_ssd130x.h ****               | ((val & 0x40) >> 5) | ((val & 0x80) >> 7);
 227:Display/../../libs/PoliTeKDSP/libs/libDaisy/src/dev/oled_ssd130x.h **** 
 228:Display/../../libs/PoliTeKDSP/libs/libDaisy/src/dev/oled_ssd130x.h ****         for(uint8_t bit = 0u; bit < 8u; bit++)
 229:Display/../../libs/PoliTeKDSP/libs/libDaisy/src/dev/oled_ssd130x.h ****         {
 230:Display/../../libs/PoliTeKDSP/libs/libDaisy/src/dev/oled_ssd130x.h ****             pin_mosi_.Write((val & (1 << bit)) ? 1 : 0);
 231:Display/../../libs/PoliTeKDSP/libs/libDaisy/src/dev/oled_ssd130x.h **** 
 232:Display/../../libs/PoliTeKDSP/libs/libDaisy/src/dev/oled_ssd130x.h ****             System::DelayTicks(clk_delay);
 233:Display/../../libs/PoliTeKDSP/libs/libDaisy/src/dev/oled_ssd130x.h **** 
 234:Display/../../libs/PoliTeKDSP/libs/libDaisy/src/dev/oled_ssd130x.h ****             pin_sclk_.Toggle();
 235:Display/../../libs/PoliTeKDSP/libs/libDaisy/src/dev/oled_ssd130x.h **** 
 236:Display/../../libs/PoliTeKDSP/libs/libDaisy/src/dev/oled_ssd130x.h ****             System::DelayTicks(clk_delay);
 237:Display/../../libs/PoliTeKDSP/libs/libDaisy/src/dev/oled_ssd130x.h **** 
 238:Display/../../libs/PoliTeKDSP/libs/libDaisy/src/dev/oled_ssd130x.h ****             pin_sclk_.Toggle();
 239:Display/../../libs/PoliTeKDSP/libs/libDaisy/src/dev/oled_ssd130x.h ****         }
 240:Display/../../libs/PoliTeKDSP/libs/libDaisy/src/dev/oled_ssd130x.h ****     }
 241:Display/../../libs/PoliTeKDSP/libs/libDaisy/src/dev/oled_ssd130x.h **** 
 242:Display/../../libs/PoliTeKDSP/libs/libDaisy/src/dev/oled_ssd130x.h ****     uint32_t clk_delay;
 243:Display/../../libs/PoliTeKDSP/libs/libDaisy/src/dev/oled_ssd130x.h ****     GPIO     pin_sclk_;
 244:Display/../../libs/PoliTeKDSP/libs/libDaisy/src/dev/oled_ssd130x.h ****     GPIO     pin_mosi_;
 245:Display/../../libs/PoliTeKDSP/libs/libDaisy/src/dev/oled_ssd130x.h ****     GPIO     pin_reset_;
 246:Display/../../libs/PoliTeKDSP/libs/libDaisy/src/dev/oled_ssd130x.h ****     GPIO     pin_dc_;
 247:Display/../../libs/PoliTeKDSP/libs/libDaisy/src/dev/oled_ssd130x.h **** };
 248:Display/../../libs/PoliTeKDSP/libs/libDaisy/src/dev/oled_ssd130x.h **** 
 249:Display/../../libs/PoliTeKDSP/libs/libDaisy/src/dev/oled_ssd130x.h **** 
 250:Display/../../libs/PoliTeKDSP/libs/libDaisy/src/dev/oled_ssd130x.h **** /**
 251:Display/../../libs/PoliTeKDSP/libs/libDaisy/src/dev/oled_ssd130x.h ****  * A driver implementation for the SSD1306/SSD1309
 252:Display/../../libs/PoliTeKDSP/libs/libDaisy/src/dev/oled_ssd130x.h ****  */
 253:Display/../../libs/PoliTeKDSP/libs/libDaisy/src/dev/oled_ssd130x.h **** template <size_t width, size_t height, typename Transport>
 254:Display/../../libs/PoliTeKDSP/libs/libDaisy/src/dev/oled_ssd130x.h **** class SSD130xDriver
 255:Display/../../libs/PoliTeKDSP/libs/libDaisy/src/dev/oled_ssd130x.h **** {
 256:Display/../../libs/PoliTeKDSP/libs/libDaisy/src/dev/oled_ssd130x.h ****   public:
 257:Display/../../libs/PoliTeKDSP/libs/libDaisy/src/dev/oled_ssd130x.h ****     struct Config
 258:Display/../../libs/PoliTeKDSP/libs/libDaisy/src/dev/oled_ssd130x.h ****     {
 259:Display/../../libs/PoliTeKDSP/libs/libDaisy/src/dev/oled_ssd130x.h ****         typename Transport::Config transport_config;
 260:Display/../../libs/PoliTeKDSP/libs/libDaisy/src/dev/oled_ssd130x.h ****     };
 261:Display/../../libs/PoliTeKDSP/libs/libDaisy/src/dev/oled_ssd130x.h **** 
 262:Display/../../libs/PoliTeKDSP/libs/libDaisy/src/dev/oled_ssd130x.h ****     void Init(Config config)
 263:Display/../../libs/PoliTeKDSP/libs/libDaisy/src/dev/oled_ssd130x.h ****     {
 264:Display/../../libs/PoliTeKDSP/libs/libDaisy/src/dev/oled_ssd130x.h ****         transport_.Init(config.transport_config);
 265:Display/../../libs/PoliTeKDSP/libs/libDaisy/src/dev/oled_ssd130x.h **** 
 266:Display/../../libs/PoliTeKDSP/libs/libDaisy/src/dev/oled_ssd130x.h ****         // Init routine...
 267:Display/../../libs/PoliTeKDSP/libs/libDaisy/src/dev/oled_ssd130x.h **** 
 268:Display/../../libs/PoliTeKDSP/libs/libDaisy/src/dev/oled_ssd130x.h ****         // Display Off
 269:Display/../../libs/PoliTeKDSP/libs/libDaisy/src/dev/oled_ssd130x.h ****         transport_.SendCommand(0xaE);
 270:Display/../../libs/PoliTeKDSP/libs/libDaisy/src/dev/oled_ssd130x.h ****         // Dimension dependent commands...
 271:Display/../../libs/PoliTeKDSP/libs/libDaisy/src/dev/oled_ssd130x.h ****         switch(height)
 272:Display/../../libs/PoliTeKDSP/libs/libDaisy/src/dev/oled_ssd130x.h ****         {
ARM GAS  C:\Users\39351\AppData\Local\Temp\ccMNzW4C.s 			page 7


 273:Display/../../libs/PoliTeKDSP/libs/libDaisy/src/dev/oled_ssd130x.h ****             case 16:
 274:Display/../../libs/PoliTeKDSP/libs/libDaisy/src/dev/oled_ssd130x.h ****                 // Display Clock Divide Ratio
 275:Display/../../libs/PoliTeKDSP/libs/libDaisy/src/dev/oled_ssd130x.h ****                 transport_.SendCommand(0xD5);
 276:Display/../../libs/PoliTeKDSP/libs/libDaisy/src/dev/oled_ssd130x.h ****                 transport_.SendCommand(0x60);
 277:Display/../../libs/PoliTeKDSP/libs/libDaisy/src/dev/oled_ssd130x.h ****                 // Multiplex Ratio
 278:Display/../../libs/PoliTeKDSP/libs/libDaisy/src/dev/oled_ssd130x.h ****                 transport_.SendCommand(0xA8);
 279:Display/../../libs/PoliTeKDSP/libs/libDaisy/src/dev/oled_ssd130x.h ****                 transport_.SendCommand(0x0F);
 280:Display/../../libs/PoliTeKDSP/libs/libDaisy/src/dev/oled_ssd130x.h ****                 // COM Pins
 281:Display/../../libs/PoliTeKDSP/libs/libDaisy/src/dev/oled_ssd130x.h ****                 transport_.SendCommand(0xDA);
 282:Display/../../libs/PoliTeKDSP/libs/libDaisy/src/dev/oled_ssd130x.h ****                 transport_.SendCommand(0x02);
 283:Display/../../libs/PoliTeKDSP/libs/libDaisy/src/dev/oled_ssd130x.h ****                 break;
 284:Display/../../libs/PoliTeKDSP/libs/libDaisy/src/dev/oled_ssd130x.h ****             case 32:
 285:Display/../../libs/PoliTeKDSP/libs/libDaisy/src/dev/oled_ssd130x.h ****                 // Display Clock Divide Ratio
 286:Display/../../libs/PoliTeKDSP/libs/libDaisy/src/dev/oled_ssd130x.h ****                 transport_.SendCommand(0xD5);
 287:Display/../../libs/PoliTeKDSP/libs/libDaisy/src/dev/oled_ssd130x.h ****                 transport_.SendCommand(0x80);
 288:Display/../../libs/PoliTeKDSP/libs/libDaisy/src/dev/oled_ssd130x.h ****                 // Multiplex Ratio
 289:Display/../../libs/PoliTeKDSP/libs/libDaisy/src/dev/oled_ssd130x.h ****                 transport_.SendCommand(0xA8);
 290:Display/../../libs/PoliTeKDSP/libs/libDaisy/src/dev/oled_ssd130x.h ****                 transport_.SendCommand(0x1F);
 291:Display/../../libs/PoliTeKDSP/libs/libDaisy/src/dev/oled_ssd130x.h ****                 // COM Pins
 292:Display/../../libs/PoliTeKDSP/libs/libDaisy/src/dev/oled_ssd130x.h ****                 transport_.SendCommand(0xDA);
 293:Display/../../libs/PoliTeKDSP/libs/libDaisy/src/dev/oled_ssd130x.h ****                 if(width == 64)
 294:Display/../../libs/PoliTeKDSP/libs/libDaisy/src/dev/oled_ssd130x.h ****                 {
 295:Display/../../libs/PoliTeKDSP/libs/libDaisy/src/dev/oled_ssd130x.h ****                     transport_.SendCommand(0x12);
 296:Display/../../libs/PoliTeKDSP/libs/libDaisy/src/dev/oled_ssd130x.h ****                 }
 297:Display/../../libs/PoliTeKDSP/libs/libDaisy/src/dev/oled_ssd130x.h ****                 else
 298:Display/../../libs/PoliTeKDSP/libs/libDaisy/src/dev/oled_ssd130x.h ****                 {
 299:Display/../../libs/PoliTeKDSP/libs/libDaisy/src/dev/oled_ssd130x.h ****                     transport_.SendCommand(0x02);
 300:Display/../../libs/PoliTeKDSP/libs/libDaisy/src/dev/oled_ssd130x.h ****                 }
 301:Display/../../libs/PoliTeKDSP/libs/libDaisy/src/dev/oled_ssd130x.h **** 
 302:Display/../../libs/PoliTeKDSP/libs/libDaisy/src/dev/oled_ssd130x.h ****                 break;
 303:Display/../../libs/PoliTeKDSP/libs/libDaisy/src/dev/oled_ssd130x.h ****             case 48:
 304:Display/../../libs/PoliTeKDSP/libs/libDaisy/src/dev/oled_ssd130x.h ****                 // Display Clock Divide Ratio
 305:Display/../../libs/PoliTeKDSP/libs/libDaisy/src/dev/oled_ssd130x.h ****                 transport_.SendCommand(0xD5);
 306:Display/../../libs/PoliTeKDSP/libs/libDaisy/src/dev/oled_ssd130x.h ****                 transport_.SendCommand(0x80);
 307:Display/../../libs/PoliTeKDSP/libs/libDaisy/src/dev/oled_ssd130x.h ****                 // Multiplex Ratio
 308:Display/../../libs/PoliTeKDSP/libs/libDaisy/src/dev/oled_ssd130x.h ****                 transport_.SendCommand(0xA8);
 309:Display/../../libs/PoliTeKDSP/libs/libDaisy/src/dev/oled_ssd130x.h ****                 transport_.SendCommand(0x2F);
 310:Display/../../libs/PoliTeKDSP/libs/libDaisy/src/dev/oled_ssd130x.h ****                 // COM Pins
 311:Display/../../libs/PoliTeKDSP/libs/libDaisy/src/dev/oled_ssd130x.h ****                 transport_.SendCommand(0xDA);
 312:Display/../../libs/PoliTeKDSP/libs/libDaisy/src/dev/oled_ssd130x.h ****                 transport_.SendCommand(0x12);
 313:Display/../../libs/PoliTeKDSP/libs/libDaisy/src/dev/oled_ssd130x.h ****                 break;
 314:Display/../../libs/PoliTeKDSP/libs/libDaisy/src/dev/oled_ssd130x.h ****             default: // 128
 315:Display/../../libs/PoliTeKDSP/libs/libDaisy/src/dev/oled_ssd130x.h ****                 // Display Clock Divide Ratio
 316:Display/../../libs/PoliTeKDSP/libs/libDaisy/src/dev/oled_ssd130x.h ****                 transport_.SendCommand(0xD5);
 317:Display/../../libs/PoliTeKDSP/libs/libDaisy/src/dev/oled_ssd130x.h ****                 transport_.SendCommand(0x80);
 318:Display/../../libs/PoliTeKDSP/libs/libDaisy/src/dev/oled_ssd130x.h ****                 // Multiplex Ratio
 319:Display/../../libs/PoliTeKDSP/libs/libDaisy/src/dev/oled_ssd130x.h ****                 transport_.SendCommand(0xA8);
 320:Display/../../libs/PoliTeKDSP/libs/libDaisy/src/dev/oled_ssd130x.h ****                 transport_.SendCommand(0x3F);
 321:Display/../../libs/PoliTeKDSP/libs/libDaisy/src/dev/oled_ssd130x.h ****                 // COM Pins
 322:Display/../../libs/PoliTeKDSP/libs/libDaisy/src/dev/oled_ssd130x.h ****                 transport_.SendCommand(0xDA);
 323:Display/../../libs/PoliTeKDSP/libs/libDaisy/src/dev/oled_ssd130x.h ****                 transport_.SendCommand(0x12);
 324:Display/../../libs/PoliTeKDSP/libs/libDaisy/src/dev/oled_ssd130x.h ****                 break;
 325:Display/../../libs/PoliTeKDSP/libs/libDaisy/src/dev/oled_ssd130x.h ****         }
 326:Display/../../libs/PoliTeKDSP/libs/libDaisy/src/dev/oled_ssd130x.h **** 
 327:Display/../../libs/PoliTeKDSP/libs/libDaisy/src/dev/oled_ssd130x.h ****         // Display Offset
 328:Display/../../libs/PoliTeKDSP/libs/libDaisy/src/dev/oled_ssd130x.h ****         transport_.SendCommand(0xD3);
 329:Display/../../libs/PoliTeKDSP/libs/libDaisy/src/dev/oled_ssd130x.h ****         transport_.SendCommand(0x00);
ARM GAS  C:\Users\39351\AppData\Local\Temp\ccMNzW4C.s 			page 8


 330:Display/../../libs/PoliTeKDSP/libs/libDaisy/src/dev/oled_ssd130x.h ****         // Start Line Address
 331:Display/../../libs/PoliTeKDSP/libs/libDaisy/src/dev/oled_ssd130x.h ****         transport_.SendCommand(0x40);
 332:Display/../../libs/PoliTeKDSP/libs/libDaisy/src/dev/oled_ssd130x.h ****         // Normal Display
 333:Display/../../libs/PoliTeKDSP/libs/libDaisy/src/dev/oled_ssd130x.h ****         transport_.SendCommand(0xA6);
 334:Display/../../libs/PoliTeKDSP/libs/libDaisy/src/dev/oled_ssd130x.h ****         // All On Resume
 335:Display/../../libs/PoliTeKDSP/libs/libDaisy/src/dev/oled_ssd130x.h ****         transport_.SendCommand(0xA4);
 336:Display/../../libs/PoliTeKDSP/libs/libDaisy/src/dev/oled_ssd130x.h ****         // Charge Pump
 337:Display/../../libs/PoliTeKDSP/libs/libDaisy/src/dev/oled_ssd130x.h ****         transport_.SendCommand(0x8D);
 338:Display/../../libs/PoliTeKDSP/libs/libDaisy/src/dev/oled_ssd130x.h ****         transport_.SendCommand(0x14);
 339:Display/../../libs/PoliTeKDSP/libs/libDaisy/src/dev/oled_ssd130x.h ****         // Set Segment Remap
 340:Display/../../libs/PoliTeKDSP/libs/libDaisy/src/dev/oled_ssd130x.h ****         transport_.SendCommand(0xA1);
 341:Display/../../libs/PoliTeKDSP/libs/libDaisy/src/dev/oled_ssd130x.h ****         // COM Output Scan Direction
 342:Display/../../libs/PoliTeKDSP/libs/libDaisy/src/dev/oled_ssd130x.h ****         transport_.SendCommand(0xC8);
 343:Display/../../libs/PoliTeKDSP/libs/libDaisy/src/dev/oled_ssd130x.h ****         // Contrast Control
 344:Display/../../libs/PoliTeKDSP/libs/libDaisy/src/dev/oled_ssd130x.h ****         transport_.SendCommand(0x81);
 345:Display/../../libs/PoliTeKDSP/libs/libDaisy/src/dev/oled_ssd130x.h ****         transport_.SendCommand(0x8F);
 346:Display/../../libs/PoliTeKDSP/libs/libDaisy/src/dev/oled_ssd130x.h ****         // Pre Charge
 347:Display/../../libs/PoliTeKDSP/libs/libDaisy/src/dev/oled_ssd130x.h ****         transport_.SendCommand(0xD9);
 348:Display/../../libs/PoliTeKDSP/libs/libDaisy/src/dev/oled_ssd130x.h ****         transport_.SendCommand(0x25);
 349:Display/../../libs/PoliTeKDSP/libs/libDaisy/src/dev/oled_ssd130x.h ****         // VCOM Detect
 350:Display/../../libs/PoliTeKDSP/libs/libDaisy/src/dev/oled_ssd130x.h ****         transport_.SendCommand(0xDB);
 351:Display/../../libs/PoliTeKDSP/libs/libDaisy/src/dev/oled_ssd130x.h ****         transport_.SendCommand(0x34);
 352:Display/../../libs/PoliTeKDSP/libs/libDaisy/src/dev/oled_ssd130x.h **** 
 353:Display/../../libs/PoliTeKDSP/libs/libDaisy/src/dev/oled_ssd130x.h **** 
 354:Display/../../libs/PoliTeKDSP/libs/libDaisy/src/dev/oled_ssd130x.h ****         // Display On
 355:Display/../../libs/PoliTeKDSP/libs/libDaisy/src/dev/oled_ssd130x.h ****         transport_.SendCommand(0xAF); //--turn on oled panel
 356:Display/../../libs/PoliTeKDSP/libs/libDaisy/src/dev/oled_ssd130x.h ****     };
 357:Display/../../libs/PoliTeKDSP/libs/libDaisy/src/dev/oled_ssd130x.h **** 
 358:Display/../../libs/PoliTeKDSP/libs/libDaisy/src/dev/oled_ssd130x.h ****     size_t Width() const { return width; };
 359:Display/../../libs/PoliTeKDSP/libs/libDaisy/src/dev/oled_ssd130x.h ****     size_t Height() const { return height; };
 360:Display/../../libs/PoliTeKDSP/libs/libDaisy/src/dev/oled_ssd130x.h **** 
 361:Display/../../libs/PoliTeKDSP/libs/libDaisy/src/dev/oled_ssd130x.h ****     void DrawPixel(uint_fast8_t x, uint_fast8_t y, bool on)
 362:Display/../../libs/PoliTeKDSP/libs/libDaisy/src/dev/oled_ssd130x.h ****     {
 363:Display/../../libs/PoliTeKDSP/libs/libDaisy/src/dev/oled_ssd130x.h ****         if(x >= width || y >= height)
 364:Display/../../libs/PoliTeKDSP/libs/libDaisy/src/dev/oled_ssd130x.h ****             return;
 365:Display/../../libs/PoliTeKDSP/libs/libDaisy/src/dev/oled_ssd130x.h ****         if(on)
 366:Display/../../libs/PoliTeKDSP/libs/libDaisy/src/dev/oled_ssd130x.h ****             buffer_[x + (y / 8) * width] |= (1 << (y % 8));
 367:Display/../../libs/PoliTeKDSP/libs/libDaisy/src/dev/oled_ssd130x.h ****         else
 368:Display/../../libs/PoliTeKDSP/libs/libDaisy/src/dev/oled_ssd130x.h ****             buffer_[x + (y / 8) * width] &= ~(1 << (y % 8));
 369:Display/../../libs/PoliTeKDSP/libs/libDaisy/src/dev/oled_ssd130x.h ****     }
 370:Display/../../libs/PoliTeKDSP/libs/libDaisy/src/dev/oled_ssd130x.h **** 
 371:Display/../../libs/PoliTeKDSP/libs/libDaisy/src/dev/oled_ssd130x.h ****     void Fill(bool on)
  38              		.loc 2 371 10 view .LVU1
  39              	.LBB16:
 372:Display/../../libs/PoliTeKDSP/libs/libDaisy/src/dev/oled_ssd130x.h ****     {
 373:Display/../../libs/PoliTeKDSP/libs/libDaisy/src/dev/oled_ssd130x.h ****         for(size_t i = 0; i < sizeof(buffer_); i++)
  40              		.loc 2 373 29 view .LVU2
 374:Display/../../libs/PoliTeKDSP/libs/libDaisy/src/dev/oled_ssd130x.h ****         {
 375:Display/../../libs/PoliTeKDSP/libs/libDaisy/src/dev/oled_ssd130x.h ****             buffer_[i] = on ? 0xff : 0x00;
  41              		.loc 2 375 24 is_stmt 0 view .LVU3
  42 0000 4942     		rsbs	r1, r1, #0
  43              	.LVL1:
  44              		.loc 2 375 24 view .LVU4
  45 0002 4FF48062 		mov	r2, #1024
  46 0006 1030     		adds	r0, r0, #16
  47              	.LVL2:
  48              		.loc 2 375 24 view .LVU5
ARM GAS  C:\Users\39351\AppData\Local\Temp\ccMNzW4C.s 			page 9


  49 0008 C9B2     		uxtb	r1, r1
  50 000a FFF7FEBF 		b	memset
  51              	.LVL3:
  52              		.loc 2 375 24 view .LVU6
  53              	.LBE16:
  54              	.LBE15:
  55              		.cfi_endproc
  56              	.LFE2804:
  58 000e 00BF     		.section	.text._ZN5daisy11OledDisplayINS_13SSD130xDriverILj128ELj64ENS_19SSD130xI2CTransportEEEE6U
  59              		.align	1
  60              		.p2align 2,,3
  61              		.weak	_ZN5daisy11OledDisplayINS_13SSD130xDriverILj128ELj64ENS_19SSD130xI2CTransportEEEE6UpdateEv
  62              		.syntax unified
  63              		.thumb
  64              		.thumb_func
  65              		.fpu fpv5-d16
  67              	_ZN5daisy11OledDisplayINS_13SSD130xDriverILj128ELj64ENS_19SSD130xI2CTransportEEEE6UpdateEv:
  68              	.LVL4:
  69              	.LFB2802:
  35:Display/../../libs/PoliTeKDSP/libs/libDaisy/src/hid/disp/oled_display.h **** 
  36:Display/../../libs/PoliTeKDSP/libs/libDaisy/src/hid/disp/oled_display.h ****     /**
  37:Display/../../libs/PoliTeKDSP/libs/libDaisy/src/hid/disp/oled_display.h ****     Sets the pixel at the specified coordinate to be on/off.
  38:Display/../../libs/PoliTeKDSP/libs/libDaisy/src/hid/disp/oled_display.h ****     \param x   x Coordinate
  39:Display/../../libs/PoliTeKDSP/libs/libDaisy/src/hid/disp/oled_display.h ****     \param y   y coordinate
  40:Display/../../libs/PoliTeKDSP/libs/libDaisy/src/hid/disp/oled_display.h ****     \param on  on or off
  41:Display/../../libs/PoliTeKDSP/libs/libDaisy/src/hid/disp/oled_display.h ****     */
  42:Display/../../libs/PoliTeKDSP/libs/libDaisy/src/hid/disp/oled_display.h ****     void DrawPixel(uint_fast8_t x, uint_fast8_t y, bool on) override
  43:Display/../../libs/PoliTeKDSP/libs/libDaisy/src/hid/disp/oled_display.h ****     {
  44:Display/../../libs/PoliTeKDSP/libs/libDaisy/src/hid/disp/oled_display.h ****         driver_.DrawPixel(x, y, on);
  45:Display/../../libs/PoliTeKDSP/libs/libDaisy/src/hid/disp/oled_display.h ****     }
  46:Display/../../libs/PoliTeKDSP/libs/libDaisy/src/hid/disp/oled_display.h **** 
  47:Display/../../libs/PoliTeKDSP/libs/libDaisy/src/hid/disp/oled_display.h ****     /** 
  48:Display/../../libs/PoliTeKDSP/libs/libDaisy/src/hid/disp/oled_display.h ****     Writes the current display buffer to the OLED device using SPI or I2C depending on 
  49:Display/../../libs/PoliTeKDSP/libs/libDaisy/src/hid/disp/oled_display.h ****     how the object was initialized.
  50:Display/../../libs/PoliTeKDSP/libs/libDaisy/src/hid/disp/oled_display.h ****     */
  51:Display/../../libs/PoliTeKDSP/libs/libDaisy/src/hid/disp/oled_display.h ****     void Update() override { driver_.Update(); }
  70              		.loc 1 51 10 is_stmt 1 view -0
  71              		.cfi_startproc
  72              		@ args = 0, pretend = 0, frame = 8
  73              		@ frame_needed = 0, uses_anonymous_args = 0
  74              		.loc 1 51 10 is_stmt 0 view .LVU8
  75 0000 2DE9F04F 		push	{r4, r5, r6, r7, r8, r9, r10, fp, lr}
  76              		.cfi_def_cfa_offset 36
  77              		.cfi_offset 4, -36
  78              		.cfi_offset 5, -32
  79              		.cfi_offset 6, -28
  80              		.cfi_offset 7, -24
  81              		.cfi_offset 8, -20
  82              		.cfi_offset 9, -16
  83              		.cfi_offset 10, -12
  84              		.cfi_offset 11, -8
  85              		.cfi_offset 14, -4
  86              	.LBB29:
  87              	.LBB30:
  88              	.LBB31:
  89              	.LBB32:
  46:Display/../../libs/PoliTeKDSP/libs/libDaisy/src/dev/oled_ssd130x.h ****     };
ARM GAS  C:\Users\39351\AppData\Local\Temp\ccMNzW4C.s 			page 10


  90              		.loc 2 46 30 view .LVU9
  91 0004 4FF0B008 		mov	r8, #176
  92              	.LBE32:
  93              	.LBE31:
  94              	.LBE30:
  95              	.LBE29:
  96              		.loc 1 51 10 view .LVU10
  97 0008 85B0     		sub	sp, sp, #20
  98              		.cfi_def_cfa_offset 56
  99              		.loc 1 51 10 view .LVU11
 100 000a 0546     		mov	r5, r0
 101              	.LVL5:
 102              	.LBB44:
 103              	.LBI29:
 376:Display/../../libs/PoliTeKDSP/libs/libDaisy/src/dev/oled_ssd130x.h ****         }
 377:Display/../../libs/PoliTeKDSP/libs/libDaisy/src/dev/oled_ssd130x.h ****     };
 378:Display/../../libs/PoliTeKDSP/libs/libDaisy/src/dev/oled_ssd130x.h **** 
 379:Display/../../libs/PoliTeKDSP/libs/libDaisy/src/dev/oled_ssd130x.h ****     /**
 380:Display/../../libs/PoliTeKDSP/libs/libDaisy/src/dev/oled_ssd130x.h ****      * Update the display
 381:Display/../../libs/PoliTeKDSP/libs/libDaisy/src/dev/oled_ssd130x.h ****     */
 382:Display/../../libs/PoliTeKDSP/libs/libDaisy/src/dev/oled_ssd130x.h ****     void Update()
 104              		.loc 2 382 10 is_stmt 1 view .LVU12
 105              	.LBB43:
 383:Display/../../libs/PoliTeKDSP/libs/libDaisy/src/dev/oled_ssd130x.h ****     {
 384:Display/../../libs/PoliTeKDSP/libs/libDaisy/src/dev/oled_ssd130x.h ****         uint8_t i;
 385:Display/../../libs/PoliTeKDSP/libs/libDaisy/src/dev/oled_ssd130x.h ****         uint8_t high_column_addr;
 386:Display/../../libs/PoliTeKDSP/libs/libDaisy/src/dev/oled_ssd130x.h ****         switch(height)
 387:Display/../../libs/PoliTeKDSP/libs/libDaisy/src/dev/oled_ssd130x.h ****         {
 388:Display/../../libs/PoliTeKDSP/libs/libDaisy/src/dev/oled_ssd130x.h ****             case 32: high_column_addr = 0x12; break;
 389:Display/../../libs/PoliTeKDSP/libs/libDaisy/src/dev/oled_ssd130x.h **** 
 390:Display/../../libs/PoliTeKDSP/libs/libDaisy/src/dev/oled_ssd130x.h ****             default: high_column_addr = 0x10; break;
 391:Display/../../libs/PoliTeKDSP/libs/libDaisy/src/dev/oled_ssd130x.h ****         }
 392:Display/../../libs/PoliTeKDSP/libs/libDaisy/src/dev/oled_ssd130x.h ****         for(i = 0; i < (height / 8); i++)
 106              		.loc 2 392 22 view .LVU13
 107              	.LBB35:
 108              	.LBB33:
  46:Display/../../libs/PoliTeKDSP/libs/libDaisy/src/dev/oled_ssd130x.h ****     };
 109              		.loc 2 46 30 is_stmt 0 view .LVU14
 110 000c 00F10807 		add	r7, r0, #8
 111              	.LVL6:
  46:Display/../../libs/PoliTeKDSP/libs/libDaisy/src/dev/oled_ssd130x.h ****     };
 112              		.loc 2 46 30 view .LVU15
 113 0010 00F18F06 		add	r6, r0, #143
 114 0014 00F28F49 		addw	r9, r0, #1167
 115              	.LVL7:
 116              	.L5:
  46:Display/../../libs/PoliTeKDSP/libs/libDaisy/src/dev/oled_ssd130x.h ****     };
 117              		.loc 2 46 30 view .LVU16
 118              	.LBE33:
 119              	.LBI31:
  43:Display/../../libs/PoliTeKDSP/libs/libDaisy/src/dev/oled_ssd130x.h ****     {
 120              		.loc 2 43 10 is_stmt 1 view .LVU17
 121              	.LBB34:
  45:Display/../../libs/PoliTeKDSP/libs/libDaisy/src/dev/oled_ssd130x.h ****         i2c_.TransmitBlocking(i2c_address_, buf, 2, 1000);
 122              		.loc 2 45 9 view .LVU18
  46:Display/../../libs/PoliTeKDSP/libs/libDaisy/src/dev/oled_ssd130x.h ****     };
 123              		.loc 2 46 30 is_stmt 0 view .LVU19
ARM GAS  C:\Users\39351\AppData\Local\Temp\ccMNzW4C.s 			page 11


 124 0018 4FF47A7B 		mov	fp, #1000
  45:Display/../../libs/PoliTeKDSP/libs/libDaisy/src/dev/oled_ssd130x.h ****         i2c_.TransmitBlocking(i2c_address_, buf, 2, 1000);
 125              		.loc 2 45 17 view .LVU20
 126 001c 4FF0000A 		mov	r10, #0
  46:Display/../../libs/PoliTeKDSP/libs/libDaisy/src/dev/oled_ssd130x.h ****     };
 127              		.loc 2 46 30 view .LVU21
 128 0020 297B     		ldrb	r1, [r5, #12]	@ zero_extendqisi2
 129 0022 0223     		movs	r3, #2
 130 0024 03AA     		add	r2, sp, #12
 131 0026 3846     		mov	r0, r7
 132 0028 CDF800B0 		str	fp, [sp]
 133 002c A6F18004 		sub	r4, r6, #128
  45:Display/../../libs/PoliTeKDSP/libs/libDaisy/src/dev/oled_ssd130x.h ****         i2c_.TransmitBlocking(i2c_address_, buf, 2, 1000);
 134              		.loc 2 45 17 view .LVU22
 135 0030 8DF80CA0 		strb	r10, [sp, #12]
  45:Display/../../libs/PoliTeKDSP/libs/libDaisy/src/dev/oled_ssd130x.h ****         i2c_.TransmitBlocking(i2c_address_, buf, 2, 1000);
 136              		.loc 2 45 36 view .LVU23
 137 0034 8DF80D80 		strb	r8, [sp, #13]
  46:Display/../../libs/PoliTeKDSP/libs/libDaisy/src/dev/oled_ssd130x.h ****     };
 138              		.loc 2 46 9 is_stmt 1 view .LVU24
  46:Display/../../libs/PoliTeKDSP/libs/libDaisy/src/dev/oled_ssd130x.h ****     };
 139              		.loc 2 46 30 is_stmt 0 view .LVU25
 140 0038 FFF7FEFF 		bl	_ZN5daisy9I2CHandle16TransmitBlockingEtPhtm
 141              	.LVL8:
  46:Display/../../libs/PoliTeKDSP/libs/libDaisy/src/dev/oled_ssd130x.h ****     };
 142              		.loc 2 46 30 view .LVU26
 143              	.LBE34:
 144              	.LBE35:
 145              	.LBB36:
 146              	.LBI36:
  43:Display/../../libs/PoliTeKDSP/libs/libDaisy/src/dev/oled_ssd130x.h ****     {
 147              		.loc 2 43 10 is_stmt 1 view .LVU27
 148              	.LBB37:
  45:Display/../../libs/PoliTeKDSP/libs/libDaisy/src/dev/oled_ssd130x.h ****         i2c_.TransmitBlocking(i2c_address_, buf, 2, 1000);
 149              		.loc 2 45 9 view .LVU28
  46:Display/../../libs/PoliTeKDSP/libs/libDaisy/src/dev/oled_ssd130x.h ****     };
 150              		.loc 2 46 30 is_stmt 0 view .LVU29
 151 003c 297B     		ldrb	r1, [r5, #12]	@ zero_extendqisi2
 152 003e 0223     		movs	r3, #2
 153 0040 03AA     		add	r2, sp, #12
 154 0042 3846     		mov	r0, r7
 155 0044 CDF800B0 		str	fp, [sp]
  45:Display/../../libs/PoliTeKDSP/libs/libDaisy/src/dev/oled_ssd130x.h ****         i2c_.TransmitBlocking(i2c_address_, buf, 2, 1000);
 156              		.loc 2 45 17 view .LVU30
 157 0048 8DF80CA0 		strb	r10, [sp, #12]
  45:Display/../../libs/PoliTeKDSP/libs/libDaisy/src/dev/oled_ssd130x.h ****         i2c_.TransmitBlocking(i2c_address_, buf, 2, 1000);
 158              		.loc 2 45 36 view .LVU31
 159 004c 8DF80DA0 		strb	r10, [sp, #13]
  46:Display/../../libs/PoliTeKDSP/libs/libDaisy/src/dev/oled_ssd130x.h ****     };
 160              		.loc 2 46 9 is_stmt 1 view .LVU32
  46:Display/../../libs/PoliTeKDSP/libs/libDaisy/src/dev/oled_ssd130x.h ****     };
 161              		.loc 2 46 30 is_stmt 0 view .LVU33
 162 0050 FFF7FEFF 		bl	_ZN5daisy9I2CHandle16TransmitBlockingEtPhtm
 163              	.LVL9:
  46:Display/../../libs/PoliTeKDSP/libs/libDaisy/src/dev/oled_ssd130x.h ****     };
 164              		.loc 2 46 30 view .LVU34
 165              	.LBE37:
ARM GAS  C:\Users\39351\AppData\Local\Temp\ccMNzW4C.s 			page 12


 166              	.LBE36:
 167              	.LBB38:
 168              	.LBI38:
  43:Display/../../libs/PoliTeKDSP/libs/libDaisy/src/dev/oled_ssd130x.h ****     {
 169              		.loc 2 43 10 is_stmt 1 view .LVU35
 170              	.LBB39:
  45:Display/../../libs/PoliTeKDSP/libs/libDaisy/src/dev/oled_ssd130x.h ****         i2c_.TransmitBlocking(i2c_address_, buf, 2, 1000);
 171              		.loc 2 45 9 view .LVU36
  45:Display/../../libs/PoliTeKDSP/libs/libDaisy/src/dev/oled_ssd130x.h ****         i2c_.TransmitBlocking(i2c_address_, buf, 2, 1000);
 172              		.loc 2 45 36 is_stmt 0 view .LVU37
 173 0054 4FF0100C 		mov	ip, #16
  46:Display/../../libs/PoliTeKDSP/libs/libDaisy/src/dev/oled_ssd130x.h ****     };
 174              		.loc 2 46 30 view .LVU38
 175 0058 297B     		ldrb	r1, [r5, #12]	@ zero_extendqisi2
 176 005a 0223     		movs	r3, #2
 177 005c 03AA     		add	r2, sp, #12
 178 005e 3846     		mov	r0, r7
 179 0060 CDF800B0 		str	fp, [sp]
  45:Display/../../libs/PoliTeKDSP/libs/libDaisy/src/dev/oled_ssd130x.h ****         i2c_.TransmitBlocking(i2c_address_, buf, 2, 1000);
 180              		.loc 2 45 17 view .LVU39
 181 0064 8DF80CA0 		strb	r10, [sp, #12]
  45:Display/../../libs/PoliTeKDSP/libs/libDaisy/src/dev/oled_ssd130x.h ****         i2c_.TransmitBlocking(i2c_address_, buf, 2, 1000);
 182              		.loc 2 45 36 view .LVU40
 183 0068 8DF80DC0 		strb	ip, [sp, #13]
  46:Display/../../libs/PoliTeKDSP/libs/libDaisy/src/dev/oled_ssd130x.h ****     };
 184              		.loc 2 46 9 is_stmt 1 view .LVU41
  46:Display/../../libs/PoliTeKDSP/libs/libDaisy/src/dev/oled_ssd130x.h ****     };
 185              		.loc 2 46 30 is_stmt 0 view .LVU42
 186 006c FFF7FEFF 		bl	_ZN5daisy9I2CHandle16TransmitBlockingEtPhtm
 187              	.LVL10:
  46:Display/../../libs/PoliTeKDSP/libs/libDaisy/src/dev/oled_ssd130x.h ****     };
 188              		.loc 2 46 30 view .LVU43
 189              	.LBE39:
 190              	.LBE38:
 191              	.LBB40:
 192              	.LBI40:
  49:Display/../../libs/PoliTeKDSP/libs/libDaisy/src/dev/oled_ssd130x.h ****     {
 193              		.loc 2 49 10 is_stmt 1 view .LVU44
 194              	.LBB41:
  51:Display/../../libs/PoliTeKDSP/libs/libDaisy/src/dev/oled_ssd130x.h ****         {
 195              		.loc 2 51 29 view .LVU45
 196              	.L4:
 197              	.LBB42:
  53:Display/../../libs/PoliTeKDSP/libs/libDaisy/src/dev/oled_ssd130x.h ****             i2c_.TransmitBlocking(i2c_address_, buf, 2, 1000);
 198              		.loc 2 53 13 view .LVU46
  54:Display/../../libs/PoliTeKDSP/libs/libDaisy/src/dev/oled_ssd130x.h ****         }
 199              		.loc 2 54 34 is_stmt 0 view .LVU47
 200 0070 4FF47A70 		mov	r0, #1000
  53:Display/../../libs/PoliTeKDSP/libs/libDaisy/src/dev/oled_ssd130x.h ****             i2c_.TransmitBlocking(i2c_address_, buf, 2, 1000);
 201              		.loc 2 53 44 view .LVU48
 202 0074 14F801CF 		ldrb	ip, [r4, #1]!	@ zero_extendqisi2
 203              	.LVL11:
  53:Display/../../libs/PoliTeKDSP/libs/libDaisy/src/dev/oled_ssd130x.h ****             i2c_.TransmitBlocking(i2c_address_, buf, 2, 1000);
 204              		.loc 2 53 21 view .LVU49
 205 0078 4FF0400E 		mov	lr, #64
  54:Display/../../libs/PoliTeKDSP/libs/libDaisy/src/dev/oled_ssd130x.h ****         }
 206              		.loc 2 54 34 view .LVU50
ARM GAS  C:\Users\39351\AppData\Local\Temp\ccMNzW4C.s 			page 13


 207 007c 297B     		ldrb	r1, [r5, #12]	@ zero_extendqisi2
 208 007e 0223     		movs	r3, #2
 209 0080 0090     		str	r0, [sp]
 210 0082 03AA     		add	r2, sp, #12
 211 0084 3846     		mov	r0, r7
  53:Display/../../libs/PoliTeKDSP/libs/libDaisy/src/dev/oled_ssd130x.h ****             i2c_.TransmitBlocking(i2c_address_, buf, 2, 1000);
 212              		.loc 2 53 21 view .LVU51
 213 0086 8DF80CE0 		strb	lr, [sp, #12]
  53:Display/../../libs/PoliTeKDSP/libs/libDaisy/src/dev/oled_ssd130x.h ****             i2c_.TransmitBlocking(i2c_address_, buf, 2, 1000);
 214              		.loc 2 53 44 view .LVU52
 215 008a 8DF80DC0 		strb	ip, [sp, #13]
  54:Display/../../libs/PoliTeKDSP/libs/libDaisy/src/dev/oled_ssd130x.h ****         }
 216              		.loc 2 54 13 is_stmt 1 view .LVU53
  54:Display/../../libs/PoliTeKDSP/libs/libDaisy/src/dev/oled_ssd130x.h ****         }
 217              		.loc 2 54 34 is_stmt 0 view .LVU54
 218 008e FFF7FEFF 		bl	_ZN5daisy9I2CHandle16TransmitBlockingEtPhtm
 219              	.LVL12:
 220              	.LBE42:
  51:Display/../../libs/PoliTeKDSP/libs/libDaisy/src/dev/oled_ssd130x.h ****         {
 221              		.loc 2 51 9 is_stmt 1 view .LVU55
  51:Display/../../libs/PoliTeKDSP/libs/libDaisy/src/dev/oled_ssd130x.h ****         {
 222              		.loc 2 51 29 view .LVU56
 223 0092 B442     		cmp	r4, r6
 224 0094 ECD1     		bne	.L4
 225              	.LVL13:
  51:Display/../../libs/PoliTeKDSP/libs/libDaisy/src/dev/oled_ssd130x.h ****         {
 226              		.loc 2 51 29 is_stmt 0 view .LVU57
 227              	.LBE41:
 228              	.LBE40:
 229              		.loc 2 392 9 is_stmt 1 view .LVU58
 230              		.loc 2 392 22 view .LVU59
 231 0096 04F18006 		add	r6, r4, #128
 232 009a 08F10108 		add	r8, r8, #1
 233              	.LVL14:
 234              		.loc 2 392 22 is_stmt 0 view .LVU60
 235 009e 4E45     		cmp	r6, r9
 236 00a0 5FFA88F8 		uxtb	r8, r8
 237 00a4 B8D1     		bne	.L5
 238              	.LBE43:
 239              	.LBE44:
 240              		.loc 1 51 48 view .LVU61
 241 00a6 05B0     		add	sp, sp, #20
 242              		.cfi_def_cfa_offset 36
 243              		@ sp needed
 244 00a8 BDE8F08F 		pop	{r4, r5, r6, r7, r8, r9, r10, fp, pc}
 245              		.loc 1 51 48 view .LVU62
 246              		.cfi_endproc
 247              	.LFE2802:
 249              		.section	.text._ZN5daisy25OneBitGraphicsDisplayImplINS_11OledDisplayINS_13SSD130xDriverILj128ELj64
 250              		.align	1
 251              		.p2align 2,,3
 252              		.weak	_ZN5daisy25OneBitGraphicsDisplayImplINS_11OledDisplayINS_13SSD130xDriverILj128ELj64ENS_19SSD
 253              		.syntax unified
 254              		.thumb
 255              		.thumb_func
 256              		.fpu fpv5-d16
 258              	_ZN5daisy25OneBitGraphicsDisplayImplINS_11OledDisplayINS_13SSD130xDriverILj128ELj64ENS_19SSD130xI2C
ARM GAS  C:\Users\39351\AppData\Local\Temp\ccMNzW4C.s 			page 14


 259              	.LVL15:
 260              	.LFB2805:
 261              		.file 3 "Display/../../libs/PoliTeKDSP/libs/libDaisy/src/hid/disp/display.h"
   1:Display/../../libs/PoliTeKDSP/libs/libDaisy/src/hid/disp/display.h **** #pragma once
   2:Display/../../libs/PoliTeKDSP/libs/libDaisy/src/hid/disp/display.h **** #ifndef DSY_DISPLAY_H
   3:Display/../../libs/PoliTeKDSP/libs/libDaisy/src/hid/disp/display.h **** #define DSY_DISPLAY_H /**< Macro */
   4:Display/../../libs/PoliTeKDSP/libs/libDaisy/src/hid/disp/display.h **** #include <cmath>
   5:Display/../../libs/PoliTeKDSP/libs/libDaisy/src/hid/disp/display.h **** #include "util/oled_fonts.h"
   6:Display/../../libs/PoliTeKDSP/libs/libDaisy/src/hid/disp/display.h **** #include "daisy_core.h"
   7:Display/../../libs/PoliTeKDSP/libs/libDaisy/src/hid/disp/display.h **** #include "graphics_common.h"
   8:Display/../../libs/PoliTeKDSP/libs/libDaisy/src/hid/disp/display.h **** 
   9:Display/../../libs/PoliTeKDSP/libs/libDaisy/src/hid/disp/display.h **** #ifndef deg2rad
  10:Display/../../libs/PoliTeKDSP/libs/libDaisy/src/hid/disp/display.h **** #define deg2rad(deg) ((deg)*3.141592 / 180.0)
  11:Display/../../libs/PoliTeKDSP/libs/libDaisy/src/hid/disp/display.h **** #endif
  12:Display/../../libs/PoliTeKDSP/libs/libDaisy/src/hid/disp/display.h **** 
  13:Display/../../libs/PoliTeKDSP/libs/libDaisy/src/hid/disp/display.h **** namespace daisy
  14:Display/../../libs/PoliTeKDSP/libs/libDaisy/src/hid/disp/display.h **** {
  15:Display/../../libs/PoliTeKDSP/libs/libDaisy/src/hid/disp/display.h **** /** 
  16:Display/../../libs/PoliTeKDSP/libs/libDaisy/src/hid/disp/display.h ****  * This interface is used as a base class for all types of 1bit-per-pixel
  17:Display/../../libs/PoliTeKDSP/libs/libDaisy/src/hid/disp/display.h ****  * graphics displays.
  18:Display/../../libs/PoliTeKDSP/libs/libDaisy/src/hid/disp/display.h **** */
  19:Display/../../libs/PoliTeKDSP/libs/libDaisy/src/hid/disp/display.h **** class OneBitGraphicsDisplay
  20:Display/../../libs/PoliTeKDSP/libs/libDaisy/src/hid/disp/display.h **** {
  21:Display/../../libs/PoliTeKDSP/libs/libDaisy/src/hid/disp/display.h ****   public:
  22:Display/../../libs/PoliTeKDSP/libs/libDaisy/src/hid/disp/display.h ****     OneBitGraphicsDisplay() {}
  23:Display/../../libs/PoliTeKDSP/libs/libDaisy/src/hid/disp/display.h ****     virtual ~OneBitGraphicsDisplay() {}
  24:Display/../../libs/PoliTeKDSP/libs/libDaisy/src/hid/disp/display.h **** 
  25:Display/../../libs/PoliTeKDSP/libs/libDaisy/src/hid/disp/display.h ****     virtual uint16_t Height() const = 0;
  26:Display/../../libs/PoliTeKDSP/libs/libDaisy/src/hid/disp/display.h ****     virtual uint16_t Width() const  = 0;
  27:Display/../../libs/PoliTeKDSP/libs/libDaisy/src/hid/disp/display.h **** 
  28:Display/../../libs/PoliTeKDSP/libs/libDaisy/src/hid/disp/display.h ****     Rectangle GetBounds() const
  29:Display/../../libs/PoliTeKDSP/libs/libDaisy/src/hid/disp/display.h ****     {
  30:Display/../../libs/PoliTeKDSP/libs/libDaisy/src/hid/disp/display.h ****         return Rectangle(int16_t(Width()), int16_t(Height()));
  31:Display/../../libs/PoliTeKDSP/libs/libDaisy/src/hid/disp/display.h ****     }
  32:Display/../../libs/PoliTeKDSP/libs/libDaisy/src/hid/disp/display.h **** 
  33:Display/../../libs/PoliTeKDSP/libs/libDaisy/src/hid/disp/display.h **** 
  34:Display/../../libs/PoliTeKDSP/libs/libDaisy/src/hid/disp/display.h ****     size_t CurrentX() { return currentX_; };
  35:Display/../../libs/PoliTeKDSP/libs/libDaisy/src/hid/disp/display.h ****     size_t CurrentY() { return currentY_; };
  36:Display/../../libs/PoliTeKDSP/libs/libDaisy/src/hid/disp/display.h **** 
  37:Display/../../libs/PoliTeKDSP/libs/libDaisy/src/hid/disp/display.h ****     /** 
  38:Display/../../libs/PoliTeKDSP/libs/libDaisy/src/hid/disp/display.h ****     Fills the entire display with either on/off.
  39:Display/../../libs/PoliTeKDSP/libs/libDaisy/src/hid/disp/display.h ****     \param on Sets on or off.
  40:Display/../../libs/PoliTeKDSP/libs/libDaisy/src/hid/disp/display.h ****     */
  41:Display/../../libs/PoliTeKDSP/libs/libDaisy/src/hid/disp/display.h ****     virtual void Fill(bool on) = 0;
  42:Display/../../libs/PoliTeKDSP/libs/libDaisy/src/hid/disp/display.h **** 
  43:Display/../../libs/PoliTeKDSP/libs/libDaisy/src/hid/disp/display.h ****     /**
  44:Display/../../libs/PoliTeKDSP/libs/libDaisy/src/hid/disp/display.h ****     Sets the pixel at the specified coordinate to be on/off.
  45:Display/../../libs/PoliTeKDSP/libs/libDaisy/src/hid/disp/display.h ****     \param x   x Coordinate
  46:Display/../../libs/PoliTeKDSP/libs/libDaisy/src/hid/disp/display.h ****     \param y   y coordinate
  47:Display/../../libs/PoliTeKDSP/libs/libDaisy/src/hid/disp/display.h ****     \param on  on or off
  48:Display/../../libs/PoliTeKDSP/libs/libDaisy/src/hid/disp/display.h ****     */
  49:Display/../../libs/PoliTeKDSP/libs/libDaisy/src/hid/disp/display.h ****     virtual void DrawPixel(uint_fast8_t x, uint_fast8_t y, bool on) = 0;
  50:Display/../../libs/PoliTeKDSP/libs/libDaisy/src/hid/disp/display.h **** 
  51:Display/../../libs/PoliTeKDSP/libs/libDaisy/src/hid/disp/display.h ****     /**
  52:Display/../../libs/PoliTeKDSP/libs/libDaisy/src/hid/disp/display.h ****     Draws a line from (x1, y1) to (y1, y2)
  53:Display/../../libs/PoliTeKDSP/libs/libDaisy/src/hid/disp/display.h ****     \param x1  x Coordinate of the starting point
  54:Display/../../libs/PoliTeKDSP/libs/libDaisy/src/hid/disp/display.h ****     \param y1  y Coordinate of the starting point
ARM GAS  C:\Users\39351\AppData\Local\Temp\ccMNzW4C.s 			page 15


  55:Display/../../libs/PoliTeKDSP/libs/libDaisy/src/hid/disp/display.h ****     \param x2  x Coordinate of the ending point
  56:Display/../../libs/PoliTeKDSP/libs/libDaisy/src/hid/disp/display.h ****     \param y2  y Coordinate of the ending point
  57:Display/../../libs/PoliTeKDSP/libs/libDaisy/src/hid/disp/display.h ****     \param on  on or off
  58:Display/../../libs/PoliTeKDSP/libs/libDaisy/src/hid/disp/display.h ****     */
  59:Display/../../libs/PoliTeKDSP/libs/libDaisy/src/hid/disp/display.h ****     virtual void DrawLine(uint_fast8_t x1,
  60:Display/../../libs/PoliTeKDSP/libs/libDaisy/src/hid/disp/display.h ****                           uint_fast8_t y1,
  61:Display/../../libs/PoliTeKDSP/libs/libDaisy/src/hid/disp/display.h ****                           uint_fast8_t x2,
  62:Display/../../libs/PoliTeKDSP/libs/libDaisy/src/hid/disp/display.h ****                           uint_fast8_t y2,
  63:Display/../../libs/PoliTeKDSP/libs/libDaisy/src/hid/disp/display.h ****                           bool         on)
  64:Display/../../libs/PoliTeKDSP/libs/libDaisy/src/hid/disp/display.h ****         = 0;
  65:Display/../../libs/PoliTeKDSP/libs/libDaisy/src/hid/disp/display.h **** 
  66:Display/../../libs/PoliTeKDSP/libs/libDaisy/src/hid/disp/display.h ****     /**
  67:Display/../../libs/PoliTeKDSP/libs/libDaisy/src/hid/disp/display.h ****     Draws a rectangle based on two coordinates.
  68:Display/../../libs/PoliTeKDSP/libs/libDaisy/src/hid/disp/display.h ****     \param x1 x Coordinate of the first point
  69:Display/../../libs/PoliTeKDSP/libs/libDaisy/src/hid/disp/display.h ****     \param y1 y Coordinate of the first point
  70:Display/../../libs/PoliTeKDSP/libs/libDaisy/src/hid/disp/display.h ****     \param x2 x Coordinate of the second point
  71:Display/../../libs/PoliTeKDSP/libs/libDaisy/src/hid/disp/display.h ****     \param y2 y Coordinate of the second point
  72:Display/../../libs/PoliTeKDSP/libs/libDaisy/src/hid/disp/display.h ****     \param on on or off
  73:Display/../../libs/PoliTeKDSP/libs/libDaisy/src/hid/disp/display.h ****     \param fill fill the rectangle or draw only the outline
  74:Display/../../libs/PoliTeKDSP/libs/libDaisy/src/hid/disp/display.h ****     */
  75:Display/../../libs/PoliTeKDSP/libs/libDaisy/src/hid/disp/display.h ****     virtual void DrawRect(uint_fast8_t x1,
  76:Display/../../libs/PoliTeKDSP/libs/libDaisy/src/hid/disp/display.h ****                           uint_fast8_t y1,
  77:Display/../../libs/PoliTeKDSP/libs/libDaisy/src/hid/disp/display.h ****                           uint_fast8_t x2,
  78:Display/../../libs/PoliTeKDSP/libs/libDaisy/src/hid/disp/display.h ****                           uint_fast8_t y2,
  79:Display/../../libs/PoliTeKDSP/libs/libDaisy/src/hid/disp/display.h ****                           bool         on,
  80:Display/../../libs/PoliTeKDSP/libs/libDaisy/src/hid/disp/display.h ****                           bool         fill = false)
  81:Display/../../libs/PoliTeKDSP/libs/libDaisy/src/hid/disp/display.h ****         = 0;
  82:Display/../../libs/PoliTeKDSP/libs/libDaisy/src/hid/disp/display.h **** 
  83:Display/../../libs/PoliTeKDSP/libs/libDaisy/src/hid/disp/display.h ****     /**
  84:Display/../../libs/PoliTeKDSP/libs/libDaisy/src/hid/disp/display.h ****     Draws a rectangle.
  85:Display/../../libs/PoliTeKDSP/libs/libDaisy/src/hid/disp/display.h ****     \param rect the rectangle
  86:Display/../../libs/PoliTeKDSP/libs/libDaisy/src/hid/disp/display.h ****     \param on   on or off
  87:Display/../../libs/PoliTeKDSP/libs/libDaisy/src/hid/disp/display.h ****     \param fill fill the rectangle or draw only the outline
  88:Display/../../libs/PoliTeKDSP/libs/libDaisy/src/hid/disp/display.h ****     */
  89:Display/../../libs/PoliTeKDSP/libs/libDaisy/src/hid/disp/display.h ****     void DrawRect(const Rectangle& rect, bool on, bool fill = false)
  90:Display/../../libs/PoliTeKDSP/libs/libDaisy/src/hid/disp/display.h ****     {
  91:Display/../../libs/PoliTeKDSP/libs/libDaisy/src/hid/disp/display.h ****         DrawRect(rect.GetX(),
  92:Display/../../libs/PoliTeKDSP/libs/libDaisy/src/hid/disp/display.h ****                  rect.GetY(),
  93:Display/../../libs/PoliTeKDSP/libs/libDaisy/src/hid/disp/display.h ****                  rect.GetRight(),
  94:Display/../../libs/PoliTeKDSP/libs/libDaisy/src/hid/disp/display.h ****                  rect.GetBottom(),
  95:Display/../../libs/PoliTeKDSP/libs/libDaisy/src/hid/disp/display.h ****                  on,
  96:Display/../../libs/PoliTeKDSP/libs/libDaisy/src/hid/disp/display.h ****                  fill);
  97:Display/../../libs/PoliTeKDSP/libs/libDaisy/src/hid/disp/display.h ****     }
  98:Display/../../libs/PoliTeKDSP/libs/libDaisy/src/hid/disp/display.h **** 
  99:Display/../../libs/PoliTeKDSP/libs/libDaisy/src/hid/disp/display.h ****     /**
 100:Display/../../libs/PoliTeKDSP/libs/libDaisy/src/hid/disp/display.h ****     Draws an arc around the specified coordinate
 101:Display/../../libs/PoliTeKDSP/libs/libDaisy/src/hid/disp/display.h ****     \param x           x Coordinate of the center of the arc
 102:Display/../../libs/PoliTeKDSP/libs/libDaisy/src/hid/disp/display.h ****     \param y           y Coordinate of the center of the arc
 103:Display/../../libs/PoliTeKDSP/libs/libDaisy/src/hid/disp/display.h ****     \param radius      radius of the arc
 104:Display/../../libs/PoliTeKDSP/libs/libDaisy/src/hid/disp/display.h ****     \param start_angle angle where to start the arc
 105:Display/../../libs/PoliTeKDSP/libs/libDaisy/src/hid/disp/display.h ****     \param sweep       total angle of the arc
 106:Display/../../libs/PoliTeKDSP/libs/libDaisy/src/hid/disp/display.h ****     \param on  on or off
 107:Display/../../libs/PoliTeKDSP/libs/libDaisy/src/hid/disp/display.h ****     */
 108:Display/../../libs/PoliTeKDSP/libs/libDaisy/src/hid/disp/display.h ****     virtual void DrawArc(uint_fast8_t x,
 109:Display/../../libs/PoliTeKDSP/libs/libDaisy/src/hid/disp/display.h ****                          uint_fast8_t y,
 110:Display/../../libs/PoliTeKDSP/libs/libDaisy/src/hid/disp/display.h ****                          uint_fast8_t radius,
 111:Display/../../libs/PoliTeKDSP/libs/libDaisy/src/hid/disp/display.h ****                          int_fast16_t start_angle,
ARM GAS  C:\Users\39351\AppData\Local\Temp\ccMNzW4C.s 			page 16


 112:Display/../../libs/PoliTeKDSP/libs/libDaisy/src/hid/disp/display.h ****                          int_fast16_t sweep,
 113:Display/../../libs/PoliTeKDSP/libs/libDaisy/src/hid/disp/display.h ****                          bool         on)
 114:Display/../../libs/PoliTeKDSP/libs/libDaisy/src/hid/disp/display.h ****         = 0;
 115:Display/../../libs/PoliTeKDSP/libs/libDaisy/src/hid/disp/display.h **** 
 116:Display/../../libs/PoliTeKDSP/libs/libDaisy/src/hid/disp/display.h ****     /**
 117:Display/../../libs/PoliTeKDSP/libs/libDaisy/src/hid/disp/display.h ****     Draws a circle around the specified coordinate
 118:Display/../../libs/PoliTeKDSP/libs/libDaisy/src/hid/disp/display.h ****     \param x           x Coordinate of the center of the circle
 119:Display/../../libs/PoliTeKDSP/libs/libDaisy/src/hid/disp/display.h ****     \param y           y Coordinate of the center of the circle
 120:Display/../../libs/PoliTeKDSP/libs/libDaisy/src/hid/disp/display.h ****     \param radius      radius of the circle
 121:Display/../../libs/PoliTeKDSP/libs/libDaisy/src/hid/disp/display.h ****     \param on  on or off
 122:Display/../../libs/PoliTeKDSP/libs/libDaisy/src/hid/disp/display.h ****     */
 123:Display/../../libs/PoliTeKDSP/libs/libDaisy/src/hid/disp/display.h ****     void
 124:Display/../../libs/PoliTeKDSP/libs/libDaisy/src/hid/disp/display.h ****     DrawCircle(uint_fast8_t x, uint_fast8_t y, uint_fast8_t radius, bool on)
 125:Display/../../libs/PoliTeKDSP/libs/libDaisy/src/hid/disp/display.h ****     {
 126:Display/../../libs/PoliTeKDSP/libs/libDaisy/src/hid/disp/display.h ****         DrawArc(x, y, radius, 0, 360, on);
 127:Display/../../libs/PoliTeKDSP/libs/libDaisy/src/hid/disp/display.h ****     };
 128:Display/../../libs/PoliTeKDSP/libs/libDaisy/src/hid/disp/display.h **** 
 129:Display/../../libs/PoliTeKDSP/libs/libDaisy/src/hid/disp/display.h ****     /** 
 130:Display/../../libs/PoliTeKDSP/libs/libDaisy/src/hid/disp/display.h ****     Writes the character with the specific FontDef
 131:Display/../../libs/PoliTeKDSP/libs/libDaisy/src/hid/disp/display.h ****     to the display buffer at the current Cursor position.
 132:Display/../../libs/PoliTeKDSP/libs/libDaisy/src/hid/disp/display.h ****     \param ch character to be written
 133:Display/../../libs/PoliTeKDSP/libs/libDaisy/src/hid/disp/display.h ****     \param font font to be written in
 134:Display/../../libs/PoliTeKDSP/libs/libDaisy/src/hid/disp/display.h ****     \param on    on or off
 135:Display/../../libs/PoliTeKDSP/libs/libDaisy/src/hid/disp/display.h ****     \return &
 136:Display/../../libs/PoliTeKDSP/libs/libDaisy/src/hid/disp/display.h ****     */
 137:Display/../../libs/PoliTeKDSP/libs/libDaisy/src/hid/disp/display.h ****     virtual char WriteChar(char ch, FontDef font, bool on) = 0;
 138:Display/../../libs/PoliTeKDSP/libs/libDaisy/src/hid/disp/display.h **** 
 139:Display/../../libs/PoliTeKDSP/libs/libDaisy/src/hid/disp/display.h ****     /** 
 140:Display/../../libs/PoliTeKDSP/libs/libDaisy/src/hid/disp/display.h ****     Similar to WriteChar, except it will handle an entire String.
 141:Display/../../libs/PoliTeKDSP/libs/libDaisy/src/hid/disp/display.h ****     Wrapping does not happen automatically, so the width
 142:Display/../../libs/PoliTeKDSP/libs/libDaisy/src/hid/disp/display.h ****     of the string must be kept within the dimensions of the screen.
 143:Display/../../libs/PoliTeKDSP/libs/libDaisy/src/hid/disp/display.h ****     \param str string to be written
 144:Display/../../libs/PoliTeKDSP/libs/libDaisy/src/hid/disp/display.h ****     \param font font to use
 145:Display/../../libs/PoliTeKDSP/libs/libDaisy/src/hid/disp/display.h ****     \param on  on or off
 146:Display/../../libs/PoliTeKDSP/libs/libDaisy/src/hid/disp/display.h ****     \return &
 147:Display/../../libs/PoliTeKDSP/libs/libDaisy/src/hid/disp/display.h ****     */
 148:Display/../../libs/PoliTeKDSP/libs/libDaisy/src/hid/disp/display.h ****     virtual char WriteString(const char* str, FontDef font, bool on) = 0;
 149:Display/../../libs/PoliTeKDSP/libs/libDaisy/src/hid/disp/display.h **** 
 150:Display/../../libs/PoliTeKDSP/libs/libDaisy/src/hid/disp/display.h ****     /** 
 151:Display/../../libs/PoliTeKDSP/libs/libDaisy/src/hid/disp/display.h ****     Similar to WriteString but justified within a bounding box.
 152:Display/../../libs/PoliTeKDSP/libs/libDaisy/src/hid/disp/display.h ****     \param str          string to be written
 153:Display/../../libs/PoliTeKDSP/libs/libDaisy/src/hid/disp/display.h ****     \param font         font to use
 154:Display/../../libs/PoliTeKDSP/libs/libDaisy/src/hid/disp/display.h ****     \param boundingBox  the bounding box to draw the text in
 155:Display/../../libs/PoliTeKDSP/libs/libDaisy/src/hid/disp/display.h ****     \param alignment    the alignment to use
 156:Display/../../libs/PoliTeKDSP/libs/libDaisy/src/hid/disp/display.h ****     \param on           on or off
 157:Display/../../libs/PoliTeKDSP/libs/libDaisy/src/hid/disp/display.h ****     \return The rectangle that was drawn to
 158:Display/../../libs/PoliTeKDSP/libs/libDaisy/src/hid/disp/display.h ****     */
 159:Display/../../libs/PoliTeKDSP/libs/libDaisy/src/hid/disp/display.h ****     virtual Rectangle WriteStringAligned(const char*    str,
 160:Display/../../libs/PoliTeKDSP/libs/libDaisy/src/hid/disp/display.h ****                                          const FontDef& font,
 161:Display/../../libs/PoliTeKDSP/libs/libDaisy/src/hid/disp/display.h ****                                          Rectangle      boundingBox,
 162:Display/../../libs/PoliTeKDSP/libs/libDaisy/src/hid/disp/display.h ****                                          Alignment      alignment,
 163:Display/../../libs/PoliTeKDSP/libs/libDaisy/src/hid/disp/display.h ****                                          bool           on)
 164:Display/../../libs/PoliTeKDSP/libs/libDaisy/src/hid/disp/display.h ****         = 0;
 165:Display/../../libs/PoliTeKDSP/libs/libDaisy/src/hid/disp/display.h **** 
 166:Display/../../libs/PoliTeKDSP/libs/libDaisy/src/hid/disp/display.h ****     /** 
 167:Display/../../libs/PoliTeKDSP/libs/libDaisy/src/hid/disp/display.h ****     Moves the 'Cursor' position used for WriteChar, and WriteStr to the specified coordinate.
 168:Display/../../libs/PoliTeKDSP/libs/libDaisy/src/hid/disp/display.h ****     \param x x pos
ARM GAS  C:\Users\39351\AppData\Local\Temp\ccMNzW4C.s 			page 17


 169:Display/../../libs/PoliTeKDSP/libs/libDaisy/src/hid/disp/display.h ****     \param y y pos
 170:Display/../../libs/PoliTeKDSP/libs/libDaisy/src/hid/disp/display.h ****     */
 171:Display/../../libs/PoliTeKDSP/libs/libDaisy/src/hid/disp/display.h ****     void SetCursor(uint16_t x, uint16_t y)
 172:Display/../../libs/PoliTeKDSP/libs/libDaisy/src/hid/disp/display.h ****     {
 173:Display/../../libs/PoliTeKDSP/libs/libDaisy/src/hid/disp/display.h ****         currentX_ = (x >= Width()) ? Width() - 1 : x;
 174:Display/../../libs/PoliTeKDSP/libs/libDaisy/src/hid/disp/display.h ****         currentY_ = (y >= Height()) ? Height() - 1 : y;
 175:Display/../../libs/PoliTeKDSP/libs/libDaisy/src/hid/disp/display.h ****     }
 176:Display/../../libs/PoliTeKDSP/libs/libDaisy/src/hid/disp/display.h **** 
 177:Display/../../libs/PoliTeKDSP/libs/libDaisy/src/hid/disp/display.h ****     /** 
 178:Display/../../libs/PoliTeKDSP/libs/libDaisy/src/hid/disp/display.h ****     Writes the current display buffer to the OLED device using SPI or I2C depending on 
 179:Display/../../libs/PoliTeKDSP/libs/libDaisy/src/hid/disp/display.h ****     how the object was initialized.
 180:Display/../../libs/PoliTeKDSP/libs/libDaisy/src/hid/disp/display.h ****     */
 181:Display/../../libs/PoliTeKDSP/libs/libDaisy/src/hid/disp/display.h ****     virtual void Update() = 0;
 182:Display/../../libs/PoliTeKDSP/libs/libDaisy/src/hid/disp/display.h **** 
 183:Display/../../libs/PoliTeKDSP/libs/libDaisy/src/hid/disp/display.h ****     /** 
 184:Display/../../libs/PoliTeKDSP/libs/libDaisy/src/hid/disp/display.h ****     Returns true if the Update has finished, used for chained DMA transfers
 185:Display/../../libs/PoliTeKDSP/libs/libDaisy/src/hid/disp/display.h ****     */
 186:Display/../../libs/PoliTeKDSP/libs/libDaisy/src/hid/disp/display.h ****     virtual bool UpdateFinished() = 0;
 187:Display/../../libs/PoliTeKDSP/libs/libDaisy/src/hid/disp/display.h **** 
 188:Display/../../libs/PoliTeKDSP/libs/libDaisy/src/hid/disp/display.h ****   protected:
 189:Display/../../libs/PoliTeKDSP/libs/libDaisy/src/hid/disp/display.h ****     uint16_t currentX_;
 190:Display/../../libs/PoliTeKDSP/libs/libDaisy/src/hid/disp/display.h ****     uint16_t currentY_;
 191:Display/../../libs/PoliTeKDSP/libs/libDaisy/src/hid/disp/display.h **** };
 192:Display/../../libs/PoliTeKDSP/libs/libDaisy/src/hid/disp/display.h **** 
 193:Display/../../libs/PoliTeKDSP/libs/libDaisy/src/hid/disp/display.h **** /** This class is intended as a intermediary class for your actual implementation of the OneBitGrap
 194:Display/../../libs/PoliTeKDSP/libs/libDaisy/src/hid/disp/display.h ****  *  interface. It uses the CRTP design pattern where the template argument is the child class. It p
 195:Display/../../libs/PoliTeKDSP/libs/libDaisy/src/hid/disp/display.h ****  *  implementations for most of the functions, except DrawPixel(), Update() and Fill(), which you'l
 196:Display/../../libs/PoliTeKDSP/libs/libDaisy/src/hid/disp/display.h ****  *  to provide in your child class.
 197:Display/../../libs/PoliTeKDSP/libs/libDaisy/src/hid/disp/display.h ****  *  The main goal of this class is to provide common drawing functions without relying on massive a
 198:Display/../../libs/PoliTeKDSP/libs/libDaisy/src/hid/disp/display.h ****  *  virtual function calls that would result in a performance loss. To achieve this, any drawing fu
 199:Display/../../libs/PoliTeKDSP/libs/libDaisy/src/hid/disp/display.h ****  *  is implemented here and internally calls other drawing functions (e.g. DrawRect() which interna
 200:Display/../../libs/PoliTeKDSP/libs/libDaisy/src/hid/disp/display.h ****  *  DrawPixel() and DrawLine()) makes these calls via the qualified name of these functions to expl
 201:Display/../../libs/PoliTeKDSP/libs/libDaisy/src/hid/disp/display.h ****  *  suppress the virtual dispatch mechanism like this:
 202:Display/../../libs/PoliTeKDSP/libs/libDaisy/src/hid/disp/display.h ****  * 
 203:Display/../../libs/PoliTeKDSP/libs/libDaisy/src/hid/disp/display.h ****  *      ChildType::DrawPixel(...); // no virtual function call; direct call into the child class fu
 204:Display/../../libs/PoliTeKDSP/libs/libDaisy/src/hid/disp/display.h ****  *  
 205:Display/../../libs/PoliTeKDSP/libs/libDaisy/src/hid/disp/display.h ****  *  To create a custom OneBitGraphicsDisplay implementation, you can 
 206:Display/../../libs/PoliTeKDSP/libs/libDaisy/src/hid/disp/display.h ****  *  A) inherit from OneBitGraphicsDisplay directly and provide all the drawing functions yourself
 207:Display/../../libs/PoliTeKDSP/libs/libDaisy/src/hid/disp/display.h ****  *  B) Inherit from OneBitGraphicsDisplayImpl and only provide DrawPixel(), Fill() and Update()
 208:Display/../../libs/PoliTeKDSP/libs/libDaisy/src/hid/disp/display.h ****  *     like this:
 209:Display/../../libs/PoliTeKDSP/libs/libDaisy/src/hid/disp/display.h ****  *  
 210:Display/../../libs/PoliTeKDSP/libs/libDaisy/src/hid/disp/display.h ****  *      class MyDisplayClass : public OneBitGraphicsDisplayImpl<MyDisplayClass> 
 211:Display/../../libs/PoliTeKDSP/libs/libDaisy/src/hid/disp/display.h ****  *      {
 212:Display/../../libs/PoliTeKDSP/libs/libDaisy/src/hid/disp/display.h ****  *      public:
 213:Display/../../libs/PoliTeKDSP/libs/libDaisy/src/hid/disp/display.h ****  *          void Fill() override { ... };
 214:Display/../../libs/PoliTeKDSP/libs/libDaisy/src/hid/disp/display.h ****  *          void DrawPixel(uint_fast8_t x, uint_fast8_t y, bool on) override { ... };
 215:Display/../../libs/PoliTeKDSP/libs/libDaisy/src/hid/disp/display.h ****  *          void Update() override { ... }
 216:Display/../../libs/PoliTeKDSP/libs/libDaisy/src/hid/disp/display.h ****  *      };
 217:Display/../../libs/PoliTeKDSP/libs/libDaisy/src/hid/disp/display.h ****  *  
 218:Display/../../libs/PoliTeKDSP/libs/libDaisy/src/hid/disp/display.h ****  */
 219:Display/../../libs/PoliTeKDSP/libs/libDaisy/src/hid/disp/display.h **** template <class ChildType>
 220:Display/../../libs/PoliTeKDSP/libs/libDaisy/src/hid/disp/display.h **** class OneBitGraphicsDisplayImpl : public OneBitGraphicsDisplay
 221:Display/../../libs/PoliTeKDSP/libs/libDaisy/src/hid/disp/display.h **** {
 222:Display/../../libs/PoliTeKDSP/libs/libDaisy/src/hid/disp/display.h ****   public:
 223:Display/../../libs/PoliTeKDSP/libs/libDaisy/src/hid/disp/display.h ****     OneBitGraphicsDisplayImpl() {}
 224:Display/../../libs/PoliTeKDSP/libs/libDaisy/src/hid/disp/display.h ****     virtual ~OneBitGraphicsDisplayImpl() {}
 225:Display/../../libs/PoliTeKDSP/libs/libDaisy/src/hid/disp/display.h **** 
ARM GAS  C:\Users\39351\AppData\Local\Temp\ccMNzW4C.s 			page 18


 226:Display/../../libs/PoliTeKDSP/libs/libDaisy/src/hid/disp/display.h ****     void DrawLine(uint_fast8_t x1,
 262              		.loc 3 226 10 is_stmt 1 view -0
 263              		.cfi_startproc
 264              		@ args = 8, pretend = 0, frame = 8
 265              		@ frame_needed = 0, uses_anonymous_args = 0
 266              		.loc 3 226 10 is_stmt 0 view .LVU64
 267 0000 2DE9F04F 		push	{r4, r5, r6, r7, r8, r9, r10, fp, lr}
 268              		.cfi_def_cfa_offset 36
 269              		.cfi_offset 4, -36
 270              		.cfi_offset 5, -32
 271              		.cfi_offset 6, -28
 272              		.cfi_offset 7, -24
 273              		.cfi_offset 8, -20
 274              		.cfi_offset 9, -16
 275              		.cfi_offset 10, -12
 276              		.cfi_offset 11, -8
 277              		.cfi_offset 14, -4
 278 0004 83B0     		sub	sp, sp, #12
 279              		.cfi_def_cfa_offset 48
 227:Display/../../libs/PoliTeKDSP/libs/libDaisy/src/hid/disp/display.h ****                   uint_fast8_t y1,
 228:Display/../../libs/PoliTeKDSP/libs/libDaisy/src/hid/disp/display.h ****                   uint_fast8_t x2,
 229:Display/../../libs/PoliTeKDSP/libs/libDaisy/src/hid/disp/display.h ****                   uint_fast8_t y2,
 230:Display/../../libs/PoliTeKDSP/libs/libDaisy/src/hid/disp/display.h ****                   bool         on) override
 231:Display/../../libs/PoliTeKDSP/libs/libDaisy/src/hid/disp/display.h ****     {
 232:Display/../../libs/PoliTeKDSP/libs/libDaisy/src/hid/disp/display.h ****         int_fast16_t deltaX = abs((int_fast16_t)x2 - (int_fast16_t)x1);
 280              		.loc 3 232 52 view .LVU65
 281 0006 5C1A     		subs	r4, r3, r1
 226:Display/../../libs/PoliTeKDSP/libs/libDaisy/src/hid/disp/display.h ****                   uint_fast8_t y1,
 282              		.loc 3 226 10 view .LVU66
 283 0008 0C9E     		ldr	r6, [sp, #48]
 284              		.loc 3 232 22 view .LVU67
 285 000a 002C     		cmp	r4, #0
 226:Display/../../libs/PoliTeKDSP/libs/libDaisy/src/hid/disp/display.h ****                   uint_fast8_t y1,
 286              		.loc 3 226 10 view .LVU68
 287 000c 9DF83490 		ldrb	r9, [sp, #52]	@ zero_extendqisi2
 233:Display/../../libs/PoliTeKDSP/libs/libDaisy/src/hid/disp/display.h ****         int_fast16_t deltaY = abs((int_fast16_t)y2 - (int_fast16_t)y1);
 288              		.loc 3 233 52 view .LVU69
 289 0010 A6EB0208 		sub	r8, r6, r2
 232:Display/../../libs/PoliTeKDSP/libs/libDaisy/src/hid/disp/display.h ****         int_fast16_t deltaY = abs((int_fast16_t)y2 - (int_fast16_t)y1);
 290              		.loc 3 232 22 view .LVU70
 291 0014 B8BF     		it	lt
 292 0016 6442     		rsblt	r4, r4, #0
 293              	.LVL16:
 294              		.loc 3 233 22 view .LVU71
 295 0018 B8F1000F 		cmp	r8, #0
 296 001c B8BF     		it	lt
 297 001e C8F10008 		rsblt	r8, r8, #0
 298              	.LVL17:
 234:Display/../../libs/PoliTeKDSP/libs/libDaisy/src/hid/disp/display.h ****         int_fast16_t signX  = ((x1 < x2) ? 1 : -1);
 299              		.loc 3 234 42 view .LVU72
 300 0022 8B42     		cmp	r3, r1
 301 0024 8CBF     		ite	hi
 302 0026 4FF0010A 		movhi	r10, #1
 303 002a 4FF0FF3A 		movls	r10, #-1
 304              	.LVL18:
 235:Display/../../libs/PoliTeKDSP/libs/libDaisy/src/hid/disp/display.h ****         int_fast16_t signY  = ((y1 < y2) ? 1 : -1);
 305              		.loc 3 235 42 view .LVU73
ARM GAS  C:\Users\39351\AppData\Local\Temp\ccMNzW4C.s 			page 19


 306 002e 9642     		cmp	r6, r2
 236:Display/../../libs/PoliTeKDSP/libs/libDaisy/src/hid/disp/display.h ****         int_fast16_t error  = deltaX - deltaY;
 307              		.loc 3 236 22 view .LVU74
 308 0030 A4EB080C 		sub	ip, r4, r8
 235:Display/../../libs/PoliTeKDSP/libs/libDaisy/src/hid/disp/display.h ****         int_fast16_t signY  = ((y1 < y2) ? 1 : -1);
 309              		.loc 3 235 42 view .LVU75
 310 0034 51D8     		bhi	.L11
 311              	.LVL19:
 312              	.LBB61:
 313              	.LBI61:
  42:Display/../../libs/PoliTeKDSP/libs/libDaisy/src/hid/disp/oled_display.h ****     {
 314              		.loc 1 42 10 is_stmt 1 discriminator 4 view .LVU76
 315              	.LBB62:
 316              	.LBI62:
 361:Display/../../libs/PoliTeKDSP/libs/libDaisy/src/dev/oled_ssd130x.h ****     {
 317              		.loc 2 361 10 discriminator 4 view .LVU77
 318              	.LBE62:
 319              	.LBE61:
 235:Display/../../libs/PoliTeKDSP/libs/libDaisy/src/hid/disp/display.h ****         int_fast16_t error  = deltaX - deltaY;
 320              		.loc 3 235 42 is_stmt 0 discriminator 4 view .LVU78
 321 0036 4FF0FF35 		mov	r5, #-1
 322              	.LBB78:
 323              	.LBB72:
 324              	.LBB63:
 363:Display/../../libs/PoliTeKDSP/libs/libDaisy/src/dev/oled_ssd130x.h ****             return;
 325              		.loc 2 363 9 discriminator 4 view .LVU79
 326 003a 7F2B     		cmp	r3, #127
 327              	.LBE63:
 328              	.LBE72:
 329              	.LBE78:
 235:Display/../../libs/PoliTeKDSP/libs/libDaisy/src/hid/disp/display.h ****         int_fast16_t error  = deltaX - deltaY;
 330              		.loc 3 235 42 discriminator 4 view .LVU80
 331 003c 0195     		str	r5, [sp, #4]
 332              	.LBB79:
 333              	.LBB73:
 334              	.LBB68:
 363:Display/../../libs/PoliTeKDSP/libs/libDaisy/src/dev/oled_ssd130x.h ****             return;
 335              		.loc 2 363 9 discriminator 4 view .LVU81
 336 003e 12D8     		bhi	.L12
 337 0040 3F2E     		cmp	r6, #63
 338 0042 10D8     		bhi	.L12
 339              	.LVL20:
 340              	.L23:
 366:Display/../../libs/PoliTeKDSP/libs/libDaisy/src/dev/oled_ssd130x.h ****         else
 341              		.loc 2 366 28 view .LVU82
 342 0044 F508     		lsrs	r5, r6, #3
 366:Display/../../libs/PoliTeKDSP/libs/libDaisy/src/dev/oled_ssd130x.h ****         else
 343              		.loc 2 366 54 view .LVU83
 344 0046 06F0070E 		and	lr, r6, #7
 366:Display/../../libs/PoliTeKDSP/libs/libDaisy/src/dev/oled_ssd130x.h ****         else
 345              		.loc 2 366 48 view .LVU84
 346 004a 0127     		movs	r7, #1
 366:Display/../../libs/PoliTeKDSP/libs/libDaisy/src/dev/oled_ssd130x.h ****         else
 347              		.loc 2 366 42 view .LVU85
 348 004c 03EBC515 		add	r5, r3, r5, lsl #7
 349 0050 0544     		add	r5, r5, r0
 365:Display/../../libs/PoliTeKDSP/libs/libDaisy/src/dev/oled_ssd130x.h ****             buffer_[x + (y / 8) * width] |= (1 << (y % 8));
ARM GAS  C:\Users\39351\AppData\Local\Temp\ccMNzW4C.s 			page 20


 350              		.loc 2 365 9 view .LVU86
 351 0052 B9F1000F 		cmp	r9, #0
 352 0056 47D0     		beq	.L13
 366:Display/../../libs/PoliTeKDSP/libs/libDaisy/src/dev/oled_ssd130x.h ****         else
 353              		.loc 2 366 48 view .LVU87
 354 0058 07FA0EF7 		lsl	r7, r7, lr
 366:Display/../../libs/PoliTeKDSP/libs/libDaisy/src/dev/oled_ssd130x.h ****         else
 355              		.loc 2 366 42 view .LVU88
 356 005c 95F810E0 		ldrb	lr, [r5, #16]	@ zero_extendqisi2
 357 0060 47EA0E07 		orr	r7, r7, lr
 358 0064 2F74     		strb	r7, [r5, #16]
 359              	.LVL21:
 360              	.L12:
 366:Display/../../libs/PoliTeKDSP/libs/libDaisy/src/dev/oled_ssd130x.h ****         else
 361              		.loc 2 366 42 view .LVU89
 362              	.LBE68:
 363              	.LBE73:
 364              	.LBE79:
 237:Display/../../libs/PoliTeKDSP/libs/libDaisy/src/hid/disp/display.h ****         int_fast16_t error2;
 238:Display/../../libs/PoliTeKDSP/libs/libDaisy/src/hid/disp/display.h **** 
 239:Display/../../libs/PoliTeKDSP/libs/libDaisy/src/hid/disp/display.h ****         // If we write "ChildType::DrawPixel(x2, y2, on);", we end up with
 240:Display/../../libs/PoliTeKDSP/libs/libDaisy/src/hid/disp/display.h ****         // all sorts of weird compiler errors when the Child class is a template
 241:Display/../../libs/PoliTeKDSP/libs/libDaisy/src/hid/disp/display.h ****         // class. The only way around this is to use this very verbose syntax:
 242:Display/../../libs/PoliTeKDSP/libs/libDaisy/src/hid/disp/display.h ****         ((ChildType*)(this))->ChildType::DrawPixel(x2, y2, on);
 243:Display/../../libs/PoliTeKDSP/libs/libDaisy/src/hid/disp/display.h **** 
 244:Display/../../libs/PoliTeKDSP/libs/libDaisy/src/hid/disp/display.h ****         while((x1 != x2) || (y1 != y2))
 365              		.loc 3 244 26 is_stmt 1 view .LVU90
 366 0066 9642     		cmp	r6, r2
 367 0068 01D1     		bne	.L16
 368              	.L35:
 369              		.loc 3 244 26 is_stmt 0 view .LVU91
 370 006a 8B42     		cmp	r3, r1
 371 006c 29D0     		beq	.L9
 372              	.L16:
 373              	.LVL22:
 245:Display/../../libs/PoliTeKDSP/libs/libDaisy/src/hid/disp/display.h ****         {
 246:Display/../../libs/PoliTeKDSP/libs/libDaisy/src/hid/disp/display.h ****             ((ChildType*)(this))->ChildType::DrawPixel(x1, y1, on);
 247:Display/../../libs/PoliTeKDSP/libs/libDaisy/src/hid/disp/display.h ****             error2 = error * 2;
 248:Display/../../libs/PoliTeKDSP/libs/libDaisy/src/hid/disp/display.h ****             if(error2 > -deltaY)
 374              		.loc 3 248 23 view .LVU92
 375 006e C8F10007 		rsb	r7, r8, #0
 376              	.L18:
 377              	.LVL23:
 378              	.LBB80:
 379              	.LBI80:
  42:Display/../../libs/PoliTeKDSP/libs/libDaisy/src/hid/disp/oled_display.h ****     {
 380              		.loc 1 42 10 is_stmt 1 view .LVU93
 381              	.LBB81:
 382              	.LBI81:
 361:Display/../../libs/PoliTeKDSP/libs/libDaisy/src/dev/oled_ssd130x.h ****     {
 383              		.loc 2 361 10 view .LVU94
 384              	.LBB82:
 363:Display/../../libs/PoliTeKDSP/libs/libDaisy/src/dev/oled_ssd130x.h ****             return;
 385              		.loc 2 363 9 is_stmt 0 view .LVU95
 386 0072 7F29     		cmp	r1, #127
 387 0074 14D8     		bhi	.L19
 388 0076 3F2A     		cmp	r2, #63
ARM GAS  C:\Users\39351\AppData\Local\Temp\ccMNzW4C.s 			page 21


 389 0078 12D8     		bhi	.L19
 366:Display/../../libs/PoliTeKDSP/libs/libDaisy/src/dev/oled_ssd130x.h ****         else
 390              		.loc 2 366 28 view .LVU96
 391 007a D508     		lsrs	r5, r2, #3
 366:Display/../../libs/PoliTeKDSP/libs/libDaisy/src/dev/oled_ssd130x.h ****         else
 392              		.loc 2 366 54 view .LVU97
 393 007c 02F0070B 		and	fp, r2, #7
 366:Display/../../libs/PoliTeKDSP/libs/libDaisy/src/dev/oled_ssd130x.h ****         else
 394              		.loc 2 366 48 view .LVU98
 395 0080 4FF0010E 		mov	lr, #1
 366:Display/../../libs/PoliTeKDSP/libs/libDaisy/src/dev/oled_ssd130x.h ****         else
 396              		.loc 2 366 42 view .LVU99
 397 0084 01EBC515 		add	r5, r1, r5, lsl #7
 398 0088 0544     		add	r5, r5, r0
 365:Display/../../libs/PoliTeKDSP/libs/libDaisy/src/dev/oled_ssd130x.h ****             buffer_[x + (y / 8) * width] |= (1 << (y % 8));
 399              		.loc 2 365 9 view .LVU100
 400 008a B9F1000F 		cmp	r9, #0
 401 008e 1BD0     		beq	.L20
 366:Display/../../libs/PoliTeKDSP/libs/libDaisy/src/dev/oled_ssd130x.h ****         else
 402              		.loc 2 366 48 view .LVU101
 403 0090 0EFA0BFE 		lsl	lr, lr, fp
 366:Display/../../libs/PoliTeKDSP/libs/libDaisy/src/dev/oled_ssd130x.h ****         else
 404              		.loc 2 366 42 view .LVU102
 405 0094 95F810B0 		ldrb	fp, [r5, #16]	@ zero_extendqisi2
 406 0098 4EEA0B0E 		orr	lr, lr, fp
 407 009c 85F810E0 		strb	lr, [r5, #16]
 408              	.L19:
 409              	.LVL24:
 366:Display/../../libs/PoliTeKDSP/libs/libDaisy/src/dev/oled_ssd130x.h ****         else
 410              		.loc 2 366 42 view .LVU103
 411              	.LBE82:
 412              	.LBE81:
 413              	.LBE80:
 414              		.loc 3 248 13 view .LVU104
 415 00a0 B7EB4C0F 		cmp	r7, ip, lsl #1
 247:Display/../../libs/PoliTeKDSP/libs/libDaisy/src/hid/disp/display.h ****             if(error2 > -deltaY)
 416              		.loc 3 247 20 view .LVU105
 417 00a4 4FEA4C05 		lsl	r5, ip, #1
 418              	.LVL25:
 419              		.loc 3 248 13 view .LVU106
 420 00a8 02DA     		bge	.L21
 249:Display/../../libs/PoliTeKDSP/libs/libDaisy/src/hid/disp/display.h ****             {
 250:Display/../../libs/PoliTeKDSP/libs/libDaisy/src/hid/disp/display.h ****                 error -= deltaY;
 421              		.loc 3 250 23 view .LVU107
 422 00aa ACEB080C 		sub	ip, ip, r8
 423              	.LVL26:
 251:Display/../../libs/PoliTeKDSP/libs/libDaisy/src/hid/disp/display.h ****                 x1 += signX;
 424              		.loc 3 251 20 view .LVU108
 425 00ae 5144     		add	r1, r1, r10
 426              	.LVL27:
 427              	.L21:
 252:Display/../../libs/PoliTeKDSP/libs/libDaisy/src/hid/disp/display.h ****             }
 253:Display/../../libs/PoliTeKDSP/libs/libDaisy/src/hid/disp/display.h **** 
 254:Display/../../libs/PoliTeKDSP/libs/libDaisy/src/hid/disp/display.h ****             if(error2 < deltaX)
 428              		.loc 3 254 13 view .LVU109
 429 00b0 AC42     		cmp	r4, r5
 430 00b2 02DD     		ble	.L22
ARM GAS  C:\Users\39351\AppData\Local\Temp\ccMNzW4C.s 			page 22


 255:Display/../../libs/PoliTeKDSP/libs/libDaisy/src/hid/disp/display.h ****             {
 256:Display/../../libs/PoliTeKDSP/libs/libDaisy/src/hid/disp/display.h ****                 error += deltaX;
 257:Display/../../libs/PoliTeKDSP/libs/libDaisy/src/hid/disp/display.h ****                 y1 += signY;
 431              		.loc 3 257 20 view .LVU110
 432 00b4 019D     		ldr	r5, [sp, #4]
 433              	.LVL28:
 256:Display/../../libs/PoliTeKDSP/libs/libDaisy/src/hid/disp/display.h ****                 y1 += signY;
 434              		.loc 3 256 23 view .LVU111
 435 00b6 A444     		add	ip, ip, r4
 436              	.LVL29:
 437              		.loc 3 257 20 view .LVU112
 438 00b8 2A44     		add	r2, r2, r5
 439              	.LVL30:
 440              	.L22:
 244:Display/../../libs/PoliTeKDSP/libs/libDaisy/src/hid/disp/display.h ****         {
 441              		.loc 3 244 26 is_stmt 1 view .LVU113
 442 00ba 9942     		cmp	r1, r3
 443 00bc D9D1     		bne	.L18
 244:Display/../../libs/PoliTeKDSP/libs/libDaisy/src/hid/disp/display.h ****         {
 444              		.loc 3 244 26 is_stmt 0 view .LVU114
 445 00be 9642     		cmp	r6, r2
 446 00c0 D7D1     		bne	.L18
 447              	.L9:
 258:Display/../../libs/PoliTeKDSP/libs/libDaisy/src/hid/disp/display.h ****             }
 259:Display/../../libs/PoliTeKDSP/libs/libDaisy/src/hid/disp/display.h ****         }
 260:Display/../../libs/PoliTeKDSP/libs/libDaisy/src/hid/disp/display.h ****     }
 448              		.loc 3 260 5 view .LVU115
 449 00c2 03B0     		add	sp, sp, #12
 450              		.cfi_remember_state
 451              		.cfi_def_cfa_offset 36
 452              		@ sp needed
 453 00c4 BDE8F08F 		pop	{r4, r5, r6, r7, r8, r9, r10, fp, pc}
 454              	.LVL31:
 455              	.L20:
 456              		.cfi_restore_state
 457              	.LBB87:
 458              	.LBB86:
 459              	.LBB85:
 460              	.LBB83:
 461              	.LBI83:
 361:Display/../../libs/PoliTeKDSP/libs/libDaisy/src/dev/oled_ssd130x.h ****     {
 462              		.loc 2 361 10 is_stmt 1 view .LVU116
 463              	.LBB84:
 368:Display/../../libs/PoliTeKDSP/libs/libDaisy/src/dev/oled_ssd130x.h ****     }
 464              		.loc 2 368 49 is_stmt 0 view .LVU117
 465 00c8 0EFA0BFB 		lsl	fp, lr, fp
 368:Display/../../libs/PoliTeKDSP/libs/libDaisy/src/dev/oled_ssd130x.h ****     }
 466              		.loc 2 368 42 view .LVU118
 467 00cc 95F810E0 		ldrb	lr, [r5, #16]	@ zero_extendqisi2
 468 00d0 2EEA0B0E 		bic	lr, lr, fp
 469 00d4 85F810E0 		strb	lr, [r5, #16]
 470 00d8 E2E7     		b	.L19
 471              	.LVL32:
 472              	.L11:
 368:Display/../../libs/PoliTeKDSP/libs/libDaisy/src/dev/oled_ssd130x.h ****     }
 473              		.loc 2 368 42 view .LVU119
 474              	.LBE84:
ARM GAS  C:\Users\39351\AppData\Local\Temp\ccMNzW4C.s 			page 23


 475              	.LBE83:
 476              	.LBE85:
 477              	.LBE86:
 478              	.LBE87:
 479              	.LBB88:
  42:Display/../../libs/PoliTeKDSP/libs/libDaisy/src/hid/disp/oled_display.h ****     {
 480              		.loc 1 42 10 is_stmt 1 view .LVU120
 481              	.LBB74:
 361:Display/../../libs/PoliTeKDSP/libs/libDaisy/src/dev/oled_ssd130x.h ****     {
 482              		.loc 2 361 10 view .LVU121
 483              	.LBE74:
 484              	.LBE88:
 235:Display/../../libs/PoliTeKDSP/libs/libDaisy/src/hid/disp/display.h ****         int_fast16_t error  = deltaX - deltaY;
 485              		.loc 3 235 42 is_stmt 0 view .LVU122
 486 00da 0125     		movs	r5, #1
 487              	.LBB89:
 488              	.LBB75:
 489              	.LBB69:
 363:Display/../../libs/PoliTeKDSP/libs/libDaisy/src/dev/oled_ssd130x.h ****             return;
 490              		.loc 2 363 9 view .LVU123
 491 00dc 7F2B     		cmp	r3, #127
 492              	.LBE69:
 493              	.LBE75:
 494              	.LBE89:
 235:Display/../../libs/PoliTeKDSP/libs/libDaisy/src/hid/disp/display.h ****         int_fast16_t error  = deltaX - deltaY;
 495              		.loc 3 235 42 view .LVU124
 496 00de 0195     		str	r5, [sp, #4]
 497              	.LBB90:
 498              	.LBB76:
 499              	.LBB70:
 363:Display/../../libs/PoliTeKDSP/libs/libDaisy/src/dev/oled_ssd130x.h ****             return;
 500              		.loc 2 363 9 view .LVU125
 501 00e0 C5D8     		bhi	.L16
 502 00e2 3F2E     		cmp	r6, #63
 503 00e4 AED9     		bls	.L23
 504 00e6 C2E7     		b	.L16
 505              	.LVL33:
 506              	.L13:
 507              	.LBB64:
 508              	.LBI64:
 361:Display/../../libs/PoliTeKDSP/libs/libDaisy/src/dev/oled_ssd130x.h ****     {
 509              		.loc 2 361 10 is_stmt 1 view .LVU126
 510              	.LBB65:
 368:Display/../../libs/PoliTeKDSP/libs/libDaisy/src/dev/oled_ssd130x.h ****     }
 511              		.loc 2 368 49 is_stmt 0 view .LVU127
 512 00e8 07FA0EFE 		lsl	lr, r7, lr
 368:Display/../../libs/PoliTeKDSP/libs/libDaisy/src/dev/oled_ssd130x.h ****     }
 513              		.loc 2 368 42 view .LVU128
 514 00ec 2F7C     		ldrb	r7, [r5, #16]	@ zero_extendqisi2
 515              	.LBE65:
 516              	.LBE64:
 517              	.LBE70:
 518              	.LBE76:
 519              	.LBE90:
 244:Display/../../libs/PoliTeKDSP/libs/libDaisy/src/hid/disp/display.h ****         {
 520              		.loc 3 244 26 view .LVU129
 521 00ee 9642     		cmp	r6, r2
ARM GAS  C:\Users\39351\AppData\Local\Temp\ccMNzW4C.s 			page 24


 522              	.LBB91:
 523              	.LBB77:
 524              	.LBB71:
 525              	.LBB67:
 526              	.LBB66:
 368:Display/../../libs/PoliTeKDSP/libs/libDaisy/src/dev/oled_ssd130x.h ****     }
 527              		.loc 2 368 42 view .LVU130
 528 00f0 27EA0E07 		bic	r7, r7, lr
 529 00f4 2F74     		strb	r7, [r5, #16]
 530              	.LVL34:
 368:Display/../../libs/PoliTeKDSP/libs/libDaisy/src/dev/oled_ssd130x.h ****     }
 531              		.loc 2 368 42 view .LVU131
 532              	.LBE66:
 533              	.LBE67:
 534              	.LBE71:
 535              	.LBE77:
 536              	.LBE91:
 244:Display/../../libs/PoliTeKDSP/libs/libDaisy/src/hid/disp/display.h ****         {
 537              		.loc 3 244 26 is_stmt 1 view .LVU132
 538 00f6 B8D0     		beq	.L35
 539 00f8 B9E7     		b	.L16
 540              		.cfi_endproc
 541              	.LFE2805:
 543 00fa 00BF     		.section	.rodata._ZN14DisplayHandlerC2EPN5daisy11OledDisplayINS0_13SSD130xDriverILj128ELj64ENS0_19
 544              		.align	2
 545              	.LC0:
 546 0000 506F6C69 		.ascii	"PoliTeK PSP\000"
 546      54654B20 
 546      50535000 
 547              		.section	.text._ZN14DisplayHandlerC2EPN5daisy11OledDisplayINS0_13SSD130xDriverILj128ELj64ENS0_19SS
 548              		.align	1
 549              		.p2align 2,,3
 550              		.global	_ZN14DisplayHandlerC2EPN5daisy11OledDisplayINS0_13SSD130xDriverILj128ELj64ENS0_19SSD130xI2
 551              		.syntax unified
 552              		.thumb
 553              		.thumb_func
 554              		.fpu fpv5-d16
 556              	_ZN14DisplayHandlerC2EPN5daisy11OledDisplayINS0_13SSD130xDriverILj128ELj64ENS0_19SSD130xI2CTranspor
 557              	.LVL35:
 558              	.LFB2782:
 559              		.file 4 "Display/displayHandler.cpp"
   1:Display/displayHandler.cpp **** #include "displayHandler.h"
   2:Display/displayHandler.cpp **** 
   3:Display/displayHandler.cpp **** 
   4:Display/displayHandler.cpp **** DisplayHandler::DisplayHandler (MyOledDisplay* displayPtr, bool triggerEnabled){
 560              		.loc 4 4 1 view -0
 561              		.cfi_startproc
 562              		@ args = 0, pretend = 0, frame = 0
 563              		@ frame_needed = 0, uses_anonymous_args = 0
 564              		.loc 4 4 1 is_stmt 0 view .LVU134
 565 0000 70B5     		push	{r4, r5, r6, lr}
 566              		.cfi_def_cfa_offset 16
 567              		.cfi_offset 4, -16
 568              		.cfi_offset 5, -12
 569              		.cfi_offset 6, -8
 570              		.cfi_offset 14, -4
 571              	.LBB92:
ARM GAS  C:\Users\39351\AppData\Local\Temp\ccMNzW4C.s 			page 25


 572              		.loc 4 4 79 view .LVU135
 573 0002 0023     		movs	r3, #0
 574              	.LBE92:
 575              		.loc 4 4 1 view .LVU136
 576 0004 0446     		mov	r4, r0
 577 0006 1546     		mov	r5, r2
 578              	.LBB93:
 579              		.loc 4 4 79 view .LVU137
 580 0008 8020     		movs	r0, #128
 581              	.LVL36:
 582              		.loc 4 4 79 view .LVU138
 583 000a 0A4A     		ldr	r2, .L38
 584              	.LVL37:
 585              		.loc 4 4 79 view .LVU139
 586              	.LBE93:
 587              		.loc 4 4 1 view .LVU140
 588 000c 0E46     		mov	r6, r1
 589              	.LBB94:
 590              		.loc 4 4 79 view .LVU141
 591 000e C4F80808 		str	r0, [r4, #2056]
   5:Display/displayHandler.cpp ****     // should clean circular buffer
   6:Display/displayHandler.cpp ****     memset((void*) _circBuffer_ptr, 0, sizeof(_circBuffer_ptr));
 592              		.loc 4 6 11 view .LVU142
 593 0012 1946     		mov	r1, r3
 594              	.LVL38:
   4:Display/displayHandler.cpp ****     // should clean circular buffer
 595              		.loc 4 4 79 view .LVU143
 596 0014 C4F81828 		str	r2, [r4, #2072]
 597              		.loc 4 6 5 is_stmt 1 view .LVU144
 598              		.loc 4 6 11 is_stmt 0 view .LVU145
 599 0018 04F10800 		add	r0, r4, #8
 600 001c 4FF48062 		mov	r2, #1024
   4:Display/displayHandler.cpp ****     // should clean circular buffer
 601              		.loc 4 4 79 view .LVU146
 602 0020 2371     		strb	r3, [r4, #4]
 603 0022 C4F80C38 		str	r3, [r4, #2060]
 604              		.loc 4 6 11 view .LVU147
 605 0026 FFF7FEFF 		bl	memset
 606              	.LVL39:
   7:Display/displayHandler.cpp ****     
   8:Display/displayHandler.cpp ****     // sets pointer of display
   9:Display/displayHandler.cpp ****     _displayPtr = displayPtr;
 607              		.loc 4 9 5 is_stmt 1 view .LVU148
 608              	.LBE94:
  10:Display/displayHandler.cpp ****     _triggerEnabled = triggerEnabled;
  11:Display/displayHandler.cpp **** 
  12:Display/displayHandler.cpp **** }
 609              		.loc 4 12 1 is_stmt 0 view .LVU149
 610 002a 2046     		mov	r0, r4
 611              	.LBB95:
   9:Display/displayHandler.cpp ****     _triggerEnabled = triggerEnabled;
 612              		.loc 4 9 17 view .LVU150
 613 002c 2660     		str	r6, [r4]
  10:Display/displayHandler.cpp ****     _triggerEnabled = triggerEnabled;
 614              		.loc 4 10 5 is_stmt 1 view .LVU151
  10:Display/displayHandler.cpp ****     _triggerEnabled = triggerEnabled;
 615              		.loc 4 10 21 is_stmt 0 view .LVU152
ARM GAS  C:\Users\39351\AppData\Local\Temp\ccMNzW4C.s 			page 26


 616 002e 84F81058 		strb	r5, [r4, #2064]
 617              	.LBE95:
 618              		.loc 4 12 1 view .LVU153
 619 0032 70BD     		pop	{r4, r5, r6, pc}
 620              	.LVL40:
 621              	.L39:
 622              		.loc 4 12 1 view .LVU154
 623              		.align	2
 624              	.L38:
 625 0034 00000000 		.word	.LC0
 626              		.cfi_endproc
 627              	.LFE2782:
 629              		.global	_ZN14DisplayHandlerC1EPN5daisy11OledDisplayINS0_13SSD130xDriverILj128ELj64ENS0_19SSD130xI2
 630              		.thumb_set _ZN14DisplayHandlerC1EPN5daisy11OledDisplayINS0_13SSD130xDriverILj128ELj64ENS0_19SSD130
 631              		.section	.rodata._ZN14DisplayHandler12drawPotValueEv.str1.4,"aMS",%progbits,1
 632              		.align	2
 633              	.LC1:
 634 0000 256400   		.ascii	"%d\000"
 635              		.section	.text._ZN14DisplayHandler12drawPotValueEv,"ax",%progbits
 636              		.align	1
 637              		.p2align 2,,3
 638              		.global	_ZN14DisplayHandler12drawPotValueEv
 639              		.syntax unified
 640              		.thumb
 641              		.thumb_func
 642              		.fpu fpv5-d16
 644              	_ZN14DisplayHandler12drawPotValueEv:
 645              	.LVL41:
 646              	.LFB2785:
  13:Display/displayHandler.cpp **** 
  14:Display/displayHandler.cpp **** void DisplayHandler::Update(){
  15:Display/displayHandler.cpp ****     switch (_currentState){
  16:Display/displayHandler.cpp ****         case DisplayState::STANDBY:
  17:Display/displayHandler.cpp ****             drawStandbyScreen();
  18:Display/displayHandler.cpp ****             break;
  19:Display/displayHandler.cpp **** 
  20:Display/displayHandler.cpp ****         case DisplayState::WAVEFORM_VIEWER:
  21:Display/displayHandler.cpp ****             drawWaveForm();
  22:Display/displayHandler.cpp ****             break;
  23:Display/displayHandler.cpp **** 
  24:Display/displayHandler.cpp ****         case DisplayState::POT_VALUE:
  25:Display/displayHandler.cpp ****             drawPotValue();
  26:Display/displayHandler.cpp ****             break;
  27:Display/displayHandler.cpp ****     }
  28:Display/displayHandler.cpp ****     _displayPtr->Update();
  29:Display/displayHandler.cpp **** }
  30:Display/displayHandler.cpp **** 
  31:Display/displayHandler.cpp **** 
  32:Display/displayHandler.cpp **** /* NEEDS HEAVY TUNING*/
  33:Display/displayHandler.cpp **** void DisplayHandler::drawPotValue(){
 647              		.loc 4 33 36 is_stmt 1 view -0
 648              		.cfi_startproc
 649              		@ args = 0, pretend = 0, frame = 8
 650              		@ frame_needed = 0, uses_anonymous_args = 0
  34:Display/displayHandler.cpp **** 
  35:Display/displayHandler.cpp ****     // rescaling float val -> NEEDS DEBUGGING ON BOARD TO TRIM THIS VAL
  36:Display/displayHandler.cpp ****     int rescaledVal = (int) *_potValuePtr * 10.f;
ARM GAS  C:\Users\39351\AppData\Local\Temp\ccMNzW4C.s 			page 27


 651              		.loc 4 36 5 view .LVU156
  33:Display/displayHandler.cpp **** 
 652              		.loc 4 33 36 is_stmt 0 view .LVU157
 653 0000 10B5     		push	{r4, lr}
 654              		.cfi_def_cfa_offset 8
 655              		.cfi_offset 4, -8
 656              		.cfi_offset 14, -4
 657 0002 0446     		mov	r4, r0
 658              	.LVL42:
  37:Display/displayHandler.cpp ****     
  38:Display/displayHandler.cpp ****     // chosen to be four
  39:Display/displayHandler.cpp ****     char intToString_rescaledValue [4];
 659              		.loc 4 39 5 is_stmt 1 view .LVU158
  40:Display/displayHandler.cpp ****     sprintf(intToString_rescaledValue, "%d",rescaledVal);
 660              		.loc 4 40 5 view .LVU159
  36:Display/displayHandler.cpp ****     
 661              		.loc 4 36 43 is_stmt 0 view .LVU160
 662 0004 B2EE047A 		vmov.f32	s14, #1.0e+1
  33:Display/displayHandler.cpp **** 
 663              		.loc 4 33 36 view .LVU161
 664 0008 84B0     		sub	sp, sp, #16
 665              		.cfi_def_cfa_offset 24
 666              		.loc 4 40 12 view .LVU162
 667 000a 0E49     		ldr	r1, .L42
  36:Display/displayHandler.cpp ****     
 668              		.loc 4 36 29 view .LVU163
 669 000c D4F81438 		ldr	r3, [r4, #2068]
 670              		.loc 4 40 12 view .LVU164
 671 0010 03A8     		add	r0, sp, #12
 672              	.LVL43:
  36:Display/displayHandler.cpp ****     
 673              		.loc 4 36 23 view .LVU165
 674 0012 D3ED007A 		vldr.32	s15, [r3]
 675 0016 FDEEE77A 		vcvt.s32.f32	s15, s15
  36:Display/displayHandler.cpp ****     
 676              		.loc 4 36 43 view .LVU166
 677 001a F8EEE77A 		vcvt.f32.s32	s15, s15
 678 001e 67EE877A 		vmul.f32	s15, s15, s14
 679              		.loc 4 40 12 view .LVU167
 680 0022 FDEEE77A 		vcvt.s32.f32	s15, s15
 681 0026 17EE902A 		vmov	r2, s15	@ int
 682 002a FFF7FEFF 		bl	sprintf
 683              	.LVL44:
  41:Display/displayHandler.cpp ****     
  42:Display/displayHandler.cpp ****     // write to display the string containig the resacled val
  43:Display/displayHandler.cpp ****     _displayPtr->WriteString((const char*)intToString_rescaledValue,Font_16x26, true);
 684              		.loc 4 43 5 is_stmt 1 view .LVU168
 685 002e 2068     		ldr	r0, [r4]
 686              		.loc 4 43 29 is_stmt 0 view .LVU169
 687 0030 0122     		movs	r2, #1
 688 0032 054B     		ldr	r3, .L42+4
 689              		.loc 4 43 85 view .LVU170
 690 0034 0468     		ldr	r4, [r0]
 691              	.LVL45:
 692              		.loc 4 43 29 view .LVU171
 693 0036 03A9     		add	r1, sp, #12
 694 0038 0092     		str	r2, [sp]
ARM GAS  C:\Users\39351\AppData\Local\Temp\ccMNzW4C.s 			page 28


 695 003a A46A     		ldr	r4, [r4, #40]
 696 003c 0CCB     		ldm	r3, {r2, r3}
 697 003e A047     		blx	r4
 698              	.LVL46:
  44:Display/displayHandler.cpp ****   
  45:Display/displayHandler.cpp **** }
 699              		.loc 4 45 1 view .LVU172
 700 0040 04B0     		add	sp, sp, #16
 701              		.cfi_def_cfa_offset 8
 702              		@ sp needed
 703 0042 10BD     		pop	{r4, pc}
 704              	.L43:
 705              		.align	2
 706              	.L42:
 707 0044 00000000 		.word	.LC1
 708 0048 00000000 		.word	Font_16x26
 709              		.cfi_endproc
 710              	.LFE2785:
 712              		.section	.text._ZN14DisplayHandler8SetStateE12DisplayState,"ax",%progbits
 713              		.align	1
 714              		.p2align 2,,3
 715              		.global	_ZN14DisplayHandler8SetStateE12DisplayState
 716              		.syntax unified
 717              		.thumb
 718              		.thumb_func
 719              		.fpu fpv5-d16
 721              	_ZN14DisplayHandler8SetStateE12DisplayState:
 722              	.LVL47:
 723              	.LFB2786:
  46:Display/displayHandler.cpp **** 
  47:Display/displayHandler.cpp **** 
  48:Display/displayHandler.cpp **** void DisplayHandler::SetState(DisplayState newState){
 724              		.loc 4 48 53 is_stmt 1 view -0
 725              		.cfi_startproc
 726              		@ args = 0, pretend = 0, frame = 0
 727              		@ frame_needed = 0, uses_anonymous_args = 0
  49:Display/displayHandler.cpp **** 
  50:Display/displayHandler.cpp ****     // clears display at each new state
  51:Display/displayHandler.cpp ****     _displayPtr->Fill(false);
 728              		.loc 4 51 5 view .LVU174
  48:Display/displayHandler.cpp **** 
 729              		.loc 4 48 53 is_stmt 0 view .LVU175
 730 0000 38B5     		push	{r3, r4, r5, lr}
 731              		.cfi_def_cfa_offset 16
 732              		.cfi_offset 3, -16
 733              		.cfi_offset 4, -12
 734              		.cfi_offset 5, -8
 735              		.cfi_offset 14, -4
  48:Display/displayHandler.cpp **** 
 736              		.loc 4 48 53 view .LVU176
 737 0002 0446     		mov	r4, r0
 738              		.loc 4 51 5 view .LVU177
 739 0004 0068     		ldr	r0, [r0]
 740              	.LVL48:
 741              		.loc 4 51 5 view .LVU178
 742 0006 094A     		ldr	r2, .L48
  48:Display/displayHandler.cpp **** 
ARM GAS  C:\Users\39351\AppData\Local\Temp\ccMNzW4C.s 			page 29


 743              		.loc 4 48 53 view .LVU179
 744 0008 0D46     		mov	r5, r1
 745              		.loc 4 51 28 view .LVU180
 746 000a 0368     		ldr	r3, [r0]
 747 000c 1B69     		ldr	r3, [r3, #16]
 748 000e 9342     		cmp	r3, r2
 749 0010 07D1     		bne	.L45
 750              	.LBB100:
 751              	.LBB101:
 752              	.LBB102:
 375:Display/../../libs/PoliTeKDSP/libs/libDaisy/src/dev/oled_ssd130x.h ****         }
 753              		.loc 2 375 24 view .LVU181
 754 0012 4FF48062 		mov	r2, #1024
 755 0016 0021     		movs	r1, #0
 756              	.LVL49:
 375:Display/../../libs/PoliTeKDSP/libs/libDaisy/src/dev/oled_ssd130x.h ****         }
 757              		.loc 2 375 24 view .LVU182
 758 0018 1030     		adds	r0, r0, #16
 759 001a FFF7FEFF 		bl	memset
 760              	.LVL50:
 761              	.LBE102:
 762              	.LBE101:
 763              	.LBE100:
  52:Display/displayHandler.cpp ****     _currentState = newState;
 764              		.loc 4 52 5 is_stmt 1 view .LVU183
 765              		.loc 4 52 19 is_stmt 0 view .LVU184
 766 001e 2571     		strb	r5, [r4, #4]
  53:Display/displayHandler.cpp **** }
 767              		.loc 4 53 1 view .LVU185
 768 0020 38BD     		pop	{r3, r4, r5, pc}
 769              	.LVL51:
 770              	.L45:
  51:Display/displayHandler.cpp ****     _currentState = newState;
 771              		.loc 4 51 22 view .LVU186
 772 0022 0021     		movs	r1, #0
 773              	.LVL52:
  51:Display/displayHandler.cpp ****     _currentState = newState;
 774              		.loc 4 51 22 view .LVU187
 775 0024 9847     		blx	r3
 776              	.LVL53:
  52:Display/displayHandler.cpp ****     _currentState = newState;
 777              		.loc 4 52 5 is_stmt 1 view .LVU188
  52:Display/displayHandler.cpp ****     _currentState = newState;
 778              		.loc 4 52 19 is_stmt 0 view .LVU189
 779 0026 2571     		strb	r5, [r4, #4]
 780              		.loc 4 53 1 view .LVU190
 781 0028 38BD     		pop	{r3, r4, r5, pc}
 782              	.LVL54:
 783              	.L49:
 784              		.loc 4 53 1 view .LVU191
 785 002a 00BF     		.align	2
 786              	.L48:
 787 002c 00000000 		.word	_ZN5daisy11OledDisplayINS_13SSD130xDriverILj128ELj64ENS_19SSD130xI2CTransportEEEE4FillEb
 788              		.cfi_endproc
 789              	.LFE2786:
 791              		.section	.text._ZN14DisplayHandler14SetStandbyTextEPKc,"ax",%progbits
 792              		.align	1
ARM GAS  C:\Users\39351\AppData\Local\Temp\ccMNzW4C.s 			page 30


 793              		.p2align 2,,3
 794              		.global	_ZN14DisplayHandler14SetStandbyTextEPKc
 795              		.syntax unified
 796              		.thumb
 797              		.thumb_func
 798              		.fpu fpv5-d16
 800              	_ZN14DisplayHandler14SetStandbyTextEPKc:
 801              	.LVL55:
 802              	.LFB2787:
  54:Display/displayHandler.cpp **** 
  55:Display/displayHandler.cpp **** void DisplayHandler::SetStandbyText(const char* text){
 803              		.loc 4 55 54 is_stmt 1 view -0
 804              		.cfi_startproc
 805              		@ args = 0, pretend = 0, frame = 0
 806              		@ frame_needed = 0, uses_anonymous_args = 0
 807              		@ link register save eliminated.
  56:Display/displayHandler.cpp ****     if(text != nullptr)
 808              		.loc 4 56 5 view .LVU193
 809 0000 89B1     		cbz	r1, .L54
  57:Display/displayHandler.cpp ****     {
  58:Display/displayHandler.cpp ****         _standbyText = text;
 810              		.loc 4 58 9 view .LVU194
  59:Display/displayHandler.cpp ****         _displayPtr->Fill(false);
 811              		.loc 4 59 9 is_stmt 0 view .LVU195
 812 0002 0368     		ldr	r3, [r0]
 813              		.loc 4 59 32 view .LVU196
 814 0004 1A68     		ldr	r2, [r3]
  55:Display/displayHandler.cpp ****     if(text != nullptr)
 815              		.loc 4 55 54 view .LVU197
 816 0006 10B4     		push	{r4}
 817              		.cfi_def_cfa_offset 4
 818              		.cfi_offset 4, -4
 819              		.loc 4 59 32 view .LVU198
 820 0008 1269     		ldr	r2, [r2, #16]
 821 000a 0A4C     		ldr	r4, .L58
  58:Display/displayHandler.cpp ****         _displayPtr->Fill(false);
 822              		.loc 4 58 22 view .LVU199
 823 000c C0F81818 		str	r1, [r0, #2072]
 824              		.loc 4 59 9 is_stmt 1 view .LVU200
 825 0010 A242     		cmp	r2, r4
 826 0012 09D1     		bne	.L53
 827              	.LBB107:
 828              	.LBB108:
 829              	.LBB109:
 375:Display/../../libs/PoliTeKDSP/libs/libDaisy/src/dev/oled_ssd130x.h ****         }
 830              		.loc 2 375 24 is_stmt 0 view .LVU201
 831 0014 4FF48062 		mov	r2, #1024
 832 0018 0021     		movs	r1, #0
 833              	.LVL56:
 375:Display/../../libs/PoliTeKDSP/libs/libDaisy/src/dev/oled_ssd130x.h ****         }
 834              		.loc 2 375 24 view .LVU202
 835 001a 03F11000 		add	r0, r3, #16
 836              	.LVL57:
 375:Display/../../libs/PoliTeKDSP/libs/libDaisy/src/dev/oled_ssd130x.h ****         }
 837              		.loc 2 375 24 view .LVU203
 838              	.LBE109:
 839              	.LBE108:
ARM GAS  C:\Users\39351\AppData\Local\Temp\ccMNzW4C.s 			page 31


 840              	.LBE107:
  60:Display/displayHandler.cpp ****     }
  61:Display/displayHandler.cpp **** }
 841              		.loc 4 61 1 view .LVU204
 842 001e 5DF8044B 		ldr	r4, [sp], #4
 843              		.cfi_restore 4
 844              		.cfi_def_cfa_offset 0
 845              	.LBB112:
 846              	.LBB111:
 847              	.LBB110:
 375:Display/../../libs/PoliTeKDSP/libs/libDaisy/src/dev/oled_ssd130x.h ****         }
 848              		.loc 2 375 24 view .LVU205
 849 0022 FFF7FEBF 		b	memset
 850              	.LVL58:
 851              	.L54:
 375:Display/../../libs/PoliTeKDSP/libs/libDaisy/src/dev/oled_ssd130x.h ****         }
 852              		.loc 2 375 24 view .LVU206
 853 0026 7047     		bx	lr
 854              	.L53:
 855              		.cfi_def_cfa_offset 4
 856              		.cfi_offset 4, -4
 375:Display/../../libs/PoliTeKDSP/libs/libDaisy/src/dev/oled_ssd130x.h ****         }
 857              		.loc 2 375 24 view .LVU207
 858              	.LBE110:
 859              	.LBE111:
 860              	.LBE112:
  59:Display/displayHandler.cpp ****     }
 861              		.loc 4 59 26 view .LVU208
 862 0028 0021     		movs	r1, #0
 863              	.LVL59:
  59:Display/displayHandler.cpp ****     }
 864              		.loc 4 59 26 view .LVU209
 865 002a 1846     		mov	r0, r3
 866              	.LVL60:
 867              		.loc 4 61 1 view .LVU210
 868 002c 5DF8044B 		ldr	r4, [sp], #4
 869              		.cfi_restore 4
 870              		.cfi_def_cfa_offset 0
  59:Display/displayHandler.cpp ****     }
 871              		.loc 4 59 26 view .LVU211
 872 0030 1047     		bx	r2	@ indirect register sibling call
 873              	.LVL61:
 874              	.L59:
  59:Display/displayHandler.cpp ****     }
 875              		.loc 4 59 26 view .LVU212
 876 0032 00BF     		.align	2
 877              	.L58:
 878 0034 00000000 		.word	_ZN5daisy11OledDisplayINS_13SSD130xDriverILj128ELj64ENS_19SSD130xI2CTransportEEEE4FillEb
 879              		.cfi_endproc
 880              	.LFE2787:
 882              		.section	.text._ZN14DisplayHandler15pushAudioSampleEf,"ax",%progbits
 883              		.align	1
 884              		.p2align 2,,3
 885              		.global	_ZN14DisplayHandler15pushAudioSampleEf
 886              		.syntax unified
 887              		.thumb
 888              		.thumb_func
ARM GAS  C:\Users\39351\AppData\Local\Temp\ccMNzW4C.s 			page 32


 889              		.fpu fpv5-d16
 891              	_ZN14DisplayHandler15pushAudioSampleEf:
 892              	.LVL62:
 893              	.LFB2788:
  62:Display/displayHandler.cpp **** 
  63:Display/displayHandler.cpp **** 
  64:Display/displayHandler.cpp **** // fills buffer for waveform viewer: to be called in audio callback
  65:Display/displayHandler.cpp **** void DisplayHandler::pushAudioSample(float sample){
 894              		.loc 4 65 51 is_stmt 1 view -0
 895              		.cfi_startproc
 896              		@ args = 0, pretend = 0, frame = 0
 897              		@ frame_needed = 0, uses_anonymous_args = 0
 898              		@ link register save eliminated.
  66:Display/displayHandler.cpp ****     _circBuffer_ptr[_writeHead] = sample;
 899              		.loc 4 66 5 view .LVU214
 900              		.loc 4 66 21 is_stmt 0 view .LVU215
 901 0000 D0F80C28 		ldr	r2, [r0, #2060]
  67:Display/displayHandler.cpp **** 
  68:Display/displayHandler.cpp ****     // Implements circular buffer logic
  69:Display/displayHandler.cpp ****     _writeHead = (_writeHead + 1) % BUFFER_SIZE;
 902              		.loc 4 69 30 view .LVU216
 903 0004 531C     		adds	r3, r2, #1
  66:Display/displayHandler.cpp ****     _circBuffer_ptr[_writeHead] = sample;
 904              		.loc 4 66 33 view .LVU217
 905 0006 00EB8202 		add	r2, r0, r2, lsl #2
 906              		.loc 4 69 35 view .LVU218
 907 000a 5942     		rsbs	r1, r3, #0
  66:Display/displayHandler.cpp ****     _circBuffer_ptr[_writeHead] = sample;
 908              		.loc 4 66 33 view .LVU219
 909 000c 82ED020A 		vstr.32	s0, [r2, #8]
 910              		.loc 4 69 5 is_stmt 1 view .LVU220
 911              		.loc 4 69 35 is_stmt 0 view .LVU221
 912 0010 DBB2     		uxtb	r3, r3
 913 0012 CAB2     		uxtb	r2, r1
 914 0014 58BF     		it	pl
 915 0016 5342     		rsbpl	r3, r2, #0
 916              		.loc 4 69 16 view .LVU222
 917 0018 C0F80C38 		str	r3, [r0, #2060]
  70:Display/displayHandler.cpp **** }
 918              		.loc 4 70 1 view .LVU223
 919 001c 7047     		bx	lr
 920              		.cfi_endproc
 921              	.LFE2788:
 923 001e 00BF     		.section	.text._ZN14DisplayHandler11findTriggerEv,"ax",%progbits
 924              		.align	1
 925              		.p2align 2,,3
 926              		.global	_ZN14DisplayHandler11findTriggerEv
 927              		.syntax unified
 928              		.thumb
 929              		.thumb_func
 930              		.fpu fpv5-d16
 932              	_ZN14DisplayHandler11findTriggerEv:
 933              	.LVL63:
 934              	.LFB2789:
  71:Display/displayHandler.cpp **** 
  72:Display/displayHandler.cpp **** // Trigger logic
  73:Display/displayHandler.cpp **** int DisplayHandler::findTrigger(){
ARM GAS  C:\Users\39351\AppData\Local\Temp\ccMNzW4C.s 			page 33


 935              		.loc 4 73 34 is_stmt 1 view -0
 936              		.cfi_startproc
 937              		@ args = 0, pretend = 0, frame = 0
 938              		@ frame_needed = 0, uses_anonymous_args = 0
  74:Display/displayHandler.cpp ****     float currVal = 0;
 939              		.loc 4 74 5 view .LVU225
  75:Display/displayHandler.cpp ****     float nextVal= 0;
 940              		.loc 4 75 5 view .LVU226
  76:Display/displayHandler.cpp ****     static int trigIdx = 0;
 941              		.loc 4 76 5 view .LVU227
  77:Display/displayHandler.cpp **** 
  78:Display/displayHandler.cpp ****     // _writeHead is the most recent
  79:Display/displayHandler.cpp ****     int oldestSampleIdx = _writeHead + 1;
 942              		.loc 4 79 5 view .LVU228
  80:Display/displayHandler.cpp **** 
  81:Display/displayHandler.cpp ****     // what?
  82:Display/displayHandler.cpp ****     // if (trigIdx < 0) trigIdx = BUFFER_SIZE - trigIdx;
  83:Display/displayHandler.cpp ****     
  84:Display/displayHandler.cpp ****     if (_triggerEnabled==true){
 943              		.loc 4 84 5 view .LVU229
 944              	.LBB113:
 945 0000 90F81038 		ldrb	r3, [r0, #2064]	@ zero_extendqisi2
 946 0004 13B9     		cbnz	r3, .L62
 947              	.LBE113:
  85:Display/displayHandler.cpp ****         
  86:Display/displayHandler.cpp **** 
  87:Display/displayHandler.cpp ****         // finds the offset from oldest sample from where to get the trigger
  88:Display/displayHandler.cpp ****         for (int i = oldestSampleIdx; i < oldestSampleIdx + _windowSize; i++){
  89:Display/displayHandler.cpp ****             currVal = _circBuffer_ptr[i  % BUFFER_SIZE];
  90:Display/displayHandler.cpp ****             nextVal = _circBuffer_ptr[ (i+1)  % BUFFER_SIZE];
  91:Display/displayHandler.cpp ****              
  92:Display/displayHandler.cpp ****             // trigger condition: rising edge
  93:Display/displayHandler.cpp ****             if (currVal < 0.f && nextVal >= 0.f){
  94:Display/displayHandler.cpp ****                 trigIdx = i  % BUFFER_SIZE;
  95:Display/displayHandler.cpp ****                 break; // CHANGE THIS BECAUSE BREAK IS UGLY
  96:Display/displayHandler.cpp ****             }
  97:Display/displayHandler.cpp ****         }
  98:Display/displayHandler.cpp ****     }           
  99:Display/displayHandler.cpp ****     return trigIdx;
 948              		.loc 4 99 12 is_stmt 0 view .LVU230
 949 0006 1F4B     		ldr	r3, .L75
 950 0008 1868     		ldr	r0, [r3]
 951              	.LVL64:
 100:Display/displayHandler.cpp **** }
 952              		.loc 4 100 1 view .LVU231
 953 000a 7047     		bx	lr
 954              	.LVL65:
 955              	.L62:
  79:Display/displayHandler.cpp **** 
 956              		.loc 4 79 9 view .LVU232
 957 000c D0F80C38 		ldr	r3, [r0, #2060]
 958              	.LBB117:
 959              	.LBB114:
  88:Display/displayHandler.cpp ****             currVal = _circBuffer_ptr[i  % BUFFER_SIZE];
 960              		.loc 4 88 59 view .LVU233
 961 0010 D0F80828 		ldr	r2, [r0, #2056]
 962              	.LBE114:
ARM GAS  C:\Users\39351\AppData\Local\Temp\ccMNzW4C.s 			page 34


 963              	.LBE117:
  79:Display/displayHandler.cpp **** 
 964              		.loc 4 79 9 view .LVU234
 965 0014 0133     		adds	r3, r3, #1
 966              	.LVL66:
 967              	.LBB118:
 968              	.LBB115:
  88:Display/displayHandler.cpp ****             currVal = _circBuffer_ptr[i  % BUFFER_SIZE];
 969              		.loc 4 88 41 is_stmt 1 view .LVU235
 970              	.LBE115:
 971              	.LBE118:
  73:Display/displayHandler.cpp ****     float currVal = 0;
 972              		.loc 4 73 34 is_stmt 0 view .LVU236
 973 0016 00B5     		push	{lr}
 974              		.cfi_def_cfa_offset 4
 975              		.cfi_offset 14, -4
 976              	.LBB119:
 977              	.LBB116:
  88:Display/displayHandler.cpp ****             currVal = _circBuffer_ptr[i  % BUFFER_SIZE];
 978              		.loc 4 88 59 view .LVU237
 979 0018 03EB020E 		add	lr, r3, r2
  88:Display/displayHandler.cpp ****             currVal = _circBuffer_ptr[i  % BUFFER_SIZE];
 980              		.loc 4 88 41 view .LVU238
 981 001c 7345     		cmp	r3, lr
 982 001e 2DDA     		bge	.L64
  89:Display/displayHandler.cpp ****             nextVal = _circBuffer_ptr[ (i+1)  % BUFFER_SIZE];
 983              		.loc 4 89 42 view .LVU239
 984 0020 5942     		rsbs	r1, r3, #0
 985 0022 DAB2     		uxtb	r2, r3
 986 0024 C9B2     		uxtb	r1, r1
 987 0026 58BF     		it	pl
 988 0028 4A42     		rsbpl	r2, r1, #0
  89:Display/displayHandler.cpp ****             nextVal = _circBuffer_ptr[ (i+1)  % BUFFER_SIZE];
 989              		.loc 4 89 21 view .LVU240
 990 002a 00EB8202 		add	r2, r0, r2, lsl #2
 991 002e D2ED027A 		vldr.32	s15, [r2, #8]
 992 0032 01E0     		b	.L65
 993              	.LVL67:
 994              	.L66:
  88:Display/displayHandler.cpp ****             currVal = _circBuffer_ptr[i  % BUFFER_SIZE];
 995              		.loc 4 88 41 discriminator 1 view .LVU241
 996 0034 7345     		cmp	r3, lr
 997 0036 21D0     		beq	.L64
 998              	.LVL68:
 999              	.L65:
  89:Display/displayHandler.cpp ****             nextVal = _circBuffer_ptr[ (i+1)  % BUFFER_SIZE];
 1000              		.loc 4 89 13 is_stmt 1 view .LVU242
  90:Display/displayHandler.cpp ****              
 1001              		.loc 4 90 13 view .LVU243
 1002 0038 9C46     		mov	ip, r3
  90:Display/displayHandler.cpp ****              
 1003              		.loc 4 90 42 is_stmt 0 view .LVU244
 1004 003a 0133     		adds	r3, r3, #1
 1005              	.LVL69:
  88:Display/displayHandler.cpp ****             currVal = _circBuffer_ptr[i  % BUFFER_SIZE];
 1006              		.loc 4 88 41 is_stmt 1 view .LVU245
 1007 003c B0EE677A 		vmov.f32	s14, s15
ARM GAS  C:\Users\39351\AppData\Local\Temp\ccMNzW4C.s 			page 35


  90:Display/displayHandler.cpp ****              
 1008              		.loc 4 90 47 is_stmt 0 view .LVU246
 1009 0040 5942     		rsbs	r1, r3, #0
 1010 0042 DAB2     		uxtb	r2, r3
  93:Display/displayHandler.cpp ****                 trigIdx = i  % BUFFER_SIZE;
 1011              		.loc 4 93 13 view .LVU247
 1012 0044 B5EEC07A 		vcmpe.f32	s14, #0
  90:Display/displayHandler.cpp ****              
 1013              		.loc 4 90 47 view .LVU248
 1014 0048 C9B2     		uxtb	r1, r1
 1015 004a 58BF     		it	pl
 1016 004c 4A42     		rsbpl	r2, r1, #0
  93:Display/displayHandler.cpp ****                 trigIdx = i  % BUFFER_SIZE;
 1017              		.loc 4 93 13 view .LVU249
 1018 004e F1EE10FA 		vmrs	APSR_nzcv, FPSCR
  90:Display/displayHandler.cpp ****              
 1019              		.loc 4 90 21 view .LVU250
 1020 0052 00EB8202 		add	r2, r0, r2, lsl #2
 1021 0056 D2ED027A 		vldr.32	s15, [r2, #8]
 1022              	.LVL70:
  93:Display/displayHandler.cpp ****                 trigIdx = i  % BUFFER_SIZE;
 1023              		.loc 4 93 13 is_stmt 1 view .LVU251
 1024 005a EBD5     		bpl	.L66
  93:Display/displayHandler.cpp ****                 trigIdx = i  % BUFFER_SIZE;
 1025              		.loc 4 93 31 is_stmt 0 discriminator 1 view .LVU252
 1026 005c F5EEC07A 		vcmpe.f32	s15, #0
 1027 0060 F1EE10FA 		vmrs	APSR_nzcv, FPSCR
 1028 0064 E6DB     		blt	.L66
  89:Display/displayHandler.cpp ****             nextVal = _circBuffer_ptr[ (i+1)  % BUFFER_SIZE];
 1029              		.loc 4 89 42 view .LVU253
 1030 0066 DCF10003 		rsbs	r3, ip, #0
 1031              	.LVL71:
  89:Display/displayHandler.cpp ****             nextVal = _circBuffer_ptr[ (i+1)  % BUFFER_SIZE];
 1032              		.loc 4 89 42 view .LVU254
 1033 006a 5FFA8CF0 		uxtb	r0, ip
 1034              	.LVL72:
  94:Display/displayHandler.cpp ****                 break; // CHANGE THIS BECAUSE BREAK IS UGLY
 1035              		.loc 4 94 25 view .LVU255
 1036 006e 054A     		ldr	r2, .L75
  89:Display/displayHandler.cpp ****             nextVal = _circBuffer_ptr[ (i+1)  % BUFFER_SIZE];
 1037              		.loc 4 89 42 view .LVU256
 1038 0070 DBB2     		uxtb	r3, r3
 1039 0072 58BF     		it	pl
 1040 0074 5842     		rsbpl	r0, r3, #0
  94:Display/displayHandler.cpp ****                 break; // CHANGE THIS BECAUSE BREAK IS UGLY
 1041              		.loc 4 94 17 is_stmt 1 view .LVU257
  94:Display/displayHandler.cpp ****                 break; // CHANGE THIS BECAUSE BREAK IS UGLY
 1042              		.loc 4 94 25 is_stmt 0 view .LVU258
 1043 0076 1060     		str	r0, [r2]
  95:Display/displayHandler.cpp ****             }
 1044              		.loc 4 95 17 is_stmt 1 view .LVU259
 1045              	.LBE116:
 1046              	.LBE119:
  99:Display/displayHandler.cpp **** }
 1047              		.loc 4 99 5 view .LVU260
 1048              		.loc 4 100 1 is_stmt 0 view .LVU261
 1049 0078 5DF804FB 		ldr	pc, [sp], #4
ARM GAS  C:\Users\39351\AppData\Local\Temp\ccMNzW4C.s 			page 36


 1050              	.LVL73:
 1051              	.L64:
  99:Display/displayHandler.cpp **** }
 1052              		.loc 4 99 12 view .LVU262
 1053 007c 014B     		ldr	r3, .L75
 1054 007e 1868     		ldr	r0, [r3]
 1055              	.LVL74:
 1056              		.loc 4 100 1 view .LVU263
 1057 0080 5DF804FB 		ldr	pc, [sp], #4
 1058              	.L76:
 1059              		.align	2
 1060              	.L75:
 1061 0084 00000000 		.word	.LANCHOR0
 1062              		.cfi_endproc
 1063              	.LFE2789:
 1065              		.section	.text._ZN14DisplayHandler12drawWaveFormEv,"ax",%progbits
 1066              		.align	1
 1067              		.p2align 2,,3
 1068              		.global	_ZN14DisplayHandler12drawWaveFormEv
 1069              		.syntax unified
 1070              		.thumb
 1071              		.thumb_func
 1072              		.fpu fpv5-d16
 1074              	_ZN14DisplayHandler12drawWaveFormEv:
 1075              	.LVL75:
 1076              	.LFB2790:
 101:Display/displayHandler.cpp **** 
 102:Display/displayHandler.cpp **** /* DISPLAY FUNCTONS */
 103:Display/displayHandler.cpp **** 
 104:Display/displayHandler.cpp **** // the idea is to plot it with drawLine and decimation to avoid lagging
 105:Display/displayHandler.cpp **** // STILL IN DEVELOPMENT
 106:Display/displayHandler.cpp **** void DisplayHandler::drawWaveForm (){
 1077              		.loc 4 106 37 is_stmt 1 view -0
 1078              		.cfi_startproc
 1079              		@ args = 0, pretend = 0, frame = 16
 1080              		@ frame_needed = 0, uses_anonymous_args = 0
 107:Display/displayHandler.cpp ****     
 108:Display/displayHandler.cpp ****     int zeroOfScreen = 32; // because is 64 pixel in heigth
 1081              		.loc 4 108 5 view .LVU265
 109:Display/displayHandler.cpp ****     int y1, y2;
 1082              		.loc 4 109 5 view .LVU266
 110:Display/displayHandler.cpp ****     int idx = 0;
 1083              		.loc 4 110 5 view .LVU267
 111:Display/displayHandler.cpp **** 
 112:Display/displayHandler.cpp ****     _displayPtr->SetCursor(0, zeroOfScreen);
 1084              		.loc 4 112 5 view .LVU268
 106:Display/displayHandler.cpp ****     
 1085              		.loc 4 106 37 is_stmt 0 view .LVU269
 1086 0000 2DE9F04F 		push	{r4, r5, r6, r7, r8, r9, r10, fp, lr}
 1087              		.cfi_def_cfa_offset 36
 1088              		.cfi_offset 4, -36
 1089              		.cfi_offset 5, -32
 1090              		.cfi_offset 6, -28
 1091              		.cfi_offset 7, -24
 1092              		.cfi_offset 8, -20
 1093              		.cfi_offset 9, -16
 1094              		.cfi_offset 10, -12
ARM GAS  C:\Users\39351\AppData\Local\Temp\ccMNzW4C.s 			page 37


 1095              		.cfi_offset 11, -8
 1096              		.cfi_offset 14, -4
 1097              		.loc 4 112 5 view .LVU270
 1098 0004 0468     		ldr	r4, [r0]
 1099              	.LVL76:
 1100              	.LBB141:
 1101              	.LBI141:
 171:Display/../../libs/PoliTeKDSP/libs/libDaisy/src/hid/disp/display.h ****     {
 1102              		.loc 3 171 10 is_stmt 1 view .LVU271
 1103              	.LBB142:
 173:Display/../../libs/PoliTeKDSP/libs/libDaisy/src/hid/disp/display.h ****         currentY_ = (y >= Height()) ? Height() - 1 : y;
 1104              		.loc 3 173 9 view .LVU272
 1105              	.LBE142:
 1106              	.LBE141:
 106:Display/displayHandler.cpp ****     
 1107              		.loc 4 106 37 is_stmt 0 view .LVU273
 1108 0006 87B0     		sub	sp, sp, #28
 1109              		.cfi_def_cfa_offset 64
 106:Display/displayHandler.cpp ****     
 1110              		.loc 4 106 37 view .LVU274
 1111 0008 8246     		mov	r10, r0
 1112              	.LBB146:
 1113              	.LBB143:
 173:Display/../../libs/PoliTeKDSP/libs/libDaisy/src/hid/disp/display.h ****         currentY_ = (y >= Height()) ? Height() - 1 : y;
 1114              		.loc 3 173 33 view .LVU275
 1115 000a 2368     		ldr	r3, [r4]
 173:Display/../../libs/PoliTeKDSP/libs/libDaisy/src/hid/disp/display.h ****         currentY_ = (y >= Height()) ? Height() - 1 : y;
 1116              		.loc 3 173 32 view .LVU276
 1117 000c 2046     		mov	r0, r4
 1118              	.LVL77:
 173:Display/../../libs/PoliTeKDSP/libs/libDaisy/src/hid/disp/display.h ****         currentY_ = (y >= Height()) ? Height() - 1 : y;
 1119              		.loc 3 173 32 view .LVU277
 1120 000e DB68     		ldr	r3, [r3, #12]
 1121 0010 9847     		blx	r3
 1122              	.LVL78:
 173:Display/../../libs/PoliTeKDSP/libs/libDaisy/src/hid/disp/display.h ****         currentY_ = (y >= Height()) ? Height() - 1 : y;
 1123              		.loc 3 173 19 view .LVU278
 1124 0012 0028     		cmp	r0, #0
 1125 0014 40F0C880 		bne	.L95
 173:Display/../../libs/PoliTeKDSP/libs/libDaisy/src/hid/disp/display.h ****         currentY_ = (y >= Height()) ? Height() - 1 : y;
 1126              		.loc 3 173 44 view .LVU279
 1127 0018 2368     		ldr	r3, [r4]
 173:Display/../../libs/PoliTeKDSP/libs/libDaisy/src/hid/disp/display.h ****         currentY_ = (y >= Height()) ? Height() - 1 : y;
 1128              		.loc 3 173 43 view .LVU280
 1129 001a 2046     		mov	r0, r4
 1130 001c DB68     		ldr	r3, [r3, #12]
 1131 001e 9847     		blx	r3
 1132              	.LVL79:
 173:Display/../../libs/PoliTeKDSP/libs/libDaisy/src/hid/disp/display.h ****         currentY_ = (y >= Height()) ? Height() - 1 : y;
 1133              		.loc 3 173 19 view .LVU281
 1134 0020 0138     		subs	r0, r0, #1
 1135 0022 83B2     		uxth	r3, r0
 1136              	.L78:
 174:Display/../../libs/PoliTeKDSP/libs/libDaisy/src/hid/disp/display.h ****     }
 1137              		.loc 3 174 34 view .LVU282
 1138 0024 2268     		ldr	r2, [r4]
 174:Display/../../libs/PoliTeKDSP/libs/libDaisy/src/hid/disp/display.h ****     }
ARM GAS  C:\Users\39351\AppData\Local\Temp\ccMNzW4C.s 			page 38


 1139              		.loc 3 174 33 view .LVU283
 1140 0026 2046     		mov	r0, r4
 173:Display/../../libs/PoliTeKDSP/libs/libDaisy/src/hid/disp/display.h ****         currentY_ = (y >= Height()) ? Height() - 1 : y;
 1141              		.loc 3 173 19 view .LVU284
 1142 0028 A380     		strh	r3, [r4, #4]	@ movhi
 174:Display/../../libs/PoliTeKDSP/libs/libDaisy/src/hid/disp/display.h ****     }
 1143              		.loc 3 174 9 is_stmt 1 view .LVU285
 174:Display/../../libs/PoliTeKDSP/libs/libDaisy/src/hid/disp/display.h ****     }
 1144              		.loc 3 174 33 is_stmt 0 view .LVU286
 1145 002a 9368     		ldr	r3, [r2, #8]
 1146 002c 9847     		blx	r3
 1147              	.LVL80:
 174:Display/../../libs/PoliTeKDSP/libs/libDaisy/src/hid/disp/display.h ****     }
 1148              		.loc 3 174 19 view .LVU287
 1149 002e 2028     		cmp	r0, #32
 1150 0030 00F2B880 		bhi	.L96
 174:Display/../../libs/PoliTeKDSP/libs/libDaisy/src/hid/disp/display.h ****     }
 1151              		.loc 3 174 46 view .LVU288
 1152 0034 2368     		ldr	r3, [r4]
 174:Display/../../libs/PoliTeKDSP/libs/libDaisy/src/hid/disp/display.h ****     }
 1153              		.loc 3 174 45 view .LVU289
 1154 0036 2046     		mov	r0, r4
 1155 0038 9B68     		ldr	r3, [r3, #8]
 1156 003a 9847     		blx	r3
 1157              	.LVL81:
 174:Display/../../libs/PoliTeKDSP/libs/libDaisy/src/hid/disp/display.h ****     }
 1158              		.loc 3 174 19 view .LVU290
 1159 003c 0138     		subs	r0, r0, #1
 1160 003e 83B2     		uxth	r3, r0
 1161              	.L79:
 1162              	.LBE143:
 1163              	.LBE146:
 113:Display/displayHandler.cpp ****     _displayPtr->Fill(false);
 1164              		.loc 4 113 5 view .LVU291
 1165 0040 DAF80000 		ldr	r0, [r10]
 1166              	.LBB147:
 1167              	.LBB144:
 174:Display/../../libs/PoliTeKDSP/libs/libDaisy/src/hid/disp/display.h ****     }
 1168              		.loc 3 174 19 view .LVU292
 1169 0044 E380     		strh	r3, [r4, #6]	@ movhi
 1170              	.LVL82:
 174:Display/../../libs/PoliTeKDSP/libs/libDaisy/src/hid/disp/display.h ****     }
 1171              		.loc 3 174 19 view .LVU293
 1172              	.LBE144:
 1173              	.LBE147:
 1174              		.loc 4 113 5 is_stmt 1 view .LVU294
 1175              		.loc 4 113 28 is_stmt 0 view .LVU295
 1176 0046 0368     		ldr	r3, [r0]
 1177 0048 5A4A     		ldr	r2, .L106
 1178 004a 1B69     		ldr	r3, [r3, #16]
 1179 004c 9342     		cmp	r3, r2
 1180 004e 40F0AD80 		bne	.L80
 1181              	.LBB148:
 1182              	.LBB149:
 1183              	.LBB150:
 375:Display/../../libs/PoliTeKDSP/libs/libDaisy/src/dev/oled_ssd130x.h ****         }
 1184              		.loc 2 375 24 view .LVU296
ARM GAS  C:\Users\39351\AppData\Local\Temp\ccMNzW4C.s 			page 39


 1185 0052 4FF48062 		mov	r2, #1024
 1186 0056 0021     		movs	r1, #0
 1187 0058 1030     		adds	r0, r0, #16
 1188 005a FFF7FEFF 		bl	memset
 1189              	.LVL83:
 1190              	.L81:
 1191              	.LBE150:
 1192              	.LBE149:
 1193              	.LBE148:
 114:Display/displayHandler.cpp **** 
 115:Display/displayHandler.cpp ****     idx = findTrigger();
 1194              		.loc 4 115 5 is_stmt 1 view .LVU297
 1195              		.loc 4 115 22 is_stmt 0 view .LVU298
 1196 005e 5046     		mov	r0, r10
 1197 0060 FFF7FEFF 		bl	_ZN14DisplayHandler11findTriggerEv
 1198              	.LVL84:
 1199              	.LBB151:
 116:Display/displayHandler.cpp ****     // plot whole buffer -> TAKES CIRCULARITY INTO ACCOUNT
 117:Display/displayHandler.cpp ****     for (int i = idx; i < idx + _windowSize; i++){
 1200              		.loc 4 117 25 view .LVU299
 1201 0064 DAF80838 		ldr	r3, [r10, #2056]
 1202              	.LBE151:
 115:Display/displayHandler.cpp ****     // plot whole buffer -> TAKES CIRCULARITY INTO ACCOUNT
 1203              		.loc 4 115 22 view .LVU300
 1204 0068 0590     		str	r0, [sp, #20]
 1205              	.LVL85:
 1206              		.loc 4 117 5 is_stmt 1 view .LVU301
 1207              	.LBB178:
 1208              		.loc 4 117 25 view .LVU302
 1209 006a 002B     		cmp	r3, #0
 1210 006c 40F38580 		ble	.L77
 1211 0070 C3B2     		uxtb	r3, r0
 1212              		.loc 4 117 14 is_stmt 0 view .LVU303
 1213 0072 0646     		mov	r6, r0
 1214              		.loc 4 117 25 view .LVU304
 1215 0074 0127     		movs	r7, #1
 1216 0076 0493     		str	r3, [sp, #16]
 1217              	.LVL86:
 1218              	.L83:
 118:Display/displayHandler.cpp ****         // *100 is for rescaling -> NEEDS TUNING
 119:Display/displayHandler.cpp ****         // NEEDS CLAMPING LOGIC to avoid segfault
 120:Display/displayHandler.cpp ****         y1 = zeroOfScreen - (_circBuffer_ptr[i % BUFFER_SIZE]* 40);
 1219              		.loc 4 120 9 is_stmt 1 discriminator 2 view .LVU305
 1220              		.loc 4 120 48 is_stmt 0 discriminator 2 view .LVU306
 1221 0078 7342     		rsbs	r3, r6, #0
 121:Display/displayHandler.cpp ****         y2 = zeroOfScreen - (_circBuffer_ptr[(i + 1) % BUFFER_SIZE] * 40);
 1222              		.loc 4 121 49 discriminator 2 view .LVU307
 1223 007a 06F10106 		add	r6, r6, #1
 1224              	.LVL87:
 120:Display/displayHandler.cpp ****         y2 = zeroOfScreen - (_circBuffer_ptr[(i + 1) % BUFFER_SIZE] * 40);
 1225              		.loc 4 120 48 discriminator 2 view .LVU308
 1226 007e 049A     		ldr	r2, [sp, #16]
 1227 0080 07F1FF31 		add	r1, r7, #-1
 1228 0084 DBB2     		uxtb	r3, r3
 122:Display/displayHandler.cpp ****         _displayPtr->DrawLine(i-idx, y1, (i+1)-idx, y2, true);
 1229              		.loc 4 122 9 discriminator 2 view .LVU309
 1230 0086 DAF80000 		ldr	r0, [r10]
ARM GAS  C:\Users\39351\AppData\Local\Temp\ccMNzW4C.s 			page 40


 120:Display/displayHandler.cpp ****         y2 = zeroOfScreen - (_circBuffer_ptr[(i + 1) % BUFFER_SIZE] * 40);
 1231              		.loc 4 120 27 discriminator 2 view .LVU310
 1232 008a DFED4B7A 		vldr.32	s15, .L106+4
 120:Display/displayHandler.cpp ****         y2 = zeroOfScreen - (_circBuffer_ptr[(i + 1) % BUFFER_SIZE] * 40);
 1233              		.loc 4 120 48 discriminator 2 view .LVU311
 1234 008e 58BF     		it	pl
 1235 0090 5A42     		rsbpl	r2, r3, #0
 121:Display/displayHandler.cpp ****         y2 = zeroOfScreen - (_circBuffer_ptr[(i + 1) % BUFFER_SIZE] * 40);
 1236              		.loc 4 121 54 discriminator 2 view .LVU312
 1237 0092 7442     		rsbs	r4, r6, #0
 1238 0094 F3B2     		uxtb	r3, r6
 120:Display/displayHandler.cpp ****         y2 = zeroOfScreen - (_circBuffer_ptr[(i + 1) % BUFFER_SIZE] * 40);
 1239              		.loc 4 120 27 discriminator 2 view .LVU313
 1240 0096 B0EE677A 		vmov.f32	s14, s15
 121:Display/displayHandler.cpp ****         y2 = zeroOfScreen - (_circBuffer_ptr[(i + 1) % BUFFER_SIZE] * 40);
 1241              		.loc 4 121 54 discriminator 2 view .LVU314
 1242 009a E4B2     		uxtb	r4, r4
 120:Display/displayHandler.cpp ****         y2 = zeroOfScreen - (_circBuffer_ptr[(i + 1) % BUFFER_SIZE] * 40);
 1243              		.loc 4 120 27 discriminator 2 view .LVU315
 1244 009c DFED476A 		vldr.32	s13, .L106+8
 121:Display/displayHandler.cpp ****         y2 = zeroOfScreen - (_circBuffer_ptr[(i + 1) % BUFFER_SIZE] * 40);
 1245              		.loc 4 121 54 discriminator 2 view .LVU316
 1246 00a0 0493     		str	r3, [sp, #16]
 120:Display/displayHandler.cpp ****         y2 = zeroOfScreen - (_circBuffer_ptr[(i + 1) % BUFFER_SIZE] * 40);
 1247              		.loc 4 120 61 discriminator 2 view .LVU317
 1248 00a2 0AEB8202 		add	r2, r10, r2, lsl #2
 1249              		.loc 4 122 61 discriminator 2 view .LVU318
 1250 00a6 0368     		ldr	r3, [r0]
 120:Display/displayHandler.cpp ****         y2 = zeroOfScreen - (_circBuffer_ptr[(i + 1) % BUFFER_SIZE] * 40);
 1251              		.loc 4 120 27 discriminator 2 view .LVU319
 1252 00a8 92ED026A 		vldr.32	s12, [r2, #8]
 1253              		.loc 4 122 61 discriminator 2 view .LVU320
 1254 00ac 9D69     		ldr	r5, [r3, #24]
 121:Display/displayHandler.cpp ****         y2 = zeroOfScreen - (_circBuffer_ptr[(i + 1) % BUFFER_SIZE] * 40);
 1255              		.loc 4 121 54 discriminator 2 view .LVU321
 1256 00ae 049B     		ldr	r3, [sp, #16]
 1257 00b0 58BF     		it	pl
 1258 00b2 6342     		rsbpl	r3, r4, #0
 120:Display/displayHandler.cpp ****         y2 = zeroOfScreen - (_circBuffer_ptr[(i + 1) % BUFFER_SIZE] * 40);
 1259              		.loc 4 120 27 discriminator 2 view .LVU322
 1260 00b4 A6EE667A 		vfms.f32	s14, s12, s13
 1261 00b8 414A     		ldr	r2, .L106+12
 121:Display/displayHandler.cpp ****         y2 = zeroOfScreen - (_circBuffer_ptr[(i + 1) % BUFFER_SIZE] * 40);
 1262              		.loc 4 121 67 discriminator 2 view .LVU323
 1263 00ba 0AEB8303 		add	r3, r10, r3, lsl #2
 1264 00be 9542     		cmp	r5, r2
 121:Display/displayHandler.cpp ****         y2 = zeroOfScreen - (_circBuffer_ptr[(i + 1) % BUFFER_SIZE] * 40);
 1265              		.loc 4 121 27 discriminator 2 view .LVU324
 1266 00c0 93ED026A 		vldr.32	s12, [r3, #8]
 1267 00c4 E6EE667A 		vfms.f32	s15, s12, s13
 120:Display/displayHandler.cpp ****         y2 = zeroOfScreen - (_circBuffer_ptr[(i + 1) % BUFFER_SIZE] * 40);
 1268              		.loc 4 120 12 discriminator 2 view .LVU325
 1269 00c8 BDEEC77A 		vcvt.s32.f32	s14, s14
 1270              	.LVL88:
 121:Display/displayHandler.cpp ****         y2 = zeroOfScreen - (_circBuffer_ptr[(i + 1) % BUFFER_SIZE] * 40);
 1271              		.loc 4 121 9 is_stmt 1 discriminator 2 view .LVU326
 1272              		.loc 4 122 30 is_stmt 0 discriminator 2 view .LVU327
ARM GAS  C:\Users\39351\AppData\Local\Temp\ccMNzW4C.s 			page 41


 1273 00cc 17EE104A 		vmov	r4, s14	@ int
 121:Display/displayHandler.cpp ****         y2 = zeroOfScreen - (_circBuffer_ptr[(i + 1) % BUFFER_SIZE] * 40);
 1274              		.loc 4 121 12 discriminator 2 view .LVU328
 1275 00d0 FDEEE77A 		vcvt.s32.f32	s15, s15
 1276 00d4 17EE903A 		vmov	r3, s15	@ int
 1277              	.LVL89:
 1278              		.loc 4 122 9 is_stmt 1 discriminator 2 view .LVU329
 1279 00d8 5BD1     		bne	.L84
 1280              	.LVL90:
 1281              	.LBB152:
 1282              	.LBI152:
 226:Display/../../libs/PoliTeKDSP/libs/libDaisy/src/hid/disp/display.h ****                   uint_fast8_t y1,
 1283              		.loc 3 226 10 view .LVU330
 1284              	.LBB153:
 233:Display/../../libs/PoliTeKDSP/libs/libDaisy/src/hid/disp/display.h ****         int_fast16_t signX  = ((x1 < x2) ? 1 : -1);
 1285              		.loc 3 233 52 is_stmt 0 view .LVU331
 1286 00da A3EB0409 		sub	r9, r3, r4
 233:Display/../../libs/PoliTeKDSP/libs/libDaisy/src/hid/disp/display.h ****         int_fast16_t signX  = ((x1 < x2) ? 1 : -1);
 1287              		.loc 3 233 22 view .LVU332
 1288 00de B9F1000F 		cmp	r9, #0
 1289 00e2 B8BF     		it	lt
 1290 00e4 C9F10009 		rsblt	r9, r9, #0
 1291              	.LVL91:
 235:Display/../../libs/PoliTeKDSP/libs/libDaisy/src/hid/disp/display.h ****         int_fast16_t error  = deltaX - deltaY;
 1292              		.loc 3 235 42 view .LVU333
 1293 00e8 9C42     		cmp	r4, r3
 236:Display/../../libs/PoliTeKDSP/libs/libDaisy/src/hid/disp/display.h ****         int_fast16_t error2;
 1294              		.loc 3 236 22 view .LVU334
 1295 00ea C9F10105 		rsb	r5, r9, #1
 235:Display/../../libs/PoliTeKDSP/libs/libDaisy/src/hid/disp/display.h ****         int_fast16_t error  = deltaX - deltaY;
 1296              		.loc 3 235 42 view .LVU335
 1297 00ee 4BD3     		bcc	.L85
 1298              	.LVL92:
 1299              	.LBB154:
 1300              	.LBI154:
  42:Display/../../libs/PoliTeKDSP/libs/libDaisy/src/hid/disp/oled_display.h ****     {
 1301              		.loc 1 42 10 is_stmt 1 view .LVU336
 1302              	.LBB155:
 1303              	.LBI155:
 361:Display/../../libs/PoliTeKDSP/libs/libDaisy/src/dev/oled_ssd130x.h ****     {
 1304              		.loc 2 361 10 view .LVU337
 1305              	.LBE155:
 1306              	.LBE154:
 235:Display/../../libs/PoliTeKDSP/libs/libDaisy/src/hid/disp/display.h ****         int_fast16_t error  = deltaX - deltaY;
 1307              		.loc 3 235 42 is_stmt 0 view .LVU338
 1308 00f0 4FF0FF32 		mov	r2, #-1
 1309              	.LBB165:
 1310              	.LBB160:
 1311              	.LBB156:
 363:Display/../../libs/PoliTeKDSP/libs/libDaisy/src/dev/oled_ssd130x.h ****             return;
 1312              		.loc 2 363 9 view .LVU339
 1313 00f4 7F2F     		cmp	r7, #127
 1314              	.LBE156:
 1315              	.LBE160:
 1316              	.LBE165:
 235:Display/../../libs/PoliTeKDSP/libs/libDaisy/src/hid/disp/display.h ****         int_fast16_t error  = deltaX - deltaY;
 1317              		.loc 3 235 42 view .LVU340
ARM GAS  C:\Users\39351\AppData\Local\Temp\ccMNzW4C.s 			page 42


 1318 00f6 0392     		str	r2, [sp, #12]
 1319              	.LBB166:
 1320              	.LBB161:
 1321              	.LBB157:
 363:Display/../../libs/PoliTeKDSP/libs/libDaisy/src/dev/oled_ssd130x.h ****             return;
 1322              		.loc 2 363 9 view .LVU341
 1323 00f8 11D8     		bhi	.L87
 1324              	.LVL93:
 1325              	.L105:
 363:Display/../../libs/PoliTeKDSP/libs/libDaisy/src/dev/oled_ssd130x.h ****             return;
 1326              		.loc 2 363 9 view .LVU342
 1327 00fa 3F2B     		cmp	r3, #63
 1328 00fc 0FD8     		bhi	.L87
 366:Display/../../libs/PoliTeKDSP/libs/libDaisy/src/dev/oled_ssd130x.h ****         else
 1329              		.loc 2 366 28 view .LVU343
 1330 00fe DA08     		lsrs	r2, r3, #3
 366:Display/../../libs/PoliTeKDSP/libs/libDaisy/src/dev/oled_ssd130x.h ****         else
 1331              		.loc 2 366 48 view .LVU344
 1332 0100 4FF0010E 		mov	lr, #1
 366:Display/../../libs/PoliTeKDSP/libs/libDaisy/src/dev/oled_ssd130x.h ****         else
 1333              		.loc 2 366 54 view .LVU345
 1334 0104 03F0070C 		and	ip, r3, #7
 366:Display/../../libs/PoliTeKDSP/libs/libDaisy/src/dev/oled_ssd130x.h ****         else
 1335              		.loc 2 366 42 view .LVU346
 1336 0108 07EBC212 		add	r2, r7, r2, lsl #7
 366:Display/../../libs/PoliTeKDSP/libs/libDaisy/src/dev/oled_ssd130x.h ****         else
 1337              		.loc 2 366 48 view .LVU347
 1338 010c 0EFA0CFC 		lsl	ip, lr, ip
 366:Display/../../libs/PoliTeKDSP/libs/libDaisy/src/dev/oled_ssd130x.h ****         else
 1339              		.loc 2 366 42 view .LVU348
 1340 0110 0244     		add	r2, r2, r0
 1341 0112 92F810E0 		ldrb	lr, [r2, #16]	@ zero_extendqisi2
 1342 0116 4CEA0E0C 		orr	ip, ip, lr
 1343 011a 82F810C0 		strb	ip, [r2, #16]
 1344              	.L87:
 1345              	.LVL94:
 366:Display/../../libs/PoliTeKDSP/libs/libDaisy/src/dev/oled_ssd130x.h ****         else
 1346              		.loc 2 366 42 view .LVU349
 1347              	.LBE157:
 1348              	.LBE161:
 1349              	.LBE166:
 248:Display/../../libs/PoliTeKDSP/libs/libDaisy/src/hid/disp/display.h ****             {
 1350              		.loc 3 248 23 view .LVU350
 1351 011e C9F10008 		rsb	r8, r9, #0
 1352              	.L90:
 1353              	.LVL95:
 1354              	.LBB167:
 1355              	.LBI167:
  42:Display/../../libs/PoliTeKDSP/libs/libDaisy/src/hid/disp/oled_display.h ****     {
 1356              		.loc 1 42 10 is_stmt 1 view .LVU351
 1357              	.LBB168:
 1358              	.LBI168:
 361:Display/../../libs/PoliTeKDSP/libs/libDaisy/src/dev/oled_ssd130x.h ****     {
 1359              		.loc 2 361 10 view .LVU352
 1360              	.LBB169:
 366:Display/../../libs/PoliTeKDSP/libs/libDaisy/src/dev/oled_ssd130x.h ****         else
 1361              		.loc 2 366 48 is_stmt 0 view .LVU353
ARM GAS  C:\Users\39351\AppData\Local\Temp\ccMNzW4C.s 			page 43


 1362 0122 4FF0010E 		mov	lr, #1
 366:Display/../../libs/PoliTeKDSP/libs/libDaisy/src/dev/oled_ssd130x.h ****         else
 1363              		.loc 2 366 28 view .LVU354
 1364 0126 E208     		lsrs	r2, r4, #3
 366:Display/../../libs/PoliTeKDSP/libs/libDaisy/src/dev/oled_ssd130x.h ****         else
 1365              		.loc 2 366 54 view .LVU355
 1366 0128 04F0070C 		and	ip, r4, #7
 363:Display/../../libs/PoliTeKDSP/libs/libDaisy/src/dev/oled_ssd130x.h ****             return;
 1367              		.loc 2 363 9 view .LVU356
 1368 012c 7F29     		cmp	r1, #127
 366:Display/../../libs/PoliTeKDSP/libs/libDaisy/src/dev/oled_ssd130x.h ****         else
 1369              		.loc 2 366 42 view .LVU357
 1370 012e 01EBC212 		add	r2, r1, r2, lsl #7
 1371              	.LBE169:
 1372              	.LBE168:
 1373              	.LBE167:
 247:Display/../../libs/PoliTeKDSP/libs/libDaisy/src/hid/disp/display.h ****             if(error2 > -deltaY)
 1374              		.loc 3 247 20 view .LVU358
 1375 0132 05FA0EFB 		lsl	fp, r5, lr
 1376              	.LVL96:
 1377              	.LBB172:
 1378              	.LBB171:
 1379              	.LBB170:
 366:Display/../../libs/PoliTeKDSP/libs/libDaisy/src/dev/oled_ssd130x.h ****         else
 1380              		.loc 2 366 48 view .LVU359
 1381 0136 0EFA0CFC 		lsl	ip, lr, ip
 363:Display/../../libs/PoliTeKDSP/libs/libDaisy/src/dev/oled_ssd130x.h ****             return;
 1382              		.loc 2 363 9 view .LVU360
 1383 013a 08D8     		bhi	.L91
 1384 013c 3F2C     		cmp	r4, #63
 366:Display/../../libs/PoliTeKDSP/libs/libDaisy/src/dev/oled_ssd130x.h ****         else
 1385              		.loc 2 366 42 view .LVU361
 1386 013e 0244     		add	r2, r2, r0
 363:Display/../../libs/PoliTeKDSP/libs/libDaisy/src/dev/oled_ssd130x.h ****             return;
 1387              		.loc 2 363 9 view .LVU362
 1388 0140 05D8     		bhi	.L91
 366:Display/../../libs/PoliTeKDSP/libs/libDaisy/src/dev/oled_ssd130x.h ****         else
 1389              		.loc 2 366 42 view .LVU363
 1390 0142 92F810E0 		ldrb	lr, [r2, #16]	@ zero_extendqisi2
 1391 0146 4CEA0E0C 		orr	ip, ip, lr
 1392 014a 82F810C0 		strb	ip, [r2, #16]
 1393              	.L91:
 366:Display/../../libs/PoliTeKDSP/libs/libDaisy/src/dev/oled_ssd130x.h ****         else
 1394              		.loc 2 366 42 view .LVU364
 1395              	.LBE170:
 1396              	.LBE171:
 1397              	.LBE172:
 248:Display/../../libs/PoliTeKDSP/libs/libDaisy/src/hid/disp/display.h ****             {
 1398              		.loc 3 248 13 view .LVU365
 1399 014e B8EB450F 		cmp	r8, r5, lsl #1
 1400 0152 15DA     		bge	.L92
 254:Display/../../libs/PoliTeKDSP/libs/libDaisy/src/hid/disp/display.h ****             {
 1401              		.loc 3 254 13 view .LVU366
 1402 0154 BBF1000F 		cmp	fp, #0
 250:Display/../../libs/PoliTeKDSP/libs/libDaisy/src/hid/disp/display.h ****                 x1 += signX;
 1403              		.loc 3 250 23 view .LVU367
 1404 0158 A5EB0905 		sub	r5, r5, r9
ARM GAS  C:\Users\39351\AppData\Local\Temp\ccMNzW4C.s 			page 44


 1405              	.LVL97:
 251:Display/../../libs/PoliTeKDSP/libs/libDaisy/src/hid/disp/display.h ****             }
 1406              		.loc 3 251 20 view .LVU368
 1407 015c 01F10101 		add	r1, r1, #1
 1408              	.LVL98:
 254:Display/../../libs/PoliTeKDSP/libs/libDaisy/src/hid/disp/display.h ****             {
 1409              		.loc 3 254 13 view .LVU369
 1410 0160 0EDD     		ble	.L92
 1411              	.L93:
 244:Display/../../libs/PoliTeKDSP/libs/libDaisy/src/hid/disp/display.h ****         {
 1412              		.loc 3 244 26 is_stmt 1 view .LVU370
 1413 0162 B942     		cmp	r1, r7
 1414 0164 DDD1     		bne	.L90
 244:Display/../../libs/PoliTeKDSP/libs/libDaisy/src/hid/disp/display.h ****         {
 1415              		.loc 3 244 26 is_stmt 0 view .LVU371
 1416 0166 A342     		cmp	r3, r4
 1417 0168 DBD1     		bne	.L90
 1418              	.LVL99:
 1419              	.L88:
 244:Display/../../libs/PoliTeKDSP/libs/libDaisy/src/hid/disp/display.h ****         {
 1420              		.loc 3 244 26 view .LVU372
 1421              	.LBE153:
 1422              	.LBE152:
 117:Display/displayHandler.cpp ****         // *100 is for rescaling -> NEEDS TUNING
 1423              		.loc 4 117 25 is_stmt 1 discriminator 3 view .LVU373
 117:Display/displayHandler.cpp ****         // *100 is for rescaling -> NEEDS TUNING
 1424              		.loc 4 117 31 is_stmt 0 discriminator 3 view .LVU374
 1425 016a DAF80838 		ldr	r3, [r10, #2056]
 117:Display/displayHandler.cpp ****         // *100 is for rescaling -> NEEDS TUNING
 1426              		.loc 4 117 25 discriminator 3 view .LVU375
 1427 016e 0137     		adds	r7, r7, #1
 117:Display/displayHandler.cpp ****         // *100 is for rescaling -> NEEDS TUNING
 1428              		.loc 4 117 31 discriminator 3 view .LVU376
 1429 0170 059A     		ldr	r2, [sp, #20]
 1430 0172 1344     		add	r3, r3, r2
 117:Display/displayHandler.cpp ****         // *100 is for rescaling -> NEEDS TUNING
 1431              		.loc 4 117 25 discriminator 3 view .LVU377
 1432 0174 B342     		cmp	r3, r6
 1433 0176 3FF77FAF 		bgt	.L83
 1434              	.LVL100:
 1435              	.L77:
 117:Display/displayHandler.cpp ****         // *100 is for rescaling -> NEEDS TUNING
 1436              		.loc 4 117 25 discriminator 3 view .LVU378
 1437              	.LBE178:
 123:Display/displayHandler.cpp ****     }   
 124:Display/displayHandler.cpp **** 
 125:Display/displayHandler.cpp **** 
 126:Display/displayHandler.cpp **** }
 1438              		.loc 4 126 1 view .LVU379
 1439 017a 07B0     		add	sp, sp, #28
 1440              		.cfi_remember_state
 1441              		.cfi_def_cfa_offset 36
 1442              		@ sp needed
 1443 017c BDE8F08F 		pop	{r4, r5, r6, r7, r8, r9, r10, fp, pc}
 1444              	.LVL101:
 1445              	.L92:
 1446              		.cfi_restore_state
ARM GAS  C:\Users\39351\AppData\Local\Temp\ccMNzW4C.s 			page 45


 1447              	.LBB179:
 1448              	.LBB177:
 1449              	.LBB176:
 257:Display/../../libs/PoliTeKDSP/libs/libDaisy/src/hid/disp/display.h ****             }
 1450              		.loc 3 257 20 view .LVU380
 1451 0180 039A     		ldr	r2, [sp, #12]
 256:Display/../../libs/PoliTeKDSP/libs/libDaisy/src/hid/disp/display.h ****                 y1 += signY;
 1452              		.loc 3 256 23 view .LVU381
 1453 0182 0135     		adds	r5, r5, #1
 1454              	.LVL102:
 257:Display/../../libs/PoliTeKDSP/libs/libDaisy/src/hid/disp/display.h ****             }
 1455              		.loc 3 257 20 view .LVU382
 1456 0184 1444     		add	r4, r4, r2
 1457              	.LVL103:
 257:Display/../../libs/PoliTeKDSP/libs/libDaisy/src/hid/disp/display.h ****             }
 1458              		.loc 3 257 20 view .LVU383
 1459 0186 ECE7     		b	.L93
 1460              	.LVL104:
 1461              	.L85:
 1462              	.LBB173:
  42:Display/../../libs/PoliTeKDSP/libs/libDaisy/src/hid/disp/oled_display.h ****     {
 1463              		.loc 1 42 10 is_stmt 1 view .LVU384
 1464              	.LBB162:
 361:Display/../../libs/PoliTeKDSP/libs/libDaisy/src/dev/oled_ssd130x.h ****     {
 1465              		.loc 2 361 10 view .LVU385
 1466              	.LBE162:
 1467              	.LBE173:
 235:Display/../../libs/PoliTeKDSP/libs/libDaisy/src/hid/disp/display.h ****         int_fast16_t error  = deltaX - deltaY;
 1468              		.loc 3 235 42 is_stmt 0 view .LVU386
 1469 0188 0122     		movs	r2, #1
 1470              	.LBB174:
 1471              	.LBB163:
 1472              	.LBB158:
 363:Display/../../libs/PoliTeKDSP/libs/libDaisy/src/dev/oled_ssd130x.h ****             return;
 1473              		.loc 2 363 9 view .LVU387
 1474 018a 7F2F     		cmp	r7, #127
 1475              	.LBE158:
 1476              	.LBE163:
 1477              	.LBE174:
 235:Display/../../libs/PoliTeKDSP/libs/libDaisy/src/hid/disp/display.h ****         int_fast16_t error  = deltaX - deltaY;
 1478              		.loc 3 235 42 view .LVU388
 1479 018c 0392     		str	r2, [sp, #12]
 1480              	.LBB175:
 1481              	.LBB164:
 1482              	.LBB159:
 363:Display/../../libs/PoliTeKDSP/libs/libDaisy/src/dev/oled_ssd130x.h ****             return;
 1483              		.loc 2 363 9 view .LVU389
 1484 018e B4D9     		bls	.L105
 1485 0190 C5E7     		b	.L87
 1486              	.LVL105:
 1487              	.L84:
 363:Display/../../libs/PoliTeKDSP/libs/libDaisy/src/dev/oled_ssd130x.h ****             return;
 1488              		.loc 2 363 9 view .LVU390
 1489              	.LBE159:
 1490              	.LBE164:
 1491              	.LBE175:
 1492              	.LBE176:
ARM GAS  C:\Users\39351\AppData\Local\Temp\ccMNzW4C.s 			page 46


 1493              	.LBE177:
 122:Display/displayHandler.cpp ****     }   
 1494              		.loc 4 122 30 discriminator 2 view .LVU391
 1495 0192 0123     		movs	r3, #1
 1496              	.LVL106:
 122:Display/displayHandler.cpp ****     }   
 1497              		.loc 4 122 30 discriminator 2 view .LVU392
 1498 0194 17EE102A 		vmov	r2, s14	@ int
 1499 0198 CDED007A 		vstr.32	s15, [sp]	@ int
 1500 019c 0193     		str	r3, [sp, #4]
 1501 019e 3B46     		mov	r3, r7
 1502 01a0 A847     		blx	r5
 1503              	.LVL107:
 122:Display/displayHandler.cpp ****     }   
 1504              		.loc 4 122 30 discriminator 2 view .LVU393
 1505 01a2 E2E7     		b	.L88
 1506              	.LVL108:
 1507              	.L96:
 122:Display/displayHandler.cpp ****     }   
 1508              		.loc 4 122 30 discriminator 2 view .LVU394
 1509              	.LBE179:
 1510              	.LBB180:
 1511              	.LBB145:
 174:Display/../../libs/PoliTeKDSP/libs/libDaisy/src/hid/disp/display.h ****     }
 1512              		.loc 3 174 19 view .LVU395
 1513 01a4 2023     		movs	r3, #32
 1514 01a6 4BE7     		b	.L79
 1515              	.L95:
 173:Display/../../libs/PoliTeKDSP/libs/libDaisy/src/hid/disp/display.h ****         currentY_ = (y >= Height()) ? Height() - 1 : y;
 1516              		.loc 3 173 19 view .LVU396
 1517 01a8 0023     		movs	r3, #0
 1518 01aa 3BE7     		b	.L78
 1519              	.LVL109:
 1520              	.L80:
 173:Display/../../libs/PoliTeKDSP/libs/libDaisy/src/hid/disp/display.h ****         currentY_ = (y >= Height()) ? Height() - 1 : y;
 1521              		.loc 3 173 19 view .LVU397
 1522              	.LBE145:
 1523              	.LBE180:
 113:Display/displayHandler.cpp **** 
 1524              		.loc 4 113 22 view .LVU398
 1525 01ac 0021     		movs	r1, #0
 1526 01ae 9847     		blx	r3
 1527              	.LVL110:
 1528 01b0 55E7     		b	.L81
 1529              	.L107:
 1530 01b2 00BF     		.align	2
 1531              	.L106:
 1532 01b4 00000000 		.word	_ZN5daisy11OledDisplayINS_13SSD130xDriverILj128ELj64ENS_19SSD130xI2CTransportEEEE4FillEb
 1533 01b8 00000042 		.word	1107296256
 1534 01bc 00002042 		.word	1109393408
 1535 01c0 00000000 		.word	_ZN5daisy25OneBitGraphicsDisplayImplINS_11OledDisplayINS_13SSD130xDriverILj128ELj64ENS_19SSD
 1536              		.cfi_endproc
 1537              	.LFE2790:
 1539              		.section	.text._ZN14DisplayHandler17drawStandbyScreenEv,"ax",%progbits
 1540              		.align	1
 1541              		.p2align 2,,3
 1542              		.global	_ZN14DisplayHandler17drawStandbyScreenEv
ARM GAS  C:\Users\39351\AppData\Local\Temp\ccMNzW4C.s 			page 47


 1543              		.syntax unified
 1544              		.thumb
 1545              		.thumb_func
 1546              		.fpu fpv5-d16
 1548              	_ZN14DisplayHandler17drawStandbyScreenEv:
 1549              	.LVL111:
 1550              	.LFB2791:
 127:Display/displayHandler.cpp **** 
 128:Display/displayHandler.cpp **** 
 129:Display/displayHandler.cpp **** 
 130:Display/displayHandler.cpp **** // LONG FUNCTION AHEAD -> prints test logo atm
 131:Display/displayHandler.cpp **** void DisplayHandler::drawStandbyScreen(){
 1551              		.loc 4 131 41 is_stmt 1 view -0
 1552              		.cfi_startproc
 1553              		@ args = 0, pretend = 0, frame = 0
 1554              		@ frame_needed = 0, uses_anonymous_args = 0
 132:Display/displayHandler.cpp ****   _displayPtr->SetCursor(0,0);
 1555              		.loc 4 132 3 view .LVU400
 131:Display/displayHandler.cpp ****   _displayPtr->SetCursor(0,0);
 1556              		.loc 4 131 41 is_stmt 0 view .LVU401
 1557 0000 30B5     		push	{r4, r5, lr}
 1558              		.cfi_def_cfa_offset 12
 1559              		.cfi_offset 4, -12
 1560              		.cfi_offset 5, -8
 1561              		.cfi_offset 14, -4
 1562              		.loc 4 132 3 view .LVU402
 1563 0002 0468     		ldr	r4, [r0]
 1564              	.LVL112:
 1565              	.LBB183:
 1566              	.LBI183:
 171:Display/../../libs/PoliTeKDSP/libs/libDaisy/src/hid/disp/display.h ****     {
 1567              		.loc 3 171 10 is_stmt 1 view .LVU403
 1568              	.LBB184:
 173:Display/../../libs/PoliTeKDSP/libs/libDaisy/src/hid/disp/display.h ****         currentY_ = (y >= Height()) ? Height() - 1 : y;
 1569              		.loc 3 173 9 view .LVU404
 1570              	.LBE184:
 1571              	.LBE183:
 131:Display/displayHandler.cpp ****   _displayPtr->SetCursor(0,0);
 1572              		.loc 4 131 41 is_stmt 0 view .LVU405
 1573 0004 83B0     		sub	sp, sp, #12
 1574              		.cfi_def_cfa_offset 24
 131:Display/displayHandler.cpp ****   _displayPtr->SetCursor(0,0);
 1575              		.loc 4 131 41 view .LVU406
 1576 0006 0546     		mov	r5, r0
 1577              	.LBB188:
 1578              	.LBB185:
 173:Display/../../libs/PoliTeKDSP/libs/libDaisy/src/hid/disp/display.h ****         currentY_ = (y >= Height()) ? Height() - 1 : y;
 1579              		.loc 3 173 33 view .LVU407
 1580 0008 2368     		ldr	r3, [r4]
 173:Display/../../libs/PoliTeKDSP/libs/libDaisy/src/hid/disp/display.h ****         currentY_ = (y >= Height()) ? Height() - 1 : y;
 1581              		.loc 3 173 32 view .LVU408
 1582 000a 2046     		mov	r0, r4
 1583              	.LVL113:
 173:Display/../../libs/PoliTeKDSP/libs/libDaisy/src/hid/disp/display.h ****         currentY_ = (y >= Height()) ? Height() - 1 : y;
 1584              		.loc 3 173 32 view .LVU409
 1585 000c DB68     		ldr	r3, [r3, #12]
 1586 000e 9847     		blx	r3
ARM GAS  C:\Users\39351\AppData\Local\Temp\ccMNzW4C.s 			page 48


 1587              	.LVL114:
 173:Display/../../libs/PoliTeKDSP/libs/libDaisy/src/hid/disp/display.h ****         currentY_ = (y >= Height()) ? Height() - 1 : y;
 1588              		.loc 3 173 19 view .LVU410
 1589 0010 F0B9     		cbnz	r0, .L111
 173:Display/../../libs/PoliTeKDSP/libs/libDaisy/src/hid/disp/display.h ****         currentY_ = (y >= Height()) ? Height() - 1 : y;
 1590              		.loc 3 173 44 view .LVU411
 1591 0012 2368     		ldr	r3, [r4]
 173:Display/../../libs/PoliTeKDSP/libs/libDaisy/src/hid/disp/display.h ****         currentY_ = (y >= Height()) ? Height() - 1 : y;
 1592              		.loc 3 173 43 view .LVU412
 1593 0014 2046     		mov	r0, r4
 1594 0016 DB68     		ldr	r3, [r3, #12]
 1595 0018 9847     		blx	r3
 1596              	.LVL115:
 173:Display/../../libs/PoliTeKDSP/libs/libDaisy/src/hid/disp/display.h ****         currentY_ = (y >= Height()) ? Height() - 1 : y;
 1597              		.loc 3 173 19 view .LVU413
 1598 001a 0138     		subs	r0, r0, #1
 1599 001c 83B2     		uxth	r3, r0
 1600              	.L109:
 174:Display/../../libs/PoliTeKDSP/libs/libDaisy/src/hid/disp/display.h ****     }
 1601              		.loc 3 174 34 view .LVU414
 1602 001e 2268     		ldr	r2, [r4]
 174:Display/../../libs/PoliTeKDSP/libs/libDaisy/src/hid/disp/display.h ****     }
 1603              		.loc 3 174 33 view .LVU415
 1604 0020 2046     		mov	r0, r4
 173:Display/../../libs/PoliTeKDSP/libs/libDaisy/src/hid/disp/display.h ****         currentY_ = (y >= Height()) ? Height() - 1 : y;
 1605              		.loc 3 173 19 view .LVU416
 1606 0022 A380     		strh	r3, [r4, #4]	@ movhi
 174:Display/../../libs/PoliTeKDSP/libs/libDaisy/src/hid/disp/display.h ****     }
 1607              		.loc 3 174 9 is_stmt 1 view .LVU417
 174:Display/../../libs/PoliTeKDSP/libs/libDaisy/src/hid/disp/display.h ****     }
 1608              		.loc 3 174 33 is_stmt 0 view .LVU418
 1609 0024 9368     		ldr	r3, [r2, #8]
 1610 0026 9847     		blx	r3
 1611              	.LVL116:
 174:Display/../../libs/PoliTeKDSP/libs/libDaisy/src/hid/disp/display.h ****     }
 1612              		.loc 3 174 19 view .LVU419
 1613 0028 A0B9     		cbnz	r0, .L112
 174:Display/../../libs/PoliTeKDSP/libs/libDaisy/src/hid/disp/display.h ****     }
 1614              		.loc 3 174 46 view .LVU420
 1615 002a 2368     		ldr	r3, [r4]
 174:Display/../../libs/PoliTeKDSP/libs/libDaisy/src/hid/disp/display.h ****     }
 1616              		.loc 3 174 45 view .LVU421
 1617 002c 2046     		mov	r0, r4
 1618 002e 9B68     		ldr	r3, [r3, #8]
 1619 0030 9847     		blx	r3
 1620              	.LVL117:
 174:Display/../../libs/PoliTeKDSP/libs/libDaisy/src/hid/disp/display.h ****     }
 1621              		.loc 3 174 19 view .LVU422
 1622 0032 0138     		subs	r0, r0, #1
 1623 0034 83B2     		uxth	r3, r0
 1624              	.L110:
 1625              	.LBE185:
 1626              	.LBE188:
 133:Display/displayHandler.cpp ****         _displayPtr->WriteString(_standbyText, Font_11x18, true);
 1627              		.loc 4 133 9 view .LVU423
 1628 0036 2868     		ldr	r0, [r5]
 1629              		.loc 4 133 33 view .LVU424
ARM GAS  C:\Users\39351\AppData\Local\Temp\ccMNzW4C.s 			page 49


 1630 0038 074A     		ldr	r2, .L114
 1631              	.LBB189:
 1632              	.LBB186:
 174:Display/../../libs/PoliTeKDSP/libs/libDaisy/src/hid/disp/display.h ****     }
 1633              		.loc 3 174 19 view .LVU425
 1634 003a E380     		strh	r3, [r4, #6]	@ movhi
 1635              	.LVL118:
 174:Display/../../libs/PoliTeKDSP/libs/libDaisy/src/hid/disp/display.h ****     }
 1636              		.loc 3 174 19 view .LVU426
 1637              	.LBE186:
 1638              	.LBE189:
 1639              		.loc 4 133 9 is_stmt 1 view .LVU427
 1640              		.loc 4 133 33 is_stmt 0 view .LVU428
 1641 003c 0123     		movs	r3, #1
 1642              		.loc 4 133 64 view .LVU429
 1643 003e 0468     		ldr	r4, [r0]
 1644              		.loc 4 133 33 view .LVU430
 1645 0040 D5F81818 		ldr	r1, [r5, #2072]
 1646 0044 0093     		str	r3, [sp]
 1647 0046 A46A     		ldr	r4, [r4, #40]
 1648 0048 0CCA     		ldm	r2, {r2, r3}
 1649 004a A047     		blx	r4
 1650              	.LVL119:
 134:Display/displayHandler.cpp **** }...
 1651              		.loc 4 134 1 view .LVU431
 1652 004c 03B0     		add	sp, sp, #12
 1653              		.cfi_remember_state
 1654              		.cfi_def_cfa_offset 12
 1655              		@ sp needed
 1656 004e 30BD     		pop	{r4, r5, pc}
 1657              	.LVL120:
 1658              	.L111:
 1659              		.cfi_restore_state
 1660              	.LBB190:
 1661              	.LBB187:
 173:Display/../../libs/PoliTeKDSP/libs/libDaisy/src/hid/disp/display.h ****         currentY_ = (y >= Height()) ? Height() - 1 : y;
 1662              		.loc 3 173 19 view .LVU432
 1663 0050 0023     		movs	r3, #0
 1664 0052 E4E7     		b	.L109
 1665              	.L112:
 174:Display/../../libs/PoliTeKDSP/libs/libDaisy/src/hid/disp/display.h ****     }
 1666              		.loc 3 174 19 view .LVU433
 1667 0054 0023     		movs	r3, #0
 1668 0056 EEE7     		b	.L110
 1669              	.L115:
 1670              		.align	2
 1671              	.L114:
 1672 0058 00000000 		.word	Font_11x18
 1673              	.LBE187:
 1674              	.LBE190:
 1675              		.cfi_endproc
 1676              	.LFE2791:
 1678              		.section	.text._ZN14DisplayHandler6UpdateEv,"ax",%progbits
 1679              		.align	1
 1680              		.p2align 2,,3
 1681              		.global	_ZN14DisplayHandler6UpdateEv
 1682              		.syntax unified
ARM GAS  C:\Users\39351\AppData\Local\Temp\ccMNzW4C.s 			page 50


 1683              		.thumb
 1684              		.thumb_func
 1685              		.fpu fpv5-d16
 1687              	_ZN14DisplayHandler6UpdateEv:
 1688              	.LVL121:
 1689              	.LFB2784:
  14:Display/displayHandler.cpp **** void DisplayHandler::Update(){
 1690              		.loc 4 14 30 is_stmt 1 view -0
 1691              		.cfi_startproc
 1692              		@ args = 0, pretend = 0, frame = 8
 1693              		@ frame_needed = 0, uses_anonymous_args = 0
  15:Display/displayHandler.cpp ****     switch (_currentState){
 1694              		.loc 4 15 5 view .LVU435
  15:Display/displayHandler.cpp ****     switch (_currentState){
 1695              		.loc 4 15 13 is_stmt 0 view .LVU436
 1696 0000 0379     		ldrb	r3, [r0, #4]	@ zero_extendqisi2
  15:Display/displayHandler.cpp ****     switch (_currentState){
 1697              		.loc 4 15 5 view .LVU437
 1698 0002 012B     		cmp	r3, #1
  14:Display/displayHandler.cpp **** void DisplayHandler::Update(){
 1699              		.loc 4 14 30 view .LVU438
 1700 0004 2DE9F047 		push	{r4, r5, r6, r7, r8, r9, r10, lr}
 1701              		.cfi_def_cfa_offset 32
 1702              		.cfi_offset 4, -32
 1703              		.cfi_offset 5, -28
 1704              		.cfi_offset 6, -24
 1705              		.cfi_offset 7, -20
 1706              		.cfi_offset 8, -16
 1707              		.cfi_offset 9, -12
 1708              		.cfi_offset 10, -8
 1709              		.cfi_offset 14, -4
 1710 0008 0446     		mov	r4, r0
 1711 000a 84B0     		sub	sp, sp, #16
 1712              		.cfi_def_cfa_offset 48
  15:Display/displayHandler.cpp ****     switch (_currentState){
 1713              		.loc 4 15 5 view .LVU439
 1714 000c 54D0     		beq	.L117
 1715 000e 022B     		cmp	r3, #2
 1716 0010 58D0     		beq	.L118
 1717 0012 002B     		cmp	r3, #0
 1718 0014 53D0     		beq	.L126
 1719              	.LVL122:
 1720              	.L119:
  28:Display/displayHandler.cpp ****     _displayPtr->Update();
 1721              		.loc 4 28 5 is_stmt 1 view .LVU440
 1722 0016 2768     		ldr	r7, [r4]
 1723 0018 2E4A     		ldr	r2, .L127
  28:Display/displayHandler.cpp ****     _displayPtr->Update();
 1724              		.loc 4 28 25 is_stmt 0 view .LVU441
 1725 001a 3B68     		ldr	r3, [r7]
 1726 001c 1B6B     		ldr	r3, [r3, #48]
 1727 001e 9342     		cmp	r3, r2
 1728 0020 53D1     		bne	.L120
 1729              	.LBB205:
 1730              	.LBB206:
 1731              	.LBB207:
 1732              	.LBB208:
ARM GAS  C:\Users\39351\AppData\Local\Temp\ccMNzW4C.s 			page 51


 1733              	.LBB209:
  46:Display/../../libs/PoliTeKDSP/libs/libDaisy/src/dev/oled_ssd130x.h ****     };
 1734              		.loc 2 46 30 view .LVU442
 1735 0022 07F10808 		add	r8, r7, #8
 1736 0026 07F18F06 		add	r6, r7, #143
 1737 002a 07F28F4A 		addw	r10, r7, #1167
 1738 002e 4FF0B009 		mov	r9, #176
 1739              	.LVL123:
 1740              	.L123:
  46:Display/../../libs/PoliTeKDSP/libs/libDaisy/src/dev/oled_ssd130x.h ****     };
 1741              		.loc 2 46 30 view .LVU443
 1742              	.LBE209:
 1743              	.LBI208:
  43:Display/../../libs/PoliTeKDSP/libs/libDaisy/src/dev/oled_ssd130x.h ****     {
 1744              		.loc 2 43 10 is_stmt 1 view .LVU444
 1745              	.LBB210:
  45:Display/../../libs/PoliTeKDSP/libs/libDaisy/src/dev/oled_ssd130x.h ****         i2c_.TransmitBlocking(i2c_address_, buf, 2, 1000);
 1746              		.loc 2 45 9 view .LVU445
  45:Display/../../libs/PoliTeKDSP/libs/libDaisy/src/dev/oled_ssd130x.h ****         i2c_.TransmitBlocking(i2c_address_, buf, 2, 1000);
 1747              		.loc 2 45 17 is_stmt 0 view .LVU446
 1748 0032 0024     		movs	r4, #0
  46:Display/../../libs/PoliTeKDSP/libs/libDaisy/src/dev/oled_ssd130x.h ****     };
 1749              		.loc 2 46 30 view .LVU447
 1750 0034 4FF47A75 		mov	r5, #1000
 1751 0038 0223     		movs	r3, #2
 1752 003a 03AA     		add	r2, sp, #12
  45:Display/../../libs/PoliTeKDSP/libs/libDaisy/src/dev/oled_ssd130x.h ****         i2c_.TransmitBlocking(i2c_address_, buf, 2, 1000);
 1753              		.loc 2 45 17 view .LVU448
 1754 003c 8DF80C40 		strb	r4, [sp, #12]
  46:Display/../../libs/PoliTeKDSP/libs/libDaisy/src/dev/oled_ssd130x.h ****     };
 1755              		.loc 2 46 30 view .LVU449
 1756 0040 4046     		mov	r0, r8
  45:Display/../../libs/PoliTeKDSP/libs/libDaisy/src/dev/oled_ssd130x.h ****         i2c_.TransmitBlocking(i2c_address_, buf, 2, 1000);
 1757              		.loc 2 45 36 view .LVU450
 1758 0042 8DF80D90 		strb	r9, [sp, #13]
  46:Display/../../libs/PoliTeKDSP/libs/libDaisy/src/dev/oled_ssd130x.h ****     };
 1759              		.loc 2 46 9 is_stmt 1 view .LVU451
  46:Display/../../libs/PoliTeKDSP/libs/libDaisy/src/dev/oled_ssd130x.h ****     };
 1760              		.loc 2 46 30 is_stmt 0 view .LVU452
 1761 0046 397B     		ldrb	r1, [r7, #12]	@ zero_extendqisi2
 1762 0048 0095     		str	r5, [sp]
 1763 004a FFF7FEFF 		bl	_ZN5daisy9I2CHandle16TransmitBlockingEtPhtm
 1764              	.LVL124:
  46:Display/../../libs/PoliTeKDSP/libs/libDaisy/src/dev/oled_ssd130x.h ****     };
 1765              		.loc 2 46 30 view .LVU453
 1766              	.LBE210:
 1767              	.LBE208:
 1768              	.LBB211:
 1769              	.LBI211:
  43:Display/../../libs/PoliTeKDSP/libs/libDaisy/src/dev/oled_ssd130x.h ****     {
 1770              		.loc 2 43 10 is_stmt 1 view .LVU454
 1771              	.LBB212:
  45:Display/../../libs/PoliTeKDSP/libs/libDaisy/src/dev/oled_ssd130x.h ****         i2c_.TransmitBlocking(i2c_address_, buf, 2, 1000);
 1772              		.loc 2 45 9 view .LVU455
  45:Display/../../libs/PoliTeKDSP/libs/libDaisy/src/dev/oled_ssd130x.h ****         i2c_.TransmitBlocking(i2c_address_, buf, 2, 1000);
 1773              		.loc 2 45 17 is_stmt 0 view .LVU456
 1774 004e 8DF80C40 		strb	r4, [sp, #12]
ARM GAS  C:\Users\39351\AppData\Local\Temp\ccMNzW4C.s 			page 52


  45:Display/../../libs/PoliTeKDSP/libs/libDaisy/src/dev/oled_ssd130x.h ****         i2c_.TransmitBlocking(i2c_address_, buf, 2, 1000);
 1775              		.loc 2 45 36 view .LVU457
 1776 0052 8DF80D40 		strb	r4, [sp, #13]
  46:Display/../../libs/PoliTeKDSP/libs/libDaisy/src/dev/oled_ssd130x.h ****     };
 1777              		.loc 2 46 9 is_stmt 1 view .LVU458
  46:Display/../../libs/PoliTeKDSP/libs/libDaisy/src/dev/oled_ssd130x.h ****     };
 1778              		.loc 2 46 30 is_stmt 0 view .LVU459
 1779 0056 0223     		movs	r3, #2
 1780 0058 397B     		ldrb	r1, [r7, #12]	@ zero_extendqisi2
 1781 005a 03AA     		add	r2, sp, #12
 1782 005c 4046     		mov	r0, r8
 1783 005e 0095     		str	r5, [sp]
 1784 0060 FFF7FEFF 		bl	_ZN5daisy9I2CHandle16TransmitBlockingEtPhtm
 1785              	.LVL125:
  46:Display/../../libs/PoliTeKDSP/libs/libDaisy/src/dev/oled_ssd130x.h ****     };
 1786              		.loc 2 46 30 view .LVU460
 1787              	.LBE212:
 1788              	.LBE211:
 1789              	.LBB213:
 1790              	.LBI213:
  43:Display/../../libs/PoliTeKDSP/libs/libDaisy/src/dev/oled_ssd130x.h ****     {
 1791              		.loc 2 43 10 is_stmt 1 view .LVU461
 1792              	.LBB214:
  45:Display/../../libs/PoliTeKDSP/libs/libDaisy/src/dev/oled_ssd130x.h ****         i2c_.TransmitBlocking(i2c_address_, buf, 2, 1000);
 1793              		.loc 2 45 9 view .LVU462
  45:Display/../../libs/PoliTeKDSP/libs/libDaisy/src/dev/oled_ssd130x.h ****         i2c_.TransmitBlocking(i2c_address_, buf, 2, 1000);
 1794              		.loc 2 45 36 is_stmt 0 view .LVU463
 1795 0064 1023     		movs	r3, #16
  45:Display/../../libs/PoliTeKDSP/libs/libDaisy/src/dev/oled_ssd130x.h ****         i2c_.TransmitBlocking(i2c_address_, buf, 2, 1000);
 1796              		.loc 2 45 17 view .LVU464
 1797 0066 8DF80C40 		strb	r4, [sp, #12]
  46:Display/../../libs/PoliTeKDSP/libs/libDaisy/src/dev/oled_ssd130x.h ****     };
 1798              		.loc 2 46 30 view .LVU465
 1799 006a 03AA     		add	r2, sp, #12
  45:Display/../../libs/PoliTeKDSP/libs/libDaisy/src/dev/oled_ssd130x.h ****         i2c_.TransmitBlocking(i2c_address_, buf, 2, 1000);
 1800              		.loc 2 45 36 view .LVU466
 1801 006c 8DF80D30 		strb	r3, [sp, #13]
  46:Display/../../libs/PoliTeKDSP/libs/libDaisy/src/dev/oled_ssd130x.h ****     };
 1802              		.loc 2 46 9 is_stmt 1 view .LVU467
  46:Display/../../libs/PoliTeKDSP/libs/libDaisy/src/dev/oled_ssd130x.h ****     };
 1803              		.loc 2 46 30 is_stmt 0 view .LVU468
 1804 0070 4046     		mov	r0, r8
 1805 0072 397B     		ldrb	r1, [r7, #12]	@ zero_extendqisi2
 1806 0074 0223     		movs	r3, #2
 1807 0076 0095     		str	r5, [sp]
 1808 0078 A6F18004 		sub	r4, r6, #128
 1809 007c FFF7FEFF 		bl	_ZN5daisy9I2CHandle16TransmitBlockingEtPhtm
 1810              	.LVL126:
  46:Display/../../libs/PoliTeKDSP/libs/libDaisy/src/dev/oled_ssd130x.h ****     };
 1811              		.loc 2 46 30 view .LVU469
 1812              	.LBE214:
 1813              	.LBE213:
 1814              	.LBB215:
 1815              	.LBI215:
  49:Display/../../libs/PoliTeKDSP/libs/libDaisy/src/dev/oled_ssd130x.h ****     {
 1816              		.loc 2 49 10 is_stmt 1 view .LVU470
 1817              	.LBB216:
ARM GAS  C:\Users\39351\AppData\Local\Temp\ccMNzW4C.s 			page 53


  51:Display/../../libs/PoliTeKDSP/libs/libDaisy/src/dev/oled_ssd130x.h ****         {
 1818              		.loc 2 51 29 view .LVU471
 1819              	.L121:
 1820              	.LBB217:
  53:Display/../../libs/PoliTeKDSP/libs/libDaisy/src/dev/oled_ssd130x.h ****             i2c_.TransmitBlocking(i2c_address_, buf, 2, 1000);
 1821              		.loc 2 53 13 view .LVU472
  53:Display/../../libs/PoliTeKDSP/libs/libDaisy/src/dev/oled_ssd130x.h ****             i2c_.TransmitBlocking(i2c_address_, buf, 2, 1000);
 1822              		.loc 2 53 21 is_stmt 0 view .LVU473
 1823 0080 4021     		movs	r1, #64
  54:Display/../../libs/PoliTeKDSP/libs/libDaisy/src/dev/oled_ssd130x.h ****         }
 1824              		.loc 2 54 34 view .LVU474
 1825 0082 4FF47A75 		mov	r5, #1000
 1826 0086 0223     		movs	r3, #2
 1827 0088 03AA     		add	r2, sp, #12
  53:Display/../../libs/PoliTeKDSP/libs/libDaisy/src/dev/oled_ssd130x.h ****             i2c_.TransmitBlocking(i2c_address_, buf, 2, 1000);
 1828              		.loc 2 53 21 view .LVU475
 1829 008a 8DF80C10 		strb	r1, [sp, #12]
  54:Display/../../libs/PoliTeKDSP/libs/libDaisy/src/dev/oled_ssd130x.h ****         }
 1830              		.loc 2 54 34 view .LVU476
 1831 008e 4046     		mov	r0, r8
  53:Display/../../libs/PoliTeKDSP/libs/libDaisy/src/dev/oled_ssd130x.h ****             i2c_.TransmitBlocking(i2c_address_, buf, 2, 1000);
 1832              		.loc 2 53 43 view .LVU477
 1833 0090 14F8011F 		ldrb	r1, [r4, #1]!	@ zero_extendqisi2
 1834              	.LVL127:
  53:Display/../../libs/PoliTeKDSP/libs/libDaisy/src/dev/oled_ssd130x.h ****             i2c_.TransmitBlocking(i2c_address_, buf, 2, 1000);
 1835              		.loc 2 53 44 view .LVU478
 1836 0094 8DF80D10 		strb	r1, [sp, #13]
  54:Display/../../libs/PoliTeKDSP/libs/libDaisy/src/dev/oled_ssd130x.h ****         }
 1837              		.loc 2 54 13 is_stmt 1 view .LVU479
  54:Display/../../libs/PoliTeKDSP/libs/libDaisy/src/dev/oled_ssd130x.h ****         }
 1838              		.loc 2 54 34 is_stmt 0 view .LVU480
 1839 0098 397B     		ldrb	r1, [r7, #12]	@ zero_extendqisi2
 1840 009a 0095     		str	r5, [sp]
 1841 009c FFF7FEFF 		bl	_ZN5daisy9I2CHandle16TransmitBlockingEtPhtm
 1842              	.LVL128:
 1843              	.LBE217:
  51:Display/../../libs/PoliTeKDSP/libs/libDaisy/src/dev/oled_ssd130x.h ****         {
 1844              		.loc 2 51 9 is_stmt 1 view .LVU481
  51:Display/../../libs/PoliTeKDSP/libs/libDaisy/src/dev/oled_ssd130x.h ****         {
 1845              		.loc 2 51 29 view .LVU482
 1846 00a0 A642     		cmp	r6, r4
 1847 00a2 EDD1     		bne	.L121
 1848              	.LVL129:
  51:Display/../../libs/PoliTeKDSP/libs/libDaisy/src/dev/oled_ssd130x.h ****         {
 1849              		.loc 2 51 29 is_stmt 0 view .LVU483
 1850              	.LBE216:
 1851              	.LBE215:
 1852              		.loc 2 392 9 is_stmt 1 view .LVU484
 1853              		.loc 2 392 22 view .LVU485
 1854 00a4 8036     		adds	r6, r6, #128
 1855 00a6 09F10109 		add	r9, r9, #1
 1856              	.LVL130:
 1857              		.loc 2 392 22 is_stmt 0 view .LVU486
 1858 00aa B245     		cmp	r10, r6
 1859 00ac 5FFA89F9 		uxtb	r9, r9
 1860 00b0 BFD1     		bne	.L123
 1861              	.LBE207:
ARM GAS  C:\Users\39351\AppData\Local\Temp\ccMNzW4C.s 			page 54


 1862              	.LBE206:
 1863              	.LBE205:
  29:Display/displayHandler.cpp **** }
 1864              		.loc 4 29 1 view .LVU487
 1865 00b2 04B0     		add	sp, sp, #16
 1866              		.cfi_remember_state
 1867              		.cfi_def_cfa_offset 32
 1868              		@ sp needed
 1869 00b4 BDE8F087 		pop	{r4, r5, r6, r7, r8, r9, r10, pc}
 1870              	.LVL131:
 1871              	.L117:
 1872              		.cfi_restore_state
  20:Display/displayHandler.cpp ****         case DisplayState::WAVEFORM_VIEWER:
 1873              		.loc 4 20 9 is_stmt 1 view .LVU488
  21:Display/displayHandler.cpp ****             drawWaveForm();
 1874              		.loc 4 21 13 view .LVU489
  21:Display/displayHandler.cpp ****             drawWaveForm();
 1875              		.loc 4 21 25 is_stmt 0 view .LVU490
 1876 00b8 FFF7FEFF 		bl	_ZN14DisplayHandler12drawWaveFormEv
 1877              	.LVL132:
  22:Display/displayHandler.cpp ****             break;
 1878              		.loc 4 22 13 is_stmt 1 view .LVU491
 1879 00bc ABE7     		b	.L119
 1880              	.LVL133:
 1881              	.L126:
  16:Display/displayHandler.cpp ****         case DisplayState::STANDBY:
 1882              		.loc 4 16 9 view .LVU492
  17:Display/displayHandler.cpp ****             drawStandbyScreen();
 1883              		.loc 4 17 13 view .LVU493
  17:Display/displayHandler.cpp ****             drawStandbyScreen();
 1884              		.loc 4 17 30 is_stmt 0 view .LVU494
 1885 00be FFF7FEFF 		bl	_ZN14DisplayHandler17drawStandbyScreenEv
 1886              	.LVL134:
  18:Display/displayHandler.cpp ****             break;
 1887              		.loc 4 18 13 is_stmt 1 view .LVU495
 1888 00c2 A8E7     		b	.L119
 1889              	.LVL135:
 1890              	.L118:
  24:Display/displayHandler.cpp ****         case DisplayState::POT_VALUE:
 1891              		.loc 4 24 9 view .LVU496
  25:Display/displayHandler.cpp ****             drawPotValue();
 1892              		.loc 4 25 13 view .LVU497
  25:Display/displayHandler.cpp ****             drawPotValue();
 1893              		.loc 4 25 25 is_stmt 0 view .LVU498
 1894 00c4 FFF7FEFF 		bl	_ZN14DisplayHandler12drawPotValueEv
 1895              	.LVL136:
  26:Display/displayHandler.cpp ****             break;
 1896              		.loc 4 26 13 is_stmt 1 view .LVU499
 1897 00c8 A5E7     		b	.L119
 1898              	.L120:
  28:Display/displayHandler.cpp ****     _displayPtr->Update();
 1899              		.loc 4 28 24 is_stmt 0 view .LVU500
 1900 00ca 3846     		mov	r0, r7
  29:Display/displayHandler.cpp **** }
 1901              		.loc 4 29 1 view .LVU501
 1902 00cc 04B0     		add	sp, sp, #16
 1903              		.cfi_def_cfa_offset 32
ARM GAS  C:\Users\39351\AppData\Local\Temp\ccMNzW4C.s 			page 55


 1904              		@ sp needed
 1905 00ce BDE8F047 		pop	{r4, r5, r6, r7, r8, r9, r10, lr}
 1906              		.cfi_restore 14
 1907              		.cfi_restore 10
 1908              		.cfi_restore 9
 1909              		.cfi_restore 8
 1910              		.cfi_restore 7
 1911              		.cfi_restore 6
 1912              		.cfi_restore 5
 1913              		.cfi_restore 4
 1914              		.cfi_def_cfa_offset 0
 1915              	.LVL137:
  28:Display/displayHandler.cpp ****     _displayPtr->Update();
 1916              		.loc 4 28 24 view .LVU502
 1917 00d2 1847     		bx	r3	@ indirect register sibling call
 1918              	.LVL138:
 1919              	.L128:
 1920              		.align	2
 1921              	.L127:
 1922 00d4 00000000 		.word	_ZN5daisy11OledDisplayINS_13SSD130xDriverILj128ELj64ENS_19SSD130xI2CTransportEEEE6UpdateEv
 1923              		.cfi_endproc
 1924              	.LFE2784:
 1926              		.section	.bss._ZZN14DisplayHandler11findTriggerEvE7trigIdx,"aw",%nobits
 1927              		.align	2
 1928              		.set	.LANCHOR0,. + 0
 1931              	_ZZN14DisplayHandler11findTriggerEvE7trigIdx:
 1932 0000 00000000 		.space	4
 1933              		.text
 1934              	.Letext0:
 1935              		.file 5 "c:\\program files\\daisytoolchain\\arm-none-eabi\\include\\machine\\_default_types.h"
 1936              		.file 6 "c:\\program files\\daisytoolchain\\arm-none-eabi\\include\\sys\\_stdint.h"
 1937              		.file 7 "c:\\program files\\daisytoolchain\\arm-none-eabi\\include\\stdint.h"
 1938              		.file 8 "c:\\program files\\daisytoolchain\\lib\\gcc\\arm-none-eabi\\10.2.1\\include\\stddef.h"
 1939              		.file 9 "c:\\program files\\daisytoolchain\\arm-none-eabi\\include\\c++\\10.2.1\\cmath"
 1940              		.file 10 "c:\\program files\\daisytoolchain\\arm-none-eabi\\include\\c++\\10.2.1\\bits\\std_abs.h"
 1941              		.file 11 "c:\\program files\\daisytoolchain\\arm-none-eabi\\include\\c++\\10.2.1\\cstdlib"
 1942              		.file 12 "c:\\program files\\daisytoolchain\\arm-none-eabi\\include\\c++\\10.2.1\\cstdint"
 1943              		.file 13 "c:\\program files\\daisytoolchain\\arm-none-eabi\\include\\c++\\10.2.1\\type_traits"
 1944              		.file 14 "c:\\program files\\daisytoolchain\\arm-none-eabi\\include\\c++\\10.2.1\\debug\\debug.h"
 1945              		.file 15 "c:\\program files\\daisytoolchain\\arm-none-eabi\\include\\c++\\10.2.1\\arm-none-eabi\\t
 1946              		.file 16 "c:\\program files\\daisytoolchain\\arm-none-eabi\\include\\c++\\10.2.1\\bits\\algorithmf
 1947              		.file 17 "c:\\program files\\daisytoolchain\\arm-none-eabi\\include\\c++\\10.2.1\\bits\\stl_pair.h
 1948              		.file 18 "c:\\program files\\daisytoolchain\\arm-none-eabi\\include\\c++\\10.2.1\\bits\\exception_
 1949              		.file 19 "c:\\program files\\daisytoolchain\\arm-none-eabi\\include\\c++\\10.2.1\\cstdarg"
 1950              		.file 20 "c:\\program files\\daisytoolchain\\arm-none-eabi\\include\\c++\\10.2.1\\cstdio"
 1951              		.file 21 "c:\\program files\\daisytoolchain\\arm-none-eabi\\include\\c++\\10.2.1\\cstring"
 1952              		.file 22 "c:\\program files\\daisytoolchain\\arm-none-eabi\\include\\c++\\10.2.1\\cstddef"
 1953              		.file 23 "c:\\program files\\daisytoolchain\\arm-none-eabi\\include\\c++\\10.2.1\\bits\\predefined
 1954              		.file 24 "c:\\program files\\daisytoolchain\\arm-none-eabi\\include\\sys\\_types.h"
 1955              		.file 25 "c:\\program files\\daisytoolchain\\arm-none-eabi\\include\\sys\\reent.h"
 1956              		.file 26 "c:\\program files\\daisytoolchain\\arm-none-eabi\\include\\sys\\lock.h"
 1957              		.file 27 "c:\\program files\\daisytoolchain\\arm-none-eabi\\include\\math.h"
 1958              		.file 28 "c:\\program files\\daisytoolchain\\arm-none-eabi\\include\\stdlib.h"
 1959              		.file 29 "c:\\program files\\daisytoolchain\\arm-none-eabi\\include\\c++\\10.2.1\\math.h"
 1960              		.file 30 "c:\\program files\\daisytoolchain\\arm-none-eabi\\include\\c++\\10.2.1\\stdlib.h"
 1961              		.file 31 "../libs/PoliTeKDSP/libs/libDaisy/src/daisy_core.h"
 1962              		.file 32 "../libs/PoliTeKDSP/libs/libDaisy/src/per/i2c.h"
ARM GAS  C:\Users\39351\AppData\Local\Temp\ccMNzW4C.s 			page 56


 1963              		.file 33 "Display/../../libs/PoliTeKDSP/libs/libDaisy/src/hid/disp/graphics_common.h"
 1964              		.file 34 "Display/../../libs/PoliTeKDSP/libs/libDaisy/src/dev/max11300.h"
 1965              		.file 35 "Display/../../libs/PoliTeKDSP/libs/libDaisy/src/dev/sr_595.h"
 1966              		.file 36 "../libs/PoliTeKDSP/libs/libDaisy/src/util/wav_format.h"
 1967              		.file 37 "Display/../../libs/PoliTeKDSP/libs/libDaisy/src/daisy_seed.h"
 1968              		.file 38 "c:\\program files\\daisytoolchain\\lib\\gcc\\arm-none-eabi\\10.2.1\\include\\stdarg.h"
 1969              		.file 39 "c:\\program files\\daisytoolchain\\arm-none-eabi\\include\\stdio.h"
 1970              		.file 40 "../libs/PoliTeKDSP/libs/libDaisy/src/util/oled_fonts.h"
 1971              		.file 41 "c:\\program files\\daisytoolchain\\arm-none-eabi\\include\\string.h"
 1972              		.file 42 "../libs/PoliTeKDSP/libs/libDaisy/Middlewares/Third_Party/FatFs/src/integer.h"
 1973              		.file 43 "../libs/PoliTeKDSP/libs/libDaisy/Middlewares/Third_Party/FatFs/src/ff.h"
 1974              		.file 44 "Display/displayHandler.h"
 1975              		.file 45 "<built-in>"
ARM GAS  C:\Users\39351\AppData\Local\Temp\ccMNzW4C.s 			page 57

