ARM GAS  C:\Users\skipi\AppData\Local\Temp\ccz1naCo.s 			page 1


   1              		.cpu cortex-m7
   2              		.eabi_attribute 28, 1
   3              		.eabi_attribute 20, 1
   4              		.eabi_attribute 21, 1
   5              		.eabi_attribute 23, 3
   6              		.eabi_attribute 24, 1
   7              		.eabi_attribute 25, 1
   8              		.eabi_attribute 26, 1
   9              		.eabi_attribute 30, 2
  10              		.eabi_attribute 34, 1
  11              		.eabi_attribute 18, 4
  12              		.file	"iir.cpp"
  13              		.text
  14              	.Ltext0:
  15              		.cfi_sections	.debug_frame
  16              		.section	.text._ZN3IIRC2Ev,"ax",%progbits
  17              		.align	1
  18              		.p2align 2,,3
  19              		.global	_ZN3IIRC2Ev
  20              		.arch armv7e-m
  21              		.syntax unified
  22              		.thumb
  23              		.thumb_func
  24              		.fpu fpv5-d16
  26              	_ZN3IIRC2Ev:
  27              	.LVL0:
  28              	.LFB562:
  29              		.file 1 "../libs/PoliTeKDSP/Utilities/DataFilter/IIR/iir.cpp"
   1:../libs/PoliTeKDSP/Utilities/DataFilter/IIR/iir.cpp **** #include "iir.h"
   2:../libs/PoliTeKDSP/Utilities/DataFilter/IIR/iir.cpp **** #include <string.h>
   3:../libs/PoliTeKDSP/Utilities/DataFilter/IIR/iir.cpp **** 
   4:../libs/PoliTeKDSP/Utilities/DataFilter/IIR/iir.cpp **** IIR::IIR() {}
  30              		.loc 1 4 1 view -0
  31              		.cfi_startproc
  32              		@ args = 0, pretend = 0, frame = 16
  33              		@ frame_needed = 0, uses_anonymous_args = 0
  34              	.LBB2:
  35              		.loc 1 4 10 is_stmt 0 view .LVU1
  36 0000 364B     		ldr	r3, .L4
  37              	.LBE2:
  38              		.loc 1 4 1 view .LVU2
  39 0002 8446     		mov	ip, r0
  40              	.LBB3:
  41              		.loc 1 4 10 view .LVU3
  42 0004 DFED367A 		vldr.32	s15, .L4+4
  43              	.LBE3:
  44              		.loc 1 4 1 view .LVU4
  45 0008 2DE9F04F 		push	{r4, r5, r6, r7, r8, r9, r10, fp, lr}
  46              		.cfi_def_cfa_offset 36
  47              		.cfi_offset 4, -36
  48              		.cfi_offset 5, -32
  49              		.cfi_offset 6, -28
  50              		.cfi_offset 7, -24
  51              		.cfi_offset 8, -20
  52              		.cfi_offset 9, -16
  53              		.cfi_offset 10, -12
  54              		.cfi_offset 11, -8
ARM GAS  C:\Users\skipi\AppData\Local\Temp\ccz1naCo.s 			page 2


  55              		.cfi_offset 14, -4
  56              	.LBB4:
  57              		.loc 1 4 10 view .LVU5
  58 000c 041D     		adds	r4, r0, #4
  59              	.LBE4:
  60              		.loc 1 4 1 view .LVU6
  61 000e 85B0     		sub	sp, sp, #20
  62              		.cfi_def_cfa_offset 56
  63              	.LBB5:
  64              		.loc 1 4 10 view .LVU7
  65 0010 03F1180A 		add	r10, r3, #24
  66 0014 03F15807 		add	r7, r3, #88
  67 0018 0CF12409 		add	r9, ip, #36
  68 001c 03F12C08 		add	r8, r3, #44
  69 0020 03F16C0E 		add	lr, r3, #108
  70 0024 0CF1380B 		add	fp, ip, #56
  71 0028 0CF17C06 		add	r6, ip, #124
  72 002c 0CF19005 		add	r5, ip, #144
  73 0030 93E80700 		ldm	r3, {r0, r1, r2}
  74              	.LVL1:
  75              		.loc 1 4 10 view .LVU8
  76 0034 84E80700 		stm	r4, {r0, r1, r2}
  77 0038 03F10C02 		add	r2, r3, #12
  78 003c 0CF11004 		add	r4, ip, #16
  79 0040 07CA     		ldm	r2, {r0, r1, r2}
  80 0042 84E80700 		stm	r4, {r0, r1, r2}
  81 0046 0CF15C01 		add	r1, ip, #92
  82 004a 0CF14C02 		add	r2, ip, #76
  83 004e 0CF16800 		add	r0, ip, #104
  84 0052 CCED077A 		vstr.32	s15, [ip, #28]
  85 0056 0191     		str	r1, [sp, #4]
  86 0058 0CF1A401 		add	r1, ip, #164
  87 005c 0092     		str	r2, [sp]
  88 005e 0024     		movs	r4, #0
  89 0060 0290     		str	r0, [sp, #8]
  90 0062 0391     		str	r1, [sp, #12]
  91 0064 CCED087A 		vstr.32	s15, [ip, #32]
  92 0068 BAE80F00 		ldmia	r10!, {r0, r1, r2, r3}
  93 006c A9E80F00 		stmia	r9!, {r0, r1, r2, r3}
  94 0070 DAF80030 		ldr	r3, [r10]
  95 0074 C9F80030 		str	r3, [r9]
  96 0078 B8E80F00 		ldmia	r8!, {r0, r1, r2, r3}
  97 007c ABE80F00 		stmia	fp!, {r0, r1, r2, r3}
  98 0080 D8F80030 		ldr	r3, [r8]
  99 0084 A7F11802 		sub	r2, r7, #24
 100 0088 CBF80030 		str	r3, [fp]
 101 008c 009B     		ldr	r3, [sp]
 102 008e CCF84C40 		str	r4, [ip, #76]
 103 0092 DC60     		str	r4, [r3, #12]
 104 0094 C3E90144 		strd	r4, r4, [r3, #4]
 105 0098 07CA     		ldm	r2, {r0, r1, r2}
 106 009a 019B     		ldr	r3, [sp, #4]
 107 009c 83E80700 		stm	r3, {r0, r1, r2}
 108 00a0 A7F10C02 		sub	r2, r7, #12
 109 00a4 029B     		ldr	r3, [sp, #8]
 110 00a6 07CA     		ldm	r2, {r0, r1, r2}
 111 00a8 83E80700 		stm	r3, {r0, r1, r2}
ARM GAS  C:\Users\skipi\AppData\Local\Temp\ccz1naCo.s 			page 3


 112 00ac 0FCF     		ldmia	r7!, {r0, r1, r2, r3}
 113 00ae CCED1D7A 		vstr.32	s15, [ip, #116]
 114 00b2 CCED1E7A 		vstr.32	s15, [ip, #120]
 115 00b6 0FC6     		stmia	r6!, {r0, r1, r2, r3}
 116 00b8 3B68     		ldr	r3, [r7]
 117 00ba 3360     		str	r3, [r6]
 118 00bc BEE80F00 		ldmia	lr!, {r0, r1, r2, r3}
 119 00c0 0FC5     		stmia	r5!, {r0, r1, r2, r3}
 120 00c2 DEF80030 		ldr	r3, [lr]
 121              	.LBE5:
 122              		.loc 1 4 13 view .LVU9
 123 00c6 6046     		mov	r0, ip
 124              	.LBB6:
 125              		.loc 1 4 10 view .LVU10
 126 00c8 2B60     		str	r3, [r5]
 127 00ca 039B     		ldr	r3, [sp, #12]
 128 00cc CCF8A440 		str	r4, [ip, #164]
 129 00d0 DC60     		str	r4, [r3, #12]
 130 00d2 C3E90144 		strd	r4, r4, [r3, #4]
 131              	.LBE6:
 132              		.loc 1 4 13 view .LVU11
 133 00d6 05B0     		add	sp, sp, #20
 134              		.cfi_def_cfa_offset 36
 135              		@ sp needed
 136 00d8 BDE8F08F 		pop	{r4, r5, r6, r7, r8, r9, r10, fp, pc}
 137              	.L5:
 138              		.align	2
 139              	.L4:
 140 00dc 00000000 		.word	.LANCHOR0
 141 00e0 00000000 		.word	0
 142              		.cfi_endproc
 143              	.LFE562:
 145              		.global	_ZN3IIRC1Ev
 146              		.thumb_set _ZN3IIRC1Ev,_ZN3IIRC2Ev
 147              		.section	.text._ZN3IIRD2Ev,"ax",%progbits
 148              		.align	1
 149              		.p2align 2,,3
 150              		.global	_ZN3IIRD2Ev
 151              		.syntax unified
 152              		.thumb
 153              		.thumb_func
 154              		.fpu fpv5-d16
 156              	_ZN3IIRD2Ev:
 157              	.LVL2:
 158              	.LFB565:
   5:../libs/PoliTeKDSP/Utilities/DataFilter/IIR/iir.cpp **** IIR::~IIR() {}
 159              		.loc 1 5 1 is_stmt 1 view -0
 160              		.cfi_startproc
 161              		@ args = 0, pretend = 0, frame = 0
 162              		@ frame_needed = 0, uses_anonymous_args = 0
 163              		@ link register save eliminated.
 164              		.loc 1 5 14 is_stmt 0 view .LVU13
 165 0000 7047     		bx	lr
 166              		.cfi_endproc
 167              	.LFE565:
 169              		.global	_ZN3IIRD1Ev
 170              		.thumb_set _ZN3IIRD1Ev,_ZN3IIRD2Ev
ARM GAS  C:\Users\skipi\AppData\Local\Temp\ccz1naCo.s 			page 4


 171 0002 00BF     		.section	.text._ZN3IIR4InitENS_10FilterTypeE,"ax",%progbits
 172              		.align	1
 173              		.p2align 2,,3
 174              		.global	_ZN3IIR4InitENS_10FilterTypeE
 175              		.syntax unified
 176              		.thumb
 177              		.thumb_func
 178              		.fpu fpv5-d16
 180              	_ZN3IIR4InitENS_10FilterTypeE:
 181              	.LVL3:
 182              	.LFB567:
   6:../libs/PoliTeKDSP/Utilities/DataFilter/IIR/iir.cpp **** 
   7:../libs/PoliTeKDSP/Utilities/DataFilter/IIR/iir.cpp **** void IIR::Init(FilterType filter_type) {
 183              		.loc 1 7 40 is_stmt 1 view -0
 184              		.cfi_startproc
 185              		@ args = 0, pretend = 0, frame = 0
 186              		@ frame_needed = 0, uses_anonymous_args = 0
 187              		@ link register save eliminated.
   8:../libs/PoliTeKDSP/Utilities/DataFilter/IIR/iir.cpp ****     _filterType = filter_type;
 188              		.loc 1 8 5 view .LVU15
   9:../libs/PoliTeKDSP/Utilities/DataFilter/IIR/iir.cpp **** 
  10:../libs/PoliTeKDSP/Utilities/DataFilter/IIR/iir.cpp ****     // Reset di tutti i buffer per sicurezza
  11:../libs/PoliTeKDSP/Utilities/DataFilter/IIR/iir.cpp ****     memset(_Butter_buff, 0, sizeof(_Butter_buff));
 189              		.loc 1 11 11 is_stmt 0 view .LVU16
 190 0000 0023     		movs	r3, #0
   8:../libs/PoliTeKDSP/Utilities/DataFilter/IIR/iir.cpp ****     _filterType = filter_type;
 191              		.loc 1 8 17 view .LVU17
 192 0002 0246     		mov	r2, r0
 193 0004 02F81C1B 		strb	r1, [r2], #28
 194              		.loc 1 11 5 is_stmt 1 view .LVU18
 195              		.loc 1 11 11 is_stmt 0 view .LVU19
 196 0008 C361     		str	r3, [r0, #28]	@ unaligned
 197 000a 5360     		str	r3, [r2, #4]	@ unaligned
  12:../libs/PoliTeKDSP/Utilities/DataFilter/IIR/iir.cpp ****     memset(_Butter4_buff, 0, sizeof(_Butter4_buff));
 198              		.loc 1 12 5 is_stmt 1 view .LVU20
 199              		.loc 1 12 11 is_stmt 0 view .LVU21
 200 000c C364     		str	r3, [r0, #76]	@ unaligned
 201 000e 0365     		str	r3, [r0, #80]	@ unaligned
 202 0010 4365     		str	r3, [r0, #84]	@ unaligned
 203 0012 8365     		str	r3, [r0, #88]	@ unaligned
  13:../libs/PoliTeKDSP/Utilities/DataFilter/IIR/iir.cpp ****     memset(_Bessel_buff, 0, sizeof(_Bessel_buff));
 204              		.loc 1 13 5 is_stmt 1 view .LVU22
 205              		.loc 1 13 11 is_stmt 0 view .LVU23
 206 0014 4367     		str	r3, [r0, #116]	@ unaligned
 207 0016 8367     		str	r3, [r0, #120]	@ unaligned
  14:../libs/PoliTeKDSP/Utilities/DataFilter/IIR/iir.cpp ****     memset(_Bessel4_buff, 0, sizeof(_Bessel4_buff));
 208              		.loc 1 14 5 is_stmt 1 view .LVU24
 209              		.loc 1 14 11 is_stmt 0 view .LVU25
 210 0018 C0F8A430 		str	r3, [r0, #164]	@ unaligned
 211 001c C0F8A830 		str	r3, [r0, #168]	@ unaligned
 212 0020 C0F8AC30 		str	r3, [r0, #172]	@ unaligned
 213 0024 C0F8B030 		str	r3, [r0, #176]	@ unaligned
  15:../libs/PoliTeKDSP/Utilities/DataFilter/IIR/iir.cpp **** }
 214              		.loc 1 15 1 view .LVU26
 215 0028 7047     		bx	lr
 216              		.cfi_endproc
 217              	.LFE567:
ARM GAS  C:\Users\skipi\AppData\Local\Temp\ccz1naCo.s 			page 5


 219 002a 00BF     		.section	.text._ZN3IIR7ProcessEf,"ax",%progbits
 220              		.align	1
 221              		.p2align 2,,3
 222              		.global	_ZN3IIR7ProcessEf
 223              		.syntax unified
 224              		.thumb
 225              		.thumb_func
 226              		.fpu fpv5-d16
 228              	_ZN3IIR7ProcessEf:
 229              	.LVL4:
 230              	.LFB568:
  16:../libs/PoliTeKDSP/Utilities/DataFilter/IIR/iir.cpp **** 
  17:../libs/PoliTeKDSP/Utilities/DataFilter/IIR/iir.cpp **** float IIR::Process(float in) {
 231              		.loc 1 17 30 is_stmt 1 view -0
 232              		.cfi_startproc
 233              		@ args = 0, pretend = 0, frame = 0
 234              		@ frame_needed = 0, uses_anonymous_args = 0
 235              		@ link register save eliminated.
  18:../libs/PoliTeKDSP/Utilities/DataFilter/IIR/iir.cpp ****     float out = 0.0f;
 236              		.loc 1 18 5 view .LVU28
  19:../libs/PoliTeKDSP/Utilities/DataFilter/IIR/iir.cpp ****     float wn = 0.0f;
 237              		.loc 1 19 5 view .LVU29
  20:../libs/PoliTeKDSP/Utilities/DataFilter/IIR/iir.cpp **** 
  21:../libs/PoliTeKDSP/Utilities/DataFilter/IIR/iir.cpp ****     switch (_filterType) {
 238              		.loc 1 21 5 view .LVU30
 239 0000 0378     		ldrb	r3, [r0]	@ zero_extendqisi2
 240 0002 032B     		cmp	r3, #3
 241 0004 00F2B880 		bhi	.L15
 242 0008 DFE803F0 		tbb	[pc, r3]
 243              	.L11:
 244 000c 95       		.byte	(.L14-.L11)/2
 245 000d 5C       		.byte	(.L13-.L11)/2
 246 000e 3B       		.byte	(.L12-.L11)/2
 247 000f 02       		.byte	(.L10-.L11)/2
 248              		.p2align 1
 249              	.L10:
  22:../libs/PoliTeKDSP/Utilities/DataFilter/IIR/iir.cpp ****         case BUTTERWORTH2:
  23:../libs/PoliTeKDSP/Utilities/DataFilter/IIR/iir.cpp ****             wn = in - (_butter_a[1] * _Butter_buff[0] + _butter_a[2] * _Butter_buff[1]);
  24:../libs/PoliTeKDSP/Utilities/DataFilter/IIR/iir.cpp ****             out = _butter_b[0] * wn + _butter_b[1] * _Butter_buff[0] + _butter_b[2] * _Butter_buff[
  25:../libs/PoliTeKDSP/Utilities/DataFilter/IIR/iir.cpp ****             _Butter_buff[1] = _Butter_buff[0];
  26:../libs/PoliTeKDSP/Utilities/DataFilter/IIR/iir.cpp ****             _Butter_buff[0] = wn;
  27:../libs/PoliTeKDSP/Utilities/DataFilter/IIR/iir.cpp ****             break;
  28:../libs/PoliTeKDSP/Utilities/DataFilter/IIR/iir.cpp **** 
  29:../libs/PoliTeKDSP/Utilities/DataFilter/IIR/iir.cpp ****         case BUTTERWORTH4:
 250              		.loc 1 29 9 view .LVU31
  30:../libs/PoliTeKDSP/Utilities/DataFilter/IIR/iir.cpp ****             wn = in - (_butter4_a[1] * _Butter4_buff[0] + _butter4_a[2] * _Butter4_buff[1] + 
 251              		.loc 1 30 13 view .LVU32
 252              		.loc 1 30 90 is_stmt 0 view .LVU33
 253 0010 D0ED145A 		vldr.32	s11, [r0, #80]
 254              		.loc 1 30 73 view .LVU34
 255 0014 D0ED106A 		vldr.32	s13, [r0, #64]
 256              		.loc 1 30 55 view .LVU35
 257 0018 90ED137A 		vldr.32	s14, [r0, #76]
 258              		.loc 1 30 73 view .LVU36
 259 001c 65EEA66A 		vmul.f32	s13, s11, s13
 260              		.loc 1 30 57 view .LVU37
 261 0020 D0ED0F4A 		vldr.32	s9, [r0, #60]
ARM GAS  C:\Users\skipi\AppData\Local\Temp\ccz1naCo.s 			page 6


  31:../libs/PoliTeKDSP/Utilities/DataFilter/IIR/iir.cpp ****                        _butter4_a[3] * _Butter4_buff[2] + _butter4_a[4] * _Butter4_buff[3]);
 262              		.loc 1 31 55 view .LVU38
 263 0024 90ED156A 		vldr.32	s12, [r0, #84]
  30:../libs/PoliTeKDSP/Utilities/DataFilter/IIR/iir.cpp ****             wn = in - (_butter4_a[1] * _Butter4_buff[0] + _butter4_a[2] * _Butter4_buff[1] + 
 264              		.loc 1 30 92 view .LVU39
 265 0028 90ED112A 		vldr.32	s4, [r0, #68]
  30:../libs/PoliTeKDSP/Utilities/DataFilter/IIR/iir.cpp ****             wn = in - (_butter4_a[1] * _Butter4_buff[0] + _butter4_a[2] * _Butter4_buff[1] + 
 266              		.loc 1 30 57 view .LVU40
 267 002c E4EE876A 		vfma.f32	s13, s9, s14
 268              		.loc 1 31 90 view .LVU41
 269 0030 90ED165A 		vldr.32	s10, [r0, #88]
 270              		.loc 1 31 57 view .LVU42
 271 0034 D0ED122A 		vldr.32	s5, [r0, #72]
  32:../libs/PoliTeKDSP/Utilities/DataFilter/IIR/iir.cpp ****             out = _butter4_b[0] * wn + _butter4_b[1] * _Butter4_buff[0] + _butter4_b[2] * _Butter4_
 272              		.loc 1 32 54 view .LVU43
 273 0038 D0ED0A7A 		vldr.32	s15, [r0, #40]
  33:../libs/PoliTeKDSP/Utilities/DataFilter/IIR/iir.cpp ****                   _butter4_b[3] * _Butter4_buff[2] + _butter4_b[4] * _Butter4_buff[3];
  34:../libs/PoliTeKDSP/Utilities/DataFilter/IIR/iir.cpp ****             _Butter4_buff[3] = _Butter4_buff[2];
  35:../libs/PoliTeKDSP/Utilities/DataFilter/IIR/iir.cpp ****             _Butter4_buff[2] = _Butter4_buff[1];
  36:../libs/PoliTeKDSP/Utilities/DataFilter/IIR/iir.cpp ****             _Butter4_buff[1] = _Butter4_buff[0];
 274              		.loc 1 36 30 view .LVU44
 275 003c 80ED147A 		vstr.32	s14, [r0, #80]
  32:../libs/PoliTeKDSP/Utilities/DataFilter/IIR/iir.cpp ****             out = _butter4_b[0] * wn + _butter4_b[1] * _Butter4_buff[0] + _butter4_b[2] * _Butter4_
 276              		.loc 1 32 54 view .LVU45
 277 0040 67EE277A 		vmul.f32	s15, s14, s15
  32:../libs/PoliTeKDSP/Utilities/DataFilter/IIR/iir.cpp ****             out = _butter4_b[0] * wn + _butter4_b[1] * _Butter4_buff[0] + _butter4_b[2] * _Butter4_
 278              		.loc 1 32 38 view .LVU46
 279 0044 90ED093A 		vldr.32	s6, [r0, #36]
  32:../libs/PoliTeKDSP/Utilities/DataFilter/IIR/iir.cpp ****             out = _butter4_b[0] * wn + _butter4_b[1] * _Butter4_buff[0] + _butter4_b[2] * _Butter4_
 280              		.loc 1 32 73 view .LVU47
 281 0048 D0ED0B3A 		vldr.32	s7, [r0, #44]
  30:../libs/PoliTeKDSP/Utilities/DataFilter/IIR/iir.cpp ****                        _butter4_a[3] * _Butter4_buff[2] + _butter4_a[4] * _Butter4_buff[3]);
 282              		.loc 1 30 92 view .LVU48
 283 004c E2EE066A 		vfma.f32	s13, s4, s12
  32:../libs/PoliTeKDSP/Utilities/DataFilter/IIR/iir.cpp ****             out = _butter4_b[0] * wn + _butter4_b[1] * _Butter4_buff[0] + _butter4_b[2] * _Butter4_
 284              		.loc 1 32 108 view .LVU49
 285 0050 90ED0C4A 		vldr.32	s8, [r0, #48]
  32:../libs/PoliTeKDSP/Utilities/DataFilter/IIR/iir.cpp ****             out = _butter4_b[0] * wn + _butter4_b[1] * _Butter4_buff[0] + _butter4_b[2] * _Butter4_
 286              		.loc 1 32 17 view .LVU50
 287 0054 D0ED0D4A 		vldr.32	s9, [r0, #52]
  34:../libs/PoliTeKDSP/Utilities/DataFilter/IIR/iir.cpp ****             _Butter4_buff[2] = _Butter4_buff[1];
 288              		.loc 1 34 30 view .LVU51
 289 0058 80ED166A 		vstr.32	s12, [r0, #88]
  35:../libs/PoliTeKDSP/Utilities/DataFilter/IIR/iir.cpp ****             _Butter4_buff[1] = _Butter4_buff[0];
 290              		.loc 1 35 30 view .LVU52
 291 005c C0ED155A 		vstr.32	s11, [r0, #84]
  31:../libs/PoliTeKDSP/Utilities/DataFilter/IIR/iir.cpp ****             out = _butter4_b[0] * wn + _butter4_b[1] * _Butter4_buff[0] + _butter4_b[2] * _Butter4_
 292              		.loc 1 31 57 view .LVU53
 293 0060 E2EE856A 		vfma.f32	s13, s5, s10
  30:../libs/PoliTeKDSP/Utilities/DataFilter/IIR/iir.cpp ****                        _butter4_a[3] * _Butter4_buff[2] + _butter4_a[4] * _Butter4_buff[3]);
 294              		.loc 1 30 16 view .LVU54
 295 0064 30EE667A 		vsub.f32	s14, s0, s13
 296              	.LVL5:
  32:../libs/PoliTeKDSP/Utilities/DataFilter/IIR/iir.cpp ****                   _butter4_b[3] * _Butter4_buff[2] + _butter4_b[4] * _Butter4_buff[3];
 297              		.loc 1 32 13 is_stmt 1 view .LVU55
  32:../libs/PoliTeKDSP/Utilities/DataFilter/IIR/iir.cpp ****                   _butter4_b[3] * _Butter4_buff[2] + _butter4_b[4] * _Butter4_buff[3];
 298              		.loc 1 32 38 is_stmt 0 view .LVU56
ARM GAS  C:\Users\skipi\AppData\Local\Temp\ccz1naCo.s 			page 7


 299 0068 E3EE077A 		vfma.f32	s15, s6, s14
  37:../libs/PoliTeKDSP/Utilities/DataFilter/IIR/iir.cpp ****             _Butter4_buff[0] = wn;
 300              		.loc 1 37 30 view .LVU57
 301 006c 80ED137A 		vstr.32	s14, [r0, #76]
  32:../libs/PoliTeKDSP/Utilities/DataFilter/IIR/iir.cpp ****                   _butter4_b[3] * _Butter4_buff[2] + _butter4_b[4] * _Butter4_buff[3];
 302              		.loc 1 32 38 view .LVU58
 303 0070 B0EE670A 		vmov.f32	s0, s15
 304              	.LVL6:
  32:../libs/PoliTeKDSP/Utilities/DataFilter/IIR/iir.cpp ****                   _butter4_b[3] * _Butter4_buff[2] + _butter4_b[4] * _Butter4_buff[3];
 305              		.loc 1 32 73 view .LVU59
 306 0074 A5EEA30A 		vfma.f32	s0, s11, s7
  32:../libs/PoliTeKDSP/Utilities/DataFilter/IIR/iir.cpp ****                   _butter4_b[3] * _Butter4_buff[2] + _butter4_b[4] * _Butter4_buff[3];
 307              		.loc 1 32 108 view .LVU60
 308 0078 A6EE040A 		vfma.f32	s0, s12, s8
  32:../libs/PoliTeKDSP/Utilities/DataFilter/IIR/iir.cpp ****                   _butter4_b[3] * _Butter4_buff[2] + _butter4_b[4] * _Butter4_buff[3];
 309              		.loc 1 32 17 view .LVU61
 310 007c A5EE240A 		vfma.f32	s0, s10, s9
 311              	.LVL7:
  34:../libs/PoliTeKDSP/Utilities/DataFilter/IIR/iir.cpp ****             _Butter4_buff[2] = _Butter4_buff[1];
 312              		.loc 1 34 13 is_stmt 1 view .LVU62
  35:../libs/PoliTeKDSP/Utilities/DataFilter/IIR/iir.cpp ****             _Butter4_buff[1] = _Butter4_buff[0];
 313              		.loc 1 35 13 view .LVU63
  36:../libs/PoliTeKDSP/Utilities/DataFilter/IIR/iir.cpp ****             _Butter4_buff[0] = wn;
 314              		.loc 1 36 13 view .LVU64
 315              		.loc 1 37 13 view .LVU65
  38:../libs/PoliTeKDSP/Utilities/DataFilter/IIR/iir.cpp ****             break;
 316              		.loc 1 38 13 view .LVU66
 317 0080 7047     		bx	lr
 318              	.LVL8:
 319              	.L12:
  22:../libs/PoliTeKDSP/Utilities/DataFilter/IIR/iir.cpp ****             wn = in - (_butter_a[1] * _Butter_buff[0] + _butter_a[2] * _Butter_buff[1]);
 320              		.loc 1 22 9 view .LVU67
  23:../libs/PoliTeKDSP/Utilities/DataFilter/IIR/iir.cpp ****             out = _butter_b[0] * wn + _butter_b[1] * _Butter_buff[0] + _butter_b[2] * _Butter_buff[
 321              		.loc 1 23 13 view .LVU68
  23:../libs/PoliTeKDSP/Utilities/DataFilter/IIR/iir.cpp ****             out = _butter_b[0] * wn + _butter_b[1] * _Butter_buff[0] + _butter_b[2] * _Butter_buff[
 322              		.loc 1 23 86 is_stmt 0 view .LVU69
 323 0082 90ED086A 		vldr.32	s12, [r0, #32]
  23:../libs/PoliTeKDSP/Utilities/DataFilter/IIR/iir.cpp ****             out = _butter_b[0] * wn + _butter_b[1] * _Butter_buff[0] + _butter_b[2] * _Butter_buff[
 324              		.loc 1 23 70 view .LVU70
 325 0086 90ED067A 		vldr.32	s14, [r0, #24]
  23:../libs/PoliTeKDSP/Utilities/DataFilter/IIR/iir.cpp ****             out = _butter_b[0] * wn + _butter_b[1] * _Butter_buff[0] + _butter_b[2] * _Butter_buff[
 326              		.loc 1 23 53 view .LVU71
 327 008a D0ED076A 		vldr.32	s13, [r0, #28]
  23:../libs/PoliTeKDSP/Utilities/DataFilter/IIR/iir.cpp ****             out = _butter_b[0] * wn + _butter_b[1] * _Butter_buff[0] + _butter_b[2] * _Butter_buff[
 328              		.loc 1 23 70 view .LVU72
 329 008e 26EE077A 		vmul.f32	s14, s12, s14
  23:../libs/PoliTeKDSP/Utilities/DataFilter/IIR/iir.cpp ****             out = _butter_b[0] * wn + _butter_b[1] * _Butter_buff[0] + _butter_b[2] * _Butter_buff[
 330              		.loc 1 23 55 view .LVU73
 331 0092 D0ED054A 		vldr.32	s9, [r0, #20]
  24:../libs/PoliTeKDSP/Utilities/DataFilter/IIR/iir.cpp ****             _Butter_buff[1] = _Butter_buff[0];
 332              		.loc 1 24 52 view .LVU74
 333 0096 D0ED027A 		vldr.32	s15, [r0, #8]
  24:../libs/PoliTeKDSP/Utilities/DataFilter/IIR/iir.cpp ****             _Butter_buff[1] = _Butter_buff[0];
 334              		.loc 1 24 37 view .LVU75
 335 009a 90ED015A 		vldr.32	s10, [r0, #4]
  23:../libs/PoliTeKDSP/Utilities/DataFilter/IIR/iir.cpp ****             out = _butter_b[0] * wn + _butter_b[1] * _Butter_buff[0] + _butter_b[2] * _Butter_buff[
 336              		.loc 1 23 55 view .LVU76
ARM GAS  C:\Users\skipi\AppData\Local\Temp\ccz1naCo.s 			page 8


 337 009e A4EEA67A 		vfma.f32	s14, s9, s13
  24:../libs/PoliTeKDSP/Utilities/DataFilter/IIR/iir.cpp ****             _Butter_buff[1] = _Butter_buff[0];
 338              		.loc 1 24 17 view .LVU77
 339 00a2 D0ED035A 		vldr.32	s11, [r0, #12]
  24:../libs/PoliTeKDSP/Utilities/DataFilter/IIR/iir.cpp ****             _Butter_buff[1] = _Butter_buff[0];
 340              		.loc 1 24 52 view .LVU78
 341 00a6 66EEA77A 		vmul.f32	s15, s13, s15
  25:../libs/PoliTeKDSP/Utilities/DataFilter/IIR/iir.cpp ****             _Butter_buff[0] = wn;
 342              		.loc 1 25 29 view .LVU79
 343 00aa C0ED086A 		vstr.32	s13, [r0, #32]
  23:../libs/PoliTeKDSP/Utilities/DataFilter/IIR/iir.cpp ****             out = _butter_b[0] * wn + _butter_b[1] * _Butter_buff[0] + _butter_b[2] * _Butter_buff[
 344              		.loc 1 23 16 view .LVU80
 345 00ae 30EE477A 		vsub.f32	s14, s0, s14
 346              	.LVL9:
  24:../libs/PoliTeKDSP/Utilities/DataFilter/IIR/iir.cpp ****             _Butter_buff[1] = _Butter_buff[0];
 347              		.loc 1 24 13 is_stmt 1 view .LVU81
  24:../libs/PoliTeKDSP/Utilities/DataFilter/IIR/iir.cpp ****             _Butter_buff[1] = _Butter_buff[0];
 348              		.loc 1 24 37 is_stmt 0 view .LVU82
 349 00b2 E5EE077A 		vfma.f32	s15, s10, s14
  26:../libs/PoliTeKDSP/Utilities/DataFilter/IIR/iir.cpp ****             break;
 350              		.loc 1 26 29 view .LVU83
 351 00b6 80ED077A 		vstr.32	s14, [r0, #28]
  24:../libs/PoliTeKDSP/Utilities/DataFilter/IIR/iir.cpp ****             _Butter_buff[1] = _Butter_buff[0];
 352              		.loc 1 24 37 view .LVU84
 353 00ba B0EE670A 		vmov.f32	s0, s15
 354              	.LVL10:
  24:../libs/PoliTeKDSP/Utilities/DataFilter/IIR/iir.cpp ****             _Butter_buff[1] = _Butter_buff[0];
 355              		.loc 1 24 17 view .LVU85
 356 00be A6EE250A 		vfma.f32	s0, s12, s11
 357              	.LVL11:
  25:../libs/PoliTeKDSP/Utilities/DataFilter/IIR/iir.cpp ****             _Butter_buff[0] = wn;
 358              		.loc 1 25 13 is_stmt 1 view .LVU86
  26:../libs/PoliTeKDSP/Utilities/DataFilter/IIR/iir.cpp ****             break;
 359              		.loc 1 26 13 view .LVU87
  27:../libs/PoliTeKDSP/Utilities/DataFilter/IIR/iir.cpp **** 
 360              		.loc 1 27 13 view .LVU88
 361 00c2 7047     		bx	lr
 362              	.LVL12:
 363              	.L13:
  39:../libs/PoliTeKDSP/Utilities/DataFilter/IIR/iir.cpp **** 
  40:../libs/PoliTeKDSP/Utilities/DataFilter/IIR/iir.cpp ****         case BESSEL2:
  41:../libs/PoliTeKDSP/Utilities/DataFilter/IIR/iir.cpp ****             wn = in - (_bessel_a[1] * _Bessel_buff[0] + _bessel_a[2] * _Bessel_buff[1]);
  42:../libs/PoliTeKDSP/Utilities/DataFilter/IIR/iir.cpp ****             out = _bessel_b[0] * wn + _bessel_b[1] * _Bessel_buff[0] + _bessel_b[2] * _Bessel_buff[
  43:../libs/PoliTeKDSP/Utilities/DataFilter/IIR/iir.cpp ****             _Bessel_buff[1] = _Bessel_buff[0];
  44:../libs/PoliTeKDSP/Utilities/DataFilter/IIR/iir.cpp ****             _Bessel_buff[0] = wn;
  45:../libs/PoliTeKDSP/Utilities/DataFilter/IIR/iir.cpp ****             break;
  46:../libs/PoliTeKDSP/Utilities/DataFilter/IIR/iir.cpp **** 
  47:../libs/PoliTeKDSP/Utilities/DataFilter/IIR/iir.cpp ****         case BESSEL4:
 364              		.loc 1 47 9 view .LVU89
  48:../libs/PoliTeKDSP/Utilities/DataFilter/IIR/iir.cpp ****             wn = in - (_bessel4_a[1] * _Bessel4_buff[0] + _bessel4_a[2] * _Bessel4_buff[1] + 
 365              		.loc 1 48 13 view .LVU90
 366              		.loc 1 48 90 is_stmt 0 view .LVU91
 367 00c4 D0ED2A5A 		vldr.32	s11, [r0, #168]
 368              		.loc 1 48 73 view .LVU92
 369 00c8 D0ED266A 		vldr.32	s13, [r0, #152]
 370              		.loc 1 48 55 view .LVU93
 371 00cc 90ED297A 		vldr.32	s14, [r0, #164]
ARM GAS  C:\Users\skipi\AppData\Local\Temp\ccz1naCo.s 			page 9


 372              		.loc 1 48 73 view .LVU94
 373 00d0 65EEA66A 		vmul.f32	s13, s11, s13
 374              		.loc 1 48 57 view .LVU95
 375 00d4 D0ED254A 		vldr.32	s9, [r0, #148]
  49:../libs/PoliTeKDSP/Utilities/DataFilter/IIR/iir.cpp ****                        _bessel4_a[3] * _Bessel4_buff[2] + _bessel4_a[4] * _Bessel4_buff[3]);
 376              		.loc 1 49 55 view .LVU96
 377 00d8 90ED2B6A 		vldr.32	s12, [r0, #172]
  48:../libs/PoliTeKDSP/Utilities/DataFilter/IIR/iir.cpp ****             wn = in - (_bessel4_a[1] * _Bessel4_buff[0] + _bessel4_a[2] * _Bessel4_buff[1] + 
 378              		.loc 1 48 92 view .LVU97
 379 00dc 90ED272A 		vldr.32	s4, [r0, #156]
  48:../libs/PoliTeKDSP/Utilities/DataFilter/IIR/iir.cpp ****             wn = in - (_bessel4_a[1] * _Bessel4_buff[0] + _bessel4_a[2] * _Bessel4_buff[1] + 
 380              		.loc 1 48 57 view .LVU98
 381 00e0 E4EE876A 		vfma.f32	s13, s9, s14
 382              		.loc 1 49 90 view .LVU99
 383 00e4 90ED2C5A 		vldr.32	s10, [r0, #176]
 384              		.loc 1 49 57 view .LVU100
 385 00e8 D0ED282A 		vldr.32	s5, [r0, #160]
  50:../libs/PoliTeKDSP/Utilities/DataFilter/IIR/iir.cpp ****             out = _bessel4_b[0] * wn + _bessel4_b[1] * _Bessel4_buff[0] + _bessel4_b[2] * _Bessel4_
 386              		.loc 1 50 54 view .LVU101
 387 00ec D0ED207A 		vldr.32	s15, [r0, #128]
  51:../libs/PoliTeKDSP/Utilities/DataFilter/IIR/iir.cpp ****                   _bessel4_b[3] * _Bessel4_buff[2] + _bessel4_b[4] * _Bessel4_buff[3];
  52:../libs/PoliTeKDSP/Utilities/DataFilter/IIR/iir.cpp ****             _Bessel4_buff[3] = _Bessel4_buff[2];
  53:../libs/PoliTeKDSP/Utilities/DataFilter/IIR/iir.cpp ****             _Bessel4_buff[2] = _Bessel4_buff[1];
  54:../libs/PoliTeKDSP/Utilities/DataFilter/IIR/iir.cpp ****             _Bessel4_buff[1] = _Bessel4_buff[0];
 388              		.loc 1 54 30 view .LVU102
 389 00f0 80ED2A7A 		vstr.32	s14, [r0, #168]
  50:../libs/PoliTeKDSP/Utilities/DataFilter/IIR/iir.cpp ****             out = _bessel4_b[0] * wn + _bessel4_b[1] * _Bessel4_buff[0] + _bessel4_b[2] * _Bessel4_
 390              		.loc 1 50 54 view .LVU103
 391 00f4 67EE277A 		vmul.f32	s15, s14, s15
  50:../libs/PoliTeKDSP/Utilities/DataFilter/IIR/iir.cpp ****             out = _bessel4_b[0] * wn + _bessel4_b[1] * _Bessel4_buff[0] + _bessel4_b[2] * _Bessel4_
 392              		.loc 1 50 38 view .LVU104
 393 00f8 90ED1F3A 		vldr.32	s6, [r0, #124]
  50:../libs/PoliTeKDSP/Utilities/DataFilter/IIR/iir.cpp ****             out = _bessel4_b[0] * wn + _bessel4_b[1] * _Bessel4_buff[0] + _bessel4_b[2] * _Bessel4_
 394              		.loc 1 50 73 view .LVU105
 395 00fc D0ED213A 		vldr.32	s7, [r0, #132]
  48:../libs/PoliTeKDSP/Utilities/DataFilter/IIR/iir.cpp ****                        _bessel4_a[3] * _Bessel4_buff[2] + _bessel4_a[4] * _Bessel4_buff[3]);
 396              		.loc 1 48 92 view .LVU106
 397 0100 E2EE066A 		vfma.f32	s13, s4, s12
  50:../libs/PoliTeKDSP/Utilities/DataFilter/IIR/iir.cpp ****             out = _bessel4_b[0] * wn + _bessel4_b[1] * _Bessel4_buff[0] + _bessel4_b[2] * _Bessel4_
 398              		.loc 1 50 108 view .LVU107
 399 0104 90ED224A 		vldr.32	s8, [r0, #136]
  50:../libs/PoliTeKDSP/Utilities/DataFilter/IIR/iir.cpp ****             out = _bessel4_b[0] * wn + _bessel4_b[1] * _Bessel4_buff[0] + _bessel4_b[2] * _Bessel4_
 400              		.loc 1 50 17 view .LVU108
 401 0108 D0ED234A 		vldr.32	s9, [r0, #140]
  52:../libs/PoliTeKDSP/Utilities/DataFilter/IIR/iir.cpp ****             _Bessel4_buff[2] = _Bessel4_buff[1];
 402              		.loc 1 52 30 view .LVU109
 403 010c 80ED2C6A 		vstr.32	s12, [r0, #176]
  53:../libs/PoliTeKDSP/Utilities/DataFilter/IIR/iir.cpp ****             _Bessel4_buff[1] = _Bessel4_buff[0];
 404              		.loc 1 53 30 view .LVU110
 405 0110 C0ED2B5A 		vstr.32	s11, [r0, #172]
  49:../libs/PoliTeKDSP/Utilities/DataFilter/IIR/iir.cpp ****             out = _bessel4_b[0] * wn + _bessel4_b[1] * _Bessel4_buff[0] + _bessel4_b[2] * _Bessel4_
 406              		.loc 1 49 57 view .LVU111
 407 0114 E2EE856A 		vfma.f32	s13, s5, s10
  48:../libs/PoliTeKDSP/Utilities/DataFilter/IIR/iir.cpp ****                        _bessel4_a[3] * _Bessel4_buff[2] + _bessel4_a[4] * _Bessel4_buff[3]);
 408              		.loc 1 48 16 view .LVU112
 409 0118 30EE667A 		vsub.f32	s14, s0, s13
 410              	.LVL13:
ARM GAS  C:\Users\skipi\AppData\Local\Temp\ccz1naCo.s 			page 10


  50:../libs/PoliTeKDSP/Utilities/DataFilter/IIR/iir.cpp ****                   _bessel4_b[3] * _Bessel4_buff[2] + _bessel4_b[4] * _Bessel4_buff[3];
 411              		.loc 1 50 13 is_stmt 1 view .LVU113
  50:../libs/PoliTeKDSP/Utilities/DataFilter/IIR/iir.cpp ****                   _bessel4_b[3] * _Bessel4_buff[2] + _bessel4_b[4] * _Bessel4_buff[3];
 412              		.loc 1 50 38 is_stmt 0 view .LVU114
 413 011c E3EE077A 		vfma.f32	s15, s6, s14
  55:../libs/PoliTeKDSP/Utilities/DataFilter/IIR/iir.cpp ****             _Bessel4_buff[0] = wn;
 414              		.loc 1 55 30 view .LVU115
 415 0120 80ED297A 		vstr.32	s14, [r0, #164]
  50:../libs/PoliTeKDSP/Utilities/DataFilter/IIR/iir.cpp ****                   _bessel4_b[3] * _Bessel4_buff[2] + _bessel4_b[4] * _Bessel4_buff[3];
 416              		.loc 1 50 38 view .LVU116
 417 0124 B0EE670A 		vmov.f32	s0, s15
 418              	.LVL14:
  50:../libs/PoliTeKDSP/Utilities/DataFilter/IIR/iir.cpp ****                   _bessel4_b[3] * _Bessel4_buff[2] + _bessel4_b[4] * _Bessel4_buff[3];
 419              		.loc 1 50 73 view .LVU117
 420 0128 A5EEA30A 		vfma.f32	s0, s11, s7
  50:../libs/PoliTeKDSP/Utilities/DataFilter/IIR/iir.cpp ****                   _bessel4_b[3] * _Bessel4_buff[2] + _bessel4_b[4] * _Bessel4_buff[3];
 421              		.loc 1 50 108 view .LVU118
 422 012c A6EE040A 		vfma.f32	s0, s12, s8
  50:../libs/PoliTeKDSP/Utilities/DataFilter/IIR/iir.cpp ****                   _bessel4_b[3] * _Bessel4_buff[2] + _bessel4_b[4] * _Bessel4_buff[3];
 423              		.loc 1 50 17 view .LVU119
 424 0130 A5EE240A 		vfma.f32	s0, s10, s9
 425              	.LVL15:
  52:../libs/PoliTeKDSP/Utilities/DataFilter/IIR/iir.cpp ****             _Bessel4_buff[2] = _Bessel4_buff[1];
 426              		.loc 1 52 13 is_stmt 1 view .LVU120
  53:../libs/PoliTeKDSP/Utilities/DataFilter/IIR/iir.cpp ****             _Bessel4_buff[1] = _Bessel4_buff[0];
 427              		.loc 1 53 13 view .LVU121
  54:../libs/PoliTeKDSP/Utilities/DataFilter/IIR/iir.cpp ****             _Bessel4_buff[0] = wn;
 428              		.loc 1 54 13 view .LVU122
 429              		.loc 1 55 13 view .LVU123
  56:../libs/PoliTeKDSP/Utilities/DataFilter/IIR/iir.cpp ****             break;
 430              		.loc 1 56 13 view .LVU124
 431 0134 7047     		bx	lr
 432              	.LVL16:
 433              	.L14:
  40:../libs/PoliTeKDSP/Utilities/DataFilter/IIR/iir.cpp ****             wn = in - (_bessel_a[1] * _Bessel_buff[0] + _bessel_a[2] * _Bessel_buff[1]);
 434              		.loc 1 40 9 view .LVU125
  41:../libs/PoliTeKDSP/Utilities/DataFilter/IIR/iir.cpp ****             out = _bessel_b[0] * wn + _bessel_b[1] * _Bessel_buff[0] + _bessel_b[2] * _Bessel_buff[
 435              		.loc 1 41 13 view .LVU126
  41:../libs/PoliTeKDSP/Utilities/DataFilter/IIR/iir.cpp ****             out = _bessel_b[0] * wn + _bessel_b[1] * _Bessel_buff[0] + _bessel_b[2] * _Bessel_buff[
 436              		.loc 1 41 86 is_stmt 0 view .LVU127
 437 0136 90ED1E6A 		vldr.32	s12, [r0, #120]
  41:../libs/PoliTeKDSP/Utilities/DataFilter/IIR/iir.cpp ****             out = _bessel_b[0] * wn + _bessel_b[1] * _Bessel_buff[0] + _bessel_b[2] * _Bessel_buff[
 438              		.loc 1 41 70 view .LVU128
 439 013a 90ED1C7A 		vldr.32	s14, [r0, #112]
  41:../libs/PoliTeKDSP/Utilities/DataFilter/IIR/iir.cpp ****             out = _bessel_b[0] * wn + _bessel_b[1] * _Bessel_buff[0] + _bessel_b[2] * _Bessel_buff[
 440              		.loc 1 41 53 view .LVU129
 441 013e D0ED1D6A 		vldr.32	s13, [r0, #116]
  41:../libs/PoliTeKDSP/Utilities/DataFilter/IIR/iir.cpp ****             out = _bessel_b[0] * wn + _bessel_b[1] * _Bessel_buff[0] + _bessel_b[2] * _Bessel_buff[
 442              		.loc 1 41 70 view .LVU130
 443 0142 26EE077A 		vmul.f32	s14, s12, s14
  41:../libs/PoliTeKDSP/Utilities/DataFilter/IIR/iir.cpp ****             out = _bessel_b[0] * wn + _bessel_b[1] * _Bessel_buff[0] + _bessel_b[2] * _Bessel_buff[
 444              		.loc 1 41 55 view .LVU131
 445 0146 D0ED1B4A 		vldr.32	s9, [r0, #108]
  42:../libs/PoliTeKDSP/Utilities/DataFilter/IIR/iir.cpp ****             _Bessel_buff[1] = _Bessel_buff[0];
 446              		.loc 1 42 52 view .LVU132
 447 014a D0ED187A 		vldr.32	s15, [r0, #96]
  42:../libs/PoliTeKDSP/Utilities/DataFilter/IIR/iir.cpp ****             _Bessel_buff[1] = _Bessel_buff[0];
ARM GAS  C:\Users\skipi\AppData\Local\Temp\ccz1naCo.s 			page 11


 448              		.loc 1 42 37 view .LVU133
 449 014e 90ED175A 		vldr.32	s10, [r0, #92]
  41:../libs/PoliTeKDSP/Utilities/DataFilter/IIR/iir.cpp ****             out = _bessel_b[0] * wn + _bessel_b[1] * _Bessel_buff[0] + _bessel_b[2] * _Bessel_buff[
 450              		.loc 1 41 55 view .LVU134
 451 0152 A4EEA67A 		vfma.f32	s14, s9, s13
  42:../libs/PoliTeKDSP/Utilities/DataFilter/IIR/iir.cpp ****             _Bessel_buff[1] = _Bessel_buff[0];
 452              		.loc 1 42 17 view .LVU135
 453 0156 D0ED195A 		vldr.32	s11, [r0, #100]
  42:../libs/PoliTeKDSP/Utilities/DataFilter/IIR/iir.cpp ****             _Bessel_buff[1] = _Bessel_buff[0];
 454              		.loc 1 42 52 view .LVU136
 455 015a 66EEA77A 		vmul.f32	s15, s13, s15
  43:../libs/PoliTeKDSP/Utilities/DataFilter/IIR/iir.cpp ****             _Bessel_buff[0] = wn;
 456              		.loc 1 43 29 view .LVU137
 457 015e C0ED1E6A 		vstr.32	s13, [r0, #120]
  41:../libs/PoliTeKDSP/Utilities/DataFilter/IIR/iir.cpp ****             out = _bessel_b[0] * wn + _bessel_b[1] * _Bessel_buff[0] + _bessel_b[2] * _Bessel_buff[
 458              		.loc 1 41 16 view .LVU138
 459 0162 30EE477A 		vsub.f32	s14, s0, s14
 460              	.LVL17:
  42:../libs/PoliTeKDSP/Utilities/DataFilter/IIR/iir.cpp ****             _Bessel_buff[1] = _Bessel_buff[0];
 461              		.loc 1 42 13 is_stmt 1 view .LVU139
  42:../libs/PoliTeKDSP/Utilities/DataFilter/IIR/iir.cpp ****             _Bessel_buff[1] = _Bessel_buff[0];
 462              		.loc 1 42 37 is_stmt 0 view .LVU140
 463 0166 E5EE077A 		vfma.f32	s15, s10, s14
  44:../libs/PoliTeKDSP/Utilities/DataFilter/IIR/iir.cpp ****             break;
 464              		.loc 1 44 29 view .LVU141
 465 016a 80ED1D7A 		vstr.32	s14, [r0, #116]
  42:../libs/PoliTeKDSP/Utilities/DataFilter/IIR/iir.cpp ****             _Bessel_buff[1] = _Bessel_buff[0];
 466              		.loc 1 42 37 view .LVU142
 467 016e B0EE670A 		vmov.f32	s0, s15
 468              	.LVL18:
  42:../libs/PoliTeKDSP/Utilities/DataFilter/IIR/iir.cpp ****             _Bessel_buff[1] = _Bessel_buff[0];
 469              		.loc 1 42 17 view .LVU143
 470 0172 A6EE250A 		vfma.f32	s0, s12, s11
 471              	.LVL19:
  43:../libs/PoliTeKDSP/Utilities/DataFilter/IIR/iir.cpp ****             _Bessel_buff[0] = wn;
 472              		.loc 1 43 13 is_stmt 1 view .LVU144
  44:../libs/PoliTeKDSP/Utilities/DataFilter/IIR/iir.cpp ****             break;
 473              		.loc 1 44 13 view .LVU145
  45:../libs/PoliTeKDSP/Utilities/DataFilter/IIR/iir.cpp **** 
 474              		.loc 1 45 13 view .LVU146
 475 0176 7047     		bx	lr
 476              	.LVL20:
 477              	.L15:
  21:../libs/PoliTeKDSP/Utilities/DataFilter/IIR/iir.cpp ****         case BUTTERWORTH2:
 478              		.loc 1 21 13 is_stmt 0 view .LVU147
 479 0178 9FED010A 		vldr.32	s0, .L16
 480              	.LVL21:
  57:../libs/PoliTeKDSP/Utilities/DataFilter/IIR/iir.cpp ****     }
  58:../libs/PoliTeKDSP/Utilities/DataFilter/IIR/iir.cpp ****     return out;
 481              		.loc 1 58 5 is_stmt 1 view .LVU148
  59:../libs/PoliTeKDSP/Utilities/DataFilter/IIR/iir.cpp **** }...
 482              		.loc 1 59 1 is_stmt 0 view .LVU149
 483 017c 7047     		bx	lr
 484              	.L17:
 485 017e 00BF     		.align	2
 486              	.L16:
 487 0180 00000000 		.word	0
ARM GAS  C:\Users\skipi\AppData\Local\Temp\ccz1naCo.s 			page 12


 488              		.cfi_endproc
 489              	.LFE568:
 491              		.section	.rodata
 492              		.align	2
 493              		.set	.LANCHOR0,. + 0
 494              	.LC0:
 495 0000 B5596D3B 		.word	997022133
 496 0004 B559ED3B 		.word	1005410741
 497 0008 B5596D3B 		.word	997022133
 498              	.LC1:
 499 000c 0000803F 		.word	1065353216
 500 0010 114EE9BF 		.word	-1075229167
 501 0014 8951563F 		.word	1062621577
 502              	.LC2:
 503 0018 1EF85E37 		.word	928970782
 504 001c DA025F38 		.word	945750746
 505 0020 D344A738 		.word	950486227
 506 0024 DA025F38 		.word	945750746
 507 0028 1EF85E37 		.word	928970782
 508              	.LC3:
 509 002c 0000803F 		.word	1065353216
 510 0030 9CFD6AC0 		.word	-1066730084
 511 0034 0B2DA240 		.word	1084370187
 512 0038 016C47C0 		.word	-1069061119
 513 003c 0B4C383F 		.word	1060654091
 514              	.LC4:
 515 0040 EEF6B03B 		.word	1001453294
 516 0044 EEF6303C 		.word	1009841902
 517 0048 EEF6B03B 		.word	1001453294
 518              	.LC5:
 519 004c 0000803F 		.word	1065353216
 520 0050 E4BEDEBF 		.word	-1075921180
 521 0054 7F05433F 		.word	1061356927
 522              	.LC6:
 523 0058 5691FA37 		.word	939168086
 524 005c 9986FA38 		.word	955942553
 525 0060 A2E73B39 		.word	960227234
 526 0064 9986FA38 		.word	955942553
 527 0068 5691FA37 		.word	939168086
 528              	.LC7:
 529 006c 0000803F 		.word	1065353216
 530 0070 7A6C61C0 		.word	-1067357062
 531 0074 FC589540 		.word	1083529468
 532 0078 4C6F30C0 		.word	-1070567604
 533 007c 8BC61C3F 		.word	1058850443
 534              		.text
 535              	.Letext0:
 536              		.file 2 "c:\\program files\\daisytoolchain\\arm-none-eabi\\include\\machine\\_default_types.h"
 537              		.file 3 "c:\\program files\\daisytoolchain\\arm-none-eabi\\include\\sys\\_stdint.h"
 538              		.file 4 "c:\\program files\\daisytoolchain\\arm-none-eabi\\include\\stdint.h"
 539              		.file 5 "c:\\program files\\daisytoolchain\\arm-none-eabi\\include\\c++\\10.2.1\\cmath"
 540              		.file 6 "c:\\program files\\daisytoolchain\\arm-none-eabi\\include\\c++\\10.2.1\\bits\\std_abs.h"
 541              		.file 7 "c:\\program files\\daisytoolchain\\arm-none-eabi\\include\\c++\\10.2.1\\cstdint"
 542              		.file 8 "c:\\program files\\daisytoolchain\\arm-none-eabi\\include\\c++\\10.2.1\\arm-none-eabi\\th
 543              		.file 9 "c:\\program files\\daisytoolchain\\arm-none-eabi\\include\\math.h"
 544              		.file 10 "c:\\program files\\daisytoolchain\\arm-none-eabi\\include\\c++\\10.2.1\\math.h"
 545              		.file 11 "../libs/PoliTeKDSP/Utilities/DataFilter/IIR/iir.h"
ARM GAS  C:\Users\skipi\AppData\Local\Temp\ccz1naCo.s 			page 13


 546              		.file 12 "<built-in>"
ARM GAS  C:\Users\skipi\AppData\Local\Temp\ccz1naCo.s 			page 14

