ARM GAS  C:\Users\matte\AppData\Local\Temp\ccj2OJiD.s 			page 1


   1              		.cpu cortex-m7
   2              		.eabi_attribute 28, 1
   3              		.eabi_attribute 20, 1
   4              		.eabi_attribute 21, 1
   5              		.eabi_attribute 23, 3
   6              		.eabi_attribute 24, 1
   7              		.eabi_attribute 25, 1
   8              		.eabi_attribute 26, 1
   9              		.eabi_attribute 30, 2
  10              		.eabi_attribute 34, 1
  11              		.eabi_attribute 18, 4
  12              		.file	"main.cpp"
  13              		.text
  14              	.Ltext0:
  15              		.cfi_sections	.debug_frame
  16              		.section	.text._ZN5daisy7EncoderD2Ev,"axG",%progbits,_ZN5daisy7EncoderD5Ev,comdat
  17              		.align	1
  18              		.p2align 2,,3
  19              		.weak	_ZN5daisy7EncoderD2Ev
  20              		.arch armv7e-m
  21              		.syntax unified
  22              		.thumb
  23              		.thumb_func
  24              		.fpu fpv5-d16
  26              	_ZN5daisy7EncoderD2Ev:
  27              	.LVL0:
  28              	.LFB1674:
  29              		.file 1 "../libs/PoliTeKDSP/libs/libDaisy/src/hid/encoder.h"
   1:../libs/PoliTeKDSP/libs/libDaisy/src/hid/encoder.h **** #pragma once
   2:../libs/PoliTeKDSP/libs/libDaisy/src/hid/encoder.h **** #ifndef DSY_ENCODER_H
   3:../libs/PoliTeKDSP/libs/libDaisy/src/hid/encoder.h **** #define DSY_ENCODER_H
   4:../libs/PoliTeKDSP/libs/libDaisy/src/hid/encoder.h **** #include "daisy_core.h"
   5:../libs/PoliTeKDSP/libs/libDaisy/src/hid/encoder.h **** #include "per/gpio.h"
   6:../libs/PoliTeKDSP/libs/libDaisy/src/hid/encoder.h **** #include "hid/switch.h"
   7:../libs/PoliTeKDSP/libs/libDaisy/src/hid/encoder.h **** 
   8:../libs/PoliTeKDSP/libs/libDaisy/src/hid/encoder.h **** namespace daisy
   9:../libs/PoliTeKDSP/libs/libDaisy/src/hid/encoder.h **** {
  10:../libs/PoliTeKDSP/libs/libDaisy/src/hid/encoder.h **** /** 
  11:../libs/PoliTeKDSP/libs/libDaisy/src/hid/encoder.h ****     @brief Generic Class for handling Quadrature Encoders \n 
  12:../libs/PoliTeKDSP/libs/libDaisy/src/hid/encoder.h ****     Inspired/influenced by Mutable Instruments (pichenettes) Encoder classes
  13:../libs/PoliTeKDSP/libs/libDaisy/src/hid/encoder.h ****     @author Stephen Hensley
  14:../libs/PoliTeKDSP/libs/libDaisy/src/hid/encoder.h ****     @date December 2019
  15:../libs/PoliTeKDSP/libs/libDaisy/src/hid/encoder.h ****     @ingroup controls
  16:../libs/PoliTeKDSP/libs/libDaisy/src/hid/encoder.h **** */
  17:../libs/PoliTeKDSP/libs/libDaisy/src/hid/encoder.h **** class Encoder
  18:../libs/PoliTeKDSP/libs/libDaisy/src/hid/encoder.h **** {
  19:../libs/PoliTeKDSP/libs/libDaisy/src/hid/encoder.h ****   public:
  20:../libs/PoliTeKDSP/libs/libDaisy/src/hid/encoder.h ****     Encoder() {}
  21:../libs/PoliTeKDSP/libs/libDaisy/src/hid/encoder.h ****     ~Encoder() {}
  30              		.loc 1 21 5 view -0
  31              		.cfi_startproc
  32              		@ args = 0, pretend = 0, frame = 0
  33              		@ frame_needed = 0, uses_anonymous_args = 0
  34              		@ link register save eliminated.
  35              	.LBB566:
  36              	.LBI566:
  37              		.file 2 "../libs/libDaisy/src/hid/switch.h"
ARM GAS  C:\Users\matte\AppData\Local\Temp\ccj2OJiD.s 			page 2


   1:../libs/libDaisy/src/hid/switch.h **** #pragma once
   2:../libs/libDaisy/src/hid/switch.h **** #ifndef DSY_SWITCH_H
   3:../libs/libDaisy/src/hid/switch.h **** #define DSY_SWITCH_H
   4:../libs/libDaisy/src/hid/switch.h **** #include "daisy_core.h"
   5:../libs/libDaisy/src/hid/switch.h **** #include "per/gpio.h"
   6:../libs/libDaisy/src/hid/switch.h **** #include "sys/system.h"
   7:../libs/libDaisy/src/hid/switch.h **** 
   8:../libs/libDaisy/src/hid/switch.h **** namespace daisy
   9:../libs/libDaisy/src/hid/switch.h **** {
  10:../libs/libDaisy/src/hid/switch.h **** /** 
  11:../libs/libDaisy/src/hid/switch.h ****     Generic Class for handling momentary/latching switches \n 
  12:../libs/libDaisy/src/hid/switch.h ****     Inspired/influenced by Mutable Instruments (pichenettes) Switch classes
  13:../libs/libDaisy/src/hid/switch.h ****     @author Stephen Hensley
  14:../libs/libDaisy/src/hid/switch.h ****     @date December 2019
  15:../libs/libDaisy/src/hid/switch.h ****     @ingroup controls
  16:../libs/libDaisy/src/hid/switch.h **** */
  17:../libs/libDaisy/src/hid/switch.h **** class Switch
  18:../libs/libDaisy/src/hid/switch.h **** {
  19:../libs/libDaisy/src/hid/switch.h ****   public:
  20:../libs/libDaisy/src/hid/switch.h ****     /** Specifies the expected behavior of the switch */
  21:../libs/libDaisy/src/hid/switch.h ****     enum Type
  22:../libs/libDaisy/src/hid/switch.h ****     {
  23:../libs/libDaisy/src/hid/switch.h ****         TYPE_TOGGLE,    /**< & */
  24:../libs/libDaisy/src/hid/switch.h ****         TYPE_MOMENTARY, /**< & */
  25:../libs/libDaisy/src/hid/switch.h ****     };
  26:../libs/libDaisy/src/hid/switch.h ****     /** Specifies whether the pressed is HIGH or LOW. */
  27:../libs/libDaisy/src/hid/switch.h ****     enum Polarity
  28:../libs/libDaisy/src/hid/switch.h ****     {
  29:../libs/libDaisy/src/hid/switch.h ****         POLARITY_NORMAL,   /**< & */
  30:../libs/libDaisy/src/hid/switch.h ****         POLARITY_INVERTED, /**< & */
  31:../libs/libDaisy/src/hid/switch.h ****     };
  32:../libs/libDaisy/src/hid/switch.h **** 
  33:../libs/libDaisy/src/hid/switch.h ****     Switch() {}
  34:../libs/libDaisy/src/hid/switch.h ****     ~Switch() {}
  38              		.loc 2 34 5 view .LVU1
  39              		.loc 2 34 5 is_stmt 0 view .LVU2
  40              	.LBE566:
  41              		.loc 1 21 17 view .LVU3
  42 0000 7047     		bx	lr
  43              		.cfi_endproc
  44              	.LFE1674:
  46              		.weak	_ZN5daisy7EncoderD1Ev
  47              		.thumb_set _ZN5daisy7EncoderD1Ev,_ZN5daisy7EncoderD2Ev
  48 0002 00BF     		.section	.text._ZN5daisy9DaisySeedD2Ev,"axG",%progbits,_ZN5daisy9DaisySeedD5Ev,comdat
  49              		.align	1
  50              		.p2align 2,,3
  51              		.weak	_ZN5daisy9DaisySeedD2Ev
  52              		.syntax unified
  53              		.thumb
  54              		.thumb_func
  55              		.fpu fpv5-d16
  57              	_ZN5daisy9DaisySeedD2Ev:
  58              	.LVL1:
  59              	.LFB2645:
  60              		.file 3 "../libs/PoliTeKDSP/libs/libDaisy/src/daisy_seed.h"
   1:../libs/PoliTeKDSP/libs/libDaisy/src/daisy_seed.h **** #pragma once
   2:../libs/PoliTeKDSP/libs/libDaisy/src/daisy_seed.h **** #ifndef DSY_SEED_H
ARM GAS  C:\Users\matte\AppData\Local\Temp\ccj2OJiD.s 			page 3


   3:../libs/PoliTeKDSP/libs/libDaisy/src/daisy_seed.h **** #define DSY_SEED_H
   4:../libs/PoliTeKDSP/libs/libDaisy/src/daisy_seed.h **** 
   5:../libs/PoliTeKDSP/libs/libDaisy/src/daisy_seed.h **** #include "daisy.h"
   6:../libs/PoliTeKDSP/libs/libDaisy/src/daisy_seed.h **** 
   7:../libs/PoliTeKDSP/libs/libDaisy/src/daisy_seed.h **** //Uncomment this out if you're still using the rev2 hardware
   8:../libs/PoliTeKDSP/libs/libDaisy/src/daisy_seed.h **** //#define SEED_REV2
   9:../libs/PoliTeKDSP/libs/libDaisy/src/daisy_seed.h **** 
  10:../libs/PoliTeKDSP/libs/libDaisy/src/daisy_seed.h **** namespace daisy
  11:../libs/PoliTeKDSP/libs/libDaisy/src/daisy_seed.h **** {
  12:../libs/PoliTeKDSP/libs/libDaisy/src/daisy_seed.h **** /**
  13:../libs/PoliTeKDSP/libs/libDaisy/src/daisy_seed.h ****    @brief This is the higher-level interface for the Daisy board. \n 
  14:../libs/PoliTeKDSP/libs/libDaisy/src/daisy_seed.h ****     All basic peripheral configuration/initialization is setup here. \n
  15:../libs/PoliTeKDSP/libs/libDaisy/src/daisy_seed.h **** 
  16:../libs/PoliTeKDSP/libs/libDaisy/src/daisy_seed.h ****    @ingroup boards
  17:../libs/PoliTeKDSP/libs/libDaisy/src/daisy_seed.h **** */
  18:../libs/PoliTeKDSP/libs/libDaisy/src/daisy_seed.h **** class DaisySeed
  19:../libs/PoliTeKDSP/libs/libDaisy/src/daisy_seed.h **** {
  20:../libs/PoliTeKDSP/libs/libDaisy/src/daisy_seed.h ****   public:
  21:../libs/PoliTeKDSP/libs/libDaisy/src/daisy_seed.h ****     DaisySeed() {}
  22:../libs/PoliTeKDSP/libs/libDaisy/src/daisy_seed.h ****     ~DaisySeed() {}
  61              		.loc 3 22 5 is_stmt 1 view -0
  62              		.cfi_startproc
  63              		@ args = 0, pretend = 0, frame = 0
  64              		@ frame_needed = 0, uses_anonymous_args = 0
  65              		@ link register save eliminated.
  66              	.LBB567:
  67              	.LBI567:
  68              		.file 4 "../libs/PoliTeKDSP/libs/libDaisy/src/dev/codec_ak4556.h"
   1:../libs/PoliTeKDSP/libs/libDaisy/src/dev/codec_ak4556.h **** #pragma once
   2:../libs/PoliTeKDSP/libs/libDaisy/src/dev/codec_ak4556.h **** #ifndef DSY_CODEC_AK4556_H
   3:../libs/PoliTeKDSP/libs/libDaisy/src/dev/codec_ak4556.h **** #define DSY_CODEC_AK4556_H
   4:../libs/PoliTeKDSP/libs/libDaisy/src/dev/codec_ak4556.h **** 
   5:../libs/PoliTeKDSP/libs/libDaisy/src/dev/codec_ak4556.h **** #include "daisy_core.h"
   6:../libs/PoliTeKDSP/libs/libDaisy/src/dev/codec_ak4556.h **** #include "per/gpio.h"
   7:../libs/PoliTeKDSP/libs/libDaisy/src/dev/codec_ak4556.h **** 
   8:../libs/PoliTeKDSP/libs/libDaisy/src/dev/codec_ak4556.h **** namespace daisy
   9:../libs/PoliTeKDSP/libs/libDaisy/src/dev/codec_ak4556.h **** {
  10:../libs/PoliTeKDSP/libs/libDaisy/src/dev/codec_ak4556.h **** /** @brief Ak4556 Codec support 
  11:../libs/PoliTeKDSP/libs/libDaisy/src/dev/codec_ak4556.h ****  ** @author shensley
  12:../libs/PoliTeKDSP/libs/libDaisy/src/dev/codec_ak4556.h ****  ** @addtogroup codec
  13:../libs/PoliTeKDSP/libs/libDaisy/src/dev/codec_ak4556.h ****  ** 
  14:../libs/PoliTeKDSP/libs/libDaisy/src/dev/codec_ak4556.h ****  ** I don't see any real reason to have this be more than a function, but in case we want
  15:../libs/PoliTeKDSP/libs/libDaisy/src/dev/codec_ak4556.h ****  ** to add other functions down the road I wrapped the function in a class.
  16:../libs/PoliTeKDSP/libs/libDaisy/src/dev/codec_ak4556.h ****  ***/
  17:../libs/PoliTeKDSP/libs/libDaisy/src/dev/codec_ak4556.h **** class Ak4556
  18:../libs/PoliTeKDSP/libs/libDaisy/src/dev/codec_ak4556.h **** {
  19:../libs/PoliTeKDSP/libs/libDaisy/src/dev/codec_ak4556.h ****   public:
  20:../libs/PoliTeKDSP/libs/libDaisy/src/dev/codec_ak4556.h ****     Ak4556() {}
  21:../libs/PoliTeKDSP/libs/libDaisy/src/dev/codec_ak4556.h ****     ~Ak4556() {}
  69              		.loc 4 21 5 view .LVU5
  70              		.loc 4 21 5 is_stmt 0 view .LVU6
  71              	.LBE567:
  72              	.LBB568:
  73              	.LBI568:
  74              		.file 5 "../libs/PoliTeKDSP/libs/libDaisy/src/sys/system.h"
   1:../libs/PoliTeKDSP/libs/libDaisy/src/sys/system.h **** #ifndef DSY_SYSTEM_H
   2:../libs/PoliTeKDSP/libs/libDaisy/src/sys/system.h **** #define DSY_SYSTEM_H
ARM GAS  C:\Users\matte\AppData\Local\Temp\ccj2OJiD.s 			page 4


   3:../libs/PoliTeKDSP/libs/libDaisy/src/sys/system.h **** 
   4:../libs/PoliTeKDSP/libs/libDaisy/src/sys/system.h **** #ifndef UNIT_TEST // for unit tests, a dummy implementation is provided below
   5:../libs/PoliTeKDSP/libs/libDaisy/src/sys/system.h **** 
   6:../libs/PoliTeKDSP/libs/libDaisy/src/sys/system.h **** #include <cstdint>
   7:../libs/PoliTeKDSP/libs/libDaisy/src/sys/system.h **** #include "per/tim.h"
   8:../libs/PoliTeKDSP/libs/libDaisy/src/sys/system.h **** 
   9:../libs/PoliTeKDSP/libs/libDaisy/src/sys/system.h **** namespace daisy
  10:../libs/PoliTeKDSP/libs/libDaisy/src/sys/system.h **** {
  11:../libs/PoliTeKDSP/libs/libDaisy/src/sys/system.h **** /** A handle for interacting with the Core System.
  12:../libs/PoliTeKDSP/libs/libDaisy/src/sys/system.h ****  ** This includes the Clock tree, MPU, global DMA initialization,
  13:../libs/PoliTeKDSP/libs/libDaisy/src/sys/system.h ****  ** cache handling, and any other necessary global initiailzation
  14:../libs/PoliTeKDSP/libs/libDaisy/src/sys/system.h ****  **
  15:../libs/PoliTeKDSP/libs/libDaisy/src/sys/system.h ****  ** @author shensley
  16:../libs/PoliTeKDSP/libs/libDaisy/src/sys/system.h ****  ** @ingroup system
  17:../libs/PoliTeKDSP/libs/libDaisy/src/sys/system.h ****  */
  18:../libs/PoliTeKDSP/libs/libDaisy/src/sys/system.h **** class System
  19:../libs/PoliTeKDSP/libs/libDaisy/src/sys/system.h **** {
  20:../libs/PoliTeKDSP/libs/libDaisy/src/sys/system.h ****   public:
  21:../libs/PoliTeKDSP/libs/libDaisy/src/sys/system.h ****     /** Contains settings for initializing the System */
  22:../libs/PoliTeKDSP/libs/libDaisy/src/sys/system.h ****     struct Config
  23:../libs/PoliTeKDSP/libs/libDaisy/src/sys/system.h ****     {
  24:../libs/PoliTeKDSP/libs/libDaisy/src/sys/system.h ****         /** Specifies the system clock frequency that feeds APB/AHB clocks, etc. */
  25:../libs/PoliTeKDSP/libs/libDaisy/src/sys/system.h ****         enum class SysClkFreq
  26:../libs/PoliTeKDSP/libs/libDaisy/src/sys/system.h ****         {
  27:../libs/PoliTeKDSP/libs/libDaisy/src/sys/system.h ****             FREQ_400MHZ,
  28:../libs/PoliTeKDSP/libs/libDaisy/src/sys/system.h ****             FREQ_480MHZ,
  29:../libs/PoliTeKDSP/libs/libDaisy/src/sys/system.h ****         };
  30:../libs/PoliTeKDSP/libs/libDaisy/src/sys/system.h **** 
  31:../libs/PoliTeKDSP/libs/libDaisy/src/sys/system.h ****         /** Method to call on the struct to set to defaults
  32:../libs/PoliTeKDSP/libs/libDaisy/src/sys/system.h ****          ** CPU Freq set to 400MHz
  33:../libs/PoliTeKDSP/libs/libDaisy/src/sys/system.h ****          ** Cache Enabled
  34:../libs/PoliTeKDSP/libs/libDaisy/src/sys/system.h ****          ** */
  35:../libs/PoliTeKDSP/libs/libDaisy/src/sys/system.h ****         void Defaults()
  36:../libs/PoliTeKDSP/libs/libDaisy/src/sys/system.h ****         {
  37:../libs/PoliTeKDSP/libs/libDaisy/src/sys/system.h ****             cpu_freq    = SysClkFreq::FREQ_400MHZ;
  38:../libs/PoliTeKDSP/libs/libDaisy/src/sys/system.h ****             use_dcache  = true;
  39:../libs/PoliTeKDSP/libs/libDaisy/src/sys/system.h ****             use_icache  = true;
  40:../libs/PoliTeKDSP/libs/libDaisy/src/sys/system.h ****             skip_clocks = false;
  41:../libs/PoliTeKDSP/libs/libDaisy/src/sys/system.h ****         }
  42:../libs/PoliTeKDSP/libs/libDaisy/src/sys/system.h **** 
  43:../libs/PoliTeKDSP/libs/libDaisy/src/sys/system.h ****         /** Method to call on the struct to set to boost mode:
  44:../libs/PoliTeKDSP/libs/libDaisy/src/sys/system.h ****          ** CPU Freq set to 480MHz
  45:../libs/PoliTeKDSP/libs/libDaisy/src/sys/system.h ****          ** Cache Enabled
  46:../libs/PoliTeKDSP/libs/libDaisy/src/sys/system.h ****          ** */
  47:../libs/PoliTeKDSP/libs/libDaisy/src/sys/system.h ****         void Boost()
  48:../libs/PoliTeKDSP/libs/libDaisy/src/sys/system.h ****         {
  49:../libs/PoliTeKDSP/libs/libDaisy/src/sys/system.h ****             cpu_freq    = SysClkFreq::FREQ_480MHZ;
  50:../libs/PoliTeKDSP/libs/libDaisy/src/sys/system.h ****             use_dcache  = true;
  51:../libs/PoliTeKDSP/libs/libDaisy/src/sys/system.h ****             use_icache  = true;
  52:../libs/PoliTeKDSP/libs/libDaisy/src/sys/system.h ****             skip_clocks = false;
  53:../libs/PoliTeKDSP/libs/libDaisy/src/sys/system.h ****         }
  54:../libs/PoliTeKDSP/libs/libDaisy/src/sys/system.h **** 
  55:../libs/PoliTeKDSP/libs/libDaisy/src/sys/system.h ****         SysClkFreq cpu_freq;
  56:../libs/PoliTeKDSP/libs/libDaisy/src/sys/system.h ****         bool       use_dcache;
  57:../libs/PoliTeKDSP/libs/libDaisy/src/sys/system.h ****         bool       use_icache;
  58:../libs/PoliTeKDSP/libs/libDaisy/src/sys/system.h ****         bool       skip_clocks;
  59:../libs/PoliTeKDSP/libs/libDaisy/src/sys/system.h ****     };
ARM GAS  C:\Users\matte\AppData\Local\Temp\ccj2OJiD.s 			page 5


  60:../libs/PoliTeKDSP/libs/libDaisy/src/sys/system.h **** 
  61:../libs/PoliTeKDSP/libs/libDaisy/src/sys/system.h ****     /** Describes the different regions of memory available to the Daisy */
  62:../libs/PoliTeKDSP/libs/libDaisy/src/sys/system.h ****     enum MemoryRegion
  63:../libs/PoliTeKDSP/libs/libDaisy/src/sys/system.h ****     {
  64:../libs/PoliTeKDSP/libs/libDaisy/src/sys/system.h ****         INTERNAL_FLASH = 0,
  65:../libs/PoliTeKDSP/libs/libDaisy/src/sys/system.h ****         ITCMRAM,
  66:../libs/PoliTeKDSP/libs/libDaisy/src/sys/system.h ****         DTCMRAM,
  67:../libs/PoliTeKDSP/libs/libDaisy/src/sys/system.h ****         SRAM_D1,
  68:../libs/PoliTeKDSP/libs/libDaisy/src/sys/system.h ****         SRAM_D2,
  69:../libs/PoliTeKDSP/libs/libDaisy/src/sys/system.h ****         SRAM_D3,
  70:../libs/PoliTeKDSP/libs/libDaisy/src/sys/system.h ****         SDRAM,
  71:../libs/PoliTeKDSP/libs/libDaisy/src/sys/system.h ****         QSPI,
  72:../libs/PoliTeKDSP/libs/libDaisy/src/sys/system.h ****         INVALID_ADDRESS,
  73:../libs/PoliTeKDSP/libs/libDaisy/src/sys/system.h ****     };
  74:../libs/PoliTeKDSP/libs/libDaisy/src/sys/system.h **** 
  75:../libs/PoliTeKDSP/libs/libDaisy/src/sys/system.h ****     /** Bootloader struct for controlling bootloading parameters */
  76:../libs/PoliTeKDSP/libs/libDaisy/src/sys/system.h ****     struct BootInfo
  77:../libs/PoliTeKDSP/libs/libDaisy/src/sys/system.h ****     {
  78:../libs/PoliTeKDSP/libs/libDaisy/src/sys/system.h ****         enum class Type : uint32_t
  79:../libs/PoliTeKDSP/libs/libDaisy/src/sys/system.h ****         {
  80:../libs/PoliTeKDSP/libs/libDaisy/src/sys/system.h ****             INVALID      = 0x00000000,
  81:../libs/PoliTeKDSP/libs/libDaisy/src/sys/system.h ****             JUMP         = 0xDEADBEEF,
  82:../libs/PoliTeKDSP/libs/libDaisy/src/sys/system.h ****             SKIP_TIMEOUT = 0x5AFEB007,
  83:../libs/PoliTeKDSP/libs/libDaisy/src/sys/system.h ****             INF_TIMEOUT  = 0xB0074EFA,
  84:../libs/PoliTeKDSP/libs/libDaisy/src/sys/system.h ****         } status;
  85:../libs/PoliTeKDSP/libs/libDaisy/src/sys/system.h ****         uint32_t data;
  86:../libs/PoliTeKDSP/libs/libDaisy/src/sys/system.h ****         enum class Version : uint32_t
  87:../libs/PoliTeKDSP/libs/libDaisy/src/sys/system.h ****         {
  88:../libs/PoliTeKDSP/libs/libDaisy/src/sys/system.h ****             LT_v6_0 = 0, // Less than v6.0
  89:../libs/PoliTeKDSP/libs/libDaisy/src/sys/system.h ****             NONE,        // No bootloader present
  90:../libs/PoliTeKDSP/libs/libDaisy/src/sys/system.h ****             v6_0,        // v6.0
  91:../libs/PoliTeKDSP/libs/libDaisy/src/sys/system.h ****             v6_1,        // v6.1 or greater
  92:../libs/PoliTeKDSP/libs/libDaisy/src/sys/system.h ****             LAST
  93:../libs/PoliTeKDSP/libs/libDaisy/src/sys/system.h ****         } version;
  94:../libs/PoliTeKDSP/libs/libDaisy/src/sys/system.h ****     };
  95:../libs/PoliTeKDSP/libs/libDaisy/src/sys/system.h **** 
  96:../libs/PoliTeKDSP/libs/libDaisy/src/sys/system.h ****     System() {}
  97:../libs/PoliTeKDSP/libs/libDaisy/src/sys/system.h ****     ~System() {}
  75              		.loc 5 97 5 is_stmt 1 view .LVU7
  76              		.loc 5 97 5 is_stmt 0 view .LVU8
  77              	.LBE568:
  78              	.LBB569:
  79              	.LBI569:
  80              		.file 6 "../libs/libDaisy/src/hid/usb.h"
   1:../libs/libDaisy/src/hid/usb.h **** #pragma once
   2:../libs/libDaisy/src/hid/usb.h **** #ifndef DSY_HID_USB_H
   3:../libs/libDaisy/src/hid/usb.h **** #define DSY_HID_USB_H
   4:../libs/libDaisy/src/hid/usb.h **** #include <stdint.h>
   5:../libs/libDaisy/src/hid/usb.h **** #include <stdlib.h>
   6:../libs/libDaisy/src/hid/usb.h **** 
   7:../libs/libDaisy/src/hid/usb.h **** namespace daisy
   8:../libs/libDaisy/src/hid/usb.h **** /** @addtogroup human_interface
   9:../libs/libDaisy/src/hid/usb.h ****     @{
  10:../libs/libDaisy/src/hid/usb.h **** */
  11:../libs/libDaisy/src/hid/usb.h **** 
  12:../libs/libDaisy/src/hid/usb.h **** {
  13:../libs/libDaisy/src/hid/usb.h **** /** 
ARM GAS  C:\Users\matte\AppData\Local\Temp\ccj2OJiD.s 			page 6


  14:../libs/libDaisy/src/hid/usb.h ****     @brief Interface for initializing and using the USB Peripherals on the daisy
  15:../libs/libDaisy/src/hid/usb.h ****     @author Stephen Hensley
  16:../libs/libDaisy/src/hid/usb.h ****     @date December 2019
  17:../libs/libDaisy/src/hid/usb.h **** */
  18:../libs/libDaisy/src/hid/usb.h **** class UsbHandle
  19:../libs/libDaisy/src/hid/usb.h **** {
  20:../libs/libDaisy/src/hid/usb.h ****   public:
  21:../libs/libDaisy/src/hid/usb.h ****     /** Return values for USBHandle Functions */
  22:../libs/libDaisy/src/hid/usb.h ****     enum class Result
  23:../libs/libDaisy/src/hid/usb.h ****     {
  24:../libs/libDaisy/src/hid/usb.h ****         OK,
  25:../libs/libDaisy/src/hid/usb.h ****         ERR,
  26:../libs/libDaisy/src/hid/usb.h ****     };
  27:../libs/libDaisy/src/hid/usb.h **** 
  28:../libs/libDaisy/src/hid/usb.h ****     /** Specified which of the two USB Peripherals to initialize. */
  29:../libs/libDaisy/src/hid/usb.h ****     enum UsbPeriph
  30:../libs/libDaisy/src/hid/usb.h ****     {
  31:../libs/libDaisy/src/hid/usb.h ****         FS_INTERNAL, /**< Internal pin */
  32:../libs/libDaisy/src/hid/usb.h ****         FS_EXTERNAL, /**< FS External D+ pin is Pin 38 (GPIO32). FS External D- pin is Pin 37 (GPIO
  33:../libs/libDaisy/src/hid/usb.h ****         FS_BOTH,     /**< Both */
  34:../libs/libDaisy/src/hid/usb.h ****     };
  35:../libs/libDaisy/src/hid/usb.h **** 
  36:../libs/libDaisy/src/hid/usb.h **** 
  37:../libs/libDaisy/src/hid/usb.h ****     /** Function called upon reception of a buffer */
  38:../libs/libDaisy/src/hid/usb.h ****     typedef void (*ReceiveCallback)(uint8_t* buff, uint32_t* len);
  39:../libs/libDaisy/src/hid/usb.h **** 
  40:../libs/libDaisy/src/hid/usb.h ****     UsbHandle() {}
  41:../libs/libDaisy/src/hid/usb.h **** 
  42:../libs/libDaisy/src/hid/usb.h ****     ~UsbHandle() {}
  81              		.loc 6 42 5 is_stmt 1 view .LVU9
  82              		.loc 6 42 5 is_stmt 0 view .LVU10
  83              	.LBE569:
  84              	.LBB570:
  85              	.LBI570:
  86              		.file 7 "../libs/PoliTeKDSP/libs/libDaisy/src/per/adc.h"
   1:../libs/PoliTeKDSP/libs/libDaisy/src/per/adc.h **** #pragma once
   2:../libs/PoliTeKDSP/libs/libDaisy/src/per/adc.h **** #ifndef DSY_ADC_H
   3:../libs/PoliTeKDSP/libs/libDaisy/src/per/adc.h **** #define DSY_ADC_H /**< Macro */
   4:../libs/PoliTeKDSP/libs/libDaisy/src/per/adc.h **** #include <stdint.h>
   5:../libs/PoliTeKDSP/libs/libDaisy/src/per/adc.h **** #include <stdlib.h>
   6:../libs/PoliTeKDSP/libs/libDaisy/src/per/adc.h **** #include "daisy_core.h"
   7:../libs/PoliTeKDSP/libs/libDaisy/src/per/adc.h **** #include "per/gpio.h"
   8:../libs/PoliTeKDSP/libs/libDaisy/src/per/adc.h **** 
   9:../libs/PoliTeKDSP/libs/libDaisy/src/per/adc.h **** #define DSY_ADC_MAX_CHANNELS 16 /**< Maximum number of ADC channels */
  10:../libs/PoliTeKDSP/libs/libDaisy/src/per/adc.h **** 
  11:../libs/PoliTeKDSP/libs/libDaisy/src/per/adc.h **** namespace daisy
  12:../libs/PoliTeKDSP/libs/libDaisy/src/per/adc.h **** {
  13:../libs/PoliTeKDSP/libs/libDaisy/src/per/adc.h **** /** @addtogroup per_analog
  14:../libs/PoliTeKDSP/libs/libDaisy/src/per/adc.h ****     @{
  15:../libs/PoliTeKDSP/libs/libDaisy/src/per/adc.h **** */
  16:../libs/PoliTeKDSP/libs/libDaisy/src/per/adc.h **** 
  17:../libs/PoliTeKDSP/libs/libDaisy/src/per/adc.h **** /* While there may not be many configuration options here,
  18:../libs/PoliTeKDSP/libs/libDaisy/src/per/adc.h **** using a struct like this allows us to add more configuration
  19:../libs/PoliTeKDSP/libs/libDaisy/src/per/adc.h **** later without breaking existing functionality.
  20:../libs/PoliTeKDSP/libs/libDaisy/src/per/adc.h **** */
  21:../libs/PoliTeKDSP/libs/libDaisy/src/per/adc.h **** 
  22:../libs/PoliTeKDSP/libs/libDaisy/src/per/adc.h **** /** @brief   Configuration Structure for an ADC Channel 
ARM GAS  C:\Users\matte\AppData\Local\Temp\ccj2OJiD.s 			page 7


  23:../libs/PoliTeKDSP/libs/libDaisy/src/per/adc.h ****  *  @details This can be used to configure a a single input, 
  24:../libs/PoliTeKDSP/libs/libDaisy/src/per/adc.h ****  *           or a multiplexed input, allowing up to 8 inputs on 
  25:../libs/PoliTeKDSP/libs/libDaisy/src/per/adc.h ****  *           one channel.
  26:../libs/PoliTeKDSP/libs/libDaisy/src/per/adc.h ****  *  @note    Sharing data lines to multiple muxes _is_ possible, but
  27:../libs/PoliTeKDSP/libs/libDaisy/src/per/adc.h ****  *           each channel sharing data lines must be set to the maximum
  28:../libs/PoliTeKDSP/libs/libDaisy/src/per/adc.h ****  *           number of channels, even if some multiplexers have fewer
  29:../libs/PoliTeKDSP/libs/libDaisy/src/per/adc.h ****  *           inputs connected.
  30:../libs/PoliTeKDSP/libs/libDaisy/src/per/adc.h **** */
  31:../libs/PoliTeKDSP/libs/libDaisy/src/per/adc.h **** struct AdcChannelConfig
  32:../libs/PoliTeKDSP/libs/libDaisy/src/per/adc.h **** {
  33:../libs/PoliTeKDSP/libs/libDaisy/src/per/adc.h ****     /** Which pin to use for multiplexing */
  34:../libs/PoliTeKDSP/libs/libDaisy/src/per/adc.h ****     enum MuxPin
  35:../libs/PoliTeKDSP/libs/libDaisy/src/per/adc.h ****     {
  36:../libs/PoliTeKDSP/libs/libDaisy/src/per/adc.h ****         MUX_SEL_0,    /**< & */
  37:../libs/PoliTeKDSP/libs/libDaisy/src/per/adc.h ****         MUX_SEL_1,    /**< & */
  38:../libs/PoliTeKDSP/libs/libDaisy/src/per/adc.h ****         MUX_SEL_2,    /**< & */
  39:../libs/PoliTeKDSP/libs/libDaisy/src/per/adc.h ****         MUX_SEL_LAST, /**< & */
  40:../libs/PoliTeKDSP/libs/libDaisy/src/per/adc.h ****     };
  41:../libs/PoliTeKDSP/libs/libDaisy/src/per/adc.h **** 
  42:../libs/PoliTeKDSP/libs/libDaisy/src/per/adc.h ****     /** \brief per channel conversion speed added to fixed time based on bitdepth, etc. */
  43:../libs/PoliTeKDSP/libs/libDaisy/src/per/adc.h ****     enum ConversionSpeed
  44:../libs/PoliTeKDSP/libs/libDaisy/src/per/adc.h ****     {
  45:../libs/PoliTeKDSP/libs/libDaisy/src/per/adc.h ****         SPEED_1CYCLES_5,
  46:../libs/PoliTeKDSP/libs/libDaisy/src/per/adc.h ****         SPEED_2CYCLES_5,
  47:../libs/PoliTeKDSP/libs/libDaisy/src/per/adc.h ****         SPEED_8CYCLES_5,
  48:../libs/PoliTeKDSP/libs/libDaisy/src/per/adc.h ****         SPEED_16CYCLES_5,
  49:../libs/PoliTeKDSP/libs/libDaisy/src/per/adc.h ****         SPEED_32CYCLES_5,
  50:../libs/PoliTeKDSP/libs/libDaisy/src/per/adc.h ****         SPEED_64CYCLES_5,
  51:../libs/PoliTeKDSP/libs/libDaisy/src/per/adc.h ****         SPEED_387CYCLES_5,
  52:../libs/PoliTeKDSP/libs/libDaisy/src/per/adc.h ****         SPEED_810CYCLES_5,
  53:../libs/PoliTeKDSP/libs/libDaisy/src/per/adc.h ****     };
  54:../libs/PoliTeKDSP/libs/libDaisy/src/per/adc.h **** 
  55:../libs/PoliTeKDSP/libs/libDaisy/src/per/adc.h ****     /** Initializes a single ADC pin as an ADC. 
  56:../libs/PoliTeKDSP/libs/libDaisy/src/per/adc.h ****     \param pin Pin to init.
  57:../libs/PoliTeKDSP/libs/libDaisy/src/per/adc.h ****     \param speed conversion speed for this pin defaults to 8.5 cycles
  58:../libs/PoliTeKDSP/libs/libDaisy/src/per/adc.h ****      */
  59:../libs/PoliTeKDSP/libs/libDaisy/src/per/adc.h ****     void InitSingle(Pin pin, ConversionSpeed speed = SPEED_8CYCLES_5);
  60:../libs/PoliTeKDSP/libs/libDaisy/src/per/adc.h **** 
  61:../libs/PoliTeKDSP/libs/libDaisy/src/per/adc.h ****     /** 
  62:../libs/PoliTeKDSP/libs/libDaisy/src/per/adc.h ****     Initializes a single ADC pin as a Multiplexed ADC.
  63:../libs/PoliTeKDSP/libs/libDaisy/src/per/adc.h ****     Requires a CD405X Multiplexer connected to the pin.
  64:../libs/PoliTeKDSP/libs/libDaisy/src/per/adc.h ****     You only need to supply the mux pins that are required,
  65:../libs/PoliTeKDSP/libs/libDaisy/src/per/adc.h ****     e.g. a 4052 mux would only require mux_0 and mux_1.
  66:../libs/PoliTeKDSP/libs/libDaisy/src/per/adc.h ****     Internal Callbacks handle the pin addressing.
  67:../libs/PoliTeKDSP/libs/libDaisy/src/per/adc.h ****     \param adc_pin &
  68:../libs/PoliTeKDSP/libs/libDaisy/src/per/adc.h ****     \param mux_channels must be 1-8
  69:../libs/PoliTeKDSP/libs/libDaisy/src/per/adc.h ****     \param mux_0 First mux pin
  70:../libs/PoliTeKDSP/libs/libDaisy/src/per/adc.h ****     \param mux_1 Second mux pin
  71:../libs/PoliTeKDSP/libs/libDaisy/src/per/adc.h ****     \param mux_2 Third mux pin
  72:../libs/PoliTeKDSP/libs/libDaisy/src/per/adc.h ****     \param speed conversion speed for this pin defaults to 8.5 cycles
  73:../libs/PoliTeKDSP/libs/libDaisy/src/per/adc.h ****     */
  74:../libs/PoliTeKDSP/libs/libDaisy/src/per/adc.h ****     void InitMux(Pin             adc_pin,
  75:../libs/PoliTeKDSP/libs/libDaisy/src/per/adc.h ****                  size_t          mux_channels,
  76:../libs/PoliTeKDSP/libs/libDaisy/src/per/adc.h ****                  Pin             mux_0,
  77:../libs/PoliTeKDSP/libs/libDaisy/src/per/adc.h ****                  Pin             mux_1 = Pin(PORTX, 0),
  78:../libs/PoliTeKDSP/libs/libDaisy/src/per/adc.h ****                  Pin             mux_2 = Pin(PORTX, 0),
  79:../libs/PoliTeKDSP/libs/libDaisy/src/per/adc.h ****                  ConversionSpeed speed = SPEED_8CYCLES_5);
ARM GAS  C:\Users\matte\AppData\Local\Temp\ccj2OJiD.s 			page 8


  80:../libs/PoliTeKDSP/libs/libDaisy/src/per/adc.h **** 
  81:../libs/PoliTeKDSP/libs/libDaisy/src/per/adc.h ****     GPIO            pin_;                   /**< & */
  82:../libs/PoliTeKDSP/libs/libDaisy/src/per/adc.h ****     GPIO            mux_pin_[MUX_SEL_LAST]; /**< & */
  83:../libs/PoliTeKDSP/libs/libDaisy/src/per/adc.h ****     uint8_t         mux_channels_;          /**< & */
  84:../libs/PoliTeKDSP/libs/libDaisy/src/per/adc.h ****     ConversionSpeed speed_;
  85:../libs/PoliTeKDSP/libs/libDaisy/src/per/adc.h **** };
  86:../libs/PoliTeKDSP/libs/libDaisy/src/per/adc.h **** 
  87:../libs/PoliTeKDSP/libs/libDaisy/src/per/adc.h **** /**
  88:../libs/PoliTeKDSP/libs/libDaisy/src/per/adc.h ****    @brief Handler for analog to digital conversion
  89:../libs/PoliTeKDSP/libs/libDaisy/src/per/adc.h **** */
  90:../libs/PoliTeKDSP/libs/libDaisy/src/per/adc.h **** class AdcHandle
  91:../libs/PoliTeKDSP/libs/libDaisy/src/per/adc.h **** {
  92:../libs/PoliTeKDSP/libs/libDaisy/src/per/adc.h ****   public:
  93:../libs/PoliTeKDSP/libs/libDaisy/src/per/adc.h ****     /** Supported oversampling amounts */
  94:../libs/PoliTeKDSP/libs/libDaisy/src/per/adc.h ****     enum OverSampling
  95:../libs/PoliTeKDSP/libs/libDaisy/src/per/adc.h ****     {
  96:../libs/PoliTeKDSP/libs/libDaisy/src/per/adc.h ****         OVS_NONE, /**< & */
  97:../libs/PoliTeKDSP/libs/libDaisy/src/per/adc.h ****         OVS_4,    /**< & */
  98:../libs/PoliTeKDSP/libs/libDaisy/src/per/adc.h ****         OVS_8,    /**< & */
  99:../libs/PoliTeKDSP/libs/libDaisy/src/per/adc.h ****         OVS_16,   /**< & */
 100:../libs/PoliTeKDSP/libs/libDaisy/src/per/adc.h ****         OVS_32,   /**< & */
 101:../libs/PoliTeKDSP/libs/libDaisy/src/per/adc.h ****         OVS_64,   /**< & */
 102:../libs/PoliTeKDSP/libs/libDaisy/src/per/adc.h ****         OVS_128,  /**< & */
 103:../libs/PoliTeKDSP/libs/libDaisy/src/per/adc.h ****         OVS_256,  /**< & */
 104:../libs/PoliTeKDSP/libs/libDaisy/src/per/adc.h ****         OVS_512,  /**< & */
 105:../libs/PoliTeKDSP/libs/libDaisy/src/per/adc.h ****         OVS_1024, /**< & */
 106:../libs/PoliTeKDSP/libs/libDaisy/src/per/adc.h ****         OVS_LAST, /**< & */
 107:../libs/PoliTeKDSP/libs/libDaisy/src/per/adc.h ****     };
 108:../libs/PoliTeKDSP/libs/libDaisy/src/per/adc.h **** 
 109:../libs/PoliTeKDSP/libs/libDaisy/src/per/adc.h ****     AdcHandle() {}
 110:../libs/PoliTeKDSP/libs/libDaisy/src/per/adc.h ****     ~AdcHandle() {}
  87              		.loc 7 110 5 is_stmt 1 view .LVU11
  88              		.loc 7 110 5 is_stmt 0 view .LVU12
  89              	.LBE570:
  90              	.LBB571:
  91              	.LBI571:
  92              		.file 8 "../libs/PoliTeKDSP/libs/libDaisy/src/hid/audio.h"
   1:../libs/PoliTeKDSP/libs/libDaisy/src/hid/audio.h **** #ifndef DSY_AUDIO_H
   2:../libs/PoliTeKDSP/libs/libDaisy/src/hid/audio.h **** #define DSY_AUDIO_H /**< & */
   3:../libs/PoliTeKDSP/libs/libDaisy/src/hid/audio.h **** 
   4:../libs/PoliTeKDSP/libs/libDaisy/src/hid/audio.h **** #include "per/sai.h"
   5:../libs/PoliTeKDSP/libs/libDaisy/src/hid/audio.h **** 
   6:../libs/PoliTeKDSP/libs/libDaisy/src/hid/audio.h **** namespace daisy
   7:../libs/PoliTeKDSP/libs/libDaisy/src/hid/audio.h **** {
   8:../libs/PoliTeKDSP/libs/libDaisy/src/hid/audio.h **** /** @brief Audio Engine Handle
   9:../libs/PoliTeKDSP/libs/libDaisy/src/hid/audio.h ****  *  @ingroup audio 
  10:../libs/PoliTeKDSP/libs/libDaisy/src/hid/audio.h ****  *  @details This class allows for higher level access to an audio engine.
  11:../libs/PoliTeKDSP/libs/libDaisy/src/hid/audio.h ****  *           If you're using a SOM like the DaisySeed or DaisyPatchSM (or any 
  12:../libs/PoliTeKDSP/libs/libDaisy/src/hid/audio.h ****  *            board that includes one of those objects) then the intialization
  13:../libs/PoliTeKDSP/libs/libDaisy/src/hid/audio.h ****  *            is already taken  care of.
  14:../libs/PoliTeKDSP/libs/libDaisy/src/hid/audio.h ****  *           If you're setting up your own custom hardware, or need to make changes
  15:../libs/PoliTeKDSP/libs/libDaisy/src/hid/audio.h ****  *           you will have to take the following steps:
  16:../libs/PoliTeKDSP/libs/libDaisy/src/hid/audio.h ****  *             1. Create and Initialize an SaiHandle or two depending on your requirements
  17:../libs/PoliTeKDSP/libs/libDaisy/src/hid/audio.h ****  *             2. Initialize the Audio Handle with the desired settings and the Initialized SaiHand
  18:../libs/PoliTeKDSP/libs/libDaisy/src/hid/audio.h ****  *             3. If the connected codec requires special configuration or initialization, do so
  19:../libs/PoliTeKDSP/libs/libDaisy/src/hid/audio.h ****  *             4. Write a callback method using either the AudioCallback or the InterleavingAudioCa
  20:../libs/PoliTeKDSP/libs/libDaisy/src/hid/audio.h ****  *             5. Start the Audio using one of the StartAudio function
ARM GAS  C:\Users\matte\AppData\Local\Temp\ccj2OJiD.s 			page 9


  21:../libs/PoliTeKDSP/libs/libDaisy/src/hid/audio.h ****  */
  22:../libs/PoliTeKDSP/libs/libDaisy/src/hid/audio.h **** class AudioHandle
  23:../libs/PoliTeKDSP/libs/libDaisy/src/hid/audio.h **** {
  24:../libs/PoliTeKDSP/libs/libDaisy/src/hid/audio.h ****   public:
  25:../libs/PoliTeKDSP/libs/libDaisy/src/hid/audio.h ****     /** Manually configurable details about the Audio Engine */
  26:../libs/PoliTeKDSP/libs/libDaisy/src/hid/audio.h ****     /** TODO: Figure out how to get samplerate in here. */
  27:../libs/PoliTeKDSP/libs/libDaisy/src/hid/audio.h ****     struct Config
  28:../libs/PoliTeKDSP/libs/libDaisy/src/hid/audio.h ****     {
  29:../libs/PoliTeKDSP/libs/libDaisy/src/hid/audio.h ****         /** number of samples to process per callback */
  30:../libs/PoliTeKDSP/libs/libDaisy/src/hid/audio.h ****         size_t blocksize = 48;
  31:../libs/PoliTeKDSP/libs/libDaisy/src/hid/audio.h **** 
  32:../libs/PoliTeKDSP/libs/libDaisy/src/hid/audio.h ****         /**< Sample rate of audio */
  33:../libs/PoliTeKDSP/libs/libDaisy/src/hid/audio.h ****         SaiHandle::Config::SampleRate samplerate
  34:../libs/PoliTeKDSP/libs/libDaisy/src/hid/audio.h ****             = SaiHandle::Config::SampleRate::SAI_48KHZ;
  35:../libs/PoliTeKDSP/libs/libDaisy/src/hid/audio.h **** 
  36:../libs/PoliTeKDSP/libs/libDaisy/src/hid/audio.h ****         /** factor for adjustment before and after callback for hardware that may have extra headro
  37:../libs/PoliTeKDSP/libs/libDaisy/src/hid/audio.h ****         float postgain = 1.f;
  38:../libs/PoliTeKDSP/libs/libDaisy/src/hid/audio.h **** 
  39:../libs/PoliTeKDSP/libs/libDaisy/src/hid/audio.h ****         /** factor for additional one-sided compensation to audio path for hardware that may
  40:../libs/PoliTeKDSP/libs/libDaisy/src/hid/audio.h ****          *  have unequal input/output ranges
  41:../libs/PoliTeKDSP/libs/libDaisy/src/hid/audio.h ****          */
  42:../libs/PoliTeKDSP/libs/libDaisy/src/hid/audio.h ****         float output_compensation = 1.f;
  43:../libs/PoliTeKDSP/libs/libDaisy/src/hid/audio.h ****     };
  44:../libs/PoliTeKDSP/libs/libDaisy/src/hid/audio.h **** 
  45:../libs/PoliTeKDSP/libs/libDaisy/src/hid/audio.h ****     enum class Result
  46:../libs/PoliTeKDSP/libs/libDaisy/src/hid/audio.h ****     {
  47:../libs/PoliTeKDSP/libs/libDaisy/src/hid/audio.h ****         OK,
  48:../libs/PoliTeKDSP/libs/libDaisy/src/hid/audio.h ****         ERR,
  49:../libs/PoliTeKDSP/libs/libDaisy/src/hid/audio.h ****     };
  50:../libs/PoliTeKDSP/libs/libDaisy/src/hid/audio.h **** 
  51:../libs/PoliTeKDSP/libs/libDaisy/src/hid/audio.h ****     /** Non-Interleaving input buffer
  52:../libs/PoliTeKDSP/libs/libDaisy/src/hid/audio.h ****      * Buffer arranged by float[chn][sample] 
  53:../libs/PoliTeKDSP/libs/libDaisy/src/hid/audio.h ****      * const so that the user can't modify the input
  54:../libs/PoliTeKDSP/libs/libDaisy/src/hid/audio.h ****      */
  55:../libs/PoliTeKDSP/libs/libDaisy/src/hid/audio.h ****     typedef const float* const* InputBuffer;
  56:../libs/PoliTeKDSP/libs/libDaisy/src/hid/audio.h **** 
  57:../libs/PoliTeKDSP/libs/libDaisy/src/hid/audio.h ****     /** Non-Interleaving output buffer
  58:../libs/PoliTeKDSP/libs/libDaisy/src/hid/audio.h ****      * Arranged by float[chn][sample] 
  59:../libs/PoliTeKDSP/libs/libDaisy/src/hid/audio.h ****      */
  60:../libs/PoliTeKDSP/libs/libDaisy/src/hid/audio.h ****     typedef float** OutputBuffer;
  61:../libs/PoliTeKDSP/libs/libDaisy/src/hid/audio.h **** 
  62:../libs/PoliTeKDSP/libs/libDaisy/src/hid/audio.h ****     /** Type for a Non-Interleaving audio callback 
  63:../libs/PoliTeKDSP/libs/libDaisy/src/hid/audio.h ****      * Non-Interleaving audio callbacks in daisy will be of this type
  64:../libs/PoliTeKDSP/libs/libDaisy/src/hid/audio.h ****      */
  65:../libs/PoliTeKDSP/libs/libDaisy/src/hid/audio.h ****     typedef void (*AudioCallback)(InputBuffer  in,
  66:../libs/PoliTeKDSP/libs/libDaisy/src/hid/audio.h ****                                   OutputBuffer out,
  67:../libs/PoliTeKDSP/libs/libDaisy/src/hid/audio.h ****                                   size_t       size);
  68:../libs/PoliTeKDSP/libs/libDaisy/src/hid/audio.h **** 
  69:../libs/PoliTeKDSP/libs/libDaisy/src/hid/audio.h ****     /** Interleaving Input buffer
  70:../libs/PoliTeKDSP/libs/libDaisy/src/hid/audio.h ****      ** audio is prepared as { L0, R0, L1, R1, . . . LN, RN }]
  71:../libs/PoliTeKDSP/libs/libDaisy/src/hid/audio.h ****      ** this is const, as the user shouldn't modify it
  72:../libs/PoliTeKDSP/libs/libDaisy/src/hid/audio.h ****     */
  73:../libs/PoliTeKDSP/libs/libDaisy/src/hid/audio.h ****     typedef const float* InterleavingInputBuffer;
  74:../libs/PoliTeKDSP/libs/libDaisy/src/hid/audio.h **** 
  75:../libs/PoliTeKDSP/libs/libDaisy/src/hid/audio.h ****     /** Interleaving Output buffer 
  76:../libs/PoliTeKDSP/libs/libDaisy/src/hid/audio.h ****      ** audio is prepared as { L0, R0, L1, R1, . . . LN, RN }
  77:../libs/PoliTeKDSP/libs/libDaisy/src/hid/audio.h ****     */
ARM GAS  C:\Users\matte\AppData\Local\Temp\ccj2OJiD.s 			page 10


  78:../libs/PoliTeKDSP/libs/libDaisy/src/hid/audio.h ****     typedef float* InterleavingOutputBuffer;
  79:../libs/PoliTeKDSP/libs/libDaisy/src/hid/audio.h **** 
  80:../libs/PoliTeKDSP/libs/libDaisy/src/hid/audio.h ****     /** Interleaving Audio Callback 
  81:../libs/PoliTeKDSP/libs/libDaisy/src/hid/audio.h ****      * Interleaving audio callbacks in daisy must be of this type
  82:../libs/PoliTeKDSP/libs/libDaisy/src/hid/audio.h ****      */
  83:../libs/PoliTeKDSP/libs/libDaisy/src/hid/audio.h ****     typedef void (*InterleavingAudioCallback)(InterleavingInputBuffer  in,
  84:../libs/PoliTeKDSP/libs/libDaisy/src/hid/audio.h ****                                               InterleavingOutputBuffer out,
  85:../libs/PoliTeKDSP/libs/libDaisy/src/hid/audio.h ****                                               size_t                   size);
  86:../libs/PoliTeKDSP/libs/libDaisy/src/hid/audio.h **** 
  87:../libs/PoliTeKDSP/libs/libDaisy/src/hid/audio.h ****     AudioHandle() : pimpl_(nullptr) {}
  88:../libs/PoliTeKDSP/libs/libDaisy/src/hid/audio.h ****     ~AudioHandle() {}
  93              		.loc 8 88 5 is_stmt 1 view .LVU13
  94              		.loc 8 88 5 is_stmt 0 view .LVU14
  95              	.LBE571:
  96              		.loc 3 22 19 view .LVU15
  97 0000 7047     		bx	lr
  98              		.cfi_endproc
  99              	.LFE2645:
 101              		.weak	_ZN5daisy9DaisySeedD1Ev
 102              		.thumb_set _ZN5daisy9DaisySeedD1Ev,_ZN5daisy9DaisySeedD2Ev
 103 0002 00BF     		.section	.text._ZN5daisy11OledDisplayINS_13SSD130xDriverILj128ELj64ENS_19SSD130xI2CTransportEEEED2
 104              		.align	1
 105              		.p2align 2,,3
 106              		.weak	_ZN5daisy11OledDisplayINS_13SSD130xDriverILj128ELj64ENS_19SSD130xI2CTransportEEEED2Ev
 107              		.syntax unified
 108              		.thumb
 109              		.thumb_func
 110              		.fpu fpv5-d16
 112              	_ZN5daisy11OledDisplayINS_13SSD130xDriverILj128ELj64ENS_19SSD130xI2CTransportEEEED2Ev:
 113              	.LVL2:
 114              	.LFB5614:
 115              		.file 9 "../libs/PoliTeKDSP/libs/libDaisy/src/hid/disp/oled_display.h"
   1:../libs/PoliTeKDSP/libs/libDaisy/src/hid/disp/oled_display.h **** #pragma once
   2:../libs/PoliTeKDSP/libs/libDaisy/src/hid/disp/oled_display.h **** #ifndef DSY_OLED_DISPLAY_H
   3:../libs/PoliTeKDSP/libs/libDaisy/src/hid/disp/oled_display.h **** #define DSY_OLED_DISPLAY_H /**< Macro */
   4:../libs/PoliTeKDSP/libs/libDaisy/src/hid/disp/oled_display.h **** 
   5:../libs/PoliTeKDSP/libs/libDaisy/src/hid/disp/oled_display.h **** #include "display.h"
   6:../libs/PoliTeKDSP/libs/libDaisy/src/hid/disp/oled_display.h **** 
   7:../libs/PoliTeKDSP/libs/libDaisy/src/hid/disp/oled_display.h **** namespace daisy
   8:../libs/PoliTeKDSP/libs/libDaisy/src/hid/disp/oled_display.h **** {
   9:../libs/PoliTeKDSP/libs/libDaisy/src/hid/disp/oled_display.h **** /** 
  10:../libs/PoliTeKDSP/libs/libDaisy/src/hid/disp/oled_display.h ****  * This class is for drawing to a monochrome OLED display. 
  11:../libs/PoliTeKDSP/libs/libDaisy/src/hid/disp/oled_display.h ****  * @ingroup device
  12:../libs/PoliTeKDSP/libs/libDaisy/src/hid/disp/oled_display.h **** */
  13:../libs/PoliTeKDSP/libs/libDaisy/src/hid/disp/oled_display.h **** template <typename DisplayDriver>
  14:../libs/PoliTeKDSP/libs/libDaisy/src/hid/disp/oled_display.h **** class OledDisplay : public OneBitGraphicsDisplayImpl<OledDisplay<DisplayDriver>>
  15:../libs/PoliTeKDSP/libs/libDaisy/src/hid/disp/oled_display.h **** {
  16:../libs/PoliTeKDSP/libs/libDaisy/src/hid/disp/oled_display.h ****   public:
  17:../libs/PoliTeKDSP/libs/libDaisy/src/hid/disp/oled_display.h ****     OledDisplay() {}
  18:../libs/PoliTeKDSP/libs/libDaisy/src/hid/disp/oled_display.h ****     virtual ~OledDisplay() {}
 116              		.loc 9 18 13 is_stmt 1 view -0
 117              		.cfi_startproc
 118              		@ args = 0, pretend = 0, frame = 0
 119              		@ frame_needed = 0, uses_anonymous_args = 0
 120              		@ link register save eliminated.
 121              	.LBB572:
 122              	.LBI572:
ARM GAS  C:\Users\matte\AppData\Local\Temp\ccj2OJiD.s 			page 11


 123              		.file 10 "../libs/PoliTeKDSP/libs/libDaisy/src/hid/disp/display.h"
   1:../libs/PoliTeKDSP/libs/libDaisy/src/hid/disp/display.h **** #pragma once
   2:../libs/PoliTeKDSP/libs/libDaisy/src/hid/disp/display.h **** #ifndef DSY_DISPLAY_H
   3:../libs/PoliTeKDSP/libs/libDaisy/src/hid/disp/display.h **** #define DSY_DISPLAY_H /**< Macro */
   4:../libs/PoliTeKDSP/libs/libDaisy/src/hid/disp/display.h **** #include <cmath>
   5:../libs/PoliTeKDSP/libs/libDaisy/src/hid/disp/display.h **** #include "util/oled_fonts.h"
   6:../libs/PoliTeKDSP/libs/libDaisy/src/hid/disp/display.h **** #include "daisy_core.h"
   7:../libs/PoliTeKDSP/libs/libDaisy/src/hid/disp/display.h **** #include "graphics_common.h"
   8:../libs/PoliTeKDSP/libs/libDaisy/src/hid/disp/display.h **** 
   9:../libs/PoliTeKDSP/libs/libDaisy/src/hid/disp/display.h **** #ifndef deg2rad
  10:../libs/PoliTeKDSP/libs/libDaisy/src/hid/disp/display.h **** #define deg2rad(deg) ((deg)*3.141592 / 180.0)
  11:../libs/PoliTeKDSP/libs/libDaisy/src/hid/disp/display.h **** #endif
  12:../libs/PoliTeKDSP/libs/libDaisy/src/hid/disp/display.h **** 
  13:../libs/PoliTeKDSP/libs/libDaisy/src/hid/disp/display.h **** namespace daisy
  14:../libs/PoliTeKDSP/libs/libDaisy/src/hid/disp/display.h **** {
  15:../libs/PoliTeKDSP/libs/libDaisy/src/hid/disp/display.h **** /** 
  16:../libs/PoliTeKDSP/libs/libDaisy/src/hid/disp/display.h ****  * This interface is used as a base class for all types of 1bit-per-pixel
  17:../libs/PoliTeKDSP/libs/libDaisy/src/hid/disp/display.h ****  * graphics displays.
  18:../libs/PoliTeKDSP/libs/libDaisy/src/hid/disp/display.h **** */
  19:../libs/PoliTeKDSP/libs/libDaisy/src/hid/disp/display.h **** class OneBitGraphicsDisplay
  20:../libs/PoliTeKDSP/libs/libDaisy/src/hid/disp/display.h **** {
  21:../libs/PoliTeKDSP/libs/libDaisy/src/hid/disp/display.h ****   public:
  22:../libs/PoliTeKDSP/libs/libDaisy/src/hid/disp/display.h ****     OneBitGraphicsDisplay() {}
  23:../libs/PoliTeKDSP/libs/libDaisy/src/hid/disp/display.h ****     virtual ~OneBitGraphicsDisplay() {}
  24:../libs/PoliTeKDSP/libs/libDaisy/src/hid/disp/display.h **** 
  25:../libs/PoliTeKDSP/libs/libDaisy/src/hid/disp/display.h ****     virtual uint16_t Height() const = 0;
  26:../libs/PoliTeKDSP/libs/libDaisy/src/hid/disp/display.h ****     virtual uint16_t Width() const  = 0;
  27:../libs/PoliTeKDSP/libs/libDaisy/src/hid/disp/display.h **** 
  28:../libs/PoliTeKDSP/libs/libDaisy/src/hid/disp/display.h ****     Rectangle GetBounds() const
  29:../libs/PoliTeKDSP/libs/libDaisy/src/hid/disp/display.h ****     {
  30:../libs/PoliTeKDSP/libs/libDaisy/src/hid/disp/display.h ****         return Rectangle(int16_t(Width()), int16_t(Height()));
  31:../libs/PoliTeKDSP/libs/libDaisy/src/hid/disp/display.h ****     }
  32:../libs/PoliTeKDSP/libs/libDaisy/src/hid/disp/display.h **** 
  33:../libs/PoliTeKDSP/libs/libDaisy/src/hid/disp/display.h **** 
  34:../libs/PoliTeKDSP/libs/libDaisy/src/hid/disp/display.h ****     size_t CurrentX() { return currentX_; };
  35:../libs/PoliTeKDSP/libs/libDaisy/src/hid/disp/display.h ****     size_t CurrentY() { return currentY_; };
  36:../libs/PoliTeKDSP/libs/libDaisy/src/hid/disp/display.h **** 
  37:../libs/PoliTeKDSP/libs/libDaisy/src/hid/disp/display.h ****     /** 
  38:../libs/PoliTeKDSP/libs/libDaisy/src/hid/disp/display.h ****     Fills the entire display with either on/off.
  39:../libs/PoliTeKDSP/libs/libDaisy/src/hid/disp/display.h ****     \param on Sets on or off.
  40:../libs/PoliTeKDSP/libs/libDaisy/src/hid/disp/display.h ****     */
  41:../libs/PoliTeKDSP/libs/libDaisy/src/hid/disp/display.h ****     virtual void Fill(bool on) = 0;
  42:../libs/PoliTeKDSP/libs/libDaisy/src/hid/disp/display.h **** 
  43:../libs/PoliTeKDSP/libs/libDaisy/src/hid/disp/display.h ****     /**
  44:../libs/PoliTeKDSP/libs/libDaisy/src/hid/disp/display.h ****     Sets the pixel at the specified coordinate to be on/off.
  45:../libs/PoliTeKDSP/libs/libDaisy/src/hid/disp/display.h ****     \param x   x Coordinate
  46:../libs/PoliTeKDSP/libs/libDaisy/src/hid/disp/display.h ****     \param y   y coordinate
  47:../libs/PoliTeKDSP/libs/libDaisy/src/hid/disp/display.h ****     \param on  on or off
  48:../libs/PoliTeKDSP/libs/libDaisy/src/hid/disp/display.h ****     */
  49:../libs/PoliTeKDSP/libs/libDaisy/src/hid/disp/display.h ****     virtual void DrawPixel(uint_fast8_t x, uint_fast8_t y, bool on) = 0;
  50:../libs/PoliTeKDSP/libs/libDaisy/src/hid/disp/display.h **** 
  51:../libs/PoliTeKDSP/libs/libDaisy/src/hid/disp/display.h ****     /**
  52:../libs/PoliTeKDSP/libs/libDaisy/src/hid/disp/display.h ****     Draws a line from (x1, y1) to (y1, y2)
  53:../libs/PoliTeKDSP/libs/libDaisy/src/hid/disp/display.h ****     \param x1  x Coordinate of the starting point
  54:../libs/PoliTeKDSP/libs/libDaisy/src/hid/disp/display.h ****     \param y1  y Coordinate of the starting point
  55:../libs/PoliTeKDSP/libs/libDaisy/src/hid/disp/display.h ****     \param x2  x Coordinate of the ending point
  56:../libs/PoliTeKDSP/libs/libDaisy/src/hid/disp/display.h ****     \param y2  y Coordinate of the ending point
ARM GAS  C:\Users\matte\AppData\Local\Temp\ccj2OJiD.s 			page 12


  57:../libs/PoliTeKDSP/libs/libDaisy/src/hid/disp/display.h ****     \param on  on or off
  58:../libs/PoliTeKDSP/libs/libDaisy/src/hid/disp/display.h ****     */
  59:../libs/PoliTeKDSP/libs/libDaisy/src/hid/disp/display.h ****     virtual void DrawLine(uint_fast8_t x1,
  60:../libs/PoliTeKDSP/libs/libDaisy/src/hid/disp/display.h ****                           uint_fast8_t y1,
  61:../libs/PoliTeKDSP/libs/libDaisy/src/hid/disp/display.h ****                           uint_fast8_t x2,
  62:../libs/PoliTeKDSP/libs/libDaisy/src/hid/disp/display.h ****                           uint_fast8_t y2,
  63:../libs/PoliTeKDSP/libs/libDaisy/src/hid/disp/display.h ****                           bool         on)
  64:../libs/PoliTeKDSP/libs/libDaisy/src/hid/disp/display.h ****         = 0;
  65:../libs/PoliTeKDSP/libs/libDaisy/src/hid/disp/display.h **** 
  66:../libs/PoliTeKDSP/libs/libDaisy/src/hid/disp/display.h ****     /**
  67:../libs/PoliTeKDSP/libs/libDaisy/src/hid/disp/display.h ****     Draws a rectangle based on two coordinates.
  68:../libs/PoliTeKDSP/libs/libDaisy/src/hid/disp/display.h ****     \param x1 x Coordinate of the first point
  69:../libs/PoliTeKDSP/libs/libDaisy/src/hid/disp/display.h ****     \param y1 y Coordinate of the first point
  70:../libs/PoliTeKDSP/libs/libDaisy/src/hid/disp/display.h ****     \param x2 x Coordinate of the second point
  71:../libs/PoliTeKDSP/libs/libDaisy/src/hid/disp/display.h ****     \param y2 y Coordinate of the second point
  72:../libs/PoliTeKDSP/libs/libDaisy/src/hid/disp/display.h ****     \param on on or off
  73:../libs/PoliTeKDSP/libs/libDaisy/src/hid/disp/display.h ****     \param fill fill the rectangle or draw only the outline
  74:../libs/PoliTeKDSP/libs/libDaisy/src/hid/disp/display.h ****     */
  75:../libs/PoliTeKDSP/libs/libDaisy/src/hid/disp/display.h ****     virtual void DrawRect(uint_fast8_t x1,
  76:../libs/PoliTeKDSP/libs/libDaisy/src/hid/disp/display.h ****                           uint_fast8_t y1,
  77:../libs/PoliTeKDSP/libs/libDaisy/src/hid/disp/display.h ****                           uint_fast8_t x2,
  78:../libs/PoliTeKDSP/libs/libDaisy/src/hid/disp/display.h ****                           uint_fast8_t y2,
  79:../libs/PoliTeKDSP/libs/libDaisy/src/hid/disp/display.h ****                           bool         on,
  80:../libs/PoliTeKDSP/libs/libDaisy/src/hid/disp/display.h ****                           bool         fill = false)
  81:../libs/PoliTeKDSP/libs/libDaisy/src/hid/disp/display.h ****         = 0;
  82:../libs/PoliTeKDSP/libs/libDaisy/src/hid/disp/display.h **** 
  83:../libs/PoliTeKDSP/libs/libDaisy/src/hid/disp/display.h ****     /**
  84:../libs/PoliTeKDSP/libs/libDaisy/src/hid/disp/display.h ****     Draws a rectangle.
  85:../libs/PoliTeKDSP/libs/libDaisy/src/hid/disp/display.h ****     \param rect the rectangle
  86:../libs/PoliTeKDSP/libs/libDaisy/src/hid/disp/display.h ****     \param on   on or off
  87:../libs/PoliTeKDSP/libs/libDaisy/src/hid/disp/display.h ****     \param fill fill the rectangle or draw only the outline
  88:../libs/PoliTeKDSP/libs/libDaisy/src/hid/disp/display.h ****     */
  89:../libs/PoliTeKDSP/libs/libDaisy/src/hid/disp/display.h ****     void DrawRect(const Rectangle& rect, bool on, bool fill = false)
  90:../libs/PoliTeKDSP/libs/libDaisy/src/hid/disp/display.h ****     {
  91:../libs/PoliTeKDSP/libs/libDaisy/src/hid/disp/display.h ****         DrawRect(rect.GetX(),
  92:../libs/PoliTeKDSP/libs/libDaisy/src/hid/disp/display.h ****                  rect.GetY(),
  93:../libs/PoliTeKDSP/libs/libDaisy/src/hid/disp/display.h ****                  rect.GetRight(),
  94:../libs/PoliTeKDSP/libs/libDaisy/src/hid/disp/display.h ****                  rect.GetBottom(),
  95:../libs/PoliTeKDSP/libs/libDaisy/src/hid/disp/display.h ****                  on,
  96:../libs/PoliTeKDSP/libs/libDaisy/src/hid/disp/display.h ****                  fill);
  97:../libs/PoliTeKDSP/libs/libDaisy/src/hid/disp/display.h ****     }
  98:../libs/PoliTeKDSP/libs/libDaisy/src/hid/disp/display.h **** 
  99:../libs/PoliTeKDSP/libs/libDaisy/src/hid/disp/display.h ****     /**
 100:../libs/PoliTeKDSP/libs/libDaisy/src/hid/disp/display.h ****     Draws an arc around the specified coordinate
 101:../libs/PoliTeKDSP/libs/libDaisy/src/hid/disp/display.h ****     \param x           x Coordinate of the center of the arc
 102:../libs/PoliTeKDSP/libs/libDaisy/src/hid/disp/display.h ****     \param y           y Coordinate of the center of the arc
 103:../libs/PoliTeKDSP/libs/libDaisy/src/hid/disp/display.h ****     \param radius      radius of the arc
 104:../libs/PoliTeKDSP/libs/libDaisy/src/hid/disp/display.h ****     \param start_angle angle where to start the arc
 105:../libs/PoliTeKDSP/libs/libDaisy/src/hid/disp/display.h ****     \param sweep       total angle of the arc
 106:../libs/PoliTeKDSP/libs/libDaisy/src/hid/disp/display.h ****     \param on  on or off
 107:../libs/PoliTeKDSP/libs/libDaisy/src/hid/disp/display.h ****     */
 108:../libs/PoliTeKDSP/libs/libDaisy/src/hid/disp/display.h ****     virtual void DrawArc(uint_fast8_t x,
 109:../libs/PoliTeKDSP/libs/libDaisy/src/hid/disp/display.h ****                          uint_fast8_t y,
 110:../libs/PoliTeKDSP/libs/libDaisy/src/hid/disp/display.h ****                          uint_fast8_t radius,
 111:../libs/PoliTeKDSP/libs/libDaisy/src/hid/disp/display.h ****                          int_fast16_t start_angle,
 112:../libs/PoliTeKDSP/libs/libDaisy/src/hid/disp/display.h ****                          int_fast16_t sweep,
 113:../libs/PoliTeKDSP/libs/libDaisy/src/hid/disp/display.h ****                          bool         on)
ARM GAS  C:\Users\matte\AppData\Local\Temp\ccj2OJiD.s 			page 13


 114:../libs/PoliTeKDSP/libs/libDaisy/src/hid/disp/display.h ****         = 0;
 115:../libs/PoliTeKDSP/libs/libDaisy/src/hid/disp/display.h **** 
 116:../libs/PoliTeKDSP/libs/libDaisy/src/hid/disp/display.h ****     /**
 117:../libs/PoliTeKDSP/libs/libDaisy/src/hid/disp/display.h ****     Draws a circle around the specified coordinate
 118:../libs/PoliTeKDSP/libs/libDaisy/src/hid/disp/display.h ****     \param x           x Coordinate of the center of the circle
 119:../libs/PoliTeKDSP/libs/libDaisy/src/hid/disp/display.h ****     \param y           y Coordinate of the center of the circle
 120:../libs/PoliTeKDSP/libs/libDaisy/src/hid/disp/display.h ****     \param radius      radius of the circle
 121:../libs/PoliTeKDSP/libs/libDaisy/src/hid/disp/display.h ****     \param on  on or off
 122:../libs/PoliTeKDSP/libs/libDaisy/src/hid/disp/display.h ****     */
 123:../libs/PoliTeKDSP/libs/libDaisy/src/hid/disp/display.h ****     void
 124:../libs/PoliTeKDSP/libs/libDaisy/src/hid/disp/display.h ****     DrawCircle(uint_fast8_t x, uint_fast8_t y, uint_fast8_t radius, bool on)
 125:../libs/PoliTeKDSP/libs/libDaisy/src/hid/disp/display.h ****     {
 126:../libs/PoliTeKDSP/libs/libDaisy/src/hid/disp/display.h ****         DrawArc(x, y, radius, 0, 360, on);
 127:../libs/PoliTeKDSP/libs/libDaisy/src/hid/disp/display.h ****     };
 128:../libs/PoliTeKDSP/libs/libDaisy/src/hid/disp/display.h **** 
 129:../libs/PoliTeKDSP/libs/libDaisy/src/hid/disp/display.h ****     /** 
 130:../libs/PoliTeKDSP/libs/libDaisy/src/hid/disp/display.h ****     Writes the character with the specific FontDef
 131:../libs/PoliTeKDSP/libs/libDaisy/src/hid/disp/display.h ****     to the display buffer at the current Cursor position.
 132:../libs/PoliTeKDSP/libs/libDaisy/src/hid/disp/display.h ****     \param ch character to be written
 133:../libs/PoliTeKDSP/libs/libDaisy/src/hid/disp/display.h ****     \param font font to be written in
 134:../libs/PoliTeKDSP/libs/libDaisy/src/hid/disp/display.h ****     \param on    on or off
 135:../libs/PoliTeKDSP/libs/libDaisy/src/hid/disp/display.h ****     \return &
 136:../libs/PoliTeKDSP/libs/libDaisy/src/hid/disp/display.h ****     */
 137:../libs/PoliTeKDSP/libs/libDaisy/src/hid/disp/display.h ****     virtual char WriteChar(char ch, FontDef font, bool on) = 0;
 138:../libs/PoliTeKDSP/libs/libDaisy/src/hid/disp/display.h **** 
 139:../libs/PoliTeKDSP/libs/libDaisy/src/hid/disp/display.h ****     /** 
 140:../libs/PoliTeKDSP/libs/libDaisy/src/hid/disp/display.h ****     Similar to WriteChar, except it will handle an entire String.
 141:../libs/PoliTeKDSP/libs/libDaisy/src/hid/disp/display.h ****     Wrapping does not happen automatically, so the width
 142:../libs/PoliTeKDSP/libs/libDaisy/src/hid/disp/display.h ****     of the string must be kept within the dimensions of the screen.
 143:../libs/PoliTeKDSP/libs/libDaisy/src/hid/disp/display.h ****     \param str string to be written
 144:../libs/PoliTeKDSP/libs/libDaisy/src/hid/disp/display.h ****     \param font font to use
 145:../libs/PoliTeKDSP/libs/libDaisy/src/hid/disp/display.h ****     \param on  on or off
 146:../libs/PoliTeKDSP/libs/libDaisy/src/hid/disp/display.h ****     \return &
 147:../libs/PoliTeKDSP/libs/libDaisy/src/hid/disp/display.h ****     */
 148:../libs/PoliTeKDSP/libs/libDaisy/src/hid/disp/display.h ****     virtual char WriteString(const char* str, FontDef font, bool on) = 0;
 149:../libs/PoliTeKDSP/libs/libDaisy/src/hid/disp/display.h **** 
 150:../libs/PoliTeKDSP/libs/libDaisy/src/hid/disp/display.h ****     /** 
 151:../libs/PoliTeKDSP/libs/libDaisy/src/hid/disp/display.h ****     Similar to WriteString but justified within a bounding box.
 152:../libs/PoliTeKDSP/libs/libDaisy/src/hid/disp/display.h ****     \param str          string to be written
 153:../libs/PoliTeKDSP/libs/libDaisy/src/hid/disp/display.h ****     \param font         font to use
 154:../libs/PoliTeKDSP/libs/libDaisy/src/hid/disp/display.h ****     \param boundingBox  the bounding box to draw the text in
 155:../libs/PoliTeKDSP/libs/libDaisy/src/hid/disp/display.h ****     \param alignment    the alignment to use
 156:../libs/PoliTeKDSP/libs/libDaisy/src/hid/disp/display.h ****     \param on           on or off
 157:../libs/PoliTeKDSP/libs/libDaisy/src/hid/disp/display.h ****     \return The rectangle that was drawn to
 158:../libs/PoliTeKDSP/libs/libDaisy/src/hid/disp/display.h ****     */
 159:../libs/PoliTeKDSP/libs/libDaisy/src/hid/disp/display.h ****     virtual Rectangle WriteStringAligned(const char*    str,
 160:../libs/PoliTeKDSP/libs/libDaisy/src/hid/disp/display.h ****                                          const FontDef& font,
 161:../libs/PoliTeKDSP/libs/libDaisy/src/hid/disp/display.h ****                                          Rectangle      boundingBox,
 162:../libs/PoliTeKDSP/libs/libDaisy/src/hid/disp/display.h ****                                          Alignment      alignment,
 163:../libs/PoliTeKDSP/libs/libDaisy/src/hid/disp/display.h ****                                          bool           on)
 164:../libs/PoliTeKDSP/libs/libDaisy/src/hid/disp/display.h ****         = 0;
 165:../libs/PoliTeKDSP/libs/libDaisy/src/hid/disp/display.h **** 
 166:../libs/PoliTeKDSP/libs/libDaisy/src/hid/disp/display.h ****     /** 
 167:../libs/PoliTeKDSP/libs/libDaisy/src/hid/disp/display.h ****     Moves the 'Cursor' position used for WriteChar, and WriteStr to the specified coordinate.
 168:../libs/PoliTeKDSP/libs/libDaisy/src/hid/disp/display.h ****     \param x x pos
 169:../libs/PoliTeKDSP/libs/libDaisy/src/hid/disp/display.h ****     \param y y pos
 170:../libs/PoliTeKDSP/libs/libDaisy/src/hid/disp/display.h ****     */
ARM GAS  C:\Users\matte\AppData\Local\Temp\ccj2OJiD.s 			page 14


 171:../libs/PoliTeKDSP/libs/libDaisy/src/hid/disp/display.h ****     void SetCursor(uint16_t x, uint16_t y)
 172:../libs/PoliTeKDSP/libs/libDaisy/src/hid/disp/display.h ****     {
 173:../libs/PoliTeKDSP/libs/libDaisy/src/hid/disp/display.h ****         currentX_ = (x >= Width()) ? Width() - 1 : x;
 174:../libs/PoliTeKDSP/libs/libDaisy/src/hid/disp/display.h ****         currentY_ = (y >= Height()) ? Height() - 1 : y;
 175:../libs/PoliTeKDSP/libs/libDaisy/src/hid/disp/display.h ****     }
 176:../libs/PoliTeKDSP/libs/libDaisy/src/hid/disp/display.h **** 
 177:../libs/PoliTeKDSP/libs/libDaisy/src/hid/disp/display.h ****     /** 
 178:../libs/PoliTeKDSP/libs/libDaisy/src/hid/disp/display.h ****     Writes the current display buffer to the OLED device using SPI or I2C depending on 
 179:../libs/PoliTeKDSP/libs/libDaisy/src/hid/disp/display.h ****     how the object was initialized.
 180:../libs/PoliTeKDSP/libs/libDaisy/src/hid/disp/display.h ****     */
 181:../libs/PoliTeKDSP/libs/libDaisy/src/hid/disp/display.h ****     virtual void Update() = 0;
 182:../libs/PoliTeKDSP/libs/libDaisy/src/hid/disp/display.h **** 
 183:../libs/PoliTeKDSP/libs/libDaisy/src/hid/disp/display.h ****   protected:
 184:../libs/PoliTeKDSP/libs/libDaisy/src/hid/disp/display.h ****     uint16_t currentX_;
 185:../libs/PoliTeKDSP/libs/libDaisy/src/hid/disp/display.h ****     uint16_t currentY_;
 186:../libs/PoliTeKDSP/libs/libDaisy/src/hid/disp/display.h **** };
 187:../libs/PoliTeKDSP/libs/libDaisy/src/hid/disp/display.h **** 
 188:../libs/PoliTeKDSP/libs/libDaisy/src/hid/disp/display.h **** /** This class is intended as a intermediary class for your actual implementation of the OneBitGrap
 189:../libs/PoliTeKDSP/libs/libDaisy/src/hid/disp/display.h ****  *  interface. It uses the CRTP design pattern where the template argument is the child class. It p
 190:../libs/PoliTeKDSP/libs/libDaisy/src/hid/disp/display.h ****  *  implementations for most of the functions, except DrawPixel(), Update() and Fill(), which you'l
 191:../libs/PoliTeKDSP/libs/libDaisy/src/hid/disp/display.h ****  *  to provide in your child class.
 192:../libs/PoliTeKDSP/libs/libDaisy/src/hid/disp/display.h ****  *  The main goal of this class is to provide common drawing functions without relying on massive a
 193:../libs/PoliTeKDSP/libs/libDaisy/src/hid/disp/display.h ****  *  virtual function calls that would result in a performance loss. To achieve this, any drawing fu
 194:../libs/PoliTeKDSP/libs/libDaisy/src/hid/disp/display.h ****  *  is implemented here and internally calls other drawing functions (e.g. DrawRect() which interna
 195:../libs/PoliTeKDSP/libs/libDaisy/src/hid/disp/display.h ****  *  DrawPixel() and DrawLine()) makes these calls via the qualified name of these functions to expl
 196:../libs/PoliTeKDSP/libs/libDaisy/src/hid/disp/display.h ****  *  suppress the virtual dispatch mechanism like this:
 197:../libs/PoliTeKDSP/libs/libDaisy/src/hid/disp/display.h ****  * 
 198:../libs/PoliTeKDSP/libs/libDaisy/src/hid/disp/display.h ****  *      ChildType::DrawPixel(...); // no virtual function call; direct call into the child class fu
 199:../libs/PoliTeKDSP/libs/libDaisy/src/hid/disp/display.h ****  *  
 200:../libs/PoliTeKDSP/libs/libDaisy/src/hid/disp/display.h ****  *  To create a custom OneBitGraphicsDisplay implementation, you can 
 201:../libs/PoliTeKDSP/libs/libDaisy/src/hid/disp/display.h ****  *  A) inherit from OneBitGraphicsDisplay directly and provide all the drawing functions yourself
 202:../libs/PoliTeKDSP/libs/libDaisy/src/hid/disp/display.h ****  *  B) Inherit from OneBitGraphicsDisplayImpl and only provide DrawPixel(), Fill() and Update()
 203:../libs/PoliTeKDSP/libs/libDaisy/src/hid/disp/display.h ****  *     like this:
 204:../libs/PoliTeKDSP/libs/libDaisy/src/hid/disp/display.h ****  *  
 205:../libs/PoliTeKDSP/libs/libDaisy/src/hid/disp/display.h ****  *      class MyDisplayClass : public OneBitGraphicsDisplayImpl<MyDisplayClass> 
 206:../libs/PoliTeKDSP/libs/libDaisy/src/hid/disp/display.h ****  *      {
 207:../libs/PoliTeKDSP/libs/libDaisy/src/hid/disp/display.h ****  *      public:
 208:../libs/PoliTeKDSP/libs/libDaisy/src/hid/disp/display.h ****  *          void Fill() override { ... };
 209:../libs/PoliTeKDSP/libs/libDaisy/src/hid/disp/display.h ****  *          void DrawPixel(uint_fast8_t x, uint_fast8_t y, bool on) override { ... };
 210:../libs/PoliTeKDSP/libs/libDaisy/src/hid/disp/display.h ****  *          void Update() override { ... }
 211:../libs/PoliTeKDSP/libs/libDaisy/src/hid/disp/display.h ****  *      };
 212:../libs/PoliTeKDSP/libs/libDaisy/src/hid/disp/display.h ****  *  
 213:../libs/PoliTeKDSP/libs/libDaisy/src/hid/disp/display.h ****  */
 214:../libs/PoliTeKDSP/libs/libDaisy/src/hid/disp/display.h **** template <class ChildType>
 215:../libs/PoliTeKDSP/libs/libDaisy/src/hid/disp/display.h **** class OneBitGraphicsDisplayImpl : public OneBitGraphicsDisplay
 216:../libs/PoliTeKDSP/libs/libDaisy/src/hid/disp/display.h **** {
 217:../libs/PoliTeKDSP/libs/libDaisy/src/hid/disp/display.h ****   public:
 218:../libs/PoliTeKDSP/libs/libDaisy/src/hid/disp/display.h ****     OneBitGraphicsDisplayImpl() {}
 219:../libs/PoliTeKDSP/libs/libDaisy/src/hid/disp/display.h ****     virtual ~OneBitGraphicsDisplayImpl() {}
 124              		.loc 10 219 13 view .LVU17
 125              	.LBB573:
 126              	.LBI573:
  23:../libs/PoliTeKDSP/libs/libDaisy/src/hid/disp/display.h **** 
 127              		.loc 10 23 13 view .LVU18
  23:../libs/PoliTeKDSP/libs/libDaisy/src/hid/disp/display.h **** 
 128              		.loc 10 23 13 is_stmt 0 view .LVU19
 129              	.LBE573:
ARM GAS  C:\Users\matte\AppData\Local\Temp\ccj2OJiD.s 			page 15


 130              	.LBE572:
 131              		.loc 9 18 29 view .LVU20
 132 0000 7047     		bx	lr
 133              		.cfi_endproc
 134              	.LFE5614:
 136              		.weak	_ZN5daisy11OledDisplayINS_13SSD130xDriverILj128ELj64ENS_19SSD130xI2CTransportEEEED1Ev
 137              		.thumb_set _ZN5daisy11OledDisplayINS_13SSD130xDriverILj128ELj64ENS_19SSD130xI2CTransportEEEED1Ev,_
 138 0002 00BF     		.section	.text._ZNK5daisy11OledDisplayINS_13SSD130xDriverILj128ELj64ENS_19SSD130xI2CTransportEEEE6
 139              		.align	1
 140              		.p2align 2,,3
 141              		.weak	_ZNK5daisy11OledDisplayINS_13SSD130xDriverILj128ELj64ENS_19SSD130xI2CTransportEEEE6HeightEv
 142              		.syntax unified
 143              		.thumb
 144              		.thumb_func
 145              		.fpu fpv5-d16
 147              	_ZNK5daisy11OledDisplayINS_13SSD130xDriverILj128ELj64ENS_19SSD130xI2CTransportEEEE6HeightEv:
 148              	.LVL3:
 149              	.LFB5617:
  19:../libs/PoliTeKDSP/libs/libDaisy/src/hid/disp/oled_display.h **** 
  20:../libs/PoliTeKDSP/libs/libDaisy/src/hid/disp/oled_display.h ****     struct Config
  21:../libs/PoliTeKDSP/libs/libDaisy/src/hid/disp/oled_display.h ****     {
  22:../libs/PoliTeKDSP/libs/libDaisy/src/hid/disp/oled_display.h ****         typename DisplayDriver::Config driver_config;
  23:../libs/PoliTeKDSP/libs/libDaisy/src/hid/disp/oled_display.h ****     };
  24:../libs/PoliTeKDSP/libs/libDaisy/src/hid/disp/oled_display.h **** 
  25:../libs/PoliTeKDSP/libs/libDaisy/src/hid/disp/oled_display.h ****     void Init(Config config) { driver_.Init(config.driver_config); }
  26:../libs/PoliTeKDSP/libs/libDaisy/src/hid/disp/oled_display.h **** 
  27:../libs/PoliTeKDSP/libs/libDaisy/src/hid/disp/oled_display.h ****     uint16_t Height() const override { return driver_.Height(); }
 150              		.loc 9 27 14 is_stmt 1 view -0
 151              		.cfi_startproc
 152              		@ args = 0, pretend = 0, frame = 0
 153              		@ frame_needed = 0, uses_anonymous_args = 0
 154              		@ link register save eliminated.
 155              		.loc 9 27 65 is_stmt 0 view .LVU22
 156 0000 4020     		movs	r0, #64
 157              	.LVL4:
 158              		.loc 9 27 65 view .LVU23
 159 0002 7047     		bx	lr
 160              		.cfi_endproc
 161              	.LFE5617:
 163              		.section	.text._ZNK5daisy11OledDisplayINS_13SSD130xDriverILj128ELj64ENS_19SSD130xI2CTransportEEEE5
 164              		.align	1
 165              		.p2align 2,,3
 166              		.weak	_ZNK5daisy11OledDisplayINS_13SSD130xDriverILj128ELj64ENS_19SSD130xI2CTransportEEEE5WidthEv
 167              		.syntax unified
 168              		.thumb
 169              		.thumb_func
 170              		.fpu fpv5-d16
 172              	_ZNK5daisy11OledDisplayINS_13SSD130xDriverILj128ELj64ENS_19SSD130xI2CTransportEEEE5WidthEv:
 173              	.LVL5:
 174              	.LFB5618:
  28:../libs/PoliTeKDSP/libs/libDaisy/src/hid/disp/oled_display.h ****     uint16_t Width() const override { return driver_.Width(); }
 175              		.loc 9 28 14 is_stmt 1 view -0
 176              		.cfi_startproc
 177              		@ args = 0, pretend = 0, frame = 0
 178              		@ frame_needed = 0, uses_anonymous_args = 0
 179              		@ link register save eliminated.
 180              		.loc 9 28 63 is_stmt 0 view .LVU25
ARM GAS  C:\Users\matte\AppData\Local\Temp\ccj2OJiD.s 			page 16


 181 0000 8020     		movs	r0, #128
 182              	.LVL6:
 183              		.loc 9 28 63 view .LVU26
 184 0002 7047     		bx	lr
 185              		.cfi_endproc
 186              	.LFE5618:
 188              		.section	.text._ZN5daisy11OledDisplayINS_13SSD130xDriverILj128ELj64ENS_19SSD130xI2CTransportEEEE4F
 189              		.align	1
 190              		.p2align 2,,3
 191              		.weak	_ZN5daisy11OledDisplayINS_13SSD130xDriverILj128ELj64ENS_19SSD130xI2CTransportEEEE4FillEb
 192              		.syntax unified
 193              		.thumb
 194              		.thumb_func
 195              		.fpu fpv5-d16
 197              	_ZN5daisy11OledDisplayINS_13SSD130xDriverILj128ELj64ENS_19SSD130xI2CTransportEEEE4FillEb:
 198              	.LVL7:
 199              	.LFB5619:
  29:../libs/PoliTeKDSP/libs/libDaisy/src/hid/disp/oled_display.h **** 
  30:../libs/PoliTeKDSP/libs/libDaisy/src/hid/disp/oled_display.h ****     /** 
  31:../libs/PoliTeKDSP/libs/libDaisy/src/hid/disp/oled_display.h ****     Fills the entire display with either on/off.
  32:../libs/PoliTeKDSP/libs/libDaisy/src/hid/disp/oled_display.h ****     \param on Sets on or off.
  33:../libs/PoliTeKDSP/libs/libDaisy/src/hid/disp/oled_display.h ****     */
  34:../libs/PoliTeKDSP/libs/libDaisy/src/hid/disp/oled_display.h ****     void Fill(bool on) override { driver_.Fill(on); }
 200              		.loc 9 34 10 is_stmt 1 view -0
 201              		.cfi_startproc
 202              		@ args = 0, pretend = 0, frame = 0
 203              		@ frame_needed = 0, uses_anonymous_args = 0
 204              		@ link register save eliminated.
 205              	.LBB574:
 206              	.LBI574:
 207              		.file 11 "Display/../../libs/PoliTeKDSP/libs/libDaisy/src/dev/oled_ssd130x.h"
   1:Display/../../libs/PoliTeKDSP/libs/libDaisy/src/dev/oled_ssd130x.h **** #pragma once
   2:Display/../../libs/PoliTeKDSP/libs/libDaisy/src/dev/oled_ssd130x.h **** #ifndef SA_OLED_SSD130X_H
   3:Display/../../libs/PoliTeKDSP/libs/libDaisy/src/dev/oled_ssd130x.h **** #define SA_OLED_SSD130X_H /**< & */
   4:Display/../../libs/PoliTeKDSP/libs/libDaisy/src/dev/oled_ssd130x.h **** 
   5:Display/../../libs/PoliTeKDSP/libs/libDaisy/src/dev/oled_ssd130x.h **** #include "per/i2c.h"
   6:Display/../../libs/PoliTeKDSP/libs/libDaisy/src/dev/oled_ssd130x.h **** #include "per/spi.h"
   7:Display/../../libs/PoliTeKDSP/libs/libDaisy/src/dev/oled_ssd130x.h **** #include "per/gpio.h"
   8:Display/../../libs/PoliTeKDSP/libs/libDaisy/src/dev/oled_ssd130x.h **** #include "sys/system.h"
   9:Display/../../libs/PoliTeKDSP/libs/libDaisy/src/dev/oled_ssd130x.h **** 
  10:Display/../../libs/PoliTeKDSP/libs/libDaisy/src/dev/oled_ssd130x.h **** namespace daisy
  11:Display/../../libs/PoliTeKDSP/libs/libDaisy/src/dev/oled_ssd130x.h **** {
  12:Display/../../libs/PoliTeKDSP/libs/libDaisy/src/dev/oled_ssd130x.h **** /**
  13:Display/../../libs/PoliTeKDSP/libs/libDaisy/src/dev/oled_ssd130x.h ****  * I2C Transport for SSD1306 / SSD1309 OLED display devices
  14:Display/../../libs/PoliTeKDSP/libs/libDaisy/src/dev/oled_ssd130x.h ****  */
  15:Display/../../libs/PoliTeKDSP/libs/libDaisy/src/dev/oled_ssd130x.h **** class SSD130xI2CTransport
  16:Display/../../libs/PoliTeKDSP/libs/libDaisy/src/dev/oled_ssd130x.h **** {
  17:Display/../../libs/PoliTeKDSP/libs/libDaisy/src/dev/oled_ssd130x.h ****   public:
  18:Display/../../libs/PoliTeKDSP/libs/libDaisy/src/dev/oled_ssd130x.h ****     struct Config
  19:Display/../../libs/PoliTeKDSP/libs/libDaisy/src/dev/oled_ssd130x.h ****     {
  20:Display/../../libs/PoliTeKDSP/libs/libDaisy/src/dev/oled_ssd130x.h ****         Config()
  21:Display/../../libs/PoliTeKDSP/libs/libDaisy/src/dev/oled_ssd130x.h ****         {
  22:Display/../../libs/PoliTeKDSP/libs/libDaisy/src/dev/oled_ssd130x.h ****             // Intialize using defaults
  23:Display/../../libs/PoliTeKDSP/libs/libDaisy/src/dev/oled_ssd130x.h ****             Defaults();
  24:Display/../../libs/PoliTeKDSP/libs/libDaisy/src/dev/oled_ssd130x.h ****         }
  25:Display/../../libs/PoliTeKDSP/libs/libDaisy/src/dev/oled_ssd130x.h ****         I2CHandle::Config i2c_config;
  26:Display/../../libs/PoliTeKDSP/libs/libDaisy/src/dev/oled_ssd130x.h ****         uint8_t           i2c_address;
ARM GAS  C:\Users\matte\AppData\Local\Temp\ccj2OJiD.s 			page 17


  27:Display/../../libs/PoliTeKDSP/libs/libDaisy/src/dev/oled_ssd130x.h ****         void              Defaults()
  28:Display/../../libs/PoliTeKDSP/libs/libDaisy/src/dev/oled_ssd130x.h ****         {
  29:Display/../../libs/PoliTeKDSP/libs/libDaisy/src/dev/oled_ssd130x.h ****             i2c_config.periph         = I2CHandle::Config::Peripheral::I2C_1;
  30:Display/../../libs/PoliTeKDSP/libs/libDaisy/src/dev/oled_ssd130x.h ****             i2c_config.speed          = I2CHandle::Config::Speed::I2C_1MHZ;
  31:Display/../../libs/PoliTeKDSP/libs/libDaisy/src/dev/oled_ssd130x.h ****             i2c_config.mode           = I2CHandle::Config::Mode::I2C_MASTER;
  32:Display/../../libs/PoliTeKDSP/libs/libDaisy/src/dev/oled_ssd130x.h ****             i2c_config.pin_config.scl = Pin(PORTB, 8);
  33:Display/../../libs/PoliTeKDSP/libs/libDaisy/src/dev/oled_ssd130x.h ****             i2c_config.pin_config.sda = Pin(PORTB, 9);
  34:Display/../../libs/PoliTeKDSP/libs/libDaisy/src/dev/oled_ssd130x.h ****             i2c_address               = 0x3C;
  35:Display/../../libs/PoliTeKDSP/libs/libDaisy/src/dev/oled_ssd130x.h ****         }
  36:Display/../../libs/PoliTeKDSP/libs/libDaisy/src/dev/oled_ssd130x.h ****     };
  37:Display/../../libs/PoliTeKDSP/libs/libDaisy/src/dev/oled_ssd130x.h ****     void Init(const Config& config)
  38:Display/../../libs/PoliTeKDSP/libs/libDaisy/src/dev/oled_ssd130x.h ****     {
  39:Display/../../libs/PoliTeKDSP/libs/libDaisy/src/dev/oled_ssd130x.h ****         i2c_address_ = config.i2c_address;
  40:Display/../../libs/PoliTeKDSP/libs/libDaisy/src/dev/oled_ssd130x.h ****         i2c_.Init(config.i2c_config);
  41:Display/../../libs/PoliTeKDSP/libs/libDaisy/src/dev/oled_ssd130x.h ****     };
  42:Display/../../libs/PoliTeKDSP/libs/libDaisy/src/dev/oled_ssd130x.h ****     void SendCommand(uint8_t cmd)
  43:Display/../../libs/PoliTeKDSP/libs/libDaisy/src/dev/oled_ssd130x.h ****     {
  44:Display/../../libs/PoliTeKDSP/libs/libDaisy/src/dev/oled_ssd130x.h ****         uint8_t buf[2] = {0X00, cmd};
  45:Display/../../libs/PoliTeKDSP/libs/libDaisy/src/dev/oled_ssd130x.h ****         i2c_.TransmitBlocking(i2c_address_, buf, 2, 1000);
  46:Display/../../libs/PoliTeKDSP/libs/libDaisy/src/dev/oled_ssd130x.h ****     };
  47:Display/../../libs/PoliTeKDSP/libs/libDaisy/src/dev/oled_ssd130x.h **** 
  48:Display/../../libs/PoliTeKDSP/libs/libDaisy/src/dev/oled_ssd130x.h ****     void SendData(uint8_t* buff, size_t size)
  49:Display/../../libs/PoliTeKDSP/libs/libDaisy/src/dev/oled_ssd130x.h ****     {
  50:Display/../../libs/PoliTeKDSP/libs/libDaisy/src/dev/oled_ssd130x.h ****         for(size_t i = 0; i < size; i++)
  51:Display/../../libs/PoliTeKDSP/libs/libDaisy/src/dev/oled_ssd130x.h ****         {
  52:Display/../../libs/PoliTeKDSP/libs/libDaisy/src/dev/oled_ssd130x.h ****             uint8_t buf[2] = {0X40, buff[i]};
  53:Display/../../libs/PoliTeKDSP/libs/libDaisy/src/dev/oled_ssd130x.h ****             i2c_.TransmitBlocking(i2c_address_, buf, 2, 1000);
  54:Display/../../libs/PoliTeKDSP/libs/libDaisy/src/dev/oled_ssd130x.h ****         }
  55:Display/../../libs/PoliTeKDSP/libs/libDaisy/src/dev/oled_ssd130x.h ****     };
  56:Display/../../libs/PoliTeKDSP/libs/libDaisy/src/dev/oled_ssd130x.h **** 
  57:Display/../../libs/PoliTeKDSP/libs/libDaisy/src/dev/oled_ssd130x.h ****   private:
  58:Display/../../libs/PoliTeKDSP/libs/libDaisy/src/dev/oled_ssd130x.h ****     daisy::I2CHandle i2c_;
  59:Display/../../libs/PoliTeKDSP/libs/libDaisy/src/dev/oled_ssd130x.h ****     uint8_t          i2c_address_;
  60:Display/../../libs/PoliTeKDSP/libs/libDaisy/src/dev/oled_ssd130x.h **** };
  61:Display/../../libs/PoliTeKDSP/libs/libDaisy/src/dev/oled_ssd130x.h **** 
  62:Display/../../libs/PoliTeKDSP/libs/libDaisy/src/dev/oled_ssd130x.h **** /**
  63:Display/../../libs/PoliTeKDSP/libs/libDaisy/src/dev/oled_ssd130x.h ****  * 4 Wire SPI Transport for SSD1306 / SSD1309 OLED display devices
  64:Display/../../libs/PoliTeKDSP/libs/libDaisy/src/dev/oled_ssd130x.h ****  */
  65:Display/../../libs/PoliTeKDSP/libs/libDaisy/src/dev/oled_ssd130x.h **** class SSD130x4WireSpiTransport
  66:Display/../../libs/PoliTeKDSP/libs/libDaisy/src/dev/oled_ssd130x.h **** {
  67:Display/../../libs/PoliTeKDSP/libs/libDaisy/src/dev/oled_ssd130x.h ****   public:
  68:Display/../../libs/PoliTeKDSP/libs/libDaisy/src/dev/oled_ssd130x.h ****     struct Config
  69:Display/../../libs/PoliTeKDSP/libs/libDaisy/src/dev/oled_ssd130x.h ****     {
  70:Display/../../libs/PoliTeKDSP/libs/libDaisy/src/dev/oled_ssd130x.h ****         Config()
  71:Display/../../libs/PoliTeKDSP/libs/libDaisy/src/dev/oled_ssd130x.h ****         {
  72:Display/../../libs/PoliTeKDSP/libs/libDaisy/src/dev/oled_ssd130x.h ****             // Initialize using defaults
  73:Display/../../libs/PoliTeKDSP/libs/libDaisy/src/dev/oled_ssd130x.h ****             Defaults();
  74:Display/../../libs/PoliTeKDSP/libs/libDaisy/src/dev/oled_ssd130x.h ****         }
  75:Display/../../libs/PoliTeKDSP/libs/libDaisy/src/dev/oled_ssd130x.h ****         SpiHandle::Config spi_config;
  76:Display/../../libs/PoliTeKDSP/libs/libDaisy/src/dev/oled_ssd130x.h ****         struct
  77:Display/../../libs/PoliTeKDSP/libs/libDaisy/src/dev/oled_ssd130x.h ****         {
  78:Display/../../libs/PoliTeKDSP/libs/libDaisy/src/dev/oled_ssd130x.h ****             Pin dc;    /**< & */
  79:Display/../../libs/PoliTeKDSP/libs/libDaisy/src/dev/oled_ssd130x.h ****             Pin reset; /**< & */
  80:Display/../../libs/PoliTeKDSP/libs/libDaisy/src/dev/oled_ssd130x.h ****         } pin_config;
  81:Display/../../libs/PoliTeKDSP/libs/libDaisy/src/dev/oled_ssd130x.h ****         void Defaults()
  82:Display/../../libs/PoliTeKDSP/libs/libDaisy/src/dev/oled_ssd130x.h ****         {
  83:Display/../../libs/PoliTeKDSP/libs/libDaisy/src/dev/oled_ssd130x.h ****             // SPI peripheral config
ARM GAS  C:\Users\matte\AppData\Local\Temp\ccj2OJiD.s 			page 18


  84:Display/../../libs/PoliTeKDSP/libs/libDaisy/src/dev/oled_ssd130x.h ****             spi_config.periph = SpiHandle::Config::Peripheral::SPI_1;
  85:Display/../../libs/PoliTeKDSP/libs/libDaisy/src/dev/oled_ssd130x.h ****             spi_config.mode   = SpiHandle::Config::Mode::MASTER;
  86:Display/../../libs/PoliTeKDSP/libs/libDaisy/src/dev/oled_ssd130x.h ****             spi_config.direction
  87:Display/../../libs/PoliTeKDSP/libs/libDaisy/src/dev/oled_ssd130x.h ****                 = SpiHandle::Config::Direction::TWO_LINES_TX_ONLY;
  88:Display/../../libs/PoliTeKDSP/libs/libDaisy/src/dev/oled_ssd130x.h ****             spi_config.datasize       = 8;
  89:Display/../../libs/PoliTeKDSP/libs/libDaisy/src/dev/oled_ssd130x.h ****             spi_config.clock_polarity = SpiHandle::Config::ClockPolarity::LOW;
  90:Display/../../libs/PoliTeKDSP/libs/libDaisy/src/dev/oled_ssd130x.h ****             spi_config.clock_phase    = SpiHandle::Config::ClockPhase::ONE_EDGE;
  91:Display/../../libs/PoliTeKDSP/libs/libDaisy/src/dev/oled_ssd130x.h ****             spi_config.nss            = SpiHandle::Config::NSS::HARD_OUTPUT;
  92:Display/../../libs/PoliTeKDSP/libs/libDaisy/src/dev/oled_ssd130x.h ****             spi_config.baud_prescaler = SpiHandle::Config::BaudPrescaler::PS_8;
  93:Display/../../libs/PoliTeKDSP/libs/libDaisy/src/dev/oled_ssd130x.h ****             // SPI pin config
  94:Display/../../libs/PoliTeKDSP/libs/libDaisy/src/dev/oled_ssd130x.h ****             spi_config.pin_config.sclk = Pin(PORTG, 11);
  95:Display/../../libs/PoliTeKDSP/libs/libDaisy/src/dev/oled_ssd130x.h ****             spi_config.pin_config.miso = Pin(PORTX, 0);
  96:Display/../../libs/PoliTeKDSP/libs/libDaisy/src/dev/oled_ssd130x.h ****             spi_config.pin_config.mosi = Pin(PORTB, 5);
  97:Display/../../libs/PoliTeKDSP/libs/libDaisy/src/dev/oled_ssd130x.h ****             spi_config.pin_config.nss  = Pin(PORTG, 10);
  98:Display/../../libs/PoliTeKDSP/libs/libDaisy/src/dev/oled_ssd130x.h ****             // SSD130x control pin config
  99:Display/../../libs/PoliTeKDSP/libs/libDaisy/src/dev/oled_ssd130x.h ****             pin_config.dc    = Pin(PORTB, 4);
 100:Display/../../libs/PoliTeKDSP/libs/libDaisy/src/dev/oled_ssd130x.h ****             pin_config.reset = Pin(PORTB, 15);
 101:Display/../../libs/PoliTeKDSP/libs/libDaisy/src/dev/oled_ssd130x.h ****         }
 102:Display/../../libs/PoliTeKDSP/libs/libDaisy/src/dev/oled_ssd130x.h ****     };
 103:Display/../../libs/PoliTeKDSP/libs/libDaisy/src/dev/oled_ssd130x.h ****     void Init(const Config& config)
 104:Display/../../libs/PoliTeKDSP/libs/libDaisy/src/dev/oled_ssd130x.h ****     {
 105:Display/../../libs/PoliTeKDSP/libs/libDaisy/src/dev/oled_ssd130x.h ****         // Initialize both GPIO
 106:Display/../../libs/PoliTeKDSP/libs/libDaisy/src/dev/oled_ssd130x.h ****         pin_dc_.Init(config.pin_config.dc, GPIO::Mode::OUTPUT);
 107:Display/../../libs/PoliTeKDSP/libs/libDaisy/src/dev/oled_ssd130x.h ****         pin_reset_.Init(config.pin_config.reset, GPIO::Mode::OUTPUT);
 108:Display/../../libs/PoliTeKDSP/libs/libDaisy/src/dev/oled_ssd130x.h **** 
 109:Display/../../libs/PoliTeKDSP/libs/libDaisy/src/dev/oled_ssd130x.h ****         // Initialize SPI
 110:Display/../../libs/PoliTeKDSP/libs/libDaisy/src/dev/oled_ssd130x.h ****         spi_.Init(config.spi_config);
 111:Display/../../libs/PoliTeKDSP/libs/libDaisy/src/dev/oled_ssd130x.h **** 
 112:Display/../../libs/PoliTeKDSP/libs/libDaisy/src/dev/oled_ssd130x.h ****         // Reset and Configure OLED.
 113:Display/../../libs/PoliTeKDSP/libs/libDaisy/src/dev/oled_ssd130x.h ****         pin_reset_.Write(0);
 114:Display/../../libs/PoliTeKDSP/libs/libDaisy/src/dev/oled_ssd130x.h ****         System::Delay(10);
 115:Display/../../libs/PoliTeKDSP/libs/libDaisy/src/dev/oled_ssd130x.h ****         pin_reset_.Write(1);
 116:Display/../../libs/PoliTeKDSP/libs/libDaisy/src/dev/oled_ssd130x.h ****         System::Delay(10);
 117:Display/../../libs/PoliTeKDSP/libs/libDaisy/src/dev/oled_ssd130x.h ****     };
 118:Display/../../libs/PoliTeKDSP/libs/libDaisy/src/dev/oled_ssd130x.h ****     void SendCommand(uint8_t cmd)
 119:Display/../../libs/PoliTeKDSP/libs/libDaisy/src/dev/oled_ssd130x.h ****     {
 120:Display/../../libs/PoliTeKDSP/libs/libDaisy/src/dev/oled_ssd130x.h ****         pin_dc_.Write(0);
 121:Display/../../libs/PoliTeKDSP/libs/libDaisy/src/dev/oled_ssd130x.h ****         spi_.BlockingTransmit(&cmd, 1);
 122:Display/../../libs/PoliTeKDSP/libs/libDaisy/src/dev/oled_ssd130x.h ****     };
 123:Display/../../libs/PoliTeKDSP/libs/libDaisy/src/dev/oled_ssd130x.h **** 
 124:Display/../../libs/PoliTeKDSP/libs/libDaisy/src/dev/oled_ssd130x.h ****     void SendData(uint8_t* buff, size_t size)
 125:Display/../../libs/PoliTeKDSP/libs/libDaisy/src/dev/oled_ssd130x.h ****     {
 126:Display/../../libs/PoliTeKDSP/libs/libDaisy/src/dev/oled_ssd130x.h ****         pin_dc_.Write(1);
 127:Display/../../libs/PoliTeKDSP/libs/libDaisy/src/dev/oled_ssd130x.h ****         spi_.BlockingTransmit(buff, size);
 128:Display/../../libs/PoliTeKDSP/libs/libDaisy/src/dev/oled_ssd130x.h ****     };
 129:Display/../../libs/PoliTeKDSP/libs/libDaisy/src/dev/oled_ssd130x.h **** 
 130:Display/../../libs/PoliTeKDSP/libs/libDaisy/src/dev/oled_ssd130x.h ****   private:
 131:Display/../../libs/PoliTeKDSP/libs/libDaisy/src/dev/oled_ssd130x.h ****     SpiHandle spi_;
 132:Display/../../libs/PoliTeKDSP/libs/libDaisy/src/dev/oled_ssd130x.h ****     GPIO      pin_reset_;
 133:Display/../../libs/PoliTeKDSP/libs/libDaisy/src/dev/oled_ssd130x.h ****     GPIO      pin_dc_;
 134:Display/../../libs/PoliTeKDSP/libs/libDaisy/src/dev/oled_ssd130x.h **** };
 135:Display/../../libs/PoliTeKDSP/libs/libDaisy/src/dev/oled_ssd130x.h **** 
 136:Display/../../libs/PoliTeKDSP/libs/libDaisy/src/dev/oled_ssd130x.h **** /**
 137:Display/../../libs/PoliTeKDSP/libs/libDaisy/src/dev/oled_ssd130x.h ****  * Soft SPI Transport for SSD1306 / SSD1309 OLED display devices
 138:Display/../../libs/PoliTeKDSP/libs/libDaisy/src/dev/oled_ssd130x.h ****  */
 139:Display/../../libs/PoliTeKDSP/libs/libDaisy/src/dev/oled_ssd130x.h **** class SSD130x4WireSoftSpiTransport
 140:Display/../../libs/PoliTeKDSP/libs/libDaisy/src/dev/oled_ssd130x.h **** {
ARM GAS  C:\Users\matte\AppData\Local\Temp\ccj2OJiD.s 			page 19


 141:Display/../../libs/PoliTeKDSP/libs/libDaisy/src/dev/oled_ssd130x.h ****   public:
 142:Display/../../libs/PoliTeKDSP/libs/libDaisy/src/dev/oled_ssd130x.h ****     struct Config
 143:Display/../../libs/PoliTeKDSP/libs/libDaisy/src/dev/oled_ssd130x.h ****     {
 144:Display/../../libs/PoliTeKDSP/libs/libDaisy/src/dev/oled_ssd130x.h ****         Config()
 145:Display/../../libs/PoliTeKDSP/libs/libDaisy/src/dev/oled_ssd130x.h ****         {
 146:Display/../../libs/PoliTeKDSP/libs/libDaisy/src/dev/oled_ssd130x.h ****             // Initialize using defaults
 147:Display/../../libs/PoliTeKDSP/libs/libDaisy/src/dev/oled_ssd130x.h ****             Defaults();
 148:Display/../../libs/PoliTeKDSP/libs/libDaisy/src/dev/oled_ssd130x.h ****         }
 149:Display/../../libs/PoliTeKDSP/libs/libDaisy/src/dev/oled_ssd130x.h ****         struct
 150:Display/../../libs/PoliTeKDSP/libs/libDaisy/src/dev/oled_ssd130x.h ****         {
 151:Display/../../libs/PoliTeKDSP/libs/libDaisy/src/dev/oled_ssd130x.h ****             uint32_t sclk_delay;
 152:Display/../../libs/PoliTeKDSP/libs/libDaisy/src/dev/oled_ssd130x.h ****             Pin      sclk;
 153:Display/../../libs/PoliTeKDSP/libs/libDaisy/src/dev/oled_ssd130x.h ****             Pin      mosi;
 154:Display/../../libs/PoliTeKDSP/libs/libDaisy/src/dev/oled_ssd130x.h ****             Pin      dc;
 155:Display/../../libs/PoliTeKDSP/libs/libDaisy/src/dev/oled_ssd130x.h ****             Pin      reset;
 156:Display/../../libs/PoliTeKDSP/libs/libDaisy/src/dev/oled_ssd130x.h ****         } pin_config;
 157:Display/../../libs/PoliTeKDSP/libs/libDaisy/src/dev/oled_ssd130x.h ****         void Defaults()
 158:Display/../../libs/PoliTeKDSP/libs/libDaisy/src/dev/oled_ssd130x.h ****         {
 159:Display/../../libs/PoliTeKDSP/libs/libDaisy/src/dev/oled_ssd130x.h ****             pin_config.sclk_delay = 0; // fast as possible?!
 160:Display/../../libs/PoliTeKDSP/libs/libDaisy/src/dev/oled_ssd130x.h ****             // SPI peripheral config
 161:Display/../../libs/PoliTeKDSP/libs/libDaisy/src/dev/oled_ssd130x.h ****             pin_config.sclk = Pin(PORTD, 3); /**< D10 - SPI2 SCK  */
 162:Display/../../libs/PoliTeKDSP/libs/libDaisy/src/dev/oled_ssd130x.h ****             pin_config.mosi = Pin(PORTC, 3); /**< D9  - SPI2 MOSI */
 163:Display/../../libs/PoliTeKDSP/libs/libDaisy/src/dev/oled_ssd130x.h ****             // SSD130x control pin config
 164:Display/../../libs/PoliTeKDSP/libs/libDaisy/src/dev/oled_ssd130x.h ****             pin_config.dc    = Pin(PORTC, 11); //D2
 165:Display/../../libs/PoliTeKDSP/libs/libDaisy/src/dev/oled_ssd130x.h ****             pin_config.reset = Pin(PORTC, 10); //D3
 166:Display/../../libs/PoliTeKDSP/libs/libDaisy/src/dev/oled_ssd130x.h ****         }
 167:Display/../../libs/PoliTeKDSP/libs/libDaisy/src/dev/oled_ssd130x.h ****     };
 168:Display/../../libs/PoliTeKDSP/libs/libDaisy/src/dev/oled_ssd130x.h ****     void Init(const Config& config)
 169:Display/../../libs/PoliTeKDSP/libs/libDaisy/src/dev/oled_ssd130x.h ****     {
 170:Display/../../libs/PoliTeKDSP/libs/libDaisy/src/dev/oled_ssd130x.h ****         // Initialize both GPIO
 171:Display/../../libs/PoliTeKDSP/libs/libDaisy/src/dev/oled_ssd130x.h ****         pin_sclk_.Init(config.pin_config.sclk, GPIO::Mode::OUTPUT);
 172:Display/../../libs/PoliTeKDSP/libs/libDaisy/src/dev/oled_ssd130x.h ****         pin_sclk_.Write(1); //ClockPolarity::LOW
 173:Display/../../libs/PoliTeKDSP/libs/libDaisy/src/dev/oled_ssd130x.h ****         clk_delay = config.pin_config.sclk_delay;
 174:Display/../../libs/PoliTeKDSP/libs/libDaisy/src/dev/oled_ssd130x.h ****         pin_mosi_.Init(config.pin_config.mosi, GPIO::Mode::OUTPUT);
 175:Display/../../libs/PoliTeKDSP/libs/libDaisy/src/dev/oled_ssd130x.h ****         pin_mosi_.Write(0);
 176:Display/../../libs/PoliTeKDSP/libs/libDaisy/src/dev/oled_ssd130x.h **** 
 177:Display/../../libs/PoliTeKDSP/libs/libDaisy/src/dev/oled_ssd130x.h ****         pin_dc_.Init(config.pin_config.dc, GPIO::Mode::OUTPUT);
 178:Display/../../libs/PoliTeKDSP/libs/libDaisy/src/dev/oled_ssd130x.h ****         pin_reset_.Init(config.pin_config.reset, GPIO::Mode::OUTPUT);
 179:Display/../../libs/PoliTeKDSP/libs/libDaisy/src/dev/oled_ssd130x.h **** 
 180:Display/../../libs/PoliTeKDSP/libs/libDaisy/src/dev/oled_ssd130x.h ****         // Reset and Configure OLED.
 181:Display/../../libs/PoliTeKDSP/libs/libDaisy/src/dev/oled_ssd130x.h ****         pin_reset_.Write(0);
 182:Display/../../libs/PoliTeKDSP/libs/libDaisy/src/dev/oled_ssd130x.h ****         System::Delay(10);
 183:Display/../../libs/PoliTeKDSP/libs/libDaisy/src/dev/oled_ssd130x.h ****         pin_reset_.Write(1);
 184:Display/../../libs/PoliTeKDSP/libs/libDaisy/src/dev/oled_ssd130x.h ****         System::Delay(10);
 185:Display/../../libs/PoliTeKDSP/libs/libDaisy/src/dev/oled_ssd130x.h ****     };
 186:Display/../../libs/PoliTeKDSP/libs/libDaisy/src/dev/oled_ssd130x.h ****     void SendCommand(uint8_t cmd)
 187:Display/../../libs/PoliTeKDSP/libs/libDaisy/src/dev/oled_ssd130x.h ****     {
 188:Display/../../libs/PoliTeKDSP/libs/libDaisy/src/dev/oled_ssd130x.h ****         pin_dc_.Write(0);
 189:Display/../../libs/PoliTeKDSP/libs/libDaisy/src/dev/oled_ssd130x.h ****         SoftSpiTransmit(cmd);
 190:Display/../../libs/PoliTeKDSP/libs/libDaisy/src/dev/oled_ssd130x.h ****     };
 191:Display/../../libs/PoliTeKDSP/libs/libDaisy/src/dev/oled_ssd130x.h **** 
 192:Display/../../libs/PoliTeKDSP/libs/libDaisy/src/dev/oled_ssd130x.h ****     void SendData(uint8_t* buff, size_t size)
 193:Display/../../libs/PoliTeKDSP/libs/libDaisy/src/dev/oled_ssd130x.h ****     {
 194:Display/../../libs/PoliTeKDSP/libs/libDaisy/src/dev/oled_ssd130x.h ****         pin_dc_.Write(1);
 195:Display/../../libs/PoliTeKDSP/libs/libDaisy/src/dev/oled_ssd130x.h ****         for(size_t i = 0; i < size; i++)
 196:Display/../../libs/PoliTeKDSP/libs/libDaisy/src/dev/oled_ssd130x.h ****             SoftSpiTransmit(buff[i]);
 197:Display/../../libs/PoliTeKDSP/libs/libDaisy/src/dev/oled_ssd130x.h ****     };
ARM GAS  C:\Users\matte\AppData\Local\Temp\ccj2OJiD.s 			page 20


 198:Display/../../libs/PoliTeKDSP/libs/libDaisy/src/dev/oled_ssd130x.h **** 
 199:Display/../../libs/PoliTeKDSP/libs/libDaisy/src/dev/oled_ssd130x.h ****   private:
 200:Display/../../libs/PoliTeKDSP/libs/libDaisy/src/dev/oled_ssd130x.h ****     void SoftSpiTransmit(uint8_t val)
 201:Display/../../libs/PoliTeKDSP/libs/libDaisy/src/dev/oled_ssd130x.h ****     {
 202:Display/../../libs/PoliTeKDSP/libs/libDaisy/src/dev/oled_ssd130x.h ****         // bit flip
 203:Display/../../libs/PoliTeKDSP/libs/libDaisy/src/dev/oled_ssd130x.h ****         val = ((val & 0x01) << 7) | ((val & 0x02) << 5) | ((val & 0x04) << 3)
 204:Display/../../libs/PoliTeKDSP/libs/libDaisy/src/dev/oled_ssd130x.h ****               | ((val & 0x08) << 1) | ((val & 0x10) >> 1) | ((val & 0x20) >> 3)
 205:Display/../../libs/PoliTeKDSP/libs/libDaisy/src/dev/oled_ssd130x.h ****               | ((val & 0x40) >> 5) | ((val & 0x80) >> 7);
 206:Display/../../libs/PoliTeKDSP/libs/libDaisy/src/dev/oled_ssd130x.h **** 
 207:Display/../../libs/PoliTeKDSP/libs/libDaisy/src/dev/oled_ssd130x.h ****         for(uint8_t bit = 0u; bit < 8u; bit++)
 208:Display/../../libs/PoliTeKDSP/libs/libDaisy/src/dev/oled_ssd130x.h ****         {
 209:Display/../../libs/PoliTeKDSP/libs/libDaisy/src/dev/oled_ssd130x.h ****             pin_mosi_.Write((val & (1 << bit)) ? 1 : 0);
 210:Display/../../libs/PoliTeKDSP/libs/libDaisy/src/dev/oled_ssd130x.h **** 
 211:Display/../../libs/PoliTeKDSP/libs/libDaisy/src/dev/oled_ssd130x.h ****             System::DelayTicks(clk_delay);
 212:Display/../../libs/PoliTeKDSP/libs/libDaisy/src/dev/oled_ssd130x.h **** 
 213:Display/../../libs/PoliTeKDSP/libs/libDaisy/src/dev/oled_ssd130x.h ****             pin_sclk_.Toggle();
 214:Display/../../libs/PoliTeKDSP/libs/libDaisy/src/dev/oled_ssd130x.h **** 
 215:Display/../../libs/PoliTeKDSP/libs/libDaisy/src/dev/oled_ssd130x.h ****             System::DelayTicks(clk_delay);
 216:Display/../../libs/PoliTeKDSP/libs/libDaisy/src/dev/oled_ssd130x.h **** 
 217:Display/../../libs/PoliTeKDSP/libs/libDaisy/src/dev/oled_ssd130x.h ****             pin_sclk_.Toggle();
 218:Display/../../libs/PoliTeKDSP/libs/libDaisy/src/dev/oled_ssd130x.h ****         }
 219:Display/../../libs/PoliTeKDSP/libs/libDaisy/src/dev/oled_ssd130x.h ****     }
 220:Display/../../libs/PoliTeKDSP/libs/libDaisy/src/dev/oled_ssd130x.h **** 
 221:Display/../../libs/PoliTeKDSP/libs/libDaisy/src/dev/oled_ssd130x.h ****     uint32_t clk_delay;
 222:Display/../../libs/PoliTeKDSP/libs/libDaisy/src/dev/oled_ssd130x.h ****     GPIO     pin_sclk_;
 223:Display/../../libs/PoliTeKDSP/libs/libDaisy/src/dev/oled_ssd130x.h ****     GPIO     pin_mosi_;
 224:Display/../../libs/PoliTeKDSP/libs/libDaisy/src/dev/oled_ssd130x.h ****     GPIO     pin_reset_;
 225:Display/../../libs/PoliTeKDSP/libs/libDaisy/src/dev/oled_ssd130x.h ****     GPIO     pin_dc_;
 226:Display/../../libs/PoliTeKDSP/libs/libDaisy/src/dev/oled_ssd130x.h **** };
 227:Display/../../libs/PoliTeKDSP/libs/libDaisy/src/dev/oled_ssd130x.h **** 
 228:Display/../../libs/PoliTeKDSP/libs/libDaisy/src/dev/oled_ssd130x.h **** 
 229:Display/../../libs/PoliTeKDSP/libs/libDaisy/src/dev/oled_ssd130x.h **** /**
 230:Display/../../libs/PoliTeKDSP/libs/libDaisy/src/dev/oled_ssd130x.h ****  * A driver implementation for the SSD1306/SSD1309
 231:Display/../../libs/PoliTeKDSP/libs/libDaisy/src/dev/oled_ssd130x.h ****  */
 232:Display/../../libs/PoliTeKDSP/libs/libDaisy/src/dev/oled_ssd130x.h **** template <size_t width, size_t height, typename Transport>
 233:Display/../../libs/PoliTeKDSP/libs/libDaisy/src/dev/oled_ssd130x.h **** class SSD130xDriver
 234:Display/../../libs/PoliTeKDSP/libs/libDaisy/src/dev/oled_ssd130x.h **** {
 235:Display/../../libs/PoliTeKDSP/libs/libDaisy/src/dev/oled_ssd130x.h ****   public:
 236:Display/../../libs/PoliTeKDSP/libs/libDaisy/src/dev/oled_ssd130x.h ****     struct Config
 237:Display/../../libs/PoliTeKDSP/libs/libDaisy/src/dev/oled_ssd130x.h ****     {
 238:Display/../../libs/PoliTeKDSP/libs/libDaisy/src/dev/oled_ssd130x.h ****         typename Transport::Config transport_config;
 239:Display/../../libs/PoliTeKDSP/libs/libDaisy/src/dev/oled_ssd130x.h ****     };
 240:Display/../../libs/PoliTeKDSP/libs/libDaisy/src/dev/oled_ssd130x.h **** 
 241:Display/../../libs/PoliTeKDSP/libs/libDaisy/src/dev/oled_ssd130x.h ****     void Init(Config config)
 242:Display/../../libs/PoliTeKDSP/libs/libDaisy/src/dev/oled_ssd130x.h ****     {
 243:Display/../../libs/PoliTeKDSP/libs/libDaisy/src/dev/oled_ssd130x.h ****         transport_.Init(config.transport_config);
 244:Display/../../libs/PoliTeKDSP/libs/libDaisy/src/dev/oled_ssd130x.h **** 
 245:Display/../../libs/PoliTeKDSP/libs/libDaisy/src/dev/oled_ssd130x.h ****         // Init routine...
 246:Display/../../libs/PoliTeKDSP/libs/libDaisy/src/dev/oled_ssd130x.h **** 
 247:Display/../../libs/PoliTeKDSP/libs/libDaisy/src/dev/oled_ssd130x.h ****         // Display Off
 248:Display/../../libs/PoliTeKDSP/libs/libDaisy/src/dev/oled_ssd130x.h ****         transport_.SendCommand(0xaE);
 249:Display/../../libs/PoliTeKDSP/libs/libDaisy/src/dev/oled_ssd130x.h ****         // Dimension dependent commands...
 250:Display/../../libs/PoliTeKDSP/libs/libDaisy/src/dev/oled_ssd130x.h ****         switch(height)
 251:Display/../../libs/PoliTeKDSP/libs/libDaisy/src/dev/oled_ssd130x.h ****         {
 252:Display/../../libs/PoliTeKDSP/libs/libDaisy/src/dev/oled_ssd130x.h ****             case 16:
 253:Display/../../libs/PoliTeKDSP/libs/libDaisy/src/dev/oled_ssd130x.h ****                 // Display Clock Divide Ratio
 254:Display/../../libs/PoliTeKDSP/libs/libDaisy/src/dev/oled_ssd130x.h ****                 transport_.SendCommand(0xD5);
ARM GAS  C:\Users\matte\AppData\Local\Temp\ccj2OJiD.s 			page 21


 255:Display/../../libs/PoliTeKDSP/libs/libDaisy/src/dev/oled_ssd130x.h ****                 transport_.SendCommand(0x60);
 256:Display/../../libs/PoliTeKDSP/libs/libDaisy/src/dev/oled_ssd130x.h ****                 // Multiplex Ratio
 257:Display/../../libs/PoliTeKDSP/libs/libDaisy/src/dev/oled_ssd130x.h ****                 transport_.SendCommand(0xA8);
 258:Display/../../libs/PoliTeKDSP/libs/libDaisy/src/dev/oled_ssd130x.h ****                 transport_.SendCommand(0x0F);
 259:Display/../../libs/PoliTeKDSP/libs/libDaisy/src/dev/oled_ssd130x.h ****                 // COM Pins
 260:Display/../../libs/PoliTeKDSP/libs/libDaisy/src/dev/oled_ssd130x.h ****                 transport_.SendCommand(0xDA);
 261:Display/../../libs/PoliTeKDSP/libs/libDaisy/src/dev/oled_ssd130x.h ****                 transport_.SendCommand(0x02);
 262:Display/../../libs/PoliTeKDSP/libs/libDaisy/src/dev/oled_ssd130x.h ****                 break;
 263:Display/../../libs/PoliTeKDSP/libs/libDaisy/src/dev/oled_ssd130x.h ****             case 32:
 264:Display/../../libs/PoliTeKDSP/libs/libDaisy/src/dev/oled_ssd130x.h ****                 // Display Clock Divide Ratio
 265:Display/../../libs/PoliTeKDSP/libs/libDaisy/src/dev/oled_ssd130x.h ****                 transport_.SendCommand(0xD5);
 266:Display/../../libs/PoliTeKDSP/libs/libDaisy/src/dev/oled_ssd130x.h ****                 transport_.SendCommand(0x80);
 267:Display/../../libs/PoliTeKDSP/libs/libDaisy/src/dev/oled_ssd130x.h ****                 // Multiplex Ratio
 268:Display/../../libs/PoliTeKDSP/libs/libDaisy/src/dev/oled_ssd130x.h ****                 transport_.SendCommand(0xA8);
 269:Display/../../libs/PoliTeKDSP/libs/libDaisy/src/dev/oled_ssd130x.h ****                 transport_.SendCommand(0x1F);
 270:Display/../../libs/PoliTeKDSP/libs/libDaisy/src/dev/oled_ssd130x.h ****                 // COM Pins
 271:Display/../../libs/PoliTeKDSP/libs/libDaisy/src/dev/oled_ssd130x.h ****                 transport_.SendCommand(0xDA);
 272:Display/../../libs/PoliTeKDSP/libs/libDaisy/src/dev/oled_ssd130x.h ****                 if(width == 64)
 273:Display/../../libs/PoliTeKDSP/libs/libDaisy/src/dev/oled_ssd130x.h ****                 {
 274:Display/../../libs/PoliTeKDSP/libs/libDaisy/src/dev/oled_ssd130x.h ****                     transport_.SendCommand(0x12);
 275:Display/../../libs/PoliTeKDSP/libs/libDaisy/src/dev/oled_ssd130x.h ****                 }
 276:Display/../../libs/PoliTeKDSP/libs/libDaisy/src/dev/oled_ssd130x.h ****                 else
 277:Display/../../libs/PoliTeKDSP/libs/libDaisy/src/dev/oled_ssd130x.h ****                 {
 278:Display/../../libs/PoliTeKDSP/libs/libDaisy/src/dev/oled_ssd130x.h ****                     transport_.SendCommand(0x02);
 279:Display/../../libs/PoliTeKDSP/libs/libDaisy/src/dev/oled_ssd130x.h ****                 }
 280:Display/../../libs/PoliTeKDSP/libs/libDaisy/src/dev/oled_ssd130x.h **** 
 281:Display/../../libs/PoliTeKDSP/libs/libDaisy/src/dev/oled_ssd130x.h ****                 break;
 282:Display/../../libs/PoliTeKDSP/libs/libDaisy/src/dev/oled_ssd130x.h ****             case 48:
 283:Display/../../libs/PoliTeKDSP/libs/libDaisy/src/dev/oled_ssd130x.h ****                 // Display Clock Divide Ratio
 284:Display/../../libs/PoliTeKDSP/libs/libDaisy/src/dev/oled_ssd130x.h ****                 transport_.SendCommand(0xD5);
 285:Display/../../libs/PoliTeKDSP/libs/libDaisy/src/dev/oled_ssd130x.h ****                 transport_.SendCommand(0x80);
 286:Display/../../libs/PoliTeKDSP/libs/libDaisy/src/dev/oled_ssd130x.h ****                 // Multiplex Ratio
 287:Display/../../libs/PoliTeKDSP/libs/libDaisy/src/dev/oled_ssd130x.h ****                 transport_.SendCommand(0xA8);
 288:Display/../../libs/PoliTeKDSP/libs/libDaisy/src/dev/oled_ssd130x.h ****                 transport_.SendCommand(0x2F);
 289:Display/../../libs/PoliTeKDSP/libs/libDaisy/src/dev/oled_ssd130x.h ****                 // COM Pins
 290:Display/../../libs/PoliTeKDSP/libs/libDaisy/src/dev/oled_ssd130x.h ****                 transport_.SendCommand(0xDA);
 291:Display/../../libs/PoliTeKDSP/libs/libDaisy/src/dev/oled_ssd130x.h ****                 transport_.SendCommand(0x12);
 292:Display/../../libs/PoliTeKDSP/libs/libDaisy/src/dev/oled_ssd130x.h ****                 break;
 293:Display/../../libs/PoliTeKDSP/libs/libDaisy/src/dev/oled_ssd130x.h ****             default: // 128
 294:Display/../../libs/PoliTeKDSP/libs/libDaisy/src/dev/oled_ssd130x.h ****                 // Display Clock Divide Ratio
 295:Display/../../libs/PoliTeKDSP/libs/libDaisy/src/dev/oled_ssd130x.h ****                 transport_.SendCommand(0xD5);
 296:Display/../../libs/PoliTeKDSP/libs/libDaisy/src/dev/oled_ssd130x.h ****                 transport_.SendCommand(0x80);
 297:Display/../../libs/PoliTeKDSP/libs/libDaisy/src/dev/oled_ssd130x.h ****                 // Multiplex Ratio
 298:Display/../../libs/PoliTeKDSP/libs/libDaisy/src/dev/oled_ssd130x.h ****                 transport_.SendCommand(0xA8);
 299:Display/../../libs/PoliTeKDSP/libs/libDaisy/src/dev/oled_ssd130x.h ****                 transport_.SendCommand(0x3F);
 300:Display/../../libs/PoliTeKDSP/libs/libDaisy/src/dev/oled_ssd130x.h ****                 // COM Pins
 301:Display/../../libs/PoliTeKDSP/libs/libDaisy/src/dev/oled_ssd130x.h ****                 transport_.SendCommand(0xDA);
 302:Display/../../libs/PoliTeKDSP/libs/libDaisy/src/dev/oled_ssd130x.h ****                 transport_.SendCommand(0x12);
 303:Display/../../libs/PoliTeKDSP/libs/libDaisy/src/dev/oled_ssd130x.h ****                 break;
 304:Display/../../libs/PoliTeKDSP/libs/libDaisy/src/dev/oled_ssd130x.h ****         }
 305:Display/../../libs/PoliTeKDSP/libs/libDaisy/src/dev/oled_ssd130x.h **** 
 306:Display/../../libs/PoliTeKDSP/libs/libDaisy/src/dev/oled_ssd130x.h ****         // Display Offset
 307:Display/../../libs/PoliTeKDSP/libs/libDaisy/src/dev/oled_ssd130x.h ****         transport_.SendCommand(0xD3);
 308:Display/../../libs/PoliTeKDSP/libs/libDaisy/src/dev/oled_ssd130x.h ****         transport_.SendCommand(0x00);
 309:Display/../../libs/PoliTeKDSP/libs/libDaisy/src/dev/oled_ssd130x.h ****         // Start Line Address
 310:Display/../../libs/PoliTeKDSP/libs/libDaisy/src/dev/oled_ssd130x.h ****         transport_.SendCommand(0x40);
 311:Display/../../libs/PoliTeKDSP/libs/libDaisy/src/dev/oled_ssd130x.h ****         // Normal Display
ARM GAS  C:\Users\matte\AppData\Local\Temp\ccj2OJiD.s 			page 22


 312:Display/../../libs/PoliTeKDSP/libs/libDaisy/src/dev/oled_ssd130x.h ****         transport_.SendCommand(0xA6);
 313:Display/../../libs/PoliTeKDSP/libs/libDaisy/src/dev/oled_ssd130x.h ****         // All On Resume
 314:Display/../../libs/PoliTeKDSP/libs/libDaisy/src/dev/oled_ssd130x.h ****         transport_.SendCommand(0xA4);
 315:Display/../../libs/PoliTeKDSP/libs/libDaisy/src/dev/oled_ssd130x.h ****         // Charge Pump
 316:Display/../../libs/PoliTeKDSP/libs/libDaisy/src/dev/oled_ssd130x.h ****         transport_.SendCommand(0x8D);
 317:Display/../../libs/PoliTeKDSP/libs/libDaisy/src/dev/oled_ssd130x.h ****         transport_.SendCommand(0x14);
 318:Display/../../libs/PoliTeKDSP/libs/libDaisy/src/dev/oled_ssd130x.h ****         // Set Segment Remap
 319:Display/../../libs/PoliTeKDSP/libs/libDaisy/src/dev/oled_ssd130x.h ****         transport_.SendCommand(0xA1);
 320:Display/../../libs/PoliTeKDSP/libs/libDaisy/src/dev/oled_ssd130x.h ****         // COM Output Scan Direction
 321:Display/../../libs/PoliTeKDSP/libs/libDaisy/src/dev/oled_ssd130x.h ****         transport_.SendCommand(0xC8);
 322:Display/../../libs/PoliTeKDSP/libs/libDaisy/src/dev/oled_ssd130x.h ****         // Contrast Control
 323:Display/../../libs/PoliTeKDSP/libs/libDaisy/src/dev/oled_ssd130x.h ****         transport_.SendCommand(0x81);
 324:Display/../../libs/PoliTeKDSP/libs/libDaisy/src/dev/oled_ssd130x.h ****         transport_.SendCommand(0x8F);
 325:Display/../../libs/PoliTeKDSP/libs/libDaisy/src/dev/oled_ssd130x.h ****         // Pre Charge
 326:Display/../../libs/PoliTeKDSP/libs/libDaisy/src/dev/oled_ssd130x.h ****         transport_.SendCommand(0xD9);
 327:Display/../../libs/PoliTeKDSP/libs/libDaisy/src/dev/oled_ssd130x.h ****         transport_.SendCommand(0x25);
 328:Display/../../libs/PoliTeKDSP/libs/libDaisy/src/dev/oled_ssd130x.h ****         // VCOM Detect
 329:Display/../../libs/PoliTeKDSP/libs/libDaisy/src/dev/oled_ssd130x.h ****         transport_.SendCommand(0xDB);
 330:Display/../../libs/PoliTeKDSP/libs/libDaisy/src/dev/oled_ssd130x.h ****         transport_.SendCommand(0x34);
 331:Display/../../libs/PoliTeKDSP/libs/libDaisy/src/dev/oled_ssd130x.h **** 
 332:Display/../../libs/PoliTeKDSP/libs/libDaisy/src/dev/oled_ssd130x.h **** 
 333:Display/../../libs/PoliTeKDSP/libs/libDaisy/src/dev/oled_ssd130x.h ****         // Display On
 334:Display/../../libs/PoliTeKDSP/libs/libDaisy/src/dev/oled_ssd130x.h ****         transport_.SendCommand(0xAF); //--turn on oled panel
 335:Display/../../libs/PoliTeKDSP/libs/libDaisy/src/dev/oled_ssd130x.h ****     };
 336:Display/../../libs/PoliTeKDSP/libs/libDaisy/src/dev/oled_ssd130x.h **** 
 337:Display/../../libs/PoliTeKDSP/libs/libDaisy/src/dev/oled_ssd130x.h ****     size_t Width() const { return width; };
 338:Display/../../libs/PoliTeKDSP/libs/libDaisy/src/dev/oled_ssd130x.h ****     size_t Height() const { return height; };
 339:Display/../../libs/PoliTeKDSP/libs/libDaisy/src/dev/oled_ssd130x.h **** 
 340:Display/../../libs/PoliTeKDSP/libs/libDaisy/src/dev/oled_ssd130x.h ****     void DrawPixel(uint_fast8_t x, uint_fast8_t y, bool on)
 341:Display/../../libs/PoliTeKDSP/libs/libDaisy/src/dev/oled_ssd130x.h ****     {
 342:Display/../../libs/PoliTeKDSP/libs/libDaisy/src/dev/oled_ssd130x.h ****         if(x >= width || y >= height)
 343:Display/../../libs/PoliTeKDSP/libs/libDaisy/src/dev/oled_ssd130x.h ****             return;
 344:Display/../../libs/PoliTeKDSP/libs/libDaisy/src/dev/oled_ssd130x.h ****         if(on)
 345:Display/../../libs/PoliTeKDSP/libs/libDaisy/src/dev/oled_ssd130x.h ****             buffer_[x + (y / 8) * width] |= (1 << (y % 8));
 346:Display/../../libs/PoliTeKDSP/libs/libDaisy/src/dev/oled_ssd130x.h ****         else
 347:Display/../../libs/PoliTeKDSP/libs/libDaisy/src/dev/oled_ssd130x.h ****             buffer_[x + (y / 8) * width] &= ~(1 << (y % 8));
 348:Display/../../libs/PoliTeKDSP/libs/libDaisy/src/dev/oled_ssd130x.h ****     }
 349:Display/../../libs/PoliTeKDSP/libs/libDaisy/src/dev/oled_ssd130x.h **** 
 350:Display/../../libs/PoliTeKDSP/libs/libDaisy/src/dev/oled_ssd130x.h ****     void Fill(bool on)
 208              		.loc 11 350 10 view .LVU28
 209              	.LBB575:
 351:Display/../../libs/PoliTeKDSP/libs/libDaisy/src/dev/oled_ssd130x.h ****     {
 352:Display/../../libs/PoliTeKDSP/libs/libDaisy/src/dev/oled_ssd130x.h ****         for(size_t i = 0; i < sizeof(buffer_); i++)
 210              		.loc 11 352 29 view .LVU29
 353:Display/../../libs/PoliTeKDSP/libs/libDaisy/src/dev/oled_ssd130x.h ****         {
 354:Display/../../libs/PoliTeKDSP/libs/libDaisy/src/dev/oled_ssd130x.h ****             buffer_[i] = on ? 0xff : 0x00;
 211              		.loc 11 354 24 is_stmt 0 view .LVU30
 212 0000 4942     		rsbs	r1, r1, #0
 213              	.LVL8:
 214              		.loc 11 354 24 view .LVU31
 215 0002 4FF48062 		mov	r2, #1024
 216 0006 1030     		adds	r0, r0, #16
 217              	.LVL9:
 218              		.loc 11 354 24 view .LVU32
 219 0008 C9B2     		uxtb	r1, r1
 220 000a FFF7FEBF 		b	memset
 221              	.LVL10:
ARM GAS  C:\Users\matte\AppData\Local\Temp\ccj2OJiD.s 			page 23


 222              		.loc 11 354 24 view .LVU33
 223              	.LBE575:
 224              	.LBE574:
 225              		.cfi_endproc
 226              	.LFE5619:
 228 000e 00BF     		.section	.text._Z13AudioCallbackPKPKfPPfj,"ax",%progbits
 229              		.align	1
 230              		.p2align 2,,3
 231              		.global	_Z13AudioCallbackPKPKfPPfj
 232              		.syntax unified
 233              		.thumb
 234              		.thumb_func
 235              		.fpu fpv5-d16
 237              	_Z13AudioCallbackPKPKfPPfj:
 238              	.LVL11:
 239              	.LFB5025:
 240              		.file 12 "main.cpp"
   1:main.cpp      **** #include "../libs/PoliTeKDSP/libs/libDaisy/src/daisy_seed.h"
   2:main.cpp      **** #include "../libs/PoliTeKDSP/libs/DaisySP/Source/daisysp.h"
   3:main.cpp      **** #include "../libs/PoliTeKDSP/libs/libDaisy/src/hid/encoder.h"
   4:main.cpp      **** #include "Display/displayHandler.h"
   5:main.cpp      **** #include "PSP/PlantConditioner.h"
   6:main.cpp      **** #include "PSP/AudioEngine.h"
   7:main.cpp      **** #include "Display/MenuManager.h"
   8:main.cpp      **** 
   9:main.cpp      **** using namespace daisy;
  10:main.cpp      **** 
  11:main.cpp      **** DaisySeed      hw;
  12:main.cpp      **** Encoder        enc;
  13:main.cpp      **** MenuManager    menu;
  14:main.cpp      **** MyOledDisplay  disp;
  15:main.cpp      **** DisplayHandler disp_handle(&disp);
  16:main.cpp      **** 
  17:main.cpp      **** PlantConditioner pc;
  18:main.cpp      **** AudioEngine      synth;
  19:main.cpp      **** 
  20:main.cpp      **** ControlsStruct audio_controls = {440.0f, false};
  21:main.cpp      **** 
  22:main.cpp      **** void AudioCallback(AudioHandle::InputBuffer in, AudioHandle::OutputBuffer out, size_t size) {
 241              		.loc 12 22 93 is_stmt 1 view -0
 242              		.cfi_startproc
 243              		@ args = 0, pretend = 0, frame = 0
 244              		@ frame_needed = 0, uses_anonymous_args = 0
  23:main.cpp      ****     // 1. Aggiorna il synth con i parametri calcolati nel main
  24:main.cpp      ****     synth.Update(audio_controls);
 245              		.loc 12 24 5 view .LVU35
 246              		.loc 12 24 17 is_stmt 0 view .LVU36
 247 0000 124B     		ldr	r3, .L16
 248 0002 1348     		ldr	r0, .L16+4
 249              	.LVL12:
  22:main.cpp      ****     // 1. Aggiorna il synth con i parametri calcolati nel main
 250              		.loc 12 22 93 view .LVU37
 251 0004 70B5     		push	{r4, r5, r6, lr}
 252              		.cfi_def_cfa_offset 16
 253              		.cfi_offset 4, -16
 254              		.cfi_offset 5, -12
 255              		.cfi_offset 6, -8
ARM GAS  C:\Users\matte\AppData\Local\Temp\ccj2OJiD.s 			page 24


 256              		.cfi_offset 14, -4
 257 0006 1646     		mov	r6, r2
 258 0008 0D46     		mov	r5, r1
 259 000a 2DED028B 		vpush.64	{d8}
 260              		.cfi_def_cfa_offset 24
 261              		.cfi_offset 80, -24
 262              		.cfi_offset 81, -20
 263              		.loc 12 24 17 view .LVU38
 264 000e 93E80600 		ldm	r3, {r1, r2}
 265              	.LVL13:
 266              		.loc 12 24 17 view .LVU39
 267 0012 FFF7FEFF 		bl	_ZN11AudioEngine6UpdateE14ControlsStruct
 268              	.LVL14:
  25:main.cpp      **** 
  26:main.cpp      ****     for (size_t i = 0; i < size; i++) {
 269              		.loc 12 26 5 is_stmt 1 view .LVU40
 270              	.LBB576:
 271              		.loc 12 26 26 view .LVU41
 272 0016 AEB1     		cbz	r6, .L8
 273              		.loc 12 26 17 is_stmt 0 view .LVU42
 274 0018 0024     		movs	r4, #0
 275              	.LVL15:
 276              	.L10:
 277              	.LBB577:
  27:main.cpp      ****         float sig = synth.Process();
 278              		.loc 12 27 9 is_stmt 1 discriminator 2 view .LVU43
 279              		.loc 12 27 34 is_stmt 0 discriminator 2 view .LVU44
 280 001a 0D48     		ldr	r0, .L16+4
 281 001c FFF7FEFF 		bl	_ZN11AudioEngine7ProcessEv
 282              	.LVL16:
  28:main.cpp      ****         
  29:main.cpp      ****         // Passa il campione per la visualizzazione dell'onda
  30:main.cpp      ****         disp_handle.pushAudioSample(sig);
 283              		.loc 12 30 36 discriminator 2 view .LVU45
 284 0020 0C48     		ldr	r0, .L16+8
  27:main.cpp      ****         float sig = synth.Process();
 285              		.loc 12 27 34 discriminator 2 view .LVU46
 286 0022 B0EE408A 		vmov.f32	s16, s0
 287              	.LVL17:
 288              		.loc 12 30 9 is_stmt 1 discriminator 2 view .LVU47
 289              		.loc 12 30 36 is_stmt 0 discriminator 2 view .LVU48
 290 0026 FFF7FEFF 		bl	_ZN14DisplayHandler15pushAudioSampleEf
 291              	.LVL18:
  31:main.cpp      **** 
  32:main.cpp      ****         out[0][i] = out[1][i] = sig;
 292              		.loc 12 32 9 is_stmt 1 discriminator 2 view .LVU49
 293              		.loc 12 32 19 is_stmt 0 discriminator 2 view .LVU50
 294 002a D5E90030 		ldrd	r3, r0, [r5]
 295              		.loc 12 32 31 discriminator 2 view .LVU51
 296 002e 00EB8400 		add	r0, r0, r4, lsl #2
 297              		.loc 12 32 19 discriminator 2 view .LVU52
 298 0032 03EB8403 		add	r3, r3, r4, lsl #2
 299              	.LBE577:
  26:main.cpp      ****         float sig = synth.Process();
 300              		.loc 12 26 5 discriminator 2 view .LVU53
 301 0036 0134     		adds	r4, r4, #1
 302              	.LVL19:
ARM GAS  C:\Users\matte\AppData\Local\Temp\ccj2OJiD.s 			page 25


 303              	.LBB578:
 304              		.loc 12 32 31 discriminator 2 view .LVU54
 305 0038 80ED008A 		vstr.32	s16, [r0]
 306              	.LBE578:
  26:main.cpp      ****         float sig = synth.Process();
 307              		.loc 12 26 26 discriminator 2 view .LVU55
 308 003c A642     		cmp	r6, r4
 309              	.LBB579:
 310              		.loc 12 32 19 discriminator 2 view .LVU56
 311 003e 83ED008A 		vstr.32	s16, [r3]
 312              	.LBE579:
  26:main.cpp      ****         float sig = synth.Process();
 313              		.loc 12 26 5 is_stmt 1 discriminator 2 view .LVU57
 314              	.LVL20:
  26:main.cpp      ****         float sig = synth.Process();
 315              		.loc 12 26 26 discriminator 2 view .LVU58
 316 0042 EAD1     		bne	.L10
 317              	.LVL21:
 318              	.L8:
  26:main.cpp      ****         float sig = synth.Process();
 319              		.loc 12 26 26 is_stmt 0 discriminator 2 view .LVU59
 320              	.LBE576:
  33:main.cpp      ****     }
  34:main.cpp      **** }
 321              		.loc 12 34 1 view .LVU60
 322 0044 BDEC028B 		vldm	sp!, {d8}
 323              		.cfi_restore 80
 324              		.cfi_restore 81
 325              		.cfi_def_cfa_offset 16
 326 0048 70BD     		pop	{r4, r5, r6, pc}
 327              	.LVL22:
 328              	.L17:
 329              		.loc 12 34 1 view .LVU61
 330 004a 00BF     		.align	2
 331              	.L16:
 332 004c 00000000 		.word	.LANCHOR0
 333 0050 00000000 		.word	synth
 334 0054 00000000 		.word	.LANCHOR1
 335              		.cfi_endproc
 336              	.LFE5025:
 338              		.section	.text._ZN5daisy11OledDisplayINS_13SSD130xDriverILj128ELj64ENS_19SSD130xI2CTransportEEEED0
 339              		.align	1
 340              		.p2align 2,,3
 341              		.weak	_ZN5daisy11OledDisplayINS_13SSD130xDriverILj128ELj64ENS_19SSD130xI2CTransportEEEED0Ev
 342              		.syntax unified
 343              		.thumb
 344              		.thumb_func
 345              		.fpu fpv5-d16
 347              	_ZN5daisy11OledDisplayINS_13SSD130xDriverILj128ELj64ENS_19SSD130xI2CTransportEEEED0Ev:
 348              	.LVL23:
 349              	.LFB5616:
  18:../libs/PoliTeKDSP/libs/libDaisy/src/hid/disp/oled_display.h **** 
 350              		.loc 9 18 13 is_stmt 1 view -0
 351              		.cfi_startproc
 352              		@ args = 0, pretend = 0, frame = 0
 353              		@ frame_needed = 0, uses_anonymous_args = 0
  18:../libs/PoliTeKDSP/libs/libDaisy/src/hid/disp/oled_display.h **** 
ARM GAS  C:\Users\matte\AppData\Local\Temp\ccj2OJiD.s 			page 26


 354              		.loc 9 18 13 is_stmt 0 view .LVU63
 355 0000 10B5     		push	{r4, lr}
 356              		.cfi_def_cfa_offset 8
 357              		.cfi_offset 4, -8
 358              		.cfi_offset 14, -4
  18:../libs/PoliTeKDSP/libs/libDaisy/src/hid/disp/oled_display.h **** 
 359              		.loc 9 18 13 view .LVU64
 360 0002 0446     		mov	r4, r0
 361              	.LVL24:
 362              	.LBB580:
 363              	.LBI580:
  18:../libs/PoliTeKDSP/libs/libDaisy/src/hid/disp/oled_display.h **** 
 364              		.loc 9 18 13 is_stmt 1 view .LVU65
 365              	.LBB581:
 366              	.LBI581:
 367              		.loc 10 219 13 view .LVU66
 368              	.LBB582:
 369              	.LBI582:
  23:../libs/PoliTeKDSP/libs/libDaisy/src/hid/disp/display.h **** 
 370              		.loc 10 23 13 view .LVU67
  23:../libs/PoliTeKDSP/libs/libDaisy/src/hid/disp/display.h **** 
 371              		.loc 10 23 13 is_stmt 0 view .LVU68
 372              	.LBE582:
 373              	.LBE581:
 374              	.LBE580:
  18:../libs/PoliTeKDSP/libs/libDaisy/src/hid/disp/oled_display.h **** 
 375              		.loc 9 18 29 view .LVU69
 376 0004 4FF48261 		mov	r1, #1040
 377 0008 FFF7FEFF 		bl	_ZdlPvj
 378              	.LVL25:
  18:../libs/PoliTeKDSP/libs/libDaisy/src/hid/disp/oled_display.h **** 
 379              		.loc 9 18 29 view .LVU70
 380 000c 2046     		mov	r0, r4
 381 000e 10BD     		pop	{r4, pc}
  18:../libs/PoliTeKDSP/libs/libDaisy/src/hid/disp/oled_display.h **** 
 382              		.loc 9 18 29 view .LVU71
 383              		.cfi_endproc
 384              	.LFE5616:
 386              		.section	.text._ZN5daisy11OledDisplayINS_13SSD130xDriverILj128ELj64ENS_19SSD130xI2CTransportEEEE6U
 387              		.align	1
 388              		.p2align 2,,3
 389              		.weak	_ZN5daisy11OledDisplayINS_13SSD130xDriverILj128ELj64ENS_19SSD130xI2CTransportEEEE6UpdateEv
 390              		.syntax unified
 391              		.thumb
 392              		.thumb_func
 393              		.fpu fpv5-d16
 395              	_ZN5daisy11OledDisplayINS_13SSD130xDriverILj128ELj64ENS_19SSD130xI2CTransportEEEE6UpdateEv:
 396              	.LVL26:
 397              	.LFB5627:
  35:../libs/PoliTeKDSP/libs/libDaisy/src/hid/disp/oled_display.h **** 
  36:../libs/PoliTeKDSP/libs/libDaisy/src/hid/disp/oled_display.h ****     /**
  37:../libs/PoliTeKDSP/libs/libDaisy/src/hid/disp/oled_display.h ****     Sets the pixel at the specified coordinate to be on/off.
  38:../libs/PoliTeKDSP/libs/libDaisy/src/hid/disp/oled_display.h ****     \param x   x Coordinate
  39:../libs/PoliTeKDSP/libs/libDaisy/src/hid/disp/oled_display.h ****     \param y   y coordinate
  40:../libs/PoliTeKDSP/libs/libDaisy/src/hid/disp/oled_display.h ****     \param on  on or off
  41:../libs/PoliTeKDSP/libs/libDaisy/src/hid/disp/oled_display.h ****     */
  42:../libs/PoliTeKDSP/libs/libDaisy/src/hid/disp/oled_display.h ****     void DrawPixel(uint_fast8_t x, uint_fast8_t y, bool on) override
ARM GAS  C:\Users\matte\AppData\Local\Temp\ccj2OJiD.s 			page 27


  43:../libs/PoliTeKDSP/libs/libDaisy/src/hid/disp/oled_display.h ****     {
  44:../libs/PoliTeKDSP/libs/libDaisy/src/hid/disp/oled_display.h ****         driver_.DrawPixel(x, y, on);
  45:../libs/PoliTeKDSP/libs/libDaisy/src/hid/disp/oled_display.h ****     }
  46:../libs/PoliTeKDSP/libs/libDaisy/src/hid/disp/oled_display.h **** 
  47:../libs/PoliTeKDSP/libs/libDaisy/src/hid/disp/oled_display.h ****     /** 
  48:../libs/PoliTeKDSP/libs/libDaisy/src/hid/disp/oled_display.h ****     Writes the current display buffer to the OLED device using SPI or I2C depending on 
  49:../libs/PoliTeKDSP/libs/libDaisy/src/hid/disp/oled_display.h ****     how the object was initialized.
  50:../libs/PoliTeKDSP/libs/libDaisy/src/hid/disp/oled_display.h ****     */
  51:../libs/PoliTeKDSP/libs/libDaisy/src/hid/disp/oled_display.h ****     void Update() override { driver_.Update(); }
 398              		.loc 9 51 10 is_stmt 1 view -0
 399              		.cfi_startproc
 400              		@ args = 0, pretend = 0, frame = 8
 401              		@ frame_needed = 0, uses_anonymous_args = 0
 402              		.loc 9 51 10 is_stmt 0 view .LVU73
 403 0000 2DE9F04F 		push	{r4, r5, r6, r7, r8, r9, r10, fp, lr}
 404              		.cfi_def_cfa_offset 36
 405              		.cfi_offset 4, -36
 406              		.cfi_offset 5, -32
 407              		.cfi_offset 6, -28
 408              		.cfi_offset 7, -24
 409              		.cfi_offset 8, -20
 410              		.cfi_offset 9, -16
 411              		.cfi_offset 10, -12
 412              		.cfi_offset 11, -8
 413              		.cfi_offset 14, -4
 414              	.LBB595:
 415              	.LBB596:
 416              	.LBB597:
 417              	.LBB598:
  45:Display/../../libs/PoliTeKDSP/libs/libDaisy/src/dev/oled_ssd130x.h ****     };
 418              		.loc 11 45 30 view .LVU74
 419 0004 4FF0B008 		mov	r8, #176
 420              	.LBE598:
 421              	.LBE597:
 422              	.LBE596:
 423              	.LBE595:
 424              		.loc 9 51 10 view .LVU75
 425 0008 85B0     		sub	sp, sp, #20
 426              		.cfi_def_cfa_offset 56
 427              		.loc 9 51 10 view .LVU76
 428 000a 0546     		mov	r5, r0
 429              	.LVL27:
 430              	.LBB610:
 431              	.LBI595:
 355:Display/../../libs/PoliTeKDSP/libs/libDaisy/src/dev/oled_ssd130x.h ****         }
 356:Display/../../libs/PoliTeKDSP/libs/libDaisy/src/dev/oled_ssd130x.h ****     };
 357:Display/../../libs/PoliTeKDSP/libs/libDaisy/src/dev/oled_ssd130x.h **** 
 358:Display/../../libs/PoliTeKDSP/libs/libDaisy/src/dev/oled_ssd130x.h ****     /**
 359:Display/../../libs/PoliTeKDSP/libs/libDaisy/src/dev/oled_ssd130x.h ****      * Update the display 
 360:Display/../../libs/PoliTeKDSP/libs/libDaisy/src/dev/oled_ssd130x.h ****     */
 361:Display/../../libs/PoliTeKDSP/libs/libDaisy/src/dev/oled_ssd130x.h ****     void Update()
 432              		.loc 11 361 10 is_stmt 1 view .LVU77
 433              	.LBB609:
 362:Display/../../libs/PoliTeKDSP/libs/libDaisy/src/dev/oled_ssd130x.h ****     {
 363:Display/../../libs/PoliTeKDSP/libs/libDaisy/src/dev/oled_ssd130x.h ****         uint8_t i;
 364:Display/../../libs/PoliTeKDSP/libs/libDaisy/src/dev/oled_ssd130x.h ****         uint8_t high_column_addr;
 365:Display/../../libs/PoliTeKDSP/libs/libDaisy/src/dev/oled_ssd130x.h ****         switch(height)
ARM GAS  C:\Users\matte\AppData\Local\Temp\ccj2OJiD.s 			page 28


 366:Display/../../libs/PoliTeKDSP/libs/libDaisy/src/dev/oled_ssd130x.h ****         {
 367:Display/../../libs/PoliTeKDSP/libs/libDaisy/src/dev/oled_ssd130x.h ****             case 32: high_column_addr = 0x12; break;
 368:Display/../../libs/PoliTeKDSP/libs/libDaisy/src/dev/oled_ssd130x.h **** 
 369:Display/../../libs/PoliTeKDSP/libs/libDaisy/src/dev/oled_ssd130x.h ****             default: high_column_addr = 0x10; break;
 370:Display/../../libs/PoliTeKDSP/libs/libDaisy/src/dev/oled_ssd130x.h ****         }
 371:Display/../../libs/PoliTeKDSP/libs/libDaisy/src/dev/oled_ssd130x.h ****         for(i = 0; i < (height / 8); i++)
 434              		.loc 11 371 22 view .LVU78
 435              	.LBB601:
 436              	.LBB599:
  45:Display/../../libs/PoliTeKDSP/libs/libDaisy/src/dev/oled_ssd130x.h ****     };
 437              		.loc 11 45 30 is_stmt 0 view .LVU79
 438 000c 00F10807 		add	r7, r0, #8
 439              	.LVL28:
  45:Display/../../libs/PoliTeKDSP/libs/libDaisy/src/dev/oled_ssd130x.h ****     };
 440              		.loc 11 45 30 view .LVU80
 441 0010 00F18F06 		add	r6, r0, #143
 442 0014 00F28F49 		addw	r9, r0, #1167
 443              	.LVL29:
 444              	.L22:
  45:Display/../../libs/PoliTeKDSP/libs/libDaisy/src/dev/oled_ssd130x.h ****     };
 445              		.loc 11 45 30 view .LVU81
 446              	.LBE599:
 447              	.LBI597:
  42:Display/../../libs/PoliTeKDSP/libs/libDaisy/src/dev/oled_ssd130x.h ****     {
 448              		.loc 11 42 10 is_stmt 1 view .LVU82
 449              	.LBB600:
  44:Display/../../libs/PoliTeKDSP/libs/libDaisy/src/dev/oled_ssd130x.h ****         i2c_.TransmitBlocking(i2c_address_, buf, 2, 1000);
 450              		.loc 11 44 9 view .LVU83
  45:Display/../../libs/PoliTeKDSP/libs/libDaisy/src/dev/oled_ssd130x.h ****     };
 451              		.loc 11 45 30 is_stmt 0 view .LVU84
 452 0018 4FF47A7B 		mov	fp, #1000
  44:Display/../../libs/PoliTeKDSP/libs/libDaisy/src/dev/oled_ssd130x.h ****         i2c_.TransmitBlocking(i2c_address_, buf, 2, 1000);
 453              		.loc 11 44 17 view .LVU85
 454 001c 4FF0000A 		mov	r10, #0
  45:Display/../../libs/PoliTeKDSP/libs/libDaisy/src/dev/oled_ssd130x.h ****     };
 455              		.loc 11 45 30 view .LVU86
 456 0020 297B     		ldrb	r1, [r5, #12]	@ zero_extendqisi2
 457 0022 0223     		movs	r3, #2
 458 0024 03AA     		add	r2, sp, #12
 459 0026 3846     		mov	r0, r7
 460 0028 CDF800B0 		str	fp, [sp]
 461 002c A6F18004 		sub	r4, r6, #128
  44:Display/../../libs/PoliTeKDSP/libs/libDaisy/src/dev/oled_ssd130x.h ****         i2c_.TransmitBlocking(i2c_address_, buf, 2, 1000);
 462              		.loc 11 44 17 view .LVU87
 463 0030 8DF80CA0 		strb	r10, [sp, #12]
  44:Display/../../libs/PoliTeKDSP/libs/libDaisy/src/dev/oled_ssd130x.h ****         i2c_.TransmitBlocking(i2c_address_, buf, 2, 1000);
 464              		.loc 11 44 36 view .LVU88
 465 0034 8DF80D80 		strb	r8, [sp, #13]
  45:Display/../../libs/PoliTeKDSP/libs/libDaisy/src/dev/oled_ssd130x.h ****     };
 466              		.loc 11 45 9 is_stmt 1 view .LVU89
  45:Display/../../libs/PoliTeKDSP/libs/libDaisy/src/dev/oled_ssd130x.h ****     };
 467              		.loc 11 45 30 is_stmt 0 view .LVU90
 468 0038 FFF7FEFF 		bl	_ZN5daisy9I2CHandle16TransmitBlockingEtPhtm
 469              	.LVL30:
  45:Display/../../libs/PoliTeKDSP/libs/libDaisy/src/dev/oled_ssd130x.h ****     };
 470              		.loc 11 45 30 view .LVU91
 471              	.LBE600:
ARM GAS  C:\Users\matte\AppData\Local\Temp\ccj2OJiD.s 			page 29


 472              	.LBE601:
 473              	.LBB602:
 474              	.LBI602:
  42:Display/../../libs/PoliTeKDSP/libs/libDaisy/src/dev/oled_ssd130x.h ****     {
 475              		.loc 11 42 10 is_stmt 1 view .LVU92
 476              	.LBB603:
  44:Display/../../libs/PoliTeKDSP/libs/libDaisy/src/dev/oled_ssd130x.h ****         i2c_.TransmitBlocking(i2c_address_, buf, 2, 1000);
 477              		.loc 11 44 9 view .LVU93
  45:Display/../../libs/PoliTeKDSP/libs/libDaisy/src/dev/oled_ssd130x.h ****     };
 478              		.loc 11 45 30 is_stmt 0 view .LVU94
 479 003c 297B     		ldrb	r1, [r5, #12]	@ zero_extendqisi2
 480 003e 0223     		movs	r3, #2
 481 0040 03AA     		add	r2, sp, #12
 482 0042 3846     		mov	r0, r7
 483 0044 CDF800B0 		str	fp, [sp]
  44:Display/../../libs/PoliTeKDSP/libs/libDaisy/src/dev/oled_ssd130x.h ****         i2c_.TransmitBlocking(i2c_address_, buf, 2, 1000);
 484              		.loc 11 44 17 view .LVU95
 485 0048 8DF80CA0 		strb	r10, [sp, #12]
  44:Display/../../libs/PoliTeKDSP/libs/libDaisy/src/dev/oled_ssd130x.h ****         i2c_.TransmitBlocking(i2c_address_, buf, 2, 1000);
 486              		.loc 11 44 36 view .LVU96
 487 004c 8DF80DA0 		strb	r10, [sp, #13]
  45:Display/../../libs/PoliTeKDSP/libs/libDaisy/src/dev/oled_ssd130x.h ****     };
 488              		.loc 11 45 9 is_stmt 1 view .LVU97
  45:Display/../../libs/PoliTeKDSP/libs/libDaisy/src/dev/oled_ssd130x.h ****     };
 489              		.loc 11 45 30 is_stmt 0 view .LVU98
 490 0050 FFF7FEFF 		bl	_ZN5daisy9I2CHandle16TransmitBlockingEtPhtm
 491              	.LVL31:
  45:Display/../../libs/PoliTeKDSP/libs/libDaisy/src/dev/oled_ssd130x.h ****     };
 492              		.loc 11 45 30 view .LVU99
 493              	.LBE603:
 494              	.LBE602:
 495              	.LBB604:
 496              	.LBI604:
  42:Display/../../libs/PoliTeKDSP/libs/libDaisy/src/dev/oled_ssd130x.h ****     {
 497              		.loc 11 42 10 is_stmt 1 view .LVU100
 498              	.LBB605:
  44:Display/../../libs/PoliTeKDSP/libs/libDaisy/src/dev/oled_ssd130x.h ****         i2c_.TransmitBlocking(i2c_address_, buf, 2, 1000);
 499              		.loc 11 44 9 view .LVU101
  44:Display/../../libs/PoliTeKDSP/libs/libDaisy/src/dev/oled_ssd130x.h ****         i2c_.TransmitBlocking(i2c_address_, buf, 2, 1000);
 500              		.loc 11 44 36 is_stmt 0 view .LVU102
 501 0054 4FF0100C 		mov	ip, #16
  45:Display/../../libs/PoliTeKDSP/libs/libDaisy/src/dev/oled_ssd130x.h ****     };
 502              		.loc 11 45 30 view .LVU103
 503 0058 297B     		ldrb	r1, [r5, #12]	@ zero_extendqisi2
 504 005a 0223     		movs	r3, #2
 505 005c 03AA     		add	r2, sp, #12
 506 005e 3846     		mov	r0, r7
 507 0060 CDF800B0 		str	fp, [sp]
  44:Display/../../libs/PoliTeKDSP/libs/libDaisy/src/dev/oled_ssd130x.h ****         i2c_.TransmitBlocking(i2c_address_, buf, 2, 1000);
 508              		.loc 11 44 17 view .LVU104
 509 0064 8DF80CA0 		strb	r10, [sp, #12]
  44:Display/../../libs/PoliTeKDSP/libs/libDaisy/src/dev/oled_ssd130x.h ****         i2c_.TransmitBlocking(i2c_address_, buf, 2, 1000);
 510              		.loc 11 44 36 view .LVU105
 511 0068 8DF80DC0 		strb	ip, [sp, #13]
  45:Display/../../libs/PoliTeKDSP/libs/libDaisy/src/dev/oled_ssd130x.h ****     };
 512              		.loc 11 45 9 is_stmt 1 view .LVU106
  45:Display/../../libs/PoliTeKDSP/libs/libDaisy/src/dev/oled_ssd130x.h ****     };
ARM GAS  C:\Users\matte\AppData\Local\Temp\ccj2OJiD.s 			page 30


 513              		.loc 11 45 30 is_stmt 0 view .LVU107
 514 006c FFF7FEFF 		bl	_ZN5daisy9I2CHandle16TransmitBlockingEtPhtm
 515              	.LVL32:
  45:Display/../../libs/PoliTeKDSP/libs/libDaisy/src/dev/oled_ssd130x.h ****     };
 516              		.loc 11 45 30 view .LVU108
 517              	.LBE605:
 518              	.LBE604:
 519              	.LBB606:
 520              	.LBI606:
  48:Display/../../libs/PoliTeKDSP/libs/libDaisy/src/dev/oled_ssd130x.h ****     {
 521              		.loc 11 48 10 is_stmt 1 view .LVU109
 522              	.LBB607:
  50:Display/../../libs/PoliTeKDSP/libs/libDaisy/src/dev/oled_ssd130x.h ****         {
 523              		.loc 11 50 29 view .LVU110
 524              	.L21:
 525              	.LBB608:
  52:Display/../../libs/PoliTeKDSP/libs/libDaisy/src/dev/oled_ssd130x.h ****             i2c_.TransmitBlocking(i2c_address_, buf, 2, 1000);
 526              		.loc 11 52 13 view .LVU111
  53:Display/../../libs/PoliTeKDSP/libs/libDaisy/src/dev/oled_ssd130x.h ****         }
 527              		.loc 11 53 34 is_stmt 0 view .LVU112
 528 0070 4FF47A70 		mov	r0, #1000
  52:Display/../../libs/PoliTeKDSP/libs/libDaisy/src/dev/oled_ssd130x.h ****             i2c_.TransmitBlocking(i2c_address_, buf, 2, 1000);
 529              		.loc 11 52 44 view .LVU113
 530 0074 14F801CF 		ldrb	ip, [r4, #1]!	@ zero_extendqisi2
 531              	.LVL33:
  52:Display/../../libs/PoliTeKDSP/libs/libDaisy/src/dev/oled_ssd130x.h ****             i2c_.TransmitBlocking(i2c_address_, buf, 2, 1000);
 532              		.loc 11 52 21 view .LVU114
 533 0078 4FF0400E 		mov	lr, #64
  53:Display/../../libs/PoliTeKDSP/libs/libDaisy/src/dev/oled_ssd130x.h ****         }
 534              		.loc 11 53 34 view .LVU115
 535 007c 297B     		ldrb	r1, [r5, #12]	@ zero_extendqisi2
 536 007e 0223     		movs	r3, #2
 537 0080 0090     		str	r0, [sp]
 538 0082 03AA     		add	r2, sp, #12
 539 0084 3846     		mov	r0, r7
  52:Display/../../libs/PoliTeKDSP/libs/libDaisy/src/dev/oled_ssd130x.h ****             i2c_.TransmitBlocking(i2c_address_, buf, 2, 1000);
 540              		.loc 11 52 21 view .LVU116
 541 0086 8DF80CE0 		strb	lr, [sp, #12]
  52:Display/../../libs/PoliTeKDSP/libs/libDaisy/src/dev/oled_ssd130x.h ****             i2c_.TransmitBlocking(i2c_address_, buf, 2, 1000);
 542              		.loc 11 52 44 view .LVU117
 543 008a 8DF80DC0 		strb	ip, [sp, #13]
  53:Display/../../libs/PoliTeKDSP/libs/libDaisy/src/dev/oled_ssd130x.h ****         }
 544              		.loc 11 53 13 is_stmt 1 view .LVU118
  53:Display/../../libs/PoliTeKDSP/libs/libDaisy/src/dev/oled_ssd130x.h ****         }
 545              		.loc 11 53 34 is_stmt 0 view .LVU119
 546 008e FFF7FEFF 		bl	_ZN5daisy9I2CHandle16TransmitBlockingEtPhtm
 547              	.LVL34:
 548              	.LBE608:
  50:Display/../../libs/PoliTeKDSP/libs/libDaisy/src/dev/oled_ssd130x.h ****         {
 549              		.loc 11 50 9 is_stmt 1 view .LVU120
  50:Display/../../libs/PoliTeKDSP/libs/libDaisy/src/dev/oled_ssd130x.h ****         {
 550              		.loc 11 50 29 view .LVU121
 551 0092 B442     		cmp	r4, r6
 552 0094 ECD1     		bne	.L21
 553              	.LVL35:
  50:Display/../../libs/PoliTeKDSP/libs/libDaisy/src/dev/oled_ssd130x.h ****         {
 554              		.loc 11 50 29 is_stmt 0 view .LVU122
ARM GAS  C:\Users\matte\AppData\Local\Temp\ccj2OJiD.s 			page 31


 555              	.LBE607:
 556              	.LBE606:
 557              		.loc 11 371 9 is_stmt 1 view .LVU123
 558              		.loc 11 371 22 view .LVU124
 559 0096 04F18006 		add	r6, r4, #128
 560 009a 08F10108 		add	r8, r8, #1
 561              	.LVL36:
 562              		.loc 11 371 22 is_stmt 0 view .LVU125
 563 009e 4E45     		cmp	r6, r9
 564 00a0 5FFA88F8 		uxtb	r8, r8
 565 00a4 B8D1     		bne	.L22
 566              	.LBE609:
 567              	.LBE610:
 568              		.loc 9 51 48 view .LVU126
 569 00a6 05B0     		add	sp, sp, #20
 570              		.cfi_def_cfa_offset 36
 571              		@ sp needed
 572 00a8 BDE8F08F 		pop	{r4, r5, r6, r7, r8, r9, r10, fp, pc}
 573              		.loc 9 51 48 view .LVU127
 574              		.cfi_endproc
 575              	.LFE5627:
 577              		.section	.text._ZN5daisy25OneBitGraphicsDisplayImplINS_11OledDisplayINS_13SSD130xDriverILj128ELj64
 578              		.align	1
 579              		.p2align 2,,3
 580              		.weak	_ZN5daisy25OneBitGraphicsDisplayImplINS_11OledDisplayINS_13SSD130xDriverILj128ELj64ENS_19SSD
 581              		.syntax unified
 582              		.thumb
 583              		.thumb_func
 584              		.fpu fpv5-d16
 586              	_ZN5daisy25OneBitGraphicsDisplayImplINS_11OledDisplayINS_13SSD130xDriverILj128ELj64ENS_19SSD130xI2C
 587              	.LVL37:
 588              	.LFB5625:
 220:../libs/PoliTeKDSP/libs/libDaisy/src/hid/disp/display.h **** 
 221:../libs/PoliTeKDSP/libs/libDaisy/src/hid/disp/display.h ****     void DrawLine(uint_fast8_t x1,
 222:../libs/PoliTeKDSP/libs/libDaisy/src/hid/disp/display.h ****                   uint_fast8_t y1,
 223:../libs/PoliTeKDSP/libs/libDaisy/src/hid/disp/display.h ****                   uint_fast8_t x2,
 224:../libs/PoliTeKDSP/libs/libDaisy/src/hid/disp/display.h ****                   uint_fast8_t y2,
 225:../libs/PoliTeKDSP/libs/libDaisy/src/hid/disp/display.h ****                   bool         on) override
 226:../libs/PoliTeKDSP/libs/libDaisy/src/hid/disp/display.h ****     {
 227:../libs/PoliTeKDSP/libs/libDaisy/src/hid/disp/display.h ****         int_fast16_t deltaX = abs((int_fast16_t)x2 - (int_fast16_t)x1);
 228:../libs/PoliTeKDSP/libs/libDaisy/src/hid/disp/display.h ****         int_fast16_t deltaY = abs((int_fast16_t)y2 - (int_fast16_t)y1);
 229:../libs/PoliTeKDSP/libs/libDaisy/src/hid/disp/display.h ****         int_fast16_t signX  = ((x1 < x2) ? 1 : -1);
 230:../libs/PoliTeKDSP/libs/libDaisy/src/hid/disp/display.h ****         int_fast16_t signY  = ((y1 < y2) ? 1 : -1);
 231:../libs/PoliTeKDSP/libs/libDaisy/src/hid/disp/display.h ****         int_fast16_t error  = deltaX - deltaY;
 232:../libs/PoliTeKDSP/libs/libDaisy/src/hid/disp/display.h ****         int_fast16_t error2;
 233:../libs/PoliTeKDSP/libs/libDaisy/src/hid/disp/display.h **** 
 234:../libs/PoliTeKDSP/libs/libDaisy/src/hid/disp/display.h ****         // If we write "ChildType::DrawPixel(x2, y2, on);", we end up with
 235:../libs/PoliTeKDSP/libs/libDaisy/src/hid/disp/display.h ****         // all sorts of weird compiler errors when the Child class is a template
 236:../libs/PoliTeKDSP/libs/libDaisy/src/hid/disp/display.h ****         // class. The only way around this is to use this very verbose syntax:
 237:../libs/PoliTeKDSP/libs/libDaisy/src/hid/disp/display.h ****         ((ChildType*)(this))->ChildType::DrawPixel(x2, y2, on);
 238:../libs/PoliTeKDSP/libs/libDaisy/src/hid/disp/display.h **** 
 239:../libs/PoliTeKDSP/libs/libDaisy/src/hid/disp/display.h ****         while((x1 != x2) || (y1 != y2))
 240:../libs/PoliTeKDSP/libs/libDaisy/src/hid/disp/display.h ****         {
 241:../libs/PoliTeKDSP/libs/libDaisy/src/hid/disp/display.h ****             ((ChildType*)(this))->ChildType::DrawPixel(x1, y1, on);
 242:../libs/PoliTeKDSP/libs/libDaisy/src/hid/disp/display.h ****             error2 = error * 2;
 243:../libs/PoliTeKDSP/libs/libDaisy/src/hid/disp/display.h ****             if(error2 > -deltaY)
 244:../libs/PoliTeKDSP/libs/libDaisy/src/hid/disp/display.h ****             {
ARM GAS  C:\Users\matte\AppData\Local\Temp\ccj2OJiD.s 			page 32


 245:../libs/PoliTeKDSP/libs/libDaisy/src/hid/disp/display.h ****                 error -= deltaY;
 246:../libs/PoliTeKDSP/libs/libDaisy/src/hid/disp/display.h ****                 x1 += signX;
 247:../libs/PoliTeKDSP/libs/libDaisy/src/hid/disp/display.h ****             }
 248:../libs/PoliTeKDSP/libs/libDaisy/src/hid/disp/display.h **** 
 249:../libs/PoliTeKDSP/libs/libDaisy/src/hid/disp/display.h ****             if(error2 < deltaX)
 250:../libs/PoliTeKDSP/libs/libDaisy/src/hid/disp/display.h ****             {
 251:../libs/PoliTeKDSP/libs/libDaisy/src/hid/disp/display.h ****                 error += deltaX;
 252:../libs/PoliTeKDSP/libs/libDaisy/src/hid/disp/display.h ****                 y1 += signY;
 253:../libs/PoliTeKDSP/libs/libDaisy/src/hid/disp/display.h ****             }
 254:../libs/PoliTeKDSP/libs/libDaisy/src/hid/disp/display.h ****         }
 255:../libs/PoliTeKDSP/libs/libDaisy/src/hid/disp/display.h ****     }
 256:../libs/PoliTeKDSP/libs/libDaisy/src/hid/disp/display.h **** 
 257:../libs/PoliTeKDSP/libs/libDaisy/src/hid/disp/display.h ****     void DrawRect(uint_fast8_t x1,
 258:../libs/PoliTeKDSP/libs/libDaisy/src/hid/disp/display.h ****                   uint_fast8_t y1,
 259:../libs/PoliTeKDSP/libs/libDaisy/src/hid/disp/display.h ****                   uint_fast8_t x2,
 260:../libs/PoliTeKDSP/libs/libDaisy/src/hid/disp/display.h ****                   uint_fast8_t y2,
 261:../libs/PoliTeKDSP/libs/libDaisy/src/hid/disp/display.h ****                   bool         on,
 262:../libs/PoliTeKDSP/libs/libDaisy/src/hid/disp/display.h ****                   bool         fill = false) override
 263:../libs/PoliTeKDSP/libs/libDaisy/src/hid/disp/display.h ****     {
 264:../libs/PoliTeKDSP/libs/libDaisy/src/hid/disp/display.h ****         if(fill)
 265:../libs/PoliTeKDSP/libs/libDaisy/src/hid/disp/display.h ****         {
 266:../libs/PoliTeKDSP/libs/libDaisy/src/hid/disp/display.h ****             for(uint_fast8_t x = x1; x <= x2; x++)
 267:../libs/PoliTeKDSP/libs/libDaisy/src/hid/disp/display.h ****             {
 268:../libs/PoliTeKDSP/libs/libDaisy/src/hid/disp/display.h ****                 for(uint_fast8_t y = y1; y <= y2; y++)
 269:../libs/PoliTeKDSP/libs/libDaisy/src/hid/disp/display.h ****                 {
 270:../libs/PoliTeKDSP/libs/libDaisy/src/hid/disp/display.h ****                     ((ChildType*)(this))->ChildType::DrawPixel(x, y, on);
 271:../libs/PoliTeKDSP/libs/libDaisy/src/hid/disp/display.h ****                 }
 272:../libs/PoliTeKDSP/libs/libDaisy/src/hid/disp/display.h ****             }
 273:../libs/PoliTeKDSP/libs/libDaisy/src/hid/disp/display.h ****         }
 274:../libs/PoliTeKDSP/libs/libDaisy/src/hid/disp/display.h ****         else
 275:../libs/PoliTeKDSP/libs/libDaisy/src/hid/disp/display.h ****         {
 276:../libs/PoliTeKDSP/libs/libDaisy/src/hid/disp/display.h ****             ((ChildType*)(this))->ChildType::DrawLine(x1, y1, x2, y1, on);
 277:../libs/PoliTeKDSP/libs/libDaisy/src/hid/disp/display.h ****             ((ChildType*)(this))->ChildType::DrawLine(x2, y1, x2, y2, on);
 278:../libs/PoliTeKDSP/libs/libDaisy/src/hid/disp/display.h ****             ((ChildType*)(this))->ChildType::DrawLine(x2, y2, x1, y2, on);
 279:../libs/PoliTeKDSP/libs/libDaisy/src/hid/disp/display.h ****             ((ChildType*)(this))->ChildType::DrawLine(x1, y2, x1, y1, on);
 280:../libs/PoliTeKDSP/libs/libDaisy/src/hid/disp/display.h ****         }
 281:../libs/PoliTeKDSP/libs/libDaisy/src/hid/disp/display.h ****     }
 282:../libs/PoliTeKDSP/libs/libDaisy/src/hid/disp/display.h **** 
 283:../libs/PoliTeKDSP/libs/libDaisy/src/hid/disp/display.h ****     void DrawArc(uint_fast8_t x,
 284:../libs/PoliTeKDSP/libs/libDaisy/src/hid/disp/display.h ****                  uint_fast8_t y,
 285:../libs/PoliTeKDSP/libs/libDaisy/src/hid/disp/display.h ****                  uint_fast8_t radius,
 286:../libs/PoliTeKDSP/libs/libDaisy/src/hid/disp/display.h ****                  int_fast16_t start_angle,
 287:../libs/PoliTeKDSP/libs/libDaisy/src/hid/disp/display.h ****                  int_fast16_t sweep,
 288:../libs/PoliTeKDSP/libs/libDaisy/src/hid/disp/display.h ****                  bool         on) override
 289:../libs/PoliTeKDSP/libs/libDaisy/src/hid/disp/display.h ****     {
 290:../libs/PoliTeKDSP/libs/libDaisy/src/hid/disp/display.h ****         // Values to calculate the circle
 291:../libs/PoliTeKDSP/libs/libDaisy/src/hid/disp/display.h ****         int_fast16_t t_x, t_y, err, e2;
 292:../libs/PoliTeKDSP/libs/libDaisy/src/hid/disp/display.h **** 
 293:../libs/PoliTeKDSP/libs/libDaisy/src/hid/disp/display.h ****         // Temporary values to speed up comparisons
 294:../libs/PoliTeKDSP/libs/libDaisy/src/hid/disp/display.h ****         float t_sxy, t_syx, t_sxny, t_synx;
 295:../libs/PoliTeKDSP/libs/libDaisy/src/hid/disp/display.h ****         float t_exy, t_eyx, t_exny, t_eynx;
 296:../libs/PoliTeKDSP/libs/libDaisy/src/hid/disp/display.h **** 
 297:../libs/PoliTeKDSP/libs/libDaisy/src/hid/disp/display.h ****         float start_angle_rad, end_angle_rad;
 298:../libs/PoliTeKDSP/libs/libDaisy/src/hid/disp/display.h ****         float start_x, start_y, end_x, end_y;
 299:../libs/PoliTeKDSP/libs/libDaisy/src/hid/disp/display.h **** 
 300:../libs/PoliTeKDSP/libs/libDaisy/src/hid/disp/display.h ****         bool d1, d2, d3, d4;
 301:../libs/PoliTeKDSP/libs/libDaisy/src/hid/disp/display.h **** 
ARM GAS  C:\Users\matte\AppData\Local\Temp\ccj2OJiD.s 			page 33


 302:../libs/PoliTeKDSP/libs/libDaisy/src/hid/disp/display.h ****         d1 = d2 = d3 = d4 = true;
 303:../libs/PoliTeKDSP/libs/libDaisy/src/hid/disp/display.h **** 
 304:../libs/PoliTeKDSP/libs/libDaisy/src/hid/disp/display.h ****         bool circle = false;
 305:../libs/PoliTeKDSP/libs/libDaisy/src/hid/disp/display.h **** 
 306:../libs/PoliTeKDSP/libs/libDaisy/src/hid/disp/display.h ****         if(sweep < 0)
 307:../libs/PoliTeKDSP/libs/libDaisy/src/hid/disp/display.h ****         {
 308:../libs/PoliTeKDSP/libs/libDaisy/src/hid/disp/display.h ****             start_angle += sweep;
 309:../libs/PoliTeKDSP/libs/libDaisy/src/hid/disp/display.h ****             sweep = -sweep;
 310:../libs/PoliTeKDSP/libs/libDaisy/src/hid/disp/display.h ****         }
 311:../libs/PoliTeKDSP/libs/libDaisy/src/hid/disp/display.h **** 
 312:../libs/PoliTeKDSP/libs/libDaisy/src/hid/disp/display.h ****         start_angle_rad = deg2rad(start_angle);
 313:../libs/PoliTeKDSP/libs/libDaisy/src/hid/disp/display.h ****         end_angle_rad   = deg2rad(start_angle + sweep);
 314:../libs/PoliTeKDSP/libs/libDaisy/src/hid/disp/display.h **** 
 315:../libs/PoliTeKDSP/libs/libDaisy/src/hid/disp/display.h ****         start_x = cos(start_angle_rad) * radius;
 316:../libs/PoliTeKDSP/libs/libDaisy/src/hid/disp/display.h ****         start_y = -sin(start_angle_rad) * radius;
 317:../libs/PoliTeKDSP/libs/libDaisy/src/hid/disp/display.h ****         end_x   = cos(end_angle_rad) * radius;
 318:../libs/PoliTeKDSP/libs/libDaisy/src/hid/disp/display.h ****         end_y   = -sin(end_angle_rad) * radius;
 319:../libs/PoliTeKDSP/libs/libDaisy/src/hid/disp/display.h **** 
 320:../libs/PoliTeKDSP/libs/libDaisy/src/hid/disp/display.h ****         // Check if start and endpoint are very near
 321:../libs/PoliTeKDSP/libs/libDaisy/src/hid/disp/display.h ****         if((end_x - start_x) * (end_x - start_x)
 322:../libs/PoliTeKDSP/libs/libDaisy/src/hid/disp/display.h ****                + (end_y - start_y) * (end_y - start_y)
 323:../libs/PoliTeKDSP/libs/libDaisy/src/hid/disp/display.h ****            < 2.0f)
 324:../libs/PoliTeKDSP/libs/libDaisy/src/hid/disp/display.h ****         {
 325:../libs/PoliTeKDSP/libs/libDaisy/src/hid/disp/display.h ****             if(sweep > 180)
 326:../libs/PoliTeKDSP/libs/libDaisy/src/hid/disp/display.h ****                 circle = true;
 327:../libs/PoliTeKDSP/libs/libDaisy/src/hid/disp/display.h ****             else
 328:../libs/PoliTeKDSP/libs/libDaisy/src/hid/disp/display.h ****                 // Nothing to draw
 329:../libs/PoliTeKDSP/libs/libDaisy/src/hid/disp/display.h ****                 return;
 330:../libs/PoliTeKDSP/libs/libDaisy/src/hid/disp/display.h ****         }
 331:../libs/PoliTeKDSP/libs/libDaisy/src/hid/disp/display.h **** 
 332:../libs/PoliTeKDSP/libs/libDaisy/src/hid/disp/display.h ****         t_x = -radius;
 333:../libs/PoliTeKDSP/libs/libDaisy/src/hid/disp/display.h ****         t_y = 0;
 334:../libs/PoliTeKDSP/libs/libDaisy/src/hid/disp/display.h ****         err = 2 - 2 * radius;
 335:../libs/PoliTeKDSP/libs/libDaisy/src/hid/disp/display.h **** 
 336:../libs/PoliTeKDSP/libs/libDaisy/src/hid/disp/display.h ****         do
 337:../libs/PoliTeKDSP/libs/libDaisy/src/hid/disp/display.h ****         {
 338:../libs/PoliTeKDSP/libs/libDaisy/src/hid/disp/display.h ****             if(!circle)
 339:../libs/PoliTeKDSP/libs/libDaisy/src/hid/disp/display.h ****             {
 340:../libs/PoliTeKDSP/libs/libDaisy/src/hid/disp/display.h ****                 t_sxy  = start_x * t_y;
 341:../libs/PoliTeKDSP/libs/libDaisy/src/hid/disp/display.h ****                 t_syx  = start_y * t_x;
 342:../libs/PoliTeKDSP/libs/libDaisy/src/hid/disp/display.h ****                 t_sxny = start_x * -t_y;
 343:../libs/PoliTeKDSP/libs/libDaisy/src/hid/disp/display.h ****                 t_synx = start_y * -t_x;
 344:../libs/PoliTeKDSP/libs/libDaisy/src/hid/disp/display.h ****                 t_exy  = end_x * t_y;
 345:../libs/PoliTeKDSP/libs/libDaisy/src/hid/disp/display.h ****                 t_eyx  = end_y * t_x;
 346:../libs/PoliTeKDSP/libs/libDaisy/src/hid/disp/display.h ****                 t_exny = end_x * -t_y;
 347:../libs/PoliTeKDSP/libs/libDaisy/src/hid/disp/display.h ****                 t_eynx = end_y * -t_x;
 348:../libs/PoliTeKDSP/libs/libDaisy/src/hid/disp/display.h **** 
 349:../libs/PoliTeKDSP/libs/libDaisy/src/hid/disp/display.h ****                 if(sweep > 180)
 350:../libs/PoliTeKDSP/libs/libDaisy/src/hid/disp/display.h ****                 {
 351:../libs/PoliTeKDSP/libs/libDaisy/src/hid/disp/display.h ****                     d1 = (t_sxy - t_synx < 0 || t_exy - t_eynx > 0);
 352:../libs/PoliTeKDSP/libs/libDaisy/src/hid/disp/display.h ****                     d2 = (t_sxy - t_syx < 0 || t_exy - t_eyx > 0);
 353:../libs/PoliTeKDSP/libs/libDaisy/src/hid/disp/display.h ****                     d3 = (t_sxny - t_syx < 0 || t_exny - t_eyx > 0);
 354:../libs/PoliTeKDSP/libs/libDaisy/src/hid/disp/display.h ****                     d4 = (t_sxny - t_synx < 0 || t_exny - t_eynx > 0);
 355:../libs/PoliTeKDSP/libs/libDaisy/src/hid/disp/display.h ****                 }
 356:../libs/PoliTeKDSP/libs/libDaisy/src/hid/disp/display.h ****                 else
 357:../libs/PoliTeKDSP/libs/libDaisy/src/hid/disp/display.h ****                 {
 358:../libs/PoliTeKDSP/libs/libDaisy/src/hid/disp/display.h ****                     d1 = (t_sxy - t_synx < 0 && t_exy - t_eynx > 0);
ARM GAS  C:\Users\matte\AppData\Local\Temp\ccj2OJiD.s 			page 34


 359:../libs/PoliTeKDSP/libs/libDaisy/src/hid/disp/display.h ****                     d2 = (t_sxy - t_syx < 0 && t_exy - t_eyx > 0);
 360:../libs/PoliTeKDSP/libs/libDaisy/src/hid/disp/display.h ****                     d3 = (t_sxny - t_syx < 0 && t_exny - t_eyx > 0);
 361:../libs/PoliTeKDSP/libs/libDaisy/src/hid/disp/display.h ****                     d4 = (t_sxny - t_synx < 0 && t_exny - t_eynx > 0);
 362:../libs/PoliTeKDSP/libs/libDaisy/src/hid/disp/display.h ****                 }
 363:../libs/PoliTeKDSP/libs/libDaisy/src/hid/disp/display.h ****             }
 364:../libs/PoliTeKDSP/libs/libDaisy/src/hid/disp/display.h **** 
 365:../libs/PoliTeKDSP/libs/libDaisy/src/hid/disp/display.h ****             if(d1)
 366:../libs/PoliTeKDSP/libs/libDaisy/src/hid/disp/display.h ****                 ((ChildType*)(this))
 367:../libs/PoliTeKDSP/libs/libDaisy/src/hid/disp/display.h ****                     ->ChildType::DrawPixel(x - t_x, y + t_y, on);
 368:../libs/PoliTeKDSP/libs/libDaisy/src/hid/disp/display.h ****             if(d2)
 369:../libs/PoliTeKDSP/libs/libDaisy/src/hid/disp/display.h ****                 ((ChildType*)(this))
 370:../libs/PoliTeKDSP/libs/libDaisy/src/hid/disp/display.h ****                     ->ChildType::DrawPixel(x + t_x, y + t_y, on);
 371:../libs/PoliTeKDSP/libs/libDaisy/src/hid/disp/display.h ****             if(d3)
 372:../libs/PoliTeKDSP/libs/libDaisy/src/hid/disp/display.h ****                 ((ChildType*)(this))
 373:../libs/PoliTeKDSP/libs/libDaisy/src/hid/disp/display.h ****                     ->ChildType::DrawPixel(x + t_x, y - t_y, on);
 374:../libs/PoliTeKDSP/libs/libDaisy/src/hid/disp/display.h ****             if(d4)
 375:../libs/PoliTeKDSP/libs/libDaisy/src/hid/disp/display.h ****                 ((ChildType*)(this))
 376:../libs/PoliTeKDSP/libs/libDaisy/src/hid/disp/display.h ****                     ->ChildType::DrawPixel(x - t_x, y - t_y, on);
 377:../libs/PoliTeKDSP/libs/libDaisy/src/hid/disp/display.h **** 
 378:../libs/PoliTeKDSP/libs/libDaisy/src/hid/disp/display.h ****             e2 = err;
 379:../libs/PoliTeKDSP/libs/libDaisy/src/hid/disp/display.h ****             if(e2 <= t_y)
 380:../libs/PoliTeKDSP/libs/libDaisy/src/hid/disp/display.h ****             {
 381:../libs/PoliTeKDSP/libs/libDaisy/src/hid/disp/display.h ****                 t_y++;
 382:../libs/PoliTeKDSP/libs/libDaisy/src/hid/disp/display.h ****                 err = err + (t_y * 2 + 1);
 383:../libs/PoliTeKDSP/libs/libDaisy/src/hid/disp/display.h ****                 if(-t_x == t_y && e2 <= t_x)
 384:../libs/PoliTeKDSP/libs/libDaisy/src/hid/disp/display.h ****                 {
 385:../libs/PoliTeKDSP/libs/libDaisy/src/hid/disp/display.h ****                     e2 = 0;
 386:../libs/PoliTeKDSP/libs/libDaisy/src/hid/disp/display.h ****                 }
 387:../libs/PoliTeKDSP/libs/libDaisy/src/hid/disp/display.h ****             }
 388:../libs/PoliTeKDSP/libs/libDaisy/src/hid/disp/display.h ****             if(e2 > t_x)
 389:../libs/PoliTeKDSP/libs/libDaisy/src/hid/disp/display.h ****             {
 390:../libs/PoliTeKDSP/libs/libDaisy/src/hid/disp/display.h ****                 t_x++;
 391:../libs/PoliTeKDSP/libs/libDaisy/src/hid/disp/display.h ****                 err = err + (t_x * 2 + 1);
 392:../libs/PoliTeKDSP/libs/libDaisy/src/hid/disp/display.h ****             }
 393:../libs/PoliTeKDSP/libs/libDaisy/src/hid/disp/display.h ****         } while(t_x <= 0);
 394:../libs/PoliTeKDSP/libs/libDaisy/src/hid/disp/display.h ****     }
 395:../libs/PoliTeKDSP/libs/libDaisy/src/hid/disp/display.h **** 
 396:../libs/PoliTeKDSP/libs/libDaisy/src/hid/disp/display.h ****     char WriteChar(char ch, FontDef font, bool on) override
 397:../libs/PoliTeKDSP/libs/libDaisy/src/hid/disp/display.h ****     {
 398:../libs/PoliTeKDSP/libs/libDaisy/src/hid/disp/display.h ****         uint32_t i, b, j;
 399:../libs/PoliTeKDSP/libs/libDaisy/src/hid/disp/display.h **** 
 400:../libs/PoliTeKDSP/libs/libDaisy/src/hid/disp/display.h ****         // Check if character is valid
 401:../libs/PoliTeKDSP/libs/libDaisy/src/hid/disp/display.h ****         if(ch < 32 || ch > 126)
 402:../libs/PoliTeKDSP/libs/libDaisy/src/hid/disp/display.h ****             return 0;
 403:../libs/PoliTeKDSP/libs/libDaisy/src/hid/disp/display.h **** 
 404:../libs/PoliTeKDSP/libs/libDaisy/src/hid/disp/display.h ****         // Check remaining space on current line
 405:../libs/PoliTeKDSP/libs/libDaisy/src/hid/disp/display.h ****         if(Width() < (currentX_ + font.FontWidth)
 406:../libs/PoliTeKDSP/libs/libDaisy/src/hid/disp/display.h ****            || Height() < (currentY_ + font.FontHeight))
 407:../libs/PoliTeKDSP/libs/libDaisy/src/hid/disp/display.h ****         {
 408:../libs/PoliTeKDSP/libs/libDaisy/src/hid/disp/display.h ****             // Not enough space on current line
 409:../libs/PoliTeKDSP/libs/libDaisy/src/hid/disp/display.h ****             return 0;
 410:../libs/PoliTeKDSP/libs/libDaisy/src/hid/disp/display.h ****         }
 411:../libs/PoliTeKDSP/libs/libDaisy/src/hid/disp/display.h **** 
 412:../libs/PoliTeKDSP/libs/libDaisy/src/hid/disp/display.h ****         // Use the font to write
 413:../libs/PoliTeKDSP/libs/libDaisy/src/hid/disp/display.h ****         for(i = 0; i < font.FontHeight; i++)
 414:../libs/PoliTeKDSP/libs/libDaisy/src/hid/disp/display.h ****         {
 415:../libs/PoliTeKDSP/libs/libDaisy/src/hid/disp/display.h ****             b = font.data[(ch - 32) * font.FontHeight + i];
ARM GAS  C:\Users\matte\AppData\Local\Temp\ccj2OJiD.s 			page 35


 416:../libs/PoliTeKDSP/libs/libDaisy/src/hid/disp/display.h ****             for(j = 0; j < font.FontWidth; j++)
 417:../libs/PoliTeKDSP/libs/libDaisy/src/hid/disp/display.h ****             {
 418:../libs/PoliTeKDSP/libs/libDaisy/src/hid/disp/display.h ****                 if((b << j) & 0x8000)
 419:../libs/PoliTeKDSP/libs/libDaisy/src/hid/disp/display.h ****                 {
 420:../libs/PoliTeKDSP/libs/libDaisy/src/hid/disp/display.h ****                     ((ChildType*)(this))
 421:../libs/PoliTeKDSP/libs/libDaisy/src/hid/disp/display.h ****                         ->ChildType::DrawPixel(
 422:../libs/PoliTeKDSP/libs/libDaisy/src/hid/disp/display.h ****                             currentX_ + j, (currentY_ + i), on);
 423:../libs/PoliTeKDSP/libs/libDaisy/src/hid/disp/display.h ****                 }
 424:../libs/PoliTeKDSP/libs/libDaisy/src/hid/disp/display.h ****                 else
 425:../libs/PoliTeKDSP/libs/libDaisy/src/hid/disp/display.h ****                 {
 426:../libs/PoliTeKDSP/libs/libDaisy/src/hid/disp/display.h ****                     ((ChildType*)(this))
 427:../libs/PoliTeKDSP/libs/libDaisy/src/hid/disp/display.h ****                         ->ChildType::DrawPixel(
 428:../libs/PoliTeKDSP/libs/libDaisy/src/hid/disp/display.h ****                             currentX_ + j, (currentY_ + i), !on);
 429:../libs/PoliTeKDSP/libs/libDaisy/src/hid/disp/display.h ****                 }
 430:../libs/PoliTeKDSP/libs/libDaisy/src/hid/disp/display.h ****             }
 431:../libs/PoliTeKDSP/libs/libDaisy/src/hid/disp/display.h ****         }
 432:../libs/PoliTeKDSP/libs/libDaisy/src/hid/disp/display.h **** 
 433:../libs/PoliTeKDSP/libs/libDaisy/src/hid/disp/display.h ****         // The current space is now taken
 434:../libs/PoliTeKDSP/libs/libDaisy/src/hid/disp/display.h ****         SetCursor(currentX_ + font.FontWidth, currentY_);
 435:../libs/PoliTeKDSP/libs/libDaisy/src/hid/disp/display.h **** 
 436:../libs/PoliTeKDSP/libs/libDaisy/src/hid/disp/display.h ****         // Return written char for validation
 437:../libs/PoliTeKDSP/libs/libDaisy/src/hid/disp/display.h ****         return ch;
 438:../libs/PoliTeKDSP/libs/libDaisy/src/hid/disp/display.h ****     }
 439:../libs/PoliTeKDSP/libs/libDaisy/src/hid/disp/display.h **** 
 440:../libs/PoliTeKDSP/libs/libDaisy/src/hid/disp/display.h ****     char WriteString(const char* str, FontDef font, bool on) override
 589              		.loc 10 440 10 is_stmt 1 view -0
 590              		.cfi_startproc
 591              		@ args = 4, pretend = 0, frame = 32
 592              		@ frame_needed = 0, uses_anonymous_args = 0
 593              		.loc 10 440 10 is_stmt 0 view .LVU129
 594 0000 2DE9F04F 		push	{r4, r5, r6, r7, r8, r9, r10, fp, lr}
 595              		.cfi_def_cfa_offset 36
 596              		.cfi_offset 4, -36
 597              		.cfi_offset 5, -32
 598              		.cfi_offset 6, -28
 599              		.cfi_offset 7, -24
 600              		.cfi_offset 8, -20
 601              		.cfi_offset 9, -16
 602              		.cfi_offset 10, -12
 603              		.cfi_offset 11, -8
 604              		.cfi_offset 14, -4
 605 0004 89B0     		sub	sp, sp, #36
 606              		.cfi_def_cfa_offset 72
 607              		.loc 10 440 10 view .LVU130
 608 0006 08AC     		add	r4, sp, #32
 609 0008 9DF84870 		ldrb	r7, [sp, #72]	@ zero_extendqisi2
 610 000c 0191     		str	r1, [sp, #4]
 611 000e 04E90C00 		stmdb	r4, {r2, r3}
 441:../libs/PoliTeKDSP/libs/libDaisy/src/hid/disp/display.h ****     {
 442:../libs/PoliTeKDSP/libs/libDaisy/src/hid/disp/display.h ****         // Write until null-byte
 443:../libs/PoliTeKDSP/libs/libDaisy/src/hid/disp/display.h ****         while(*str)
 612              		.loc 10 443 9 is_stmt 1 view .LVU131
 613 0012 0B78     		ldrb	r3, [r1]	@ zero_extendqisi2
 614 0014 002B     		cmp	r3, #0
 615 0016 00F0AB80 		beq	.L50
 616 001a 1A46     		mov	r2, r3
 617 001c 9DF81880 		ldrb	r8, [sp, #24]	@ zero_extendqisi2
ARM GAS  C:\Users\matte\AppData\Local\Temp\ccj2OJiD.s 			page 36


 618 0020 9DF81930 		ldrb	r3, [sp, #25]	@ zero_extendqisi2
 619 0024 0646     		mov	r6, r0
 620 0026 4546     		mov	r5, r8
 621 0028 9046     		mov	r8, r2
 622 002a 0393     		str	r3, [sp, #12]
 623 002c 079B     		ldr	r3, [sp, #28]
 624 002e 0593     		str	r3, [sp, #20]
 625              	.LVL38:
 626              	.L51:
 627              	.LBB639:
 628              	.LBI639:
 396:../libs/PoliTeKDSP/libs/libDaisy/src/hid/disp/display.h ****     {
 629              		.loc 10 396 10 view .LVU132
 630              	.LBB640:
 401:../libs/PoliTeKDSP/libs/libDaisy/src/hid/disp/display.h ****             return 0;
 631              		.loc 10 401 20 is_stmt 0 view .LVU133
 632 0030 A8F12004 		sub	r4, r8, #32
 401:../libs/PoliTeKDSP/libs/libDaisy/src/hid/disp/display.h ****             return 0;
 633              		.loc 10 401 9 view .LVU134
 634 0034 E3B2     		uxtb	r3, r4
 635 0036 5E2B     		cmp	r3, #94
 636 0038 00F29E80 		bhi	.L32
 405:../libs/PoliTeKDSP/libs/libDaisy/src/hid/disp/display.h ****            || Height() < (currentY_ + font.FontHeight))
 637              		.loc 10 405 17 view .LVU135
 638 003c 3368     		ldr	r3, [r6]
 639 003e 5E4A     		ldr	r2, .L72
 640 0040 DB68     		ldr	r3, [r3, #12]
 641 0042 9342     		cmp	r3, r2
 642 0044 40F09B80 		bne	.L65
 643 0048 8020     		movs	r0, #128
 644              	.L31:
 405:../libs/PoliTeKDSP/libs/libDaisy/src/hid/disp/display.h ****            || Height() < (currentY_ + font.FontHeight))
 645              		.loc 10 405 23 view .LVU136
 646 004a B388     		ldrh	r3, [r6, #4]
 405:../libs/PoliTeKDSP/libs/libDaisy/src/hid/disp/display.h ****            || Height() < (currentY_ + font.FontHeight))
 647              		.loc 10 405 33 view .LVU137
 648 004c 2B44     		add	r3, r3, r5
 406:../libs/PoliTeKDSP/libs/libDaisy/src/hid/disp/display.h ****         {
 649              		.loc 10 406 12 view .LVU138
 650 004e 8342     		cmp	r3, r0
 651 0050 00F39280 		bgt	.L32
 406:../libs/PoliTeKDSP/libs/libDaisy/src/hid/disp/display.h ****         {
 652              		.loc 10 406 21 view .LVU139
 653 0054 3368     		ldr	r3, [r6]
 654 0056 594A     		ldr	r2, .L72+4
 655 0058 9B68     		ldr	r3, [r3, #8]
 656 005a 9342     		cmp	r3, r2
 657 005c 40F09280 		bne	.L66
 658 0060 4020     		movs	r0, #64
 659              	.L33:
 406:../libs/PoliTeKDSP/libs/libDaisy/src/hid/disp/display.h ****         {
 660              		.loc 10 406 27 view .LVU140
 661 0062 F188     		ldrh	r1, [r6, #6]
 406:../libs/PoliTeKDSP/libs/libDaisy/src/hid/disp/display.h ****         {
 662              		.loc 10 406 37 view .LVU141
 663 0064 039A     		ldr	r2, [sp, #12]
 406:../libs/PoliTeKDSP/libs/libDaisy/src/hid/disp/display.h ****         {
ARM GAS  C:\Users\matte\AppData\Local\Temp\ccj2OJiD.s 			page 37


 664              		.loc 10 406 27 view .LVU142
 665 0066 0291     		str	r1, [sp, #8]
 406:../libs/PoliTeKDSP/libs/libDaisy/src/hid/disp/display.h ****         {
 666              		.loc 10 406 37 view .LVU143
 667 0068 8B18     		adds	r3, r1, r2
 406:../libs/PoliTeKDSP/libs/libDaisy/src/hid/disp/display.h ****         {
 668              		.loc 10 406 12 view .LVU144
 669 006a 8342     		cmp	r3, r0
 670 006c 00F38480 		bgt	.L32
 671              	.LVL39:
 413:../libs/PoliTeKDSP/libs/libDaisy/src/hid/disp/display.h ****         {
 672              		.loc 10 413 22 is_stmt 1 view .LVU145
 673 0070 002A     		cmp	r2, #0
 674 0072 00F09180 		beq	.L34
 415:../libs/PoliTeKDSP/libs/libDaisy/src/hid/disp/display.h ****             for(j = 0; j < font.FontWidth; j++)
 675              		.loc 10 415 37 is_stmt 0 view .LVU146
 676 0076 02FB04F4 		mul	r4, r2, r4
 677 007a 6FF00049 		mvn	r9, #-2147483648
 678 007e 059B     		ldr	r3, [sp, #20]
 679 0080 A144     		add	r9, r9, r4
 680 0082 1444     		add	r4, r4, r2
 434:../libs/PoliTeKDSP/libs/libDaisy/src/hid/disp/display.h **** 
 681              		.loc 10 434 19 view .LVU147
 682 0084 B6F804B0 		ldrh	fp, [r6, #4]
 683 0088 03EB4909 		add	r9, r3, r9, lsl #1
 684 008c 023B     		subs	r3, r3, #2
 685 008e CDF81080 		str	r8, [sp, #16]
 686 0092 03EB4403 		add	r3, r3, r4, lsl #1
 687 0096 0C46     		mov	r4, r1
 688 0098 9A46     		mov	r10, r3
 689              	.LVL40:
 690              	.L37:
 415:../libs/PoliTeKDSP/libs/libDaisy/src/hid/disp/display.h ****             for(j = 0; j < font.FontWidth; j++)
 691              		.loc 10 415 15 view .LVU148
 692 009a 39F802CF 		ldrh	ip, [r9, #2]!
 693              	.LVL41:
 416:../libs/PoliTeKDSP/libs/libDaisy/src/hid/disp/display.h ****             {
 694              		.loc 10 416 26 is_stmt 1 view .LVU149
 695 009e A5B3     		cbz	r5, .L42
 696              	.LBB641:
 697              	.LBB642:
 698              	.LBB643:
 699              	.LBB644:
 700              	.LBB645:
 347:Display/../../libs/PoliTeKDSP/libs/libDaisy/src/dev/oled_ssd130x.h ****     }
 701              		.loc 11 347 55 is_stmt 0 view .LVU150
 702 00a0 04F00703 		and	r3, r4, #7
 347:Display/../../libs/PoliTeKDSP/libs/libDaisy/src/dev/oled_ssd130x.h ****     }
 703              		.loc 11 347 49 view .LVU151
 704 00a4 4FF0010E 		mov	lr, #1
 347:Display/../../libs/PoliTeKDSP/libs/libDaisy/src/dev/oled_ssd130x.h ****     }
 705              		.loc 11 347 28 view .LVU152
 706 00a8 E208     		lsrs	r2, r4, #3
 707 00aa 5946     		mov	r1, fp
 347:Display/../../libs/PoliTeKDSP/libs/libDaisy/src/dev/oled_ssd130x.h ****     }
 708              		.loc 11 347 49 view .LVU153
 709 00ac 0EFA03FE 		lsl	lr, lr, r3
ARM GAS  C:\Users\matte\AppData\Local\Temp\ccj2OJiD.s 			page 38


 710 00b0 0BF11003 		add	r3, fp, #16
 347:Display/../../libs/PoliTeKDSP/libs/libDaisy/src/dev/oled_ssd130x.h ****     }
 711              		.loc 11 347 42 view .LVU154
 712 00b4 4FFA8EFE 		sxtb	lr, lr
 713 00b8 03EBC212 		add	r2, r3, r2, lsl #7
 714              	.LBE645:
 715              	.LBE644:
 716              	.LBE643:
 717              	.LBE642:
 718              	.LBE641:
 416:../libs/PoliTeKDSP/libs/libDaisy/src/hid/disp/display.h ****             {
 719              		.loc 10 416 19 view .LVU155
 720 00bc 0023     		movs	r3, #0
 721              	.LBB663:
 722              	.LBB658:
 723              	.LBB653:
 724              	.LBB649:
 725              	.LBB646:
 347:Display/../../libs/PoliTeKDSP/libs/libDaisy/src/dev/oled_ssd130x.h ****     }
 726              		.loc 11 347 42 view .LVU156
 727 00be 6FEA0E08 		mvn	r8, lr
 728 00c2 3244     		add	r2, r2, r6
 729 00c4 0DE0     		b	.L43
 730              	.LVL42:
 731              	.L67:
 347:Display/../../libs/PoliTeKDSP/libs/libDaisy/src/dev/oled_ssd130x.h ****     }
 732              		.loc 11 347 42 view .LVU157
 733              	.LBE646:
 734              	.LBE649:
 735              	.LBE653:
 736              	.LBE658:
 737              	.LBE663:
 738              	.LBB664:
 739              	.LBI664:
  42:../libs/PoliTeKDSP/libs/libDaisy/src/hid/disp/oled_display.h ****     {
 740              		.loc 9 42 10 is_stmt 1 view .LVU158
 741              	.LBB665:
 742              	.LBI665:
 340:Display/../../libs/PoliTeKDSP/libs/libDaisy/src/dev/oled_ssd130x.h ****     {
 743              		.loc 11 340 10 view .LVU159
 744              	.LBB666:
 342:Display/../../libs/PoliTeKDSP/libs/libDaisy/src/dev/oled_ssd130x.h ****             return;
 745              		.loc 11 342 9 is_stmt 0 view .LVU160
 746 00c6 7F29     		cmp	r1, #127
 747 00c8 06D8     		bhi	.L39
 748 00ca 3F2C     		cmp	r4, #63
 749 00cc 04D8     		bhi	.L39
 345:Display/../../libs/PoliTeKDSP/libs/libDaisy/src/dev/oled_ssd130x.h ****         else
 750              		.loc 11 345 42 view .LVU161
 751 00ce 1078     		ldrb	r0, [r2]	@ zero_extendqisi2
 344:Display/../../libs/PoliTeKDSP/libs/libDaisy/src/dev/oled_ssd130x.h ****             buffer_[x + (y / 8) * width] |= (1 << (y % 8));
 752              		.loc 11 344 9 view .LVU162
 753 00d0 97B1     		cbz	r7, .L41
 754              	.L64:
 344:Display/../../libs/PoliTeKDSP/libs/libDaisy/src/dev/oled_ssd130x.h ****             buffer_[x + (y / 8) * width] |= (1 << (y % 8));
 755              		.loc 11 344 9 view .LVU163
 756              	.LBE666:
ARM GAS  C:\Users\matte\AppData\Local\Temp\ccj2OJiD.s 			page 39


 757              	.LBE665:
 758              	.LBE664:
 759              	.LBB667:
 760              	.LBB659:
 761              	.LBB654:
 345:Display/../../libs/PoliTeKDSP/libs/libDaisy/src/dev/oled_ssd130x.h ****         else
 762              		.loc 11 345 42 view .LVU164
 763 00d2 4EEA0000 		orr	r0, lr, r0
 764 00d6 1070     		strb	r0, [r2]
 765              	.L39:
 766              	.LBE654:
 767              	.LBE659:
 768              	.LBE667:
 416:../libs/PoliTeKDSP/libs/libDaisy/src/hid/disp/display.h ****             {
 769              		.loc 10 416 13 is_stmt 1 view .LVU165
 770 00d8 0133     		adds	r3, r3, #1
 771              	.LVL43:
 416:../libs/PoliTeKDSP/libs/libDaisy/src/hid/disp/display.h ****             {
 772              		.loc 10 416 26 view .LVU166
 773 00da 0132     		adds	r2, r2, #1
 774 00dc 0131     		adds	r1, r1, #1
 775 00de AB42     		cmp	r3, r5
 776 00e0 13D0     		beq	.L42
 777              	.LVL44:
 778              	.L43:
 418:../libs/PoliTeKDSP/libs/libDaisy/src/hid/disp/display.h ****                 {
 779              		.loc 10 418 23 is_stmt 0 view .LVU167
 780 00e2 0CFA03F0 		lsl	r0, ip, r3
 418:../libs/PoliTeKDSP/libs/libDaisy/src/hid/disp/display.h ****                 {
 781              		.loc 10 418 17 view .LVU168
 782 00e6 0004     		lsls	r0, r0, #16
 783 00e8 EDD4     		bmi	.L67
 784              	.LVL45:
 785              	.LBB668:
 786              	.LBI641:
  42:../libs/PoliTeKDSP/libs/libDaisy/src/hid/disp/oled_display.h ****     {
 787              		.loc 9 42 10 is_stmt 1 view .LVU169
 788              	.LBB660:
 789              	.LBI642:
 340:Display/../../libs/PoliTeKDSP/libs/libDaisy/src/dev/oled_ssd130x.h ****     {
 790              		.loc 11 340 10 view .LVU170
 791              	.LBB655:
 342:Display/../../libs/PoliTeKDSP/libs/libDaisy/src/dev/oled_ssd130x.h ****             return;
 792              		.loc 11 342 9 is_stmt 0 view .LVU171
 793 00ea 7F29     		cmp	r1, #127
 794 00ec F4D8     		bhi	.L39
 795 00ee 3F2C     		cmp	r4, #63
 796 00f0 F2D8     		bhi	.L39
 345:Display/../../libs/PoliTeKDSP/libs/libDaisy/src/dev/oled_ssd130x.h ****         else
 797              		.loc 11 345 42 view .LVU172
 798 00f2 1078     		ldrb	r0, [r2]	@ zero_extendqisi2
 344:Display/../../libs/PoliTeKDSP/libs/libDaisy/src/dev/oled_ssd130x.h ****             buffer_[x + (y / 8) * width] |= (1 << (y % 8));
 799              		.loc 11 344 9 view .LVU173
 800 00f4 002F     		cmp	r7, #0
 801 00f6 ECD0     		beq	.L64
 802              	.L41:
 803              	.LVL46:
ARM GAS  C:\Users\matte\AppData\Local\Temp\ccj2OJiD.s 			page 40


 804              	.LBB650:
 805              	.LBI644:
 340:Display/../../libs/PoliTeKDSP/libs/libDaisy/src/dev/oled_ssd130x.h ****     {
 806              		.loc 11 340 10 is_stmt 1 view .LVU174
 340:Display/../../libs/PoliTeKDSP/libs/libDaisy/src/dev/oled_ssd130x.h ****     {
 807              		.loc 11 340 10 is_stmt 0 view .LVU175
 808              	.LBE650:
 809              	.LBE655:
 810              	.LBE660:
 811              	.LBE668:
 416:../libs/PoliTeKDSP/libs/libDaisy/src/hid/disp/display.h ****             {
 812              		.loc 10 416 13 view .LVU176
 813 00f8 0133     		adds	r3, r3, #1
 814              	.LVL47:
 815              	.LBB669:
 816              	.LBB661:
 817              	.LBB656:
 818              	.LBB651:
 819              	.LBB647:
 347:Display/../../libs/PoliTeKDSP/libs/libDaisy/src/dev/oled_ssd130x.h ****     }
 820              		.loc 11 347 42 view .LVU177
 821 00fa 08EA0000 		and	r0, r8, r0
 822              	.LBE647:
 823              	.LBE651:
 824              	.LBE656:
 825              	.LBE661:
 826              	.LBE669:
 416:../libs/PoliTeKDSP/libs/libDaisy/src/hid/disp/display.h ****             {
 827              		.loc 10 416 26 view .LVU178
 828 00fe 0132     		adds	r2, r2, #1
 829 0100 0131     		adds	r1, r1, #1
 830 0102 AB42     		cmp	r3, r5
 831              	.LBB670:
 832              	.LBB662:
 833              	.LBB657:
 834              	.LBB652:
 835              	.LBB648:
 347:Display/../../libs/PoliTeKDSP/libs/libDaisy/src/dev/oled_ssd130x.h ****     }
 836              		.loc 11 347 42 view .LVU179
 837 0104 02F8010C 		strb	r0, [r2, #-1]
 347:Display/../../libs/PoliTeKDSP/libs/libDaisy/src/dev/oled_ssd130x.h ****     }
 838              		.loc 11 347 42 view .LVU180
 839              	.LBE648:
 840              	.LBE652:
 841              	.LBE657:
 842              	.LBE662:
 843              	.LBE670:
 416:../libs/PoliTeKDSP/libs/libDaisy/src/hid/disp/display.h ****             {
 844              		.loc 10 416 13 is_stmt 1 view .LVU181
 845              	.LVL48:
 416:../libs/PoliTeKDSP/libs/libDaisy/src/hid/disp/display.h ****             {
 846              		.loc 10 416 26 view .LVU182
 847 0108 EBD1     		bne	.L43
 848              	.LVL49:
 849              	.L42:
 413:../libs/PoliTeKDSP/libs/libDaisy/src/hid/disp/display.h ****         {
 850              		.loc 10 413 9 view .LVU183
ARM GAS  C:\Users\matte\AppData\Local\Temp\ccj2OJiD.s 			page 41


 413:../libs/PoliTeKDSP/libs/libDaisy/src/hid/disp/display.h ****         {
 851              		.loc 10 413 22 view .LVU184
 852 010a D145     		cmp	r9, r10
 853 010c 04F10104 		add	r4, r4, #1
 854 0110 C3D1     		bne	.L37
 855 0112 DDF81080 		ldr	r8, [sp, #16]
 856              	.LVL50:
 857              	.L36:
 858              	.LBB671:
 859              	.LBB672:
 173:../libs/PoliTeKDSP/libs/libDaisy/src/hid/disp/display.h ****         currentY_ = (y >= Height()) ? Height() - 1 : y;
 860              		.loc 10 173 33 is_stmt 0 view .LVU185
 861 0116 3268     		ldr	r2, [r6]
 862              	.LBE672:
 863              	.LBE671:
 434:../libs/PoliTeKDSP/libs/libDaisy/src/hid/disp/display.h **** 
 864              		.loc 10 434 18 view .LVU186
 865 0118 0BEB0504 		add	r4, fp, r5
 866 011c 2649     		ldr	r1, .L72
 867              	.LBB677:
 868              	.LBB673:
 173:../libs/PoliTeKDSP/libs/libDaisy/src/hid/disp/display.h ****         currentY_ = (y >= Height()) ? Height() - 1 : y;
 869              		.loc 10 173 33 view .LVU187
 870 011e D368     		ldr	r3, [r2, #12]
 871              	.LBE673:
 872              	.LBE677:
 434:../libs/PoliTeKDSP/libs/libDaisy/src/hid/disp/display.h **** 
 873              		.loc 10 434 18 view .LVU188
 874 0120 A4B2     		uxth	r4, r4
 875              	.LVL51:
 876              	.LBB678:
 877              	.LBI671:
 171:../libs/PoliTeKDSP/libs/libDaisy/src/hid/disp/display.h ****     {
 878              		.loc 10 171 10 is_stmt 1 view .LVU189
 879              	.LBB674:
 173:../libs/PoliTeKDSP/libs/libDaisy/src/hid/disp/display.h ****         currentY_ = (y >= Height()) ? Height() - 1 : y;
 880              		.loc 10 173 9 view .LVU190
 881 0122 8B42     		cmp	r3, r1
 882 0124 34D1     		bne	.L68
 173:../libs/PoliTeKDSP/libs/libDaisy/src/hid/disp/display.h ****         currentY_ = (y >= Height()) ? Height() - 1 : y;
 883              		.loc 10 173 33 is_stmt 0 view .LVU191
 884 0126 8020     		movs	r0, #128
 885              	.L44:
 173:../libs/PoliTeKDSP/libs/libDaisy/src/hid/disp/display.h ****         currentY_ = (y >= Height()) ? Height() - 1 : y;
 886              		.loc 10 173 19 view .LVU192
 887 0128 8442     		cmp	r4, r0
 888 012a 04D3     		bcc	.L45
 173:../libs/PoliTeKDSP/libs/libDaisy/src/hid/disp/display.h ****         currentY_ = (y >= Height()) ? Height() - 1 : y;
 889              		.loc 10 173 44 view .LVU193
 890 012c D368     		ldr	r3, [r2, #12]
 891 012e 2249     		ldr	r1, .L72
 892 0130 8B42     		cmp	r3, r1
 893 0132 3AD1     		bne	.L69
 894 0134 7F24     		movs	r4, #127
 895              	.LVL52:
 896              	.L45:
 174:../libs/PoliTeKDSP/libs/libDaisy/src/hid/disp/display.h ****     }
ARM GAS  C:\Users\matte\AppData\Local\Temp\ccj2OJiD.s 			page 42


 897              		.loc 10 174 34 view .LVU194
 898 0136 9368     		ldr	r3, [r2, #8]
 899 0138 204A     		ldr	r2, .L72+4
 173:../libs/PoliTeKDSP/libs/libDaisy/src/hid/disp/display.h ****         currentY_ = (y >= Height()) ? Height() - 1 : y;
 900              		.loc 10 173 19 view .LVU195
 901 013a B480     		strh	r4, [r6, #4]	@ movhi
 174:../libs/PoliTeKDSP/libs/libDaisy/src/hid/disp/display.h ****     }
 902              		.loc 10 174 9 is_stmt 1 view .LVU196
 903 013c 9342     		cmp	r3, r2
 904 013e 24D1     		bne	.L70
 174:../libs/PoliTeKDSP/libs/libDaisy/src/hid/disp/display.h ****     }
 905              		.loc 10 174 34 is_stmt 0 view .LVU197
 906 0140 4020     		movs	r0, #64
 907              	.L47:
 174:../libs/PoliTeKDSP/libs/libDaisy/src/hid/disp/display.h ****     }
 908              		.loc 10 174 19 view .LVU198
 909 0142 029B     		ldr	r3, [sp, #8]
 910 0144 8342     		cmp	r3, r0
 911 0146 06D3     		bcc	.L48
 174:../libs/PoliTeKDSP/libs/libDaisy/src/hid/disp/display.h ****     }
 912              		.loc 10 174 46 view .LVU199
 913 0148 3368     		ldr	r3, [r6]
 914 014a 1C4A     		ldr	r2, .L72+4
 915 014c 9B68     		ldr	r3, [r3, #8]
 916 014e 9342     		cmp	r3, r2
 917 0150 25D1     		bne	.L71
 918 0152 3F23     		movs	r3, #63
 919 0154 0293     		str	r3, [sp, #8]
 920              	.LVL53:
 921              	.L48:
 174:../libs/PoliTeKDSP/libs/libDaisy/src/hid/disp/display.h ****     }
 922              		.loc 10 174 19 view .LVU200
 923 0156 029B     		ldr	r3, [sp, #8]
 924 0158 F380     		strh	r3, [r6, #6]	@ movhi
 925              	.LVL54:
 926              	.L30:
 174:../libs/PoliTeKDSP/libs/libDaisy/src/hid/disp/display.h ****     }
 927              		.loc 10 174 19 view .LVU201
 928              	.LBE674:
 929              	.LBE678:
 930              	.LBE640:
 931              	.LBE639:
 444:../libs/PoliTeKDSP/libs/libDaisy/src/hid/disp/display.h ****         {
 445:../libs/PoliTeKDSP/libs/libDaisy/src/hid/disp/display.h ****             if(((ChildType*)(this))->ChildType::WriteChar(*str, font, on)
 446:../libs/PoliTeKDSP/libs/libDaisy/src/hid/disp/display.h ****                != *str)
 932              		.loc 10 446 16 view .LVU202
 933 015a 019B     		ldr	r3, [sp, #4]
 934 015c 1878     		ldrb	r0, [r3]	@ zero_extendqisi2
 445:../libs/PoliTeKDSP/libs/libDaisy/src/hid/disp/display.h ****                != *str)
 935              		.loc 10 445 13 view .LVU203
 936 015e 4045     		cmp	r0, r8
 937 0160 07D1     		bne	.L28
 938              	.LVL55:
 443:../libs/PoliTeKDSP/libs/libDaisy/src/hid/disp/display.h ****         {
 939              		.loc 10 443 9 is_stmt 1 view .LVU204
 940 0162 13F8018F 		ldrb	r8, [r3, #1]!	@ zero_extendqisi2
 941              	.LVL56:
ARM GAS  C:\Users\matte\AppData\Local\Temp\ccj2OJiD.s 			page 43


 443:../libs/PoliTeKDSP/libs/libDaisy/src/hid/disp/display.h ****         {
 942              		.loc 10 443 9 is_stmt 0 view .LVU205
 943 0166 0193     		str	r3, [sp, #4]
 944 0168 B8F1000F 		cmp	r8, #0
 945 016c 7FF460AF 		bne	.L51
 946              	.LVL57:
 947              	.L50:
 948              	.LBB683:
 949              	.LBB681:
 402:../libs/PoliTeKDSP/libs/libDaisy/src/hid/disp/display.h **** 
 950              		.loc 10 402 20 view .LVU206
 951 0170 0020     		movs	r0, #0
 952              	.L28:
 953              	.LBE681:
 954              	.LBE683:
 447:../libs/PoliTeKDSP/libs/libDaisy/src/hid/disp/display.h ****             {
 448:../libs/PoliTeKDSP/libs/libDaisy/src/hid/disp/display.h ****                 // Char could not be written
 449:../libs/PoliTeKDSP/libs/libDaisy/src/hid/disp/display.h ****                 return *str;
 450:../libs/PoliTeKDSP/libs/libDaisy/src/hid/disp/display.h ****             }
 451:../libs/PoliTeKDSP/libs/libDaisy/src/hid/disp/display.h **** 
 452:../libs/PoliTeKDSP/libs/libDaisy/src/hid/disp/display.h ****             // Next char
 453:../libs/PoliTeKDSP/libs/libDaisy/src/hid/disp/display.h ****             str++;
 454:../libs/PoliTeKDSP/libs/libDaisy/src/hid/disp/display.h ****         }
 455:../libs/PoliTeKDSP/libs/libDaisy/src/hid/disp/display.h **** 
 456:../libs/PoliTeKDSP/libs/libDaisy/src/hid/disp/display.h ****         // Everything ok
 457:../libs/PoliTeKDSP/libs/libDaisy/src/hid/disp/display.h ****         return *str;
 458:../libs/PoliTeKDSP/libs/libDaisy/src/hid/disp/display.h ****     }
 955              		.loc 10 458 5 view .LVU207
 956 0172 09B0     		add	sp, sp, #36
 957              		.cfi_remember_state
 958              		.cfi_def_cfa_offset 36
 959              		@ sp needed
 960 0174 BDE8F08F 		pop	{r4, r5, r6, r7, r8, r9, r10, fp, pc}
 961              	.LVL58:
 962              	.L32:
 963              		.cfi_restore_state
 964              	.LBB684:
 965              	.LBB682:
 402:../libs/PoliTeKDSP/libs/libDaisy/src/hid/disp/display.h **** 
 966              		.loc 10 402 20 view .LVU208
 967 0178 4FF00008 		mov	r8, #0
 968              	.LVL59:
 402:../libs/PoliTeKDSP/libs/libDaisy/src/hid/disp/display.h **** 
 969              		.loc 10 402 20 view .LVU209
 970 017c EDE7     		b	.L30
 971              	.LVL60:
 972              	.L65:
 405:../libs/PoliTeKDSP/libs/libDaisy/src/hid/disp/display.h ****            || Height() < (currentY_ + font.FontHeight))
 973              		.loc 10 405 17 view .LVU210
 974 017e 3046     		mov	r0, r6
 975 0180 9847     		blx	r3
 976              	.LVL61:
 977 0182 62E7     		b	.L31
 978              	.L66:
 406:../libs/PoliTeKDSP/libs/libDaisy/src/hid/disp/display.h ****         {
 979              		.loc 10 406 21 view .LVU211
 980 0184 3046     		mov	r0, r6
ARM GAS  C:\Users\matte\AppData\Local\Temp\ccj2OJiD.s 			page 44


 981 0186 9847     		blx	r3
 982              	.LVL62:
 983 0188 6BE7     		b	.L33
 984              	.LVL63:
 985              	.L70:
 986              	.LBB679:
 987              	.LBB675:
 174:../libs/PoliTeKDSP/libs/libDaisy/src/hid/disp/display.h ****     }
 988              		.loc 10 174 33 view .LVU212
 989 018a 3046     		mov	r0, r6
 990 018c 9847     		blx	r3
 991              	.LVL64:
 992 018e D8E7     		b	.L47
 993              	.LVL65:
 994              	.L68:
 173:../libs/PoliTeKDSP/libs/libDaisy/src/hid/disp/display.h ****         currentY_ = (y >= Height()) ? Height() - 1 : y;
 995              		.loc 10 173 32 view .LVU213
 996 0190 3046     		mov	r0, r6
 997 0192 9847     		blx	r3
 998              	.LVL66:
 173:../libs/PoliTeKDSP/libs/libDaisy/src/hid/disp/display.h ****         currentY_ = (y >= Height()) ? Height() - 1 : y;
 999              		.loc 10 173 44 view .LVU214
 1000 0194 3268     		ldr	r2, [r6]
 1001 0196 C7E7     		b	.L44
 1002              	.LVL67:
 1003              	.L34:
 173:../libs/PoliTeKDSP/libs/libDaisy/src/hid/disp/display.h ****         currentY_ = (y >= Height()) ? Height() - 1 : y;
 1004              		.loc 10 173 44 view .LVU215
 1005              	.LBE675:
 1006              	.LBE679:
 434:../libs/PoliTeKDSP/libs/libDaisy/src/hid/disp/display.h **** 
 1007              		.loc 10 434 19 view .LVU216
 1008 0198 B6F804B0 		ldrh	fp, [r6, #4]
 1009 019c BBE7     		b	.L36
 1010              	.LVL68:
 1011              	.L71:
 1012              	.LBB680:
 1013              	.LBB676:
 174:../libs/PoliTeKDSP/libs/libDaisy/src/hid/disp/display.h ****     }
 1014              		.loc 10 174 45 view .LVU217
 1015 019e 3046     		mov	r0, r6
 1016 01a0 9847     		blx	r3
 1017              	.LVL69:
 174:../libs/PoliTeKDSP/libs/libDaisy/src/hid/disp/display.h ****     }
 1018              		.loc 10 174 19 view .LVU218
 1019 01a2 0138     		subs	r0, r0, #1
 1020 01a4 83B2     		uxth	r3, r0
 1021 01a6 0293     		str	r3, [sp, #8]
 1022              	.LVL70:
 174:../libs/PoliTeKDSP/libs/libDaisy/src/hid/disp/display.h ****     }
 1023              		.loc 10 174 19 view .LVU219
 1024 01a8 D5E7     		b	.L48
 1025              	.LVL71:
 1026              	.L69:
 173:../libs/PoliTeKDSP/libs/libDaisy/src/hid/disp/display.h ****         currentY_ = (y >= Height()) ? Height() - 1 : y;
 1027              		.loc 10 173 43 view .LVU220
 1028 01aa 3046     		mov	r0, r6
ARM GAS  C:\Users\matte\AppData\Local\Temp\ccj2OJiD.s 			page 45


 1029 01ac 9847     		blx	r3
 1030              	.LVL72:
 173:../libs/PoliTeKDSP/libs/libDaisy/src/hid/disp/display.h ****         currentY_ = (y >= Height()) ? Height() - 1 : y;
 1031              		.loc 10 173 19 view .LVU221
 1032 01ae 0138     		subs	r0, r0, #1
 174:../libs/PoliTeKDSP/libs/libDaisy/src/hid/disp/display.h ****     }
 1033              		.loc 10 174 34 view .LVU222
 1034 01b0 3268     		ldr	r2, [r6]
 173:../libs/PoliTeKDSP/libs/libDaisy/src/hid/disp/display.h ****         currentY_ = (y >= Height()) ? Height() - 1 : y;
 1035              		.loc 10 173 19 view .LVU223
 1036 01b2 84B2     		uxth	r4, r0
 1037              	.LVL73:
 173:../libs/PoliTeKDSP/libs/libDaisy/src/hid/disp/display.h ****         currentY_ = (y >= Height()) ? Height() - 1 : y;
 1038              		.loc 10 173 19 view .LVU224
 1039 01b4 BFE7     		b	.L45
 1040              	.L73:
 1041 01b6 00BF     		.align	2
 1042              	.L72:
 1043 01b8 00000000 		.word	_ZNK5daisy11OledDisplayINS_13SSD130xDriverILj128ELj64ENS_19SSD130xI2CTransportEEEE5WidthEv
 1044 01bc 00000000 		.word	_ZNK5daisy11OledDisplayINS_13SSD130xDriverILj128ELj64ENS_19SSD130xI2CTransportEEEE6HeightEv
 1045              	.LBE676:
 1046              	.LBE680:
 1047              	.LBE682:
 1048              	.LBE684:
 1049              		.cfi_endproc
 1050              	.LFE5625:
 1052              		.section	.text._ZN5daisy25OneBitGraphicsDisplayImplINS_11OledDisplayINS_13SSD130xDriverILj128ELj64
 1053              		.align	1
 1054              		.p2align 2,,3
 1055              		.weak	_ZN5daisy25OneBitGraphicsDisplayImplINS_11OledDisplayINS_13SSD130xDriverILj128ELj64ENS_19SSD
 1056              		.syntax unified
 1057              		.thumb
 1058              		.thumb_func
 1059              		.fpu fpv5-d16
 1061              	_ZN5daisy25OneBitGraphicsDisplayImplINS_11OledDisplayINS_13SSD130xDriverILj128ELj64ENS_19SSD130xI2C
 1062              	.LVL74:
 1063              	.LFB5624:
 396:../libs/PoliTeKDSP/libs/libDaisy/src/hid/disp/display.h ****     {
 1064              		.loc 10 396 10 is_stmt 1 view -0
 1065              		.cfi_startproc
 1066              		@ args = 4, pretend = 0, frame = 16
 1067              		@ frame_needed = 0, uses_anonymous_args = 0
 396:../libs/PoliTeKDSP/libs/libDaisy/src/hid/disp/display.h ****     {
 1068              		.loc 10 396 10 is_stmt 0 view .LVU226
 1069 0000 2DE9F04F 		push	{r4, r5, r6, r7, r8, r9, r10, fp, lr}
 1070              		.cfi_def_cfa_offset 36
 1071              		.cfi_offset 4, -36
 1072              		.cfi_offset 5, -32
 1073              		.cfi_offset 6, -28
 1074              		.cfi_offset 7, -24
 1075              		.cfi_offset 8, -20
 1076              		.cfi_offset 9, -16
 1077              		.cfi_offset 10, -12
 1078              		.cfi_offset 11, -8
 1079              		.cfi_offset 14, -4
 1080 0004 85B0     		sub	sp, sp, #20
 1081              		.cfi_def_cfa_offset 56
ARM GAS  C:\Users\matte\AppData\Local\Temp\ccj2OJiD.s 			page 46


 1082              	.LVL75:
 401:../libs/PoliTeKDSP/libs/libDaisy/src/hid/disp/display.h ****             return 0;
 1083              		.loc 10 401 20 view .LVU227
 1084 0006 A1F12005 		sub	r5, r1, #32
 396:../libs/PoliTeKDSP/libs/libDaisy/src/hid/disp/display.h ****     {
 1085              		.loc 10 396 10 view .LVU228
 1086 000a 04AC     		add	r4, sp, #16
 1087 000c 9DF83870 		ldrb	r7, [sp, #56]	@ zero_extendqisi2
 1088 0010 0091     		str	r1, [sp]
 1089 0012 04E90C00 		stmdb	r4, {r2, r3}
 1090              	.LVL76:
 401:../libs/PoliTeKDSP/libs/libDaisy/src/hid/disp/display.h ****             return 0;
 1091              		.loc 10 401 9 view .LVU229
 1092 0016 EBB2     		uxtb	r3, r5
 1093 0018 5E2B     		cmp	r3, #94
 1094 001a 00F29580 		bhi	.L78
 405:../libs/PoliTeKDSP/libs/libDaisy/src/hid/disp/display.h ****            || Height() < (currentY_ + font.FontHeight))
 1095              		.loc 10 405 17 view .LVU230
 1096 001e 0368     		ldr	r3, [r0]
 1097 0020 8046     		mov	r8, r0
 1098 0022 5D4A     		ldr	r2, .L113
 1099 0024 DB68     		ldr	r3, [r3, #12]
 1100 0026 9DF80840 		ldrb	r4, [sp, #8]	@ zero_extendqisi2
 1101 002a 9342     		cmp	r3, r2
 1102 002c 9DF80960 		ldrb	r6, [sp, #9]	@ zero_extendqisi2
 1103 0030 40F09480 		bne	.L105
 1104 0034 8020     		movs	r0, #128
 1105              	.LVL77:
 1106              	.L77:
 405:../libs/PoliTeKDSP/libs/libDaisy/src/hid/disp/display.h ****            || Height() < (currentY_ + font.FontHeight))
 1107              		.loc 10 405 23 view .LVU231
 1108 0036 B8F80430 		ldrh	r3, [r8, #4]
 405:../libs/PoliTeKDSP/libs/libDaisy/src/hid/disp/display.h ****            || Height() < (currentY_ + font.FontHeight))
 1109              		.loc 10 405 33 view .LVU232
 1110 003a 2344     		add	r3, r3, r4
 406:../libs/PoliTeKDSP/libs/libDaisy/src/hid/disp/display.h ****         {
 1111              		.loc 10 406 12 view .LVU233
 1112 003c 8342     		cmp	r3, r0
 1113 003e 00F38380 		bgt	.L78
 406:../libs/PoliTeKDSP/libs/libDaisy/src/hid/disp/display.h ****         {
 1114              		.loc 10 406 21 discriminator 2 view .LVU234
 1115 0042 D8F80030 		ldr	r3, [r8]
 1116 0046 554A     		ldr	r2, .L113+4
 1117 0048 9B68     		ldr	r3, [r3, #8]
 1118 004a 9342     		cmp	r3, r2
 1119 004c 40F08880 		bne	.L106
 406:../libs/PoliTeKDSP/libs/libDaisy/src/hid/disp/display.h ****         {
 1120              		.loc 10 406 21 view .LVU235
 1121 0050 4020     		movs	r0, #64
 1122              	.L79:
 406:../libs/PoliTeKDSP/libs/libDaisy/src/hid/disp/display.h ****         {
 1123              		.loc 10 406 27 discriminator 2 view .LVU236
 1124 0052 B8F80620 		ldrh	r2, [r8, #6]
 406:../libs/PoliTeKDSP/libs/libDaisy/src/hid/disp/display.h ****         {
 1125              		.loc 10 406 37 discriminator 2 view .LVU237
 1126 0056 9319     		adds	r3, r2, r6
 406:../libs/PoliTeKDSP/libs/libDaisy/src/hid/disp/display.h ****         {
ARM GAS  C:\Users\matte\AppData\Local\Temp\ccj2OJiD.s 			page 47


 1127              		.loc 10 406 27 discriminator 2 view .LVU238
 1128 0058 0192     		str	r2, [sp, #4]
 406:../libs/PoliTeKDSP/libs/libDaisy/src/hid/disp/display.h ****         {
 1129              		.loc 10 406 12 discriminator 2 view .LVU239
 1130 005a 8342     		cmp	r3, r0
 1131 005c 74DC     		bgt	.L78
 1132              	.LVL78:
 413:../libs/PoliTeKDSP/libs/libDaisy/src/hid/disp/display.h ****         {
 1133              		.loc 10 413 22 is_stmt 1 view .LVU240
 1134 005e 002E     		cmp	r6, #0
 1135 0060 00F08980 		beq	.L80
 415:../libs/PoliTeKDSP/libs/libDaisy/src/hid/disp/display.h ****             for(j = 0; j < font.FontWidth; j++)
 1136              		.loc 10 415 37 is_stmt 0 view .LVU241
 1137 0064 06FB05F5 		mul	r5, r6, r5
 1138 0068 6FF00040 		mvn	r0, #-2147483648
 415:../libs/PoliTeKDSP/libs/libDaisy/src/hid/disp/display.h ****             for(j = 0; j < font.FontWidth; j++)
 1139              		.loc 10 415 22 view .LVU242
 1140 006c 039B     		ldr	r3, [sp, #12]
 1141 006e 9646     		mov	lr, r2
 1142 0070 2844     		add	r0, r0, r5
 1143 0072 2E44     		add	r6, r6, r5
 434:../libs/PoliTeKDSP/libs/libDaisy/src/hid/disp/display.h **** 
 1144              		.loc 10 434 19 view .LVU243
 1145 0074 B8F804A0 		ldrh	r10, [r8, #4]
 1146 0078 03EB4000 		add	r0, r3, r0, lsl #1
 1147 007c 023B     		subs	r3, r3, #2
 1148 007e 03EB460B 		add	fp, r3, r6, lsl #1
 1149              	.LVL79:
 1150              	.L83:
 415:../libs/PoliTeKDSP/libs/libDaisy/src/hid/disp/display.h ****             for(j = 0; j < font.FontWidth; j++)
 1151              		.loc 10 415 15 view .LVU244
 1152 0082 30F8026F 		ldrh	r6, [r0, #2]!
 1153              	.LVL80:
 416:../libs/PoliTeKDSP/libs/libDaisy/src/hid/disp/display.h ****             {
 1154              		.loc 10 416 26 is_stmt 1 view .LVU245
 1155 0086 BCB3     		cbz	r4, .L88
 1156              	.LBB715:
 1157              	.LBB716:
 1158              	.LBB717:
 1159              	.LBB718:
 1160              	.LBB719:
 347:Display/../../libs/PoliTeKDSP/libs/libDaisy/src/dev/oled_ssd130x.h ****     }
 1161              		.loc 11 347 55 is_stmt 0 view .LVU246
 1162 0088 0EF00703 		and	r3, lr, #7
 347:Display/../../libs/PoliTeKDSP/libs/libDaisy/src/dev/oled_ssd130x.h ****     }
 1163              		.loc 11 347 49 view .LVU247
 1164 008c 4FF0010C 		mov	ip, #1
 347:Display/../../libs/PoliTeKDSP/libs/libDaisy/src/dev/oled_ssd130x.h ****     }
 1165              		.loc 11 347 28 view .LVU248
 1166 0090 4FEADE02 		lsr	r2, lr, #3
 1167 0094 5146     		mov	r1, r10
 347:Display/../../libs/PoliTeKDSP/libs/libDaisy/src/dev/oled_ssd130x.h ****     }
 1168              		.loc 11 347 49 view .LVU249
 1169 0096 0CFA03FC 		lsl	ip, ip, r3
 1170 009a 0AF11003 		add	r3, r10, #16
 347:Display/../../libs/PoliTeKDSP/libs/libDaisy/src/dev/oled_ssd130x.h ****     }
 1171              		.loc 11 347 42 view .LVU250
ARM GAS  C:\Users\matte\AppData\Local\Temp\ccj2OJiD.s 			page 48


 1172 009e 4FFA8CFC 		sxtb	ip, ip
 1173 00a2 03EBC212 		add	r2, r3, r2, lsl #7
 1174              	.LBE719:
 1175              	.LBE718:
 1176              	.LBE717:
 1177              	.LBE716:
 1178              	.LBE715:
 416:../libs/PoliTeKDSP/libs/libDaisy/src/hid/disp/display.h ****             {
 1179              		.loc 10 416 19 view .LVU251
 1180 00a6 0023     		movs	r3, #0
 1181              	.LBB737:
 1182              	.LBB732:
 1183              	.LBB727:
 1184              	.LBB723:
 1185              	.LBB720:
 347:Display/../../libs/PoliTeKDSP/libs/libDaisy/src/dev/oled_ssd130x.h ****     }
 1186              		.loc 11 347 42 view .LVU252
 1187 00a8 6FEA0C09 		mvn	r9, ip
 1188 00ac 4244     		add	r2, r2, r8
 1189 00ae 0EE0     		b	.L89
 1190              	.LVL81:
 1191              	.L107:
 347:Display/../../libs/PoliTeKDSP/libs/libDaisy/src/dev/oled_ssd130x.h ****     }
 1192              		.loc 11 347 42 view .LVU253
 1193              	.LBE720:
 1194              	.LBE723:
 1195              	.LBE727:
 1196              	.LBE732:
 1197              	.LBE737:
 1198              	.LBB738:
 1199              	.LBI738:
  42:../libs/PoliTeKDSP/libs/libDaisy/src/hid/disp/oled_display.h ****     {
 1200              		.loc 9 42 10 is_stmt 1 view .LVU254
 1201              	.LBB739:
 1202              	.LBI739:
 340:Display/../../libs/PoliTeKDSP/libs/libDaisy/src/dev/oled_ssd130x.h ****     {
 1203              		.loc 11 340 10 view .LVU255
 1204              	.LBB740:
 342:Display/../../libs/PoliTeKDSP/libs/libDaisy/src/dev/oled_ssd130x.h ****             return;
 1205              		.loc 11 342 9 is_stmt 0 view .LVU256
 1206 00b0 7F29     		cmp	r1, #127
 1207 00b2 07D8     		bhi	.L85
 1208 00b4 BEF13F0F 		cmp	lr, #63
 1209 00b8 04D8     		bhi	.L85
 345:Display/../../libs/PoliTeKDSP/libs/libDaisy/src/dev/oled_ssd130x.h ****         else
 1210              		.loc 11 345 42 view .LVU257
 1211 00ba 1578     		ldrb	r5, [r2]	@ zero_extendqisi2
 344:Display/../../libs/PoliTeKDSP/libs/libDaisy/src/dev/oled_ssd130x.h ****             buffer_[x + (y / 8) * width] |= (1 << (y % 8));
 1212              		.loc 11 344 9 view .LVU258
 1213 00bc 9FB1     		cbz	r7, .L87
 1214              	.L104:
 344:Display/../../libs/PoliTeKDSP/libs/libDaisy/src/dev/oled_ssd130x.h ****             buffer_[x + (y / 8) * width] |= (1 << (y % 8));
 1215              		.loc 11 344 9 view .LVU259
 1216              	.LBE740:
 1217              	.LBE739:
 1218              	.LBE738:
 1219              	.LBB741:
ARM GAS  C:\Users\matte\AppData\Local\Temp\ccj2OJiD.s 			page 49


 1220              	.LBB733:
 1221              	.LBB728:
 345:Display/../../libs/PoliTeKDSP/libs/libDaisy/src/dev/oled_ssd130x.h ****         else
 1222              		.loc 11 345 42 view .LVU260
 1223 00be 4CEA0505 		orr	r5, ip, r5
 1224 00c2 1570     		strb	r5, [r2]
 1225              	.L85:
 1226              	.LBE728:
 1227              	.LBE733:
 1228              	.LBE741:
 416:../libs/PoliTeKDSP/libs/libDaisy/src/hid/disp/display.h ****             {
 1229              		.loc 10 416 13 is_stmt 1 discriminator 2 view .LVU261
 1230 00c4 0133     		adds	r3, r3, #1
 1231              	.LVL82:
 416:../libs/PoliTeKDSP/libs/libDaisy/src/hid/disp/display.h ****             {
 1232              		.loc 10 416 26 discriminator 2 view .LVU262
 1233 00c6 0132     		adds	r2, r2, #1
 1234 00c8 0131     		adds	r1, r1, #1
 1235 00ca 9C42     		cmp	r4, r3
 1236 00cc 14D0     		beq	.L88
 1237              	.LVL83:
 1238              	.L89:
 418:../libs/PoliTeKDSP/libs/libDaisy/src/hid/disp/display.h ****                 {
 1239              		.loc 10 418 23 is_stmt 0 view .LVU263
 1240 00ce 06FA03F5 		lsl	r5, r6, r3
 418:../libs/PoliTeKDSP/libs/libDaisy/src/hid/disp/display.h ****                 {
 1241              		.loc 10 418 17 view .LVU264
 1242 00d2 2D04     		lsls	r5, r5, #16
 1243 00d4 ECD4     		bmi	.L107
 1244              	.LVL84:
 1245              	.LBB742:
 1246              	.LBI715:
  42:../libs/PoliTeKDSP/libs/libDaisy/src/hid/disp/oled_display.h ****     {
 1247              		.loc 9 42 10 is_stmt 1 view .LVU265
 1248              	.LBB734:
 1249              	.LBI716:
 340:Display/../../libs/PoliTeKDSP/libs/libDaisy/src/dev/oled_ssd130x.h ****     {
 1250              		.loc 11 340 10 view .LVU266
 1251              	.LBB729:
 342:Display/../../libs/PoliTeKDSP/libs/libDaisy/src/dev/oled_ssd130x.h ****             return;
 1252              		.loc 11 342 9 is_stmt 0 view .LVU267
 1253 00d6 7F29     		cmp	r1, #127
 1254 00d8 F4D8     		bhi	.L85
 1255 00da BEF13F0F 		cmp	lr, #63
 1256 00de F1D8     		bhi	.L85
 345:Display/../../libs/PoliTeKDSP/libs/libDaisy/src/dev/oled_ssd130x.h ****         else
 1257              		.loc 11 345 42 view .LVU268
 1258 00e0 1578     		ldrb	r5, [r2]	@ zero_extendqisi2
 344:Display/../../libs/PoliTeKDSP/libs/libDaisy/src/dev/oled_ssd130x.h ****             buffer_[x + (y / 8) * width] |= (1 << (y % 8));
 1259              		.loc 11 344 9 view .LVU269
 1260 00e2 002F     		cmp	r7, #0
 1261 00e4 EBD0     		beq	.L104
 1262              	.L87:
 1263              	.LVL85:
 1264              	.LBB724:
 1265              	.LBI718:
 340:Display/../../libs/PoliTeKDSP/libs/libDaisy/src/dev/oled_ssd130x.h ****     {
ARM GAS  C:\Users\matte\AppData\Local\Temp\ccj2OJiD.s 			page 50


 1266              		.loc 11 340 10 is_stmt 1 view .LVU270
 340:Display/../../libs/PoliTeKDSP/libs/libDaisy/src/dev/oled_ssd130x.h ****     {
 1267              		.loc 11 340 10 is_stmt 0 view .LVU271
 1268              	.LBE724:
 1269              	.LBE729:
 1270              	.LBE734:
 1271              	.LBE742:
 416:../libs/PoliTeKDSP/libs/libDaisy/src/hid/disp/display.h ****             {
 1272              		.loc 10 416 13 view .LVU272
 1273 00e6 0133     		adds	r3, r3, #1
 1274              	.LVL86:
 1275              	.LBB743:
 1276              	.LBB735:
 1277              	.LBB730:
 1278              	.LBB725:
 1279              	.LBB721:
 347:Display/../../libs/PoliTeKDSP/libs/libDaisy/src/dev/oled_ssd130x.h ****     }
 1280              		.loc 11 347 42 view .LVU273
 1281 00e8 09EA0505 		and	r5, r9, r5
 1282              	.LBE721:
 1283              	.LBE725:
 1284              	.LBE730:
 1285              	.LBE735:
 1286              	.LBE743:
 416:../libs/PoliTeKDSP/libs/libDaisy/src/hid/disp/display.h ****             {
 1287              		.loc 10 416 26 view .LVU274
 1288 00ec 0132     		adds	r2, r2, #1
 1289 00ee 0131     		adds	r1, r1, #1
 1290 00f0 9C42     		cmp	r4, r3
 1291              	.LBB744:
 1292              	.LBB736:
 1293              	.LBB731:
 1294              	.LBB726:
 1295              	.LBB722:
 347:Display/../../libs/PoliTeKDSP/libs/libDaisy/src/dev/oled_ssd130x.h ****     }
 1296              		.loc 11 347 42 view .LVU275
 1297 00f2 02F8015C 		strb	r5, [r2, #-1]
 347:Display/../../libs/PoliTeKDSP/libs/libDaisy/src/dev/oled_ssd130x.h ****     }
 1298              		.loc 11 347 42 view .LVU276
 1299              	.LBE722:
 1300              	.LBE726:
 1301              	.LBE731:
 1302              	.LBE736:
 1303              	.LBE744:
 416:../libs/PoliTeKDSP/libs/libDaisy/src/hid/disp/display.h ****             {
 1304              		.loc 10 416 13 is_stmt 1 view .LVU277
 1305              	.LVL87:
 416:../libs/PoliTeKDSP/libs/libDaisy/src/hid/disp/display.h ****             {
 1306              		.loc 10 416 26 view .LVU278
 1307 00f6 EAD1     		bne	.L89
 1308              	.LVL88:
 1309              	.L88:
 413:../libs/PoliTeKDSP/libs/libDaisy/src/hid/disp/display.h ****         {
 1310              		.loc 10 413 9 view .LVU279
 413:../libs/PoliTeKDSP/libs/libDaisy/src/hid/disp/display.h ****         {
 1311              		.loc 10 413 22 view .LVU280
 1312 00f8 5845     		cmp	r0, fp
ARM GAS  C:\Users\matte\AppData\Local\Temp\ccj2OJiD.s 			page 51


 1313 00fa 0EF1010E 		add	lr, lr, #1
 1314 00fe C0D1     		bne	.L83
 1315              	.LVL89:
 1316              	.L82:
 1317              	.LBB745:
 1318              	.LBB746:
 173:../libs/PoliTeKDSP/libs/libDaisy/src/hid/disp/display.h ****         currentY_ = (y >= Height()) ? Height() - 1 : y;
 1319              		.loc 10 173 33 is_stmt 0 view .LVU281
 1320 0100 D8F80030 		ldr	r3, [r8]
 1321              	.LBE746:
 1322              	.LBE745:
 434:../libs/PoliTeKDSP/libs/libDaisy/src/hid/disp/display.h **** 
 1323              		.loc 10 434 18 view .LVU282
 1324 0104 5444     		add	r4, r4, r10
 1325 0106 2449     		ldr	r1, .L113
 1326              	.LBB752:
 1327              	.LBB747:
 173:../libs/PoliTeKDSP/libs/libDaisy/src/hid/disp/display.h ****         currentY_ = (y >= Height()) ? Height() - 1 : y;
 1328              		.loc 10 173 33 view .LVU283
 1329 0108 DA68     		ldr	r2, [r3, #12]
 1330              	.LBE747:
 1331              	.LBE752:
 434:../libs/PoliTeKDSP/libs/libDaisy/src/hid/disp/display.h **** 
 1332              		.loc 10 434 18 view .LVU284
 1333 010a A4B2     		uxth	r4, r4
 1334              	.LVL90:
 1335              	.LBB753:
 1336              	.LBI745:
 171:../libs/PoliTeKDSP/libs/libDaisy/src/hid/disp/display.h ****     {
 1337              		.loc 10 171 10 is_stmt 1 view .LVU285
 1338              	.LBB748:
 173:../libs/PoliTeKDSP/libs/libDaisy/src/hid/disp/display.h ****         currentY_ = (y >= Height()) ? Height() - 1 : y;
 1339              		.loc 10 173 9 view .LVU286
 1340 010c 8A42     		cmp	r2, r1
 1341 010e 2DD1     		bne	.L108
 173:../libs/PoliTeKDSP/libs/libDaisy/src/hid/disp/display.h ****         currentY_ = (y >= Height()) ? Height() - 1 : y;
 1342              		.loc 10 173 33 is_stmt 0 view .LVU287
 1343 0110 8020     		movs	r0, #128
 1344              	.L90:
 173:../libs/PoliTeKDSP/libs/libDaisy/src/hid/disp/display.h ****         currentY_ = (y >= Height()) ? Height() - 1 : y;
 1345              		.loc 10 173 19 view .LVU288
 1346 0112 8442     		cmp	r4, r0
 1347 0114 1CD2     		bcs	.L109
 1348              	.LVL91:
 1349              	.L91:
 174:../libs/PoliTeKDSP/libs/libDaisy/src/hid/disp/display.h ****     }
 1350              		.loc 10 174 34 view .LVU289
 1351 0116 9B68     		ldr	r3, [r3, #8]
 1352 0118 204A     		ldr	r2, .L113+4
 173:../libs/PoliTeKDSP/libs/libDaisy/src/hid/disp/display.h ****         currentY_ = (y >= Height()) ? Height() - 1 : y;
 1353              		.loc 10 173 19 view .LVU290
 1354 011a A8F80440 		strh	r4, [r8, #4]	@ movhi
 174:../libs/PoliTeKDSP/libs/libDaisy/src/hid/disp/display.h ****     }
 1355              		.loc 10 174 9 is_stmt 1 view .LVU291
 1356 011e 9342     		cmp	r3, r2
 1357 0120 21D1     		bne	.L110
 174:../libs/PoliTeKDSP/libs/libDaisy/src/hid/disp/display.h ****     }
ARM GAS  C:\Users\matte\AppData\Local\Temp\ccj2OJiD.s 			page 52


 1358              		.loc 10 174 34 is_stmt 0 view .LVU292
 1359 0122 4020     		movs	r0, #64
 1360              	.L93:
 174:../libs/PoliTeKDSP/libs/libDaisy/src/hid/disp/display.h ****     }
 1361              		.loc 10 174 19 view .LVU293
 1362 0124 019B     		ldr	r3, [sp, #4]
 1363 0126 8342     		cmp	r3, r0
 1364 0128 07D3     		bcc	.L94
 174:../libs/PoliTeKDSP/libs/libDaisy/src/hid/disp/display.h ****     }
 1365              		.loc 10 174 46 view .LVU294
 1366 012a D8F80030 		ldr	r3, [r8]
 1367 012e 1B4A     		ldr	r2, .L113+4
 1368 0130 9B68     		ldr	r3, [r3, #8]
 1369 0132 9342     		cmp	r3, r2
 1370 0134 29D1     		bne	.L111
 1371 0136 3F23     		movs	r3, #63
 1372 0138 0193     		str	r3, [sp, #4]
 1373              	.LVL92:
 1374              	.L94:
 174:../libs/PoliTeKDSP/libs/libDaisy/src/hid/disp/display.h ****     }
 1375              		.loc 10 174 19 view .LVU295
 1376 013a DDE90003 		ldrd	r0, r3, [sp]
 1377 013e A8F80630 		strh	r3, [r8, #6]	@ movhi
 1378              	.LVL93:
 174:../libs/PoliTeKDSP/libs/libDaisy/src/hid/disp/display.h ****     }
 1379              		.loc 10 174 19 view .LVU296
 1380              	.LBE748:
 1381              	.LBE753:
 438:../libs/PoliTeKDSP/libs/libDaisy/src/hid/disp/display.h **** 
 1382              		.loc 10 438 5 view .LVU297
 1383 0142 05B0     		add	sp, sp, #20
 1384              		.cfi_remember_state
 1385              		.cfi_def_cfa_offset 36
 1386              		@ sp needed
 1387 0144 BDE8F08F 		pop	{r4, r5, r6, r7, r8, r9, r10, fp, pc}
 1388              	.LVL94:
 1389              	.L78:
 1390              		.cfi_restore_state
 402:../libs/PoliTeKDSP/libs/libDaisy/src/hid/disp/display.h **** 
 1391              		.loc 10 402 20 view .LVU298
 1392 0148 0020     		movs	r0, #0
 438:../libs/PoliTeKDSP/libs/libDaisy/src/hid/disp/display.h **** 
 1393              		.loc 10 438 5 view .LVU299
 1394 014a 05B0     		add	sp, sp, #20
 1395              		.cfi_remember_state
 1396              		.cfi_def_cfa_offset 36
 1397              		@ sp needed
 1398 014c BDE8F08F 		pop	{r4, r5, r6, r7, r8, r9, r10, fp, pc}
 1399              	.LVL95:
 1400              	.L109:
 1401              		.cfi_restore_state
 1402              	.LBB754:
 1403              	.LBB749:
 173:../libs/PoliTeKDSP/libs/libDaisy/src/hid/disp/display.h ****         currentY_ = (y >= Height()) ? Height() - 1 : y;
 1404              		.loc 10 173 44 view .LVU300
 1405 0150 DA68     		ldr	r2, [r3, #12]
 1406 0152 1149     		ldr	r1, .L113
ARM GAS  C:\Users\matte\AppData\Local\Temp\ccj2OJiD.s 			page 53


 1407 0154 8A42     		cmp	r2, r1
 1408 0156 11D1     		bne	.L112
 1409 0158 7F24     		movs	r4, #127
 1410              	.LVL96:
 173:../libs/PoliTeKDSP/libs/libDaisy/src/hid/disp/display.h ****         currentY_ = (y >= Height()) ? Height() - 1 : y;
 1411              		.loc 10 173 44 view .LVU301
 1412 015a DCE7     		b	.L91
 1413              	.LVL97:
 1414              	.L105:
 173:../libs/PoliTeKDSP/libs/libDaisy/src/hid/disp/display.h ****         currentY_ = (y >= Height()) ? Height() - 1 : y;
 1415              		.loc 10 173 44 view .LVU302
 1416              	.LBE749:
 1417              	.LBE754:
 405:../libs/PoliTeKDSP/libs/libDaisy/src/hid/disp/display.h ****            || Height() < (currentY_ + font.FontHeight))
 1418              		.loc 10 405 17 view .LVU303
 1419 015c 9847     		blx	r3
 1420              	.LVL98:
 405:../libs/PoliTeKDSP/libs/libDaisy/src/hid/disp/display.h ****            || Height() < (currentY_ + font.FontHeight))
 1421              		.loc 10 405 17 view .LVU304
 1422 015e 6AE7     		b	.L77
 1423              	.L106:
 406:../libs/PoliTeKDSP/libs/libDaisy/src/hid/disp/display.h ****         {
 1424              		.loc 10 406 21 discriminator 2 view .LVU305
 1425 0160 4046     		mov	r0, r8
 1426 0162 9847     		blx	r3
 1427              	.LVL99:
 1428 0164 75E7     		b	.L79
 1429              	.LVL100:
 1430              	.L110:
 1431              	.LBB755:
 1432              	.LBB750:
 174:../libs/PoliTeKDSP/libs/libDaisy/src/hid/disp/display.h ****     }
 1433              		.loc 10 174 33 view .LVU306
 1434 0166 4046     		mov	r0, r8
 1435 0168 9847     		blx	r3
 1436              	.LVL101:
 1437 016a DBE7     		b	.L93
 1438              	.LVL102:
 1439              	.L108:
 173:../libs/PoliTeKDSP/libs/libDaisy/src/hid/disp/display.h ****         currentY_ = (y >= Height()) ? Height() - 1 : y;
 1440              		.loc 10 173 32 view .LVU307
 1441 016c 4046     		mov	r0, r8
 1442 016e 9047     		blx	r2
 1443              	.LVL103:
 173:../libs/PoliTeKDSP/libs/libDaisy/src/hid/disp/display.h ****         currentY_ = (y >= Height()) ? Height() - 1 : y;
 1444              		.loc 10 173 44 view .LVU308
 1445 0170 D8F80030 		ldr	r3, [r8]
 1446 0174 CDE7     		b	.L90
 1447              	.LVL104:
 1448              	.L80:
 173:../libs/PoliTeKDSP/libs/libDaisy/src/hid/disp/display.h ****         currentY_ = (y >= Height()) ? Height() - 1 : y;
 1449              		.loc 10 173 44 view .LVU309
 1450              	.LBE750:
 1451              	.LBE755:
 434:../libs/PoliTeKDSP/libs/libDaisy/src/hid/disp/display.h **** 
 1452              		.loc 10 434 19 view .LVU310
 1453 0176 B8F804A0 		ldrh	r10, [r8, #4]
ARM GAS  C:\Users\matte\AppData\Local\Temp\ccj2OJiD.s 			page 54


 1454 017a C1E7     		b	.L82
 1455              	.LVL105:
 1456              	.L112:
 1457              	.LBB756:
 1458              	.LBB751:
 173:../libs/PoliTeKDSP/libs/libDaisy/src/hid/disp/display.h ****         currentY_ = (y >= Height()) ? Height() - 1 : y;
 1459              		.loc 10 173 43 view .LVU311
 1460 017c 4046     		mov	r0, r8
 1461 017e 9047     		blx	r2
 1462              	.LVL106:
 173:../libs/PoliTeKDSP/libs/libDaisy/src/hid/disp/display.h ****         currentY_ = (y >= Height()) ? Height() - 1 : y;
 1463              		.loc 10 173 19 view .LVU312
 1464 0180 0138     		subs	r0, r0, #1
 174:../libs/PoliTeKDSP/libs/libDaisy/src/hid/disp/display.h ****     }
 1465              		.loc 10 174 34 view .LVU313
 1466 0182 D8F80030 		ldr	r3, [r8]
 173:../libs/PoliTeKDSP/libs/libDaisy/src/hid/disp/display.h ****         currentY_ = (y >= Height()) ? Height() - 1 : y;
 1467              		.loc 10 173 19 view .LVU314
 1468 0186 84B2     		uxth	r4, r0
 1469              	.LVL107:
 173:../libs/PoliTeKDSP/libs/libDaisy/src/hid/disp/display.h ****         currentY_ = (y >= Height()) ? Height() - 1 : y;
 1470              		.loc 10 173 19 view .LVU315
 1471 0188 C5E7     		b	.L91
 1472              	.L111:
 174:../libs/PoliTeKDSP/libs/libDaisy/src/hid/disp/display.h ****     }
 1473              		.loc 10 174 45 view .LVU316
 1474 018a 4046     		mov	r0, r8
 1475 018c 9847     		blx	r3
 1476              	.LVL108:
 174:../libs/PoliTeKDSP/libs/libDaisy/src/hid/disp/display.h ****     }
 1477              		.loc 10 174 19 view .LVU317
 1478 018e 0138     		subs	r0, r0, #1
 1479 0190 83B2     		uxth	r3, r0
 1480 0192 0193     		str	r3, [sp, #4]
 1481              	.LVL109:
 174:../libs/PoliTeKDSP/libs/libDaisy/src/hid/disp/display.h ****     }
 1482              		.loc 10 174 19 view .LVU318
 1483 0194 D1E7     		b	.L94
 1484              	.L114:
 1485 0196 00BF     		.align	2
 1486              	.L113:
 1487 0198 00000000 		.word	_ZNK5daisy11OledDisplayINS_13SSD130xDriverILj128ELj64ENS_19SSD130xI2CTransportEEEE5WidthEv
 1488 019c 00000000 		.word	_ZNK5daisy11OledDisplayINS_13SSD130xDriverILj128ELj64ENS_19SSD130xI2CTransportEEEE6HeightEv
 1489              	.LBE751:
 1490              	.LBE756:
 1491              		.cfi_endproc
 1492              	.LFE5624:
 1494              		.section	.text._ZN5daisy25OneBitGraphicsDisplayImplINS_11OledDisplayINS_13SSD130xDriverILj128ELj64
 1495              		.align	1
 1496              		.p2align 2,,3
 1497              		.weak	_ZN5daisy25OneBitGraphicsDisplayImplINS_11OledDisplayINS_13SSD130xDriverILj128ELj64ENS_19SSD
 1498              		.syntax unified
 1499              		.thumb
 1500              		.thumb_func
 1501              		.fpu fpv5-d16
 1503              	_ZN5daisy25OneBitGraphicsDisplayImplINS_11OledDisplayINS_13SSD130xDriverILj128ELj64ENS_19SSD130xI2C
 1504              	.LVL110:
ARM GAS  C:\Users\matte\AppData\Local\Temp\ccj2OJiD.s 			page 55


 1505              	.LFB5626:
 459:../libs/PoliTeKDSP/libs/libDaisy/src/hid/disp/display.h **** 
 460:../libs/PoliTeKDSP/libs/libDaisy/src/hid/disp/display.h ****     Rectangle WriteStringAligned(const char*    str,
 1506              		.loc 10 460 15 is_stmt 1 view -0
 1507              		.cfi_startproc
 1508              		@ args = 12, pretend = 0, frame = 32
 1509              		@ frame_needed = 0, uses_anonymous_args = 0
 1510              		.loc 10 460 15 is_stmt 0 view .LVU320
 1511 0000 2DE9F04F 		push	{r4, r5, r6, r7, r8, r9, r10, fp, lr}
 1512              		.cfi_def_cfa_offset 36
 1513              		.cfi_offset 4, -36
 1514              		.cfi_offset 5, -32
 1515              		.cfi_offset 6, -28
 1516              		.cfi_offset 7, -24
 1517              		.cfi_offset 8, -20
 1518              		.cfi_offset 9, -16
 1519              		.cfi_offset 10, -12
 1520              		.cfi_offset 11, -8
 1521              		.cfi_offset 14, -4
 1522 0004 89B0     		sub	sp, sp, #36
 1523              		.cfi_def_cfa_offset 72
 1524              		.loc 10 460 15 view .LVU321
 1525 0006 1D46     		mov	r5, r3
 1526 0008 8846     		mov	r8, r1
 1527              	.LVL111:
 1528              	.LBB895:
 1529              	.LBI895:
 461:../libs/PoliTeKDSP/libs/libDaisy/src/hid/disp/display.h ****                                  const FontDef& font,
 462:../libs/PoliTeKDSP/libs/libDaisy/src/hid/disp/display.h ****                                  Rectangle      boundingBox,
 463:../libs/PoliTeKDSP/libs/libDaisy/src/hid/disp/display.h ****                                  Alignment      alignment,
 464:../libs/PoliTeKDSP/libs/libDaisy/src/hid/disp/display.h ****                                  bool           on) override
 465:../libs/PoliTeKDSP/libs/libDaisy/src/hid/disp/display.h ****     {
 466:../libs/PoliTeKDSP/libs/libDaisy/src/hid/disp/display.h ****         const auto alignedRect
 467:../libs/PoliTeKDSP/libs/libDaisy/src/hid/disp/display.h ****             = GetTextRect(str, font).AlignedWithin(boundingBox, alignment);
 468:../libs/PoliTeKDSP/libs/libDaisy/src/hid/disp/display.h ****         SetCursor(alignedRect.GetX(), alignedRect.GetY());
 469:../libs/PoliTeKDSP/libs/libDaisy/src/hid/disp/display.h ****         ((ChildType*)(this))->ChildType::WriteString(str, font, on);
 470:../libs/PoliTeKDSP/libs/libDaisy/src/hid/disp/display.h ****         return alignedRect;
 471:../libs/PoliTeKDSP/libs/libDaisy/src/hid/disp/display.h ****     }
 472:../libs/PoliTeKDSP/libs/libDaisy/src/hid/disp/display.h **** 
 473:../libs/PoliTeKDSP/libs/libDaisy/src/hid/disp/display.h ****   private:
 474:../libs/PoliTeKDSP/libs/libDaisy/src/hid/disp/display.h ****     uint32_t strlen(const char* string)
 475:../libs/PoliTeKDSP/libs/libDaisy/src/hid/disp/display.h ****     {
 476:../libs/PoliTeKDSP/libs/libDaisy/src/hid/disp/display.h ****         uint32_t result = 0;
 477:../libs/PoliTeKDSP/libs/libDaisy/src/hid/disp/display.h ****         while(*string++ != '\0')
 478:../libs/PoliTeKDSP/libs/libDaisy/src/hid/disp/display.h ****             result++;
 479:../libs/PoliTeKDSP/libs/libDaisy/src/hid/disp/display.h ****         return result;
 480:../libs/PoliTeKDSP/libs/libDaisy/src/hid/disp/display.h ****     }
 481:../libs/PoliTeKDSP/libs/libDaisy/src/hid/disp/display.h **** 
 482:../libs/PoliTeKDSP/libs/libDaisy/src/hid/disp/display.h ****     Rectangle GetTextRect(const char* text, const FontDef& font)
 1530              		.loc 10 482 15 is_stmt 1 view .LVU322
 1531              	.LBB896:
 1532              	.LBB897:
 1533              	.LBI897:
 474:../libs/PoliTeKDSP/libs/libDaisy/src/hid/disp/display.h ****     {
 1534              		.loc 10 474 14 view .LVU323
 1535              	.LBB898:
 477:../libs/PoliTeKDSP/libs/libDaisy/src/hid/disp/display.h ****             result++;
ARM GAS  C:\Users\matte\AppData\Local\Temp\ccj2OJiD.s 			page 56


 1536              		.loc 10 477 25 view .LVU324
 1537              	.LBE898:
 1538              	.LBE897:
 1539              	.LBE896:
 1540              	.LBE895:
 460:../libs/PoliTeKDSP/libs/libDaisy/src/hid/disp/display.h ****                                  const FontDef& font,
 1541              		.loc 10 460 15 is_stmt 0 view .LVU325
 1542 000a 0690     		str	r0, [sp, #24]
 1543              	.LBB913:
 1544              	.LBB909:
 1545              	.LBB902:
 1546              	.LBB899:
 477:../libs/PoliTeKDSP/libs/libDaisy/src/hid/disp/display.h ****             result++;
 1547              		.loc 10 477 25 view .LVU326
 1548 000c 1046     		mov	r0, r2
 1549              	.LVL112:
 477:../libs/PoliTeKDSP/libs/libDaisy/src/hid/disp/display.h ****             result++;
 1550              		.loc 10 477 25 view .LVU327
 1551              	.LBE899:
 1552              	.LBE902:
 1553              	.LBE909:
 1554              	.LBE913:
 460:../libs/PoliTeKDSP/libs/libDaisy/src/hid/disp/display.h ****                                  const FontDef& font,
 1555              		.loc 10 460 15 view .LVU328
 1556 000e 129C     		ldr	r4, [sp, #72]
 1557              	.LBB914:
 1558              	.LBB910:
 1559              	.LBB903:
 1560              	.LBB900:
 477:../libs/PoliTeKDSP/libs/libDaisy/src/hid/disp/display.h ****             result++;
 1561              		.loc 10 477 25 view .LVU329
 1562 0010 10F8013B 		ldrb	r3, [r0], #1	@ zero_extendqisi2
 1563              	.LVL113:
 477:../libs/PoliTeKDSP/libs/libDaisy/src/hid/disp/display.h ****             result++;
 1564              		.loc 10 477 25 view .LVU330
 1565              	.LBE900:
 1566              	.LBE903:
 1567              	.LBE910:
 1568              	.LBE914:
 460:../libs/PoliTeKDSP/libs/libDaisy/src/hid/disp/display.h ****                                  const FontDef& font,
 1569              		.loc 10 460 15 view .LVU331
 1570 0014 1399     		ldr	r1, [sp, #76]
 1571              	.LVL114:
 460:../libs/PoliTeKDSP/libs/libDaisy/src/hid/disp/display.h ****                                  const FontDef& font,
 1572              		.loc 10 460 15 view .LVU332
 1573 0016 9DF85060 		ldrb	r6, [sp, #80]	@ zero_extendqisi2
 1574 001a 0092     		str	r2, [sp]
 1575              	.LBB915:
 1576              	.LBB911:
 1577              	.LBB904:
 1578              	.LBB901:
 477:../libs/PoliTeKDSP/libs/libDaisy/src/hid/disp/display.h ****             result++;
 1579              		.loc 10 477 25 view .LVU333
 1580 001c 33B1     		cbz	r3, .L116
 476:../libs/PoliTeKDSP/libs/libDaisy/src/hid/disp/display.h ****         while(*string++ != '\0')
 1581              		.loc 10 476 18 view .LVU334
 1582 001e 0022     		movs	r2, #0
ARM GAS  C:\Users\matte\AppData\Local\Temp\ccj2OJiD.s 			page 57


 1583              	.LVL115:
 1584              	.L117:
 477:../libs/PoliTeKDSP/libs/libDaisy/src/hid/disp/display.h ****             result++;
 1585              		.loc 10 477 25 view .LVU335
 1586 0020 10F8013B 		ldrb	r3, [r0], #1	@ zero_extendqisi2
 1587              	.LVL116:
 478:../libs/PoliTeKDSP/libs/libDaisy/src/hid/disp/display.h ****         return result;
 1588              		.loc 10 478 13 view .LVU336
 1589 0024 0132     		adds	r2, r2, #1
 1590              	.LVL117:
 477:../libs/PoliTeKDSP/libs/libDaisy/src/hid/disp/display.h ****             result++;
 1591              		.loc 10 477 25 is_stmt 1 view .LVU337
 1592 0026 002B     		cmp	r3, #0
 1593 0028 FAD1     		bne	.L117
 1594              	.LBE901:
 1595              	.LBE904:
 483:../libs/PoliTeKDSP/libs/libDaisy/src/hid/disp/display.h ****     {
 484:../libs/PoliTeKDSP/libs/libDaisy/src/hid/disp/display.h ****         const auto numChars = strlen(text);
 485:../libs/PoliTeKDSP/libs/libDaisy/src/hid/disp/display.h ****         return {int16_t(numChars * font.FontWidth), font.FontHeight};
 1596              		.loc 10 485 68 is_stmt 0 view .LVU338
 1597 002a 93B2     		uxth	r3, r2
 1598              	.LVL118:
 1599              	.L116:
 1600              		.loc 10 485 68 view .LVU339
 1601 002c 2A78     		ldrb	r2, [r5]	@ zero_extendqisi2
 1602              		.loc 10 485 58 view .LVU340
 1603 002e 6878     		ldrb	r0, [r5, #1]	@ zero_extendqisi2
 1604              		.loc 10 485 68 view .LVU341
 1605 0030 12FB03F3 		smulbb	r3, r2, r3
 1606 0034 02B2     		sxth	r2, r0
 1607              	.LVL119:
 1608              	.LBB905:
 1609              	.LBI905:
 1610              		.file 13 "../libs/PoliTeKDSP/libs/libDaisy/src/hid/disp/graphics_common.h"
   1:../libs/PoliTeKDSP/libs/libDaisy/src/hid/disp/graphics_common.h **** #pragma once
   2:../libs/PoliTeKDSP/libs/libDaisy/src/hid/disp/graphics_common.h **** 
   3:../libs/PoliTeKDSP/libs/libDaisy/src/hid/disp/graphics_common.h **** #include <cstdint>
   4:../libs/PoliTeKDSP/libs/libDaisy/src/hid/disp/graphics_common.h **** 
   5:../libs/PoliTeKDSP/libs/libDaisy/src/hid/disp/graphics_common.h **** namespace daisy
   6:../libs/PoliTeKDSP/libs/libDaisy/src/hid/disp/graphics_common.h **** {
   7:../libs/PoliTeKDSP/libs/libDaisy/src/hid/disp/graphics_common.h **** /** Justifications */
   8:../libs/PoliTeKDSP/libs/libDaisy/src/hid/disp/graphics_common.h **** enum class Alignment
   9:../libs/PoliTeKDSP/libs/libDaisy/src/hid/disp/graphics_common.h **** {
  10:../libs/PoliTeKDSP/libs/libDaisy/src/hid/disp/graphics_common.h ****     centered,
  11:../libs/PoliTeKDSP/libs/libDaisy/src/hid/disp/graphics_common.h ****     topLeft,
  12:../libs/PoliTeKDSP/libs/libDaisy/src/hid/disp/graphics_common.h ****     topCentered,
  13:../libs/PoliTeKDSP/libs/libDaisy/src/hid/disp/graphics_common.h ****     topRight,
  14:../libs/PoliTeKDSP/libs/libDaisy/src/hid/disp/graphics_common.h ****     bottomLeft,
  15:../libs/PoliTeKDSP/libs/libDaisy/src/hid/disp/graphics_common.h ****     bottomCentered,
  16:../libs/PoliTeKDSP/libs/libDaisy/src/hid/disp/graphics_common.h ****     bottomRight,
  17:../libs/PoliTeKDSP/libs/libDaisy/src/hid/disp/graphics_common.h ****     centeredLeft,
  18:../libs/PoliTeKDSP/libs/libDaisy/src/hid/disp/graphics_common.h ****     centeredRight
  19:../libs/PoliTeKDSP/libs/libDaisy/src/hid/disp/graphics_common.h **** };
  20:../libs/PoliTeKDSP/libs/libDaisy/src/hid/disp/graphics_common.h **** 
  21:../libs/PoliTeKDSP/libs/libDaisy/src/hid/disp/graphics_common.h **** class Rectangle
  22:../libs/PoliTeKDSP/libs/libDaisy/src/hid/disp/graphics_common.h **** {
  23:../libs/PoliTeKDSP/libs/libDaisy/src/hid/disp/graphics_common.h ****   public:
ARM GAS  C:\Users\matte\AppData\Local\Temp\ccj2OJiD.s 			page 58


  24:../libs/PoliTeKDSP/libs/libDaisy/src/hid/disp/graphics_common.h ****     Rectangle() : x_(0), y_(0), width_(0), height_(0) {}
  25:../libs/PoliTeKDSP/libs/libDaisy/src/hid/disp/graphics_common.h **** 
  26:../libs/PoliTeKDSP/libs/libDaisy/src/hid/disp/graphics_common.h ****     Rectangle(int16_t width, int16_t height)
 1611              		.loc 13 26 5 is_stmt 1 view .LVU342
 1612              	.LBB906:
 1613              	.LBI906:
  27:../libs/PoliTeKDSP/libs/libDaisy/src/hid/disp/graphics_common.h ****     : x_(0), y_(0), width_(max(0, width)), height_(max(0, height))
  28:../libs/PoliTeKDSP/libs/libDaisy/src/hid/disp/graphics_common.h ****     {
  29:../libs/PoliTeKDSP/libs/libDaisy/src/hid/disp/graphics_common.h ****     }
  30:../libs/PoliTeKDSP/libs/libDaisy/src/hid/disp/graphics_common.h **** 
  31:../libs/PoliTeKDSP/libs/libDaisy/src/hid/disp/graphics_common.h ****     Rectangle(int16_t x, int16_t y, int16_t width, int16_t height)
  32:../libs/PoliTeKDSP/libs/libDaisy/src/hid/disp/graphics_common.h ****     : x_(x), y_(y), width_(max(0, width)), height_(max(0, height))
  33:../libs/PoliTeKDSP/libs/libDaisy/src/hid/disp/graphics_common.h ****     {
  34:../libs/PoliTeKDSP/libs/libDaisy/src/hid/disp/graphics_common.h ****     }
  35:../libs/PoliTeKDSP/libs/libDaisy/src/hid/disp/graphics_common.h **** 
  36:../libs/PoliTeKDSP/libs/libDaisy/src/hid/disp/graphics_common.h ****     Rectangle(const Rectangle& other) { *this = other; }
  37:../libs/PoliTeKDSP/libs/libDaisy/src/hid/disp/graphics_common.h **** 
  38:../libs/PoliTeKDSP/libs/libDaisy/src/hid/disp/graphics_common.h ****     Rectangle& operator=(const Rectangle& other)
  39:../libs/PoliTeKDSP/libs/libDaisy/src/hid/disp/graphics_common.h ****     {
  40:../libs/PoliTeKDSP/libs/libDaisy/src/hid/disp/graphics_common.h ****         x_      = other.x_;
  41:../libs/PoliTeKDSP/libs/libDaisy/src/hid/disp/graphics_common.h ****         y_      = other.y_;
  42:../libs/PoliTeKDSP/libs/libDaisy/src/hid/disp/graphics_common.h ****         width_  = other.width_;
  43:../libs/PoliTeKDSP/libs/libDaisy/src/hid/disp/graphics_common.h ****         height_ = other.height_;
  44:../libs/PoliTeKDSP/libs/libDaisy/src/hid/disp/graphics_common.h ****         return *this;
  45:../libs/PoliTeKDSP/libs/libDaisy/src/hid/disp/graphics_common.h ****     }
  46:../libs/PoliTeKDSP/libs/libDaisy/src/hid/disp/graphics_common.h **** 
  47:../libs/PoliTeKDSP/libs/libDaisy/src/hid/disp/graphics_common.h ****     bool operator==(const Rectangle& other) const
  48:../libs/PoliTeKDSP/libs/libDaisy/src/hid/disp/graphics_common.h ****     {
  49:../libs/PoliTeKDSP/libs/libDaisy/src/hid/disp/graphics_common.h ****         return (x_ == other.x_) && (y_ == other.y_) && (width_ == other.width_)
  50:../libs/PoliTeKDSP/libs/libDaisy/src/hid/disp/graphics_common.h ****                && (height_ == other.height_);
  51:../libs/PoliTeKDSP/libs/libDaisy/src/hid/disp/graphics_common.h ****     }
  52:../libs/PoliTeKDSP/libs/libDaisy/src/hid/disp/graphics_common.h ****     bool operator!=(const Rectangle& other) const { return !(*this == other); }
  53:../libs/PoliTeKDSP/libs/libDaisy/src/hid/disp/graphics_common.h **** 
  54:../libs/PoliTeKDSP/libs/libDaisy/src/hid/disp/graphics_common.h ****     bool IsEmpty() const { return (width_ <= 0) || (height_ <= 0); }
  55:../libs/PoliTeKDSP/libs/libDaisy/src/hid/disp/graphics_common.h **** 
  56:../libs/PoliTeKDSP/libs/libDaisy/src/hid/disp/graphics_common.h ****     int16_t GetX() const { return x_; }
  57:../libs/PoliTeKDSP/libs/libDaisy/src/hid/disp/graphics_common.h ****     int16_t GetY() const { return y_; }
  58:../libs/PoliTeKDSP/libs/libDaisy/src/hid/disp/graphics_common.h ****     int16_t GetWidth() const { return width_; }
  59:../libs/PoliTeKDSP/libs/libDaisy/src/hid/disp/graphics_common.h ****     int16_t GetHeight() const { return height_; }
  60:../libs/PoliTeKDSP/libs/libDaisy/src/hid/disp/graphics_common.h ****     int16_t GetRight() const { return x_ + width_; }
  61:../libs/PoliTeKDSP/libs/libDaisy/src/hid/disp/graphics_common.h ****     int16_t GetBottom() const { return y_ + height_; }
  62:../libs/PoliTeKDSP/libs/libDaisy/src/hid/disp/graphics_common.h ****     int16_t GetCenterX() const { return x_ + width_ / 2; }
  63:../libs/PoliTeKDSP/libs/libDaisy/src/hid/disp/graphics_common.h ****     int16_t GetCenterY() const { return y_ + height_ / 2; }
  64:../libs/PoliTeKDSP/libs/libDaisy/src/hid/disp/graphics_common.h **** 
  65:../libs/PoliTeKDSP/libs/libDaisy/src/hid/disp/graphics_common.h ****     Rectangle WithX(int16_t x) const { return {x, y_, width_, height_}; }
  66:../libs/PoliTeKDSP/libs/libDaisy/src/hid/disp/graphics_common.h ****     Rectangle WithY(int16_t y) const { return {x_, y, width_, height_}; }
  67:../libs/PoliTeKDSP/libs/libDaisy/src/hid/disp/graphics_common.h ****     Rectangle WithWidth(int16_t width) const
  68:../libs/PoliTeKDSP/libs/libDaisy/src/hid/disp/graphics_common.h ****     {
  69:../libs/PoliTeKDSP/libs/libDaisy/src/hid/disp/graphics_common.h ****         return {x_, y_, width, height_};
  70:../libs/PoliTeKDSP/libs/libDaisy/src/hid/disp/graphics_common.h ****     }
  71:../libs/PoliTeKDSP/libs/libDaisy/src/hid/disp/graphics_common.h ****     Rectangle WithHeight(int16_t height) const
  72:../libs/PoliTeKDSP/libs/libDaisy/src/hid/disp/graphics_common.h ****     {
  73:../libs/PoliTeKDSP/libs/libDaisy/src/hid/disp/graphics_common.h ****         return {x_, y_, width_, height};
  74:../libs/PoliTeKDSP/libs/libDaisy/src/hid/disp/graphics_common.h ****     }
  75:../libs/PoliTeKDSP/libs/libDaisy/src/hid/disp/graphics_common.h ****     Rectangle WithSize(int16_t width, int16_t height) const
  76:../libs/PoliTeKDSP/libs/libDaisy/src/hid/disp/graphics_common.h ****     {
  77:../libs/PoliTeKDSP/libs/libDaisy/src/hid/disp/graphics_common.h ****         return {x_, y_, width, height};
ARM GAS  C:\Users\matte\AppData\Local\Temp\ccj2OJiD.s 			page 59


  78:../libs/PoliTeKDSP/libs/libDaisy/src/hid/disp/graphics_common.h ****     }
  79:../libs/PoliTeKDSP/libs/libDaisy/src/hid/disp/graphics_common.h ****     Rectangle WithWidthKeepingCenter(int16_t width) const
  80:../libs/PoliTeKDSP/libs/libDaisy/src/hid/disp/graphics_common.h ****     {
  81:../libs/PoliTeKDSP/libs/libDaisy/src/hid/disp/graphics_common.h ****         return Rectangle(x_, y_, width, height_)
  82:../libs/PoliTeKDSP/libs/libDaisy/src/hid/disp/graphics_common.h ****             .WithCenter(GetCenterX(), GetCenterY());
  83:../libs/PoliTeKDSP/libs/libDaisy/src/hid/disp/graphics_common.h ****     }
  84:../libs/PoliTeKDSP/libs/libDaisy/src/hid/disp/graphics_common.h ****     Rectangle WithHeightKeepingCenter(int16_t height) const
  85:../libs/PoliTeKDSP/libs/libDaisy/src/hid/disp/graphics_common.h ****     {
  86:../libs/PoliTeKDSP/libs/libDaisy/src/hid/disp/graphics_common.h ****         return Rectangle(x_, y_, width_, height)
  87:../libs/PoliTeKDSP/libs/libDaisy/src/hid/disp/graphics_common.h ****             .WithCenter(GetCenterX(), GetCenterY());
  88:../libs/PoliTeKDSP/libs/libDaisy/src/hid/disp/graphics_common.h ****     }
  89:../libs/PoliTeKDSP/libs/libDaisy/src/hid/disp/graphics_common.h ****     Rectangle WithSizeKeepingCenter(int16_t width, int16_t height) const
  90:../libs/PoliTeKDSP/libs/libDaisy/src/hid/disp/graphics_common.h ****     {
  91:../libs/PoliTeKDSP/libs/libDaisy/src/hid/disp/graphics_common.h ****         return Rectangle(x_, y_, width, height)
  92:../libs/PoliTeKDSP/libs/libDaisy/src/hid/disp/graphics_common.h ****             .WithCenter(GetCenterX(), GetCenterY());
  93:../libs/PoliTeKDSP/libs/libDaisy/src/hid/disp/graphics_common.h ****     }
  94:../libs/PoliTeKDSP/libs/libDaisy/src/hid/disp/graphics_common.h **** 
  95:../libs/PoliTeKDSP/libs/libDaisy/src/hid/disp/graphics_common.h ****     Rectangle Reduced(int16_t sizeToReduce) const
  96:../libs/PoliTeKDSP/libs/libDaisy/src/hid/disp/graphics_common.h ****     {
  97:../libs/PoliTeKDSP/libs/libDaisy/src/hid/disp/graphics_common.h ****         return {int16_t(x_ + sizeToReduce),
  98:../libs/PoliTeKDSP/libs/libDaisy/src/hid/disp/graphics_common.h ****                 int16_t(y_ + sizeToReduce),
  99:../libs/PoliTeKDSP/libs/libDaisy/src/hid/disp/graphics_common.h ****                 int16_t(width_ - 2 * sizeToReduce),
 100:../libs/PoliTeKDSP/libs/libDaisy/src/hid/disp/graphics_common.h ****                 int16_t(height_ - 2 * sizeToReduce)};
 101:../libs/PoliTeKDSP/libs/libDaisy/src/hid/disp/graphics_common.h ****     }
 102:../libs/PoliTeKDSP/libs/libDaisy/src/hid/disp/graphics_common.h ****     Rectangle Reduced(int16_t xToReduce, int16_t yToReduce) const
 103:../libs/PoliTeKDSP/libs/libDaisy/src/hid/disp/graphics_common.h ****     {
 104:../libs/PoliTeKDSP/libs/libDaisy/src/hid/disp/graphics_common.h ****         return {int16_t(x_ + xToReduce),
 105:../libs/PoliTeKDSP/libs/libDaisy/src/hid/disp/graphics_common.h ****                 int16_t(y_ + yToReduce),
 106:../libs/PoliTeKDSP/libs/libDaisy/src/hid/disp/graphics_common.h ****                 int16_t(width_ - 2 * xToReduce),
 107:../libs/PoliTeKDSP/libs/libDaisy/src/hid/disp/graphics_common.h ****                 int16_t(height_ - 2 * yToReduce)};
 108:../libs/PoliTeKDSP/libs/libDaisy/src/hid/disp/graphics_common.h ****     }
 109:../libs/PoliTeKDSP/libs/libDaisy/src/hid/disp/graphics_common.h **** 
 110:../libs/PoliTeKDSP/libs/libDaisy/src/hid/disp/graphics_common.h ****     Rectangle Translated(int16_t x, int16_t y) const
 111:../libs/PoliTeKDSP/libs/libDaisy/src/hid/disp/graphics_common.h ****     {
 112:../libs/PoliTeKDSP/libs/libDaisy/src/hid/disp/graphics_common.h ****         return {int16_t(x_ + x), int16_t(y_ + y), width_, height_};
 113:../libs/PoliTeKDSP/libs/libDaisy/src/hid/disp/graphics_common.h ****     }
 114:../libs/PoliTeKDSP/libs/libDaisy/src/hid/disp/graphics_common.h **** 
 115:../libs/PoliTeKDSP/libs/libDaisy/src/hid/disp/graphics_common.h ****     Rectangle WithLeft(int16_t left) const
 116:../libs/PoliTeKDSP/libs/libDaisy/src/hid/disp/graphics_common.h ****     {
 117:../libs/PoliTeKDSP/libs/libDaisy/src/hid/disp/graphics_common.h ****         const auto newWidth = int16_t((x_ - left) + width_);
 118:../libs/PoliTeKDSP/libs/libDaisy/src/hid/disp/graphics_common.h ****         return {left, y_, newWidth, height_};
 119:../libs/PoliTeKDSP/libs/libDaisy/src/hid/disp/graphics_common.h ****     }
 120:../libs/PoliTeKDSP/libs/libDaisy/src/hid/disp/graphics_common.h **** 
 121:../libs/PoliTeKDSP/libs/libDaisy/src/hid/disp/graphics_common.h ****     Rectangle WithRight(int16_t right) const
 122:../libs/PoliTeKDSP/libs/libDaisy/src/hid/disp/graphics_common.h ****     {
 123:../libs/PoliTeKDSP/libs/libDaisy/src/hid/disp/graphics_common.h ****         const auto newWidth = int16_t(right - x_);
 124:../libs/PoliTeKDSP/libs/libDaisy/src/hid/disp/graphics_common.h ****         return {x_, y_, newWidth, height_};
 125:../libs/PoliTeKDSP/libs/libDaisy/src/hid/disp/graphics_common.h ****     }
 126:../libs/PoliTeKDSP/libs/libDaisy/src/hid/disp/graphics_common.h **** 
 127:../libs/PoliTeKDSP/libs/libDaisy/src/hid/disp/graphics_common.h ****     Rectangle WithTop(int16_t top) const
 128:../libs/PoliTeKDSP/libs/libDaisy/src/hid/disp/graphics_common.h ****     {
 129:../libs/PoliTeKDSP/libs/libDaisy/src/hid/disp/graphics_common.h ****         const auto newHeight = int16_t((y_ - top) + height_);
 130:../libs/PoliTeKDSP/libs/libDaisy/src/hid/disp/graphics_common.h ****         return {x_, top, width_, newHeight};
 131:../libs/PoliTeKDSP/libs/libDaisy/src/hid/disp/graphics_common.h ****     }
 132:../libs/PoliTeKDSP/libs/libDaisy/src/hid/disp/graphics_common.h **** 
 133:../libs/PoliTeKDSP/libs/libDaisy/src/hid/disp/graphics_common.h ****     Rectangle WithBottom(int16_t bottom) const
 134:../libs/PoliTeKDSP/libs/libDaisy/src/hid/disp/graphics_common.h ****     {
ARM GAS  C:\Users\matte\AppData\Local\Temp\ccj2OJiD.s 			page 60


 135:../libs/PoliTeKDSP/libs/libDaisy/src/hid/disp/graphics_common.h ****         const auto newHeight = int16_t(bottom - y_);
 136:../libs/PoliTeKDSP/libs/libDaisy/src/hid/disp/graphics_common.h ****         return {x_, y_, width_, newHeight};
 137:../libs/PoliTeKDSP/libs/libDaisy/src/hid/disp/graphics_common.h ****     }
 138:../libs/PoliTeKDSP/libs/libDaisy/src/hid/disp/graphics_common.h **** 
 139:../libs/PoliTeKDSP/libs/libDaisy/src/hid/disp/graphics_common.h ****     Rectangle WithTrimmedLeft(int16_t pxToTrim) const
 140:../libs/PoliTeKDSP/libs/libDaisy/src/hid/disp/graphics_common.h ****     {
 141:../libs/PoliTeKDSP/libs/libDaisy/src/hid/disp/graphics_common.h ****         return {
 142:../libs/PoliTeKDSP/libs/libDaisy/src/hid/disp/graphics_common.h ****             int16_t(x_ + pxToTrim), y_, int16_t(width_ - pxToTrim), height_};
 143:../libs/PoliTeKDSP/libs/libDaisy/src/hid/disp/graphics_common.h ****     }
 144:../libs/PoliTeKDSP/libs/libDaisy/src/hid/disp/graphics_common.h **** 
 145:../libs/PoliTeKDSP/libs/libDaisy/src/hid/disp/graphics_common.h ****     Rectangle WithTrimmedRight(int16_t pxToTrim) const
 146:../libs/PoliTeKDSP/libs/libDaisy/src/hid/disp/graphics_common.h ****     {
 147:../libs/PoliTeKDSP/libs/libDaisy/src/hid/disp/graphics_common.h ****         return {x_, y_, int16_t(width_ - pxToTrim), height_};
 148:../libs/PoliTeKDSP/libs/libDaisy/src/hid/disp/graphics_common.h ****     }
 149:../libs/PoliTeKDSP/libs/libDaisy/src/hid/disp/graphics_common.h **** 
 150:../libs/PoliTeKDSP/libs/libDaisy/src/hid/disp/graphics_common.h ****     Rectangle WithTrimmedTop(int16_t pxToTrim) const
 151:../libs/PoliTeKDSP/libs/libDaisy/src/hid/disp/graphics_common.h ****     {
 152:../libs/PoliTeKDSP/libs/libDaisy/src/hid/disp/graphics_common.h ****         return {
 153:../libs/PoliTeKDSP/libs/libDaisy/src/hid/disp/graphics_common.h ****             x_, int16_t(y_ + pxToTrim), width_, int16_t(height_ - pxToTrim)};
 154:../libs/PoliTeKDSP/libs/libDaisy/src/hid/disp/graphics_common.h ****     }
 155:../libs/PoliTeKDSP/libs/libDaisy/src/hid/disp/graphics_common.h **** 
 156:../libs/PoliTeKDSP/libs/libDaisy/src/hid/disp/graphics_common.h ****     Rectangle WithTrimmedBottom(int16_t pxToTrim) const
 157:../libs/PoliTeKDSP/libs/libDaisy/src/hid/disp/graphics_common.h ****     {
 158:../libs/PoliTeKDSP/libs/libDaisy/src/hid/disp/graphics_common.h ****         return {x_, y_, width_, int16_t(height_ - pxToTrim)};
 159:../libs/PoliTeKDSP/libs/libDaisy/src/hid/disp/graphics_common.h ****     }
 160:../libs/PoliTeKDSP/libs/libDaisy/src/hid/disp/graphics_common.h **** 
 161:../libs/PoliTeKDSP/libs/libDaisy/src/hid/disp/graphics_common.h ****     Rectangle WithCenterX(int16_t centerX) const
 162:../libs/PoliTeKDSP/libs/libDaisy/src/hid/disp/graphics_common.h ****     {
 163:../libs/PoliTeKDSP/libs/libDaisy/src/hid/disp/graphics_common.h ****         return {int16_t(x_ + centerX - GetCenterX()), y_, width_, height_};
 164:../libs/PoliTeKDSP/libs/libDaisy/src/hid/disp/graphics_common.h ****     }
 165:../libs/PoliTeKDSP/libs/libDaisy/src/hid/disp/graphics_common.h **** 
 166:../libs/PoliTeKDSP/libs/libDaisy/src/hid/disp/graphics_common.h ****     Rectangle WithCenterY(int16_t centerY) const
 167:../libs/PoliTeKDSP/libs/libDaisy/src/hid/disp/graphics_common.h ****     {
 168:../libs/PoliTeKDSP/libs/libDaisy/src/hid/disp/graphics_common.h ****         return {x_, int16_t(y_ + centerY - GetCenterY()), width_, height_};
 169:../libs/PoliTeKDSP/libs/libDaisy/src/hid/disp/graphics_common.h ****     }
 170:../libs/PoliTeKDSP/libs/libDaisy/src/hid/disp/graphics_common.h **** 
 171:../libs/PoliTeKDSP/libs/libDaisy/src/hid/disp/graphics_common.h ****     Rectangle WithCenter(int16_t centerX, int16_t centerY) const
 172:../libs/PoliTeKDSP/libs/libDaisy/src/hid/disp/graphics_common.h ****     {
 173:../libs/PoliTeKDSP/libs/libDaisy/src/hid/disp/graphics_common.h ****         return {int16_t(x_ + centerX - GetCenterX()),
 174:../libs/PoliTeKDSP/libs/libDaisy/src/hid/disp/graphics_common.h ****                 int16_t(y_ + centerY - GetCenterY()),
 175:../libs/PoliTeKDSP/libs/libDaisy/src/hid/disp/graphics_common.h ****                 width_,
 176:../libs/PoliTeKDSP/libs/libDaisy/src/hid/disp/graphics_common.h ****                 height_};
 177:../libs/PoliTeKDSP/libs/libDaisy/src/hid/disp/graphics_common.h ****     }
 178:../libs/PoliTeKDSP/libs/libDaisy/src/hid/disp/graphics_common.h **** 
 179:../libs/PoliTeKDSP/libs/libDaisy/src/hid/disp/graphics_common.h ****     Rectangle RemoveFromLeft(int16_t pxToRemove)
 180:../libs/PoliTeKDSP/libs/libDaisy/src/hid/disp/graphics_common.h ****     {
 181:../libs/PoliTeKDSP/libs/libDaisy/src/hid/disp/graphics_common.h ****         const auto result = this->WithWidth(min(pxToRemove, width_));
 182:../libs/PoliTeKDSP/libs/libDaisy/src/hid/disp/graphics_common.h ****         x_ += min(pxToRemove, width_);
 183:../libs/PoliTeKDSP/libs/libDaisy/src/hid/disp/graphics_common.h ****         width_ = max(int16_t(width_ - pxToRemove), 0);
 184:../libs/PoliTeKDSP/libs/libDaisy/src/hid/disp/graphics_common.h ****         return result;
 185:../libs/PoliTeKDSP/libs/libDaisy/src/hid/disp/graphics_common.h ****     }
 186:../libs/PoliTeKDSP/libs/libDaisy/src/hid/disp/graphics_common.h **** 
 187:../libs/PoliTeKDSP/libs/libDaisy/src/hid/disp/graphics_common.h ****     Rectangle RemoveFromRight(int16_t pxToRemove)
 188:../libs/PoliTeKDSP/libs/libDaisy/src/hid/disp/graphics_common.h ****     {
 189:../libs/PoliTeKDSP/libs/libDaisy/src/hid/disp/graphics_common.h ****         const auto canRemove = min(pxToRemove, width_);
 190:../libs/PoliTeKDSP/libs/libDaisy/src/hid/disp/graphics_common.h ****         width_ -= canRemove;
 191:../libs/PoliTeKDSP/libs/libDaisy/src/hid/disp/graphics_common.h ****         return {int16_t(x_ + width_), y_, canRemove, height_};
ARM GAS  C:\Users\matte\AppData\Local\Temp\ccj2OJiD.s 			page 61


 192:../libs/PoliTeKDSP/libs/libDaisy/src/hid/disp/graphics_common.h ****     }
 193:../libs/PoliTeKDSP/libs/libDaisy/src/hid/disp/graphics_common.h **** 
 194:../libs/PoliTeKDSP/libs/libDaisy/src/hid/disp/graphics_common.h ****     Rectangle RemoveFromTop(int16_t pxToRemove)
 195:../libs/PoliTeKDSP/libs/libDaisy/src/hid/disp/graphics_common.h ****     {
 196:../libs/PoliTeKDSP/libs/libDaisy/src/hid/disp/graphics_common.h ****         const auto result = this->WithHeight(min(pxToRemove, height_));
 197:../libs/PoliTeKDSP/libs/libDaisy/src/hid/disp/graphics_common.h ****         y_ += min(pxToRemove, height_);
 198:../libs/PoliTeKDSP/libs/libDaisy/src/hid/disp/graphics_common.h ****         height_ = max(height_ - pxToRemove, 0);
 199:../libs/PoliTeKDSP/libs/libDaisy/src/hid/disp/graphics_common.h ****         return result;
 200:../libs/PoliTeKDSP/libs/libDaisy/src/hid/disp/graphics_common.h ****     }
 201:../libs/PoliTeKDSP/libs/libDaisy/src/hid/disp/graphics_common.h **** 
 202:../libs/PoliTeKDSP/libs/libDaisy/src/hid/disp/graphics_common.h ****     Rectangle RemoveFromBottom(int16_t pxToRemove)
 203:../libs/PoliTeKDSP/libs/libDaisy/src/hid/disp/graphics_common.h ****     {
 204:../libs/PoliTeKDSP/libs/libDaisy/src/hid/disp/graphics_common.h ****         const auto canRemove = min(pxToRemove, height_);
 205:../libs/PoliTeKDSP/libs/libDaisy/src/hid/disp/graphics_common.h ****         height_ -= canRemove;
 206:../libs/PoliTeKDSP/libs/libDaisy/src/hid/disp/graphics_common.h ****         return {x_, int16_t(y_ + height_), width_, canRemove};
 207:../libs/PoliTeKDSP/libs/libDaisy/src/hid/disp/graphics_common.h ****     }
 208:../libs/PoliTeKDSP/libs/libDaisy/src/hid/disp/graphics_common.h **** 
 209:../libs/PoliTeKDSP/libs/libDaisy/src/hid/disp/graphics_common.h ****     Rectangle AlignedWithin(const Rectangle& other, Alignment alignment) const
 210:../libs/PoliTeKDSP/libs/libDaisy/src/hid/disp/graphics_common.h ****     {
 211:../libs/PoliTeKDSP/libs/libDaisy/src/hid/disp/graphics_common.h ****         switch(alignment)
 212:../libs/PoliTeKDSP/libs/libDaisy/src/hid/disp/graphics_common.h ****         {
 213:../libs/PoliTeKDSP/libs/libDaisy/src/hid/disp/graphics_common.h ****             case Alignment::topLeft:
 214:../libs/PoliTeKDSP/libs/libDaisy/src/hid/disp/graphics_common.h ****                 return {other.x_, other.y_, width_, height_};
 215:../libs/PoliTeKDSP/libs/libDaisy/src/hid/disp/graphics_common.h ****             case Alignment::topRight:
 216:../libs/PoliTeKDSP/libs/libDaisy/src/hid/disp/graphics_common.h ****                 return {int16_t(other.GetRight() - width_),
 217:../libs/PoliTeKDSP/libs/libDaisy/src/hid/disp/graphics_common.h ****                         other.y_,
 218:../libs/PoliTeKDSP/libs/libDaisy/src/hid/disp/graphics_common.h ****                         width_,
 219:../libs/PoliTeKDSP/libs/libDaisy/src/hid/disp/graphics_common.h ****                         height_};
 220:../libs/PoliTeKDSP/libs/libDaisy/src/hid/disp/graphics_common.h ****             case Alignment::topCentered:
 221:../libs/PoliTeKDSP/libs/libDaisy/src/hid/disp/graphics_common.h ****                 return {int16_t(x_ + (other.GetCenterX() - GetCenterX())),
 222:../libs/PoliTeKDSP/libs/libDaisy/src/hid/disp/graphics_common.h ****                         other.y_,
 223:../libs/PoliTeKDSP/libs/libDaisy/src/hid/disp/graphics_common.h ****                         width_,
 224:../libs/PoliTeKDSP/libs/libDaisy/src/hid/disp/graphics_common.h ****                         height_};
 225:../libs/PoliTeKDSP/libs/libDaisy/src/hid/disp/graphics_common.h ****             case Alignment::bottomLeft:
 226:../libs/PoliTeKDSP/libs/libDaisy/src/hid/disp/graphics_common.h ****                 return {other.x_,
 227:../libs/PoliTeKDSP/libs/libDaisy/src/hid/disp/graphics_common.h ****                         int16_t(other.GetBottom() - height_),
 228:../libs/PoliTeKDSP/libs/libDaisy/src/hid/disp/graphics_common.h ****                         width_,
 229:../libs/PoliTeKDSP/libs/libDaisy/src/hid/disp/graphics_common.h ****                         height_};
 230:../libs/PoliTeKDSP/libs/libDaisy/src/hid/disp/graphics_common.h ****             case Alignment::bottomRight:
 231:../libs/PoliTeKDSP/libs/libDaisy/src/hid/disp/graphics_common.h ****                 return {int16_t(other.GetRight() - width_),
 232:../libs/PoliTeKDSP/libs/libDaisy/src/hid/disp/graphics_common.h ****                         int16_t(other.GetBottom() - height_),
 233:../libs/PoliTeKDSP/libs/libDaisy/src/hid/disp/graphics_common.h ****                         width_,
 234:../libs/PoliTeKDSP/libs/libDaisy/src/hid/disp/graphics_common.h ****                         height_};
 235:../libs/PoliTeKDSP/libs/libDaisy/src/hid/disp/graphics_common.h ****             case Alignment::bottomCentered:
 236:../libs/PoliTeKDSP/libs/libDaisy/src/hid/disp/graphics_common.h ****                 return {int16_t(x_ + (other.GetCenterX() - GetCenterX())),
 237:../libs/PoliTeKDSP/libs/libDaisy/src/hid/disp/graphics_common.h ****                         int16_t(other.GetBottom() - height_),
 238:../libs/PoliTeKDSP/libs/libDaisy/src/hid/disp/graphics_common.h ****                         width_,
 239:../libs/PoliTeKDSP/libs/libDaisy/src/hid/disp/graphics_common.h ****                         height_};
 240:../libs/PoliTeKDSP/libs/libDaisy/src/hid/disp/graphics_common.h ****             case Alignment::centeredLeft:
 241:../libs/PoliTeKDSP/libs/libDaisy/src/hid/disp/graphics_common.h ****                 return {other.x_,
 242:../libs/PoliTeKDSP/libs/libDaisy/src/hid/disp/graphics_common.h ****                         int16_t(y_ + (other.GetCenterY() - GetCenterY())),
 243:../libs/PoliTeKDSP/libs/libDaisy/src/hid/disp/graphics_common.h ****                         width_,
 244:../libs/PoliTeKDSP/libs/libDaisy/src/hid/disp/graphics_common.h ****                         height_};
 245:../libs/PoliTeKDSP/libs/libDaisy/src/hid/disp/graphics_common.h ****             case Alignment::centeredRight:
 246:../libs/PoliTeKDSP/libs/libDaisy/src/hid/disp/graphics_common.h ****                 return {int16_t(other.GetRight() - width_),
 247:../libs/PoliTeKDSP/libs/libDaisy/src/hid/disp/graphics_common.h ****                         int16_t(y_ + (other.GetCenterY() - GetCenterY())),
 248:../libs/PoliTeKDSP/libs/libDaisy/src/hid/disp/graphics_common.h ****                         width_,
ARM GAS  C:\Users\matte\AppData\Local\Temp\ccj2OJiD.s 			page 62


 249:../libs/PoliTeKDSP/libs/libDaisy/src/hid/disp/graphics_common.h ****                         height_};
 250:../libs/PoliTeKDSP/libs/libDaisy/src/hid/disp/graphics_common.h ****             case Alignment::centered:
 251:../libs/PoliTeKDSP/libs/libDaisy/src/hid/disp/graphics_common.h ****                 return {int16_t(x_ + (other.GetCenterX() - GetCenterX())),
 252:../libs/PoliTeKDSP/libs/libDaisy/src/hid/disp/graphics_common.h ****                         int16_t(y_ + (other.GetCenterY() - GetCenterY())),
 253:../libs/PoliTeKDSP/libs/libDaisy/src/hid/disp/graphics_common.h ****                         width_,
 254:../libs/PoliTeKDSP/libs/libDaisy/src/hid/disp/graphics_common.h ****                         height_};
 255:../libs/PoliTeKDSP/libs/libDaisy/src/hid/disp/graphics_common.h ****             default: return {};
 256:../libs/PoliTeKDSP/libs/libDaisy/src/hid/disp/graphics_common.h ****         }
 257:../libs/PoliTeKDSP/libs/libDaisy/src/hid/disp/graphics_common.h ****     }
 258:../libs/PoliTeKDSP/libs/libDaisy/src/hid/disp/graphics_common.h **** 
 259:../libs/PoliTeKDSP/libs/libDaisy/src/hid/disp/graphics_common.h ****   private:
 260:../libs/PoliTeKDSP/libs/libDaisy/src/hid/disp/graphics_common.h ****     int16_t x_, y_, width_, height_;
 261:../libs/PoliTeKDSP/libs/libDaisy/src/hid/disp/graphics_common.h ****     int16_t max(int16_t a, int16_t b) { return (a > b) ? a : b; }
 1614              		.loc 13 261 13 view .LVU343
 1615              	.LBE906:
 1616              	.LBE905:
 1617              	.LBE911:
 1618              	.LBE915:
 1619              		.loc 13 261 41 view .LVU344
 1620              	.LBB916:
 1621              	.LBB912:
 1622              	.LBB908:
 1623              	.LBB907:
 1624              	.LBI907:
 1625              		.loc 13 261 13 view .LVU345
 1626              	.LBE907:
 1627              	.LBE908:
 1628              	.LBE912:
 1629              	.LBE916:
 1630              		.loc 13 261 41 view .LVU346
 1631              	.LBB917:
 1632              	.LBI917:
 209:../libs/PoliTeKDSP/libs/libDaisy/src/hid/disp/graphics_common.h ****     {
 1633              		.loc 13 209 15 view .LVU347
 1634              	.LBB918:
 211:../libs/PoliTeKDSP/libs/libDaisy/src/hid/disp/graphics_common.h ****         {
 1635              		.loc 13 211 9 view .LVU348
 1636 0036 1BB2     		sxth	r3, r3
 1637 0038 23EAE373 		bic	r3, r3, r3, asr #31
 1638 003c 0829     		cmp	r1, #8
 1639 003e 00F2A981 		bhi	.L118
 1640 0042 DFE811F0 		tbh	[pc, r1, lsl #1]
 1641              	.L120:
 1642 0046 0201     		.2byte	(.L128-.L120)/2
 1643 0048 1401     		.2byte	(.L127-.L120)/2
 1644 004a 2001     		.2byte	(.L126-.L120)/2
 1645 004c 3401     		.2byte	(.L125-.L120)/2
 1646 004e 4201     		.2byte	(.L124-.L120)/2
 1647 0050 5001     		.2byte	(.L123-.L120)/2
 1648 0052 6701     		.2byte	(.L122-.L120)/2
 1649 0054 7101     		.2byte	(.L121-.L120)/2
 1650 0056 0900     		.2byte	(.L119-.L120)/2
 1651              		.p2align 1
 1652              	.L119:
 245:../libs/PoliTeKDSP/libs/libDaisy/src/hid/disp/graphics_common.h ****                 return {int16_t(other.GetRight() - width_),
 1653              		.loc 13 245 13 view .LVU349
 246:../libs/PoliTeKDSP/libs/libDaisy/src/hid/disp/graphics_common.h ****                         int16_t(y_ + (other.GetCenterY() - GetCenterY())),
ARM GAS  C:\Users\matte\AppData\Local\Temp\ccj2OJiD.s 			page 63


 1654              		.loc 13 246 17 view .LVU350
 1655              	.LVL120:
 1656              	.LBB919:
 1657              	.LBI919:
  60:../libs/PoliTeKDSP/libs/libDaisy/src/hid/disp/graphics_common.h ****     int16_t GetBottom() const { return y_ + height_; }
 1658              		.loc 13 60 13 view .LVU351
 1659              	.LBB920:
  60:../libs/PoliTeKDSP/libs/libDaisy/src/hid/disp/graphics_common.h ****     int16_t GetBottom() const { return y_ + height_; }
 1660              		.loc 13 60 32 view .LVU352
  60:../libs/PoliTeKDSP/libs/libDaisy/src/hid/disp/graphics_common.h ****     int16_t GetBottom() const { return y_ + height_; }
 1661              		.loc 13 60 42 is_stmt 0 view .LVU353
 1662 0058 A188     		ldrh	r1, [r4, #4]
 1663              	.LVL121:
  60:../libs/PoliTeKDSP/libs/libDaisy/src/hid/disp/graphics_common.h ****     int16_t GetBottom() const { return y_ + height_; }
 1664              		.loc 13 60 42 view .LVU354
 1665 005a 2788     		ldrh	r7, [r4]
 1666 005c 0F44     		add	r7, r7, r1
 1667              	.LBE920:
 1668              	.LBE919:
 1669              	.LBB921:
 1670              	.LBB922:
  63:../libs/PoliTeKDSP/libs/libDaisy/src/hid/disp/graphics_common.h **** 
 1671              		.loc 13 63 54 view .LVU355
 1672 005e B4F90610 		ldrsh	r1, [r4, #6]
 1673              	.LBE922:
 1674              	.LBE921:
 246:../libs/PoliTeKDSP/libs/libDaisy/src/hid/disp/graphics_common.h ****                         int16_t(y_ + (other.GetCenterY() - GetCenterY())),
 1675              		.loc 13 246 50 view .LVU356
 1676 0062 FF1A     		subs	r7, r7, r3
 1677              	.LBB926:
 1678              	.LBB923:
  63:../libs/PoliTeKDSP/libs/libDaisy/src/hid/disp/graphics_common.h **** 
 1679              		.loc 13 63 54 view .LVU357
 1680 0064 0029     		cmp	r1, #0
 1681              	.LBE923:
 1682              	.LBE926:
 246:../libs/PoliTeKDSP/libs/libDaisy/src/hid/disp/graphics_common.h ****                         int16_t(y_ + (other.GetCenterY() - GetCenterY())),
 1683              		.loc 13 246 50 view .LVU358
 1684 0066 BFB2     		uxth	r7, r7
 1685              	.LVL122:
 1686              	.LBB927:
 1687              	.LBI921:
  63:../libs/PoliTeKDSP/libs/libDaisy/src/hid/disp/graphics_common.h **** 
 1688              		.loc 13 63 13 is_stmt 1 view .LVU359
 1689              	.LBB924:
  63:../libs/PoliTeKDSP/libs/libDaisy/src/hid/disp/graphics_common.h **** 
 1690              		.loc 13 63 34 view .LVU360
  63:../libs/PoliTeKDSP/libs/libDaisy/src/hid/disp/graphics_common.h **** 
 1691              		.loc 13 63 34 is_stmt 0 view .LVU361
 1692              	.LBE924:
 1693              	.LBE927:
 1694              	.LBB928:
 1695              	.LBI928:
  63:../libs/PoliTeKDSP/libs/libDaisy/src/hid/disp/graphics_common.h **** 
 1696              		.loc 13 63 13 is_stmt 1 view .LVU362
 1697              	.LBB929:
  63:../libs/PoliTeKDSP/libs/libDaisy/src/hid/disp/graphics_common.h **** 
ARM GAS  C:\Users\matte\AppData\Local\Temp\ccj2OJiD.s 			page 64


 1698              		.loc 13 63 34 view .LVU363
  63:../libs/PoliTeKDSP/libs/libDaisy/src/hid/disp/graphics_common.h **** 
 1699              		.loc 13 63 34 is_stmt 0 view .LVU364
 1700              	.LBE929:
 1701              	.LBE928:
 1702              	.LBB930:
 1703              	.LBB925:
  63:../libs/PoliTeKDSP/libs/libDaisy/src/hid/disp/graphics_common.h **** 
 1704              		.loc 13 63 54 view .LVU365
 1705 0068 C0F2FF80 		blt	.L191
 1706              	.L135:
  63:../libs/PoliTeKDSP/libs/libDaisy/src/hid/disp/graphics_common.h **** 
 1707              		.loc 13 63 54 view .LVU366
 1708              	.LBE925:
 1709              	.LBE930:
 1710              	.LBB931:
 1711              	.LBB932:
  63:../libs/PoliTeKDSP/libs/libDaisy/src/hid/disp/graphics_common.h **** 
 1712              		.loc 13 63 44 view .LVU367
 1713 006c B4F802C0 		ldrh	ip, [r4, #2]
 1714              	.LBE932:
 1715              	.LBE931:
 1716              	.LBB938:
 1717              	.LBB939:
 1718              	.LBB940:
  32:../libs/PoliTeKDSP/libs/libDaisy/src/hid/disp/graphics_common.h ****     {
 1719              		.loc 13 32 66 view .LVU368
 1720 0070 0698     		ldr	r0, [sp, #24]
 1721              	.LBE940:
 1722              	.LBE939:
 1723              	.LBE938:
 1724              	.LBB951:
 1725              	.LBB933:
  63:../libs/PoliTeKDSP/libs/libDaisy/src/hid/disp/graphics_common.h **** 
 1726              		.loc 13 63 44 view .LVU369
 1727 0072 0CEB6104 		add	r4, ip, r1, asr #1
 1728              	.LVL123:
  63:../libs/PoliTeKDSP/libs/libDaisy/src/hid/disp/graphics_common.h **** 
 1729              		.loc 13 63 44 view .LVU370
 1730              	.LBE933:
 1731              	.LBE951:
 1732              	.LBB952:
 1733              	.LBB947:
 1734              	.LBB943:
  32:../libs/PoliTeKDSP/libs/libDaisy/src/hid/disp/graphics_common.h ****     {
 1735              		.loc 13 32 66 view .LVU371
 1736 0076 C280     		strh	r2, [r0, #6]	@ movhi
 1737              	.LBE943:
 1738              	.LBE947:
 1739              	.LBE952:
 252:../libs/PoliTeKDSP/libs/libDaisy/src/hid/disp/graphics_common.h ****                         width_,
 1740              		.loc 13 252 58 view .LVU372
 1741 0078 A4EB5202 		sub	r2, r4, r2, lsr #1
 1742              	.LBB953:
 1743              	.LBB948:
 1744              	.LBB944:
  32:../libs/PoliTeKDSP/libs/libDaisy/src/hid/disp/graphics_common.h ****     {
ARM GAS  C:\Users\matte\AppData\Local\Temp\ccj2OJiD.s 			page 65


 1745              		.loc 13 32 66 view .LVU373
 1746 007c 8380     		strh	r3, [r0, #4]	@ movhi
 1747 007e 0780     		strh	r7, [r0]	@ movhi
 1748              	.LBE944:
 1749              	.LBE948:
 1750              	.LBE953:
 252:../libs/PoliTeKDSP/libs/libDaisy/src/hid/disp/graphics_common.h ****                         width_,
 1751              		.loc 13 252 58 view .LVU374
 1752 0080 94B2     		uxth	r4, r2
 1753              	.LVL124:
 1754              	.LBB954:
 1755              	.LBI938:
  31:../libs/PoliTeKDSP/libs/libDaisy/src/hid/disp/graphics_common.h ****     : x_(x), y_(y), width_(max(0, width)), height_(max(0, height))
 1756              		.loc 13 31 5 is_stmt 1 view .LVU375
 1757              	.LBB949:
 1758              	.LBB945:
  32:../libs/PoliTeKDSP/libs/libDaisy/src/hid/disp/graphics_common.h ****     {
 1759              		.loc 13 32 66 is_stmt 0 view .LVU376
 1760 0082 4480     		strh	r4, [r0, #2]	@ movhi
 1761              	.LVL125:
 1762              	.LBB941:
 1763              	.LBI941:
 1764              		.loc 13 261 13 is_stmt 1 view .LVU377
 1765              	.LBE941:
 1766              	.LBE945:
 1767              	.LBE949:
 1768              	.LBE954:
 1769              	.LBE918:
 1770              	.LBE917:
 1771              		.loc 13 261 41 view .LVU378
 1772              	.LBB1141:
 1773              	.LBB1119:
 1774              	.LBB955:
 1775              	.LBB950:
 1776              	.LBB946:
 1777              	.LBB942:
 1778              	.LBI942:
 1779              		.loc 13 261 13 view .LVU379
 1780              	.LBE942:
 1781              	.LBE946:
 1782              	.LBE950:
 1783              	.LBE955:
 1784              	.LBE1119:
 1785              	.LBE1141:
 1786              		.loc 13 261 41 view .LVU380
 1787              	.L129:
  56:../libs/PoliTeKDSP/libs/libDaisy/src/hid/disp/graphics_common.h ****     int16_t GetY() const { return y_; }
 1788              		.loc 13 56 28 view .LVU381
  57:../libs/PoliTeKDSP/libs/libDaisy/src/hid/disp/graphics_common.h ****     int16_t GetWidth() const { return width_; }
 1789              		.loc 13 57 28 view .LVU382
 1790              	.LBB1142:
 1791              	.LBI1142:
 171:../libs/PoliTeKDSP/libs/libDaisy/src/hid/disp/display.h ****     {
 1792              		.loc 10 171 10 view .LVU383
 1793              	.LBB1143:
 173:../libs/PoliTeKDSP/libs/libDaisy/src/hid/disp/display.h ****         currentY_ = (y >= Height()) ? Height() - 1 : y;
 1794              		.loc 10 173 9 view .LVU384
ARM GAS  C:\Users\matte\AppData\Local\Temp\ccj2OJiD.s 			page 66


 1795 0084 A64A     		ldr	r2, .L201
 173:../libs/PoliTeKDSP/libs/libDaisy/src/hid/disp/display.h ****         currentY_ = (y >= Height()) ? Height() - 1 : y;
 1796              		.loc 10 173 33 is_stmt 0 view .LVU385
 1797 0086 D8F80030 		ldr	r3, [r8]
 1798 008a 1146     		mov	r1, r2
 1799 008c 0192     		str	r2, [sp, #4]
 1800 008e DA68     		ldr	r2, [r3, #12]
 1801 0090 8A42     		cmp	r2, r1
 1802 0092 40F08D81 		bne	.L137
 1803 0096 8020     		movs	r0, #128
 1804              	.LVL126:
 1805              	.L138:
 173:../libs/PoliTeKDSP/libs/libDaisy/src/hid/disp/display.h ****         currentY_ = (y >= Height()) ? Height() - 1 : y;
 1806              		.loc 10 173 19 view .LVU386
 1807 0098 B842     		cmp	r0, r7
 1808 009a 05D8     		bhi	.L139
 173:../libs/PoliTeKDSP/libs/libDaisy/src/hid/disp/display.h ****         currentY_ = (y >= Height()) ? Height() - 1 : y;
 1809              		.loc 10 173 44 view .LVU387
 1810 009c DA68     		ldr	r2, [r3, #12]
 1811 009e 0199     		ldr	r1, [sp, #4]
 1812 00a0 8A42     		cmp	r2, r1
 1813 00a2 40F09A81 		bne	.L192
 1814 00a6 7F27     		movs	r7, #127
 1815              	.L139:
 1816 00a8 9E4A     		ldr	r2, .L201+4
 174:../libs/PoliTeKDSP/libs/libDaisy/src/hid/disp/display.h ****     }
 1817              		.loc 10 174 34 view .LVU388
 1818 00aa 9B68     		ldr	r3, [r3, #8]
 173:../libs/PoliTeKDSP/libs/libDaisy/src/hid/disp/display.h ****         currentY_ = (y >= Height()) ? Height() - 1 : y;
 1819              		.loc 10 173 19 view .LVU389
 1820 00ac A8F80470 		strh	r7, [r8, #4]	@ movhi
 174:../libs/PoliTeKDSP/libs/libDaisy/src/hid/disp/display.h ****     }
 1821              		.loc 10 174 9 is_stmt 1 view .LVU390
 1822 00b0 9342     		cmp	r3, r2
 1823 00b2 0392     		str	r2, [sp, #12]
 1824 00b4 40F08981 		bne	.L169
 174:../libs/PoliTeKDSP/libs/libDaisy/src/hid/disp/display.h ****     }
 1825              		.loc 10 174 34 is_stmt 0 view .LVU391
 1826 00b8 4020     		movs	r0, #64
 1827              	.L141:
 174:../libs/PoliTeKDSP/libs/libDaisy/src/hid/disp/display.h ****     }
 1828              		.loc 10 174 19 view .LVU392
 1829 00ba A042     		cmp	r0, r4
 1830 00bc 07D8     		bhi	.L143
 174:../libs/PoliTeKDSP/libs/libDaisy/src/hid/disp/display.h ****     }
 1831              		.loc 10 174 46 view .LVU393
 1832 00be D8F80030 		ldr	r3, [r8]
 1833 00c2 039A     		ldr	r2, [sp, #12]
 1834 00c4 9B68     		ldr	r3, [r3, #8]
 1835 00c6 9342     		cmp	r3, r2
 1836 00c8 40F08281 		bne	.L193
 1837 00cc 3F24     		movs	r4, #63
 1838              	.L143:
 174:../libs/PoliTeKDSP/libs/libDaisy/src/hid/disp/display.h ****     }
 1839              		.loc 10 174 46 view .LVU394
 1840              	.LBE1143:
 1841              	.LBE1142:
ARM GAS  C:\Users\matte\AppData\Local\Temp\ccj2OJiD.s 			page 67


 1842              	.LBB1147:
 1843              	.LBB1148:
 443:../libs/PoliTeKDSP/libs/libDaisy/src/hid/disp/display.h ****         {
 1844              		.loc 10 443 9 view .LVU395
 1845 00ce 009B     		ldr	r3, [sp]
 1846              	.LBE1148:
 1847              	.LBE1147:
 1848              	.LBB1196:
 1849              	.LBB1144:
 174:../libs/PoliTeKDSP/libs/libDaisy/src/hid/disp/display.h ****     }
 1850              		.loc 10 174 19 view .LVU396
 1851 00d0 A8F80640 		strh	r4, [r8, #6]	@ movhi
 1852              	.LVL127:
 174:../libs/PoliTeKDSP/libs/libDaisy/src/hid/disp/display.h ****     }
 1853              		.loc 10 174 19 view .LVU397
 1854              	.LBE1144:
 1855              	.LBE1196:
 1856              	.LBB1197:
 1857              	.LBB1193:
 443:../libs/PoliTeKDSP/libs/libDaisy/src/hid/disp/display.h ****         {
 1858              		.loc 10 443 9 view .LVU398
 1859 00d4 93F800B0 		ldrb	fp, [r3]	@ zero_extendqisi2
 1860 00d8 6B78     		ldrb	r3, [r5, #1]	@ zero_extendqisi2
 1861              	.LVL128:
 443:../libs/PoliTeKDSP/libs/libDaisy/src/hid/disp/display.h ****         {
 1862              		.loc 10 443 9 view .LVU399
 1863 00da 2C78     		ldrb	r4, [r5]	@ zero_extendqisi2
 1864              	.LVL129:
 443:../libs/PoliTeKDSP/libs/libDaisy/src/hid/disp/display.h ****         {
 1865              		.loc 10 443 9 view .LVU400
 1866 00dc 0493     		str	r3, [sp, #16]
 1867              	.LVL130:
 443:../libs/PoliTeKDSP/libs/libDaisy/src/hid/disp/display.h ****         {
 1868              		.loc 10 443 9 view .LVU401
 1869 00de 6B68     		ldr	r3, [r5, #4]
 1870 00e0 0793     		str	r3, [sp, #28]
 1871              	.LVL131:
 443:../libs/PoliTeKDSP/libs/libDaisy/src/hid/disp/display.h ****         {
 1872              		.loc 10 443 9 view .LVU402
 1873              	.LBE1193:
 1874              	.LBI1147:
 440:../libs/PoliTeKDSP/libs/libDaisy/src/hid/disp/display.h ****     {
 1875              		.loc 10 440 10 is_stmt 1 view .LVU403
 1876              	.LBB1194:
 443:../libs/PoliTeKDSP/libs/libDaisy/src/hid/disp/display.h ****         {
 1877              		.loc 10 443 9 view .LVU404
 1878 00e2 BBF1000F 		cmp	fp, #0
 1879 00e6 00F0AC80 		beq	.L115
 1880              	.LVL132:
 1881              	.L145:
 1882              	.LBB1149:
 1883              	.LBI1149:
 396:../libs/PoliTeKDSP/libs/libDaisy/src/hid/disp/display.h ****     {
 1884              		.loc 10 396 10 view .LVU405
 1885              	.LBB1150:
 401:../libs/PoliTeKDSP/libs/libDaisy/src/hid/disp/display.h ****             return 0;
 1886              		.loc 10 401 20 is_stmt 0 view .LVU406
ARM GAS  C:\Users\matte\AppData\Local\Temp\ccj2OJiD.s 			page 68


 1887 00ea ABF12005 		sub	r5, fp, #32
 401:../libs/PoliTeKDSP/libs/libDaisy/src/hid/disp/display.h ****             return 0;
 1888              		.loc 10 401 9 view .LVU407
 1889 00ee EBB2     		uxtb	r3, r5
 1890 00f0 5E2B     		cmp	r3, #94
 1891 00f2 00F22E81 		bhi	.L149
 405:../libs/PoliTeKDSP/libs/libDaisy/src/hid/disp/display.h ****            || Height() < (currentY_ + font.FontHeight))
 1892              		.loc 10 405 17 view .LVU408
 1893 00f6 D8F80030 		ldr	r3, [r8]
 1894 00fa 019A     		ldr	r2, [sp, #4]
 1895 00fc DB68     		ldr	r3, [r3, #12]
 1896 00fe 9342     		cmp	r3, r2
 1897 0100 40F02A81 		bne	.L194
 1898 0104 8020     		movs	r0, #128
 1899              	.L148:
 405:../libs/PoliTeKDSP/libs/libDaisy/src/hid/disp/display.h ****            || Height() < (currentY_ + font.FontHeight))
 1900              		.loc 10 405 23 view .LVU409
 1901 0106 B8F80430 		ldrh	r3, [r8, #4]
 405:../libs/PoliTeKDSP/libs/libDaisy/src/hid/disp/display.h ****            || Height() < (currentY_ + font.FontHeight))
 1902              		.loc 10 405 33 view .LVU410
 1903 010a 2344     		add	r3, r3, r4
 406:../libs/PoliTeKDSP/libs/libDaisy/src/hid/disp/display.h ****         {
 1904              		.loc 10 406 12 view .LVU411
 1905 010c 9842     		cmp	r0, r3
 1906 010e C0F22081 		blt	.L149
 406:../libs/PoliTeKDSP/libs/libDaisy/src/hid/disp/display.h ****         {
 1907              		.loc 10 406 21 view .LVU412
 1908 0112 D8F80030 		ldr	r3, [r8]
 1909 0116 039A     		ldr	r2, [sp, #12]
 1910 0118 9B68     		ldr	r3, [r3, #8]
 1911 011a 9342     		cmp	r3, r2
 1912 011c 40F01F81 		bne	.L195
 1913 0120 4020     		movs	r0, #64
 1914              	.L150:
 406:../libs/PoliTeKDSP/libs/libDaisy/src/hid/disp/display.h ****         {
 1915              		.loc 10 406 27 view .LVU413
 1916 0122 B8F80610 		ldrh	r1, [r8, #6]
 406:../libs/PoliTeKDSP/libs/libDaisy/src/hid/disp/display.h ****         {
 1917              		.loc 10 406 37 view .LVU414
 1918 0126 049A     		ldr	r2, [sp, #16]
 406:../libs/PoliTeKDSP/libs/libDaisy/src/hid/disp/display.h ****         {
 1919              		.loc 10 406 27 view .LVU415
 1920 0128 0291     		str	r1, [sp, #8]
 406:../libs/PoliTeKDSP/libs/libDaisy/src/hid/disp/display.h ****         {
 1921              		.loc 10 406 37 view .LVU416
 1922 012a 8B18     		adds	r3, r1, r2
 406:../libs/PoliTeKDSP/libs/libDaisy/src/hid/disp/display.h ****         {
 1923              		.loc 10 406 12 view .LVU417
 1924 012c 9842     		cmp	r0, r3
 1925 012e C0F21081 		blt	.L149
 1926              	.LVL133:
 413:../libs/PoliTeKDSP/libs/libDaisy/src/hid/disp/display.h ****         {
 1927              		.loc 10 413 22 is_stmt 1 view .LVU418
 1928 0132 002A     		cmp	r2, #0
 1929 0134 00F01E81 		beq	.L151
 415:../libs/PoliTeKDSP/libs/libDaisy/src/hid/disp/display.h ****             for(j = 0; j < font.FontWidth; j++)
 1930              		.loc 10 415 37 is_stmt 0 view .LVU419
ARM GAS  C:\Users\matte\AppData\Local\Temp\ccj2OJiD.s 			page 69


 1931 0138 02FB05F5 		mul	r5, r2, r5
 1932 013c 6FF0004E 		mvn	lr, #-2147483648
 1933 0140 079B     		ldr	r3, [sp, #28]
 1934 0142 AE44     		add	lr, lr, r5
 1935 0144 1544     		add	r5, r5, r2
 1936 0146 CDF814B0 		str	fp, [sp, #20]
 1937 014a 03EB4E0E 		add	lr, r3, lr, lsl #1
 1938 014e 023B     		subs	r3, r3, #2
 434:../libs/PoliTeKDSP/libs/libDaisy/src/hid/disp/display.h **** 
 1939              		.loc 10 434 19 view .LVU420
 1940 0150 B8F804A0 		ldrh	r10, [r8, #4]
 1941 0154 03EB4503 		add	r3, r3, r5, lsl #1
 1942 0158 0D46     		mov	r5, r1
 1943 015a 9B46     		mov	fp, r3
 1944              	.LVL134:
 1945              	.L154:
 415:../libs/PoliTeKDSP/libs/libDaisy/src/hid/disp/display.h ****             for(j = 0; j < font.FontWidth; j++)
 1946              		.loc 10 415 15 view .LVU421
 1947 015c 3EF8027F 		ldrh	r7, [lr, #2]!
 1948              	.LVL135:
 416:../libs/PoliTeKDSP/libs/libDaisy/src/hid/disp/display.h ****             {
 1949              		.loc 10 416 26 is_stmt 1 view .LVU422
 1950 0160 A4B3     		cbz	r4, .L159
 1951              	.LBB1151:
 1952              	.LBB1152:
 1953              	.LBB1153:
 1954              	.LBB1154:
 1955              	.LBB1155:
 347:Display/../../libs/PoliTeKDSP/libs/libDaisy/src/dev/oled_ssd130x.h ****     }
 1956              		.loc 11 347 55 is_stmt 0 view .LVU423
 1957 0162 05F00703 		and	r3, r5, #7
 347:Display/../../libs/PoliTeKDSP/libs/libDaisy/src/dev/oled_ssd130x.h ****     }
 1958              		.loc 11 347 49 view .LVU424
 1959 0166 4FF0010C 		mov	ip, #1
 347:Display/../../libs/PoliTeKDSP/libs/libDaisy/src/dev/oled_ssd130x.h ****     }
 1960              		.loc 11 347 28 view .LVU425
 1961 016a EA08     		lsrs	r2, r5, #3
 1962 016c 5146     		mov	r1, r10
 347:Display/../../libs/PoliTeKDSP/libs/libDaisy/src/dev/oled_ssd130x.h ****     }
 1963              		.loc 11 347 49 view .LVU426
 1964 016e 0CFA03FC 		lsl	ip, ip, r3
 1965 0172 0AF11003 		add	r3, r10, #16
 347:Display/../../libs/PoliTeKDSP/libs/libDaisy/src/dev/oled_ssd130x.h ****     }
 1966              		.loc 11 347 42 view .LVU427
 1967 0176 4FFA8CFC 		sxtb	ip, ip
 1968 017a 03EBC212 		add	r2, r3, r2, lsl #7
 1969              	.LBE1155:
 1970              	.LBE1154:
 1971              	.LBE1153:
 1972              	.LBE1152:
 1973              	.LBE1151:
 416:../libs/PoliTeKDSP/libs/libDaisy/src/hid/disp/display.h ****             {
 1974              		.loc 10 416 19 view .LVU428
 1975 017e 0023     		movs	r3, #0
 1976              	.LBB1173:
 1977              	.LBB1168:
 1978              	.LBB1163:
ARM GAS  C:\Users\matte\AppData\Local\Temp\ccj2OJiD.s 			page 70


 1979              	.LBB1159:
 1980              	.LBB1156:
 347:Display/../../libs/PoliTeKDSP/libs/libDaisy/src/dev/oled_ssd130x.h ****     }
 1981              		.loc 11 347 42 view .LVU429
 1982 0180 6FEA0C09 		mvn	r9, ip
 1983 0184 4244     		add	r2, r2, r8
 1984 0186 0DE0     		b	.L160
 1985              	.LVL136:
 1986              	.L196:
 347:Display/../../libs/PoliTeKDSP/libs/libDaisy/src/dev/oled_ssd130x.h ****     }
 1987              		.loc 11 347 42 view .LVU430
 1988              	.LBE1156:
 1989              	.LBE1159:
 1990              	.LBE1163:
 1991              	.LBE1168:
 1992              	.LBE1173:
 1993              	.LBB1174:
 1994              	.LBI1174:
  42:../libs/PoliTeKDSP/libs/libDaisy/src/hid/disp/oled_display.h ****     {
 1995              		.loc 9 42 10 is_stmt 1 view .LVU431
 1996              	.LBB1175:
 1997              	.LBI1175:
 340:Display/../../libs/PoliTeKDSP/libs/libDaisy/src/dev/oled_ssd130x.h ****     {
 1998              		.loc 11 340 10 view .LVU432
 1999              	.LBB1176:
 342:Display/../../libs/PoliTeKDSP/libs/libDaisy/src/dev/oled_ssd130x.h ****             return;
 2000              		.loc 11 342 9 is_stmt 0 view .LVU433
 2001 0188 7F29     		cmp	r1, #127
 2002 018a 06D8     		bhi	.L156
 2003 018c 3F2D     		cmp	r5, #63
 2004 018e 04D8     		bhi	.L156
 345:Display/../../libs/PoliTeKDSP/libs/libDaisy/src/dev/oled_ssd130x.h ****         else
 2005              		.loc 11 345 42 view .LVU434
 2006 0190 1078     		ldrb	r0, [r2]	@ zero_extendqisi2
 344:Display/../../libs/PoliTeKDSP/libs/libDaisy/src/dev/oled_ssd130x.h ****             buffer_[x + (y / 8) * width] |= (1 << (y % 8));
 2007              		.loc 11 344 9 view .LVU435
 2008 0192 96B1     		cbz	r6, .L158
 2009              	.L190:
 344:Display/../../libs/PoliTeKDSP/libs/libDaisy/src/dev/oled_ssd130x.h ****             buffer_[x + (y / 8) * width] |= (1 << (y % 8));
 2010              		.loc 11 344 9 view .LVU436
 2011              	.LBE1176:
 2012              	.LBE1175:
 2013              	.LBE1174:
 2014              	.LBB1177:
 2015              	.LBB1169:
 2016              	.LBB1164:
 345:Display/../../libs/PoliTeKDSP/libs/libDaisy/src/dev/oled_ssd130x.h ****         else
 2017              		.loc 11 345 42 view .LVU437
 2018 0194 4CEA0000 		orr	r0, ip, r0
 2019 0198 1070     		strb	r0, [r2]
 2020              	.L156:
 2021              	.LBE1164:
 2022              	.LBE1169:
 2023              	.LBE1177:
 416:../libs/PoliTeKDSP/libs/libDaisy/src/hid/disp/display.h ****             {
 2024              		.loc 10 416 13 is_stmt 1 view .LVU438
 2025 019a 0133     		adds	r3, r3, #1
ARM GAS  C:\Users\matte\AppData\Local\Temp\ccj2OJiD.s 			page 71


 2026              	.LVL137:
 416:../libs/PoliTeKDSP/libs/libDaisy/src/hid/disp/display.h ****             {
 2027              		.loc 10 416 26 view .LVU439
 2028 019c 0132     		adds	r2, r2, #1
 2029 019e 0131     		adds	r1, r1, #1
 2030 01a0 9C42     		cmp	r4, r3
 2031 01a2 13D0     		beq	.L159
 2032              	.LVL138:
 2033              	.L160:
 418:../libs/PoliTeKDSP/libs/libDaisy/src/hid/disp/display.h ****                 {
 2034              		.loc 10 418 23 is_stmt 0 view .LVU440
 2035 01a4 07FA03F0 		lsl	r0, r7, r3
 418:../libs/PoliTeKDSP/libs/libDaisy/src/hid/disp/display.h ****                 {
 2036              		.loc 10 418 17 view .LVU441
 2037 01a8 0004     		lsls	r0, r0, #16
 2038 01aa EDD4     		bmi	.L196
 2039              	.LVL139:
 2040              	.LBB1178:
 2041              	.LBI1151:
  42:../libs/PoliTeKDSP/libs/libDaisy/src/hid/disp/oled_display.h ****     {
 2042              		.loc 9 42 10 is_stmt 1 view .LVU442
 2043              	.LBB1170:
 2044              	.LBI1152:
 340:Display/../../libs/PoliTeKDSP/libs/libDaisy/src/dev/oled_ssd130x.h ****     {
 2045              		.loc 11 340 10 view .LVU443
 2046              	.LBB1165:
 342:Display/../../libs/PoliTeKDSP/libs/libDaisy/src/dev/oled_ssd130x.h ****             return;
 2047              		.loc 11 342 9 is_stmt 0 view .LVU444
 2048 01ac 7F29     		cmp	r1, #127
 2049 01ae F4D8     		bhi	.L156
 2050 01b0 3F2D     		cmp	r5, #63
 2051 01b2 F2D8     		bhi	.L156
 345:Display/../../libs/PoliTeKDSP/libs/libDaisy/src/dev/oled_ssd130x.h ****         else
 2052              		.loc 11 345 42 view .LVU445
 2053 01b4 1078     		ldrb	r0, [r2]	@ zero_extendqisi2
 344:Display/../../libs/PoliTeKDSP/libs/libDaisy/src/dev/oled_ssd130x.h ****             buffer_[x + (y / 8) * width] |= (1 << (y % 8));
 2054              		.loc 11 344 9 view .LVU446
 2055 01b6 002E     		cmp	r6, #0
 2056 01b8 ECD0     		beq	.L190
 2057              	.L158:
 2058              	.LVL140:
 2059              	.LBB1160:
 2060              	.LBI1154:
 340:Display/../../libs/PoliTeKDSP/libs/libDaisy/src/dev/oled_ssd130x.h ****     {
 2061              		.loc 11 340 10 is_stmt 1 view .LVU447
 340:Display/../../libs/PoliTeKDSP/libs/libDaisy/src/dev/oled_ssd130x.h ****     {
 2062              		.loc 11 340 10 is_stmt 0 view .LVU448
 2063              	.LBE1160:
 2064              	.LBE1165:
 2065              	.LBE1170:
 2066              	.LBE1178:
 416:../libs/PoliTeKDSP/libs/libDaisy/src/hid/disp/display.h ****             {
 2067              		.loc 10 416 13 view .LVU449
 2068 01ba 0133     		adds	r3, r3, #1
 2069              	.LVL141:
 2070              	.LBB1179:
 2071              	.LBB1171:
ARM GAS  C:\Users\matte\AppData\Local\Temp\ccj2OJiD.s 			page 72


 2072              	.LBB1166:
 2073              	.LBB1161:
 2074              	.LBB1157:
 347:Display/../../libs/PoliTeKDSP/libs/libDaisy/src/dev/oled_ssd130x.h ****     }
 2075              		.loc 11 347 42 view .LVU450
 2076 01bc 09EA0000 		and	r0, r9, r0
 2077              	.LBE1157:
 2078              	.LBE1161:
 2079              	.LBE1166:
 2080              	.LBE1171:
 2081              	.LBE1179:
 416:../libs/PoliTeKDSP/libs/libDaisy/src/hid/disp/display.h ****             {
 2082              		.loc 10 416 26 view .LVU451
 2083 01c0 0132     		adds	r2, r2, #1
 2084 01c2 0131     		adds	r1, r1, #1
 2085 01c4 9C42     		cmp	r4, r3
 2086              	.LBB1180:
 2087              	.LBB1172:
 2088              	.LBB1167:
 2089              	.LBB1162:
 2090              	.LBB1158:
 347:Display/../../libs/PoliTeKDSP/libs/libDaisy/src/dev/oled_ssd130x.h ****     }
 2091              		.loc 11 347 42 view .LVU452
 2092 01c6 02F8010C 		strb	r0, [r2, #-1]
 347:Display/../../libs/PoliTeKDSP/libs/libDaisy/src/dev/oled_ssd130x.h ****     }
 2093              		.loc 11 347 42 view .LVU453
 2094              	.LBE1158:
 2095              	.LBE1162:
 2096              	.LBE1167:
 2097              	.LBE1172:
 2098              	.LBE1180:
 416:../libs/PoliTeKDSP/libs/libDaisy/src/hid/disp/display.h ****             {
 2099              		.loc 10 416 13 is_stmt 1 view .LVU454
 2100              	.LVL142:
 416:../libs/PoliTeKDSP/libs/libDaisy/src/hid/disp/display.h ****             {
 2101              		.loc 10 416 26 view .LVU455
 2102 01ca EBD1     		bne	.L160
 2103              	.LVL143:
 2104              	.L159:
 413:../libs/PoliTeKDSP/libs/libDaisy/src/hid/disp/display.h ****         {
 2105              		.loc 10 413 9 view .LVU456
 413:../libs/PoliTeKDSP/libs/libDaisy/src/hid/disp/display.h ****         {
 2106              		.loc 10 413 22 view .LVU457
 2107 01cc F345     		cmp	fp, lr
 2108 01ce 05F10105 		add	r5, r5, #1
 2109 01d2 C3D1     		bne	.L154
 2110 01d4 DDF814B0 		ldr	fp, [sp, #20]
 2111              	.LVL144:
 2112              	.L153:
 2113              	.LBB1181:
 2114              	.LBB1182:
 173:../libs/PoliTeKDSP/libs/libDaisy/src/hid/disp/display.h ****         currentY_ = (y >= Height()) ? Height() - 1 : y;
 2115              		.loc 10 173 33 is_stmt 0 view .LVU458
 2116 01d8 D8F80020 		ldr	r2, [r8]
 2117              	.LBE1182:
 2118              	.LBE1181:
 434:../libs/PoliTeKDSP/libs/libDaisy/src/hid/disp/display.h **** 
ARM GAS  C:\Users\matte\AppData\Local\Temp\ccj2OJiD.s 			page 73


 2119              		.loc 10 434 18 view .LVU459
 2120 01dc 0AEB0405 		add	r5, r10, r4
 2121 01e0 0199     		ldr	r1, [sp, #4]
 2122              	.LBB1187:
 2123              	.LBB1183:
 173:../libs/PoliTeKDSP/libs/libDaisy/src/hid/disp/display.h ****         currentY_ = (y >= Height()) ? Height() - 1 : y;
 2124              		.loc 10 173 33 view .LVU460
 2125 01e2 D368     		ldr	r3, [r2, #12]
 2126              	.LBE1183:
 2127              	.LBE1187:
 434:../libs/PoliTeKDSP/libs/libDaisy/src/hid/disp/display.h **** 
 2128              		.loc 10 434 18 view .LVU461
 2129 01e4 ADB2     		uxth	r5, r5
 2130              	.LVL145:
 2131              	.LBB1188:
 2132              	.LBI1181:
 171:../libs/PoliTeKDSP/libs/libDaisy/src/hid/disp/display.h ****     {
 2133              		.loc 10 171 10 is_stmt 1 view .LVU462
 2134              	.LBB1184:
 173:../libs/PoliTeKDSP/libs/libDaisy/src/hid/disp/display.h ****         currentY_ = (y >= Height()) ? Height() - 1 : y;
 2135              		.loc 10 173 9 view .LVU463
 2136 01e6 8B42     		cmp	r3, r1
 2137 01e8 40F0BF80 		bne	.L197
 173:../libs/PoliTeKDSP/libs/libDaisy/src/hid/disp/display.h ****         currentY_ = (y >= Height()) ? Height() - 1 : y;
 2138              		.loc 10 173 33 is_stmt 0 view .LVU464
 2139 01ec 8020     		movs	r0, #128
 2140              	.L161:
 173:../libs/PoliTeKDSP/libs/libDaisy/src/hid/disp/display.h ****         currentY_ = (y >= Height()) ? Height() - 1 : y;
 2141              		.loc 10 173 19 view .LVU465
 2142 01ee 8542     		cmp	r5, r0
 2143 01f0 05D3     		bcc	.L162
 173:../libs/PoliTeKDSP/libs/libDaisy/src/hid/disp/display.h ****         currentY_ = (y >= Height()) ? Height() - 1 : y;
 2144              		.loc 10 173 44 view .LVU466
 2145 01f2 D368     		ldr	r3, [r2, #12]
 2146 01f4 0199     		ldr	r1, [sp, #4]
 2147 01f6 8B42     		cmp	r3, r1
 2148 01f8 40F0C580 		bne	.L198
 2149 01fc 7F25     		movs	r5, #127
 2150              	.LVL146:
 2151              	.L162:
 174:../libs/PoliTeKDSP/libs/libDaisy/src/hid/disp/display.h ****     }
 2152              		.loc 10 174 34 view .LVU467
 2153 01fe 9368     		ldr	r3, [r2, #8]
 2154 0200 039A     		ldr	r2, [sp, #12]
 173:../libs/PoliTeKDSP/libs/libDaisy/src/hid/disp/display.h ****         currentY_ = (y >= Height()) ? Height() - 1 : y;
 2155              		.loc 10 173 19 view .LVU468
 2156 0202 A8F80450 		strh	r5, [r8, #4]	@ movhi
 174:../libs/PoliTeKDSP/libs/libDaisy/src/hid/disp/display.h ****     }
 2157              		.loc 10 174 9 is_stmt 1 view .LVU469
 2158 0206 9342     		cmp	r3, r2
 2159 0208 40F0AC80 		bne	.L199
 174:../libs/PoliTeKDSP/libs/libDaisy/src/hid/disp/display.h ****     }
 2160              		.loc 10 174 34 is_stmt 0 view .LVU470
 2161 020c 4020     		movs	r0, #64
 2162              	.L164:
 174:../libs/PoliTeKDSP/libs/libDaisy/src/hid/disp/display.h ****     }
 2163              		.loc 10 174 19 view .LVU471
ARM GAS  C:\Users\matte\AppData\Local\Temp\ccj2OJiD.s 			page 74


 2164 020e 029B     		ldr	r3, [sp, #8]
 2165 0210 8342     		cmp	r3, r0
 2166 0212 08D3     		bcc	.L165
 174:../libs/PoliTeKDSP/libs/libDaisy/src/hid/disp/display.h ****     }
 2167              		.loc 10 174 46 view .LVU472
 2168 0214 D8F80030 		ldr	r3, [r8]
 2169 0218 039A     		ldr	r2, [sp, #12]
 2170 021a 9B68     		ldr	r3, [r3, #8]
 2171 021c 9342     		cmp	r3, r2
 2172 021e 40F0AC80 		bne	.L200
 2173 0222 3F23     		movs	r3, #63
 2174 0224 0293     		str	r3, [sp, #8]
 2175              	.LVL147:
 2176              	.L165:
 174:../libs/PoliTeKDSP/libs/libDaisy/src/hid/disp/display.h ****     }
 2177              		.loc 10 174 19 view .LVU473
 2178 0226 029B     		ldr	r3, [sp, #8]
 2179 0228 A8F80630 		strh	r3, [r8, #6]	@ movhi
 2180              	.LVL148:
 2181              	.L147:
 174:../libs/PoliTeKDSP/libs/libDaisy/src/hid/disp/display.h ****     }
 2182              		.loc 10 174 19 view .LVU474
 2183              	.LBE1184:
 2184              	.LBE1188:
 2185              	.LBE1150:
 2186              	.LBE1149:
 445:../libs/PoliTeKDSP/libs/libDaisy/src/hid/disp/display.h ****                != *str)
 2187              		.loc 10 445 13 view .LVU475
 2188 022c 009A     		ldr	r2, [sp]
 2189 022e 1378     		ldrb	r3, [r2]	@ zero_extendqisi2
 2190 0230 5B45     		cmp	r3, fp
 2191 0232 06D1     		bne	.L115
 2192              	.LVL149:
 443:../libs/PoliTeKDSP/libs/libDaisy/src/hid/disp/display.h ****         {
 2193              		.loc 10 443 9 is_stmt 1 view .LVU476
 2194 0234 12F801BF 		ldrb	fp, [r2, #1]!	@ zero_extendqisi2
 2195              	.LVL150:
 443:../libs/PoliTeKDSP/libs/libDaisy/src/hid/disp/display.h ****         {
 2196              		.loc 10 443 9 is_stmt 0 view .LVU477
 2197 0238 0092     		str	r2, [sp]
 2198 023a BBF1000F 		cmp	fp, #0
 2199 023e 7FF454AF 		bne	.L145
 2200              	.LVL151:
 2201              	.L115:
 443:../libs/PoliTeKDSP/libs/libDaisy/src/hid/disp/display.h ****         {
 2202              		.loc 10 443 9 view .LVU478
 2203              	.LBE1194:
 2204              	.LBE1197:
 471:../libs/PoliTeKDSP/libs/libDaisy/src/hid/disp/display.h **** 
 2205              		.loc 10 471 5 view .LVU479
 2206 0242 0698     		ldr	r0, [sp, #24]
 2207 0244 09B0     		add	sp, sp, #36
 2208              		.cfi_remember_state
 2209              		.cfi_def_cfa_offset 36
 2210              		@ sp needed
 2211 0246 BDE8F08F 		pop	{r4, r5, r6, r7, r8, r9, r10, fp, pc}
 2212              	.LVL152:
ARM GAS  C:\Users\matte\AppData\Local\Temp\ccj2OJiD.s 			page 75


 2213              	.L128:
 2214              		.cfi_restore_state
 2215              	.LBB1198:
 2216              	.LBB1120:
 250:../libs/PoliTeKDSP/libs/libDaisy/src/hid/disp/graphics_common.h ****                 return {int16_t(x_ + (other.GetCenterX() - GetCenterX())),
 2217              		.loc 13 250 13 is_stmt 1 view .LVU480
 251:../libs/PoliTeKDSP/libs/libDaisy/src/hid/disp/graphics_common.h ****                         int16_t(y_ + (other.GetCenterY() - GetCenterY())),
 2218              		.loc 13 251 17 view .LVU481
 2219              	.LBB956:
 2220              	.LBI956:
  62:../libs/PoliTeKDSP/libs/libDaisy/src/hid/disp/graphics_common.h ****     int16_t GetCenterY() const { return y_ + height_ / 2; }
 2221              		.loc 13 62 13 view .LVU482
 2222              	.LBB957:
  62:../libs/PoliTeKDSP/libs/libDaisy/src/hid/disp/graphics_common.h ****     int16_t GetCenterY() const { return y_ + height_ / 2; }
 2223              		.loc 13 62 34 view .LVU483
  62:../libs/PoliTeKDSP/libs/libDaisy/src/hid/disp/graphics_common.h ****     int16_t GetCenterY() const { return y_ + height_ / 2; }
 2224              		.loc 13 62 34 is_stmt 0 view .LVU484
 2225              	.LBE957:
 2226              	.LBE956:
 2227              	.LBB959:
 2228              	.LBI959:
  62:../libs/PoliTeKDSP/libs/libDaisy/src/hid/disp/graphics_common.h ****     int16_t GetCenterY() const { return y_ + height_ / 2; }
 2229              		.loc 13 62 13 is_stmt 1 view .LVU485
 2230              	.LBB960:
  62:../libs/PoliTeKDSP/libs/libDaisy/src/hid/disp/graphics_common.h ****     int16_t GetCenterY() const { return y_ + height_ / 2; }
 2231              		.loc 13 62 34 view .LVU486
  62:../libs/PoliTeKDSP/libs/libDaisy/src/hid/disp/graphics_common.h ****     int16_t GetCenterY() const { return y_ + height_ / 2; }
 2232              		.loc 13 62 34 is_stmt 0 view .LVU487
 2233              	.LBE960:
 2234              	.LBE959:
 2235              	.LBB961:
 2236              	.LBB958:
  62:../libs/PoliTeKDSP/libs/libDaisy/src/hid/disp/graphics_common.h ****     int16_t GetCenterY() const { return y_ + height_ / 2; }
 2237              		.loc 13 62 53 view .LVU488
 2238 024a B4F90410 		ldrsh	r1, [r4, #4]
 2239              	.LVL153:
  62:../libs/PoliTeKDSP/libs/libDaisy/src/hid/disp/graphics_common.h ****     int16_t GetCenterY() const { return y_ + height_ / 2; }
 2240              		.loc 13 62 44 view .LVU489
 2241 024e 2788     		ldrh	r7, [r4]
  62:../libs/PoliTeKDSP/libs/libDaisy/src/hid/disp/graphics_common.h ****     int16_t GetCenterY() const { return y_ + height_ / 2; }
 2242              		.loc 13 62 53 view .LVU490
 2243 0250 0029     		cmp	r1, #0
 2244 0252 B8BF     		it	lt
 2245 0254 0131     		addlt	r1, r1, #1
  62:../libs/PoliTeKDSP/libs/libDaisy/src/hid/disp/graphics_common.h ****     int16_t GetCenterY() const { return y_ + height_ / 2; }
 2246              		.loc 13 62 44 view .LVU491
 2247 0256 07EB6107 		add	r7, r7, r1, asr #1
 2248              	.LBE958:
 2249              	.LBE961:
 2250              	.LBB962:
 2251              	.LBB934:
  63:../libs/PoliTeKDSP/libs/libDaisy/src/hid/disp/graphics_common.h **** 
 2252              		.loc 13 63 54 view .LVU492
 2253 025a B4F90610 		ldrsh	r1, [r4, #6]
 2254              	.LBE934:
 2255              	.LBE962:
 251:../libs/PoliTeKDSP/libs/libDaisy/src/hid/disp/graphics_common.h ****                         int16_t(y_ + (other.GetCenterY() - GetCenterY())),
ARM GAS  C:\Users\matte\AppData\Local\Temp\ccj2OJiD.s 			page 76


 2256              		.loc 13 251 58 view .LVU493
 2257 025e A7EB6307 		sub	r7, r7, r3, asr #1
 2258              	.LBB963:
 2259              	.LBB935:
  63:../libs/PoliTeKDSP/libs/libDaisy/src/hid/disp/graphics_common.h **** 
 2260              		.loc 13 63 54 view .LVU494
 2261 0262 0029     		cmp	r1, #0
 2262              	.LBE935:
 2263              	.LBE963:
 251:../libs/PoliTeKDSP/libs/libDaisy/src/hid/disp/graphics_common.h ****                         int16_t(y_ + (other.GetCenterY() - GetCenterY())),
 2264              		.loc 13 251 58 view .LVU495
 2265 0264 BFB2     		uxth	r7, r7
 2266              	.LVL154:
 2267              	.LBB964:
 2268              	.LBI931:
  63:../libs/PoliTeKDSP/libs/libDaisy/src/hid/disp/graphics_common.h **** 
 2269              		.loc 13 63 13 is_stmt 1 view .LVU496
 2270              	.LBB936:
  63:../libs/PoliTeKDSP/libs/libDaisy/src/hid/disp/graphics_common.h **** 
 2271              		.loc 13 63 34 view .LVU497
  63:../libs/PoliTeKDSP/libs/libDaisy/src/hid/disp/graphics_common.h **** 
 2272              		.loc 13 63 34 is_stmt 0 view .LVU498
 2273              	.LBE936:
 2274              	.LBE964:
 2275              	.LBB965:
 2276              	.LBI965:
  63:../libs/PoliTeKDSP/libs/libDaisy/src/hid/disp/graphics_common.h **** 
 2277              		.loc 13 63 13 is_stmt 1 view .LVU499
 2278              	.LBB966:
  63:../libs/PoliTeKDSP/libs/libDaisy/src/hid/disp/graphics_common.h **** 
 2279              		.loc 13 63 34 view .LVU500
  63:../libs/PoliTeKDSP/libs/libDaisy/src/hid/disp/graphics_common.h **** 
 2280              		.loc 13 63 34 is_stmt 0 view .LVU501
 2281              	.LBE966:
 2282              	.LBE965:
 2283              	.LBB967:
 2284              	.LBB937:
  63:../libs/PoliTeKDSP/libs/libDaisy/src/hid/disp/graphics_common.h **** 
 2285              		.loc 13 63 54 view .LVU502
 2286 0266 BFF601AF 		bge	.L135
 2287              	.L191:
  63:../libs/PoliTeKDSP/libs/libDaisy/src/hid/disp/graphics_common.h **** 
 2288              		.loc 13 63 54 view .LVU503
 2289 026a 0131     		adds	r1, r1, #1
 2290 026c FEE6     		b	.L135
 2291              	.LVL155:
 2292              	.L127:
  63:../libs/PoliTeKDSP/libs/libDaisy/src/hid/disp/graphics_common.h **** 
 2293              		.loc 13 63 54 view .LVU504
 2294              	.LBE937:
 2295              	.LBE967:
 213:../libs/PoliTeKDSP/libs/libDaisy/src/hid/disp/graphics_common.h ****                 return {other.x_, other.y_, width_, height_};
 2296              		.loc 13 213 13 is_stmt 1 view .LVU505
 214:../libs/PoliTeKDSP/libs/libDaisy/src/hid/disp/graphics_common.h ****             case Alignment::topRight:
 2297              		.loc 13 214 17 view .LVU506
 214:../libs/PoliTeKDSP/libs/libDaisy/src/hid/disp/graphics_common.h ****             case Alignment::topRight:
 2298              		.loc 13 214 31 is_stmt 0 view .LVU507
ARM GAS  C:\Users\matte\AppData\Local\Temp\ccj2OJiD.s 			page 77


 2299 026e B4F90070 		ldrsh	r7, [r4]
 2300              	.LBB968:
 2301              	.LBB969:
 2302              	.LBB970:
  32:../libs/PoliTeKDSP/libs/libDaisy/src/hid/disp/graphics_common.h ****     {
 2303              		.loc 13 32 66 view .LVU508
 2304 0272 0699     		ldr	r1, [sp, #24]
 2305              	.LVL156:
  32:../libs/PoliTeKDSP/libs/libDaisy/src/hid/disp/graphics_common.h ****     {
 2306              		.loc 13 32 66 view .LVU509
 2307              	.LBE970:
 2308              	.LBE969:
 2309              	.LBE968:
 214:../libs/PoliTeKDSP/libs/libDaisy/src/hid/disp/graphics_common.h ****             case Alignment::topRight:
 2310              		.loc 13 214 41 view .LVU510
 2311 0274 B4F90240 		ldrsh	r4, [r4, #2]
 2312              	.LVL157:
 2313              	.LBB983:
 2314              	.LBI968:
  31:../libs/PoliTeKDSP/libs/libDaisy/src/hid/disp/graphics_common.h ****     : x_(x), y_(y), width_(max(0, width)), height_(max(0, height))
 2315              		.loc 13 31 5 is_stmt 1 view .LVU511
 2316              	.LBB978:
 2317              	.LBB973:
  32:../libs/PoliTeKDSP/libs/libDaisy/src/hid/disp/graphics_common.h ****     {
 2318              		.loc 13 32 66 is_stmt 0 view .LVU512
 2319 0278 0F80     		strh	r7, [r1]	@ movhi
 2320              	.LBE973:
 2321              	.LBE978:
 2322              	.LBE983:
 2323              	.LBE1120:
 2324              	.LBE1198:
 468:../libs/PoliTeKDSP/libs/libDaisy/src/hid/disp/display.h ****         ((ChildType*)(this))->ChildType::WriteString(str, font, on);
 2325              		.loc 10 468 18 view .LVU513
 2326 027a BFB2     		uxth	r7, r7
 2327              	.LVL158:
 2328              	.LBB1199:
 2329              	.LBB1121:
 2330              	.LBB984:
 2331              	.LBB979:
 2332              	.LBB974:
  32:../libs/PoliTeKDSP/libs/libDaisy/src/hid/disp/graphics_common.h ****     {
 2333              		.loc 13 32 66 view .LVU514
 2334 027c 4C80     		strh	r4, [r1, #2]	@ movhi
 2335              	.LBE974:
 2336              	.LBE979:
 2337              	.LBE984:
 2338              	.LBE1121:
 2339              	.LBE1199:
 468:../libs/PoliTeKDSP/libs/libDaisy/src/hid/disp/display.h ****         ((ChildType*)(this))->ChildType::WriteString(str, font, on);
 2340              		.loc 10 468 18 view .LVU515
 2341 027e A4B2     		uxth	r4, r4
 2342              	.LVL159:
 2343              	.LBB1200:
 2344              	.LBB1122:
 2345              	.LBB985:
 2346              	.LBB980:
 2347              	.LBB975:
ARM GAS  C:\Users\matte\AppData\Local\Temp\ccj2OJiD.s 			page 78


  32:../libs/PoliTeKDSP/libs/libDaisy/src/hid/disp/graphics_common.h ****     {
 2348              		.loc 13 32 66 view .LVU516
 2349 0280 8B80     		strh	r3, [r1, #4]	@ movhi
 2350              	.LVL160:
 2351              	.LBB971:
 2352              	.LBI971:
 2353              		.loc 13 261 13 is_stmt 1 view .LVU517
 2354              	.LBE971:
 2355              	.LBE975:
 2356              	.LBE980:
 2357              	.LBE985:
 2358              	.LBE1122:
 2359              	.LBE1200:
 2360              		.loc 13 261 41 view .LVU518
 2361              	.LBB1201:
 2362              	.LBB1123:
 2363              	.LBB986:
 2364              	.LBB981:
 2365              	.LBB976:
 2366              	.LBB972:
 2367              	.LBI972:
 2368              		.loc 13 261 13 view .LVU519
 2369              	.LBE972:
 2370              	.LBE976:
 2371              	.LBE981:
 2372              	.LBE986:
 2373              	.LBE1123:
 2374              	.LBE1201:
 2375              		.loc 13 261 41 view .LVU520
 2376              	.LBB1202:
 2377              	.LBB1124:
 2378              	.LBB987:
 2379              	.LBB982:
 2380              	.LBB977:
  32:../libs/PoliTeKDSP/libs/libDaisy/src/hid/disp/graphics_common.h ****     {
 2381              		.loc 13 32 66 is_stmt 0 view .LVU521
 2382 0282 CA80     		strh	r2, [r1, #6]	@ movhi
 2383              	.LBE977:
  34:../libs/PoliTeKDSP/libs/libDaisy/src/hid/disp/graphics_common.h **** 
 2384              		.loc 13 34 5 view .LVU522
 2385 0284 FEE6     		b	.L129
 2386              	.LVL161:
 2387              	.L126:
  34:../libs/PoliTeKDSP/libs/libDaisy/src/hid/disp/graphics_common.h **** 
 2388              		.loc 13 34 5 view .LVU523
 2389              	.LBE982:
 2390              	.LBE987:
 220:../libs/PoliTeKDSP/libs/libDaisy/src/hid/disp/graphics_common.h ****                 return {int16_t(x_ + (other.GetCenterX() - GetCenterX())),
 2391              		.loc 13 220 13 is_stmt 1 view .LVU524
 221:../libs/PoliTeKDSP/libs/libDaisy/src/hid/disp/graphics_common.h ****                         other.y_,
 2392              		.loc 13 221 17 view .LVU525
 2393              	.LBB988:
 2394              	.LBI988:
  62:../libs/PoliTeKDSP/libs/libDaisy/src/hid/disp/graphics_common.h ****     int16_t GetCenterY() const { return y_ + height_ / 2; }
 2395              		.loc 13 62 13 view .LVU526
 2396              	.LBB989:
  62:../libs/PoliTeKDSP/libs/libDaisy/src/hid/disp/graphics_common.h ****     int16_t GetCenterY() const { return y_ + height_ / 2; }
ARM GAS  C:\Users\matte\AppData\Local\Temp\ccj2OJiD.s 			page 79


 2397              		.loc 13 62 34 view .LVU527
  62:../libs/PoliTeKDSP/libs/libDaisy/src/hid/disp/graphics_common.h ****     int16_t GetCenterY() const { return y_ + height_ / 2; }
 2398              		.loc 13 62 34 is_stmt 0 view .LVU528
 2399              	.LBE989:
 2400              	.LBE988:
 2401              	.LBB992:
 2402              	.LBI992:
  62:../libs/PoliTeKDSP/libs/libDaisy/src/hid/disp/graphics_common.h ****     int16_t GetCenterY() const { return y_ + height_ / 2; }
 2403              		.loc 13 62 13 is_stmt 1 view .LVU529
 2404              	.LBB993:
  62:../libs/PoliTeKDSP/libs/libDaisy/src/hid/disp/graphics_common.h ****     int16_t GetCenterY() const { return y_ + height_ / 2; }
 2405              		.loc 13 62 34 view .LVU530
  62:../libs/PoliTeKDSP/libs/libDaisy/src/hid/disp/graphics_common.h ****     int16_t GetCenterY() const { return y_ + height_ / 2; }
 2406              		.loc 13 62 34 is_stmt 0 view .LVU531
 2407              	.LBE993:
 2408              	.LBE992:
 2409              	.LBB994:
 2410              	.LBB990:
  62:../libs/PoliTeKDSP/libs/libDaisy/src/hid/disp/graphics_common.h ****     int16_t GetCenterY() const { return y_ + height_ / 2; }
 2411              		.loc 13 62 53 view .LVU532
 2412 0286 B4F90410 		ldrsh	r1, [r4, #4]
 2413              	.LVL162:
  62:../libs/PoliTeKDSP/libs/libDaisy/src/hid/disp/graphics_common.h ****     int16_t GetCenterY() const { return y_ + height_ / 2; }
 2414              		.loc 13 62 44 view .LVU533
 2415 028a 2788     		ldrh	r7, [r4]
  62:../libs/PoliTeKDSP/libs/libDaisy/src/hid/disp/graphics_common.h ****     int16_t GetCenterY() const { return y_ + height_ / 2; }
 2416              		.loc 13 62 53 view .LVU534
 2417 028c 0029     		cmp	r1, #0
 2418              	.LBE990:
 2419              	.LBE994:
 222:../libs/PoliTeKDSP/libs/libDaisy/src/hid/disp/graphics_common.h ****                         width_,
 2420              		.loc 13 222 31 view .LVU535
 2421 028e B4F90240 		ldrsh	r4, [r4, #2]
 2422              	.LVL163:
 2423              	.LBB995:
 2424              	.LBB991:
  62:../libs/PoliTeKDSP/libs/libDaisy/src/hid/disp/graphics_common.h ****     int16_t GetCenterY() const { return y_ + height_ / 2; }
 2425              		.loc 13 62 53 view .LVU536
 2426 0292 B8BF     		it	lt
 2427 0294 0131     		addlt	r1, r1, #1
  62:../libs/PoliTeKDSP/libs/libDaisy/src/hid/disp/graphics_common.h ****     int16_t GetCenterY() const { return y_ + height_ / 2; }
 2428              		.loc 13 62 44 view .LVU537
 2429 0296 07EB6107 		add	r7, r7, r1, asr #1
 2430              	.LBE991:
 2431              	.LBE995:
 2432              	.LBB996:
 2433              	.LBB997:
 2434              	.LBB998:
  32:../libs/PoliTeKDSP/libs/libDaisy/src/hid/disp/graphics_common.h ****     {
 2435              		.loc 13 32 66 view .LVU538
 2436 029a 0699     		ldr	r1, [sp, #24]
 2437 029c 8B80     		strh	r3, [r1, #4]	@ movhi
 2438              	.LBE998:
 2439              	.LBE997:
 2440              	.LBE996:
 221:../libs/PoliTeKDSP/libs/libDaisy/src/hid/disp/graphics_common.h ****                         other.y_,
 2441              		.loc 13 221 58 view .LVU539
ARM GAS  C:\Users\matte\AppData\Local\Temp\ccj2OJiD.s 			page 80


 2442 029e A7EB6303 		sub	r3, r7, r3, asr #1
 2443              	.LBB1009:
 2444              	.LBB1005:
 2445              	.LBB1001:
  32:../libs/PoliTeKDSP/libs/libDaisy/src/hid/disp/graphics_common.h ****     {
 2446              		.loc 13 32 66 view .LVU540
 2447 02a2 4C80     		strh	r4, [r1, #2]	@ movhi
 2448              	.LBE1001:
 2449              	.LBE1005:
 2450              	.LBE1009:
 2451              	.LBE1124:
 2452              	.LBE1202:
 468:../libs/PoliTeKDSP/libs/libDaisy/src/hid/disp/display.h ****         ((ChildType*)(this))->ChildType::WriteString(str, font, on);
 2453              		.loc 10 468 18 view .LVU541
 2454 02a4 A4B2     		uxth	r4, r4
 2455              	.LBB1203:
 2456              	.LBB1125:
 221:../libs/PoliTeKDSP/libs/libDaisy/src/hid/disp/graphics_common.h ****                         other.y_,
 2457              		.loc 13 221 58 view .LVU542
 2458 02a6 9FB2     		uxth	r7, r3
 2459              	.LVL164:
 2460              	.LBB1010:
 2461              	.LBI996:
  31:../libs/PoliTeKDSP/libs/libDaisy/src/hid/disp/graphics_common.h ****     : x_(x), y_(y), width_(max(0, width)), height_(max(0, height))
 2462              		.loc 13 31 5 is_stmt 1 view .LVU543
 2463              	.LBB1006:
 2464              	.LBB1002:
 2465              	.LBB999:
 2466              	.LBI999:
 2467              		.loc 13 261 13 view .LVU544
 2468              	.LBE999:
 2469              	.LBE1002:
 2470              	.LBE1006:
 2471              	.LBE1010:
 2472              	.LBE1125:
 2473              	.LBE1203:
 2474              		.loc 13 261 41 view .LVU545
 2475              	.LBB1204:
 2476              	.LBB1126:
 2477              	.LBB1011:
 2478              	.LBB1007:
 2479              	.LBB1003:
 2480              	.LBB1000:
 2481              	.LBI1000:
 2482              		.loc 13 261 13 view .LVU546
 2483              	.LBE1000:
 2484              	.LBE1003:
 2485              	.LBE1007:
 2486              	.LBE1011:
 2487              	.LBE1126:
 2488              	.LBE1204:
 2489              		.loc 13 261 41 view .LVU547
 2490              	.LBB1205:
 2491              	.LBB1127:
 2492              	.LBB1012:
 2493              	.LBB1008:
 2494              	.LBB1004:
ARM GAS  C:\Users\matte\AppData\Local\Temp\ccj2OJiD.s 			page 81


  32:../libs/PoliTeKDSP/libs/libDaisy/src/hid/disp/graphics_common.h ****     {
 2495              		.loc 13 32 66 is_stmt 0 view .LVU548
 2496 02a8 CA80     		strh	r2, [r1, #6]	@ movhi
 2497 02aa 0F80     		strh	r7, [r1]	@ movhi
 2498              	.LBE1004:
  34:../libs/PoliTeKDSP/libs/libDaisy/src/hid/disp/graphics_common.h **** 
 2499              		.loc 13 34 5 view .LVU549
 2500 02ac EAE6     		b	.L129
 2501              	.LVL165:
 2502              	.L125:
  34:../libs/PoliTeKDSP/libs/libDaisy/src/hid/disp/graphics_common.h **** 
 2503              		.loc 13 34 5 view .LVU550
 2504              	.LBE1008:
 2505              	.LBE1012:
 215:../libs/PoliTeKDSP/libs/libDaisy/src/hid/disp/graphics_common.h ****                 return {int16_t(other.GetRight() - width_),
 2506              		.loc 13 215 13 is_stmt 1 view .LVU551
 216:../libs/PoliTeKDSP/libs/libDaisy/src/hid/disp/graphics_common.h ****                         other.y_,
 2507              		.loc 13 216 17 view .LVU552
 2508              	.LBB1013:
 2509              	.LBI1013:
  60:../libs/PoliTeKDSP/libs/libDaisy/src/hid/disp/graphics_common.h ****     int16_t GetBottom() const { return y_ + height_; }
 2510              		.loc 13 60 13 view .LVU553
 2511              	.LBB1014:
  60:../libs/PoliTeKDSP/libs/libDaisy/src/hid/disp/graphics_common.h ****     int16_t GetBottom() const { return y_ + height_; }
 2512              		.loc 13 60 32 view .LVU554
  60:../libs/PoliTeKDSP/libs/libDaisy/src/hid/disp/graphics_common.h ****     int16_t GetBottom() const { return y_ + height_; }
 2513              		.loc 13 60 42 is_stmt 0 view .LVU555
 2514 02ae A188     		ldrh	r1, [r4, #4]
 2515              	.LVL166:
  60:../libs/PoliTeKDSP/libs/libDaisy/src/hid/disp/graphics_common.h ****     int16_t GetBottom() const { return y_ + height_; }
 2516              		.loc 13 60 42 view .LVU556
 2517 02b0 2788     		ldrh	r7, [r4]
 2518              	.LBE1014:
 2519              	.LBE1013:
 217:../libs/PoliTeKDSP/libs/libDaisy/src/hid/disp/graphics_common.h ****                         width_,
 2520              		.loc 13 217 31 view .LVU557
 2521 02b2 B4F90240 		ldrsh	r4, [r4, #2]
 2522              	.LVL167:
 2523              	.LBB1016:
 2524              	.LBB1015:
  60:../libs/PoliTeKDSP/libs/libDaisy/src/hid/disp/graphics_common.h ****     int16_t GetBottom() const { return y_ + height_; }
 2525              		.loc 13 60 42 view .LVU558
 2526 02b6 0F44     		add	r7, r7, r1
 2527              	.LBE1015:
 2528              	.LBE1016:
 2529              	.LBB1017:
 2530              	.LBB1018:
 2531              	.LBB1019:
  32:../libs/PoliTeKDSP/libs/libDaisy/src/hid/disp/graphics_common.h ****     {
 2532              		.loc 13 32 66 view .LVU559
 2533 02b8 0699     		ldr	r1, [sp, #24]
 2534 02ba 8B80     		strh	r3, [r1, #4]	@ movhi
 2535              	.LBE1019:
 2536              	.LBE1018:
 2537              	.LBE1017:
 216:../libs/PoliTeKDSP/libs/libDaisy/src/hid/disp/graphics_common.h ****                         other.y_,
 2538              		.loc 13 216 50 view .LVU560
ARM GAS  C:\Users\matte\AppData\Local\Temp\ccj2OJiD.s 			page 82


 2539 02bc FB1A     		subs	r3, r7, r3
 2540              	.LBB1030:
 2541              	.LBB1026:
 2542              	.LBB1022:
  32:../libs/PoliTeKDSP/libs/libDaisy/src/hid/disp/graphics_common.h ****     {
 2543              		.loc 13 32 66 view .LVU561
 2544 02be 4C80     		strh	r4, [r1, #2]	@ movhi
 2545              	.LBE1022:
 2546              	.LBE1026:
 2547              	.LBE1030:
 2548              	.LBE1127:
 2549              	.LBE1205:
 468:../libs/PoliTeKDSP/libs/libDaisy/src/hid/disp/display.h ****         ((ChildType*)(this))->ChildType::WriteString(str, font, on);
 2550              		.loc 10 468 18 view .LVU562
 2551 02c0 A4B2     		uxth	r4, r4
 2552              	.LBB1206:
 2553              	.LBB1128:
 216:../libs/PoliTeKDSP/libs/libDaisy/src/hid/disp/graphics_common.h ****                         other.y_,
 2554              		.loc 13 216 50 view .LVU563
 2555 02c2 9FB2     		uxth	r7, r3
 2556              	.LVL168:
 2557              	.LBB1031:
 2558              	.LBI1017:
  31:../libs/PoliTeKDSP/libs/libDaisy/src/hid/disp/graphics_common.h ****     : x_(x), y_(y), width_(max(0, width)), height_(max(0, height))
 2559              		.loc 13 31 5 is_stmt 1 view .LVU564
 2560              	.LBB1027:
 2561              	.LBB1023:
 2562              	.LBB1020:
 2563              	.LBI1020:
 2564              		.loc 13 261 13 view .LVU565
 2565              	.LBE1020:
 2566              	.LBE1023:
 2567              	.LBE1027:
 2568              	.LBE1031:
 2569              	.LBE1128:
 2570              	.LBE1206:
 2571              		.loc 13 261 41 view .LVU566
 2572              	.LBB1207:
 2573              	.LBB1129:
 2574              	.LBB1032:
 2575              	.LBB1028:
 2576              	.LBB1024:
 2577              	.LBB1021:
 2578              	.LBI1021:
 2579              		.loc 13 261 13 view .LVU567
 2580              	.LBE1021:
 2581              	.LBE1024:
 2582              	.LBE1028:
 2583              	.LBE1032:
 2584              	.LBE1129:
 2585              	.LBE1207:
 2586              		.loc 13 261 41 view .LVU568
 2587              	.LBB1208:
 2588              	.LBB1130:
 2589              	.LBB1033:
 2590              	.LBB1029:
 2591              	.LBB1025:
ARM GAS  C:\Users\matte\AppData\Local\Temp\ccj2OJiD.s 			page 83


  32:../libs/PoliTeKDSP/libs/libDaisy/src/hid/disp/graphics_common.h ****     {
 2592              		.loc 13 32 66 is_stmt 0 view .LVU569
 2593 02c4 CA80     		strh	r2, [r1, #6]	@ movhi
 2594 02c6 0F80     		strh	r7, [r1]	@ movhi
 2595              	.LBE1025:
  34:../libs/PoliTeKDSP/libs/libDaisy/src/hid/disp/graphics_common.h **** 
 2596              		.loc 13 34 5 view .LVU570
 2597 02c8 DCE6     		b	.L129
 2598              	.LVL169:
 2599              	.L124:
  34:../libs/PoliTeKDSP/libs/libDaisy/src/hid/disp/graphics_common.h **** 
 2600              		.loc 13 34 5 view .LVU571
 2601              	.LBE1029:
 2602              	.LBE1033:
 225:../libs/PoliTeKDSP/libs/libDaisy/src/hid/disp/graphics_common.h ****                 return {other.x_,
 2603              		.loc 13 225 13 is_stmt 1 view .LVU572
 226:../libs/PoliTeKDSP/libs/libDaisy/src/hid/disp/graphics_common.h ****                         int16_t(other.GetBottom() - height_),
 2604              		.loc 13 226 17 view .LVU573
 2605              	.LBB1034:
 2606              	.LBB1035:
  61:../libs/PoliTeKDSP/libs/libDaisy/src/hid/disp/graphics_common.h ****     int16_t GetCenterX() const { return x_ + width_ / 2; }
 2607              		.loc 13 61 43 is_stmt 0 view .LVU574
 2608 02ca E788     		ldrh	r7, [r4, #6]
 2609 02cc 6188     		ldrh	r1, [r4, #2]
 2610              	.LVL170:
  61:../libs/PoliTeKDSP/libs/libDaisy/src/hid/disp/graphics_common.h ****     int16_t GetCenterX() const { return x_ + width_ / 2; }
 2611              		.loc 13 61 43 view .LVU575
 2612 02ce 3944     		add	r1, r1, r7
 2613              	.LBE1035:
 2614              	.LBE1034:
 226:../libs/PoliTeKDSP/libs/libDaisy/src/hid/disp/graphics_common.h ****                         int16_t(other.GetBottom() - height_),
 2615              		.loc 13 226 31 view .LVU576
 2616 02d0 B4F90070 		ldrsh	r7, [r4]
 227:../libs/PoliTeKDSP/libs/libDaisy/src/hid/disp/graphics_common.h ****                         width_,
 2617              		.loc 13 227 51 view .LVU577
 2618 02d4 081A     		subs	r0, r1, r0
 2619              	.LVL171:
 2620              	.LBB1037:
 2621              	.LBI1034:
  61:../libs/PoliTeKDSP/libs/libDaisy/src/hid/disp/graphics_common.h ****     int16_t GetCenterX() const { return x_ + width_ / 2; }
 2622              		.loc 13 61 13 is_stmt 1 view .LVU578
 2623              	.LBB1036:
  61:../libs/PoliTeKDSP/libs/libDaisy/src/hid/disp/graphics_common.h ****     int16_t GetCenterX() const { return x_ + width_ / 2; }
 2624              		.loc 13 61 33 view .LVU579
  61:../libs/PoliTeKDSP/libs/libDaisy/src/hid/disp/graphics_common.h ****     int16_t GetCenterX() const { return x_ + width_ / 2; }
 2625              		.loc 13 61 33 is_stmt 0 view .LVU580
 2626              	.LBE1036:
 2627              	.LBE1037:
 2628              	.LBB1038:
 2629              	.LBB1039:
 2630              	.LBB1040:
  32:../libs/PoliTeKDSP/libs/libDaisy/src/hid/disp/graphics_common.h ****     {
 2631              		.loc 13 32 66 view .LVU581
 2632 02d6 0699     		ldr	r1, [sp, #24]
 2633              	.LBE1040:
 2634              	.LBE1039:
 2635              	.LBE1038:
ARM GAS  C:\Users\matte\AppData\Local\Temp\ccj2OJiD.s 			page 84


 227:../libs/PoliTeKDSP/libs/libDaisy/src/hid/disp/graphics_common.h ****                         width_,
 2636              		.loc 13 227 51 view .LVU582
 2637 02d8 84B2     		uxth	r4, r0
 2638              	.LVL172:
 2639              	.LBB1050:
 2640              	.LBB1046:
 2641              	.LBB1043:
  32:../libs/PoliTeKDSP/libs/libDaisy/src/hid/disp/graphics_common.h ****     {
 2642              		.loc 13 32 66 view .LVU583
 2643 02da 0F80     		strh	r7, [r1]	@ movhi
 2644 02dc 8B80     		strh	r3, [r1, #4]	@ movhi
 2645              	.LVL173:
  32:../libs/PoliTeKDSP/libs/libDaisy/src/hid/disp/graphics_common.h ****     {
 2646              		.loc 13 32 66 view .LVU584
 2647              	.LBE1043:
 2648              	.LBE1046:
 2649              	.LBI1038:
  31:../libs/PoliTeKDSP/libs/libDaisy/src/hid/disp/graphics_common.h ****     : x_(x), y_(y), width_(max(0, width)), height_(max(0, height))
 2650              		.loc 13 31 5 is_stmt 1 view .LVU585
 2651              	.LBE1050:
 2652              	.LBE1130:
 2653              	.LBE1208:
 468:../libs/PoliTeKDSP/libs/libDaisy/src/hid/disp/display.h ****         ((ChildType*)(this))->ChildType::WriteString(str, font, on);
 2654              		.loc 10 468 18 is_stmt 0 view .LVU586
 2655 02de BFB2     		uxth	r7, r7
 2656              	.LVL174:
 2657              	.LBB1209:
 2658              	.LBB1131:
 2659              	.LBB1051:
 2660              	.LBB1047:
 2661              	.LBB1044:
  32:../libs/PoliTeKDSP/libs/libDaisy/src/hid/disp/graphics_common.h ****     {
 2662              		.loc 13 32 66 view .LVU587
 2663 02e0 CA80     		strh	r2, [r1, #6]	@ movhi
 2664 02e2 4C80     		strh	r4, [r1, #2]	@ movhi
 2665              	.LVL175:
 2666              	.LBB1041:
 2667              	.LBI1041:
 2668              		.loc 13 261 13 is_stmt 1 view .LVU588
 2669              	.LBE1041:
 2670              	.LBE1044:
 2671              	.LBE1047:
 2672              	.LBE1051:
 2673              	.LBE1131:
 2674              	.LBE1209:
 2675              		.loc 13 261 41 view .LVU589
 2676              	.LBB1210:
 2677              	.LBB1132:
 2678              	.LBB1052:
 2679              	.LBB1048:
 2680              	.LBB1045:
 2681              	.LBB1042:
 2682              	.LBI1042:
 2683              		.loc 13 261 13 view .LVU590
 2684              	.LBE1042:
 2685              	.LBE1045:
 2686              	.LBE1048:
ARM GAS  C:\Users\matte\AppData\Local\Temp\ccj2OJiD.s 			page 85


 2687              	.LBE1052:
 2688              	.LBE1132:
 2689              	.LBE1210:
 2690              		.loc 13 261 41 view .LVU591
 2691              	.LBB1211:
 2692              	.LBB1133:
 2693              	.LBB1053:
 2694              	.LBB1049:
  34:../libs/PoliTeKDSP/libs/libDaisy/src/hid/disp/graphics_common.h **** 
 2695              		.loc 13 34 5 is_stmt 0 view .LVU592
 2696 02e4 CEE6     		b	.L129
 2697              	.LVL176:
 2698              	.L123:
  34:../libs/PoliTeKDSP/libs/libDaisy/src/hid/disp/graphics_common.h **** 
 2699              		.loc 13 34 5 view .LVU593
 2700              	.LBE1049:
 2701              	.LBE1053:
 235:../libs/PoliTeKDSP/libs/libDaisy/src/hid/disp/graphics_common.h ****                 return {int16_t(x_ + (other.GetCenterX() - GetCenterX())),
 2702              		.loc 13 235 13 is_stmt 1 view .LVU594
 236:../libs/PoliTeKDSP/libs/libDaisy/src/hid/disp/graphics_common.h ****                         int16_t(other.GetBottom() - height_),
 2703              		.loc 13 236 17 view .LVU595
 2704              	.LBB1054:
 2705              	.LBI1054:
  62:../libs/PoliTeKDSP/libs/libDaisy/src/hid/disp/graphics_common.h ****     int16_t GetCenterY() const { return y_ + height_ / 2; }
 2706              		.loc 13 62 13 view .LVU596
 2707              	.LBB1055:
  62:../libs/PoliTeKDSP/libs/libDaisy/src/hid/disp/graphics_common.h ****     int16_t GetCenterY() const { return y_ + height_ / 2; }
 2708              		.loc 13 62 34 view .LVU597
  62:../libs/PoliTeKDSP/libs/libDaisy/src/hid/disp/graphics_common.h ****     int16_t GetCenterY() const { return y_ + height_ / 2; }
 2709              		.loc 13 62 34 is_stmt 0 view .LVU598
 2710              	.LBE1055:
 2711              	.LBE1054:
 2712              	.LBB1057:
 2713              	.LBI1057:
  62:../libs/PoliTeKDSP/libs/libDaisy/src/hid/disp/graphics_common.h ****     int16_t GetCenterY() const { return y_ + height_ / 2; }
 2714              		.loc 13 62 13 is_stmt 1 view .LVU599
 2715              	.LBB1058:
  62:../libs/PoliTeKDSP/libs/libDaisy/src/hid/disp/graphics_common.h ****     int16_t GetCenterY() const { return y_ + height_ / 2; }
 2716              		.loc 13 62 34 view .LVU600
  62:../libs/PoliTeKDSP/libs/libDaisy/src/hid/disp/graphics_common.h ****     int16_t GetCenterY() const { return y_ + height_ / 2; }
 2717              		.loc 13 62 34 is_stmt 0 view .LVU601
 2718              	.LBE1058:
 2719              	.LBE1057:
 2720              	.LBB1059:
 2721              	.LBB1056:
  62:../libs/PoliTeKDSP/libs/libDaisy/src/hid/disp/graphics_common.h ****     int16_t GetCenterY() const { return y_ + height_ / 2; }
 2722              		.loc 13 62 53 view .LVU602
 2723 02e6 B4F90410 		ldrsh	r1, [r4, #4]
 2724              	.LVL177:
  62:../libs/PoliTeKDSP/libs/libDaisy/src/hid/disp/graphics_common.h ****     int16_t GetCenterY() const { return y_ + height_ / 2; }
 2725              		.loc 13 62 44 view .LVU603
 2726 02ea 2788     		ldrh	r7, [r4]
  62:../libs/PoliTeKDSP/libs/libDaisy/src/hid/disp/graphics_common.h ****     int16_t GetCenterY() const { return y_ + height_ / 2; }
 2727              		.loc 13 62 53 view .LVU604
 2728 02ec 0029     		cmp	r1, #0
 2729 02ee B8BF     		it	lt
 2730 02f0 0131     		addlt	r1, r1, #1
ARM GAS  C:\Users\matte\AppData\Local\Temp\ccj2OJiD.s 			page 86


  62:../libs/PoliTeKDSP/libs/libDaisy/src/hid/disp/graphics_common.h ****     int16_t GetCenterY() const { return y_ + height_ / 2; }
 2731              		.loc 13 62 44 view .LVU605
 2732 02f2 07EB6107 		add	r7, r7, r1, asr #1
 2733              	.LBE1056:
 2734              	.LBE1059:
 236:../libs/PoliTeKDSP/libs/libDaisy/src/hid/disp/graphics_common.h ****                         int16_t(other.GetBottom() - height_),
 2735              		.loc 13 236 58 view .LVU606
 2736 02f6 A7EB6307 		sub	r7, r7, r3, asr #1
 2737              	.L189:
 2738              	.LBB1060:
 2739              	.LBB1061:
  61:../libs/PoliTeKDSP/libs/libDaisy/src/hid/disp/graphics_common.h ****     int16_t GetCenterX() const { return x_ + width_ / 2; }
 2740              		.loc 13 61 43 view .LVU607
 2741 02fa B4F802C0 		ldrh	ip, [r4, #2]
 2742              	.LBE1061:
 2743              	.LBE1060:
 236:../libs/PoliTeKDSP/libs/libDaisy/src/hid/disp/graphics_common.h ****                         int16_t(other.GetBottom() - height_),
 2744              		.loc 13 236 58 view .LVU608
 2745 02fe BFB2     		uxth	r7, r7
 2746              	.LVL178:
 2747              	.LBB1064:
 2748              	.LBI1060:
  61:../libs/PoliTeKDSP/libs/libDaisy/src/hid/disp/graphics_common.h ****     int16_t GetCenterX() const { return x_ + width_ / 2; }
 2749              		.loc 13 61 13 is_stmt 1 view .LVU609
 2750              	.LBB1062:
  61:../libs/PoliTeKDSP/libs/libDaisy/src/hid/disp/graphics_common.h ****     int16_t GetCenterX() const { return x_ + width_ / 2; }
 2751              		.loc 13 61 33 view .LVU610
  61:../libs/PoliTeKDSP/libs/libDaisy/src/hid/disp/graphics_common.h ****     int16_t GetCenterX() const { return x_ + width_ / 2; }
 2752              		.loc 13 61 43 is_stmt 0 view .LVU611
 2753 0300 E488     		ldrh	r4, [r4, #6]
 2754              	.LVL179:
  61:../libs/PoliTeKDSP/libs/libDaisy/src/hid/disp/graphics_common.h ****     int16_t GetCenterX() const { return x_ + width_ / 2; }
 2755              		.loc 13 61 43 view .LVU612
 2756              	.LBE1062:
 2757              	.LBE1064:
 2758              	.LBB1065:
 2759              	.LBB1066:
 2760              	.LBB1067:
  32:../libs/PoliTeKDSP/libs/libDaisy/src/hid/disp/graphics_common.h ****     {
 2761              		.loc 13 32 66 view .LVU613
 2762 0302 0699     		ldr	r1, [sp, #24]
 2763              	.LBE1067:
 2764              	.LBE1066:
 2765              	.LBE1065:
 2766              	.LBB1079:
 2767              	.LBB1063:
  61:../libs/PoliTeKDSP/libs/libDaisy/src/hid/disp/graphics_common.h ****     int16_t GetCenterX() const { return x_ + width_ / 2; }
 2768              		.loc 13 61 43 view .LVU614
 2769 0304 6444     		add	r4, r4, ip
 2770              	.LBE1063:
 2771              	.LBE1079:
 2772              	.LBB1080:
 2773              	.LBB1074:
 2774              	.LBB1070:
  32:../libs/PoliTeKDSP/libs/libDaisy/src/hid/disp/graphics_common.h ****     {
 2775              		.loc 13 32 66 view .LVU615
 2776 0306 8B80     		strh	r3, [r1, #4]	@ movhi
ARM GAS  C:\Users\matte\AppData\Local\Temp\ccj2OJiD.s 			page 87


 2777              	.LBE1070:
 2778              	.LBE1074:
 2779              	.LBE1080:
 237:../libs/PoliTeKDSP/libs/libDaisy/src/hid/disp/graphics_common.h ****                         width_,
 2780              		.loc 13 237 51 view .LVU616
 2781 0308 201A     		subs	r0, r4, r0
 2782              	.LBB1081:
 2783              	.LBB1075:
 2784              	.LBB1071:
  32:../libs/PoliTeKDSP/libs/libDaisy/src/hid/disp/graphics_common.h ****     {
 2785              		.loc 13 32 66 view .LVU617
 2786 030a CA80     		strh	r2, [r1, #6]	@ movhi
 2787 030c 0F80     		strh	r7, [r1]	@ movhi
 2788              	.LBE1071:
 2789              	.LBE1075:
 2790              	.LBE1081:
 237:../libs/PoliTeKDSP/libs/libDaisy/src/hid/disp/graphics_common.h ****                         width_,
 2791              		.loc 13 237 51 view .LVU618
 2792 030e 84B2     		uxth	r4, r0
 2793              	.LVL180:
 2794              	.LBB1082:
 2795              	.LBI1065:
  31:../libs/PoliTeKDSP/libs/libDaisy/src/hid/disp/graphics_common.h ****     : x_(x), y_(y), width_(max(0, width)), height_(max(0, height))
 2796              		.loc 13 31 5 is_stmt 1 view .LVU619
 2797              	.LBB1076:
 2798              	.LBB1072:
  32:../libs/PoliTeKDSP/libs/libDaisy/src/hid/disp/graphics_common.h ****     {
 2799              		.loc 13 32 66 is_stmt 0 view .LVU620
 2800 0310 4C80     		strh	r4, [r1, #2]	@ movhi
 2801              	.LVL181:
 2802              	.LBB1068:
 2803              	.LBI1068:
 2804              		.loc 13 261 13 is_stmt 1 view .LVU621
 2805              	.LBE1068:
 2806              	.LBE1072:
 2807              	.LBE1076:
 2808              	.LBE1082:
 2809              	.LBE1133:
 2810              	.LBE1211:
 2811              		.loc 13 261 41 view .LVU622
 2812              	.LBB1212:
 2813              	.LBB1134:
 2814              	.LBB1083:
 2815              	.LBB1077:
 2816              	.LBB1073:
 2817              	.LBB1069:
 2818              	.LBI1069:
 2819              		.loc 13 261 13 view .LVU623
 2820              	.LBE1069:
 2821              	.LBE1073:
 2822              	.LBE1077:
 2823              	.LBE1083:
 2824              	.LBE1134:
 2825              	.LBE1212:
 2826              		.loc 13 261 41 view .LVU624
 2827              	.LBB1213:
 2828              	.LBB1135:
ARM GAS  C:\Users\matte\AppData\Local\Temp\ccj2OJiD.s 			page 88


 2829              	.LBB1084:
 2830              	.LBB1078:
  34:../libs/PoliTeKDSP/libs/libDaisy/src/hid/disp/graphics_common.h **** 
 2831              		.loc 13 34 5 is_stmt 0 view .LVU625
 2832 0312 B7E6     		b	.L129
 2833              	.LVL182:
 2834              	.L122:
  34:../libs/PoliTeKDSP/libs/libDaisy/src/hid/disp/graphics_common.h **** 
 2835              		.loc 13 34 5 view .LVU626
 2836              	.LBE1078:
 2837              	.LBE1084:
 230:../libs/PoliTeKDSP/libs/libDaisy/src/hid/disp/graphics_common.h ****                 return {int16_t(other.GetRight() - width_),
 2838              		.loc 13 230 13 is_stmt 1 view .LVU627
 231:../libs/PoliTeKDSP/libs/libDaisy/src/hid/disp/graphics_common.h ****                         int16_t(other.GetBottom() - height_),
 2839              		.loc 13 231 17 view .LVU628
 2840              	.LBB1085:
 2841              	.LBI1085:
  60:../libs/PoliTeKDSP/libs/libDaisy/src/hid/disp/graphics_common.h ****     int16_t GetBottom() const { return y_ + height_; }
 2842              		.loc 13 60 13 view .LVU629
 2843              	.LBB1086:
  60:../libs/PoliTeKDSP/libs/libDaisy/src/hid/disp/graphics_common.h ****     int16_t GetBottom() const { return y_ + height_; }
 2844              		.loc 13 60 32 view .LVU630
  60:../libs/PoliTeKDSP/libs/libDaisy/src/hid/disp/graphics_common.h ****     int16_t GetBottom() const { return y_ + height_; }
 2845              		.loc 13 60 42 is_stmt 0 view .LVU631
 2846 0314 2788     		ldrh	r7, [r4]
 2847 0316 A188     		ldrh	r1, [r4, #4]
 2848              	.LVL183:
  60:../libs/PoliTeKDSP/libs/libDaisy/src/hid/disp/graphics_common.h ****     int16_t GetBottom() const { return y_ + height_; }
 2849              		.loc 13 60 42 view .LVU632
 2850 0318 0F44     		add	r7, r7, r1
 2851              	.LBE1086:
 2852              	.LBE1085:
 231:../libs/PoliTeKDSP/libs/libDaisy/src/hid/disp/graphics_common.h ****                         int16_t(other.GetBottom() - height_),
 2853              		.loc 13 231 50 view .LVU633
 2854 031a FF1A     		subs	r7, r7, r3
 2855 031c EDE7     		b	.L189
 2856              	.L202:
 2857 031e 00BF     		.align	2
 2858              	.L201:
 2859 0320 00000000 		.word	_ZNK5daisy11OledDisplayINS_13SSD130xDriverILj128ELj64ENS_19SSD130xI2CTransportEEEE5WidthEv
 2860 0324 00000000 		.word	_ZNK5daisy11OledDisplayINS_13SSD130xDriverILj128ELj64ENS_19SSD130xI2CTransportEEEE6HeightEv
 2861              	.LVL184:
 2862              	.L121:
 240:../libs/PoliTeKDSP/libs/libDaisy/src/hid/disp/graphics_common.h ****                 return {other.x_,
 2863              		.loc 13 240 13 is_stmt 1 view .LVU634
 241:../libs/PoliTeKDSP/libs/libDaisy/src/hid/disp/graphics_common.h ****                         int16_t(y_ + (other.GetCenterY() - GetCenterY())),
 2864              		.loc 13 241 17 view .LVU635
 2865              	.LBB1087:
 2866              	.LBB1088:
  63:../libs/PoliTeKDSP/libs/libDaisy/src/hid/disp/graphics_common.h **** 
 2867              		.loc 13 63 54 is_stmt 0 view .LVU636
 2868 0328 B4F90610 		ldrsh	r1, [r4, #6]
 2869              	.LVL185:
  63:../libs/PoliTeKDSP/libs/libDaisy/src/hid/disp/graphics_common.h **** 
 2870              		.loc 13 63 44 view .LVU637
 2871 032c B4F802C0 		ldrh	ip, [r4, #2]
  63:../libs/PoliTeKDSP/libs/libDaisy/src/hid/disp/graphics_common.h **** 
ARM GAS  C:\Users\matte\AppData\Local\Temp\ccj2OJiD.s 			page 89


 2872              		.loc 13 63 54 view .LVU638
 2873 0330 0029     		cmp	r1, #0
 2874              	.LBE1088:
 2875              	.LBE1087:
 241:../libs/PoliTeKDSP/libs/libDaisy/src/hid/disp/graphics_common.h ****                         int16_t(y_ + (other.GetCenterY() - GetCenterY())),
 2876              		.loc 13 241 31 view .LVU639
 2877 0332 B4F90070 		ldrsh	r7, [r4]
 2878              	.LVL186:
 2879              	.LBB1092:
 2880              	.LBI1087:
  63:../libs/PoliTeKDSP/libs/libDaisy/src/hid/disp/graphics_common.h **** 
 2881              		.loc 13 63 13 is_stmt 1 view .LVU640
 2882              	.LBB1089:
  63:../libs/PoliTeKDSP/libs/libDaisy/src/hid/disp/graphics_common.h **** 
 2883              		.loc 13 63 34 view .LVU641
  63:../libs/PoliTeKDSP/libs/libDaisy/src/hid/disp/graphics_common.h **** 
 2884              		.loc 13 63 34 is_stmt 0 view .LVU642
 2885              	.LBE1089:
 2886              	.LBE1092:
 2887              	.LBB1093:
 2888              	.LBI1093:
  63:../libs/PoliTeKDSP/libs/libDaisy/src/hid/disp/graphics_common.h **** 
 2889              		.loc 13 63 13 is_stmt 1 view .LVU643
 2890              	.LBB1094:
  63:../libs/PoliTeKDSP/libs/libDaisy/src/hid/disp/graphics_common.h **** 
 2891              		.loc 13 63 34 view .LVU644
  63:../libs/PoliTeKDSP/libs/libDaisy/src/hid/disp/graphics_common.h **** 
 2892              		.loc 13 63 34 is_stmt 0 view .LVU645
 2893              	.LBE1094:
 2894              	.LBE1093:
 2895              	.LBB1095:
 2896              	.LBB1096:
 2897              	.LBB1097:
  32:../libs/PoliTeKDSP/libs/libDaisy/src/hid/disp/graphics_common.h ****     {
 2898              		.loc 13 32 66 view .LVU646
 2899 0336 0698     		ldr	r0, [sp, #24]
 2900              	.LBE1097:
 2901              	.LBE1096:
 2902              	.LBE1095:
 2903              	.LBB1109:
 2904              	.LBB1090:
  63:../libs/PoliTeKDSP/libs/libDaisy/src/hid/disp/graphics_common.h **** 
 2905              		.loc 13 63 54 view .LVU647
 2906 0338 B8BF     		it	lt
 2907 033a 0131     		addlt	r1, r1, #1
 2908              	.LBE1090:
 2909              	.LBE1109:
 2910              	.LBB1110:
 2911              	.LBB1104:
 2912              	.LBB1100:
  32:../libs/PoliTeKDSP/libs/libDaisy/src/hid/disp/graphics_common.h ****     {
 2913              		.loc 13 32 66 view .LVU648
 2914 033c C280     		strh	r2, [r0, #6]	@ movhi
 2915              	.LBE1100:
 2916              	.LBE1104:
 2917              	.LBE1110:
 2918              	.LBB1111:
ARM GAS  C:\Users\matte\AppData\Local\Temp\ccj2OJiD.s 			page 90


 2919              	.LBB1091:
  63:../libs/PoliTeKDSP/libs/libDaisy/src/hid/disp/graphics_common.h **** 
 2920              		.loc 13 63 44 view .LVU649
 2921 033e 0CEB6104 		add	r4, ip, r1, asr #1
 2922              	.LVL187:
  63:../libs/PoliTeKDSP/libs/libDaisy/src/hid/disp/graphics_common.h **** 
 2923              		.loc 13 63 44 view .LVU650
 2924              	.LBE1091:
 2925              	.LBE1111:
 2926              	.LBB1112:
 2927              	.LBB1105:
 2928              	.LBB1101:
  32:../libs/PoliTeKDSP/libs/libDaisy/src/hid/disp/graphics_common.h ****     {
 2929              		.loc 13 32 66 view .LVU651
 2930 0342 0780     		strh	r7, [r0]	@ movhi
 2931 0344 8380     		strh	r3, [r0, #4]	@ movhi
 2932              	.LBE1101:
 2933              	.LBE1105:
 2934              	.LBE1112:
 2935              	.LBE1135:
 2936              	.LBE1213:
 468:../libs/PoliTeKDSP/libs/libDaisy/src/hid/disp/display.h ****         ((ChildType*)(this))->ChildType::WriteString(str, font, on);
 2937              		.loc 10 468 18 view .LVU652
 2938 0346 BFB2     		uxth	r7, r7
 2939              	.LBB1214:
 2940              	.LBB1136:
 242:../libs/PoliTeKDSP/libs/libDaisy/src/hid/disp/graphics_common.h ****                         width_,
 2941              		.loc 13 242 58 view .LVU653
 2942 0348 A4EB5202 		sub	r2, r4, r2, lsr #1
 2943 034c 94B2     		uxth	r4, r2
 2944              	.LVL188:
 2945              	.LBB1113:
 2946              	.LBI1095:
  31:../libs/PoliTeKDSP/libs/libDaisy/src/hid/disp/graphics_common.h ****     : x_(x), y_(y), width_(max(0, width)), height_(max(0, height))
 2947              		.loc 13 31 5 is_stmt 1 view .LVU654
 2948              	.LBB1106:
 2949              	.LBB1102:
  32:../libs/PoliTeKDSP/libs/libDaisy/src/hid/disp/graphics_common.h ****     {
 2950              		.loc 13 32 66 is_stmt 0 view .LVU655
 2951 034e 4480     		strh	r4, [r0, #2]	@ movhi
 2952              	.LVL189:
 2953              	.LBB1098:
 2954              	.LBI1098:
 2955              		.loc 13 261 13 is_stmt 1 view .LVU656
 2956              	.LBE1098:
 2957              	.LBE1102:
 2958              	.LBE1106:
 2959              	.LBE1113:
 2960              	.LBE1136:
 2961              	.LBE1214:
 2962              		.loc 13 261 41 view .LVU657
 2963              	.LBB1215:
 2964              	.LBB1137:
 2965              	.LBB1114:
 2966              	.LBB1107:
 2967              	.LBB1103:
 2968              	.LBB1099:
ARM GAS  C:\Users\matte\AppData\Local\Temp\ccj2OJiD.s 			page 91


 2969              	.LBI1099:
 2970              		.loc 13 261 13 view .LVU658
 2971              	.LBE1099:
 2972              	.LBE1103:
 2973              	.LBE1107:
 2974              	.LBE1114:
 2975              	.LBE1137:
 2976              	.LBE1215:
 2977              		.loc 13 261 41 view .LVU659
 2978              	.LBB1216:
 2979              	.LBB1138:
 2980              	.LBB1115:
 2981              	.LBB1108:
  34:../libs/PoliTeKDSP/libs/libDaisy/src/hid/disp/graphics_common.h **** 
 2982              		.loc 13 34 5 is_stmt 0 view .LVU660
 2983 0350 98E6     		b	.L129
 2984              	.LVL190:
 2985              	.L149:
  34:../libs/PoliTeKDSP/libs/libDaisy/src/hid/disp/graphics_common.h **** 
 2986              		.loc 13 34 5 view .LVU661
 2987              	.LBE1108:
 2988              	.LBE1115:
 2989              	.LBE1138:
 2990              	.LBE1216:
 2991              	.LBB1217:
 2992              	.LBB1195:
 2993              	.LBB1192:
 2994              	.LBB1191:
 402:../libs/PoliTeKDSP/libs/libDaisy/src/hid/disp/display.h **** 
 2995              		.loc 10 402 20 view .LVU662
 2996 0352 4FF0000B 		mov	fp, #0
 2997              	.LVL191:
 402:../libs/PoliTeKDSP/libs/libDaisy/src/hid/disp/display.h **** 
 2998              		.loc 10 402 20 view .LVU663
 2999 0356 69E7     		b	.L147
 3000              	.LVL192:
 3001              	.L194:
 405:../libs/PoliTeKDSP/libs/libDaisy/src/hid/disp/display.h ****            || Height() < (currentY_ + font.FontHeight))
 3002              		.loc 10 405 17 view .LVU664
 3003 0358 4046     		mov	r0, r8
 3004 035a 9847     		blx	r3
 3005              	.LVL193:
 3006 035c D3E6     		b	.L148
 3007              	.L195:
 406:../libs/PoliTeKDSP/libs/libDaisy/src/hid/disp/display.h ****         {
 3008              		.loc 10 406 21 view .LVU665
 3009 035e 4046     		mov	r0, r8
 3010 0360 9847     		blx	r3
 3011              	.LVL194:
 3012 0362 DEE6     		b	.L150
 3013              	.LVL195:
 3014              	.L199:
 3015              	.LBB1189:
 3016              	.LBB1185:
 174:../libs/PoliTeKDSP/libs/libDaisy/src/hid/disp/display.h ****     }
 3017              		.loc 10 174 33 view .LVU666
 3018 0364 4046     		mov	r0, r8
ARM GAS  C:\Users\matte\AppData\Local\Temp\ccj2OJiD.s 			page 92


 3019 0366 9847     		blx	r3
 3020              	.LVL196:
 3021 0368 51E7     		b	.L164
 3022              	.LVL197:
 3023              	.L197:
 173:../libs/PoliTeKDSP/libs/libDaisy/src/hid/disp/display.h ****         currentY_ = (y >= Height()) ? Height() - 1 : y;
 3024              		.loc 10 173 32 view .LVU667
 3025 036a 4046     		mov	r0, r8
 3026 036c 9847     		blx	r3
 3027              	.LVL198:
 173:../libs/PoliTeKDSP/libs/libDaisy/src/hid/disp/display.h ****         currentY_ = (y >= Height()) ? Height() - 1 : y;
 3028              		.loc 10 173 44 view .LVU668
 3029 036e D8F80020 		ldr	r2, [r8]
 3030 0372 3CE7     		b	.L161
 3031              	.LVL199:
 3032              	.L151:
 173:../libs/PoliTeKDSP/libs/libDaisy/src/hid/disp/display.h ****         currentY_ = (y >= Height()) ? Height() - 1 : y;
 3033              		.loc 10 173 44 view .LVU669
 3034              	.LBE1185:
 3035              	.LBE1189:
 434:../libs/PoliTeKDSP/libs/libDaisy/src/hid/disp/display.h **** 
 3036              		.loc 10 434 19 view .LVU670
 3037 0374 B8F804A0 		ldrh	r10, [r8, #4]
 3038 0378 2EE7     		b	.L153
 3039              	.LVL200:
 3040              	.L200:
 3041              	.LBB1190:
 3042              	.LBB1186:
 174:../libs/PoliTeKDSP/libs/libDaisy/src/hid/disp/display.h ****     }
 3043              		.loc 10 174 45 view .LVU671
 3044 037a 4046     		mov	r0, r8
 3045 037c 9847     		blx	r3
 3046              	.LVL201:
 174:../libs/PoliTeKDSP/libs/libDaisy/src/hid/disp/display.h ****     }
 3047              		.loc 10 174 19 view .LVU672
 3048 037e 0138     		subs	r0, r0, #1
 3049 0380 83B2     		uxth	r3, r0
 3050 0382 0293     		str	r3, [sp, #8]
 3051              	.LVL202:
 174:../libs/PoliTeKDSP/libs/libDaisy/src/hid/disp/display.h ****     }
 3052              		.loc 10 174 19 view .LVU673
 3053 0384 4FE7     		b	.L165
 3054              	.LVL203:
 3055              	.L198:
 173:../libs/PoliTeKDSP/libs/libDaisy/src/hid/disp/display.h ****         currentY_ = (y >= Height()) ? Height() - 1 : y;
 3056              		.loc 10 173 43 view .LVU674
 3057 0386 4046     		mov	r0, r8
 3058 0388 9847     		blx	r3
 3059              	.LVL204:
 173:../libs/PoliTeKDSP/libs/libDaisy/src/hid/disp/display.h ****         currentY_ = (y >= Height()) ? Height() - 1 : y;
 3060              		.loc 10 173 19 view .LVU675
 3061 038a 0138     		subs	r0, r0, #1
 174:../libs/PoliTeKDSP/libs/libDaisy/src/hid/disp/display.h ****     }
 3062              		.loc 10 174 34 view .LVU676
 3063 038c D8F80020 		ldr	r2, [r8]
 173:../libs/PoliTeKDSP/libs/libDaisy/src/hid/disp/display.h ****         currentY_ = (y >= Height()) ? Height() - 1 : y;
 3064              		.loc 10 173 19 view .LVU677
ARM GAS  C:\Users\matte\AppData\Local\Temp\ccj2OJiD.s 			page 93


 3065 0390 85B2     		uxth	r5, r0
 3066              	.LVL205:
 173:../libs/PoliTeKDSP/libs/libDaisy/src/hid/disp/display.h ****         currentY_ = (y >= Height()) ? Height() - 1 : y;
 3067              		.loc 10 173 19 view .LVU678
 3068 0392 34E7     		b	.L162
 3069              	.LVL206:
 3070              	.L118:
 173:../libs/PoliTeKDSP/libs/libDaisy/src/hid/disp/display.h ****         currentY_ = (y >= Height()) ? Height() - 1 : y;
 3071              		.loc 10 173 19 view .LVU679
 3072              	.LBE1186:
 3073              	.LBE1190:
 3074              	.LBE1191:
 3075              	.LBE1192:
 3076              	.LBE1195:
 3077              	.LBE1217:
 3078              	.LBB1218:
 3079              	.LBB1139:
 255:../libs/PoliTeKDSP/libs/libDaisy/src/hid/disp/graphics_common.h ****         }
 3080              		.loc 13 255 13 is_stmt 1 view .LVU680
 255:../libs/PoliTeKDSP/libs/libDaisy/src/hid/disp/graphics_common.h ****         }
 3081              		.loc 13 255 22 view .LVU681
 3082              	.LBB1116:
 3083              	.LBI1116:
  24:../libs/PoliTeKDSP/libs/libDaisy/src/hid/disp/graphics_common.h **** 
 3084              		.loc 13 24 5 view .LVU682
 3085              	.LBE1116:
 3086              	.LBE1139:
 3087              	.LBE1218:
 3088              	.LBB1219:
 3089              	.LBB1145:
 173:../libs/PoliTeKDSP/libs/libDaisy/src/hid/disp/display.h ****         currentY_ = (y >= Height()) ? Height() - 1 : y;
 3090              		.loc 10 173 33 is_stmt 0 view .LVU683
 3091 0394 D8F80030 		ldr	r3, [r8]
 3092              	.LBE1145:
 3093              	.LBE1219:
 3094              	.LBB1220:
 3095              	.LBB1140:
 3096              	.LBB1118:
 3097              	.LBB1117:
  24:../libs/PoliTeKDSP/libs/libDaisy/src/hid/disp/graphics_common.h **** 
 3098              		.loc 13 24 53 view .LVU684
 3099 0398 0024     		movs	r4, #0
 3100              	.LVL207:
  24:../libs/PoliTeKDSP/libs/libDaisy/src/hid/disp/graphics_common.h **** 
 3101              		.loc 13 24 53 view .LVU685
 3102 039a 069A     		ldr	r2, [sp, #24]
 3103 039c 1249     		ldr	r1, .L203
 3104              	.LVL208:
  24:../libs/PoliTeKDSP/libs/libDaisy/src/hid/disp/graphics_common.h **** 
 3105              		.loc 13 24 53 view .LVU686
 3106 039e 1480     		strh	r4, [r2]	@ movhi
 3107 03a0 5480     		strh	r4, [r2, #2]	@ movhi
 3108 03a2 9480     		strh	r4, [r2, #4]	@ movhi
 3109 03a4 D480     		strh	r4, [r2, #6]	@ movhi
 3110              	.LVL209:
  24:../libs/PoliTeKDSP/libs/libDaisy/src/hid/disp/graphics_common.h **** 
 3111              		.loc 13 24 53 view .LVU687
ARM GAS  C:\Users\matte\AppData\Local\Temp\ccj2OJiD.s 			page 94


 3112              	.LBE1117:
 3113              	.LBE1118:
 3114              	.LBE1140:
 3115              	.LBE1220:
  56:../libs/PoliTeKDSP/libs/libDaisy/src/hid/disp/graphics_common.h ****     int16_t GetY() const { return y_; }
 3116              		.loc 13 56 28 is_stmt 1 view .LVU688
  57:../libs/PoliTeKDSP/libs/libDaisy/src/hid/disp/graphics_common.h ****     int16_t GetWidth() const { return width_; }
 3117              		.loc 13 57 28 view .LVU689
 3118              	.LBB1221:
 171:../libs/PoliTeKDSP/libs/libDaisy/src/hid/disp/display.h ****     {
 3119              		.loc 10 171 10 view .LVU690
 3120              	.LBB1146:
 173:../libs/PoliTeKDSP/libs/libDaisy/src/hid/disp/display.h ****         currentY_ = (y >= Height()) ? Height() - 1 : y;
 3121              		.loc 10 173 9 view .LVU691
 173:../libs/PoliTeKDSP/libs/libDaisy/src/hid/disp/display.h ****         currentY_ = (y >= Height()) ? Height() - 1 : y;
 3122              		.loc 10 173 33 is_stmt 0 view .LVU692
 3123 03a6 DA68     		ldr	r2, [r3, #12]
 3124 03a8 0191     		str	r1, [sp, #4]
 3125 03aa 8A42     		cmp	r2, r1
 3126 03ac 05D0     		beq	.L136
 3127 03ae 2746     		mov	r7, r4
 3128              	.LVL210:
 3129              	.L137:
 173:../libs/PoliTeKDSP/libs/libDaisy/src/hid/disp/display.h ****         currentY_ = (y >= Height()) ? Height() - 1 : y;
 3130              		.loc 10 173 32 view .LVU693
 3131 03b0 4046     		mov	r0, r8
 3132 03b2 9047     		blx	r2
 3133              	.LVL211:
 173:../libs/PoliTeKDSP/libs/libDaisy/src/hid/disp/display.h ****         currentY_ = (y >= Height()) ? Height() - 1 : y;
 3134              		.loc 10 173 44 view .LVU694
 3135 03b4 D8F80030 		ldr	r3, [r8]
 3136 03b8 6EE6     		b	.L138
 3137              	.LVL212:
 3138              	.L136:
 174:../libs/PoliTeKDSP/libs/libDaisy/src/hid/disp/display.h ****     }
 3139              		.loc 10 174 34 view .LVU695
 3140 03ba 9B68     		ldr	r3, [r3, #8]
 3141 03bc 0B4A     		ldr	r2, .L203+4
 173:../libs/PoliTeKDSP/libs/libDaisy/src/hid/disp/display.h ****         currentY_ = (y >= Height()) ? Height() - 1 : y;
 3142              		.loc 10 173 19 view .LVU696
 3143 03be A8F80440 		strh	r4, [r8, #4]	@ movhi
 174:../libs/PoliTeKDSP/libs/libDaisy/src/hid/disp/display.h ****     }
 3144              		.loc 10 174 9 is_stmt 1 view .LVU697
 3145 03c2 9342     		cmp	r3, r2
 3146 03c4 0392     		str	r2, [sp, #12]
 3147 03c6 3FF482AE 		beq	.L143
 3148              	.LVL213:
 3149              	.L169:
 174:../libs/PoliTeKDSP/libs/libDaisy/src/hid/disp/display.h ****     }
 3150              		.loc 10 174 33 is_stmt 0 view .LVU698
 3151 03ca 4046     		mov	r0, r8
 3152 03cc 9847     		blx	r3
 3153              	.LVL214:
 3154 03ce 74E6     		b	.L141
 3155              	.L193:
 174:../libs/PoliTeKDSP/libs/libDaisy/src/hid/disp/display.h ****     }
 3156              		.loc 10 174 45 view .LVU699
ARM GAS  C:\Users\matte\AppData\Local\Temp\ccj2OJiD.s 			page 95


 3157 03d0 4046     		mov	r0, r8
 3158 03d2 9847     		blx	r3
 3159              	.LVL215:
 174:../libs/PoliTeKDSP/libs/libDaisy/src/hid/disp/display.h ****     }
 3160              		.loc 10 174 19 view .LVU700
 3161 03d4 0138     		subs	r0, r0, #1
 3162 03d6 84B2     		uxth	r4, r0
 3163 03d8 79E6     		b	.L143
 3164              	.L192:
 173:../libs/PoliTeKDSP/libs/libDaisy/src/hid/disp/display.h ****         currentY_ = (y >= Height()) ? Height() - 1 : y;
 3165              		.loc 10 173 43 view .LVU701
 3166 03da 4046     		mov	r0, r8
 3167 03dc 9047     		blx	r2
 3168              	.LVL216:
 173:../libs/PoliTeKDSP/libs/libDaisy/src/hid/disp/display.h ****         currentY_ = (y >= Height()) ? Height() - 1 : y;
 3169              		.loc 10 173 19 view .LVU702
 3170 03de 0138     		subs	r0, r0, #1
 174:../libs/PoliTeKDSP/libs/libDaisy/src/hid/disp/display.h ****     }
 3171              		.loc 10 174 34 view .LVU703
 3172 03e0 D8F80030 		ldr	r3, [r8]
 173:../libs/PoliTeKDSP/libs/libDaisy/src/hid/disp/display.h ****         currentY_ = (y >= Height()) ? Height() - 1 : y;
 3173              		.loc 10 173 19 view .LVU704
 3174 03e4 87B2     		uxth	r7, r0
 3175 03e6 5FE6     		b	.L139
 3176              	.L204:
 3177              		.align	2
 3178              	.L203:
 3179 03e8 00000000 		.word	_ZNK5daisy11OledDisplayINS_13SSD130xDriverILj128ELj64ENS_19SSD130xI2CTransportEEEE5WidthEv
 3180 03ec 00000000 		.word	_ZNK5daisy11OledDisplayINS_13SSD130xDriverILj128ELj64ENS_19SSD130xI2CTransportEEEE6HeightEv
 3181              	.LBE1146:
 3182              	.LBE1221:
 3183              		.cfi_endproc
 3184              	.LFE5626:
 3186              		.section	.text._ZN5daisy11OledDisplayINS_13SSD130xDriverILj128ELj64ENS_19SSD130xI2CTransportEEEE9D
 3187              		.align	1
 3188              		.p2align 2,,3
 3189              		.weak	_ZN5daisy11OledDisplayINS_13SSD130xDriverILj128ELj64ENS_19SSD130xI2CTransportEEEE9DrawPixelE
 3190              		.syntax unified
 3191              		.thumb
 3192              		.thumb_func
 3193              		.fpu fpv5-d16
 3195              	_ZN5daisy11OledDisplayINS_13SSD130xDriverILj128ELj64ENS_19SSD130xI2CTransportEEEE9DrawPixelEjjb:
 3196              	.LVL217:
 3197              	.LFB5620:
  42:../libs/PoliTeKDSP/libs/libDaisy/src/hid/disp/oled_display.h ****     {
 3198              		.loc 9 42 10 is_stmt 1 view -0
 3199              		.cfi_startproc
 3200              		@ args = 0, pretend = 0, frame = 0
 3201              		@ frame_needed = 0, uses_anonymous_args = 0
 3202              		@ link register save eliminated.
 3203              	.LBB1226:
 3204              	.LBI1226:
 340:Display/../../libs/PoliTeKDSP/libs/libDaisy/src/dev/oled_ssd130x.h ****     {
 3205              		.loc 11 340 10 view .LVU706
 3206              	.LBB1227:
 342:Display/../../libs/PoliTeKDSP/libs/libDaisy/src/dev/oled_ssd130x.h ****             return;
 3207              		.loc 11 342 9 is_stmt 0 view .LVU707
ARM GAS  C:\Users\matte\AppData\Local\Temp\ccj2OJiD.s 			page 96


 3208 0000 7F29     		cmp	r1, #127
 3209 0002 1ED8     		bhi	.L205
 3210 0004 3F2A     		cmp	r2, #63
 3211 0006 1CD8     		bhi	.L205
 344:Display/../../libs/PoliTeKDSP/libs/libDaisy/src/dev/oled_ssd130x.h ****             buffer_[x + (y / 8) * width] |= (1 << (y % 8));
 3212              		.loc 11 344 9 view .LVU708
 3213 0008 6BB1     		cbz	r3, .L207
 345:Display/../../libs/PoliTeKDSP/libs/libDaisy/src/dev/oled_ssd130x.h ****         else
 3214              		.loc 11 345 28 view .LVU709
 3215 000a D308     		lsrs	r3, r2, #3
 3216              	.LVL218:
 345:Display/../../libs/PoliTeKDSP/libs/libDaisy/src/dev/oled_ssd130x.h ****         else
 3217              		.loc 11 345 48 view .LVU710
 3218 000c 4FF0010C 		mov	ip, #1
 345:Display/../../libs/PoliTeKDSP/libs/libDaisy/src/dev/oled_ssd130x.h ****         else
 3219              		.loc 11 345 54 view .LVU711
 3220 0010 02F00702 		and	r2, r2, #7
 3221              	.LVL219:
 345:Display/../../libs/PoliTeKDSP/libs/libDaisy/src/dev/oled_ssd130x.h ****         else
 3222              		.loc 11 345 42 view .LVU712
 3223 0014 01EBC313 		add	r3, r1, r3, lsl #7
 345:Display/../../libs/PoliTeKDSP/libs/libDaisy/src/dev/oled_ssd130x.h ****         else
 3224              		.loc 11 345 48 view .LVU713
 3225 0018 0CFA02F2 		lsl	r2, ip, r2
 345:Display/../../libs/PoliTeKDSP/libs/libDaisy/src/dev/oled_ssd130x.h ****         else
 3226              		.loc 11 345 42 view .LVU714
 3227 001c C118     		adds	r1, r0, r3
 3228              	.LVL220:
 345:Display/../../libs/PoliTeKDSP/libs/libDaisy/src/dev/oled_ssd130x.h ****         else
 3229              		.loc 11 345 42 view .LVU715
 3230 001e 0B7C     		ldrb	r3, [r1, #16]	@ zero_extendqisi2
 3231 0020 1A43     		orrs	r2, r2, r3
 3232 0022 0A74     		strb	r2, [r1, #16]
 3233 0024 7047     		bx	lr
 3234              	.LVL221:
 3235              	.L207:
 3236              	.LBB1228:
 3237              	.LBI1228:
 340:Display/../../libs/PoliTeKDSP/libs/libDaisy/src/dev/oled_ssd130x.h ****     {
 3238              		.loc 11 340 10 is_stmt 1 view .LVU716
 3239              	.LBB1229:
 347:Display/../../libs/PoliTeKDSP/libs/libDaisy/src/dev/oled_ssd130x.h ****     }
 3240              		.loc 11 347 28 is_stmt 0 view .LVU717
 3241 0026 D308     		lsrs	r3, r2, #3
 3242              	.LVL222:
 347:Display/../../libs/PoliTeKDSP/libs/libDaisy/src/dev/oled_ssd130x.h ****     }
 3243              		.loc 11 347 49 view .LVU718
 3244 0028 4FF0010C 		mov	ip, #1
 347:Display/../../libs/PoliTeKDSP/libs/libDaisy/src/dev/oled_ssd130x.h ****     }
 3245              		.loc 11 347 55 view .LVU719
 3246 002c 02F00702 		and	r2, r2, #7
 3247              	.LVL223:
 347:Display/../../libs/PoliTeKDSP/libs/libDaisy/src/dev/oled_ssd130x.h ****     }
 3248              		.loc 11 347 42 view .LVU720
 3249 0030 01EBC313 		add	r3, r1, r3, lsl #7
 347:Display/../../libs/PoliTeKDSP/libs/libDaisy/src/dev/oled_ssd130x.h ****     }
 3250              		.loc 11 347 49 view .LVU721
ARM GAS  C:\Users\matte\AppData\Local\Temp\ccj2OJiD.s 			page 97


 3251 0034 0CFA02FC 		lsl	ip, ip, r2
 347:Display/../../libs/PoliTeKDSP/libs/libDaisy/src/dev/oled_ssd130x.h ****     }
 3252              		.loc 11 347 42 view .LVU722
 3253 0038 C118     		adds	r1, r0, r3
 3254              	.LVL224:
 347:Display/../../libs/PoliTeKDSP/libs/libDaisy/src/dev/oled_ssd130x.h ****     }
 3255              		.loc 11 347 42 view .LVU723
 3256 003a 0A7C     		ldrb	r2, [r1, #16]	@ zero_extendqisi2
 3257 003c 22EA0C02 		bic	r2, r2, ip
 3258 0040 0A74     		strb	r2, [r1, #16]
 3259              	.LVL225:
 3260              	.L205:
 347:Display/../../libs/PoliTeKDSP/libs/libDaisy/src/dev/oled_ssd130x.h ****     }
 3261              		.loc 11 347 42 view .LVU724
 3262              	.LBE1229:
 3263              	.LBE1228:
 3264              	.LBE1227:
 3265              	.LBE1226:
  45:../libs/PoliTeKDSP/libs/libDaisy/src/hid/disp/oled_display.h **** 
 3266              		.loc 9 45 5 view .LVU725
 3267 0042 7047     		bx	lr
 3268              		.cfi_endproc
 3269              	.LFE5620:
 3271              		.section	.text._ZN5daisy25OneBitGraphicsDisplayImplINS_11OledDisplayINS_13SSD130xDriverILj128ELj64
 3272              		.align	1
 3273              		.p2align 2,,3
 3274              		.weak	_ZN5daisy25OneBitGraphicsDisplayImplINS_11OledDisplayINS_13SSD130xDriverILj128ELj64ENS_19SSD
 3275              		.syntax unified
 3276              		.thumb
 3277              		.thumb_func
 3278              		.fpu fpv5-d16
 3280              	_ZN5daisy25OneBitGraphicsDisplayImplINS_11OledDisplayINS_13SSD130xDriverILj128ELj64ENS_19SSD130xI2C
 3281              	.LVL226:
 3282              	.LFB5621:
 221:../libs/PoliTeKDSP/libs/libDaisy/src/hid/disp/display.h ****                   uint_fast8_t y1,
 3283              		.loc 10 221 10 is_stmt 1 view -0
 3284              		.cfi_startproc
 3285              		@ args = 8, pretend = 0, frame = 8
 3286              		@ frame_needed = 0, uses_anonymous_args = 0
 221:../libs/PoliTeKDSP/libs/libDaisy/src/hid/disp/display.h ****                   uint_fast8_t y1,
 3287              		.loc 10 221 10 is_stmt 0 view .LVU727
 3288 0000 2DE9F04F 		push	{r4, r5, r6, r7, r8, r9, r10, fp, lr}
 3289              		.cfi_def_cfa_offset 36
 3290              		.cfi_offset 4, -36
 3291              		.cfi_offset 5, -32
 3292              		.cfi_offset 6, -28
 3293              		.cfi_offset 7, -24
 3294              		.cfi_offset 8, -20
 3295              		.cfi_offset 9, -16
 3296              		.cfi_offset 10, -12
 3297              		.cfi_offset 11, -8
 3298              		.cfi_offset 14, -4
 3299 0004 83B0     		sub	sp, sp, #12
 3300              		.cfi_def_cfa_offset 48
 227:../libs/PoliTeKDSP/libs/libDaisy/src/hid/disp/display.h ****         int_fast16_t deltaY = abs((int_fast16_t)y2 - (int_fast16_t)y1);
 3301              		.loc 10 227 52 view .LVU728
 3302 0006 5C1A     		subs	r4, r3, r1
ARM GAS  C:\Users\matte\AppData\Local\Temp\ccj2OJiD.s 			page 98


 221:../libs/PoliTeKDSP/libs/libDaisy/src/hid/disp/display.h ****                   uint_fast8_t y1,
 3303              		.loc 10 221 10 view .LVU729
 3304 0008 0C9E     		ldr	r6, [sp, #48]
 227:../libs/PoliTeKDSP/libs/libDaisy/src/hid/disp/display.h ****         int_fast16_t deltaY = abs((int_fast16_t)y2 - (int_fast16_t)y1);
 3305              		.loc 10 227 22 view .LVU730
 3306 000a 002C     		cmp	r4, #0
 221:../libs/PoliTeKDSP/libs/libDaisy/src/hid/disp/display.h ****                   uint_fast8_t y1,
 3307              		.loc 10 221 10 view .LVU731
 3308 000c 9DF83490 		ldrb	r9, [sp, #52]	@ zero_extendqisi2
 228:../libs/PoliTeKDSP/libs/libDaisy/src/hid/disp/display.h ****         int_fast16_t signX  = ((x1 < x2) ? 1 : -1);
 3309              		.loc 10 228 52 view .LVU732
 3310 0010 A6EB0208 		sub	r8, r6, r2
 227:../libs/PoliTeKDSP/libs/libDaisy/src/hid/disp/display.h ****         int_fast16_t deltaY = abs((int_fast16_t)y2 - (int_fast16_t)y1);
 3311              		.loc 10 227 22 view .LVU733
 3312 0014 B8BF     		it	lt
 3313 0016 6442     		rsblt	r4, r4, #0
 3314              	.LVL227:
 228:../libs/PoliTeKDSP/libs/libDaisy/src/hid/disp/display.h ****         int_fast16_t signX  = ((x1 < x2) ? 1 : -1);
 3315              		.loc 10 228 22 view .LVU734
 3316 0018 B8F1000F 		cmp	r8, #0
 3317 001c B8BF     		it	lt
 3318 001e C8F10008 		rsblt	r8, r8, #0
 3319              	.LVL228:
 229:../libs/PoliTeKDSP/libs/libDaisy/src/hid/disp/display.h ****         int_fast16_t signY  = ((y1 < y2) ? 1 : -1);
 3320              		.loc 10 229 42 view .LVU735
 3321 0022 8B42     		cmp	r3, r1
 3322 0024 8CBF     		ite	hi
 3323 0026 4FF0010A 		movhi	r10, #1
 3324 002a 4FF0FF3A 		movls	r10, #-1
 3325              	.LVL229:
 230:../libs/PoliTeKDSP/libs/libDaisy/src/hid/disp/display.h ****         int_fast16_t error  = deltaX - deltaY;
 3326              		.loc 10 230 42 view .LVU736
 3327 002e 9642     		cmp	r6, r2
 231:../libs/PoliTeKDSP/libs/libDaisy/src/hid/disp/display.h ****         int_fast16_t error2;
 3328              		.loc 10 231 22 view .LVU737
 3329 0030 A4EB080C 		sub	ip, r4, r8
 230:../libs/PoliTeKDSP/libs/libDaisy/src/hid/disp/display.h ****         int_fast16_t error  = deltaX - deltaY;
 3330              		.loc 10 230 42 view .LVU738
 3331 0034 51D8     		bhi	.L210
 3332              	.LVL230:
 3333              	.LBB1246:
 3334              	.LBI1246:
  42:../libs/PoliTeKDSP/libs/libDaisy/src/hid/disp/oled_display.h ****     {
 3335              		.loc 9 42 10 is_stmt 1 discriminator 4 view .LVU739
 3336              	.LBB1247:
 3337              	.LBI1247:
 340:Display/../../libs/PoliTeKDSP/libs/libDaisy/src/dev/oled_ssd130x.h ****     {
 3338              		.loc 11 340 10 discriminator 4 view .LVU740
 3339              	.LBE1247:
 3340              	.LBE1246:
 230:../libs/PoliTeKDSP/libs/libDaisy/src/hid/disp/display.h ****         int_fast16_t error  = deltaX - deltaY;
 3341              		.loc 10 230 42 is_stmt 0 discriminator 4 view .LVU741
 3342 0036 4FF0FF35 		mov	r5, #-1
 3343              	.LBB1263:
 3344              	.LBB1257:
 3345              	.LBB1248:
 342:Display/../../libs/PoliTeKDSP/libs/libDaisy/src/dev/oled_ssd130x.h ****             return;
ARM GAS  C:\Users\matte\AppData\Local\Temp\ccj2OJiD.s 			page 99


 3346              		.loc 11 342 9 discriminator 4 view .LVU742
 3347 003a 7F2B     		cmp	r3, #127
 3348              	.LBE1248:
 3349              	.LBE1257:
 3350              	.LBE1263:
 230:../libs/PoliTeKDSP/libs/libDaisy/src/hid/disp/display.h ****         int_fast16_t error  = deltaX - deltaY;
 3351              		.loc 10 230 42 discriminator 4 view .LVU743
 3352 003c 0195     		str	r5, [sp, #4]
 3353              	.LBB1264:
 3354              	.LBB1258:
 3355              	.LBB1253:
 342:Display/../../libs/PoliTeKDSP/libs/libDaisy/src/dev/oled_ssd130x.h ****             return;
 3356              		.loc 11 342 9 discriminator 4 view .LVU744
 3357 003e 12D8     		bhi	.L211
 3358 0040 3F2E     		cmp	r6, #63
 3359 0042 10D8     		bhi	.L211
 3360              	.LVL231:
 3361              	.L222:
 345:Display/../../libs/PoliTeKDSP/libs/libDaisy/src/dev/oled_ssd130x.h ****         else
 3362              		.loc 11 345 28 view .LVU745
 3363 0044 F508     		lsrs	r5, r6, #3
 345:Display/../../libs/PoliTeKDSP/libs/libDaisy/src/dev/oled_ssd130x.h ****         else
 3364              		.loc 11 345 54 view .LVU746
 3365 0046 06F0070E 		and	lr, r6, #7
 345:Display/../../libs/PoliTeKDSP/libs/libDaisy/src/dev/oled_ssd130x.h ****         else
 3366              		.loc 11 345 48 view .LVU747
 3367 004a 0127     		movs	r7, #1
 345:Display/../../libs/PoliTeKDSP/libs/libDaisy/src/dev/oled_ssd130x.h ****         else
 3368              		.loc 11 345 42 view .LVU748
 3369 004c 03EBC515 		add	r5, r3, r5, lsl #7
 3370 0050 0544     		add	r5, r5, r0
 344:Display/../../libs/PoliTeKDSP/libs/libDaisy/src/dev/oled_ssd130x.h ****             buffer_[x + (y / 8) * width] |= (1 << (y % 8));
 3371              		.loc 11 344 9 view .LVU749
 3372 0052 B9F1000F 		cmp	r9, #0
 3373 0056 47D0     		beq	.L212
 345:Display/../../libs/PoliTeKDSP/libs/libDaisy/src/dev/oled_ssd130x.h ****         else
 3374              		.loc 11 345 48 view .LVU750
 3375 0058 07FA0EF7 		lsl	r7, r7, lr
 345:Display/../../libs/PoliTeKDSP/libs/libDaisy/src/dev/oled_ssd130x.h ****         else
 3376              		.loc 11 345 42 view .LVU751
 3377 005c 95F810E0 		ldrb	lr, [r5, #16]	@ zero_extendqisi2
 3378 0060 47EA0E07 		orr	r7, r7, lr
 3379 0064 2F74     		strb	r7, [r5, #16]
 3380              	.LVL232:
 3381              	.L211:
 345:Display/../../libs/PoliTeKDSP/libs/libDaisy/src/dev/oled_ssd130x.h ****         else
 3382              		.loc 11 345 42 view .LVU752
 3383              	.LBE1253:
 3384              	.LBE1258:
 3385              	.LBE1264:
 239:../libs/PoliTeKDSP/libs/libDaisy/src/hid/disp/display.h ****         {
 3386              		.loc 10 239 26 is_stmt 1 view .LVU753
 3387 0066 9642     		cmp	r6, r2
 3388 0068 01D1     		bne	.L215
 3389              	.L234:
 239:../libs/PoliTeKDSP/libs/libDaisy/src/hid/disp/display.h ****         {
 3390              		.loc 10 239 26 is_stmt 0 view .LVU754
ARM GAS  C:\Users\matte\AppData\Local\Temp\ccj2OJiD.s 			page 100


 3391 006a 8B42     		cmp	r3, r1
 3392 006c 29D0     		beq	.L208
 3393              	.L215:
 3394              	.LVL233:
 243:../libs/PoliTeKDSP/libs/libDaisy/src/hid/disp/display.h ****             {
 3395              		.loc 10 243 23 view .LVU755
 3396 006e C8F10007 		rsb	r7, r8, #0
 3397              	.L217:
 3398              	.LVL234:
 3399              	.LBB1265:
 3400              	.LBI1265:
  42:../libs/PoliTeKDSP/libs/libDaisy/src/hid/disp/oled_display.h ****     {
 3401              		.loc 9 42 10 is_stmt 1 view .LVU756
 3402              	.LBB1266:
 3403              	.LBI1266:
 340:Display/../../libs/PoliTeKDSP/libs/libDaisy/src/dev/oled_ssd130x.h ****     {
 3404              		.loc 11 340 10 view .LVU757
 3405              	.LBB1267:
 342:Display/../../libs/PoliTeKDSP/libs/libDaisy/src/dev/oled_ssd130x.h ****             return;
 3406              		.loc 11 342 9 is_stmt 0 view .LVU758
 3407 0072 7F29     		cmp	r1, #127
 3408 0074 14D8     		bhi	.L218
 3409 0076 3F2A     		cmp	r2, #63
 3410 0078 12D8     		bhi	.L218
 345:Display/../../libs/PoliTeKDSP/libs/libDaisy/src/dev/oled_ssd130x.h ****         else
 3411              		.loc 11 345 28 view .LVU759
 3412 007a D508     		lsrs	r5, r2, #3
 345:Display/../../libs/PoliTeKDSP/libs/libDaisy/src/dev/oled_ssd130x.h ****         else
 3413              		.loc 11 345 54 view .LVU760
 3414 007c 02F0070B 		and	fp, r2, #7
 345:Display/../../libs/PoliTeKDSP/libs/libDaisy/src/dev/oled_ssd130x.h ****         else
 3415              		.loc 11 345 48 view .LVU761
 3416 0080 4FF0010E 		mov	lr, #1
 345:Display/../../libs/PoliTeKDSP/libs/libDaisy/src/dev/oled_ssd130x.h ****         else
 3417              		.loc 11 345 42 view .LVU762
 3418 0084 01EBC515 		add	r5, r1, r5, lsl #7
 3419 0088 0544     		add	r5, r5, r0
 344:Display/../../libs/PoliTeKDSP/libs/libDaisy/src/dev/oled_ssd130x.h ****             buffer_[x + (y / 8) * width] |= (1 << (y % 8));
 3420              		.loc 11 344 9 view .LVU763
 3421 008a B9F1000F 		cmp	r9, #0
 3422 008e 1BD0     		beq	.L219
 345:Display/../../libs/PoliTeKDSP/libs/libDaisy/src/dev/oled_ssd130x.h ****         else
 3423              		.loc 11 345 48 view .LVU764
 3424 0090 0EFA0BFE 		lsl	lr, lr, fp
 345:Display/../../libs/PoliTeKDSP/libs/libDaisy/src/dev/oled_ssd130x.h ****         else
 3425              		.loc 11 345 42 view .LVU765
 3426 0094 95F810B0 		ldrb	fp, [r5, #16]	@ zero_extendqisi2
 3427 0098 4EEA0B0E 		orr	lr, lr, fp
 3428 009c 85F810E0 		strb	lr, [r5, #16]
 3429              	.L218:
 3430              	.LVL235:
 345:Display/../../libs/PoliTeKDSP/libs/libDaisy/src/dev/oled_ssd130x.h ****         else
 3431              		.loc 11 345 42 view .LVU766
 3432              	.LBE1267:
 3433              	.LBE1266:
 3434              	.LBE1265:
 243:../libs/PoliTeKDSP/libs/libDaisy/src/hid/disp/display.h ****             {
ARM GAS  C:\Users\matte\AppData\Local\Temp\ccj2OJiD.s 			page 101


 3435              		.loc 10 243 13 view .LVU767
 3436 00a0 B7EB4C0F 		cmp	r7, ip, lsl #1
 242:../libs/PoliTeKDSP/libs/libDaisy/src/hid/disp/display.h ****             if(error2 > -deltaY)
 3437              		.loc 10 242 20 view .LVU768
 3438 00a4 4FEA4C05 		lsl	r5, ip, #1
 3439              	.LVL236:
 243:../libs/PoliTeKDSP/libs/libDaisy/src/hid/disp/display.h ****             {
 3440              		.loc 10 243 13 view .LVU769
 3441 00a8 02DA     		bge	.L220
 245:../libs/PoliTeKDSP/libs/libDaisy/src/hid/disp/display.h ****                 x1 += signX;
 3442              		.loc 10 245 23 view .LVU770
 3443 00aa ACEB080C 		sub	ip, ip, r8
 3444              	.LVL237:
 246:../libs/PoliTeKDSP/libs/libDaisy/src/hid/disp/display.h ****             }
 3445              		.loc 10 246 20 view .LVU771
 3446 00ae 5144     		add	r1, r1, r10
 3447              	.LVL238:
 3448              	.L220:
 249:../libs/PoliTeKDSP/libs/libDaisy/src/hid/disp/display.h ****             {
 3449              		.loc 10 249 13 view .LVU772
 3450 00b0 AC42     		cmp	r4, r5
 3451 00b2 02DD     		ble	.L221
 252:../libs/PoliTeKDSP/libs/libDaisy/src/hid/disp/display.h ****             }
 3452              		.loc 10 252 20 view .LVU773
 3453 00b4 019D     		ldr	r5, [sp, #4]
 3454              	.LVL239:
 251:../libs/PoliTeKDSP/libs/libDaisy/src/hid/disp/display.h ****                 y1 += signY;
 3455              		.loc 10 251 23 view .LVU774
 3456 00b6 A444     		add	ip, ip, r4
 3457              	.LVL240:
 252:../libs/PoliTeKDSP/libs/libDaisy/src/hid/disp/display.h ****             }
 3458              		.loc 10 252 20 view .LVU775
 3459 00b8 2A44     		add	r2, r2, r5
 3460              	.LVL241:
 3461              	.L221:
 239:../libs/PoliTeKDSP/libs/libDaisy/src/hid/disp/display.h ****         {
 3462              		.loc 10 239 26 is_stmt 1 view .LVU776
 3463 00ba 9942     		cmp	r1, r3
 3464 00bc D9D1     		bne	.L217
 239:../libs/PoliTeKDSP/libs/libDaisy/src/hid/disp/display.h ****         {
 3465              		.loc 10 239 26 is_stmt 0 view .LVU777
 3466 00be 9642     		cmp	r6, r2
 3467 00c0 D7D1     		bne	.L217
 3468              	.L208:
 255:../libs/PoliTeKDSP/libs/libDaisy/src/hid/disp/display.h **** 
 3469              		.loc 10 255 5 view .LVU778
 3470 00c2 03B0     		add	sp, sp, #12
 3471              		.cfi_remember_state
 3472              		.cfi_def_cfa_offset 36
 3473              		@ sp needed
 3474 00c4 BDE8F08F 		pop	{r4, r5, r6, r7, r8, r9, r10, fp, pc}
 3475              	.LVL242:
 3476              	.L219:
 3477              		.cfi_restore_state
 3478              	.LBB1272:
 3479              	.LBB1271:
 3480              	.LBB1270:
ARM GAS  C:\Users\matte\AppData\Local\Temp\ccj2OJiD.s 			page 102


 3481              	.LBB1268:
 3482              	.LBI1268:
 340:Display/../../libs/PoliTeKDSP/libs/libDaisy/src/dev/oled_ssd130x.h ****     {
 3483              		.loc 11 340 10 is_stmt 1 view .LVU779
 3484              	.LBB1269:
 347:Display/../../libs/PoliTeKDSP/libs/libDaisy/src/dev/oled_ssd130x.h ****     }
 3485              		.loc 11 347 49 is_stmt 0 view .LVU780
 3486 00c8 0EFA0BFB 		lsl	fp, lr, fp
 347:Display/../../libs/PoliTeKDSP/libs/libDaisy/src/dev/oled_ssd130x.h ****     }
 3487              		.loc 11 347 42 view .LVU781
 3488 00cc 95F810E0 		ldrb	lr, [r5, #16]	@ zero_extendqisi2
 3489 00d0 2EEA0B0E 		bic	lr, lr, fp
 3490 00d4 85F810E0 		strb	lr, [r5, #16]
 3491 00d8 E2E7     		b	.L218
 3492              	.LVL243:
 3493              	.L210:
 347:Display/../../libs/PoliTeKDSP/libs/libDaisy/src/dev/oled_ssd130x.h ****     }
 3494              		.loc 11 347 42 view .LVU782
 3495              	.LBE1269:
 3496              	.LBE1268:
 3497              	.LBE1270:
 3498              	.LBE1271:
 3499              	.LBE1272:
 3500              	.LBB1273:
  42:../libs/PoliTeKDSP/libs/libDaisy/src/hid/disp/oled_display.h ****     {
 3501              		.loc 9 42 10 is_stmt 1 view .LVU783
 3502              	.LBB1259:
 340:Display/../../libs/PoliTeKDSP/libs/libDaisy/src/dev/oled_ssd130x.h ****     {
 3503              		.loc 11 340 10 view .LVU784
 3504              	.LBE1259:
 3505              	.LBE1273:
 230:../libs/PoliTeKDSP/libs/libDaisy/src/hid/disp/display.h ****         int_fast16_t error  = deltaX - deltaY;
 3506              		.loc 10 230 42 is_stmt 0 view .LVU785
 3507 00da 0125     		movs	r5, #1
 3508              	.LBB1274:
 3509              	.LBB1260:
 3510              	.LBB1254:
 342:Display/../../libs/PoliTeKDSP/libs/libDaisy/src/dev/oled_ssd130x.h ****             return;
 3511              		.loc 11 342 9 view .LVU786
 3512 00dc 7F2B     		cmp	r3, #127
 3513              	.LBE1254:
 3514              	.LBE1260:
 3515              	.LBE1274:
 230:../libs/PoliTeKDSP/libs/libDaisy/src/hid/disp/display.h ****         int_fast16_t error  = deltaX - deltaY;
 3516              		.loc 10 230 42 view .LVU787
 3517 00de 0195     		str	r5, [sp, #4]
 3518              	.LBB1275:
 3519              	.LBB1261:
 3520              	.LBB1255:
 342:Display/../../libs/PoliTeKDSP/libs/libDaisy/src/dev/oled_ssd130x.h ****             return;
 3521              		.loc 11 342 9 view .LVU788
 3522 00e0 C5D8     		bhi	.L215
 3523 00e2 3F2E     		cmp	r6, #63
 3524 00e4 AED9     		bls	.L222
 3525 00e6 C2E7     		b	.L215
 3526              	.LVL244:
 3527              	.L212:
ARM GAS  C:\Users\matte\AppData\Local\Temp\ccj2OJiD.s 			page 103


 3528              	.LBB1249:
 3529              	.LBI1249:
 340:Display/../../libs/PoliTeKDSP/libs/libDaisy/src/dev/oled_ssd130x.h ****     {
 3530              		.loc 11 340 10 is_stmt 1 view .LVU789
 3531              	.LBB1250:
 347:Display/../../libs/PoliTeKDSP/libs/libDaisy/src/dev/oled_ssd130x.h ****     }
 3532              		.loc 11 347 49 is_stmt 0 view .LVU790
 3533 00e8 07FA0EFE 		lsl	lr, r7, lr
 347:Display/../../libs/PoliTeKDSP/libs/libDaisy/src/dev/oled_ssd130x.h ****     }
 3534              		.loc 11 347 42 view .LVU791
 3535 00ec 2F7C     		ldrb	r7, [r5, #16]	@ zero_extendqisi2
 3536              	.LBE1250:
 3537              	.LBE1249:
 3538              	.LBE1255:
 3539              	.LBE1261:
 3540              	.LBE1275:
 239:../libs/PoliTeKDSP/libs/libDaisy/src/hid/disp/display.h ****         {
 3541              		.loc 10 239 26 view .LVU792
 3542 00ee 9642     		cmp	r6, r2
 3543              	.LBB1276:
 3544              	.LBB1262:
 3545              	.LBB1256:
 3546              	.LBB1252:
 3547              	.LBB1251:
 347:Display/../../libs/PoliTeKDSP/libs/libDaisy/src/dev/oled_ssd130x.h ****     }
 3548              		.loc 11 347 42 view .LVU793
 3549 00f0 27EA0E07 		bic	r7, r7, lr
 3550 00f4 2F74     		strb	r7, [r5, #16]
 3551              	.LVL245:
 347:Display/../../libs/PoliTeKDSP/libs/libDaisy/src/dev/oled_ssd130x.h ****     }
 3552              		.loc 11 347 42 view .LVU794
 3553              	.LBE1251:
 3554              	.LBE1252:
 3555              	.LBE1256:
 3556              	.LBE1262:
 3557              	.LBE1276:
 239:../libs/PoliTeKDSP/libs/libDaisy/src/hid/disp/display.h ****         {
 3558              		.loc 10 239 26 is_stmt 1 view .LVU795
 3559 00f6 B8D0     		beq	.L234
 3560 00f8 B9E7     		b	.L215
 3561              		.cfi_endproc
 3562              	.LFE5621:
 3564 00fa 00BF     		.section	.text._ZN5daisy25OneBitGraphicsDisplayImplINS_11OledDisplayINS_13SSD130xDriverILj128ELj64
 3565              		.align	1
 3566              		.p2align 2,,3
 3567              		.weak	_ZN5daisy25OneBitGraphicsDisplayImplINS_11OledDisplayINS_13SSD130xDriverILj128ELj64ENS_19SSD
 3568              		.syntax unified
 3569              		.thumb
 3570              		.thumb_func
 3571              		.fpu fpv5-d16
 3573              	_ZN5daisy25OneBitGraphicsDisplayImplINS_11OledDisplayINS_13SSD130xDriverILj128ELj64ENS_19SSD130xI2C
 3574              	.LVL246:
 3575              	.LFB5623:
 283:../libs/PoliTeKDSP/libs/libDaisy/src/hid/disp/display.h ****                  uint_fast8_t y,
 3576              		.loc 10 283 10 view -0
 3577              		.cfi_startproc
 3578              		@ args = 12, pretend = 0, frame = 8
ARM GAS  C:\Users\matte\AppData\Local\Temp\ccj2OJiD.s 			page 104


 3579              		@ frame_needed = 0, uses_anonymous_args = 0
 283:../libs/PoliTeKDSP/libs/libDaisy/src/hid/disp/display.h ****                  uint_fast8_t y,
 3580              		.loc 10 283 10 is_stmt 0 view .LVU797
 3581 0000 2DE9F04F 		push	{r4, r5, r6, r7, r8, r9, r10, fp, lr}
 3582              		.cfi_def_cfa_offset 36
 3583              		.cfi_offset 4, -36
 3584              		.cfi_offset 5, -32
 3585              		.cfi_offset 6, -28
 3586              		.cfi_offset 7, -24
 3587              		.cfi_offset 8, -20
 3588              		.cfi_offset 9, -16
 3589              		.cfi_offset 10, -12
 3590              		.cfi_offset 11, -8
 3591              		.cfi_offset 14, -4
 3592 0004 2DED068B 		vpush.64	{d8, d9, d10}
 3593              		.cfi_def_cfa_offset 60
 3594              		.cfi_offset 80, -60
 3595              		.cfi_offset 81, -56
 3596              		.cfi_offset 82, -52
 3597              		.cfi_offset 83, -48
 3598              		.cfi_offset 84, -44
 3599              		.cfi_offset 85, -40
 3600 0008 83B0     		sub	sp, sp, #12
 3601              		.cfi_def_cfa_offset 72
 283:../libs/PoliTeKDSP/libs/libDaisy/src/hid/disp/display.h ****                  uint_fast8_t y,
 3602              		.loc 10 283 10 view .LVU798
 3603 000a 1F46     		mov	r7, r3
 3604 000c 8046     		mov	r8, r0
 3605 000e 0D46     		mov	r5, r1
 3606 0010 9DF85030 		ldrb	r3, [sp, #80]	@ zero_extendqisi2
 3607              	.LVL247:
 283:../libs/PoliTeKDSP/libs/libDaisy/src/hid/disp/display.h ****                  uint_fast8_t y,
 3608              		.loc 10 283 10 view .LVU799
 3609 0014 1646     		mov	r6, r2
 3610 0016 0193     		str	r3, [sp, #4]
 306:../libs/PoliTeKDSP/libs/libDaisy/src/hid/disp/display.h ****         {
 3611              		.loc 10 306 9 view .LVU800
 3612 0018 139B     		ldr	r3, [sp, #76]
 3613 001a 002B     		cmp	r3, #0
 3614 001c C0F22182 		blt	.L236
 313:../libs/PoliTeKDSP/libs/libDaisy/src/hid/disp/display.h **** 
 3615              		.loc 10 313 27 view .LVU801
 3616 0020 129A     		ldr	r2, [sp, #72]
 3617              	.LVL248:
 313:../libs/PoliTeKDSP/libs/libDaisy/src/hid/disp/display.h **** 
 3618              		.loc 10 313 27 view .LVU802
 3619 0022 1344     		add	r3, r3, r2
 3620 0024 06EE103A 		vmov	s12, r3	@ int
 3621              	.LVL249:
 3622              	.L237:
 312:../libs/PoliTeKDSP/libs/libDaisy/src/hid/disp/display.h ****         end_angle_rad   = deg2rad(start_angle + sweep);
 3623              		.loc 10 312 27 view .LVU803
 3624 0028 DDED127A 		vldr.32	s15, [sp, #72]	@ int
 313:../libs/PoliTeKDSP/libs/libDaisy/src/hid/disp/display.h **** 
 3625              		.loc 10 313 27 view .LVU804
 3626 002c B8EEC66B 		vcvt.f64.s32	d6, s12
 312:../libs/PoliTeKDSP/libs/libDaisy/src/hid/disp/display.h ****         end_angle_rad   = deg2rad(start_angle + sweep);
ARM GAS  C:\Users\matte\AppData\Local\Temp\ccj2OJiD.s 			page 105


 3627              		.loc 10 312 27 view .LVU805
 3628 0030 9FEDCD4B 		vldr.64	d4, .L312
 3629 0034 B8EEE77B 		vcvt.f64.s32	d7, s15
 3630 0038 9FEDCD5B 		vldr.64	d5, .L312+8
 3631 003c 27EE047B 		vmul.f64	d7, d7, d4
 313:../libs/PoliTeKDSP/libs/libDaisy/src/hid/disp/display.h **** 
 3632              		.loc 10 313 27 view .LVU806
 3633 0040 26EE046B 		vmul.f64	d6, d6, d4
 312:../libs/PoliTeKDSP/libs/libDaisy/src/hid/disp/display.h ****         end_angle_rad   = deg2rad(start_angle + sweep);
 3634              		.loc 10 312 27 view .LVU807
 3635 0044 87EE050B 		vdiv.f64	d0, d7, d5
 313:../libs/PoliTeKDSP/libs/libDaisy/src/hid/disp/display.h **** 
 3636              		.loc 10 313 27 view .LVU808
 3637 0048 86EE05AB 		vdiv.f64	d10, d6, d5
 312:../libs/PoliTeKDSP/libs/libDaisy/src/hid/disp/display.h ****         end_angle_rad   = deg2rad(start_angle + sweep);
 3638              		.loc 10 312 25 view .LVU809
 3639 004c F7EEC08B 		vcvt.f32.f64	s17, d0
 3640              	.LVL250:
 3641              	.LBB1309:
 3642              	.LBB1310:
 3643              		.file 14 "c:\\program files\\daisytoolchain\\arm-none-eabi\\include\\c++\\10.2.1\\cmath"
   1:c:\program files\daisytoolchain\arm-none-eabi\include\c++\10.2.1\cmath **** // -*- C++ -*- C forwarding header.
   2:c:\program files\daisytoolchain\arm-none-eabi\include\c++\10.2.1\cmath **** 
   3:c:\program files\daisytoolchain\arm-none-eabi\include\c++\10.2.1\cmath **** // Copyright (C) 1997-2020 Free Software Foundation, Inc.
   4:c:\program files\daisytoolchain\arm-none-eabi\include\c++\10.2.1\cmath **** //
   5:c:\program files\daisytoolchain\arm-none-eabi\include\c++\10.2.1\cmath **** // This file is part of the GNU ISO C++ Library.  This library is free
   6:c:\program files\daisytoolchain\arm-none-eabi\include\c++\10.2.1\cmath **** // software; you can redistribute it and/or modify it under the
   7:c:\program files\daisytoolchain\arm-none-eabi\include\c++\10.2.1\cmath **** // terms of the GNU General Public License as published by the
   8:c:\program files\daisytoolchain\arm-none-eabi\include\c++\10.2.1\cmath **** // Free Software Foundation; either version 3, or (at your option)
   9:c:\program files\daisytoolchain\arm-none-eabi\include\c++\10.2.1\cmath **** // any later version.
  10:c:\program files\daisytoolchain\arm-none-eabi\include\c++\10.2.1\cmath **** 
  11:c:\program files\daisytoolchain\arm-none-eabi\include\c++\10.2.1\cmath **** // This library is distributed in the hope that it will be useful,
  12:c:\program files\daisytoolchain\arm-none-eabi\include\c++\10.2.1\cmath **** // but WITHOUT ANY WARRANTY; without even the implied warranty of
  13:c:\program files\daisytoolchain\arm-none-eabi\include\c++\10.2.1\cmath **** // MERCHANTABILITY or FITNESS FOR A PARTICULAR PURPOSE.  See the
  14:c:\program files\daisytoolchain\arm-none-eabi\include\c++\10.2.1\cmath **** // GNU General Public License for more details.
  15:c:\program files\daisytoolchain\arm-none-eabi\include\c++\10.2.1\cmath **** 
  16:c:\program files\daisytoolchain\arm-none-eabi\include\c++\10.2.1\cmath **** // Under Section 7 of GPL version 3, you are granted additional
  17:c:\program files\daisytoolchain\arm-none-eabi\include\c++\10.2.1\cmath **** // permissions described in the GCC Runtime Library Exception, version
  18:c:\program files\daisytoolchain\arm-none-eabi\include\c++\10.2.1\cmath **** // 3.1, as published by the Free Software Foundation.
  19:c:\program files\daisytoolchain\arm-none-eabi\include\c++\10.2.1\cmath **** 
  20:c:\program files\daisytoolchain\arm-none-eabi\include\c++\10.2.1\cmath **** // You should have received a copy of the GNU General Public License and
  21:c:\program files\daisytoolchain\arm-none-eabi\include\c++\10.2.1\cmath **** // a copy of the GCC Runtime Library Exception along with this program;
  22:c:\program files\daisytoolchain\arm-none-eabi\include\c++\10.2.1\cmath **** // see the files COPYING3 and COPYING.RUNTIME respectively.  If not, see
  23:c:\program files\daisytoolchain\arm-none-eabi\include\c++\10.2.1\cmath **** // <http://www.gnu.org/licenses/>.
  24:c:\program files\daisytoolchain\arm-none-eabi\include\c++\10.2.1\cmath **** 
  25:c:\program files\daisytoolchain\arm-none-eabi\include\c++\10.2.1\cmath **** /** @file include/cmath
  26:c:\program files\daisytoolchain\arm-none-eabi\include\c++\10.2.1\cmath ****  *  This is a Standard C++ Library file.  You should @c \#include this file
  27:c:\program files\daisytoolchain\arm-none-eabi\include\c++\10.2.1\cmath ****  *  in your programs, rather than any of the @a *.h implementation files.
  28:c:\program files\daisytoolchain\arm-none-eabi\include\c++\10.2.1\cmath ****  *
  29:c:\program files\daisytoolchain\arm-none-eabi\include\c++\10.2.1\cmath ****  *  This is the C++ version of the Standard C Library header @c math.h,
  30:c:\program files\daisytoolchain\arm-none-eabi\include\c++\10.2.1\cmath ****  *  and its contents are (mostly) the same as that header, but are all
  31:c:\program files\daisytoolchain\arm-none-eabi\include\c++\10.2.1\cmath ****  *  contained in the namespace @c std (except for names which are defined
  32:c:\program files\daisytoolchain\arm-none-eabi\include\c++\10.2.1\cmath ****  *  as macros in C).
  33:c:\program files\daisytoolchain\arm-none-eabi\include\c++\10.2.1\cmath ****  */
  34:c:\program files\daisytoolchain\arm-none-eabi\include\c++\10.2.1\cmath **** 
  35:c:\program files\daisytoolchain\arm-none-eabi\include\c++\10.2.1\cmath **** //
  36:c:\program files\daisytoolchain\arm-none-eabi\include\c++\10.2.1\cmath **** // ISO C++ 14882: 26.5  C library
ARM GAS  C:\Users\matte\AppData\Local\Temp\ccj2OJiD.s 			page 106


  37:c:\program files\daisytoolchain\arm-none-eabi\include\c++\10.2.1\cmath **** //
  38:c:\program files\daisytoolchain\arm-none-eabi\include\c++\10.2.1\cmath **** 
  39:c:\program files\daisytoolchain\arm-none-eabi\include\c++\10.2.1\cmath **** #pragma GCC system_header
  40:c:\program files\daisytoolchain\arm-none-eabi\include\c++\10.2.1\cmath **** 
  41:c:\program files\daisytoolchain\arm-none-eabi\include\c++\10.2.1\cmath **** #include <bits/c++config.h>
  42:c:\program files\daisytoolchain\arm-none-eabi\include\c++\10.2.1\cmath **** #include <bits/cpp_type_traits.h>
  43:c:\program files\daisytoolchain\arm-none-eabi\include\c++\10.2.1\cmath **** #include <ext/type_traits.h>
  44:c:\program files\daisytoolchain\arm-none-eabi\include\c++\10.2.1\cmath **** #define _GLIBCXX_INCLUDE_NEXT_C_HEADERS
  45:c:\program files\daisytoolchain\arm-none-eabi\include\c++\10.2.1\cmath **** #include_next <math.h>
  46:c:\program files\daisytoolchain\arm-none-eabi\include\c++\10.2.1\cmath **** #undef _GLIBCXX_INCLUDE_NEXT_C_HEADERS
  47:c:\program files\daisytoolchain\arm-none-eabi\include\c++\10.2.1\cmath **** #include <bits/std_abs.h>
  48:c:\program files\daisytoolchain\arm-none-eabi\include\c++\10.2.1\cmath **** 
  49:c:\program files\daisytoolchain\arm-none-eabi\include\c++\10.2.1\cmath **** #ifndef _GLIBCXX_CMATH
  50:c:\program files\daisytoolchain\arm-none-eabi\include\c++\10.2.1\cmath **** #define _GLIBCXX_CMATH 1
  51:c:\program files\daisytoolchain\arm-none-eabi\include\c++\10.2.1\cmath **** 
  52:c:\program files\daisytoolchain\arm-none-eabi\include\c++\10.2.1\cmath **** // Get rid of those macros defined in <math.h> in lieu of real functions.
  53:c:\program files\daisytoolchain\arm-none-eabi\include\c++\10.2.1\cmath **** #undef div
  54:c:\program files\daisytoolchain\arm-none-eabi\include\c++\10.2.1\cmath **** #undef acos
  55:c:\program files\daisytoolchain\arm-none-eabi\include\c++\10.2.1\cmath **** #undef asin
  56:c:\program files\daisytoolchain\arm-none-eabi\include\c++\10.2.1\cmath **** #undef atan
  57:c:\program files\daisytoolchain\arm-none-eabi\include\c++\10.2.1\cmath **** #undef atan2
  58:c:\program files\daisytoolchain\arm-none-eabi\include\c++\10.2.1\cmath **** #undef ceil
  59:c:\program files\daisytoolchain\arm-none-eabi\include\c++\10.2.1\cmath **** #undef cos
  60:c:\program files\daisytoolchain\arm-none-eabi\include\c++\10.2.1\cmath **** #undef cosh
  61:c:\program files\daisytoolchain\arm-none-eabi\include\c++\10.2.1\cmath **** #undef exp
  62:c:\program files\daisytoolchain\arm-none-eabi\include\c++\10.2.1\cmath **** #undef fabs
  63:c:\program files\daisytoolchain\arm-none-eabi\include\c++\10.2.1\cmath **** #undef floor
  64:c:\program files\daisytoolchain\arm-none-eabi\include\c++\10.2.1\cmath **** #undef fmod
  65:c:\program files\daisytoolchain\arm-none-eabi\include\c++\10.2.1\cmath **** #undef frexp
  66:c:\program files\daisytoolchain\arm-none-eabi\include\c++\10.2.1\cmath **** #undef ldexp
  67:c:\program files\daisytoolchain\arm-none-eabi\include\c++\10.2.1\cmath **** #undef log
  68:c:\program files\daisytoolchain\arm-none-eabi\include\c++\10.2.1\cmath **** #undef log10
  69:c:\program files\daisytoolchain\arm-none-eabi\include\c++\10.2.1\cmath **** #undef modf
  70:c:\program files\daisytoolchain\arm-none-eabi\include\c++\10.2.1\cmath **** #undef pow
  71:c:\program files\daisytoolchain\arm-none-eabi\include\c++\10.2.1\cmath **** #undef sin
  72:c:\program files\daisytoolchain\arm-none-eabi\include\c++\10.2.1\cmath **** #undef sinh
  73:c:\program files\daisytoolchain\arm-none-eabi\include\c++\10.2.1\cmath **** #undef sqrt
  74:c:\program files\daisytoolchain\arm-none-eabi\include\c++\10.2.1\cmath **** #undef tan
  75:c:\program files\daisytoolchain\arm-none-eabi\include\c++\10.2.1\cmath **** #undef tanh
  76:c:\program files\daisytoolchain\arm-none-eabi\include\c++\10.2.1\cmath **** 
  77:c:\program files\daisytoolchain\arm-none-eabi\include\c++\10.2.1\cmath **** extern "C++"
  78:c:\program files\daisytoolchain\arm-none-eabi\include\c++\10.2.1\cmath **** {
  79:c:\program files\daisytoolchain\arm-none-eabi\include\c++\10.2.1\cmath **** namespace std _GLIBCXX_VISIBILITY(default)
  80:c:\program files\daisytoolchain\arm-none-eabi\include\c++\10.2.1\cmath **** {
  81:c:\program files\daisytoolchain\arm-none-eabi\include\c++\10.2.1\cmath **** _GLIBCXX_BEGIN_NAMESPACE_VERSION
  82:c:\program files\daisytoolchain\arm-none-eabi\include\c++\10.2.1\cmath **** 
  83:c:\program files\daisytoolchain\arm-none-eabi\include\c++\10.2.1\cmath ****   using ::acos;
  84:c:\program files\daisytoolchain\arm-none-eabi\include\c++\10.2.1\cmath **** 
  85:c:\program files\daisytoolchain\arm-none-eabi\include\c++\10.2.1\cmath **** #ifndef __CORRECT_ISO_CPP_MATH_H_PROTO
  86:c:\program files\daisytoolchain\arm-none-eabi\include\c++\10.2.1\cmath ****   inline _GLIBCXX_CONSTEXPR float
  87:c:\program files\daisytoolchain\arm-none-eabi\include\c++\10.2.1\cmath ****   acos(float __x)
  88:c:\program files\daisytoolchain\arm-none-eabi\include\c++\10.2.1\cmath ****   { return __builtin_acosf(__x); }
  89:c:\program files\daisytoolchain\arm-none-eabi\include\c++\10.2.1\cmath **** 
  90:c:\program files\daisytoolchain\arm-none-eabi\include\c++\10.2.1\cmath ****   inline _GLIBCXX_CONSTEXPR long double
  91:c:\program files\daisytoolchain\arm-none-eabi\include\c++\10.2.1\cmath ****   acos(long double __x)
  92:c:\program files\daisytoolchain\arm-none-eabi\include\c++\10.2.1\cmath ****   { return __builtin_acosl(__x); }
  93:c:\program files\daisytoolchain\arm-none-eabi\include\c++\10.2.1\cmath **** #endif
ARM GAS  C:\Users\matte\AppData\Local\Temp\ccj2OJiD.s 			page 107


  94:c:\program files\daisytoolchain\arm-none-eabi\include\c++\10.2.1\cmath **** 
  95:c:\program files\daisytoolchain\arm-none-eabi\include\c++\10.2.1\cmath ****   template<typename _Tp>
  96:c:\program files\daisytoolchain\arm-none-eabi\include\c++\10.2.1\cmath ****     inline _GLIBCXX_CONSTEXPR
  97:c:\program files\daisytoolchain\arm-none-eabi\include\c++\10.2.1\cmath ****     typename __gnu_cxx::__enable_if<__is_integer<_Tp>::__value, 
  98:c:\program files\daisytoolchain\arm-none-eabi\include\c++\10.2.1\cmath ****                                     double>::__type
  99:c:\program files\daisytoolchain\arm-none-eabi\include\c++\10.2.1\cmath ****     acos(_Tp __x)
 100:c:\program files\daisytoolchain\arm-none-eabi\include\c++\10.2.1\cmath ****     { return __builtin_acos(__x); }
 101:c:\program files\daisytoolchain\arm-none-eabi\include\c++\10.2.1\cmath **** 
 102:c:\program files\daisytoolchain\arm-none-eabi\include\c++\10.2.1\cmath ****   using ::asin;
 103:c:\program files\daisytoolchain\arm-none-eabi\include\c++\10.2.1\cmath **** 
 104:c:\program files\daisytoolchain\arm-none-eabi\include\c++\10.2.1\cmath **** #ifndef __CORRECT_ISO_CPP_MATH_H_PROTO
 105:c:\program files\daisytoolchain\arm-none-eabi\include\c++\10.2.1\cmath ****   inline _GLIBCXX_CONSTEXPR float
 106:c:\program files\daisytoolchain\arm-none-eabi\include\c++\10.2.1\cmath ****   asin(float __x)
 107:c:\program files\daisytoolchain\arm-none-eabi\include\c++\10.2.1\cmath ****   { return __builtin_asinf(__x); }
 108:c:\program files\daisytoolchain\arm-none-eabi\include\c++\10.2.1\cmath **** 
 109:c:\program files\daisytoolchain\arm-none-eabi\include\c++\10.2.1\cmath ****   inline _GLIBCXX_CONSTEXPR long double
 110:c:\program files\daisytoolchain\arm-none-eabi\include\c++\10.2.1\cmath ****   asin(long double __x)
 111:c:\program files\daisytoolchain\arm-none-eabi\include\c++\10.2.1\cmath ****   { return __builtin_asinl(__x); }
 112:c:\program files\daisytoolchain\arm-none-eabi\include\c++\10.2.1\cmath **** #endif
 113:c:\program files\daisytoolchain\arm-none-eabi\include\c++\10.2.1\cmath **** 
 114:c:\program files\daisytoolchain\arm-none-eabi\include\c++\10.2.1\cmath ****   template<typename _Tp>
 115:c:\program files\daisytoolchain\arm-none-eabi\include\c++\10.2.1\cmath ****     inline _GLIBCXX_CONSTEXPR
 116:c:\program files\daisytoolchain\arm-none-eabi\include\c++\10.2.1\cmath ****     typename __gnu_cxx::__enable_if<__is_integer<_Tp>::__value,
 117:c:\program files\daisytoolchain\arm-none-eabi\include\c++\10.2.1\cmath ****                                     double>::__type
 118:c:\program files\daisytoolchain\arm-none-eabi\include\c++\10.2.1\cmath ****     asin(_Tp __x)
 119:c:\program files\daisytoolchain\arm-none-eabi\include\c++\10.2.1\cmath ****     { return __builtin_asin(__x); }
 120:c:\program files\daisytoolchain\arm-none-eabi\include\c++\10.2.1\cmath **** 
 121:c:\program files\daisytoolchain\arm-none-eabi\include\c++\10.2.1\cmath ****   using ::atan;
 122:c:\program files\daisytoolchain\arm-none-eabi\include\c++\10.2.1\cmath **** 
 123:c:\program files\daisytoolchain\arm-none-eabi\include\c++\10.2.1\cmath **** #ifndef __CORRECT_ISO_CPP_MATH_H_PROTO
 124:c:\program files\daisytoolchain\arm-none-eabi\include\c++\10.2.1\cmath ****   inline _GLIBCXX_CONSTEXPR float
 125:c:\program files\daisytoolchain\arm-none-eabi\include\c++\10.2.1\cmath ****   atan(float __x)
 126:c:\program files\daisytoolchain\arm-none-eabi\include\c++\10.2.1\cmath ****   { return __builtin_atanf(__x); }
 127:c:\program files\daisytoolchain\arm-none-eabi\include\c++\10.2.1\cmath **** 
 128:c:\program files\daisytoolchain\arm-none-eabi\include\c++\10.2.1\cmath ****   inline _GLIBCXX_CONSTEXPR long double
 129:c:\program files\daisytoolchain\arm-none-eabi\include\c++\10.2.1\cmath ****   atan(long double __x)
 130:c:\program files\daisytoolchain\arm-none-eabi\include\c++\10.2.1\cmath ****   { return __builtin_atanl(__x); }
 131:c:\program files\daisytoolchain\arm-none-eabi\include\c++\10.2.1\cmath **** #endif
 132:c:\program files\daisytoolchain\arm-none-eabi\include\c++\10.2.1\cmath **** 
 133:c:\program files\daisytoolchain\arm-none-eabi\include\c++\10.2.1\cmath ****   template<typename _Tp>
 134:c:\program files\daisytoolchain\arm-none-eabi\include\c++\10.2.1\cmath ****     inline _GLIBCXX_CONSTEXPR
 135:c:\program files\daisytoolchain\arm-none-eabi\include\c++\10.2.1\cmath ****     typename __gnu_cxx::__enable_if<__is_integer<_Tp>::__value,
 136:c:\program files\daisytoolchain\arm-none-eabi\include\c++\10.2.1\cmath ****                                     double>::__type
 137:c:\program files\daisytoolchain\arm-none-eabi\include\c++\10.2.1\cmath ****     atan(_Tp __x)
 138:c:\program files\daisytoolchain\arm-none-eabi\include\c++\10.2.1\cmath ****     { return __builtin_atan(__x); }
 139:c:\program files\daisytoolchain\arm-none-eabi\include\c++\10.2.1\cmath **** 
 140:c:\program files\daisytoolchain\arm-none-eabi\include\c++\10.2.1\cmath ****   using ::atan2;
 141:c:\program files\daisytoolchain\arm-none-eabi\include\c++\10.2.1\cmath **** 
 142:c:\program files\daisytoolchain\arm-none-eabi\include\c++\10.2.1\cmath **** #ifndef __CORRECT_ISO_CPP_MATH_H_PROTO
 143:c:\program files\daisytoolchain\arm-none-eabi\include\c++\10.2.1\cmath ****   inline _GLIBCXX_CONSTEXPR float
 144:c:\program files\daisytoolchain\arm-none-eabi\include\c++\10.2.1\cmath ****   atan2(float __y, float __x)
 145:c:\program files\daisytoolchain\arm-none-eabi\include\c++\10.2.1\cmath ****   { return __builtin_atan2f(__y, __x); }
 146:c:\program files\daisytoolchain\arm-none-eabi\include\c++\10.2.1\cmath **** 
 147:c:\program files\daisytoolchain\arm-none-eabi\include\c++\10.2.1\cmath ****   inline _GLIBCXX_CONSTEXPR long double
 148:c:\program files\daisytoolchain\arm-none-eabi\include\c++\10.2.1\cmath ****   atan2(long double __y, long double __x)
 149:c:\program files\daisytoolchain\arm-none-eabi\include\c++\10.2.1\cmath ****   { return __builtin_atan2l(__y, __x); }
 150:c:\program files\daisytoolchain\arm-none-eabi\include\c++\10.2.1\cmath **** #endif
ARM GAS  C:\Users\matte\AppData\Local\Temp\ccj2OJiD.s 			page 108


 151:c:\program files\daisytoolchain\arm-none-eabi\include\c++\10.2.1\cmath **** 
 152:c:\program files\daisytoolchain\arm-none-eabi\include\c++\10.2.1\cmath ****   template<typename _Tp, typename _Up>
 153:c:\program files\daisytoolchain\arm-none-eabi\include\c++\10.2.1\cmath ****     inline _GLIBCXX_CONSTEXPR
 154:c:\program files\daisytoolchain\arm-none-eabi\include\c++\10.2.1\cmath ****     typename __gnu_cxx::__promote_2<_Tp, _Up>::__type
 155:c:\program files\daisytoolchain\arm-none-eabi\include\c++\10.2.1\cmath ****     atan2(_Tp __y, _Up __x)
 156:c:\program files\daisytoolchain\arm-none-eabi\include\c++\10.2.1\cmath ****     {
 157:c:\program files\daisytoolchain\arm-none-eabi\include\c++\10.2.1\cmath ****       typedef typename __gnu_cxx::__promote_2<_Tp, _Up>::__type __type;
 158:c:\program files\daisytoolchain\arm-none-eabi\include\c++\10.2.1\cmath ****       return atan2(__type(__y), __type(__x));
 159:c:\program files\daisytoolchain\arm-none-eabi\include\c++\10.2.1\cmath ****     }
 160:c:\program files\daisytoolchain\arm-none-eabi\include\c++\10.2.1\cmath **** 
 161:c:\program files\daisytoolchain\arm-none-eabi\include\c++\10.2.1\cmath ****   using ::ceil;
 162:c:\program files\daisytoolchain\arm-none-eabi\include\c++\10.2.1\cmath **** 
 163:c:\program files\daisytoolchain\arm-none-eabi\include\c++\10.2.1\cmath **** #ifndef __CORRECT_ISO_CPP_MATH_H_PROTO
 164:c:\program files\daisytoolchain\arm-none-eabi\include\c++\10.2.1\cmath ****   inline _GLIBCXX_CONSTEXPR float
 165:c:\program files\daisytoolchain\arm-none-eabi\include\c++\10.2.1\cmath ****   ceil(float __x)
 166:c:\program files\daisytoolchain\arm-none-eabi\include\c++\10.2.1\cmath ****   { return __builtin_ceilf(__x); }
 167:c:\program files\daisytoolchain\arm-none-eabi\include\c++\10.2.1\cmath **** 
 168:c:\program files\daisytoolchain\arm-none-eabi\include\c++\10.2.1\cmath ****   inline _GLIBCXX_CONSTEXPR long double
 169:c:\program files\daisytoolchain\arm-none-eabi\include\c++\10.2.1\cmath ****   ceil(long double __x)
 170:c:\program files\daisytoolchain\arm-none-eabi\include\c++\10.2.1\cmath ****   { return __builtin_ceill(__x); }
 171:c:\program files\daisytoolchain\arm-none-eabi\include\c++\10.2.1\cmath **** #endif
 172:c:\program files\daisytoolchain\arm-none-eabi\include\c++\10.2.1\cmath **** 
 173:c:\program files\daisytoolchain\arm-none-eabi\include\c++\10.2.1\cmath ****   template<typename _Tp>
 174:c:\program files\daisytoolchain\arm-none-eabi\include\c++\10.2.1\cmath ****     inline _GLIBCXX_CONSTEXPR
 175:c:\program files\daisytoolchain\arm-none-eabi\include\c++\10.2.1\cmath ****     typename __gnu_cxx::__enable_if<__is_integer<_Tp>::__value, 
 176:c:\program files\daisytoolchain\arm-none-eabi\include\c++\10.2.1\cmath ****                                     double>::__type
 177:c:\program files\daisytoolchain\arm-none-eabi\include\c++\10.2.1\cmath ****     ceil(_Tp __x)
 178:c:\program files\daisytoolchain\arm-none-eabi\include\c++\10.2.1\cmath ****     { return __builtin_ceil(__x); }
 179:c:\program files\daisytoolchain\arm-none-eabi\include\c++\10.2.1\cmath **** 
 180:c:\program files\daisytoolchain\arm-none-eabi\include\c++\10.2.1\cmath ****   using ::cos;
 181:c:\program files\daisytoolchain\arm-none-eabi\include\c++\10.2.1\cmath **** 
 182:c:\program files\daisytoolchain\arm-none-eabi\include\c++\10.2.1\cmath **** #ifndef __CORRECT_ISO_CPP_MATH_H_PROTO
 183:c:\program files\daisytoolchain\arm-none-eabi\include\c++\10.2.1\cmath ****   inline _GLIBCXX_CONSTEXPR float
 184:c:\program files\daisytoolchain\arm-none-eabi\include\c++\10.2.1\cmath ****   cos(float __x)
 185:c:\program files\daisytoolchain\arm-none-eabi\include\c++\10.2.1\cmath ****   { return __builtin_cosf(__x); }
 3644              		.loc 14 185 26 view .LVU810
 3645 0050 B0EE680A 		vmov.f32	s0, s17
 3646 0054 FFF7FEFF 		bl	cosf
 3647              	.LVL251:
 3648              		.loc 14 185 26 view .LVU811
 3649              	.LBE1310:
 3650              	.LBE1309:
 315:../libs/PoliTeKDSP/libs/libDaisy/src/hid/disp/display.h ****         start_y = -sin(start_angle_rad) * radius;
 3651              		.loc 10 315 17 view .LVU812
 3652 0058 07EE907A 		vmov	s15, r7	@ int
 313:../libs/PoliTeKDSP/libs/libDaisy/src/hid/disp/display.h **** 
 3653              		.loc 10 313 25 view .LVU813
 3654 005c B7EECAAB 		vcvt.f32.f64	s20, d10
 3655              	.LVL252:
 3656              	.LBB1313:
 3657              	.LBI1309:
 184:c:\program files\daisytoolchain\arm-none-eabi\include\c++\10.2.1\cmath ****   { return __builtin_cosf(__x); }
 3658              		.loc 14 184 3 is_stmt 1 view .LVU814
 3659              	.LBB1311:
 3660              		.loc 14 185 5 view .LVU815
 3661              		.loc 14 185 5 is_stmt 0 view .LVU816
 3662              	.LBE1311:
ARM GAS  C:\Users\matte\AppData\Local\Temp\ccj2OJiD.s 			page 109


 3663              	.LBE1313:
 315:../libs/PoliTeKDSP/libs/libDaisy/src/hid/disp/display.h ****         start_y = -sin(start_angle_rad) * radius;
 3664              		.loc 10 315 17 view .LVU817
 3665 0060 F8EE679A 		vcvt.f32.u32	s19, s15
 3666              	.LBB1314:
 3667              	.LBB1312:
 3668              		.loc 14 185 26 view .LVU818
 3669 0064 B0EE408A 		vmov.f32	s16, s0
 3670              	.LBE1312:
 3671              	.LBE1314:
 3672              	.LBB1315:
 3673              	.LBB1316:
 186:c:\program files\daisytoolchain\arm-none-eabi\include\c++\10.2.1\cmath **** 
 187:c:\program files\daisytoolchain\arm-none-eabi\include\c++\10.2.1\cmath ****   inline _GLIBCXX_CONSTEXPR long double
 188:c:\program files\daisytoolchain\arm-none-eabi\include\c++\10.2.1\cmath ****   cos(long double __x)
 189:c:\program files\daisytoolchain\arm-none-eabi\include\c++\10.2.1\cmath ****   { return __builtin_cosl(__x); }
 190:c:\program files\daisytoolchain\arm-none-eabi\include\c++\10.2.1\cmath **** #endif
 191:c:\program files\daisytoolchain\arm-none-eabi\include\c++\10.2.1\cmath **** 
 192:c:\program files\daisytoolchain\arm-none-eabi\include\c++\10.2.1\cmath ****   template<typename _Tp>
 193:c:\program files\daisytoolchain\arm-none-eabi\include\c++\10.2.1\cmath ****     inline _GLIBCXX_CONSTEXPR
 194:c:\program files\daisytoolchain\arm-none-eabi\include\c++\10.2.1\cmath ****     typename __gnu_cxx::__enable_if<__is_integer<_Tp>::__value,
 195:c:\program files\daisytoolchain\arm-none-eabi\include\c++\10.2.1\cmath ****                                     double>::__type
 196:c:\program files\daisytoolchain\arm-none-eabi\include\c++\10.2.1\cmath ****     cos(_Tp __x)
 197:c:\program files\daisytoolchain\arm-none-eabi\include\c++\10.2.1\cmath ****     { return __builtin_cos(__x); }
 198:c:\program files\daisytoolchain\arm-none-eabi\include\c++\10.2.1\cmath **** 
 199:c:\program files\daisytoolchain\arm-none-eabi\include\c++\10.2.1\cmath ****   using ::cosh;
 200:c:\program files\daisytoolchain\arm-none-eabi\include\c++\10.2.1\cmath **** 
 201:c:\program files\daisytoolchain\arm-none-eabi\include\c++\10.2.1\cmath **** #ifndef __CORRECT_ISO_CPP_MATH_H_PROTO
 202:c:\program files\daisytoolchain\arm-none-eabi\include\c++\10.2.1\cmath ****   inline _GLIBCXX_CONSTEXPR float
 203:c:\program files\daisytoolchain\arm-none-eabi\include\c++\10.2.1\cmath ****   cosh(float __x)
 204:c:\program files\daisytoolchain\arm-none-eabi\include\c++\10.2.1\cmath ****   { return __builtin_coshf(__x); }
 205:c:\program files\daisytoolchain\arm-none-eabi\include\c++\10.2.1\cmath **** 
 206:c:\program files\daisytoolchain\arm-none-eabi\include\c++\10.2.1\cmath ****   inline _GLIBCXX_CONSTEXPR long double
 207:c:\program files\daisytoolchain\arm-none-eabi\include\c++\10.2.1\cmath ****   cosh(long double __x)
 208:c:\program files\daisytoolchain\arm-none-eabi\include\c++\10.2.1\cmath ****   { return __builtin_coshl(__x); }
 209:c:\program files\daisytoolchain\arm-none-eabi\include\c++\10.2.1\cmath **** #endif
 210:c:\program files\daisytoolchain\arm-none-eabi\include\c++\10.2.1\cmath **** 
 211:c:\program files\daisytoolchain\arm-none-eabi\include\c++\10.2.1\cmath ****   template<typename _Tp>
 212:c:\program files\daisytoolchain\arm-none-eabi\include\c++\10.2.1\cmath ****     inline _GLIBCXX_CONSTEXPR
 213:c:\program files\daisytoolchain\arm-none-eabi\include\c++\10.2.1\cmath ****     typename __gnu_cxx::__enable_if<__is_integer<_Tp>::__value,
 214:c:\program files\daisytoolchain\arm-none-eabi\include\c++\10.2.1\cmath ****                                     double>::__type
 215:c:\program files\daisytoolchain\arm-none-eabi\include\c++\10.2.1\cmath ****     cosh(_Tp __x)
 216:c:\program files\daisytoolchain\arm-none-eabi\include\c++\10.2.1\cmath ****     { return __builtin_cosh(__x); }
 217:c:\program files\daisytoolchain\arm-none-eabi\include\c++\10.2.1\cmath **** 
 218:c:\program files\daisytoolchain\arm-none-eabi\include\c++\10.2.1\cmath ****   using ::exp;
 219:c:\program files\daisytoolchain\arm-none-eabi\include\c++\10.2.1\cmath **** 
 220:c:\program files\daisytoolchain\arm-none-eabi\include\c++\10.2.1\cmath **** #ifndef __CORRECT_ISO_CPP_MATH_H_PROTO
 221:c:\program files\daisytoolchain\arm-none-eabi\include\c++\10.2.1\cmath ****   inline _GLIBCXX_CONSTEXPR float
 222:c:\program files\daisytoolchain\arm-none-eabi\include\c++\10.2.1\cmath ****   exp(float __x)
 223:c:\program files\daisytoolchain\arm-none-eabi\include\c++\10.2.1\cmath ****   { return __builtin_expf(__x); }
 224:c:\program files\daisytoolchain\arm-none-eabi\include\c++\10.2.1\cmath **** 
 225:c:\program files\daisytoolchain\arm-none-eabi\include\c++\10.2.1\cmath ****   inline _GLIBCXX_CONSTEXPR long double
 226:c:\program files\daisytoolchain\arm-none-eabi\include\c++\10.2.1\cmath ****   exp(long double __x)
 227:c:\program files\daisytoolchain\arm-none-eabi\include\c++\10.2.1\cmath ****   { return __builtin_expl(__x); }
 228:c:\program files\daisytoolchain\arm-none-eabi\include\c++\10.2.1\cmath **** #endif
 229:c:\program files\daisytoolchain\arm-none-eabi\include\c++\10.2.1\cmath **** 
 230:c:\program files\daisytoolchain\arm-none-eabi\include\c++\10.2.1\cmath ****   template<typename _Tp>
ARM GAS  C:\Users\matte\AppData\Local\Temp\ccj2OJiD.s 			page 110


 231:c:\program files\daisytoolchain\arm-none-eabi\include\c++\10.2.1\cmath ****     inline _GLIBCXX_CONSTEXPR
 232:c:\program files\daisytoolchain\arm-none-eabi\include\c++\10.2.1\cmath ****     typename __gnu_cxx::__enable_if<__is_integer<_Tp>::__value,
 233:c:\program files\daisytoolchain\arm-none-eabi\include\c++\10.2.1\cmath ****                                     double>::__type
 234:c:\program files\daisytoolchain\arm-none-eabi\include\c++\10.2.1\cmath ****     exp(_Tp __x)
 235:c:\program files\daisytoolchain\arm-none-eabi\include\c++\10.2.1\cmath ****     { return __builtin_exp(__x); }
 236:c:\program files\daisytoolchain\arm-none-eabi\include\c++\10.2.1\cmath **** 
 237:c:\program files\daisytoolchain\arm-none-eabi\include\c++\10.2.1\cmath ****   using ::fabs;
 238:c:\program files\daisytoolchain\arm-none-eabi\include\c++\10.2.1\cmath **** 
 239:c:\program files\daisytoolchain\arm-none-eabi\include\c++\10.2.1\cmath **** #ifndef __CORRECT_ISO_CPP_MATH_H_PROTO
 240:c:\program files\daisytoolchain\arm-none-eabi\include\c++\10.2.1\cmath ****   inline _GLIBCXX_CONSTEXPR float
 241:c:\program files\daisytoolchain\arm-none-eabi\include\c++\10.2.1\cmath ****   fabs(float __x)
 242:c:\program files\daisytoolchain\arm-none-eabi\include\c++\10.2.1\cmath ****   { return __builtin_fabsf(__x); }
 243:c:\program files\daisytoolchain\arm-none-eabi\include\c++\10.2.1\cmath **** 
 244:c:\program files\daisytoolchain\arm-none-eabi\include\c++\10.2.1\cmath ****   inline _GLIBCXX_CONSTEXPR long double
 245:c:\program files\daisytoolchain\arm-none-eabi\include\c++\10.2.1\cmath ****   fabs(long double __x)
 246:c:\program files\daisytoolchain\arm-none-eabi\include\c++\10.2.1\cmath ****   { return __builtin_fabsl(__x); }
 247:c:\program files\daisytoolchain\arm-none-eabi\include\c++\10.2.1\cmath **** #endif
 248:c:\program files\daisytoolchain\arm-none-eabi\include\c++\10.2.1\cmath **** 
 249:c:\program files\daisytoolchain\arm-none-eabi\include\c++\10.2.1\cmath ****   template<typename _Tp>
 250:c:\program files\daisytoolchain\arm-none-eabi\include\c++\10.2.1\cmath ****     inline _GLIBCXX_CONSTEXPR
 251:c:\program files\daisytoolchain\arm-none-eabi\include\c++\10.2.1\cmath ****     typename __gnu_cxx::__enable_if<__is_integer<_Tp>::__value,
 252:c:\program files\daisytoolchain\arm-none-eabi\include\c++\10.2.1\cmath ****                                     double>::__type
 253:c:\program files\daisytoolchain\arm-none-eabi\include\c++\10.2.1\cmath ****     fabs(_Tp __x)
 254:c:\program files\daisytoolchain\arm-none-eabi\include\c++\10.2.1\cmath ****     { return __builtin_fabs(__x); }
 255:c:\program files\daisytoolchain\arm-none-eabi\include\c++\10.2.1\cmath **** 
 256:c:\program files\daisytoolchain\arm-none-eabi\include\c++\10.2.1\cmath ****   using ::floor;
 257:c:\program files\daisytoolchain\arm-none-eabi\include\c++\10.2.1\cmath **** 
 258:c:\program files\daisytoolchain\arm-none-eabi\include\c++\10.2.1\cmath **** #ifndef __CORRECT_ISO_CPP_MATH_H_PROTO
 259:c:\program files\daisytoolchain\arm-none-eabi\include\c++\10.2.1\cmath ****   inline _GLIBCXX_CONSTEXPR float
 260:c:\program files\daisytoolchain\arm-none-eabi\include\c++\10.2.1\cmath ****   floor(float __x)
 261:c:\program files\daisytoolchain\arm-none-eabi\include\c++\10.2.1\cmath ****   { return __builtin_floorf(__x); }
 262:c:\program files\daisytoolchain\arm-none-eabi\include\c++\10.2.1\cmath **** 
 263:c:\program files\daisytoolchain\arm-none-eabi\include\c++\10.2.1\cmath ****   inline _GLIBCXX_CONSTEXPR long double
 264:c:\program files\daisytoolchain\arm-none-eabi\include\c++\10.2.1\cmath ****   floor(long double __x)
 265:c:\program files\daisytoolchain\arm-none-eabi\include\c++\10.2.1\cmath ****   { return __builtin_floorl(__x); }
 266:c:\program files\daisytoolchain\arm-none-eabi\include\c++\10.2.1\cmath **** #endif
 267:c:\program files\daisytoolchain\arm-none-eabi\include\c++\10.2.1\cmath **** 
 268:c:\program files\daisytoolchain\arm-none-eabi\include\c++\10.2.1\cmath ****   template<typename _Tp>
 269:c:\program files\daisytoolchain\arm-none-eabi\include\c++\10.2.1\cmath ****     inline _GLIBCXX_CONSTEXPR
 270:c:\program files\daisytoolchain\arm-none-eabi\include\c++\10.2.1\cmath ****     typename __gnu_cxx::__enable_if<__is_integer<_Tp>::__value,
 271:c:\program files\daisytoolchain\arm-none-eabi\include\c++\10.2.1\cmath ****                                     double>::__type
 272:c:\program files\daisytoolchain\arm-none-eabi\include\c++\10.2.1\cmath ****     floor(_Tp __x)
 273:c:\program files\daisytoolchain\arm-none-eabi\include\c++\10.2.1\cmath ****     { return __builtin_floor(__x); }
 274:c:\program files\daisytoolchain\arm-none-eabi\include\c++\10.2.1\cmath **** 
 275:c:\program files\daisytoolchain\arm-none-eabi\include\c++\10.2.1\cmath ****   using ::fmod;
 276:c:\program files\daisytoolchain\arm-none-eabi\include\c++\10.2.1\cmath **** 
 277:c:\program files\daisytoolchain\arm-none-eabi\include\c++\10.2.1\cmath **** #ifndef __CORRECT_ISO_CPP_MATH_H_PROTO
 278:c:\program files\daisytoolchain\arm-none-eabi\include\c++\10.2.1\cmath ****   inline _GLIBCXX_CONSTEXPR float
 279:c:\program files\daisytoolchain\arm-none-eabi\include\c++\10.2.1\cmath ****   fmod(float __x, float __y)
 280:c:\program files\daisytoolchain\arm-none-eabi\include\c++\10.2.1\cmath ****   { return __builtin_fmodf(__x, __y); }
 281:c:\program files\daisytoolchain\arm-none-eabi\include\c++\10.2.1\cmath **** 
 282:c:\program files\daisytoolchain\arm-none-eabi\include\c++\10.2.1\cmath ****   inline _GLIBCXX_CONSTEXPR long double
 283:c:\program files\daisytoolchain\arm-none-eabi\include\c++\10.2.1\cmath ****   fmod(long double __x, long double __y)
 284:c:\program files\daisytoolchain\arm-none-eabi\include\c++\10.2.1\cmath ****   { return __builtin_fmodl(__x, __y); }
 285:c:\program files\daisytoolchain\arm-none-eabi\include\c++\10.2.1\cmath **** #endif
 286:c:\program files\daisytoolchain\arm-none-eabi\include\c++\10.2.1\cmath **** 
 287:c:\program files\daisytoolchain\arm-none-eabi\include\c++\10.2.1\cmath ****   template<typename _Tp, typename _Up>
ARM GAS  C:\Users\matte\AppData\Local\Temp\ccj2OJiD.s 			page 111


 288:c:\program files\daisytoolchain\arm-none-eabi\include\c++\10.2.1\cmath ****     inline _GLIBCXX_CONSTEXPR
 289:c:\program files\daisytoolchain\arm-none-eabi\include\c++\10.2.1\cmath ****     typename __gnu_cxx::__promote_2<_Tp, _Up>::__type
 290:c:\program files\daisytoolchain\arm-none-eabi\include\c++\10.2.1\cmath ****     fmod(_Tp __x, _Up __y)
 291:c:\program files\daisytoolchain\arm-none-eabi\include\c++\10.2.1\cmath ****     {
 292:c:\program files\daisytoolchain\arm-none-eabi\include\c++\10.2.1\cmath ****       typedef typename __gnu_cxx::__promote_2<_Tp, _Up>::__type __type;
 293:c:\program files\daisytoolchain\arm-none-eabi\include\c++\10.2.1\cmath ****       return fmod(__type(__x), __type(__y));
 294:c:\program files\daisytoolchain\arm-none-eabi\include\c++\10.2.1\cmath ****     }
 295:c:\program files\daisytoolchain\arm-none-eabi\include\c++\10.2.1\cmath **** 
 296:c:\program files\daisytoolchain\arm-none-eabi\include\c++\10.2.1\cmath ****   using ::frexp;
 297:c:\program files\daisytoolchain\arm-none-eabi\include\c++\10.2.1\cmath **** 
 298:c:\program files\daisytoolchain\arm-none-eabi\include\c++\10.2.1\cmath **** #ifndef __CORRECT_ISO_CPP_MATH_H_PROTO
 299:c:\program files\daisytoolchain\arm-none-eabi\include\c++\10.2.1\cmath ****   inline float
 300:c:\program files\daisytoolchain\arm-none-eabi\include\c++\10.2.1\cmath ****   frexp(float __x, int* __exp)
 301:c:\program files\daisytoolchain\arm-none-eabi\include\c++\10.2.1\cmath ****   { return __builtin_frexpf(__x, __exp); }
 302:c:\program files\daisytoolchain\arm-none-eabi\include\c++\10.2.1\cmath **** 
 303:c:\program files\daisytoolchain\arm-none-eabi\include\c++\10.2.1\cmath ****   inline long double
 304:c:\program files\daisytoolchain\arm-none-eabi\include\c++\10.2.1\cmath ****   frexp(long double __x, int* __exp)
 305:c:\program files\daisytoolchain\arm-none-eabi\include\c++\10.2.1\cmath ****   { return __builtin_frexpl(__x, __exp); }
 306:c:\program files\daisytoolchain\arm-none-eabi\include\c++\10.2.1\cmath **** #endif
 307:c:\program files\daisytoolchain\arm-none-eabi\include\c++\10.2.1\cmath **** 
 308:c:\program files\daisytoolchain\arm-none-eabi\include\c++\10.2.1\cmath ****   template<typename _Tp>
 309:c:\program files\daisytoolchain\arm-none-eabi\include\c++\10.2.1\cmath ****     inline _GLIBCXX_CONSTEXPR
 310:c:\program files\daisytoolchain\arm-none-eabi\include\c++\10.2.1\cmath ****     typename __gnu_cxx::__enable_if<__is_integer<_Tp>::__value, 
 311:c:\program files\daisytoolchain\arm-none-eabi\include\c++\10.2.1\cmath ****                                     double>::__type
 312:c:\program files\daisytoolchain\arm-none-eabi\include\c++\10.2.1\cmath ****     frexp(_Tp __x, int* __exp)
 313:c:\program files\daisytoolchain\arm-none-eabi\include\c++\10.2.1\cmath ****     { return __builtin_frexp(__x, __exp); }
 314:c:\program files\daisytoolchain\arm-none-eabi\include\c++\10.2.1\cmath **** 
 315:c:\program files\daisytoolchain\arm-none-eabi\include\c++\10.2.1\cmath ****   using ::ldexp;
 316:c:\program files\daisytoolchain\arm-none-eabi\include\c++\10.2.1\cmath **** 
 317:c:\program files\daisytoolchain\arm-none-eabi\include\c++\10.2.1\cmath **** #ifndef __CORRECT_ISO_CPP_MATH_H_PROTO
 318:c:\program files\daisytoolchain\arm-none-eabi\include\c++\10.2.1\cmath ****   inline _GLIBCXX_CONSTEXPR float
 319:c:\program files\daisytoolchain\arm-none-eabi\include\c++\10.2.1\cmath ****   ldexp(float __x, int __exp)
 320:c:\program files\daisytoolchain\arm-none-eabi\include\c++\10.2.1\cmath ****   { return __builtin_ldexpf(__x, __exp); }
 321:c:\program files\daisytoolchain\arm-none-eabi\include\c++\10.2.1\cmath **** 
 322:c:\program files\daisytoolchain\arm-none-eabi\include\c++\10.2.1\cmath ****   inline _GLIBCXX_CONSTEXPR long double
 323:c:\program files\daisytoolchain\arm-none-eabi\include\c++\10.2.1\cmath ****   ldexp(long double __x, int __exp)
 324:c:\program files\daisytoolchain\arm-none-eabi\include\c++\10.2.1\cmath ****   { return __builtin_ldexpl(__x, __exp); }
 325:c:\program files\daisytoolchain\arm-none-eabi\include\c++\10.2.1\cmath **** #endif
 326:c:\program files\daisytoolchain\arm-none-eabi\include\c++\10.2.1\cmath **** 
 327:c:\program files\daisytoolchain\arm-none-eabi\include\c++\10.2.1\cmath ****   template<typename _Tp>
 328:c:\program files\daisytoolchain\arm-none-eabi\include\c++\10.2.1\cmath ****     inline _GLIBCXX_CONSTEXPR
 329:c:\program files\daisytoolchain\arm-none-eabi\include\c++\10.2.1\cmath ****     typename __gnu_cxx::__enable_if<__is_integer<_Tp>::__value, 
 330:c:\program files\daisytoolchain\arm-none-eabi\include\c++\10.2.1\cmath ****                                     double>::__type
 331:c:\program files\daisytoolchain\arm-none-eabi\include\c++\10.2.1\cmath ****     ldexp(_Tp __x, int __exp)
 332:c:\program files\daisytoolchain\arm-none-eabi\include\c++\10.2.1\cmath ****     { return __builtin_ldexp(__x, __exp); }
 333:c:\program files\daisytoolchain\arm-none-eabi\include\c++\10.2.1\cmath **** 
 334:c:\program files\daisytoolchain\arm-none-eabi\include\c++\10.2.1\cmath ****   using ::log;
 335:c:\program files\daisytoolchain\arm-none-eabi\include\c++\10.2.1\cmath **** 
 336:c:\program files\daisytoolchain\arm-none-eabi\include\c++\10.2.1\cmath **** #ifndef __CORRECT_ISO_CPP_MATH_H_PROTO
 337:c:\program files\daisytoolchain\arm-none-eabi\include\c++\10.2.1\cmath ****   inline _GLIBCXX_CONSTEXPR float
 338:c:\program files\daisytoolchain\arm-none-eabi\include\c++\10.2.1\cmath ****   log(float __x)
 339:c:\program files\daisytoolchain\arm-none-eabi\include\c++\10.2.1\cmath ****   { return __builtin_logf(__x); }
 340:c:\program files\daisytoolchain\arm-none-eabi\include\c++\10.2.1\cmath **** 
 341:c:\program files\daisytoolchain\arm-none-eabi\include\c++\10.2.1\cmath ****   inline _GLIBCXX_CONSTEXPR long double
 342:c:\program files\daisytoolchain\arm-none-eabi\include\c++\10.2.1\cmath ****   log(long double __x)
 343:c:\program files\daisytoolchain\arm-none-eabi\include\c++\10.2.1\cmath ****   { return __builtin_logl(__x); }
 344:c:\program files\daisytoolchain\arm-none-eabi\include\c++\10.2.1\cmath **** #endif
ARM GAS  C:\Users\matte\AppData\Local\Temp\ccj2OJiD.s 			page 112


 345:c:\program files\daisytoolchain\arm-none-eabi\include\c++\10.2.1\cmath **** 
 346:c:\program files\daisytoolchain\arm-none-eabi\include\c++\10.2.1\cmath ****   template<typename _Tp>
 347:c:\program files\daisytoolchain\arm-none-eabi\include\c++\10.2.1\cmath ****     inline _GLIBCXX_CONSTEXPR
 348:c:\program files\daisytoolchain\arm-none-eabi\include\c++\10.2.1\cmath ****     typename __gnu_cxx::__enable_if<__is_integer<_Tp>::__value, 
 349:c:\program files\daisytoolchain\arm-none-eabi\include\c++\10.2.1\cmath ****                                     double>::__type
 350:c:\program files\daisytoolchain\arm-none-eabi\include\c++\10.2.1\cmath ****     log(_Tp __x)
 351:c:\program files\daisytoolchain\arm-none-eabi\include\c++\10.2.1\cmath ****     { return __builtin_log(__x); }
 352:c:\program files\daisytoolchain\arm-none-eabi\include\c++\10.2.1\cmath **** 
 353:c:\program files\daisytoolchain\arm-none-eabi\include\c++\10.2.1\cmath ****   using ::log10;
 354:c:\program files\daisytoolchain\arm-none-eabi\include\c++\10.2.1\cmath **** 
 355:c:\program files\daisytoolchain\arm-none-eabi\include\c++\10.2.1\cmath **** #ifndef __CORRECT_ISO_CPP_MATH_H_PROTO
 356:c:\program files\daisytoolchain\arm-none-eabi\include\c++\10.2.1\cmath ****   inline _GLIBCXX_CONSTEXPR float
 357:c:\program files\daisytoolchain\arm-none-eabi\include\c++\10.2.1\cmath ****   log10(float __x)
 358:c:\program files\daisytoolchain\arm-none-eabi\include\c++\10.2.1\cmath ****   { return __builtin_log10f(__x); }
 359:c:\program files\daisytoolchain\arm-none-eabi\include\c++\10.2.1\cmath **** 
 360:c:\program files\daisytoolchain\arm-none-eabi\include\c++\10.2.1\cmath ****   inline _GLIBCXX_CONSTEXPR long double
 361:c:\program files\daisytoolchain\arm-none-eabi\include\c++\10.2.1\cmath ****   log10(long double __x)
 362:c:\program files\daisytoolchain\arm-none-eabi\include\c++\10.2.1\cmath ****   { return __builtin_log10l(__x); }
 363:c:\program files\daisytoolchain\arm-none-eabi\include\c++\10.2.1\cmath **** #endif
 364:c:\program files\daisytoolchain\arm-none-eabi\include\c++\10.2.1\cmath **** 
 365:c:\program files\daisytoolchain\arm-none-eabi\include\c++\10.2.1\cmath ****   template<typename _Tp>
 366:c:\program files\daisytoolchain\arm-none-eabi\include\c++\10.2.1\cmath ****     inline _GLIBCXX_CONSTEXPR
 367:c:\program files\daisytoolchain\arm-none-eabi\include\c++\10.2.1\cmath ****     typename __gnu_cxx::__enable_if<__is_integer<_Tp>::__value,
 368:c:\program files\daisytoolchain\arm-none-eabi\include\c++\10.2.1\cmath ****                                     double>::__type
 369:c:\program files\daisytoolchain\arm-none-eabi\include\c++\10.2.1\cmath ****     log10(_Tp __x)
 370:c:\program files\daisytoolchain\arm-none-eabi\include\c++\10.2.1\cmath ****     { return __builtin_log10(__x); }
 371:c:\program files\daisytoolchain\arm-none-eabi\include\c++\10.2.1\cmath **** 
 372:c:\program files\daisytoolchain\arm-none-eabi\include\c++\10.2.1\cmath ****   using ::modf;
 373:c:\program files\daisytoolchain\arm-none-eabi\include\c++\10.2.1\cmath **** 
 374:c:\program files\daisytoolchain\arm-none-eabi\include\c++\10.2.1\cmath **** #ifndef __CORRECT_ISO_CPP_MATH_H_PROTO
 375:c:\program files\daisytoolchain\arm-none-eabi\include\c++\10.2.1\cmath ****   inline float
 376:c:\program files\daisytoolchain\arm-none-eabi\include\c++\10.2.1\cmath ****   modf(float __x, float* __iptr)
 377:c:\program files\daisytoolchain\arm-none-eabi\include\c++\10.2.1\cmath ****   { return __builtin_modff(__x, __iptr); }
 378:c:\program files\daisytoolchain\arm-none-eabi\include\c++\10.2.1\cmath **** 
 379:c:\program files\daisytoolchain\arm-none-eabi\include\c++\10.2.1\cmath ****   inline long double
 380:c:\program files\daisytoolchain\arm-none-eabi\include\c++\10.2.1\cmath ****   modf(long double __x, long double* __iptr)
 381:c:\program files\daisytoolchain\arm-none-eabi\include\c++\10.2.1\cmath ****   { return __builtin_modfl(__x, __iptr); }
 382:c:\program files\daisytoolchain\arm-none-eabi\include\c++\10.2.1\cmath **** #endif
 383:c:\program files\daisytoolchain\arm-none-eabi\include\c++\10.2.1\cmath **** 
 384:c:\program files\daisytoolchain\arm-none-eabi\include\c++\10.2.1\cmath ****   using ::pow;
 385:c:\program files\daisytoolchain\arm-none-eabi\include\c++\10.2.1\cmath **** 
 386:c:\program files\daisytoolchain\arm-none-eabi\include\c++\10.2.1\cmath **** #ifndef __CORRECT_ISO_CPP_MATH_H_PROTO
 387:c:\program files\daisytoolchain\arm-none-eabi\include\c++\10.2.1\cmath ****   inline _GLIBCXX_CONSTEXPR float
 388:c:\program files\daisytoolchain\arm-none-eabi\include\c++\10.2.1\cmath ****   pow(float __x, float __y)
 389:c:\program files\daisytoolchain\arm-none-eabi\include\c++\10.2.1\cmath ****   { return __builtin_powf(__x, __y); }
 390:c:\program files\daisytoolchain\arm-none-eabi\include\c++\10.2.1\cmath **** 
 391:c:\program files\daisytoolchain\arm-none-eabi\include\c++\10.2.1\cmath ****   inline _GLIBCXX_CONSTEXPR long double
 392:c:\program files\daisytoolchain\arm-none-eabi\include\c++\10.2.1\cmath ****   pow(long double __x, long double __y)
 393:c:\program files\daisytoolchain\arm-none-eabi\include\c++\10.2.1\cmath ****   { return __builtin_powl(__x, __y); }
 394:c:\program files\daisytoolchain\arm-none-eabi\include\c++\10.2.1\cmath **** 
 395:c:\program files\daisytoolchain\arm-none-eabi\include\c++\10.2.1\cmath **** #if __cplusplus < 201103L
 396:c:\program files\daisytoolchain\arm-none-eabi\include\c++\10.2.1\cmath ****   // _GLIBCXX_RESOLVE_LIB_DEFECTS
 397:c:\program files\daisytoolchain\arm-none-eabi\include\c++\10.2.1\cmath ****   // DR 550. What should the return type of pow(float,int) be?
 398:c:\program files\daisytoolchain\arm-none-eabi\include\c++\10.2.1\cmath ****   inline double
 399:c:\program files\daisytoolchain\arm-none-eabi\include\c++\10.2.1\cmath ****   pow(double __x, int __i)
 400:c:\program files\daisytoolchain\arm-none-eabi\include\c++\10.2.1\cmath ****   { return __builtin_powi(__x, __i); }
 401:c:\program files\daisytoolchain\arm-none-eabi\include\c++\10.2.1\cmath **** 
ARM GAS  C:\Users\matte\AppData\Local\Temp\ccj2OJiD.s 			page 113


 402:c:\program files\daisytoolchain\arm-none-eabi\include\c++\10.2.1\cmath ****   inline float
 403:c:\program files\daisytoolchain\arm-none-eabi\include\c++\10.2.1\cmath ****   pow(float __x, int __n)
 404:c:\program files\daisytoolchain\arm-none-eabi\include\c++\10.2.1\cmath ****   { return __builtin_powif(__x, __n); }
 405:c:\program files\daisytoolchain\arm-none-eabi\include\c++\10.2.1\cmath **** 
 406:c:\program files\daisytoolchain\arm-none-eabi\include\c++\10.2.1\cmath ****   inline long double
 407:c:\program files\daisytoolchain\arm-none-eabi\include\c++\10.2.1\cmath ****   pow(long double __x, int __n)
 408:c:\program files\daisytoolchain\arm-none-eabi\include\c++\10.2.1\cmath ****   { return __builtin_powil(__x, __n); }
 409:c:\program files\daisytoolchain\arm-none-eabi\include\c++\10.2.1\cmath **** #endif
 410:c:\program files\daisytoolchain\arm-none-eabi\include\c++\10.2.1\cmath **** #endif
 411:c:\program files\daisytoolchain\arm-none-eabi\include\c++\10.2.1\cmath **** 
 412:c:\program files\daisytoolchain\arm-none-eabi\include\c++\10.2.1\cmath ****   template<typename _Tp, typename _Up>
 413:c:\program files\daisytoolchain\arm-none-eabi\include\c++\10.2.1\cmath ****     inline _GLIBCXX_CONSTEXPR
 414:c:\program files\daisytoolchain\arm-none-eabi\include\c++\10.2.1\cmath ****     typename __gnu_cxx::__promote_2<_Tp, _Up>::__type
 415:c:\program files\daisytoolchain\arm-none-eabi\include\c++\10.2.1\cmath ****     pow(_Tp __x, _Up __y)
 416:c:\program files\daisytoolchain\arm-none-eabi\include\c++\10.2.1\cmath ****     {
 417:c:\program files\daisytoolchain\arm-none-eabi\include\c++\10.2.1\cmath ****       typedef typename __gnu_cxx::__promote_2<_Tp, _Up>::__type __type;
 418:c:\program files\daisytoolchain\arm-none-eabi\include\c++\10.2.1\cmath ****       return pow(__type(__x), __type(__y));
 419:c:\program files\daisytoolchain\arm-none-eabi\include\c++\10.2.1\cmath ****     }
 420:c:\program files\daisytoolchain\arm-none-eabi\include\c++\10.2.1\cmath **** 
 421:c:\program files\daisytoolchain\arm-none-eabi\include\c++\10.2.1\cmath ****   using ::sin;
 422:c:\program files\daisytoolchain\arm-none-eabi\include\c++\10.2.1\cmath **** 
 423:c:\program files\daisytoolchain\arm-none-eabi\include\c++\10.2.1\cmath **** #ifndef __CORRECT_ISO_CPP_MATH_H_PROTO
 424:c:\program files\daisytoolchain\arm-none-eabi\include\c++\10.2.1\cmath ****   inline _GLIBCXX_CONSTEXPR float
 425:c:\program files\daisytoolchain\arm-none-eabi\include\c++\10.2.1\cmath ****   sin(float __x)
 426:c:\program files\daisytoolchain\arm-none-eabi\include\c++\10.2.1\cmath ****   { return __builtin_sinf(__x); }
 3674              		.loc 14 426 26 view .LVU819
 3675 0068 B0EE680A 		vmov.f32	s0, s17
 3676 006c FFF7FEFF 		bl	sinf
 3677              	.LVL253:
 3678              	.LBE1316:
 3679              	.LBE1315:
 316:../libs/PoliTeKDSP/libs/libDaisy/src/hid/disp/display.h ****         end_x   = cos(end_angle_rad) * radius;
 3680              		.loc 10 316 17 view .LVU820
 3681 0070 60EE698A 		vnmul.f32	s17, s0, s19
 3682              	.LVL254:
 3683              	.LBB1318:
 3684              	.LBB1319:
 185:c:\program files\daisytoolchain\arm-none-eabi\include\c++\10.2.1\cmath **** 
 3685              		.loc 14 185 26 view .LVU821
 3686 0074 B0EE4A0A 		vmov.f32	s0, s20
 3687 0078 FFF7FEFF 		bl	cosf
 3688              	.LVL255:
 3689 007c B0EE409A 		vmov.f32	s18, s0
 3690              	.LBE1319:
 3691              	.LBE1318:
 3692              	.LBB1321:
 3693              	.LBB1322:
 3694              		.loc 14 426 26 view .LVU822
 3695 0080 B0EE4A0A 		vmov.f32	s0, s20
 3696 0084 FFF7FEFF 		bl	sinf
 3697              	.LVL256:
 3698              	.LBE1322:
 3699              	.LBE1321:
 318:../libs/PoliTeKDSP/libs/libDaisy/src/hid/disp/display.h **** 
 3700              		.loc 10 318 17 view .LVU823
 3701 0088 20EE690A 		vnmul.f32	s0, s0, s19
 315:../libs/PoliTeKDSP/libs/libDaisy/src/hid/disp/display.h ****         start_y = -sin(start_angle_rad) * radius;
ARM GAS  C:\Users\matte\AppData\Local\Temp\ccj2OJiD.s 			page 114


 3702              		.loc 10 315 17 view .LVU824
 3703 008c 29EE888A 		vmul.f32	s16, s19, s16
 3704              	.LVL257:
 3705              	.LBB1324:
 3706              	.LBI1315:
 425:c:\program files\daisytoolchain\arm-none-eabi\include\c++\10.2.1\cmath ****   { return __builtin_sinf(__x); }
 3707              		.loc 14 425 3 is_stmt 1 view .LVU825
 3708              	.LBB1317:
 3709              		.loc 14 426 5 view .LVU826
 3710              		.loc 14 426 5 is_stmt 0 view .LVU827
 3711              	.LBE1317:
 3712              	.LBE1324:
 3713              	.LBB1325:
 3714              	.LBI1318:
 184:c:\program files\daisytoolchain\arm-none-eabi\include\c++\10.2.1\cmath ****   { return __builtin_cosf(__x); }
 3715              		.loc 14 184 3 is_stmt 1 view .LVU828
 3716              	.LBB1320:
 185:c:\program files\daisytoolchain\arm-none-eabi\include\c++\10.2.1\cmath **** 
 3717              		.loc 14 185 5 view .LVU829
 185:c:\program files\daisytoolchain\arm-none-eabi\include\c++\10.2.1\cmath **** 
 3718              		.loc 14 185 5 is_stmt 0 view .LVU830
 3719              	.LBE1320:
 3720              	.LBE1325:
 317:../libs/PoliTeKDSP/libs/libDaisy/src/hid/disp/display.h ****         end_y   = -sin(end_angle_rad) * radius;
 3721              		.loc 10 317 17 view .LVU831
 3722 0090 29EE899A 		vmul.f32	s18, s19, s18
 3723              	.LVL258:
 3724              	.LBB1326:
 3725              	.LBI1321:
 425:c:\program files\daisytoolchain\arm-none-eabi\include\c++\10.2.1\cmath ****   { return __builtin_sinf(__x); }
 3726              		.loc 14 425 3 is_stmt 1 view .LVU832
 3727              	.LBB1323:
 3728              		.loc 14 426 5 view .LVU833
 3729              		.loc 14 426 5 is_stmt 0 view .LVU834
 3730              	.LBE1323:
 3731              	.LBE1326:
 322:../libs/PoliTeKDSP/libs/libDaisy/src/hid/disp/display.h ****            < 2.0f)
 3732              		.loc 10 322 25 view .LVU835
 3733 0094 70EE687A 		vsub.f32	s15, s0, s17
 321:../libs/PoliTeKDSP/libs/libDaisy/src/hid/disp/display.h ****                + (end_y - start_y) * (end_y - start_y)
 3734              		.loc 10 321 9 view .LVU836
 3735 0098 F0EE006A 		vmov.f32	s13, #2.0e+0
 321:../libs/PoliTeKDSP/libs/libDaisy/src/hid/disp/display.h ****                + (end_y - start_y) * (end_y - start_y)
 3736              		.loc 10 321 19 view .LVU837
 3737 009c 39EE487A 		vsub.f32	s14, s18, s16
 322:../libs/PoliTeKDSP/libs/libDaisy/src/hid/disp/display.h ****            < 2.0f)
 3738              		.loc 10 322 36 view .LVU838
 3739 00a0 67EEA77A 		vmul.f32	s15, s15, s15
 322:../libs/PoliTeKDSP/libs/libDaisy/src/hid/disp/display.h ****            < 2.0f)
 3740              		.loc 10 322 16 view .LVU839
 3741 00a4 E7EE077A 		vfma.f32	s15, s14, s14
 321:../libs/PoliTeKDSP/libs/libDaisy/src/hid/disp/display.h ****                + (end_y - start_y) * (end_y - start_y)
 3742              		.loc 10 321 9 view .LVU840
 3743 00a8 F4EEE67A 		vcmpe.f32	s15, s13
 3744 00ac F1EE10FA 		vmrs	APSR_nzcv, FPSCR
 3745 00b0 06D5     		bpl	.L294
 325:../libs/PoliTeKDSP/libs/libDaisy/src/hid/disp/display.h ****                 circle = true;
ARM GAS  C:\Users\matte\AppData\Local\Temp\ccj2OJiD.s 			page 115


 3746              		.loc 10 325 13 view .LVU841
 3747 00b2 139B     		ldr	r3, [sp, #76]
 3748 00b4 B42B     		cmp	r3, #180
 3749 00b6 40F39680 		ble	.L235
 326:../libs/PoliTeKDSP/libs/libDaisy/src/hid/disp/display.h ****             else
 3750              		.loc 10 326 24 view .LVU842
 3751 00ba 4FF00109 		mov	r9, #1
 3752 00be 01E0     		b	.L238
 3753              	.L294:
 304:../libs/PoliTeKDSP/libs/libDaisy/src/hid/disp/display.h **** 
 3754              		.loc 10 304 14 view .LVU843
 3755 00c0 4FF00009 		mov	r9, #0
 3756              	.L238:
 3757              	.LVL259:
 302:../libs/PoliTeKDSP/libs/libDaisy/src/hid/disp/display.h **** 
 3758              		.loc 10 302 27 view .LVU844
 3759 00c4 0124     		movs	r4, #1
 332:../libs/PoliTeKDSP/libs/libDaisy/src/hid/disp/display.h ****         t_y = 0;
 3760              		.loc 10 332 13 view .LVU845
 3761 00c6 7842     		rsbs	r0, r7, #0
 3762              	.LVL260:
 333:../libs/PoliTeKDSP/libs/libDaisy/src/hid/disp/display.h ****         err = 2 - 2 * radius;
 3763              		.loc 10 333 13 view .LVU846
 3764 00c8 4FF0000C 		mov	ip, #0
 3765 00cc 0095     		str	r5, [sp]
 334:../libs/PoliTeKDSP/libs/libDaisy/src/hid/disp/display.h **** 
 3766              		.loc 10 334 17 view .LVU847
 3767 00ce E31B     		subs	r3, r4, r7
 302:../libs/PoliTeKDSP/libs/libDaisy/src/hid/disp/display.h **** 
 3768              		.loc 10 302 17 view .LVU848
 3769 00d0 2146     		mov	r1, r4
 302:../libs/PoliTeKDSP/libs/libDaisy/src/hid/disp/display.h **** 
 3770              		.loc 10 302 22 view .LVU849
 3771 00d2 2746     		mov	r7, r4
 3772              	.LVL261:
 302:../libs/PoliTeKDSP/libs/libDaisy/src/hid/disp/display.h **** 
 3773              		.loc 10 302 12 view .LVU850
 3774 00d4 2246     		mov	r2, r4
 334:../libs/PoliTeKDSP/libs/libDaisy/src/hid/disp/display.h **** 
 3775              		.loc 10 334 17 view .LVU851
 3776 00d6 A340     		lsls	r3, r3, r4
 3777              	.LVL262:
 3778              	.L264:
 338:../libs/PoliTeKDSP/libs/libDaisy/src/hid/disp/display.h ****             {
 3779              		.loc 10 338 13 view .LVU852
 3780 00d8 B9F1000F 		cmp	r9, #0
 3781 00dc 6AD1     		bne	.L240
 343:../libs/PoliTeKDSP/libs/libDaisy/src/hid/disp/display.h ****                 t_exy  = end_x * t_y;
 3782              		.loc 10 343 34 view .LVU853
 3783 00de 4242     		rsbs	r2, r0, #0
 3784              	.LVL263:
 340:../libs/PoliTeKDSP/libs/libDaisy/src/hid/disp/display.h ****                 t_syx  = start_y * t_x;
 3785              		.loc 10 340 24 view .LVU854
 3786 00e0 06EE90CA 		vmov	s13, ip	@ int
 342:../libs/PoliTeKDSP/libs/libDaisy/src/hid/disp/display.h ****                 t_synx = start_y * -t_x;
 3787              		.loc 10 342 34 view .LVU855
 3788 00e4 CCF10001 		rsb	r1, ip, #0
ARM GAS  C:\Users\matte\AppData\Local\Temp\ccj2OJiD.s 			page 116


 3789              	.LVL264:
 343:../libs/PoliTeKDSP/libs/libDaisy/src/hid/disp/display.h ****                 t_exy  = end_x * t_y;
 3790              		.loc 10 343 34 view .LVU856
 3791 00e8 07EE102A 		vmov	s14, r2	@ int
 340:../libs/PoliTeKDSP/libs/libDaisy/src/hid/disp/display.h ****                 t_syx  = start_y * t_x;
 3792              		.loc 10 340 24 view .LVU857
 3793 00ec B8EEE66A 		vcvt.f32.s32	s12, s13
 342:../libs/PoliTeKDSP/libs/libDaisy/src/hid/disp/display.h ****                 t_synx = start_y * -t_x;
 3794              		.loc 10 342 34 view .LVU858
 3795 00f0 07EE901A 		vmov	s15, r1	@ int
 341:../libs/PoliTeKDSP/libs/libDaisy/src/hid/disp/display.h ****                 t_sxny = start_x * -t_y;
 3796              		.loc 10 341 24 view .LVU859
 3797 00f4 06EE900A 		vmov	s13, r0	@ int
 343:../libs/PoliTeKDSP/libs/libDaisy/src/hid/disp/display.h ****                 t_exy  = end_x * t_y;
 3798              		.loc 10 343 34 view .LVU860
 3799 00f8 B8EEC77A 		vcvt.f32.s32	s14, s14
 349:../libs/PoliTeKDSP/libs/libDaisy/src/hid/disp/display.h ****                 {
 3800              		.loc 10 349 17 view .LVU861
 3801 00fc 139A     		ldr	r2, [sp, #76]
 340:../libs/PoliTeKDSP/libs/libDaisy/src/hid/disp/display.h ****                 t_syx  = start_y * t_x;
 3802              		.loc 10 340 24 view .LVU862
 3803 00fe 66EE084A 		vmul.f32	s9, s12, s16
 3804              	.LVL265:
 342:../libs/PoliTeKDSP/libs/libDaisy/src/hid/disp/display.h ****                 t_synx = start_y * -t_x;
 3805              		.loc 10 342 34 view .LVU863
 3806 0102 F8EEE77A 		vcvt.f32.s32	s15, s15
 349:../libs/PoliTeKDSP/libs/libDaisy/src/hid/disp/display.h ****                 {
 3807              		.loc 10 349 17 view .LVU864
 3808 0106 B42A     		cmp	r2, #180
 343:../libs/PoliTeKDSP/libs/libDaisy/src/hid/disp/display.h ****                 t_exy  = end_x * t_y;
 3809              		.loc 10 343 24 view .LVU865
 3810 0108 27EE284A 		vmul.f32	s8, s14, s17
 341:../libs/PoliTeKDSP/libs/libDaisy/src/hid/disp/display.h ****                 t_sxny = start_x * -t_y;
 3811              		.loc 10 341 24 view .LVU866
 3812 010c F8EEE66A 		vcvt.f32.s32	s13, s13
 342:../libs/PoliTeKDSP/libs/libDaisy/src/hid/disp/display.h ****                 t_synx = start_y * -t_x;
 3813              		.loc 10 342 24 view .LVU867
 3814 0110 67EE885A 		vmul.f32	s11, s15, s16
 351:../libs/PoliTeKDSP/libs/libDaisy/src/hid/disp/display.h ****                     d2 = (t_sxy - t_syx < 0 || t_exy - t_eyx > 0);
 3815              		.loc 10 351 33 view .LVU868
 3816 0114 74EEC43A 		vsub.f32	s7, s9, s8
 341:../libs/PoliTeKDSP/libs/libDaisy/src/hid/disp/display.h ****                 t_sxny = start_x * -t_y;
 3817              		.loc 10 341 24 view .LVU869
 3818 0118 26EEA85A 		vmul.f32	s10, s13, s17
 3819              	.LVL266:
 344:../libs/PoliTeKDSP/libs/libDaisy/src/hid/disp/display.h ****                 t_eyx  = end_y * t_x;
 3820              		.loc 10 344 24 view .LVU870
 3821 011c 26EE096A 		vmul.f32	s12, s12, s18
 3822              	.LVL267:
 345:../libs/PoliTeKDSP/libs/libDaisy/src/hid/disp/display.h ****                 t_exny = end_x * -t_y;
 3823              		.loc 10 345 24 view .LVU871
 3824 0120 66EE806A 		vmul.f32	s13, s13, s0
 3825              	.LVL268:
 346:../libs/PoliTeKDSP/libs/libDaisy/src/hid/disp/display.h ****                 t_eynx = end_y * -t_x;
 3826              		.loc 10 346 24 view .LVU872
 3827 0124 67EE897A 		vmul.f32	s15, s15, s18
 3828              	.LVL269:
ARM GAS  C:\Users\matte\AppData\Local\Temp\ccj2OJiD.s 			page 117


 347:../libs/PoliTeKDSP/libs/libDaisy/src/hid/disp/display.h **** 
 3829              		.loc 10 347 24 view .LVU873
 3830 0128 27EE007A 		vmul.f32	s14, s14, s0
 3831              	.LVL270:
 351:../libs/PoliTeKDSP/libs/libDaisy/src/hid/disp/display.h ****                     d2 = (t_sxy - t_syx < 0 || t_exy - t_eyx > 0);
 3832              		.loc 10 351 46 view .LVU874
 3833 012c F5EEC03A 		vcmpe.f32	s7, #0
 349:../libs/PoliTeKDSP/libs/libDaisy/src/hid/disp/display.h ****                 {
 3834              		.loc 10 349 17 view .LVU875
 3835 0130 40F3F280 		ble	.L241
 351:../libs/PoliTeKDSP/libs/libDaisy/src/hid/disp/display.h ****                     d2 = (t_sxy - t_syx < 0 || t_exy - t_eyx > 0);
 3836              		.loc 10 351 46 view .LVU876
 3837 0134 F1EE10FA 		vmrs	APSR_nzcv, FPSCR
 3838 0138 00F17F81 		bmi	.L267
 351:../libs/PoliTeKDSP/libs/libDaisy/src/hid/disp/display.h ****                     d2 = (t_sxy - t_syx < 0 || t_exy - t_eyx > 0);
 3839              		.loc 10 351 55 discriminator 2 view .LVU877
 3840 013c 76EE473A 		vsub.f32	s7, s12, s14
 352:../libs/PoliTeKDSP/libs/libDaisy/src/hid/disp/display.h ****                     d3 = (t_sxny - t_syx < 0 || t_exny - t_eyx > 0);
 3841              		.loc 10 352 33 discriminator 2 view .LVU878
 3842 0140 74EEC54A 		vsub.f32	s9, s9, s10
 3843              	.LVL271:
 351:../libs/PoliTeKDSP/libs/libDaisy/src/hid/disp/display.h ****                     d2 = (t_sxy - t_syx < 0 || t_exy - t_eyx > 0);
 3844              		.loc 10 351 46 discriminator 2 view .LVU879
 3845 0144 F5EEC03A 		vcmpe.f32	s7, #0
 3846 0148 F1EE10FA 		vmrs	APSR_nzcv, FPSCR
 352:../libs/PoliTeKDSP/libs/libDaisy/src/hid/disp/display.h ****                     d3 = (t_sxny - t_syx < 0 || t_exny - t_eyx > 0);
 3847              		.loc 10 352 45 discriminator 2 view .LVU880
 3848 014c F5EEC04A 		vcmpe.f32	s9, #0
 351:../libs/PoliTeKDSP/libs/libDaisy/src/hid/disp/display.h ****                     d2 = (t_sxy - t_syx < 0 || t_exy - t_eyx > 0);
 3849              		.loc 10 351 46 discriminator 2 view .LVU881
 3850 0150 CCBF     		ite	gt
 3851 0152 0122     		movgt	r2, #1
 3852 0154 0022     		movle	r2, #0
 3853              	.LVL272:
 352:../libs/PoliTeKDSP/libs/libDaisy/src/hid/disp/display.h ****                     d3 = (t_sxny - t_syx < 0 || t_exny - t_eyx > 0);
 3854              		.loc 10 352 45 discriminator 2 view .LVU882
 3855 0156 F1EE10FA 		vmrs	APSR_nzcv, FPSCR
 3856 015a 00F17781 		bmi	.L268
 3857              	.L310:
 352:../libs/PoliTeKDSP/libs/libDaisy/src/hid/disp/display.h ****                     d3 = (t_sxny - t_syx < 0 || t_exny - t_eyx > 0);
 3858              		.loc 10 352 54 discriminator 2 view .LVU883
 3859 015e 36EE666A 		vsub.f32	s12, s12, s13
 3860              	.LVL273:
 353:../libs/PoliTeKDSP/libs/libDaisy/src/hid/disp/display.h ****                     d4 = (t_sxny - t_synx < 0 || t_exny - t_eynx > 0);
 3861              		.loc 10 353 34 discriminator 2 view .LVU884
 3862 0162 35EEC55A 		vsub.f32	s10, s11, s10
 3863              	.LVL274:
 352:../libs/PoliTeKDSP/libs/libDaisy/src/hid/disp/display.h ****                     d3 = (t_sxny - t_syx < 0 || t_exny - t_eyx > 0);
 3864              		.loc 10 352 45 discriminator 2 view .LVU885
 3865 0166 B5EEC06A 		vcmpe.f32	s12, #0
 3866 016a F1EE10FA 		vmrs	APSR_nzcv, FPSCR
 353:../libs/PoliTeKDSP/libs/libDaisy/src/hid/disp/display.h ****                     d4 = (t_sxny - t_synx < 0 || t_exny - t_eynx > 0);
 3867              		.loc 10 353 46 discriminator 2 view .LVU886
 3868 016e B5EEC05A 		vcmpe.f32	s10, #0
 352:../libs/PoliTeKDSP/libs/libDaisy/src/hid/disp/display.h ****                     d3 = (t_sxny - t_syx < 0 || t_exny - t_eyx > 0);
 3869              		.loc 10 352 45 discriminator 2 view .LVU887
 3870 0172 CCBF     		ite	gt
ARM GAS  C:\Users\matte\AppData\Local\Temp\ccj2OJiD.s 			page 118


 3871 0174 0121     		movgt	r1, #1
 3872 0176 0021     		movle	r1, #0
 3873              	.LVL275:
 353:../libs/PoliTeKDSP/libs/libDaisy/src/hid/disp/display.h ****                     d4 = (t_sxny - t_synx < 0 || t_exny - t_eynx > 0);
 3874              		.loc 10 353 46 discriminator 2 view .LVU888
 3875 0178 F1EE10FA 		vmrs	APSR_nzcv, FPSCR
 3876 017c 00F16F81 		bmi	.L269
 3877              	.L311:
 353:../libs/PoliTeKDSP/libs/libDaisy/src/hid/disp/display.h ****                     d4 = (t_sxny - t_synx < 0 || t_exny - t_eynx > 0);
 3878              		.loc 10 353 56 discriminator 2 view .LVU889
 3879 0180 77EEE66A 		vsub.f32	s13, s15, s13
 3880              	.LVL276:
 353:../libs/PoliTeKDSP/libs/libDaisy/src/hid/disp/display.h ****                     d4 = (t_sxny - t_synx < 0 || t_exny - t_eynx > 0);
 3881              		.loc 10 353 46 discriminator 2 view .LVU890
 3882 0184 F5EEC06A 		vcmpe.f32	s13, #0
 3883 0188 F1EE10FA 		vmrs	APSR_nzcv, FPSCR
 3884 018c CCBF     		ite	gt
 3885 018e 0127     		movgt	r7, #1
 3886              	.LVL277:
 353:../libs/PoliTeKDSP/libs/libDaisy/src/hid/disp/display.h ****                     d4 = (t_sxny - t_synx < 0 || t_exny - t_eynx > 0);
 3887              		.loc 10 353 46 discriminator 2 view .LVU891
 3888 0190 0027     		movle	r7, #0
 3889              	.L244:
 3890              	.LVL278:
 354:../libs/PoliTeKDSP/libs/libDaisy/src/hid/disp/display.h ****                 }
 3891              		.loc 10 354 34 discriminator 6 view .LVU892
 3892 0192 75EEC45A 		vsub.f32	s11, s11, s8
 3893              	.LVL279:
 354:../libs/PoliTeKDSP/libs/libDaisy/src/hid/disp/display.h ****                 }
 3894              		.loc 10 354 47 discriminator 6 view .LVU893
 3895 0196 F5EEC05A 		vcmpe.f32	s11, #0
 3896 019a F1EE10FA 		vmrs	APSR_nzcv, FPSCR
 3897 019e 00F14781 		bmi	.L270
 3898              	.L300:
 361:../libs/PoliTeKDSP/libs/libDaisy/src/hid/disp/display.h ****                 }
 3899              		.loc 10 361 57 discriminator 1 view .LVU894
 3900 01a2 77EEC77A 		vsub.f32	s15, s15, s14
 3901              	.LVL280:
 361:../libs/PoliTeKDSP/libs/libDaisy/src/hid/disp/display.h ****                 }
 3902              		.loc 10 361 47 discriminator 1 view .LVU895
 3903 01a6 F5EEC07A 		vcmpe.f32	s15, #0
 3904 01aa F1EE10FA 		vmrs	APSR_nzcv, FPSCR
 3905 01ae CCBF     		ite	gt
 3906 01b0 0124     		movgt	r4, #1
 3907              	.LVL281:
 361:../libs/PoliTeKDSP/libs/libDaisy/src/hid/disp/display.h ****                 }
 3908              		.loc 10 361 47 discriminator 1 view .LVU896
 3909 01b2 0024     		movle	r4, #0
 3910              	.LVL282:
 3911              	.L240:
 365:../libs/PoliTeKDSP/libs/libDaisy/src/hid/disp/display.h ****                 ((ChildType*)(this))
 3912              		.loc 10 365 13 view .LVU897
 3913 01b4 002A     		cmp	r2, #0
 3914 01b6 40F08A80 		bne	.L301
 3915              	.L252:
 368:../libs/PoliTeKDSP/libs/libDaisy/src/hid/disp/display.h ****                 ((ChildType*)(this))
 3916              		.loc 10 368 13 view .LVU898
ARM GAS  C:\Users\matte\AppData\Local\Temp\ccj2OJiD.s 			page 119


 3917 01ba 0029     		cmp	r1, #0
 3918 01bc 64D1     		bne	.L302
 3919              	.L254:
 371:../libs/PoliTeKDSP/libs/libDaisy/src/hid/disp/display.h ****                 ((ChildType*)(this))
 3920              		.loc 10 371 13 view .LVU899
 3921 01be BFB9     		cbnz	r7, .L303
 3922              	.L256:
 374:../libs/PoliTeKDSP/libs/libDaisy/src/hid/disp/display.h ****                 ((ChildType*)(this))
 3923              		.loc 10 374 13 view .LVU900
 3924 01c0 C4BB     		cbnz	r4, .L304
 3925              	.L258:
 3926              	.LVL283:
 379:../libs/PoliTeKDSP/libs/libDaisy/src/hid/disp/display.h ****             {
 3927              		.loc 10 379 13 view .LVU901
 3928 01c2 9C45     		cmp	ip, r3
 3929 01c4 58DB     		blt	.L275
 3930              	.L306:
 381:../libs/PoliTeKDSP/libs/libDaisy/src/hid/disp/display.h ****                 err = err + (t_y * 2 + 1);
 3931              		.loc 10 381 17 view .LVU902
 3932 01c6 0CF1010C 		add	ip, ip, #1
 3933              	.LVL284:
 382:../libs/PoliTeKDSP/libs/libDaisy/src/hid/disp/display.h ****                 if(-t_x == t_y && e2 <= t_x)
 3934              		.loc 10 382 38 view .LVU903
 3935 01ca 03EB4C0E 		add	lr, r3, ip, lsl #1
 383:../libs/PoliTeKDSP/libs/libDaisy/src/hid/disp/display.h ****                 {
 3936              		.loc 10 383 17 view .LVU904
 3937 01ce 1CEB000F 		cmn	ip, r0
 382:../libs/PoliTeKDSP/libs/libDaisy/src/hid/disp/display.h ****                 if(-t_x == t_y && e2 <= t_x)
 3938              		.loc 10 382 21 view .LVU905
 3939 01d2 0EF1010E 		add	lr, lr, #1
 3940              	.LVL285:
 383:../libs/PoliTeKDSP/libs/libDaisy/src/hid/disp/display.h ****                 {
 3941              		.loc 10 383 17 view .LVU906
 3942 01d6 00F0C080 		beq	.L305
 3943              	.LVL286:
 3944              	.L260:
 388:../libs/PoliTeKDSP/libs/libDaisy/src/hid/disp/display.h ****             {
 3945              		.loc 10 388 13 view .LVU907
 3946 01da 9842     		cmp	r0, r3
 3947 01dc 4FDB     		blt	.L261
 3948              	.L276:
 388:../libs/PoliTeKDSP/libs/libDaisy/src/hid/disp/display.h ****             {
 3949              		.loc 10 388 13 view .LVU908
 3950 01de 7346     		mov	r3, lr
 3951              	.LVL287:
 3952              	.L262:
 393:../libs/PoliTeKDSP/libs/libDaisy/src/hid/disp/display.h ****     }
 3953              		.loc 10 393 21 is_stmt 1 view .LVU909
 3954 01e0 0028     		cmp	r0, #0
 3955 01e2 7FF779AF 		ble	.L264
 3956              	.LVL288:
 3957              	.L235:
 394:../libs/PoliTeKDSP/libs/libDaisy/src/hid/disp/display.h **** 
 3958              		.loc 10 394 5 is_stmt 0 view .LVU910
 3959 01e6 03B0     		add	sp, sp, #12
 3960              		.cfi_remember_state
 3961              		.cfi_def_cfa_offset 60
ARM GAS  C:\Users\matte\AppData\Local\Temp\ccj2OJiD.s 			page 120


 3962              		@ sp needed
 3963 01e8 BDEC068B 		vldm	sp!, {d8-d10}
 3964              		.cfi_restore 84
 3965              		.cfi_restore 85
 3966              		.cfi_restore 82
 3967              		.cfi_restore 83
 3968              		.cfi_restore 80
 3969              		.cfi_restore 81
 3970              		.cfi_def_cfa_offset 36
 3971              	.LVL289:
 394:../libs/PoliTeKDSP/libs/libDaisy/src/hid/disp/display.h **** 
 3972              		.loc 10 394 5 view .LVU911
 3973 01ec BDE8F08F 		pop	{r4, r5, r6, r7, r8, r9, r10, fp, pc}
 3974              	.LVL290:
 3975              	.L303:
 3976              		.cfi_restore_state
 373:../libs/PoliTeKDSP/libs/libDaisy/src/hid/disp/display.h ****             if(d4)
 3977              		.loc 10 373 43 view .LVU912
 3978 01f0 009D     		ldr	r5, [sp]
 3979 01f2 A6EB0C0E 		sub	lr, r6, ip
 3980 01f6 00EB050A 		add	r10, r0, r5
 3981              	.LVL291:
 3982              	.LBB1327:
 3983              	.LBI1327:
  42:../libs/PoliTeKDSP/libs/libDaisy/src/hid/disp/oled_display.h ****     {
 3984              		.loc 9 42 10 is_stmt 1 view .LVU913
 3985              	.LBB1328:
 3986              	.LBI1328:
 340:Display/../../libs/PoliTeKDSP/libs/libDaisy/src/dev/oled_ssd130x.h ****     {
 3987              		.loc 11 340 10 view .LVU914
 3988              	.LBB1329:
 342:Display/../../libs/PoliTeKDSP/libs/libDaisy/src/dev/oled_ssd130x.h ****             return;
 3989              		.loc 11 342 9 is_stmt 0 view .LVU915
 3990 01fa BAF17F0F 		cmp	r10, #127
 3991 01fe DFD8     		bhi	.L256
 3992 0200 BEF13F0F 		cmp	lr, #63
 3993 0204 DCD8     		bhi	.L256
 345:Display/../../libs/PoliTeKDSP/libs/libDaisy/src/dev/oled_ssd130x.h ****         else
 3994              		.loc 11 345 28 view .LVU916
 3995 0206 4FEADE0B 		lsr	fp, lr, #3
 344:Display/../../libs/PoliTeKDSP/libs/libDaisy/src/dev/oled_ssd130x.h ****             buffer_[x + (y / 8) * width] |= (1 << (y % 8));
 3996              		.loc 11 344 9 view .LVU917
 3997 020a 019D     		ldr	r5, [sp, #4]
 345:Display/../../libs/PoliTeKDSP/libs/libDaisy/src/dev/oled_ssd130x.h ****         else
 3998              		.loc 11 345 42 view .LVU918
 3999 020c 0AEBCB1A 		add	r10, r10, fp, lsl #7
 4000              	.LVL292:
 344:Display/../../libs/PoliTeKDSP/libs/libDaisy/src/dev/oled_ssd130x.h ****             buffer_[x + (y / 8) * width] |= (1 << (y % 8));
 4001              		.loc 11 344 9 view .LVU919
 4002 0210 002D     		cmp	r5, #0
 4003 0212 00F0B180 		beq	.L257
 345:Display/../../libs/PoliTeKDSP/libs/libDaisy/src/dev/oled_ssd130x.h ****         else
 4004              		.loc 11 345 54 view .LVU920
 4005 0216 0EF0070B 		and	fp, lr, #7
 345:Display/../../libs/PoliTeKDSP/libs/libDaisy/src/dev/oled_ssd130x.h ****         else
 4006              		.loc 11 345 42 view .LVU921
 4007 021a C244     		add	r10, r10, r8
ARM GAS  C:\Users\matte\AppData\Local\Temp\ccj2OJiD.s 			page 121


 345:Display/../../libs/PoliTeKDSP/libs/libDaisy/src/dev/oled_ssd130x.h ****         else
 4008              		.loc 11 345 48 view .LVU922
 4009 021c 4FF0010E 		mov	lr, #1
 4010              	.LVL293:
 345:Display/../../libs/PoliTeKDSP/libs/libDaisy/src/dev/oled_ssd130x.h ****         else
 4011              		.loc 11 345 48 view .LVU923
 4012 0220 0EFA0BFE 		lsl	lr, lr, fp
 345:Display/../../libs/PoliTeKDSP/libs/libDaisy/src/dev/oled_ssd130x.h ****         else
 4013              		.loc 11 345 42 view .LVU924
 4014 0224 9AF810B0 		ldrb	fp, [r10, #16]	@ zero_extendqisi2
 4015 0228 4EEA0B0E 		orr	lr, lr, fp
 4016 022c 8AF810E0 		strb	lr, [r10, #16]
 4017              	.LVL294:
 345:Display/../../libs/PoliTeKDSP/libs/libDaisy/src/dev/oled_ssd130x.h ****         else
 4018              		.loc 11 345 42 view .LVU925
 4019              	.LBE1329:
 4020              	.LBE1328:
 4021              	.LBE1327:
 374:../libs/PoliTeKDSP/libs/libDaisy/src/hid/disp/display.h ****                 ((ChildType*)(this))
 4022              		.loc 10 374 13 view .LVU926
 4023 0230 002C     		cmp	r4, #0
 4024 0232 C6D0     		beq	.L258
 4025              	.L304:
 376:../libs/PoliTeKDSP/libs/libDaisy/src/hid/disp/display.h **** 
 4026              		.loc 10 376 43 view .LVU927
 4027 0234 009D     		ldr	r5, [sp]
 4028 0236 A6EB0C0E 		sub	lr, r6, ip
 4029 023a A5EB000A 		sub	r10, r5, r0
 4030              	.LVL295:
 4031              	.LBB1334:
 4032              	.LBI1334:
  42:../libs/PoliTeKDSP/libs/libDaisy/src/hid/disp/oled_display.h ****     {
 4033              		.loc 9 42 10 is_stmt 1 view .LVU928
 4034              	.LBB1335:
 4035              	.LBI1335:
 340:Display/../../libs/PoliTeKDSP/libs/libDaisy/src/dev/oled_ssd130x.h ****     {
 4036              		.loc 11 340 10 view .LVU929
 4037              	.LBB1336:
 342:Display/../../libs/PoliTeKDSP/libs/libDaisy/src/dev/oled_ssd130x.h ****             return;
 4038              		.loc 11 342 9 is_stmt 0 view .LVU930
 4039 023e BAF17F0F 		cmp	r10, #127
 4040 0242 BED8     		bhi	.L258
 4041 0244 BEF13F0F 		cmp	lr, #63
 4042 0248 BBD8     		bhi	.L258
 345:Display/../../libs/PoliTeKDSP/libs/libDaisy/src/dev/oled_ssd130x.h ****         else
 4043              		.loc 11 345 28 view .LVU931
 4044 024a 4FEADE0B 		lsr	fp, lr, #3
 344:Display/../../libs/PoliTeKDSP/libs/libDaisy/src/dev/oled_ssd130x.h ****             buffer_[x + (y / 8) * width] |= (1 << (y % 8));
 4045              		.loc 11 344 9 view .LVU932
 4046 024e 019D     		ldr	r5, [sp, #4]
 345:Display/../../libs/PoliTeKDSP/libs/libDaisy/src/dev/oled_ssd130x.h ****         else
 4047              		.loc 11 345 42 view .LVU933
 4048 0250 0AEBCB1A 		add	r10, r10, fp, lsl #7
 4049              	.LVL296:
 344:Display/../../libs/PoliTeKDSP/libs/libDaisy/src/dev/oled_ssd130x.h ****             buffer_[x + (y / 8) * width] |= (1 << (y % 8));
 4050              		.loc 11 344 9 view .LVU934
 4051 0254 002D     		cmp	r5, #0
ARM GAS  C:\Users\matte\AppData\Local\Temp\ccj2OJiD.s 			page 122


 4052 0256 00F0AE80 		beq	.L259
 345:Display/../../libs/PoliTeKDSP/libs/libDaisy/src/dev/oled_ssd130x.h ****         else
 4053              		.loc 11 345 54 view .LVU935
 4054 025a 0EF0070B 		and	fp, lr, #7
 345:Display/../../libs/PoliTeKDSP/libs/libDaisy/src/dev/oled_ssd130x.h ****         else
 4055              		.loc 11 345 42 view .LVU936
 4056 025e C244     		add	r10, r10, r8
 345:Display/../../libs/PoliTeKDSP/libs/libDaisy/src/dev/oled_ssd130x.h ****         else
 4057              		.loc 11 345 48 view .LVU937
 4058 0260 4FF0010E 		mov	lr, #1
 4059              	.LVL297:
 345:Display/../../libs/PoliTeKDSP/libs/libDaisy/src/dev/oled_ssd130x.h ****         else
 4060              		.loc 11 345 48 view .LVU938
 4061              	.LBE1336:
 4062              	.LBE1335:
 4063              	.LBE1334:
 379:../libs/PoliTeKDSP/libs/libDaisy/src/hid/disp/display.h ****             {
 4064              		.loc 10 379 13 view .LVU939
 4065 0264 9C45     		cmp	ip, r3
 4066              	.LBB1343:
 4067              	.LBB1341:
 4068              	.LBB1339:
 345:Display/../../libs/PoliTeKDSP/libs/libDaisy/src/dev/oled_ssd130x.h ****         else
 4069              		.loc 11 345 48 view .LVU940
 4070 0266 0EFA0BFE 		lsl	lr, lr, fp
 345:Display/../../libs/PoliTeKDSP/libs/libDaisy/src/dev/oled_ssd130x.h ****         else
 4071              		.loc 11 345 42 view .LVU941
 4072 026a 9AF810B0 		ldrb	fp, [r10, #16]	@ zero_extendqisi2
 4073 026e 4EEA0B0E 		orr	lr, lr, fp
 4074 0272 8AF810E0 		strb	lr, [r10, #16]
 4075              	.LVL298:
 345:Display/../../libs/PoliTeKDSP/libs/libDaisy/src/dev/oled_ssd130x.h ****         else
 4076              		.loc 11 345 42 view .LVU942
 4077              	.LBE1339:
 4078              	.LBE1341:
 4079              	.LBE1343:
 379:../libs/PoliTeKDSP/libs/libDaisy/src/hid/disp/display.h ****             {
 4080              		.loc 10 379 13 view .LVU943
 4081 0276 A6DA     		bge	.L306
 4082              	.L275:
 388:../libs/PoliTeKDSP/libs/libDaisy/src/hid/disp/display.h ****             {
 4083              		.loc 10 388 13 view .LVU944
 4084 0278 9842     		cmp	r0, r3
 4085 027a 9E46     		mov	lr, r3
 4086              	.LVL299:
 388:../libs/PoliTeKDSP/libs/libDaisy/src/hid/disp/display.h ****             {
 4087              		.loc 10 388 13 view .LVU945
 4088 027c AFDA     		bge	.L276
 4089              	.LVL300:
 4090              	.L261:
 390:../libs/PoliTeKDSP/libs/libDaisy/src/hid/disp/display.h ****                 err = err + (t_x * 2 + 1);
 4091              		.loc 10 390 17 view .LVU946
 4092 027e 0130     		adds	r0, r0, #1
 4093              	.LVL301:
 391:../libs/PoliTeKDSP/libs/libDaisy/src/hid/disp/display.h ****             }
 4094              		.loc 10 391 38 view .LVU947
 4095 0280 0EEB4003 		add	r3, lr, r0, lsl #1
ARM GAS  C:\Users\matte\AppData\Local\Temp\ccj2OJiD.s 			page 123


 391:../libs/PoliTeKDSP/libs/libDaisy/src/hid/disp/display.h ****             }
 4096              		.loc 10 391 21 view .LVU948
 4097 0284 0133     		adds	r3, r3, #1
 4098              	.LVL302:
 391:../libs/PoliTeKDSP/libs/libDaisy/src/hid/disp/display.h ****             }
 4099              		.loc 10 391 21 view .LVU949
 4100 0286 ABE7     		b	.L262
 4101              	.L302:
 370:../libs/PoliTeKDSP/libs/libDaisy/src/hid/disp/display.h ****             if(d3)
 4102              		.loc 10 370 43 view .LVU950
 4103 0288 009D     		ldr	r5, [sp]
 4104 028a 0CEB060E 		add	lr, ip, r6
 4105 028e 00EB050A 		add	r10, r0, r5
 4106              	.LVL303:
 4107              	.LBB1344:
 4108              	.LBI1344:
  42:../libs/PoliTeKDSP/libs/libDaisy/src/hid/disp/oled_display.h ****     {
 4109              		.loc 9 42 10 is_stmt 1 view .LVU951
 4110              	.LBB1345:
 4111              	.LBI1345:
 340:Display/../../libs/PoliTeKDSP/libs/libDaisy/src/dev/oled_ssd130x.h ****     {
 4112              		.loc 11 340 10 view .LVU952
 4113              	.LBB1346:
 342:Display/../../libs/PoliTeKDSP/libs/libDaisy/src/dev/oled_ssd130x.h ****             return;
 4114              		.loc 11 342 9 is_stmt 0 view .LVU953
 4115 0292 BAF17F0F 		cmp	r10, #127
 4116 0296 92D8     		bhi	.L254
 4117 0298 BEF13F0F 		cmp	lr, #63
 4118 029c 8FD8     		bhi	.L254
 345:Display/../../libs/PoliTeKDSP/libs/libDaisy/src/dev/oled_ssd130x.h ****         else
 4119              		.loc 11 345 28 view .LVU954
 4120 029e 4FEADE0B 		lsr	fp, lr, #3
 344:Display/../../libs/PoliTeKDSP/libs/libDaisy/src/dev/oled_ssd130x.h ****             buffer_[x + (y / 8) * width] |= (1 << (y % 8));
 4121              		.loc 11 344 9 view .LVU955
 4122 02a2 019D     		ldr	r5, [sp, #4]
 345:Display/../../libs/PoliTeKDSP/libs/libDaisy/src/dev/oled_ssd130x.h ****         else
 4123              		.loc 11 345 42 view .LVU956
 4124 02a4 0AEBCB1A 		add	r10, r10, fp, lsl #7
 4125              	.LVL304:
 344:Display/../../libs/PoliTeKDSP/libs/libDaisy/src/dev/oled_ssd130x.h ****             buffer_[x + (y / 8) * width] |= (1 << (y % 8));
 4126              		.loc 11 344 9 view .LVU957
 4127 02a8 002D     		cmp	r5, #0
 4128 02aa 73D0     		beq	.L255
 345:Display/../../libs/PoliTeKDSP/libs/libDaisy/src/dev/oled_ssd130x.h ****         else
 4129              		.loc 11 345 54 view .LVU958
 4130 02ac 0EF0070B 		and	fp, lr, #7
 345:Display/../../libs/PoliTeKDSP/libs/libDaisy/src/dev/oled_ssd130x.h ****         else
 4131              		.loc 11 345 42 view .LVU959
 4132 02b0 C244     		add	r10, r10, r8
 345:Display/../../libs/PoliTeKDSP/libs/libDaisy/src/dev/oled_ssd130x.h ****         else
 4133              		.loc 11 345 48 view .LVU960
 4134 02b2 4FF0010E 		mov	lr, #1
 4135              	.LVL305:
 345:Display/../../libs/PoliTeKDSP/libs/libDaisy/src/dev/oled_ssd130x.h ****         else
 4136              		.loc 11 345 48 view .LVU961
 4137 02b6 0EFA0BFE 		lsl	lr, lr, fp
 345:Display/../../libs/PoliTeKDSP/libs/libDaisy/src/dev/oled_ssd130x.h ****         else
ARM GAS  C:\Users\matte\AppData\Local\Temp\ccj2OJiD.s 			page 124


 4138              		.loc 11 345 42 view .LVU962
 4139 02ba 9AF810B0 		ldrb	fp, [r10, #16]	@ zero_extendqisi2
 4140 02be 4EEA0B0E 		orr	lr, lr, fp
 4141 02c2 8AF810E0 		strb	lr, [r10, #16]
 4142              	.LVL306:
 345:Display/../../libs/PoliTeKDSP/libs/libDaisy/src/dev/oled_ssd130x.h ****         else
 4143              		.loc 11 345 42 view .LVU963
 4144              	.LBE1346:
 4145              	.LBE1345:
 4146              	.LBE1344:
 371:../libs/PoliTeKDSP/libs/libDaisy/src/hid/disp/display.h ****                 ((ChildType*)(this))
 4147              		.loc 10 371 13 view .LVU964
 4148 02c6 002F     		cmp	r7, #0
 4149 02c8 3FF47AAF 		beq	.L256
 4150 02cc 90E7     		b	.L303
 4151              	.L301:
 367:../libs/PoliTeKDSP/libs/libDaisy/src/hid/disp/display.h ****             if(d2)
 4152              		.loc 10 367 43 view .LVU965
 4153 02ce 009D     		ldr	r5, [sp]
 4154 02d0 0CEB060E 		add	lr, ip, r6
 4155 02d4 A5EB000A 		sub	r10, r5, r0
 4156              	.LVL307:
 4157              	.LBB1351:
 4158              	.LBI1351:
  42:../libs/PoliTeKDSP/libs/libDaisy/src/hid/disp/oled_display.h ****     {
 4159              		.loc 9 42 10 is_stmt 1 view .LVU966
 4160              	.LBB1352:
 4161              	.LBI1352:
 340:Display/../../libs/PoliTeKDSP/libs/libDaisy/src/dev/oled_ssd130x.h ****     {
 4162              		.loc 11 340 10 view .LVU967
 4163              	.LBB1353:
 342:Display/../../libs/PoliTeKDSP/libs/libDaisy/src/dev/oled_ssd130x.h ****             return;
 4164              		.loc 11 342 9 is_stmt 0 view .LVU968
 4165 02d8 BAF17F0F 		cmp	r10, #127
 4166 02dc 3FF66DAF 		bhi	.L252
 4167 02e0 BEF13F0F 		cmp	lr, #63
 4168 02e4 3FF669AF 		bhi	.L252
 345:Display/../../libs/PoliTeKDSP/libs/libDaisy/src/dev/oled_ssd130x.h ****         else
 4169              		.loc 11 345 28 view .LVU969
 4170 02e8 4FEADE0B 		lsr	fp, lr, #3
 344:Display/../../libs/PoliTeKDSP/libs/libDaisy/src/dev/oled_ssd130x.h ****             buffer_[x + (y / 8) * width] |= (1 << (y % 8));
 4171              		.loc 11 344 9 view .LVU970
 4172 02ec 019D     		ldr	r5, [sp, #4]
 345:Display/../../libs/PoliTeKDSP/libs/libDaisy/src/dev/oled_ssd130x.h ****         else
 4173              		.loc 11 345 42 view .LVU971
 4174 02ee 0AEBCB1A 		add	r10, r10, fp, lsl #7
 4175              	.LVL308:
 344:Display/../../libs/PoliTeKDSP/libs/libDaisy/src/dev/oled_ssd130x.h ****             buffer_[x + (y / 8) * width] |= (1 << (y % 8));
 4176              		.loc 11 344 9 view .LVU972
 4177 02f2 002D     		cmp	r5, #0
 4178 02f4 6DD0     		beq	.L253
 345:Display/../../libs/PoliTeKDSP/libs/libDaisy/src/dev/oled_ssd130x.h ****         else
 4179              		.loc 11 345 54 view .LVU973
 4180 02f6 0EF0070B 		and	fp, lr, #7
 345:Display/../../libs/PoliTeKDSP/libs/libDaisy/src/dev/oled_ssd130x.h ****         else
 4181              		.loc 11 345 42 view .LVU974
 4182 02fa C244     		add	r10, r10, r8
ARM GAS  C:\Users\matte\AppData\Local\Temp\ccj2OJiD.s 			page 125


 345:Display/../../libs/PoliTeKDSP/libs/libDaisy/src/dev/oled_ssd130x.h ****         else
 4183              		.loc 11 345 48 view .LVU975
 4184 02fc 4FF0010E 		mov	lr, #1
 4185              	.LVL309:
 345:Display/../../libs/PoliTeKDSP/libs/libDaisy/src/dev/oled_ssd130x.h ****         else
 4186              		.loc 11 345 48 view .LVU976
 4187 0300 0EFA0BFE 		lsl	lr, lr, fp
 345:Display/../../libs/PoliTeKDSP/libs/libDaisy/src/dev/oled_ssd130x.h ****         else
 4188              		.loc 11 345 42 view .LVU977
 4189 0304 9AF810B0 		ldrb	fp, [r10, #16]	@ zero_extendqisi2
 4190 0308 4EEA0B0E 		orr	lr, lr, fp
 4191 030c 8AF810E0 		strb	lr, [r10, #16]
 4192              	.LVL310:
 345:Display/../../libs/PoliTeKDSP/libs/libDaisy/src/dev/oled_ssd130x.h ****         else
 4193              		.loc 11 345 42 view .LVU978
 4194              	.LBE1353:
 4195              	.LBE1352:
 4196              	.LBE1351:
 368:../libs/PoliTeKDSP/libs/libDaisy/src/hid/disp/display.h ****                 ((ChildType*)(this))
 4197              		.loc 10 368 13 view .LVU979
 4198 0310 0029     		cmp	r1, #0
 4199 0312 3FF454AF 		beq	.L254
 4200 0316 B7E7     		b	.L302
 4201              	.LVL311:
 4202              	.L241:
 358:../libs/PoliTeKDSP/libs/libDaisy/src/hid/disp/display.h ****                     d2 = (t_sxy - t_syx < 0 && t_exy - t_eyx > 0);
 4203              		.loc 10 358 46 view .LVU980
 4204 0318 F1EE10FA 		vmrs	APSR_nzcv, FPSCR
 4205 031c 7ED4     		bmi	.L307
 4206 031e 4A46     		mov	r2, r9
 4207              	.L245:
 4208              	.LVL312:
 359:../libs/PoliTeKDSP/libs/libDaisy/src/hid/disp/display.h ****                     d3 = (t_sxny - t_syx < 0 && t_exny - t_eyx > 0);
 4209              		.loc 10 359 33 discriminator 6 view .LVU981
 4210 0320 74EEC54A 		vsub.f32	s9, s9, s10
 4211              	.LVL313:
 359:../libs/PoliTeKDSP/libs/libDaisy/src/hid/disp/display.h ****                     d3 = (t_sxny - t_syx < 0 && t_exny - t_eyx > 0);
 4212              		.loc 10 359 45 discriminator 6 view .LVU982
 4213 0324 F5EEC04A 		vcmpe.f32	s9, #0
 4214 0328 F1EE10FA 		vmrs	APSR_nzcv, FPSCR
 4215 032c 6CD4     		bmi	.L308
 359:../libs/PoliTeKDSP/libs/libDaisy/src/hid/disp/display.h ****                     d3 = (t_sxny - t_syx < 0 && t_exny - t_eyx > 0);
 4216              		.loc 10 359 45 view .LVU983
 4217 032e 0021     		movs	r1, #0
 4218              	.LVL314:
 4219              	.L247:
 360:../libs/PoliTeKDSP/libs/libDaisy/src/hid/disp/display.h ****                     d4 = (t_sxny - t_synx < 0 && t_exny - t_eynx > 0);
 4220              		.loc 10 360 34 discriminator 6 view .LVU984
 4221 0330 35EEC55A 		vsub.f32	s10, s11, s10
 4222              	.LVL315:
 360:../libs/PoliTeKDSP/libs/libDaisy/src/hid/disp/display.h ****                     d4 = (t_sxny - t_synx < 0 && t_exny - t_eynx > 0);
 4223              		.loc 10 360 46 discriminator 6 view .LVU985
 4224 0334 B5EEC05A 		vcmpe.f32	s10, #0
 4225 0338 F1EE10FA 		vmrs	APSR_nzcv, FPSCR
 4226 033c 5AD4     		bmi	.L309
 360:../libs/PoliTeKDSP/libs/libDaisy/src/hid/disp/display.h ****                     d4 = (t_sxny - t_synx < 0 && t_exny - t_eynx > 0);
 4227              		.loc 10 360 46 view .LVU986
ARM GAS  C:\Users\matte\AppData\Local\Temp\ccj2OJiD.s 			page 126


 4228 033e 0027     		movs	r7, #0
 4229              	.LVL316:
 4230              	.L249:
 361:../libs/PoliTeKDSP/libs/libDaisy/src/hid/disp/display.h ****                 }
 4231              		.loc 10 361 34 discriminator 6 view .LVU987
 4232 0340 75EEC45A 		vsub.f32	s11, s11, s8
 4233              	.LVL317:
 361:../libs/PoliTeKDSP/libs/libDaisy/src/hid/disp/display.h ****                 }
 4234              		.loc 10 361 47 discriminator 6 view .LVU988
 4235 0344 F5EEC05A 		vcmpe.f32	s11, #0
 4236 0348 F1EE10FA 		vmrs	APSR_nzcv, FPSCR
 4237 034c 3FF529AF 		bmi	.L300
 361:../libs/PoliTeKDSP/libs/libDaisy/src/hid/disp/display.h ****                 }
 4238              		.loc 10 361 47 view .LVU989
 4239 0350 0024     		movs	r4, #0
 4240              	.LVL318:
 365:../libs/PoliTeKDSP/libs/libDaisy/src/hid/disp/display.h ****                 ((ChildType*)(this))
 4241              		.loc 10 365 13 view .LVU990
 4242 0352 002A     		cmp	r2, #0
 4243 0354 3FF431AF 		beq	.L252
 4244 0358 B9E7     		b	.L301
 4245              	.LVL319:
 4246              	.L305:
 383:../libs/PoliTeKDSP/libs/libDaisy/src/hid/disp/display.h ****                 {
 4247              		.loc 10 383 32 discriminator 1 view .LVU991
 4248 035a 9842     		cmp	r0, r3
 4249 035c 8FDB     		blt	.L261
 385:../libs/PoliTeKDSP/libs/libDaisy/src/hid/disp/display.h ****                 }
 4250              		.loc 10 385 24 view .LVU992
 4251 035e 0023     		movs	r3, #0
 4252              	.LVL320:
 385:../libs/PoliTeKDSP/libs/libDaisy/src/hid/disp/display.h ****                 }
 4253              		.loc 10 385 24 view .LVU993
 4254 0360 3BE7     		b	.L260
 4255              	.L313:
 4256 0362 00BFAFF3 		.align	3
 4256      0080
 4257              	.L312:
 4258 0368 7A008BFC 		.word	-57999238
 4259 036c FA210940 		.word	1074340346
 4260 0370 00000000 		.word	0
 4261 0374 00806640 		.word	1080459264
 4262              	.LVL321:
 4263              	.L257:
 4264              	.LBB1358:
 4265              	.LBB1333:
 4266              	.LBB1332:
 4267              	.LBB1330:
 4268              	.LBI1330:
 340:Display/../../libs/PoliTeKDSP/libs/libDaisy/src/dev/oled_ssd130x.h ****     {
 4269              		.loc 11 340 10 is_stmt 1 view .LVU994
 4270              	.LBB1331:
 347:Display/../../libs/PoliTeKDSP/libs/libDaisy/src/dev/oled_ssd130x.h ****     }
 4271              		.loc 11 347 42 is_stmt 0 view .LVU995
 4272 0378 C244     		add	r10, r10, r8
 4273              	.LVL322:
 347:Display/../../libs/PoliTeKDSP/libs/libDaisy/src/dev/oled_ssd130x.h ****     }
ARM GAS  C:\Users\matte\AppData\Local\Temp\ccj2OJiD.s 			page 127


 4274              		.loc 11 347 49 view .LVU996
 4275 037a 4FF0010B 		mov	fp, #1
 4276              	.LVL323:
 347:Display/../../libs/PoliTeKDSP/libs/libDaisy/src/dev/oled_ssd130x.h ****     }
 4277              		.loc 11 347 55 view .LVU997
 4278 037e 0EF0070E 		and	lr, lr, #7
 4279              	.LVL324:
 347:Display/../../libs/PoliTeKDSP/libs/libDaisy/src/dev/oled_ssd130x.h ****     }
 4280              		.loc 11 347 49 view .LVU998
 4281 0382 0BFA0EFE 		lsl	lr, fp, lr
 347:Display/../../libs/PoliTeKDSP/libs/libDaisy/src/dev/oled_ssd130x.h ****     }
 4282              		.loc 11 347 42 view .LVU999
 4283 0386 9AF810B0 		ldrb	fp, [r10, #16]	@ zero_extendqisi2
 4284 038a 2BEA0E0E 		bic	lr, fp, lr
 4285 038e 8AF810E0 		strb	lr, [r10, #16]
 4286              	.LVL325:
 347:Display/../../libs/PoliTeKDSP/libs/libDaisy/src/dev/oled_ssd130x.h ****     }
 4287              		.loc 11 347 42 view .LVU1000
 4288 0392 15E7     		b	.L256
 4289              	.LVL326:
 4290              	.L255:
 347:Display/../../libs/PoliTeKDSP/libs/libDaisy/src/dev/oled_ssd130x.h ****     }
 4291              		.loc 11 347 42 view .LVU1001
 4292              	.LBE1331:
 4293              	.LBE1330:
 4294              	.LBE1332:
 4295              	.LBE1333:
 4296              	.LBE1358:
 4297              	.LBB1359:
 4298              	.LBB1350:
 4299              	.LBB1349:
 4300              	.LBB1347:
 4301              	.LBI1347:
 340:Display/../../libs/PoliTeKDSP/libs/libDaisy/src/dev/oled_ssd130x.h ****     {
 4302              		.loc 11 340 10 is_stmt 1 view .LVU1002
 4303              	.LBB1348:
 347:Display/../../libs/PoliTeKDSP/libs/libDaisy/src/dev/oled_ssd130x.h ****     }
 4304              		.loc 11 347 42 is_stmt 0 view .LVU1003
 4305 0394 C244     		add	r10, r10, r8
 4306              	.LVL327:
 347:Display/../../libs/PoliTeKDSP/libs/libDaisy/src/dev/oled_ssd130x.h ****     }
 4307              		.loc 11 347 49 view .LVU1004
 4308 0396 4FF0010B 		mov	fp, #1
 4309              	.LVL328:
 347:Display/../../libs/PoliTeKDSP/libs/libDaisy/src/dev/oled_ssd130x.h ****     }
 4310              		.loc 11 347 55 view .LVU1005
 4311 039a 0EF0070E 		and	lr, lr, #7
 4312              	.LVL329:
 347:Display/../../libs/PoliTeKDSP/libs/libDaisy/src/dev/oled_ssd130x.h ****     }
 4313              		.loc 11 347 49 view .LVU1006
 4314 039e 0BFA0EFE 		lsl	lr, fp, lr
 347:Display/../../libs/PoliTeKDSP/libs/libDaisy/src/dev/oled_ssd130x.h ****     }
 4315              		.loc 11 347 42 view .LVU1007
 4316 03a2 9AF810B0 		ldrb	fp, [r10, #16]	@ zero_extendqisi2
 4317 03a6 2BEA0E0E 		bic	lr, fp, lr
 4318 03aa 8AF810E0 		strb	lr, [r10, #16]
 4319              	.LVL330:
ARM GAS  C:\Users\matte\AppData\Local\Temp\ccj2OJiD.s 			page 128


 347:Display/../../libs/PoliTeKDSP/libs/libDaisy/src/dev/oled_ssd130x.h ****     }
 4320              		.loc 11 347 42 view .LVU1008
 4321              	.LBE1348:
 4322              	.LBE1347:
 4323              	.LBE1349:
 4324              	.LBE1350:
 4325              	.LBE1359:
 371:../libs/PoliTeKDSP/libs/libDaisy/src/hid/disp/display.h ****                 ((ChildType*)(this))
 4326              		.loc 10 371 13 view .LVU1009
 4327 03ae 002F     		cmp	r7, #0
 4328 03b0 3FF406AF 		beq	.L256
 4329 03b4 1CE7     		b	.L303
 4330              	.LVL331:
 4331              	.L259:
 4332              	.LBB1360:
 4333              	.LBB1342:
 4334              	.LBB1340:
 4335              	.LBB1337:
 4336              	.LBI1337:
 340:Display/../../libs/PoliTeKDSP/libs/libDaisy/src/dev/oled_ssd130x.h ****     {
 4337              		.loc 11 340 10 is_stmt 1 view .LVU1010
 4338              	.LBB1338:
 347:Display/../../libs/PoliTeKDSP/libs/libDaisy/src/dev/oled_ssd130x.h ****     }
 4339              		.loc 11 347 42 is_stmt 0 view .LVU1011
 4340 03b6 C244     		add	r10, r10, r8
 4341              	.LVL332:
 347:Display/../../libs/PoliTeKDSP/libs/libDaisy/src/dev/oled_ssd130x.h ****     }
 4342              		.loc 11 347 49 view .LVU1012
 4343 03b8 4FF0010B 		mov	fp, #1
 4344              	.LVL333:
 347:Display/../../libs/PoliTeKDSP/libs/libDaisy/src/dev/oled_ssd130x.h ****     }
 4345              		.loc 11 347 55 view .LVU1013
 4346 03bc 0EF0070E 		and	lr, lr, #7
 4347              	.LVL334:
 347:Display/../../libs/PoliTeKDSP/libs/libDaisy/src/dev/oled_ssd130x.h ****     }
 4348              		.loc 11 347 49 view .LVU1014
 4349 03c0 0BFA0EFE 		lsl	lr, fp, lr
 347:Display/../../libs/PoliTeKDSP/libs/libDaisy/src/dev/oled_ssd130x.h ****     }
 4350              		.loc 11 347 42 view .LVU1015
 4351 03c4 9AF810B0 		ldrb	fp, [r10, #16]	@ zero_extendqisi2
 4352 03c8 2BEA0E0E 		bic	lr, fp, lr
 4353 03cc 8AF810E0 		strb	lr, [r10, #16]
 4354              	.LVL335:
 347:Display/../../libs/PoliTeKDSP/libs/libDaisy/src/dev/oled_ssd130x.h ****     }
 4355              		.loc 11 347 42 view .LVU1016
 4356 03d0 F7E6     		b	.L258
 4357              	.LVL336:
 4358              	.L253:
 347:Display/../../libs/PoliTeKDSP/libs/libDaisy/src/dev/oled_ssd130x.h ****     }
 4359              		.loc 11 347 42 view .LVU1017
 4360              	.LBE1338:
 4361              	.LBE1337:
 4362              	.LBE1340:
 4363              	.LBE1342:
 4364              	.LBE1360:
 4365              	.LBB1361:
 4366              	.LBB1357:
ARM GAS  C:\Users\matte\AppData\Local\Temp\ccj2OJiD.s 			page 129


 4367              	.LBB1356:
 4368              	.LBB1354:
 4369              	.LBI1354:
 340:Display/../../libs/PoliTeKDSP/libs/libDaisy/src/dev/oled_ssd130x.h ****     {
 4370              		.loc 11 340 10 is_stmt 1 view .LVU1018
 4371              	.LBB1355:
 347:Display/../../libs/PoliTeKDSP/libs/libDaisy/src/dev/oled_ssd130x.h ****     }
 4372              		.loc 11 347 42 is_stmt 0 view .LVU1019
 4373 03d2 C244     		add	r10, r10, r8
 4374              	.LVL337:
 347:Display/../../libs/PoliTeKDSP/libs/libDaisy/src/dev/oled_ssd130x.h ****     }
 4375              		.loc 11 347 49 view .LVU1020
 4376 03d4 4FF0010B 		mov	fp, #1
 4377              	.LVL338:
 347:Display/../../libs/PoliTeKDSP/libs/libDaisy/src/dev/oled_ssd130x.h ****     }
 4378              		.loc 11 347 55 view .LVU1021
 4379 03d8 0EF0070E 		and	lr, lr, #7
 4380              	.LVL339:
 347:Display/../../libs/PoliTeKDSP/libs/libDaisy/src/dev/oled_ssd130x.h ****     }
 4381              		.loc 11 347 49 view .LVU1022
 4382 03dc 0BFA0EFE 		lsl	lr, fp, lr
 347:Display/../../libs/PoliTeKDSP/libs/libDaisy/src/dev/oled_ssd130x.h ****     }
 4383              		.loc 11 347 42 view .LVU1023
 4384 03e0 9AF810B0 		ldrb	fp, [r10, #16]	@ zero_extendqisi2
 4385 03e4 2BEA0E0E 		bic	lr, fp, lr
 4386 03e8 8AF810E0 		strb	lr, [r10, #16]
 4387              	.LVL340:
 347:Display/../../libs/PoliTeKDSP/libs/libDaisy/src/dev/oled_ssd130x.h ****     }
 4388              		.loc 11 347 42 view .LVU1024
 4389              	.LBE1355:
 4390              	.LBE1354:
 4391              	.LBE1356:
 4392              	.LBE1357:
 4393              	.LBE1361:
 368:../libs/PoliTeKDSP/libs/libDaisy/src/hid/disp/display.h ****                 ((ChildType*)(this))
 4394              		.loc 10 368 13 view .LVU1025
 4395 03ec 0029     		cmp	r1, #0
 4396 03ee 3FF4E6AE 		beq	.L254
 4397 03f2 49E7     		b	.L302
 4398              	.LVL341:
 4399              	.L309:
 360:../libs/PoliTeKDSP/libs/libDaisy/src/hid/disp/display.h ****                     d4 = (t_sxny - t_synx < 0 && t_exny - t_eynx > 0);
 4400              		.loc 10 360 56 discriminator 1 view .LVU1026
 4401 03f4 77EEE66A 		vsub.f32	s13, s15, s13
 4402              	.LVL342:
 360:../libs/PoliTeKDSP/libs/libDaisy/src/hid/disp/display.h ****                     d4 = (t_sxny - t_synx < 0 && t_exny - t_eynx > 0);
 4403              		.loc 10 360 46 discriminator 1 view .LVU1027
 4404 03f8 F5EEC06A 		vcmpe.f32	s13, #0
 4405 03fc F1EE10FA 		vmrs	APSR_nzcv, FPSCR
 4406 0400 CCBF     		ite	gt
 4407 0402 0127     		movgt	r7, #1
 4408              	.LVL343:
 360:../libs/PoliTeKDSP/libs/libDaisy/src/hid/disp/display.h ****                     d4 = (t_sxny - t_synx < 0 && t_exny - t_eynx > 0);
 4409              		.loc 10 360 46 discriminator 1 view .LVU1028
 4410 0404 0027     		movle	r7, #0
 4411 0406 9BE7     		b	.L249
 4412              	.LVL344:
ARM GAS  C:\Users\matte\AppData\Local\Temp\ccj2OJiD.s 			page 130


 4413              	.L308:
 359:../libs/PoliTeKDSP/libs/libDaisy/src/hid/disp/display.h ****                     d3 = (t_sxny - t_syx < 0 && t_exny - t_eyx > 0);
 4414              		.loc 10 359 54 discriminator 1 view .LVU1029
 4415 0408 36EE666A 		vsub.f32	s12, s12, s13
 4416              	.LVL345:
 359:../libs/PoliTeKDSP/libs/libDaisy/src/hid/disp/display.h ****                     d3 = (t_sxny - t_syx < 0 && t_exny - t_eyx > 0);
 4417              		.loc 10 359 45 discriminator 1 view .LVU1030
 4418 040c B5EEC06A 		vcmpe.f32	s12, #0
 4419 0410 F1EE10FA 		vmrs	APSR_nzcv, FPSCR
 4420 0414 CCBF     		ite	gt
 4421 0416 0121     		movgt	r1, #1
 4422 0418 0021     		movle	r1, #0
 4423 041a 89E7     		b	.L247
 4424              	.LVL346:
 4425              	.L307:
 358:../libs/PoliTeKDSP/libs/libDaisy/src/hid/disp/display.h ****                     d2 = (t_sxy - t_syx < 0 && t_exy - t_eyx > 0);
 4426              		.loc 10 358 55 discriminator 1 view .LVU1031
 4427 041c 76EE473A 		vsub.f32	s7, s12, s14
 358:../libs/PoliTeKDSP/libs/libDaisy/src/hid/disp/display.h ****                     d2 = (t_sxy - t_syx < 0 && t_exy - t_eyx > 0);
 4428              		.loc 10 358 46 discriminator 1 view .LVU1032
 4429 0420 F5EEC03A 		vcmpe.f32	s7, #0
 4430 0424 F1EE10FA 		vmrs	APSR_nzcv, FPSCR
 4431 0428 CCBF     		ite	gt
 4432 042a 0122     		movgt	r2, #1
 4433 042c 0022     		movle	r2, #0
 4434 042e 77E7     		b	.L245
 4435              	.LVL347:
 4436              	.L270:
 354:../libs/PoliTeKDSP/libs/libDaisy/src/hid/disp/display.h ****                 }
 4437              		.loc 10 354 47 view .LVU1033
 4438 0430 0124     		movs	r4, #1
 4439              	.LVL348:
 365:../libs/PoliTeKDSP/libs/libDaisy/src/hid/disp/display.h ****                 ((ChildType*)(this))
 4440              		.loc 10 365 13 view .LVU1034
 4441 0432 002A     		cmp	r2, #0
 4442 0434 3FF4C1AE 		beq	.L252
 365:../libs/PoliTeKDSP/libs/libDaisy/src/hid/disp/display.h ****                 ((ChildType*)(this))
 4443              		.loc 10 365 13 view .LVU1035
 4444 0438 49E7     		b	.L301
 4445              	.LVL349:
 4446              	.L267:
 352:../libs/PoliTeKDSP/libs/libDaisy/src/hid/disp/display.h ****                     d3 = (t_sxny - t_syx < 0 || t_exny - t_eyx > 0);
 4447              		.loc 10 352 33 view .LVU1036
 4448 043a 74EEC54A 		vsub.f32	s9, s9, s10
 4449              	.LVL350:
 351:../libs/PoliTeKDSP/libs/libDaisy/src/hid/disp/display.h ****                     d2 = (t_sxy - t_syx < 0 || t_exy - t_eyx > 0);
 4450              		.loc 10 351 46 view .LVU1037
 4451 043e 0122     		movs	r2, #1
 4452              	.LVL351:
 352:../libs/PoliTeKDSP/libs/libDaisy/src/hid/disp/display.h ****                     d3 = (t_sxny - t_syx < 0 || t_exny - t_eyx > 0);
 4453              		.loc 10 352 45 view .LVU1038
 4454 0440 F5EEC04A 		vcmpe.f32	s9, #0
 4455 0444 F1EE10FA 		vmrs	APSR_nzcv, FPSCR
 4456 0448 7FF589AE 		bpl	.L310
 4457              	.L268:
 353:../libs/PoliTeKDSP/libs/libDaisy/src/hid/disp/display.h ****                     d4 = (t_sxny - t_synx < 0 || t_exny - t_eynx > 0);
 4458              		.loc 10 353 34 view .LVU1039
ARM GAS  C:\Users\matte\AppData\Local\Temp\ccj2OJiD.s 			page 131


 4459 044c 35EEC55A 		vsub.f32	s10, s11, s10
 4460              	.LVL352:
 352:../libs/PoliTeKDSP/libs/libDaisy/src/hid/disp/display.h ****                     d3 = (t_sxny - t_syx < 0 || t_exny - t_eyx > 0);
 4461              		.loc 10 352 45 view .LVU1040
 4462 0450 0121     		movs	r1, #1
 4463              	.LVL353:
 353:../libs/PoliTeKDSP/libs/libDaisy/src/hid/disp/display.h ****                     d4 = (t_sxny - t_synx < 0 || t_exny - t_eynx > 0);
 4464              		.loc 10 353 46 view .LVU1041
 4465 0452 B5EEC05A 		vcmpe.f32	s10, #0
 4466 0456 F1EE10FA 		vmrs	APSR_nzcv, FPSCR
 4467 045a 7FF591AE 		bpl	.L311
 4468              	.LVL354:
 4469              	.L269:
 353:../libs/PoliTeKDSP/libs/libDaisy/src/hid/disp/display.h ****                     d4 = (t_sxny - t_synx < 0 || t_exny - t_eynx > 0);
 4470              		.loc 10 353 46 view .LVU1042
 4471 045e 0127     		movs	r7, #1
 4472              	.LVL355:
 353:../libs/PoliTeKDSP/libs/libDaisy/src/hid/disp/display.h ****                     d4 = (t_sxny - t_synx < 0 || t_exny - t_eynx > 0);
 4473              		.loc 10 353 46 view .LVU1043
 4474 0460 97E6     		b	.L244
 4475              	.LVL356:
 4476              	.L236:
 308:../libs/PoliTeKDSP/libs/libDaisy/src/hid/disp/display.h ****             sweep = -sweep;
 4477              		.loc 10 308 25 view .LVU1044
 4478 0462 DDE91223 		ldrd	r2, r3, [sp, #72]
 4479              	.LVL357:
 308:../libs/PoliTeKDSP/libs/libDaisy/src/hid/disp/display.h ****             sweep = -sweep;
 4480              		.loc 10 308 25 view .LVU1045
 4481 0466 1344     		add	r3, r3, r2
 4482              	.LVL358:
 308:../libs/PoliTeKDSP/libs/libDaisy/src/hid/disp/display.h ****             sweep = -sweep;
 4483              		.loc 10 308 25 view .LVU1046
 4484 0468 06EE102A 		vmov	s12, r2	@ int
 4485 046c 1293     		str	r3, [sp, #72]
 4486 046e 139B     		ldr	r3, [sp, #76]
 4487              	.LVL359:
 308:../libs/PoliTeKDSP/libs/libDaisy/src/hid/disp/display.h ****             sweep = -sweep;
 4488              		.loc 10 308 25 view .LVU1047
 4489 0470 5B42     		rsbs	r3, r3, #0
 4490 0472 1393     		str	r3, [sp, #76]
 4491              	.LVL360:
 308:../libs/PoliTeKDSP/libs/libDaisy/src/hid/disp/display.h ****             sweep = -sweep;
 4492              		.loc 10 308 25 view .LVU1048
 4493 0474 D8E5     		b	.L237
 4494              		.cfi_endproc
 4495              	.LFE5623:
 4497 0476 00BF     		.section	.text._ZN5daisy25OneBitGraphicsDisplayImplINS_11OledDisplayINS_13SSD130xDriverILj128ELj64
 4498              		.align	1
 4499              		.p2align 2,,3
 4500              		.weak	_ZN5daisy25OneBitGraphicsDisplayImplINS_11OledDisplayINS_13SSD130xDriverILj128ELj64ENS_19SSD
 4501              		.syntax unified
 4502              		.thumb
 4503              		.thumb_func
 4504              		.fpu fpv5-d16
 4506              	_ZN5daisy25OneBitGraphicsDisplayImplINS_11OledDisplayINS_13SSD130xDriverILj128ELj64ENS_19SSD130xI2C
 4507              	.LVL361:
 4508              	.LFB5622:
ARM GAS  C:\Users\matte\AppData\Local\Temp\ccj2OJiD.s 			page 132


 257:../libs/PoliTeKDSP/libs/libDaisy/src/hid/disp/display.h ****                   uint_fast8_t y1,
 4509              		.loc 10 257 10 is_stmt 1 view -0
 4510              		.cfi_startproc
 4511              		@ args = 12, pretend = 0, frame = 24
 4512              		@ frame_needed = 0, uses_anonymous_args = 0
 257:../libs/PoliTeKDSP/libs/libDaisy/src/hid/disp/display.h ****                   uint_fast8_t y1,
 4513              		.loc 10 257 10 is_stmt 0 view .LVU1050
 4514 0000 2DE9F04F 		push	{r4, r5, r6, r7, r8, r9, r10, fp, lr}
 4515              		.cfi_def_cfa_offset 36
 4516              		.cfi_offset 4, -36
 4517              		.cfi_offset 5, -32
 4518              		.cfi_offset 6, -28
 4519              		.cfi_offset 7, -24
 4520              		.cfi_offset 8, -20
 4521              		.cfi_offset 9, -16
 4522              		.cfi_offset 10, -12
 4523              		.cfi_offset 11, -8
 4524              		.cfi_offset 14, -4
 4525 0004 87B0     		sub	sp, sp, #28
 4526              		.cfi_def_cfa_offset 64
 257:../libs/PoliTeKDSP/libs/libDaisy/src/hid/disp/display.h ****                   uint_fast8_t y1,
 4527              		.loc 10 257 10 view .LVU1051
 4528 0006 9DF84850 		ldrb	r5, [sp, #72]	@ zero_extendqisi2
 4529 000a 109C     		ldr	r4, [sp, #64]
 4530 000c 2E46     		mov	r6, r5
 4531 000e 0195     		str	r5, [sp, #4]
 4532 0010 9DF84450 		ldrb	r5, [sp, #68]	@ zero_extendqisi2
 4533              	.LBB1431:
 264:../libs/PoliTeKDSP/libs/libDaisy/src/hid/disp/display.h ****         {
 4534              		.loc 10 264 9 view .LVU1052
 4535 0014 9EB3     		cbz	r6, .L315
 4536              	.LVL362:
 264:../libs/PoliTeKDSP/libs/libDaisy/src/hid/disp/display.h ****         {
 4537              		.loc 10 264 9 view .LVU1053
 4538              	.LBE1431:
 4539              	.LBB1553:
 4540              	.LBB1554:
 266:../libs/PoliTeKDSP/libs/libDaisy/src/hid/disp/display.h ****             {
 4541              		.loc 10 266 40 is_stmt 1 view .LVU1054
 4542 0016 9942     		cmp	r1, r3
 4543 0018 2ED8     		bhi	.L314
 4544 001a 9946     		mov	r9, r3
 4545              	.LVL363:
 4546              	.L318:
 4547              	.LBB1555:
 268:../libs/PoliTeKDSP/libs/libDaisy/src/hid/disp/display.h ****                 {
 4548              		.loc 10 268 44 view .LVU1055
 4549 001c A242     		cmp	r2, r4
 4550 001e 28D8     		bhi	.L321
 4551              	.LBB1556:
 4552              	.LBB1557:
 4553              	.LBB1558:
 342:Display/../../libs/PoliTeKDSP/libs/libDaisy/src/dev/oled_ssd130x.h ****             return;
 4554              		.loc 11 342 14 is_stmt 0 view .LVU1056
 4555 0020 7F29     		cmp	r1, #127
 4556 0022 1646     		mov	r6, r2
 4557 0024 94BF     		ite	ls
ARM GAS  C:\Users\matte\AppData\Local\Temp\ccj2OJiD.s 			page 133


 4558 0026 0023     		movls	r3, #0
 4559 0028 0123     		movhi	r3, #1
 4560 002a 08E0     		b	.L322
 4561              	.LVL364:
 4562              	.L405:
 345:Display/../../libs/PoliTeKDSP/libs/libDaisy/src/dev/oled_ssd130x.h ****         else
 4563              		.loc 11 345 42 view .LVU1057
 4564 002c 9CF81080 		ldrb	r8, [ip, #16]	@ zero_extendqisi2
 4565 0030 4EEA080E 		orr	lr, lr, r8
 4566 0034 8CF810E0 		strb	lr, [ip, #16]
 4567              	.LVL365:
 4568              	.L319:
 345:Display/../../libs/PoliTeKDSP/libs/libDaisy/src/dev/oled_ssd130x.h ****         else
 4569              		.loc 11 345 42 view .LVU1058
 4570              	.LBE1558:
 4571              	.LBE1557:
 4572              	.LBE1556:
 268:../libs/PoliTeKDSP/libs/libDaisy/src/hid/disp/display.h ****                 {
 4573              		.loc 10 268 17 is_stmt 1 view .LVU1059
 4574 0038 0136     		adds	r6, r6, #1
 4575              	.LVL366:
 268:../libs/PoliTeKDSP/libs/libDaisy/src/hid/disp/display.h ****                 {
 4576              		.loc 10 268 44 view .LVU1060
 4577 003a B442     		cmp	r4, r6
 4578 003c 19D3     		bcc	.L321
 4579              	.L322:
 4580              	.LVL367:
 4581              	.LBB1572:
 4582              	.LBI1556:
  42:../libs/PoliTeKDSP/libs/libDaisy/src/hid/disp/oled_display.h ****     {
 4583              		.loc 9 42 10 view .LVU1061
 4584              	.LBB1569:
 4585              	.LBI1557:
 340:Display/../../libs/PoliTeKDSP/libs/libDaisy/src/dev/oled_ssd130x.h ****     {
 4586              		.loc 11 340 10 view .LVU1062
 4587              	.LBB1566:
 342:Display/../../libs/PoliTeKDSP/libs/libDaisy/src/dev/oled_ssd130x.h ****             return;
 4588              		.loc 11 342 9 is_stmt 0 view .LVU1063
 4589 003e 3F2E     		cmp	r6, #63
 4590 0040 FAD8     		bhi	.L319
 342:Display/../../libs/PoliTeKDSP/libs/libDaisy/src/dev/oled_ssd130x.h ****             return;
 4591              		.loc 11 342 9 view .LVU1064
 4592 0042 002B     		cmp	r3, #0
 4593 0044 F8D1     		bne	.L319
 4594              	.LVL368:
 4595              	.LBB1559:
 4596              	.LBI1559:
 340:Display/../../libs/PoliTeKDSP/libs/libDaisy/src/dev/oled_ssd130x.h ****     {
 4597              		.loc 11 340 10 is_stmt 1 view .LVU1065
 340:Display/../../libs/PoliTeKDSP/libs/libDaisy/src/dev/oled_ssd130x.h ****     {
 4598              		.loc 11 340 10 is_stmt 0 view .LVU1066
 4599              	.LBE1559:
 345:Display/../../libs/PoliTeKDSP/libs/libDaisy/src/dev/oled_ssd130x.h ****         else
 4600              		.loc 11 345 28 view .LVU1067
 4601 0046 4FEAD60C 		lsr	ip, r6, #3
 345:Display/../../libs/PoliTeKDSP/libs/libDaisy/src/dev/oled_ssd130x.h ****         else
 4602              		.loc 11 345 54 view .LVU1068
ARM GAS  C:\Users\matte\AppData\Local\Temp\ccj2OJiD.s 			page 134


 4603 004a 06F0070E 		and	lr, r6, #7
 345:Display/../../libs/PoliTeKDSP/libs/libDaisy/src/dev/oled_ssd130x.h ****         else
 4604              		.loc 11 345 48 view .LVU1069
 4605 004e 4FF00108 		mov	r8, #1
 345:Display/../../libs/PoliTeKDSP/libs/libDaisy/src/dev/oled_ssd130x.h ****         else
 4606              		.loc 11 345 42 view .LVU1070
 4607 0052 01EBCC1C 		add	ip, r1, ip, lsl #7
 345:Display/../../libs/PoliTeKDSP/libs/libDaisy/src/dev/oled_ssd130x.h ****         else
 4608              		.loc 11 345 48 view .LVU1071
 4609 0056 08FA0EFE 		lsl	lr, r8, lr
 345:Display/../../libs/PoliTeKDSP/libs/libDaisy/src/dev/oled_ssd130x.h ****         else
 4610              		.loc 11 345 42 view .LVU1072
 4611 005a 8444     		add	ip, ip, r0
 344:Display/../../libs/PoliTeKDSP/libs/libDaisy/src/dev/oled_ssd130x.h ****             buffer_[x + (y / 8) * width] |= (1 << (y % 8));
 4612              		.loc 11 344 9 view .LVU1073
 4613 005c 002D     		cmp	r5, #0
 4614 005e E5D1     		bne	.L405
 4615              	.LBB1563:
 4616              	.LBB1560:
 347:Display/../../libs/PoliTeKDSP/libs/libDaisy/src/dev/oled_ssd130x.h ****     }
 4617              		.loc 11 347 42 view .LVU1074
 4618 0060 9CF810B0 		ldrb	fp, [ip, #16]	@ zero_extendqisi2
 4619              	.LBE1560:
 4620              	.LBE1563:
 4621              	.LBE1566:
 4622              	.LBE1569:
 4623              	.LBE1572:
 268:../libs/PoliTeKDSP/libs/libDaisy/src/hid/disp/display.h ****                 {
 4624              		.loc 10 268 17 view .LVU1075
 4625 0064 0136     		adds	r6, r6, #1
 4626              	.LVL369:
 4627              	.LBB1573:
 4628              	.LBB1570:
 4629              	.LBB1567:
 4630              	.LBB1564:
 4631              	.LBB1561:
 347:Display/../../libs/PoliTeKDSP/libs/libDaisy/src/dev/oled_ssd130x.h ****     }
 4632              		.loc 11 347 42 view .LVU1076
 4633 0066 2BEA0E0A 		bic	r10, fp, lr
 4634              	.LBE1561:
 4635              	.LBE1564:
 4636              	.LBE1567:
 4637              	.LBE1570:
 4638              	.LBE1573:
 268:../libs/PoliTeKDSP/libs/libDaisy/src/hid/disp/display.h ****                 {
 4639              		.loc 10 268 44 view .LVU1077
 4640 006a B442     		cmp	r4, r6
 4641              	.LBB1574:
 4642              	.LBB1571:
 4643              	.LBB1568:
 4644              	.LBB1565:
 4645              	.LBB1562:
 347:Display/../../libs/PoliTeKDSP/libs/libDaisy/src/dev/oled_ssd130x.h ****     }
 4646              		.loc 11 347 42 view .LVU1078
 4647 006c 8CF810A0 		strb	r10, [ip, #16]
 4648              	.LVL370:
 347:Display/../../libs/PoliTeKDSP/libs/libDaisy/src/dev/oled_ssd130x.h ****     }
ARM GAS  C:\Users\matte\AppData\Local\Temp\ccj2OJiD.s 			page 135


 4649              		.loc 11 347 42 view .LVU1079
 4650              	.LBE1562:
 4651              	.LBE1565:
 4652              	.LBE1568:
 4653              	.LBE1571:
 4654              	.LBE1574:
 268:../libs/PoliTeKDSP/libs/libDaisy/src/hid/disp/display.h ****                 {
 4655              		.loc 10 268 17 is_stmt 1 view .LVU1080
 268:../libs/PoliTeKDSP/libs/libDaisy/src/hid/disp/display.h ****                 {
 4656              		.loc 10 268 44 view .LVU1081
 4657 0070 E5D2     		bcs	.L322
 4658              	.LVL371:
 4659              	.L321:
 268:../libs/PoliTeKDSP/libs/libDaisy/src/hid/disp/display.h ****                 {
 4660              		.loc 10 268 44 is_stmt 0 view .LVU1082
 4661              	.LBE1555:
 266:../libs/PoliTeKDSP/libs/libDaisy/src/hid/disp/display.h ****             {
 4662              		.loc 10 266 13 is_stmt 1 view .LVU1083
 4663 0072 0131     		adds	r1, r1, #1
 4664              	.LVL372:
 266:../libs/PoliTeKDSP/libs/libDaisy/src/hid/disp/display.h ****             {
 4665              		.loc 10 266 40 view .LVU1084
 4666 0074 8945     		cmp	r9, r1
 4667 0076 D1D2     		bcs	.L318
 4668              	.LVL373:
 4669              	.L314:
 266:../libs/PoliTeKDSP/libs/libDaisy/src/hid/disp/display.h ****             {
 4670              		.loc 10 266 40 is_stmt 0 view .LVU1085
 4671              	.LBE1554:
 4672              	.LBE1553:
 281:../libs/PoliTeKDSP/libs/libDaisy/src/hid/disp/display.h **** 
 4673              		.loc 10 281 5 view .LVU1086
 4674 0078 07B0     		add	sp, sp, #28
 4675              		.cfi_remember_state
 4676              		.cfi_def_cfa_offset 36
 4677              		@ sp needed
 4678 007a BDE8F08F 		pop	{r4, r5, r6, r7, r8, r9, r10, fp, pc}
 4679              	.LVL374:
 4680              	.L315:
 4681              		.cfi_restore_state
 4682              	.LBB1575:
 4683              	.LBB1432:
 4684              	.LBI1432:
 221:../libs/PoliTeKDSP/libs/libDaisy/src/hid/disp/display.h ****                   uint_fast8_t y1,
 4685              		.loc 10 221 10 is_stmt 1 view .LVU1087
 4686              	.LBB1433:
 227:../libs/PoliTeKDSP/libs/libDaisy/src/hid/disp/display.h ****         int_fast16_t deltaY = abs((int_fast16_t)y2 - (int_fast16_t)y1);
 4687              		.loc 10 227 52 is_stmt 0 view .LVU1088
 4688 007e A3EB0108 		sub	r8, r3, r1
 227:../libs/PoliTeKDSP/libs/libDaisy/src/hid/disp/display.h ****         int_fast16_t deltaY = abs((int_fast16_t)y2 - (int_fast16_t)y1);
 4689              		.loc 10 227 22 view .LVU1089
 4690 0082 B8F1000F 		cmp	r8, #0
 4691 0086 B8BF     		it	lt
 4692 0088 C8F10008 		rsblt	r8, r8, #0
 4693              	.LVL375:
 229:../libs/PoliTeKDSP/libs/libDaisy/src/hid/disp/display.h ****         int_fast16_t signY  = ((y1 < y2) ? 1 : -1);
 4694              		.loc 10 229 42 view .LVU1090
ARM GAS  C:\Users\matte\AppData\Local\Temp\ccj2OJiD.s 			page 136


 4695 008c 9942     		cmp	r1, r3
 4696 008e C0F04E81 		bcc	.L323
 4697              	.LVL376:
 4698              	.LBB1434:
 4699              	.LBI1434:
  42:../libs/PoliTeKDSP/libs/libDaisy/src/hid/disp/oled_display.h ****     {
 4700              		.loc 9 42 10 is_stmt 1 view .LVU1091
 4701              	.LBB1435:
 4702              	.LBI1435:
 340:Display/../../libs/PoliTeKDSP/libs/libDaisy/src/dev/oled_ssd130x.h ****     {
 4703              		.loc 11 340 10 view .LVU1092
 4704              	.LBB1436:
 342:Display/../../libs/PoliTeKDSP/libs/libDaisy/src/dev/oled_ssd130x.h ****             return;
 4705              		.loc 11 342 14 is_stmt 0 view .LVU1093
 4706 0092 7F2B     		cmp	r3, #127
 4707              	.LBE1436:
 4708              	.LBE1435:
 4709              	.LBE1434:
 229:../libs/PoliTeKDSP/libs/libDaisy/src/hid/disp/display.h ****         int_fast16_t signY  = ((y1 < y2) ? 1 : -1);
 4710              		.loc 10 229 42 view .LVU1094
 4711 0094 4FF0FF3A 		mov	r10, #-1
 4712              	.LBB1447:
 4713              	.LBB1443:
 4714              	.LBB1439:
 342:Display/../../libs/PoliTeKDSP/libs/libDaisy/src/dev/oled_ssd130x.h ****             return;
 4715              		.loc 11 342 14 view .LVU1095
 4716 0098 94BF     		ite	ls
 4717 009a 0026     		movls	r6, #0
 4718 009c 0126     		movhi	r6, #1
 342:Display/../../libs/PoliTeKDSP/libs/libDaisy/src/dev/oled_ssd130x.h ****             return;
 4719              		.loc 11 342 28 view .LVU1096
 4720 009e 3F2A     		cmp	r2, #63
 342:Display/../../libs/PoliTeKDSP/libs/libDaisy/src/dev/oled_ssd130x.h ****             return;
 4721              		.loc 11 342 14 view .LVU1097
 4722 00a0 0096     		str	r6, [sp]
 342:Display/../../libs/PoliTeKDSP/libs/libDaisy/src/dev/oled_ssd130x.h ****             return;
 4723              		.loc 11 342 28 view .LVU1098
 4724 00a2 94BF     		ite	ls
 4725 00a4 0027     		movls	r7, #0
 4726 00a6 0127     		movhi	r7, #1
 4727 00a8 0297     		str	r7, [sp, #8]
 342:Display/../../libs/PoliTeKDSP/libs/libDaisy/src/dev/oled_ssd130x.h ****             return;
 4728              		.loc 11 342 9 view .LVU1099
 4729 00aa A6B9     		cbnz	r6, .L324
 4730 00ac 9FB9     		cbnz	r7, .L324
 4731              	.LVL377:
 4732              	.L365:
 345:Display/../../libs/PoliTeKDSP/libs/libDaisy/src/dev/oled_ssd130x.h ****         else
 4733              		.loc 11 345 28 view .LVU1100
 4734 00ae D608     		lsrs	r6, r2, #3
 345:Display/../../libs/PoliTeKDSP/libs/libDaisy/src/dev/oled_ssd130x.h ****         else
 4735              		.loc 11 345 54 view .LVU1101
 4736 00b0 02F0070C 		and	ip, r2, #7
 345:Display/../../libs/PoliTeKDSP/libs/libDaisy/src/dev/oled_ssd130x.h ****         else
 4737              		.loc 11 345 48 view .LVU1102
 4738 00b4 0127     		movs	r7, #1
 345:Display/../../libs/PoliTeKDSP/libs/libDaisy/src/dev/oled_ssd130x.h ****         else
ARM GAS  C:\Users\matte\AppData\Local\Temp\ccj2OJiD.s 			page 137


 4739              		.loc 11 345 42 view .LVU1103
 4740 00b6 03EBC616 		add	r6, r3, r6, lsl #7
 4741 00ba 0644     		add	r6, r6, r0
 344:Display/../../libs/PoliTeKDSP/libs/libDaisy/src/dev/oled_ssd130x.h ****             buffer_[x + (y / 8) * width] |= (1 << (y % 8));
 4742              		.loc 11 344 9 view .LVU1104
 4743 00bc 002D     		cmp	r5, #0
 4744 00be 00F09481 		beq	.L325
 345:Display/../../libs/PoliTeKDSP/libs/libDaisy/src/dev/oled_ssd130x.h ****         else
 4745              		.loc 11 345 48 view .LVU1105
 4746 00c2 07FA0CF7 		lsl	r7, r7, ip
 345:Display/../../libs/PoliTeKDSP/libs/libDaisy/src/dev/oled_ssd130x.h ****         else
 4747              		.loc 11 345 42 view .LVU1106
 4748 00c6 96F810C0 		ldrb	ip, [r6, #16]	@ zero_extendqisi2
 4749 00ca 47EA0C07 		orr	r7, r7, ip
 4750 00ce 3774     		strb	r7, [r6, #16]
 4751 00d0 0026     		movs	r6, #0
 4752 00d2 0296     		str	r6, [sp, #8]
 4753 00d4 0096     		str	r6, [sp]
 4754              	.L324:
 4755              	.LVL378:
 345:Display/../../libs/PoliTeKDSP/libs/libDaisy/src/dev/oled_ssd130x.h ****         else
 4756              		.loc 11 345 42 view .LVU1107
 4757              	.LBE1439:
 4758              	.LBE1443:
 4759              	.LBE1447:
 239:../libs/PoliTeKDSP/libs/libDaisy/src/hid/disp/display.h ****         {
 4760              		.loc 10 239 26 is_stmt 1 view .LVU1108
 4761 00d6 9942     		cmp	r1, r3
 4762 00d8 00F09781 		beq	.L406
 4763              	.L327:
 4764              	.LVL379:
 227:../libs/PoliTeKDSP/libs/libDaisy/src/hid/disp/display.h ****         int_fast16_t deltaY = abs((int_fast16_t)y2 - (int_fast16_t)y1);
 4765              		.loc 10 227 22 is_stmt 0 view .LVU1109
 4766 00dc 4646     		mov	r6, r8
 4767 00de 9446     		mov	ip, r2
 4768 00e0 8E46     		mov	lr, r1
 4769              	.LVL380:
 4770              	.L329:
 4771              	.LBB1448:
 4772              	.LBI1448:
  42:../libs/PoliTeKDSP/libs/libDaisy/src/hid/disp/oled_display.h ****     {
 4773              		.loc 9 42 10 is_stmt 1 view .LVU1110
 4774              	.LBB1449:
 4775              	.LBI1449:
 340:Display/../../libs/PoliTeKDSP/libs/libDaisy/src/dev/oled_ssd130x.h ****     {
 4776              		.loc 11 340 10 view .LVU1111
 4777              	.LBB1450:
 342:Display/../../libs/PoliTeKDSP/libs/libDaisy/src/dev/oled_ssd130x.h ****             return;
 4778              		.loc 11 342 9 is_stmt 0 view .LVU1112
 4779 00e2 BEF17F0F 		cmp	lr, #127
 4780 00e6 16D8     		bhi	.L330
 4781 00e8 BCF13F0F 		cmp	ip, #63
 4782 00ec 13D8     		bhi	.L330
 345:Display/../../libs/PoliTeKDSP/libs/libDaisy/src/dev/oled_ssd130x.h ****         else
 4783              		.loc 11 345 28 view .LVU1113
 4784 00ee 4FEADC07 		lsr	r7, ip, #3
 345:Display/../../libs/PoliTeKDSP/libs/libDaisy/src/dev/oled_ssd130x.h ****         else
ARM GAS  C:\Users\matte\AppData\Local\Temp\ccj2OJiD.s 			page 138


 4785              		.loc 11 345 54 view .LVU1114
 4786 00f2 0CF0070B 		and	fp, ip, #7
 345:Display/../../libs/PoliTeKDSP/libs/libDaisy/src/dev/oled_ssd130x.h ****         else
 4787              		.loc 11 345 48 view .LVU1115
 4788 00f6 4FF00109 		mov	r9, #1
 345:Display/../../libs/PoliTeKDSP/libs/libDaisy/src/dev/oled_ssd130x.h ****         else
 4789              		.loc 11 345 42 view .LVU1116
 4790 00fa 0EEBC717 		add	r7, lr, r7, lsl #7
 4791 00fe 0744     		add	r7, r7, r0
 344:Display/../../libs/PoliTeKDSP/libs/libDaisy/src/dev/oled_ssd130x.h ****             buffer_[x + (y / 8) * width] |= (1 << (y % 8));
 4792              		.loc 11 344 9 view .LVU1117
 4793 0100 002D     		cmp	r5, #0
 4794 0102 00F03981 		beq	.L331
 345:Display/../../libs/PoliTeKDSP/libs/libDaisy/src/dev/oled_ssd130x.h ****         else
 4795              		.loc 11 345 48 view .LVU1118
 4796 0106 09FA0BF9 		lsl	r9, r9, fp
 345:Display/../../libs/PoliTeKDSP/libs/libDaisy/src/dev/oled_ssd130x.h ****         else
 4797              		.loc 11 345 42 view .LVU1119
 4798 010a 97F810B0 		ldrb	fp, [r7, #16]	@ zero_extendqisi2
 4799 010e 49EA0B09 		orr	r9, r9, fp
 4800 0112 87F81090 		strb	r9, [r7, #16]
 4801              	.L330:
 4802              	.LVL381:
 345:Display/../../libs/PoliTeKDSP/libs/libDaisy/src/dev/oled_ssd130x.h ****         else
 4803              		.loc 11 345 42 view .LVU1120
 4804              	.LBE1450:
 4805              	.LBE1449:
 4806              	.LBE1448:
 243:../libs/PoliTeKDSP/libs/libDaisy/src/hid/disp/display.h ****             {
 4807              		.loc 10 243 13 view .LVU1121
 4808 0116 7700     		lsls	r7, r6, #1
 4809              	.LVL382:
 246:../libs/PoliTeKDSP/libs/libDaisy/src/hid/disp/display.h ****             }
 4810              		.loc 10 246 20 view .LVU1122
 4811 0118 18BF     		it	ne
 4812 011a D644     		addne	lr, lr, r10
 4813              	.LVL383:
 249:../libs/PoliTeKDSP/libs/libDaisy/src/hid/disp/display.h ****             {
 4814              		.loc 10 249 13 view .LVU1123
 4815 011c B845     		cmp	r8, r7
 4816 011e 02DD     		ble	.L333
 251:../libs/PoliTeKDSP/libs/libDaisy/src/hid/disp/display.h ****                 y1 += signY;
 4817              		.loc 10 251 23 view .LVU1124
 4818 0120 4644     		add	r6, r6, r8
 4819              	.LVL384:
 252:../libs/PoliTeKDSP/libs/libDaisy/src/hid/disp/display.h ****             }
 4820              		.loc 10 252 20 view .LVU1125
 4821 0122 0CF1FF3C 		add	ip, ip, #-1
 4822              	.LVL385:
 4823              	.L333:
 239:../libs/PoliTeKDSP/libs/libDaisy/src/hid/disp/display.h ****         {
 4824              		.loc 10 239 26 is_stmt 1 view .LVU1126
 4825 0126 7345     		cmp	r3, lr
 4826 0128 DBD1     		bne	.L329
 239:../libs/PoliTeKDSP/libs/libDaisy/src/hid/disp/display.h ****         {
 4827              		.loc 10 239 26 is_stmt 0 view .LVU1127
 4828 012a 6245     		cmp	r2, ip
ARM GAS  C:\Users\matte\AppData\Local\Temp\ccj2OJiD.s 			page 139


 4829 012c D9D1     		bne	.L329
 4830 012e 0026     		movs	r6, #0
 4831              	.LVL386:
 239:../libs/PoliTeKDSP/libs/libDaisy/src/hid/disp/display.h ****         {
 4832              		.loc 10 239 26 view .LVU1128
 4833 0130 0496     		str	r6, [sp, #16]
 4834              	.LVL387:
 4835              	.L326:
 239:../libs/PoliTeKDSP/libs/libDaisy/src/hid/disp/display.h ****         {
 4836              		.loc 10 239 26 view .LVU1129
 4837              	.LBE1433:
 4838              	.LBE1432:
 4839              	.LBB1463:
 4840              	.LBI1463:
 221:../libs/PoliTeKDSP/libs/libDaisy/src/hid/disp/display.h ****                   uint_fast8_t y1,
 4841              		.loc 10 221 10 is_stmt 1 view .LVU1130
 4842              	.LBB1464:
 228:../libs/PoliTeKDSP/libs/libDaisy/src/hid/disp/display.h ****         int_fast16_t signX  = ((x1 < x2) ? 1 : -1);
 4843              		.loc 10 228 52 is_stmt 0 view .LVU1131
 4844 0132 A4EB0209 		sub	r9, r4, r2
 4845              	.LBB1465:
 4846              	.LBB1466:
 4847              	.LBB1467:
 342:Display/../../libs/PoliTeKDSP/libs/libDaisy/src/dev/oled_ssd130x.h ****             return;
 4848              		.loc 11 342 9 view .LVU1132
 4849 0136 009F     		ldr	r7, [sp]
 4850              	.LBE1467:
 4851              	.LBE1466:
 4852              	.LBE1465:
 228:../libs/PoliTeKDSP/libs/libDaisy/src/hid/disp/display.h ****         int_fast16_t signX  = ((x1 < x2) ? 1 : -1);
 4853              		.loc 10 228 22 view .LVU1133
 4854 0138 B9F1000F 		cmp	r9, #0
 4855 013c B8BF     		it	lt
 4856 013e C9F10009 		rsblt	r9, r9, #0
 4857              	.LVL388:
 4858              	.LBB1482:
 4859              	.LBB1476:
 4860              	.LBB1470:
 342:Display/../../libs/PoliTeKDSP/libs/libDaisy/src/dev/oled_ssd130x.h ****             return;
 4861              		.loc 11 342 28 view .LVU1134
 4862 0142 3F2C     		cmp	r4, #63
 4863 0144 94BF     		ite	ls
 4864 0146 0026     		movls	r6, #0
 4865 0148 0126     		movhi	r6, #1
 4866              	.LBE1470:
 4867              	.LBE1476:
 4868              	.LBE1482:
 230:../libs/PoliTeKDSP/libs/libDaisy/src/hid/disp/display.h ****         int_fast16_t error  = deltaX - deltaY;
 4869              		.loc 10 230 42 view .LVU1135
 4870 014a A242     		cmp	r2, r4
 231:../libs/PoliTeKDSP/libs/libDaisy/src/hid/disp/display.h ****         int_fast16_t error2;
 4871              		.loc 10 231 22 view .LVU1136
 4872 014c C9F10008 		rsb	r8, r9, #0
 4873              	.LVL389:
 4874              	.LBB1483:
 4875              	.LBI1465:
  42:../libs/PoliTeKDSP/libs/libDaisy/src/hid/disp/oled_display.h ****     {
ARM GAS  C:\Users\matte\AppData\Local\Temp\ccj2OJiD.s 			page 140


 4876              		.loc 9 42 10 is_stmt 1 view .LVU1137
 4877              	.LBB1477:
 4878              	.LBI1466:
 340:Display/../../libs/PoliTeKDSP/libs/libDaisy/src/dev/oled_ssd130x.h ****     {
 4879              		.loc 11 340 10 view .LVU1138
 4880              	.LBB1471:
 342:Display/../../libs/PoliTeKDSP/libs/libDaisy/src/dev/oled_ssd130x.h ****             return;
 4881              		.loc 11 342 28 is_stmt 0 view .LVU1139
 4882 0150 0396     		str	r6, [sp, #12]
 4883              	.LBE1471:
 4884              	.LBE1477:
 4885              	.LBE1483:
 230:../libs/PoliTeKDSP/libs/libDaisy/src/hid/disp/display.h ****         int_fast16_t error  = deltaX - deltaY;
 4886              		.loc 10 230 42 view .LVU1140
 4887 0152 C0F02381 		bcc	.L334
 4888              	.LVL390:
 4889              	.LBB1484:
 4890              	.LBB1478:
 4891              	.LBB1472:
 342:Display/../../libs/PoliTeKDSP/libs/libDaisy/src/dev/oled_ssd130x.h ****             return;
 4892              		.loc 11 342 9 view .LVU1141
 4893 0156 002F     		cmp	r7, #0
 4894 0158 40F05081 		bne	.L369
 4895 015c 002E     		cmp	r6, #0
 4896 015e 40F04D81 		bne	.L369
 4897              	.LBE1472:
 4898              	.LBE1478:
 4899              	.LBE1484:
 230:../libs/PoliTeKDSP/libs/libDaisy/src/hid/disp/display.h ****         int_fast16_t error  = deltaX - deltaY;
 4900              		.loc 10 230 42 view .LVU1142
 4901 0162 4FF0FF36 		mov	r6, #-1
 4902 0166 0096     		str	r6, [sp]
 4903              	.LBB1485:
 4904              	.LBB1479:
 4905              	.LBB1473:
 345:Display/../../libs/PoliTeKDSP/libs/libDaisy/src/dev/oled_ssd130x.h ****         else
 4906              		.loc 11 345 28 view .LVU1143
 4907 0168 E608     		lsrs	r6, r4, #3
 345:Display/../../libs/PoliTeKDSP/libs/libDaisy/src/dev/oled_ssd130x.h ****         else
 4908              		.loc 11 345 42 view .LVU1144
 4909 016a 03EBC616 		add	r6, r3, r6, lsl #7
 4910 016e 0644     		add	r6, r6, r0
 344:Display/../../libs/PoliTeKDSP/libs/libDaisy/src/dev/oled_ssd130x.h ****             buffer_[x + (y / 8) * width] |= (1 << (y % 8));
 4911              		.loc 11 344 9 view .LVU1145
 4912 0170 002D     		cmp	r5, #0
 4913 0172 00F01E81 		beq	.L336
 4914              	.LVL391:
 4915              	.L408:
 345:Display/../../libs/PoliTeKDSP/libs/libDaisy/src/dev/oled_ssd130x.h ****         else
 4916              		.loc 11 345 48 view .LVU1146
 4917 0176 4FF0010C 		mov	ip, #1
 345:Display/../../libs/PoliTeKDSP/libs/libDaisy/src/dev/oled_ssd130x.h ****         else
 4918              		.loc 11 345 54 view .LVU1147
 4919 017a 04F00707 		and	r7, r4, #7
 345:Display/../../libs/PoliTeKDSP/libs/libDaisy/src/dev/oled_ssd130x.h ****         else
 4920              		.loc 11 345 48 view .LVU1148
 4921 017e 0CFA07F7 		lsl	r7, ip, r7
ARM GAS  C:\Users\matte\AppData\Local\Temp\ccj2OJiD.s 			page 141


 345:Display/../../libs/PoliTeKDSP/libs/libDaisy/src/dev/oled_ssd130x.h ****         else
 4922              		.loc 11 345 42 view .LVU1149
 4923 0182 96F810C0 		ldrb	ip, [r6, #16]	@ zero_extendqisi2
 4924 0186 47EA0C07 		orr	r7, r7, ip
 4925 018a 3774     		strb	r7, [r6, #16]
 4926 018c 0026     		movs	r6, #0
 4927 018e 0396     		str	r6, [sp, #12]
 4928              	.L335:
 4929              	.LVL392:
 345:Display/../../libs/PoliTeKDSP/libs/libDaisy/src/dev/oled_ssd130x.h ****         else
 4930              		.loc 11 345 42 view .LVU1150
 4931              	.LBE1473:
 4932              	.LBE1479:
 4933              	.LBE1485:
 239:../libs/PoliTeKDSP/libs/libDaisy/src/hid/disp/display.h ****         {
 4934              		.loc 10 239 26 is_stmt 1 view .LVU1151
 4935 0190 A242     		cmp	r2, r4
 4936 0192 00F03D81 		beq	.L407
 4937              	.L338:
 4938              	.LVL393:
 230:../libs/PoliTeKDSP/libs/libDaisy/src/hid/disp/display.h ****         int_fast16_t error  = deltaX - deltaY;
 4939              		.loc 10 230 42 is_stmt 0 view .LVU1152
 4940 0196 C446     		mov	ip, r8
 4941 0198 1646     		mov	r6, r2
 4942 019a 1F46     		mov	r7, r3
 4943 019c 0592     		str	r2, [sp, #20]
 4944              	.LVL394:
 4945              	.L340:
 4946              	.LBB1486:
 4947              	.LBI1486:
  42:../libs/PoliTeKDSP/libs/libDaisy/src/hid/disp/oled_display.h ****     {
 4948              		.loc 9 42 10 is_stmt 1 view .LVU1153
 4949              	.LBB1487:
 4950              	.LBI1487:
 340:Display/../../libs/PoliTeKDSP/libs/libDaisy/src/dev/oled_ssd130x.h ****     {
 4951              		.loc 11 340 10 view .LVU1154
 4952              	.LBB1488:
 342:Display/../../libs/PoliTeKDSP/libs/libDaisy/src/dev/oled_ssd130x.h ****             return;
 4953              		.loc 11 342 9 is_stmt 0 view .LVU1155
 4954 019e 7F2F     		cmp	r7, #127
 4955 01a0 15D8     		bhi	.L341
 4956 01a2 3F2E     		cmp	r6, #63
 4957 01a4 13D8     		bhi	.L341
 345:Display/../../libs/PoliTeKDSP/libs/libDaisy/src/dev/oled_ssd130x.h ****         else
 4958              		.loc 11 345 28 view .LVU1156
 4959 01a6 4FEAD60E 		lsr	lr, r6, #3
 345:Display/../../libs/PoliTeKDSP/libs/libDaisy/src/dev/oled_ssd130x.h ****         else
 4960              		.loc 11 345 54 view .LVU1157
 4961 01aa 06F0070B 		and	fp, r6, #7
 345:Display/../../libs/PoliTeKDSP/libs/libDaisy/src/dev/oled_ssd130x.h ****         else
 4962              		.loc 11 345 48 view .LVU1158
 4963 01ae 4FF0010A 		mov	r10, #1
 345:Display/../../libs/PoliTeKDSP/libs/libDaisy/src/dev/oled_ssd130x.h ****         else
 4964              		.loc 11 345 42 view .LVU1159
 4965 01b2 07EBCE1E 		add	lr, r7, lr, lsl #7
 4966 01b6 8644     		add	lr, lr, r0
 344:Display/../../libs/PoliTeKDSP/libs/libDaisy/src/dev/oled_ssd130x.h ****             buffer_[x + (y / 8) * width] |= (1 << (y % 8));
ARM GAS  C:\Users\matte\AppData\Local\Temp\ccj2OJiD.s 			page 142


 4967              		.loc 11 344 9 view .LVU1160
 4968 01b8 002D     		cmp	r5, #0
 4969 01ba 00F0E680 		beq	.L342
 345:Display/../../libs/PoliTeKDSP/libs/libDaisy/src/dev/oled_ssd130x.h ****         else
 4970              		.loc 11 345 48 view .LVU1161
 4971 01be 0AFA0BFA 		lsl	r10, r10, fp
 345:Display/../../libs/PoliTeKDSP/libs/libDaisy/src/dev/oled_ssd130x.h ****         else
 4972              		.loc 11 345 42 view .LVU1162
 4973 01c2 9EF810B0 		ldrb	fp, [lr, #16]	@ zero_extendqisi2
 4974 01c6 4AEA0B0A 		orr	r10, r10, fp
 4975 01ca 8EF810A0 		strb	r10, [lr, #16]
 4976              	.L341:
 4977              	.LVL395:
 345:Display/../../libs/PoliTeKDSP/libs/libDaisy/src/dev/oled_ssd130x.h ****         else
 4978              		.loc 11 345 42 view .LVU1163
 4979              	.LBE1488:
 4980              	.LBE1487:
 4981              	.LBE1486:
 243:../libs/PoliTeKDSP/libs/libDaisy/src/hid/disp/display.h ****             {
 4982              		.loc 10 243 13 view .LVU1164
 4983 01ce B8EB4C0F 		cmp	r8, ip, lsl #1
 242:../libs/PoliTeKDSP/libs/libDaisy/src/hid/disp/display.h ****             if(error2 > -deltaY)
 4984              		.loc 10 242 20 view .LVU1165
 4985 01d2 4FEA4C0E 		lsl	lr, ip, #1
 4986              	.LVL396:
 243:../libs/PoliTeKDSP/libs/libDaisy/src/hid/disp/display.h ****             {
 4987              		.loc 10 243 13 view .LVU1166
 4988 01d6 02DA     		bge	.L343
 245:../libs/PoliTeKDSP/libs/libDaisy/src/hid/disp/display.h ****                 x1 += signX;
 4989              		.loc 10 245 23 view .LVU1167
 4990 01d8 ACEB090C 		sub	ip, ip, r9
 4991              	.LVL397:
 246:../libs/PoliTeKDSP/libs/libDaisy/src/hid/disp/display.h ****             }
 4992              		.loc 10 246 20 view .LVU1168
 4993 01dc 013F     		subs	r7, r7, #1
 4994              	.LVL398:
 4995              	.L343:
 249:../libs/PoliTeKDSP/libs/libDaisy/src/hid/disp/display.h ****             {
 4996              		.loc 10 249 13 view .LVU1169
 4997 01de BEF1000F 		cmp	lr, #0
 4998 01e2 01D0     		beq	.L344
 252:../libs/PoliTeKDSP/libs/libDaisy/src/hid/disp/display.h ****             }
 4999              		.loc 10 252 20 view .LVU1170
 5000 01e4 009A     		ldr	r2, [sp]
 5001 01e6 1644     		add	r6, r6, r2
 5002              	.LVL399:
 5003              	.L344:
 239:../libs/PoliTeKDSP/libs/libDaisy/src/hid/disp/display.h ****         {
 5004              		.loc 10 239 26 is_stmt 1 view .LVU1171
 5005 01e8 BB42     		cmp	r3, r7
 5006 01ea D8D1     		bne	.L340
 239:../libs/PoliTeKDSP/libs/libDaisy/src/hid/disp/display.h ****         {
 5007              		.loc 10 239 26 is_stmt 0 view .LVU1172
 5008 01ec B442     		cmp	r4, r6
 5009 01ee D6D1     		bne	.L340
 5010 01f0 059A     		ldr	r2, [sp, #20]
 5011              	.LVL400:
ARM GAS  C:\Users\matte\AppData\Local\Temp\ccj2OJiD.s 			page 143


 5012              	.L337:
 239:../libs/PoliTeKDSP/libs/libDaisy/src/hid/disp/display.h ****         {
 5013              		.loc 10 239 26 view .LVU1173
 5014              	.LBE1464:
 5015              	.LBE1463:
 5016              	.LBB1499:
 5017              	.LBI1499:
 221:../libs/PoliTeKDSP/libs/libDaisy/src/hid/disp/display.h ****                   uint_fast8_t y1,
 5018              		.loc 10 221 10 is_stmt 1 view .LVU1174
 5019              	.LBB1500:
 227:../libs/PoliTeKDSP/libs/libDaisy/src/hid/disp/display.h ****         int_fast16_t deltaY = abs((int_fast16_t)y2 - (int_fast16_t)y1);
 5020              		.loc 10 227 52 is_stmt 0 view .LVU1175
 5021 01f2 A1EB030E 		sub	lr, r1, r3
 227:../libs/PoliTeKDSP/libs/libDaisy/src/hid/disp/display.h ****         int_fast16_t deltaY = abs((int_fast16_t)y2 - (int_fast16_t)y1);
 5022              		.loc 10 227 22 view .LVU1176
 5023 01f6 BEF1000F 		cmp	lr, #0
 5024 01fa B8BF     		it	lt
 5025 01fc CEF1000E 		rsblt	lr, lr, #0
 5026              	.LVL401:
 5027              	.LBB1501:
 5028              	.LBB1502:
 5029              	.LBB1503:
 342:Display/../../libs/PoliTeKDSP/libs/libDaisy/src/dev/oled_ssd130x.h ****             return;
 5030              		.loc 11 342 14 view .LVU1177
 5031 0200 7F29     		cmp	r1, #127
 5032 0202 94BF     		ite	ls
 5033 0204 4FF0000A 		movls	r10, #0
 5034 0208 4FF0010A 		movhi	r10, #1
 5035              	.LBE1503:
 5036              	.LBE1502:
 5037              	.LBE1501:
 229:../libs/PoliTeKDSP/libs/libDaisy/src/hid/disp/display.h ****         int_fast16_t signY  = ((y1 < y2) ? 1 : -1);
 5038              		.loc 10 229 42 view .LVU1178
 5039 020c 9942     		cmp	r1, r3
 5040 020e 8CBF     		ite	hi
 5041 0210 4FF00109 		movhi	r9, #1
 5042 0214 4FF0FF39 		movls	r9, #-1
 5043              	.LVL402:
 5044              	.LBB1510:
 5045              	.LBI1501:
  42:../libs/PoliTeKDSP/libs/libDaisy/src/hid/disp/oled_display.h ****     {
 5046              		.loc 9 42 10 is_stmt 1 view .LVU1179
 5047              	.LBB1508:
 5048              	.LBI1502:
 340:Display/../../libs/PoliTeKDSP/libs/libDaisy/src/dev/oled_ssd130x.h ****     {
 5049              		.loc 11 340 10 view .LVU1180
 5050              	.LBB1506:
 342:Display/../../libs/PoliTeKDSP/libs/libDaisy/src/dev/oled_ssd130x.h ****             return;
 5051              		.loc 11 342 9 is_stmt 0 view .LVU1181
 5052 0218 BAF1000F 		cmp	r10, #0
 5053 021c 13D1     		bne	.L346
 5054 021e 039E     		ldr	r6, [sp, #12]
 5055 0220 8EB9     		cbnz	r6, .L346
 345:Display/../../libs/PoliTeKDSP/libs/libDaisy/src/dev/oled_ssd130x.h ****         else
 5056              		.loc 11 345 28 view .LVU1182
 5057 0222 E608     		lsrs	r6, r4, #3
 345:Display/../../libs/PoliTeKDSP/libs/libDaisy/src/dev/oled_ssd130x.h ****         else
ARM GAS  C:\Users\matte\AppData\Local\Temp\ccj2OJiD.s 			page 144


 5058              		.loc 11 345 42 view .LVU1183
 5059 0224 01EBC616 		add	r6, r1, r6, lsl #7
 5060 0228 0644     		add	r6, r6, r0
 344:Display/../../libs/PoliTeKDSP/libs/libDaisy/src/dev/oled_ssd130x.h ****             buffer_[x + (y / 8) * width] |= (1 << (y % 8));
 5061              		.loc 11 344 9 view .LVU1184
 5062 022a 002D     		cmp	r5, #0
 5063 022c 00F0D380 		beq	.L347
 345:Display/../../libs/PoliTeKDSP/libs/libDaisy/src/dev/oled_ssd130x.h ****         else
 5064              		.loc 11 345 48 view .LVU1185
 5065 0230 4FF0010C 		mov	ip, #1
 345:Display/../../libs/PoliTeKDSP/libs/libDaisy/src/dev/oled_ssd130x.h ****         else
 5066              		.loc 11 345 54 view .LVU1186
 5067 0234 04F00707 		and	r7, r4, #7
 345:Display/../../libs/PoliTeKDSP/libs/libDaisy/src/dev/oled_ssd130x.h ****         else
 5068              		.loc 11 345 48 view .LVU1187
 5069 0238 0CFA07F7 		lsl	r7, ip, r7
 345:Display/../../libs/PoliTeKDSP/libs/libDaisy/src/dev/oled_ssd130x.h ****         else
 5070              		.loc 11 345 42 view .LVU1188
 5071 023c 96F810C0 		ldrb	ip, [r6, #16]	@ zero_extendqisi2
 5072 0240 47EA0C07 		orr	r7, r7, ip
 5073 0244 3774     		strb	r7, [r6, #16]
 5074              	.L346:
 5075              	.LVL403:
 345:Display/../../libs/PoliTeKDSP/libs/libDaisy/src/dev/oled_ssd130x.h ****         else
 5076              		.loc 11 345 42 view .LVU1189
 5077              	.LBE1506:
 5078              	.LBE1508:
 5079              	.LBE1510:
 239:../libs/PoliTeKDSP/libs/libDaisy/src/hid/disp/display.h ****         {
 5080              		.loc 10 239 26 is_stmt 1 view .LVU1190
 5081 0246 049E     		ldr	r6, [sp, #16]
 5082 0248 26BB     		cbnz	r6, .L348
 227:../libs/PoliTeKDSP/libs/libDaisy/src/hid/disp/display.h ****         int_fast16_t deltaY = abs((int_fast16_t)y2 - (int_fast16_t)y1);
 5083              		.loc 10 227 22 is_stmt 0 view .LVU1191
 5084 024a 7746     		mov	r7, lr
 239:../libs/PoliTeKDSP/libs/libDaisy/src/hid/disp/display.h ****         {
 5085              		.loc 10 239 26 view .LVU1192
 5086 024c 2646     		mov	r6, r4
 5087              	.LVL404:
 5088              	.L349:
 5089              	.LBB1511:
 5090              	.LBI1511:
  42:../libs/PoliTeKDSP/libs/libDaisy/src/hid/disp/oled_display.h ****     {
 5091              		.loc 9 42 10 is_stmt 1 view .LVU1193
 5092              	.LBB1512:
 5093              	.LBI1512:
 340:Display/../../libs/PoliTeKDSP/libs/libDaisy/src/dev/oled_ssd130x.h ****     {
 5094              		.loc 11 340 10 view .LVU1194
 5095              	.LBB1513:
 342:Display/../../libs/PoliTeKDSP/libs/libDaisy/src/dev/oled_ssd130x.h ****             return;
 5096              		.loc 11 342 9 is_stmt 0 view .LVU1195
 5097 024e 7F2B     		cmp	r3, #127
 5098 0250 14D8     		bhi	.L351
 342:Display/../../libs/PoliTeKDSP/libs/libDaisy/src/dev/oled_ssd130x.h ****             return;
 5099              		.loc 11 342 9 view .LVU1196
 5100 0252 3F2E     		cmp	r6, #63
 5101 0254 12D8     		bhi	.L351
ARM GAS  C:\Users\matte\AppData\Local\Temp\ccj2OJiD.s 			page 145


 345:Display/../../libs/PoliTeKDSP/libs/libDaisy/src/dev/oled_ssd130x.h ****         else
 5102              		.loc 11 345 28 view .LVU1197
 5103 0256 4FEAD60C 		lsr	ip, r6, #3
 345:Display/../../libs/PoliTeKDSP/libs/libDaisy/src/dev/oled_ssd130x.h ****         else
 5104              		.loc 11 345 54 view .LVU1198
 5105 025a 06F0070B 		and	fp, r6, #7
 345:Display/../../libs/PoliTeKDSP/libs/libDaisy/src/dev/oled_ssd130x.h ****         else
 5106              		.loc 11 345 48 view .LVU1199
 5107 025e 4FF00108 		mov	r8, #1
 345:Display/../../libs/PoliTeKDSP/libs/libDaisy/src/dev/oled_ssd130x.h ****         else
 5108              		.loc 11 345 42 view .LVU1200
 5109 0262 03EBCC1C 		add	ip, r3, ip, lsl #7
 5110 0266 8444     		add	ip, ip, r0
 344:Display/../../libs/PoliTeKDSP/libs/libDaisy/src/dev/oled_ssd130x.h ****             buffer_[x + (y / 8) * width] |= (1 << (y % 8));
 5111              		.loc 11 344 9 view .LVU1201
 5112 0268 002D     		cmp	r5, #0
 5113 026a 73D0     		beq	.L352
 345:Display/../../libs/PoliTeKDSP/libs/libDaisy/src/dev/oled_ssd130x.h ****         else
 5114              		.loc 11 345 48 view .LVU1202
 5115 026c 08FA0BF8 		lsl	r8, r8, fp
 345:Display/../../libs/PoliTeKDSP/libs/libDaisy/src/dev/oled_ssd130x.h ****         else
 5116              		.loc 11 345 42 view .LVU1203
 5117 0270 9CF810B0 		ldrb	fp, [ip, #16]	@ zero_extendqisi2
 5118 0274 48EA0B08 		orr	r8, r8, fp
 5119 0278 8CF81080 		strb	r8, [ip, #16]
 5120              	.L351:
 5121              	.LVL405:
 345:Display/../../libs/PoliTeKDSP/libs/libDaisy/src/dev/oled_ssd130x.h ****         else
 5122              		.loc 11 345 42 view .LVU1204
 5123              	.LBE1513:
 5124              	.LBE1512:
 5125              	.LBE1511:
 243:../libs/PoliTeKDSP/libs/libDaisy/src/hid/disp/display.h ****             {
 5126              		.loc 10 243 13 view .LVU1205
 5127 027c 5FEA470C 		lsls	ip, r7, #1
 5128              	.LVL406:
 246:../libs/PoliTeKDSP/libs/libDaisy/src/hid/disp/display.h ****             }
 5129              		.loc 10 246 20 view .LVU1206
 5130 0280 18BF     		it	ne
 5131 0282 4B44     		addne	r3, r3, r9
 5132              	.LVL407:
 249:../libs/PoliTeKDSP/libs/libDaisy/src/hid/disp/display.h ****             {
 5133              		.loc 10 249 13 view .LVU1207
 5134 0284 E645     		cmp	lr, ip
 5135 0286 01DD     		ble	.L354
 251:../libs/PoliTeKDSP/libs/libDaisy/src/hid/disp/display.h ****                 y1 += signY;
 5136              		.loc 10 251 23 view .LVU1208
 5137 0288 7744     		add	r7, r7, lr
 5138              	.LVL408:
 252:../libs/PoliTeKDSP/libs/libDaisy/src/hid/disp/display.h ****             }
 5139              		.loc 10 252 20 view .LVU1209
 5140 028a 013E     		subs	r6, r6, #1
 5141              	.LVL409:
 5142              	.L354:
 239:../libs/PoliTeKDSP/libs/libDaisy/src/hid/disp/display.h ****         {
 5143              		.loc 10 239 26 is_stmt 1 view .LVU1210
 5144 028c 9942     		cmp	r1, r3
ARM GAS  C:\Users\matte\AppData\Local\Temp\ccj2OJiD.s 			page 146


 5145 028e DED1     		bne	.L349
 239:../libs/PoliTeKDSP/libs/libDaisy/src/hid/disp/display.h ****         {
 5146              		.loc 10 239 26 is_stmt 0 view .LVU1211
 5147 0290 B442     		cmp	r4, r6
 5148 0292 DCD1     		bne	.L349
 5149              	.LVL410:
 5150              	.L348:
 239:../libs/PoliTeKDSP/libs/libDaisy/src/hid/disp/display.h ****         {
 5151              		.loc 10 239 26 view .LVU1212
 5152              	.LBE1500:
 5153              	.LBE1499:
 5154              	.LBB1522:
 5155              	.LBI1522:
 221:../libs/PoliTeKDSP/libs/libDaisy/src/hid/disp/display.h ****                   uint_fast8_t y1,
 5156              		.loc 10 221 10 is_stmt 1 view .LVU1213
 5157              	.LBB1523:
 228:../libs/PoliTeKDSP/libs/libDaisy/src/hid/disp/display.h ****         int_fast16_t signX  = ((x1 < x2) ? 1 : -1);
 5158              		.loc 10 228 52 is_stmt 0 view .LVU1214
 5159 0294 A2EB040E 		sub	lr, r2, r4
 228:../libs/PoliTeKDSP/libs/libDaisy/src/hid/disp/display.h ****         int_fast16_t signX  = ((x1 < x2) ? 1 : -1);
 5160              		.loc 10 228 22 view .LVU1215
 5161 0298 BEF1000F 		cmp	lr, #0
 5162 029c B8BF     		it	lt
 5163 029e CEF1000E 		rsblt	lr, lr, #0
 5164              	.LVL411:
 230:../libs/PoliTeKDSP/libs/libDaisy/src/hid/disp/display.h ****         int_fast16_t error  = deltaX - deltaY;
 5165              		.loc 10 230 42 view .LVU1216
 5166 02a2 A242     		cmp	r2, r4
 5167 02a4 8CBF     		ite	hi
 5168 02a6 4FF00108 		movhi	r8, #1
 5169 02aa 4FF0FF38 		movls	r8, #-1
 5170              	.LVL412:
 231:../libs/PoliTeKDSP/libs/libDaisy/src/hid/disp/display.h ****         int_fast16_t error2;
 5171              		.loc 10 231 22 view .LVU1217
 5172 02ae CEF1000C 		rsb	ip, lr, #0
 5173              	.LVL413:
 5174              	.LBB1524:
 5175              	.LBI1524:
  42:../libs/PoliTeKDSP/libs/libDaisy/src/hid/disp/oled_display.h ****     {
 5176              		.loc 9 42 10 is_stmt 1 view .LVU1218
 5177              	.LBB1525:
 5178              	.LBI1525:
 340:Display/../../libs/PoliTeKDSP/libs/libDaisy/src/dev/oled_ssd130x.h ****     {
 5179              		.loc 11 340 10 view .LVU1219
 5180              	.LBB1526:
 342:Display/../../libs/PoliTeKDSP/libs/libDaisy/src/dev/oled_ssd130x.h ****             return;
 5181              		.loc 11 342 9 is_stmt 0 view .LVU1220
 5182 02b2 BAF1000F 		cmp	r10, #0
 5183 02b6 0ED1     		bne	.L356
 5184 02b8 029B     		ldr	r3, [sp, #8]
 5185 02ba 63B9     		cbnz	r3, .L356
 345:Display/../../libs/PoliTeKDSP/libs/libDaisy/src/dev/oled_ssd130x.h ****         else
 5186              		.loc 11 345 28 view .LVU1221
 5187 02bc D308     		lsrs	r3, r2, #3
 345:Display/../../libs/PoliTeKDSP/libs/libDaisy/src/dev/oled_ssd130x.h ****         else
 5188              		.loc 11 345 54 view .LVU1222
 5189 02be 02F00707 		and	r7, r2, #7
ARM GAS  C:\Users\matte\AppData\Local\Temp\ccj2OJiD.s 			page 147


 345:Display/../../libs/PoliTeKDSP/libs/libDaisy/src/dev/oled_ssd130x.h ****         else
 5190              		.loc 11 345 48 view .LVU1223
 5191 02c2 0126     		movs	r6, #1
 345:Display/../../libs/PoliTeKDSP/libs/libDaisy/src/dev/oled_ssd130x.h ****         else
 5192              		.loc 11 345 42 view .LVU1224
 5193 02c4 01EBC313 		add	r3, r1, r3, lsl #7
 5194 02c8 0344     		add	r3, r3, r0
 344:Display/../../libs/PoliTeKDSP/libs/libDaisy/src/dev/oled_ssd130x.h ****             buffer_[x + (y / 8) * width] |= (1 << (y % 8));
 5195              		.loc 11 344 9 view .LVU1225
 5196 02ca 002D     		cmp	r5, #0
 5197 02cc 7CD0     		beq	.L357
 345:Display/../../libs/PoliTeKDSP/libs/libDaisy/src/dev/oled_ssd130x.h ****         else
 5198              		.loc 11 345 48 view .LVU1226
 5199 02ce BE40     		lsls	r6, r6, r7
 345:Display/../../libs/PoliTeKDSP/libs/libDaisy/src/dev/oled_ssd130x.h ****         else
 5200              		.loc 11 345 42 view .LVU1227
 5201 02d0 1F7C     		ldrb	r7, [r3, #16]	@ zero_extendqisi2
 5202 02d2 3E43     		orrs	r6, r6, r7
 5203 02d4 1E74     		strb	r6, [r3, #16]
 5204              	.L356:
 5205              	.LVL414:
 345:Display/../../libs/PoliTeKDSP/libs/libDaisy/src/dev/oled_ssd130x.h ****         else
 5206              		.loc 11 345 42 view .LVU1228
 5207              	.LBE1526:
 5208              	.LBE1525:
 5209              	.LBE1524:
 239:../libs/PoliTeKDSP/libs/libDaisy/src/hid/disp/display.h ****         {
 5210              		.loc 10 239 26 is_stmt 1 view .LVU1229
 5211 02d6 019B     		ldr	r3, [sp, #4]
 5212 02d8 002B     		cmp	r3, #0
 5213 02da 7FF4CDAE 		bne	.L314
 5214 02de 6646     		mov	r6, ip
 5215 02e0 0B46     		mov	r3, r1
 5216              	.LVL415:
 5217              	.L358:
 5218              	.LBB1531:
 5219              	.LBI1531:
  42:../libs/PoliTeKDSP/libs/libDaisy/src/hid/disp/oled_display.h ****     {
 5220              		.loc 9 42 10 view .LVU1230
 5221              	.LBB1532:
 5222              	.LBI1532:
 340:Display/../../libs/PoliTeKDSP/libs/libDaisy/src/dev/oled_ssd130x.h ****     {
 5223              		.loc 11 340 10 view .LVU1231
 5224              	.LBB1533:
 342:Display/../../libs/PoliTeKDSP/libs/libDaisy/src/dev/oled_ssd130x.h ****             return;
 5225              		.loc 11 342 9 is_stmt 0 view .LVU1232
 5226 02e2 7F2B     		cmp	r3, #127
 5227 02e4 12D8     		bhi	.L360
 342:Display/../../libs/PoliTeKDSP/libs/libDaisy/src/dev/oled_ssd130x.h ****             return;
 5228              		.loc 11 342 9 view .LVU1233
 5229 02e6 3F2C     		cmp	r4, #63
 5230 02e8 10D8     		bhi	.L360
 345:Display/../../libs/PoliTeKDSP/libs/libDaisy/src/dev/oled_ssd130x.h ****         else
 5231              		.loc 11 345 28 view .LVU1234
 5232 02ea E708     		lsrs	r7, r4, #3
 345:Display/../../libs/PoliTeKDSP/libs/libDaisy/src/dev/oled_ssd130x.h ****         else
 5233              		.loc 11 345 54 view .LVU1235
ARM GAS  C:\Users\matte\AppData\Local\Temp\ccj2OJiD.s 			page 148


 5234 02ec 04F0070A 		and	r10, r4, #7
 345:Display/../../libs/PoliTeKDSP/libs/libDaisy/src/dev/oled_ssd130x.h ****         else
 5235              		.loc 11 345 48 view .LVU1236
 5236 02f0 4FF00109 		mov	r9, #1
 345:Display/../../libs/PoliTeKDSP/libs/libDaisy/src/dev/oled_ssd130x.h ****         else
 5237              		.loc 11 345 42 view .LVU1237
 5238 02f4 03EBC717 		add	r7, r3, r7, lsl #7
 5239 02f8 0744     		add	r7, r7, r0
 344:Display/../../libs/PoliTeKDSP/libs/libDaisy/src/dev/oled_ssd130x.h ****             buffer_[x + (y / 8) * width] |= (1 << (y % 8));
 5240              		.loc 11 344 9 view .LVU1238
 5241 02fa A5B3     		cbz	r5, .L361
 345:Display/../../libs/PoliTeKDSP/libs/libDaisy/src/dev/oled_ssd130x.h ****         else
 5242              		.loc 11 345 48 view .LVU1239
 5243 02fc 09FA0AF9 		lsl	r9, r9, r10
 345:Display/../../libs/PoliTeKDSP/libs/libDaisy/src/dev/oled_ssd130x.h ****         else
 5244              		.loc 11 345 42 view .LVU1240
 5245 0300 97F810A0 		ldrb	r10, [r7, #16]	@ zero_extendqisi2
 5246 0304 49EA0A09 		orr	r9, r9, r10
 5247 0308 87F81090 		strb	r9, [r7, #16]
 5248              	.L360:
 5249              	.LVL416:
 345:Display/../../libs/PoliTeKDSP/libs/libDaisy/src/dev/oled_ssd130x.h ****         else
 5250              		.loc 11 345 42 view .LVU1241
 5251              	.LBE1533:
 5252              	.LBE1532:
 5253              	.LBE1531:
 243:../libs/PoliTeKDSP/libs/libDaisy/src/hid/disp/display.h ****             {
 5254              		.loc 10 243 13 view .LVU1242
 5255 030c BCEB460F 		cmp	ip, r6, lsl #1
 242:../libs/PoliTeKDSP/libs/libDaisy/src/hid/disp/display.h ****             if(error2 > -deltaY)
 5256              		.loc 10 242 20 view .LVU1243
 5257 0310 4FEA4607 		lsl	r7, r6, #1
 5258              	.LVL417:
 243:../libs/PoliTeKDSP/libs/libDaisy/src/hid/disp/display.h ****             {
 5259              		.loc 10 243 13 view .LVU1244
 5260 0314 02DA     		bge	.L362
 245:../libs/PoliTeKDSP/libs/libDaisy/src/hid/disp/display.h ****                 x1 += signX;
 5261              		.loc 10 245 23 view .LVU1245
 5262 0316 A6EB0E06 		sub	r6, r6, lr
 5263              	.LVL418:
 246:../libs/PoliTeKDSP/libs/libDaisy/src/hid/disp/display.h ****             }
 5264              		.loc 10 246 20 view .LVU1246
 5265 031a 013B     		subs	r3, r3, #1
 5266              	.LVL419:
 5267              	.L362:
 249:../libs/PoliTeKDSP/libs/libDaisy/src/hid/disp/display.h ****             {
 5268              		.loc 10 249 13 view .LVU1247
 5269 031c 07B1     		cbz	r7, .L363
 252:../libs/PoliTeKDSP/libs/libDaisy/src/hid/disp/display.h ****             }
 5270              		.loc 10 252 20 view .LVU1248
 5271 031e 4444     		add	r4, r4, r8
 5272              	.LVL420:
 5273              	.L363:
 239:../libs/PoliTeKDSP/libs/libDaisy/src/hid/disp/display.h ****         {
 5274              		.loc 10 239 26 is_stmt 1 view .LVU1249
 5275 0320 9942     		cmp	r1, r3
 5276 0322 DED1     		bne	.L358
ARM GAS  C:\Users\matte\AppData\Local\Temp\ccj2OJiD.s 			page 149


 239:../libs/PoliTeKDSP/libs/libDaisy/src/hid/disp/display.h ****         {
 5277              		.loc 10 239 26 is_stmt 0 view .LVU1250
 5278 0324 A242     		cmp	r2, r4
 5279 0326 DCD1     		bne	.L358
 5280              	.LBE1523:
 5281              	.LBE1522:
 5282              	.LBE1575:
 281:../libs/PoliTeKDSP/libs/libDaisy/src/hid/disp/display.h **** 
 5283              		.loc 10 281 5 view .LVU1251
 5284 0328 07B0     		add	sp, sp, #28
 5285              		.cfi_remember_state
 5286              		.cfi_def_cfa_offset 36
 5287              		@ sp needed
 5288 032a BDE8F08F 		pop	{r4, r5, r6, r7, r8, r9, r10, fp, pc}
 5289              	.LVL421:
 5290              	.L323:
 5291              		.cfi_restore_state
 5292              	.LBB1576:
 5293              	.LBB1542:
 5294              	.LBB1459:
 5295              	.LBB1455:
  42:../libs/PoliTeKDSP/libs/libDaisy/src/hid/disp/oled_display.h ****     {
 5296              		.loc 9 42 10 is_stmt 1 view .LVU1252
 5297              	.LBB1444:
 340:Display/../../libs/PoliTeKDSP/libs/libDaisy/src/dev/oled_ssd130x.h ****     {
 5298              		.loc 11 340 10 view .LVU1253
 5299              	.LBB1440:
 342:Display/../../libs/PoliTeKDSP/libs/libDaisy/src/dev/oled_ssd130x.h ****             return;
 5300              		.loc 11 342 28 is_stmt 0 view .LVU1254
 5301 032e 3F2A     		cmp	r2, #63
 5302              	.LBE1440:
 5303              	.LBE1444:
 5304              	.LBE1455:
 229:../libs/PoliTeKDSP/libs/libDaisy/src/hid/disp/display.h ****         int_fast16_t signY  = ((y1 < y2) ? 1 : -1);
 5305              		.loc 10 229 42 view .LVU1255
 5306 0330 4FF0010A 		mov	r10, #1
 5307              	.LBB1456:
 5308              	.LBB1445:
 5309              	.LBB1441:
 342:Display/../../libs/PoliTeKDSP/libs/libDaisy/src/dev/oled_ssd130x.h ****             return;
 5310              		.loc 11 342 28 view .LVU1256
 5311 0334 94BF     		ite	ls
 5312 0336 0026     		movls	r6, #0
 5313 0338 0126     		movhi	r6, #1
 342:Display/../../libs/PoliTeKDSP/libs/libDaisy/src/dev/oled_ssd130x.h ****             return;
 5314              		.loc 11 342 14 view .LVU1257
 5315 033a 7F2B     		cmp	r3, #127
 342:Display/../../libs/PoliTeKDSP/libs/libDaisy/src/dev/oled_ssd130x.h ****             return;
 5316              		.loc 11 342 28 view .LVU1258
 5317 033c 0296     		str	r6, [sp, #8]
 342:Display/../../libs/PoliTeKDSP/libs/libDaisy/src/dev/oled_ssd130x.h ****             return;
 5318              		.loc 11 342 14 view .LVU1259
 5319 033e 94BF     		ite	ls
 5320 0340 0027     		movls	r7, #0
 5321 0342 0127     		movhi	r7, #1
 5322 0344 0097     		str	r7, [sp]
 342:Display/../../libs/PoliTeKDSP/libs/libDaisy/src/dev/oled_ssd130x.h ****             return;
ARM GAS  C:\Users\matte\AppData\Local\Temp\ccj2OJiD.s 			page 150


 5323              		.loc 11 342 9 view .LVU1260
 5324 0346 002E     		cmp	r6, #0
 5325 0348 7FF4C8AE 		bne	.L327
 5326 034c 002F     		cmp	r7, #0
 5327 034e 3FF4AEAE 		beq	.L365
 5328 0352 C3E6     		b	.L327
 5329              	.LVL422:
 5330              	.L352:
 342:Display/../../libs/PoliTeKDSP/libs/libDaisy/src/dev/oled_ssd130x.h ****             return;
 5331              		.loc 11 342 9 view .LVU1261
 5332              	.LBE1441:
 5333              	.LBE1445:
 5334              	.LBE1456:
 5335              	.LBE1459:
 5336              	.LBE1542:
 5337              	.LBB1543:
 5338              	.LBB1520:
 5339              	.LBB1518:
 5340              	.LBB1517:
 5341              	.LBB1516:
 5342              	.LBB1514:
 5343              	.LBI1514:
 340:Display/../../libs/PoliTeKDSP/libs/libDaisy/src/dev/oled_ssd130x.h ****     {
 5344              		.loc 11 340 10 is_stmt 1 view .LVU1262
 5345              	.LBB1515:
 347:Display/../../libs/PoliTeKDSP/libs/libDaisy/src/dev/oled_ssd130x.h ****     }
 5346              		.loc 11 347 49 is_stmt 0 view .LVU1263
 5347 0354 08FA0BFB 		lsl	fp, r8, fp
 347:Display/../../libs/PoliTeKDSP/libs/libDaisy/src/dev/oled_ssd130x.h ****     }
 5348              		.loc 11 347 42 view .LVU1264
 5349 0358 9CF81080 		ldrb	r8, [ip, #16]	@ zero_extendqisi2
 5350 035c 28EA0B08 		bic	r8, r8, fp
 5351 0360 8CF81080 		strb	r8, [ip, #16]
 5352 0364 8AE7     		b	.L351
 5353              	.LVL423:
 5354              	.L361:
 347:Display/../../libs/PoliTeKDSP/libs/libDaisy/src/dev/oled_ssd130x.h ****     }
 5355              		.loc 11 347 42 view .LVU1265
 5356              	.LBE1515:
 5357              	.LBE1514:
 5358              	.LBE1516:
 5359              	.LBE1517:
 5360              	.LBE1518:
 5361              	.LBE1520:
 5362              	.LBE1543:
 5363              	.LBB1544:
 5364              	.LBB1540:
 5365              	.LBB1538:
 5366              	.LBB1537:
 5367              	.LBB1536:
 5368              	.LBB1534:
 5369              	.LBI1534:
 340:Display/../../libs/PoliTeKDSP/libs/libDaisy/src/dev/oled_ssd130x.h ****     {
 5370              		.loc 11 340 10 is_stmt 1 view .LVU1266
 5371              	.LBB1535:
 347:Display/../../libs/PoliTeKDSP/libs/libDaisy/src/dev/oled_ssd130x.h ****     }
 5372              		.loc 11 347 49 is_stmt 0 view .LVU1267
ARM GAS  C:\Users\matte\AppData\Local\Temp\ccj2OJiD.s 			page 151


 5373 0366 09FA0AFA 		lsl	r10, r9, r10
 347:Display/../../libs/PoliTeKDSP/libs/libDaisy/src/dev/oled_ssd130x.h ****     }
 5374              		.loc 11 347 42 view .LVU1268
 5375 036a 97F81090 		ldrb	r9, [r7, #16]	@ zero_extendqisi2
 5376 036e 29EA0A09 		bic	r9, r9, r10
 5377 0372 87F81090 		strb	r9, [r7, #16]
 5378 0376 C9E7     		b	.L360
 5379              	.LVL424:
 5380              	.L331:
 347:Display/../../libs/PoliTeKDSP/libs/libDaisy/src/dev/oled_ssd130x.h ****     }
 5381              		.loc 11 347 42 view .LVU1269
 5382              	.LBE1535:
 5383              	.LBE1534:
 5384              	.LBE1536:
 5385              	.LBE1537:
 5386              	.LBE1538:
 5387              	.LBE1540:
 5388              	.LBE1544:
 5389              	.LBB1545:
 5390              	.LBB1460:
 5391              	.LBB1457:
 5392              	.LBB1454:
 5393              	.LBB1453:
 5394              	.LBB1451:
 5395              	.LBI1451:
 340:Display/../../libs/PoliTeKDSP/libs/libDaisy/src/dev/oled_ssd130x.h ****     {
 5396              		.loc 11 340 10 is_stmt 1 view .LVU1270
 5397              	.LBB1452:
 347:Display/../../libs/PoliTeKDSP/libs/libDaisy/src/dev/oled_ssd130x.h ****     }
 5398              		.loc 11 347 49 is_stmt 0 view .LVU1271
 5399 0378 09FA0BFB 		lsl	fp, r9, fp
 347:Display/../../libs/PoliTeKDSP/libs/libDaisy/src/dev/oled_ssd130x.h ****     }
 5400              		.loc 11 347 42 view .LVU1272
 5401 037c 97F81090 		ldrb	r9, [r7, #16]	@ zero_extendqisi2
 5402 0380 29EA0B09 		bic	r9, r9, fp
 5403 0384 87F81090 		strb	r9, [r7, #16]
 5404 0388 C5E6     		b	.L330
 5405              	.LVL425:
 5406              	.L342:
 347:Display/../../libs/PoliTeKDSP/libs/libDaisy/src/dev/oled_ssd130x.h ****     }
 5407              		.loc 11 347 42 view .LVU1273
 5408              	.LBE1452:
 5409              	.LBE1451:
 5410              	.LBE1453:
 5411              	.LBE1454:
 5412              	.LBE1457:
 5413              	.LBE1460:
 5414              	.LBE1545:
 5415              	.LBB1546:
 5416              	.LBB1496:
 5417              	.LBB1493:
 5418              	.LBB1492:
 5419              	.LBB1491:
 5420              	.LBB1489:
 5421              	.LBI1489:
 340:Display/../../libs/PoliTeKDSP/libs/libDaisy/src/dev/oled_ssd130x.h ****     {
 5422              		.loc 11 340 10 is_stmt 1 view .LVU1274
ARM GAS  C:\Users\matte\AppData\Local\Temp\ccj2OJiD.s 			page 152


 5423              	.LBB1490:
 347:Display/../../libs/PoliTeKDSP/libs/libDaisy/src/dev/oled_ssd130x.h ****     }
 5424              		.loc 11 347 49 is_stmt 0 view .LVU1275
 5425 038a 0AFA0BFB 		lsl	fp, r10, fp
 347:Display/../../libs/PoliTeKDSP/libs/libDaisy/src/dev/oled_ssd130x.h ****     }
 5426              		.loc 11 347 42 view .LVU1276
 5427 038e 9EF810A0 		ldrb	r10, [lr, #16]	@ zero_extendqisi2
 5428 0392 2AEA0B0A 		bic	r10, r10, fp
 5429 0396 8EF810A0 		strb	r10, [lr, #16]
 5430 039a 18E7     		b	.L341
 5431              	.LVL426:
 5432              	.L334:
 347:Display/../../libs/PoliTeKDSP/libs/libDaisy/src/dev/oled_ssd130x.h ****     }
 5433              		.loc 11 347 42 view .LVU1277
 5434              	.LBE1490:
 5435              	.LBE1489:
 5436              	.LBE1491:
 5437              	.LBE1492:
 5438              	.LBE1493:
 5439              	.LBB1494:
 5440              	.LBB1480:
 5441              	.LBB1474:
 342:Display/../../libs/PoliTeKDSP/libs/libDaisy/src/dev/oled_ssd130x.h ****             return;
 5442              		.loc 11 342 9 view .LVU1278
 5443 039c 97BB     		cbnz	r7, .L373
 5444 039e 8EBB     		cbnz	r6, .L373
 5445              	.LBE1474:
 5446              	.LBE1480:
 5447              	.LBE1494:
 230:../libs/PoliTeKDSP/libs/libDaisy/src/hid/disp/display.h ****         int_fast16_t error  = deltaX - deltaY;
 5448              		.loc 10 230 42 view .LVU1279
 5449 03a0 0126     		movs	r6, #1
 5450 03a2 0096     		str	r6, [sp]
 5451              	.LBB1495:
 5452              	.LBB1481:
 5453              	.LBB1475:
 345:Display/../../libs/PoliTeKDSP/libs/libDaisy/src/dev/oled_ssd130x.h ****         else
 5454              		.loc 11 345 28 view .LVU1280
 5455 03a4 E608     		lsrs	r6, r4, #3
 345:Display/../../libs/PoliTeKDSP/libs/libDaisy/src/dev/oled_ssd130x.h ****         else
 5456              		.loc 11 345 42 view .LVU1281
 5457 03a6 03EBC616 		add	r6, r3, r6, lsl #7
 5458 03aa 0644     		add	r6, r6, r0
 344:Display/../../libs/PoliTeKDSP/libs/libDaisy/src/dev/oled_ssd130x.h ****             buffer_[x + (y / 8) * width] |= (1 << (y % 8));
 5459              		.loc 11 344 9 view .LVU1282
 5460 03ac 002D     		cmp	r5, #0
 5461 03ae 7FF4E2AE 		bne	.L408
 5462              	.LVL427:
 5463              	.L336:
 5464              	.LBB1468:
 5465              	.LBI1468:
 340:Display/../../libs/PoliTeKDSP/libs/libDaisy/src/dev/oled_ssd130x.h ****     {
 5466              		.loc 11 340 10 is_stmt 1 view .LVU1283
 5467              	.LBB1469:
 347:Display/../../libs/PoliTeKDSP/libs/libDaisy/src/dev/oled_ssd130x.h ****     }
 5468              		.loc 11 347 49 is_stmt 0 view .LVU1284
 5469 03b2 0127     		movs	r7, #1
ARM GAS  C:\Users\matte\AppData\Local\Temp\ccj2OJiD.s 			page 153


 347:Display/../../libs/PoliTeKDSP/libs/libDaisy/src/dev/oled_ssd130x.h ****     }
 5470              		.loc 11 347 55 view .LVU1285
 5471 03b4 04F0070C 		and	ip, r4, #7
 347:Display/../../libs/PoliTeKDSP/libs/libDaisy/src/dev/oled_ssd130x.h ****     }
 5472              		.loc 11 347 42 view .LVU1286
 5473 03b8 0395     		str	r5, [sp, #12]
 347:Display/../../libs/PoliTeKDSP/libs/libDaisy/src/dev/oled_ssd130x.h ****     }
 5474              		.loc 11 347 49 view .LVU1287
 5475 03ba 07FA0CFC 		lsl	ip, r7, ip
 347:Display/../../libs/PoliTeKDSP/libs/libDaisy/src/dev/oled_ssd130x.h ****     }
 5476              		.loc 11 347 42 view .LVU1288
 5477 03be 377C     		ldrb	r7, [r6, #16]	@ zero_extendqisi2
 5478 03c0 27EA0C07 		bic	r7, r7, ip
 5479 03c4 3774     		strb	r7, [r6, #16]
 5480 03c6 E3E6     		b	.L335
 5481              	.LVL428:
 5482              	.L357:
 347:Display/../../libs/PoliTeKDSP/libs/libDaisy/src/dev/oled_ssd130x.h ****     }
 5483              		.loc 11 347 42 view .LVU1289
 5484              	.LBE1469:
 5485              	.LBE1468:
 5486              	.LBE1475:
 5487              	.LBE1481:
 5488              	.LBE1495:
 5489              	.LBE1496:
 5490              	.LBE1546:
 5491              	.LBB1547:
 5492              	.LBB1541:
 5493              	.LBB1539:
 5494              	.LBB1530:
 5495              	.LBB1529:
 5496              	.LBB1527:
 5497              	.LBI1527:
 340:Display/../../libs/PoliTeKDSP/libs/libDaisy/src/dev/oled_ssd130x.h ****     {
 5498              		.loc 11 340 10 is_stmt 1 view .LVU1290
 5499              	.LBB1528:
 347:Display/../../libs/PoliTeKDSP/libs/libDaisy/src/dev/oled_ssd130x.h ****     }
 5500              		.loc 11 347 49 is_stmt 0 view .LVU1291
 5501 03c8 06FA07F7 		lsl	r7, r6, r7
 347:Display/../../libs/PoliTeKDSP/libs/libDaisy/src/dev/oled_ssd130x.h ****     }
 5502              		.loc 11 347 42 view .LVU1292
 5503 03cc 1E7C     		ldrb	r6, [r3, #16]	@ zero_extendqisi2
 5504 03ce 26EA0706 		bic	r6, r6, r7
 5505 03d2 1E74     		strb	r6, [r3, #16]
 5506 03d4 7FE7     		b	.L356
 5507              	.LVL429:
 5508              	.L347:
 347:Display/../../libs/PoliTeKDSP/libs/libDaisy/src/dev/oled_ssd130x.h ****     }
 5509              		.loc 11 347 42 view .LVU1293
 5510              	.LBE1528:
 5511              	.LBE1527:
 5512              	.LBE1529:
 5513              	.LBE1530:
 5514              	.LBE1539:
 5515              	.LBE1541:
 5516              	.LBE1547:
 5517              	.LBB1548:
ARM GAS  C:\Users\matte\AppData\Local\Temp\ccj2OJiD.s 			page 154


 5518              	.LBB1521:
 5519              	.LBB1519:
 5520              	.LBB1509:
 5521              	.LBB1507:
 5522              	.LBB1504:
 5523              	.LBI1504:
 340:Display/../../libs/PoliTeKDSP/libs/libDaisy/src/dev/oled_ssd130x.h ****     {
 5524              		.loc 11 340 10 is_stmt 1 view .LVU1294
 5525              	.LBB1505:
 347:Display/../../libs/PoliTeKDSP/libs/libDaisy/src/dev/oled_ssd130x.h ****     }
 5526              		.loc 11 347 49 is_stmt 0 view .LVU1295
 5527 03d6 0127     		movs	r7, #1
 347:Display/../../libs/PoliTeKDSP/libs/libDaisy/src/dev/oled_ssd130x.h ****     }
 5528              		.loc 11 347 55 view .LVU1296
 5529 03d8 04F0070C 		and	ip, r4, #7
 347:Display/../../libs/PoliTeKDSP/libs/libDaisy/src/dev/oled_ssd130x.h ****     }
 5530              		.loc 11 347 49 view .LVU1297
 5531 03dc 07FA0CFC 		lsl	ip, r7, ip
 347:Display/../../libs/PoliTeKDSP/libs/libDaisy/src/dev/oled_ssd130x.h ****     }
 5532              		.loc 11 347 42 view .LVU1298
 5533 03e0 377C     		ldrb	r7, [r6, #16]	@ zero_extendqisi2
 5534 03e2 27EA0C07 		bic	r7, r7, ip
 5535 03e6 3774     		strb	r7, [r6, #16]
 5536 03e8 2DE7     		b	.L346
 5537              	.LVL430:
 5538              	.L325:
 347:Display/../../libs/PoliTeKDSP/libs/libDaisy/src/dev/oled_ssd130x.h ****     }
 5539              		.loc 11 347 42 view .LVU1299
 5540              	.LBE1505:
 5541              	.LBE1504:
 5542              	.LBE1507:
 5543              	.LBE1509:
 5544              	.LBE1519:
 5545              	.LBE1521:
 5546              	.LBE1548:
 5547              	.LBB1549:
 5548              	.LBB1461:
 5549              	.LBB1458:
 5550              	.LBB1446:
 5551              	.LBB1442:
 5552              	.LBB1437:
 5553              	.LBI1437:
 340:Display/../../libs/PoliTeKDSP/libs/libDaisy/src/dev/oled_ssd130x.h ****     {
 5554              		.loc 11 340 10 is_stmt 1 view .LVU1300
 5555              	.LBB1438:
 347:Display/../../libs/PoliTeKDSP/libs/libDaisy/src/dev/oled_ssd130x.h ****     }
 5556              		.loc 11 347 49 is_stmt 0 view .LVU1301
 5557 03ea 07FA0CFC 		lsl	ip, r7, ip
 347:Display/../../libs/PoliTeKDSP/libs/libDaisy/src/dev/oled_ssd130x.h ****     }
 5558              		.loc 11 347 42 view .LVU1302
 5559 03ee 377C     		ldrb	r7, [r6, #16]	@ zero_extendqisi2
 5560 03f0 0295     		str	r5, [sp, #8]
 5561 03f2 27EA0C07 		bic	r7, r7, ip
 5562 03f6 0095     		str	r5, [sp]
 5563 03f8 3774     		strb	r7, [r6, #16]
 5564 03fa 6CE6     		b	.L324
 5565              	.LVL431:
ARM GAS  C:\Users\matte\AppData\Local\Temp\ccj2OJiD.s 			page 155


 5566              	.L369:
 347:Display/../../libs/PoliTeKDSP/libs/libDaisy/src/dev/oled_ssd130x.h ****     }
 5567              		.loc 11 347 42 view .LVU1303
 5568              	.LBE1438:
 5569              	.LBE1437:
 5570              	.LBE1442:
 5571              	.LBE1446:
 5572              	.LBE1458:
 5573              	.LBE1461:
 5574              	.LBE1549:
 5575              	.LBB1550:
 5576              	.LBB1497:
 230:../libs/PoliTeKDSP/libs/libDaisy/src/hid/disp/display.h ****         int_fast16_t error  = deltaX - deltaY;
 5577              		.loc 10 230 42 view .LVU1304
 5578 03fc 4FF0FF36 		mov	r6, #-1
 5579 0400 0096     		str	r6, [sp]
 5580 0402 C5E6     		b	.L335
 5581              	.LVL432:
 5582              	.L373:
 230:../libs/PoliTeKDSP/libs/libDaisy/src/hid/disp/display.h ****         int_fast16_t error  = deltaX - deltaY;
 5583              		.loc 10 230 42 view .LVU1305
 5584 0404 0126     		movs	r6, #1
 5585 0406 0096     		str	r6, [sp]
 5586 0408 C5E6     		b	.L338
 5587              	.LVL433:
 5588              	.L406:
 230:../libs/PoliTeKDSP/libs/libDaisy/src/hid/disp/display.h ****         int_fast16_t error  = deltaX - deltaY;
 5589              		.loc 10 230 42 view .LVU1306
 5590              	.LBE1497:
 5591              	.LBE1550:
 5592              	.LBB1551:
 5593              	.LBB1462:
 239:../libs/PoliTeKDSP/libs/libDaisy/src/hid/disp/display.h ****         {
 5594              		.loc 10 239 19 view .LVU1307
 5595 040a 0126     		movs	r6, #1
 5596 040c 0496     		str	r6, [sp, #16]
 5597 040e 90E6     		b	.L326
 5598              	.LVL434:
 5599              	.L407:
 239:../libs/PoliTeKDSP/libs/libDaisy/src/hid/disp/display.h ****         {
 5600              		.loc 10 239 19 view .LVU1308
 5601              	.LBE1462:
 5602              	.LBE1551:
 5603              	.LBB1552:
 5604              	.LBB1498:
 239:../libs/PoliTeKDSP/libs/libDaisy/src/hid/disp/display.h ****         {
 5605              		.loc 10 239 33 view .LVU1309
 5606 0410 0126     		movs	r6, #1
 5607 0412 0196     		str	r6, [sp, #4]
 5608 0414 EDE6     		b	.L337
 5609              	.LBE1498:
 5610              	.LBE1552:
 5611              	.LBE1576:
 5612              		.cfi_endproc
 5613              	.LFE5622:
 5615 0416 00BF     		.section	.text._ZN5daisy13SSD130xDriverILj128ELj64ENS_19SSD130xI2CTransportEE4InitENS2_6ConfigE,"a
 5616              		.align	1
ARM GAS  C:\Users\matte\AppData\Local\Temp\ccj2OJiD.s 			page 156


 5617              		.p2align 2,,3
 5618              		.weak	_ZN5daisy13SSD130xDriverILj128ELj64ENS_19SSD130xI2CTransportEE4InitENS2_6ConfigE
 5619              		.syntax unified
 5620              		.thumb
 5621              		.thumb_func
 5622              		.fpu fpv5-d16
 5624              	_ZN5daisy13SSD130xDriverILj128ELj64ENS_19SSD130xI2CTransportEE4InitENS2_6ConfigE:
 5625              	.LVL435:
 5626              	.LFB5472:
 241:Display/../../libs/PoliTeKDSP/libs/libDaisy/src/dev/oled_ssd130x.h ****     {
 5627              		.loc 11 241 10 is_stmt 1 view -0
 5628              		.cfi_startproc
 5629              		@ args = 28, pretend = 16, frame = 8
 5630              		@ frame_needed = 0, uses_anonymous_args = 0
 241:Display/../../libs/PoliTeKDSP/libs/libDaisy/src/dev/oled_ssd130x.h ****     {
 5631              		.loc 11 241 10 is_stmt 0 view .LVU1311
 5632 0000 84B0     		sub	sp, sp, #16
 5633              		.cfi_def_cfa_offset 16
 5634 0002 70B5     		push	{r4, r5, r6, lr}
 5635              		.cfi_def_cfa_offset 32
 5636              		.cfi_offset 4, -32
 5637              		.cfi_offset 5, -28
 5638              		.cfi_offset 6, -24
 5639              		.cfi_offset 14, -20
 5640 0004 84B0     		sub	sp, sp, #16
 5641              		.cfi_def_cfa_offset 48
 241:Display/../../libs/PoliTeKDSP/libs/libDaisy/src/dev/oled_ssd130x.h ****     {
 5642              		.loc 11 241 10 view .LVU1312
 5643 0006 0446     		mov	r4, r0
 5644              	.LVL436:
 5645              	.LBB1625:
 5646              	.LBI1625:
  37:Display/../../libs/PoliTeKDSP/libs/libDaisy/src/dev/oled_ssd130x.h ****     {
 5647              		.loc 11 37 10 is_stmt 1 view .LVU1313
 5648              	.LBB1626:
  39:Display/../../libs/PoliTeKDSP/libs/libDaisy/src/dev/oled_ssd130x.h ****         i2c_.Init(config.i2c_config);
 5649              		.loc 11 39 9 view .LVU1314
 5650              	.LBE1626:
 5651              	.LBE1625:
 5652              	.LBB1629:
 5653              	.LBB1630:
  45:Display/../../libs/PoliTeKDSP/libs/libDaisy/src/dev/oled_ssd130x.h ****     };
 5654              		.loc 11 45 30 is_stmt 0 view .LVU1315
 5655 0008 4FF47A76 		mov	r6, #1000
 5656              	.LBE1630:
 5657              	.LBE1629:
 241:Display/../../libs/PoliTeKDSP/libs/libDaisy/src/dev/oled_ssd130x.h ****     {
 5658              		.loc 11 241 10 view .LVU1316
 5659 000c 09AD     		add	r5, sp, #36
 5660 000e 85E80E00 		stm	r5, {r1, r2, r3}
 5661              	.LBB1633:
 5662              	.LBB1627:
  39:Display/../../libs/PoliTeKDSP/libs/libDaisy/src/dev/oled_ssd130x.h ****         i2c_.Init(config.i2c_config);
 5663              		.loc 11 39 22 view .LVU1317
 5664 0012 9DF83830 		ldrb	r3, [sp, #56]	@ zero_extendqisi2
  40:Display/../../libs/PoliTeKDSP/libs/libDaisy/src/dev/oled_ssd130x.h ****     };
 5665              		.loc 11 40 18 view .LVU1318
ARM GAS  C:\Users\matte\AppData\Local\Temp\ccj2OJiD.s 			page 157


 5666 0016 2946     		mov	r1, r5
 5667              	.LBE1627:
 5668              	.LBE1633:
 5669              	.LBB1634:
 5670              	.LBB1631:
  44:Display/../../libs/PoliTeKDSP/libs/libDaisy/src/dev/oled_ssd130x.h ****         i2c_.TransmitBlocking(i2c_address_, buf, 2, 1000);
 5671              		.loc 11 44 17 view .LVU1319
 5672 0018 0025     		movs	r5, #0
 5673              	.LBE1631:
 5674              	.LBE1634:
 5675              	.LBB1635:
 5676              	.LBB1628:
  39:Display/../../libs/PoliTeKDSP/libs/libDaisy/src/dev/oled_ssd130x.h ****         i2c_.Init(config.i2c_config);
 5677              		.loc 11 39 22 view .LVU1320
 5678 001a 0371     		strb	r3, [r0, #4]
  40:Display/../../libs/PoliTeKDSP/libs/libDaisy/src/dev/oled_ssd130x.h ****     };
 5679              		.loc 11 40 9 is_stmt 1 view .LVU1321
  40:Display/../../libs/PoliTeKDSP/libs/libDaisy/src/dev/oled_ssd130x.h ****     };
 5680              		.loc 11 40 18 is_stmt 0 view .LVU1322
 5681 001c FFF7FEFF 		bl	_ZN5daisy9I2CHandle4InitERKNS0_6ConfigE
 5682              	.LVL437:
  40:Display/../../libs/PoliTeKDSP/libs/libDaisy/src/dev/oled_ssd130x.h ****     };
 5683              		.loc 11 40 18 view .LVU1323
 5684              	.LBE1628:
 5685              	.LBE1635:
 5686              	.LBB1636:
 5687              	.LBI1629:
  42:Display/../../libs/PoliTeKDSP/libs/libDaisy/src/dev/oled_ssd130x.h ****     {
 5688              		.loc 11 42 10 is_stmt 1 view .LVU1324
 5689              	.LBB1632:
  44:Display/../../libs/PoliTeKDSP/libs/libDaisy/src/dev/oled_ssd130x.h ****         i2c_.TransmitBlocking(i2c_address_, buf, 2, 1000);
 5690              		.loc 11 44 9 view .LVU1325
  44:Display/../../libs/PoliTeKDSP/libs/libDaisy/src/dev/oled_ssd130x.h ****         i2c_.TransmitBlocking(i2c_address_, buf, 2, 1000);
 5691              		.loc 11 44 36 is_stmt 0 view .LVU1326
 5692 0020 AE23     		movs	r3, #174
  45:Display/../../libs/PoliTeKDSP/libs/libDaisy/src/dev/oled_ssd130x.h ****     };
 5693              		.loc 11 45 30 view .LVU1327
 5694 0022 03AA     		add	r2, sp, #12
 5695 0024 0096     		str	r6, [sp]
  44:Display/../../libs/PoliTeKDSP/libs/libDaisy/src/dev/oled_ssd130x.h ****         i2c_.TransmitBlocking(i2c_address_, buf, 2, 1000);
 5696              		.loc 11 44 36 view .LVU1328
 5697 0026 8DF80D30 		strb	r3, [sp, #13]
  45:Display/../../libs/PoliTeKDSP/libs/libDaisy/src/dev/oled_ssd130x.h ****     };
 5698              		.loc 11 45 9 is_stmt 1 view .LVU1329
  45:Display/../../libs/PoliTeKDSP/libs/libDaisy/src/dev/oled_ssd130x.h ****     };
 5699              		.loc 11 45 30 is_stmt 0 view .LVU1330
 5700 002a 2046     		mov	r0, r4
 5701 002c 2179     		ldrb	r1, [r4, #4]	@ zero_extendqisi2
 5702 002e 0223     		movs	r3, #2
  44:Display/../../libs/PoliTeKDSP/libs/libDaisy/src/dev/oled_ssd130x.h ****         i2c_.TransmitBlocking(i2c_address_, buf, 2, 1000);
 5703              		.loc 11 44 17 view .LVU1331
 5704 0030 8DF80C50 		strb	r5, [sp, #12]
  45:Display/../../libs/PoliTeKDSP/libs/libDaisy/src/dev/oled_ssd130x.h ****     };
 5705              		.loc 11 45 30 view .LVU1332
 5706 0034 FFF7FEFF 		bl	_ZN5daisy9I2CHandle16TransmitBlockingEtPhtm
 5707              	.LVL438:
  45:Display/../../libs/PoliTeKDSP/libs/libDaisy/src/dev/oled_ssd130x.h ****     };
ARM GAS  C:\Users\matte\AppData\Local\Temp\ccj2OJiD.s 			page 158


 5708              		.loc 11 45 30 view .LVU1333
 5709              	.LBE1632:
 5710              	.LBE1636:
 5711              	.LBB1637:
 5712              	.LBI1637:
  42:Display/../../libs/PoliTeKDSP/libs/libDaisy/src/dev/oled_ssd130x.h ****     {
 5713              		.loc 11 42 10 is_stmt 1 view .LVU1334
 5714              	.LBB1638:
  44:Display/../../libs/PoliTeKDSP/libs/libDaisy/src/dev/oled_ssd130x.h ****         i2c_.TransmitBlocking(i2c_address_, buf, 2, 1000);
 5715              		.loc 11 44 9 view .LVU1335
  44:Display/../../libs/PoliTeKDSP/libs/libDaisy/src/dev/oled_ssd130x.h ****         i2c_.TransmitBlocking(i2c_address_, buf, 2, 1000);
 5716              		.loc 11 44 36 is_stmt 0 view .LVU1336
 5717 0038 D523     		movs	r3, #213
  45:Display/../../libs/PoliTeKDSP/libs/libDaisy/src/dev/oled_ssd130x.h ****     };
 5718              		.loc 11 45 30 view .LVU1337
 5719 003a 03AA     		add	r2, sp, #12
 5720 003c 0096     		str	r6, [sp]
 5721 003e 2046     		mov	r0, r4
 5722 0040 2179     		ldrb	r1, [r4, #4]	@ zero_extendqisi2
  44:Display/../../libs/PoliTeKDSP/libs/libDaisy/src/dev/oled_ssd130x.h ****         i2c_.TransmitBlocking(i2c_address_, buf, 2, 1000);
 5723              		.loc 11 44 36 view .LVU1338
 5724 0042 8DF80D30 		strb	r3, [sp, #13]
  45:Display/../../libs/PoliTeKDSP/libs/libDaisy/src/dev/oled_ssd130x.h ****     };
 5725              		.loc 11 45 9 is_stmt 1 view .LVU1339
  45:Display/../../libs/PoliTeKDSP/libs/libDaisy/src/dev/oled_ssd130x.h ****     };
 5726              		.loc 11 45 30 is_stmt 0 view .LVU1340
 5727 0046 0223     		movs	r3, #2
  44:Display/../../libs/PoliTeKDSP/libs/libDaisy/src/dev/oled_ssd130x.h ****         i2c_.TransmitBlocking(i2c_address_, buf, 2, 1000);
 5728              		.loc 11 44 17 view .LVU1341
 5729 0048 8DF80C50 		strb	r5, [sp, #12]
  45:Display/../../libs/PoliTeKDSP/libs/libDaisy/src/dev/oled_ssd130x.h ****     };
 5730              		.loc 11 45 30 view .LVU1342
 5731 004c FFF7FEFF 		bl	_ZN5daisy9I2CHandle16TransmitBlockingEtPhtm
 5732              	.LVL439:
  45:Display/../../libs/PoliTeKDSP/libs/libDaisy/src/dev/oled_ssd130x.h ****     };
 5733              		.loc 11 45 30 view .LVU1343
 5734              	.LBE1638:
 5735              	.LBE1637:
 5736              	.LBB1639:
 5737              	.LBI1639:
  42:Display/../../libs/PoliTeKDSP/libs/libDaisy/src/dev/oled_ssd130x.h ****     {
 5738              		.loc 11 42 10 is_stmt 1 view .LVU1344
 5739              	.LBB1640:
  44:Display/../../libs/PoliTeKDSP/libs/libDaisy/src/dev/oled_ssd130x.h ****         i2c_.TransmitBlocking(i2c_address_, buf, 2, 1000);
 5740              		.loc 11 44 9 view .LVU1345
  44:Display/../../libs/PoliTeKDSP/libs/libDaisy/src/dev/oled_ssd130x.h ****         i2c_.TransmitBlocking(i2c_address_, buf, 2, 1000);
 5741              		.loc 11 44 36 is_stmt 0 view .LVU1346
 5742 0050 8023     		movs	r3, #128
  45:Display/../../libs/PoliTeKDSP/libs/libDaisy/src/dev/oled_ssd130x.h ****     };
 5743              		.loc 11 45 30 view .LVU1347
 5744 0052 03AA     		add	r2, sp, #12
 5745 0054 0096     		str	r6, [sp]
 5746 0056 2046     		mov	r0, r4
 5747 0058 2179     		ldrb	r1, [r4, #4]	@ zero_extendqisi2
  44:Display/../../libs/PoliTeKDSP/libs/libDaisy/src/dev/oled_ssd130x.h ****         i2c_.TransmitBlocking(i2c_address_, buf, 2, 1000);
 5748              		.loc 11 44 36 view .LVU1348
 5749 005a 8DF80D30 		strb	r3, [sp, #13]
ARM GAS  C:\Users\matte\AppData\Local\Temp\ccj2OJiD.s 			page 159


  45:Display/../../libs/PoliTeKDSP/libs/libDaisy/src/dev/oled_ssd130x.h ****     };
 5750              		.loc 11 45 9 is_stmt 1 view .LVU1349
  45:Display/../../libs/PoliTeKDSP/libs/libDaisy/src/dev/oled_ssd130x.h ****     };
 5751              		.loc 11 45 30 is_stmt 0 view .LVU1350
 5752 005e 0223     		movs	r3, #2
  44:Display/../../libs/PoliTeKDSP/libs/libDaisy/src/dev/oled_ssd130x.h ****         i2c_.TransmitBlocking(i2c_address_, buf, 2, 1000);
 5753              		.loc 11 44 17 view .LVU1351
 5754 0060 8DF80C50 		strb	r5, [sp, #12]
  45:Display/../../libs/PoliTeKDSP/libs/libDaisy/src/dev/oled_ssd130x.h ****     };
 5755              		.loc 11 45 30 view .LVU1352
 5756 0064 FFF7FEFF 		bl	_ZN5daisy9I2CHandle16TransmitBlockingEtPhtm
 5757              	.LVL440:
  45:Display/../../libs/PoliTeKDSP/libs/libDaisy/src/dev/oled_ssd130x.h ****     };
 5758              		.loc 11 45 30 view .LVU1353
 5759              	.LBE1640:
 5760              	.LBE1639:
 5761              	.LBB1641:
 5762              	.LBI1641:
  42:Display/../../libs/PoliTeKDSP/libs/libDaisy/src/dev/oled_ssd130x.h ****     {
 5763              		.loc 11 42 10 is_stmt 1 view .LVU1354
 5764              	.LBB1642:
  44:Display/../../libs/PoliTeKDSP/libs/libDaisy/src/dev/oled_ssd130x.h ****         i2c_.TransmitBlocking(i2c_address_, buf, 2, 1000);
 5765              		.loc 11 44 9 view .LVU1355
  44:Display/../../libs/PoliTeKDSP/libs/libDaisy/src/dev/oled_ssd130x.h ****         i2c_.TransmitBlocking(i2c_address_, buf, 2, 1000);
 5766              		.loc 11 44 36 is_stmt 0 view .LVU1356
 5767 0068 A823     		movs	r3, #168
  45:Display/../../libs/PoliTeKDSP/libs/libDaisy/src/dev/oled_ssd130x.h ****     };
 5768              		.loc 11 45 30 view .LVU1357
 5769 006a 03AA     		add	r2, sp, #12
 5770 006c 0096     		str	r6, [sp]
 5771 006e 2046     		mov	r0, r4
 5772 0070 2179     		ldrb	r1, [r4, #4]	@ zero_extendqisi2
  44:Display/../../libs/PoliTeKDSP/libs/libDaisy/src/dev/oled_ssd130x.h ****         i2c_.TransmitBlocking(i2c_address_, buf, 2, 1000);
 5773              		.loc 11 44 36 view .LVU1358
 5774 0072 8DF80D30 		strb	r3, [sp, #13]
  45:Display/../../libs/PoliTeKDSP/libs/libDaisy/src/dev/oled_ssd130x.h ****     };
 5775              		.loc 11 45 9 is_stmt 1 view .LVU1359
  45:Display/../../libs/PoliTeKDSP/libs/libDaisy/src/dev/oled_ssd130x.h ****     };
 5776              		.loc 11 45 30 is_stmt 0 view .LVU1360
 5777 0076 0223     		movs	r3, #2
  44:Display/../../libs/PoliTeKDSP/libs/libDaisy/src/dev/oled_ssd130x.h ****         i2c_.TransmitBlocking(i2c_address_, buf, 2, 1000);
 5778              		.loc 11 44 17 view .LVU1361
 5779 0078 8DF80C50 		strb	r5, [sp, #12]
  45:Display/../../libs/PoliTeKDSP/libs/libDaisy/src/dev/oled_ssd130x.h ****     };
 5780              		.loc 11 45 30 view .LVU1362
 5781 007c FFF7FEFF 		bl	_ZN5daisy9I2CHandle16TransmitBlockingEtPhtm
 5782              	.LVL441:
  45:Display/../../libs/PoliTeKDSP/libs/libDaisy/src/dev/oled_ssd130x.h ****     };
 5783              		.loc 11 45 30 view .LVU1363
 5784              	.LBE1642:
 5785              	.LBE1641:
 5786              	.LBB1643:
 5787              	.LBI1643:
  42:Display/../../libs/PoliTeKDSP/libs/libDaisy/src/dev/oled_ssd130x.h ****     {
 5788              		.loc 11 42 10 is_stmt 1 view .LVU1364
 5789              	.LBB1644:
  44:Display/../../libs/PoliTeKDSP/libs/libDaisy/src/dev/oled_ssd130x.h ****         i2c_.TransmitBlocking(i2c_address_, buf, 2, 1000);
ARM GAS  C:\Users\matte\AppData\Local\Temp\ccj2OJiD.s 			page 160


 5790              		.loc 11 44 9 view .LVU1365
  44:Display/../../libs/PoliTeKDSP/libs/libDaisy/src/dev/oled_ssd130x.h ****         i2c_.TransmitBlocking(i2c_address_, buf, 2, 1000);
 5791              		.loc 11 44 36 is_stmt 0 view .LVU1366
 5792 0080 3F23     		movs	r3, #63
  45:Display/../../libs/PoliTeKDSP/libs/libDaisy/src/dev/oled_ssd130x.h ****     };
 5793              		.loc 11 45 30 view .LVU1367
 5794 0082 03AA     		add	r2, sp, #12
 5795 0084 0096     		str	r6, [sp]
 5796 0086 2046     		mov	r0, r4
 5797 0088 2179     		ldrb	r1, [r4, #4]	@ zero_extendqisi2
  44:Display/../../libs/PoliTeKDSP/libs/libDaisy/src/dev/oled_ssd130x.h ****         i2c_.TransmitBlocking(i2c_address_, buf, 2, 1000);
 5798              		.loc 11 44 36 view .LVU1368
 5799 008a 8DF80D30 		strb	r3, [sp, #13]
  45:Display/../../libs/PoliTeKDSP/libs/libDaisy/src/dev/oled_ssd130x.h ****     };
 5800              		.loc 11 45 9 is_stmt 1 view .LVU1369
  45:Display/../../libs/PoliTeKDSP/libs/libDaisy/src/dev/oled_ssd130x.h ****     };
 5801              		.loc 11 45 30 is_stmt 0 view .LVU1370
 5802 008e 0223     		movs	r3, #2
  44:Display/../../libs/PoliTeKDSP/libs/libDaisy/src/dev/oled_ssd130x.h ****         i2c_.TransmitBlocking(i2c_address_, buf, 2, 1000);
 5803              		.loc 11 44 17 view .LVU1371
 5804 0090 8DF80C50 		strb	r5, [sp, #12]
  45:Display/../../libs/PoliTeKDSP/libs/libDaisy/src/dev/oled_ssd130x.h ****     };
 5805              		.loc 11 45 30 view .LVU1372
 5806 0094 FFF7FEFF 		bl	_ZN5daisy9I2CHandle16TransmitBlockingEtPhtm
 5807              	.LVL442:
  45:Display/../../libs/PoliTeKDSP/libs/libDaisy/src/dev/oled_ssd130x.h ****     };
 5808              		.loc 11 45 30 view .LVU1373
 5809              	.LBE1644:
 5810              	.LBE1643:
 5811              	.LBB1645:
 5812              	.LBI1645:
  42:Display/../../libs/PoliTeKDSP/libs/libDaisy/src/dev/oled_ssd130x.h ****     {
 5813              		.loc 11 42 10 is_stmt 1 view .LVU1374
 5814              	.LBB1646:
  44:Display/../../libs/PoliTeKDSP/libs/libDaisy/src/dev/oled_ssd130x.h ****         i2c_.TransmitBlocking(i2c_address_, buf, 2, 1000);
 5815              		.loc 11 44 9 view .LVU1375
  44:Display/../../libs/PoliTeKDSP/libs/libDaisy/src/dev/oled_ssd130x.h ****         i2c_.TransmitBlocking(i2c_address_, buf, 2, 1000);
 5816              		.loc 11 44 36 is_stmt 0 view .LVU1376
 5817 0098 DA23     		movs	r3, #218
  45:Display/../../libs/PoliTeKDSP/libs/libDaisy/src/dev/oled_ssd130x.h ****     };
 5818              		.loc 11 45 30 view .LVU1377
 5819 009a 03AA     		add	r2, sp, #12
 5820 009c 0096     		str	r6, [sp]
 5821 009e 2046     		mov	r0, r4
 5822 00a0 2179     		ldrb	r1, [r4, #4]	@ zero_extendqisi2
  44:Display/../../libs/PoliTeKDSP/libs/libDaisy/src/dev/oled_ssd130x.h ****         i2c_.TransmitBlocking(i2c_address_, buf, 2, 1000);
 5823              		.loc 11 44 36 view .LVU1378
 5824 00a2 8DF80D30 		strb	r3, [sp, #13]
  45:Display/../../libs/PoliTeKDSP/libs/libDaisy/src/dev/oled_ssd130x.h ****     };
 5825              		.loc 11 45 9 is_stmt 1 view .LVU1379
  45:Display/../../libs/PoliTeKDSP/libs/libDaisy/src/dev/oled_ssd130x.h ****     };
 5826              		.loc 11 45 30 is_stmt 0 view .LVU1380
 5827 00a6 0223     		movs	r3, #2
  44:Display/../../libs/PoliTeKDSP/libs/libDaisy/src/dev/oled_ssd130x.h ****         i2c_.TransmitBlocking(i2c_address_, buf, 2, 1000);
 5828              		.loc 11 44 17 view .LVU1381
 5829 00a8 8DF80C50 		strb	r5, [sp, #12]
  45:Display/../../libs/PoliTeKDSP/libs/libDaisy/src/dev/oled_ssd130x.h ****     };
ARM GAS  C:\Users\matte\AppData\Local\Temp\ccj2OJiD.s 			page 161


 5830              		.loc 11 45 30 view .LVU1382
 5831 00ac FFF7FEFF 		bl	_ZN5daisy9I2CHandle16TransmitBlockingEtPhtm
 5832              	.LVL443:
  45:Display/../../libs/PoliTeKDSP/libs/libDaisy/src/dev/oled_ssd130x.h ****     };
 5833              		.loc 11 45 30 view .LVU1383
 5834              	.LBE1646:
 5835              	.LBE1645:
 5836              	.LBB1647:
 5837              	.LBI1647:
  42:Display/../../libs/PoliTeKDSP/libs/libDaisy/src/dev/oled_ssd130x.h ****     {
 5838              		.loc 11 42 10 is_stmt 1 view .LVU1384
 5839              	.LBB1648:
  44:Display/../../libs/PoliTeKDSP/libs/libDaisy/src/dev/oled_ssd130x.h ****         i2c_.TransmitBlocking(i2c_address_, buf, 2, 1000);
 5840              		.loc 11 44 9 view .LVU1385
  44:Display/../../libs/PoliTeKDSP/libs/libDaisy/src/dev/oled_ssd130x.h ****         i2c_.TransmitBlocking(i2c_address_, buf, 2, 1000);
 5841              		.loc 11 44 36 is_stmt 0 view .LVU1386
 5842 00b0 1223     		movs	r3, #18
  45:Display/../../libs/PoliTeKDSP/libs/libDaisy/src/dev/oled_ssd130x.h ****     };
 5843              		.loc 11 45 30 view .LVU1387
 5844 00b2 03AA     		add	r2, sp, #12
 5845 00b4 0096     		str	r6, [sp]
 5846 00b6 2046     		mov	r0, r4
 5847 00b8 2179     		ldrb	r1, [r4, #4]	@ zero_extendqisi2
  44:Display/../../libs/PoliTeKDSP/libs/libDaisy/src/dev/oled_ssd130x.h ****         i2c_.TransmitBlocking(i2c_address_, buf, 2, 1000);
 5848              		.loc 11 44 36 view .LVU1388
 5849 00ba 8DF80D30 		strb	r3, [sp, #13]
  45:Display/../../libs/PoliTeKDSP/libs/libDaisy/src/dev/oled_ssd130x.h ****     };
 5850              		.loc 11 45 9 is_stmt 1 view .LVU1389
  45:Display/../../libs/PoliTeKDSP/libs/libDaisy/src/dev/oled_ssd130x.h ****     };
 5851              		.loc 11 45 30 is_stmt 0 view .LVU1390
 5852 00be 0223     		movs	r3, #2
  44:Display/../../libs/PoliTeKDSP/libs/libDaisy/src/dev/oled_ssd130x.h ****         i2c_.TransmitBlocking(i2c_address_, buf, 2, 1000);
 5853              		.loc 11 44 17 view .LVU1391
 5854 00c0 8DF80C50 		strb	r5, [sp, #12]
  45:Display/../../libs/PoliTeKDSP/libs/libDaisy/src/dev/oled_ssd130x.h ****     };
 5855              		.loc 11 45 30 view .LVU1392
 5856 00c4 FFF7FEFF 		bl	_ZN5daisy9I2CHandle16TransmitBlockingEtPhtm
 5857              	.LVL444:
  45:Display/../../libs/PoliTeKDSP/libs/libDaisy/src/dev/oled_ssd130x.h ****     };
 5858              		.loc 11 45 30 view .LVU1393
 5859              	.LBE1648:
 5860              	.LBE1647:
 5861              	.LBB1649:
 5862              	.LBI1649:
  42:Display/../../libs/PoliTeKDSP/libs/libDaisy/src/dev/oled_ssd130x.h ****     {
 5863              		.loc 11 42 10 is_stmt 1 view .LVU1394
 5864              	.LBB1650:
  44:Display/../../libs/PoliTeKDSP/libs/libDaisy/src/dev/oled_ssd130x.h ****         i2c_.TransmitBlocking(i2c_address_, buf, 2, 1000);
 5865              		.loc 11 44 9 view .LVU1395
  44:Display/../../libs/PoliTeKDSP/libs/libDaisy/src/dev/oled_ssd130x.h ****         i2c_.TransmitBlocking(i2c_address_, buf, 2, 1000);
 5866              		.loc 11 44 36 is_stmt 0 view .LVU1396
 5867 00c8 D323     		movs	r3, #211
  45:Display/../../libs/PoliTeKDSP/libs/libDaisy/src/dev/oled_ssd130x.h ****     };
 5868              		.loc 11 45 30 view .LVU1397
 5869 00ca 03AA     		add	r2, sp, #12
 5870 00cc 0096     		str	r6, [sp]
 5871 00ce 2046     		mov	r0, r4
ARM GAS  C:\Users\matte\AppData\Local\Temp\ccj2OJiD.s 			page 162


 5872 00d0 2179     		ldrb	r1, [r4, #4]	@ zero_extendqisi2
  44:Display/../../libs/PoliTeKDSP/libs/libDaisy/src/dev/oled_ssd130x.h ****         i2c_.TransmitBlocking(i2c_address_, buf, 2, 1000);
 5873              		.loc 11 44 36 view .LVU1398
 5874 00d2 8DF80D30 		strb	r3, [sp, #13]
  45:Display/../../libs/PoliTeKDSP/libs/libDaisy/src/dev/oled_ssd130x.h ****     };
 5875              		.loc 11 45 9 is_stmt 1 view .LVU1399
  45:Display/../../libs/PoliTeKDSP/libs/libDaisy/src/dev/oled_ssd130x.h ****     };
 5876              		.loc 11 45 30 is_stmt 0 view .LVU1400
 5877 00d6 0223     		movs	r3, #2
  44:Display/../../libs/PoliTeKDSP/libs/libDaisy/src/dev/oled_ssd130x.h ****         i2c_.TransmitBlocking(i2c_address_, buf, 2, 1000);
 5878              		.loc 11 44 17 view .LVU1401
 5879 00d8 8DF80C50 		strb	r5, [sp, #12]
  45:Display/../../libs/PoliTeKDSP/libs/libDaisy/src/dev/oled_ssd130x.h ****     };
 5880              		.loc 11 45 30 view .LVU1402
 5881 00dc FFF7FEFF 		bl	_ZN5daisy9I2CHandle16TransmitBlockingEtPhtm
 5882              	.LVL445:
  45:Display/../../libs/PoliTeKDSP/libs/libDaisy/src/dev/oled_ssd130x.h ****     };
 5883              		.loc 11 45 30 view .LVU1403
 5884              	.LBE1650:
 5885              	.LBE1649:
 5886              	.LBB1651:
 5887              	.LBI1651:
  42:Display/../../libs/PoliTeKDSP/libs/libDaisy/src/dev/oled_ssd130x.h ****     {
 5888              		.loc 11 42 10 is_stmt 1 view .LVU1404
 5889              	.LBB1652:
  44:Display/../../libs/PoliTeKDSP/libs/libDaisy/src/dev/oled_ssd130x.h ****         i2c_.TransmitBlocking(i2c_address_, buf, 2, 1000);
 5890              		.loc 11 44 9 view .LVU1405
  45:Display/../../libs/PoliTeKDSP/libs/libDaisy/src/dev/oled_ssd130x.h ****     };
 5891              		.loc 11 45 30 is_stmt 0 view .LVU1406
 5892 00e0 03AA     		add	r2, sp, #12
 5893 00e2 0096     		str	r6, [sp]
 5894 00e4 0223     		movs	r3, #2
 5895 00e6 2179     		ldrb	r1, [r4, #4]	@ zero_extendqisi2
 5896 00e8 2046     		mov	r0, r4
  44:Display/../../libs/PoliTeKDSP/libs/libDaisy/src/dev/oled_ssd130x.h ****         i2c_.TransmitBlocking(i2c_address_, buf, 2, 1000);
 5897              		.loc 11 44 17 view .LVU1407
 5898 00ea 8DF80C50 		strb	r5, [sp, #12]
  44:Display/../../libs/PoliTeKDSP/libs/libDaisy/src/dev/oled_ssd130x.h ****         i2c_.TransmitBlocking(i2c_address_, buf, 2, 1000);
 5899              		.loc 11 44 36 view .LVU1408
 5900 00ee 8DF80D50 		strb	r5, [sp, #13]
  45:Display/../../libs/PoliTeKDSP/libs/libDaisy/src/dev/oled_ssd130x.h ****     };
 5901              		.loc 11 45 9 is_stmt 1 view .LVU1409
  45:Display/../../libs/PoliTeKDSP/libs/libDaisy/src/dev/oled_ssd130x.h ****     };
 5902              		.loc 11 45 30 is_stmt 0 view .LVU1410
 5903 00f2 FFF7FEFF 		bl	_ZN5daisy9I2CHandle16TransmitBlockingEtPhtm
 5904              	.LVL446:
  45:Display/../../libs/PoliTeKDSP/libs/libDaisy/src/dev/oled_ssd130x.h ****     };
 5905              		.loc 11 45 30 view .LVU1411
 5906              	.LBE1652:
 5907              	.LBE1651:
 5908              	.LBB1653:
 5909              	.LBI1653:
  42:Display/../../libs/PoliTeKDSP/libs/libDaisy/src/dev/oled_ssd130x.h ****     {
 5910              		.loc 11 42 10 is_stmt 1 view .LVU1412
 5911              	.LBB1654:
  44:Display/../../libs/PoliTeKDSP/libs/libDaisy/src/dev/oled_ssd130x.h ****         i2c_.TransmitBlocking(i2c_address_, buf, 2, 1000);
 5912              		.loc 11 44 9 view .LVU1413
ARM GAS  C:\Users\matte\AppData\Local\Temp\ccj2OJiD.s 			page 163


  44:Display/../../libs/PoliTeKDSP/libs/libDaisy/src/dev/oled_ssd130x.h ****         i2c_.TransmitBlocking(i2c_address_, buf, 2, 1000);
 5913              		.loc 11 44 36 is_stmt 0 view .LVU1414
 5914 00f6 4023     		movs	r3, #64
  45:Display/../../libs/PoliTeKDSP/libs/libDaisy/src/dev/oled_ssd130x.h ****     };
 5915              		.loc 11 45 30 view .LVU1415
 5916 00f8 03AA     		add	r2, sp, #12
 5917 00fa 0096     		str	r6, [sp]
 5918 00fc 2046     		mov	r0, r4
 5919 00fe 2179     		ldrb	r1, [r4, #4]	@ zero_extendqisi2
  44:Display/../../libs/PoliTeKDSP/libs/libDaisy/src/dev/oled_ssd130x.h ****         i2c_.TransmitBlocking(i2c_address_, buf, 2, 1000);
 5920              		.loc 11 44 36 view .LVU1416
 5921 0100 8DF80D30 		strb	r3, [sp, #13]
  45:Display/../../libs/PoliTeKDSP/libs/libDaisy/src/dev/oled_ssd130x.h ****     };
 5922              		.loc 11 45 9 is_stmt 1 view .LVU1417
  45:Display/../../libs/PoliTeKDSP/libs/libDaisy/src/dev/oled_ssd130x.h ****     };
 5923              		.loc 11 45 30 is_stmt 0 view .LVU1418
 5924 0104 0223     		movs	r3, #2
  44:Display/../../libs/PoliTeKDSP/libs/libDaisy/src/dev/oled_ssd130x.h ****         i2c_.TransmitBlocking(i2c_address_, buf, 2, 1000);
 5925              		.loc 11 44 17 view .LVU1419
 5926 0106 8DF80C50 		strb	r5, [sp, #12]
  45:Display/../../libs/PoliTeKDSP/libs/libDaisy/src/dev/oled_ssd130x.h ****     };
 5927              		.loc 11 45 30 view .LVU1420
 5928 010a FFF7FEFF 		bl	_ZN5daisy9I2CHandle16TransmitBlockingEtPhtm
 5929              	.LVL447:
  45:Display/../../libs/PoliTeKDSP/libs/libDaisy/src/dev/oled_ssd130x.h ****     };
 5930              		.loc 11 45 30 view .LVU1421
 5931              	.LBE1654:
 5932              	.LBE1653:
 5933              	.LBB1655:
 5934              	.LBI1655:
  42:Display/../../libs/PoliTeKDSP/libs/libDaisy/src/dev/oled_ssd130x.h ****     {
 5935              		.loc 11 42 10 is_stmt 1 view .LVU1422
 5936              	.LBB1656:
  44:Display/../../libs/PoliTeKDSP/libs/libDaisy/src/dev/oled_ssd130x.h ****         i2c_.TransmitBlocking(i2c_address_, buf, 2, 1000);
 5937              		.loc 11 44 9 view .LVU1423
  44:Display/../../libs/PoliTeKDSP/libs/libDaisy/src/dev/oled_ssd130x.h ****         i2c_.TransmitBlocking(i2c_address_, buf, 2, 1000);
 5938              		.loc 11 44 36 is_stmt 0 view .LVU1424
 5939 010e A623     		movs	r3, #166
  45:Display/../../libs/PoliTeKDSP/libs/libDaisy/src/dev/oled_ssd130x.h ****     };
 5940              		.loc 11 45 30 view .LVU1425
 5941 0110 03AA     		add	r2, sp, #12
 5942 0112 0096     		str	r6, [sp]
 5943 0114 2046     		mov	r0, r4
 5944 0116 2179     		ldrb	r1, [r4, #4]	@ zero_extendqisi2
  44:Display/../../libs/PoliTeKDSP/libs/libDaisy/src/dev/oled_ssd130x.h ****         i2c_.TransmitBlocking(i2c_address_, buf, 2, 1000);
 5945              		.loc 11 44 36 view .LVU1426
 5946 0118 8DF80D30 		strb	r3, [sp, #13]
  45:Display/../../libs/PoliTeKDSP/libs/libDaisy/src/dev/oled_ssd130x.h ****     };
 5947              		.loc 11 45 9 is_stmt 1 view .LVU1427
  45:Display/../../libs/PoliTeKDSP/libs/libDaisy/src/dev/oled_ssd130x.h ****     };
 5948              		.loc 11 45 30 is_stmt 0 view .LVU1428
 5949 011c 0223     		movs	r3, #2
  44:Display/../../libs/PoliTeKDSP/libs/libDaisy/src/dev/oled_ssd130x.h ****         i2c_.TransmitBlocking(i2c_address_, buf, 2, 1000);
 5950              		.loc 11 44 17 view .LVU1429
 5951 011e 8DF80C50 		strb	r5, [sp, #12]
  45:Display/../../libs/PoliTeKDSP/libs/libDaisy/src/dev/oled_ssd130x.h ****     };
 5952              		.loc 11 45 30 view .LVU1430
ARM GAS  C:\Users\matte\AppData\Local\Temp\ccj2OJiD.s 			page 164


 5953 0122 FFF7FEFF 		bl	_ZN5daisy9I2CHandle16TransmitBlockingEtPhtm
 5954              	.LVL448:
  45:Display/../../libs/PoliTeKDSP/libs/libDaisy/src/dev/oled_ssd130x.h ****     };
 5955              		.loc 11 45 30 view .LVU1431
 5956              	.LBE1656:
 5957              	.LBE1655:
 5958              	.LBB1657:
 5959              	.LBI1657:
  42:Display/../../libs/PoliTeKDSP/libs/libDaisy/src/dev/oled_ssd130x.h ****     {
 5960              		.loc 11 42 10 is_stmt 1 view .LVU1432
 5961              	.LBB1658:
  44:Display/../../libs/PoliTeKDSP/libs/libDaisy/src/dev/oled_ssd130x.h ****         i2c_.TransmitBlocking(i2c_address_, buf, 2, 1000);
 5962              		.loc 11 44 9 view .LVU1433
  44:Display/../../libs/PoliTeKDSP/libs/libDaisy/src/dev/oled_ssd130x.h ****         i2c_.TransmitBlocking(i2c_address_, buf, 2, 1000);
 5963              		.loc 11 44 36 is_stmt 0 view .LVU1434
 5964 0126 A423     		movs	r3, #164
  45:Display/../../libs/PoliTeKDSP/libs/libDaisy/src/dev/oled_ssd130x.h ****     };
 5965              		.loc 11 45 30 view .LVU1435
 5966 0128 03AA     		add	r2, sp, #12
 5967 012a 0096     		str	r6, [sp]
 5968 012c 2046     		mov	r0, r4
 5969 012e 2179     		ldrb	r1, [r4, #4]	@ zero_extendqisi2
  44:Display/../../libs/PoliTeKDSP/libs/libDaisy/src/dev/oled_ssd130x.h ****         i2c_.TransmitBlocking(i2c_address_, buf, 2, 1000);
 5970              		.loc 11 44 36 view .LVU1436
 5971 0130 8DF80D30 		strb	r3, [sp, #13]
  45:Display/../../libs/PoliTeKDSP/libs/libDaisy/src/dev/oled_ssd130x.h ****     };
 5972              		.loc 11 45 9 is_stmt 1 view .LVU1437
  45:Display/../../libs/PoliTeKDSP/libs/libDaisy/src/dev/oled_ssd130x.h ****     };
 5973              		.loc 11 45 30 is_stmt 0 view .LVU1438
 5974 0134 0223     		movs	r3, #2
  44:Display/../../libs/PoliTeKDSP/libs/libDaisy/src/dev/oled_ssd130x.h ****         i2c_.TransmitBlocking(i2c_address_, buf, 2, 1000);
 5975              		.loc 11 44 17 view .LVU1439
 5976 0136 8DF80C50 		strb	r5, [sp, #12]
  45:Display/../../libs/PoliTeKDSP/libs/libDaisy/src/dev/oled_ssd130x.h ****     };
 5977              		.loc 11 45 30 view .LVU1440
 5978 013a FFF7FEFF 		bl	_ZN5daisy9I2CHandle16TransmitBlockingEtPhtm
 5979              	.LVL449:
  45:Display/../../libs/PoliTeKDSP/libs/libDaisy/src/dev/oled_ssd130x.h ****     };
 5980              		.loc 11 45 30 view .LVU1441
 5981              	.LBE1658:
 5982              	.LBE1657:
 5983              	.LBB1659:
 5984              	.LBI1659:
  42:Display/../../libs/PoliTeKDSP/libs/libDaisy/src/dev/oled_ssd130x.h ****     {
 5985              		.loc 11 42 10 is_stmt 1 view .LVU1442
 5986              	.LBB1660:
  44:Display/../../libs/PoliTeKDSP/libs/libDaisy/src/dev/oled_ssd130x.h ****         i2c_.TransmitBlocking(i2c_address_, buf, 2, 1000);
 5987              		.loc 11 44 9 view .LVU1443
  44:Display/../../libs/PoliTeKDSP/libs/libDaisy/src/dev/oled_ssd130x.h ****         i2c_.TransmitBlocking(i2c_address_, buf, 2, 1000);
 5988              		.loc 11 44 36 is_stmt 0 view .LVU1444
 5989 013e 8D23     		movs	r3, #141
  45:Display/../../libs/PoliTeKDSP/libs/libDaisy/src/dev/oled_ssd130x.h ****     };
 5990              		.loc 11 45 30 view .LVU1445
 5991 0140 03AA     		add	r2, sp, #12
 5992 0142 0096     		str	r6, [sp]
 5993 0144 2046     		mov	r0, r4
 5994 0146 2179     		ldrb	r1, [r4, #4]	@ zero_extendqisi2
ARM GAS  C:\Users\matte\AppData\Local\Temp\ccj2OJiD.s 			page 165


  44:Display/../../libs/PoliTeKDSP/libs/libDaisy/src/dev/oled_ssd130x.h ****         i2c_.TransmitBlocking(i2c_address_, buf, 2, 1000);
 5995              		.loc 11 44 36 view .LVU1446
 5996 0148 8DF80D30 		strb	r3, [sp, #13]
  45:Display/../../libs/PoliTeKDSP/libs/libDaisy/src/dev/oled_ssd130x.h ****     };
 5997              		.loc 11 45 9 is_stmt 1 view .LVU1447
  45:Display/../../libs/PoliTeKDSP/libs/libDaisy/src/dev/oled_ssd130x.h ****     };
 5998              		.loc 11 45 30 is_stmt 0 view .LVU1448
 5999 014c 0223     		movs	r3, #2
  44:Display/../../libs/PoliTeKDSP/libs/libDaisy/src/dev/oled_ssd130x.h ****         i2c_.TransmitBlocking(i2c_address_, buf, 2, 1000);
 6000              		.loc 11 44 17 view .LVU1449
 6001 014e 8DF80C50 		strb	r5, [sp, #12]
  45:Display/../../libs/PoliTeKDSP/libs/libDaisy/src/dev/oled_ssd130x.h ****     };
 6002              		.loc 11 45 30 view .LVU1450
 6003 0152 FFF7FEFF 		bl	_ZN5daisy9I2CHandle16TransmitBlockingEtPhtm
 6004              	.LVL450:
  45:Display/../../libs/PoliTeKDSP/libs/libDaisy/src/dev/oled_ssd130x.h ****     };
 6005              		.loc 11 45 30 view .LVU1451
 6006              	.LBE1660:
 6007              	.LBE1659:
 6008              	.LBB1661:
 6009              	.LBI1661:
  42:Display/../../libs/PoliTeKDSP/libs/libDaisy/src/dev/oled_ssd130x.h ****     {
 6010              		.loc 11 42 10 is_stmt 1 view .LVU1452
 6011              	.LBB1662:
  44:Display/../../libs/PoliTeKDSP/libs/libDaisy/src/dev/oled_ssd130x.h ****         i2c_.TransmitBlocking(i2c_address_, buf, 2, 1000);
 6012              		.loc 11 44 9 view .LVU1453
  44:Display/../../libs/PoliTeKDSP/libs/libDaisy/src/dev/oled_ssd130x.h ****         i2c_.TransmitBlocking(i2c_address_, buf, 2, 1000);
 6013              		.loc 11 44 36 is_stmt 0 view .LVU1454
 6014 0156 1423     		movs	r3, #20
  45:Display/../../libs/PoliTeKDSP/libs/libDaisy/src/dev/oled_ssd130x.h ****     };
 6015              		.loc 11 45 30 view .LVU1455
 6016 0158 03AA     		add	r2, sp, #12
 6017 015a 0096     		str	r6, [sp]
 6018 015c 2046     		mov	r0, r4
 6019 015e 2179     		ldrb	r1, [r4, #4]	@ zero_extendqisi2
  44:Display/../../libs/PoliTeKDSP/libs/libDaisy/src/dev/oled_ssd130x.h ****         i2c_.TransmitBlocking(i2c_address_, buf, 2, 1000);
 6020              		.loc 11 44 36 view .LVU1456
 6021 0160 8DF80D30 		strb	r3, [sp, #13]
  45:Display/../../libs/PoliTeKDSP/libs/libDaisy/src/dev/oled_ssd130x.h ****     };
 6022              		.loc 11 45 9 is_stmt 1 view .LVU1457
  45:Display/../../libs/PoliTeKDSP/libs/libDaisy/src/dev/oled_ssd130x.h ****     };
 6023              		.loc 11 45 30 is_stmt 0 view .LVU1458
 6024 0164 0223     		movs	r3, #2
  44:Display/../../libs/PoliTeKDSP/libs/libDaisy/src/dev/oled_ssd130x.h ****         i2c_.TransmitBlocking(i2c_address_, buf, 2, 1000);
 6025              		.loc 11 44 17 view .LVU1459
 6026 0166 8DF80C50 		strb	r5, [sp, #12]
  45:Display/../../libs/PoliTeKDSP/libs/libDaisy/src/dev/oled_ssd130x.h ****     };
 6027              		.loc 11 45 30 view .LVU1460
 6028 016a FFF7FEFF 		bl	_ZN5daisy9I2CHandle16TransmitBlockingEtPhtm
 6029              	.LVL451:
  45:Display/../../libs/PoliTeKDSP/libs/libDaisy/src/dev/oled_ssd130x.h ****     };
 6030              		.loc 11 45 30 view .LVU1461
 6031              	.LBE1662:
 6032              	.LBE1661:
 6033              	.LBB1663:
 6034              	.LBI1663:
  42:Display/../../libs/PoliTeKDSP/libs/libDaisy/src/dev/oled_ssd130x.h ****     {
ARM GAS  C:\Users\matte\AppData\Local\Temp\ccj2OJiD.s 			page 166


 6035              		.loc 11 42 10 is_stmt 1 view .LVU1462
 6036              	.LBB1664:
  44:Display/../../libs/PoliTeKDSP/libs/libDaisy/src/dev/oled_ssd130x.h ****         i2c_.TransmitBlocking(i2c_address_, buf, 2, 1000);
 6037              		.loc 11 44 9 view .LVU1463
  44:Display/../../libs/PoliTeKDSP/libs/libDaisy/src/dev/oled_ssd130x.h ****         i2c_.TransmitBlocking(i2c_address_, buf, 2, 1000);
 6038              		.loc 11 44 36 is_stmt 0 view .LVU1464
 6039 016e A123     		movs	r3, #161
  45:Display/../../libs/PoliTeKDSP/libs/libDaisy/src/dev/oled_ssd130x.h ****     };
 6040              		.loc 11 45 30 view .LVU1465
 6041 0170 03AA     		add	r2, sp, #12
 6042 0172 0096     		str	r6, [sp]
 6043 0174 2046     		mov	r0, r4
 6044 0176 2179     		ldrb	r1, [r4, #4]	@ zero_extendqisi2
  44:Display/../../libs/PoliTeKDSP/libs/libDaisy/src/dev/oled_ssd130x.h ****         i2c_.TransmitBlocking(i2c_address_, buf, 2, 1000);
 6045              		.loc 11 44 36 view .LVU1466
 6046 0178 8DF80D30 		strb	r3, [sp, #13]
  45:Display/../../libs/PoliTeKDSP/libs/libDaisy/src/dev/oled_ssd130x.h ****     };
 6047              		.loc 11 45 9 is_stmt 1 view .LVU1467
  45:Display/../../libs/PoliTeKDSP/libs/libDaisy/src/dev/oled_ssd130x.h ****     };
 6048              		.loc 11 45 30 is_stmt 0 view .LVU1468
 6049 017c 0223     		movs	r3, #2
  44:Display/../../libs/PoliTeKDSP/libs/libDaisy/src/dev/oled_ssd130x.h ****         i2c_.TransmitBlocking(i2c_address_, buf, 2, 1000);
 6050              		.loc 11 44 17 view .LVU1469
 6051 017e 8DF80C50 		strb	r5, [sp, #12]
  45:Display/../../libs/PoliTeKDSP/libs/libDaisy/src/dev/oled_ssd130x.h ****     };
 6052              		.loc 11 45 30 view .LVU1470
 6053 0182 FFF7FEFF 		bl	_ZN5daisy9I2CHandle16TransmitBlockingEtPhtm
 6054              	.LVL452:
  45:Display/../../libs/PoliTeKDSP/libs/libDaisy/src/dev/oled_ssd130x.h ****     };
 6055              		.loc 11 45 30 view .LVU1471
 6056              	.LBE1664:
 6057              	.LBE1663:
 6058              	.LBB1665:
 6059              	.LBI1665:
  42:Display/../../libs/PoliTeKDSP/libs/libDaisy/src/dev/oled_ssd130x.h ****     {
 6060              		.loc 11 42 10 is_stmt 1 view .LVU1472
 6061              	.LBB1666:
  44:Display/../../libs/PoliTeKDSP/libs/libDaisy/src/dev/oled_ssd130x.h ****         i2c_.TransmitBlocking(i2c_address_, buf, 2, 1000);
 6062              		.loc 11 44 9 view .LVU1473
  44:Display/../../libs/PoliTeKDSP/libs/libDaisy/src/dev/oled_ssd130x.h ****         i2c_.TransmitBlocking(i2c_address_, buf, 2, 1000);
 6063              		.loc 11 44 36 is_stmt 0 view .LVU1474
 6064 0186 C823     		movs	r3, #200
  45:Display/../../libs/PoliTeKDSP/libs/libDaisy/src/dev/oled_ssd130x.h ****     };
 6065              		.loc 11 45 30 view .LVU1475
 6066 0188 03AA     		add	r2, sp, #12
 6067 018a 0096     		str	r6, [sp]
 6068 018c 2046     		mov	r0, r4
 6069 018e 2179     		ldrb	r1, [r4, #4]	@ zero_extendqisi2
  44:Display/../../libs/PoliTeKDSP/libs/libDaisy/src/dev/oled_ssd130x.h ****         i2c_.TransmitBlocking(i2c_address_, buf, 2, 1000);
 6070              		.loc 11 44 36 view .LVU1476
 6071 0190 8DF80D30 		strb	r3, [sp, #13]
  45:Display/../../libs/PoliTeKDSP/libs/libDaisy/src/dev/oled_ssd130x.h ****     };
 6072              		.loc 11 45 9 is_stmt 1 view .LVU1477
  45:Display/../../libs/PoliTeKDSP/libs/libDaisy/src/dev/oled_ssd130x.h ****     };
 6073              		.loc 11 45 30 is_stmt 0 view .LVU1478
 6074 0194 0223     		movs	r3, #2
  44:Display/../../libs/PoliTeKDSP/libs/libDaisy/src/dev/oled_ssd130x.h ****         i2c_.TransmitBlocking(i2c_address_, buf, 2, 1000);
ARM GAS  C:\Users\matte\AppData\Local\Temp\ccj2OJiD.s 			page 167


 6075              		.loc 11 44 17 view .LVU1479
 6076 0196 8DF80C50 		strb	r5, [sp, #12]
  45:Display/../../libs/PoliTeKDSP/libs/libDaisy/src/dev/oled_ssd130x.h ****     };
 6077              		.loc 11 45 30 view .LVU1480
 6078 019a FFF7FEFF 		bl	_ZN5daisy9I2CHandle16TransmitBlockingEtPhtm
 6079              	.LVL453:
  45:Display/../../libs/PoliTeKDSP/libs/libDaisy/src/dev/oled_ssd130x.h ****     };
 6080              		.loc 11 45 30 view .LVU1481
 6081              	.LBE1666:
 6082              	.LBE1665:
 6083              	.LBB1667:
 6084              	.LBI1667:
  42:Display/../../libs/PoliTeKDSP/libs/libDaisy/src/dev/oled_ssd130x.h ****     {
 6085              		.loc 11 42 10 is_stmt 1 view .LVU1482
 6086              	.LBB1668:
  44:Display/../../libs/PoliTeKDSP/libs/libDaisy/src/dev/oled_ssd130x.h ****         i2c_.TransmitBlocking(i2c_address_, buf, 2, 1000);
 6087              		.loc 11 44 9 view .LVU1483
  44:Display/../../libs/PoliTeKDSP/libs/libDaisy/src/dev/oled_ssd130x.h ****         i2c_.TransmitBlocking(i2c_address_, buf, 2, 1000);
 6088              		.loc 11 44 36 is_stmt 0 view .LVU1484
 6089 019e 8123     		movs	r3, #129
  45:Display/../../libs/PoliTeKDSP/libs/libDaisy/src/dev/oled_ssd130x.h ****     };
 6090              		.loc 11 45 30 view .LVU1485
 6091 01a0 03AA     		add	r2, sp, #12
 6092 01a2 0096     		str	r6, [sp]
 6093 01a4 2046     		mov	r0, r4
 6094 01a6 2179     		ldrb	r1, [r4, #4]	@ zero_extendqisi2
  44:Display/../../libs/PoliTeKDSP/libs/libDaisy/src/dev/oled_ssd130x.h ****         i2c_.TransmitBlocking(i2c_address_, buf, 2, 1000);
 6095              		.loc 11 44 36 view .LVU1486
 6096 01a8 8DF80D30 		strb	r3, [sp, #13]
  45:Display/../../libs/PoliTeKDSP/libs/libDaisy/src/dev/oled_ssd130x.h ****     };
 6097              		.loc 11 45 9 is_stmt 1 view .LVU1487
  45:Display/../../libs/PoliTeKDSP/libs/libDaisy/src/dev/oled_ssd130x.h ****     };
 6098              		.loc 11 45 30 is_stmt 0 view .LVU1488
 6099 01ac 0223     		movs	r3, #2
  44:Display/../../libs/PoliTeKDSP/libs/libDaisy/src/dev/oled_ssd130x.h ****         i2c_.TransmitBlocking(i2c_address_, buf, 2, 1000);
 6100              		.loc 11 44 17 view .LVU1489
 6101 01ae 8DF80C50 		strb	r5, [sp, #12]
  45:Display/../../libs/PoliTeKDSP/libs/libDaisy/src/dev/oled_ssd130x.h ****     };
 6102              		.loc 11 45 30 view .LVU1490
 6103 01b2 FFF7FEFF 		bl	_ZN5daisy9I2CHandle16TransmitBlockingEtPhtm
 6104              	.LVL454:
  45:Display/../../libs/PoliTeKDSP/libs/libDaisy/src/dev/oled_ssd130x.h ****     };
 6105              		.loc 11 45 30 view .LVU1491
 6106              	.LBE1668:
 6107              	.LBE1667:
 6108              	.LBB1669:
 6109              	.LBI1669:
  42:Display/../../libs/PoliTeKDSP/libs/libDaisy/src/dev/oled_ssd130x.h ****     {
 6110              		.loc 11 42 10 is_stmt 1 view .LVU1492
 6111              	.LBB1670:
  44:Display/../../libs/PoliTeKDSP/libs/libDaisy/src/dev/oled_ssd130x.h ****         i2c_.TransmitBlocking(i2c_address_, buf, 2, 1000);
 6112              		.loc 11 44 9 view .LVU1493
  44:Display/../../libs/PoliTeKDSP/libs/libDaisy/src/dev/oled_ssd130x.h ****         i2c_.TransmitBlocking(i2c_address_, buf, 2, 1000);
 6113              		.loc 11 44 36 is_stmt 0 view .LVU1494
 6114 01b6 8F23     		movs	r3, #143
  45:Display/../../libs/PoliTeKDSP/libs/libDaisy/src/dev/oled_ssd130x.h ****     };
 6115              		.loc 11 45 30 view .LVU1495
ARM GAS  C:\Users\matte\AppData\Local\Temp\ccj2OJiD.s 			page 168


 6116 01b8 03AA     		add	r2, sp, #12
 6117 01ba 0096     		str	r6, [sp]
 6118 01bc 2046     		mov	r0, r4
 6119 01be 2179     		ldrb	r1, [r4, #4]	@ zero_extendqisi2
  44:Display/../../libs/PoliTeKDSP/libs/libDaisy/src/dev/oled_ssd130x.h ****         i2c_.TransmitBlocking(i2c_address_, buf, 2, 1000);
 6120              		.loc 11 44 36 view .LVU1496
 6121 01c0 8DF80D30 		strb	r3, [sp, #13]
  45:Display/../../libs/PoliTeKDSP/libs/libDaisy/src/dev/oled_ssd130x.h ****     };
 6122              		.loc 11 45 9 is_stmt 1 view .LVU1497
  45:Display/../../libs/PoliTeKDSP/libs/libDaisy/src/dev/oled_ssd130x.h ****     };
 6123              		.loc 11 45 30 is_stmt 0 view .LVU1498
 6124 01c4 0223     		movs	r3, #2
  44:Display/../../libs/PoliTeKDSP/libs/libDaisy/src/dev/oled_ssd130x.h ****         i2c_.TransmitBlocking(i2c_address_, buf, 2, 1000);
 6125              		.loc 11 44 17 view .LVU1499
 6126 01c6 8DF80C50 		strb	r5, [sp, #12]
  45:Display/../../libs/PoliTeKDSP/libs/libDaisy/src/dev/oled_ssd130x.h ****     };
 6127              		.loc 11 45 30 view .LVU1500
 6128 01ca FFF7FEFF 		bl	_ZN5daisy9I2CHandle16TransmitBlockingEtPhtm
 6129              	.LVL455:
  45:Display/../../libs/PoliTeKDSP/libs/libDaisy/src/dev/oled_ssd130x.h ****     };
 6130              		.loc 11 45 30 view .LVU1501
 6131              	.LBE1670:
 6132              	.LBE1669:
 6133              	.LBB1671:
 6134              	.LBI1671:
  42:Display/../../libs/PoliTeKDSP/libs/libDaisy/src/dev/oled_ssd130x.h ****     {
 6135              		.loc 11 42 10 is_stmt 1 view .LVU1502
 6136              	.LBB1672:
  44:Display/../../libs/PoliTeKDSP/libs/libDaisy/src/dev/oled_ssd130x.h ****         i2c_.TransmitBlocking(i2c_address_, buf, 2, 1000);
 6137              		.loc 11 44 9 view .LVU1503
  44:Display/../../libs/PoliTeKDSP/libs/libDaisy/src/dev/oled_ssd130x.h ****         i2c_.TransmitBlocking(i2c_address_, buf, 2, 1000);
 6138              		.loc 11 44 36 is_stmt 0 view .LVU1504
 6139 01ce D923     		movs	r3, #217
  45:Display/../../libs/PoliTeKDSP/libs/libDaisy/src/dev/oled_ssd130x.h ****     };
 6140              		.loc 11 45 30 view .LVU1505
 6141 01d0 03AA     		add	r2, sp, #12
 6142 01d2 0096     		str	r6, [sp]
 6143 01d4 2046     		mov	r0, r4
 6144 01d6 2179     		ldrb	r1, [r4, #4]	@ zero_extendqisi2
  44:Display/../../libs/PoliTeKDSP/libs/libDaisy/src/dev/oled_ssd130x.h ****         i2c_.TransmitBlocking(i2c_address_, buf, 2, 1000);
 6145              		.loc 11 44 36 view .LVU1506
 6146 01d8 8DF80D30 		strb	r3, [sp, #13]
  45:Display/../../libs/PoliTeKDSP/libs/libDaisy/src/dev/oled_ssd130x.h ****     };
 6147              		.loc 11 45 9 is_stmt 1 view .LVU1507
  45:Display/../../libs/PoliTeKDSP/libs/libDaisy/src/dev/oled_ssd130x.h ****     };
 6148              		.loc 11 45 30 is_stmt 0 view .LVU1508
 6149 01dc 0223     		movs	r3, #2
  44:Display/../../libs/PoliTeKDSP/libs/libDaisy/src/dev/oled_ssd130x.h ****         i2c_.TransmitBlocking(i2c_address_, buf, 2, 1000);
 6150              		.loc 11 44 17 view .LVU1509
 6151 01de 8DF80C50 		strb	r5, [sp, #12]
  45:Display/../../libs/PoliTeKDSP/libs/libDaisy/src/dev/oled_ssd130x.h ****     };
 6152              		.loc 11 45 30 view .LVU1510
 6153 01e2 FFF7FEFF 		bl	_ZN5daisy9I2CHandle16TransmitBlockingEtPhtm
 6154              	.LVL456:
  45:Display/../../libs/PoliTeKDSP/libs/libDaisy/src/dev/oled_ssd130x.h ****     };
 6155              		.loc 11 45 30 view .LVU1511
 6156              	.LBE1672:
ARM GAS  C:\Users\matte\AppData\Local\Temp\ccj2OJiD.s 			page 169


 6157              	.LBE1671:
 6158              	.LBB1673:
 6159              	.LBI1673:
  42:Display/../../libs/PoliTeKDSP/libs/libDaisy/src/dev/oled_ssd130x.h ****     {
 6160              		.loc 11 42 10 is_stmt 1 view .LVU1512
 6161              	.LBB1674:
  44:Display/../../libs/PoliTeKDSP/libs/libDaisy/src/dev/oled_ssd130x.h ****         i2c_.TransmitBlocking(i2c_address_, buf, 2, 1000);
 6162              		.loc 11 44 9 view .LVU1513
  44:Display/../../libs/PoliTeKDSP/libs/libDaisy/src/dev/oled_ssd130x.h ****         i2c_.TransmitBlocking(i2c_address_, buf, 2, 1000);
 6163              		.loc 11 44 36 is_stmt 0 view .LVU1514
 6164 01e6 2523     		movs	r3, #37
  45:Display/../../libs/PoliTeKDSP/libs/libDaisy/src/dev/oled_ssd130x.h ****     };
 6165              		.loc 11 45 30 view .LVU1515
 6166 01e8 03AA     		add	r2, sp, #12
 6167 01ea 0096     		str	r6, [sp]
 6168 01ec 2046     		mov	r0, r4
 6169 01ee 2179     		ldrb	r1, [r4, #4]	@ zero_extendqisi2
  44:Display/../../libs/PoliTeKDSP/libs/libDaisy/src/dev/oled_ssd130x.h ****         i2c_.TransmitBlocking(i2c_address_, buf, 2, 1000);
 6170              		.loc 11 44 36 view .LVU1516
 6171 01f0 8DF80D30 		strb	r3, [sp, #13]
  45:Display/../../libs/PoliTeKDSP/libs/libDaisy/src/dev/oled_ssd130x.h ****     };
 6172              		.loc 11 45 9 is_stmt 1 view .LVU1517
  45:Display/../../libs/PoliTeKDSP/libs/libDaisy/src/dev/oled_ssd130x.h ****     };
 6173              		.loc 11 45 30 is_stmt 0 view .LVU1518
 6174 01f4 0223     		movs	r3, #2
  44:Display/../../libs/PoliTeKDSP/libs/libDaisy/src/dev/oled_ssd130x.h ****         i2c_.TransmitBlocking(i2c_address_, buf, 2, 1000);
 6175              		.loc 11 44 17 view .LVU1519
 6176 01f6 8DF80C50 		strb	r5, [sp, #12]
  45:Display/../../libs/PoliTeKDSP/libs/libDaisy/src/dev/oled_ssd130x.h ****     };
 6177              		.loc 11 45 30 view .LVU1520
 6178 01fa FFF7FEFF 		bl	_ZN5daisy9I2CHandle16TransmitBlockingEtPhtm
 6179              	.LVL457:
  45:Display/../../libs/PoliTeKDSP/libs/libDaisy/src/dev/oled_ssd130x.h ****     };
 6180              		.loc 11 45 30 view .LVU1521
 6181              	.LBE1674:
 6182              	.LBE1673:
 6183              	.LBB1675:
 6184              	.LBI1675:
  42:Display/../../libs/PoliTeKDSP/libs/libDaisy/src/dev/oled_ssd130x.h ****     {
 6185              		.loc 11 42 10 is_stmt 1 view .LVU1522
 6186              	.LBB1676:
  44:Display/../../libs/PoliTeKDSP/libs/libDaisy/src/dev/oled_ssd130x.h ****         i2c_.TransmitBlocking(i2c_address_, buf, 2, 1000);
 6187              		.loc 11 44 9 view .LVU1523
  44:Display/../../libs/PoliTeKDSP/libs/libDaisy/src/dev/oled_ssd130x.h ****         i2c_.TransmitBlocking(i2c_address_, buf, 2, 1000);
 6188              		.loc 11 44 36 is_stmt 0 view .LVU1524
 6189 01fe DB23     		movs	r3, #219
  45:Display/../../libs/PoliTeKDSP/libs/libDaisy/src/dev/oled_ssd130x.h ****     };
 6190              		.loc 11 45 30 view .LVU1525
 6191 0200 03AA     		add	r2, sp, #12
 6192 0202 0096     		str	r6, [sp]
 6193 0204 2046     		mov	r0, r4
 6194 0206 2179     		ldrb	r1, [r4, #4]	@ zero_extendqisi2
  44:Display/../../libs/PoliTeKDSP/libs/libDaisy/src/dev/oled_ssd130x.h ****         i2c_.TransmitBlocking(i2c_address_, buf, 2, 1000);
 6195              		.loc 11 44 36 view .LVU1526
 6196 0208 8DF80D30 		strb	r3, [sp, #13]
  45:Display/../../libs/PoliTeKDSP/libs/libDaisy/src/dev/oled_ssd130x.h ****     };
 6197              		.loc 11 45 9 is_stmt 1 view .LVU1527
ARM GAS  C:\Users\matte\AppData\Local\Temp\ccj2OJiD.s 			page 170


  45:Display/../../libs/PoliTeKDSP/libs/libDaisy/src/dev/oled_ssd130x.h ****     };
 6198              		.loc 11 45 30 is_stmt 0 view .LVU1528
 6199 020c 0223     		movs	r3, #2
  44:Display/../../libs/PoliTeKDSP/libs/libDaisy/src/dev/oled_ssd130x.h ****         i2c_.TransmitBlocking(i2c_address_, buf, 2, 1000);
 6200              		.loc 11 44 17 view .LVU1529
 6201 020e 8DF80C50 		strb	r5, [sp, #12]
  45:Display/../../libs/PoliTeKDSP/libs/libDaisy/src/dev/oled_ssd130x.h ****     };
 6202              		.loc 11 45 30 view .LVU1530
 6203 0212 FFF7FEFF 		bl	_ZN5daisy9I2CHandle16TransmitBlockingEtPhtm
 6204              	.LVL458:
  45:Display/../../libs/PoliTeKDSP/libs/libDaisy/src/dev/oled_ssd130x.h ****     };
 6205              		.loc 11 45 30 view .LVU1531
 6206              	.LBE1676:
 6207              	.LBE1675:
 6208              	.LBB1677:
 6209              	.LBI1677:
  42:Display/../../libs/PoliTeKDSP/libs/libDaisy/src/dev/oled_ssd130x.h ****     {
 6210              		.loc 11 42 10 is_stmt 1 view .LVU1532
 6211              	.LBB1678:
  44:Display/../../libs/PoliTeKDSP/libs/libDaisy/src/dev/oled_ssd130x.h ****         i2c_.TransmitBlocking(i2c_address_, buf, 2, 1000);
 6212              		.loc 11 44 9 view .LVU1533
  44:Display/../../libs/PoliTeKDSP/libs/libDaisy/src/dev/oled_ssd130x.h ****         i2c_.TransmitBlocking(i2c_address_, buf, 2, 1000);
 6213              		.loc 11 44 36 is_stmt 0 view .LVU1534
 6214 0216 3423     		movs	r3, #52
  45:Display/../../libs/PoliTeKDSP/libs/libDaisy/src/dev/oled_ssd130x.h ****     };
 6215              		.loc 11 45 30 view .LVU1535
 6216 0218 03AA     		add	r2, sp, #12
 6217 021a 0096     		str	r6, [sp]
 6218 021c 2046     		mov	r0, r4
 6219 021e 2179     		ldrb	r1, [r4, #4]	@ zero_extendqisi2
  44:Display/../../libs/PoliTeKDSP/libs/libDaisy/src/dev/oled_ssd130x.h ****         i2c_.TransmitBlocking(i2c_address_, buf, 2, 1000);
 6220              		.loc 11 44 36 view .LVU1536
 6221 0220 8DF80D30 		strb	r3, [sp, #13]
  45:Display/../../libs/PoliTeKDSP/libs/libDaisy/src/dev/oled_ssd130x.h ****     };
 6222              		.loc 11 45 9 is_stmt 1 view .LVU1537
  45:Display/../../libs/PoliTeKDSP/libs/libDaisy/src/dev/oled_ssd130x.h ****     };
 6223              		.loc 11 45 30 is_stmt 0 view .LVU1538
 6224 0224 0223     		movs	r3, #2
  44:Display/../../libs/PoliTeKDSP/libs/libDaisy/src/dev/oled_ssd130x.h ****         i2c_.TransmitBlocking(i2c_address_, buf, 2, 1000);
 6225              		.loc 11 44 17 view .LVU1539
 6226 0226 8DF80C50 		strb	r5, [sp, #12]
  45:Display/../../libs/PoliTeKDSP/libs/libDaisy/src/dev/oled_ssd130x.h ****     };
 6227              		.loc 11 45 30 view .LVU1540
 6228 022a FFF7FEFF 		bl	_ZN5daisy9I2CHandle16TransmitBlockingEtPhtm
 6229              	.LVL459:
  45:Display/../../libs/PoliTeKDSP/libs/libDaisy/src/dev/oled_ssd130x.h ****     };
 6230              		.loc 11 45 30 view .LVU1541
 6231              	.LBE1678:
 6232              	.LBE1677:
 6233              	.LBB1679:
 6234              	.LBI1679:
  42:Display/../../libs/PoliTeKDSP/libs/libDaisy/src/dev/oled_ssd130x.h ****     {
 6235              		.loc 11 42 10 is_stmt 1 view .LVU1542
 6236              	.LBB1680:
  44:Display/../../libs/PoliTeKDSP/libs/libDaisy/src/dev/oled_ssd130x.h ****         i2c_.TransmitBlocking(i2c_address_, buf, 2, 1000);
 6237              		.loc 11 44 9 view .LVU1543
  44:Display/../../libs/PoliTeKDSP/libs/libDaisy/src/dev/oled_ssd130x.h ****         i2c_.TransmitBlocking(i2c_address_, buf, 2, 1000);
ARM GAS  C:\Users\matte\AppData\Local\Temp\ccj2OJiD.s 			page 171


 6238              		.loc 11 44 36 is_stmt 0 view .LVU1544
 6239 022e AF21     		movs	r1, #175
  45:Display/../../libs/PoliTeKDSP/libs/libDaisy/src/dev/oled_ssd130x.h ****     };
 6240              		.loc 11 45 30 view .LVU1545
 6241 0230 0096     		str	r6, [sp]
 6242 0232 03AA     		add	r2, sp, #12
 6243 0234 0223     		movs	r3, #2
  44:Display/../../libs/PoliTeKDSP/libs/libDaisy/src/dev/oled_ssd130x.h ****         i2c_.TransmitBlocking(i2c_address_, buf, 2, 1000);
 6244              		.loc 11 44 36 view .LVU1546
 6245 0236 8DF80D10 		strb	r1, [sp, #13]
  45:Display/../../libs/PoliTeKDSP/libs/libDaisy/src/dev/oled_ssd130x.h ****     };
 6246              		.loc 11 45 9 is_stmt 1 view .LVU1547
  45:Display/../../libs/PoliTeKDSP/libs/libDaisy/src/dev/oled_ssd130x.h ****     };
 6247              		.loc 11 45 30 is_stmt 0 view .LVU1548
 6248 023a 2046     		mov	r0, r4
 6249 023c 2179     		ldrb	r1, [r4, #4]	@ zero_extendqisi2
  44:Display/../../libs/PoliTeKDSP/libs/libDaisy/src/dev/oled_ssd130x.h ****         i2c_.TransmitBlocking(i2c_address_, buf, 2, 1000);
 6250              		.loc 11 44 17 view .LVU1549
 6251 023e 8DF80C50 		strb	r5, [sp, #12]
  45:Display/../../libs/PoliTeKDSP/libs/libDaisy/src/dev/oled_ssd130x.h ****     };
 6252              		.loc 11 45 30 view .LVU1550
 6253 0242 FFF7FEFF 		bl	_ZN5daisy9I2CHandle16TransmitBlockingEtPhtm
 6254              	.LVL460:
  45:Display/../../libs/PoliTeKDSP/libs/libDaisy/src/dev/oled_ssd130x.h ****     };
 6255              		.loc 11 45 30 view .LVU1551
 6256              	.LBE1680:
 6257              	.LBE1679:
 335:Display/../../libs/PoliTeKDSP/libs/libDaisy/src/dev/oled_ssd130x.h **** 
 6258              		.loc 11 335 5 view .LVU1552
 6259 0246 04B0     		add	sp, sp, #16
 6260              		.cfi_def_cfa_offset 32
 6261              		@ sp needed
 6262 0248 BDE87040 		pop	{r4, r5, r6, lr}
 6263              		.cfi_restore 14
 6264              		.cfi_restore 6
 6265              		.cfi_restore 5
 6266              		.cfi_restore 4
 6267              		.cfi_def_cfa_offset 16
 6268              	.LVL461:
 335:Display/../../libs/PoliTeKDSP/libs/libDaisy/src/dev/oled_ssd130x.h **** 
 6269              		.loc 11 335 5 view .LVU1553
 6270 024c 04B0     		add	sp, sp, #16
 6271              		.cfi_def_cfa_offset 0
 6272 024e 7047     		bx	lr
 6273              		.cfi_endproc
 6274              	.LFE5472:
 6276              		.section	.rodata.main.str1.4,"aMS",%progbits,1
 6277              		.align	2
 6278              	.LC0:
 6279 0000 44454C54 		.ascii	"DELTA\000"
 6279      4100
 6280 0006 0000     		.align	2
 6281              	.LC1:
 6282 0008 43555256 		.ascii	"CURVE\000"
 6282      4500
 6283 000e 0000     		.align	2
 6284              	.LC2:
ARM GAS  C:\Users\matte\AppData\Local\Temp\ccj2OJiD.s 			page 172


 6285 0010 524F4F54 		.ascii	"ROOT\000"
 6285      00
 6286 0015 000000   		.align	2
 6287              	.LC3:
 6288 0018 5343414C 		.ascii	"SCALE\000"
 6288      4500
 6289 001e 0000     		.align	2
 6290              	.LC4:
 6291 0020 4F435441 		.ascii	"OCTAVE\000"
 6291      564500
 6292 0027 00       		.align	2
 6293              	.LC5:
 6294 0028 50524553 		.ascii	"PRESET\000"
 6294      455400
 6295              		.section	.text.startup.main,"ax",%progbits
 6296              		.align	1
 6297              		.p2align 2,,3
 6298              		.global	main
 6299              		.syntax unified
 6300              		.thumb
 6301              		.thumb_func
 6302              		.fpu fpv5-d16
 6304              	main:
 6305              	.LFB5026:
  35:main.cpp      **** 
  36:main.cpp      **** int main() {
 6306              		.loc 12 36 12 is_stmt 1 view -0
 6307              		.cfi_startproc
 6308              		@ args = 0, pretend = 0, frame = 48
 6309              		@ frame_needed = 0, uses_anonymous_args = 0
  37:main.cpp      ****     hw.Init();
 6310              		.loc 12 37 5 view .LVU1555
  36:main.cpp      ****     hw.Init();
 6311              		.loc 12 36 12 is_stmt 0 view .LVU1556
 6312 0000 2DE9F04F 		push	{r4, r5, r6, r7, r8, r9, r10, fp, lr}
 6313              		.cfi_def_cfa_offset 36
 6314              		.cfi_offset 4, -36
 6315              		.cfi_offset 5, -32
 6316              		.cfi_offset 6, -28
 6317              		.cfi_offset 7, -24
 6318              		.cfi_offset 8, -20
 6319              		.cfi_offset 9, -16
 6320              		.cfi_offset 10, -12
 6321              		.cfi_offset 11, -8
 6322              		.cfi_offset 14, -4
 6323              		.loc 12 37 12 view .LVU1557
 6324 0004 0021     		movs	r1, #0
 6325 0006 9C48     		ldr	r0, .L453
 6326 0008 0026     		movs	r6, #0
 6327 000a 0225     		movs	r5, #2
 6328 000c 9B4C     		ldr	r4, .L453+4
 6329 000e DFF8A8B2 		ldr	fp, .L453+64
  36:main.cpp      ****     hw.Init();
 6330              		.loc 12 36 12 view .LVU1558
 6331 0012 2DED028B 		vpush.64	{d8}
 6332              		.cfi_def_cfa_offset 44
 6333              		.cfi_offset 80, -44
ARM GAS  C:\Users\matte\AppData\Local\Temp\ccj2OJiD.s 			page 173


 6334              		.cfi_offset 81, -40
 6335 0016 91B0     		sub	sp, sp, #68
 6336              		.cfi_def_cfa_offset 112
 6337              		.loc 12 37 12 view .LVU1559
 6338 0018 FFF7FEFF 		bl	_ZN5daisy9DaisySeed4InitEb
 6339              	.LVL462:
  38:main.cpp      **** 
  39:main.cpp      ****     // Inizializzazione fisica encoder (Pin 13, 14, 10)
  40:main.cpp      ****     enc.Init(hw.GetPin(13), hw.GetPin(14), hw.GetPin(10));
 6340              		.loc 12 40 5 is_stmt 1 view .LVU1560
 6341              		.loc 12 40 13 is_stmt 0 view .LVU1561
 6342 001c 0D20     		movs	r0, #13
 6343 001e FFF7FEFF 		bl	_ZN5daisy9DaisySeed6GetPinEh
 6344              	.LVL463:
 6345 0022 0346     		mov	r3, r0	@ movhi
 6346 0024 0E20     		movs	r0, #14
 6347 0026 ADF81C30 		strh	r3, [sp, #28]	@ movhi
 6348 002a FFF7FEFF 		bl	_ZN5daisy9DaisySeed6GetPinEh
 6349              	.LVL464:
 6350 002e 0346     		mov	r3, r0	@ movhi
 6351 0030 0A20     		movs	r0, #10
 6352 0032 ADF82030 		strh	r3, [sp, #32]	@ movhi
 6353 0036 FFF7FEFF 		bl	_ZN5daisy9DaisySeed6GetPinEh
 6354              	.LVL465:
 6355 003a ADF82400 		strh	r0, [sp, #36]	@ movhi
 6356 003e 9FED900A 		vldr.32	s0, .L453+8
 6357 0042 099B     		ldr	r3, [sp, #36]
 6358 0044 8F48     		ldr	r0, .L453+12
 6359 0046 DDE90712 		ldrd	r1, r2, [sp, #28]
 6360 004a FFF7FEFF 		bl	_ZN5daisy7Encoder4InitENS_3PinES1_S1_f
 6361              	.LVL466:
  41:main.cpp      ****     menu.Init();
 6362              		.loc 12 41 5 is_stmt 1 view .LVU1562
 6363              		.loc 12 41 14 is_stmt 0 view .LVU1563
 6364 004e 8B48     		ldr	r0, .L453+4
 6365 0050 FFF7FEFF 		bl	_ZN11MenuManager4InitEv
 6366              	.LVL467:
  42:main.cpp      **** 
  43:main.cpp      ****     // Inizializzazione Display
  44:main.cpp      ****     MyOledDisplay::Config disp_cfg;
 6367              		.loc 12 44 5 is_stmt 1 view .LVU1564
 6368              	.LBB1681:
 6369              	.LBI1681:
  20:../libs/PoliTeKDSP/libs/libDaisy/src/hid/disp/oled_display.h ****     {
 6370              		.loc 9 20 12 view .LVU1565
 6371              	.LBB1682:
 6372              	.LBI1682:
 236:Display/../../libs/PoliTeKDSP/libs/libDaisy/src/dev/oled_ssd130x.h ****     {
 6373              		.loc 11 236 12 view .LVU1566
 6374              	.LBB1683:
 6375              	.LBI1683:
  20:Display/../../libs/PoliTeKDSP/libs/libDaisy/src/dev/oled_ssd130x.h ****         {
 6376              		.loc 11 20 9 view .LVU1567
 6377              	.LBB1684:
 6378              	.LBI1684:
 6379              		.file 15 "../libs/libDaisy/src/per/i2c.h"
   1:../libs/libDaisy/src/per/i2c.h **** #pragma once
ARM GAS  C:\Users\matte\AppData\Local\Temp\ccj2OJiD.s 			page 174


   2:../libs/libDaisy/src/per/i2c.h **** #include "util/hal_map.h"
   3:../libs/libDaisy/src/per/i2c.h **** #include "daisy_core.h"
   4:../libs/libDaisy/src/per/i2c.h **** 
   5:../libs/libDaisy/src/per/i2c.h **** namespace daisy
   6:../libs/libDaisy/src/per/i2c.h **** {
   7:../libs/libDaisy/src/per/i2c.h **** /** A handle for interacting with an I2C peripheral. This is a dumb
   8:../libs/libDaisy/src/per/i2c.h ****  *  gateway that internally points to one of the four I2C peripherals
   9:../libs/libDaisy/src/per/i2c.h ****  *  after it was initialised. It can then be copied and passed around.
  10:../libs/libDaisy/src/per/i2c.h ****  *  Use an I2CHandle like this:
  11:../libs/libDaisy/src/per/i2c.h ****  *  
  12:../libs/libDaisy/src/per/i2c.h ****  *      // setup the configuration
  13:../libs/libDaisy/src/per/i2c.h ****  *      I2CHandle::Config i2c_conf;
  14:../libs/libDaisy/src/per/i2c.h ****  *      i2c_conf.periph = I2CHandle::Config::Peripheral::I2C_1;
  15:../libs/libDaisy/src/per/i2c.h ****  *      i2c_conf.speed  = I2CHandle::Config::Speed::I2C_400KHZ;
  16:../libs/libDaisy/src/per/i2c.h ****  *      i2c_conf.mode   = I2CHandle::Config::Mode::Master;
  17:../libs/libDaisy/src/per/i2c.h ****  *      i2c_conf.pin_config.scl  = {DSY_GPIOB, 8};
  18:../libs/libDaisy/src/per/i2c.h ****  *      i2c_conf.pin_config.sda  = {DSY_GPIOB, 9};
  19:../libs/libDaisy/src/per/i2c.h ****  *      // initialise the peripheral
  20:../libs/libDaisy/src/per/i2c.h ****  *      I2CHandle i2c;
  21:../libs/libDaisy/src/per/i2c.h ****  *      i2c.Init(i2c_conf);
  22:../libs/libDaisy/src/per/i2c.h ****  *      // now i2c points to the corresponding peripheral and can be used.
  23:../libs/libDaisy/src/per/i2c.h ****  *      i2c.TransmitBlocking( ... );
  24:../libs/libDaisy/src/per/i2c.h ****  */
  25:../libs/libDaisy/src/per/i2c.h **** class I2CHandle
  26:../libs/libDaisy/src/per/i2c.h **** {
  27:../libs/libDaisy/src/per/i2c.h ****   public:
  28:../libs/libDaisy/src/per/i2c.h ****     /** Contains settings for initialising an I2C interface. */
  29:../libs/libDaisy/src/per/i2c.h ****     struct Config
 6380              		.loc 15 29 12 view .LVU1568
 6381              	.LBB1685:
 6382              	.LBI1685:
  30:../libs/libDaisy/src/per/i2c.h ****     {
  31:../libs/libDaisy/src/per/i2c.h ****         /** Specifies whether the interface will operate in master or slave mode. */
  32:../libs/libDaisy/src/per/i2c.h ****         enum class Mode
  33:../libs/libDaisy/src/per/i2c.h ****         {
  34:../libs/libDaisy/src/per/i2c.h ****             I2C_MASTER,
  35:../libs/libDaisy/src/per/i2c.h ****             I2C_SLAVE,
  36:../libs/libDaisy/src/per/i2c.h ****         };
  37:../libs/libDaisy/src/per/i2c.h **** 
  38:../libs/libDaisy/src/per/i2c.h ****         /** Specifices the internal peripheral to use (these are mapped to different pins on the ha
  39:../libs/libDaisy/src/per/i2c.h ****         enum class Peripheral
  40:../libs/libDaisy/src/per/i2c.h ****         {
  41:../libs/libDaisy/src/per/i2c.h ****             I2C_1 = 0, /**< & */
  42:../libs/libDaisy/src/per/i2c.h ****             I2C_2,     /**< & */
  43:../libs/libDaisy/src/per/i2c.h ****             I2C_3,     /**< & */
  44:../libs/libDaisy/src/per/i2c.h ****             I2C_4,     /**< & */
  45:../libs/libDaisy/src/per/i2c.h ****         };
  46:../libs/libDaisy/src/per/i2c.h **** 
  47:../libs/libDaisy/src/per/i2c.h ****         /** Rate at which the clock/data will be sent/received. The device being used will have max
  48:../libs/libDaisy/src/per/i2c.h ****          *  1MHZ Mode is currently 886kHz
  49:../libs/libDaisy/src/per/i2c.h ****          */
  50:../libs/libDaisy/src/per/i2c.h ****         enum class Speed
  51:../libs/libDaisy/src/per/i2c.h ****         {
  52:../libs/libDaisy/src/per/i2c.h ****             I2C_100KHZ, /**< & */
  53:../libs/libDaisy/src/per/i2c.h ****             I2C_400KHZ, /**< & */
  54:../libs/libDaisy/src/per/i2c.h ****             I2C_1MHZ,   /**< & */
  55:../libs/libDaisy/src/per/i2c.h ****         };
ARM GAS  C:\Users\matte\AppData\Local\Temp\ccj2OJiD.s 			page 175


  56:../libs/libDaisy/src/per/i2c.h **** 
  57:../libs/libDaisy/src/per/i2c.h ****         Peripheral periph; /**< & */
  58:../libs/libDaisy/src/per/i2c.h ****         struct
  59:../libs/libDaisy/src/per/i2c.h ****         {
 6383              		.loc 15 59 9 view .LVU1569
 6384              	.LBB1686:
 6385              	.LBI1686:
 6386              		.file 16 "../libs/PoliTeKDSP/libs/libDaisy/src/daisy_core.h"
   1:../libs/PoliTeKDSP/libs/libDaisy/src/daisy_core.h **** #pragma once
   2:../libs/PoliTeKDSP/libs/libDaisy/src/daisy_core.h **** #ifndef DSY_CORE_HW_H
   3:../libs/PoliTeKDSP/libs/libDaisy/src/daisy_core.h **** #define DSY_CORE_HW_H /**< & */
   4:../libs/PoliTeKDSP/libs/libDaisy/src/daisy_core.h **** #include <stdint.h>
   5:../libs/PoliTeKDSP/libs/libDaisy/src/daisy_core.h **** #include <stdlib.h>
   6:../libs/PoliTeKDSP/libs/libDaisy/src/daisy_core.h **** 
   7:../libs/PoliTeKDSP/libs/libDaisy/src/daisy_core.h **** #if defined(_MSC_VER)
   8:../libs/PoliTeKDSP/libs/libDaisy/src/daisy_core.h **** #define FORCE_INLINE __forceinline /**< & */
   9:../libs/PoliTeKDSP/libs/libDaisy/src/daisy_core.h **** #elif defined(__clang__)
  10:../libs/PoliTeKDSP/libs/libDaisy/src/daisy_core.h **** #define FORCE_INLINE inline __attribute__((always_inline)) /**< & */
  11:../libs/PoliTeKDSP/libs/libDaisy/src/daisy_core.h **** #pragma clang diagnostic ignored "-Wduplicate-decl-specifier"
  12:../libs/PoliTeKDSP/libs/libDaisy/src/daisy_core.h **** #elif defined(__GNUC__)
  13:../libs/PoliTeKDSP/libs/libDaisy/src/daisy_core.h **** #define FORCE_INLINE inline __attribute__((always_inline)) /**< & */
  14:../libs/PoliTeKDSP/libs/libDaisy/src/daisy_core.h **** #else
  15:../libs/PoliTeKDSP/libs/libDaisy/src/daisy_core.h **** #error unknown compiler
  16:../libs/PoliTeKDSP/libs/libDaisy/src/daisy_core.h **** #endif
  17:../libs/PoliTeKDSP/libs/libDaisy/src/daisy_core.h **** 
  18:../libs/PoliTeKDSP/libs/libDaisy/src/daisy_core.h **** /** @addtogroup utility
  19:../libs/PoliTeKDSP/libs/libDaisy/src/daisy_core.h ****     @{
  20:../libs/PoliTeKDSP/libs/libDaisy/src/daisy_core.h **** */
  21:../libs/PoliTeKDSP/libs/libDaisy/src/daisy_core.h **** 
  22:../libs/PoliTeKDSP/libs/libDaisy/src/daisy_core.h **** /** Macro for area of memory that is configured as cacheless
  23:../libs/PoliTeKDSP/libs/libDaisy/src/daisy_core.h **** This should be used primarily for DMA buffers, and the like.
  24:../libs/PoliTeKDSP/libs/libDaisy/src/daisy_core.h **** */
  25:../libs/PoliTeKDSP/libs/libDaisy/src/daisy_core.h **** #define DMA_BUFFER_MEM_SECTION __attribute__((section(".sram1_bss")))
  26:../libs/PoliTeKDSP/libs/libDaisy/src/daisy_core.h **** /** 
  27:../libs/PoliTeKDSP/libs/libDaisy/src/daisy_core.h **** THE DTCM RAM section is also non-cached. However, is not suitable 
  28:../libs/PoliTeKDSP/libs/libDaisy/src/daisy_core.h **** for DMA transfers. Performance is on par with internal SRAM w/ 
  29:../libs/PoliTeKDSP/libs/libDaisy/src/daisy_core.h **** cache enabled.
  30:../libs/PoliTeKDSP/libs/libDaisy/src/daisy_core.h **** */
  31:../libs/PoliTeKDSP/libs/libDaisy/src/daisy_core.h **** #define DTCM_MEM_SECTION __attribute__((section(".dtcmram_bss")))
  32:../libs/PoliTeKDSP/libs/libDaisy/src/daisy_core.h **** 
  33:../libs/PoliTeKDSP/libs/libDaisy/src/daisy_core.h **** #define FBIPMAX 0.999985f             /**< close to 1.0f-LSB at 16 bit */
  34:../libs/PoliTeKDSP/libs/libDaisy/src/daisy_core.h **** #define FBIPMIN (-FBIPMAX)            /**< - (1 - LSB) */
  35:../libs/PoliTeKDSP/libs/libDaisy/src/daisy_core.h **** #define U82F_SCALE 0.0078740f         /**< 1 / 127 */
  36:../libs/PoliTeKDSP/libs/libDaisy/src/daisy_core.h **** #define F2U8_SCALE 127.0f             /**< 128 - 1 */
  37:../libs/PoliTeKDSP/libs/libDaisy/src/daisy_core.h **** #define S82F_SCALE 0.0078125f         /**< 1 / (2**7) */
  38:../libs/PoliTeKDSP/libs/libDaisy/src/daisy_core.h **** #define F2S8_SCALE 127.0f             /**< (2 ** 7) - 1 */
  39:../libs/PoliTeKDSP/libs/libDaisy/src/daisy_core.h **** #define S162F_SCALE 3.0517578125e-05f /**< 1 / (2** 15) */
  40:../libs/PoliTeKDSP/libs/libDaisy/src/daisy_core.h **** #define F2S16_SCALE 32767.0f          /**< (2 ** 15) - 1 */
  41:../libs/PoliTeKDSP/libs/libDaisy/src/daisy_core.h **** #define F2S24_SCALE 8388608.0f        /**< 2 ** 23 */
  42:../libs/PoliTeKDSP/libs/libDaisy/src/daisy_core.h **** #define S242F_SCALE 1.192092896e-07f  /**< 1 / (2 ** 23) */
  43:../libs/PoliTeKDSP/libs/libDaisy/src/daisy_core.h **** #define S24SIGN 0x800000              /**< 2 ** 23 */
  44:../libs/PoliTeKDSP/libs/libDaisy/src/daisy_core.h **** #define S322F_SCALE 4.6566129e-10f    /**< 1 / (2** 31) */
  45:../libs/PoliTeKDSP/libs/libDaisy/src/daisy_core.h **** #define F2S32_SCALE 2147483647.f      /**< (2 ** 31) - 1 */
  46:../libs/PoliTeKDSP/libs/libDaisy/src/daisy_core.h **** 
  47:../libs/PoliTeKDSP/libs/libDaisy/src/daisy_core.h **** 
  48:../libs/PoliTeKDSP/libs/libDaisy/src/daisy_core.h **** /** shorthand macro for simplifying the reading of the left 
  49:../libs/PoliTeKDSP/libs/libDaisy/src/daisy_core.h ****  *  channel of a non-interleaved output buffer named out */
ARM GAS  C:\Users\matte\AppData\Local\Temp\ccj2OJiD.s 			page 176


  50:../libs/PoliTeKDSP/libs/libDaisy/src/daisy_core.h **** #define OUT_L out[0]
  51:../libs/PoliTeKDSP/libs/libDaisy/src/daisy_core.h **** 
  52:../libs/PoliTeKDSP/libs/libDaisy/src/daisy_core.h **** /** shorthand macro for simplifying the reading of the right 
  53:../libs/PoliTeKDSP/libs/libDaisy/src/daisy_core.h ****  *  channel of a non-interleaved output buffer named out */
  54:../libs/PoliTeKDSP/libs/libDaisy/src/daisy_core.h **** #define OUT_R out[1]
  55:../libs/PoliTeKDSP/libs/libDaisy/src/daisy_core.h **** 
  56:../libs/PoliTeKDSP/libs/libDaisy/src/daisy_core.h **** /** shorthand macro for simplifying the reading of the left 
  57:../libs/PoliTeKDSP/libs/libDaisy/src/daisy_core.h ****  *  channel of a non-interleaved input buffer named in */
  58:../libs/PoliTeKDSP/libs/libDaisy/src/daisy_core.h **** #define IN_L in[0]
  59:../libs/PoliTeKDSP/libs/libDaisy/src/daisy_core.h **** 
  60:../libs/PoliTeKDSP/libs/libDaisy/src/daisy_core.h **** /** shorthand macro for simplifying the reading of the right 
  61:../libs/PoliTeKDSP/libs/libDaisy/src/daisy_core.h ****  *  channel of a non-interleaved input buffer named in */
  62:../libs/PoliTeKDSP/libs/libDaisy/src/daisy_core.h **** #define IN_R in[1]
  63:../libs/PoliTeKDSP/libs/libDaisy/src/daisy_core.h **** 
  64:../libs/PoliTeKDSP/libs/libDaisy/src/daisy_core.h **** /** 
  65:../libs/PoliTeKDSP/libs/libDaisy/src/daisy_core.h ****     Computes cube.
  66:../libs/PoliTeKDSP/libs/libDaisy/src/daisy_core.h ****     \param x Number to be cubed
  67:../libs/PoliTeKDSP/libs/libDaisy/src/daisy_core.h ****     \return x ^ 3
  68:../libs/PoliTeKDSP/libs/libDaisy/src/daisy_core.h **** */
  69:../libs/PoliTeKDSP/libs/libDaisy/src/daisy_core.h **** FORCE_INLINE float cube(float x)
  70:../libs/PoliTeKDSP/libs/libDaisy/src/daisy_core.h **** {
  71:../libs/PoliTeKDSP/libs/libDaisy/src/daisy_core.h ****     return (x * x) * x;
  72:../libs/PoliTeKDSP/libs/libDaisy/src/daisy_core.h **** }
  73:../libs/PoliTeKDSP/libs/libDaisy/src/daisy_core.h **** 
  74:../libs/PoliTeKDSP/libs/libDaisy/src/daisy_core.h **** /** 
  75:../libs/PoliTeKDSP/libs/libDaisy/src/daisy_core.h ****     Converts unsigned 8-bit to float
  76:../libs/PoliTeKDSP/libs/libDaisy/src/daisy_core.h ****     \param x Number to be scaled.
  77:../libs/PoliTeKDSP/libs/libDaisy/src/daisy_core.h ****     \return Scaled number.
  78:../libs/PoliTeKDSP/libs/libDaisy/src/daisy_core.h **** */
  79:../libs/PoliTeKDSP/libs/libDaisy/src/daisy_core.h **** FORCE_INLINE float u82f(uint8_t x)
  80:../libs/PoliTeKDSP/libs/libDaisy/src/daisy_core.h **** {
  81:../libs/PoliTeKDSP/libs/libDaisy/src/daisy_core.h ****     return ((float)x - 127.f) * U82F_SCALE;
  82:../libs/PoliTeKDSP/libs/libDaisy/src/daisy_core.h **** }
  83:../libs/PoliTeKDSP/libs/libDaisy/src/daisy_core.h **** 
  84:../libs/PoliTeKDSP/libs/libDaisy/src/daisy_core.h **** /**
  85:../libs/PoliTeKDSP/libs/libDaisy/src/daisy_core.h ****     Converts float to unsigned 8-bit
  86:../libs/PoliTeKDSP/libs/libDaisy/src/daisy_core.h **** */
  87:../libs/PoliTeKDSP/libs/libDaisy/src/daisy_core.h **** FORCE_INLINE uint8_t f2u8(float x)
  88:../libs/PoliTeKDSP/libs/libDaisy/src/daisy_core.h **** {
  89:../libs/PoliTeKDSP/libs/libDaisy/src/daisy_core.h ****     x = x <= FBIPMIN ? FBIPMIN : x;
  90:../libs/PoliTeKDSP/libs/libDaisy/src/daisy_core.h ****     x = x >= FBIPMAX ? FBIPMAX : x;
  91:../libs/PoliTeKDSP/libs/libDaisy/src/daisy_core.h ****     return (uint8_t)((x * F2U8_SCALE) + F2U8_SCALE);
  92:../libs/PoliTeKDSP/libs/libDaisy/src/daisy_core.h **** }
  93:../libs/PoliTeKDSP/libs/libDaisy/src/daisy_core.h **** 
  94:../libs/PoliTeKDSP/libs/libDaisy/src/daisy_core.h **** 
  95:../libs/PoliTeKDSP/libs/libDaisy/src/daisy_core.h **** /** 
  96:../libs/PoliTeKDSP/libs/libDaisy/src/daisy_core.h ****     Converts Signed 8-bit to float
  97:../libs/PoliTeKDSP/libs/libDaisy/src/daisy_core.h ****     \param x Number to be scaled.
  98:../libs/PoliTeKDSP/libs/libDaisy/src/daisy_core.h ****     \return Scaled number.
  99:../libs/PoliTeKDSP/libs/libDaisy/src/daisy_core.h **** */
 100:../libs/PoliTeKDSP/libs/libDaisy/src/daisy_core.h **** FORCE_INLINE float s82f(int8_t x)
 101:../libs/PoliTeKDSP/libs/libDaisy/src/daisy_core.h **** {
 102:../libs/PoliTeKDSP/libs/libDaisy/src/daisy_core.h ****     return (float)x * S82F_SCALE;
 103:../libs/PoliTeKDSP/libs/libDaisy/src/daisy_core.h **** }
 104:../libs/PoliTeKDSP/libs/libDaisy/src/daisy_core.h **** 
 105:../libs/PoliTeKDSP/libs/libDaisy/src/daisy_core.h **** /**
 106:../libs/PoliTeKDSP/libs/libDaisy/src/daisy_core.h ****     Converts float to Signed 8-bit
ARM GAS  C:\Users\matte\AppData\Local\Temp\ccj2OJiD.s 			page 177


 107:../libs/PoliTeKDSP/libs/libDaisy/src/daisy_core.h **** */
 108:../libs/PoliTeKDSP/libs/libDaisy/src/daisy_core.h **** FORCE_INLINE int8_t f2s8(float x)
 109:../libs/PoliTeKDSP/libs/libDaisy/src/daisy_core.h **** {
 110:../libs/PoliTeKDSP/libs/libDaisy/src/daisy_core.h ****     x = x <= FBIPMIN ? FBIPMIN : x;
 111:../libs/PoliTeKDSP/libs/libDaisy/src/daisy_core.h ****     x = x >= FBIPMAX ? FBIPMAX : x;
 112:../libs/PoliTeKDSP/libs/libDaisy/src/daisy_core.h ****     return (int32_t)(x * F2S8_SCALE);
 113:../libs/PoliTeKDSP/libs/libDaisy/src/daisy_core.h **** }
 114:../libs/PoliTeKDSP/libs/libDaisy/src/daisy_core.h **** 
 115:../libs/PoliTeKDSP/libs/libDaisy/src/daisy_core.h **** /** 
 116:../libs/PoliTeKDSP/libs/libDaisy/src/daisy_core.h ****     Converts Signed 16-bit to float
 117:../libs/PoliTeKDSP/libs/libDaisy/src/daisy_core.h ****     \param x Number to be scaled.
 118:../libs/PoliTeKDSP/libs/libDaisy/src/daisy_core.h ****     \return Scaled number.
 119:../libs/PoliTeKDSP/libs/libDaisy/src/daisy_core.h **** */
 120:../libs/PoliTeKDSP/libs/libDaisy/src/daisy_core.h **** FORCE_INLINE float s162f(int16_t x)
 121:../libs/PoliTeKDSP/libs/libDaisy/src/daisy_core.h **** {
 122:../libs/PoliTeKDSP/libs/libDaisy/src/daisy_core.h ****     return (float)x * S162F_SCALE;
 123:../libs/PoliTeKDSP/libs/libDaisy/src/daisy_core.h **** }
 124:../libs/PoliTeKDSP/libs/libDaisy/src/daisy_core.h **** 
 125:../libs/PoliTeKDSP/libs/libDaisy/src/daisy_core.h **** /**
 126:../libs/PoliTeKDSP/libs/libDaisy/src/daisy_core.h ****     Converts float to Signed 16-bit
 127:../libs/PoliTeKDSP/libs/libDaisy/src/daisy_core.h **** */
 128:../libs/PoliTeKDSP/libs/libDaisy/src/daisy_core.h **** FORCE_INLINE int16_t f2s16(float x)
 129:../libs/PoliTeKDSP/libs/libDaisy/src/daisy_core.h **** {
 130:../libs/PoliTeKDSP/libs/libDaisy/src/daisy_core.h ****     x = x <= FBIPMIN ? FBIPMIN : x;
 131:../libs/PoliTeKDSP/libs/libDaisy/src/daisy_core.h ****     x = x >= FBIPMAX ? FBIPMAX : x;
 132:../libs/PoliTeKDSP/libs/libDaisy/src/daisy_core.h ****     return (int32_t)(x * F2S16_SCALE);
 133:../libs/PoliTeKDSP/libs/libDaisy/src/daisy_core.h **** }
 134:../libs/PoliTeKDSP/libs/libDaisy/src/daisy_core.h **** 
 135:../libs/PoliTeKDSP/libs/libDaisy/src/daisy_core.h **** /**
 136:../libs/PoliTeKDSP/libs/libDaisy/src/daisy_core.h ****     Converts Signed 24-bit to float
 137:../libs/PoliTeKDSP/libs/libDaisy/src/daisy_core.h ****  */
 138:../libs/PoliTeKDSP/libs/libDaisy/src/daisy_core.h **** FORCE_INLINE float s242f(int32_t x)
 139:../libs/PoliTeKDSP/libs/libDaisy/src/daisy_core.h **** {
 140:../libs/PoliTeKDSP/libs/libDaisy/src/daisy_core.h ****     x = (x ^ S24SIGN) - S24SIGN; //sign extend aka ((x<<8)>>8)
 141:../libs/PoliTeKDSP/libs/libDaisy/src/daisy_core.h ****     return (float)x * S242F_SCALE;
 142:../libs/PoliTeKDSP/libs/libDaisy/src/daisy_core.h **** }
 143:../libs/PoliTeKDSP/libs/libDaisy/src/daisy_core.h **** /**
 144:../libs/PoliTeKDSP/libs/libDaisy/src/daisy_core.h ****     Converts float to Signed 24-bit
 145:../libs/PoliTeKDSP/libs/libDaisy/src/daisy_core.h ****  */
 146:../libs/PoliTeKDSP/libs/libDaisy/src/daisy_core.h **** FORCE_INLINE int32_t f2s24(float x)
 147:../libs/PoliTeKDSP/libs/libDaisy/src/daisy_core.h **** {
 148:../libs/PoliTeKDSP/libs/libDaisy/src/daisy_core.h ****     x = x <= FBIPMIN ? FBIPMIN : x;
 149:../libs/PoliTeKDSP/libs/libDaisy/src/daisy_core.h ****     x = x >= FBIPMAX ? FBIPMAX : x;
 150:../libs/PoliTeKDSP/libs/libDaisy/src/daisy_core.h ****     return (int32_t)(x * F2S24_SCALE);
 151:../libs/PoliTeKDSP/libs/libDaisy/src/daisy_core.h **** }
 152:../libs/PoliTeKDSP/libs/libDaisy/src/daisy_core.h **** 
 153:../libs/PoliTeKDSP/libs/libDaisy/src/daisy_core.h **** /**
 154:../libs/PoliTeKDSP/libs/libDaisy/src/daisy_core.h ****     Converts Signed 32-bit to float
 155:../libs/PoliTeKDSP/libs/libDaisy/src/daisy_core.h ****  */
 156:../libs/PoliTeKDSP/libs/libDaisy/src/daisy_core.h **** FORCE_INLINE float s322f(int32_t x)
 157:../libs/PoliTeKDSP/libs/libDaisy/src/daisy_core.h **** {
 158:../libs/PoliTeKDSP/libs/libDaisy/src/daisy_core.h ****     return (float)x * S322F_SCALE;
 159:../libs/PoliTeKDSP/libs/libDaisy/src/daisy_core.h **** }
 160:../libs/PoliTeKDSP/libs/libDaisy/src/daisy_core.h **** /**
 161:../libs/PoliTeKDSP/libs/libDaisy/src/daisy_core.h ****     Converts float to Signed 24-bit
 162:../libs/PoliTeKDSP/libs/libDaisy/src/daisy_core.h ****  */
 163:../libs/PoliTeKDSP/libs/libDaisy/src/daisy_core.h **** FORCE_INLINE int32_t f2s32(float x)
ARM GAS  C:\Users\matte\AppData\Local\Temp\ccj2OJiD.s 			page 178


 164:../libs/PoliTeKDSP/libs/libDaisy/src/daisy_core.h **** {
 165:../libs/PoliTeKDSP/libs/libDaisy/src/daisy_core.h ****     x = x <= FBIPMIN ? FBIPMIN : x;
 166:../libs/PoliTeKDSP/libs/libDaisy/src/daisy_core.h ****     x = x >= FBIPMAX ? FBIPMAX : x;
 167:../libs/PoliTeKDSP/libs/libDaisy/src/daisy_core.h ****     return (int32_t)(x * F2S32_SCALE);
 168:../libs/PoliTeKDSP/libs/libDaisy/src/daisy_core.h **** }
 169:../libs/PoliTeKDSP/libs/libDaisy/src/daisy_core.h **** 
 170:../libs/PoliTeKDSP/libs/libDaisy/src/daisy_core.h **** #ifdef __cplusplus
 171:../libs/PoliTeKDSP/libs/libDaisy/src/daisy_core.h **** 
 172:../libs/PoliTeKDSP/libs/libDaisy/src/daisy_core.h **** namespace daisy
 173:../libs/PoliTeKDSP/libs/libDaisy/src/daisy_core.h **** {
 174:../libs/PoliTeKDSP/libs/libDaisy/src/daisy_core.h **** /** @brief GPIO Port names */
 175:../libs/PoliTeKDSP/libs/libDaisy/src/daisy_core.h **** enum GPIOPort
 176:../libs/PoliTeKDSP/libs/libDaisy/src/daisy_core.h **** {
 177:../libs/PoliTeKDSP/libs/libDaisy/src/daisy_core.h ****     PORTA, /**< Port A */
 178:../libs/PoliTeKDSP/libs/libDaisy/src/daisy_core.h ****     PORTB, /**< Port B */
 179:../libs/PoliTeKDSP/libs/libDaisy/src/daisy_core.h ****     PORTC, /**< Port C */
 180:../libs/PoliTeKDSP/libs/libDaisy/src/daisy_core.h ****     PORTD, /**< Port D */
 181:../libs/PoliTeKDSP/libs/libDaisy/src/daisy_core.h ****     PORTE, /**< Port E */
 182:../libs/PoliTeKDSP/libs/libDaisy/src/daisy_core.h ****     PORTF, /**< Port F */
 183:../libs/PoliTeKDSP/libs/libDaisy/src/daisy_core.h ****     PORTG, /**< Port G */
 184:../libs/PoliTeKDSP/libs/libDaisy/src/daisy_core.h ****     PORTH, /**< Port H */
 185:../libs/PoliTeKDSP/libs/libDaisy/src/daisy_core.h ****     PORTI, /**< Port I */
 186:../libs/PoliTeKDSP/libs/libDaisy/src/daisy_core.h ****     PORTJ, /**< Port J */
 187:../libs/PoliTeKDSP/libs/libDaisy/src/daisy_core.h ****     PORTK, /**< Port K */
 188:../libs/PoliTeKDSP/libs/libDaisy/src/daisy_core.h ****     PORTX, /**< Used as a dummy port to signal an invalid pin. */
 189:../libs/PoliTeKDSP/libs/libDaisy/src/daisy_core.h **** };
 190:../libs/PoliTeKDSP/libs/libDaisy/src/daisy_core.h **** 
 191:../libs/PoliTeKDSP/libs/libDaisy/src/daisy_core.h **** /** @brief representation of hardware port/pin combination */
 192:../libs/PoliTeKDSP/libs/libDaisy/src/daisy_core.h **** struct Pin
 193:../libs/PoliTeKDSP/libs/libDaisy/src/daisy_core.h **** {
 194:../libs/PoliTeKDSP/libs/libDaisy/src/daisy_core.h ****     GPIOPort port;
 195:../libs/PoliTeKDSP/libs/libDaisy/src/daisy_core.h ****     uint8_t  pin;
 196:../libs/PoliTeKDSP/libs/libDaisy/src/daisy_core.h **** 
 197:../libs/PoliTeKDSP/libs/libDaisy/src/daisy_core.h ****     /** @brief Constructor creates a valid pin. 
 198:../libs/PoliTeKDSP/libs/libDaisy/src/daisy_core.h ****      *  @param pt GPIOPort between PA, and PK corresponding to STM32 Port.
 199:../libs/PoliTeKDSP/libs/libDaisy/src/daisy_core.h ****      *  @param pn pin number in range of 0-15
 200:../libs/PoliTeKDSP/libs/libDaisy/src/daisy_core.h ****     */
 201:../libs/PoliTeKDSP/libs/libDaisy/src/daisy_core.h ****     constexpr Pin(const GPIOPort pt, const uint8_t pn) : port(pt), pin(pn) {}
 202:../libs/PoliTeKDSP/libs/libDaisy/src/daisy_core.h **** 
 203:../libs/PoliTeKDSP/libs/libDaisy/src/daisy_core.h ****     /** @brief Basic Constructor creates an invalid Pin object */
 204:../libs/PoliTeKDSP/libs/libDaisy/src/daisy_core.h ****     constexpr Pin() : port(PORTX), pin(255) {}
 6387              		.loc 16 204 15 view .LVU1570
 6388              		.loc 16 204 15 is_stmt 0 view .LVU1571
 6389              	.LBE1686:
 6390              	.LBB1687:
 6391              	.LBI1687:
 6392              		.loc 16 204 15 is_stmt 1 view .LVU1572
 6393              		.loc 16 204 15 is_stmt 0 view .LVU1573
 6394              	.LBE1687:
 6395              	.LBE1685:
 6396              	.LBE1684:
 6397              	.LBE1683:
 6398              	.LBE1682:
 6399              	.LBE1681:
  23:Display/../../libs/PoliTeKDSP/libs/libDaisy/src/dev/oled_ssd130x.h ****         }
 6400              		.loc 11 23 13 is_stmt 1 view .LVU1574
 6401              	.LBB1699:
ARM GAS  C:\Users\matte\AppData\Local\Temp\ccj2OJiD.s 			page 179


 6402              	.LBB1696:
 6403              	.LBB1693:
 6404              	.LBB1688:
 6405              	.LBI1688:
  27:Display/../../libs/PoliTeKDSP/libs/libDaisy/src/dev/oled_ssd130x.h ****         {
 6406              		.loc 11 27 27 view .LVU1575
 6407              	.LBE1688:
 6408              	.LBE1693:
 6409              	.LBE1696:
 6410              	.LBE1699:
  29:Display/../../libs/PoliTeKDSP/libs/libDaisy/src/dev/oled_ssd130x.h ****             i2c_config.speed          = I2CHandle::Config::Speed::I2C_1MHZ;
 6411              		.loc 11 29 13 view .LVU1576
  30:Display/../../libs/PoliTeKDSP/libs/libDaisy/src/dev/oled_ssd130x.h ****             i2c_config.mode           = I2CHandle::Config::Mode::I2C_MASTER;
 6412              		.loc 11 30 13 view .LVU1577
  31:Display/../../libs/PoliTeKDSP/libs/libDaisy/src/dev/oled_ssd130x.h ****             i2c_config.pin_config.scl = Pin(PORTB, 8);
 6413              		.loc 11 31 13 view .LVU1578
  32:Display/../../libs/PoliTeKDSP/libs/libDaisy/src/dev/oled_ssd130x.h ****             i2c_config.pin_config.sda = Pin(PORTB, 9);
 6414              		.loc 11 32 13 view .LVU1579
 6415              	.LBB1700:
 6416              	.LBB1697:
 6417              	.LBB1694:
 6418              	.LBB1691:
 6419              	.LBB1689:
 6420              	.LBI1689:
 201:../libs/PoliTeKDSP/libs/libDaisy/src/daisy_core.h **** 
 6421              		.loc 16 201 15 view .LVU1580
 201:../libs/PoliTeKDSP/libs/libDaisy/src/daisy_core.h **** 
 6422              		.loc 16 201 15 is_stmt 0 view .LVU1581
 6423              	.LBE1689:
 6424              	.LBE1691:
 6425              	.LBE1694:
 6426              	.LBE1697:
 6427              	.LBE1700:
  33:Display/../../libs/PoliTeKDSP/libs/libDaisy/src/dev/oled_ssd130x.h ****             i2c_address               = 0x3C;
 6428              		.loc 11 33 13 is_stmt 1 view .LVU1582
 6429              	.LBB1701:
 6430              	.LBB1698:
 6431              	.LBB1695:
 6432              	.LBB1692:
 6433              	.LBB1690:
 6434              	.LBI1690:
 201:../libs/PoliTeKDSP/libs/libDaisy/src/daisy_core.h **** 
 6435              		.loc 16 201 15 view .LVU1583
 201:../libs/PoliTeKDSP/libs/libDaisy/src/daisy_core.h **** 
 6436              		.loc 16 201 15 is_stmt 0 view .LVU1584
 6437              	.LBE1690:
 6438              	.LBE1692:
 6439              	.LBE1695:
 6440              	.LBE1698:
 6441              	.LBE1701:
  34:Display/../../libs/PoliTeKDSP/libs/libDaisy/src/dev/oled_ssd130x.h ****         }
 6442              		.loc 11 34 13 is_stmt 1 view .LVU1585
  45:main.cpp      ****     disp.Init(disp_cfg);
 6443              		.loc 12 45 5 view .LVU1586
 6444              		.loc 12 45 5 is_stmt 0 view .LVU1587
 6445 0054 1022     		movs	r2, #16
 6446 0056 3C23     		movs	r3, #60
ARM GAS  C:\Users\matte\AppData\Local\Temp\ccj2OJiD.s 			page 180


 6447 0058 0D96     		str	r6, [sp, #52]
 6448 005a 8DF83820 		strb	r2, [sp, #56]
 6449              	.LBB1702:
 6450              	.LBB1703:
  25:../libs/PoliTeKDSP/libs/libDaisy/src/hid/disp/oled_display.h **** 
 6451              		.loc 9 25 44 view .LVU1588
 6452 005e 10AA     		add	r2, sp, #64
 6453 0060 8DF83C30 		strb	r3, [sp, #60]
 6454              	.LBE1703:
 6455              	.LBI1702:
  25:../libs/PoliTeKDSP/libs/libDaisy/src/hid/disp/oled_display.h **** 
 6456              		.loc 9 25 10 is_stmt 1 view .LVU1589
 6457 0064 884B     		ldr	r3, .L453+16
 6458              	.LBB1704:
  25:../libs/PoliTeKDSP/libs/libDaisy/src/hid/disp/oled_display.h **** 
 6459              		.loc 9 25 44 is_stmt 0 view .LVU1590
 6460 0066 12E90700 		ldmdb	r2, {r0, r1, r2}
 6461 006a CDE90A63 		strd	r6, r3, [sp, #40]
 6462 006e 0AAB     		add	r3, sp, #40
 6463 0070 0C95     		str	r5, [sp, #48]
 6464 0072 8DE80700 		stm	sp, {r0, r1, r2}
 6465 0076 8548     		ldr	r0, .L453+20
 6466 0078 0ECB     		ldm	r3, {r1, r2, r3}
 6467 007a FFF7FEFF 		bl	_ZN5daisy13SSD130xDriverILj128ELj64ENS_19SSD130xI2CTransportEE4InitENS2_6ConfigE
 6468              	.LVL468:
  25:../libs/PoliTeKDSP/libs/libDaisy/src/hid/disp/oled_display.h **** 
 6469              		.loc 9 25 44 view .LVU1591
 6470              	.LBE1704:
 6471              	.LBE1702:
  46:main.cpp      ****     disp_handle.SetYscale(100);
 6472              		.loc 12 46 5 is_stmt 1 view .LVU1592
 6473              		.loc 12 46 26 is_stmt 0 view .LVU1593
 6474 007e 6421     		movs	r1, #100
 6475 0080 8348     		ldr	r0, .L453+24
 6476 0082 FFF7FEFF 		bl	_ZN14DisplayHandler9SetYscaleEi
 6477              	.LVL469:
  47:main.cpp      ****     disp_handle.SetState(DisplayState::WAVEFORM_VIEWER);
 6478              		.loc 12 47 5 is_stmt 1 view .LVU1594
 6479              		.loc 12 47 25 is_stmt 0 view .LVU1595
 6480 0086 0121     		movs	r1, #1
 6481 0088 8148     		ldr	r0, .L453+24
 6482 008a FFF7FEFF 		bl	_ZN14DisplayHandler8SetStateE12DisplayState
 6483              	.LVL470:
  48:main.cpp      **** 
  49:main.cpp      ****     // Inizializzazione Moduli DSP
  50:main.cpp      ****     pc.Init(IIR::FilterType::Butterworth, &hw);
 6484              		.loc 12 50 5 is_stmt 1 view .LVU1596
 6485              		.loc 12 50 12 is_stmt 0 view .LVU1597
 6486 008e 7A4A     		ldr	r2, .L453
 6487 0090 0121     		movs	r1, #1
 6488 0092 8048     		ldr	r0, .L453+28
 6489 0094 FFF7FEFF 		bl	_ZN16PlantConditioner4InitEN3IIR10FilterTypeEPN5daisy9DaisySeedE
 6490              	.LVL471:
  51:main.cpp      ****     synth.Init(hw.AudioSampleRate());
 6491              		.loc 12 51 5 is_stmt 1 view .LVU1598
 6492              		.loc 12 51 15 is_stmt 0 view .LVU1599
 6493 0098 7748     		ldr	r0, .L453
ARM GAS  C:\Users\matte\AppData\Local\Temp\ccj2OJiD.s 			page 181


 6494 009a FFF7FEFF 		bl	_ZN5daisy9DaisySeed15AudioSampleRateEv
 6495              	.LVL472:
 6496 009e 7E48     		ldr	r0, .L453+32
 6497 00a0 FFF7FEFF 		bl	_ZN11AudioEngine4InitEf
 6498              	.LVL473:
  52:main.cpp      ****     synth.SetPreset(PRESET_LEAD);
 6499              		.loc 12 52 5 is_stmt 1 view .LVU1600
 6500              		.loc 12 52 20 is_stmt 0 view .LVU1601
 6501 00a4 2946     		mov	r1, r5
 6502 00a6 7C48     		ldr	r0, .L453+32
 6503 00a8 FFF7FEFF 		bl	_ZN11AudioEngine9SetPresetE11SynthPreset
 6504              	.LVL474:
  53:main.cpp      **** 
  54:main.cpp      ****     hw.StartAudio(AudioCallback);
 6505              		.loc 12 54 5 is_stmt 1 view .LVU1602
 6506              		.loc 12 54 18 is_stmt 0 view .LVU1603
 6507 00ac 7B49     		ldr	r1, .L453+36
 6508 00ae 7248     		ldr	r0, .L453
 6509 00b0 FFF7FEFF 		bl	_ZN5daisy9DaisySeed10StartAudioEPFvPKPKfPPfjE
 6510              	.LVL475:
  55:main.cpp      **** 
  56:main.cpp      ****     uint32_t last_enc_poll = System::GetNow();
 6511              		.loc 12 56 5 is_stmt 1 view .LVU1604
 6512              		.loc 12 56 44 is_stmt 0 view .LVU1605
 6513 00b4 FFF7FEFF 		bl	_ZN5daisy6System6GetNowEv
 6514              	.LVL476:
 6515 00b8 0490     		str	r0, [sp, #16]
 6516              	.LVL477:
  57:main.cpp      ****     uint32_t disp_cnt = 0;
 6517              		.loc 12 57 5 is_stmt 1 view .LVU1606
 6518              	.L434:
  58:main.cpp      **** 
  59:main.cpp      ****     while(1) {
 6519              		.loc 12 59 5 view .LVU1607
 6520              	.LBB1705:
  60:main.cpp      ****         uint32_t now = System::GetNow();
 6521              		.loc 12 60 9 view .LVU1608
 6522              		.loc 12 60 38 is_stmt 0 view .LVU1609
 6523 00ba FFF7FEFF 		bl	_ZN5daisy6System6GetNowEv
 6524              	.LVL478:
 6525              	.LBB1706:
  61:main.cpp      **** 
  62:main.cpp      ****         // --- 1. CAMPIONAMENTO ENCODER ---
  63:main.cpp      ****         if(now >= last_enc_poll + 1) {
 6526              		.loc 12 63 33 view .LVU1610
 6527 00be 049B     		ldr	r3, [sp, #16]
 6528              	.LBE1706:
  60:main.cpp      ****         uint32_t now = System::GetNow();
 6529              		.loc 12 60 38 view .LVU1611
 6530 00c0 0546     		mov	r5, r0
 6531              	.LVL479:
 6532              		.loc 12 63 9 is_stmt 1 view .LVU1612
 6533              	.LBB1731:
 6534              		.loc 12 63 33 is_stmt 0 view .LVU1613
 6535 00c2 0133     		adds	r3, r3, #1
 6536              		.loc 12 63 9 view .LVU1614
 6537 00c4 8342     		cmp	r3, r0
ARM GAS  C:\Users\matte\AppData\Local\Temp\ccj2OJiD.s 			page 182


 6538 00c6 3FD9     		bls	.L452
 6539              	.LVL480:
 6540              	.L412:
 6541              		.loc 12 63 9 view .LVU1615
 6542              	.LBE1731:
  64:main.cpp      ****             last_enc_poll = now; 
  65:main.cpp      ****             
  66:main.cpp      ****             enc.Debounce();
  67:main.cpp      ****             int32_t inc = enc.Increment();
  68:main.cpp      ****             bool clicked = enc.RisingEdge();
  69:main.cpp      **** 
  70:main.cpp      ****             if(inc != 0 || clicked) {
  71:main.cpp      ****                 menu.StateTransition(clicked, inc, false);
  72:main.cpp      ****             }
  73:main.cpp      ****             
  74:main.cpp      ****             disp_cnt++;
  75:main.cpp      ****         }
  76:main.cpp      **** 
  77:main.cpp      ****         // --- 2. AGGIORNAMENTO LOGICA E PARAMETRI ---
  78:main.cpp      ****         MenuManager::MenuData ui_data = menu.GetData();
 6543              		.loc 12 78 9 is_stmt 1 view .LVU1616
 6544              	.LBB1732:
 6545              	.LBI1732:
 6546              		.file 17 "Display/MenuManager.h"
   1:Display/MenuManager.h **** #pragma once
   2:Display/MenuManager.h **** #include <stdint.h>
   3:Display/MenuManager.h **** 
   4:Display/MenuManager.h **** class MenuManager {
   5:Display/MenuManager.h **** public:
   6:Display/MenuManager.h ****     // Rinominato in MenuState per coerenza con il resto del codice
   7:Display/MenuManager.h ****     enum MenuState {
   8:Display/MenuManager.h ****         PLAYMODE,           // Visualizzazione Onda
   9:Display/MenuManager.h ****         MAIN_MENU,
  10:Display/MenuManager.h ****         // Nodi principali (Hub)
  11:Display/MenuManager.h ****         CALIBRATION_HUB,
  12:Display/MenuManager.h ****         SCALES_HUB,         // Rinominato per coerenza con PRESETS_HUB
  13:Display/MenuManager.h ****         PRESETS_HUB,
  14:Display/MenuManager.h **** 
  15:Display/MenuManager.h ****         // Foglie: Parametri Calibrazione
  16:Display/MenuManager.h ****         CURVE,
  17:Display/MenuManager.h ****         DELTA,
  18:Display/MenuManager.h **** 
  19:Display/MenuManager.h ****         // Foglie: Parametri Scale
  20:Display/MenuManager.h ****         ROOT,
  21:Display/MenuManager.h ****         SCALE,
  22:Display/MenuManager.h ****         OCTAVE,
  23:Display/MenuManager.h **** 
  24:Display/MenuManager.h ****         BACK,
  25:Display/MenuManager.h ****     };
  26:Display/MenuManager.h **** 
  27:Display/MenuManager.h ****     // Struttura espansa con i nuovi parametri
  28:Display/MenuManager.h ****     struct MenuData {
  29:Display/MenuManager.h ****         MenuState state;
  30:Display/MenuManager.h ****         MenuState cursor_state;
  31:Display/MenuManager.h ****         float delta;
  32:Display/MenuManager.h ****         float curve;
  33:Display/MenuManager.h ****         int root;       // Es: 0 = C, 1 = C#...
ARM GAS  C:\Users\matte\AppData\Local\Temp\ccj2OJiD.s 			page 183


  34:Display/MenuManager.h ****         int scale;      // Es: 0 = Major, 1 = Minor...
  35:Display/MenuManager.h ****         int octave;          // Es: 1, 2, 3, 4
  36:Display/MenuManager.h ****         int preset;    // Indice per il synth
  37:Display/MenuManager.h ****         //bool state_just_changed; 
  38:Display/MenuManager.h ****     };
  39:Display/MenuManager.h **** 
  40:Display/MenuManager.h ****     void Init();
  41:Display/MenuManager.h ****     
  42:Display/MenuManager.h ****     void StateTransition(bool click, int rotation, bool timeout);
  43:Display/MenuManager.h ****     
  44:Display/MenuManager.h ****     MenuData GetData(){return _outData;}
 6547              		.loc 17 44 14 view .LVU1617
 6548              	.LBB1733:
 6549              		.loc 17 44 24 view .LVU1618
 6550              		.loc 17 44 31 is_stmt 0 view .LVU1619
 6551 00c8 D4ED028A 		vldr.32	s17, [r4, #8]
 6552 00cc 6379     		ldrb	r3, [r4, #5]	@ zero_extendqisi2
 6553 00ce 94ED038A 		vldr.32	s16, [r4, #12]
 6554              	.LBE1733:
 6555              	.LBE1732:
  79:main.cpp      **** 
  80:main.cpp      ****         // Sincronizza i parametri dal Menu alle classi DSP
  81:main.cpp      ****         pc.setDelta(ui_data.delta);
 6556              		.loc 12 81 20 view .LVU1620
 6557 00d2 B0EE680A 		vmov.f32	s0, s17
 6558              	.LBB1736:
 6559              	.LBB1734:
 6560              		.loc 17 44 31 view .LVU1621
 6561 00d6 D4F81880 		ldr	r8, [r4, #24]
 6562              	.LBE1734:
 6563              	.LBE1736:
 6564              		.loc 12 81 20 view .LVU1622
 6565 00da 6E48     		ldr	r0, .L453+28
 6566              	.LBB1737:
 6567              	.LBB1735:
 6568              		.loc 17 44 31 view .LVU1623
 6569 00dc 0593     		str	r3, [sp, #20]
 6570 00de E769     		ldr	r7, [r4, #28]
 6571 00e0 2579     		ldrb	r5, [r4, #4]	@ zero_extendqisi2
 6572              	.LVL481:
 6573              		.loc 17 44 31 view .LVU1624
 6574 00e2 D4E904A9 		ldrd	r10, r9, [r4, #16]
 6575              	.LVL482:
 6576              		.loc 17 44 31 view .LVU1625
 6577              	.LBE1735:
 6578              	.LBE1737:
 6579              		.loc 12 81 9 is_stmt 1 view .LVU1626
 6580              		.loc 12 81 20 is_stmt 0 view .LVU1627
 6581 00e6 FFF7FEFF 		bl	_ZN16PlantConditioner8setDeltaEf
 6582              	.LVL483:
  82:main.cpp      ****         pc.setCurve(ui_data.curve);
 6583              		.loc 12 82 9 is_stmt 1 view .LVU1628
 6584              		.loc 12 82 20 is_stmt 0 view .LVU1629
 6585 00ea B0EE480A 		vmov.f32	s0, s16
 6586 00ee 6948     		ldr	r0, .L453+28
 6587 00f0 FFF7FEFF 		bl	_ZN16PlantConditioner8setCurveEf
 6588              	.LVL484:
ARM GAS  C:\Users\matte\AppData\Local\Temp\ccj2OJiD.s 			page 184


  83:main.cpp      ****         pc.setOctave(ui_data.octave);
 6589              		.loc 12 83 9 is_stmt 1 view .LVU1630
 6590              		.loc 12 83 21 is_stmt 0 view .LVU1631
 6591 00f4 6748     		ldr	r0, .L453+28
 6592 00f6 5FFA88F1 		uxtb	r1, r8
 6593 00fa FFF7FEFF 		bl	_ZN16PlantConditioner9setOctaveEh
 6594              	.LVL485:
  84:main.cpp      ****         synth.SetPreset((SynthPreset) ui_data.preset);
 6595              		.loc 12 84 9 is_stmt 1 view .LVU1632
 6596              		.loc 12 84 24 is_stmt 0 view .LVU1633
 6597 00fe 6648     		ldr	r0, .L453+32
 6598 0100 F9B2     		uxtb	r1, r7
 6599 0102 FFF7FEFF 		bl	_ZN11AudioEngine9SetPresetE11SynthPreset
 6600              	.LVL486:
  85:main.cpp      ****         pc.setScale((PlantConditioner::Notes)ui_data.root, (PlantConditioner::ScaleType)ui_data.sca
 6601              		.loc 12 85 9 is_stmt 1 view .LVU1634
 6602              		.loc 12 85 20 is_stmt 0 view .LVU1635
 6603 0106 6348     		ldr	r0, .L453+28
 6604 0108 5FFA89F2 		uxtb	r2, r9
 6605 010c 5FFA8AF1 		uxtb	r1, r10
 6606 0110 FFF7FEFF 		bl	_ZN16PlantConditioner8setScaleENS_5NotesENS_9ScaleTypeE
 6607              	.LVL487:
  86:main.cpp      **** 
  87:main.cpp      ****         // Calcolo della frequenza dalla pianta
  88:main.cpp      ****         PlantConditioner::PlantState plant_data = pc.Process();
 6608              		.loc 12 88 9 is_stmt 1 view .LVU1636
 6609              		.loc 12 88 62 is_stmt 0 view .LVU1637
 6610 0114 5F49     		ldr	r1, .L453+28
 6611 0116 0AA8     		add	r0, sp, #40
 6612 0118 FFF7FEFF 		bl	_ZN16PlantConditioner7ProcessEv
 6613              	.LVL488:
  89:main.cpp      ****         audio_controls.freq = plant_data._freq;
 6614              		.loc 12 89 9 is_stmt 1 view .LVU1638
 6615              		.loc 12 89 29 is_stmt 0 view .LVU1639
 6616 011c 0A9B     		ldr	r3, [sp, #40]	@ float
 6617              	.LBB1738:
  90:main.cpp      ****         audio_controls.gate = plant_data._gate;
  91:main.cpp      **** 
  92:main.cpp      ****         // --- 3. AGGIORNAMENTO DISPLAY (Ogni 50 cicli = 50ms) ---
  93:main.cpp      ****         if (disp_cnt >= 60) {
 6618              		.loc 12 93 9 view .LVU1640
 6619 011e 3C2E     		cmp	r6, #60
 6620              	.LBE1738:
  89:main.cpp      ****         audio_controls.freq = plant_data._freq;
 6621              		.loc 12 89 29 view .LVU1641
 6622 0120 CBF80030 		str	r3, [fp]	@ float
  90:main.cpp      ****         audio_controls.gate = plant_data._gate;
 6623              		.loc 12 90 9 is_stmt 1 view .LVU1642
  90:main.cpp      ****         audio_controls.gate = plant_data._gate;
 6624              		.loc 12 90 29 is_stmt 0 view .LVU1643
 6625 0124 9DF82C30 		ldrb	r3, [sp, #44]	@ zero_extendqisi2
 6626 0128 8BF80430 		strb	r3, [fp, #4]
 6627              		.loc 12 93 9 is_stmt 1 view .LVU1644
 6628              	.LBB1747:
 6629 012c C5D1     		bne	.L434
 6630              	.LBB1739:
  94:main.cpp      ****             disp_cnt = 0;
ARM GAS  C:\Users\matte\AppData\Local\Temp\ccj2OJiD.s 			page 185


 6631              		.loc 12 94 13 view .LVU1645
 6632              	.LVL489:
  95:main.cpp      **** 
  96:main.cpp      ****             if (ui_data.state == MenuManager::PLAYMODE) {
 6633              		.loc 12 96 13 view .LVU1646
 6634              	.LBB1740:
 6635 012e DDB9     		cbnz	r5, .L419
  97:main.cpp      ****                 disp_handle.SetState(DisplayState::WAVEFORM_VIEWER);
 6636              		.loc 12 97 17 view .LVU1647
 6637              		.loc 12 97 37 is_stmt 0 view .LVU1648
 6638 0130 0121     		movs	r1, #1
 6639 0132 5748     		ldr	r0, .L453+24
 6640 0134 FFF7FEFF 		bl	_ZN14DisplayHandler8SetStateE12DisplayState
 6641              	.LVL490:
 6642              	.L420:
 6643              		.loc 12 97 37 view .LVU1649
 6644              	.LBE1740:
  98:main.cpp      ****             } 
  99:main.cpp      ****             else {
 100:main.cpp      ****                 disp_handle.SetState(DisplayState::MENU_MODE);
 101:main.cpp      ****                 int cursor_idx = 0;
 102:main.cpp      ****                 
 103:main.cpp      ****                 switch (ui_data.state) {
 104:main.cpp      ****                     case MenuManager::MAIN_MENU:
 105:main.cpp      ****                         if (ui_data.cursor_state == MenuManager::CALIBRATION_HUB) cursor_idx = 0;
 106:main.cpp      ****                         else if (ui_data.cursor_state == MenuManager::SCALES_HUB) cursor_idx = 1;
 107:main.cpp      ****                         else if (ui_data.cursor_state == MenuManager::PRESETS_HUB) cursor_idx = 2;
 108:main.cpp      ****                         else if (ui_data.cursor_state == MenuManager::BACK) cursor_idx = 3;
 109:main.cpp      ****                         disp_handle.DrawMainMenu(cursor_idx);
 110:main.cpp      ****                         break;
 111:main.cpp      **** 
 112:main.cpp      ****                     case MenuManager::CALIBRATION_HUB:
 113:main.cpp      ****                         if (ui_data.cursor_state == MenuManager::DELTA) cursor_idx = 0;
 114:main.cpp      ****                         else if (ui_data.cursor_state == MenuManager::CURVE) cursor_idx = 1;
 115:main.cpp      ****                         else if (ui_data.cursor_state == MenuManager::BACK) cursor_idx = 2;
 116:main.cpp      ****                         disp_handle.DrawCalibrationHub(cursor_idx);
 117:main.cpp      ****                         break;
 118:main.cpp      **** 
 119:main.cpp      ****                     case MenuManager::SCALES_HUB:
 120:main.cpp      ****                         if (ui_data.cursor_state == MenuManager::ROOT) cursor_idx = 0;
 121:main.cpp      ****                         else if (ui_data.cursor_state == MenuManager::SCALE) cursor_idx = 1;
 122:main.cpp      ****                         else if (ui_data.cursor_state == MenuManager::OCTAVE) cursor_idx = 2;
 123:main.cpp      ****                         else if (ui_data.cursor_state == MenuManager::BACK) cursor_idx = 3;
 124:main.cpp      ****                         disp_handle.DrawScalesHub(cursor_idx);
 125:main.cpp      ****                         break;
 126:main.cpp      **** 
 127:main.cpp      ****                     case MenuManager::DELTA:
 128:main.cpp      ****                         disp_handle.DrawFloatParameter("DELTA", ui_data.delta);
 129:main.cpp      ****                         break;
 130:main.cpp      ****                     
 131:main.cpp      ****                     case MenuManager::CURVE:
 132:main.cpp      ****                         disp_handle.DrawFloatParameter("CURVE", ui_data.curve);
 133:main.cpp      ****                         break;
 134:main.cpp      **** 
 135:main.cpp      ****                     case MenuManager::ROOT:
 136:main.cpp      ****                         disp_handle.DrawIntParameter("ROOT", ui_data.root);
 137:main.cpp      ****                         break;
ARM GAS  C:\Users\matte\AppData\Local\Temp\ccj2OJiD.s 			page 186


 138:main.cpp      **** 
 139:main.cpp      ****                     case MenuManager::SCALE:
 140:main.cpp      ****                         disp_handle.DrawIntParameter("SCALE", ui_data.scale);
 141:main.cpp      ****                         break;
 142:main.cpp      **** 
 143:main.cpp      ****                     case MenuManager::OCTAVE:
 144:main.cpp      ****                         disp_handle.DrawIntParameter("OCTAVE", ui_data.octave);
 145:main.cpp      ****                         break;
 146:main.cpp      ****                     case MenuManager::PRESETS_HUB:
 147:main.cpp      ****                     disp_handle.DrawIntParameter("PRESET", ui_data.preset);
 148:main.cpp      ****                         break;
 149:main.cpp      **** 
 150:main.cpp      ****                     default:
 151:main.cpp      ****                         break;
 152:main.cpp      ****                 }
 153:main.cpp      ****             } 
 154:main.cpp      ****             
 155:main.cpp      ****             // Operazione bloccante I2C
 156:main.cpp      ****             disp_handle.Update(); 
 6645              		.loc 12 156 13 is_stmt 1 view .LVU1650
 6646              		.loc 12 156 31 is_stmt 0 view .LVU1651
 6647 0138 5548     		ldr	r0, .L453+24
  94:main.cpp      **** 
 6648              		.loc 12 94 22 view .LVU1652
 6649 013a 0026     		movs	r6, #0
 6650              		.loc 12 156 31 view .LVU1653
 6651 013c FFF7FEFF 		bl	_ZN14DisplayHandler6UpdateEv
 6652              	.LVL491:
 157:main.cpp      ****             
 158:main.cpp      ****             // Reset fondamentale del tempo per evitare "salti" dell'encoder dopo l'update
 159:main.cpp      ****             last_enc_poll = System::GetNow();
 6653              		.loc 12 159 13 is_stmt 1 view .LVU1654
 6654              		.loc 12 159 43 is_stmt 0 view .LVU1655
 6655 0140 FFF7FEFF 		bl	_ZN5daisy6System6GetNowEv
 6656              	.LVL492:
 6657 0144 0490     		str	r0, [sp, #16]
 6658              	.LVL493:
 6659              		.loc 12 159 43 view .LVU1656
 6660              	.LBE1739:
 6661              	.LBE1747:
 6662              	.LBE1705:
  59:main.cpp      ****         uint32_t now = System::GetNow();
 6663              		.loc 12 59 5 is_stmt 1 view .LVU1657
 160:main.cpp      ****         }
 161:main.cpp      ****     }
 6664              		.loc 12 161 5 is_stmt 0 view .LVU1658
 6665 0146 B8E7     		b	.L434
 6666              	.LVL494:
 6667              	.L452:
 6668              	.LBB1754:
 6669              	.LBB1748:
 6670              	.LBB1707:
  64:main.cpp      ****             
 6671              		.loc 12 64 13 is_stmt 1 view .LVU1659
  66:main.cpp      ****             int32_t inc = enc.Increment();
 6672              		.loc 12 66 13 view .LVU1660
  66:main.cpp      ****             int32_t inc = enc.Increment();
ARM GAS  C:\Users\matte\AppData\Local\Temp\ccj2OJiD.s 			page 187


 6673              		.loc 12 66 25 is_stmt 0 view .LVU1661
 6674 0148 4E48     		ldr	r0, .L453+12
 6675              	.LVL495:
  66:main.cpp      ****             int32_t inc = enc.Increment();
 6676              		.loc 12 66 25 view .LVU1662
 6677 014a FFF7FEFF 		bl	_ZN5daisy7Encoder8DebounceEv
 6678              	.LVL496:
  67:main.cpp      ****             bool clicked = enc.RisingEdge();
 6679              		.loc 12 67 13 is_stmt 1 view .LVU1663
 6680              	.LBB1708:
 6681              	.LBI1708:
  22:../libs/PoliTeKDSP/libs/libDaisy/src/hid/encoder.h **** 
  23:../libs/PoliTeKDSP/libs/libDaisy/src/hid/encoder.h ****     /** Initializes the encoder with the specified hardware pins.
  24:../libs/PoliTeKDSP/libs/libDaisy/src/hid/encoder.h ****      * Update rate is to be deprecated in a future release
  25:../libs/PoliTeKDSP/libs/libDaisy/src/hid/encoder.h ****      */
  26:../libs/PoliTeKDSP/libs/libDaisy/src/hid/encoder.h ****     void Init(Pin a, Pin b, Pin click, float update_rate = 0.f);
  27:../libs/PoliTeKDSP/libs/libDaisy/src/hid/encoder.h ****     /** Called at update_rate to debounce and handle timing for the switch.
  28:../libs/PoliTeKDSP/libs/libDaisy/src/hid/encoder.h ****      * In order for events not to be missed, its important that the Edge/Pressed checks be made at 
  29:../libs/PoliTeKDSP/libs/libDaisy/src/hid/encoder.h ****      */
  30:../libs/PoliTeKDSP/libs/libDaisy/src/hid/encoder.h ****     void Debounce();
  31:../libs/PoliTeKDSP/libs/libDaisy/src/hid/encoder.h **** 
  32:../libs/PoliTeKDSP/libs/libDaisy/src/hid/encoder.h ****     /** Returns +1 if the encoder was turned clockwise, -1 if it was turned counter-clockwise, or 0
  33:../libs/PoliTeKDSP/libs/libDaisy/src/hid/encoder.h ****     inline int32_t Increment() const { return updated_ ? inc_ : 0; }
 6682              		.loc 1 33 20 view .LVU1664
 6683              	.LBB1709:
 6684              		.loc 1 33 40 view .LVU1665
 6685              		.loc 1 33 47 is_stmt 0 view .LVU1666
 6686 014e 4D4A     		ldr	r2, .L453+12
 6687 0150 1379     		ldrb	r3, [r2, #4]	@ zero_extendqisi2
 6688              		.loc 1 33 56 view .LVU1667
 6689 0152 002B     		cmp	r3, #0
 6690 0154 67D0     		beq	.L413
 6691              	.LBE1709:
 6692              	.LBE1708:
 6693              	.LBB1712:
 6694              	.LBB1713:
 6695              	.LBB1714:
  35:../libs/libDaisy/src/hid/switch.h **** 
  36:../libs/libDaisy/src/hid/switch.h ****     /** 
  37:../libs/libDaisy/src/hid/switch.h ****     Initializes the switch object with a given port/pin combo.
  38:../libs/libDaisy/src/hid/switch.h ****     \param pin port/pin object to tell the switch which hardware pin to use.
  39:../libs/libDaisy/src/hid/switch.h ****     \param update_rate Does nothing. Backwards compatibility until next breaking update.
  40:../libs/libDaisy/src/hid/switch.h ****     \param t switch type -- Default: TYPE_MOMENTARY
  41:../libs/libDaisy/src/hid/switch.h ****     \param pol switch polarity -- Default: POLARITY_INVERTED
  42:../libs/libDaisy/src/hid/switch.h ****     \param pu switch pull up/down -- Default: PULL_UP
  43:../libs/libDaisy/src/hid/switch.h ****     */
  44:../libs/libDaisy/src/hid/switch.h ****     void Init(Pin        pin,
  45:../libs/libDaisy/src/hid/switch.h ****               float      update_rate,
  46:../libs/libDaisy/src/hid/switch.h ****               Type       t,
  47:../libs/libDaisy/src/hid/switch.h ****               Polarity   pol,
  48:../libs/libDaisy/src/hid/switch.h ****               GPIO::Pull pu = GPIO::Pull::PULLUP);
  49:../libs/libDaisy/src/hid/switch.h **** 
  50:../libs/libDaisy/src/hid/switch.h ****     /**
  51:../libs/libDaisy/src/hid/switch.h ****        Simplified Init.
  52:../libs/libDaisy/src/hid/switch.h ****        \param pin port/pin object to tell the switch which hardware pin to use.
  53:../libs/libDaisy/src/hid/switch.h ****        \param update_rate Left for backwards compatibility until next breaking change.
  54:../libs/libDaisy/src/hid/switch.h ****     */
ARM GAS  C:\Users\matte\AppData\Local\Temp\ccj2OJiD.s 			page 188


  55:../libs/libDaisy/src/hid/switch.h ****     void Init(Pin pin, float update_rate = 0.f);
  56:../libs/libDaisy/src/hid/switch.h **** 
  57:../libs/libDaisy/src/hid/switch.h ****     /** 
  58:../libs/libDaisy/src/hid/switch.h ****     Called at update_rate to debounce and handle timing for the switch.
  59:../libs/libDaisy/src/hid/switch.h ****     In order for events not to be missed, its important that the Edge/Pressed checks
  60:../libs/libDaisy/src/hid/switch.h ****     be made at the same rate as the debounce function is being called.
  61:../libs/libDaisy/src/hid/switch.h ****     */
  62:../libs/libDaisy/src/hid/switch.h ****     void Debounce();
  63:../libs/libDaisy/src/hid/switch.h **** 
  64:../libs/libDaisy/src/hid/switch.h ****     /** \return true if a button was just pressed. */
  65:../libs/libDaisy/src/hid/switch.h ****     inline bool RisingEdge() const { return updated_ ? state_ == 0x7f : false; }
 6696              		.loc 2 65 45 view .LVU1668
 6697 0156 117B     		ldrb	r1, [r2, #12]	@ zero_extendqisi2
 6698              	.LBE1714:
 6699              	.LBE1713:
 6700              	.LBE1712:
 6701              	.LBB1721:
 6702              	.LBB1710:
 6703              		.loc 1 33 56 view .LVU1669
 6704 0158 926D     		ldr	r2, [r2, #88]
 6705              	.LVL497:
 6706              		.loc 1 33 56 view .LVU1670
 6707              	.LBE1710:
 6708              	.LBE1721:
  68:main.cpp      **** 
 6709              		.loc 12 68 13 is_stmt 1 view .LVU1671
 6710              	.LBB1722:
 6711              	.LBI1712:
  34:../libs/PoliTeKDSP/libs/libDaisy/src/hid/encoder.h **** 
  35:../libs/PoliTeKDSP/libs/libDaisy/src/hid/encoder.h ****     /** Returns true if the encoder was just pressed. */
  36:../libs/PoliTeKDSP/libs/libDaisy/src/hid/encoder.h ****     inline bool RisingEdge() const { return sw_.RisingEdge(); }
 6712              		.loc 1 36 17 view .LVU1672
 6713              	.LBE1722:
 6714              	.LBE1707:
 6715              	.LBE1748:
 6716              	.LBE1754:
 6717              		.loc 1 36 38 view .LVU1673
 6718              	.LBB1755:
 6719              	.LBB1749:
 6720              	.LBB1728:
 6721              	.LBB1723:
 6722              	.LBB1718:
 6723              	.LBI1713:
 6724              		.loc 2 65 17 view .LVU1674
 6725              	.LBB1715:
 6726              		.loc 2 65 38 view .LVU1675
 6727              		.loc 2 65 54 is_stmt 0 view .LVU1676
 6728 015a 0029     		cmp	r1, #0
 6729 015c 78D1     		bne	.L414
 6730              	.LVL498:
 6731              		.loc 2 65 54 view .LVU1677
 6732              	.LBE1715:
 6733              	.LBE1718:
 6734              	.LBE1723:
  70:main.cpp      ****                 menu.StateTransition(clicked, inc, false);
 6735              		.loc 12 70 13 is_stmt 1 view .LVU1678
 6736 015e 002A     		cmp	r2, #0
ARM GAS  C:\Users\matte\AppData\Local\Temp\ccj2OJiD.s 			page 189


 6737 0160 71D1     		bne	.L415
 6738              	.LVL499:
 6739              	.L416:
  74:main.cpp      ****         }
 6740              		.loc 12 74 13 view .LVU1679
  74:main.cpp      ****         }
 6741              		.loc 12 74 21 is_stmt 0 view .LVU1680
 6742 0162 0136     		adds	r6, r6, #1
 6743              	.LVL500:
  74:main.cpp      ****         }
 6744              		.loc 12 74 21 view .LVU1681
 6745              	.LBE1728:
 6746 0164 0495     		str	r5, [sp, #16]
 6747 0166 AFE7     		b	.L412
 6748              	.LVL501:
 6749              	.L419:
  74:main.cpp      ****         }
 6750              		.loc 12 74 21 view .LVU1682
 6751              	.LBE1749:
 6752              	.LBB1750:
 6753              	.LBB1745:
 6754              	.LBB1743:
 6755              	.LBB1741:
 100:main.cpp      ****                 int cursor_idx = 0;
 6756              		.loc 12 100 17 is_stmt 1 view .LVU1683
 6757 0168 013D     		subs	r5, r5, #1
 6758              	.LVL502:
 100:main.cpp      ****                 int cursor_idx = 0;
 6759              		.loc 12 100 37 is_stmt 0 view .LVU1684
 6760 016a 0221     		movs	r1, #2
 6761 016c 4848     		ldr	r0, .L453+24
 6762 016e FFF7FEFF 		bl	_ZN14DisplayHandler8SetStateE12DisplayState
 6763              	.LVL503:
 101:main.cpp      ****                 
 6764              		.loc 12 101 17 is_stmt 1 view .LVU1685
 103:main.cpp      ****                     case MenuManager::MAIN_MENU:
 6765              		.loc 12 103 17 view .LVU1686
 6766 0172 082D     		cmp	r5, #8
 6767 0174 E0D8     		bhi	.L420
 6768 0176 DFE805F0 		tbb	[pc, r5]
 6769              	.L422:
 6770 017a 47       		.byte	(.L430-.L422)/2
 6771 017b 3A       		.byte	(.L429-.L422)/2
 6772 017c 2B       		.byte	(.L428-.L422)/2
 6773 017d 25       		.byte	(.L427-.L422)/2
 6774 017e 1E       		.byte	(.L426-.L422)/2
 6775 017f 17       		.byte	(.L425-.L422)/2
 6776 0180 11       		.byte	(.L424-.L422)/2
 6777 0181 0B       		.byte	(.L423-.L422)/2
 6778 0182 05       		.byte	(.L421-.L422)/2
 6779 0183 00       		.p2align 1
 6780              	.L421:
 143:main.cpp      ****                         disp_handle.DrawIntParameter("OCTAVE", ui_data.octave);
 6781              		.loc 12 143 21 view .LVU1687
 144:main.cpp      ****                         break;
 6782              		.loc 12 144 25 view .LVU1688
 144:main.cpp      ****                         break;
ARM GAS  C:\Users\matte\AppData\Local\Temp\ccj2OJiD.s 			page 190


 6783              		.loc 12 144 53 is_stmt 0 view .LVU1689
 6784 0184 4246     		mov	r2, r8
 6785 0186 4649     		ldr	r1, .L453+40
 6786 0188 4148     		ldr	r0, .L453+24
 6787 018a FFF7FEFF 		bl	_ZN14DisplayHandler16DrawIntParameterEPKci
 6788              	.LVL504:
 145:main.cpp      ****                     case MenuManager::PRESETS_HUB:
 6789              		.loc 12 145 25 is_stmt 1 view .LVU1690
 6790 018e D3E7     		b	.L420
 6791              	.L423:
 139:main.cpp      ****                         disp_handle.DrawIntParameter("SCALE", ui_data.scale);
 6792              		.loc 12 139 21 view .LVU1691
 140:main.cpp      ****                         break;
 6793              		.loc 12 140 25 view .LVU1692
 140:main.cpp      ****                         break;
 6794              		.loc 12 140 53 is_stmt 0 view .LVU1693
 6795 0190 4A46     		mov	r2, r9
 6796 0192 4449     		ldr	r1, .L453+44
 6797 0194 3E48     		ldr	r0, .L453+24
 6798 0196 FFF7FEFF 		bl	_ZN14DisplayHandler16DrawIntParameterEPKci
 6799              	.LVL505:
 141:main.cpp      **** 
 6800              		.loc 12 141 25 is_stmt 1 view .LVU1694
 6801 019a CDE7     		b	.L420
 6802              	.L424:
 135:main.cpp      ****                         disp_handle.DrawIntParameter("ROOT", ui_data.root);
 6803              		.loc 12 135 21 view .LVU1695
 136:main.cpp      ****                         break;
 6804              		.loc 12 136 25 view .LVU1696
 136:main.cpp      ****                         break;
 6805              		.loc 12 136 53 is_stmt 0 view .LVU1697
 6806 019c 5246     		mov	r2, r10
 6807 019e 4249     		ldr	r1, .L453+48
 6808 01a0 3B48     		ldr	r0, .L453+24
 6809 01a2 FFF7FEFF 		bl	_ZN14DisplayHandler16DrawIntParameterEPKci
 6810              	.LVL506:
 137:main.cpp      **** 
 6811              		.loc 12 137 25 is_stmt 1 view .LVU1698
 6812 01a6 C7E7     		b	.L420
 6813              	.L425:
 127:main.cpp      ****                         disp_handle.DrawFloatParameter("DELTA", ui_data.delta);
 6814              		.loc 12 127 21 view .LVU1699
 128:main.cpp      ****                         break;
 6815              		.loc 12 128 25 view .LVU1700
 128:main.cpp      ****                         break;
 6816              		.loc 12 128 55 is_stmt 0 view .LVU1701
 6817 01a8 B0EE680A 		vmov.f32	s0, s17
 6818 01ac 3F49     		ldr	r1, .L453+52
 6819 01ae 3848     		ldr	r0, .L453+24
 6820 01b0 FFF7FEFF 		bl	_ZN14DisplayHandler18DrawFloatParameterEPKcf
 6821              	.LVL507:
 129:main.cpp      ****                     
 6822              		.loc 12 129 25 is_stmt 1 view .LVU1702
 6823 01b4 C0E7     		b	.L420
 6824              	.L426:
 131:main.cpp      ****                         disp_handle.DrawFloatParameter("CURVE", ui_data.curve);
 6825              		.loc 12 131 21 view .LVU1703
ARM GAS  C:\Users\matte\AppData\Local\Temp\ccj2OJiD.s 			page 191


 132:main.cpp      ****                         break;
 6826              		.loc 12 132 25 view .LVU1704
 132:main.cpp      ****                         break;
 6827              		.loc 12 132 55 is_stmt 0 view .LVU1705
 6828 01b6 B0EE480A 		vmov.f32	s0, s16
 6829 01ba 3D49     		ldr	r1, .L453+56
 6830 01bc 3448     		ldr	r0, .L453+24
 6831 01be FFF7FEFF 		bl	_ZN14DisplayHandler18DrawFloatParameterEPKcf
 6832              	.LVL508:
 133:main.cpp      **** 
 6833              		.loc 12 133 25 is_stmt 1 view .LVU1706
 6834 01c2 B9E7     		b	.L420
 6835              	.L427:
 146:main.cpp      ****                     disp_handle.DrawIntParameter("PRESET", ui_data.preset);
 6836              		.loc 12 146 21 view .LVU1707
 147:main.cpp      ****                         break;
 6837              		.loc 12 147 21 view .LVU1708
 147:main.cpp      ****                         break;
 6838              		.loc 12 147 49 is_stmt 0 view .LVU1709
 6839 01c4 3A46     		mov	r2, r7
 6840 01c6 3B49     		ldr	r1, .L453+60
 6841 01c8 3148     		ldr	r0, .L453+24
 6842 01ca FFF7FEFF 		bl	_ZN14DisplayHandler16DrawIntParameterEPKci
 6843              	.LVL509:
 148:main.cpp      **** 
 6844              		.loc 12 148 25 is_stmt 1 view .LVU1710
 6845 01ce B3E7     		b	.L420
 6846              	.L428:
 119:main.cpp      ****                         if (ui_data.cursor_state == MenuManager::ROOT) cursor_idx = 0;
 6847              		.loc 12 119 21 view .LVU1711
 120:main.cpp      ****                         else if (ui_data.cursor_state == MenuManager::SCALE) cursor_idx = 1;
 6848              		.loc 12 120 25 view .LVU1712
 6849 01d0 059B     		ldr	r3, [sp, #20]
 6850 01d2 072B     		cmp	r3, #7
 6851 01d4 40D0     		beq	.L443
 121:main.cpp      ****                         else if (ui_data.cursor_state == MenuManager::OCTAVE) cursor_idx = 2;
 6852              		.loc 12 121 30 view .LVU1713
 6853 01d6 082B     		cmp	r3, #8
 6854 01d8 46D0     		beq	.L444
 122:main.cpp      ****                         else if (ui_data.cursor_state == MenuManager::BACK) cursor_idx = 3;
 6855              		.loc 12 122 30 view .LVU1714
 6856 01da 092B     		cmp	r3, #9
 6857 01dc 48D0     		beq	.L445
 123:main.cpp      ****                         disp_handle.DrawScalesHub(cursor_idx);
 6858              		.loc 12 123 30 view .LVU1715
 123:main.cpp      ****                         disp_handle.DrawScalesHub(cursor_idx);
 6859              		.loc 12 123 88 is_stmt 0 view .LVU1716
 6860 01de 0A2B     		cmp	r3, #10
 6861 01e0 14BF     		ite	ne
 6862 01e2 0021     		movne	r1, #0
 6863 01e4 0321     		moveq	r1, #3
 6864              	.L433:
 6865              	.LVL510:
 124:main.cpp      ****                         break;
 6866              		.loc 12 124 25 is_stmt 1 view .LVU1717
 124:main.cpp      ****                         break;
 6867              		.loc 12 124 50 is_stmt 0 view .LVU1718
ARM GAS  C:\Users\matte\AppData\Local\Temp\ccj2OJiD.s 			page 192


 6868 01e6 2A48     		ldr	r0, .L453+24
 6869 01e8 FFF7FEFF 		bl	_ZN14DisplayHandler13DrawScalesHubEi
 6870              	.LVL511:
 125:main.cpp      **** 
 6871              		.loc 12 125 25 is_stmt 1 view .LVU1719
 6872 01ec A4E7     		b	.L420
 6873              	.LVL512:
 6874              	.L429:
 112:main.cpp      ****                         if (ui_data.cursor_state == MenuManager::DELTA) cursor_idx = 0;
 6875              		.loc 12 112 21 view .LVU1720
 113:main.cpp      ****                         else if (ui_data.cursor_state == MenuManager::CURVE) cursor_idx = 1;
 6876              		.loc 12 113 25 view .LVU1721
 6877 01ee 059B     		ldr	r3, [sp, #20]
 6878 01f0 062B     		cmp	r3, #6
 6879 01f2 33D0     		beq	.L440
 114:main.cpp      ****                         else if (ui_data.cursor_state == MenuManager::BACK) cursor_idx = 2;
 6880              		.loc 12 114 30 view .LVU1722
 6881 01f4 052B     		cmp	r3, #5
 6882 01f6 39D0     		beq	.L441
 115:main.cpp      ****                         disp_handle.DrawCalibrationHub(cursor_idx);
 6883              		.loc 12 115 30 view .LVU1723
 115:main.cpp      ****                         disp_handle.DrawCalibrationHub(cursor_idx);
 6884              		.loc 12 115 88 is_stmt 0 view .LVU1724
 6885 01f8 0A2B     		cmp	r3, #10
 6886 01fa 14BF     		ite	ne
 6887 01fc 0021     		movne	r1, #0
 6888 01fe 0221     		moveq	r1, #2
 6889              	.L432:
 6890              	.LVL513:
 116:main.cpp      ****                         break;
 6891              		.loc 12 116 25 is_stmt 1 view .LVU1725
 116:main.cpp      ****                         break;
 6892              		.loc 12 116 55 is_stmt 0 view .LVU1726
 6893 0200 2348     		ldr	r0, .L453+24
 6894 0202 FFF7FEFF 		bl	_ZN14DisplayHandler18DrawCalibrationHubEi
 6895              	.LVL514:
 117:main.cpp      **** 
 6896              		.loc 12 117 25 is_stmt 1 view .LVU1727
 6897 0206 97E7     		b	.L420
 6898              	.LVL515:
 6899              	.L430:
 104:main.cpp      ****                         if (ui_data.cursor_state == MenuManager::CALIBRATION_HUB) cursor_idx = 0;
 6900              		.loc 12 104 21 view .LVU1728
 105:main.cpp      ****                         else if (ui_data.cursor_state == MenuManager::SCALES_HUB) cursor_idx = 1;
 6901              		.loc 12 105 25 view .LVU1729
 6902 0208 059B     		ldr	r3, [sp, #20]
 6903 020a 022B     		cmp	r3, #2
 6904 020c 28D0     		beq	.L436
 106:main.cpp      ****                         else if (ui_data.cursor_state == MenuManager::PRESETS_HUB) cursor_idx = 2;
 6905              		.loc 12 106 30 view .LVU1730
 6906 020e 032B     		cmp	r3, #3
 6907 0210 28D0     		beq	.L437
 107:main.cpp      ****                         else if (ui_data.cursor_state == MenuManager::BACK) cursor_idx = 3;
 6908              		.loc 12 107 30 view .LVU1731
 6909 0212 042B     		cmp	r3, #4
 6910 0214 2ED0     		beq	.L438
 108:main.cpp      ****                         disp_handle.DrawMainMenu(cursor_idx);
ARM GAS  C:\Users\matte\AppData\Local\Temp\ccj2OJiD.s 			page 193


 6911              		.loc 12 108 30 view .LVU1732
 108:main.cpp      ****                         disp_handle.DrawMainMenu(cursor_idx);
 6912              		.loc 12 108 88 is_stmt 0 view .LVU1733
 6913 0216 0A2B     		cmp	r3, #10
 6914 0218 14BF     		ite	ne
 6915 021a 0021     		movne	r1, #0
 6916 021c 0321     		moveq	r1, #3
 6917              	.L431:
 6918              	.LVL516:
 109:main.cpp      ****                         break;
 6919              		.loc 12 109 25 is_stmt 1 view .LVU1734
 109:main.cpp      ****                         break;
 6920              		.loc 12 109 49 is_stmt 0 view .LVU1735
 6921 021e 1C48     		ldr	r0, .L453+24
 6922 0220 FFF7FEFF 		bl	_ZN14DisplayHandler12DrawMainMenuEi
 6923              	.LVL517:
 110:main.cpp      **** 
 6924              		.loc 12 110 25 is_stmt 1 view .LVU1736
 6925 0224 88E7     		b	.L420
 6926              	.LVL518:
 6927              	.L413:
 110:main.cpp      **** 
 6928              		.loc 12 110 25 is_stmt 0 view .LVU1737
 6929              	.LBE1741:
 6930              	.LBE1743:
 6931              	.LBE1745:
 6932              	.LBE1750:
 6933              	.LBB1751:
 6934              	.LBB1729:
  68:main.cpp      **** 
 6935              		.loc 12 68 13 is_stmt 1 view .LVU1738
 6936              	.LBB1724:
 6937              		.loc 1 36 17 view .LVU1739
 6938              	.LBE1724:
 6939              	.LBE1729:
 6940              	.LBE1751:
 6941              	.LBE1755:
 6942              		.loc 1 36 38 view .LVU1740
 6943              	.LBB1756:
 6944              	.LBB1752:
 6945              	.LBB1730:
 6946              	.LBB1725:
 6947              	.LBB1719:
 6948              		.loc 2 65 17 view .LVU1741
 6949              	.LBB1716:
 6950              		.loc 2 65 38 view .LVU1742
 6951              		.loc 2 65 54 is_stmt 0 view .LVU1743
 6952 0226 174A     		ldr	r2, .L453+12
 6953 0228 127B     		ldrb	r2, [r2, #12]	@ zero_extendqisi2
 6954 022a 002A     		cmp	r2, #0
 6955 022c 99D0     		beq	.L416
 6956              	.LBE1716:
 6957              	.LBE1719:
 6958              	.LBE1725:
 6959              	.LBB1726:
 6960              	.LBB1711:
  33:../libs/PoliTeKDSP/libs/libDaisy/src/hid/encoder.h **** 
ARM GAS  C:\Users\matte\AppData\Local\Temp\ccj2OJiD.s 			page 194


 6961              		.loc 1 33 56 view .LVU1744
 6962 022e 1A46     		mov	r2, r3
 6963              	.LVL519:
 6964              	.L435:
  33:../libs/PoliTeKDSP/libs/libDaisy/src/hid/encoder.h **** 
 6965              		.loc 1 33 56 view .LVU1745
 6966              	.LBE1711:
 6967              	.LBE1726:
 6968              	.LBB1727:
 6969              	.LBB1720:
 6970              	.LBB1717:
 6971              		.loc 2 65 54 view .LVU1746
 6972 0230 1449     		ldr	r1, .L453+12
 6973 0232 91F82410 		ldrb	r1, [r1, #36]	@ zero_extendqisi2
 6974 0236 A1F17F01 		sub	r1, #127
 6975 023a B1FA81F1 		clz	r1, r1
 6976 023e 4909     		lsrs	r1, r1, #5
 6977              	.LVL520:
 6978              		.loc 2 65 54 view .LVU1747
 6979              	.LBE1717:
 6980              	.LBE1720:
 6981              	.LBE1727:
  70:main.cpp      ****                 menu.StateTransition(clicked, inc, false);
 6982              		.loc 12 70 13 is_stmt 1 view .LVU1748
 6983 0240 09B9     		cbnz	r1, .L415
 6984 0242 002B     		cmp	r3, #0
 6985 0244 8DD0     		beq	.L416
 6986              	.LVL521:
 6987              	.L415:
  71:main.cpp      ****             }
 6988              		.loc 12 71 17 view .LVU1749
  71:main.cpp      ****             }
 6989              		.loc 12 71 37 is_stmt 0 view .LVU1750
 6990 0246 0023     		movs	r3, #0
 6991 0248 0C48     		ldr	r0, .L453+4
 6992 024a FFF7FEFF 		bl	_ZN11MenuManager15StateTransitionEbib
 6993              	.LVL522:
 6994 024e 88E7     		b	.L416
 6995              	.LVL523:
 6996              	.L414:
  70:main.cpp      ****                 menu.StateTransition(clicked, inc, false);
 6997              		.loc 12 70 20 view .LVU1751
 6998 0250 131E     		subs	r3, r2, #0
 6999 0252 18BF     		it	ne
 7000 0254 0123     		movne	r3, #1
 7001 0256 EBE7     		b	.L435
 7002              	.LVL524:
 7003              	.L443:
  70:main.cpp      ****                 menu.StateTransition(clicked, inc, false);
 7004              		.loc 12 70 20 view .LVU1752
 7005              	.LBE1730:
 7006              	.LBE1752:
 7007              	.LBB1753:
 7008              	.LBB1746:
 7009              	.LBB1744:
 7010              	.LBB1742:
 101:main.cpp      ****                 
ARM GAS  C:\Users\matte\AppData\Local\Temp\ccj2OJiD.s 			page 195


 7011              		.loc 12 101 21 view .LVU1753
 7012 0258 0021     		movs	r1, #0
 7013 025a C4E7     		b	.L433
 7014              	.L440:
 7015 025c 0021     		movs	r1, #0
 7016 025e CFE7     		b	.L432
 7017              	.L436:
 7018 0260 0021     		movs	r1, #0
 7019 0262 DCE7     		b	.L431
 7020              	.L437:
 106:main.cpp      ****                         else if (ui_data.cursor_state == MenuManager::PRESETS_HUB) cursor_idx = 2;
 7021              		.loc 12 106 94 view .LVU1754
 7022 0264 0121     		movs	r1, #1
 7023 0266 DAE7     		b	.L431
 7024              	.L444:
 121:main.cpp      ****                         else if (ui_data.cursor_state == MenuManager::OCTAVE) cursor_idx = 2;
 7025              		.loc 12 121 89 view .LVU1755
 7026 0268 0121     		movs	r1, #1
 7027 026a BCE7     		b	.L433
 7028              	.L441:
 114:main.cpp      ****                         else if (ui_data.cursor_state == MenuManager::BACK) cursor_idx = 2;
 7029              		.loc 12 114 89 view .LVU1756
 7030 026c 0121     		movs	r1, #1
 7031 026e C7E7     		b	.L432
 7032              	.L445:
 122:main.cpp      ****                         else if (ui_data.cursor_state == MenuManager::BACK) cursor_idx = 3;
 7033              		.loc 12 122 90 view .LVU1757
 7034 0270 0221     		movs	r1, #2
 7035 0272 B8E7     		b	.L433
 7036              	.L438:
 107:main.cpp      ****                         else if (ui_data.cursor_state == MenuManager::BACK) cursor_idx = 3;
 7037              		.loc 12 107 95 view .LVU1758
 7038 0274 0221     		movs	r1, #2
 7039 0276 D2E7     		b	.L431
 7040              	.L454:
 7041              		.align	2
 7042              	.L453:
 7043 0278 00000000 		.word	.LANCHOR2
 7044 027c 00000000 		.word	.LANCHOR4
 7045 0280 00000000 		.word	0
 7046 0284 00000000 		.word	.LANCHOR3
 7047 0288 01080109 		.word	151062529
 7048 028c 08000000 		.word	.LANCHOR5+8
 7049 0290 00000000 		.word	.LANCHOR1
 7050 0294 00000000 		.word	.LANCHOR6
 7051 0298 00000000 		.word	synth
 7052 029c 00000000 		.word	_Z13AudioCallbackPKPKfPPfj
 7053 02a0 20000000 		.word	.LC4
 7054 02a4 18000000 		.word	.LC3
 7055 02a8 10000000 		.word	.LC2
 7056 02ac 00000000 		.word	.LC0
 7057 02b0 08000000 		.word	.LC1
 7058 02b4 28000000 		.word	.LC5
 7059 02b8 00000000 		.word	.LANCHOR0
 7060              	.LBE1742:
 7061              	.LBE1744:
 7062              	.LBE1746:
ARM GAS  C:\Users\matte\AppData\Local\Temp\ccj2OJiD.s 			page 196


 7063              	.LBE1753:
 7064              	.LBE1756:
 7065              		.cfi_endproc
 7066              	.LFE5026:
 7068              		.section	.text.startup._GLOBAL__sub_I_hw,"ax",%progbits
 7069              		.align	1
 7070              		.p2align 2,,3
 7071              		.syntax unified
 7072              		.thumb
 7073              		.thumb_func
 7074              		.fpu fpv5-d16
 7076              	_GLOBAL__sub_I_hw:
 7077              	.LFB5635:
 162:main.cpp      **** }...
 7078              		.loc 12 162 1 is_stmt 1 view -0
 7079              		.cfi_startproc
 7080              		@ args = 0, pretend = 0, frame = 0
 7081              		@ frame_needed = 0, uses_anonymous_args = 0
 7082              	.LBB1862:
 7083              	.LBI1862:
 7084              		.loc 12 162 1 view .LVU1760
 7085              	.LVL525:
 7086              	.LBB1863:
 7087              	.LBB1864:
 7088              	.LBI1864:
  21:../libs/PoliTeKDSP/libs/libDaisy/src/daisy_seed.h ****     ~DaisySeed() {}
 7089              		.loc 3 21 5 view .LVU1761
 7090              	.LBB1865:
 7091              	.LBB1866:
 7092              	.LBI1866:
 7093              		.file 18 "../libs/PoliTeKDSP/libs/libDaisy/src/per/qspi.h"
   1:../libs/PoliTeKDSP/libs/libDaisy/src/per/qspi.h **** #ifndef DSY_QSPI
   2:../libs/PoliTeKDSP/libs/libDaisy/src/per/qspi.h **** #define DSY_QSPI /**< Macro */
   3:../libs/PoliTeKDSP/libs/libDaisy/src/per/qspi.h **** 
   4:../libs/PoliTeKDSP/libs/libDaisy/src/per/qspi.h **** #ifndef UNIT_TEST // for unit tests, a dummy implementation
   5:../libs/PoliTeKDSP/libs/libDaisy/src/per/qspi.h **** 
   6:../libs/PoliTeKDSP/libs/libDaisy/src/per/qspi.h **** #include <cstdint>
   7:../libs/PoliTeKDSP/libs/libDaisy/src/per/qspi.h **** #include "daisy_core.h"
   8:../libs/PoliTeKDSP/libs/libDaisy/src/per/qspi.h **** #include "util/hal_map.h"
   9:../libs/PoliTeKDSP/libs/libDaisy/src/per/qspi.h **** 
  10:../libs/PoliTeKDSP/libs/libDaisy/src/per/qspi.h **** #define DSY_QSPI_TEXT       \
  11:../libs/PoliTeKDSP/libs/libDaisy/src/per/qspi.h ****     __attribute__((section( \
  12:../libs/PoliTeKDSP/libs/libDaisy/src/per/qspi.h ****         ".qspiflash_text"))) /**< used for reading memory in memory_mapped mode. */
  13:../libs/PoliTeKDSP/libs/libDaisy/src/per/qspi.h **** #define DSY_QSPI_DATA       \
  14:../libs/PoliTeKDSP/libs/libDaisy/src/per/qspi.h ****     __attribute__((section( \
  15:../libs/PoliTeKDSP/libs/libDaisy/src/per/qspi.h ****         ".qspiflash_data"))) /**< used for reading memory in memory_mapped mode. */
  16:../libs/PoliTeKDSP/libs/libDaisy/src/per/qspi.h **** #define DSY_QSPI_BSS        \
  17:../libs/PoliTeKDSP/libs/libDaisy/src/per/qspi.h ****     __attribute__((section( \
  18:../libs/PoliTeKDSP/libs/libDaisy/src/per/qspi.h ****         ".qspiflash_bss"))) /**< used for reading memory in memory_mapped mode. */
  19:../libs/PoliTeKDSP/libs/libDaisy/src/per/qspi.h **** 
  20:../libs/PoliTeKDSP/libs/libDaisy/src/per/qspi.h **** namespace daisy
  21:../libs/PoliTeKDSP/libs/libDaisy/src/per/qspi.h **** {
  22:../libs/PoliTeKDSP/libs/libDaisy/src/per/qspi.h **** /** @addtogroup serial
  23:../libs/PoliTeKDSP/libs/libDaisy/src/per/qspi.h **** @{
  24:../libs/PoliTeKDSP/libs/libDaisy/src/per/qspi.h **** */
  25:../libs/PoliTeKDSP/libs/libDaisy/src/per/qspi.h **** 
  26:../libs/PoliTeKDSP/libs/libDaisy/src/per/qspi.h **** /** 
ARM GAS  C:\Users\matte\AppData\Local\Temp\ccj2OJiD.s 			page 197


  27:../libs/PoliTeKDSP/libs/libDaisy/src/per/qspi.h ****  Driver for QSPI peripheral to interface with external flash memory. \n 
  28:../libs/PoliTeKDSP/libs/libDaisy/src/per/qspi.h ****     Currently supported QSPI Devices: \n 
  29:../libs/PoliTeKDSP/libs/libDaisy/src/per/qspi.h ****     * IS25LP080D
  30:../libs/PoliTeKDSP/libs/libDaisy/src/per/qspi.h **** */
  31:../libs/PoliTeKDSP/libs/libDaisy/src/per/qspi.h **** class QSPIHandle
  32:../libs/PoliTeKDSP/libs/libDaisy/src/per/qspi.h **** {
  33:../libs/PoliTeKDSP/libs/libDaisy/src/per/qspi.h ****   public:
  34:../libs/PoliTeKDSP/libs/libDaisy/src/per/qspi.h ****     enum Result
  35:../libs/PoliTeKDSP/libs/libDaisy/src/per/qspi.h ****     {
  36:../libs/PoliTeKDSP/libs/libDaisy/src/per/qspi.h ****         OK = 0,
  37:../libs/PoliTeKDSP/libs/libDaisy/src/per/qspi.h ****         ERR
  38:../libs/PoliTeKDSP/libs/libDaisy/src/per/qspi.h ****     };
  39:../libs/PoliTeKDSP/libs/libDaisy/src/per/qspi.h **** 
  40:../libs/PoliTeKDSP/libs/libDaisy/src/per/qspi.h ****     /** Indicates the current status of the module. 
  41:../libs/PoliTeKDSP/libs/libDaisy/src/per/qspi.h ****          *  Warnings are indicated by a leading W.
  42:../libs/PoliTeKDSP/libs/libDaisy/src/per/qspi.h ****          *  Errors are indicated by a leading E and cause an immediate exit.
  43:../libs/PoliTeKDSP/libs/libDaisy/src/per/qspi.h ****          * 
  44:../libs/PoliTeKDSP/libs/libDaisy/src/per/qspi.h ****          *  \param GOOD - No errors have been reported.
  45:../libs/PoliTeKDSP/libs/libDaisy/src/per/qspi.h ****          *  \param E_HAL_ERROR - HAL code did not return HAL_OK.
  46:../libs/PoliTeKDSP/libs/libDaisy/src/per/qspi.h ****          *  \param E_SWITCHING_MODES - An error was encountered while switching QSPI peripheral mod
  47:../libs/PoliTeKDSP/libs/libDaisy/src/per/qspi.h ****          *  \param E_INVALID_MODE - QSPI should not be written to while the program is executing fr
  48:../libs/PoliTeKDSP/libs/libDaisy/src/per/qspi.h ****          */
  49:../libs/PoliTeKDSP/libs/libDaisy/src/per/qspi.h ****     enum Status
  50:../libs/PoliTeKDSP/libs/libDaisy/src/per/qspi.h ****     {
  51:../libs/PoliTeKDSP/libs/libDaisy/src/per/qspi.h ****         GOOD = 0,
  52:../libs/PoliTeKDSP/libs/libDaisy/src/per/qspi.h ****         E_HAL_ERROR,
  53:../libs/PoliTeKDSP/libs/libDaisy/src/per/qspi.h ****         E_SWITCHING_MODES,
  54:../libs/PoliTeKDSP/libs/libDaisy/src/per/qspi.h ****         E_INVALID_MODE,
  55:../libs/PoliTeKDSP/libs/libDaisy/src/per/qspi.h ****     };
  56:../libs/PoliTeKDSP/libs/libDaisy/src/per/qspi.h **** 
  57:../libs/PoliTeKDSP/libs/libDaisy/src/per/qspi.h ****     /** Configuration structure for interfacing with QSPI Driver */
  58:../libs/PoliTeKDSP/libs/libDaisy/src/per/qspi.h ****     struct Config
  59:../libs/PoliTeKDSP/libs/libDaisy/src/per/qspi.h ****     {
  60:../libs/PoliTeKDSP/libs/libDaisy/src/per/qspi.h ****         /** Flash Devices supported. (Both of these are more-or-less the same, just different sizes
  61:../libs/PoliTeKDSP/libs/libDaisy/src/per/qspi.h ****         enum Device
  62:../libs/PoliTeKDSP/libs/libDaisy/src/per/qspi.h ****         {
  63:../libs/PoliTeKDSP/libs/libDaisy/src/per/qspi.h ****             IS25LP080D,  /**< & */
  64:../libs/PoliTeKDSP/libs/libDaisy/src/per/qspi.h ****             IS25LP064A,  /**< & */
  65:../libs/PoliTeKDSP/libs/libDaisy/src/per/qspi.h ****             DEVICE_LAST, /**< & */
  66:../libs/PoliTeKDSP/libs/libDaisy/src/per/qspi.h ****         };
  67:../libs/PoliTeKDSP/libs/libDaisy/src/per/qspi.h **** 
  68:../libs/PoliTeKDSP/libs/libDaisy/src/per/qspi.h ****         /** 
  69:../libs/PoliTeKDSP/libs/libDaisy/src/per/qspi.h ****         Modes of operation.
  70:../libs/PoliTeKDSP/libs/libDaisy/src/per/qspi.h ****         Memory Mapped mode: QSPI configured so that the QSPI can be
  71:../libs/PoliTeKDSP/libs/libDaisy/src/per/qspi.h ****         read from starting address 0x90000000. Writing is not
  72:../libs/PoliTeKDSP/libs/libDaisy/src/per/qspi.h ****         possible in this mode. \n 
  73:../libs/PoliTeKDSP/libs/libDaisy/src/per/qspi.h ****         Indirect Polling mode: Device driver enabled. 
  74:../libs/PoliTeKDSP/libs/libDaisy/src/per/qspi.h ****         */
  75:../libs/PoliTeKDSP/libs/libDaisy/src/per/qspi.h ****         enum Mode
  76:../libs/PoliTeKDSP/libs/libDaisy/src/per/qspi.h ****         {
  77:../libs/PoliTeKDSP/libs/libDaisy/src/per/qspi.h ****             MEMORY_MAPPED,    /**< & */
  78:../libs/PoliTeKDSP/libs/libDaisy/src/per/qspi.h ****             INDIRECT_POLLING, /**< & */
  79:../libs/PoliTeKDSP/libs/libDaisy/src/per/qspi.h ****             MODE_LAST,
  80:../libs/PoliTeKDSP/libs/libDaisy/src/per/qspi.h ****         };
  81:../libs/PoliTeKDSP/libs/libDaisy/src/per/qspi.h **** 
  82:../libs/PoliTeKDSP/libs/libDaisy/src/per/qspi.h ****         //SCK,  CE# (active low)
  83:../libs/PoliTeKDSP/libs/libDaisy/src/per/qspi.h ****         struct
ARM GAS  C:\Users\matte\AppData\Local\Temp\ccj2OJiD.s 			page 198


  84:../libs/PoliTeKDSP/libs/libDaisy/src/per/qspi.h ****         {
  85:../libs/PoliTeKDSP/libs/libDaisy/src/per/qspi.h ****             Pin io0; /**< & */
  86:../libs/PoliTeKDSP/libs/libDaisy/src/per/qspi.h ****             Pin io1; /**< & */
  87:../libs/PoliTeKDSP/libs/libDaisy/src/per/qspi.h ****             Pin io2; /**< & */
  88:../libs/PoliTeKDSP/libs/libDaisy/src/per/qspi.h ****             Pin io3; /**< & */
  89:../libs/PoliTeKDSP/libs/libDaisy/src/per/qspi.h ****             Pin clk; /**< & */
  90:../libs/PoliTeKDSP/libs/libDaisy/src/per/qspi.h ****             Pin ncs; /**< & */
  91:../libs/PoliTeKDSP/libs/libDaisy/src/per/qspi.h ****         } pin_config;
  92:../libs/PoliTeKDSP/libs/libDaisy/src/per/qspi.h **** 
  93:../libs/PoliTeKDSP/libs/libDaisy/src/per/qspi.h ****         Device device;
  94:../libs/PoliTeKDSP/libs/libDaisy/src/per/qspi.h ****         Mode   mode;
  95:../libs/PoliTeKDSP/libs/libDaisy/src/per/qspi.h ****     };
  96:../libs/PoliTeKDSP/libs/libDaisy/src/per/qspi.h **** 
  97:../libs/PoliTeKDSP/libs/libDaisy/src/per/qspi.h ****     /** 
  98:../libs/PoliTeKDSP/libs/libDaisy/src/per/qspi.h ****         Initializes QSPI peripheral, and Resets, and prepares memory for access.
  99:../libs/PoliTeKDSP/libs/libDaisy/src/per/qspi.h ****         \param config should be populated with the mode, device and pin_config before calling this 
 100:../libs/PoliTeKDSP/libs/libDaisy/src/per/qspi.h ****         \return Result::OK or Result::ERR
 101:../libs/PoliTeKDSP/libs/libDaisy/src/per/qspi.h ****         */
 102:../libs/PoliTeKDSP/libs/libDaisy/src/per/qspi.h ****     Result Init(const Config& config);
 103:../libs/PoliTeKDSP/libs/libDaisy/src/per/qspi.h **** 
 104:../libs/PoliTeKDSP/libs/libDaisy/src/per/qspi.h ****     /** Returns the current config. */
 105:../libs/PoliTeKDSP/libs/libDaisy/src/per/qspi.h ****     const Config& GetConfig() const;
 106:../libs/PoliTeKDSP/libs/libDaisy/src/per/qspi.h **** 
 107:../libs/PoliTeKDSP/libs/libDaisy/src/per/qspi.h ****     // Couldn't this just be called before anything else in init? That
 108:../libs/PoliTeKDSP/libs/libDaisy/src/per/qspi.h ****     // would make manually calling it unnecessary.
 109:../libs/PoliTeKDSP/libs/libDaisy/src/per/qspi.h ****     /** 
 110:../libs/PoliTeKDSP/libs/libDaisy/src/per/qspi.h ****         Deinitializes the peripheral
 111:../libs/PoliTeKDSP/libs/libDaisy/src/per/qspi.h ****         This should be called before reinitializing QSPI in a different mode.
 112:../libs/PoliTeKDSP/libs/libDaisy/src/per/qspi.h ****         \return Result::OK or Result::ERR
 113:../libs/PoliTeKDSP/libs/libDaisy/src/per/qspi.h ****         */
 114:../libs/PoliTeKDSP/libs/libDaisy/src/per/qspi.h ****     Result DeInit();
 115:../libs/PoliTeKDSP/libs/libDaisy/src/per/qspi.h **** 
 116:../libs/PoliTeKDSP/libs/libDaisy/src/per/qspi.h ****     /** 
 117:../libs/PoliTeKDSP/libs/libDaisy/src/per/qspi.h ****         Writes a single page to to the specified address on the QSPI chip.
 118:../libs/PoliTeKDSP/libs/libDaisy/src/per/qspi.h ****         For IS25LP*, page size is 256 bytes.
 119:../libs/PoliTeKDSP/libs/libDaisy/src/per/qspi.h ****         \param address Address to write to
 120:../libs/PoliTeKDSP/libs/libDaisy/src/per/qspi.h ****         \param size Buffer size
 121:../libs/PoliTeKDSP/libs/libDaisy/src/per/qspi.h ****         \param buffer Buffer to write
 122:../libs/PoliTeKDSP/libs/libDaisy/src/per/qspi.h ****         \return Result::OK or Result::ERR
 123:../libs/PoliTeKDSP/libs/libDaisy/src/per/qspi.h ****         */
 124:../libs/PoliTeKDSP/libs/libDaisy/src/per/qspi.h ****     Result WritePage(uint32_t address, uint32_t size, uint8_t* buffer);
 125:../libs/PoliTeKDSP/libs/libDaisy/src/per/qspi.h **** 
 126:../libs/PoliTeKDSP/libs/libDaisy/src/per/qspi.h ****     /** 
 127:../libs/PoliTeKDSP/libs/libDaisy/src/per/qspi.h ****         Writes data in buffer to to the QSPI. Starting at address to address+size 
 128:../libs/PoliTeKDSP/libs/libDaisy/src/per/qspi.h ****         \param address Address to write to
 129:../libs/PoliTeKDSP/libs/libDaisy/src/per/qspi.h ****         \param size Buffer size
 130:../libs/PoliTeKDSP/libs/libDaisy/src/per/qspi.h ****         \param buffer Buffer to write
 131:../libs/PoliTeKDSP/libs/libDaisy/src/per/qspi.h ****         \return Result::OK or Result::ERR
 132:../libs/PoliTeKDSP/libs/libDaisy/src/per/qspi.h ****         */
 133:../libs/PoliTeKDSP/libs/libDaisy/src/per/qspi.h ****     Result Write(uint32_t address, uint32_t size, uint8_t* buffer);
 134:../libs/PoliTeKDSP/libs/libDaisy/src/per/qspi.h **** 
 135:../libs/PoliTeKDSP/libs/libDaisy/src/per/qspi.h ****     /** 
 136:../libs/PoliTeKDSP/libs/libDaisy/src/per/qspi.h ****         Erases the area specified on the chip.
 137:../libs/PoliTeKDSP/libs/libDaisy/src/per/qspi.h ****         Erasures will happen by 4K, 32K or 64K increments.
 138:../libs/PoliTeKDSP/libs/libDaisy/src/per/qspi.h ****         Smallest erase possible is 4kB at a time. (on IS25LP*)
 139:../libs/PoliTeKDSP/libs/libDaisy/src/per/qspi.h ****         \param start_addr Address to begin erasing from
 140:../libs/PoliTeKDSP/libs/libDaisy/src/per/qspi.h ****         \param end_addr  Address to stop erasing at
ARM GAS  C:\Users\matte\AppData\Local\Temp\ccj2OJiD.s 			page 199


 141:../libs/PoliTeKDSP/libs/libDaisy/src/per/qspi.h ****         \return Result::OK or Result::ERR
 142:../libs/PoliTeKDSP/libs/libDaisy/src/per/qspi.h ****         */
 143:../libs/PoliTeKDSP/libs/libDaisy/src/per/qspi.h ****     Result Erase(uint32_t start_addr, uint32_t end_addr);
 144:../libs/PoliTeKDSP/libs/libDaisy/src/per/qspi.h **** 
 145:../libs/PoliTeKDSP/libs/libDaisy/src/per/qspi.h ****     /**  
 146:../libs/PoliTeKDSP/libs/libDaisy/src/per/qspi.h ****          Erases a single sector of the chip.  
 147:../libs/PoliTeKDSP/libs/libDaisy/src/per/qspi.h ****         TODO: Document the size of this function. 
 148:../libs/PoliTeKDSP/libs/libDaisy/src/per/qspi.h ****         \param address Address of sector to erase
 149:../libs/PoliTeKDSP/libs/libDaisy/src/per/qspi.h ****         \return Result::OK or Result::ERR
 150:../libs/PoliTeKDSP/libs/libDaisy/src/per/qspi.h ****         */
 151:../libs/PoliTeKDSP/libs/libDaisy/src/per/qspi.h ****     Result EraseSector(uint32_t address);
 152:../libs/PoliTeKDSP/libs/libDaisy/src/per/qspi.h **** 
 153:../libs/PoliTeKDSP/libs/libDaisy/src/per/qspi.h ****     /** Returns the current class status. Useful for debugging.
 154:../libs/PoliTeKDSP/libs/libDaisy/src/per/qspi.h ****      *  \returns Status
 155:../libs/PoliTeKDSP/libs/libDaisy/src/per/qspi.h ****      */
 156:../libs/PoliTeKDSP/libs/libDaisy/src/per/qspi.h ****     Status GetStatus();
 157:../libs/PoliTeKDSP/libs/libDaisy/src/per/qspi.h **** 
 158:../libs/PoliTeKDSP/libs/libDaisy/src/per/qspi.h ****     /** Returns a pointer to the actual memory used 
 159:../libs/PoliTeKDSP/libs/libDaisy/src/per/qspi.h ****      *  The memory at this address is read-only
 160:../libs/PoliTeKDSP/libs/libDaisy/src/per/qspi.h ****      *  to write to it use the Write function.
 161:../libs/PoliTeKDSP/libs/libDaisy/src/per/qspi.h ****      * 
 162:../libs/PoliTeKDSP/libs/libDaisy/src/per/qspi.h ****      *  \param offset returns the pointer starting this 
 163:../libs/PoliTeKDSP/libs/libDaisy/src/per/qspi.h ****      *                many bytes into the memory
 164:../libs/PoliTeKDSP/libs/libDaisy/src/per/qspi.h ****     */
 165:../libs/PoliTeKDSP/libs/libDaisy/src/per/qspi.h ****     void* GetData(uint32_t offset = 0);
 166:../libs/PoliTeKDSP/libs/libDaisy/src/per/qspi.h **** 
 167:../libs/PoliTeKDSP/libs/libDaisy/src/per/qspi.h ****     QSPIHandle() : pimpl_(nullptr) {}
 7094              		.loc 18 167 5 view .LVU1762
 7095              		.loc 18 167 5 is_stmt 0 view .LVU1763
 7096              	.LBE1866:
 7097              	.LBB1871:
 7098              	.LBI1871:
  58:../libs/PoliTeKDSP/libs/libDaisy/src/per/qspi.h ****     {
 7099              		.loc 18 58 12 is_stmt 1 view .LVU1764
 7100              	.LBB1872:
 7101              	.LBI1872:
  84:../libs/PoliTeKDSP/libs/libDaisy/src/per/qspi.h ****             Pin io0; /**< & */
 7102              		.loc 18 84 9 view .LVU1765
 7103              	.LBB1873:
 7104              	.LBI1873:
 7105              		.loc 16 204 15 view .LVU1766
 7106              		.loc 16 204 15 is_stmt 0 view .LVU1767
 7107              	.LBE1873:
 7108              	.LBB1874:
 7109              	.LBI1874:
 7110              		.loc 16 204 15 is_stmt 1 view .LVU1768
 7111              		.loc 16 204 15 is_stmt 0 view .LVU1769
 7112              	.LBE1874:
 7113              	.LBB1875:
 7114              	.LBI1875:
 7115              		.loc 16 204 15 is_stmt 1 view .LVU1770
 7116              		.loc 16 204 15 is_stmt 0 view .LVU1771
 7117              	.LBE1875:
 7118              	.LBB1876:
 7119              	.LBI1876:
 7120              		.loc 16 204 15 is_stmt 1 view .LVU1772
 7121              		.loc 16 204 15 is_stmt 0 view .LVU1773
ARM GAS  C:\Users\matte\AppData\Local\Temp\ccj2OJiD.s 			page 200


 7122              	.LBE1876:
 7123              	.LBB1877:
 7124              	.LBI1877:
 7125              		.loc 16 204 15 is_stmt 1 view .LVU1774
 7126              		.loc 16 204 15 is_stmt 0 view .LVU1775
 7127              	.LBE1877:
 7128              	.LBB1878:
 7129              	.LBI1878:
 7130              		.loc 16 204 15 is_stmt 1 view .LVU1776
 7131              		.loc 16 204 15 is_stmt 0 view .LVU1777
 7132              	.LBE1878:
 7133              	.LBE1872:
 7134              	.LBE1871:
 7135              	.LBB1879:
 7136              	.LBI1879:
  87:../libs/PoliTeKDSP/libs/libDaisy/src/hid/audio.h ****     ~AudioHandle() {}
 7137              		.loc 8 87 5 is_stmt 1 view .LVU1778
  87:../libs/PoliTeKDSP/libs/libDaisy/src/hid/audio.h ****     ~AudioHandle() {}
 7138              		.loc 8 87 5 is_stmt 0 view .LVU1779
 7139              	.LBE1879:
 7140              	.LBB1882:
 7141              	.LBI1882:
 109:../libs/PoliTeKDSP/libs/libDaisy/src/per/adc.h ****     ~AdcHandle() {}
 7142              		.loc 7 109 5 is_stmt 1 view .LVU1780
 109:../libs/PoliTeKDSP/libs/libDaisy/src/per/adc.h ****     ~AdcHandle() {}
 7143              		.loc 7 109 5 is_stmt 0 view .LVU1781
 7144              	.LBE1882:
 7145              	.LBB1883:
 7146              	.LBI1883:
 7147              		.file 19 "../libs/PoliTeKDSP/libs/libDaisy/src/per/dac.h"
   1:../libs/PoliTeKDSP/libs/libDaisy/src/per/dac.h **** #pragma once
   2:../libs/PoliTeKDSP/libs/libDaisy/src/per/dac.h **** #ifndef DSY_DAC_H
   3:../libs/PoliTeKDSP/libs/libDaisy/src/per/dac.h **** #define DSY_DAC_H
   4:../libs/PoliTeKDSP/libs/libDaisy/src/per/dac.h **** #include "stm32h7xx_hal.h"
   5:../libs/PoliTeKDSP/libs/libDaisy/src/per/dac.h **** #include "daisy_core.h"
   6:../libs/PoliTeKDSP/libs/libDaisy/src/per/dac.h **** 
   7:../libs/PoliTeKDSP/libs/libDaisy/src/per/dac.h **** namespace daisy
   8:../libs/PoliTeKDSP/libs/libDaisy/src/per/dac.h **** {
   9:../libs/PoliTeKDSP/libs/libDaisy/src/per/dac.h **** /** @brief DAC handle for Built-in DAC Peripheral 
  10:../libs/PoliTeKDSP/libs/libDaisy/src/per/dac.h ****  *  @ingroup per_analog
  11:../libs/PoliTeKDSP/libs/libDaisy/src/per/dac.h ****  ** 
  12:../libs/PoliTeKDSP/libs/libDaisy/src/per/dac.h ****  ** For now only Normal Mode is supported,
  13:../libs/PoliTeKDSP/libs/libDaisy/src/per/dac.h ****  ** Sample and hold mode provides reduced power consumption, but requires a bit more setup.
  14:../libs/PoliTeKDSP/libs/libDaisy/src/per/dac.h ****  **
  15:../libs/PoliTeKDSP/libs/libDaisy/src/per/dac.h ****  ** For now connecting the DAC through other internal peripherals is also not supported.
  16:../libs/PoliTeKDSP/libs/libDaisy/src/per/dac.h ****  **
  17:../libs/PoliTeKDSP/libs/libDaisy/src/per/dac.h ****  ** Since the DAC channels have dedicated pins we don't need to pass in a pin config like with
  18:../libs/PoliTeKDSP/libs/libDaisy/src/per/dac.h ****  ** other modules. However, it is still important to not try to use the DAC pins for anything else.
  19:../libs/PoliTeKDSP/libs/libDaisy/src/per/dac.h ****  ** DAC Channel 1 is on PA4, and DAC Channel 2 is on PA5
  20:../libs/PoliTeKDSP/libs/libDaisy/src/per/dac.h ****  ***/
  21:../libs/PoliTeKDSP/libs/libDaisy/src/per/dac.h **** class DacHandle
  22:../libs/PoliTeKDSP/libs/libDaisy/src/per/dac.h **** {
  23:../libs/PoliTeKDSP/libs/libDaisy/src/per/dac.h ****   public:
  24:../libs/PoliTeKDSP/libs/libDaisy/src/per/dac.h ****     /** Return Values for the DacHandle class */
  25:../libs/PoliTeKDSP/libs/libDaisy/src/per/dac.h ****     enum class Result
  26:../libs/PoliTeKDSP/libs/libDaisy/src/per/dac.h ****     {
  27:../libs/PoliTeKDSP/libs/libDaisy/src/per/dac.h ****         OK,
ARM GAS  C:\Users\matte\AppData\Local\Temp\ccj2OJiD.s 			page 201


  28:../libs/PoliTeKDSP/libs/libDaisy/src/per/dac.h ****         ERR,
  29:../libs/PoliTeKDSP/libs/libDaisy/src/per/dac.h ****     };
  30:../libs/PoliTeKDSP/libs/libDaisy/src/per/dac.h **** 
  31:../libs/PoliTeKDSP/libs/libDaisy/src/per/dac.h ****     /** Selects which channel(s) will be configured for use. */
  32:../libs/PoliTeKDSP/libs/libDaisy/src/per/dac.h ****     enum class Channel
  33:../libs/PoliTeKDSP/libs/libDaisy/src/per/dac.h ****     {
  34:../libs/PoliTeKDSP/libs/libDaisy/src/per/dac.h ****         ONE,
  35:../libs/PoliTeKDSP/libs/libDaisy/src/per/dac.h ****         TWO,
  36:../libs/PoliTeKDSP/libs/libDaisy/src/per/dac.h ****         BOTH,
  37:../libs/PoliTeKDSP/libs/libDaisy/src/per/dac.h ****     };
  38:../libs/PoliTeKDSP/libs/libDaisy/src/per/dac.h **** 
  39:../libs/PoliTeKDSP/libs/libDaisy/src/per/dac.h ****     /** Sets the Mode for the DAC channels.
  40:../libs/PoliTeKDSP/libs/libDaisy/src/per/dac.h ****      **
  41:../libs/PoliTeKDSP/libs/libDaisy/src/per/dac.h ****      ** Polling mode uses the blocking mode to transmit a single value at a time.
  42:../libs/PoliTeKDSP/libs/libDaisy/src/per/dac.h ****      **
  43:../libs/PoliTeKDSP/libs/libDaisy/src/per/dac.h ****      ** DMA mode uses a buffer, and periodically transmits it triggering a 
  44:../libs/PoliTeKDSP/libs/libDaisy/src/per/dac.h ****      ** callback to fill the buffer when it is ready for more samples.
  45:../libs/PoliTeKDSP/libs/libDaisy/src/per/dac.h ****      ***/
  46:../libs/PoliTeKDSP/libs/libDaisy/src/per/dac.h ****     enum class Mode
  47:../libs/PoliTeKDSP/libs/libDaisy/src/per/dac.h ****     {
  48:../libs/PoliTeKDSP/libs/libDaisy/src/per/dac.h ****         POLLING,
  49:../libs/PoliTeKDSP/libs/libDaisy/src/per/dac.h ****         DMA,
  50:../libs/PoliTeKDSP/libs/libDaisy/src/per/dac.h ****     };
  51:../libs/PoliTeKDSP/libs/libDaisy/src/per/dac.h **** 
  52:../libs/PoliTeKDSP/libs/libDaisy/src/per/dac.h ****     /** Sets the number of bits per sample transmitted out of the DAC.
  53:../libs/PoliTeKDSP/libs/libDaisy/src/per/dac.h ****      ** The output range will be: 0V - VDDA
  54:../libs/PoliTeKDSP/libs/libDaisy/src/per/dac.h ****      ** The resolution will be roughly: bitdepth / (VDDA - 0V) 
  55:../libs/PoliTeKDSP/libs/libDaisy/src/per/dac.h ****      ***/
  56:../libs/PoliTeKDSP/libs/libDaisy/src/per/dac.h ****     enum class BitDepth
  57:../libs/PoliTeKDSP/libs/libDaisy/src/per/dac.h ****     {
  58:../libs/PoliTeKDSP/libs/libDaisy/src/per/dac.h ****         BITS_8,
  59:../libs/PoliTeKDSP/libs/libDaisy/src/per/dac.h ****         BITS_12
  60:../libs/PoliTeKDSP/libs/libDaisy/src/per/dac.h ****     };
  61:../libs/PoliTeKDSP/libs/libDaisy/src/per/dac.h **** 
  62:../libs/PoliTeKDSP/libs/libDaisy/src/per/dac.h ****     /** Sets whether the DAC output is buffered for higher drive ability. */
  63:../libs/PoliTeKDSP/libs/libDaisy/src/per/dac.h ****     enum class BufferState
  64:../libs/PoliTeKDSP/libs/libDaisy/src/per/dac.h ****     {
  65:../libs/PoliTeKDSP/libs/libDaisy/src/per/dac.h ****         ENABLED,
  66:../libs/PoliTeKDSP/libs/libDaisy/src/per/dac.h ****         DISABLED,
  67:../libs/PoliTeKDSP/libs/libDaisy/src/per/dac.h ****     };
  68:../libs/PoliTeKDSP/libs/libDaisy/src/per/dac.h **** 
  69:../libs/PoliTeKDSP/libs/libDaisy/src/per/dac.h ****     /** Configuration structure for initializing the DAC structure. */
  70:../libs/PoliTeKDSP/libs/libDaisy/src/per/dac.h ****     struct Config
  71:../libs/PoliTeKDSP/libs/libDaisy/src/per/dac.h ****     {
  72:../libs/PoliTeKDSP/libs/libDaisy/src/per/dac.h ****         /** Target Samplerate in Hz used to configure the internal 
  73:../libs/PoliTeKDSP/libs/libDaisy/src/per/dac.h ****          ** timebase for DMA mode. Does nothing in POLLING mode.
  74:../libs/PoliTeKDSP/libs/libDaisy/src/per/dac.h ****          ** If the value is 0 at Init time this will default to 48000Hz 
  75:../libs/PoliTeKDSP/libs/libDaisy/src/per/dac.h ****          ** otherwise the driver will attempt meet the target.*/
  76:../libs/PoliTeKDSP/libs/libDaisy/src/per/dac.h ****         uint32_t target_samplerate;
  77:../libs/PoliTeKDSP/libs/libDaisy/src/per/dac.h **** 
  78:../libs/PoliTeKDSP/libs/libDaisy/src/per/dac.h ****         Channel     chn;
  79:../libs/PoliTeKDSP/libs/libDaisy/src/per/dac.h ****         Mode        mode;
  80:../libs/PoliTeKDSP/libs/libDaisy/src/per/dac.h ****         BitDepth    bitdepth;
  81:../libs/PoliTeKDSP/libs/libDaisy/src/per/dac.h ****         BufferState buff_state;
  82:../libs/PoliTeKDSP/libs/libDaisy/src/per/dac.h ****     };
  83:../libs/PoliTeKDSP/libs/libDaisy/src/per/dac.h **** 
  84:../libs/PoliTeKDSP/libs/libDaisy/src/per/dac.h ****     DacHandle() : pimpl_(nullptr) {}
ARM GAS  C:\Users\matte\AppData\Local\Temp\ccj2OJiD.s 			page 202


 7148              		.loc 19 84 5 is_stmt 1 view .LVU1782
 7149              		.loc 19 84 5 is_stmt 0 view .LVU1783
 7150              	.LBE1883:
 7151              	.LBB1886:
 7152              	.LBI1886:
  40:../libs/libDaisy/src/hid/usb.h **** 
 7153              		.loc 6 40 5 is_stmt 1 view .LVU1784
  40:../libs/libDaisy/src/hid/usb.h **** 
 7154              		.loc 6 40 5 is_stmt 0 view .LVU1785
 7155              	.LBE1886:
 7156              	.LBB1887:
 7157              	.LBI1887:
 7158              		.file 20 "../libs/PoliTeKDSP/libs/libDaisy/src/per/gpio.h"
   1:../libs/PoliTeKDSP/libs/libDaisy/src/per/gpio.h **** #pragma once
   2:../libs/PoliTeKDSP/libs/libDaisy/src/per/gpio.h **** #ifndef DSY_GPIO_H
   3:../libs/PoliTeKDSP/libs/libDaisy/src/per/gpio.h **** #define DSY_GPIO_H
   4:../libs/PoliTeKDSP/libs/libDaisy/src/per/gpio.h **** #include "daisy_core.h"
   5:../libs/PoliTeKDSP/libs/libDaisy/src/per/gpio.h **** 
   6:../libs/PoliTeKDSP/libs/libDaisy/src/per/gpio.h **** #ifdef __cplusplus
   7:../libs/PoliTeKDSP/libs/libDaisy/src/per/gpio.h **** 
   8:../libs/PoliTeKDSP/libs/libDaisy/src/per/gpio.h **** namespace daisy
   9:../libs/PoliTeKDSP/libs/libDaisy/src/per/gpio.h **** {
  10:../libs/PoliTeKDSP/libs/libDaisy/src/per/gpio.h **** /** @brief General Purpose I/O control 
  11:../libs/PoliTeKDSP/libs/libDaisy/src/per/gpio.h ****  *  @details peripheral control over a single GPIO
  12:../libs/PoliTeKDSP/libs/libDaisy/src/per/gpio.h ****  *  @ingroup peripheral
  13:../libs/PoliTeKDSP/libs/libDaisy/src/per/gpio.h ****  *   
  14:../libs/PoliTeKDSP/libs/libDaisy/src/per/gpio.h ****  *  Button Input (with internal Pullup resistor)
  15:../libs/PoliTeKDSP/libs/libDaisy/src/per/gpio.h ****  *  @include GPIO_Input.cpp 
  16:../libs/PoliTeKDSP/libs/libDaisy/src/per/gpio.h ****  * 
  17:../libs/PoliTeKDSP/libs/libDaisy/src/per/gpio.h ****  *  Output Example (perfect for blinking an LED)
  18:../libs/PoliTeKDSP/libs/libDaisy/src/per/gpio.h ****  *  @include GPIO_Output.cpp
  19:../libs/PoliTeKDSP/libs/libDaisy/src/per/gpio.h ****  * 
  20:../libs/PoliTeKDSP/libs/libDaisy/src/per/gpio.h **** */
  21:../libs/PoliTeKDSP/libs/libDaisy/src/per/gpio.h **** class GPIO
  22:../libs/PoliTeKDSP/libs/libDaisy/src/per/gpio.h **** {
  23:../libs/PoliTeKDSP/libs/libDaisy/src/per/gpio.h ****   public:
  24:../libs/PoliTeKDSP/libs/libDaisy/src/per/gpio.h ****     /** @brief Mode of operation for the specified GPIO */
  25:../libs/PoliTeKDSP/libs/libDaisy/src/per/gpio.h ****     enum class Mode
  26:../libs/PoliTeKDSP/libs/libDaisy/src/per/gpio.h ****     {
  27:../libs/PoliTeKDSP/libs/libDaisy/src/per/gpio.h ****         INPUT,      /**< Input for reading state of pin */
  28:../libs/PoliTeKDSP/libs/libDaisy/src/per/gpio.h ****         OUTPUT,     /**< Output w/ push-pull configuration */
  29:../libs/PoliTeKDSP/libs/libDaisy/src/per/gpio.h ****         OPEN_DRAIN, /**< Output w/ open-drain configuration */
  30:../libs/PoliTeKDSP/libs/libDaisy/src/per/gpio.h ****         ANALOG,     /**< Analog for connection to ADC or DAC peripheral */
  31:../libs/PoliTeKDSP/libs/libDaisy/src/per/gpio.h ****     };
  32:../libs/PoliTeKDSP/libs/libDaisy/src/per/gpio.h **** 
  33:../libs/PoliTeKDSP/libs/libDaisy/src/per/gpio.h ****     /** @brief Configures whether an internal Pull up or Pull down resistor is used. 
  34:../libs/PoliTeKDSP/libs/libDaisy/src/per/gpio.h ****      *  
  35:../libs/PoliTeKDSP/libs/libDaisy/src/per/gpio.h ****      * Internal Pull up/down resistors are typically 40k ohms, and will be between
  36:../libs/PoliTeKDSP/libs/libDaisy/src/per/gpio.h ****      * 30k and 50k
  37:../libs/PoliTeKDSP/libs/libDaisy/src/per/gpio.h ****      * 
  38:../libs/PoliTeKDSP/libs/libDaisy/src/per/gpio.h ****      * When the Pin is configured in Analog mode, the pull up/down resistors are
  39:../libs/PoliTeKDSP/libs/libDaisy/src/per/gpio.h ****      * disabled by hardware. 
  40:../libs/PoliTeKDSP/libs/libDaisy/src/per/gpio.h ****      */
  41:../libs/PoliTeKDSP/libs/libDaisy/src/per/gpio.h ****     enum class Pull
  42:../libs/PoliTeKDSP/libs/libDaisy/src/per/gpio.h ****     {
  43:../libs/PoliTeKDSP/libs/libDaisy/src/per/gpio.h ****         NOPULL,   /**< No pull up resistor */
  44:../libs/PoliTeKDSP/libs/libDaisy/src/per/gpio.h ****         PULLUP,   /**< Internal pull up enabled */
ARM GAS  C:\Users\matte\AppData\Local\Temp\ccj2OJiD.s 			page 203


  45:../libs/PoliTeKDSP/libs/libDaisy/src/per/gpio.h ****         PULLDOWN, /**< Internal pull down enabled*/
  46:../libs/PoliTeKDSP/libs/libDaisy/src/per/gpio.h ****     };
  47:../libs/PoliTeKDSP/libs/libDaisy/src/per/gpio.h **** 
  48:../libs/PoliTeKDSP/libs/libDaisy/src/per/gpio.h ****     /** @brief Output speed controls the drive strength, and slew rate of the pin */
  49:../libs/PoliTeKDSP/libs/libDaisy/src/per/gpio.h ****     enum class Speed
  50:../libs/PoliTeKDSP/libs/libDaisy/src/per/gpio.h ****     {
  51:../libs/PoliTeKDSP/libs/libDaisy/src/per/gpio.h ****         LOW,
  52:../libs/PoliTeKDSP/libs/libDaisy/src/per/gpio.h ****         MEDIUM,
  53:../libs/PoliTeKDSP/libs/libDaisy/src/per/gpio.h ****         HIGH,
  54:../libs/PoliTeKDSP/libs/libDaisy/src/per/gpio.h ****         VERY_HIGH,
  55:../libs/PoliTeKDSP/libs/libDaisy/src/per/gpio.h ****     };
  56:../libs/PoliTeKDSP/libs/libDaisy/src/per/gpio.h **** 
  57:../libs/PoliTeKDSP/libs/libDaisy/src/per/gpio.h ****     /** @brief Configuration for a given GPIO */
  58:../libs/PoliTeKDSP/libs/libDaisy/src/per/gpio.h ****     struct Config
  59:../libs/PoliTeKDSP/libs/libDaisy/src/per/gpio.h ****     {
  60:../libs/PoliTeKDSP/libs/libDaisy/src/per/gpio.h ****         Pin   pin;
  61:../libs/PoliTeKDSP/libs/libDaisy/src/per/gpio.h ****         Mode  mode;
  62:../libs/PoliTeKDSP/libs/libDaisy/src/per/gpio.h ****         Pull  pull;
  63:../libs/PoliTeKDSP/libs/libDaisy/src/per/gpio.h ****         Speed speed;
  64:../libs/PoliTeKDSP/libs/libDaisy/src/per/gpio.h **** 
  65:../libs/PoliTeKDSP/libs/libDaisy/src/per/gpio.h ****         /** Constructor with no arguments will prepare an invalid GPIO set as
  66:../libs/PoliTeKDSP/libs/libDaisy/src/per/gpio.h ****          *  an input, with no pullup. 
  67:../libs/PoliTeKDSP/libs/libDaisy/src/per/gpio.h ****          */
  68:../libs/PoliTeKDSP/libs/libDaisy/src/per/gpio.h ****         Config()
  69:../libs/PoliTeKDSP/libs/libDaisy/src/per/gpio.h ****         : pin(), mode(Mode::INPUT), pull(Pull::NOPULL), speed(Speed::LOW)
  70:../libs/PoliTeKDSP/libs/libDaisy/src/per/gpio.h ****         {
  71:../libs/PoliTeKDSP/libs/libDaisy/src/per/gpio.h ****         }
  72:../libs/PoliTeKDSP/libs/libDaisy/src/per/gpio.h ****     };
  73:../libs/PoliTeKDSP/libs/libDaisy/src/per/gpio.h **** 
  74:../libs/PoliTeKDSP/libs/libDaisy/src/per/gpio.h ****     GPIO() {}
 7159              		.loc 20 74 5 is_stmt 1 view .LVU1786
 7160              	.LBB1888:
 7161              	.LBB1889:
 7162              	.LBI1889:
  68:../libs/PoliTeKDSP/libs/libDaisy/src/per/gpio.h ****         : pin(), mode(Mode::INPUT), pull(Pull::NOPULL), speed(Speed::LOW)
 7163              		.loc 20 68 9 view .LVU1787
 7164              	.LBB1890:
 7165              	.LBB1891:
 7166              	.LBB1892:
 7167              	.LBI1892:
 7168              		.loc 16 204 15 view .LVU1788
 7169              		.loc 16 204 15 is_stmt 0 view .LVU1789
 7170              	.LBE1892:
 7171              	.LBE1891:
 7172              	.LBE1890:
 7173              	.LBE1889:
 7174              	.LBE1888:
 7175              	.LBE1887:
 7176              	.LBB1901:
 7177              	.LBI1901:
 7178              		.loc 20 74 5 is_stmt 1 view .LVU1790
 7179              	.LBB1902:
 7180              	.LBB1903:
 7181              	.LBI1903:
  68:../libs/PoliTeKDSP/libs/libDaisy/src/per/gpio.h ****         : pin(), mode(Mode::INPUT), pull(Pull::NOPULL), speed(Speed::LOW)
 7182              		.loc 20 68 9 view .LVU1791
 7183              	.LBB1904:
ARM GAS  C:\Users\matte\AppData\Local\Temp\ccj2OJiD.s 			page 204


 7184              	.LBB1905:
 7185              	.LBB1906:
 7186              	.LBI1906:
 7187              		.loc 16 204 15 view .LVU1792
 7188              		.loc 16 204 15 is_stmt 0 view .LVU1793
 7189              	.LBE1906:
 7190              	.LBE1905:
 7191              	.LBE1904:
 7192              	.LBE1903:
 7193              	.LBE1902:
 7194              	.LBE1901:
 7195              	.LBB1915:
 7196              	.LBI1915:
  96:../libs/PoliTeKDSP/libs/libDaisy/src/sys/system.h ****     ~System() {}
 7197              		.loc 5 96 5 is_stmt 1 view .LVU1794
  96:../libs/PoliTeKDSP/libs/libDaisy/src/sys/system.h ****     ~System() {}
 7198              		.loc 5 96 5 is_stmt 0 view .LVU1795
 7199              	.LBE1915:
 7200              	.LBB1916:
 7201              	.LBI1916:
  20:../libs/PoliTeKDSP/libs/libDaisy/src/dev/codec_ak4556.h ****     ~Ak4556() {}
 7202              		.loc 4 20 5 is_stmt 1 view .LVU1796
 7203              	.LBB1917:
 7204              	.LBI1917:
 7205              		.loc 20 74 5 view .LVU1797
 7206              	.LBB1918:
 7207              	.LBB1919:
 7208              	.LBI1919:
  68:../libs/PoliTeKDSP/libs/libDaisy/src/per/gpio.h ****         : pin(), mode(Mode::INPUT), pull(Pull::NOPULL), speed(Speed::LOW)
 7209              		.loc 20 68 9 view .LVU1798
 7210              	.LBB1920:
 7211              	.LBB1921:
 7212              	.LBB1922:
 7213              	.LBI1922:
 7214              		.loc 16 204 15 view .LVU1799
 7215              		.loc 16 204 15 is_stmt 0 view .LVU1800
 7216              	.LBE1922:
 7217              	.LBE1921:
 7218              	.LBE1920:
 7219              	.LBE1919:
 7220              	.LBE1918:
 7221              	.LBE1917:
 7222              	.LBE1916:
 7223              	.LBB1933:
 7224              	.LBI1933:
 7225              		.file 21 "../libs/libDaisy/src/per/sai.h"
   1:../libs/libDaisy/src/per/sai.h **** #pragma once
   2:../libs/libDaisy/src/per/sai.h **** #ifndef DSY_SAI_H
   3:../libs/libDaisy/src/per/sai.h **** #define DSY_SAI_H
   4:../libs/libDaisy/src/per/sai.h **** 
   5:../libs/libDaisy/src/per/sai.h **** #include "util/hal_map.h"
   6:../libs/libDaisy/src/per/sai.h **** #include "daisy_core.h"
   7:../libs/libDaisy/src/per/sai.h **** 
   8:../libs/libDaisy/src/per/sai.h **** namespace daisy
   9:../libs/libDaisy/src/per/sai.h **** {
  10:../libs/libDaisy/src/per/sai.h **** /** 
  11:../libs/libDaisy/src/per/sai.h ****  * Support for I2S Audio Protocol with different bit-depth, samplerate options
ARM GAS  C:\Users\matte\AppData\Local\Temp\ccj2OJiD.s 			page 205


  12:../libs/libDaisy/src/per/sai.h ****  * Allows for master or slave, as well as freedom of selecting direction, 
  13:../libs/libDaisy/src/per/sai.h ****  * and other behavior for each peripheral, and block.
  14:../libs/libDaisy/src/per/sai.h ****  * 
  15:../libs/libDaisy/src/per/sai.h ****  * DMA Transfer commands must use buffers located within non-cached memory or use cache maintenance
  16:../libs/libDaisy/src/per/sai.h ****  * To declare an unitialized global element in the DMA memory section:
  17:../libs/libDaisy/src/per/sai.h ****  *    int32_t DSY_DMA_BUFFER_SECTOR my_buffer[96];
  18:../libs/libDaisy/src/per/sai.h ****  *
  19:../libs/libDaisy/src/per/sai.h ****  * Callback functions will be called once per half of the buffer. In the above example, 
  20:../libs/libDaisy/src/per/sai.h ****  * the callback function would be called once for every 48 samples.
  21:../libs/libDaisy/src/per/sai.h ****  * 
  22:../libs/libDaisy/src/per/sai.h ****  * Use SAI Handle like this:
  23:../libs/libDaisy/src/per/sai.h ****  * 
  24:../libs/libDaisy/src/per/sai.h ****  *  SaiHandle::Config sai_config;
  25:../libs/libDaisy/src/per/sai.h ****  *  sai_config.periph          = SaiHandle::Config::Peripheral::SAI_1;
  26:../libs/libDaisy/src/per/sai.h ****  *  sai_config.sr              = SaiHandle::Config::SampleRate::SAI_48KHZ;
  27:../libs/libDaisy/src/per/sai.h ****  *  sai_config.bit_depth       = SaiHandle::Config::BitDepth::SAI_24BIT;
  28:../libs/libDaisy/src/per/sai.h ****  *  sai_config.a_sync          = SaiHandle::Config::Sync::MASTER;
  29:../libs/libDaisy/src/per/sai.h ****  *  sai_config.b_sync          = SaiHandle::Config::Sync::SLAVE;
  30:../libs/libDaisy/src/per/sai.h ****  *  sai_config.a_dir           = SaiHandle::Config::Direction::RECEIVE;
  31:../libs/libDaisy/src/per/sai.h ****  *  sai_config.b_dir           = SaiHandle::Config::Direction::TRANSMIT;
  32:../libs/libDaisy/src/per/sai.h ****  *  sai_config.pin_config.fs   = {DSY_GPIOE, 4};
  33:../libs/libDaisy/src/per/sai.h ****  *  sai_config.pin_config.mclk = {DSY_GPIOE, 2};
  34:../libs/libDaisy/src/per/sai.h ****  *  sai_config.pin_config.sck  = {DSY_GPIOE, 5};
  35:../libs/libDaisy/src/per/sai.h ****  *  sai_config.pin_config.sa   = {DSY_GPIOE, 6};
  36:../libs/libDaisy/src/per/sai.h ****  *  sai_config.pin_config.sb   = {DSY_GPIOE, 3};
  37:../libs/libDaisy/src/per/sai.h ****  *  // Then Initialize
  38:../libs/libDaisy/src/per/sai.h ****  *  SaiHandle sai;
  39:../libs/libDaisy/src/per/sai.h ****  *  sai.Init(sai_config);
  40:../libs/libDaisy/src/per/sai.h ****  *  // Now you can use it:
  41:../libs/libDaisy/src/per/sai.h ****  *  sai.StartDma(. . .);
  42:../libs/libDaisy/src/per/sai.h ****  */
  43:../libs/libDaisy/src/per/sai.h **** class SaiHandle
  44:../libs/libDaisy/src/per/sai.h **** {
  45:../libs/libDaisy/src/per/sai.h ****   public:
  46:../libs/libDaisy/src/per/sai.h ****     /** Contains settings for initialising an SAI Interface */
  47:../libs/libDaisy/src/per/sai.h ****     struct Config
  48:../libs/libDaisy/src/per/sai.h ****     {
  49:../libs/libDaisy/src/per/sai.h ****         /** Specifies the internal peripheral to use (mapped to different hardware pins) */
  50:../libs/libDaisy/src/per/sai.h ****         enum class Peripheral
  51:../libs/libDaisy/src/per/sai.h ****         {
  52:../libs/libDaisy/src/per/sai.h ****             SAI_1,
  53:../libs/libDaisy/src/per/sai.h ****             SAI_2,
  54:../libs/libDaisy/src/per/sai.h ****         };
  55:../libs/libDaisy/src/per/sai.h **** 
  56:../libs/libDaisy/src/per/sai.h ****         /** Rate at which samples will be streaming to/from the device. */
  57:../libs/libDaisy/src/per/sai.h ****         enum class SampleRate
  58:../libs/libDaisy/src/per/sai.h ****         {
  59:../libs/libDaisy/src/per/sai.h ****             SAI_8KHZ,
  60:../libs/libDaisy/src/per/sai.h ****             SAI_16KHZ,
  61:../libs/libDaisy/src/per/sai.h ****             SAI_32KHZ,
  62:../libs/libDaisy/src/per/sai.h ****             SAI_48KHZ,
  63:../libs/libDaisy/src/per/sai.h ****             SAI_96KHZ,
  64:../libs/libDaisy/src/per/sai.h ****         };
  65:../libs/libDaisy/src/per/sai.h **** 
  66:../libs/libDaisy/src/per/sai.h ****         /** Bit Depth that the hardware expects to be transferred to/from the device. */
  67:../libs/libDaisy/src/per/sai.h ****         enum class BitDepth
  68:../libs/libDaisy/src/per/sai.h ****         {
ARM GAS  C:\Users\matte\AppData\Local\Temp\ccj2OJiD.s 			page 206


  69:../libs/libDaisy/src/per/sai.h ****             SAI_16BIT,
  70:../libs/libDaisy/src/per/sai.h ****             SAI_24BIT,
  71:../libs/libDaisy/src/per/sai.h ****             SAI_32BIT,
  72:../libs/libDaisy/src/per/sai.h ****         };
  73:../libs/libDaisy/src/per/sai.h **** 
  74:../libs/libDaisy/src/per/sai.h ****         /** Specifies whether a particular block is the master or the slave 
  75:../libs/libDaisy/src/per/sai.h ****          ** If both are set to slave, no MCLK signal will be used, and it is
  76:../libs/libDaisy/src/per/sai.h ****          ** expected that the codec will have its own xtal.
  77:../libs/libDaisy/src/per/sai.h ****          */
  78:../libs/libDaisy/src/per/sai.h ****         enum class Sync
  79:../libs/libDaisy/src/per/sai.h ****         {
  80:../libs/libDaisy/src/per/sai.h ****             MASTER,
  81:../libs/libDaisy/src/per/sai.h ****             SLAVE,
  82:../libs/libDaisy/src/per/sai.h ****         };
  83:../libs/libDaisy/src/per/sai.h **** 
  84:../libs/libDaisy/src/per/sai.h ****         /** Specifies the direction for each peripheral block. */
  85:../libs/libDaisy/src/per/sai.h ****         enum class Direction
  86:../libs/libDaisy/src/per/sai.h ****         {
  87:../libs/libDaisy/src/per/sai.h ****             TRANSMIT,
  88:../libs/libDaisy/src/per/sai.h ****             RECEIVE,
  89:../libs/libDaisy/src/per/sai.h ****         };
  90:../libs/libDaisy/src/per/sai.h **** 
  91:../libs/libDaisy/src/per/sai.h ****         Peripheral periph;
  92:../libs/libDaisy/src/per/sai.h ****         struct
  93:../libs/libDaisy/src/per/sai.h ****         {
  94:../libs/libDaisy/src/per/sai.h ****             Pin mclk, fs, sck, sa, sb;
  95:../libs/libDaisy/src/per/sai.h ****         } pin_config;
  96:../libs/libDaisy/src/per/sai.h ****         SampleRate sr;
  97:../libs/libDaisy/src/per/sai.h ****         BitDepth   bit_depth;
  98:../libs/libDaisy/src/per/sai.h ****         Sync       a_sync, b_sync;
  99:../libs/libDaisy/src/per/sai.h ****         Direction  a_dir, b_dir;
 100:../libs/libDaisy/src/per/sai.h ****     };
 101:../libs/libDaisy/src/per/sai.h **** 
 102:../libs/libDaisy/src/per/sai.h ****     /** Return values for SAI functions */
 103:../libs/libDaisy/src/per/sai.h ****     enum class Result
 104:../libs/libDaisy/src/per/sai.h ****     {
 105:../libs/libDaisy/src/per/sai.h ****         OK,
 106:../libs/libDaisy/src/per/sai.h ****         ERR,
 107:../libs/libDaisy/src/per/sai.h ****     };
 108:../libs/libDaisy/src/per/sai.h **** 
 109:../libs/libDaisy/src/per/sai.h ****     SaiHandle() : pimpl_(nullptr) {}
 7226              		.loc 21 109 5 is_stmt 1 view .LVU1801
 7227              	.LBE1933:
 7228              	.LBE1865:
 7229              	.LBE1864:
 7230              	.LBE1863:
 7231              	.LBE1862:
 7232              		.loc 12 162 1 is_stmt 0 view .LVU1802
 7233 0000 70B5     		push	{r4, r5, r6, lr}
 7234              		.cfi_def_cfa_offset 16
 7235              		.cfi_offset 4, -16
 7236              		.cfi_offset 5, -12
 7237              		.cfi_offset 6, -8
 7238              		.cfi_offset 14, -4
 7239              	.LBB2032:
 7240              	.LBB2030:
 7241              	.LBB1950:
ARM GAS  C:\Users\matte\AppData\Local\Temp\ccj2OJiD.s 			page 207


 7242              	.LBB1947:
 7243              	.LBB1936:
 7244              	.LBB1867:
 7245              	.LBB1868:
 7246              		.loc 18 167 34 view .LVU1803
 7247 0002 2848     		ldr	r0, .L457
 7248 0004 0024     		movs	r4, #0
 7249              	.LBE1868:
 7250              	.LBE1867:
 7251              	.LBE1936:
  21:../libs/PoliTeKDSP/libs/libDaisy/src/daisy_seed.h ****     ~DaisySeed() {}
 7252              		.loc 3 21 17 view .LVU1804
 7253 0006 4FF60B75 		movw	r5, #65291
 7254              	.LBE1947:
 7255              	.LBE1950:
  11:main.cpp      **** DaisySeed      hw;
 7256              		.loc 12 11 16 view .LVU1805
 7257 000a 274E     		ldr	r6, .L457+4
 7258              	.LBB1951:
 7259              	.LBB1948:
  21:../libs/PoliTeKDSP/libs/libDaisy/src/daisy_seed.h ****     ~DaisySeed() {}
 7260              		.loc 3 21 17 view .LVU1806
 7261 000c 6FF0F413 		mvn	r3, #15991028
 7262              	.LBE1948:
 7263              	.LBE1951:
  11:main.cpp      **** DaisySeed      hw;
 7264              		.loc 12 11 16 view .LVU1807
 7265 0010 2649     		ldr	r1, .L457+8
 7266 0012 3246     		mov	r2, r6
 7267              	.LBB1952:
 7268              	.LBB1949:
 7269              	.LBB1937:
 7270              	.LBB1870:
 7271              	.LBB1869:
 7272              		.loc 18 167 34 view .LVU1808
 7273 0014 0460     		str	r4, [r0]
 7274              	.LBE1869:
 7275              	.LBE1870:
 7276              	.LBE1937:
  21:../libs/PoliTeKDSP/libs/libDaisy/src/daisy_seed.h ****     ~DaisySeed() {}
 7277              		.loc 3 21 17 view .LVU1809
 7278 0016 C360     		str	r3, [r0, #12]
 7279              	.LBB1938:
 7280              	.LBB1880:
 7281              	.LBB1881:
  87:../libs/PoliTeKDSP/libs/libDaisy/src/hid/audio.h ****     ~AudioHandle() {}
 7282              		.loc 8 87 35 view .LVU1810
 7283 0018 4461     		str	r4, [r0, #20]
 7284              	.LBE1881:
 7285              	.LBE1880:
 7286              	.LBE1938:
 7287              	.LBB1939:
 7288              	.LBB1884:
 7289              	.LBB1885:
 7290              		.loc 19 84 33 view .LVU1811
 7291 001a 0462     		str	r4, [r0, #32]
 7292              	.LBE1885:
ARM GAS  C:\Users\matte\AppData\Local\Temp\ccj2OJiD.s 			page 208


 7293              	.LBE1884:
 7294              	.LBE1939:
 7295              	.LBB1940:
 7296              	.LBB1934:
 7297              	.LBB1935:
 7298              		.loc 21 109 33 view .LVU1812
 7299 001c 0467     		str	r4, [r0, #112]
 7300              	.LVL526:
 7301              		.loc 21 109 33 view .LVU1813
 7302              	.LBE1935:
 7303              	.LBE1934:
 7304              	.LBE1940:
  21:../libs/PoliTeKDSP/libs/libDaisy/src/daisy_seed.h ****     ~DaisySeed() {}
 7305              		.loc 3 21 17 view .LVU1814
 7306 001e C0E90133 		strd	r3, r3, [r0, #4]
 7307              	.LBB1941:
 7308              	.LBB1899:
 7309              	.LBB1897:
 7310              	.LBB1895:
 7311              	.LBB1893:
  69:../libs/PoliTeKDSP/libs/libDaisy/src/per/gpio.h ****         {
 7312              		.loc 20 69 73 view .LVU1815
 7313 0022 C0E90A54 		strd	r5, r4, [r0, #40]
 7314              	.LBE1893:
 7315              	.LBE1895:
 7316              	.LBE1897:
 7317              	.LBE1899:
 7318              	.LBE1941:
 7319              	.LBB1942:
 7320              	.LBB1913:
 7321              	.LBB1911:
 7322              	.LBB1909:
 7323              	.LBB1907:
 7324 0026 C0E90F54 		strd	r5, r4, [r0, #60]
 7325              	.LBE1907:
 7326              	.LBE1909:
 7327              	.LBE1911:
 7328              	.LBE1913:
 7329              	.LBE1942:
 7330              	.LBB1943:
 7331              	.LBB1931:
 7332              	.LBB1929:
 7333              	.LBB1927:
 7334              	.LBB1925:
 7335              	.LBB1923:
 7336 002a C0E91654 		strd	r5, r4, [r0, #88]
 7337              	.LBE1923:
 7338              	.LBE1925:
 7339              	.LBE1927:
 7340              	.LBE1929:
 7341              	.LBE1931:
 7342              	.LBE1943:
 7343              	.LBB1944:
 7344              	.LBB1900:
 7345              	.LBB1898:
 7346              	.LBB1896:
 7347              	.LBB1894:
ARM GAS  C:\Users\matte\AppData\Local\Temp\ccj2OJiD.s 			page 209


 7348 002e C0E90C44 		strd	r4, r4, [r0, #48]
 7349              	.LBE1894:
 7350              	.LBE1896:
 7351              	.LBE1898:
 7352              	.LBE1900:
 7353              	.LBE1944:
 7354              	.LBB1945:
 7355              	.LBB1914:
 7356              	.LBB1912:
 7357              	.LBB1910:
 7358              	.LBB1908:
 7359 0032 C0E91144 		strd	r4, r4, [r0, #68]
 7360              	.LBE1908:
 7361              	.LBE1910:
 7362              	.LBE1912:
 7363              	.LBE1914:
 7364              	.LBE1945:
 7365              	.LBB1946:
 7366              	.LBB1932:
 7367              	.LBB1930:
 7368              	.LBB1928:
 7369              	.LBB1926:
 7370              	.LBB1924:
 7371 0036 C0E91844 		strd	r4, r4, [r0, #96]
 7372              	.LBE1924:
 7373              	.LBE1926:
 7374              	.LBE1928:
 7375              	.LBE1930:
 7376              	.LBE1932:
 7377              	.LBE1946:
 7378              	.LBE1949:
 7379              	.LBE1952:
  11:main.cpp      **** DaisySeed      hw;
 7380              		.loc 12 11 16 view .LVU1816
 7381 003a FFF7FEFF 		bl	__aeabi_atexit
 7382              	.LVL527:
 7383              	.LBB1953:
 7384              	.LBI1953:
  20:../libs/PoliTeKDSP/libs/libDaisy/src/hid/encoder.h ****     ~Encoder() {}
 7385              		.loc 1 20 5 is_stmt 1 view .LVU1817
 7386              	.LBB1954:
 7387              	.LBB1955:
 7388              	.LBI1955:
  33:../libs/libDaisy/src/hid/switch.h ****     ~Switch() {}
 7389              		.loc 2 33 5 view .LVU1818
 7390              	.LBB1956:
 7391              	.LBB1957:
 7392              	.LBI1957:
 7393              		.loc 20 74 5 view .LVU1819
 7394              	.LBB1958:
 7395              	.LBB1959:
 7396              	.LBI1959:
  68:../libs/PoliTeKDSP/libs/libDaisy/src/per/gpio.h ****         : pin(), mode(Mode::INPUT), pull(Pull::NOPULL), speed(Speed::LOW)
 7397              		.loc 20 68 9 view .LVU1820
 7398              	.LBB1960:
 7399              	.LBB1961:
 7400              	.LBB1962:
ARM GAS  C:\Users\matte\AppData\Local\Temp\ccj2OJiD.s 			page 210


 7401              	.LBI1962:
 7402              		.loc 16 204 15 view .LVU1821
 7403              		.loc 16 204 15 is_stmt 0 view .LVU1822
 7404              	.LBE1962:
 7405              	.LBE1961:
 7406              	.LBE1960:
 7407              	.LBE1959:
 7408              	.LBE1958:
 7409              	.LBE1957:
 7410              	.LBE1956:
 7411              	.LBE1955:
 7412              	.LBB1975:
 7413              	.LBI1975:
 7414              		.loc 20 74 5 is_stmt 1 view .LVU1823
 7415              	.LBB1976:
 7416              	.LBB1977:
 7417              	.LBI1977:
  68:../libs/PoliTeKDSP/libs/libDaisy/src/per/gpio.h ****         : pin(), mode(Mode::INPUT), pull(Pull::NOPULL), speed(Speed::LOW)
 7418              		.loc 20 68 9 view .LVU1824
 7419              	.LBB1978:
 7420              	.LBB1979:
 7421              	.LBB1980:
 7422              	.LBI1980:
 7423              		.loc 16 204 15 view .LVU1825
 7424              		.loc 16 204 15 is_stmt 0 view .LVU1826
 7425              	.LBE1980:
 7426              	.LBE1979:
 7427              	.LBE1978:
 7428              	.LBE1977:
 7429              	.LBE1976:
 7430              	.LBE1975:
 7431              	.LBB1989:
 7432              	.LBI1989:
 7433              		.loc 20 74 5 is_stmt 1 view .LVU1827
 7434              	.LBB1990:
 7435              	.LBB1991:
 7436              	.LBI1991:
  68:../libs/PoliTeKDSP/libs/libDaisy/src/per/gpio.h ****         : pin(), mode(Mode::INPUT), pull(Pull::NOPULL), speed(Speed::LOW)
 7437              		.loc 20 68 9 view .LVU1828
 7438              	.LBB1992:
 7439              	.LBB1993:
 7440              	.LBB1994:
 7441              	.LBI1994:
 7442              		.loc 16 204 15 view .LVU1829
 7443              		.loc 16 204 15 is_stmt 0 view .LVU1830
 7444              	.LBE1994:
 7445              	.LBE1993:
 7446              	.LBE1992:
 7447              	.LBE1991:
 7448              	.LBE1990:
 7449              	.LBE1989:
  20:../libs/PoliTeKDSP/libs/libDaisy/src/hid/encoder.h ****     ~Encoder() {}
 7450              		.loc 1 20 15 view .LVU1831
 7451 003e 1C48     		ldr	r0, .L457+12
 7452              	.LBE1954:
 7453              	.LBE1953:
  12:main.cpp      **** Encoder        enc;
ARM GAS  C:\Users\matte\AppData\Local\Temp\ccj2OJiD.s 			page 211


 7454              		.loc 12 12 16 view .LVU1832
 7455 0040 3246     		mov	r2, r6
 7456 0042 1C49     		ldr	r1, .L457+16
 7457              	.LBB2010:
 7458              	.LBB2009:
 7459              	.LBB2003:
 7460              	.LBB1973:
 7461              	.LBB1971:
 7462              	.LBB1969:
 7463              	.LBB1967:
 7464              	.LBB1965:
 7465              	.LBB1963:
  69:../libs/PoliTeKDSP/libs/libDaisy/src/per/gpio.h ****         {
 7466              		.loc 20 69 73 view .LVU1833
 7467 0044 C0E90454 		strd	r5, r4, [r0, #16]
 7468              	.LBE1963:
 7469              	.LBE1965:
 7470              	.LBE1967:
 7471              	.LBE1969:
 7472              	.LBE1971:
 7473              	.LBE1973:
 7474              	.LBE2003:
 7475              	.LBB2004:
 7476              	.LBB1987:
 7477              	.LBB1985:
 7478              	.LBB1983:
 7479              	.LBB1981:
 7480 0048 C0E90B54 		strd	r5, r4, [r0, #44]
 7481              	.LBE1981:
 7482              	.LBE1983:
 7483              	.LBE1985:
 7484              	.LBE1987:
 7485              	.LBE2004:
 7486              	.LBB2005:
 7487              	.LBB2001:
 7488              	.LBB1999:
 7489              	.LBB1997:
 7490              	.LBB1995:
 7491 004c C0E91054 		strd	r5, r4, [r0, #64]
 7492              	.LBE1995:
 7493              	.LBE1997:
 7494              	.LBE1999:
 7495              	.LBE2001:
 7496              	.LBE2005:
 7497              	.LBB2006:
 7498              	.LBB1974:
 7499              	.LBB1972:
 7500              	.LBB1970:
 7501              	.LBB1968:
 7502              	.LBB1966:
 7503              	.LBB1964:
 7504 0050 C0E90644 		strd	r4, r4, [r0, #24]
 7505              	.LBE1964:
 7506              	.LBE1966:
 7507              	.LBE1968:
 7508              	.LBE1970:
 7509              	.LBE1972:
ARM GAS  C:\Users\matte\AppData\Local\Temp\ccj2OJiD.s 			page 212


 7510              	.LBE1974:
 7511              	.LBE2006:
 7512              	.LBB2007:
 7513              	.LBB1988:
 7514              	.LBB1986:
 7515              	.LBB1984:
 7516              	.LBB1982:
 7517 0054 C0E90D44 		strd	r4, r4, [r0, #52]
 7518              	.LBE1982:
 7519              	.LBE1984:
 7520              	.LBE1986:
 7521              	.LBE1988:
 7522              	.LBE2007:
 7523              	.LBB2008:
 7524              	.LBB2002:
 7525              	.LBB2000:
 7526              	.LBB1998:
 7527              	.LBB1996:
 7528 0058 C0E91244 		strd	r4, r4, [r0, #72]
 7529              	.LVL528:
  69:../libs/PoliTeKDSP/libs/libDaisy/src/per/gpio.h ****         {
 7530              		.loc 20 69 73 view .LVU1834
 7531              	.LBE1996:
 7532              	.LBE1998:
 7533              	.LBE2000:
 7534              	.LBE2002:
 7535              	.LBE2008:
 7536              	.LBE2009:
 7537              	.LBE2010:
  12:main.cpp      **** Encoder        enc;
 7538              		.loc 12 12 16 view .LVU1835
 7539 005c FFF7FEFF 		bl	__aeabi_atexit
 7540              	.LVL529:
 7541              	.LBB2011:
 7542              	.LBI2011:
  17:../libs/PoliTeKDSP/libs/libDaisy/src/hid/disp/oled_display.h ****     virtual ~OledDisplay() {}
 7543              		.loc 9 17 5 is_stmt 1 view .LVU1836
 7544              	.LBB2012:
 7545              	.LBB2013:
 7546              	.LBB2014:
 7547              	.LBI2014:
 218:../libs/PoliTeKDSP/libs/libDaisy/src/hid/disp/display.h ****     virtual ~OneBitGraphicsDisplayImpl() {}
 7548              		.loc 10 218 5 view .LVU1837
 7549              	.LBB2015:
 7550              	.LBI2015:
  22:../libs/PoliTeKDSP/libs/libDaisy/src/hid/disp/display.h ****     virtual ~OneBitGraphicsDisplay() {}
 7551              		.loc 10 22 5 view .LVU1838
  22:../libs/PoliTeKDSP/libs/libDaisy/src/hid/disp/display.h ****     virtual ~OneBitGraphicsDisplay() {}
 7552              		.loc 10 22 5 is_stmt 0 view .LVU1839
 7553              	.LBE2015:
 7554              	.LBE2014:
  17:../libs/PoliTeKDSP/libs/libDaisy/src/hid/disp/oled_display.h ****     virtual ~OledDisplay() {}
 7555              		.loc 9 17 19 view .LVU1840
 7556 0060 154D     		ldr	r5, .L457+20
 7557 0062 164B     		ldr	r3, .L457+24
 7558              	.LBE2013:
 7559              	.LBE2012:
ARM GAS  C:\Users\matte\AppData\Local\Temp\ccj2OJiD.s 			page 213


 7560              	.LBE2011:
  14:main.cpp      **** MyOledDisplay  disp;
 7561              		.loc 12 14 16 view .LVU1841
 7562 0064 3246     		mov	r2, r6
 7563              	.LBB2028:
 7564              	.LBB2026:
 7565              	.LBB2024:
 7566              	.LBB2016:
 7567              	.LBB2017:
 7568              	.LBB2018:
 7569              	.LBB2019:
 7570              	.LBB2020:
  60:../libs/libDaisy/src/per/i2c.h ****             Pin scl;  /**< & */
  61:../libs/libDaisy/src/per/i2c.h ****             Pin sda;  /**< & */
  62:../libs/libDaisy/src/per/i2c.h ****         } pin_config; /**< & */
  63:../libs/libDaisy/src/per/i2c.h **** 
  64:../libs/libDaisy/src/per/i2c.h ****         Speed speed; /**< & */
  65:../libs/libDaisy/src/per/i2c.h ****         Mode  mode;  /**< & */
  66:../libs/libDaisy/src/per/i2c.h ****         // 0x10 is chosen as a default to avoid conflicts with reserved addresses
  67:../libs/libDaisy/src/per/i2c.h ****         uint8_t address = 0x10; /**< & */
  68:../libs/libDaisy/src/per/i2c.h ****     };
  69:../libs/libDaisy/src/per/i2c.h **** 
  70:../libs/libDaisy/src/per/i2c.h ****     /** Return values for I2C functions. */
  71:../libs/libDaisy/src/per/i2c.h ****     enum class Result
  72:../libs/libDaisy/src/per/i2c.h ****     {
  73:../libs/libDaisy/src/per/i2c.h ****         OK, /**< & */
  74:../libs/libDaisy/src/per/i2c.h ****         ERR /**< & */
  75:../libs/libDaisy/src/per/i2c.h ****     };
  76:../libs/libDaisy/src/per/i2c.h **** 
  77:../libs/libDaisy/src/per/i2c.h ****     enum class Direction
  78:../libs/libDaisy/src/per/i2c.h ****     {
  79:../libs/libDaisy/src/per/i2c.h ****         TRANSMIT, /**< & */
  80:../libs/libDaisy/src/per/i2c.h ****         RECEIVE,  /**< & */
  81:../libs/libDaisy/src/per/i2c.h ****     };
  82:../libs/libDaisy/src/per/i2c.h **** 
  83:../libs/libDaisy/src/per/i2c.h ****     I2CHandle() : pimpl_(nullptr) {}
 7571              		.loc 15 83 33 view .LVU1842
 7572 0066 AC60     		str	r4, [r5, #8]
 7573              	.LBE2020:
 7574              	.LBE2019:
 7575              	.LBE2018:
 7576              	.LBE2017:
 7577              	.LBE2016:
 7578              	.LBE2024:
 7579              	.LBE2026:
 7580              	.LBE2028:
  14:main.cpp      **** MyOledDisplay  disp;
 7581              		.loc 12 14 16 view .LVU1843
 7582 0068 2846     		mov	r0, r5
 7583              	.LBB2029:
 7584              	.LBB2027:
 7585              	.LBB2025:
  17:../libs/PoliTeKDSP/libs/libDaisy/src/hid/disp/oled_display.h ****     virtual ~OledDisplay() {}
 7586              		.loc 9 17 19 view .LVU1844
 7587 006a 2B60     		str	r3, [r5]
 7588              	.LVL530:
 7589              	.LBB2023:
ARM GAS  C:\Users\matte\AppData\Local\Temp\ccj2OJiD.s 			page 214


 7590              	.LBI2016:
 233:Display/../../libs/PoliTeKDSP/libs/libDaisy/src/dev/oled_ssd130x.h **** {
 7591              		.loc 11 233 7 is_stmt 1 view .LVU1845
 7592              	.LBB2022:
 7593              	.LBI2017:
  15:Display/../../libs/PoliTeKDSP/libs/libDaisy/src/dev/oled_ssd130x.h **** {
 7594              		.loc 11 15 7 view .LVU1846
 7595              	.LBB2021:
 7596              	.LBI2018:
 7597              		.loc 15 83 5 view .LVU1847
 7598              		.loc 15 83 5 is_stmt 0 view .LVU1848
 7599              	.LBE2021:
 7600              	.LBE2022:
 7601              	.LBE2023:
 7602              	.LBE2025:
 7603              	.LBE2027:
 7604              	.LBE2029:
  17:main.cpp      **** PlantConditioner pc;
 7605              		.loc 12 17 18 view .LVU1849
 7606 006c 144C     		ldr	r4, .L457+28
  14:main.cpp      **** MyOledDisplay  disp;
 7607              		.loc 12 14 16 view .LVU1850
 7608 006e 1549     		ldr	r1, .L457+32
 7609 0070 FFF7FEFF 		bl	__aeabi_atexit
 7610              	.LVL531:
  15:main.cpp      **** DisplayHandler disp_handle(&disp);
 7611              		.loc 12 15 33 view .LVU1851
 7612 0074 2946     		mov	r1, r5
 7613 0076 0122     		movs	r2, #1
 7614 0078 1348     		ldr	r0, .L457+36
 7615 007a FFF7FEFF 		bl	_ZN14DisplayHandlerC1EPN5daisy11OledDisplayINS0_13SSD130xDriverILj128ELj64ENS0_19SSD130xI2CTran
 7616              	.LVL532:
  17:main.cpp      **** PlantConditioner pc;
 7617              		.loc 12 17 18 view .LVU1852
 7618 007e 2046     		mov	r0, r4
 7619 0080 FFF7FEFF 		bl	_ZN16PlantConditionerC1Ev
 7620              	.LVL533:
 7621 0084 2046     		mov	r0, r4
  18:main.cpp      **** AudioEngine      synth;
 7622              		.loc 12 18 18 view .LVU1853
 7623 0086 114C     		ldr	r4, .L457+40
  17:main.cpp      **** PlantConditioner pc;
 7624              		.loc 12 17 18 view .LVU1854
 7625 0088 3246     		mov	r2, r6
 7626 008a 1149     		ldr	r1, .L457+44
 7627 008c FFF7FEFF 		bl	__aeabi_atexit
 7628              	.LVL534:
  18:main.cpp      **** AudioEngine      synth;
 7629              		.loc 12 18 18 view .LVU1855
 7630 0090 2046     		mov	r0, r4
 7631 0092 FFF7FEFF 		bl	_ZN11AudioEngineC1Ev
 7632              	.LVL535:
 7633 0096 3246     		mov	r2, r6
 7634 0098 2046     		mov	r0, r4
 7635 009a 0E49     		ldr	r1, .L457+48
 7636              	.LBE2030:
 7637              	.LBE2032:
ARM GAS  C:\Users\matte\AppData\Local\Temp\ccj2OJiD.s 			page 215


 7638              		.loc 12 162 1 view .LVU1856
 7639 009c BDE87040 		pop	{r4, r5, r6, lr}
 7640              		.cfi_restore 14
 7641              		.cfi_restore 6
 7642              		.cfi_restore 5
 7643              		.cfi_restore 4
 7644              		.cfi_def_cfa_offset 0
 7645              	.LBB2033:
 7646              	.LBB2031:
  18:main.cpp      **** AudioEngine      synth;
 7647              		.loc 12 18 18 view .LVU1857
 7648 00a0 FFF7FEBF 		b	__aeabi_atexit
 7649              	.LVL536:
 7650              	.L458:
 7651              		.align	2
 7652              	.L457:
 7653 00a4 00000000 		.word	.LANCHOR2
 7654 00a8 00000000 		.word	__dso_handle
 7655 00ac 00000000 		.word	_ZN5daisy9DaisySeedD1Ev
 7656 00b0 00000000 		.word	.LANCHOR3
 7657 00b4 00000000 		.word	_ZN5daisy7EncoderD1Ev
 7658 00b8 00000000 		.word	.LANCHOR5
 7659 00bc 08000000 		.word	_ZTVN5daisy11OledDisplayINS_13SSD130xDriverILj128ELj64ENS_19SSD130xI2CTransportEEEEE+8
 7660 00c0 00000000 		.word	.LANCHOR6
 7661 00c4 00000000 		.word	_ZN5daisy11OledDisplayINS_13SSD130xDriverILj128ELj64ENS_19SSD130xI2CTransportEEEED1Ev
 7662 00c8 00000000 		.word	.LANCHOR1
 7663 00cc 00000000 		.word	synth
 7664 00d0 00000000 		.word	_ZN16PlantConditionerD1Ev
 7665 00d4 00000000 		.word	_ZN11AudioEngineD1Ev
 7666              	.LBE2031:
 7667              	.LBE2033:
 7668              		.cfi_endproc
 7669              	.LFE5635:
 7671              		.section	.init_array,"aw",%init_array
 7672              		.align	2
 7673 0000 00000000 		.word	_GLOBAL__sub_I_hw(target1)
 7674              		.weak	_ZTVN5daisy11OledDisplayINS_13SSD130xDriverILj128ELj64ENS_19SSD130xI2CTransportEEEEE
 7675              		.section	.rodata._ZTVN5daisy11OledDisplayINS_13SSD130xDriverILj128ELj64ENS_19SSD130xI2CTransportEE
 7676              		.align	2
 7679              	_ZTVN5daisy11OledDisplayINS_13SSD130xDriverILj128ELj64ENS_19SSD130xI2CTransportEEEEE:
 7680 0000 00000000 		.word	0
 7681 0004 00000000 		.word	0
 7682 0008 00000000 		.word	_ZN5daisy11OledDisplayINS_13SSD130xDriverILj128ELj64ENS_19SSD130xI2CTransportEEEED1Ev
 7683 000c 00000000 		.word	_ZN5daisy11OledDisplayINS_13SSD130xDriverILj128ELj64ENS_19SSD130xI2CTransportEEEED0Ev
 7684 0010 00000000 		.word	_ZNK5daisy11OledDisplayINS_13SSD130xDriverILj128ELj64ENS_19SSD130xI2CTransportEEEE6HeightEv
 7685 0014 00000000 		.word	_ZNK5daisy11OledDisplayINS_13SSD130xDriverILj128ELj64ENS_19SSD130xI2CTransportEEEE5WidthEv
 7686 0018 00000000 		.word	_ZN5daisy11OledDisplayINS_13SSD130xDriverILj128ELj64ENS_19SSD130xI2CTransportEEEE4FillEb
 7687 001c 00000000 		.word	_ZN5daisy11OledDisplayINS_13SSD130xDriverILj128ELj64ENS_19SSD130xI2CTransportEEEE9DrawPixelE
 7688 0020 00000000 		.word	_ZN5daisy25OneBitGraphicsDisplayImplINS_11OledDisplayINS_13SSD130xDriverILj128ELj64ENS_19SSD
 7689 0024 00000000 		.word	_ZN5daisy25OneBitGraphicsDisplayImplINS_11OledDisplayINS_13SSD130xDriverILj128ELj64ENS_19SSD
 7690 0028 00000000 		.word	_ZN5daisy25OneBitGraphicsDisplayImplINS_11OledDisplayINS_13SSD130xDriverILj128ELj64ENS_19SSD
 7691 002c 00000000 		.word	_ZN5daisy25OneBitGraphicsDisplayImplINS_11OledDisplayINS_13SSD130xDriverILj128ELj64ENS_19SSD
 7692 0030 00000000 		.word	_ZN5daisy25OneBitGraphicsDisplayImplINS_11OledDisplayINS_13SSD130xDriverILj128ELj64ENS_19SSD
 7693 0034 00000000 		.word	_ZN5daisy25OneBitGraphicsDisplayImplINS_11OledDisplayINS_13SSD130xDriverILj128ELj64ENS_19SSD
 7694 0038 00000000 		.word	_ZN5daisy11OledDisplayINS_13SSD130xDriverILj128ELj64ENS_19SSD130xI2CTransportEEEE6UpdateEv
 7695              		.global	audio_controls
 7696              		.global	synth
ARM GAS  C:\Users\matte\AppData\Local\Temp\ccj2OJiD.s 			page 216


 7697              		.global	pc
 7698              		.global	disp_handle
 7699              		.global	disp
 7700              		.global	menu
 7701              		.global	enc
 7702              		.global	hw
 7703              		.section	.bss.disp,"aw",%nobits
 7704              		.align	2
 7705              		.set	.LANCHOR5,. + 0
 7708              	disp:
 7709 0000 00000000 		.space	1040
 7709      00000000 
 7709      00000000 
 7709      00000000 
 7709      00000000 
 7710              		.section	.bss.disp_handle,"aw",%nobits
 7711              		.align	2
 7712              		.set	.LANCHOR1,. + 0
 7715              	disp_handle:
 7716 0000 00000000 		.space	2080
 7716      00000000 
 7716      00000000 
 7716      00000000 
 7716      00000000 
 7717              		.section	.bss.enc,"aw",%nobits
 7718              		.align	2
 7719              		.set	.LANCHOR3,. + 0
 7722              	enc:
 7723 0000 00000000 		.space	92
 7723      00000000 
 7723      00000000 
 7723      00000000 
 7723      00000000 
 7724              		.section	.bss.hw,"aw",%nobits
 7725              		.align	2
 7726              		.set	.LANCHOR2,. + 0
 7729              	hw:
 7730 0000 00000000 		.space	116
 7730      00000000 
 7730      00000000 
 7730      00000000 
 7730      00000000 
 7731              		.section	.bss.menu,"aw",%nobits
 7732              		.align	2
 7733              		.set	.LANCHOR4,. + 0
 7736              	menu:
 7737 0000 00000000 		.space	56
 7737      00000000 
 7737      00000000 
 7737      00000000 
 7737      00000000 
 7738              		.section	.bss.pc,"aw",%nobits
 7739              		.align	2
 7740              		.set	.LANCHOR6,. + 0
 7743              	pc:
 7744 0000 00000000 		.space	528
 7744      00000000 
ARM GAS  C:\Users\matte\AppData\Local\Temp\ccj2OJiD.s 			page 217


 7744      00000000 
 7744      00000000 
 7744      00000000 
 7745              		.section	.bss.synth,"aw",%nobits
 7746              		.align	2
 7749              	synth:
 7750 0000 00000000 		.space	396584
 7750      00000000 
 7750      00000000 
 7750      00000000 
 7750      00000000 
 7751              		.section	.data.audio_controls,"aw"
 7752              		.align	2
 7753              		.set	.LANCHOR0,. + 0
 7756              	audio_controls:
 7757 0000 0000DC43 		.word	1138491392
 7758 0004 00       		.byte	0
 7759 0005 000000   		.space	3
 7760              		.text
 7761              	.Letext0:
 7762              		.file 22 "c:\\program files\\daisytoolchain\\arm-none-eabi\\include\\machine\\_default_types.h"
 7763              		.file 23 "c:\\program files\\daisytoolchain\\arm-none-eabi\\include\\sys\\_stdint.h"
 7764              		.file 24 "c:\\program files\\daisytoolchain\\arm-none-eabi\\include\\stdint.h"
 7765              		.file 25 "c:\\program files\\daisytoolchain\\lib\\gcc\\arm-none-eabi\\10.2.1\\include\\stddef.h"
 7766              		.file 26 "c:\\program files\\daisytoolchain\\arm-none-eabi\\include\\c++\\10.2.1\\bits\\std_abs.h"
 7767              		.file 27 "c:\\program files\\daisytoolchain\\arm-none-eabi\\include\\c++\\10.2.1\\cstdlib"
 7768              		.file 28 "c:\\program files\\daisytoolchain\\arm-none-eabi\\include\\c++\\10.2.1\\cstdint"
 7769              		.file 29 "c:\\program files\\daisytoolchain\\arm-none-eabi\\include\\c++\\10.2.1\\type_traits"
 7770              		.file 30 "c:\\program files\\daisytoolchain\\arm-none-eabi\\include\\c++\\10.2.1\\debug\\debug.h"
 7771              		.file 31 "c:\\program files\\daisytoolchain\\arm-none-eabi\\include\\c++\\10.2.1\\arm-none-eabi\\t
 7772              		.file 32 "c:\\program files\\daisytoolchain\\arm-none-eabi\\include\\c++\\10.2.1\\bits\\algorithmf
 7773              		.file 33 "c:\\program files\\daisytoolchain\\arm-none-eabi\\include\\c++\\10.2.1\\bits\\stl_pair.h
 7774              		.file 34 "c:\\program files\\daisytoolchain\\arm-none-eabi\\include\\c++\\10.2.1\\bits\\exception_
 7775              		.file 35 "c:\\program files\\daisytoolchain\\arm-none-eabi\\include\\c++\\10.2.1\\cstdarg"
 7776              		.file 36 "c:\\program files\\daisytoolchain\\arm-none-eabi\\include\\c++\\10.2.1\\cstdio"
 7777              		.file 37 "c:\\program files\\daisytoolchain\\arm-none-eabi\\include\\c++\\10.2.1\\cstring"
 7778              		.file 38 "c:\\program files\\daisytoolchain\\arm-none-eabi\\include\\c++\\10.2.1\\cwchar"
 7779              		.file 39 "c:\\program files\\daisytoolchain\\arm-none-eabi\\include\\c++\\10.2.1\\clocale"
 7780              		.file 40 "c:\\program files\\daisytoolchain\\arm-none-eabi\\include\\c++\\10.2.1\\bits\\basic_stri
 7781              		.file 41 "c:\\program files\\daisytoolchain\\arm-none-eabi\\include\\c++\\10.2.1\\bits\\stl_tempbu
 7782              		.file 42 "c:\\program files\\daisytoolchain\\arm-none-eabi\\include\\c++\\10.2.1\\bits\\predefined
 7783              		.file 43 "c:\\program files\\daisytoolchain\\arm-none-eabi\\include\\sys\\_types.h"
 7784              		.file 44 "c:\\program files\\daisytoolchain\\arm-none-eabi\\include\\sys\\reent.h"
 7785              		.file 45 "c:\\program files\\daisytoolchain\\arm-none-eabi\\include\\sys\\lock.h"
 7786              		.file 46 "c:\\program files\\daisytoolchain\\arm-none-eabi\\include\\math.h"
 7787              		.file 47 "c:\\program files\\daisytoolchain\\arm-none-eabi\\include\\stdlib.h"
 7788              		.file 48 "c:\\program files\\daisytoolchain\\arm-none-eabi\\include\\c++\\10.2.1\\math.h"
 7789              		.file 49 "c:\\program files\\daisytoolchain\\arm-none-eabi\\include\\c++\\10.2.1\\stdlib.h"
 7790              		.file 50 "../libs/libDaisy/src/per/tim.h"
 7791              		.file 51 "../libs/PoliTeKDSP/libs/libDaisy/src/dev/mpr121.h"
 7792              		.file 52 "../libs/libDaisy/src/util/wav_format.h"
 7793              		.file 53 "../libs/PoliTeKDSP/libs/libDaisy/src/dev/sr_595.h"
 7794              		.file 54 "../libs/PoliTeKDSP/libs/libDaisy/src/dev/max11300.h"
 7795              		.file 55 "../libs/PoliTeKDSP/libs/libDaisy/src/dev/sdram.h"
 7796              		.file 56 "c:\\program files\\daisytoolchain\\lib\\gcc\\arm-none-eabi\\10.2.1\\include\\stdarg.h"
 7797              		.file 57 "c:\\program files\\daisytoolchain\\arm-none-eabi\\include\\stdio.h"
 7798              		.file 58 "../libs/libDaisy/src/util/oled_fonts.h"
ARM GAS  C:\Users\matte\AppData\Local\Temp\ccj2OJiD.s 			page 218


 7799              		.file 59 "c:\\program files\\daisytoolchain\\arm-none-eabi\\include\\string.h"
 7800              		.file 60 "../libs/PoliTeKDSP/libs/DaisySP/Source/Control/adenv.h"
 7801              		.file 61 "../libs/PoliTeKDSP/libs/DaisySP/Source/Control/adsr.h"
 7802              		.file 62 "../libs/DaisySP/Source/Utility/dsp.h"
 7803              		.file 63 "../libs/DaisySP/Source/Synthesis/oscillator.h"
 7804              		.file 64 "../libs/PoliTeKDSP/libs/DaisySP/Source/Filters/ladder.h"
 7805              		.file 65 "../libs/DaisySP/DaisySP-LGPL/Source/Effects/reverbsc.h"
 7806              		.file 66 "c:\\program files\\daisytoolchain\\arm-none-eabi\\include\\wchar.h"
 7807              		.file 67 "c:\\program files\\daisytoolchain\\arm-none-eabi\\include\\locale.h"
 7808              		.file 68 "Display/displayHandler.h"
 7809              		.file 69 "PSP/../../libs/PoliTeKDSP/Utilities/DataFilter/IIR/iir.h"
 7810              		.file 70 "PSP/../../libs/PoliTeKDSP/Utilities/DataFilter/MF/MF.h"
 7811              		.file 71 "PSP/PlantConditioner.h"
 7812              		.file 72 "PSP/AudioEngine.h"
 7813              		.file 73 "<built-in>"
 7814              		.file 74 "c:\\program files\\daisytoolchain\\arm-none-eabi\\include\\c++\\10.2.1\\new"
ARM GAS  C:\Users\matte\AppData\Local\Temp\ccj2OJiD.s 			page 219


DEFINED SYMBOLS
                            *ABS*:00000000 main.cpp
C:\Users\matte\AppData\Local\Temp\ccj2OJiD.s:17     .text._ZN5daisy7EncoderD2Ev:00000000 $t
C:\Users\matte\AppData\Local\Temp\ccj2OJiD.s:26     .text._ZN5daisy7EncoderD2Ev:00000000 _ZN5daisy7EncoderD2Ev
C:\Users\matte\AppData\Local\Temp\ccj2OJiD.s:26     .text._ZN5daisy7EncoderD2Ev:00000000 _ZN5daisy7EncoderD1Ev
C:\Users\matte\AppData\Local\Temp\ccj2OJiD.s:49     .text._ZN5daisy9DaisySeedD2Ev:00000000 $t
C:\Users\matte\AppData\Local\Temp\ccj2OJiD.s:57     .text._ZN5daisy9DaisySeedD2Ev:00000000 _ZN5daisy9DaisySeedD2Ev
C:\Users\matte\AppData\Local\Temp\ccj2OJiD.s:57     .text._ZN5daisy9DaisySeedD2Ev:00000000 _ZN5daisy9DaisySeedD1Ev
C:\Users\matte\AppData\Local\Temp\ccj2OJiD.s:104    .text._ZN5daisy11OledDisplayINS_13SSD130xDriverILj128ELj64ENS_19SSD130xI2CTransportEEEED2Ev:00000000 $t
C:\Users\matte\AppData\Local\Temp\ccj2OJiD.s:112    .text._ZN5daisy11OledDisplayINS_13SSD130xDriverILj128ELj64ENS_19SSD130xI2CTransportEEEED2Ev:00000000 _ZN5daisy11OledDisplayINS_13SSD130xDriverILj128ELj64ENS_19SSD130xI2CTransportEEEED2Ev
C:\Users\matte\AppData\Local\Temp\ccj2OJiD.s:112    .text._ZN5daisy11OledDisplayINS_13SSD130xDriverILj128ELj64ENS_19SSD130xI2CTransportEEEED2Ev:00000000 _ZN5daisy11OledDisplayINS_13SSD130xDriverILj128ELj64ENS_19SSD130xI2CTransportEEEED1Ev
C:\Users\matte\AppData\Local\Temp\ccj2OJiD.s:139    .text._ZNK5daisy11OledDisplayINS_13SSD130xDriverILj128ELj64ENS_19SSD130xI2CTransportEEEE6HeightEv:00000000 $t
C:\Users\matte\AppData\Local\Temp\ccj2OJiD.s:147    .text._ZNK5daisy11OledDisplayINS_13SSD130xDriverILj128ELj64ENS_19SSD130xI2CTransportEEEE6HeightEv:00000000 _ZNK5daisy11OledDisplayINS_13SSD130xDriverILj128ELj64ENS_19SSD130xI2CTransportEEEE6HeightEv
C:\Users\matte\AppData\Local\Temp\ccj2OJiD.s:164    .text._ZNK5daisy11OledDisplayINS_13SSD130xDriverILj128ELj64ENS_19SSD130xI2CTransportEEEE5WidthEv:00000000 $t
C:\Users\matte\AppData\Local\Temp\ccj2OJiD.s:172    .text._ZNK5daisy11OledDisplayINS_13SSD130xDriverILj128ELj64ENS_19SSD130xI2CTransportEEEE5WidthEv:00000000 _ZNK5daisy11OledDisplayINS_13SSD130xDriverILj128ELj64ENS_19SSD130xI2CTransportEEEE5WidthEv
C:\Users\matte\AppData\Local\Temp\ccj2OJiD.s:189    .text._ZN5daisy11OledDisplayINS_13SSD130xDriverILj128ELj64ENS_19SSD130xI2CTransportEEEE4FillEb:00000000 $t
C:\Users\matte\AppData\Local\Temp\ccj2OJiD.s:197    .text._ZN5daisy11OledDisplayINS_13SSD130xDriverILj128ELj64ENS_19SSD130xI2CTransportEEEE4FillEb:00000000 _ZN5daisy11OledDisplayINS_13SSD130xDriverILj128ELj64ENS_19SSD130xI2CTransportEEEE4FillEb
C:\Users\matte\AppData\Local\Temp\ccj2OJiD.s:229    .text._Z13AudioCallbackPKPKfPPfj:00000000 $t
C:\Users\matte\AppData\Local\Temp\ccj2OJiD.s:237    .text._Z13AudioCallbackPKPKfPPfj:00000000 _Z13AudioCallbackPKPKfPPfj
C:\Users\matte\AppData\Local\Temp\ccj2OJiD.s:332    .text._Z13AudioCallbackPKPKfPPfj:0000004c $d
C:\Users\matte\AppData\Local\Temp\ccj2OJiD.s:7749   .bss.synth:00000000 synth
C:\Users\matte\AppData\Local\Temp\ccj2OJiD.s:339    .text._ZN5daisy11OledDisplayINS_13SSD130xDriverILj128ELj64ENS_19SSD130xI2CTransportEEEED0Ev:00000000 $t
C:\Users\matte\AppData\Local\Temp\ccj2OJiD.s:347    .text._ZN5daisy11OledDisplayINS_13SSD130xDriverILj128ELj64ENS_19SSD130xI2CTransportEEEED0Ev:00000000 _ZN5daisy11OledDisplayINS_13SSD130xDriverILj128ELj64ENS_19SSD130xI2CTransportEEEED0Ev
C:\Users\matte\AppData\Local\Temp\ccj2OJiD.s:387    .text._ZN5daisy11OledDisplayINS_13SSD130xDriverILj128ELj64ENS_19SSD130xI2CTransportEEEE6UpdateEv:00000000 $t
C:\Users\matte\AppData\Local\Temp\ccj2OJiD.s:395    .text._ZN5daisy11OledDisplayINS_13SSD130xDriverILj128ELj64ENS_19SSD130xI2CTransportEEEE6UpdateEv:00000000 _ZN5daisy11OledDisplayINS_13SSD130xDriverILj128ELj64ENS_19SSD130xI2CTransportEEEE6UpdateEv
C:\Users\matte\AppData\Local\Temp\ccj2OJiD.s:578    .text._ZN5daisy25OneBitGraphicsDisplayImplINS_11OledDisplayINS_13SSD130xDriverILj128ELj64ENS_19SSD130xI2CTransportEEEEEE11WriteStringEPKc7FontDefb:00000000 $t
C:\Users\matte\AppData\Local\Temp\ccj2OJiD.s:586    .text._ZN5daisy25OneBitGraphicsDisplayImplINS_11OledDisplayINS_13SSD130xDriverILj128ELj64ENS_19SSD130xI2CTransportEEEEEE11WriteStringEPKc7FontDefb:00000000 _ZN5daisy25OneBitGraphicsDisplayImplINS_11OledDisplayINS_13SSD130xDriverILj128ELj64ENS_19SSD130xI2CTransportEEEEEE11WriteStringEPKc7FontDefb
C:\Users\matte\AppData\Local\Temp\ccj2OJiD.s:1043   .text._ZN5daisy25OneBitGraphicsDisplayImplINS_11OledDisplayINS_13SSD130xDriverILj128ELj64ENS_19SSD130xI2CTransportEEEEEE11WriteStringEPKc7FontDefb:000001b8 $d
C:\Users\matte\AppData\Local\Temp\ccj2OJiD.s:1053   .text._ZN5daisy25OneBitGraphicsDisplayImplINS_11OledDisplayINS_13SSD130xDriverILj128ELj64ENS_19SSD130xI2CTransportEEEEEE9WriteCharEc7FontDefb:00000000 $t
C:\Users\matte\AppData\Local\Temp\ccj2OJiD.s:1061   .text._ZN5daisy25OneBitGraphicsDisplayImplINS_11OledDisplayINS_13SSD130xDriverILj128ELj64ENS_19SSD130xI2CTransportEEEEEE9WriteCharEc7FontDefb:00000000 _ZN5daisy25OneBitGraphicsDisplayImplINS_11OledDisplayINS_13SSD130xDriverILj128ELj64ENS_19SSD130xI2CTransportEEEEEE9WriteCharEc7FontDefb
C:\Users\matte\AppData\Local\Temp\ccj2OJiD.s:1487   .text._ZN5daisy25OneBitGraphicsDisplayImplINS_11OledDisplayINS_13SSD130xDriverILj128ELj64ENS_19SSD130xI2CTransportEEEEEE9WriteCharEc7FontDefb:00000198 $d
C:\Users\matte\AppData\Local\Temp\ccj2OJiD.s:1495   .text._ZN5daisy25OneBitGraphicsDisplayImplINS_11OledDisplayINS_13SSD130xDriverILj128ELj64ENS_19SSD130xI2CTransportEEEEEE18WriteStringAlignedEPKcRK7FontDefNS_9RectangleENS_9AlignmentEb:00000000 $t
C:\Users\matte\AppData\Local\Temp\ccj2OJiD.s:1503   .text._ZN5daisy25OneBitGraphicsDisplayImplINS_11OledDisplayINS_13SSD130xDriverILj128ELj64ENS_19SSD130xI2CTransportEEEEEE18WriteStringAlignedEPKcRK7FontDefNS_9RectangleENS_9AlignmentEb:00000000 _ZN5daisy25OneBitGraphicsDisplayImplINS_11OledDisplayINS_13SSD130xDriverILj128ELj64ENS_19SSD130xI2CTransportEEEEEE18WriteStringAlignedEPKcRK7FontDefNS_9RectangleENS_9AlignmentEb
C:\Users\matte\AppData\Local\Temp\ccj2OJiD.s:1642   .text._ZN5daisy25OneBitGraphicsDisplayImplINS_11OledDisplayINS_13SSD130xDriverILj128ELj64ENS_19SSD130xI2CTransportEEEEEE18WriteStringAlignedEPKcRK7FontDefNS_9RectangleENS_9AlignmentEb:00000046 $d
C:\Users\matte\AppData\Local\Temp\ccj2OJiD.s:1651   .text._ZN5daisy25OneBitGraphicsDisplayImplINS_11OledDisplayINS_13SSD130xDriverILj128ELj64ENS_19SSD130xI2CTransportEEEEEE18WriteStringAlignedEPKcRK7FontDefNS_9RectangleENS_9AlignmentEb:00000058 $t
C:\Users\matte\AppData\Local\Temp\ccj2OJiD.s:2859   .text._ZN5daisy25OneBitGraphicsDisplayImplINS_11OledDisplayINS_13SSD130xDriverILj128ELj64ENS_19SSD130xI2CTransportEEEEEE18WriteStringAlignedEPKcRK7FontDefNS_9RectangleENS_9AlignmentEb:00000320 $d
C:\Users\matte\AppData\Local\Temp\ccj2OJiD.s:2868   .text._ZN5daisy25OneBitGraphicsDisplayImplINS_11OledDisplayINS_13SSD130xDriverILj128ELj64ENS_19SSD130xI2CTransportEEEEEE18WriteStringAlignedEPKcRK7FontDefNS_9RectangleENS_9AlignmentEb:00000328 $t
C:\Users\matte\AppData\Local\Temp\ccj2OJiD.s:3179   .text._ZN5daisy25OneBitGraphicsDisplayImplINS_11OledDisplayINS_13SSD130xDriverILj128ELj64ENS_19SSD130xI2CTransportEEEEEE18WriteStringAlignedEPKcRK7FontDefNS_9RectangleENS_9AlignmentEb:000003e8 $d
C:\Users\matte\AppData\Local\Temp\ccj2OJiD.s:3187   .text._ZN5daisy11OledDisplayINS_13SSD130xDriverILj128ELj64ENS_19SSD130xI2CTransportEEEE9DrawPixelEjjb:00000000 $t
C:\Users\matte\AppData\Local\Temp\ccj2OJiD.s:3195   .text._ZN5daisy11OledDisplayINS_13SSD130xDriverILj128ELj64ENS_19SSD130xI2CTransportEEEE9DrawPixelEjjb:00000000 _ZN5daisy11OledDisplayINS_13SSD130xDriverILj128ELj64ENS_19SSD130xI2CTransportEEEE9DrawPixelEjjb
C:\Users\matte\AppData\Local\Temp\ccj2OJiD.s:3272   .text._ZN5daisy25OneBitGraphicsDisplayImplINS_11OledDisplayINS_13SSD130xDriverILj128ELj64ENS_19SSD130xI2CTransportEEEEEE8DrawLineEjjjjb:00000000 $t
C:\Users\matte\AppData\Local\Temp\ccj2OJiD.s:3280   .text._ZN5daisy25OneBitGraphicsDisplayImplINS_11OledDisplayINS_13SSD130xDriverILj128ELj64ENS_19SSD130xI2CTransportEEEEEE8DrawLineEjjjjb:00000000 _ZN5daisy25OneBitGraphicsDisplayImplINS_11OledDisplayINS_13SSD130xDriverILj128ELj64ENS_19SSD130xI2CTransportEEEEEE8DrawLineEjjjjb
C:\Users\matte\AppData\Local\Temp\ccj2OJiD.s:3565   .text._ZN5daisy25OneBitGraphicsDisplayImplINS_11OledDisplayINS_13SSD130xDriverILj128ELj64ENS_19SSD130xI2CTransportEEEEEE7DrawArcEjjjiib:00000000 $t
C:\Users\matte\AppData\Local\Temp\ccj2OJiD.s:3573   .text._ZN5daisy25OneBitGraphicsDisplayImplINS_11OledDisplayINS_13SSD130xDriverILj128ELj64ENS_19SSD130xI2CTransportEEEEEE7DrawArcEjjjiib:00000000 _ZN5daisy25OneBitGraphicsDisplayImplINS_11OledDisplayINS_13SSD130xDriverILj128ELj64ENS_19SSD130xI2CTransportEEEEEE7DrawArcEjjjiib
C:\Users\matte\AppData\Local\Temp\ccj2OJiD.s:4258   .text._ZN5daisy25OneBitGraphicsDisplayImplINS_11OledDisplayINS_13SSD130xDriverILj128ELj64ENS_19SSD130xI2CTransportEEEEEE7DrawArcEjjjiib:00000368 $d
C:\Users\matte\AppData\Local\Temp\ccj2OJiD.s:4272   .text._ZN5daisy25OneBitGraphicsDisplayImplINS_11OledDisplayINS_13SSD130xDriverILj128ELj64ENS_19SSD130xI2CTransportEEEEEE7DrawArcEjjjiib:00000378 $t
C:\Users\matte\AppData\Local\Temp\ccj2OJiD.s:4498   .text._ZN5daisy25OneBitGraphicsDisplayImplINS_11OledDisplayINS_13SSD130xDriverILj128ELj64ENS_19SSD130xI2CTransportEEEEEE8DrawRectEjjjjbb:00000000 $t
C:\Users\matte\AppData\Local\Temp\ccj2OJiD.s:4506   .text._ZN5daisy25OneBitGraphicsDisplayImplINS_11OledDisplayINS_13SSD130xDriverILj128ELj64ENS_19SSD130xI2CTransportEEEEEE8DrawRectEjjjjbb:00000000 _ZN5daisy25OneBitGraphicsDisplayImplINS_11OledDisplayINS_13SSD130xDriverILj128ELj64ENS_19SSD130xI2CTransportEEEEEE8DrawRectEjjjjbb
C:\Users\matte\AppData\Local\Temp\ccj2OJiD.s:5616   .text._ZN5daisy13SSD130xDriverILj128ELj64ENS_19SSD130xI2CTransportEE4InitENS2_6ConfigE:00000000 $t
C:\Users\matte\AppData\Local\Temp\ccj2OJiD.s:5624   .text._ZN5daisy13SSD130xDriverILj128ELj64ENS_19SSD130xI2CTransportEE4InitENS2_6ConfigE:00000000 _ZN5daisy13SSD130xDriverILj128ELj64ENS_19SSD130xI2CTransportEE4InitENS2_6ConfigE
C:\Users\matte\AppData\Local\Temp\ccj2OJiD.s:6277   .rodata.main.str1.4:00000000 $d
C:\Users\matte\AppData\Local\Temp\ccj2OJiD.s:6296   .text.startup.main:00000000 $t
C:\Users\matte\AppData\Local\Temp\ccj2OJiD.s:6304   .text.startup.main:00000000 main
C:\Users\matte\AppData\Local\Temp\ccj2OJiD.s:6770   .text.startup.main:0000017a $d
C:\Users\matte\AppData\Local\Temp\ccj2OJiD.s:7043   .text.startup.main:00000278 $d
C:\Users\matte\AppData\Local\Temp\ccj2OJiD.s:7069   .text.startup._GLOBAL__sub_I_hw:00000000 $t
C:\Users\matte\AppData\Local\Temp\ccj2OJiD.s:7076   .text.startup._GLOBAL__sub_I_hw:00000000 _GLOBAL__sub_I_hw
ARM GAS  C:\Users\matte\AppData\Local\Temp\ccj2OJiD.s 			page 220


C:\Users\matte\AppData\Local\Temp\ccj2OJiD.s:7653   .text.startup._GLOBAL__sub_I_hw:000000a4 $d
C:\Users\matte\AppData\Local\Temp\ccj2OJiD.s:7679   .rodata._ZTVN5daisy11OledDisplayINS_13SSD130xDriverILj128ELj64ENS_19SSD130xI2CTransportEEEEE:00000000 _ZTVN5daisy11OledDisplayINS_13SSD130xDriverILj128ELj64ENS_19SSD130xI2CTransportEEEEE
C:\Users\matte\AppData\Local\Temp\ccj2OJiD.s:7672   .init_array:00000000 $d
C:\Users\matte\AppData\Local\Temp\ccj2OJiD.s:7676   .rodata._ZTVN5daisy11OledDisplayINS_13SSD130xDriverILj128ELj64ENS_19SSD130xI2CTransportEEEEE:00000000 $d
C:\Users\matte\AppData\Local\Temp\ccj2OJiD.s:7756   .data.audio_controls:00000000 audio_controls
C:\Users\matte\AppData\Local\Temp\ccj2OJiD.s:7743   .bss.pc:00000000 pc
C:\Users\matte\AppData\Local\Temp\ccj2OJiD.s:7715   .bss.disp_handle:00000000 disp_handle
C:\Users\matte\AppData\Local\Temp\ccj2OJiD.s:7708   .bss.disp:00000000 disp
C:\Users\matte\AppData\Local\Temp\ccj2OJiD.s:7736   .bss.menu:00000000 menu
C:\Users\matte\AppData\Local\Temp\ccj2OJiD.s:7722   .bss.enc:00000000 enc
C:\Users\matte\AppData\Local\Temp\ccj2OJiD.s:7729   .bss.hw:00000000 hw
C:\Users\matte\AppData\Local\Temp\ccj2OJiD.s:7704   .bss.disp:00000000 $d
C:\Users\matte\AppData\Local\Temp\ccj2OJiD.s:7711   .bss.disp_handle:00000000 $d
C:\Users\matte\AppData\Local\Temp\ccj2OJiD.s:7718   .bss.enc:00000000 $d
C:\Users\matte\AppData\Local\Temp\ccj2OJiD.s:7725   .bss.hw:00000000 $d
C:\Users\matte\AppData\Local\Temp\ccj2OJiD.s:7732   .bss.menu:00000000 $d
C:\Users\matte\AppData\Local\Temp\ccj2OJiD.s:7739   .bss.pc:00000000 $d
C:\Users\matte\AppData\Local\Temp\ccj2OJiD.s:7746   .bss.synth:00000000 $d
C:\Users\matte\AppData\Local\Temp\ccj2OJiD.s:7752   .data.audio_controls:00000000 $d
C:\Users\matte\AppData\Local\Temp\ccj2OJiD.s:6779   .text.startup.main:00000183 $d
C:\Users\matte\AppData\Local\Temp\ccj2OJiD.s:6779   .text.startup.main:00000184 $t
                           .group:00000000 _ZN5daisy7EncoderD5Ev
                           .group:00000000 _ZN5daisy9DaisySeedD5Ev
                           .group:00000000 _ZN5daisy11OledDisplayINS_13SSD130xDriverILj128ELj64ENS_19SSD130xI2CTransportEEEED5Ev

UNDEFINED SYMBOLS
memset
_ZN11AudioEngine6UpdateE14ControlsStruct
_ZN11AudioEngine7ProcessEv
_ZN14DisplayHandler15pushAudioSampleEf
_ZdlPvj
_ZN5daisy9I2CHandle16TransmitBlockingEtPhtm
cosf
sinf
_ZN5daisy9I2CHandle4InitERKNS0_6ConfigE
_ZN5daisy9DaisySeed4InitEb
_ZN5daisy9DaisySeed6GetPinEh
_ZN5daisy7Encoder4InitENS_3PinES1_S1_f
_ZN11MenuManager4InitEv
_ZN14DisplayHandler9SetYscaleEi
_ZN14DisplayHandler8SetStateE12DisplayState
_ZN16PlantConditioner4InitEN3IIR10FilterTypeEPN5daisy9DaisySeedE
_ZN5daisy9DaisySeed15AudioSampleRateEv
_ZN11AudioEngine4InitEf
_ZN11AudioEngine9SetPresetE11SynthPreset
_ZN5daisy9DaisySeed10StartAudioEPFvPKPKfPPfjE
_ZN5daisy6System6GetNowEv
_ZN16PlantConditioner8setDeltaEf
_ZN16PlantConditioner8setCurveEf
_ZN16PlantConditioner9setOctaveEh
_ZN16PlantConditioner8setScaleENS_5NotesENS_9ScaleTypeE
_ZN16PlantConditioner7ProcessEv
_ZN14DisplayHandler6UpdateEv
_ZN5daisy7Encoder8DebounceEv
_ZN14DisplayHandler16DrawIntParameterEPKci
_ZN14DisplayHandler18DrawFloatParameterEPKcf
_ZN14DisplayHandler13DrawScalesHubEi
ARM GAS  C:\Users\matte\AppData\Local\Temp\ccj2OJiD.s 			page 221


_ZN14DisplayHandler18DrawCalibrationHubEi
_ZN14DisplayHandler12DrawMainMenuEi
_ZN11MenuManager15StateTransitionEbib
__aeabi_atexit
_ZN14DisplayHandlerC1EPN5daisy11OledDisplayINS0_13SSD130xDriverILj128ELj64ENS0_19SSD130xI2CTransportEEEEEb
_ZN16PlantConditionerC1Ev
_ZN11AudioEngineC1Ev
__dso_handle
_ZN16PlantConditionerD1Ev
_ZN11AudioEngineD1Ev
